; ModuleID = '/home/hjiang/Computation-Kernel-Dataset/experiments/Fault_injection_0306/O0/AfraidoftheDark/AfraidoftheDark.ll'
source_filename = "llvm-link"
target datalayout = "e-m:e-p270:32:32-p271:32:32-p272:64:64-i64:64-f80:128-n8:16:32:64-S128"
target triple = "x86_64-unknown-linux-gnu"

%"class.std::allocator" = type { i8 }
%"class.std::vector" = type { %"struct.std::_Vector_base" }
%"struct.std::_Vector_base" = type { %"struct.std::_Vector_base<std::vector<std::pair<int, int>>, std::allocator<std::vector<std::pair<int, int>>>>::_Vector_impl" }
%"struct.std::_Vector_base<std::vector<std::pair<int, int>>, std::allocator<std::vector<std::pair<int, int>>>>::_Vector_impl" = type { %"struct.std::_Vector_base<std::vector<std::pair<int, int>>, std::allocator<std::vector<std::pair<int, int>>>>::_Vector_impl_data" }
%"struct.std::_Vector_base<std::vector<std::pair<int, int>>, std::allocator<std::vector<std::pair<int, int>>>>::_Vector_impl_data" = type { %"class.std::vector.0"*, %"class.std::vector.0"*, %"class.std::vector.0"* }
%"class.std::vector.0" = type { %"struct.std::_Vector_base.1" }
%"struct.std::_Vector_base.1" = type { %"struct.std::_Vector_base<std::pair<int, int>, std::allocator<std::pair<int, int>>>::_Vector_impl" }
%"struct.std::_Vector_base<std::pair<int, int>, std::allocator<std::pair<int, int>>>::_Vector_impl" = type { %"struct.std::_Vector_base<std::pair<int, int>, std::allocator<std::pair<int, int>>>::_Vector_impl_data" }
%"struct.std::_Vector_base<std::pair<int, int>, std::allocator<std::pair<int, int>>>::_Vector_impl_data" = type { %"struct.std::pair"*, %"struct.std::pair"*, %"struct.std::pair"* }
%"struct.std::pair" = type { i32, i32 }
%struct._IO_FILE = type { i32, i8*, i8*, i8*, i8*, i8*, i8*, i8*, i8*, i8*, i8*, i8*, %struct._IO_marker*, %struct._IO_FILE*, i32, i32, i64, i16, i8, [1 x i8], i8*, i64, %struct._IO_codecvt*, %struct._IO_wide_data*, %struct._IO_FILE*, i8*, i64, i32, [20 x i8] }
%struct._IO_marker = type opaque
%struct._IO_codecvt = type opaque
%struct._IO_wide_data = type opaque
%"class.std::basic_istream" = type { i32 (...)**, i64, %"class.std::basic_ios" }
%"class.std::basic_ios" = type { %"class.std::ios_base", %"class.std::basic_ostream"*, i8, i8, %"class.std::basic_streambuf"*, %"class.std::ctype"*, %"class.std::num_put"*, %"class.std::num_put"* }
%"class.std::ios_base" = type { i32 (...)**, i64, i64, i32, i32, i32, %"struct.std::ios_base::_Callback_list"*, %"struct.std::ios_base::_Words", [8 x %"struct.std::ios_base::_Words"], i32, %"struct.std::ios_base::_Words"*, %"class.std::locale" }
%"struct.std::ios_base::_Callback_list" = type { %"struct.std::ios_base::_Callback_list"*, void (i32, %"class.std::ios_base"*, i32)*, i32, i32 }
%"struct.std::ios_base::_Words" = type { i8*, i64 }
%"class.std::locale" = type { %"class.std::locale::_Impl"* }
%"class.std::locale::_Impl" = type { i32, %"class.std::locale::facet"**, i64, %"class.std::locale::facet"**, i8** }
%"class.std::locale::facet" = type <{ i32 (...)**, i32, [4 x i8] }>
%"class.std::basic_ostream" = type { i32 (...)**, %"class.std::basic_ios" }
%"class.std::basic_streambuf" = type { i32 (...)**, i8*, i8*, i8*, i8*, i8*, i8*, %"class.std::locale" }
%"class.std::ctype" = type <{ %"class.std::locale::facet.base", [4 x i8], %struct.__locale_struct*, i8, [7 x i8], i32*, i32*, i16*, i8, [256 x i8], [256 x i8], i8, [6 x i8] }>
%"class.std::locale::facet.base" = type <{ i32 (...)**, i32 }>
%struct.__locale_struct = type { [13 x %struct.__locale_data*], i16*, i32*, i32*, [13 x i8*] }
%struct.__locale_data = type opaque
%"class.std::num_put" = type { %"class.std::locale::facet.base", [4 x i8] }
%"class.__gnu_cxx::__normal_iterator" = type { %"struct.std::pair"* }

$_ZNSt6vectorIS_ISt4pairIiiESaIS1_EESaIS3_EEC2Ev = comdat any

$_ZNSt6vectorIS_ISt4pairIiiESaIS1_EESaIS3_EED2Ev = comdat any

$_ZNSt12_Vector_baseISt6vectorISt4pairIiiESaIS2_EESaIS4_EE19_M_get_Tp_allocatorEv = comdat any

$_ZSt8_DestroyIPSt6vectorISt4pairIiiESaIS2_EES4_EvT_S6_RSaIT0_E = comdat any

$_ZNSt12_Vector_baseISt6vectorISt4pairIiiESaIS2_EESaIS4_EED2Ev = comdat any

$__clang_call_terminate = comdat any

$_ZNSt12_Vector_baseISt6vectorISt4pairIiiESaIS2_EESaIS4_EE13_M_deallocateEPS4_m = comdat any

$_ZNSt12_Vector_baseISt6vectorISt4pairIiiESaIS2_EESaIS4_EE12_Vector_implD2Ev = comdat any

$_ZNSaISt6vectorISt4pairIiiESaIS1_EEED2Ev = comdat any

$_ZN9__gnu_cxx13new_allocatorISt6vectorISt4pairIiiESaIS3_EEED2Ev = comdat any

$_ZNSt16allocator_traitsISaISt6vectorISt4pairIiiESaIS2_EEEE10deallocateERS5_PS4_m = comdat any

$_ZN9__gnu_cxx13new_allocatorISt6vectorISt4pairIiiESaIS3_EEE10deallocateEPS5_m = comdat any

$_ZSt8_DestroyIPSt6vectorISt4pairIiiESaIS2_EEEvT_S6_ = comdat any

$_ZNSt12_Destroy_auxILb0EE9__destroyIPSt6vectorISt4pairIiiESaIS4_EEEEvT_S8_ = comdat any

$_ZSt11__addressofISt6vectorISt4pairIiiESaIS2_EEEPT_RS5_ = comdat any

$_ZSt8_DestroyISt6vectorISt4pairIiiESaIS2_EEEvPT_ = comdat any

$_ZNSt6vectorISt4pairIiiESaIS1_EED2Ev = comdat any

$_ZNSt12_Vector_baseISt4pairIiiESaIS1_EE19_M_get_Tp_allocatorEv = comdat any

$_ZSt8_DestroyIPSt4pairIiiES1_EvT_S3_RSaIT0_E = comdat any

$_ZNSt12_Vector_baseISt4pairIiiESaIS1_EED2Ev = comdat any

$_ZNSt12_Vector_baseISt4pairIiiESaIS1_EE13_M_deallocateEPS1_m = comdat any

$_ZNSt12_Vector_baseISt4pairIiiESaIS1_EE12_Vector_implD2Ev = comdat any

$_ZNSaISt4pairIiiEED2Ev = comdat any

$_ZN9__gnu_cxx13new_allocatorISt4pairIiiEED2Ev = comdat any

$_ZNSt16allocator_traitsISaISt4pairIiiEEE10deallocateERS2_PS1_m = comdat any

$_ZN9__gnu_cxx13new_allocatorISt4pairIiiEE10deallocateEPS2_m = comdat any

$_ZSt8_DestroyIPSt4pairIiiEEvT_S3_ = comdat any

$_ZNSt12_Destroy_auxILb1EE9__destroyIPSt4pairIiiEEEvT_S5_ = comdat any

$_ZNSt12_Vector_baseISt6vectorISt4pairIiiESaIS2_EESaIS4_EEC2Ev = comdat any

$_ZNSt12_Vector_baseISt6vectorISt4pairIiiESaIS2_EESaIS4_EE12_Vector_implC2Ev = comdat any

$_ZNSaISt6vectorISt4pairIiiESaIS1_EEEC2Ev = comdat any

$_ZNSt12_Vector_baseISt6vectorISt4pairIiiESaIS2_EESaIS4_EE17_Vector_impl_dataC2Ev = comdat any

$_ZN9__gnu_cxx13new_allocatorISt6vectorISt4pairIiiESaIS3_EEEC2Ev = comdat any

$_ZNSt6vectorIS_ISt4pairIiiESaIS1_EESaIS3_EEixEm = comdat any

$_ZNKSt6vectorISt4pairIiiESaIS1_EE4sizeEv = comdat any

$_ZNSt6vectorISt4pairIiiESaIS1_EEixEm = comdat any

$_ZSt3minIiERKT_S2_S2_ = comdat any

$_ZSt9make_pairIiiESt4pairINSt17__decay_and_stripIT_E6__typeENS1_IT0_E6__typeEEOS2_OS5_ = comdat any

$_ZNSt4pairIiiEaSERKS0_ = comdat any

$_ZSt9make_pairIRiS0_ESt4pairINSt17__decay_and_stripIT_E6__typeENS2_IT0_E6__typeEEOS3_OS6_ = comdat any

$_ZNSt4pairIiiEaSEOS0_ = comdat any

$_ZSt7forwardIiEOT_RNSt16remove_referenceIS0_E4typeE = comdat any

$_ZSt7forwardIRiEOT_RNSt16remove_referenceIS1_E4typeE = comdat any

$_ZNSt4pairIiiEC2IRiS2_Lb1EEEOT_OT0_ = comdat any

$_ZNSt4pairIiiEC2IiiLb1EEEOT_OT0_ = comdat any

$_ZNSt6vectorIS_ISt4pairIiiESaIS1_EESaIS3_EEC2EmRKS4_ = comdat any

$_ZNSt6vectorIS_ISt4pairIiiESaIS1_EESaIS3_EEaSEOS5_ = comdat any

$_ZSt9make_pairIRiiESt4pairINSt17__decay_and_stripIT_E6__typeENS2_IT0_E6__typeEEOS3_OS6_ = comdat any

$_ZNSt6vectorISt4pairIiiESaIS1_EE9push_backEOS1_ = comdat any

$_ZSt4moveIRSt4pairIiiEEONSt16remove_referenceIT_E4typeEOS4_ = comdat any

$_ZNSt6vectorISt4pairIiiESaIS1_EE12emplace_backIJS1_EEEvDpOT_ = comdat any

$_ZSt7forwardISt4pairIiiEEOT_RNSt16remove_referenceIS2_E4typeE = comdat any

$_ZNSt16allocator_traitsISaISt4pairIiiEEE9constructIS1_JS1_EEEvRS2_PT_DpOT0_ = comdat any

$_ZNSt6vectorISt4pairIiiESaIS1_EE3endEv = comdat any

$_ZNSt6vectorISt4pairIiiESaIS1_EE17_M_realloc_insertIJS1_EEEvN9__gnu_cxx17__normal_iteratorIPS1_S3_EEDpOT_ = comdat any

$_ZNKSt6vectorISt4pairIiiESaIS1_EE12_M_check_lenEmPKc = comdat any

$_ZNSt6vectorISt4pairIiiESaIS1_EE5beginEv = comdat any

$_ZN9__gnu_cxxmiIPSt4pairIiiESt6vectorIS2_SaIS2_EEEENS_17__normal_iteratorIT_T0_E15difference_typeERKSA_SD_ = comdat any

$_ZNSt12_Vector_baseISt4pairIiiESaIS1_EE11_M_allocateEm = comdat any

$_ZNK9__gnu_cxx17__normal_iteratorIPSt4pairIiiESt6vectorIS2_SaIS2_EEE4baseEv = comdat any

$_ZNSt6vectorISt4pairIiiESaIS1_EE11_S_relocateEPS1_S4_S4_RS2_ = comdat any

$_ZNSt6vectorISt4pairIiiESaIS1_EE14_S_do_relocateEPS1_S4_S4_RS2_St17integral_constantIbLb1EE = comdat any

$_ZSt12__relocate_aIPSt4pairIiiES2_SaIS1_EET0_T_S5_S4_RT1_ = comdat any

$_ZSt12__niter_baseIPSt4pairIiiEET_S3_ = comdat any

$_ZSt14__relocate_a_1IPSt4pairIiiES2_SaIS1_EET0_T_S5_S4_RT1_ = comdat any

$_ZSt11__addressofISt4pairIiiEEPT_RS2_ = comdat any

$_ZSt19__relocate_object_aISt4pairIiiES1_SaIS1_EEvPT_PT0_RT1_ = comdat any

$_ZNSt16allocator_traitsISaISt4pairIiiEEE7destroyIS1_EEvRS2_PT_ = comdat any

$_ZN9__gnu_cxx13new_allocatorISt4pairIiiEE7destroyIS2_EEvPT_ = comdat any

$_ZNSt16allocator_traitsISaISt4pairIiiEEE8allocateERS2_m = comdat any

$_ZN9__gnu_cxx13new_allocatorISt4pairIiiEE8allocateEmPKv = comdat any

$_ZNK9__gnu_cxx13new_allocatorISt4pairIiiEE8max_sizeEv = comdat any

$_ZN9__gnu_cxx17__normal_iteratorIPSt4pairIiiESt6vectorIS2_SaIS2_EEEC2ERKS3_ = comdat any

$_ZNKSt6vectorISt4pairIiiESaIS1_EE8max_sizeEv = comdat any

$_ZSt3maxImERKT_S2_S2_ = comdat any

$_ZNKSt12_Vector_baseISt4pairIiiESaIS1_EE19_M_get_Tp_allocatorEv = comdat any

$_ZNSt6vectorISt4pairIiiESaIS1_EE11_S_max_sizeERKS2_ = comdat any

$_ZNSt16allocator_traitsISaISt4pairIiiEEE8max_sizeERKS2_ = comdat any

$_ZSt3minImERKT_S2_S2_ = comdat any

$_ZN9__gnu_cxx13new_allocatorISt4pairIiiEE9constructIS2_JS2_EEEvPT_DpOT0_ = comdat any

$_ZNSt4pairIiiEC2IRiiLb1EEEOT_OT0_ = comdat any

$_ZSt4moveIRSt6vectorIS0_ISt4pairIiiESaIS2_EESaIS4_EEEONSt16remove_referenceIT_E4typeEOS9_ = comdat any

$_ZNSt6vectorIS_ISt4pairIiiESaIS1_EESaIS3_EE14_M_move_assignEOS5_St17integral_constantIbLb1EE = comdat any

$_ZNKSt12_Vector_baseISt6vectorISt4pairIiiESaIS2_EESaIS4_EE13get_allocatorEv = comdat any

$_ZNSt6vectorIS_ISt4pairIiiESaIS1_EESaIS3_EEC2ERKS4_ = comdat any

$_ZNSt12_Vector_baseISt6vectorISt4pairIiiESaIS2_EESaIS4_EE17_Vector_impl_data12_M_swap_dataERS7_ = comdat any

$_ZSt15__alloc_on_moveISaISt6vectorISt4pairIiiESaIS2_EEEEvRT_S7_ = comdat any

$_ZSt18__do_alloc_on_moveISaISt6vectorISt4pairIiiESaIS2_EEEEvRT_S7_St17integral_constantIbLb1EE = comdat any

$_ZSt4moveIRSaISt6vectorISt4pairIiiESaIS2_EEEEONSt16remove_referenceIT_E4typeEOS8_ = comdat any

$_ZNSt12_Vector_baseISt6vectorISt4pairIiiESaIS2_EESaIS4_EE17_Vector_impl_data12_M_copy_dataERKS7_ = comdat any

$_ZNSt12_Vector_baseISt6vectorISt4pairIiiESaIS2_EESaIS4_EEC2ERKS5_ = comdat any

$_ZNSt12_Vector_baseISt6vectorISt4pairIiiESaIS2_EESaIS4_EE12_Vector_implC2ERKS5_ = comdat any

$_ZNSaISt6vectorISt4pairIiiESaIS1_EEEC2ERKS4_ = comdat any

$_ZN9__gnu_cxx13new_allocatorISt6vectorISt4pairIiiESaIS3_EEEC2ERKS6_ = comdat any

$_ZNKSt12_Vector_baseISt6vectorISt4pairIiiESaIS2_EESaIS4_EE19_M_get_Tp_allocatorEv = comdat any

$_ZNSt6vectorIS_ISt4pairIiiESaIS1_EESaIS3_EE17_S_check_init_lenEmRKS4_ = comdat any

$_ZNSt12_Vector_baseISt6vectorISt4pairIiiESaIS2_EESaIS4_EEC2EmRKS5_ = comdat any

$_ZNSt6vectorIS_ISt4pairIiiESaIS1_EESaIS3_EE21_M_default_initializeEm = comdat any

$_ZSt27__uninitialized_default_n_aIPSt6vectorISt4pairIiiESaIS2_EEmS4_ET_S6_T0_RSaIT1_E = comdat any

$_ZSt25__uninitialized_default_nIPSt6vectorISt4pairIiiESaIS2_EEmET_S6_T0_ = comdat any

$_ZNSt27__uninitialized_default_n_1ILb0EE18__uninit_default_nIPSt6vectorISt4pairIiiESaIS4_EEmEET_S8_T0_ = comdat any

$_ZSt10_ConstructISt6vectorISt4pairIiiESaIS2_EEJEEvPT_DpOT0_ = comdat any

$_ZNSt6vectorISt4pairIiiESaIS1_EEC2Ev = comdat any

$_ZNSt12_Vector_baseISt4pairIiiESaIS1_EEC2Ev = comdat any

$_ZNSt12_Vector_baseISt4pairIiiESaIS1_EE12_Vector_implC2Ev = comdat any

$_ZNSaISt4pairIiiEEC2Ev = comdat any

$_ZNSt12_Vector_baseISt4pairIiiESaIS1_EE17_Vector_impl_dataC2Ev = comdat any

$_ZN9__gnu_cxx13new_allocatorISt4pairIiiEEC2Ev = comdat any

$_ZNSt12_Vector_baseISt6vectorISt4pairIiiESaIS2_EESaIS4_EE17_M_create_storageEm = comdat any

$_ZNSt12_Vector_baseISt6vectorISt4pairIiiESaIS2_EESaIS4_EE11_M_allocateEm = comdat any

$_ZNSt16allocator_traitsISaISt6vectorISt4pairIiiESaIS2_EEEE8allocateERS5_m = comdat any

$_ZN9__gnu_cxx13new_allocatorISt6vectorISt4pairIiiESaIS3_EEE8allocateEmPKv = comdat any

$_ZNK9__gnu_cxx13new_allocatorISt6vectorISt4pairIiiESaIS3_EEE8max_sizeEv = comdat any

$_ZNSt6vectorIS_ISt4pairIiiESaIS1_EESaIS3_EE11_S_max_sizeERKS4_ = comdat any

$_ZNSt16allocator_traitsISaISt6vectorISt4pairIiiESaIS2_EEEE8max_sizeERKS5_ = comdat any

@llvm.global_ctors = appending global [1 x { i32, void ()*, i8* }] [{ i32, void ()*, i8* } { i32 65535, void ()* @_GLOBAL__sub_I_AfraidoftheDark.cpp, i8* null }]
@_ZStL8__ioinit = internal global %"class.std::allocator" zeroinitializer, align 1
@N = dso_local global i32 0, align 4
@S = dso_local global [120010 x i32] zeroinitializer, align 16
@E = dso_local global %"class.std::vector" zeroinitializer, align 8
@sizem = dso_local global [240020 x i32] zeroinitializer, align 16
@memo = dso_local global [240020 x i32] zeroinitializer, align 16
@memomis = dso_local global [240020 x %"struct.std::pair"] zeroinitializer, align 16
@.str = private unnamed_addr constant [31 x i8] c"../input_files/AfraidoftheDark\00", align 1
@.str.2 = private unnamed_addr constant [2 x i8] c"r\00", align 1
@stdin = external dso_local global %struct._IO_FILE*, align 8
@_ZSt3cin = external dso_local global %"class.std::basic_istream", align 8
@_ZSt4cout = external dso_local global %"class.std::basic_ostream", align 8
@.str.3 = private unnamed_addr constant [3 x i8] c"0\0A\00", align 1
@.str.4 = private unnamed_addr constant [49 x i8] c"cannot create std::vector larger than max_size()\00", align 1
@.str.5 = private unnamed_addr constant [26 x i8] c"vector::_M_realloc_insert\00", align 1

; Function Attrs: noinline uwtable
define internal void @_GLOBAL__sub_I_AfraidoftheDark.cpp() #0 section ".text.startup" {
  call void @__cxx_global_var_init(), !llfi_index !4
  call void @__cxx_global_var_init.1(), !llfi_index !5
  ret void, !llfi_index !6
}

; Function Attrs: noinline uwtable
define internal void @__cxx_global_var_init() #0 section ".text.startup" {
  call void @_ZNSt8ios_base4InitC1Ev(%"class.std::allocator"* nonnull align 1 dereferenceable(1) @_ZStL8__ioinit), !llfi_index !7
  %1 = call i32 @atexit(void ()* @__dtor__ZStL8__ioinit) #2, !llfi_index !8
  ret void, !llfi_index !9
}

; Function Attrs: noinline uwtable
define internal void @__cxx_global_var_init.1() #0 section ".text.startup" {
  call void @_ZNSt6vectorIS_ISt4pairIiiESaIS1_EESaIS3_EEC2Ev(%"class.std::vector"* nonnull align 8 dereferenceable(24) @E) #2, !llfi_index !10
  %1 = call i32 @atexit(void ()* @__dtor_E) #2, !llfi_index !11
  ret void, !llfi_index !12
}

; Function Attrs: noinline nounwind uwtable
define linkonce_odr dso_local void @_ZNSt6vectorIS_ISt4pairIiiESaIS1_EESaIS3_EEC2Ev(%"class.std::vector"* nonnull align 8 dereferenceable(24) %0) unnamed_addr #1 comdat align 2 {
  %2 = alloca %"class.std::vector"*, align 8, !llfi_index !13
  store %"class.std::vector"* %0, %"class.std::vector"** %2, align 8, !llfi_index !14
  %3 = load %"class.std::vector"*, %"class.std::vector"** %2, align 8, !llfi_index !15
  %4 = bitcast %"class.std::vector"* %3 to %"struct.std::_Vector_base"*, !llfi_index !16
  call void @_ZNSt12_Vector_baseISt6vectorISt4pairIiiESaIS2_EESaIS4_EEC2Ev(%"struct.std::_Vector_base"* nonnull align 8 dereferenceable(24) %4) #2, !llfi_index !17
  ret void, !llfi_index !18
}

; Function Attrs: noinline uwtable
define internal void @__dtor_E() #0 section ".text.startup" {
  call void @_ZNSt6vectorIS_ISt4pairIiiESaIS1_EESaIS3_EED2Ev(%"class.std::vector"* @E), !llfi_index !19
  ret void, !llfi_index !20
}

; Function Attrs: nounwind
declare dso_local i32 @atexit(void ()*) #2

; Function Attrs: noinline nounwind uwtable
define linkonce_odr dso_local void @_ZNSt6vectorIS_ISt4pairIiiESaIS1_EESaIS3_EED2Ev(%"class.std::vector"* nonnull align 8 dereferenceable(24) %0) unnamed_addr #1 comdat align 2 personality i8* bitcast (i32 (...)* @__gxx_personality_v0 to i8*) {
  %2 = alloca %"class.std::vector"*, align 8, !llfi_index !21
  %3 = alloca i8*, align 8, !llfi_index !22
  %4 = alloca i32, align 4, !llfi_index !23
  store %"class.std::vector"* %0, %"class.std::vector"** %2, align 8, !llfi_index !24
  %5 = load %"class.std::vector"*, %"class.std::vector"** %2, align 8, !llfi_index !25
  %6 = bitcast %"class.std::vector"* %5 to %"struct.std::_Vector_base"*, !llfi_index !26
  %7 = getelementptr inbounds %"struct.std::_Vector_base", %"struct.std::_Vector_base"* %6, i32 0, i32 0, !llfi_index !27
  %8 = bitcast %"struct.std::_Vector_base<std::vector<std::pair<int, int>>, std::allocator<std::vector<std::pair<int, int>>>>::_Vector_impl"* %7 to %"struct.std::_Vector_base<std::vector<std::pair<int, int>>, std::allocator<std::vector<std::pair<int, int>>>>::_Vector_impl_data"*, !llfi_index !28
  %9 = getelementptr inbounds %"struct.std::_Vector_base<std::vector<std::pair<int, int>>, std::allocator<std::vector<std::pair<int, int>>>>::_Vector_impl_data", %"struct.std::_Vector_base<std::vector<std::pair<int, int>>, std::allocator<std::vector<std::pair<int, int>>>>::_Vector_impl_data"* %8, i32 0, i32 0, !llfi_index !29
  %10 = load %"class.std::vector.0"*, %"class.std::vector.0"** %9, align 8, !llfi_index !30
  %11 = bitcast %"class.std::vector"* %5 to %"struct.std::_Vector_base"*, !llfi_index !31
  %12 = getelementptr inbounds %"struct.std::_Vector_base", %"struct.std::_Vector_base"* %11, i32 0, i32 0, !llfi_index !32
  %13 = bitcast %"struct.std::_Vector_base<std::vector<std::pair<int, int>>, std::allocator<std::vector<std::pair<int, int>>>>::_Vector_impl"* %12 to %"struct.std::_Vector_base<std::vector<std::pair<int, int>>, std::allocator<std::vector<std::pair<int, int>>>>::_Vector_impl_data"*, !llfi_index !33
  %14 = getelementptr inbounds %"struct.std::_Vector_base<std::vector<std::pair<int, int>>, std::allocator<std::vector<std::pair<int, int>>>>::_Vector_impl_data", %"struct.std::_Vector_base<std::vector<std::pair<int, int>>, std::allocator<std::vector<std::pair<int, int>>>>::_Vector_impl_data"* %13, i32 0, i32 1, !llfi_index !34
  %15 = load %"class.std::vector.0"*, %"class.std::vector.0"** %14, align 8, !llfi_index !35
  %16 = bitcast %"class.std::vector"* %5 to %"struct.std::_Vector_base"*, !llfi_index !36
  %17 = call nonnull align 1 dereferenceable(1) %"class.std::allocator"* @_ZNSt12_Vector_baseISt6vectorISt4pairIiiESaIS2_EESaIS4_EE19_M_get_Tp_allocatorEv(%"struct.std::_Vector_base"* nonnull align 8 dereferenceable(24) %16) #2, !llfi_index !37
  invoke void @_ZSt8_DestroyIPSt6vectorISt4pairIiiESaIS2_EES4_EvT_S6_RSaIT0_E(%"class.std::vector.0"* %10, %"class.std::vector.0"* %15, %"class.std::allocator"* nonnull align 1 dereferenceable(1) %17)
          to label %18 unwind label %20, !llfi_index !38

18:                                               ; preds = %1
  %19 = bitcast %"class.std::vector"* %5 to %"struct.std::_Vector_base"*, !llfi_index !39
  call void @_ZNSt12_Vector_baseISt6vectorISt4pairIiiESaIS2_EESaIS4_EED2Ev(%"struct.std::_Vector_base"* nonnull align 8 dereferenceable(24) %19) #2, !llfi_index !40
  ret void, !llfi_index !41

20:                                               ; preds = %1
  %21 = landingpad { i8*, i32 }
          catch i8* null, !llfi_index !42
  %22 = extractvalue { i8*, i32 } %21, 0, !llfi_index !43
  store i8* %22, i8** %3, align 8, !llfi_index !44
  %23 = extractvalue { i8*, i32 } %21, 1, !llfi_index !45
  store i32 %23, i32* %4, align 4, !llfi_index !46
  %24 = bitcast %"class.std::vector"* %5 to %"struct.std::_Vector_base"*, !llfi_index !47
  call void @_ZNSt12_Vector_baseISt6vectorISt4pairIiiESaIS2_EESaIS4_EED2Ev(%"struct.std::_Vector_base"* nonnull align 8 dereferenceable(24) %24) #2, !llfi_index !48
  br label %25, !llfi_index !49

25:                                               ; preds = %20
  %26 = load i8*, i8** %3, align 8, !llfi_index !50
  call void @__clang_call_terminate(i8* %26) #15, !llfi_index !51
  unreachable, !llfi_index !52
}

declare dso_local i32 @__gxx_personality_v0(...)

; Function Attrs: mustprogress noinline nounwind uwtable
define linkonce_odr dso_local nonnull align 1 dereferenceable(1) %"class.std::allocator"* @_ZNSt12_Vector_baseISt6vectorISt4pairIiiESaIS2_EESaIS4_EE19_M_get_Tp_allocatorEv(%"struct.std::_Vector_base"* nonnull align 8 dereferenceable(24) %0) #3 comdat align 2 {
  %2 = alloca %"struct.std::_Vector_base"*, align 8, !llfi_index !53
  store %"struct.std::_Vector_base"* %0, %"struct.std::_Vector_base"** %2, align 8, !llfi_index !54
  %3 = load %"struct.std::_Vector_base"*, %"struct.std::_Vector_base"** %2, align 8, !llfi_index !55
  %4 = getelementptr inbounds %"struct.std::_Vector_base", %"struct.std::_Vector_base"* %3, i32 0, i32 0, !llfi_index !56
  %5 = bitcast %"struct.std::_Vector_base<std::vector<std::pair<int, int>>, std::allocator<std::vector<std::pair<int, int>>>>::_Vector_impl"* %4 to %"class.std::allocator"*, !llfi_index !57
  ret %"class.std::allocator"* %5, !llfi_index !58
}

; Function Attrs: mustprogress noinline uwtable
define linkonce_odr dso_local void @_ZSt8_DestroyIPSt6vectorISt4pairIiiESaIS2_EES4_EvT_S6_RSaIT0_E(%"class.std::vector.0"* %0, %"class.std::vector.0"* %1, %"class.std::allocator"* nonnull align 1 dereferenceable(1) %2) #4 comdat {
  %4 = alloca %"class.std::vector.0"*, align 8, !llfi_index !59
  %5 = alloca %"class.std::vector.0"*, align 8, !llfi_index !60
  %6 = alloca %"class.std::allocator"*, align 8, !llfi_index !61
  store %"class.std::vector.0"* %0, %"class.std::vector.0"** %4, align 8, !llfi_index !62
  store %"class.std::vector.0"* %1, %"class.std::vector.0"** %5, align 8, !llfi_index !63
  store %"class.std::allocator"* %2, %"class.std::allocator"** %6, align 8, !llfi_index !64
  %7 = load %"class.std::vector.0"*, %"class.std::vector.0"** %4, align 8, !llfi_index !65
  %8 = load %"class.std::vector.0"*, %"class.std::vector.0"** %5, align 8, !llfi_index !66
  call void @_ZSt8_DestroyIPSt6vectorISt4pairIiiESaIS2_EEEvT_S6_(%"class.std::vector.0"* %7, %"class.std::vector.0"* %8), !llfi_index !67
  ret void, !llfi_index !68
}

; Function Attrs: noinline nounwind uwtable
define linkonce_odr dso_local void @_ZNSt12_Vector_baseISt6vectorISt4pairIiiESaIS2_EESaIS4_EED2Ev(%"struct.std::_Vector_base"* nonnull align 8 dereferenceable(24) %0) unnamed_addr #1 comdat align 2 personality i8* bitcast (i32 (...)* @__gxx_personality_v0 to i8*) {
  %2 = alloca %"struct.std::_Vector_base"*, align 8, !llfi_index !69
  %3 = alloca i8*, align 8, !llfi_index !70
  %4 = alloca i32, align 4, !llfi_index !71
  store %"struct.std::_Vector_base"* %0, %"struct.std::_Vector_base"** %2, align 8, !llfi_index !72
  %5 = load %"struct.std::_Vector_base"*, %"struct.std::_Vector_base"** %2, align 8, !llfi_index !73
  %6 = getelementptr inbounds %"struct.std::_Vector_base", %"struct.std::_Vector_base"* %5, i32 0, i32 0, !llfi_index !74
  %7 = bitcast %"struct.std::_Vector_base<std::vector<std::pair<int, int>>, std::allocator<std::vector<std::pair<int, int>>>>::_Vector_impl"* %6 to %"struct.std::_Vector_base<std::vector<std::pair<int, int>>, std::allocator<std::vector<std::pair<int, int>>>>::_Vector_impl_data"*, !llfi_index !75
  %8 = getelementptr inbounds %"struct.std::_Vector_base<std::vector<std::pair<int, int>>, std::allocator<std::vector<std::pair<int, int>>>>::_Vector_impl_data", %"struct.std::_Vector_base<std::vector<std::pair<int, int>>, std::allocator<std::vector<std::pair<int, int>>>>::_Vector_impl_data"* %7, i32 0, i32 0, !llfi_index !76
  %9 = load %"class.std::vector.0"*, %"class.std::vector.0"** %8, align 8, !llfi_index !77
  %10 = getelementptr inbounds %"struct.std::_Vector_base", %"struct.std::_Vector_base"* %5, i32 0, i32 0, !llfi_index !78
  %11 = bitcast %"struct.std::_Vector_base<std::vector<std::pair<int, int>>, std::allocator<std::vector<std::pair<int, int>>>>::_Vector_impl"* %10 to %"struct.std::_Vector_base<std::vector<std::pair<int, int>>, std::allocator<std::vector<std::pair<int, int>>>>::_Vector_impl_data"*, !llfi_index !79
  %12 = getelementptr inbounds %"struct.std::_Vector_base<std::vector<std::pair<int, int>>, std::allocator<std::vector<std::pair<int, int>>>>::_Vector_impl_data", %"struct.std::_Vector_base<std::vector<std::pair<int, int>>, std::allocator<std::vector<std::pair<int, int>>>>::_Vector_impl_data"* %11, i32 0, i32 2, !llfi_index !80
  %13 = load %"class.std::vector.0"*, %"class.std::vector.0"** %12, align 8, !llfi_index !81
  %14 = getelementptr inbounds %"struct.std::_Vector_base", %"struct.std::_Vector_base"* %5, i32 0, i32 0, !llfi_index !82
  %15 = bitcast %"struct.std::_Vector_base<std::vector<std::pair<int, int>>, std::allocator<std::vector<std::pair<int, int>>>>::_Vector_impl"* %14 to %"struct.std::_Vector_base<std::vector<std::pair<int, int>>, std::allocator<std::vector<std::pair<int, int>>>>::_Vector_impl_data"*, !llfi_index !83
  %16 = getelementptr inbounds %"struct.std::_Vector_base<std::vector<std::pair<int, int>>, std::allocator<std::vector<std::pair<int, int>>>>::_Vector_impl_data", %"struct.std::_Vector_base<std::vector<std::pair<int, int>>, std::allocator<std::vector<std::pair<int, int>>>>::_Vector_impl_data"* %15, i32 0, i32 0, !llfi_index !84
  %17 = load %"class.std::vector.0"*, %"class.std::vector.0"** %16, align 8, !llfi_index !85
  %18 = ptrtoint %"class.std::vector.0"* %13 to i64, !llfi_index !86
  %19 = ptrtoint %"class.std::vector.0"* %17 to i64, !llfi_index !87
  %20 = sub i64 %18, %19, !llfi_index !88
  %21 = sdiv exact i64 %20, 24, !llfi_index !89
  invoke void @_ZNSt12_Vector_baseISt6vectorISt4pairIiiESaIS2_EESaIS4_EE13_M_deallocateEPS4_m(%"struct.std::_Vector_base"* nonnull align 8 dereferenceable(24) %5, %"class.std::vector.0"* %9, i64 %21)
          to label %22 unwind label %24, !llfi_index !90

22:                                               ; preds = %1
  %23 = getelementptr inbounds %"struct.std::_Vector_base", %"struct.std::_Vector_base"* %5, i32 0, i32 0, !llfi_index !91
  call void @_ZNSt12_Vector_baseISt6vectorISt4pairIiiESaIS2_EESaIS4_EE12_Vector_implD2Ev(%"struct.std::_Vector_base<std::vector<std::pair<int, int>>, std::allocator<std::vector<std::pair<int, int>>>>::_Vector_impl"* nonnull align 8 dereferenceable(24) %23) #2, !llfi_index !92
  ret void, !llfi_index !93

24:                                               ; preds = %1
  %25 = landingpad { i8*, i32 }
          catch i8* null, !llfi_index !94
  %26 = extractvalue { i8*, i32 } %25, 0, !llfi_index !95
  store i8* %26, i8** %3, align 8, !llfi_index !96
  %27 = extractvalue { i8*, i32 } %25, 1, !llfi_index !97
  store i32 %27, i32* %4, align 4, !llfi_index !98
  %28 = getelementptr inbounds %"struct.std::_Vector_base", %"struct.std::_Vector_base"* %5, i32 0, i32 0, !llfi_index !99
  call void @_ZNSt12_Vector_baseISt6vectorISt4pairIiiESaIS2_EESaIS4_EE12_Vector_implD2Ev(%"struct.std::_Vector_base<std::vector<std::pair<int, int>>, std::allocator<std::vector<std::pair<int, int>>>>::_Vector_impl"* nonnull align 8 dereferenceable(24) %28) #2, !llfi_index !100
  br label %29, !llfi_index !101

29:                                               ; preds = %24
  %30 = load i8*, i8** %3, align 8, !llfi_index !102
  call void @__clang_call_terminate(i8* %30) #15, !llfi_index !103
  unreachable, !llfi_index !104
}

; Function Attrs: noinline noreturn nounwind
define linkonce_odr hidden void @__clang_call_terminate(i8* %0) #5 comdat {
  %2 = call i8* @__cxa_begin_catch(i8* %0) #2, !llfi_index !105
  call void @_ZSt9terminatev() #15, !llfi_index !106
  unreachable, !llfi_index !107
}

declare dso_local i8* @__cxa_begin_catch(i8*)

declare dso_local void @_ZSt9terminatev()

; Function Attrs: mustprogress noinline uwtable
define linkonce_odr dso_local void @_ZNSt12_Vector_baseISt6vectorISt4pairIiiESaIS2_EESaIS4_EE13_M_deallocateEPS4_m(%"struct.std::_Vector_base"* nonnull align 8 dereferenceable(24) %0, %"class.std::vector.0"* %1, i64 %2) #4 comdat align 2 {
  %4 = alloca %"struct.std::_Vector_base"*, align 8, !llfi_index !108
  %5 = alloca %"class.std::vector.0"*, align 8, !llfi_index !109
  %6 = alloca i64, align 8, !llfi_index !110
  store %"struct.std::_Vector_base"* %0, %"struct.std::_Vector_base"** %4, align 8, !llfi_index !111
  store %"class.std::vector.0"* %1, %"class.std::vector.0"** %5, align 8, !llfi_index !112
  store i64 %2, i64* %6, align 8, !llfi_index !113
  %7 = load %"struct.std::_Vector_base"*, %"struct.std::_Vector_base"** %4, align 8, !llfi_index !114
  %8 = load %"class.std::vector.0"*, %"class.std::vector.0"** %5, align 8, !llfi_index !115
  %9 = icmp ne %"class.std::vector.0"* %8, null, !llfi_index !116
  br i1 %9, label %10, label %15, !llfi_index !117

10:                                               ; preds = %3
  %11 = getelementptr inbounds %"struct.std::_Vector_base", %"struct.std::_Vector_base"* %7, i32 0, i32 0, !llfi_index !118
  %12 = bitcast %"struct.std::_Vector_base<std::vector<std::pair<int, int>>, std::allocator<std::vector<std::pair<int, int>>>>::_Vector_impl"* %11 to %"class.std::allocator"*, !llfi_index !119
  %13 = load %"class.std::vector.0"*, %"class.std::vector.0"** %5, align 8, !llfi_index !120
  %14 = load i64, i64* %6, align 8, !llfi_index !121
  call void @_ZNSt16allocator_traitsISaISt6vectorISt4pairIiiESaIS2_EEEE10deallocateERS5_PS4_m(%"class.std::allocator"* nonnull align 1 dereferenceable(1) %12, %"class.std::vector.0"* %13, i64 %14), !llfi_index !122
  br label %15, !llfi_index !123

15:                                               ; preds = %10, %3
  ret void, !llfi_index !124
}

; Function Attrs: noinline nounwind uwtable
define linkonce_odr dso_local void @_ZNSt12_Vector_baseISt6vectorISt4pairIiiESaIS2_EESaIS4_EE12_Vector_implD2Ev(%"struct.std::_Vector_base<std::vector<std::pair<int, int>>, std::allocator<std::vector<std::pair<int, int>>>>::_Vector_impl"* nonnull align 8 dereferenceable(24) %0) unnamed_addr #1 comdat align 2 {
  %2 = alloca %"struct.std::_Vector_base<std::vector<std::pair<int, int>>, std::allocator<std::vector<std::pair<int, int>>>>::_Vector_impl"*, align 8, !llfi_index !125
  store %"struct.std::_Vector_base<std::vector<std::pair<int, int>>, std::allocator<std::vector<std::pair<int, int>>>>::_Vector_impl"* %0, %"struct.std::_Vector_base<std::vector<std::pair<int, int>>, std::allocator<std::vector<std::pair<int, int>>>>::_Vector_impl"** %2, align 8, !llfi_index !126
  %3 = load %"struct.std::_Vector_base<std::vector<std::pair<int, int>>, std::allocator<std::vector<std::pair<int, int>>>>::_Vector_impl"*, %"struct.std::_Vector_base<std::vector<std::pair<int, int>>, std::allocator<std::vector<std::pair<int, int>>>>::_Vector_impl"** %2, align 8, !llfi_index !127
  %4 = bitcast %"struct.std::_Vector_base<std::vector<std::pair<int, int>>, std::allocator<std::vector<std::pair<int, int>>>>::_Vector_impl"* %3 to %"class.std::allocator"*, !llfi_index !128
  call void @_ZNSaISt6vectorISt4pairIiiESaIS1_EEED2Ev(%"class.std::allocator"* nonnull align 1 dereferenceable(1) %4) #2, !llfi_index !129
  ret void, !llfi_index !130
}

; Function Attrs: noinline nounwind uwtable
define linkonce_odr dso_local void @_ZNSaISt6vectorISt4pairIiiESaIS1_EEED2Ev(%"class.std::allocator"* nonnull align 1 dereferenceable(1) %0) unnamed_addr #1 comdat align 2 {
  %2 = alloca %"class.std::allocator"*, align 8, !llfi_index !131
  store %"class.std::allocator"* %0, %"class.std::allocator"** %2, align 8, !llfi_index !132
  %3 = load %"class.std::allocator"*, %"class.std::allocator"** %2, align 8, !llfi_index !133
  %4 = bitcast %"class.std::allocator"* %3 to %"class.std::allocator"*, !llfi_index !134
  call void @_ZN9__gnu_cxx13new_allocatorISt6vectorISt4pairIiiESaIS3_EEED2Ev(%"class.std::allocator"* nonnull align 1 dereferenceable(1) %4) #2, !llfi_index !135
  ret void, !llfi_index !136
}

; Function Attrs: noinline nounwind uwtable
define linkonce_odr dso_local void @_ZN9__gnu_cxx13new_allocatorISt6vectorISt4pairIiiESaIS3_EEED2Ev(%"class.std::allocator"* nonnull align 1 dereferenceable(1) %0) unnamed_addr #1 comdat align 2 {
  %2 = alloca %"class.std::allocator"*, align 8, !llfi_index !137
  store %"class.std::allocator"* %0, %"class.std::allocator"** %2, align 8, !llfi_index !138
  %3 = load %"class.std::allocator"*, %"class.std::allocator"** %2, align 8, !llfi_index !139
  ret void, !llfi_index !140
}

; Function Attrs: mustprogress noinline uwtable
define linkonce_odr dso_local void @_ZNSt16allocator_traitsISaISt6vectorISt4pairIiiESaIS2_EEEE10deallocateERS5_PS4_m(%"class.std::allocator"* nonnull align 1 dereferenceable(1) %0, %"class.std::vector.0"* %1, i64 %2) #4 comdat align 2 {
  %4 = alloca %"class.std::allocator"*, align 8, !llfi_index !141
  %5 = alloca %"class.std::vector.0"*, align 8, !llfi_index !142
  %6 = alloca i64, align 8, !llfi_index !143
  store %"class.std::allocator"* %0, %"class.std::allocator"** %4, align 8, !llfi_index !144
  store %"class.std::vector.0"* %1, %"class.std::vector.0"** %5, align 8, !llfi_index !145
  store i64 %2, i64* %6, align 8, !llfi_index !146
  %7 = load %"class.std::allocator"*, %"class.std::allocator"** %4, align 8, !llfi_index !147
  %8 = bitcast %"class.std::allocator"* %7 to %"class.std::allocator"*, !llfi_index !148
  %9 = load %"class.std::vector.0"*, %"class.std::vector.0"** %5, align 8, !llfi_index !149
  %10 = load i64, i64* %6, align 8, !llfi_index !150
  call void @_ZN9__gnu_cxx13new_allocatorISt6vectorISt4pairIiiESaIS3_EEE10deallocateEPS5_m(%"class.std::allocator"* nonnull align 1 dereferenceable(1) %8, %"class.std::vector.0"* %9, i64 %10), !llfi_index !151
  ret void, !llfi_index !152
}

; Function Attrs: mustprogress noinline nounwind uwtable
define linkonce_odr dso_local void @_ZN9__gnu_cxx13new_allocatorISt6vectorISt4pairIiiESaIS3_EEE10deallocateEPS5_m(%"class.std::allocator"* nonnull align 1 dereferenceable(1) %0, %"class.std::vector.0"* %1, i64 %2) #3 comdat align 2 {
  %4 = alloca %"class.std::allocator"*, align 8, !llfi_index !153
  %5 = alloca %"class.std::vector.0"*, align 8, !llfi_index !154
  %6 = alloca i64, align 8, !llfi_index !155
  store %"class.std::allocator"* %0, %"class.std::allocator"** %4, align 8, !llfi_index !156
  store %"class.std::vector.0"* %1, %"class.std::vector.0"** %5, align 8, !llfi_index !157
  store i64 %2, i64* %6, align 8, !llfi_index !158
  %7 = load %"class.std::allocator"*, %"class.std::allocator"** %4, align 8, !llfi_index !159
  %8 = load %"class.std::vector.0"*, %"class.std::vector.0"** %5, align 8, !llfi_index !160
  %9 = bitcast %"class.std::vector.0"* %8 to i8*, !llfi_index !161
  call void @_ZdlPv(i8* %9) #2, !llfi_index !162
  ret void, !llfi_index !163
}

; Function Attrs: nobuiltin nounwind
declare dso_local void @_ZdlPv(i8*) #6

; Function Attrs: mustprogress noinline uwtable
define linkonce_odr dso_local void @_ZSt8_DestroyIPSt6vectorISt4pairIiiESaIS2_EEEvT_S6_(%"class.std::vector.0"* %0, %"class.std::vector.0"* %1) #4 comdat {
  %3 = alloca %"class.std::vector.0"*, align 8, !llfi_index !164
  %4 = alloca %"class.std::vector.0"*, align 8, !llfi_index !165
  store %"class.std::vector.0"* %0, %"class.std::vector.0"** %3, align 8, !llfi_index !166
  store %"class.std::vector.0"* %1, %"class.std::vector.0"** %4, align 8, !llfi_index !167
  %5 = load %"class.std::vector.0"*, %"class.std::vector.0"** %3, align 8, !llfi_index !168
  %6 = load %"class.std::vector.0"*, %"class.std::vector.0"** %4, align 8, !llfi_index !169
  call void @_ZNSt12_Destroy_auxILb0EE9__destroyIPSt6vectorISt4pairIiiESaIS4_EEEEvT_S8_(%"class.std::vector.0"* %5, %"class.std::vector.0"* %6), !llfi_index !170
  ret void, !llfi_index !171
}

; Function Attrs: mustprogress noinline uwtable
define linkonce_odr dso_local void @_ZNSt12_Destroy_auxILb0EE9__destroyIPSt6vectorISt4pairIiiESaIS4_EEEEvT_S8_(%"class.std::vector.0"* %0, %"class.std::vector.0"* %1) #4 comdat align 2 {
  %3 = alloca %"class.std::vector.0"*, align 8, !llfi_index !172
  %4 = alloca %"class.std::vector.0"*, align 8, !llfi_index !173
  store %"class.std::vector.0"* %0, %"class.std::vector.0"** %3, align 8, !llfi_index !174
  store %"class.std::vector.0"* %1, %"class.std::vector.0"** %4, align 8, !llfi_index !175
  br label %5, !llfi_index !176

5:                                                ; preds = %12, %2
  %6 = load %"class.std::vector.0"*, %"class.std::vector.0"** %3, align 8, !llfi_index !177
  %7 = load %"class.std::vector.0"*, %"class.std::vector.0"** %4, align 8, !llfi_index !178
  %8 = icmp ne %"class.std::vector.0"* %6, %7, !llfi_index !179
  br i1 %8, label %9, label %15, !llfi_index !180

9:                                                ; preds = %5
  %10 = load %"class.std::vector.0"*, %"class.std::vector.0"** %3, align 8, !llfi_index !181
  %11 = call %"class.std::vector.0"* @_ZSt11__addressofISt6vectorISt4pairIiiESaIS2_EEEPT_RS5_(%"class.std::vector.0"* nonnull align 8 dereferenceable(24) %10) #2, !llfi_index !182
  call void @_ZSt8_DestroyISt6vectorISt4pairIiiESaIS2_EEEvPT_(%"class.std::vector.0"* %11), !llfi_index !183
  br label %12, !llfi_index !184

12:                                               ; preds = %9
  %13 = load %"class.std::vector.0"*, %"class.std::vector.0"** %3, align 8, !llfi_index !185
  %14 = getelementptr inbounds %"class.std::vector.0", %"class.std::vector.0"* %13, i32 1, !llfi_index !186
  store %"class.std::vector.0"* %14, %"class.std::vector.0"** %3, align 8, !llfi_index !187
  br label %5, !llvm.loop !188, !llfi_index !190

15:                                               ; preds = %5
  ret void, !llfi_index !191
}

; Function Attrs: mustprogress noinline nounwind uwtable
define linkonce_odr dso_local %"class.std::vector.0"* @_ZSt11__addressofISt6vectorISt4pairIiiESaIS2_EEEPT_RS5_(%"class.std::vector.0"* nonnull align 8 dereferenceable(24) %0) #3 comdat {
  %2 = alloca %"class.std::vector.0"*, align 8, !llfi_index !192
  store %"class.std::vector.0"* %0, %"class.std::vector.0"** %2, align 8, !llfi_index !193
  %3 = load %"class.std::vector.0"*, %"class.std::vector.0"** %2, align 8, !llfi_index !194
  ret %"class.std::vector.0"* %3, !llfi_index !195
}

; Function Attrs: mustprogress noinline nounwind uwtable
define linkonce_odr dso_local void @_ZSt8_DestroyISt6vectorISt4pairIiiESaIS2_EEEvPT_(%"class.std::vector.0"* %0) #3 comdat {
  %2 = alloca %"class.std::vector.0"*, align 8, !llfi_index !196
  store %"class.std::vector.0"* %0, %"class.std::vector.0"** %2, align 8, !llfi_index !197
  %3 = load %"class.std::vector.0"*, %"class.std::vector.0"** %2, align 8, !llfi_index !198
  call void @_ZNSt6vectorISt4pairIiiESaIS1_EED2Ev(%"class.std::vector.0"* nonnull align 8 dereferenceable(24) %3) #2, !llfi_index !199
  ret void, !llfi_index !200
}

; Function Attrs: noinline nounwind uwtable
define linkonce_odr dso_local void @_ZNSt6vectorISt4pairIiiESaIS1_EED2Ev(%"class.std::vector.0"* nonnull align 8 dereferenceable(24) %0) unnamed_addr #1 comdat align 2 personality i8* bitcast (i32 (...)* @__gxx_personality_v0 to i8*) {
  %2 = alloca %"class.std::vector.0"*, align 8, !llfi_index !201
  %3 = alloca i8*, align 8, !llfi_index !202
  %4 = alloca i32, align 4, !llfi_index !203
  store %"class.std::vector.0"* %0, %"class.std::vector.0"** %2, align 8, !llfi_index !204
  %5 = load %"class.std::vector.0"*, %"class.std::vector.0"** %2, align 8, !llfi_index !205
  %6 = bitcast %"class.std::vector.0"* %5 to %"struct.std::_Vector_base.1"*, !llfi_index !206
  %7 = getelementptr inbounds %"struct.std::_Vector_base.1", %"struct.std::_Vector_base.1"* %6, i32 0, i32 0, !llfi_index !207
  %8 = bitcast %"struct.std::_Vector_base<std::pair<int, int>, std::allocator<std::pair<int, int>>>::_Vector_impl"* %7 to %"struct.std::_Vector_base<std::pair<int, int>, std::allocator<std::pair<int, int>>>::_Vector_impl_data"*, !llfi_index !208
  %9 = getelementptr inbounds %"struct.std::_Vector_base<std::pair<int, int>, std::allocator<std::pair<int, int>>>::_Vector_impl_data", %"struct.std::_Vector_base<std::pair<int, int>, std::allocator<std::pair<int, int>>>::_Vector_impl_data"* %8, i32 0, i32 0, !llfi_index !209
  %10 = load %"struct.std::pair"*, %"struct.std::pair"** %9, align 8, !llfi_index !210
  %11 = bitcast %"class.std::vector.0"* %5 to %"struct.std::_Vector_base.1"*, !llfi_index !211
  %12 = getelementptr inbounds %"struct.std::_Vector_base.1", %"struct.std::_Vector_base.1"* %11, i32 0, i32 0, !llfi_index !212
  %13 = bitcast %"struct.std::_Vector_base<std::pair<int, int>, std::allocator<std::pair<int, int>>>::_Vector_impl"* %12 to %"struct.std::_Vector_base<std::pair<int, int>, std::allocator<std::pair<int, int>>>::_Vector_impl_data"*, !llfi_index !213
  %14 = getelementptr inbounds %"struct.std::_Vector_base<std::pair<int, int>, std::allocator<std::pair<int, int>>>::_Vector_impl_data", %"struct.std::_Vector_base<std::pair<int, int>, std::allocator<std::pair<int, int>>>::_Vector_impl_data"* %13, i32 0, i32 1, !llfi_index !214
  %15 = load %"struct.std::pair"*, %"struct.std::pair"** %14, align 8, !llfi_index !215
  %16 = bitcast %"class.std::vector.0"* %5 to %"struct.std::_Vector_base.1"*, !llfi_index !216
  %17 = call nonnull align 1 dereferenceable(1) %"class.std::allocator"* @_ZNSt12_Vector_baseISt4pairIiiESaIS1_EE19_M_get_Tp_allocatorEv(%"struct.std::_Vector_base.1"* nonnull align 8 dereferenceable(24) %16) #2, !llfi_index !217
  invoke void @_ZSt8_DestroyIPSt4pairIiiES1_EvT_S3_RSaIT0_E(%"struct.std::pair"* %10, %"struct.std::pair"* %15, %"class.std::allocator"* nonnull align 1 dereferenceable(1) %17)
          to label %18 unwind label %20, !llfi_index !218

18:                                               ; preds = %1
  %19 = bitcast %"class.std::vector.0"* %5 to %"struct.std::_Vector_base.1"*, !llfi_index !219
  call void @_ZNSt12_Vector_baseISt4pairIiiESaIS1_EED2Ev(%"struct.std::_Vector_base.1"* nonnull align 8 dereferenceable(24) %19) #2, !llfi_index !220
  ret void, !llfi_index !221

20:                                               ; preds = %1
  %21 = landingpad { i8*, i32 }
          catch i8* null, !llfi_index !222
  %22 = extractvalue { i8*, i32 } %21, 0, !llfi_index !223
  store i8* %22, i8** %3, align 8, !llfi_index !224
  %23 = extractvalue { i8*, i32 } %21, 1, !llfi_index !225
  store i32 %23, i32* %4, align 4, !llfi_index !226
  %24 = bitcast %"class.std::vector.0"* %5 to %"struct.std::_Vector_base.1"*, !llfi_index !227
  call void @_ZNSt12_Vector_baseISt4pairIiiESaIS1_EED2Ev(%"struct.std::_Vector_base.1"* nonnull align 8 dereferenceable(24) %24) #2, !llfi_index !228
  br label %25, !llfi_index !229

25:                                               ; preds = %20
  %26 = load i8*, i8** %3, align 8, !llfi_index !230
  call void @__clang_call_terminate(i8* %26) #15, !llfi_index !231
  unreachable, !llfi_index !232
}

; Function Attrs: mustprogress noinline nounwind uwtable
define linkonce_odr dso_local nonnull align 1 dereferenceable(1) %"class.std::allocator"* @_ZNSt12_Vector_baseISt4pairIiiESaIS1_EE19_M_get_Tp_allocatorEv(%"struct.std::_Vector_base.1"* nonnull align 8 dereferenceable(24) %0) #3 comdat align 2 {
  %2 = alloca %"struct.std::_Vector_base.1"*, align 8, !llfi_index !233
  store %"struct.std::_Vector_base.1"* %0, %"struct.std::_Vector_base.1"** %2, align 8, !llfi_index !234
  %3 = load %"struct.std::_Vector_base.1"*, %"struct.std::_Vector_base.1"** %2, align 8, !llfi_index !235
  %4 = getelementptr inbounds %"struct.std::_Vector_base.1", %"struct.std::_Vector_base.1"* %3, i32 0, i32 0, !llfi_index !236
  %5 = bitcast %"struct.std::_Vector_base<std::pair<int, int>, std::allocator<std::pair<int, int>>>::_Vector_impl"* %4 to %"class.std::allocator"*, !llfi_index !237
  ret %"class.std::allocator"* %5, !llfi_index !238
}

; Function Attrs: mustprogress noinline uwtable
define linkonce_odr dso_local void @_ZSt8_DestroyIPSt4pairIiiES1_EvT_S3_RSaIT0_E(%"struct.std::pair"* %0, %"struct.std::pair"* %1, %"class.std::allocator"* nonnull align 1 dereferenceable(1) %2) #4 comdat {
  %4 = alloca %"struct.std::pair"*, align 8, !llfi_index !239
  %5 = alloca %"struct.std::pair"*, align 8, !llfi_index !240
  %6 = alloca %"class.std::allocator"*, align 8, !llfi_index !241
  store %"struct.std::pair"* %0, %"struct.std::pair"** %4, align 8, !llfi_index !242
  store %"struct.std::pair"* %1, %"struct.std::pair"** %5, align 8, !llfi_index !243
  store %"class.std::allocator"* %2, %"class.std::allocator"** %6, align 8, !llfi_index !244
  %7 = load %"struct.std::pair"*, %"struct.std::pair"** %4, align 8, !llfi_index !245
  %8 = load %"struct.std::pair"*, %"struct.std::pair"** %5, align 8, !llfi_index !246
  call void @_ZSt8_DestroyIPSt4pairIiiEEvT_S3_(%"struct.std::pair"* %7, %"struct.std::pair"* %8), !llfi_index !247
  ret void, !llfi_index !248
}

; Function Attrs: noinline nounwind uwtable
define linkonce_odr dso_local void @_ZNSt12_Vector_baseISt4pairIiiESaIS1_EED2Ev(%"struct.std::_Vector_base.1"* nonnull align 8 dereferenceable(24) %0) unnamed_addr #1 comdat align 2 personality i8* bitcast (i32 (...)* @__gxx_personality_v0 to i8*) {
  %2 = alloca %"struct.std::_Vector_base.1"*, align 8, !llfi_index !249
  %3 = alloca i8*, align 8, !llfi_index !250
  %4 = alloca i32, align 4, !llfi_index !251
  store %"struct.std::_Vector_base.1"* %0, %"struct.std::_Vector_base.1"** %2, align 8, !llfi_index !252
  %5 = load %"struct.std::_Vector_base.1"*, %"struct.std::_Vector_base.1"** %2, align 8, !llfi_index !253
  %6 = getelementptr inbounds %"struct.std::_Vector_base.1", %"struct.std::_Vector_base.1"* %5, i32 0, i32 0, !llfi_index !254
  %7 = bitcast %"struct.std::_Vector_base<std::pair<int, int>, std::allocator<std::pair<int, int>>>::_Vector_impl"* %6 to %"struct.std::_Vector_base<std::pair<int, int>, std::allocator<std::pair<int, int>>>::_Vector_impl_data"*, !llfi_index !255
  %8 = getelementptr inbounds %"struct.std::_Vector_base<std::pair<int, int>, std::allocator<std::pair<int, int>>>::_Vector_impl_data", %"struct.std::_Vector_base<std::pair<int, int>, std::allocator<std::pair<int, int>>>::_Vector_impl_data"* %7, i32 0, i32 0, !llfi_index !256
  %9 = load %"struct.std::pair"*, %"struct.std::pair"** %8, align 8, !llfi_index !257
  %10 = getelementptr inbounds %"struct.std::_Vector_base.1", %"struct.std::_Vector_base.1"* %5, i32 0, i32 0, !llfi_index !258
  %11 = bitcast %"struct.std::_Vector_base<std::pair<int, int>, std::allocator<std::pair<int, int>>>::_Vector_impl"* %10 to %"struct.std::_Vector_base<std::pair<int, int>, std::allocator<std::pair<int, int>>>::_Vector_impl_data"*, !llfi_index !259
  %12 = getelementptr inbounds %"struct.std::_Vector_base<std::pair<int, int>, std::allocator<std::pair<int, int>>>::_Vector_impl_data", %"struct.std::_Vector_base<std::pair<int, int>, std::allocator<std::pair<int, int>>>::_Vector_impl_data"* %11, i32 0, i32 2, !llfi_index !260
  %13 = load %"struct.std::pair"*, %"struct.std::pair"** %12, align 8, !llfi_index !261
  %14 = getelementptr inbounds %"struct.std::_Vector_base.1", %"struct.std::_Vector_base.1"* %5, i32 0, i32 0, !llfi_index !262
  %15 = bitcast %"struct.std::_Vector_base<std::pair<int, int>, std::allocator<std::pair<int, int>>>::_Vector_impl"* %14 to %"struct.std::_Vector_base<std::pair<int, int>, std::allocator<std::pair<int, int>>>::_Vector_impl_data"*, !llfi_index !263
  %16 = getelementptr inbounds %"struct.std::_Vector_base<std::pair<int, int>, std::allocator<std::pair<int, int>>>::_Vector_impl_data", %"struct.std::_Vector_base<std::pair<int, int>, std::allocator<std::pair<int, int>>>::_Vector_impl_data"* %15, i32 0, i32 0, !llfi_index !264
  %17 = load %"struct.std::pair"*, %"struct.std::pair"** %16, align 8, !llfi_index !265
  %18 = ptrtoint %"struct.std::pair"* %13 to i64, !llfi_index !266
  %19 = ptrtoint %"struct.std::pair"* %17 to i64, !llfi_index !267
  %20 = sub i64 %18, %19, !llfi_index !268
  %21 = sdiv exact i64 %20, 8, !llfi_index !269
  invoke void @_ZNSt12_Vector_baseISt4pairIiiESaIS1_EE13_M_deallocateEPS1_m(%"struct.std::_Vector_base.1"* nonnull align 8 dereferenceable(24) %5, %"struct.std::pair"* %9, i64 %21)
          to label %22 unwind label %24, !llfi_index !270

22:                                               ; preds = %1
  %23 = getelementptr inbounds %"struct.std::_Vector_base.1", %"struct.std::_Vector_base.1"* %5, i32 0, i32 0, !llfi_index !271
  call void @_ZNSt12_Vector_baseISt4pairIiiESaIS1_EE12_Vector_implD2Ev(%"struct.std::_Vector_base<std::pair<int, int>, std::allocator<std::pair<int, int>>>::_Vector_impl"* nonnull align 8 dereferenceable(24) %23) #2, !llfi_index !272
  ret void, !llfi_index !273

24:                                               ; preds = %1
  %25 = landingpad { i8*, i32 }
          catch i8* null, !llfi_index !274
  %26 = extractvalue { i8*, i32 } %25, 0, !llfi_index !275
  store i8* %26, i8** %3, align 8, !llfi_index !276
  %27 = extractvalue { i8*, i32 } %25, 1, !llfi_index !277
  store i32 %27, i32* %4, align 4, !llfi_index !278
  %28 = getelementptr inbounds %"struct.std::_Vector_base.1", %"struct.std::_Vector_base.1"* %5, i32 0, i32 0, !llfi_index !279
  call void @_ZNSt12_Vector_baseISt4pairIiiESaIS1_EE12_Vector_implD2Ev(%"struct.std::_Vector_base<std::pair<int, int>, std::allocator<std::pair<int, int>>>::_Vector_impl"* nonnull align 8 dereferenceable(24) %28) #2, !llfi_index !280
  br label %29, !llfi_index !281

29:                                               ; preds = %24
  %30 = load i8*, i8** %3, align 8, !llfi_index !282
  call void @__clang_call_terminate(i8* %30) #15, !llfi_index !283
  unreachable, !llfi_index !284
}

; Function Attrs: mustprogress noinline uwtable
define linkonce_odr dso_local void @_ZNSt12_Vector_baseISt4pairIiiESaIS1_EE13_M_deallocateEPS1_m(%"struct.std::_Vector_base.1"* nonnull align 8 dereferenceable(24) %0, %"struct.std::pair"* %1, i64 %2) #4 comdat align 2 {
  %4 = alloca %"struct.std::_Vector_base.1"*, align 8, !llfi_index !285
  %5 = alloca %"struct.std::pair"*, align 8, !llfi_index !286
  %6 = alloca i64, align 8, !llfi_index !287
  store %"struct.std::_Vector_base.1"* %0, %"struct.std::_Vector_base.1"** %4, align 8, !llfi_index !288
  store %"struct.std::pair"* %1, %"struct.std::pair"** %5, align 8, !llfi_index !289
  store i64 %2, i64* %6, align 8, !llfi_index !290
  %7 = load %"struct.std::_Vector_base.1"*, %"struct.std::_Vector_base.1"** %4, align 8, !llfi_index !291
  %8 = load %"struct.std::pair"*, %"struct.std::pair"** %5, align 8, !llfi_index !292
  %9 = icmp ne %"struct.std::pair"* %8, null, !llfi_index !293
  br i1 %9, label %10, label %15, !llfi_index !294

10:                                               ; preds = %3
  %11 = getelementptr inbounds %"struct.std::_Vector_base.1", %"struct.std::_Vector_base.1"* %7, i32 0, i32 0, !llfi_index !295
  %12 = bitcast %"struct.std::_Vector_base<std::pair<int, int>, std::allocator<std::pair<int, int>>>::_Vector_impl"* %11 to %"class.std::allocator"*, !llfi_index !296
  %13 = load %"struct.std::pair"*, %"struct.std::pair"** %5, align 8, !llfi_index !297
  %14 = load i64, i64* %6, align 8, !llfi_index !298
  call void @_ZNSt16allocator_traitsISaISt4pairIiiEEE10deallocateERS2_PS1_m(%"class.std::allocator"* nonnull align 1 dereferenceable(1) %12, %"struct.std::pair"* %13, i64 %14), !llfi_index !299
  br label %15, !llfi_index !300

15:                                               ; preds = %10, %3
  ret void, !llfi_index !301
}

; Function Attrs: noinline nounwind uwtable
define linkonce_odr dso_local void @_ZNSt12_Vector_baseISt4pairIiiESaIS1_EE12_Vector_implD2Ev(%"struct.std::_Vector_base<std::pair<int, int>, std::allocator<std::pair<int, int>>>::_Vector_impl"* nonnull align 8 dereferenceable(24) %0) unnamed_addr #1 comdat align 2 {
  %2 = alloca %"struct.std::_Vector_base<std::pair<int, int>, std::allocator<std::pair<int, int>>>::_Vector_impl"*, align 8, !llfi_index !302
  store %"struct.std::_Vector_base<std::pair<int, int>, std::allocator<std::pair<int, int>>>::_Vector_impl"* %0, %"struct.std::_Vector_base<std::pair<int, int>, std::allocator<std::pair<int, int>>>::_Vector_impl"** %2, align 8, !llfi_index !303
  %3 = load %"struct.std::_Vector_base<std::pair<int, int>, std::allocator<std::pair<int, int>>>::_Vector_impl"*, %"struct.std::_Vector_base<std::pair<int, int>, std::allocator<std::pair<int, int>>>::_Vector_impl"** %2, align 8, !llfi_index !304
  %4 = bitcast %"struct.std::_Vector_base<std::pair<int, int>, std::allocator<std::pair<int, int>>>::_Vector_impl"* %3 to %"class.std::allocator"*, !llfi_index !305
  call void @_ZNSaISt4pairIiiEED2Ev(%"class.std::allocator"* nonnull align 1 dereferenceable(1) %4) #2, !llfi_index !306
  ret void, !llfi_index !307
}

; Function Attrs: noinline nounwind uwtable
define linkonce_odr dso_local void @_ZNSaISt4pairIiiEED2Ev(%"class.std::allocator"* nonnull align 1 dereferenceable(1) %0) unnamed_addr #1 comdat align 2 {
  %2 = alloca %"class.std::allocator"*, align 8, !llfi_index !308
  store %"class.std::allocator"* %0, %"class.std::allocator"** %2, align 8, !llfi_index !309
  %3 = load %"class.std::allocator"*, %"class.std::allocator"** %2, align 8, !llfi_index !310
  %4 = bitcast %"class.std::allocator"* %3 to %"class.std::allocator"*, !llfi_index !311
  call void @_ZN9__gnu_cxx13new_allocatorISt4pairIiiEED2Ev(%"class.std::allocator"* nonnull align 1 dereferenceable(1) %4) #2, !llfi_index !312
  ret void, !llfi_index !313
}

; Function Attrs: noinline nounwind uwtable
define linkonce_odr dso_local void @_ZN9__gnu_cxx13new_allocatorISt4pairIiiEED2Ev(%"class.std::allocator"* nonnull align 1 dereferenceable(1) %0) unnamed_addr #1 comdat align 2 {
  %2 = alloca %"class.std::allocator"*, align 8, !llfi_index !314
  store %"class.std::allocator"* %0, %"class.std::allocator"** %2, align 8, !llfi_index !315
  %3 = load %"class.std::allocator"*, %"class.std::allocator"** %2, align 8, !llfi_index !316
  ret void, !llfi_index !317
}

; Function Attrs: mustprogress noinline uwtable
define linkonce_odr dso_local void @_ZNSt16allocator_traitsISaISt4pairIiiEEE10deallocateERS2_PS1_m(%"class.std::allocator"* nonnull align 1 dereferenceable(1) %0, %"struct.std::pair"* %1, i64 %2) #4 comdat align 2 {
  %4 = alloca %"class.std::allocator"*, align 8, !llfi_index !318
  %5 = alloca %"struct.std::pair"*, align 8, !llfi_index !319
  %6 = alloca i64, align 8, !llfi_index !320
  store %"class.std::allocator"* %0, %"class.std::allocator"** %4, align 8, !llfi_index !321
  store %"struct.std::pair"* %1, %"struct.std::pair"** %5, align 8, !llfi_index !322
  store i64 %2, i64* %6, align 8, !llfi_index !323
  %7 = load %"class.std::allocator"*, %"class.std::allocator"** %4, align 8, !llfi_index !324
  %8 = bitcast %"class.std::allocator"* %7 to %"class.std::allocator"*, !llfi_index !325
  %9 = load %"struct.std::pair"*, %"struct.std::pair"** %5, align 8, !llfi_index !326
  %10 = load i64, i64* %6, align 8, !llfi_index !327
  call void @_ZN9__gnu_cxx13new_allocatorISt4pairIiiEE10deallocateEPS2_m(%"class.std::allocator"* nonnull align 1 dereferenceable(1) %8, %"struct.std::pair"* %9, i64 %10), !llfi_index !328
  ret void, !llfi_index !329
}

; Function Attrs: mustprogress noinline nounwind uwtable
define linkonce_odr dso_local void @_ZN9__gnu_cxx13new_allocatorISt4pairIiiEE10deallocateEPS2_m(%"class.std::allocator"* nonnull align 1 dereferenceable(1) %0, %"struct.std::pair"* %1, i64 %2) #3 comdat align 2 {
  %4 = alloca %"class.std::allocator"*, align 8, !llfi_index !330
  %5 = alloca %"struct.std::pair"*, align 8, !llfi_index !331
  %6 = alloca i64, align 8, !llfi_index !332
  store %"class.std::allocator"* %0, %"class.std::allocator"** %4, align 8, !llfi_index !333
  store %"struct.std::pair"* %1, %"struct.std::pair"** %5, align 8, !llfi_index !334
  store i64 %2, i64* %6, align 8, !llfi_index !335
  %7 = load %"class.std::allocator"*, %"class.std::allocator"** %4, align 8, !llfi_index !336
  %8 = load %"struct.std::pair"*, %"struct.std::pair"** %5, align 8, !llfi_index !337
  %9 = bitcast %"struct.std::pair"* %8 to i8*, !llfi_index !338
  call void @_ZdlPv(i8* %9) #2, !llfi_index !339
  ret void, !llfi_index !340
}

; Function Attrs: mustprogress noinline uwtable
define linkonce_odr dso_local void @_ZSt8_DestroyIPSt4pairIiiEEvT_S3_(%"struct.std::pair"* %0, %"struct.std::pair"* %1) #4 comdat {
  %3 = alloca %"struct.std::pair"*, align 8, !llfi_index !341
  %4 = alloca %"struct.std::pair"*, align 8, !llfi_index !342
  store %"struct.std::pair"* %0, %"struct.std::pair"** %3, align 8, !llfi_index !343
  store %"struct.std::pair"* %1, %"struct.std::pair"** %4, align 8, !llfi_index !344
  %5 = load %"struct.std::pair"*, %"struct.std::pair"** %3, align 8, !llfi_index !345
  %6 = load %"struct.std::pair"*, %"struct.std::pair"** %4, align 8, !llfi_index !346
  call void @_ZNSt12_Destroy_auxILb1EE9__destroyIPSt4pairIiiEEEvT_S5_(%"struct.std::pair"* %5, %"struct.std::pair"* %6), !llfi_index !347
  ret void, !llfi_index !348
}

; Function Attrs: mustprogress noinline nounwind uwtable
define linkonce_odr dso_local void @_ZNSt12_Destroy_auxILb1EE9__destroyIPSt4pairIiiEEEvT_S5_(%"struct.std::pair"* %0, %"struct.std::pair"* %1) #3 comdat align 2 {
  %3 = alloca %"struct.std::pair"*, align 8, !llfi_index !349
  %4 = alloca %"struct.std::pair"*, align 8, !llfi_index !350
  store %"struct.std::pair"* %0, %"struct.std::pair"** %3, align 8, !llfi_index !351
  store %"struct.std::pair"* %1, %"struct.std::pair"** %4, align 8, !llfi_index !352
  ret void, !llfi_index !353
}

; Function Attrs: noinline nounwind uwtable
define linkonce_odr dso_local void @_ZNSt12_Vector_baseISt6vectorISt4pairIiiESaIS2_EESaIS4_EEC2Ev(%"struct.std::_Vector_base"* nonnull align 8 dereferenceable(24) %0) unnamed_addr #1 comdat align 2 {
  %2 = alloca %"struct.std::_Vector_base"*, align 8, !llfi_index !354
  store %"struct.std::_Vector_base"* %0, %"struct.std::_Vector_base"** %2, align 8, !llfi_index !355
  %3 = load %"struct.std::_Vector_base"*, %"struct.std::_Vector_base"** %2, align 8, !llfi_index !356
  %4 = getelementptr inbounds %"struct.std::_Vector_base", %"struct.std::_Vector_base"* %3, i32 0, i32 0, !llfi_index !357
  call void @_ZNSt12_Vector_baseISt6vectorISt4pairIiiESaIS2_EESaIS4_EE12_Vector_implC2Ev(%"struct.std::_Vector_base<std::vector<std::pair<int, int>>, std::allocator<std::vector<std::pair<int, int>>>>::_Vector_impl"* nonnull align 8 dereferenceable(24) %4) #2, !llfi_index !358
  ret void, !llfi_index !359
}

; Function Attrs: noinline nounwind uwtable
define linkonce_odr dso_local void @_ZNSt12_Vector_baseISt6vectorISt4pairIiiESaIS2_EESaIS4_EE12_Vector_implC2Ev(%"struct.std::_Vector_base<std::vector<std::pair<int, int>>, std::allocator<std::vector<std::pair<int, int>>>>::_Vector_impl"* nonnull align 8 dereferenceable(24) %0) unnamed_addr #1 comdat align 2 {
  %2 = alloca %"struct.std::_Vector_base<std::vector<std::pair<int, int>>, std::allocator<std::vector<std::pair<int, int>>>>::_Vector_impl"*, align 8, !llfi_index !360
  store %"struct.std::_Vector_base<std::vector<std::pair<int, int>>, std::allocator<std::vector<std::pair<int, int>>>>::_Vector_impl"* %0, %"struct.std::_Vector_base<std::vector<std::pair<int, int>>, std::allocator<std::vector<std::pair<int, int>>>>::_Vector_impl"** %2, align 8, !llfi_index !361
  %3 = load %"struct.std::_Vector_base<std::vector<std::pair<int, int>>, std::allocator<std::vector<std::pair<int, int>>>>::_Vector_impl"*, %"struct.std::_Vector_base<std::vector<std::pair<int, int>>, std::allocator<std::vector<std::pair<int, int>>>>::_Vector_impl"** %2, align 8, !llfi_index !362
  %4 = bitcast %"struct.std::_Vector_base<std::vector<std::pair<int, int>>, std::allocator<std::vector<std::pair<int, int>>>>::_Vector_impl"* %3 to %"class.std::allocator"*, !llfi_index !363
  call void @_ZNSaISt6vectorISt4pairIiiESaIS1_EEEC2Ev(%"class.std::allocator"* nonnull align 1 dereferenceable(1) %4) #2, !llfi_index !364
  %5 = bitcast %"struct.std::_Vector_base<std::vector<std::pair<int, int>>, std::allocator<std::vector<std::pair<int, int>>>>::_Vector_impl"* %3 to %"struct.std::_Vector_base<std::vector<std::pair<int, int>>, std::allocator<std::vector<std::pair<int, int>>>>::_Vector_impl_data"*, !llfi_index !365
  call void @_ZNSt12_Vector_baseISt6vectorISt4pairIiiESaIS2_EESaIS4_EE17_Vector_impl_dataC2Ev(%"struct.std::_Vector_base<std::vector<std::pair<int, int>>, std::allocator<std::vector<std::pair<int, int>>>>::_Vector_impl_data"* nonnull align 8 dereferenceable(24) %5) #2, !llfi_index !366
  ret void, !llfi_index !367
}

; Function Attrs: noinline nounwind uwtable
define linkonce_odr dso_local void @_ZNSaISt6vectorISt4pairIiiESaIS1_EEEC2Ev(%"class.std::allocator"* nonnull align 1 dereferenceable(1) %0) unnamed_addr #1 comdat align 2 {
  %2 = alloca %"class.std::allocator"*, align 8, !llfi_index !368
  store %"class.std::allocator"* %0, %"class.std::allocator"** %2, align 8, !llfi_index !369
  %3 = load %"class.std::allocator"*, %"class.std::allocator"** %2, align 8, !llfi_index !370
  %4 = bitcast %"class.std::allocator"* %3 to %"class.std::allocator"*, !llfi_index !371
  call void @_ZN9__gnu_cxx13new_allocatorISt6vectorISt4pairIiiESaIS3_EEEC2Ev(%"class.std::allocator"* nonnull align 1 dereferenceable(1) %4) #2, !llfi_index !372
  ret void, !llfi_index !373
}

; Function Attrs: noinline nounwind uwtable
define linkonce_odr dso_local void @_ZNSt12_Vector_baseISt6vectorISt4pairIiiESaIS2_EESaIS4_EE17_Vector_impl_dataC2Ev(%"struct.std::_Vector_base<std::vector<std::pair<int, int>>, std::allocator<std::vector<std::pair<int, int>>>>::_Vector_impl_data"* nonnull align 8 dereferenceable(24) %0) unnamed_addr #1 comdat align 2 {
  %2 = alloca %"struct.std::_Vector_base<std::vector<std::pair<int, int>>, std::allocator<std::vector<std::pair<int, int>>>>::_Vector_impl_data"*, align 8, !llfi_index !374
  store %"struct.std::_Vector_base<std::vector<std::pair<int, int>>, std::allocator<std::vector<std::pair<int, int>>>>::_Vector_impl_data"* %0, %"struct.std::_Vector_base<std::vector<std::pair<int, int>>, std::allocator<std::vector<std::pair<int, int>>>>::_Vector_impl_data"** %2, align 8, !llfi_index !375
  %3 = load %"struct.std::_Vector_base<std::vector<std::pair<int, int>>, std::allocator<std::vector<std::pair<int, int>>>>::_Vector_impl_data"*, %"struct.std::_Vector_base<std::vector<std::pair<int, int>>, std::allocator<std::vector<std::pair<int, int>>>>::_Vector_impl_data"** %2, align 8, !llfi_index !376
  %4 = getelementptr inbounds %"struct.std::_Vector_base<std::vector<std::pair<int, int>>, std::allocator<std::vector<std::pair<int, int>>>>::_Vector_impl_data", %"struct.std::_Vector_base<std::vector<std::pair<int, int>>, std::allocator<std::vector<std::pair<int, int>>>>::_Vector_impl_data"* %3, i32 0, i32 0, !llfi_index !377
  store %"class.std::vector.0"* null, %"class.std::vector.0"** %4, align 8, !llfi_index !378
  %5 = getelementptr inbounds %"struct.std::_Vector_base<std::vector<std::pair<int, int>>, std::allocator<std::vector<std::pair<int, int>>>>::_Vector_impl_data", %"struct.std::_Vector_base<std::vector<std::pair<int, int>>, std::allocator<std::vector<std::pair<int, int>>>>::_Vector_impl_data"* %3, i32 0, i32 1, !llfi_index !379
  store %"class.std::vector.0"* null, %"class.std::vector.0"** %5, align 8, !llfi_index !380
  %6 = getelementptr inbounds %"struct.std::_Vector_base<std::vector<std::pair<int, int>>, std::allocator<std::vector<std::pair<int, int>>>>::_Vector_impl_data", %"struct.std::_Vector_base<std::vector<std::pair<int, int>>, std::allocator<std::vector<std::pair<int, int>>>>::_Vector_impl_data"* %3, i32 0, i32 2, !llfi_index !381
  store %"class.std::vector.0"* null, %"class.std::vector.0"** %6, align 8, !llfi_index !382
  ret void, !llfi_index !383
}

; Function Attrs: noinline nounwind uwtable
define linkonce_odr dso_local void @_ZN9__gnu_cxx13new_allocatorISt6vectorISt4pairIiiESaIS3_EEEC2Ev(%"class.std::allocator"* nonnull align 1 dereferenceable(1) %0) unnamed_addr #1 comdat align 2 {
  %2 = alloca %"class.std::allocator"*, align 8, !llfi_index !384
  store %"class.std::allocator"* %0, %"class.std::allocator"** %2, align 8, !llfi_index !385
  %3 = load %"class.std::allocator"*, %"class.std::allocator"** %2, align 8, !llfi_index !386
  ret void, !llfi_index !387
}

declare dso_local void @_ZNSt8ios_base4InitC1Ev(%"class.std::allocator"* nonnull align 1 dereferenceable(1)) unnamed_addr #7

; Function Attrs: noinline uwtable
define internal void @__dtor__ZStL8__ioinit() #0 section ".text.startup" {
  call void @_ZNSt8ios_base4InitD1Ev(%"class.std::allocator"* @_ZStL8__ioinit), !llfi_index !388
  ret void, !llfi_index !389
}

; Function Attrs: nounwind
declare dso_local void @_ZNSt8ios_base4InitD1Ev(%"class.std::allocator"* nonnull align 1 dereferenceable(1)) unnamed_addr #8

; Function Attrs: mustprogress noinline uwtable
define dso_local i32 @_Z4sizeiii(i32 %0, i32 %1, i32 %2) #4 {
  %4 = alloca i32, align 4, !llfi_index !390
  %5 = alloca i32, align 4, !llfi_index !391
  %6 = alloca i32, align 4, !llfi_index !392
  %7 = alloca i32, align 4, !llfi_index !393
  %8 = alloca i32*, align 8, !llfi_index !394
  %9 = alloca i32, align 4, !llfi_index !395
  %10 = alloca i32, align 4, !llfi_index !396
  %11 = alloca i32, align 4, !llfi_index !397
  store i32 %0, i32* %5, align 4, !llfi_index !398
  store i32 %1, i32* %6, align 4, !llfi_index !399
  store i32 %2, i32* %7, align 4, !llfi_index !400
  %12 = load i32, i32* %7, align 4, !llfi_index !401
  %13 = sext i32 %12 to i64, !llfi_index !402
  %14 = getelementptr inbounds [240020 x i32], [240020 x i32]* @sizem, i64 0, i64 %13, !llfi_index !403
  store i32* %14, i32** %8, align 8, !llfi_index !404
  %15 = load i32*, i32** %8, align 8, !llfi_index !405
  %16 = load i32, i32* %15, align 4, !llfi_index !406
  %17 = icmp ne i32 %16, -1, !llfi_index !407
  br i1 %17, label %18, label %21, !llfi_index !408

18:                                               ; preds = %3
  %19 = load i32*, i32** %8, align 8, !llfi_index !409
  %20 = load i32, i32* %19, align 4, !llfi_index !410
  store i32 %20, i32* %4, align 4, !llfi_index !411
  br label %80, !llfi_index !412

21:                                               ; preds = %3
  %22 = load i32*, i32** %8, align 8, !llfi_index !413
  store i32 1, i32* %22, align 4, !llfi_index !414
  store i32 0, i32* %9, align 4, !llfi_index !415
  br label %23, !llfi_index !416

23:                                               ; preds = %74, %21
  %24 = load i32, i32* %9, align 4, !llfi_index !417
  %25 = sext i32 %24 to i64, !llfi_index !418
  %26 = load i32, i32* %5, align 4, !llfi_index !419
  %27 = sext i32 %26 to i64, !llfi_index !420
  %28 = call nonnull align 8 dereferenceable(24) %"class.std::vector.0"* @_ZNSt6vectorIS_ISt4pairIiiESaIS1_EESaIS3_EEixEm(%"class.std::vector"* nonnull align 8 dereferenceable(24) @E, i64 %27) #2, !llfi_index !421
  %29 = call i64 @_ZNKSt6vectorISt4pairIiiESaIS1_EE4sizeEv(%"class.std::vector.0"* nonnull align 8 dereferenceable(24) %28) #2, !llfi_index !422
  %30 = icmp ult i64 %25, %29, !llfi_index !423
  br i1 %30, label %31, label %77, !llfi_index !424

31:                                               ; preds = %23
  %32 = load i32, i32* %5, align 4, !llfi_index !425
  %33 = sext i32 %32 to i64, !llfi_index !426
  %34 = call nonnull align 8 dereferenceable(24) %"class.std::vector.0"* @_ZNSt6vectorIS_ISt4pairIiiESaIS1_EESaIS3_EEixEm(%"class.std::vector"* nonnull align 8 dereferenceable(24) @E, i64 %33) #2, !llfi_index !427
  %35 = load i32, i32* %9, align 4, !llfi_index !428
  %36 = sext i32 %35 to i64, !llfi_index !429
  %37 = call nonnull align 4 dereferenceable(8) %"struct.std::pair"* @_ZNSt6vectorISt4pairIiiESaIS1_EEixEm(%"class.std::vector.0"* nonnull align 8 dereferenceable(24) %34, i64 %36) #2, !llfi_index !430
  %38 = getelementptr inbounds %"struct.std::pair", %"struct.std::pair"* %37, i32 0, i32 0, !llfi_index !431
  %39 = load i32, i32* %38, align 4, !llfi_index !432
  store i32 %39, i32* %10, align 4, !llfi_index !433
  %40 = load i32, i32* %10, align 4, !llfi_index !434
  %41 = load i32, i32* %6, align 4, !llfi_index !435
  %42 = icmp ne i32 %40, %41, !llfi_index !436
  br i1 %42, label %43, label %73, !llfi_index !437

43:                                               ; preds = %31
  %44 = load i32, i32* %10, align 4, !llfi_index !438
  %45 = load i32, i32* %5, align 4, !llfi_index !439
  %46 = load i32, i32* %5, align 4, !llfi_index !440
  %47 = sext i32 %46 to i64, !llfi_index !441
  %48 = call nonnull align 8 dereferenceable(24) %"class.std::vector.0"* @_ZNSt6vectorIS_ISt4pairIiiESaIS1_EESaIS3_EEixEm(%"class.std::vector"* nonnull align 8 dereferenceable(24) @E, i64 %47) #2, !llfi_index !442
  %49 = load i32, i32* %9, align 4, !llfi_index !443
  %50 = sext i32 %49 to i64, !llfi_index !444
  %51 = call nonnull align 4 dereferenceable(8) %"struct.std::pair"* @_ZNSt6vectorISt4pairIiiESaIS1_EEixEm(%"class.std::vector.0"* nonnull align 8 dereferenceable(24) %48, i64 %50) #2, !llfi_index !445
  %52 = getelementptr inbounds %"struct.std::pair", %"struct.std::pair"* %51, i32 0, i32 1, !llfi_index !446
  %53 = load i32, i32* %52, align 4, !llfi_index !447
  %54 = call i32 @_Z4sizeiii(i32 %44, i32 %45, i32 %53), !llfi_index !448
  store i32 %54, i32* %11, align 4, !llfi_index !449
  %55 = load i32, i32* @N, align 4, !llfi_index !450
  %56 = load i32, i32* %11, align 4, !llfi_index !451
  %57 = sub nsw i32 %55, %56, !llfi_index !452
  %58 = load i32, i32* %5, align 4, !llfi_index !453
  %59 = sext i32 %58 to i64, !llfi_index !454
  %60 = call nonnull align 8 dereferenceable(24) %"class.std::vector.0"* @_ZNSt6vectorIS_ISt4pairIiiESaIS1_EESaIS3_EEixEm(%"class.std::vector"* nonnull align 8 dereferenceable(24) @E, i64 %59) #2, !llfi_index !455
  %61 = load i32, i32* %9, align 4, !llfi_index !456
  %62 = sext i32 %61 to i64, !llfi_index !457
  %63 = call nonnull align 4 dereferenceable(8) %"struct.std::pair"* @_ZNSt6vectorISt4pairIiiESaIS1_EEixEm(%"class.std::vector.0"* nonnull align 8 dereferenceable(24) %60, i64 %62) #2, !llfi_index !458
  %64 = getelementptr inbounds %"struct.std::pair", %"struct.std::pair"* %63, i32 0, i32 1, !llfi_index !459
  %65 = load i32, i32* %64, align 4, !llfi_index !460
  %66 = xor i32 %65, 1, !llfi_index !461
  %67 = sext i32 %66 to i64, !llfi_index !462
  %68 = getelementptr inbounds [240020 x i32], [240020 x i32]* @sizem, i64 0, i64 %67, !llfi_index !463
  store i32 %57, i32* %68, align 4, !llfi_index !464
  %69 = load i32, i32* %11, align 4, !llfi_index !465
  %70 = load i32*, i32** %8, align 8, !llfi_index !466
  %71 = load i32, i32* %70, align 4, !llfi_index !467
  %72 = add nsw i32 %71, %69, !llfi_index !468
  store i32 %72, i32* %70, align 4, !llfi_index !469
  br label %73, !llfi_index !470

73:                                               ; preds = %43, %31
  br label %74, !llfi_index !471

74:                                               ; preds = %73
  %75 = load i32, i32* %9, align 4, !llfi_index !472
  %76 = add nsw i32 %75, 1, !llfi_index !473
  store i32 %76, i32* %9, align 4, !llfi_index !474
  br label %23, !llvm.loop !475, !llfi_index !476

77:                                               ; preds = %23
  %78 = load i32*, i32** %8, align 8, !llfi_index !477
  %79 = load i32, i32* %78, align 4, !llfi_index !478
  store i32 %79, i32* %4, align 4, !llfi_index !479
  br label %80, !llfi_index !480

80:                                               ; preds = %77, %18
  %81 = load i32, i32* %4, align 4, !llfi_index !481
  ret i32 %81, !llfi_index !482
}

; Function Attrs: mustprogress noinline nounwind uwtable
define linkonce_odr dso_local nonnull align 8 dereferenceable(24) %"class.std::vector.0"* @_ZNSt6vectorIS_ISt4pairIiiESaIS1_EESaIS3_EEixEm(%"class.std::vector"* nonnull align 8 dereferenceable(24) %0, i64 %1) #3 comdat align 2 {
  %3 = alloca %"class.std::vector"*, align 8, !llfi_index !483
  %4 = alloca i64, align 8, !llfi_index !484
  store %"class.std::vector"* %0, %"class.std::vector"** %3, align 8, !llfi_index !485
  store i64 %1, i64* %4, align 8, !llfi_index !486
  %5 = load %"class.std::vector"*, %"class.std::vector"** %3, align 8, !llfi_index !487
  %6 = bitcast %"class.std::vector"* %5 to %"struct.std::_Vector_base"*, !llfi_index !488
  %7 = getelementptr inbounds %"struct.std::_Vector_base", %"struct.std::_Vector_base"* %6, i32 0, i32 0, !llfi_index !489
  %8 = bitcast %"struct.std::_Vector_base<std::vector<std::pair<int, int>>, std::allocator<std::vector<std::pair<int, int>>>>::_Vector_impl"* %7 to %"struct.std::_Vector_base<std::vector<std::pair<int, int>>, std::allocator<std::vector<std::pair<int, int>>>>::_Vector_impl_data"*, !llfi_index !490
  %9 = getelementptr inbounds %"struct.std::_Vector_base<std::vector<std::pair<int, int>>, std::allocator<std::vector<std::pair<int, int>>>>::_Vector_impl_data", %"struct.std::_Vector_base<std::vector<std::pair<int, int>>, std::allocator<std::vector<std::pair<int, int>>>>::_Vector_impl_data"* %8, i32 0, i32 0, !llfi_index !491
  %10 = load %"class.std::vector.0"*, %"class.std::vector.0"** %9, align 8, !llfi_index !492
  %11 = load i64, i64* %4, align 8, !llfi_index !493
  %12 = getelementptr inbounds %"class.std::vector.0", %"class.std::vector.0"* %10, i64 %11, !llfi_index !494
  ret %"class.std::vector.0"* %12, !llfi_index !495
}

; Function Attrs: mustprogress noinline nounwind uwtable
define linkonce_odr dso_local i64 @_ZNKSt6vectorISt4pairIiiESaIS1_EE4sizeEv(%"class.std::vector.0"* nonnull align 8 dereferenceable(24) %0) #3 comdat align 2 {
  %2 = alloca %"class.std::vector.0"*, align 8, !llfi_index !496
  store %"class.std::vector.0"* %0, %"class.std::vector.0"** %2, align 8, !llfi_index !497
  %3 = load %"class.std::vector.0"*, %"class.std::vector.0"** %2, align 8, !llfi_index !498
  %4 = bitcast %"class.std::vector.0"* %3 to %"struct.std::_Vector_base.1"*, !llfi_index !499
  %5 = getelementptr inbounds %"struct.std::_Vector_base.1", %"struct.std::_Vector_base.1"* %4, i32 0, i32 0, !llfi_index !500
  %6 = bitcast %"struct.std::_Vector_base<std::pair<int, int>, std::allocator<std::pair<int, int>>>::_Vector_impl"* %5 to %"struct.std::_Vector_base<std::pair<int, int>, std::allocator<std::pair<int, int>>>::_Vector_impl_data"*, !llfi_index !501
  %7 = getelementptr inbounds %"struct.std::_Vector_base<std::pair<int, int>, std::allocator<std::pair<int, int>>>::_Vector_impl_data", %"struct.std::_Vector_base<std::pair<int, int>, std::allocator<std::pair<int, int>>>::_Vector_impl_data"* %6, i32 0, i32 1, !llfi_index !502
  %8 = load %"struct.std::pair"*, %"struct.std::pair"** %7, align 8, !llfi_index !503
  %9 = bitcast %"class.std::vector.0"* %3 to %"struct.std::_Vector_base.1"*, !llfi_index !504
  %10 = getelementptr inbounds %"struct.std::_Vector_base.1", %"struct.std::_Vector_base.1"* %9, i32 0, i32 0, !llfi_index !505
  %11 = bitcast %"struct.std::_Vector_base<std::pair<int, int>, std::allocator<std::pair<int, int>>>::_Vector_impl"* %10 to %"struct.std::_Vector_base<std::pair<int, int>, std::allocator<std::pair<int, int>>>::_Vector_impl_data"*, !llfi_index !506
  %12 = getelementptr inbounds %"struct.std::_Vector_base<std::pair<int, int>, std::allocator<std::pair<int, int>>>::_Vector_impl_data", %"struct.std::_Vector_base<std::pair<int, int>, std::allocator<std::pair<int, int>>>::_Vector_impl_data"* %11, i32 0, i32 0, !llfi_index !507
  %13 = load %"struct.std::pair"*, %"struct.std::pair"** %12, align 8, !llfi_index !508
  %14 = ptrtoint %"struct.std::pair"* %8 to i64, !llfi_index !509
  %15 = ptrtoint %"struct.std::pair"* %13 to i64, !llfi_index !510
  %16 = sub i64 %14, %15, !llfi_index !511
  %17 = sdiv exact i64 %16, 8, !llfi_index !512
  ret i64 %17, !llfi_index !513
}

; Function Attrs: mustprogress noinline nounwind uwtable
define linkonce_odr dso_local nonnull align 4 dereferenceable(8) %"struct.std::pair"* @_ZNSt6vectorISt4pairIiiESaIS1_EEixEm(%"class.std::vector.0"* nonnull align 8 dereferenceable(24) %0, i64 %1) #3 comdat align 2 {
  %3 = alloca %"class.std::vector.0"*, align 8, !llfi_index !514
  %4 = alloca i64, align 8, !llfi_index !515
  store %"class.std::vector.0"* %0, %"class.std::vector.0"** %3, align 8, !llfi_index !516
  store i64 %1, i64* %4, align 8, !llfi_index !517
  %5 = load %"class.std::vector.0"*, %"class.std::vector.0"** %3, align 8, !llfi_index !518
  %6 = bitcast %"class.std::vector.0"* %5 to %"struct.std::_Vector_base.1"*, !llfi_index !519
  %7 = getelementptr inbounds %"struct.std::_Vector_base.1", %"struct.std::_Vector_base.1"* %6, i32 0, i32 0, !llfi_index !520
  %8 = bitcast %"struct.std::_Vector_base<std::pair<int, int>, std::allocator<std::pair<int, int>>>::_Vector_impl"* %7 to %"struct.std::_Vector_base<std::pair<int, int>, std::allocator<std::pair<int, int>>>::_Vector_impl_data"*, !llfi_index !521
  %9 = getelementptr inbounds %"struct.std::_Vector_base<std::pair<int, int>, std::allocator<std::pair<int, int>>>::_Vector_impl_data", %"struct.std::_Vector_base<std::pair<int, int>, std::allocator<std::pair<int, int>>>::_Vector_impl_data"* %8, i32 0, i32 0, !llfi_index !522
  %10 = load %"struct.std::pair"*, %"struct.std::pair"** %9, align 8, !llfi_index !523
  %11 = load i64, i64* %4, align 8, !llfi_index !524
  %12 = getelementptr inbounds %"struct.std::pair", %"struct.std::pair"* %10, i64 %11, !llfi_index !525
  ret %"struct.std::pair"* %12, !llfi_index !526
}

; Function Attrs: mustprogress noinline uwtable
define dso_local i32 @_Z5solveiii(i32 %0, i32 %1, i32 %2) #4 {
  %4 = alloca i32, align 4, !llfi_index !527
  %5 = alloca i32, align 4, !llfi_index !528
  %6 = alloca i32, align 4, !llfi_index !529
  %7 = alloca i32, align 4, !llfi_index !530
  %8 = alloca i32*, align 8, !llfi_index !531
  %9 = alloca %"struct.std::pair"*, align 8, !llfi_index !532
  %10 = alloca i32, align 4, !llfi_index !533
  %11 = alloca %"struct.std::pair", align 4, !llfi_index !534
  %12 = alloca i32, align 4, !llfi_index !535
  %13 = alloca i32, align 4, !llfi_index !536
  %14 = alloca %"struct.std::pair", align 4, !llfi_index !537
  %15 = alloca i32, align 4, !llfi_index !538
  %16 = alloca i32, align 4, !llfi_index !539
  %17 = alloca i32, align 4, !llfi_index !540
  %18 = alloca i32, align 4, !llfi_index !541
  %19 = alloca i32, align 4, !llfi_index !542
  %20 = alloca %"struct.std::pair", align 4, !llfi_index !543
  %21 = alloca %"struct.std::pair", align 4, !llfi_index !544
  %22 = alloca i32, align 4, !llfi_index !545
  %23 = alloca i32, align 4, !llfi_index !546
  %24 = alloca i32, align 4, !llfi_index !547
  %25 = alloca i32, align 4, !llfi_index !548
  %26 = alloca %"struct.std::pair", align 4, !llfi_index !549
  %27 = alloca i32, align 4, !llfi_index !550
  %28 = alloca i32, align 4, !llfi_index !551
  store i32 %0, i32* %5, align 4, !llfi_index !552
  store i32 %1, i32* %6, align 4, !llfi_index !553
  store i32 %2, i32* %7, align 4, !llfi_index !554
  %29 = load i32, i32* %7, align 4, !llfi_index !555
  %30 = sext i32 %29 to i64, !llfi_index !556
  %31 = getelementptr inbounds [240020 x i32], [240020 x i32]* @memo, i64 0, i64 %30, !llfi_index !557
  store i32* %31, i32** %8, align 8, !llfi_index !558
  %32 = load i32*, i32** %8, align 8, !llfi_index !559
  %33 = load i32, i32* %32, align 4, !llfi_index !560
  %34 = icmp ne i32 %33, -1, !llfi_index !561
  br i1 %34, label %35, label %61, !llfi_index !562

35:                                               ; preds = %3
  %36 = load i32, i32* %7, align 4, !llfi_index !563
  %37 = sext i32 %36 to i64, !llfi_index !564
  %38 = getelementptr inbounds [240020 x %"struct.std::pair"], [240020 x %"struct.std::pair"]* @memomis, i64 0, i64 %37, !llfi_index !565
  store %"struct.std::pair"* %38, %"struct.std::pair"** %9, align 8, !llfi_index !566
  %39 = load %"struct.std::pair"*, %"struct.std::pair"** %9, align 8, !llfi_index !567
  %40 = getelementptr inbounds %"struct.std::pair", %"struct.std::pair"* %39, i32 0, i32 0, !llfi_index !568
  %41 = load i32, i32* %40, align 4, !llfi_index !569
  %42 = icmp ne i32 %41, -1, !llfi_index !570
  br i1 %42, label %43, label %56, !llfi_index !571

43:                                               ; preds = %35
  %44 = load i32*, i32** %8, align 8, !llfi_index !572
  %45 = load %"struct.std::pair"*, %"struct.std::pair"** %9, align 8, !llfi_index !573
  %46 = getelementptr inbounds %"struct.std::pair", %"struct.std::pair"* %45, i32 0, i32 0, !llfi_index !574
  %47 = load i32, i32* %46, align 4, !llfi_index !575
  %48 = load i32, i32* %5, align 4, !llfi_index !576
  %49 = load %"struct.std::pair"*, %"struct.std::pair"** %9, align 8, !llfi_index !577
  %50 = getelementptr inbounds %"struct.std::pair", %"struct.std::pair"* %49, i32 0, i32 1, !llfi_index !578
  %51 = load i32, i32* %50, align 4, !llfi_index !579
  %52 = call i32 @_Z5solveiii(i32 %47, i32 %48, i32 %51), !llfi_index !580
  store i32 %52, i32* %10, align 4, !llfi_index !581
  %53 = call nonnull align 4 dereferenceable(4) i32* @_ZSt3minIiERKT_S2_S2_(i32* nonnull align 4 dereferenceable(4) %44, i32* nonnull align 4 dereferenceable(4) %10), !llfi_index !582
  %54 = load i32, i32* %53, align 4, !llfi_index !583
  %55 = load i32*, i32** %8, align 8, !llfi_index !584
  store i32 %54, i32* %55, align 4, !llfi_index !585
  br label %56, !llfi_index !586

56:                                               ; preds = %43, %35
  %57 = load %"struct.std::pair"*, %"struct.std::pair"** %9, align 8, !llfi_index !587
  %58 = getelementptr inbounds %"struct.std::pair", %"struct.std::pair"* %57, i32 0, i32 0, !llfi_index !588
  store i32 -1, i32* %58, align 4, !llfi_index !589
  %59 = load i32*, i32** %8, align 8, !llfi_index !590
  %60 = load i32, i32* %59, align 4, !llfi_index !591
  store i32 %60, i32* %4, align 4, !llfi_index !592
  br label %215, !llfi_index !593

61:                                               ; preds = %3
  store i32 1073741823, i32* %12, align 4, !llfi_index !594
  store i32 -1, i32* %13, align 4, !llfi_index !595
  %62 = call i64 @_ZSt9make_pairIiiESt4pairINSt17__decay_and_stripIT_E6__typeENS1_IT0_E6__typeEEOS2_OS5_(i32* nonnull align 4 dereferenceable(4) %12, i32* nonnull align 4 dereferenceable(4) %13), !llfi_index !596
  %63 = bitcast %"struct.std::pair"* %11 to i64*, !llfi_index !597
  store i64 %62, i64* %63, align 4, !llfi_index !598
  store i32 1073741823, i32* %15, align 4, !llfi_index !599
  store i32 -1, i32* %16, align 4, !llfi_index !600
  %64 = call i64 @_ZSt9make_pairIiiESt4pairINSt17__decay_and_stripIT_E6__typeENS1_IT0_E6__typeEEOS2_OS5_(i32* nonnull align 4 dereferenceable(4) %15, i32* nonnull align 4 dereferenceable(4) %16), !llfi_index !601
  %65 = bitcast %"struct.std::pair"* %14 to i64*, !llfi_index !602
  store i64 %64, i64* %65, align 4, !llfi_index !603
  store i32 0, i32* %17, align 4, !llfi_index !604
  br label %66, !llfi_index !605

66:                                               ; preds = %119, %61
  %67 = load i32, i32* %17, align 4, !llfi_index !606
  %68 = sext i32 %67 to i64, !llfi_index !607
  %69 = load i32, i32* %5, align 4, !llfi_index !608
  %70 = sext i32 %69 to i64, !llfi_index !609
  %71 = call nonnull align 8 dereferenceable(24) %"class.std::vector.0"* @_ZNSt6vectorIS_ISt4pairIiiESaIS1_EESaIS3_EEixEm(%"class.std::vector"* nonnull align 8 dereferenceable(24) @E, i64 %70) #2, !llfi_index !610
  %72 = call i64 @_ZNKSt6vectorISt4pairIiiESaIS1_EE4sizeEv(%"class.std::vector.0"* nonnull align 8 dereferenceable(24) %71) #2, !llfi_index !611
  %73 = icmp ult i64 %68, %72, !llfi_index !612
  br i1 %73, label %74, label %122, !llfi_index !613

74:                                               ; preds = %66
  %75 = load i32, i32* %5, align 4, !llfi_index !614
  %76 = sext i32 %75 to i64, !llfi_index !615
  %77 = call nonnull align 8 dereferenceable(24) %"class.std::vector.0"* @_ZNSt6vectorIS_ISt4pairIiiESaIS1_EESaIS3_EEixEm(%"class.std::vector"* nonnull align 8 dereferenceable(24) @E, i64 %76) #2, !llfi_index !616
  %78 = load i32, i32* %17, align 4, !llfi_index !617
  %79 = sext i32 %78 to i64, !llfi_index !618
  %80 = call nonnull align 4 dereferenceable(8) %"struct.std::pair"* @_ZNSt6vectorISt4pairIiiESaIS1_EEixEm(%"class.std::vector.0"* nonnull align 8 dereferenceable(24) %77, i64 %79) #2, !llfi_index !619
  %81 = getelementptr inbounds %"struct.std::pair", %"struct.std::pair"* %80, i32 0, i32 0, !llfi_index !620
  %82 = load i32, i32* %81, align 4, !llfi_index !621
  store i32 %82, i32* %18, align 4, !llfi_index !622
  %83 = load i32, i32* %18, align 4, !llfi_index !623
  %84 = load i32, i32* %6, align 4, !llfi_index !624
  %85 = icmp ne i32 %83, %84, !llfi_index !625
  br i1 %85, label %86, label %118, !llfi_index !626

86:                                               ; preds = %74
  %87 = load i32, i32* %18, align 4, !llfi_index !627
  %88 = load i32, i32* %5, align 4, !llfi_index !628
  %89 = load i32, i32* %5, align 4, !llfi_index !629
  %90 = sext i32 %89 to i64, !llfi_index !630
  %91 = call nonnull align 8 dereferenceable(24) %"class.std::vector.0"* @_ZNSt6vectorIS_ISt4pairIiiESaIS1_EESaIS3_EEixEm(%"class.std::vector"* nonnull align 8 dereferenceable(24) @E, i64 %90) #2, !llfi_index !631
  %92 = load i32, i32* %17, align 4, !llfi_index !632
  %93 = sext i32 %92 to i64, !llfi_index !633
  %94 = call nonnull align 4 dereferenceable(8) %"struct.std::pair"* @_ZNSt6vectorISt4pairIiiESaIS1_EEixEm(%"class.std::vector.0"* nonnull align 8 dereferenceable(24) %91, i64 %93) #2, !llfi_index !634
  %95 = getelementptr inbounds %"struct.std::pair", %"struct.std::pair"* %94, i32 0, i32 1, !llfi_index !635
  %96 = load i32, i32* %95, align 4, !llfi_index !636
  %97 = call i32 @_Z5solveiii(i32 %87, i32 %88, i32 %96), !llfi_index !637
  store i32 %97, i32* %19, align 4, !llfi_index !638
  %98 = load i32, i32* %19, align 4, !llfi_index !639
  %99 = getelementptr inbounds %"struct.std::pair", %"struct.std::pair"* %11, i32 0, i32 0, !llfi_index !640
  %100 = load i32, i32* %99, align 4, !llfi_index !641
  %101 = icmp slt i32 %98, %100, !llfi_index !642
  br i1 %101, label %102, label %107, !llfi_index !643

102:                                              ; preds = %86
  %103 = call nonnull align 4 dereferenceable(8) %"struct.std::pair"* @_ZNSt4pairIiiEaSERKS0_(%"struct.std::pair"* nonnull align 4 dereferenceable(8) %14, %"struct.std::pair"* nonnull align 4 dereferenceable(8) %11), !llfi_index !644
  %104 = call i64 @_ZSt9make_pairIRiS0_ESt4pairINSt17__decay_and_stripIT_E6__typeENS2_IT0_E6__typeEEOS3_OS6_(i32* nonnull align 4 dereferenceable(4) %19, i32* nonnull align 4 dereferenceable(4) %18), !llfi_index !645
  %105 = bitcast %"struct.std::pair"* %20 to i64*, !llfi_index !646
  store i64 %104, i64* %105, align 4, !llfi_index !647
  %106 = call nonnull align 4 dereferenceable(8) %"struct.std::pair"* @_ZNSt4pairIiiEaSEOS0_(%"struct.std::pair"* nonnull align 4 dereferenceable(8) %11, %"struct.std::pair"* nonnull align 4 dereferenceable(8) %20) #2, !llfi_index !648
  br label %117, !llfi_index !649

107:                                              ; preds = %86
  %108 = load i32, i32* %19, align 4, !llfi_index !650
  %109 = getelementptr inbounds %"struct.std::pair", %"struct.std::pair"* %14, i32 0, i32 0, !llfi_index !651
  %110 = load i32, i32* %109, align 4, !llfi_index !652
  %111 = icmp slt i32 %108, %110, !llfi_index !653
  br i1 %111, label %112, label %116, !llfi_index !654

112:                                              ; preds = %107
  %113 = call i64 @_ZSt9make_pairIRiS0_ESt4pairINSt17__decay_and_stripIT_E6__typeENS2_IT0_E6__typeEEOS3_OS6_(i32* nonnull align 4 dereferenceable(4) %19, i32* nonnull align 4 dereferenceable(4) %18), !llfi_index !655
  %114 = bitcast %"struct.std::pair"* %21 to i64*, !llfi_index !656
  store i64 %113, i64* %114, align 4, !llfi_index !657
  %115 = call nonnull align 4 dereferenceable(8) %"struct.std::pair"* @_ZNSt4pairIiiEaSEOS0_(%"struct.std::pair"* nonnull align 4 dereferenceable(8) %14, %"struct.std::pair"* nonnull align 4 dereferenceable(8) %21) #2, !llfi_index !658
  br label %116, !llfi_index !659

116:                                              ; preds = %112, %107
  br label %117, !llfi_index !660

117:                                              ; preds = %116, %102
  br label %118, !llfi_index !661

118:                                              ; preds = %117, %74
  br label %119, !llfi_index !662

119:                                              ; preds = %118
  %120 = load i32, i32* %17, align 4, !llfi_index !663
  %121 = add nsw i32 %120, 1, !llfi_index !664
  store i32 %121, i32* %17, align 4, !llfi_index !665
  br label %66, !llvm.loop !666, !llfi_index !667

122:                                              ; preds = %66
  store i32 0, i32* %22, align 4, !llfi_index !668
  br label %123, !llfi_index !669

123:                                              ; preds = %209, %122
  %124 = load i32, i32* %22, align 4, !llfi_index !670
  %125 = sext i32 %124 to i64, !llfi_index !671
  %126 = load i32, i32* %5, align 4, !llfi_index !672
  %127 = sext i32 %126 to i64, !llfi_index !673
  %128 = call nonnull align 8 dereferenceable(24) %"class.std::vector.0"* @_ZNSt6vectorIS_ISt4pairIiiESaIS1_EESaIS3_EEixEm(%"class.std::vector"* nonnull align 8 dereferenceable(24) @E, i64 %127) #2, !llfi_index !674
  %129 = call i64 @_ZNKSt6vectorISt4pairIiiESaIS1_EE4sizeEv(%"class.std::vector.0"* nonnull align 8 dereferenceable(24) %128) #2, !llfi_index !675
  %130 = icmp ult i64 %125, %129, !llfi_index !676
  br i1 %130, label %131, label %212, !llfi_index !677

131:                                              ; preds = %123
  %132 = load i32, i32* %5, align 4, !llfi_index !678
  %133 = sext i32 %132 to i64, !llfi_index !679
  %134 = call nonnull align 8 dereferenceable(24) %"class.std::vector.0"* @_ZNSt6vectorIS_ISt4pairIiiESaIS1_EESaIS3_EEixEm(%"class.std::vector"* nonnull align 8 dereferenceable(24) @E, i64 %133) #2, !llfi_index !680
  %135 = load i32, i32* %22, align 4, !llfi_index !681
  %136 = sext i32 %135 to i64, !llfi_index !682
  %137 = call nonnull align 4 dereferenceable(8) %"struct.std::pair"* @_ZNSt6vectorISt4pairIiiESaIS1_EEixEm(%"class.std::vector.0"* nonnull align 8 dereferenceable(24) %134, i64 %136) #2, !llfi_index !683
  %138 = getelementptr inbounds %"struct.std::pair", %"struct.std::pair"* %137, i32 0, i32 0, !llfi_index !684
  %139 = load i32, i32* %138, align 4, !llfi_index !685
  store i32 %139, i32* %23, align 4, !llfi_index !686
  %140 = getelementptr inbounds %"struct.std::pair", %"struct.std::pair"* %11, i32 0, i32 1, !llfi_index !687
  %141 = load i32, i32* %140, align 4, !llfi_index !688
  %142 = load i32, i32* %23, align 4, !llfi_index !689
  %143 = icmp eq i32 %141, %142, !llfi_index !690
  br i1 %143, label %144, label %147, !llfi_index !691

144:                                              ; preds = %131
  %145 = getelementptr inbounds %"struct.std::pair", %"struct.std::pair"* %14, i32 0, i32 0, !llfi_index !692
  %146 = load i32, i32* %145, align 4, !llfi_index !693
  br label %150, !llfi_index !694

147:                                              ; preds = %131
  %148 = getelementptr inbounds %"struct.std::pair", %"struct.std::pair"* %11, i32 0, i32 0, !llfi_index !695
  %149 = load i32, i32* %148, align 4, !llfi_index !696
  br label %150, !llfi_index !697

150:                                              ; preds = %147, %144
  %151 = phi i32 [ %146, %144 ], [ %149, %147 ], !llfi_index !698
  store i32 %151, i32* %24, align 4, !llfi_index !699
  %152 = load i32, i32* %5, align 4, !llfi_index !700
  %153 = sext i32 %152 to i64, !llfi_index !701
  %154 = getelementptr inbounds [120010 x i32], [120010 x i32]* @S, i64 0, i64 %153, !llfi_index !702
  %155 = load i32, i32* %154, align 4, !llfi_index !703
  %156 = icmp eq i32 %155, 0, !llfi_index !704
  br i1 %156, label %157, label %172, !llfi_index !705

157:                                              ; preds = %150
  %158 = load i32, i32* %5, align 4, !llfi_index !706
  %159 = load i32, i32* %23, align 4, !llfi_index !707
  %160 = load i32, i32* %5, align 4, !llfi_index !708
  %161 = sext i32 %160 to i64, !llfi_index !709
  %162 = call nonnull align 8 dereferenceable(24) %"class.std::vector.0"* @_ZNSt6vectorIS_ISt4pairIiiESaIS1_EESaIS3_EEixEm(%"class.std::vector"* nonnull align 8 dereferenceable(24) @E, i64 %161) #2, !llfi_index !710
  %163 = load i32, i32* %22, align 4, !llfi_index !711
  %164 = sext i32 %163 to i64, !llfi_index !712
  %165 = call nonnull align 4 dereferenceable(8) %"struct.std::pair"* @_ZNSt6vectorISt4pairIiiESaIS1_EEixEm(%"class.std::vector.0"* nonnull align 8 dereferenceable(24) %162, i64 %164) #2, !llfi_index !713
  %166 = getelementptr inbounds %"struct.std::pair", %"struct.std::pair"* %165, i32 0, i32 1, !llfi_index !714
  %167 = load i32, i32* %166, align 4, !llfi_index !715
  %168 = xor i32 %167, 1, !llfi_index !716
  %169 = call i32 @_Z4sizeiii(i32 %158, i32 %159, i32 %168), !llfi_index !717
  store i32 %169, i32* %25, align 4, !llfi_index !718
  %170 = call nonnull align 4 dereferenceable(4) i32* @_ZSt3minIiERKT_S2_S2_(i32* nonnull align 4 dereferenceable(4) %24, i32* nonnull align 4 dereferenceable(4) %25), !llfi_index !719
  %171 = load i32, i32* %170, align 4, !llfi_index !720
  store i32 %171, i32* %24, align 4, !llfi_index !721
  br label %172, !llfi_index !722

172:                                              ; preds = %157, %150
  %173 = load i32, i32* %24, align 4, !llfi_index !723
  %174 = load i32, i32* %5, align 4, !llfi_index !724
  %175 = sext i32 %174 to i64, !llfi_index !725
  %176 = call nonnull align 8 dereferenceable(24) %"class.std::vector.0"* @_ZNSt6vectorIS_ISt4pairIiiESaIS1_EESaIS3_EEixEm(%"class.std::vector"* nonnull align 8 dereferenceable(24) @E, i64 %175) #2, !llfi_index !726
  %177 = load i32, i32* %22, align 4, !llfi_index !727
  %178 = sext i32 %177 to i64, !llfi_index !728
  %179 = call nonnull align 4 dereferenceable(8) %"struct.std::pair"* @_ZNSt6vectorISt4pairIiiESaIS1_EEixEm(%"class.std::vector.0"* nonnull align 8 dereferenceable(24) %176, i64 %178) #2, !llfi_index !729
  %180 = getelementptr inbounds %"struct.std::pair", %"struct.std::pair"* %179, i32 0, i32 1, !llfi_index !730
  %181 = load i32, i32* %180, align 4, !llfi_index !731
  %182 = xor i32 %181, 1, !llfi_index !732
  %183 = sext i32 %182 to i64, !llfi_index !733
  %184 = getelementptr inbounds [240020 x i32], [240020 x i32]* @memo, i64 0, i64 %183, !llfi_index !734
  store i32 %173, i32* %184, align 4, !llfi_index !735
  %185 = load i32, i32* %23, align 4, !llfi_index !736
  %186 = load i32, i32* %6, align 4, !llfi_index !737
  %187 = icmp eq i32 %185, %186, !llfi_index !738
  br i1 %187, label %188, label %189, !llfi_index !739

188:                                              ; preds = %172
  br label %191, !llfi_index !740

189:                                              ; preds = %172
  %190 = load i32, i32* %6, align 4, !llfi_index !741
  br label %191, !llfi_index !742

191:                                              ; preds = %189, %188
  %192 = phi i32 [ -1, %188 ], [ %190, %189 ], !llfi_index !743
  store i32 %192, i32* %27, align 4, !llfi_index !744
  %193 = load i32, i32* %7, align 4, !llfi_index !745
  %194 = xor i32 %193, 1, !llfi_index !746
  store i32 %194, i32* %28, align 4, !llfi_index !747
  %195 = call i64 @_ZSt9make_pairIiiESt4pairINSt17__decay_and_stripIT_E6__typeENS1_IT0_E6__typeEEOS2_OS5_(i32* nonnull align 4 dereferenceable(4) %27, i32* nonnull align 4 dereferenceable(4) %28), !llfi_index !748
  %196 = bitcast %"struct.std::pair"* %26 to i64*, !llfi_index !749
  store i64 %195, i64* %196, align 4, !llfi_index !750
  %197 = load i32, i32* %5, align 4, !llfi_index !751
  %198 = sext i32 %197 to i64, !llfi_index !752
  %199 = call nonnull align 8 dereferenceable(24) %"class.std::vector.0"* @_ZNSt6vectorIS_ISt4pairIiiESaIS1_EESaIS3_EEixEm(%"class.std::vector"* nonnull align 8 dereferenceable(24) @E, i64 %198) #2, !llfi_index !753
  %200 = load i32, i32* %22, align 4, !llfi_index !754
  %201 = sext i32 %200 to i64, !llfi_index !755
  %202 = call nonnull align 4 dereferenceable(8) %"struct.std::pair"* @_ZNSt6vectorISt4pairIiiESaIS1_EEixEm(%"class.std::vector.0"* nonnull align 8 dereferenceable(24) %199, i64 %201) #2, !llfi_index !756
  %203 = getelementptr inbounds %"struct.std::pair", %"struct.std::pair"* %202, i32 0, i32 1, !llfi_index !757
  %204 = load i32, i32* %203, align 4, !llfi_index !758
  %205 = xor i32 %204, 1, !llfi_index !759
  %206 = sext i32 %205 to i64, !llfi_index !760
  %207 = getelementptr inbounds [240020 x %"struct.std::pair"], [240020 x %"struct.std::pair"]* @memomis, i64 0, i64 %206, !llfi_index !761
  %208 = call nonnull align 4 dereferenceable(8) %"struct.std::pair"* @_ZNSt4pairIiiEaSEOS0_(%"struct.std::pair"* nonnull align 4 dereferenceable(8) %207, %"struct.std::pair"* nonnull align 4 dereferenceable(8) %26) #2, !llfi_index !762
  br label %209, !llfi_index !763

209:                                              ; preds = %191
  %210 = load i32, i32* %22, align 4, !llfi_index !764
  %211 = add nsw i32 %210, 1, !llfi_index !765
  store i32 %211, i32* %22, align 4, !llfi_index !766
  br label %123, !llvm.loop !767, !llfi_index !768

212:                                              ; preds = %123
  %213 = load i32*, i32** %8, align 8, !llfi_index !769
  %214 = load i32, i32* %213, align 4, !llfi_index !770
  store i32 %214, i32* %4, align 4, !llfi_index !771
  br label %215, !llfi_index !772

215:                                              ; preds = %212, %56
  %216 = load i32, i32* %4, align 4, !llfi_index !773
  ret i32 %216, !llfi_index !774
}

; Function Attrs: mustprogress noinline nounwind uwtable
define linkonce_odr dso_local nonnull align 4 dereferenceable(4) i32* @_ZSt3minIiERKT_S2_S2_(i32* nonnull align 4 dereferenceable(4) %0, i32* nonnull align 4 dereferenceable(4) %1) #3 comdat {
  %3 = alloca i32*, align 8, !llfi_index !775
  %4 = alloca i32*, align 8, !llfi_index !776
  %5 = alloca i32*, align 8, !llfi_index !777
  store i32* %0, i32** %4, align 8, !llfi_index !778
  store i32* %1, i32** %5, align 8, !llfi_index !779
  %6 = load i32*, i32** %5, align 8, !llfi_index !780
  %7 = load i32, i32* %6, align 4, !llfi_index !781
  %8 = load i32*, i32** %4, align 8, !llfi_index !782
  %9 = load i32, i32* %8, align 4, !llfi_index !783
  %10 = icmp slt i32 %7, %9, !llfi_index !784
  br i1 %10, label %11, label %13, !llfi_index !785

11:                                               ; preds = %2
  %12 = load i32*, i32** %5, align 8, !llfi_index !786
  store i32* %12, i32** %3, align 8, !llfi_index !787
  br label %15, !llfi_index !788

13:                                               ; preds = %2
  %14 = load i32*, i32** %4, align 8, !llfi_index !789
  store i32* %14, i32** %3, align 8, !llfi_index !790
  br label %15, !llfi_index !791

15:                                               ; preds = %13, %11
  %16 = load i32*, i32** %3, align 8, !llfi_index !792
  ret i32* %16, !llfi_index !793
}

; Function Attrs: mustprogress noinline uwtable
define linkonce_odr dso_local i64 @_ZSt9make_pairIiiESt4pairINSt17__decay_and_stripIT_E6__typeENS1_IT0_E6__typeEEOS2_OS5_(i32* nonnull align 4 dereferenceable(4) %0, i32* nonnull align 4 dereferenceable(4) %1) #4 comdat {
  %3 = alloca %"struct.std::pair", align 4, !llfi_index !794
  %4 = alloca i32*, align 8, !llfi_index !795
  %5 = alloca i32*, align 8, !llfi_index !796
  store i32* %0, i32** %4, align 8, !llfi_index !797
  store i32* %1, i32** %5, align 8, !llfi_index !798
  %6 = load i32*, i32** %4, align 8, !llfi_index !799
  %7 = call nonnull align 4 dereferenceable(4) i32* @_ZSt7forwardIiEOT_RNSt16remove_referenceIS0_E4typeE(i32* nonnull align 4 dereferenceable(4) %6) #2, !llfi_index !800
  %8 = load i32*, i32** %5, align 8, !llfi_index !801
  %9 = call nonnull align 4 dereferenceable(4) i32* @_ZSt7forwardIiEOT_RNSt16remove_referenceIS0_E4typeE(i32* nonnull align 4 dereferenceable(4) %8) #2, !llfi_index !802
  call void @_ZNSt4pairIiiEC2IiiLb1EEEOT_OT0_(%"struct.std::pair"* nonnull align 4 dereferenceable(8) %3, i32* nonnull align 4 dereferenceable(4) %7, i32* nonnull align 4 dereferenceable(4) %9), !llfi_index !803
  %10 = bitcast %"struct.std::pair"* %3 to i64*, !llfi_index !804
  %11 = load i64, i64* %10, align 4, !llfi_index !805
  ret i64 %11, !llfi_index !806
}

; Function Attrs: mustprogress noinline nounwind uwtable
define linkonce_odr dso_local nonnull align 4 dereferenceable(8) %"struct.std::pair"* @_ZNSt4pairIiiEaSERKS0_(%"struct.std::pair"* nonnull align 4 dereferenceable(8) %0, %"struct.std::pair"* nonnull align 4 dereferenceable(8) %1) #3 comdat align 2 {
  %3 = alloca %"struct.std::pair"*, align 8, !llfi_index !807
  %4 = alloca %"struct.std::pair"*, align 8, !llfi_index !808
  store %"struct.std::pair"* %0, %"struct.std::pair"** %3, align 8, !llfi_index !809
  store %"struct.std::pair"* %1, %"struct.std::pair"** %4, align 8, !llfi_index !810
  %5 = load %"struct.std::pair"*, %"struct.std::pair"** %3, align 8, !llfi_index !811
  %6 = load %"struct.std::pair"*, %"struct.std::pair"** %4, align 8, !llfi_index !812
  %7 = getelementptr inbounds %"struct.std::pair", %"struct.std::pair"* %6, i32 0, i32 0, !llfi_index !813
  %8 = load i32, i32* %7, align 4, !llfi_index !814
  %9 = getelementptr inbounds %"struct.std::pair", %"struct.std::pair"* %5, i32 0, i32 0, !llfi_index !815
  store i32 %8, i32* %9, align 4, !llfi_index !816
  %10 = load %"struct.std::pair"*, %"struct.std::pair"** %4, align 8, !llfi_index !817
  %11 = getelementptr inbounds %"struct.std::pair", %"struct.std::pair"* %10, i32 0, i32 1, !llfi_index !818
  %12 = load i32, i32* %11, align 4, !llfi_index !819
  %13 = getelementptr inbounds %"struct.std::pair", %"struct.std::pair"* %5, i32 0, i32 1, !llfi_index !820
  store i32 %12, i32* %13, align 4, !llfi_index !821
  ret %"struct.std::pair"* %5, !llfi_index !822
}

; Function Attrs: mustprogress noinline uwtable
define linkonce_odr dso_local i64 @_ZSt9make_pairIRiS0_ESt4pairINSt17__decay_and_stripIT_E6__typeENS2_IT0_E6__typeEEOS3_OS6_(i32* nonnull align 4 dereferenceable(4) %0, i32* nonnull align 4 dereferenceable(4) %1) #4 comdat {
  %3 = alloca %"struct.std::pair", align 4, !llfi_index !823
  %4 = alloca i32*, align 8, !llfi_index !824
  %5 = alloca i32*, align 8, !llfi_index !825
  store i32* %0, i32** %4, align 8, !llfi_index !826
  store i32* %1, i32** %5, align 8, !llfi_index !827
  %6 = load i32*, i32** %4, align 8, !llfi_index !828
  %7 = call nonnull align 4 dereferenceable(4) i32* @_ZSt7forwardIRiEOT_RNSt16remove_referenceIS1_E4typeE(i32* nonnull align 4 dereferenceable(4) %6) #2, !llfi_index !829
  %8 = load i32*, i32** %5, align 8, !llfi_index !830
  %9 = call nonnull align 4 dereferenceable(4) i32* @_ZSt7forwardIRiEOT_RNSt16remove_referenceIS1_E4typeE(i32* nonnull align 4 dereferenceable(4) %8) #2, !llfi_index !831
  call void @_ZNSt4pairIiiEC2IRiS2_Lb1EEEOT_OT0_(%"struct.std::pair"* nonnull align 4 dereferenceable(8) %3, i32* nonnull align 4 dereferenceable(4) %7, i32* nonnull align 4 dereferenceable(4) %9), !llfi_index !832
  %10 = bitcast %"struct.std::pair"* %3 to i64*, !llfi_index !833
  %11 = load i64, i64* %10, align 4, !llfi_index !834
  ret i64 %11, !llfi_index !835
}

; Function Attrs: mustprogress noinline nounwind uwtable
define linkonce_odr dso_local nonnull align 4 dereferenceable(8) %"struct.std::pair"* @_ZNSt4pairIiiEaSEOS0_(%"struct.std::pair"* nonnull align 4 dereferenceable(8) %0, %"struct.std::pair"* nonnull align 4 dereferenceable(8) %1) #3 comdat align 2 {
  %3 = alloca %"struct.std::pair"*, align 8, !llfi_index !836
  %4 = alloca %"struct.std::pair"*, align 8, !llfi_index !837
  store %"struct.std::pair"* %0, %"struct.std::pair"** %3, align 8, !llfi_index !838
  store %"struct.std::pair"* %1, %"struct.std::pair"** %4, align 8, !llfi_index !839
  %5 = load %"struct.std::pair"*, %"struct.std::pair"** %3, align 8, !llfi_index !840
  %6 = load %"struct.std::pair"*, %"struct.std::pair"** %4, align 8, !llfi_index !841
  %7 = getelementptr inbounds %"struct.std::pair", %"struct.std::pair"* %6, i32 0, i32 0, !llfi_index !842
  %8 = call nonnull align 4 dereferenceable(4) i32* @_ZSt7forwardIiEOT_RNSt16remove_referenceIS0_E4typeE(i32* nonnull align 4 dereferenceable(4) %7) #2, !llfi_index !843
  %9 = load i32, i32* %8, align 4, !llfi_index !844
  %10 = getelementptr inbounds %"struct.std::pair", %"struct.std::pair"* %5, i32 0, i32 0, !llfi_index !845
  store i32 %9, i32* %10, align 4, !llfi_index !846
  %11 = load %"struct.std::pair"*, %"struct.std::pair"** %4, align 8, !llfi_index !847
  %12 = getelementptr inbounds %"struct.std::pair", %"struct.std::pair"* %11, i32 0, i32 1, !llfi_index !848
  %13 = call nonnull align 4 dereferenceable(4) i32* @_ZSt7forwardIiEOT_RNSt16remove_referenceIS0_E4typeE(i32* nonnull align 4 dereferenceable(4) %12) #2, !llfi_index !849
  %14 = load i32, i32* %13, align 4, !llfi_index !850
  %15 = getelementptr inbounds %"struct.std::pair", %"struct.std::pair"* %5, i32 0, i32 1, !llfi_index !851
  store i32 %14, i32* %15, align 4, !llfi_index !852
  ret %"struct.std::pair"* %5, !llfi_index !853
}

; Function Attrs: mustprogress noinline nounwind uwtable
define linkonce_odr dso_local nonnull align 4 dereferenceable(4) i32* @_ZSt7forwardIiEOT_RNSt16remove_referenceIS0_E4typeE(i32* nonnull align 4 dereferenceable(4) %0) #3 comdat {
  %2 = alloca i32*, align 8, !llfi_index !854
  store i32* %0, i32** %2, align 8, !llfi_index !855
  %3 = load i32*, i32** %2, align 8, !llfi_index !856
  ret i32* %3, !llfi_index !857
}

; Function Attrs: mustprogress noinline nounwind uwtable
define linkonce_odr dso_local nonnull align 4 dereferenceable(4) i32* @_ZSt7forwardIRiEOT_RNSt16remove_referenceIS1_E4typeE(i32* nonnull align 4 dereferenceable(4) %0) #3 comdat {
  %2 = alloca i32*, align 8, !llfi_index !858
  store i32* %0, i32** %2, align 8, !llfi_index !859
  %3 = load i32*, i32** %2, align 8, !llfi_index !860
  ret i32* %3, !llfi_index !861
}

; Function Attrs: noinline nounwind uwtable
define linkonce_odr dso_local void @_ZNSt4pairIiiEC2IRiS2_Lb1EEEOT_OT0_(%"struct.std::pair"* nonnull align 4 dereferenceable(8) %0, i32* nonnull align 4 dereferenceable(4) %1, i32* nonnull align 4 dereferenceable(4) %2) unnamed_addr #1 comdat align 2 {
  %4 = alloca %"struct.std::pair"*, align 8, !llfi_index !862
  %5 = alloca i32*, align 8, !llfi_index !863
  %6 = alloca i32*, align 8, !llfi_index !864
  store %"struct.std::pair"* %0, %"struct.std::pair"** %4, align 8, !llfi_index !865
  store i32* %1, i32** %5, align 8, !llfi_index !866
  store i32* %2, i32** %6, align 8, !llfi_index !867
  %7 = load %"struct.std::pair"*, %"struct.std::pair"** %4, align 8, !llfi_index !868
  %8 = bitcast %"struct.std::pair"* %7 to %"class.std::allocator"*, !llfi_index !869
  %9 = getelementptr inbounds %"struct.std::pair", %"struct.std::pair"* %7, i32 0, i32 0, !llfi_index !870
  %10 = load i32*, i32** %5, align 8, !llfi_index !871
  %11 = call nonnull align 4 dereferenceable(4) i32* @_ZSt7forwardIRiEOT_RNSt16remove_referenceIS1_E4typeE(i32* nonnull align 4 dereferenceable(4) %10) #2, !llfi_index !872
  %12 = load i32, i32* %11, align 4, !llfi_index !873
  store i32 %12, i32* %9, align 4, !llfi_index !874
  %13 = getelementptr inbounds %"struct.std::pair", %"struct.std::pair"* %7, i32 0, i32 1, !llfi_index !875
  %14 = load i32*, i32** %6, align 8, !llfi_index !876
  %15 = call nonnull align 4 dereferenceable(4) i32* @_ZSt7forwardIRiEOT_RNSt16remove_referenceIS1_E4typeE(i32* nonnull align 4 dereferenceable(4) %14) #2, !llfi_index !877
  %16 = load i32, i32* %15, align 4, !llfi_index !878
  store i32 %16, i32* %13, align 4, !llfi_index !879
  ret void, !llfi_index !880
}

; Function Attrs: noinline nounwind uwtable
define linkonce_odr dso_local void @_ZNSt4pairIiiEC2IiiLb1EEEOT_OT0_(%"struct.std::pair"* nonnull align 4 dereferenceable(8) %0, i32* nonnull align 4 dereferenceable(4) %1, i32* nonnull align 4 dereferenceable(4) %2) unnamed_addr #1 comdat align 2 {
  %4 = alloca %"struct.std::pair"*, align 8, !llfi_index !881
  %5 = alloca i32*, align 8, !llfi_index !882
  %6 = alloca i32*, align 8, !llfi_index !883
  store %"struct.std::pair"* %0, %"struct.std::pair"** %4, align 8, !llfi_index !884
  store i32* %1, i32** %5, align 8, !llfi_index !885
  store i32* %2, i32** %6, align 8, !llfi_index !886
  %7 = load %"struct.std::pair"*, %"struct.std::pair"** %4, align 8, !llfi_index !887
  %8 = bitcast %"struct.std::pair"* %7 to %"class.std::allocator"*, !llfi_index !888
  %9 = getelementptr inbounds %"struct.std::pair", %"struct.std::pair"* %7, i32 0, i32 0, !llfi_index !889
  %10 = load i32*, i32** %5, align 8, !llfi_index !890
  %11 = call nonnull align 4 dereferenceable(4) i32* @_ZSt7forwardIiEOT_RNSt16remove_referenceIS0_E4typeE(i32* nonnull align 4 dereferenceable(4) %10) #2, !llfi_index !891
  %12 = load i32, i32* %11, align 4, !llfi_index !892
  store i32 %12, i32* %9, align 4, !llfi_index !893
  %13 = getelementptr inbounds %"struct.std::pair", %"struct.std::pair"* %7, i32 0, i32 1, !llfi_index !894
  %14 = load i32*, i32** %6, align 8, !llfi_index !895
  %15 = call nonnull align 4 dereferenceable(4) i32* @_ZSt7forwardIiEOT_RNSt16remove_referenceIS0_E4typeE(i32* nonnull align 4 dereferenceable(4) %14) #2, !llfi_index !896
  %16 = load i32, i32* %15, align 4, !llfi_index !897
  store i32 %16, i32* %13, align 4, !llfi_index !898
  ret void, !llfi_index !899
}

; Function Attrs: mustprogress noinline norecurse uwtable
define dso_local i32 @main() #9 personality i8* bitcast (i32 (...)* @__gxx_personality_v0 to i8*) {
  %1 = alloca i32, align 4, !llfi_index !900
  %2 = alloca i32, align 4, !llfi_index !901
  %3 = alloca i32, align 4, !llfi_index !902
  %4 = alloca i32, align 4, !llfi_index !903
  %5 = alloca %"class.std::vector", align 8, !llfi_index !904
  %6 = alloca %"class.std::allocator", align 1, !llfi_index !905
  %7 = alloca i8*, align 8, !llfi_index !906
  %8 = alloca i32, align 4, !llfi_index !907
  %9 = alloca i32, align 4, !llfi_index !908
  %10 = alloca i32, align 4, !llfi_index !909
  %11 = alloca i32, align 4, !llfi_index !910
  %12 = alloca i32, align 4, !llfi_index !911
  %13 = alloca i32, align 4, !llfi_index !912
  %14 = alloca %"struct.std::pair", align 4, !llfi_index !913
  %15 = alloca i32, align 4, !llfi_index !914
  %16 = alloca %"struct.std::pair", align 4, !llfi_index !915
  %17 = alloca i32, align 4, !llfi_index !916
  %18 = alloca i32, align 4, !llfi_index !917
  %19 = alloca i32, align 4, !llfi_index !918
  %20 = alloca i32, align 4, !llfi_index !919
  %21 = alloca i32, align 4, !llfi_index !920
  %22 = alloca i32, align 4, !llfi_index !921
  %23 = alloca i32, align 4, !llfi_index !922
  store i32 0, i32* %1, align 4, !llfi_index !923
  %24 = call zeroext i1 @_ZNSt8ios_base15sync_with_stdioEb(i1 zeroext false), !llfi_index !924
  %25 = load %struct._IO_FILE*, %struct._IO_FILE** @stdin, align 8, !llfi_index !925
  %26 = call %struct._IO_FILE* @freopen(i8* getelementptr inbounds ([31 x i8], [31 x i8]* @.str, i64 0, i64 0), i8* getelementptr inbounds ([2 x i8], [2 x i8]* @.str.2, i64 0, i64 0), %struct._IO_FILE* %25), !llfi_index !926
  %27 = call nonnull align 8 dereferenceable(16) %"class.std::basic_istream"* @_ZNSirsERi(%"class.std::basic_istream"* nonnull align 8 dereferenceable(16) @_ZSt3cin, i32* nonnull align 4 dereferenceable(4) %2), !llfi_index !927
  store i32 89, i32* %3, align 4, !llfi_index !928
  store i32 1, i32* %4, align 4, !llfi_index !929
  br label %28, !llfi_index !930

28:                                               ; preds = %168, %0
  %29 = load i32, i32* %4, align 4, !llfi_index !931
  %30 = load i32, i32* %2, align 4, !llfi_index !932
  %31 = icmp sle i32 %29, %30, !llfi_index !933
  br i1 %31, label %32, label %171, !llfi_index !934

32:                                               ; preds = %28
  %33 = call nonnull align 8 dereferenceable(16) %"class.std::basic_istream"* @_ZNSirsERi(%"class.std::basic_istream"* nonnull align 8 dereferenceable(16) @_ZSt3cin, i32* nonnull align 4 dereferenceable(4) @N), !llfi_index !935
  %34 = load i32, i32* @N, align 4, !llfi_index !936
  %35 = sext i32 %34 to i64, !llfi_index !937
  call void @_ZNSaISt6vectorISt4pairIiiESaIS1_EEEC2Ev(%"class.std::allocator"* nonnull align 1 dereferenceable(1) %6) #2, !llfi_index !938
  invoke void @_ZNSt6vectorIS_ISt4pairIiiESaIS1_EESaIS3_EEC2EmRKS4_(%"class.std::vector"* nonnull align 8 dereferenceable(24) %5, i64 %35, %"class.std::allocator"* nonnull align 1 dereferenceable(1) %6)
          to label %36 unwind label %55, !llfi_index !939

36:                                               ; preds = %32
  %37 = call nonnull align 8 dereferenceable(24) %"class.std::vector"* @_ZNSt6vectorIS_ISt4pairIiiESaIS1_EESaIS3_EEaSEOS5_(%"class.std::vector"* nonnull align 8 dereferenceable(24) @E, %"class.std::vector"* nonnull align 8 dereferenceable(24) %5) #2, !llfi_index !940
  call void @_ZNSt6vectorIS_ISt4pairIiiESaIS1_EESaIS3_EED2Ev(%"class.std::vector"* nonnull align 8 dereferenceable(24) %5) #2, !llfi_index !941
  call void @_ZNSaISt6vectorISt4pairIiiESaIS1_EEED2Ev(%"class.std::allocator"* nonnull align 1 dereferenceable(1) %6) #2, !llfi_index !942
  store i32 0, i32* %9, align 4, !llfi_index !943
  store i32 89, i32* %3, align 4, !llfi_index !944
  store i32 0, i32* %10, align 4, !llfi_index !945
  br label %38, !llfi_index !946

38:                                               ; preds = %60, %36
  %39 = load i32, i32* %10, align 4, !llfi_index !947
  %40 = load i32, i32* @N, align 4, !llfi_index !948
  %41 = icmp slt i32 %39, %40, !llfi_index !949
  br i1 %41, label %42, label %63, !llfi_index !950

42:                                               ; preds = %38
  %43 = load i32, i32* %10, align 4, !llfi_index !951
  %44 = sext i32 %43 to i64, !llfi_index !952
  %45 = getelementptr inbounds [120010 x i32], [120010 x i32]* @S, i64 0, i64 %44, !llfi_index !953
  %46 = call nonnull align 8 dereferenceable(16) %"class.std::basic_istream"* @_ZNSirsERi(%"class.std::basic_istream"* nonnull align 8 dereferenceable(16) @_ZSt3cin, i32* nonnull align 4 dereferenceable(4) %45), !llfi_index !954
  %47 = load i32, i32* %10, align 4, !llfi_index !955
  %48 = sext i32 %47 to i64, !llfi_index !956
  %49 = getelementptr inbounds [120010 x i32], [120010 x i32]* @S, i64 0, i64 %48, !llfi_index !957
  %50 = load i32, i32* %49, align 4, !llfi_index !958
  %51 = icmp eq i32 %50, 0, !llfi_index !959
  br i1 %51, label %52, label %59, !llfi_index !960

52:                                               ; preds = %42
  %53 = load i32, i32* %9, align 4, !llfi_index !961
  %54 = add nsw i32 %53, 1, !llfi_index !962
  store i32 %54, i32* %9, align 4, !llfi_index !963
  br label %59, !llfi_index !964

55:                                               ; preds = %32
  %56 = landingpad { i8*, i32 }
          cleanup, !llfi_index !965
  %57 = extractvalue { i8*, i32 } %56, 0, !llfi_index !966
  store i8* %57, i8** %7, align 8, !llfi_index !967
  %58 = extractvalue { i8*, i32 } %56, 1, !llfi_index !968
  store i32 %58, i32* %8, align 4, !llfi_index !969
  call void @_ZNSaISt6vectorISt4pairIiiESaIS1_EEED2Ev(%"class.std::allocator"* nonnull align 1 dereferenceable(1) %6) #2, !llfi_index !970
  br label %172, !llfi_index !971

59:                                               ; preds = %52, %42
  br label %60, !llfi_index !972

60:                                               ; preds = %59
  %61 = load i32, i32* %10, align 4, !llfi_index !973
  %62 = add nsw i32 %61, 1, !llfi_index !974
  store i32 %62, i32* %10, align 4, !llfi_index !975
  br label %38, !llvm.loop !976, !llfi_index !977

63:                                               ; preds = %38
  store i32 89, i32* %3, align 4, !llfi_index !978
  store i32 0, i32* %11, align 4, !llfi_index !979
  br label %64, !llfi_index !980

64:                                               ; preds = %92, %63
  %65 = load i32, i32* %11, align 4, !llfi_index !981
  %66 = add nsw i32 %65, 1, !llfi_index !982
  %67 = load i32, i32* @N, align 4, !llfi_index !983
  %68 = icmp slt i32 %66, %67, !llfi_index !984
  br i1 %68, label %69, label %95, !llfi_index !985

69:                                               ; preds = %64
  %70 = call nonnull align 8 dereferenceable(16) %"class.std::basic_istream"* @_ZNSirsERi(%"class.std::basic_istream"* nonnull align 8 dereferenceable(16) @_ZSt3cin, i32* nonnull align 4 dereferenceable(4) %12), !llfi_index !986
  %71 = call nonnull align 8 dereferenceable(16) %"class.std::basic_istream"* @_ZNSirsERi(%"class.std::basic_istream"* nonnull align 8 dereferenceable(16) %70, i32* nonnull align 4 dereferenceable(4) %13), !llfi_index !987
  %72 = load i32, i32* %12, align 4, !llfi_index !988
  %73 = add nsw i32 %72, -1, !llfi_index !989
  store i32 %73, i32* %12, align 4, !llfi_index !990
  %74 = load i32, i32* %13, align 4, !llfi_index !991
  %75 = add nsw i32 %74, -1, !llfi_index !992
  store i32 %75, i32* %13, align 4, !llfi_index !993
  %76 = load i32, i32* %12, align 4, !llfi_index !994
  %77 = sext i32 %76 to i64, !llfi_index !995
  %78 = call nonnull align 8 dereferenceable(24) %"class.std::vector.0"* @_ZNSt6vectorIS_ISt4pairIiiESaIS1_EESaIS3_EEixEm(%"class.std::vector"* nonnull align 8 dereferenceable(24) @E, i64 %77) #2, !llfi_index !996
  %79 = load i32, i32* %11, align 4, !llfi_index !997
  %80 = mul nsw i32 2, %79, !llfi_index !998
  %81 = add nsw i32 %80, 0, !llfi_index !999
  store i32 %81, i32* %15, align 4, !llfi_index !1000
  %82 = call i64 @_ZSt9make_pairIRiiESt4pairINSt17__decay_and_stripIT_E6__typeENS2_IT0_E6__typeEEOS3_OS6_(i32* nonnull align 4 dereferenceable(4) %13, i32* nonnull align 4 dereferenceable(4) %15), !llfi_index !1001
  %83 = bitcast %"struct.std::pair"* %14 to i64*, !llfi_index !1002
  store i64 %82, i64* %83, align 4, !llfi_index !1003
  call void @_ZNSt6vectorISt4pairIiiESaIS1_EE9push_backEOS1_(%"class.std::vector.0"* nonnull align 8 dereferenceable(24) %78, %"struct.std::pair"* nonnull align 4 dereferenceable(8) %14), !llfi_index !1004
  %84 = load i32, i32* %13, align 4, !llfi_index !1005
  %85 = sext i32 %84 to i64, !llfi_index !1006
  %86 = call nonnull align 8 dereferenceable(24) %"class.std::vector.0"* @_ZNSt6vectorIS_ISt4pairIiiESaIS1_EESaIS3_EEixEm(%"class.std::vector"* nonnull align 8 dereferenceable(24) @E, i64 %85) #2, !llfi_index !1007
  %87 = load i32, i32* %11, align 4, !llfi_index !1008
  %88 = mul nsw i32 2, %87, !llfi_index !1009
  %89 = add nsw i32 %88, 1, !llfi_index !1010
  store i32 %89, i32* %17, align 4, !llfi_index !1011
  %90 = call i64 @_ZSt9make_pairIRiiESt4pairINSt17__decay_and_stripIT_E6__typeENS2_IT0_E6__typeEEOS3_OS6_(i32* nonnull align 4 dereferenceable(4) %12, i32* nonnull align 4 dereferenceable(4) %17), !llfi_index !1012
  %91 = bitcast %"struct.std::pair"* %16 to i64*, !llfi_index !1013
  store i64 %90, i64* %91, align 4, !llfi_index !1014
  call void @_ZNSt6vectorISt4pairIiiESaIS1_EE9push_backEOS1_(%"class.std::vector.0"* nonnull align 8 dereferenceable(24) %86, %"struct.std::pair"* nonnull align 4 dereferenceable(8) %16), !llfi_index !1015
  br label %92, !llfi_index !1016

92:                                               ; preds = %69
  %93 = load i32, i32* %11, align 4, !llfi_index !1017
  %94 = add nsw i32 %93, 1, !llfi_index !1018
  store i32 %94, i32* %11, align 4, !llfi_index !1019
  br label %64, !llvm.loop !1020, !llfi_index !1021

95:                                               ; preds = %64
  store i32 89, i32* %3, align 4, !llfi_index !1022
  %96 = load i32, i32* %9, align 4, !llfi_index !1023
  %97 = srem i32 %96, 2, !llfi_index !1024
  %98 = icmp eq i32 %97, 0, !llfi_index !1025
  br i1 %98, label %99, label %112, !llfi_index !1026

99:                                               ; preds = %95
  store i32 0, i32* %18, align 4, !llfi_index !1027
  br label %100, !llfi_index !1028

100:                                              ; preds = %108, %99
  %101 = load i32, i32* %18, align 4, !llfi_index !1029
  %102 = load i32, i32* @N, align 4, !llfi_index !1030
  %103 = icmp slt i32 %101, %102, !llfi_index !1031
  br i1 %103, label %104, label %111, !llfi_index !1032

104:                                              ; preds = %100
  %105 = load i32, i32* @N, align 4, !llfi_index !1033
  %106 = call nonnull align 8 dereferenceable(8) %"class.std::basic_ostream"* @_ZNSolsEi(%"class.std::basic_ostream"* nonnull align 8 dereferenceable(8) @_ZSt4cout, i32 %105), !llfi_index !1034
  %107 = call nonnull align 8 dereferenceable(8) %"class.std::basic_ostream"* @_ZStlsISt11char_traitsIcEERSt13basic_ostreamIcT_ES5_c(%"class.std::basic_ostream"* nonnull align 8 dereferenceable(8) %106, i8 signext 10), !llfi_index !1035
  br label %108, !llfi_index !1036

108:                                              ; preds = %104
  %109 = load i32, i32* %18, align 4, !llfi_index !1037
  %110 = add nsw i32 %109, 1, !llfi_index !1038
  store i32 %110, i32* %18, align 4, !llfi_index !1039
  br label %100, !llvm.loop !1040, !llfi_index !1041

111:                                              ; preds = %100
  br label %167, !llfi_index !1042

112:                                              ; preds = %95
  call void @llvm.memset.p0i8.i64(i8* align 16 bitcast ([240020 x i32]* @memo to i8*), i8 -1, i64 960080, i1 false), !llfi_index !1043
  call void @llvm.memset.p0i8.i64(i8* align 16 bitcast ([240020 x i32]* @sizem to i8*), i8 -1, i64 960080, i1 false), !llfi_index !1044
  store i32 0, i32* %19, align 4, !llfi_index !1045
  br label %113, !llfi_index !1046

113:                                              ; preds = %163, %112
  %114 = load i32, i32* %19, align 4, !llfi_index !1047
  %115 = load i32, i32* @N, align 4, !llfi_index !1048
  %116 = icmp slt i32 %114, %115, !llfi_index !1049
  br i1 %116, label %117, label %166, !llfi_index !1050

117:                                              ; preds = %113
  store i32 1073741823, i32* %20, align 4, !llfi_index !1051
  store i32 0, i32* %21, align 4, !llfi_index !1052
  br label %118, !llfi_index !1053

118:                                              ; preds = %148, %117
  %119 = load i32, i32* %21, align 4, !llfi_index !1054
  %120 = sext i32 %119 to i64, !llfi_index !1055
  %121 = load i32, i32* %19, align 4, !llfi_index !1056
  %122 = sext i32 %121 to i64, !llfi_index !1057
  %123 = call nonnull align 8 dereferenceable(24) %"class.std::vector.0"* @_ZNSt6vectorIS_ISt4pairIiiESaIS1_EESaIS3_EEixEm(%"class.std::vector"* nonnull align 8 dereferenceable(24) @E, i64 %122) #2, !llfi_index !1058
  %124 = call i64 @_ZNKSt6vectorISt4pairIiiESaIS1_EE4sizeEv(%"class.std::vector.0"* nonnull align 8 dereferenceable(24) %123) #2, !llfi_index !1059
  %125 = icmp ult i64 %120, %124, !llfi_index !1060
  br i1 %125, label %126, label %151, !llfi_index !1061

126:                                              ; preds = %118
  %127 = load i32, i32* %19, align 4, !llfi_index !1062
  %128 = sext i32 %127 to i64, !llfi_index !1063
  %129 = call nonnull align 8 dereferenceable(24) %"class.std::vector.0"* @_ZNSt6vectorIS_ISt4pairIiiESaIS1_EESaIS3_EEixEm(%"class.std::vector"* nonnull align 8 dereferenceable(24) @E, i64 %128) #2, !llfi_index !1064
  %130 = load i32, i32* %21, align 4, !llfi_index !1065
  %131 = sext i32 %130 to i64, !llfi_index !1066
  %132 = call nonnull align 4 dereferenceable(8) %"struct.std::pair"* @_ZNSt6vectorISt4pairIiiESaIS1_EEixEm(%"class.std::vector.0"* nonnull align 8 dereferenceable(24) %129, i64 %131) #2, !llfi_index !1067
  %133 = getelementptr inbounds %"struct.std::pair", %"struct.std::pair"* %132, i32 0, i32 0, !llfi_index !1068
  %134 = load i32, i32* %133, align 4, !llfi_index !1069
  store i32 %134, i32* %22, align 4, !llfi_index !1070
  %135 = load i32, i32* %22, align 4, !llfi_index !1071
  %136 = load i32, i32* %19, align 4, !llfi_index !1072
  %137 = load i32, i32* %19, align 4, !llfi_index !1073
  %138 = sext i32 %137 to i64, !llfi_index !1074
  %139 = call nonnull align 8 dereferenceable(24) %"class.std::vector.0"* @_ZNSt6vectorIS_ISt4pairIiiESaIS1_EESaIS3_EEixEm(%"class.std::vector"* nonnull align 8 dereferenceable(24) @E, i64 %138) #2, !llfi_index !1075
  %140 = load i32, i32* %21, align 4, !llfi_index !1076
  %141 = sext i32 %140 to i64, !llfi_index !1077
  %142 = call nonnull align 4 dereferenceable(8) %"struct.std::pair"* @_ZNSt6vectorISt4pairIiiESaIS1_EEixEm(%"class.std::vector.0"* nonnull align 8 dereferenceable(24) %139, i64 %141) #2, !llfi_index !1078
  %143 = getelementptr inbounds %"struct.std::pair", %"struct.std::pair"* %142, i32 0, i32 1, !llfi_index !1079
  %144 = load i32, i32* %143, align 4, !llfi_index !1080
  %145 = call i32 @_Z5solveiii(i32 %135, i32 %136, i32 %144), !llfi_index !1081
  store i32 %145, i32* %23, align 4, !llfi_index !1082
  %146 = call nonnull align 4 dereferenceable(4) i32* @_ZSt3minIiERKT_S2_S2_(i32* nonnull align 4 dereferenceable(4) %20, i32* nonnull align 4 dereferenceable(4) %23), !llfi_index !1083
  %147 = load i32, i32* %146, align 4, !llfi_index !1084
  store i32 %147, i32* %20, align 4, !llfi_index !1085
  br label %148, !llfi_index !1086

148:                                              ; preds = %126
  %149 = load i32, i32* %21, align 4, !llfi_index !1087
  %150 = add nsw i32 %149, 1, !llfi_index !1088
  store i32 %150, i32* %21, align 4, !llfi_index !1089
  br label %118, !llvm.loop !1090, !llfi_index !1091

151:                                              ; preds = %118
  %152 = load i32, i32* %20, align 4, !llfi_index !1092
  %153 = icmp eq i32 %152, 1073741823, !llfi_index !1093
  br i1 %153, label %154, label %156, !llfi_index !1094

154:                                              ; preds = %151
  %155 = call nonnull align 8 dereferenceable(8) %"class.std::basic_ostream"* @_ZStlsISt11char_traitsIcEERSt13basic_ostreamIcT_ES5_PKc(%"class.std::basic_ostream"* nonnull align 8 dereferenceable(8) @_ZSt4cout, i8* getelementptr inbounds ([3 x i8], [3 x i8]* @.str.3, i64 0, i64 0)), !llfi_index !1095
  br label %162, !llfi_index !1096

156:                                              ; preds = %151
  %157 = load i32, i32* @N, align 4, !llfi_index !1097
  %158 = load i32, i32* %20, align 4, !llfi_index !1098
  %159 = sub nsw i32 %157, %158, !llfi_index !1099
  %160 = call nonnull align 8 dereferenceable(8) %"class.std::basic_ostream"* @_ZNSolsEi(%"class.std::basic_ostream"* nonnull align 8 dereferenceable(8) @_ZSt4cout, i32 %159), !llfi_index !1100
  %161 = call nonnull align 8 dereferenceable(8) %"class.std::basic_ostream"* @_ZStlsISt11char_traitsIcEERSt13basic_ostreamIcT_ES5_c(%"class.std::basic_ostream"* nonnull align 8 dereferenceable(8) %160, i8 signext 10), !llfi_index !1101
  br label %162, !llfi_index !1102

162:                                              ; preds = %156, %154
  br label %163, !llfi_index !1103

163:                                              ; preds = %162
  %164 = load i32, i32* %19, align 4, !llfi_index !1104
  %165 = add nsw i32 %164, 1, !llfi_index !1105
  store i32 %165, i32* %19, align 4, !llfi_index !1106
  br label %113, !llvm.loop !1107, !llfi_index !1108

166:                                              ; preds = %113
  br label %167, !llfi_index !1109

167:                                              ; preds = %166, %111
  br label %168, !llfi_index !1110

168:                                              ; preds = %167
  %169 = load i32, i32* %4, align 4, !llfi_index !1111
  %170 = add nsw i32 %169, 1, !llfi_index !1112
  store i32 %170, i32* %4, align 4, !llfi_index !1113
  br label %28, !llvm.loop !1114, !llfi_index !1115

171:                                              ; preds = %28
  ret i32 0, !llfi_index !1116

172:                                              ; preds = %55
  %173 = load i8*, i8** %7, align 8, !llfi_index !1117
  %174 = load i32, i32* %8, align 4, !llfi_index !1118
  %175 = insertvalue { i8*, i32 } undef, i8* %173, 0, !llfi_index !1119
  %176 = insertvalue { i8*, i32 } %175, i32 %174, 1, !llfi_index !1120
  resume { i8*, i32 } %176, !llfi_index !1121
}

declare dso_local zeroext i1 @_ZNSt8ios_base15sync_with_stdioEb(i1 zeroext) #7

declare dso_local %struct._IO_FILE* @freopen(i8*, i8*, %struct._IO_FILE*) #7

declare dso_local nonnull align 8 dereferenceable(16) %"class.std::basic_istream"* @_ZNSirsERi(%"class.std::basic_istream"* nonnull align 8 dereferenceable(16), i32* nonnull align 4 dereferenceable(4)) #7

; Function Attrs: noinline uwtable
define linkonce_odr dso_local void @_ZNSt6vectorIS_ISt4pairIiiESaIS1_EESaIS3_EEC2EmRKS4_(%"class.std::vector"* nonnull align 8 dereferenceable(24) %0, i64 %1, %"class.std::allocator"* nonnull align 1 dereferenceable(1) %2) unnamed_addr #0 comdat align 2 personality i8* bitcast (i32 (...)* @__gxx_personality_v0 to i8*) {
  %4 = alloca %"class.std::vector"*, align 8, !llfi_index !1122
  %5 = alloca i64, align 8, !llfi_index !1123
  %6 = alloca %"class.std::allocator"*, align 8, !llfi_index !1124
  %7 = alloca i8*, align 8, !llfi_index !1125
  %8 = alloca i32, align 4, !llfi_index !1126
  store %"class.std::vector"* %0, %"class.std::vector"** %4, align 8, !llfi_index !1127
  store i64 %1, i64* %5, align 8, !llfi_index !1128
  store %"class.std::allocator"* %2, %"class.std::allocator"** %6, align 8, !llfi_index !1129
  %9 = load %"class.std::vector"*, %"class.std::vector"** %4, align 8, !llfi_index !1130
  %10 = bitcast %"class.std::vector"* %9 to %"struct.std::_Vector_base"*, !llfi_index !1131
  %11 = load i64, i64* %5, align 8, !llfi_index !1132
  %12 = load %"class.std::allocator"*, %"class.std::allocator"** %6, align 8, !llfi_index !1133
  %13 = call i64 @_ZNSt6vectorIS_ISt4pairIiiESaIS1_EESaIS3_EE17_S_check_init_lenEmRKS4_(i64 %11, %"class.std::allocator"* nonnull align 1 dereferenceable(1) %12), !llfi_index !1134
  %14 = load %"class.std::allocator"*, %"class.std::allocator"** %6, align 8, !llfi_index !1135
  call void @_ZNSt12_Vector_baseISt6vectorISt4pairIiiESaIS2_EESaIS4_EEC2EmRKS5_(%"struct.std::_Vector_base"* nonnull align 8 dereferenceable(24) %10, i64 %13, %"class.std::allocator"* nonnull align 1 dereferenceable(1) %14), !llfi_index !1136
  %15 = load i64, i64* %5, align 8, !llfi_index !1137
  invoke void @_ZNSt6vectorIS_ISt4pairIiiESaIS1_EESaIS3_EE21_M_default_initializeEm(%"class.std::vector"* nonnull align 8 dereferenceable(24) %9, i64 %15)
          to label %16 unwind label %17, !llfi_index !1138

16:                                               ; preds = %3
  ret void, !llfi_index !1139

17:                                               ; preds = %3
  %18 = landingpad { i8*, i32 }
          cleanup, !llfi_index !1140
  %19 = extractvalue { i8*, i32 } %18, 0, !llfi_index !1141
  store i8* %19, i8** %7, align 8, !llfi_index !1142
  %20 = extractvalue { i8*, i32 } %18, 1, !llfi_index !1143
  store i32 %20, i32* %8, align 4, !llfi_index !1144
  %21 = bitcast %"class.std::vector"* %9 to %"struct.std::_Vector_base"*, !llfi_index !1145
  call void @_ZNSt12_Vector_baseISt6vectorISt4pairIiiESaIS2_EESaIS4_EED2Ev(%"struct.std::_Vector_base"* nonnull align 8 dereferenceable(24) %21) #2, !llfi_index !1146
  br label %22, !llfi_index !1147

22:                                               ; preds = %17
  %23 = load i8*, i8** %7, align 8, !llfi_index !1148
  %24 = load i32, i32* %8, align 4, !llfi_index !1149
  %25 = insertvalue { i8*, i32 } undef, i8* %23, 0, !llfi_index !1150
  %26 = insertvalue { i8*, i32 } %25, i32 %24, 1, !llfi_index !1151
  resume { i8*, i32 } %26, !llfi_index !1152
}

; Function Attrs: mustprogress noinline nounwind uwtable
define linkonce_odr dso_local nonnull align 8 dereferenceable(24) %"class.std::vector"* @_ZNSt6vectorIS_ISt4pairIiiESaIS1_EESaIS3_EEaSEOS5_(%"class.std::vector"* nonnull align 8 dereferenceable(24) %0, %"class.std::vector"* nonnull align 8 dereferenceable(24) %1) #3 comdat align 2 {
  %3 = alloca %"class.std::vector"*, align 8, !llfi_index !1153
  %4 = alloca %"class.std::vector"*, align 8, !llfi_index !1154
  %5 = alloca i8, align 1, !llfi_index !1155
  %6 = alloca %"class.std::allocator", align 1, !llfi_index !1156
  store %"class.std::vector"* %0, %"class.std::vector"** %3, align 8, !llfi_index !1157
  store %"class.std::vector"* %1, %"class.std::vector"** %4, align 8, !llfi_index !1158
  %7 = load %"class.std::vector"*, %"class.std::vector"** %3, align 8, !llfi_index !1159
  store i8 1, i8* %5, align 1, !llfi_index !1160
  %8 = load %"class.std::vector"*, %"class.std::vector"** %4, align 8, !llfi_index !1161
  %9 = call nonnull align 8 dereferenceable(24) %"class.std::vector"* @_ZSt4moveIRSt6vectorIS0_ISt4pairIiiESaIS2_EESaIS4_EEEONSt16remove_referenceIT_E4typeEOS9_(%"class.std::vector"* nonnull align 8 dereferenceable(24) %8) #2, !llfi_index !1162
  call void @_ZNSt6vectorIS_ISt4pairIiiESaIS1_EESaIS3_EE14_M_move_assignEOS5_St17integral_constantIbLb1EE(%"class.std::vector"* nonnull align 8 dereferenceable(24) %7, %"class.std::vector"* nonnull align 8 dereferenceable(24) %9) #2, !llfi_index !1163
  ret %"class.std::vector"* %7, !llfi_index !1164
}

; Function Attrs: mustprogress noinline uwtable
define linkonce_odr dso_local i64 @_ZSt9make_pairIRiiESt4pairINSt17__decay_and_stripIT_E6__typeENS2_IT0_E6__typeEEOS3_OS6_(i32* nonnull align 4 dereferenceable(4) %0, i32* nonnull align 4 dereferenceable(4) %1) #4 comdat {
  %3 = alloca %"struct.std::pair", align 4, !llfi_index !1165
  %4 = alloca i32*, align 8, !llfi_index !1166
  %5 = alloca i32*, align 8, !llfi_index !1167
  store i32* %0, i32** %4, align 8, !llfi_index !1168
  store i32* %1, i32** %5, align 8, !llfi_index !1169
  %6 = load i32*, i32** %4, align 8, !llfi_index !1170
  %7 = call nonnull align 4 dereferenceable(4) i32* @_ZSt7forwardIRiEOT_RNSt16remove_referenceIS1_E4typeE(i32* nonnull align 4 dereferenceable(4) %6) #2, !llfi_index !1171
  %8 = load i32*, i32** %5, align 8, !llfi_index !1172
  %9 = call nonnull align 4 dereferenceable(4) i32* @_ZSt7forwardIiEOT_RNSt16remove_referenceIS0_E4typeE(i32* nonnull align 4 dereferenceable(4) %8) #2, !llfi_index !1173
  call void @_ZNSt4pairIiiEC2IRiiLb1EEEOT_OT0_(%"struct.std::pair"* nonnull align 4 dereferenceable(8) %3, i32* nonnull align 4 dereferenceable(4) %7, i32* nonnull align 4 dereferenceable(4) %9), !llfi_index !1174
  %10 = bitcast %"struct.std::pair"* %3 to i64*, !llfi_index !1175
  %11 = load i64, i64* %10, align 4, !llfi_index !1176
  ret i64 %11, !llfi_index !1177
}

; Function Attrs: mustprogress noinline uwtable
define linkonce_odr dso_local void @_ZNSt6vectorISt4pairIiiESaIS1_EE9push_backEOS1_(%"class.std::vector.0"* nonnull align 8 dereferenceable(24) %0, %"struct.std::pair"* nonnull align 4 dereferenceable(8) %1) #4 comdat align 2 {
  %3 = alloca %"class.std::vector.0"*, align 8, !llfi_index !1178
  %4 = alloca %"struct.std::pair"*, align 8, !llfi_index !1179
  store %"class.std::vector.0"* %0, %"class.std::vector.0"** %3, align 8, !llfi_index !1180
  store %"struct.std::pair"* %1, %"struct.std::pair"** %4, align 8, !llfi_index !1181
  %5 = load %"class.std::vector.0"*, %"class.std::vector.0"** %3, align 8, !llfi_index !1182
  %6 = load %"struct.std::pair"*, %"struct.std::pair"** %4, align 8, !llfi_index !1183
  %7 = call nonnull align 4 dereferenceable(8) %"struct.std::pair"* @_ZSt4moveIRSt4pairIiiEEONSt16remove_referenceIT_E4typeEOS4_(%"struct.std::pair"* nonnull align 4 dereferenceable(8) %6) #2, !llfi_index !1184
  call void @_ZNSt6vectorISt4pairIiiESaIS1_EE12emplace_backIJS1_EEEvDpOT_(%"class.std::vector.0"* nonnull align 8 dereferenceable(24) %5, %"struct.std::pair"* nonnull align 4 dereferenceable(8) %7), !llfi_index !1185
  ret void, !llfi_index !1186
}

declare dso_local nonnull align 8 dereferenceable(8) %"class.std::basic_ostream"* @_ZNSolsEi(%"class.std::basic_ostream"* nonnull align 8 dereferenceable(8), i32) #7

declare dso_local nonnull align 8 dereferenceable(8) %"class.std::basic_ostream"* @_ZStlsISt11char_traitsIcEERSt13basic_ostreamIcT_ES5_c(%"class.std::basic_ostream"* nonnull align 8 dereferenceable(8), i8 signext) #7

; Function Attrs: argmemonly nofree nounwind willreturn writeonly
declare void @llvm.memset.p0i8.i64(i8* nocapture writeonly, i8, i64, i1 immarg) #10

declare dso_local nonnull align 8 dereferenceable(8) %"class.std::basic_ostream"* @_ZStlsISt11char_traitsIcEERSt13basic_ostreamIcT_ES5_PKc(%"class.std::basic_ostream"* nonnull align 8 dereferenceable(8), i8*) #7

; Function Attrs: mustprogress noinline nounwind uwtable
define linkonce_odr dso_local nonnull align 4 dereferenceable(8) %"struct.std::pair"* @_ZSt4moveIRSt4pairIiiEEONSt16remove_referenceIT_E4typeEOS4_(%"struct.std::pair"* nonnull align 4 dereferenceable(8) %0) #3 comdat {
  %2 = alloca %"struct.std::pair"*, align 8, !llfi_index !1187
  store %"struct.std::pair"* %0, %"struct.std::pair"** %2, align 8, !llfi_index !1188
  %3 = load %"struct.std::pair"*, %"struct.std::pair"** %2, align 8, !llfi_index !1189
  ret %"struct.std::pair"* %3, !llfi_index !1190
}

; Function Attrs: mustprogress noinline uwtable
define linkonce_odr dso_local void @_ZNSt6vectorISt4pairIiiESaIS1_EE12emplace_backIJS1_EEEvDpOT_(%"class.std::vector.0"* nonnull align 8 dereferenceable(24) %0, %"struct.std::pair"* nonnull align 4 dereferenceable(8) %1) #4 comdat align 2 {
  %3 = alloca %"class.std::vector.0"*, align 8, !llfi_index !1191
  %4 = alloca %"struct.std::pair"*, align 8, !llfi_index !1192
  %5 = alloca %"class.__gnu_cxx::__normal_iterator", align 8, !llfi_index !1193
  store %"class.std::vector.0"* %0, %"class.std::vector.0"** %3, align 8, !llfi_index !1194
  store %"struct.std::pair"* %1, %"struct.std::pair"** %4, align 8, !llfi_index !1195
  %6 = load %"class.std::vector.0"*, %"class.std::vector.0"** %3, align 8, !llfi_index !1196
  %7 = bitcast %"class.std::vector.0"* %6 to %"struct.std::_Vector_base.1"*, !llfi_index !1197
  %8 = getelementptr inbounds %"struct.std::_Vector_base.1", %"struct.std::_Vector_base.1"* %7, i32 0, i32 0, !llfi_index !1198
  %9 = bitcast %"struct.std::_Vector_base<std::pair<int, int>, std::allocator<std::pair<int, int>>>::_Vector_impl"* %8 to %"struct.std::_Vector_base<std::pair<int, int>, std::allocator<std::pair<int, int>>>::_Vector_impl_data"*, !llfi_index !1199
  %10 = getelementptr inbounds %"struct.std::_Vector_base<std::pair<int, int>, std::allocator<std::pair<int, int>>>::_Vector_impl_data", %"struct.std::_Vector_base<std::pair<int, int>, std::allocator<std::pair<int, int>>>::_Vector_impl_data"* %9, i32 0, i32 1, !llfi_index !1200
  %11 = load %"struct.std::pair"*, %"struct.std::pair"** %10, align 8, !llfi_index !1201
  %12 = bitcast %"class.std::vector.0"* %6 to %"struct.std::_Vector_base.1"*, !llfi_index !1202
  %13 = getelementptr inbounds %"struct.std::_Vector_base.1", %"struct.std::_Vector_base.1"* %12, i32 0, i32 0, !llfi_index !1203
  %14 = bitcast %"struct.std::_Vector_base<std::pair<int, int>, std::allocator<std::pair<int, int>>>::_Vector_impl"* %13 to %"struct.std::_Vector_base<std::pair<int, int>, std::allocator<std::pair<int, int>>>::_Vector_impl_data"*, !llfi_index !1204
  %15 = getelementptr inbounds %"struct.std::_Vector_base<std::pair<int, int>, std::allocator<std::pair<int, int>>>::_Vector_impl_data", %"struct.std::_Vector_base<std::pair<int, int>, std::allocator<std::pair<int, int>>>::_Vector_impl_data"* %14, i32 0, i32 2, !llfi_index !1205
  %16 = load %"struct.std::pair"*, %"struct.std::pair"** %15, align 8, !llfi_index !1206
  %17 = icmp ne %"struct.std::pair"* %11, %16, !llfi_index !1207
  br i1 %17, label %18, label %35, !llfi_index !1208

18:                                               ; preds = %2
  %19 = bitcast %"class.std::vector.0"* %6 to %"struct.std::_Vector_base.1"*, !llfi_index !1209
  %20 = getelementptr inbounds %"struct.std::_Vector_base.1", %"struct.std::_Vector_base.1"* %19, i32 0, i32 0, !llfi_index !1210
  %21 = bitcast %"struct.std::_Vector_base<std::pair<int, int>, std::allocator<std::pair<int, int>>>::_Vector_impl"* %20 to %"class.std::allocator"*, !llfi_index !1211
  %22 = bitcast %"class.std::vector.0"* %6 to %"struct.std::_Vector_base.1"*, !llfi_index !1212
  %23 = getelementptr inbounds %"struct.std::_Vector_base.1", %"struct.std::_Vector_base.1"* %22, i32 0, i32 0, !llfi_index !1213
  %24 = bitcast %"struct.std::_Vector_base<std::pair<int, int>, std::allocator<std::pair<int, int>>>::_Vector_impl"* %23 to %"struct.std::_Vector_base<std::pair<int, int>, std::allocator<std::pair<int, int>>>::_Vector_impl_data"*, !llfi_index !1214
  %25 = getelementptr inbounds %"struct.std::_Vector_base<std::pair<int, int>, std::allocator<std::pair<int, int>>>::_Vector_impl_data", %"struct.std::_Vector_base<std::pair<int, int>, std::allocator<std::pair<int, int>>>::_Vector_impl_data"* %24, i32 0, i32 1, !llfi_index !1215
  %26 = load %"struct.std::pair"*, %"struct.std::pair"** %25, align 8, !llfi_index !1216
  %27 = load %"struct.std::pair"*, %"struct.std::pair"** %4, align 8, !llfi_index !1217
  %28 = call nonnull align 4 dereferenceable(8) %"struct.std::pair"* @_ZSt7forwardISt4pairIiiEEOT_RNSt16remove_referenceIS2_E4typeE(%"struct.std::pair"* nonnull align 4 dereferenceable(8) %27) #2, !llfi_index !1218
  call void @_ZNSt16allocator_traitsISaISt4pairIiiEEE9constructIS1_JS1_EEEvRS2_PT_DpOT0_(%"class.std::allocator"* nonnull align 1 dereferenceable(1) %21, %"struct.std::pair"* %26, %"struct.std::pair"* nonnull align 4 dereferenceable(8) %28) #2, !llfi_index !1219
  %29 = bitcast %"class.std::vector.0"* %6 to %"struct.std::_Vector_base.1"*, !llfi_index !1220
  %30 = getelementptr inbounds %"struct.std::_Vector_base.1", %"struct.std::_Vector_base.1"* %29, i32 0, i32 0, !llfi_index !1221
  %31 = bitcast %"struct.std::_Vector_base<std::pair<int, int>, std::allocator<std::pair<int, int>>>::_Vector_impl"* %30 to %"struct.std::_Vector_base<std::pair<int, int>, std::allocator<std::pair<int, int>>>::_Vector_impl_data"*, !llfi_index !1222
  %32 = getelementptr inbounds %"struct.std::_Vector_base<std::pair<int, int>, std::allocator<std::pair<int, int>>>::_Vector_impl_data", %"struct.std::_Vector_base<std::pair<int, int>, std::allocator<std::pair<int, int>>>::_Vector_impl_data"* %31, i32 0, i32 1, !llfi_index !1223
  %33 = load %"struct.std::pair"*, %"struct.std::pair"** %32, align 8, !llfi_index !1224
  %34 = getelementptr inbounds %"struct.std::pair", %"struct.std::pair"* %33, i32 1, !llfi_index !1225
  store %"struct.std::pair"* %34, %"struct.std::pair"** %32, align 8, !llfi_index !1226
  br label %42, !llfi_index !1227

35:                                               ; preds = %2
  %36 = call %"struct.std::pair"* @_ZNSt6vectorISt4pairIiiESaIS1_EE3endEv(%"class.std::vector.0"* nonnull align 8 dereferenceable(24) %6) #2, !llfi_index !1228
  %37 = getelementptr inbounds %"class.__gnu_cxx::__normal_iterator", %"class.__gnu_cxx::__normal_iterator"* %5, i32 0, i32 0, !llfi_index !1229
  store %"struct.std::pair"* %36, %"struct.std::pair"** %37, align 8, !llfi_index !1230
  %38 = load %"struct.std::pair"*, %"struct.std::pair"** %4, align 8, !llfi_index !1231
  %39 = call nonnull align 4 dereferenceable(8) %"struct.std::pair"* @_ZSt7forwardISt4pairIiiEEOT_RNSt16remove_referenceIS2_E4typeE(%"struct.std::pair"* nonnull align 4 dereferenceable(8) %38) #2, !llfi_index !1232
  %40 = getelementptr inbounds %"class.__gnu_cxx::__normal_iterator", %"class.__gnu_cxx::__normal_iterator"* %5, i32 0, i32 0, !llfi_index !1233
  %41 = load %"struct.std::pair"*, %"struct.std::pair"** %40, align 8, !llfi_index !1234
  call void @_ZNSt6vectorISt4pairIiiESaIS1_EE17_M_realloc_insertIJS1_EEEvN9__gnu_cxx17__normal_iteratorIPS1_S3_EEDpOT_(%"class.std::vector.0"* nonnull align 8 dereferenceable(24) %6, %"struct.std::pair"* %41, %"struct.std::pair"* nonnull align 4 dereferenceable(8) %39), !llfi_index !1235
  br label %42, !llfi_index !1236

42:                                               ; preds = %35, %18
  ret void, !llfi_index !1237
}

; Function Attrs: mustprogress noinline nounwind uwtable
define linkonce_odr dso_local nonnull align 4 dereferenceable(8) %"struct.std::pair"* @_ZSt7forwardISt4pairIiiEEOT_RNSt16remove_referenceIS2_E4typeE(%"struct.std::pair"* nonnull align 4 dereferenceable(8) %0) #3 comdat {
  %2 = alloca %"struct.std::pair"*, align 8, !llfi_index !1238
  store %"struct.std::pair"* %0, %"struct.std::pair"** %2, align 8, !llfi_index !1239
  %3 = load %"struct.std::pair"*, %"struct.std::pair"** %2, align 8, !llfi_index !1240
  ret %"struct.std::pair"* %3, !llfi_index !1241
}

; Function Attrs: mustprogress noinline nounwind uwtable
define linkonce_odr dso_local void @_ZNSt16allocator_traitsISaISt4pairIiiEEE9constructIS1_JS1_EEEvRS2_PT_DpOT0_(%"class.std::allocator"* nonnull align 1 dereferenceable(1) %0, %"struct.std::pair"* %1, %"struct.std::pair"* nonnull align 4 dereferenceable(8) %2) #3 comdat align 2 {
  %4 = alloca %"class.std::allocator"*, align 8, !llfi_index !1242
  %5 = alloca %"struct.std::pair"*, align 8, !llfi_index !1243
  %6 = alloca %"struct.std::pair"*, align 8, !llfi_index !1244
  store %"class.std::allocator"* %0, %"class.std::allocator"** %4, align 8, !llfi_index !1245
  store %"struct.std::pair"* %1, %"struct.std::pair"** %5, align 8, !llfi_index !1246
  store %"struct.std::pair"* %2, %"struct.std::pair"** %6, align 8, !llfi_index !1247
  %7 = load %"class.std::allocator"*, %"class.std::allocator"** %4, align 8, !llfi_index !1248
  %8 = bitcast %"class.std::allocator"* %7 to %"class.std::allocator"*, !llfi_index !1249
  %9 = load %"struct.std::pair"*, %"struct.std::pair"** %5, align 8, !llfi_index !1250
  %10 = load %"struct.std::pair"*, %"struct.std::pair"** %6, align 8, !llfi_index !1251
  %11 = call nonnull align 4 dereferenceable(8) %"struct.std::pair"* @_ZSt7forwardISt4pairIiiEEOT_RNSt16remove_referenceIS2_E4typeE(%"struct.std::pair"* nonnull align 4 dereferenceable(8) %10) #2, !llfi_index !1252
  call void @_ZN9__gnu_cxx13new_allocatorISt4pairIiiEE9constructIS2_JS2_EEEvPT_DpOT0_(%"class.std::allocator"* nonnull align 1 dereferenceable(1) %8, %"struct.std::pair"* %9, %"struct.std::pair"* nonnull align 4 dereferenceable(8) %11) #2, !llfi_index !1253
  ret void, !llfi_index !1254
}

; Function Attrs: mustprogress noinline nounwind uwtable
define linkonce_odr dso_local %"struct.std::pair"* @_ZNSt6vectorISt4pairIiiESaIS1_EE3endEv(%"class.std::vector.0"* nonnull align 8 dereferenceable(24) %0) #3 comdat align 2 {
  %2 = alloca %"class.__gnu_cxx::__normal_iterator", align 8, !llfi_index !1255
  %3 = alloca %"class.std::vector.0"*, align 8, !llfi_index !1256
  store %"class.std::vector.0"* %0, %"class.std::vector.0"** %3, align 8, !llfi_index !1257
  %4 = load %"class.std::vector.0"*, %"class.std::vector.0"** %3, align 8, !llfi_index !1258
  %5 = bitcast %"class.std::vector.0"* %4 to %"struct.std::_Vector_base.1"*, !llfi_index !1259
  %6 = getelementptr inbounds %"struct.std::_Vector_base.1", %"struct.std::_Vector_base.1"* %5, i32 0, i32 0, !llfi_index !1260
  %7 = bitcast %"struct.std::_Vector_base<std::pair<int, int>, std::allocator<std::pair<int, int>>>::_Vector_impl"* %6 to %"struct.std::_Vector_base<std::pair<int, int>, std::allocator<std::pair<int, int>>>::_Vector_impl_data"*, !llfi_index !1261
  %8 = getelementptr inbounds %"struct.std::_Vector_base<std::pair<int, int>, std::allocator<std::pair<int, int>>>::_Vector_impl_data", %"struct.std::_Vector_base<std::pair<int, int>, std::allocator<std::pair<int, int>>>::_Vector_impl_data"* %7, i32 0, i32 1, !llfi_index !1262
  call void @_ZN9__gnu_cxx17__normal_iteratorIPSt4pairIiiESt6vectorIS2_SaIS2_EEEC2ERKS3_(%"class.__gnu_cxx::__normal_iterator"* nonnull align 8 dereferenceable(8) %2, %"struct.std::pair"** nonnull align 8 dereferenceable(8) %8) #2, !llfi_index !1263
  %9 = getelementptr inbounds %"class.__gnu_cxx::__normal_iterator", %"class.__gnu_cxx::__normal_iterator"* %2, i32 0, i32 0, !llfi_index !1264
  %10 = load %"struct.std::pair"*, %"struct.std::pair"** %9, align 8, !llfi_index !1265
  ret %"struct.std::pair"* %10, !llfi_index !1266
}

; Function Attrs: mustprogress noinline uwtable
define linkonce_odr dso_local void @_ZNSt6vectorISt4pairIiiESaIS1_EE17_M_realloc_insertIJS1_EEEvN9__gnu_cxx17__normal_iteratorIPS1_S3_EEDpOT_(%"class.std::vector.0"* nonnull align 8 dereferenceable(24) %0, %"struct.std::pair"* %1, %"struct.std::pair"* nonnull align 4 dereferenceable(8) %2) #4 comdat align 2 {
  %4 = alloca %"class.__gnu_cxx::__normal_iterator", align 8, !llfi_index !1267
  %5 = alloca %"class.std::vector.0"*, align 8, !llfi_index !1268
  %6 = alloca %"struct.std::pair"*, align 8, !llfi_index !1269
  %7 = alloca i64, align 8, !llfi_index !1270
  %8 = alloca %"struct.std::pair"*, align 8, !llfi_index !1271
  %9 = alloca %"struct.std::pair"*, align 8, !llfi_index !1272
  %10 = alloca i64, align 8, !llfi_index !1273
  %11 = alloca %"class.__gnu_cxx::__normal_iterator", align 8, !llfi_index !1274
  %12 = alloca %"struct.std::pair"*, align 8, !llfi_index !1275
  %13 = alloca %"struct.std::pair"*, align 8, !llfi_index !1276
  %14 = getelementptr inbounds %"class.__gnu_cxx::__normal_iterator", %"class.__gnu_cxx::__normal_iterator"* %4, i32 0, i32 0, !llfi_index !1277
  store %"struct.std::pair"* %1, %"struct.std::pair"** %14, align 8, !llfi_index !1278
  store %"class.std::vector.0"* %0, %"class.std::vector.0"** %5, align 8, !llfi_index !1279
  store %"struct.std::pair"* %2, %"struct.std::pair"** %6, align 8, !llfi_index !1280
  %15 = load %"class.std::vector.0"*, %"class.std::vector.0"** %5, align 8, !llfi_index !1281
  %16 = call i64 @_ZNKSt6vectorISt4pairIiiESaIS1_EE12_M_check_lenEmPKc(%"class.std::vector.0"* nonnull align 8 dereferenceable(24) %15, i64 1, i8* getelementptr inbounds ([26 x i8], [26 x i8]* @.str.5, i64 0, i64 0)), !llfi_index !1282
  store i64 %16, i64* %7, align 8, !llfi_index !1283
  %17 = bitcast %"class.std::vector.0"* %15 to %"struct.std::_Vector_base.1"*, !llfi_index !1284
  %18 = getelementptr inbounds %"struct.std::_Vector_base.1", %"struct.std::_Vector_base.1"* %17, i32 0, i32 0, !llfi_index !1285
  %19 = bitcast %"struct.std::_Vector_base<std::pair<int, int>, std::allocator<std::pair<int, int>>>::_Vector_impl"* %18 to %"struct.std::_Vector_base<std::pair<int, int>, std::allocator<std::pair<int, int>>>::_Vector_impl_data"*, !llfi_index !1286
  %20 = getelementptr inbounds %"struct.std::_Vector_base<std::pair<int, int>, std::allocator<std::pair<int, int>>>::_Vector_impl_data", %"struct.std::_Vector_base<std::pair<int, int>, std::allocator<std::pair<int, int>>>::_Vector_impl_data"* %19, i32 0, i32 0, !llfi_index !1287
  %21 = load %"struct.std::pair"*, %"struct.std::pair"** %20, align 8, !llfi_index !1288
  store %"struct.std::pair"* %21, %"struct.std::pair"** %8, align 8, !llfi_index !1289
  %22 = bitcast %"class.std::vector.0"* %15 to %"struct.std::_Vector_base.1"*, !llfi_index !1290
  %23 = getelementptr inbounds %"struct.std::_Vector_base.1", %"struct.std::_Vector_base.1"* %22, i32 0, i32 0, !llfi_index !1291
  %24 = bitcast %"struct.std::_Vector_base<std::pair<int, int>, std::allocator<std::pair<int, int>>>::_Vector_impl"* %23 to %"struct.std::_Vector_base<std::pair<int, int>, std::allocator<std::pair<int, int>>>::_Vector_impl_data"*, !llfi_index !1292
  %25 = getelementptr inbounds %"struct.std::_Vector_base<std::pair<int, int>, std::allocator<std::pair<int, int>>>::_Vector_impl_data", %"struct.std::_Vector_base<std::pair<int, int>, std::allocator<std::pair<int, int>>>::_Vector_impl_data"* %24, i32 0, i32 1, !llfi_index !1293
  %26 = load %"struct.std::pair"*, %"struct.std::pair"** %25, align 8, !llfi_index !1294
  store %"struct.std::pair"* %26, %"struct.std::pair"** %9, align 8, !llfi_index !1295
  %27 = call %"struct.std::pair"* @_ZNSt6vectorISt4pairIiiESaIS1_EE5beginEv(%"class.std::vector.0"* nonnull align 8 dereferenceable(24) %15) #2, !llfi_index !1296
  %28 = getelementptr inbounds %"class.__gnu_cxx::__normal_iterator", %"class.__gnu_cxx::__normal_iterator"* %11, i32 0, i32 0, !llfi_index !1297
  store %"struct.std::pair"* %27, %"struct.std::pair"** %28, align 8, !llfi_index !1298
  %29 = call i64 @_ZN9__gnu_cxxmiIPSt4pairIiiESt6vectorIS2_SaIS2_EEEENS_17__normal_iteratorIT_T0_E15difference_typeERKSA_SD_(%"class.__gnu_cxx::__normal_iterator"* nonnull align 8 dereferenceable(8) %4, %"class.__gnu_cxx::__normal_iterator"* nonnull align 8 dereferenceable(8) %11) #2, !llfi_index !1299
  store i64 %29, i64* %10, align 8, !llfi_index !1300
  %30 = bitcast %"class.std::vector.0"* %15 to %"struct.std::_Vector_base.1"*, !llfi_index !1301
  %31 = load i64, i64* %7, align 8, !llfi_index !1302
  %32 = call %"struct.std::pair"* @_ZNSt12_Vector_baseISt4pairIiiESaIS1_EE11_M_allocateEm(%"struct.std::_Vector_base.1"* nonnull align 8 dereferenceable(24) %30, i64 %31), !llfi_index !1303
  store %"struct.std::pair"* %32, %"struct.std::pair"** %12, align 8, !llfi_index !1304
  %33 = load %"struct.std::pair"*, %"struct.std::pair"** %12, align 8, !llfi_index !1305
  store %"struct.std::pair"* %33, %"struct.std::pair"** %13, align 8, !llfi_index !1306
  %34 = bitcast %"class.std::vector.0"* %15 to %"struct.std::_Vector_base.1"*, !llfi_index !1307
  %35 = getelementptr inbounds %"struct.std::_Vector_base.1", %"struct.std::_Vector_base.1"* %34, i32 0, i32 0, !llfi_index !1308
  %36 = bitcast %"struct.std::_Vector_base<std::pair<int, int>, std::allocator<std::pair<int, int>>>::_Vector_impl"* %35 to %"class.std::allocator"*, !llfi_index !1309
  %37 = load %"struct.std::pair"*, %"struct.std::pair"** %12, align 8, !llfi_index !1310
  %38 = load i64, i64* %10, align 8, !llfi_index !1311
  %39 = getelementptr inbounds %"struct.std::pair", %"struct.std::pair"* %37, i64 %38, !llfi_index !1312
  %40 = load %"struct.std::pair"*, %"struct.std::pair"** %6, align 8, !llfi_index !1313
  %41 = call nonnull align 4 dereferenceable(8) %"struct.std::pair"* @_ZSt7forwardISt4pairIiiEEOT_RNSt16remove_referenceIS2_E4typeE(%"struct.std::pair"* nonnull align 4 dereferenceable(8) %40) #2, !llfi_index !1314
  call void @_ZNSt16allocator_traitsISaISt4pairIiiEEE9constructIS1_JS1_EEEvRS2_PT_DpOT0_(%"class.std::allocator"* nonnull align 1 dereferenceable(1) %36, %"struct.std::pair"* %39, %"struct.std::pair"* nonnull align 4 dereferenceable(8) %41) #2, !llfi_index !1315
  store %"struct.std::pair"* null, %"struct.std::pair"** %13, align 8, !llfi_index !1316
  %42 = load %"struct.std::pair"*, %"struct.std::pair"** %8, align 8, !llfi_index !1317
  %43 = call nonnull align 8 dereferenceable(8) %"struct.std::pair"** @_ZNK9__gnu_cxx17__normal_iteratorIPSt4pairIiiESt6vectorIS2_SaIS2_EEE4baseEv(%"class.__gnu_cxx::__normal_iterator"* nonnull align 8 dereferenceable(8) %4) #2, !llfi_index !1318
  %44 = load %"struct.std::pair"*, %"struct.std::pair"** %43, align 8, !llfi_index !1319
  %45 = load %"struct.std::pair"*, %"struct.std::pair"** %12, align 8, !llfi_index !1320
  %46 = bitcast %"class.std::vector.0"* %15 to %"struct.std::_Vector_base.1"*, !llfi_index !1321
  %47 = call nonnull align 1 dereferenceable(1) %"class.std::allocator"* @_ZNSt12_Vector_baseISt4pairIiiESaIS1_EE19_M_get_Tp_allocatorEv(%"struct.std::_Vector_base.1"* nonnull align 8 dereferenceable(24) %46) #2, !llfi_index !1322
  %48 = call %"struct.std::pair"* @_ZNSt6vectorISt4pairIiiESaIS1_EE11_S_relocateEPS1_S4_S4_RS2_(%"struct.std::pair"* %42, %"struct.std::pair"* %44, %"struct.std::pair"* %45, %"class.std::allocator"* nonnull align 1 dereferenceable(1) %47) #2, !llfi_index !1323
  store %"struct.std::pair"* %48, %"struct.std::pair"** %13, align 8, !llfi_index !1324
  %49 = load %"struct.std::pair"*, %"struct.std::pair"** %13, align 8, !llfi_index !1325
  %50 = getelementptr inbounds %"struct.std::pair", %"struct.std::pair"* %49, i32 1, !llfi_index !1326
  store %"struct.std::pair"* %50, %"struct.std::pair"** %13, align 8, !llfi_index !1327
  %51 = call nonnull align 8 dereferenceable(8) %"struct.std::pair"** @_ZNK9__gnu_cxx17__normal_iteratorIPSt4pairIiiESt6vectorIS2_SaIS2_EEE4baseEv(%"class.__gnu_cxx::__normal_iterator"* nonnull align 8 dereferenceable(8) %4) #2, !llfi_index !1328
  %52 = load %"struct.std::pair"*, %"struct.std::pair"** %51, align 8, !llfi_index !1329
  %53 = load %"struct.std::pair"*, %"struct.std::pair"** %9, align 8, !llfi_index !1330
  %54 = load %"struct.std::pair"*, %"struct.std::pair"** %13, align 8, !llfi_index !1331
  %55 = bitcast %"class.std::vector.0"* %15 to %"struct.std::_Vector_base.1"*, !llfi_index !1332
  %56 = call nonnull align 1 dereferenceable(1) %"class.std::allocator"* @_ZNSt12_Vector_baseISt4pairIiiESaIS1_EE19_M_get_Tp_allocatorEv(%"struct.std::_Vector_base.1"* nonnull align 8 dereferenceable(24) %55) #2, !llfi_index !1333
  %57 = call %"struct.std::pair"* @_ZNSt6vectorISt4pairIiiESaIS1_EE11_S_relocateEPS1_S4_S4_RS2_(%"struct.std::pair"* %52, %"struct.std::pair"* %53, %"struct.std::pair"* %54, %"class.std::allocator"* nonnull align 1 dereferenceable(1) %56) #2, !llfi_index !1334
  store %"struct.std::pair"* %57, %"struct.std::pair"** %13, align 8, !llfi_index !1335
  %58 = bitcast %"class.std::vector.0"* %15 to %"struct.std::_Vector_base.1"*, !llfi_index !1336
  %59 = load %"struct.std::pair"*, %"struct.std::pair"** %8, align 8, !llfi_index !1337
  %60 = bitcast %"class.std::vector.0"* %15 to %"struct.std::_Vector_base.1"*, !llfi_index !1338
  %61 = getelementptr inbounds %"struct.std::_Vector_base.1", %"struct.std::_Vector_base.1"* %60, i32 0, i32 0, !llfi_index !1339
  %62 = bitcast %"struct.std::_Vector_base<std::pair<int, int>, std::allocator<std::pair<int, int>>>::_Vector_impl"* %61 to %"struct.std::_Vector_base<std::pair<int, int>, std::allocator<std::pair<int, int>>>::_Vector_impl_data"*, !llfi_index !1340
  %63 = getelementptr inbounds %"struct.std::_Vector_base<std::pair<int, int>, std::allocator<std::pair<int, int>>>::_Vector_impl_data", %"struct.std::_Vector_base<std::pair<int, int>, std::allocator<std::pair<int, int>>>::_Vector_impl_data"* %62, i32 0, i32 2, !llfi_index !1341
  %64 = load %"struct.std::pair"*, %"struct.std::pair"** %63, align 8, !llfi_index !1342
  %65 = load %"struct.std::pair"*, %"struct.std::pair"** %8, align 8, !llfi_index !1343
  %66 = ptrtoint %"struct.std::pair"* %64 to i64, !llfi_index !1344
  %67 = ptrtoint %"struct.std::pair"* %65 to i64, !llfi_index !1345
  %68 = sub i64 %66, %67, !llfi_index !1346
  %69 = sdiv exact i64 %68, 8, !llfi_index !1347
  call void @_ZNSt12_Vector_baseISt4pairIiiESaIS1_EE13_M_deallocateEPS1_m(%"struct.std::_Vector_base.1"* nonnull align 8 dereferenceable(24) %58, %"struct.std::pair"* %59, i64 %69), !llfi_index !1348
  %70 = load %"struct.std::pair"*, %"struct.std::pair"** %12, align 8, !llfi_index !1349
  %71 = bitcast %"class.std::vector.0"* %15 to %"struct.std::_Vector_base.1"*, !llfi_index !1350
  %72 = getelementptr inbounds %"struct.std::_Vector_base.1", %"struct.std::_Vector_base.1"* %71, i32 0, i32 0, !llfi_index !1351
  %73 = bitcast %"struct.std::_Vector_base<std::pair<int, int>, std::allocator<std::pair<int, int>>>::_Vector_impl"* %72 to %"struct.std::_Vector_base<std::pair<int, int>, std::allocator<std::pair<int, int>>>::_Vector_impl_data"*, !llfi_index !1352
  %74 = getelementptr inbounds %"struct.std::_Vector_base<std::pair<int, int>, std::allocator<std::pair<int, int>>>::_Vector_impl_data", %"struct.std::_Vector_base<std::pair<int, int>, std::allocator<std::pair<int, int>>>::_Vector_impl_data"* %73, i32 0, i32 0, !llfi_index !1353
  store %"struct.std::pair"* %70, %"struct.std::pair"** %74, align 8, !llfi_index !1354
  %75 = load %"struct.std::pair"*, %"struct.std::pair"** %13, align 8, !llfi_index !1355
  %76 = bitcast %"class.std::vector.0"* %15 to %"struct.std::_Vector_base.1"*, !llfi_index !1356
  %77 = getelementptr inbounds %"struct.std::_Vector_base.1", %"struct.std::_Vector_base.1"* %76, i32 0, i32 0, !llfi_index !1357
  %78 = bitcast %"struct.std::_Vector_base<std::pair<int, int>, std::allocator<std::pair<int, int>>>::_Vector_impl"* %77 to %"struct.std::_Vector_base<std::pair<int, int>, std::allocator<std::pair<int, int>>>::_Vector_impl_data"*, !llfi_index !1358
  %79 = getelementptr inbounds %"struct.std::_Vector_base<std::pair<int, int>, std::allocator<std::pair<int, int>>>::_Vector_impl_data", %"struct.std::_Vector_base<std::pair<int, int>, std::allocator<std::pair<int, int>>>::_Vector_impl_data"* %78, i32 0, i32 1, !llfi_index !1359
  store %"struct.std::pair"* %75, %"struct.std::pair"** %79, align 8, !llfi_index !1360
  %80 = load %"struct.std::pair"*, %"struct.std::pair"** %12, align 8, !llfi_index !1361
  %81 = load i64, i64* %7, align 8, !llfi_index !1362
  %82 = getelementptr inbounds %"struct.std::pair", %"struct.std::pair"* %80, i64 %81, !llfi_index !1363
  %83 = bitcast %"class.std::vector.0"* %15 to %"struct.std::_Vector_base.1"*, !llfi_index !1364
  %84 = getelementptr inbounds %"struct.std::_Vector_base.1", %"struct.std::_Vector_base.1"* %83, i32 0, i32 0, !llfi_index !1365
  %85 = bitcast %"struct.std::_Vector_base<std::pair<int, int>, std::allocator<std::pair<int, int>>>::_Vector_impl"* %84 to %"struct.std::_Vector_base<std::pair<int, int>, std::allocator<std::pair<int, int>>>::_Vector_impl_data"*, !llfi_index !1366
  %86 = getelementptr inbounds %"struct.std::_Vector_base<std::pair<int, int>, std::allocator<std::pair<int, int>>>::_Vector_impl_data", %"struct.std::_Vector_base<std::pair<int, int>, std::allocator<std::pair<int, int>>>::_Vector_impl_data"* %85, i32 0, i32 2, !llfi_index !1367
  store %"struct.std::pair"* %82, %"struct.std::pair"** %86, align 8, !llfi_index !1368
  ret void, !llfi_index !1369
}

; Function Attrs: mustprogress noinline uwtable
define linkonce_odr dso_local i64 @_ZNKSt6vectorISt4pairIiiESaIS1_EE12_M_check_lenEmPKc(%"class.std::vector.0"* nonnull align 8 dereferenceable(24) %0, i64 %1, i8* %2) #4 comdat align 2 {
  %4 = alloca %"class.std::vector.0"*, align 8, !llfi_index !1370
  %5 = alloca i64, align 8, !llfi_index !1371
  %6 = alloca i8*, align 8, !llfi_index !1372
  %7 = alloca i64, align 8, !llfi_index !1373
  %8 = alloca i64, align 8, !llfi_index !1374
  store %"class.std::vector.0"* %0, %"class.std::vector.0"** %4, align 8, !llfi_index !1375
  store i64 %1, i64* %5, align 8, !llfi_index !1376
  store i8* %2, i8** %6, align 8, !llfi_index !1377
  %9 = load %"class.std::vector.0"*, %"class.std::vector.0"** %4, align 8, !llfi_index !1378
  %10 = call i64 @_ZNKSt6vectorISt4pairIiiESaIS1_EE8max_sizeEv(%"class.std::vector.0"* nonnull align 8 dereferenceable(24) %9) #2, !llfi_index !1379
  %11 = call i64 @_ZNKSt6vectorISt4pairIiiESaIS1_EE4sizeEv(%"class.std::vector.0"* nonnull align 8 dereferenceable(24) %9) #2, !llfi_index !1380
  %12 = sub i64 %10, %11, !llfi_index !1381
  %13 = load i64, i64* %5, align 8, !llfi_index !1382
  %14 = icmp ult i64 %12, %13, !llfi_index !1383
  br i1 %14, label %15, label %17, !llfi_index !1384

15:                                               ; preds = %3
  %16 = load i8*, i8** %6, align 8, !llfi_index !1385
  call void @_ZSt20__throw_length_errorPKc(i8* %16) #16, !llfi_index !1386
  unreachable, !llfi_index !1387

17:                                               ; preds = %3
  %18 = call i64 @_ZNKSt6vectorISt4pairIiiESaIS1_EE4sizeEv(%"class.std::vector.0"* nonnull align 8 dereferenceable(24) %9) #2, !llfi_index !1388
  %19 = call i64 @_ZNKSt6vectorISt4pairIiiESaIS1_EE4sizeEv(%"class.std::vector.0"* nonnull align 8 dereferenceable(24) %9) #2, !llfi_index !1389
  store i64 %19, i64* %8, align 8, !llfi_index !1390
  %20 = call nonnull align 8 dereferenceable(8) i64* @_ZSt3maxImERKT_S2_S2_(i64* nonnull align 8 dereferenceable(8) %8, i64* nonnull align 8 dereferenceable(8) %5), !llfi_index !1391
  %21 = load i64, i64* %20, align 8, !llfi_index !1392
  %22 = add i64 %18, %21, !llfi_index !1393
  store i64 %22, i64* %7, align 8, !llfi_index !1394
  %23 = load i64, i64* %7, align 8, !llfi_index !1395
  %24 = call i64 @_ZNKSt6vectorISt4pairIiiESaIS1_EE4sizeEv(%"class.std::vector.0"* nonnull align 8 dereferenceable(24) %9) #2, !llfi_index !1396
  %25 = icmp ult i64 %23, %24, !llfi_index !1397
  br i1 %25, label %30, label %26, !llfi_index !1398

26:                                               ; preds = %17
  %27 = load i64, i64* %7, align 8, !llfi_index !1399
  %28 = call i64 @_ZNKSt6vectorISt4pairIiiESaIS1_EE8max_sizeEv(%"class.std::vector.0"* nonnull align 8 dereferenceable(24) %9) #2, !llfi_index !1400
  %29 = icmp ugt i64 %27, %28, !llfi_index !1401
  br i1 %29, label %30, label %32, !llfi_index !1402

30:                                               ; preds = %26, %17
  %31 = call i64 @_ZNKSt6vectorISt4pairIiiESaIS1_EE8max_sizeEv(%"class.std::vector.0"* nonnull align 8 dereferenceable(24) %9) #2, !llfi_index !1403
  br label %34, !llfi_index !1404

32:                                               ; preds = %26
  %33 = load i64, i64* %7, align 8, !llfi_index !1405
  br label %34, !llfi_index !1406

34:                                               ; preds = %32, %30
  %35 = phi i64 [ %31, %30 ], [ %33, %32 ], !llfi_index !1407
  ret i64 %35, !llfi_index !1408
}

; Function Attrs: mustprogress noinline nounwind uwtable
define linkonce_odr dso_local %"struct.std::pair"* @_ZNSt6vectorISt4pairIiiESaIS1_EE5beginEv(%"class.std::vector.0"* nonnull align 8 dereferenceable(24) %0) #3 comdat align 2 {
  %2 = alloca %"class.__gnu_cxx::__normal_iterator", align 8, !llfi_index !1409
  %3 = alloca %"class.std::vector.0"*, align 8, !llfi_index !1410
  store %"class.std::vector.0"* %0, %"class.std::vector.0"** %3, align 8, !llfi_index !1411
  %4 = load %"class.std::vector.0"*, %"class.std::vector.0"** %3, align 8, !llfi_index !1412
  %5 = bitcast %"class.std::vector.0"* %4 to %"struct.std::_Vector_base.1"*, !llfi_index !1413
  %6 = getelementptr inbounds %"struct.std::_Vector_base.1", %"struct.std::_Vector_base.1"* %5, i32 0, i32 0, !llfi_index !1414
  %7 = bitcast %"struct.std::_Vector_base<std::pair<int, int>, std::allocator<std::pair<int, int>>>::_Vector_impl"* %6 to %"struct.std::_Vector_base<std::pair<int, int>, std::allocator<std::pair<int, int>>>::_Vector_impl_data"*, !llfi_index !1415
  %8 = getelementptr inbounds %"struct.std::_Vector_base<std::pair<int, int>, std::allocator<std::pair<int, int>>>::_Vector_impl_data", %"struct.std::_Vector_base<std::pair<int, int>, std::allocator<std::pair<int, int>>>::_Vector_impl_data"* %7, i32 0, i32 0, !llfi_index !1416
  call void @_ZN9__gnu_cxx17__normal_iteratorIPSt4pairIiiESt6vectorIS2_SaIS2_EEEC2ERKS3_(%"class.__gnu_cxx::__normal_iterator"* nonnull align 8 dereferenceable(8) %2, %"struct.std::pair"** nonnull align 8 dereferenceable(8) %8) #2, !llfi_index !1417
  %9 = getelementptr inbounds %"class.__gnu_cxx::__normal_iterator", %"class.__gnu_cxx::__normal_iterator"* %2, i32 0, i32 0, !llfi_index !1418
  %10 = load %"struct.std::pair"*, %"struct.std::pair"** %9, align 8, !llfi_index !1419
  ret %"struct.std::pair"* %10, !llfi_index !1420
}

; Function Attrs: mustprogress noinline nounwind uwtable
define linkonce_odr dso_local i64 @_ZN9__gnu_cxxmiIPSt4pairIiiESt6vectorIS2_SaIS2_EEEENS_17__normal_iteratorIT_T0_E15difference_typeERKSA_SD_(%"class.__gnu_cxx::__normal_iterator"* nonnull align 8 dereferenceable(8) %0, %"class.__gnu_cxx::__normal_iterator"* nonnull align 8 dereferenceable(8) %1) #3 comdat {
  %3 = alloca %"class.__gnu_cxx::__normal_iterator"*, align 8, !llfi_index !1421
  %4 = alloca %"class.__gnu_cxx::__normal_iterator"*, align 8, !llfi_index !1422
  store %"class.__gnu_cxx::__normal_iterator"* %0, %"class.__gnu_cxx::__normal_iterator"** %3, align 8, !llfi_index !1423
  store %"class.__gnu_cxx::__normal_iterator"* %1, %"class.__gnu_cxx::__normal_iterator"** %4, align 8, !llfi_index !1424
  %5 = load %"class.__gnu_cxx::__normal_iterator"*, %"class.__gnu_cxx::__normal_iterator"** %3, align 8, !llfi_index !1425
  %6 = call nonnull align 8 dereferenceable(8) %"struct.std::pair"** @_ZNK9__gnu_cxx17__normal_iteratorIPSt4pairIiiESt6vectorIS2_SaIS2_EEE4baseEv(%"class.__gnu_cxx::__normal_iterator"* nonnull align 8 dereferenceable(8) %5) #2, !llfi_index !1426
  %7 = load %"struct.std::pair"*, %"struct.std::pair"** %6, align 8, !llfi_index !1427
  %8 = load %"class.__gnu_cxx::__normal_iterator"*, %"class.__gnu_cxx::__normal_iterator"** %4, align 8, !llfi_index !1428
  %9 = call nonnull align 8 dereferenceable(8) %"struct.std::pair"** @_ZNK9__gnu_cxx17__normal_iteratorIPSt4pairIiiESt6vectorIS2_SaIS2_EEE4baseEv(%"class.__gnu_cxx::__normal_iterator"* nonnull align 8 dereferenceable(8) %8) #2, !llfi_index !1429
  %10 = load %"struct.std::pair"*, %"struct.std::pair"** %9, align 8, !llfi_index !1430
  %11 = ptrtoint %"struct.std::pair"* %7 to i64, !llfi_index !1431
  %12 = ptrtoint %"struct.std::pair"* %10 to i64, !llfi_index !1432
  %13 = sub i64 %11, %12, !llfi_index !1433
  %14 = sdiv exact i64 %13, 8, !llfi_index !1434
  ret i64 %14, !llfi_index !1435
}

; Function Attrs: mustprogress noinline uwtable
define linkonce_odr dso_local %"struct.std::pair"* @_ZNSt12_Vector_baseISt4pairIiiESaIS1_EE11_M_allocateEm(%"struct.std::_Vector_base.1"* nonnull align 8 dereferenceable(24) %0, i64 %1) #4 comdat align 2 {
  %3 = alloca %"struct.std::_Vector_base.1"*, align 8, !llfi_index !1436
  %4 = alloca i64, align 8, !llfi_index !1437
  store %"struct.std::_Vector_base.1"* %0, %"struct.std::_Vector_base.1"** %3, align 8, !llfi_index !1438
  store i64 %1, i64* %4, align 8, !llfi_index !1439
  %5 = load %"struct.std::_Vector_base.1"*, %"struct.std::_Vector_base.1"** %3, align 8, !llfi_index !1440
  %6 = load i64, i64* %4, align 8, !llfi_index !1441
  %7 = icmp ne i64 %6, 0, !llfi_index !1442
  br i1 %7, label %8, label %13, !llfi_index !1443

8:                                                ; preds = %2
  %9 = getelementptr inbounds %"struct.std::_Vector_base.1", %"struct.std::_Vector_base.1"* %5, i32 0, i32 0, !llfi_index !1444
  %10 = bitcast %"struct.std::_Vector_base<std::pair<int, int>, std::allocator<std::pair<int, int>>>::_Vector_impl"* %9 to %"class.std::allocator"*, !llfi_index !1445
  %11 = load i64, i64* %4, align 8, !llfi_index !1446
  %12 = call %"struct.std::pair"* @_ZNSt16allocator_traitsISaISt4pairIiiEEE8allocateERS2_m(%"class.std::allocator"* nonnull align 1 dereferenceable(1) %10, i64 %11), !llfi_index !1447
  br label %14, !llfi_index !1448

13:                                               ; preds = %2
  br label %14, !llfi_index !1449

14:                                               ; preds = %13, %8
  %15 = phi %"struct.std::pair"* [ %12, %8 ], [ null, %13 ], !llfi_index !1450
  ret %"struct.std::pair"* %15, !llfi_index !1451
}

; Function Attrs: mustprogress noinline nounwind uwtable
define linkonce_odr dso_local nonnull align 8 dereferenceable(8) %"struct.std::pair"** @_ZNK9__gnu_cxx17__normal_iteratorIPSt4pairIiiESt6vectorIS2_SaIS2_EEE4baseEv(%"class.__gnu_cxx::__normal_iterator"* nonnull align 8 dereferenceable(8) %0) #3 comdat align 2 {
  %2 = alloca %"class.__gnu_cxx::__normal_iterator"*, align 8, !llfi_index !1452
  store %"class.__gnu_cxx::__normal_iterator"* %0, %"class.__gnu_cxx::__normal_iterator"** %2, align 8, !llfi_index !1453
  %3 = load %"class.__gnu_cxx::__normal_iterator"*, %"class.__gnu_cxx::__normal_iterator"** %2, align 8, !llfi_index !1454
  %4 = getelementptr inbounds %"class.__gnu_cxx::__normal_iterator", %"class.__gnu_cxx::__normal_iterator"* %3, i32 0, i32 0, !llfi_index !1455
  ret %"struct.std::pair"** %4, !llfi_index !1456
}

; Function Attrs: mustprogress noinline nounwind uwtable
define linkonce_odr dso_local %"struct.std::pair"* @_ZNSt6vectorISt4pairIiiESaIS1_EE11_S_relocateEPS1_S4_S4_RS2_(%"struct.std::pair"* %0, %"struct.std::pair"* %1, %"struct.std::pair"* %2, %"class.std::allocator"* nonnull align 1 dereferenceable(1) %3) #3 comdat align 2 {
  %5 = alloca %"struct.std::pair"*, align 8, !llfi_index !1457
  %6 = alloca %"struct.std::pair"*, align 8, !llfi_index !1458
  %7 = alloca %"struct.std::pair"*, align 8, !llfi_index !1459
  %8 = alloca %"class.std::allocator"*, align 8, !llfi_index !1460
  %9 = alloca %"class.std::allocator", align 1, !llfi_index !1461
  store %"struct.std::pair"* %0, %"struct.std::pair"** %5, align 8, !llfi_index !1462
  store %"struct.std::pair"* %1, %"struct.std::pair"** %6, align 8, !llfi_index !1463
  store %"struct.std::pair"* %2, %"struct.std::pair"** %7, align 8, !llfi_index !1464
  store %"class.std::allocator"* %3, %"class.std::allocator"** %8, align 8, !llfi_index !1465
  %10 = load %"struct.std::pair"*, %"struct.std::pair"** %5, align 8, !llfi_index !1466
  %11 = load %"struct.std::pair"*, %"struct.std::pair"** %6, align 8, !llfi_index !1467
  %12 = load %"struct.std::pair"*, %"struct.std::pair"** %7, align 8, !llfi_index !1468
  %13 = load %"class.std::allocator"*, %"class.std::allocator"** %8, align 8, !llfi_index !1469
  %14 = call %"struct.std::pair"* @_ZNSt6vectorISt4pairIiiESaIS1_EE14_S_do_relocateEPS1_S4_S4_RS2_St17integral_constantIbLb1EE(%"struct.std::pair"* %10, %"struct.std::pair"* %11, %"struct.std::pair"* %12, %"class.std::allocator"* nonnull align 1 dereferenceable(1) %13) #2, !llfi_index !1470
  ret %"struct.std::pair"* %14, !llfi_index !1471
}

; Function Attrs: mustprogress noinline nounwind uwtable
define linkonce_odr dso_local %"struct.std::pair"* @_ZNSt6vectorISt4pairIiiESaIS1_EE14_S_do_relocateEPS1_S4_S4_RS2_St17integral_constantIbLb1EE(%"struct.std::pair"* %0, %"struct.std::pair"* %1, %"struct.std::pair"* %2, %"class.std::allocator"* nonnull align 1 dereferenceable(1) %3) #3 comdat align 2 {
  %5 = alloca %"class.std::allocator", align 1, !llfi_index !1472
  %6 = alloca %"struct.std::pair"*, align 8, !llfi_index !1473
  %7 = alloca %"struct.std::pair"*, align 8, !llfi_index !1474
  %8 = alloca %"struct.std::pair"*, align 8, !llfi_index !1475
  %9 = alloca %"class.std::allocator"*, align 8, !llfi_index !1476
  store %"struct.std::pair"* %0, %"struct.std::pair"** %6, align 8, !llfi_index !1477
  store %"struct.std::pair"* %1, %"struct.std::pair"** %7, align 8, !llfi_index !1478
  store %"struct.std::pair"* %2, %"struct.std::pair"** %8, align 8, !llfi_index !1479
  store %"class.std::allocator"* %3, %"class.std::allocator"** %9, align 8, !llfi_index !1480
  %10 = load %"struct.std::pair"*, %"struct.std::pair"** %6, align 8, !llfi_index !1481
  %11 = load %"struct.std::pair"*, %"struct.std::pair"** %7, align 8, !llfi_index !1482
  %12 = load %"struct.std::pair"*, %"struct.std::pair"** %8, align 8, !llfi_index !1483
  %13 = load %"class.std::allocator"*, %"class.std::allocator"** %9, align 8, !llfi_index !1484
  %14 = call %"struct.std::pair"* @_ZSt12__relocate_aIPSt4pairIiiES2_SaIS1_EET0_T_S5_S4_RT1_(%"struct.std::pair"* %10, %"struct.std::pair"* %11, %"struct.std::pair"* %12, %"class.std::allocator"* nonnull align 1 dereferenceable(1) %13) #2, !llfi_index !1485
  ret %"struct.std::pair"* %14, !llfi_index !1486
}

; Function Attrs: mustprogress noinline nounwind uwtable
define linkonce_odr dso_local %"struct.std::pair"* @_ZSt12__relocate_aIPSt4pairIiiES2_SaIS1_EET0_T_S5_S4_RT1_(%"struct.std::pair"* %0, %"struct.std::pair"* %1, %"struct.std::pair"* %2, %"class.std::allocator"* nonnull align 1 dereferenceable(1) %3) #3 comdat {
  %5 = alloca %"struct.std::pair"*, align 8, !llfi_index !1487
  %6 = alloca %"struct.std::pair"*, align 8, !llfi_index !1488
  %7 = alloca %"struct.std::pair"*, align 8, !llfi_index !1489
  %8 = alloca %"class.std::allocator"*, align 8, !llfi_index !1490
  store %"struct.std::pair"* %0, %"struct.std::pair"** %5, align 8, !llfi_index !1491
  store %"struct.std::pair"* %1, %"struct.std::pair"** %6, align 8, !llfi_index !1492
  store %"struct.std::pair"* %2, %"struct.std::pair"** %7, align 8, !llfi_index !1493
  store %"class.std::allocator"* %3, %"class.std::allocator"** %8, align 8, !llfi_index !1494
  %9 = load %"struct.std::pair"*, %"struct.std::pair"** %5, align 8, !llfi_index !1495
  %10 = call %"struct.std::pair"* @_ZSt12__niter_baseIPSt4pairIiiEET_S3_(%"struct.std::pair"* %9) #2, !llfi_index !1496
  %11 = load %"struct.std::pair"*, %"struct.std::pair"** %6, align 8, !llfi_index !1497
  %12 = call %"struct.std::pair"* @_ZSt12__niter_baseIPSt4pairIiiEET_S3_(%"struct.std::pair"* %11) #2, !llfi_index !1498
  %13 = load %"struct.std::pair"*, %"struct.std::pair"** %7, align 8, !llfi_index !1499
  %14 = call %"struct.std::pair"* @_ZSt12__niter_baseIPSt4pairIiiEET_S3_(%"struct.std::pair"* %13) #2, !llfi_index !1500
  %15 = load %"class.std::allocator"*, %"class.std::allocator"** %8, align 8, !llfi_index !1501
  %16 = call %"struct.std::pair"* @_ZSt14__relocate_a_1IPSt4pairIiiES2_SaIS1_EET0_T_S5_S4_RT1_(%"struct.std::pair"* %10, %"struct.std::pair"* %12, %"struct.std::pair"* %14, %"class.std::allocator"* nonnull align 1 dereferenceable(1) %15) #2, !llfi_index !1502
  ret %"struct.std::pair"* %16, !llfi_index !1503
}

; Function Attrs: mustprogress noinline nounwind uwtable
define linkonce_odr dso_local %"struct.std::pair"* @_ZSt12__niter_baseIPSt4pairIiiEET_S3_(%"struct.std::pair"* %0) #3 comdat {
  %2 = alloca %"struct.std::pair"*, align 8, !llfi_index !1504
  store %"struct.std::pair"* %0, %"struct.std::pair"** %2, align 8, !llfi_index !1505
  %3 = load %"struct.std::pair"*, %"struct.std::pair"** %2, align 8, !llfi_index !1506
  ret %"struct.std::pair"* %3, !llfi_index !1507
}

; Function Attrs: mustprogress noinline nounwind uwtable
define linkonce_odr dso_local %"struct.std::pair"* @_ZSt14__relocate_a_1IPSt4pairIiiES2_SaIS1_EET0_T_S5_S4_RT1_(%"struct.std::pair"* %0, %"struct.std::pair"* %1, %"struct.std::pair"* %2, %"class.std::allocator"* nonnull align 1 dereferenceable(1) %3) #3 comdat {
  %5 = alloca %"struct.std::pair"*, align 8, !llfi_index !1508
  %6 = alloca %"struct.std::pair"*, align 8, !llfi_index !1509
  %7 = alloca %"struct.std::pair"*, align 8, !llfi_index !1510
  %8 = alloca %"class.std::allocator"*, align 8, !llfi_index !1511
  %9 = alloca %"struct.std::pair"*, align 8, !llfi_index !1512
  store %"struct.std::pair"* %0, %"struct.std::pair"** %5, align 8, !llfi_index !1513
  store %"struct.std::pair"* %1, %"struct.std::pair"** %6, align 8, !llfi_index !1514
  store %"struct.std::pair"* %2, %"struct.std::pair"** %7, align 8, !llfi_index !1515
  store %"class.std::allocator"* %3, %"class.std::allocator"** %8, align 8, !llfi_index !1516
  %10 = load %"struct.std::pair"*, %"struct.std::pair"** %7, align 8, !llfi_index !1517
  store %"struct.std::pair"* %10, %"struct.std::pair"** %9, align 8, !llfi_index !1518
  br label %11, !llfi_index !1519

11:                                               ; preds = %21, %4
  %12 = load %"struct.std::pair"*, %"struct.std::pair"** %5, align 8, !llfi_index !1520
  %13 = load %"struct.std::pair"*, %"struct.std::pair"** %6, align 8, !llfi_index !1521
  %14 = icmp ne %"struct.std::pair"* %12, %13, !llfi_index !1522
  br i1 %14, label %15, label %26, !llfi_index !1523

15:                                               ; preds = %11
  %16 = load %"struct.std::pair"*, %"struct.std::pair"** %9, align 8, !llfi_index !1524
  %17 = call %"struct.std::pair"* @_ZSt11__addressofISt4pairIiiEEPT_RS2_(%"struct.std::pair"* nonnull align 4 dereferenceable(8) %16) #2, !llfi_index !1525
  %18 = load %"struct.std::pair"*, %"struct.std::pair"** %5, align 8, !llfi_index !1526
  %19 = call %"struct.std::pair"* @_ZSt11__addressofISt4pairIiiEEPT_RS2_(%"struct.std::pair"* nonnull align 4 dereferenceable(8) %18) #2, !llfi_index !1527
  %20 = load %"class.std::allocator"*, %"class.std::allocator"** %8, align 8, !llfi_index !1528
  call void @_ZSt19__relocate_object_aISt4pairIiiES1_SaIS1_EEvPT_PT0_RT1_(%"struct.std::pair"* %17, %"struct.std::pair"* %19, %"class.std::allocator"* nonnull align 1 dereferenceable(1) %20) #2, !llfi_index !1529
  br label %21, !llfi_index !1530

21:                                               ; preds = %15
  %22 = load %"struct.std::pair"*, %"struct.std::pair"** %5, align 8, !llfi_index !1531
  %23 = getelementptr inbounds %"struct.std::pair", %"struct.std::pair"* %22, i32 1, !llfi_index !1532
  store %"struct.std::pair"* %23, %"struct.std::pair"** %5, align 8, !llfi_index !1533
  %24 = load %"struct.std::pair"*, %"struct.std::pair"** %9, align 8, !llfi_index !1534
  %25 = getelementptr inbounds %"struct.std::pair", %"struct.std::pair"* %24, i32 1, !llfi_index !1535
  store %"struct.std::pair"* %25, %"struct.std::pair"** %9, align 8, !llfi_index !1536
  br label %11, !llvm.loop !1537, !llfi_index !1538

26:                                               ; preds = %11
  %27 = load %"struct.std::pair"*, %"struct.std::pair"** %9, align 8, !llfi_index !1539
  ret %"struct.std::pair"* %27, !llfi_index !1540
}

; Function Attrs: mustprogress noinline nounwind uwtable
define linkonce_odr dso_local %"struct.std::pair"* @_ZSt11__addressofISt4pairIiiEEPT_RS2_(%"struct.std::pair"* nonnull align 4 dereferenceable(8) %0) #3 comdat {
  %2 = alloca %"struct.std::pair"*, align 8, !llfi_index !1541
  store %"struct.std::pair"* %0, %"struct.std::pair"** %2, align 8, !llfi_index !1542
  %3 = load %"struct.std::pair"*, %"struct.std::pair"** %2, align 8, !llfi_index !1543
  ret %"struct.std::pair"* %3, !llfi_index !1544
}

; Function Attrs: mustprogress noinline nounwind uwtable
define linkonce_odr dso_local void @_ZSt19__relocate_object_aISt4pairIiiES1_SaIS1_EEvPT_PT0_RT1_(%"struct.std::pair"* %0, %"struct.std::pair"* %1, %"class.std::allocator"* nonnull align 1 dereferenceable(1) %2) #3 comdat {
  %4 = alloca %"struct.std::pair"*, align 8, !llfi_index !1545
  %5 = alloca %"struct.std::pair"*, align 8, !llfi_index !1546
  %6 = alloca %"class.std::allocator"*, align 8, !llfi_index !1547
  store %"struct.std::pair"* %0, %"struct.std::pair"** %4, align 8, !llfi_index !1548
  store %"struct.std::pair"* %1, %"struct.std::pair"** %5, align 8, !llfi_index !1549
  store %"class.std::allocator"* %2, %"class.std::allocator"** %6, align 8, !llfi_index !1550
  %7 = load %"class.std::allocator"*, %"class.std::allocator"** %6, align 8, !llfi_index !1551
  %8 = load %"struct.std::pair"*, %"struct.std::pair"** %4, align 8, !llfi_index !1552
  %9 = load %"struct.std::pair"*, %"struct.std::pair"** %5, align 8, !llfi_index !1553
  %10 = call nonnull align 4 dereferenceable(8) %"struct.std::pair"* @_ZSt4moveIRSt4pairIiiEEONSt16remove_referenceIT_E4typeEOS4_(%"struct.std::pair"* nonnull align 4 dereferenceable(8) %9) #2, !llfi_index !1554
  call void @_ZNSt16allocator_traitsISaISt4pairIiiEEE9constructIS1_JS1_EEEvRS2_PT_DpOT0_(%"class.std::allocator"* nonnull align 1 dereferenceable(1) %7, %"struct.std::pair"* %8, %"struct.std::pair"* nonnull align 4 dereferenceable(8) %10) #2, !llfi_index !1555
  %11 = load %"class.std::allocator"*, %"class.std::allocator"** %6, align 8, !llfi_index !1556
  %12 = load %"struct.std::pair"*, %"struct.std::pair"** %5, align 8, !llfi_index !1557
  %13 = call %"struct.std::pair"* @_ZSt11__addressofISt4pairIiiEEPT_RS2_(%"struct.std::pair"* nonnull align 4 dereferenceable(8) %12) #2, !llfi_index !1558
  call void @_ZNSt16allocator_traitsISaISt4pairIiiEEE7destroyIS1_EEvRS2_PT_(%"class.std::allocator"* nonnull align 1 dereferenceable(1) %11, %"struct.std::pair"* %13) #2, !llfi_index !1559
  ret void, !llfi_index !1560
}

; Function Attrs: mustprogress noinline nounwind uwtable
define linkonce_odr dso_local void @_ZNSt16allocator_traitsISaISt4pairIiiEEE7destroyIS1_EEvRS2_PT_(%"class.std::allocator"* nonnull align 1 dereferenceable(1) %0, %"struct.std::pair"* %1) #3 comdat align 2 {
  %3 = alloca %"class.std::allocator"*, align 8, !llfi_index !1561
  %4 = alloca %"struct.std::pair"*, align 8, !llfi_index !1562
  store %"class.std::allocator"* %0, %"class.std::allocator"** %3, align 8, !llfi_index !1563
  store %"struct.std::pair"* %1, %"struct.std::pair"** %4, align 8, !llfi_index !1564
  %5 = load %"class.std::allocator"*, %"class.std::allocator"** %3, align 8, !llfi_index !1565
  %6 = bitcast %"class.std::allocator"* %5 to %"class.std::allocator"*, !llfi_index !1566
  %7 = load %"struct.std::pair"*, %"struct.std::pair"** %4, align 8, !llfi_index !1567
  call void @_ZN9__gnu_cxx13new_allocatorISt4pairIiiEE7destroyIS2_EEvPT_(%"class.std::allocator"* nonnull align 1 dereferenceable(1) %6, %"struct.std::pair"* %7) #2, !llfi_index !1568
  ret void, !llfi_index !1569
}

; Function Attrs: mustprogress noinline nounwind uwtable
define linkonce_odr dso_local void @_ZN9__gnu_cxx13new_allocatorISt4pairIiiEE7destroyIS2_EEvPT_(%"class.std::allocator"* nonnull align 1 dereferenceable(1) %0, %"struct.std::pair"* %1) #3 comdat align 2 {
  %3 = alloca %"class.std::allocator"*, align 8, !llfi_index !1570
  %4 = alloca %"struct.std::pair"*, align 8, !llfi_index !1571
  store %"class.std::allocator"* %0, %"class.std::allocator"** %3, align 8, !llfi_index !1572
  store %"struct.std::pair"* %1, %"struct.std::pair"** %4, align 8, !llfi_index !1573
  %5 = load %"class.std::allocator"*, %"class.std::allocator"** %3, align 8, !llfi_index !1574
  %6 = load %"struct.std::pair"*, %"struct.std::pair"** %4, align 8, !llfi_index !1575
  ret void, !llfi_index !1576
}

; Function Attrs: mustprogress noinline uwtable
define linkonce_odr dso_local %"struct.std::pair"* @_ZNSt16allocator_traitsISaISt4pairIiiEEE8allocateERS2_m(%"class.std::allocator"* nonnull align 1 dereferenceable(1) %0, i64 %1) #4 comdat align 2 {
  %3 = alloca %"class.std::allocator"*, align 8, !llfi_index !1577
  %4 = alloca i64, align 8, !llfi_index !1578
  store %"class.std::allocator"* %0, %"class.std::allocator"** %3, align 8, !llfi_index !1579
  store i64 %1, i64* %4, align 8, !llfi_index !1580
  %5 = load %"class.std::allocator"*, %"class.std::allocator"** %3, align 8, !llfi_index !1581
  %6 = bitcast %"class.std::allocator"* %5 to %"class.std::allocator"*, !llfi_index !1582
  %7 = load i64, i64* %4, align 8, !llfi_index !1583
  %8 = call %"struct.std::pair"* @_ZN9__gnu_cxx13new_allocatorISt4pairIiiEE8allocateEmPKv(%"class.std::allocator"* nonnull align 1 dereferenceable(1) %6, i64 %7, i8* null), !llfi_index !1584
  ret %"struct.std::pair"* %8, !llfi_index !1585
}

; Function Attrs: mustprogress noinline uwtable
define linkonce_odr dso_local %"struct.std::pair"* @_ZN9__gnu_cxx13new_allocatorISt4pairIiiEE8allocateEmPKv(%"class.std::allocator"* nonnull align 1 dereferenceable(1) %0, i64 %1, i8* %2) #4 comdat align 2 {
  %4 = alloca %"class.std::allocator"*, align 8, !llfi_index !1586
  %5 = alloca i64, align 8, !llfi_index !1587
  %6 = alloca i8*, align 8, !llfi_index !1588
  store %"class.std::allocator"* %0, %"class.std::allocator"** %4, align 8, !llfi_index !1589
  store i64 %1, i64* %5, align 8, !llfi_index !1590
  store i8* %2, i8** %6, align 8, !llfi_index !1591
  %7 = load %"class.std::allocator"*, %"class.std::allocator"** %4, align 8, !llfi_index !1592
  %8 = load i64, i64* %5, align 8, !llfi_index !1593
  %9 = call i64 @_ZNK9__gnu_cxx13new_allocatorISt4pairIiiEE8max_sizeEv(%"class.std::allocator"* nonnull align 1 dereferenceable(1) %7) #2, !llfi_index !1594
  %10 = icmp ugt i64 %8, %9, !llfi_index !1595
  br i1 %10, label %11, label %12, !llfi_index !1596

11:                                               ; preds = %3
  call void @_ZSt17__throw_bad_allocv() #16, !llfi_index !1597
  unreachable, !llfi_index !1598

12:                                               ; preds = %3
  %13 = load i64, i64* %5, align 8, !llfi_index !1599
  %14 = mul i64 %13, 8, !llfi_index !1600
  %15 = call noalias nonnull i8* @_Znwm(i64 %14) #17, !llfi_index !1601
  %16 = bitcast i8* %15 to %"struct.std::pair"*, !llfi_index !1602
  ret %"struct.std::pair"* %16, !llfi_index !1603
}

; Function Attrs: mustprogress noinline nounwind uwtable
define linkonce_odr dso_local i64 @_ZNK9__gnu_cxx13new_allocatorISt4pairIiiEE8max_sizeEv(%"class.std::allocator"* nonnull align 1 dereferenceable(1) %0) #3 comdat align 2 {
  %2 = alloca %"class.std::allocator"*, align 8, !llfi_index !1604
  store %"class.std::allocator"* %0, %"class.std::allocator"** %2, align 8, !llfi_index !1605
  %3 = load %"class.std::allocator"*, %"class.std::allocator"** %2, align 8, !llfi_index !1606
  ret i64 1152921504606846975, !llfi_index !1607
}

; Function Attrs: noreturn
declare dso_local void @_ZSt17__throw_bad_allocv() #11

; Function Attrs: nobuiltin allocsize(0)
declare dso_local nonnull i8* @_Znwm(i64) #12

; Function Attrs: noinline nounwind uwtable
define linkonce_odr dso_local void @_ZN9__gnu_cxx17__normal_iteratorIPSt4pairIiiESt6vectorIS2_SaIS2_EEEC2ERKS3_(%"class.__gnu_cxx::__normal_iterator"* nonnull align 8 dereferenceable(8) %0, %"struct.std::pair"** nonnull align 8 dereferenceable(8) %1) unnamed_addr #1 comdat align 2 {
  %3 = alloca %"class.__gnu_cxx::__normal_iterator"*, align 8, !llfi_index !1608
  %4 = alloca %"struct.std::pair"**, align 8, !llfi_index !1609
  store %"class.__gnu_cxx::__normal_iterator"* %0, %"class.__gnu_cxx::__normal_iterator"** %3, align 8, !llfi_index !1610
  store %"struct.std::pair"** %1, %"struct.std::pair"*** %4, align 8, !llfi_index !1611
  %5 = load %"class.__gnu_cxx::__normal_iterator"*, %"class.__gnu_cxx::__normal_iterator"** %3, align 8, !llfi_index !1612
  %6 = getelementptr inbounds %"class.__gnu_cxx::__normal_iterator", %"class.__gnu_cxx::__normal_iterator"* %5, i32 0, i32 0, !llfi_index !1613
  %7 = load %"struct.std::pair"**, %"struct.std::pair"*** %4, align 8, !llfi_index !1614
  %8 = load %"struct.std::pair"*, %"struct.std::pair"** %7, align 8, !llfi_index !1615
  store %"struct.std::pair"* %8, %"struct.std::pair"** %6, align 8, !llfi_index !1616
  ret void, !llfi_index !1617
}

; Function Attrs: mustprogress noinline nounwind uwtable
define linkonce_odr dso_local i64 @_ZNKSt6vectorISt4pairIiiESaIS1_EE8max_sizeEv(%"class.std::vector.0"* nonnull align 8 dereferenceable(24) %0) #3 comdat align 2 {
  %2 = alloca %"class.std::vector.0"*, align 8, !llfi_index !1618
  store %"class.std::vector.0"* %0, %"class.std::vector.0"** %2, align 8, !llfi_index !1619
  %3 = load %"class.std::vector.0"*, %"class.std::vector.0"** %2, align 8, !llfi_index !1620
  %4 = bitcast %"class.std::vector.0"* %3 to %"struct.std::_Vector_base.1"*, !llfi_index !1621
  %5 = call nonnull align 1 dereferenceable(1) %"class.std::allocator"* @_ZNKSt12_Vector_baseISt4pairIiiESaIS1_EE19_M_get_Tp_allocatorEv(%"struct.std::_Vector_base.1"* nonnull align 8 dereferenceable(24) %4) #2, !llfi_index !1622
  %6 = call i64 @_ZNSt6vectorISt4pairIiiESaIS1_EE11_S_max_sizeERKS2_(%"class.std::allocator"* nonnull align 1 dereferenceable(1) %5) #2, !llfi_index !1623
  ret i64 %6, !llfi_index !1624
}

; Function Attrs: noreturn
declare dso_local void @_ZSt20__throw_length_errorPKc(i8*) #11

; Function Attrs: mustprogress noinline nounwind uwtable
define linkonce_odr dso_local nonnull align 8 dereferenceable(8) i64* @_ZSt3maxImERKT_S2_S2_(i64* nonnull align 8 dereferenceable(8) %0, i64* nonnull align 8 dereferenceable(8) %1) #3 comdat {
  %3 = alloca i64*, align 8, !llfi_index !1625
  %4 = alloca i64*, align 8, !llfi_index !1626
  %5 = alloca i64*, align 8, !llfi_index !1627
  store i64* %0, i64** %4, align 8, !llfi_index !1628
  store i64* %1, i64** %5, align 8, !llfi_index !1629
  %6 = load i64*, i64** %4, align 8, !llfi_index !1630
  %7 = load i64, i64* %6, align 8, !llfi_index !1631
  %8 = load i64*, i64** %5, align 8, !llfi_index !1632
  %9 = load i64, i64* %8, align 8, !llfi_index !1633
  %10 = icmp ult i64 %7, %9, !llfi_index !1634
  br i1 %10, label %11, label %13, !llfi_index !1635

11:                                               ; preds = %2
  %12 = load i64*, i64** %5, align 8, !llfi_index !1636
  store i64* %12, i64** %3, align 8, !llfi_index !1637
  br label %15, !llfi_index !1638

13:                                               ; preds = %2
  %14 = load i64*, i64** %4, align 8, !llfi_index !1639
  store i64* %14, i64** %3, align 8, !llfi_index !1640
  br label %15, !llfi_index !1641

15:                                               ; preds = %13, %11
  %16 = load i64*, i64** %3, align 8, !llfi_index !1642
  ret i64* %16, !llfi_index !1643
}

; Function Attrs: mustprogress noinline nounwind uwtable
define linkonce_odr dso_local nonnull align 1 dereferenceable(1) %"class.std::allocator"* @_ZNKSt12_Vector_baseISt4pairIiiESaIS1_EE19_M_get_Tp_allocatorEv(%"struct.std::_Vector_base.1"* nonnull align 8 dereferenceable(24) %0) #3 comdat align 2 {
  %2 = alloca %"struct.std::_Vector_base.1"*, align 8, !llfi_index !1644
  store %"struct.std::_Vector_base.1"* %0, %"struct.std::_Vector_base.1"** %2, align 8, !llfi_index !1645
  %3 = load %"struct.std::_Vector_base.1"*, %"struct.std::_Vector_base.1"** %2, align 8, !llfi_index !1646
  %4 = getelementptr inbounds %"struct.std::_Vector_base.1", %"struct.std::_Vector_base.1"* %3, i32 0, i32 0, !llfi_index !1647
  %5 = bitcast %"struct.std::_Vector_base<std::pair<int, int>, std::allocator<std::pair<int, int>>>::_Vector_impl"* %4 to %"class.std::allocator"*, !llfi_index !1648
  ret %"class.std::allocator"* %5, !llfi_index !1649
}

; Function Attrs: mustprogress noinline nounwind uwtable
define linkonce_odr dso_local i64 @_ZNSt6vectorISt4pairIiiESaIS1_EE11_S_max_sizeERKS2_(%"class.std::allocator"* nonnull align 1 dereferenceable(1) %0) #3 comdat align 2 {
  %2 = alloca %"class.std::allocator"*, align 8, !llfi_index !1650
  %3 = alloca i64, align 8, !llfi_index !1651
  %4 = alloca i64, align 8, !llfi_index !1652
  store %"class.std::allocator"* %0, %"class.std::allocator"** %2, align 8, !llfi_index !1653
  store i64 1152921504606846975, i64* %3, align 8, !llfi_index !1654
  %5 = load %"class.std::allocator"*, %"class.std::allocator"** %2, align 8, !llfi_index !1655
  %6 = call i64 @_ZNSt16allocator_traitsISaISt4pairIiiEEE8max_sizeERKS2_(%"class.std::allocator"* nonnull align 1 dereferenceable(1) %5) #2, !llfi_index !1656
  store i64 %6, i64* %4, align 8, !llfi_index !1657
  %7 = call nonnull align 8 dereferenceable(8) i64* @_ZSt3minImERKT_S2_S2_(i64* nonnull align 8 dereferenceable(8) %3, i64* nonnull align 8 dereferenceable(8) %4), !llfi_index !1658
  %8 = load i64, i64* %7, align 8, !llfi_index !1659
  ret i64 %8, !llfi_index !1660
}

; Function Attrs: mustprogress noinline nounwind uwtable
define linkonce_odr dso_local i64 @_ZNSt16allocator_traitsISaISt4pairIiiEEE8max_sizeERKS2_(%"class.std::allocator"* nonnull align 1 dereferenceable(1) %0) #3 comdat align 2 {
  %2 = alloca %"class.std::allocator"*, align 8, !llfi_index !1661
  store %"class.std::allocator"* %0, %"class.std::allocator"** %2, align 8, !llfi_index !1662
  %3 = load %"class.std::allocator"*, %"class.std::allocator"** %2, align 8, !llfi_index !1663
  %4 = bitcast %"class.std::allocator"* %3 to %"class.std::allocator"*, !llfi_index !1664
  %5 = call i64 @_ZNK9__gnu_cxx13new_allocatorISt4pairIiiEE8max_sizeEv(%"class.std::allocator"* nonnull align 1 dereferenceable(1) %4) #2, !llfi_index !1665
  ret i64 %5, !llfi_index !1666
}

; Function Attrs: mustprogress noinline nounwind uwtable
define linkonce_odr dso_local nonnull align 8 dereferenceable(8) i64* @_ZSt3minImERKT_S2_S2_(i64* nonnull align 8 dereferenceable(8) %0, i64* nonnull align 8 dereferenceable(8) %1) #3 comdat {
  %3 = alloca i64*, align 8, !llfi_index !1667
  %4 = alloca i64*, align 8, !llfi_index !1668
  %5 = alloca i64*, align 8, !llfi_index !1669
  store i64* %0, i64** %4, align 8, !llfi_index !1670
  store i64* %1, i64** %5, align 8, !llfi_index !1671
  %6 = load i64*, i64** %5, align 8, !llfi_index !1672
  %7 = load i64, i64* %6, align 8, !llfi_index !1673
  %8 = load i64*, i64** %4, align 8, !llfi_index !1674
  %9 = load i64, i64* %8, align 8, !llfi_index !1675
  %10 = icmp ult i64 %7, %9, !llfi_index !1676
  br i1 %10, label %11, label %13, !llfi_index !1677

11:                                               ; preds = %2
  %12 = load i64*, i64** %5, align 8, !llfi_index !1678
  store i64* %12, i64** %3, align 8, !llfi_index !1679
  br label %15, !llfi_index !1680

13:                                               ; preds = %2
  %14 = load i64*, i64** %4, align 8, !llfi_index !1681
  store i64* %14, i64** %3, align 8, !llfi_index !1682
  br label %15, !llfi_index !1683

15:                                               ; preds = %13, %11
  %16 = load i64*, i64** %3, align 8, !llfi_index !1684
  ret i64* %16, !llfi_index !1685
}

; Function Attrs: mustprogress noinline nounwind uwtable
define linkonce_odr dso_local void @_ZN9__gnu_cxx13new_allocatorISt4pairIiiEE9constructIS2_JS2_EEEvPT_DpOT0_(%"class.std::allocator"* nonnull align 1 dereferenceable(1) %0, %"struct.std::pair"* %1, %"struct.std::pair"* nonnull align 4 dereferenceable(8) %2) #3 comdat align 2 {
  %4 = alloca %"class.std::allocator"*, align 8, !llfi_index !1686
  %5 = alloca %"struct.std::pair"*, align 8, !llfi_index !1687
  %6 = alloca %"struct.std::pair"*, align 8, !llfi_index !1688
  store %"class.std::allocator"* %0, %"class.std::allocator"** %4, align 8, !llfi_index !1689
  store %"struct.std::pair"* %1, %"struct.std::pair"** %5, align 8, !llfi_index !1690
  store %"struct.std::pair"* %2, %"struct.std::pair"** %6, align 8, !llfi_index !1691
  %7 = load %"class.std::allocator"*, %"class.std::allocator"** %4, align 8, !llfi_index !1692
  %8 = load %"struct.std::pair"*, %"struct.std::pair"** %5, align 8, !llfi_index !1693
  %9 = bitcast %"struct.std::pair"* %8 to i8*, !llfi_index !1694
  %10 = bitcast i8* %9 to %"struct.std::pair"*, !llfi_index !1695
  %11 = load %"struct.std::pair"*, %"struct.std::pair"** %6, align 8, !llfi_index !1696
  %12 = call nonnull align 4 dereferenceable(8) %"struct.std::pair"* @_ZSt7forwardISt4pairIiiEEOT_RNSt16remove_referenceIS2_E4typeE(%"struct.std::pair"* nonnull align 4 dereferenceable(8) %11) #2, !llfi_index !1697
  %13 = bitcast %"struct.std::pair"* %10 to i8*, !llfi_index !1698
  %14 = bitcast %"struct.std::pair"* %12 to i8*, !llfi_index !1699
  call void @llvm.memcpy.p0i8.p0i8.i64(i8* align 4 %13, i8* align 4 %14, i64 8, i1 false), !llfi_index !1700
  ret void, !llfi_index !1701
}

; Function Attrs: argmemonly nofree nounwind willreturn
declare void @llvm.memcpy.p0i8.p0i8.i64(i8* noalias nocapture writeonly, i8* noalias nocapture readonly, i64, i1 immarg) #13

; Function Attrs: noinline nounwind uwtable
define linkonce_odr dso_local void @_ZNSt4pairIiiEC2IRiiLb1EEEOT_OT0_(%"struct.std::pair"* nonnull align 4 dereferenceable(8) %0, i32* nonnull align 4 dereferenceable(4) %1, i32* nonnull align 4 dereferenceable(4) %2) unnamed_addr #1 comdat align 2 {
  %4 = alloca %"struct.std::pair"*, align 8, !llfi_index !1702
  %5 = alloca i32*, align 8, !llfi_index !1703
  %6 = alloca i32*, align 8, !llfi_index !1704
  store %"struct.std::pair"* %0, %"struct.std::pair"** %4, align 8, !llfi_index !1705
  store i32* %1, i32** %5, align 8, !llfi_index !1706
  store i32* %2, i32** %6, align 8, !llfi_index !1707
  %7 = load %"struct.std::pair"*, %"struct.std::pair"** %4, align 8, !llfi_index !1708
  %8 = bitcast %"struct.std::pair"* %7 to %"class.std::allocator"*, !llfi_index !1709
  %9 = getelementptr inbounds %"struct.std::pair", %"struct.std::pair"* %7, i32 0, i32 0, !llfi_index !1710
  %10 = load i32*, i32** %5, align 8, !llfi_index !1711
  %11 = call nonnull align 4 dereferenceable(4) i32* @_ZSt7forwardIRiEOT_RNSt16remove_referenceIS1_E4typeE(i32* nonnull align 4 dereferenceable(4) %10) #2, !llfi_index !1712
  %12 = load i32, i32* %11, align 4, !llfi_index !1713
  store i32 %12, i32* %9, align 4, !llfi_index !1714
  %13 = getelementptr inbounds %"struct.std::pair", %"struct.std::pair"* %7, i32 0, i32 1, !llfi_index !1715
  %14 = load i32*, i32** %6, align 8, !llfi_index !1716
  %15 = call nonnull align 4 dereferenceable(4) i32* @_ZSt7forwardIiEOT_RNSt16remove_referenceIS0_E4typeE(i32* nonnull align 4 dereferenceable(4) %14) #2, !llfi_index !1717
  %16 = load i32, i32* %15, align 4, !llfi_index !1718
  store i32 %16, i32* %13, align 4, !llfi_index !1719
  ret void, !llfi_index !1720
}

; Function Attrs: mustprogress noinline nounwind uwtable
define linkonce_odr dso_local nonnull align 8 dereferenceable(24) %"class.std::vector"* @_ZSt4moveIRSt6vectorIS0_ISt4pairIiiESaIS2_EESaIS4_EEEONSt16remove_referenceIT_E4typeEOS9_(%"class.std::vector"* nonnull align 8 dereferenceable(24) %0) #3 comdat {
  %2 = alloca %"class.std::vector"*, align 8, !llfi_index !1721
  store %"class.std::vector"* %0, %"class.std::vector"** %2, align 8, !llfi_index !1722
  %3 = load %"class.std::vector"*, %"class.std::vector"** %2, align 8, !llfi_index !1723
  ret %"class.std::vector"* %3, !llfi_index !1724
}

; Function Attrs: mustprogress noinline nounwind uwtable
define linkonce_odr dso_local void @_ZNSt6vectorIS_ISt4pairIiiESaIS1_EESaIS3_EE14_M_move_assignEOS5_St17integral_constantIbLb1EE(%"class.std::vector"* nonnull align 8 dereferenceable(24) %0, %"class.std::vector"* nonnull align 8 dereferenceable(24) %1) #3 comdat align 2 personality i8* bitcast (i32 (...)* @__gxx_personality_v0 to i8*) {
  %3 = alloca %"class.std::allocator", align 1, !llfi_index !1725
  %4 = alloca %"class.std::vector"*, align 8, !llfi_index !1726
  %5 = alloca %"class.std::vector"*, align 8, !llfi_index !1727
  %6 = alloca %"class.std::vector", align 8, !llfi_index !1728
  %7 = alloca %"class.std::allocator", align 1, !llfi_index !1729
  %8 = alloca i8*, align 8, !llfi_index !1730
  %9 = alloca i32, align 4, !llfi_index !1731
  store %"class.std::vector"* %0, %"class.std::vector"** %4, align 8, !llfi_index !1732
  store %"class.std::vector"* %1, %"class.std::vector"** %5, align 8, !llfi_index !1733
  %10 = load %"class.std::vector"*, %"class.std::vector"** %4, align 8, !llfi_index !1734
  %11 = bitcast %"class.std::vector"* %10 to %"struct.std::_Vector_base"*, !llfi_index !1735
  call void @_ZNKSt12_Vector_baseISt6vectorISt4pairIiiESaIS2_EESaIS4_EE13get_allocatorEv(%"class.std::allocator"* sret(%"class.std::allocator") align 1 %7, %"struct.std::_Vector_base"* nonnull align 8 dereferenceable(24) %11) #2, !llfi_index !1736
  call void @_ZNSt6vectorIS_ISt4pairIiiESaIS1_EESaIS3_EEC2ERKS4_(%"class.std::vector"* nonnull align 8 dereferenceable(24) %6, %"class.std::allocator"* nonnull align 1 dereferenceable(1) %7) #2, !llfi_index !1737
  call void @_ZNSaISt6vectorISt4pairIiiESaIS1_EEED2Ev(%"class.std::allocator"* nonnull align 1 dereferenceable(1) %7) #2, !llfi_index !1738
  %12 = bitcast %"class.std::vector"* %10 to %"struct.std::_Vector_base"*, !llfi_index !1739
  %13 = getelementptr inbounds %"struct.std::_Vector_base", %"struct.std::_Vector_base"* %12, i32 0, i32 0, !llfi_index !1740
  %14 = bitcast %"struct.std::_Vector_base<std::vector<std::pair<int, int>>, std::allocator<std::vector<std::pair<int, int>>>>::_Vector_impl"* %13 to %"struct.std::_Vector_base<std::vector<std::pair<int, int>>, std::allocator<std::vector<std::pair<int, int>>>>::_Vector_impl_data"*, !llfi_index !1741
  %15 = load %"class.std::vector"*, %"class.std::vector"** %5, align 8, !llfi_index !1742
  %16 = bitcast %"class.std::vector"* %15 to %"struct.std::_Vector_base"*, !llfi_index !1743
  %17 = getelementptr inbounds %"struct.std::_Vector_base", %"struct.std::_Vector_base"* %16, i32 0, i32 0, !llfi_index !1744
  %18 = bitcast %"struct.std::_Vector_base<std::vector<std::pair<int, int>>, std::allocator<std::vector<std::pair<int, int>>>>::_Vector_impl"* %17 to %"struct.std::_Vector_base<std::vector<std::pair<int, int>>, std::allocator<std::vector<std::pair<int, int>>>>::_Vector_impl_data"*, !llfi_index !1745
  call void @_ZNSt12_Vector_baseISt6vectorISt4pairIiiESaIS2_EESaIS4_EE17_Vector_impl_data12_M_swap_dataERS7_(%"struct.std::_Vector_base<std::vector<std::pair<int, int>>, std::allocator<std::vector<std::pair<int, int>>>>::_Vector_impl_data"* nonnull align 8 dereferenceable(24) %14, %"struct.std::_Vector_base<std::vector<std::pair<int, int>>, std::allocator<std::vector<std::pair<int, int>>>>::_Vector_impl_data"* nonnull align 8 dereferenceable(24) %18) #2, !llfi_index !1746
  %19 = bitcast %"class.std::vector"* %6 to %"struct.std::_Vector_base"*, !llfi_index !1747
  %20 = getelementptr inbounds %"struct.std::_Vector_base", %"struct.std::_Vector_base"* %19, i32 0, i32 0, !llfi_index !1748
  %21 = bitcast %"struct.std::_Vector_base<std::vector<std::pair<int, int>>, std::allocator<std::vector<std::pair<int, int>>>>::_Vector_impl"* %20 to %"struct.std::_Vector_base<std::vector<std::pair<int, int>>, std::allocator<std::vector<std::pair<int, int>>>>::_Vector_impl_data"*, !llfi_index !1749
  %22 = load %"class.std::vector"*, %"class.std::vector"** %5, align 8, !llfi_index !1750
  %23 = bitcast %"class.std::vector"* %22 to %"struct.std::_Vector_base"*, !llfi_index !1751
  %24 = getelementptr inbounds %"struct.std::_Vector_base", %"struct.std::_Vector_base"* %23, i32 0, i32 0, !llfi_index !1752
  %25 = bitcast %"struct.std::_Vector_base<std::vector<std::pair<int, int>>, std::allocator<std::vector<std::pair<int, int>>>>::_Vector_impl"* %24 to %"struct.std::_Vector_base<std::vector<std::pair<int, int>>, std::allocator<std::vector<std::pair<int, int>>>>::_Vector_impl_data"*, !llfi_index !1753
  call void @_ZNSt12_Vector_baseISt6vectorISt4pairIiiESaIS2_EESaIS4_EE17_Vector_impl_data12_M_swap_dataERS7_(%"struct.std::_Vector_base<std::vector<std::pair<int, int>>, std::allocator<std::vector<std::pair<int, int>>>>::_Vector_impl_data"* nonnull align 8 dereferenceable(24) %21, %"struct.std::_Vector_base<std::vector<std::pair<int, int>>, std::allocator<std::vector<std::pair<int, int>>>>::_Vector_impl_data"* nonnull align 8 dereferenceable(24) %25) #2, !llfi_index !1754
  %26 = bitcast %"class.std::vector"* %10 to %"struct.std::_Vector_base"*, !llfi_index !1755
  %27 = call nonnull align 1 dereferenceable(1) %"class.std::allocator"* @_ZNSt12_Vector_baseISt6vectorISt4pairIiiESaIS2_EESaIS4_EE19_M_get_Tp_allocatorEv(%"struct.std::_Vector_base"* nonnull align 8 dereferenceable(24) %26) #2, !llfi_index !1756
  %28 = load %"class.std::vector"*, %"class.std::vector"** %5, align 8, !llfi_index !1757
  %29 = bitcast %"class.std::vector"* %28 to %"struct.std::_Vector_base"*, !llfi_index !1758
  %30 = call nonnull align 1 dereferenceable(1) %"class.std::allocator"* @_ZNSt12_Vector_baseISt6vectorISt4pairIiiESaIS2_EESaIS4_EE19_M_get_Tp_allocatorEv(%"struct.std::_Vector_base"* nonnull align 8 dereferenceable(24) %29) #2, !llfi_index !1759
  invoke void @_ZSt15__alloc_on_moveISaISt6vectorISt4pairIiiESaIS2_EEEEvRT_S7_(%"class.std::allocator"* nonnull align 1 dereferenceable(1) %27, %"class.std::allocator"* nonnull align 1 dereferenceable(1) %30)
          to label %31 unwind label %32, !llfi_index !1760

31:                                               ; preds = %2
  call void @_ZNSt6vectorIS_ISt4pairIiiESaIS1_EESaIS3_EED2Ev(%"class.std::vector"* nonnull align 8 dereferenceable(24) %6) #2, !llfi_index !1761
  ret void, !llfi_index !1762

32:                                               ; preds = %2
  %33 = landingpad { i8*, i32 }
          catch i8* null, !llfi_index !1763
  %34 = extractvalue { i8*, i32 } %33, 0, !llfi_index !1764
  store i8* %34, i8** %8, align 8, !llfi_index !1765
  %35 = extractvalue { i8*, i32 } %33, 1, !llfi_index !1766
  store i32 %35, i32* %9, align 4, !llfi_index !1767
  call void @_ZNSt6vectorIS_ISt4pairIiiESaIS1_EESaIS3_EED2Ev(%"class.std::vector"* nonnull align 8 dereferenceable(24) %6) #2, !llfi_index !1768
  br label %36, !llfi_index !1769

36:                                               ; preds = %32
  %37 = load i8*, i8** %8, align 8, !llfi_index !1770
  call void @__clang_call_terminate(i8* %37) #15, !llfi_index !1771
  unreachable, !llfi_index !1772
}

; Function Attrs: mustprogress noinline nounwind uwtable
define linkonce_odr dso_local void @_ZNKSt12_Vector_baseISt6vectorISt4pairIiiESaIS2_EESaIS4_EE13get_allocatorEv(%"class.std::allocator"* noalias sret(%"class.std::allocator") align 1 %0, %"struct.std::_Vector_base"* nonnull align 8 dereferenceable(24) %1) #3 comdat align 2 {
  %3 = alloca i8*, align 8, !llfi_index !1773
  %4 = alloca %"struct.std::_Vector_base"*, align 8, !llfi_index !1774
  %5 = bitcast %"class.std::allocator"* %0 to i8*, !llfi_index !1775
  store i8* %5, i8** %3, align 8, !llfi_index !1776
  store %"struct.std::_Vector_base"* %1, %"struct.std::_Vector_base"** %4, align 8, !llfi_index !1777
  %6 = load %"struct.std::_Vector_base"*, %"struct.std::_Vector_base"** %4, align 8, !llfi_index !1778
  %7 = call nonnull align 1 dereferenceable(1) %"class.std::allocator"* @_ZNKSt12_Vector_baseISt6vectorISt4pairIiiESaIS2_EESaIS4_EE19_M_get_Tp_allocatorEv(%"struct.std::_Vector_base"* nonnull align 8 dereferenceable(24) %6) #2, !llfi_index !1779
  call void @_ZNSaISt6vectorISt4pairIiiESaIS1_EEEC2ERKS4_(%"class.std::allocator"* nonnull align 1 dereferenceable(1) %0, %"class.std::allocator"* nonnull align 1 dereferenceable(1) %7) #2, !llfi_index !1780
  ret void, !llfi_index !1781
}

; Function Attrs: noinline nounwind uwtable
define linkonce_odr dso_local void @_ZNSt6vectorIS_ISt4pairIiiESaIS1_EESaIS3_EEC2ERKS4_(%"class.std::vector"* nonnull align 8 dereferenceable(24) %0, %"class.std::allocator"* nonnull align 1 dereferenceable(1) %1) unnamed_addr #1 comdat align 2 {
  %3 = alloca %"class.std::vector"*, align 8, !llfi_index !1782
  %4 = alloca %"class.std::allocator"*, align 8, !llfi_index !1783
  store %"class.std::vector"* %0, %"class.std::vector"** %3, align 8, !llfi_index !1784
  store %"class.std::allocator"* %1, %"class.std::allocator"** %4, align 8, !llfi_index !1785
  %5 = load %"class.std::vector"*, %"class.std::vector"** %3, align 8, !llfi_index !1786
  %6 = bitcast %"class.std::vector"* %5 to %"struct.std::_Vector_base"*, !llfi_index !1787
  %7 = load %"class.std::allocator"*, %"class.std::allocator"** %4, align 8, !llfi_index !1788
  call void @_ZNSt12_Vector_baseISt6vectorISt4pairIiiESaIS2_EESaIS4_EEC2ERKS5_(%"struct.std::_Vector_base"* nonnull align 8 dereferenceable(24) %6, %"class.std::allocator"* nonnull align 1 dereferenceable(1) %7) #2, !llfi_index !1789
  ret void, !llfi_index !1790
}

; Function Attrs: mustprogress noinline nounwind uwtable
define linkonce_odr dso_local void @_ZNSt12_Vector_baseISt6vectorISt4pairIiiESaIS2_EESaIS4_EE17_Vector_impl_data12_M_swap_dataERS7_(%"struct.std::_Vector_base<std::vector<std::pair<int, int>>, std::allocator<std::vector<std::pair<int, int>>>>::_Vector_impl_data"* nonnull align 8 dereferenceable(24) %0, %"struct.std::_Vector_base<std::vector<std::pair<int, int>>, std::allocator<std::vector<std::pair<int, int>>>>::_Vector_impl_data"* nonnull align 8 dereferenceable(24) %1) #3 comdat align 2 {
  %3 = alloca %"struct.std::_Vector_base<std::vector<std::pair<int, int>>, std::allocator<std::vector<std::pair<int, int>>>>::_Vector_impl_data"*, align 8, !llfi_index !1791
  %4 = alloca %"struct.std::_Vector_base<std::vector<std::pair<int, int>>, std::allocator<std::vector<std::pair<int, int>>>>::_Vector_impl_data"*, align 8, !llfi_index !1792
  %5 = alloca %"struct.std::_Vector_base<std::vector<std::pair<int, int>>, std::allocator<std::vector<std::pair<int, int>>>>::_Vector_impl_data", align 8, !llfi_index !1793
  store %"struct.std::_Vector_base<std::vector<std::pair<int, int>>, std::allocator<std::vector<std::pair<int, int>>>>::_Vector_impl_data"* %0, %"struct.std::_Vector_base<std::vector<std::pair<int, int>>, std::allocator<std::vector<std::pair<int, int>>>>::_Vector_impl_data"** %3, align 8, !llfi_index !1794
  store %"struct.std::_Vector_base<std::vector<std::pair<int, int>>, std::allocator<std::vector<std::pair<int, int>>>>::_Vector_impl_data"* %1, %"struct.std::_Vector_base<std::vector<std::pair<int, int>>, std::allocator<std::vector<std::pair<int, int>>>>::_Vector_impl_data"** %4, align 8, !llfi_index !1795
  %6 = load %"struct.std::_Vector_base<std::vector<std::pair<int, int>>, std::allocator<std::vector<std::pair<int, int>>>>::_Vector_impl_data"*, %"struct.std::_Vector_base<std::vector<std::pair<int, int>>, std::allocator<std::vector<std::pair<int, int>>>>::_Vector_impl_data"** %3, align 8, !llfi_index !1796
  call void @_ZNSt12_Vector_baseISt6vectorISt4pairIiiESaIS2_EESaIS4_EE17_Vector_impl_dataC2Ev(%"struct.std::_Vector_base<std::vector<std::pair<int, int>>, std::allocator<std::vector<std::pair<int, int>>>>::_Vector_impl_data"* nonnull align 8 dereferenceable(24) %5) #2, !llfi_index !1797
  call void @_ZNSt12_Vector_baseISt6vectorISt4pairIiiESaIS2_EESaIS4_EE17_Vector_impl_data12_M_copy_dataERKS7_(%"struct.std::_Vector_base<std::vector<std::pair<int, int>>, std::allocator<std::vector<std::pair<int, int>>>>::_Vector_impl_data"* nonnull align 8 dereferenceable(24) %5, %"struct.std::_Vector_base<std::vector<std::pair<int, int>>, std::allocator<std::vector<std::pair<int, int>>>>::_Vector_impl_data"* nonnull align 8 dereferenceable(24) %6) #2, !llfi_index !1798
  %7 = load %"struct.std::_Vector_base<std::vector<std::pair<int, int>>, std::allocator<std::vector<std::pair<int, int>>>>::_Vector_impl_data"*, %"struct.std::_Vector_base<std::vector<std::pair<int, int>>, std::allocator<std::vector<std::pair<int, int>>>>::_Vector_impl_data"** %4, align 8, !llfi_index !1799
  call void @_ZNSt12_Vector_baseISt6vectorISt4pairIiiESaIS2_EESaIS4_EE17_Vector_impl_data12_M_copy_dataERKS7_(%"struct.std::_Vector_base<std::vector<std::pair<int, int>>, std::allocator<std::vector<std::pair<int, int>>>>::_Vector_impl_data"* nonnull align 8 dereferenceable(24) %6, %"struct.std::_Vector_base<std::vector<std::pair<int, int>>, std::allocator<std::vector<std::pair<int, int>>>>::_Vector_impl_data"* nonnull align 8 dereferenceable(24) %7) #2, !llfi_index !1800
  %8 = load %"struct.std::_Vector_base<std::vector<std::pair<int, int>>, std::allocator<std::vector<std::pair<int, int>>>>::_Vector_impl_data"*, %"struct.std::_Vector_base<std::vector<std::pair<int, int>>, std::allocator<std::vector<std::pair<int, int>>>>::_Vector_impl_data"** %4, align 8, !llfi_index !1801
  call void @_ZNSt12_Vector_baseISt6vectorISt4pairIiiESaIS2_EESaIS4_EE17_Vector_impl_data12_M_copy_dataERKS7_(%"struct.std::_Vector_base<std::vector<std::pair<int, int>>, std::allocator<std::vector<std::pair<int, int>>>>::_Vector_impl_data"* nonnull align 8 dereferenceable(24) %8, %"struct.std::_Vector_base<std::vector<std::pair<int, int>>, std::allocator<std::vector<std::pair<int, int>>>>::_Vector_impl_data"* nonnull align 8 dereferenceable(24) %5) #2, !llfi_index !1802
  ret void, !llfi_index !1803
}

; Function Attrs: mustprogress noinline uwtable
define linkonce_odr dso_local void @_ZSt15__alloc_on_moveISaISt6vectorISt4pairIiiESaIS2_EEEEvRT_S7_(%"class.std::allocator"* nonnull align 1 dereferenceable(1) %0, %"class.std::allocator"* nonnull align 1 dereferenceable(1) %1) #4 comdat {
  %3 = alloca %"class.std::allocator"*, align 8, !llfi_index !1804
  %4 = alloca %"class.std::allocator"*, align 8, !llfi_index !1805
  %5 = alloca %"class.std::allocator", align 1, !llfi_index !1806
  store %"class.std::allocator"* %0, %"class.std::allocator"** %3, align 8, !llfi_index !1807
  store %"class.std::allocator"* %1, %"class.std::allocator"** %4, align 8, !llfi_index !1808
  %6 = load %"class.std::allocator"*, %"class.std::allocator"** %3, align 8, !llfi_index !1809
  %7 = load %"class.std::allocator"*, %"class.std::allocator"** %4, align 8, !llfi_index !1810
  call void @_ZSt18__do_alloc_on_moveISaISt6vectorISt4pairIiiESaIS2_EEEEvRT_S7_St17integral_constantIbLb1EE(%"class.std::allocator"* nonnull align 1 dereferenceable(1) %6, %"class.std::allocator"* nonnull align 1 dereferenceable(1) %7), !llfi_index !1811
  ret void, !llfi_index !1812
}

; Function Attrs: mustprogress noinline nounwind uwtable
define linkonce_odr dso_local void @_ZSt18__do_alloc_on_moveISaISt6vectorISt4pairIiiESaIS2_EEEEvRT_S7_St17integral_constantIbLb1EE(%"class.std::allocator"* nonnull align 1 dereferenceable(1) %0, %"class.std::allocator"* nonnull align 1 dereferenceable(1) %1) #3 comdat {
  %3 = alloca %"class.std::allocator", align 1, !llfi_index !1813
  %4 = alloca %"class.std::allocator"*, align 8, !llfi_index !1814
  %5 = alloca %"class.std::allocator"*, align 8, !llfi_index !1815
  store %"class.std::allocator"* %0, %"class.std::allocator"** %4, align 8, !llfi_index !1816
  store %"class.std::allocator"* %1, %"class.std::allocator"** %5, align 8, !llfi_index !1817
  %6 = load %"class.std::allocator"*, %"class.std::allocator"** %5, align 8, !llfi_index !1818
  %7 = call nonnull align 1 dereferenceable(1) %"class.std::allocator"* @_ZSt4moveIRSaISt6vectorISt4pairIiiESaIS2_EEEEONSt16remove_referenceIT_E4typeEOS8_(%"class.std::allocator"* nonnull align 1 dereferenceable(1) %6) #2, !llfi_index !1819
  %8 = load %"class.std::allocator"*, %"class.std::allocator"** %4, align 8, !llfi_index !1820
  ret void, !llfi_index !1821
}

; Function Attrs: mustprogress noinline nounwind uwtable
define linkonce_odr dso_local nonnull align 1 dereferenceable(1) %"class.std::allocator"* @_ZSt4moveIRSaISt6vectorISt4pairIiiESaIS2_EEEEONSt16remove_referenceIT_E4typeEOS8_(%"class.std::allocator"* nonnull align 1 dereferenceable(1) %0) #3 comdat {
  %2 = alloca %"class.std::allocator"*, align 8, !llfi_index !1822
  store %"class.std::allocator"* %0, %"class.std::allocator"** %2, align 8, !llfi_index !1823
  %3 = load %"class.std::allocator"*, %"class.std::allocator"** %2, align 8, !llfi_index !1824
  ret %"class.std::allocator"* %3, !llfi_index !1825
}

; Function Attrs: mustprogress noinline nounwind uwtable
define linkonce_odr dso_local void @_ZNSt12_Vector_baseISt6vectorISt4pairIiiESaIS2_EESaIS4_EE17_Vector_impl_data12_M_copy_dataERKS7_(%"struct.std::_Vector_base<std::vector<std::pair<int, int>>, std::allocator<std::vector<std::pair<int, int>>>>::_Vector_impl_data"* nonnull align 8 dereferenceable(24) %0, %"struct.std::_Vector_base<std::vector<std::pair<int, int>>, std::allocator<std::vector<std::pair<int, int>>>>::_Vector_impl_data"* nonnull align 8 dereferenceable(24) %1) #3 comdat align 2 {
  %3 = alloca %"struct.std::_Vector_base<std::vector<std::pair<int, int>>, std::allocator<std::vector<std::pair<int, int>>>>::_Vector_impl_data"*, align 8, !llfi_index !1826
  %4 = alloca %"struct.std::_Vector_base<std::vector<std::pair<int, int>>, std::allocator<std::vector<std::pair<int, int>>>>::_Vector_impl_data"*, align 8, !llfi_index !1827
  store %"struct.std::_Vector_base<std::vector<std::pair<int, int>>, std::allocator<std::vector<std::pair<int, int>>>>::_Vector_impl_data"* %0, %"struct.std::_Vector_base<std::vector<std::pair<int, int>>, std::allocator<std::vector<std::pair<int, int>>>>::_Vector_impl_data"** %3, align 8, !llfi_index !1828
  store %"struct.std::_Vector_base<std::vector<std::pair<int, int>>, std::allocator<std::vector<std::pair<int, int>>>>::_Vector_impl_data"* %1, %"struct.std::_Vector_base<std::vector<std::pair<int, int>>, std::allocator<std::vector<std::pair<int, int>>>>::_Vector_impl_data"** %4, align 8, !llfi_index !1829
  %5 = load %"struct.std::_Vector_base<std::vector<std::pair<int, int>>, std::allocator<std::vector<std::pair<int, int>>>>::_Vector_impl_data"*, %"struct.std::_Vector_base<std::vector<std::pair<int, int>>, std::allocator<std::vector<std::pair<int, int>>>>::_Vector_impl_data"** %3, align 8, !llfi_index !1830
  %6 = load %"struct.std::_Vector_base<std::vector<std::pair<int, int>>, std::allocator<std::vector<std::pair<int, int>>>>::_Vector_impl_data"*, %"struct.std::_Vector_base<std::vector<std::pair<int, int>>, std::allocator<std::vector<std::pair<int, int>>>>::_Vector_impl_data"** %4, align 8, !llfi_index !1831
  %7 = getelementptr inbounds %"struct.std::_Vector_base<std::vector<std::pair<int, int>>, std::allocator<std::vector<std::pair<int, int>>>>::_Vector_impl_data", %"struct.std::_Vector_base<std::vector<std::pair<int, int>>, std::allocator<std::vector<std::pair<int, int>>>>::_Vector_impl_data"* %6, i32 0, i32 0, !llfi_index !1832
  %8 = load %"class.std::vector.0"*, %"class.std::vector.0"** %7, align 8, !llfi_index !1833
  %9 = getelementptr inbounds %"struct.std::_Vector_base<std::vector<std::pair<int, int>>, std::allocator<std::vector<std::pair<int, int>>>>::_Vector_impl_data", %"struct.std::_Vector_base<std::vector<std::pair<int, int>>, std::allocator<std::vector<std::pair<int, int>>>>::_Vector_impl_data"* %5, i32 0, i32 0, !llfi_index !1834
  store %"class.std::vector.0"* %8, %"class.std::vector.0"** %9, align 8, !llfi_index !1835
  %10 = load %"struct.std::_Vector_base<std::vector<std::pair<int, int>>, std::allocator<std::vector<std::pair<int, int>>>>::_Vector_impl_data"*, %"struct.std::_Vector_base<std::vector<std::pair<int, int>>, std::allocator<std::vector<std::pair<int, int>>>>::_Vector_impl_data"** %4, align 8, !llfi_index !1836
  %11 = getelementptr inbounds %"struct.std::_Vector_base<std::vector<std::pair<int, int>>, std::allocator<std::vector<std::pair<int, int>>>>::_Vector_impl_data", %"struct.std::_Vector_base<std::vector<std::pair<int, int>>, std::allocator<std::vector<std::pair<int, int>>>>::_Vector_impl_data"* %10, i32 0, i32 1, !llfi_index !1837
  %12 = load %"class.std::vector.0"*, %"class.std::vector.0"** %11, align 8, !llfi_index !1838
  %13 = getelementptr inbounds %"struct.std::_Vector_base<std::vector<std::pair<int, int>>, std::allocator<std::vector<std::pair<int, int>>>>::_Vector_impl_data", %"struct.std::_Vector_base<std::vector<std::pair<int, int>>, std::allocator<std::vector<std::pair<int, int>>>>::_Vector_impl_data"* %5, i32 0, i32 1, !llfi_index !1839
  store %"class.std::vector.0"* %12, %"class.std::vector.0"** %13, align 8, !llfi_index !1840
  %14 = load %"struct.std::_Vector_base<std::vector<std::pair<int, int>>, std::allocator<std::vector<std::pair<int, int>>>>::_Vector_impl_data"*, %"struct.std::_Vector_base<std::vector<std::pair<int, int>>, std::allocator<std::vector<std::pair<int, int>>>>::_Vector_impl_data"** %4, align 8, !llfi_index !1841
  %15 = getelementptr inbounds %"struct.std::_Vector_base<std::vector<std::pair<int, int>>, std::allocator<std::vector<std::pair<int, int>>>>::_Vector_impl_data", %"struct.std::_Vector_base<std::vector<std::pair<int, int>>, std::allocator<std::vector<std::pair<int, int>>>>::_Vector_impl_data"* %14, i32 0, i32 2, !llfi_index !1842
  %16 = load %"class.std::vector.0"*, %"class.std::vector.0"** %15, align 8, !llfi_index !1843
  %17 = getelementptr inbounds %"struct.std::_Vector_base<std::vector<std::pair<int, int>>, std::allocator<std::vector<std::pair<int, int>>>>::_Vector_impl_data", %"struct.std::_Vector_base<std::vector<std::pair<int, int>>, std::allocator<std::vector<std::pair<int, int>>>>::_Vector_impl_data"* %5, i32 0, i32 2, !llfi_index !1844
  store %"class.std::vector.0"* %16, %"class.std::vector.0"** %17, align 8, !llfi_index !1845
  ret void, !llfi_index !1846
}

; Function Attrs: noinline nounwind uwtable
define linkonce_odr dso_local void @_ZNSt12_Vector_baseISt6vectorISt4pairIiiESaIS2_EESaIS4_EEC2ERKS5_(%"struct.std::_Vector_base"* nonnull align 8 dereferenceable(24) %0, %"class.std::allocator"* nonnull align 1 dereferenceable(1) %1) unnamed_addr #1 comdat align 2 {
  %3 = alloca %"struct.std::_Vector_base"*, align 8, !llfi_index !1847
  %4 = alloca %"class.std::allocator"*, align 8, !llfi_index !1848
  store %"struct.std::_Vector_base"* %0, %"struct.std::_Vector_base"** %3, align 8, !llfi_index !1849
  store %"class.std::allocator"* %1, %"class.std::allocator"** %4, align 8, !llfi_index !1850
  %5 = load %"struct.std::_Vector_base"*, %"struct.std::_Vector_base"** %3, align 8, !llfi_index !1851
  %6 = getelementptr inbounds %"struct.std::_Vector_base", %"struct.std::_Vector_base"* %5, i32 0, i32 0, !llfi_index !1852
  %7 = load %"class.std::allocator"*, %"class.std::allocator"** %4, align 8, !llfi_index !1853
  call void @_ZNSt12_Vector_baseISt6vectorISt4pairIiiESaIS2_EESaIS4_EE12_Vector_implC2ERKS5_(%"struct.std::_Vector_base<std::vector<std::pair<int, int>>, std::allocator<std::vector<std::pair<int, int>>>>::_Vector_impl"* nonnull align 8 dereferenceable(24) %6, %"class.std::allocator"* nonnull align 1 dereferenceable(1) %7) #2, !llfi_index !1854
  ret void, !llfi_index !1855
}

; Function Attrs: noinline nounwind uwtable
define linkonce_odr dso_local void @_ZNSt12_Vector_baseISt6vectorISt4pairIiiESaIS2_EESaIS4_EE12_Vector_implC2ERKS5_(%"struct.std::_Vector_base<std::vector<std::pair<int, int>>, std::allocator<std::vector<std::pair<int, int>>>>::_Vector_impl"* nonnull align 8 dereferenceable(24) %0, %"class.std::allocator"* nonnull align 1 dereferenceable(1) %1) unnamed_addr #1 comdat align 2 {
  %3 = alloca %"struct.std::_Vector_base<std::vector<std::pair<int, int>>, std::allocator<std::vector<std::pair<int, int>>>>::_Vector_impl"*, align 8, !llfi_index !1856
  %4 = alloca %"class.std::allocator"*, align 8, !llfi_index !1857
  store %"struct.std::_Vector_base<std::vector<std::pair<int, int>>, std::allocator<std::vector<std::pair<int, int>>>>::_Vector_impl"* %0, %"struct.std::_Vector_base<std::vector<std::pair<int, int>>, std::allocator<std::vector<std::pair<int, int>>>>::_Vector_impl"** %3, align 8, !llfi_index !1858
  store %"class.std::allocator"* %1, %"class.std::allocator"** %4, align 8, !llfi_index !1859
  %5 = load %"struct.std::_Vector_base<std::vector<std::pair<int, int>>, std::allocator<std::vector<std::pair<int, int>>>>::_Vector_impl"*, %"struct.std::_Vector_base<std::vector<std::pair<int, int>>, std::allocator<std::vector<std::pair<int, int>>>>::_Vector_impl"** %3, align 8, !llfi_index !1860
  %6 = bitcast %"struct.std::_Vector_base<std::vector<std::pair<int, int>>, std::allocator<std::vector<std::pair<int, int>>>>::_Vector_impl"* %5 to %"class.std::allocator"*, !llfi_index !1861
  %7 = load %"class.std::allocator"*, %"class.std::allocator"** %4, align 8, !llfi_index !1862
  call void @_ZNSaISt6vectorISt4pairIiiESaIS1_EEEC2ERKS4_(%"class.std::allocator"* nonnull align 1 dereferenceable(1) %6, %"class.std::allocator"* nonnull align 1 dereferenceable(1) %7) #2, !llfi_index !1863
  %8 = bitcast %"struct.std::_Vector_base<std::vector<std::pair<int, int>>, std::allocator<std::vector<std::pair<int, int>>>>::_Vector_impl"* %5 to %"struct.std::_Vector_base<std::vector<std::pair<int, int>>, std::allocator<std::vector<std::pair<int, int>>>>::_Vector_impl_data"*, !llfi_index !1864
  call void @_ZNSt12_Vector_baseISt6vectorISt4pairIiiESaIS2_EESaIS4_EE17_Vector_impl_dataC2Ev(%"struct.std::_Vector_base<std::vector<std::pair<int, int>>, std::allocator<std::vector<std::pair<int, int>>>>::_Vector_impl_data"* nonnull align 8 dereferenceable(24) %8) #2, !llfi_index !1865
  ret void, !llfi_index !1866
}

; Function Attrs: noinline nounwind uwtable
define linkonce_odr dso_local void @_ZNSaISt6vectorISt4pairIiiESaIS1_EEEC2ERKS4_(%"class.std::allocator"* nonnull align 1 dereferenceable(1) %0, %"class.std::allocator"* nonnull align 1 dereferenceable(1) %1) unnamed_addr #1 comdat align 2 {
  %3 = alloca %"class.std::allocator"*, align 8, !llfi_index !1867
  %4 = alloca %"class.std::allocator"*, align 8, !llfi_index !1868
  store %"class.std::allocator"* %0, %"class.std::allocator"** %3, align 8, !llfi_index !1869
  store %"class.std::allocator"* %1, %"class.std::allocator"** %4, align 8, !llfi_index !1870
  %5 = load %"class.std::allocator"*, %"class.std::allocator"** %3, align 8, !llfi_index !1871
  %6 = bitcast %"class.std::allocator"* %5 to %"class.std::allocator"*, !llfi_index !1872
  %7 = load %"class.std::allocator"*, %"class.std::allocator"** %4, align 8, !llfi_index !1873
  %8 = bitcast %"class.std::allocator"* %7 to %"class.std::allocator"*, !llfi_index !1874
  call void @_ZN9__gnu_cxx13new_allocatorISt6vectorISt4pairIiiESaIS3_EEEC2ERKS6_(%"class.std::allocator"* nonnull align 1 dereferenceable(1) %6, %"class.std::allocator"* nonnull align 1 dereferenceable(1) %8) #2, !llfi_index !1875
  ret void, !llfi_index !1876
}

; Function Attrs: noinline nounwind uwtable
define linkonce_odr dso_local void @_ZN9__gnu_cxx13new_allocatorISt6vectorISt4pairIiiESaIS3_EEEC2ERKS6_(%"class.std::allocator"* nonnull align 1 dereferenceable(1) %0, %"class.std::allocator"* nonnull align 1 dereferenceable(1) %1) unnamed_addr #1 comdat align 2 {
  %3 = alloca %"class.std::allocator"*, align 8, !llfi_index !1877
  %4 = alloca %"class.std::allocator"*, align 8, !llfi_index !1878
  store %"class.std::allocator"* %0, %"class.std::allocator"** %3, align 8, !llfi_index !1879
  store %"class.std::allocator"* %1, %"class.std::allocator"** %4, align 8, !llfi_index !1880
  %5 = load %"class.std::allocator"*, %"class.std::allocator"** %3, align 8, !llfi_index !1881
  ret void, !llfi_index !1882
}

; Function Attrs: mustprogress noinline nounwind uwtable
define linkonce_odr dso_local nonnull align 1 dereferenceable(1) %"class.std::allocator"* @_ZNKSt12_Vector_baseISt6vectorISt4pairIiiESaIS2_EESaIS4_EE19_M_get_Tp_allocatorEv(%"struct.std::_Vector_base"* nonnull align 8 dereferenceable(24) %0) #3 comdat align 2 {
  %2 = alloca %"struct.std::_Vector_base"*, align 8, !llfi_index !1883
  store %"struct.std::_Vector_base"* %0, %"struct.std::_Vector_base"** %2, align 8, !llfi_index !1884
  %3 = load %"struct.std::_Vector_base"*, %"struct.std::_Vector_base"** %2, align 8, !llfi_index !1885
  %4 = getelementptr inbounds %"struct.std::_Vector_base", %"struct.std::_Vector_base"* %3, i32 0, i32 0, !llfi_index !1886
  %5 = bitcast %"struct.std::_Vector_base<std::vector<std::pair<int, int>>, std::allocator<std::vector<std::pair<int, int>>>>::_Vector_impl"* %4 to %"class.std::allocator"*, !llfi_index !1887
  ret %"class.std::allocator"* %5, !llfi_index !1888
}

; Function Attrs: mustprogress noinline uwtable
define linkonce_odr dso_local i64 @_ZNSt6vectorIS_ISt4pairIiiESaIS1_EESaIS3_EE17_S_check_init_lenEmRKS4_(i64 %0, %"class.std::allocator"* nonnull align 1 dereferenceable(1) %1) #4 comdat align 2 {
  %3 = alloca i64, align 8, !llfi_index !1889
  %4 = alloca %"class.std::allocator"*, align 8, !llfi_index !1890
  %5 = alloca %"class.std::allocator", align 1, !llfi_index !1891
  store i64 %0, i64* %3, align 8, !llfi_index !1892
  store %"class.std::allocator"* %1, %"class.std::allocator"** %4, align 8, !llfi_index !1893
  %6 = load i64, i64* %3, align 8, !llfi_index !1894
  %7 = load %"class.std::allocator"*, %"class.std::allocator"** %4, align 8, !llfi_index !1895
  call void @_ZNSaISt6vectorISt4pairIiiESaIS1_EEEC2ERKS4_(%"class.std::allocator"* nonnull align 1 dereferenceable(1) %5, %"class.std::allocator"* nonnull align 1 dereferenceable(1) %7) #2, !llfi_index !1896
  %8 = call i64 @_ZNSt6vectorIS_ISt4pairIiiESaIS1_EESaIS3_EE11_S_max_sizeERKS4_(%"class.std::allocator"* nonnull align 1 dereferenceable(1) %5) #2, !llfi_index !1897
  %9 = icmp ugt i64 %6, %8, !llfi_index !1898
  call void @_ZNSaISt6vectorISt4pairIiiESaIS1_EEED2Ev(%"class.std::allocator"* nonnull align 1 dereferenceable(1) %5) #2, !llfi_index !1899
  br i1 %9, label %10, label %11, !llfi_index !1900

10:                                               ; preds = %2
  call void @_ZSt20__throw_length_errorPKc(i8* getelementptr inbounds ([49 x i8], [49 x i8]* @.str.4, i64 0, i64 0)) #16, !llfi_index !1901
  unreachable, !llfi_index !1902

11:                                               ; preds = %2
  %12 = load i64, i64* %3, align 8, !llfi_index !1903
  ret i64 %12, !llfi_index !1904
}

; Function Attrs: noinline uwtable
define linkonce_odr dso_local void @_ZNSt12_Vector_baseISt6vectorISt4pairIiiESaIS2_EESaIS4_EEC2EmRKS5_(%"struct.std::_Vector_base"* nonnull align 8 dereferenceable(24) %0, i64 %1, %"class.std::allocator"* nonnull align 1 dereferenceable(1) %2) unnamed_addr #0 comdat align 2 personality i8* bitcast (i32 (...)* @__gxx_personality_v0 to i8*) {
  %4 = alloca %"struct.std::_Vector_base"*, align 8, !llfi_index !1905
  %5 = alloca i64, align 8, !llfi_index !1906
  %6 = alloca %"class.std::allocator"*, align 8, !llfi_index !1907
  %7 = alloca i8*, align 8, !llfi_index !1908
  %8 = alloca i32, align 4, !llfi_index !1909
  store %"struct.std::_Vector_base"* %0, %"struct.std::_Vector_base"** %4, align 8, !llfi_index !1910
  store i64 %1, i64* %5, align 8, !llfi_index !1911
  store %"class.std::allocator"* %2, %"class.std::allocator"** %6, align 8, !llfi_index !1912
  %9 = load %"struct.std::_Vector_base"*, %"struct.std::_Vector_base"** %4, align 8, !llfi_index !1913
  %10 = getelementptr inbounds %"struct.std::_Vector_base", %"struct.std::_Vector_base"* %9, i32 0, i32 0, !llfi_index !1914
  %11 = load %"class.std::allocator"*, %"class.std::allocator"** %6, align 8, !llfi_index !1915
  call void @_ZNSt12_Vector_baseISt6vectorISt4pairIiiESaIS2_EESaIS4_EE12_Vector_implC2ERKS5_(%"struct.std::_Vector_base<std::vector<std::pair<int, int>>, std::allocator<std::vector<std::pair<int, int>>>>::_Vector_impl"* nonnull align 8 dereferenceable(24) %10, %"class.std::allocator"* nonnull align 1 dereferenceable(1) %11) #2, !llfi_index !1916
  %12 = load i64, i64* %5, align 8, !llfi_index !1917
  invoke void @_ZNSt12_Vector_baseISt6vectorISt4pairIiiESaIS2_EESaIS4_EE17_M_create_storageEm(%"struct.std::_Vector_base"* nonnull align 8 dereferenceable(24) %9, i64 %12)
          to label %13 unwind label %14, !llfi_index !1918

13:                                               ; preds = %3
  ret void, !llfi_index !1919

14:                                               ; preds = %3
  %15 = landingpad { i8*, i32 }
          cleanup, !llfi_index !1920
  %16 = extractvalue { i8*, i32 } %15, 0, !llfi_index !1921
  store i8* %16, i8** %7, align 8, !llfi_index !1922
  %17 = extractvalue { i8*, i32 } %15, 1, !llfi_index !1923
  store i32 %17, i32* %8, align 4, !llfi_index !1924
  call void @_ZNSt12_Vector_baseISt6vectorISt4pairIiiESaIS2_EESaIS4_EE12_Vector_implD2Ev(%"struct.std::_Vector_base<std::vector<std::pair<int, int>>, std::allocator<std::vector<std::pair<int, int>>>>::_Vector_impl"* nonnull align 8 dereferenceable(24) %10) #2, !llfi_index !1925
  br label %18, !llfi_index !1926

18:                                               ; preds = %14
  %19 = load i8*, i8** %7, align 8, !llfi_index !1927
  %20 = load i32, i32* %8, align 4, !llfi_index !1928
  %21 = insertvalue { i8*, i32 } undef, i8* %19, 0, !llfi_index !1929
  %22 = insertvalue { i8*, i32 } %21, i32 %20, 1, !llfi_index !1930
  resume { i8*, i32 } %22, !llfi_index !1931
}

; Function Attrs: mustprogress noinline uwtable
define linkonce_odr dso_local void @_ZNSt6vectorIS_ISt4pairIiiESaIS1_EESaIS3_EE21_M_default_initializeEm(%"class.std::vector"* nonnull align 8 dereferenceable(24) %0, i64 %1) #4 comdat align 2 {
  %3 = alloca %"class.std::vector"*, align 8, !llfi_index !1932
  %4 = alloca i64, align 8, !llfi_index !1933
  store %"class.std::vector"* %0, %"class.std::vector"** %3, align 8, !llfi_index !1934
  store i64 %1, i64* %4, align 8, !llfi_index !1935
  %5 = load %"class.std::vector"*, %"class.std::vector"** %3, align 8, !llfi_index !1936
  %6 = bitcast %"class.std::vector"* %5 to %"struct.std::_Vector_base"*, !llfi_index !1937
  %7 = getelementptr inbounds %"struct.std::_Vector_base", %"struct.std::_Vector_base"* %6, i32 0, i32 0, !llfi_index !1938
  %8 = bitcast %"struct.std::_Vector_base<std::vector<std::pair<int, int>>, std::allocator<std::vector<std::pair<int, int>>>>::_Vector_impl"* %7 to %"struct.std::_Vector_base<std::vector<std::pair<int, int>>, std::allocator<std::vector<std::pair<int, int>>>>::_Vector_impl_data"*, !llfi_index !1939
  %9 = getelementptr inbounds %"struct.std::_Vector_base<std::vector<std::pair<int, int>>, std::allocator<std::vector<std::pair<int, int>>>>::_Vector_impl_data", %"struct.std::_Vector_base<std::vector<std::pair<int, int>>, std::allocator<std::vector<std::pair<int, int>>>>::_Vector_impl_data"* %8, i32 0, i32 0, !llfi_index !1940
  %10 = load %"class.std::vector.0"*, %"class.std::vector.0"** %9, align 8, !llfi_index !1941
  %11 = load i64, i64* %4, align 8, !llfi_index !1942
  %12 = bitcast %"class.std::vector"* %5 to %"struct.std::_Vector_base"*, !llfi_index !1943
  %13 = call nonnull align 1 dereferenceable(1) %"class.std::allocator"* @_ZNSt12_Vector_baseISt6vectorISt4pairIiiESaIS2_EESaIS4_EE19_M_get_Tp_allocatorEv(%"struct.std::_Vector_base"* nonnull align 8 dereferenceable(24) %12) #2, !llfi_index !1944
  %14 = call %"class.std::vector.0"* @_ZSt27__uninitialized_default_n_aIPSt6vectorISt4pairIiiESaIS2_EEmS4_ET_S6_T0_RSaIT1_E(%"class.std::vector.0"* %10, i64 %11, %"class.std::allocator"* nonnull align 1 dereferenceable(1) %13), !llfi_index !1945
  %15 = bitcast %"class.std::vector"* %5 to %"struct.std::_Vector_base"*, !llfi_index !1946
  %16 = getelementptr inbounds %"struct.std::_Vector_base", %"struct.std::_Vector_base"* %15, i32 0, i32 0, !llfi_index !1947
  %17 = bitcast %"struct.std::_Vector_base<std::vector<std::pair<int, int>>, std::allocator<std::vector<std::pair<int, int>>>>::_Vector_impl"* %16 to %"struct.std::_Vector_base<std::vector<std::pair<int, int>>, std::allocator<std::vector<std::pair<int, int>>>>::_Vector_impl_data"*, !llfi_index !1948
  %18 = getelementptr inbounds %"struct.std::_Vector_base<std::vector<std::pair<int, int>>, std::allocator<std::vector<std::pair<int, int>>>>::_Vector_impl_data", %"struct.std::_Vector_base<std::vector<std::pair<int, int>>, std::allocator<std::vector<std::pair<int, int>>>>::_Vector_impl_data"* %17, i32 0, i32 1, !llfi_index !1949
  store %"class.std::vector.0"* %14, %"class.std::vector.0"** %18, align 8, !llfi_index !1950
  ret void, !llfi_index !1951
}

; Function Attrs: mustprogress noinline uwtable
define linkonce_odr dso_local %"class.std::vector.0"* @_ZSt27__uninitialized_default_n_aIPSt6vectorISt4pairIiiESaIS2_EEmS4_ET_S6_T0_RSaIT1_E(%"class.std::vector.0"* %0, i64 %1, %"class.std::allocator"* nonnull align 1 dereferenceable(1) %2) #4 comdat {
  %4 = alloca %"class.std::vector.0"*, align 8, !llfi_index !1952
  %5 = alloca i64, align 8, !llfi_index !1953
  %6 = alloca %"class.std::allocator"*, align 8, !llfi_index !1954
  store %"class.std::vector.0"* %0, %"class.std::vector.0"** %4, align 8, !llfi_index !1955
  store i64 %1, i64* %5, align 8, !llfi_index !1956
  store %"class.std::allocator"* %2, %"class.std::allocator"** %6, align 8, !llfi_index !1957
  %7 = load %"class.std::vector.0"*, %"class.std::vector.0"** %4, align 8, !llfi_index !1958
  %8 = load i64, i64* %5, align 8, !llfi_index !1959
  %9 = call %"class.std::vector.0"* @_ZSt25__uninitialized_default_nIPSt6vectorISt4pairIiiESaIS2_EEmET_S6_T0_(%"class.std::vector.0"* %7, i64 %8), !llfi_index !1960
  ret %"class.std::vector.0"* %9, !llfi_index !1961
}

; Function Attrs: mustprogress noinline uwtable
define linkonce_odr dso_local %"class.std::vector.0"* @_ZSt25__uninitialized_default_nIPSt6vectorISt4pairIiiESaIS2_EEmET_S6_T0_(%"class.std::vector.0"* %0, i64 %1) #4 comdat {
  %3 = alloca %"class.std::vector.0"*, align 8, !llfi_index !1962
  %4 = alloca i64, align 8, !llfi_index !1963
  %5 = alloca i8, align 1, !llfi_index !1964
  store %"class.std::vector.0"* %0, %"class.std::vector.0"** %3, align 8, !llfi_index !1965
  store i64 %1, i64* %4, align 8, !llfi_index !1966
  store i8 1, i8* %5, align 1, !llfi_index !1967
  %6 = load %"class.std::vector.0"*, %"class.std::vector.0"** %3, align 8, !llfi_index !1968
  %7 = load i64, i64* %4, align 8, !llfi_index !1969
  %8 = call %"class.std::vector.0"* @_ZNSt27__uninitialized_default_n_1ILb0EE18__uninit_default_nIPSt6vectorISt4pairIiiESaIS4_EEmEET_S8_T0_(%"class.std::vector.0"* %6, i64 %7), !llfi_index !1970
  ret %"class.std::vector.0"* %8, !llfi_index !1971
}

; Function Attrs: mustprogress noinline uwtable
define linkonce_odr dso_local %"class.std::vector.0"* @_ZNSt27__uninitialized_default_n_1ILb0EE18__uninit_default_nIPSt6vectorISt4pairIiiESaIS4_EEmEET_S8_T0_(%"class.std::vector.0"* %0, i64 %1) #4 comdat align 2 personality i8* bitcast (i32 (...)* @__gxx_personality_v0 to i8*) {
  %3 = alloca %"class.std::vector.0"*, align 8, !llfi_index !1972
  %4 = alloca i64, align 8, !llfi_index !1973
  %5 = alloca %"class.std::vector.0"*, align 8, !llfi_index !1974
  %6 = alloca i8*, align 8, !llfi_index !1975
  %7 = alloca i32, align 4, !llfi_index !1976
  store %"class.std::vector.0"* %0, %"class.std::vector.0"** %3, align 8, !llfi_index !1977
  store i64 %1, i64* %4, align 8, !llfi_index !1978
  %8 = load %"class.std::vector.0"*, %"class.std::vector.0"** %3, align 8, !llfi_index !1979
  store %"class.std::vector.0"* %8, %"class.std::vector.0"** %5, align 8, !llfi_index !1980
  br label %9, !llfi_index !1981

9:                                                ; preds = %16, %2
  %10 = load i64, i64* %4, align 8, !llfi_index !1982
  %11 = icmp ugt i64 %10, 0, !llfi_index !1983
  br i1 %11, label %12, label %31, !llfi_index !1984

12:                                               ; preds = %9
  %13 = load %"class.std::vector.0"*, %"class.std::vector.0"** %5, align 8, !llfi_index !1985
  %14 = call %"class.std::vector.0"* @_ZSt11__addressofISt6vectorISt4pairIiiESaIS2_EEEPT_RS5_(%"class.std::vector.0"* nonnull align 8 dereferenceable(24) %13) #2, !llfi_index !1986
  invoke void @_ZSt10_ConstructISt6vectorISt4pairIiiESaIS2_EEJEEvPT_DpOT0_(%"class.std::vector.0"* %14)
          to label %15 unwind label %21, !llfi_index !1987

15:                                               ; preds = %12
  br label %16, !llfi_index !1988

16:                                               ; preds = %15
  %17 = load i64, i64* %4, align 8, !llfi_index !1989
  %18 = add i64 %17, -1, !llfi_index !1990
  store i64 %18, i64* %4, align 8, !llfi_index !1991
  %19 = load %"class.std::vector.0"*, %"class.std::vector.0"** %5, align 8, !llfi_index !1992
  %20 = getelementptr inbounds %"class.std::vector.0", %"class.std::vector.0"* %19, i32 1, !llfi_index !1993
  store %"class.std::vector.0"* %20, %"class.std::vector.0"** %5, align 8, !llfi_index !1994
  br label %9, !llvm.loop !1995, !llfi_index !1996

21:                                               ; preds = %12
  %22 = landingpad { i8*, i32 }
          catch i8* null, !llfi_index !1997
  %23 = extractvalue { i8*, i32 } %22, 0, !llfi_index !1998
  store i8* %23, i8** %6, align 8, !llfi_index !1999
  %24 = extractvalue { i8*, i32 } %22, 1, !llfi_index !2000
  store i32 %24, i32* %7, align 4, !llfi_index !2001
  br label %25, !llfi_index !2002

25:                                               ; preds = %21
  %26 = load i8*, i8** %6, align 8, !llfi_index !2003
  %27 = call i8* @__cxa_begin_catch(i8* %26) #2, !llfi_index !2004
  %28 = load %"class.std::vector.0"*, %"class.std::vector.0"** %3, align 8, !llfi_index !2005
  %29 = load %"class.std::vector.0"*, %"class.std::vector.0"** %5, align 8, !llfi_index !2006
  invoke void @_ZSt8_DestroyIPSt6vectorISt4pairIiiESaIS2_EEEvT_S6_(%"class.std::vector.0"* %28, %"class.std::vector.0"* %29)
          to label %30 unwind label %33, !llfi_index !2007

30:                                               ; preds = %25
  invoke void @__cxa_rethrow() #16
          to label %47 unwind label %33, !llfi_index !2008

31:                                               ; preds = %9
  %32 = load %"class.std::vector.0"*, %"class.std::vector.0"** %5, align 8, !llfi_index !2009
  ret %"class.std::vector.0"* %32, !llfi_index !2010

33:                                               ; preds = %30, %25
  %34 = landingpad { i8*, i32 }
          cleanup, !llfi_index !2011
  %35 = extractvalue { i8*, i32 } %34, 0, !llfi_index !2012
  store i8* %35, i8** %6, align 8, !llfi_index !2013
  %36 = extractvalue { i8*, i32 } %34, 1, !llfi_index !2014
  store i32 %36, i32* %7, align 4, !llfi_index !2015
  invoke void @__cxa_end_catch()
          to label %37 unwind label %44, !llfi_index !2016

37:                                               ; preds = %33
  br label %39, !llfi_index !2017

38:                                               ; No predecessors!
  call void @llvm.trap(), !llfi_index !2018
  unreachable, !llfi_index !2019

39:                                               ; preds = %37
  %40 = load i8*, i8** %6, align 8, !llfi_index !2020
  %41 = load i32, i32* %7, align 4, !llfi_index !2021
  %42 = insertvalue { i8*, i32 } undef, i8* %40, 0, !llfi_index !2022
  %43 = insertvalue { i8*, i32 } %42, i32 %41, 1, !llfi_index !2023
  resume { i8*, i32 } %43, !llfi_index !2024

44:                                               ; preds = %33
  %45 = landingpad { i8*, i32 }
          catch i8* null, !llfi_index !2025
  %46 = extractvalue { i8*, i32 } %45, 0, !llfi_index !2026
  call void @__clang_call_terminate(i8* %46) #15, !llfi_index !2027
  unreachable, !llfi_index !2028

47:                                               ; preds = %30
  unreachable, !llfi_index !2029
}

; Function Attrs: mustprogress noinline nounwind uwtable
define linkonce_odr dso_local void @_ZSt10_ConstructISt6vectorISt4pairIiiESaIS2_EEJEEvPT_DpOT0_(%"class.std::vector.0"* %0) #3 comdat {
  %2 = alloca %"class.std::vector.0"*, align 8, !llfi_index !2030
  store %"class.std::vector.0"* %0, %"class.std::vector.0"** %2, align 8, !llfi_index !2031
  %3 = load %"class.std::vector.0"*, %"class.std::vector.0"** %2, align 8, !llfi_index !2032
  %4 = bitcast %"class.std::vector.0"* %3 to i8*, !llfi_index !2033
  %5 = bitcast i8* %4 to %"class.std::vector.0"*, !llfi_index !2034
  %6 = bitcast %"class.std::vector.0"* %5 to i8*, !llfi_index !2035
  call void @llvm.memset.p0i8.i64(i8* align 8 %6, i8 0, i64 24, i1 false), !llfi_index !2036
  call void @_ZNSt6vectorISt4pairIiiESaIS1_EEC2Ev(%"class.std::vector.0"* nonnull align 8 dereferenceable(24) %5) #2, !llfi_index !2037
  ret void, !llfi_index !2038
}

declare dso_local void @__cxa_rethrow()

declare dso_local void @__cxa_end_catch()

; Function Attrs: cold noreturn nounwind
declare void @llvm.trap() #14

; Function Attrs: noinline nounwind uwtable
define linkonce_odr dso_local void @_ZNSt6vectorISt4pairIiiESaIS1_EEC2Ev(%"class.std::vector.0"* nonnull align 8 dereferenceable(24) %0) unnamed_addr #1 comdat align 2 {
  %2 = alloca %"class.std::vector.0"*, align 8, !llfi_index !2039
  store %"class.std::vector.0"* %0, %"class.std::vector.0"** %2, align 8, !llfi_index !2040
  %3 = load %"class.std::vector.0"*, %"class.std::vector.0"** %2, align 8, !llfi_index !2041
  %4 = bitcast %"class.std::vector.0"* %3 to %"struct.std::_Vector_base.1"*, !llfi_index !2042
  call void @_ZNSt12_Vector_baseISt4pairIiiESaIS1_EEC2Ev(%"struct.std::_Vector_base.1"* nonnull align 8 dereferenceable(24) %4) #2, !llfi_index !2043
  ret void, !llfi_index !2044
}

; Function Attrs: noinline nounwind uwtable
define linkonce_odr dso_local void @_ZNSt12_Vector_baseISt4pairIiiESaIS1_EEC2Ev(%"struct.std::_Vector_base.1"* nonnull align 8 dereferenceable(24) %0) unnamed_addr #1 comdat align 2 {
  %2 = alloca %"struct.std::_Vector_base.1"*, align 8, !llfi_index !2045
  store %"struct.std::_Vector_base.1"* %0, %"struct.std::_Vector_base.1"** %2, align 8, !llfi_index !2046
  %3 = load %"struct.std::_Vector_base.1"*, %"struct.std::_Vector_base.1"** %2, align 8, !llfi_index !2047
  %4 = getelementptr inbounds %"struct.std::_Vector_base.1", %"struct.std::_Vector_base.1"* %3, i32 0, i32 0, !llfi_index !2048
  call void @_ZNSt12_Vector_baseISt4pairIiiESaIS1_EE12_Vector_implC2Ev(%"struct.std::_Vector_base<std::pair<int, int>, std::allocator<std::pair<int, int>>>::_Vector_impl"* nonnull align 8 dereferenceable(24) %4) #2, !llfi_index !2049
  ret void, !llfi_index !2050
}

; Function Attrs: noinline nounwind uwtable
define linkonce_odr dso_local void @_ZNSt12_Vector_baseISt4pairIiiESaIS1_EE12_Vector_implC2Ev(%"struct.std::_Vector_base<std::pair<int, int>, std::allocator<std::pair<int, int>>>::_Vector_impl"* nonnull align 8 dereferenceable(24) %0) unnamed_addr #1 comdat align 2 {
  %2 = alloca %"struct.std::_Vector_base<std::pair<int, int>, std::allocator<std::pair<int, int>>>::_Vector_impl"*, align 8, !llfi_index !2051
  store %"struct.std::_Vector_base<std::pair<int, int>, std::allocator<std::pair<int, int>>>::_Vector_impl"* %0, %"struct.std::_Vector_base<std::pair<int, int>, std::allocator<std::pair<int, int>>>::_Vector_impl"** %2, align 8, !llfi_index !2052
  %3 = load %"struct.std::_Vector_base<std::pair<int, int>, std::allocator<std::pair<int, int>>>::_Vector_impl"*, %"struct.std::_Vector_base<std::pair<int, int>, std::allocator<std::pair<int, int>>>::_Vector_impl"** %2, align 8, !llfi_index !2053
  %4 = bitcast %"struct.std::_Vector_base<std::pair<int, int>, std::allocator<std::pair<int, int>>>::_Vector_impl"* %3 to %"class.std::allocator"*, !llfi_index !2054
  call void @_ZNSaISt4pairIiiEEC2Ev(%"class.std::allocator"* nonnull align 1 dereferenceable(1) %4) #2, !llfi_index !2055
  %5 = bitcast %"struct.std::_Vector_base<std::pair<int, int>, std::allocator<std::pair<int, int>>>::_Vector_impl"* %3 to %"struct.std::_Vector_base<std::pair<int, int>, std::allocator<std::pair<int, int>>>::_Vector_impl_data"*, !llfi_index !2056
  call void @_ZNSt12_Vector_baseISt4pairIiiESaIS1_EE17_Vector_impl_dataC2Ev(%"struct.std::_Vector_base<std::pair<int, int>, std::allocator<std::pair<int, int>>>::_Vector_impl_data"* nonnull align 8 dereferenceable(24) %5) #2, !llfi_index !2057
  ret void, !llfi_index !2058
}

; Function Attrs: noinline nounwind uwtable
define linkonce_odr dso_local void @_ZNSaISt4pairIiiEEC2Ev(%"class.std::allocator"* nonnull align 1 dereferenceable(1) %0) unnamed_addr #1 comdat align 2 {
  %2 = alloca %"class.std::allocator"*, align 8, !llfi_index !2059
  store %"class.std::allocator"* %0, %"class.std::allocator"** %2, align 8, !llfi_index !2060
  %3 = load %"class.std::allocator"*, %"class.std::allocator"** %2, align 8, !llfi_index !2061
  %4 = bitcast %"class.std::allocator"* %3 to %"class.std::allocator"*, !llfi_index !2062
  call void @_ZN9__gnu_cxx13new_allocatorISt4pairIiiEEC2Ev(%"class.std::allocator"* nonnull align 1 dereferenceable(1) %4) #2, !llfi_index !2063
  ret void, !llfi_index !2064
}

; Function Attrs: noinline nounwind uwtable
define linkonce_odr dso_local void @_ZNSt12_Vector_baseISt4pairIiiESaIS1_EE17_Vector_impl_dataC2Ev(%"struct.std::_Vector_base<std::pair<int, int>, std::allocator<std::pair<int, int>>>::_Vector_impl_data"* nonnull align 8 dereferenceable(24) %0) unnamed_addr #1 comdat align 2 {
  %2 = alloca %"struct.std::_Vector_base<std::pair<int, int>, std::allocator<std::pair<int, int>>>::_Vector_impl_data"*, align 8, !llfi_index !2065
  store %"struct.std::_Vector_base<std::pair<int, int>, std::allocator<std::pair<int, int>>>::_Vector_impl_data"* %0, %"struct.std::_Vector_base<std::pair<int, int>, std::allocator<std::pair<int, int>>>::_Vector_impl_data"** %2, align 8, !llfi_index !2066
