; ModuleID = '/home/hjiang/Computation-Kernel-Dataset/experiments/Fault_injection_0308_parall/O0/Airports/Airports.ll'
source_filename = "llvm-link"
target datalayout = "e-m:e-p270:32:32-p271:32:32-p272:64:64-i64:64-f80:128-n8:16:32:64-S128"
target triple = "x86_64-unknown-linux-gnu"

%"struct.std::less" = type { i8 }
%"class.std::multiset" = type { %"class.std::_Rb_tree" }
%"class.std::_Rb_tree" = type { %"struct.std::_Rb_tree<int, int, std::_Identity<int>, std::less<int>>::_Rb_tree_impl" }
%"struct.std::_Rb_tree<int, int, std::_Identity<int>, std::less<int>>::_Rb_tree_impl" = type { %"struct.std::_Rb_tree_key_compare", %"struct.std::_Rb_tree_header" }
%"struct.std::_Rb_tree_key_compare" = type { %"struct.std::less" }
%"struct.std::_Rb_tree_header" = type { %"struct.std::_Rb_tree_node_base", i64 }
%"struct.std::_Rb_tree_node_base" = type { i32, %"struct.std::_Rb_tree_node_base"*, %"struct.std::_Rb_tree_node_base"*, %"struct.std::_Rb_tree_node_base"* }
%"struct.std::_Rb_tree_const_iterator" = type { %"struct.std::_Rb_tree_node_base"* }
%struct.treap = type { i32, i32, i32, i32, i32, i32, i32, i32 }
%struct._IO_FILE = type { i32, i8*, i8*, i8*, i8*, i8*, i8*, i8*, i8*, i8*, i8*, i8*, %struct._IO_marker*, %struct._IO_FILE*, i32, i32, i64, i16, i8, [1 x i8], i8*, i64, %struct._IO_codecvt*, %struct._IO_wide_data*, %struct._IO_FILE*, i8*, i64, i32, [20 x i8] }
%struct._IO_marker = type opaque
%struct._IO_codecvt = type opaque
%struct._IO_wide_data = type opaque
%"struct.std::_Rb_tree_node" = type <{ %"struct.std::_Rb_tree_node_base", %"struct.__gnu_cxx::__aligned_membuf", [4 x i8] }>
%"struct.__gnu_cxx::__aligned_membuf" = type { [4 x i8] }
%struct.gemini = type { i32, i32 }
%"struct.std::pair" = type { %"struct.std::_Rb_tree_node_base"*, %"struct.std::_Rb_tree_node_base"* }
%"struct.std::_Rb_tree<int, int, std::_Identity<int>, std::less<int>>::_Alloc_node" = type { %"class.std::_Rb_tree"* }

$_ZN5treapC2Ev = comdat any

$_ZNSt23_Rb_tree_const_iteratorIiEC2Ev = comdat any

$_ZNSt8multisetIiSt4lessIiESaIiEEC2Ev = comdat any

$_ZNSt8multisetIiSt4lessIiESaIiEED2Ev = comdat any

$_ZNSt8_Rb_treeIiiSt9_IdentityIiESt4lessIiESaIiEED2Ev = comdat any

$_ZNSt8_Rb_treeIiiSt9_IdentityIiESt4lessIiESaIiEE8_M_beginEv = comdat any

$_ZNSt8_Rb_treeIiiSt9_IdentityIiESt4lessIiESaIiEE8_M_eraseEPSt13_Rb_tree_nodeIiE = comdat any

$_ZNSt8_Rb_treeIiiSt9_IdentityIiESt4lessIiESaIiEE13_Rb_tree_implIS3_Lb1EED2Ev = comdat any

$__clang_call_terminate = comdat any

$_ZNSaISt13_Rb_tree_nodeIiEED2Ev = comdat any

$_ZN9__gnu_cxx13new_allocatorISt13_Rb_tree_nodeIiEED2Ev = comdat any

$_ZNSt8_Rb_treeIiiSt9_IdentityIiESt4lessIiESaIiEE8_S_rightEPSt18_Rb_tree_node_base = comdat any

$_ZNSt8_Rb_treeIiiSt9_IdentityIiESt4lessIiESaIiEE7_S_leftEPSt18_Rb_tree_node_base = comdat any

$_ZNSt8_Rb_treeIiiSt9_IdentityIiESt4lessIiESaIiEE12_M_drop_nodeEPSt13_Rb_tree_nodeIiE = comdat any

$_ZNSt8_Rb_treeIiiSt9_IdentityIiESt4lessIiESaIiEE15_M_destroy_nodeEPSt13_Rb_tree_nodeIiE = comdat any

$_ZNSt8_Rb_treeIiiSt9_IdentityIiESt4lessIiESaIiEE11_M_put_nodeEPSt13_Rb_tree_nodeIiE = comdat any

$_ZNSt8_Rb_treeIiiSt9_IdentityIiESt4lessIiESaIiEE21_M_get_Node_allocatorEv = comdat any

$_ZNSt16allocator_traitsISaISt13_Rb_tree_nodeIiEEE10deallocateERS2_PS1_m = comdat any

$_ZN9__gnu_cxx13new_allocatorISt13_Rb_tree_nodeIiEE10deallocateEPS2_m = comdat any

$_ZNSt13_Rb_tree_nodeIiE9_M_valptrEv = comdat any

$_ZNSt16allocator_traitsISaISt13_Rb_tree_nodeIiEEE7destroyIiEEvRS2_PT_ = comdat any

$_ZN9__gnu_cxx13new_allocatorISt13_Rb_tree_nodeIiEE7destroyIiEEvPT_ = comdat any

$_ZN9__gnu_cxx16__aligned_membufIiE6_M_ptrEv = comdat any

$_ZN9__gnu_cxx16__aligned_membufIiE7_M_addrEv = comdat any

$_ZNSt8_Rb_treeIiiSt9_IdentityIiESt4lessIiESaIiEEC2Ev = comdat any

$_ZNSt8_Rb_treeIiiSt9_IdentityIiESt4lessIiESaIiEE13_Rb_tree_implIS3_Lb1EEC2Ev = comdat any

$_ZNSaISt13_Rb_tree_nodeIiEEC2Ev = comdat any

$_ZNSt20_Rb_tree_key_compareISt4lessIiEEC2Ev = comdat any

$_ZNSt15_Rb_tree_headerC2Ev = comdat any

$_ZNSt15_Rb_tree_header8_M_resetEv = comdat any

$_ZN9__gnu_cxx13new_allocatorISt13_Rb_tree_nodeIiEEC2Ev = comdat any

$_ZN5treap7rewriteEv = comdat any

$_ZSt3minIiERKT_S2_S2_ = comdat any

$_ZSt3maxIiERKT_S2_S2_ = comdat any

$_ZN6geminiC2Eii = comdat any

$_ZN5treapC2Ei = comdat any

$_ZNSt8multisetIiSt4lessIiESaIiEE5clearEv = comdat any

$_ZNSt8_Rb_treeIiiSt9_IdentityIiESt4lessIiESaIiEE5clearEv = comdat any

$_ZNSt8multisetIiSt4lessIiESaIiEE6insertERKi = comdat any

$_ZNSt8multisetIiSt4lessIiESaIiEE11lower_boundERKi = comdat any

$_ZNSt8multisetIiSt4lessIiESaIiEE11upper_boundERKi = comdat any

$_ZNSt23_Rb_tree_const_iteratorIiEmmEi = comdat any

$_ZNKSt23_Rb_tree_const_iteratorIiEdeEv = comdat any

$_ZNSt23_Rb_tree_const_iteratorIiEppEi = comdat any

$_ZNKSt13_Rb_tree_nodeIiE9_M_valptrEv = comdat any

$_ZNK9__gnu_cxx16__aligned_membufIiE6_M_ptrEv = comdat any

$_ZNK9__gnu_cxx16__aligned_membufIiE7_M_addrEv = comdat any

$_ZNSt8_Rb_treeIiiSt9_IdentityIiESt4lessIiESaIiEE11upper_boundERKi = comdat any

$_ZNSt23_Rb_tree_const_iteratorIiEC2ERKSt17_Rb_tree_iteratorIiE = comdat any

$_ZNSt8_Rb_treeIiiSt9_IdentityIiESt4lessIiESaIiEE6_M_endEv = comdat any

$_ZNSt8_Rb_treeIiiSt9_IdentityIiESt4lessIiESaIiEE14_M_upper_boundEPSt13_Rb_tree_nodeIiEPSt18_Rb_tree_node_baseRKi = comdat any

$_ZNSt8_Rb_treeIiiSt9_IdentityIiESt4lessIiESaIiEE6_S_keyEPKSt13_Rb_tree_nodeIiE = comdat any

$_ZNKSt4lessIiEclERKiS2_ = comdat any

$_ZNSt17_Rb_tree_iteratorIiEC2EPSt18_Rb_tree_node_base = comdat any

$_ZNKSt9_IdentityIiEclERKi = comdat any

$_ZNSt8_Rb_treeIiiSt9_IdentityIiESt4lessIiESaIiEE11lower_boundERKi = comdat any

$_ZNSt8_Rb_treeIiiSt9_IdentityIiESt4lessIiESaIiEE14_M_lower_boundEPSt13_Rb_tree_nodeIiEPSt18_Rb_tree_node_baseRKi = comdat any

$_ZNSt8_Rb_treeIiiSt9_IdentityIiESt4lessIiESaIiEE15_M_insert_equalIRKiEESt17_Rb_tree_iteratorIiEOT_ = comdat any

$_ZNSt8_Rb_treeIiiSt9_IdentityIiESt4lessIiESaIiEE23_M_get_insert_equal_posERKi = comdat any

$_ZNSt8_Rb_treeIiiSt9_IdentityIiESt4lessIiESaIiEE11_Alloc_nodeC2ERS5_ = comdat any

$_ZSt7forwardIRKiEOT_RNSt16remove_referenceIS2_E4typeE = comdat any

$_ZNSt8_Rb_treeIiiSt9_IdentityIiESt4lessIiESaIiEE10_M_insert_IRKiNS5_11_Alloc_nodeEEESt17_Rb_tree_iteratorIiEPSt18_Rb_tree_node_baseSD_OT_RT0_ = comdat any

$_ZNSt8_Rb_treeIiiSt9_IdentityIiESt4lessIiESaIiEE6_S_keyEPKSt18_Rb_tree_node_base = comdat any

$_ZNKSt8_Rb_treeIiiSt9_IdentityIiESt4lessIiESaIiEE11_Alloc_nodeclIRKiEEPSt13_Rb_tree_nodeIiEOT_ = comdat any

$_ZNSt8_Rb_treeIiiSt9_IdentityIiESt4lessIiESaIiEE14_M_create_nodeIJRKiEEEPSt13_Rb_tree_nodeIiEDpOT_ = comdat any

$_ZNSt8_Rb_treeIiiSt9_IdentityIiESt4lessIiESaIiEE11_M_get_nodeEv = comdat any

$_ZNSt8_Rb_treeIiiSt9_IdentityIiESt4lessIiESaIiEE17_M_construct_nodeIJRKiEEEvPSt13_Rb_tree_nodeIiEDpOT_ = comdat any

$_ZNSt16allocator_traitsISaISt13_Rb_tree_nodeIiEEE9constructIiJRKiEEEvRS2_PT_DpOT0_ = comdat any

$_ZN9__gnu_cxx13new_allocatorISt13_Rb_tree_nodeIiEE9constructIiJRKiEEEvPT_DpOT0_ = comdat any

$_ZNSt16allocator_traitsISaISt13_Rb_tree_nodeIiEEE8allocateERS2_m = comdat any

$_ZN9__gnu_cxx13new_allocatorISt13_Rb_tree_nodeIiEE8allocateEmPKv = comdat any

$_ZNK9__gnu_cxx13new_allocatorISt13_Rb_tree_nodeIiEE8max_sizeEv = comdat any

$_ZNSt4pairIPSt18_Rb_tree_node_baseS1_EC2IRPSt13_Rb_tree_nodeIiERS1_Lb1EEEOT_OT0_ = comdat any

$_ZSt7forwardIRPSt13_Rb_tree_nodeIiEEOT_RNSt16remove_referenceIS4_E4typeE = comdat any

$_ZSt7forwardIRPSt18_Rb_tree_node_baseEOT_RNSt16remove_referenceIS3_E4typeE = comdat any

@llvm.global_ctors = appending global [1 x { i32, void ()*, i8* }] [{ i32, void ()*, i8* } { i32 65535, void ()* @_GLOBAL__sub_I_Airports.cpp, i8* null }]
@_ZStL8__ioinit = internal global %"struct.std::less" zeroinitializer, align 1
@st = dso_local global %"class.std::multiset" zeroinitializer, align 8
@tmpl = dso_local global %"struct.std::_Rb_tree_const_iterator" zeroinitializer, align 8
@tmpr = dso_local global %"struct.std::_Rb_tree_const_iterator" zeroinitializer, align 8
@n = dso_local global i32 0, align 4
@d = dso_local global i32 0, align 4
@tot = dso_local global i32 0, align 4
@rt = dso_local global i32 0, align 4
@rdx = dso_local global i32 0, align 4
@t = dso_local global [888888 x %struct.treap] zeroinitializer, align 16
@.str = private unnamed_addr constant [24 x i8] c"../input_files/Airports\00", align 1
@.str.5 = private unnamed_addr constant [2 x i8] c"r\00", align 1
@stdin = external dso_local global %struct._IO_FILE*, align 8
@.str.6 = private unnamed_addr constant [3 x i8] c"%d\00", align 1
@.str.7 = private unnamed_addr constant [5 x i8] c"%d%d\00", align 1
@.str.8 = private unnamed_addr constant [2 x i8] c"0\00", align 1
@.str.9 = private unnamed_addr constant [3 x i8] c" 0\00", align 1
@.str.10 = private unnamed_addr constant [4 x i8] c" %d\00", align 1
@.str.11 = private unnamed_addr constant [2 x i8] c"\0A\00", align 1

; Function Attrs: noinline uwtable
define internal void @_GLOBAL__sub_I_Airports.cpp() #0 section ".text.startup" {
  call void @__cxx_global_var_init(), !llfi_index !4
  call void @__cxx_global_var_init.1(), !llfi_index !5
  call void @__cxx_global_var_init.2(), !llfi_index !6
  call void @__cxx_global_var_init.3(), !llfi_index !7
  call void @__cxx_global_var_init.4(), !llfi_index !8
  ret void, !llfi_index !9
}

; Function Attrs: noinline uwtable
define internal void @__cxx_global_var_init() #0 section ".text.startup" {
  call void @_ZNSt8ios_base4InitC1Ev(%"struct.std::less"* nonnull align 1 dereferenceable(1) @_ZStL8__ioinit), !llfi_index !10
  %1 = call i32 @atexit(void ()* @__dtor__ZStL8__ioinit) #2, !llfi_index !11
  ret void, !llfi_index !12
}

; Function Attrs: noinline uwtable
define internal void @__cxx_global_var_init.1() #0 section ".text.startup" {
  call void @_ZNSt8multisetIiSt4lessIiESaIiEEC2Ev(%"class.std::multiset"* nonnull align 8 dereferenceable(48) @st) #2, !llfi_index !13
  %1 = call i32 @atexit(void ()* @__dtor_st) #2, !llfi_index !14
  ret void, !llfi_index !15
}

; Function Attrs: noinline uwtable
define internal void @__cxx_global_var_init.2() #0 section ".text.startup" {
  call void @_ZNSt23_Rb_tree_const_iteratorIiEC2Ev(%"struct.std::_Rb_tree_const_iterator"* nonnull align 8 dereferenceable(8) @tmpl) #2, !llfi_index !16
  ret void, !llfi_index !17
}

; Function Attrs: noinline uwtable
define internal void @__cxx_global_var_init.3() #0 section ".text.startup" {
  call void @_ZNSt23_Rb_tree_const_iteratorIiEC2Ev(%"struct.std::_Rb_tree_const_iterator"* nonnull align 8 dereferenceable(8) @tmpr) #2, !llfi_index !18
  ret void, !llfi_index !19
}

; Function Attrs: noinline uwtable
define internal void @__cxx_global_var_init.4() #0 section ".text.startup" {
  br label %1, !llfi_index !20

1:                                                ; preds = %1, %0
  %2 = phi %struct.treap* [ getelementptr inbounds ([888888 x %struct.treap], [888888 x %struct.treap]* @t, i32 0, i32 0), %0 ], [ %3, %1 ], !llfi_index !21
  call void @_ZN5treapC2Ev(%struct.treap* nonnull align 4 dereferenceable(32) %2), !llfi_index !22
  %3 = getelementptr inbounds %struct.treap, %struct.treap* %2, i64 1, !llfi_index !23
  %4 = icmp eq %struct.treap* %3, getelementptr inbounds (%struct.treap, %struct.treap* getelementptr inbounds ([888888 x %struct.treap], [888888 x %struct.treap]* @t, i32 0, i32 0), i64 888888), !llfi_index !24
  br i1 %4, label %5, label %1, !llfi_index !25

5:                                                ; preds = %1
  ret void, !llfi_index !26
}

; Function Attrs: noinline nounwind uwtable
define linkonce_odr dso_local void @_ZN5treapC2Ev(%struct.treap* nonnull align 4 dereferenceable(32) %0) unnamed_addr #1 comdat align 2 {
  %2 = alloca %struct.treap*, align 8, !llfi_index !27
  store %struct.treap* %0, %struct.treap** %2, align 8, !llfi_index !28
  %3 = load %struct.treap*, %struct.treap** %2, align 8, !llfi_index !29
  %4 = getelementptr inbounds %struct.treap, %struct.treap* %3, i32 0, i32 0, !llfi_index !30
  store i32 0, i32* %4, align 4, !llfi_index !31
  %5 = getelementptr inbounds %struct.treap, %struct.treap* %3, i32 0, i32 1, !llfi_index !32
  store i32 0, i32* %5, align 4, !llfi_index !33
  %6 = getelementptr inbounds %struct.treap, %struct.treap* %3, i32 0, i32 2, !llfi_index !34
  store i32 0, i32* %6, align 4, !llfi_index !35
  %7 = getelementptr inbounds %struct.treap, %struct.treap* %3, i32 0, i32 3, !llfi_index !36
  store i32 0, i32* %7, align 4, !llfi_index !37
  %8 = getelementptr inbounds %struct.treap, %struct.treap* %3, i32 0, i32 4, !llfi_index !38
  store i32 0, i32* %8, align 4, !llfi_index !39
  %9 = getelementptr inbounds %struct.treap, %struct.treap* %3, i32 0, i32 5, !llfi_index !40
  store i32 -200000000, i32* %9, align 4, !llfi_index !41
  %10 = getelementptr inbounds %struct.treap, %struct.treap* %3, i32 0, i32 6, !llfi_index !42
  store i32 200000000, i32* %10, align 4, !llfi_index !43
  %11 = getelementptr inbounds %struct.treap, %struct.treap* %3, i32 0, i32 7, !llfi_index !44
  store i32 0, i32* %11, align 4, !llfi_index !45
  ret void, !llfi_index !46
}

; Function Attrs: noinline nounwind uwtable
define linkonce_odr dso_local void @_ZNSt23_Rb_tree_const_iteratorIiEC2Ev(%"struct.std::_Rb_tree_const_iterator"* nonnull align 8 dereferenceable(8) %0) unnamed_addr #1 comdat align 2 {
  %2 = alloca %"struct.std::_Rb_tree_const_iterator"*, align 8, !llfi_index !47
  store %"struct.std::_Rb_tree_const_iterator"* %0, %"struct.std::_Rb_tree_const_iterator"** %2, align 8, !llfi_index !48
  %3 = load %"struct.std::_Rb_tree_const_iterator"*, %"struct.std::_Rb_tree_const_iterator"** %2, align 8, !llfi_index !49
  %4 = getelementptr inbounds %"struct.std::_Rb_tree_const_iterator", %"struct.std::_Rb_tree_const_iterator"* %3, i32 0, i32 0, !llfi_index !50
  store %"struct.std::_Rb_tree_node_base"* null, %"struct.std::_Rb_tree_node_base"** %4, align 8, !llfi_index !51
  ret void, !llfi_index !52
}

; Function Attrs: noinline nounwind uwtable
define linkonce_odr dso_local void @_ZNSt8multisetIiSt4lessIiESaIiEEC2Ev(%"class.std::multiset"* nonnull align 8 dereferenceable(48) %0) unnamed_addr #1 comdat align 2 {
  %2 = alloca %"class.std::multiset"*, align 8, !llfi_index !53
  store %"class.std::multiset"* %0, %"class.std::multiset"** %2, align 8, !llfi_index !54
  %3 = load %"class.std::multiset"*, %"class.std::multiset"** %2, align 8, !llfi_index !55
  %4 = getelementptr inbounds %"class.std::multiset", %"class.std::multiset"* %3, i32 0, i32 0, !llfi_index !56
  call void @_ZNSt8_Rb_treeIiiSt9_IdentityIiESt4lessIiESaIiEEC2Ev(%"class.std::_Rb_tree"* nonnull align 8 dereferenceable(48) %4) #2, !llfi_index !57
  ret void, !llfi_index !58
}

; Function Attrs: noinline uwtable
define internal void @__dtor_st() #0 section ".text.startup" {
  call void @_ZNSt8multisetIiSt4lessIiESaIiEED2Ev(%"class.std::multiset"* @st), !llfi_index !59
  ret void, !llfi_index !60
}

; Function Attrs: nounwind
declare dso_local i32 @atexit(void ()*) #2

; Function Attrs: noinline nounwind uwtable
define linkonce_odr dso_local void @_ZNSt8multisetIiSt4lessIiESaIiEED2Ev(%"class.std::multiset"* nonnull align 8 dereferenceable(48) %0) unnamed_addr #1 comdat align 2 {
  %2 = alloca %"class.std::multiset"*, align 8, !llfi_index !61
  store %"class.std::multiset"* %0, %"class.std::multiset"** %2, align 8, !llfi_index !62
  %3 = load %"class.std::multiset"*, %"class.std::multiset"** %2, align 8, !llfi_index !63
  %4 = getelementptr inbounds %"class.std::multiset", %"class.std::multiset"* %3, i32 0, i32 0, !llfi_index !64
  call void @_ZNSt8_Rb_treeIiiSt9_IdentityIiESt4lessIiESaIiEED2Ev(%"class.std::_Rb_tree"* nonnull align 8 dereferenceable(48) %4) #2, !llfi_index !65
  ret void, !llfi_index !66
}

; Function Attrs: noinline nounwind uwtable
define linkonce_odr dso_local void @_ZNSt8_Rb_treeIiiSt9_IdentityIiESt4lessIiESaIiEED2Ev(%"class.std::_Rb_tree"* nonnull align 8 dereferenceable(48) %0) unnamed_addr #1 comdat align 2 personality i8* bitcast (i32 (...)* @__gxx_personality_v0 to i8*) {
  %2 = alloca %"class.std::_Rb_tree"*, align 8, !llfi_index !67
  %3 = alloca i8*, align 8, !llfi_index !68
  %4 = alloca i32, align 4, !llfi_index !69
  store %"class.std::_Rb_tree"* %0, %"class.std::_Rb_tree"** %2, align 8, !llfi_index !70
  %5 = load %"class.std::_Rb_tree"*, %"class.std::_Rb_tree"** %2, align 8, !llfi_index !71
  %6 = call %"struct.std::_Rb_tree_node"* @_ZNSt8_Rb_treeIiiSt9_IdentityIiESt4lessIiESaIiEE8_M_beginEv(%"class.std::_Rb_tree"* nonnull align 8 dereferenceable(48) %5) #2, !llfi_index !72
  invoke void @_ZNSt8_Rb_treeIiiSt9_IdentityIiESt4lessIiESaIiEE8_M_eraseEPSt13_Rb_tree_nodeIiE(%"class.std::_Rb_tree"* nonnull align 8 dereferenceable(48) %5, %"struct.std::_Rb_tree_node"* %6)
          to label %7 unwind label %9, !llfi_index !73

7:                                                ; preds = %1
  %8 = getelementptr inbounds %"class.std::_Rb_tree", %"class.std::_Rb_tree"* %5, i32 0, i32 0, !llfi_index !74
  call void @_ZNSt8_Rb_treeIiiSt9_IdentityIiESt4lessIiESaIiEE13_Rb_tree_implIS3_Lb1EED2Ev(%"struct.std::_Rb_tree<int, int, std::_Identity<int>, std::less<int>>::_Rb_tree_impl"* nonnull align 8 dereferenceable(48) %8) #2, !llfi_index !75
  ret void, !llfi_index !76

9:                                                ; preds = %1
  %10 = landingpad { i8*, i32 }
          catch i8* null, !llfi_index !77
  %11 = extractvalue { i8*, i32 } %10, 0, !llfi_index !78
  store i8* %11, i8** %3, align 8, !llfi_index !79
  %12 = extractvalue { i8*, i32 } %10, 1, !llfi_index !80
  store i32 %12, i32* %4, align 4, !llfi_index !81
  %13 = getelementptr inbounds %"class.std::_Rb_tree", %"class.std::_Rb_tree"* %5, i32 0, i32 0, !llfi_index !82
  call void @_ZNSt8_Rb_treeIiiSt9_IdentityIiESt4lessIiESaIiEE13_Rb_tree_implIS3_Lb1EED2Ev(%"struct.std::_Rb_tree<int, int, std::_Identity<int>, std::less<int>>::_Rb_tree_impl"* nonnull align 8 dereferenceable(48) %13) #2, !llfi_index !83
  br label %14, !llfi_index !84

14:                                               ; preds = %9
  %15 = load i8*, i8** %3, align 8, !llfi_index !85
  call void @__clang_call_terminate(i8* %15) #14, !llfi_index !86
  unreachable, !llfi_index !87
}

declare dso_local i32 @__gxx_personality_v0(...)

; Function Attrs: mustprogress noinline nounwind uwtable
define linkonce_odr dso_local %"struct.std::_Rb_tree_node"* @_ZNSt8_Rb_treeIiiSt9_IdentityIiESt4lessIiESaIiEE8_M_beginEv(%"class.std::_Rb_tree"* nonnull align 8 dereferenceable(48) %0) #3 comdat align 2 {
  %2 = alloca %"class.std::_Rb_tree"*, align 8, !llfi_index !88
  store %"class.std::_Rb_tree"* %0, %"class.std::_Rb_tree"** %2, align 8, !llfi_index !89
  %3 = load %"class.std::_Rb_tree"*, %"class.std::_Rb_tree"** %2, align 8, !llfi_index !90
  %4 = getelementptr inbounds %"class.std::_Rb_tree", %"class.std::_Rb_tree"* %3, i32 0, i32 0, !llfi_index !91
  %5 = bitcast %"struct.std::_Rb_tree<int, int, std::_Identity<int>, std::less<int>>::_Rb_tree_impl"* %4 to i8*, !llfi_index !92
  %6 = getelementptr inbounds i8, i8* %5, i64 8, !llfi_index !93
  %7 = bitcast i8* %6 to %"struct.std::_Rb_tree_header"*, !llfi_index !94
  %8 = getelementptr inbounds %"struct.std::_Rb_tree_header", %"struct.std::_Rb_tree_header"* %7, i32 0, i32 0, !llfi_index !95
  %9 = getelementptr inbounds %"struct.std::_Rb_tree_node_base", %"struct.std::_Rb_tree_node_base"* %8, i32 0, i32 1, !llfi_index !96
  %10 = load %"struct.std::_Rb_tree_node_base"*, %"struct.std::_Rb_tree_node_base"** %9, align 8, !llfi_index !97
  %11 = bitcast %"struct.std::_Rb_tree_node_base"* %10 to %"struct.std::_Rb_tree_node"*, !llfi_index !98
  ret %"struct.std::_Rb_tree_node"* %11, !llfi_index !99
}

; Function Attrs: mustprogress noinline uwtable
define linkonce_odr dso_local void @_ZNSt8_Rb_treeIiiSt9_IdentityIiESt4lessIiESaIiEE8_M_eraseEPSt13_Rb_tree_nodeIiE(%"class.std::_Rb_tree"* nonnull align 8 dereferenceable(48) %0, %"struct.std::_Rb_tree_node"* %1) #4 comdat align 2 {
  %3 = alloca %"class.std::_Rb_tree"*, align 8, !llfi_index !100
  %4 = alloca %"struct.std::_Rb_tree_node"*, align 8, !llfi_index !101
  %5 = alloca %"struct.std::_Rb_tree_node"*, align 8, !llfi_index !102
  store %"class.std::_Rb_tree"* %0, %"class.std::_Rb_tree"** %3, align 8, !llfi_index !103
  store %"struct.std::_Rb_tree_node"* %1, %"struct.std::_Rb_tree_node"** %4, align 8, !llfi_index !104
  %6 = load %"class.std::_Rb_tree"*, %"class.std::_Rb_tree"** %3, align 8, !llfi_index !105
  br label %7, !llfi_index !106

7:                                                ; preds = %10, %2
  %8 = load %"struct.std::_Rb_tree_node"*, %"struct.std::_Rb_tree_node"** %4, align 8, !llfi_index !107
  %9 = icmp ne %"struct.std::_Rb_tree_node"* %8, null, !llfi_index !108
  br i1 %9, label %10, label %19, !llfi_index !109

10:                                               ; preds = %7
  %11 = load %"struct.std::_Rb_tree_node"*, %"struct.std::_Rb_tree_node"** %4, align 8, !llfi_index !110
  %12 = bitcast %"struct.std::_Rb_tree_node"* %11 to %"struct.std::_Rb_tree_node_base"*, !llfi_index !111
  %13 = call %"struct.std::_Rb_tree_node"* @_ZNSt8_Rb_treeIiiSt9_IdentityIiESt4lessIiESaIiEE8_S_rightEPSt18_Rb_tree_node_base(%"struct.std::_Rb_tree_node_base"* %12) #2, !llfi_index !112
  call void @_ZNSt8_Rb_treeIiiSt9_IdentityIiESt4lessIiESaIiEE8_M_eraseEPSt13_Rb_tree_nodeIiE(%"class.std::_Rb_tree"* nonnull align 8 dereferenceable(48) %6, %"struct.std::_Rb_tree_node"* %13), !llfi_index !113
  %14 = load %"struct.std::_Rb_tree_node"*, %"struct.std::_Rb_tree_node"** %4, align 8, !llfi_index !114
  %15 = bitcast %"struct.std::_Rb_tree_node"* %14 to %"struct.std::_Rb_tree_node_base"*, !llfi_index !115
  %16 = call %"struct.std::_Rb_tree_node"* @_ZNSt8_Rb_treeIiiSt9_IdentityIiESt4lessIiESaIiEE7_S_leftEPSt18_Rb_tree_node_base(%"struct.std::_Rb_tree_node_base"* %15) #2, !llfi_index !116
  store %"struct.std::_Rb_tree_node"* %16, %"struct.std::_Rb_tree_node"** %5, align 8, !llfi_index !117
  %17 = load %"struct.std::_Rb_tree_node"*, %"struct.std::_Rb_tree_node"** %4, align 8, !llfi_index !118
  call void @_ZNSt8_Rb_treeIiiSt9_IdentityIiESt4lessIiESaIiEE12_M_drop_nodeEPSt13_Rb_tree_nodeIiE(%"class.std::_Rb_tree"* nonnull align 8 dereferenceable(48) %6, %"struct.std::_Rb_tree_node"* %17) #2, !llfi_index !119
  %18 = load %"struct.std::_Rb_tree_node"*, %"struct.std::_Rb_tree_node"** %5, align 8, !llfi_index !120
  store %"struct.std::_Rb_tree_node"* %18, %"struct.std::_Rb_tree_node"** %4, align 8, !llfi_index !121
  br label %7, !llvm.loop !122, !llfi_index !124

19:                                               ; preds = %7
  ret void, !llfi_index !125
}

; Function Attrs: noinline nounwind uwtable
define linkonce_odr dso_local void @_ZNSt8_Rb_treeIiiSt9_IdentityIiESt4lessIiESaIiEE13_Rb_tree_implIS3_Lb1EED2Ev(%"struct.std::_Rb_tree<int, int, std::_Identity<int>, std::less<int>>::_Rb_tree_impl"* nonnull align 8 dereferenceable(48) %0) unnamed_addr #1 comdat align 2 {
  %2 = alloca %"struct.std::_Rb_tree<int, int, std::_Identity<int>, std::less<int>>::_Rb_tree_impl"*, align 8, !llfi_index !126
  store %"struct.std::_Rb_tree<int, int, std::_Identity<int>, std::less<int>>::_Rb_tree_impl"* %0, %"struct.std::_Rb_tree<int, int, std::_Identity<int>, std::less<int>>::_Rb_tree_impl"** %2, align 8, !llfi_index !127
  %3 = load %"struct.std::_Rb_tree<int, int, std::_Identity<int>, std::less<int>>::_Rb_tree_impl"*, %"struct.std::_Rb_tree<int, int, std::_Identity<int>, std::less<int>>::_Rb_tree_impl"** %2, align 8, !llfi_index !128
  %4 = bitcast %"struct.std::_Rb_tree<int, int, std::_Identity<int>, std::less<int>>::_Rb_tree_impl"* %3 to %"struct.std::less"*, !llfi_index !129
  call void @_ZNSaISt13_Rb_tree_nodeIiEED2Ev(%"struct.std::less"* nonnull align 1 dereferenceable(1) %4) #2, !llfi_index !130
  ret void, !llfi_index !131
}

; Function Attrs: noinline noreturn nounwind
define linkonce_odr hidden void @__clang_call_terminate(i8* %0) #5 comdat {
  %2 = call i8* @__cxa_begin_catch(i8* %0) #2, !llfi_index !132
  call void @_ZSt9terminatev() #14, !llfi_index !133
  unreachable, !llfi_index !134
}

declare dso_local i8* @__cxa_begin_catch(i8*)

declare dso_local void @_ZSt9terminatev()

; Function Attrs: noinline nounwind uwtable
define linkonce_odr dso_local void @_ZNSaISt13_Rb_tree_nodeIiEED2Ev(%"struct.std::less"* nonnull align 1 dereferenceable(1) %0) unnamed_addr #1 comdat align 2 {
  %2 = alloca %"struct.std::less"*, align 8, !llfi_index !135
  store %"struct.std::less"* %0, %"struct.std::less"** %2, align 8, !llfi_index !136
  %3 = load %"struct.std::less"*, %"struct.std::less"** %2, align 8, !llfi_index !137
  %4 = bitcast %"struct.std::less"* %3 to %"struct.std::less"*, !llfi_index !138
  call void @_ZN9__gnu_cxx13new_allocatorISt13_Rb_tree_nodeIiEED2Ev(%"struct.std::less"* nonnull align 1 dereferenceable(1) %4) #2, !llfi_index !139
  ret void, !llfi_index !140
}

; Function Attrs: noinline nounwind uwtable
define linkonce_odr dso_local void @_ZN9__gnu_cxx13new_allocatorISt13_Rb_tree_nodeIiEED2Ev(%"struct.std::less"* nonnull align 1 dereferenceable(1) %0) unnamed_addr #1 comdat align 2 {
  %2 = alloca %"struct.std::less"*, align 8, !llfi_index !141
  store %"struct.std::less"* %0, %"struct.std::less"** %2, align 8, !llfi_index !142
  %3 = load %"struct.std::less"*, %"struct.std::less"** %2, align 8, !llfi_index !143
  ret void, !llfi_index !144
}

; Function Attrs: mustprogress noinline nounwind uwtable
define linkonce_odr dso_local %"struct.std::_Rb_tree_node"* @_ZNSt8_Rb_treeIiiSt9_IdentityIiESt4lessIiESaIiEE8_S_rightEPSt18_Rb_tree_node_base(%"struct.std::_Rb_tree_node_base"* %0) #3 comdat align 2 {
  %2 = alloca %"struct.std::_Rb_tree_node_base"*, align 8, !llfi_index !145
  store %"struct.std::_Rb_tree_node_base"* %0, %"struct.std::_Rb_tree_node_base"** %2, align 8, !llfi_index !146
  %3 = load %"struct.std::_Rb_tree_node_base"*, %"struct.std::_Rb_tree_node_base"** %2, align 8, !llfi_index !147
  %4 = getelementptr inbounds %"struct.std::_Rb_tree_node_base", %"struct.std::_Rb_tree_node_base"* %3, i32 0, i32 3, !llfi_index !148
  %5 = load %"struct.std::_Rb_tree_node_base"*, %"struct.std::_Rb_tree_node_base"** %4, align 8, !llfi_index !149
  %6 = bitcast %"struct.std::_Rb_tree_node_base"* %5 to %"struct.std::_Rb_tree_node"*, !llfi_index !150
  ret %"struct.std::_Rb_tree_node"* %6, !llfi_index !151
}

; Function Attrs: mustprogress noinline nounwind uwtable
define linkonce_odr dso_local %"struct.std::_Rb_tree_node"* @_ZNSt8_Rb_treeIiiSt9_IdentityIiESt4lessIiESaIiEE7_S_leftEPSt18_Rb_tree_node_base(%"struct.std::_Rb_tree_node_base"* %0) #3 comdat align 2 {
  %2 = alloca %"struct.std::_Rb_tree_node_base"*, align 8, !llfi_index !152
  store %"struct.std::_Rb_tree_node_base"* %0, %"struct.std::_Rb_tree_node_base"** %2, align 8, !llfi_index !153
  %3 = load %"struct.std::_Rb_tree_node_base"*, %"struct.std::_Rb_tree_node_base"** %2, align 8, !llfi_index !154
  %4 = getelementptr inbounds %"struct.std::_Rb_tree_node_base", %"struct.std::_Rb_tree_node_base"* %3, i32 0, i32 2, !llfi_index !155
  %5 = load %"struct.std::_Rb_tree_node_base"*, %"struct.std::_Rb_tree_node_base"** %4, align 8, !llfi_index !156
  %6 = bitcast %"struct.std::_Rb_tree_node_base"* %5 to %"struct.std::_Rb_tree_node"*, !llfi_index !157
  ret %"struct.std::_Rb_tree_node"* %6, !llfi_index !158
}

; Function Attrs: mustprogress noinline nounwind uwtable
define linkonce_odr dso_local void @_ZNSt8_Rb_treeIiiSt9_IdentityIiESt4lessIiESaIiEE12_M_drop_nodeEPSt13_Rb_tree_nodeIiE(%"class.std::_Rb_tree"* nonnull align 8 dereferenceable(48) %0, %"struct.std::_Rb_tree_node"* %1) #3 comdat align 2 {
  %3 = alloca %"class.std::_Rb_tree"*, align 8, !llfi_index !159
  %4 = alloca %"struct.std::_Rb_tree_node"*, align 8, !llfi_index !160
  store %"class.std::_Rb_tree"* %0, %"class.std::_Rb_tree"** %3, align 8, !llfi_index !161
  store %"struct.std::_Rb_tree_node"* %1, %"struct.std::_Rb_tree_node"** %4, align 8, !llfi_index !162
  %5 = load %"class.std::_Rb_tree"*, %"class.std::_Rb_tree"** %3, align 8, !llfi_index !163
  %6 = load %"struct.std::_Rb_tree_node"*, %"struct.std::_Rb_tree_node"** %4, align 8, !llfi_index !164
  call void @_ZNSt8_Rb_treeIiiSt9_IdentityIiESt4lessIiESaIiEE15_M_destroy_nodeEPSt13_Rb_tree_nodeIiE(%"class.std::_Rb_tree"* nonnull align 8 dereferenceable(48) %5, %"struct.std::_Rb_tree_node"* %6) #2, !llfi_index !165
  %7 = load %"struct.std::_Rb_tree_node"*, %"struct.std::_Rb_tree_node"** %4, align 8, !llfi_index !166
  call void @_ZNSt8_Rb_treeIiiSt9_IdentityIiESt4lessIiESaIiEE11_M_put_nodeEPSt13_Rb_tree_nodeIiE(%"class.std::_Rb_tree"* nonnull align 8 dereferenceable(48) %5, %"struct.std::_Rb_tree_node"* %7) #2, !llfi_index !167
  ret void, !llfi_index !168
}

; Function Attrs: mustprogress noinline nounwind uwtable
define linkonce_odr dso_local void @_ZNSt8_Rb_treeIiiSt9_IdentityIiESt4lessIiESaIiEE15_M_destroy_nodeEPSt13_Rb_tree_nodeIiE(%"class.std::_Rb_tree"* nonnull align 8 dereferenceable(48) %0, %"struct.std::_Rb_tree_node"* %1) #3 comdat align 2 personality i8* bitcast (i32 (...)* @__gxx_personality_v0 to i8*) {
  %3 = alloca %"class.std::_Rb_tree"*, align 8, !llfi_index !169
  %4 = alloca %"struct.std::_Rb_tree_node"*, align 8, !llfi_index !170
  store %"class.std::_Rb_tree"* %0, %"class.std::_Rb_tree"** %3, align 8, !llfi_index !171
  store %"struct.std::_Rb_tree_node"* %1, %"struct.std::_Rb_tree_node"** %4, align 8, !llfi_index !172
  %5 = load %"class.std::_Rb_tree"*, %"class.std::_Rb_tree"** %3, align 8, !llfi_index !173
  %6 = call nonnull align 1 dereferenceable(1) %"struct.std::less"* @_ZNSt8_Rb_treeIiiSt9_IdentityIiESt4lessIiESaIiEE21_M_get_Node_allocatorEv(%"class.std::_Rb_tree"* nonnull align 8 dereferenceable(48) %5) #2, !llfi_index !174
  %7 = load %"struct.std::_Rb_tree_node"*, %"struct.std::_Rb_tree_node"** %4, align 8, !llfi_index !175
  %8 = invoke i32* @_ZNSt13_Rb_tree_nodeIiE9_M_valptrEv(%"struct.std::_Rb_tree_node"* nonnull align 8 dereferenceable(36) %7)
          to label %9 unwind label %11, !llfi_index !176

9:                                                ; preds = %2
  call void @_ZNSt16allocator_traitsISaISt13_Rb_tree_nodeIiEEE7destroyIiEEvRS2_PT_(%"struct.std::less"* nonnull align 1 dereferenceable(1) %6, i32* %8) #2, !llfi_index !177
  %10 = load %"struct.std::_Rb_tree_node"*, %"struct.std::_Rb_tree_node"** %4, align 8, !llfi_index !178
  ret void, !llfi_index !179

11:                                               ; preds = %2
  %12 = landingpad { i8*, i32 }
          catch i8* null, !llfi_index !180
  %13 = extractvalue { i8*, i32 } %12, 0, !llfi_index !181
  call void @__clang_call_terminate(i8* %13) #14, !llfi_index !182
  unreachable, !llfi_index !183
}

; Function Attrs: mustprogress noinline nounwind uwtable
define linkonce_odr dso_local void @_ZNSt8_Rb_treeIiiSt9_IdentityIiESt4lessIiESaIiEE11_M_put_nodeEPSt13_Rb_tree_nodeIiE(%"class.std::_Rb_tree"* nonnull align 8 dereferenceable(48) %0, %"struct.std::_Rb_tree_node"* %1) #3 comdat align 2 personality i8* bitcast (i32 (...)* @__gxx_personality_v0 to i8*) {
  %3 = alloca %"class.std::_Rb_tree"*, align 8, !llfi_index !184
  %4 = alloca %"struct.std::_Rb_tree_node"*, align 8, !llfi_index !185
  store %"class.std::_Rb_tree"* %0, %"class.std::_Rb_tree"** %3, align 8, !llfi_index !186
  store %"struct.std::_Rb_tree_node"* %1, %"struct.std::_Rb_tree_node"** %4, align 8, !llfi_index !187
  %5 = load %"class.std::_Rb_tree"*, %"class.std::_Rb_tree"** %3, align 8, !llfi_index !188
  %6 = call nonnull align 1 dereferenceable(1) %"struct.std::less"* @_ZNSt8_Rb_treeIiiSt9_IdentityIiESt4lessIiESaIiEE21_M_get_Node_allocatorEv(%"class.std::_Rb_tree"* nonnull align 8 dereferenceable(48) %5) #2, !llfi_index !189
  %7 = load %"struct.std::_Rb_tree_node"*, %"struct.std::_Rb_tree_node"** %4, align 8, !llfi_index !190
  invoke void @_ZNSt16allocator_traitsISaISt13_Rb_tree_nodeIiEEE10deallocateERS2_PS1_m(%"struct.std::less"* nonnull align 1 dereferenceable(1) %6, %"struct.std::_Rb_tree_node"* %7, i64 1)
          to label %8 unwind label %9, !llfi_index !191

8:                                                ; preds = %2
  ret void, !llfi_index !192

9:                                                ; preds = %2
  %10 = landingpad { i8*, i32 }
          catch i8* null, !llfi_index !193
  %11 = extractvalue { i8*, i32 } %10, 0, !llfi_index !194
  call void @__clang_call_terminate(i8* %11) #14, !llfi_index !195
  unreachable, !llfi_index !196
}

; Function Attrs: mustprogress noinline nounwind uwtable
define linkonce_odr dso_local nonnull align 1 dereferenceable(1) %"struct.std::less"* @_ZNSt8_Rb_treeIiiSt9_IdentityIiESt4lessIiESaIiEE21_M_get_Node_allocatorEv(%"class.std::_Rb_tree"* nonnull align 8 dereferenceable(48) %0) #3 comdat align 2 {
  %2 = alloca %"class.std::_Rb_tree"*, align 8, !llfi_index !197
  store %"class.std::_Rb_tree"* %0, %"class.std::_Rb_tree"** %2, align 8, !llfi_index !198
  %3 = load %"class.std::_Rb_tree"*, %"class.std::_Rb_tree"** %2, align 8, !llfi_index !199
  %4 = getelementptr inbounds %"class.std::_Rb_tree", %"class.std::_Rb_tree"* %3, i32 0, i32 0, !llfi_index !200
  %5 = bitcast %"struct.std::_Rb_tree<int, int, std::_Identity<int>, std::less<int>>::_Rb_tree_impl"* %4 to %"struct.std::less"*, !llfi_index !201
  ret %"struct.std::less"* %5, !llfi_index !202
}

; Function Attrs: mustprogress noinline uwtable
define linkonce_odr dso_local void @_ZNSt16allocator_traitsISaISt13_Rb_tree_nodeIiEEE10deallocateERS2_PS1_m(%"struct.std::less"* nonnull align 1 dereferenceable(1) %0, %"struct.std::_Rb_tree_node"* %1, i64 %2) #4 comdat align 2 {
  %4 = alloca %"struct.std::less"*, align 8, !llfi_index !203
  %5 = alloca %"struct.std::_Rb_tree_node"*, align 8, !llfi_index !204
  %6 = alloca i64, align 8, !llfi_index !205
  store %"struct.std::less"* %0, %"struct.std::less"** %4, align 8, !llfi_index !206
  store %"struct.std::_Rb_tree_node"* %1, %"struct.std::_Rb_tree_node"** %5, align 8, !llfi_index !207
  store i64 %2, i64* %6, align 8, !llfi_index !208
  %7 = load %"struct.std::less"*, %"struct.std::less"** %4, align 8, !llfi_index !209
  %8 = bitcast %"struct.std::less"* %7 to %"struct.std::less"*, !llfi_index !210
  %9 = load %"struct.std::_Rb_tree_node"*, %"struct.std::_Rb_tree_node"** %5, align 8, !llfi_index !211
  %10 = load i64, i64* %6, align 8, !llfi_index !212
  call void @_ZN9__gnu_cxx13new_allocatorISt13_Rb_tree_nodeIiEE10deallocateEPS2_m(%"struct.std::less"* nonnull align 1 dereferenceable(1) %8, %"struct.std::_Rb_tree_node"* %9, i64 %10), !llfi_index !213
  ret void, !llfi_index !214
}

; Function Attrs: mustprogress noinline nounwind uwtable
define linkonce_odr dso_local void @_ZN9__gnu_cxx13new_allocatorISt13_Rb_tree_nodeIiEE10deallocateEPS2_m(%"struct.std::less"* nonnull align 1 dereferenceable(1) %0, %"struct.std::_Rb_tree_node"* %1, i64 %2) #3 comdat align 2 {
  %4 = alloca %"struct.std::less"*, align 8, !llfi_index !215
  %5 = alloca %"struct.std::_Rb_tree_node"*, align 8, !llfi_index !216
  %6 = alloca i64, align 8, !llfi_index !217
  store %"struct.std::less"* %0, %"struct.std::less"** %4, align 8, !llfi_index !218
  store %"struct.std::_Rb_tree_node"* %1, %"struct.std::_Rb_tree_node"** %5, align 8, !llfi_index !219
  store i64 %2, i64* %6, align 8, !llfi_index !220
  %7 = load %"struct.std::less"*, %"struct.std::less"** %4, align 8, !llfi_index !221
  %8 = load %"struct.std::_Rb_tree_node"*, %"struct.std::_Rb_tree_node"** %5, align 8, !llfi_index !222
  %9 = bitcast %"struct.std::_Rb_tree_node"* %8 to i8*, !llfi_index !223
  call void @_ZdlPv(i8* %9) #2, !llfi_index !224
  ret void, !llfi_index !225
}

; Function Attrs: nobuiltin nounwind
declare dso_local void @_ZdlPv(i8*) #6

; Function Attrs: mustprogress noinline nounwind uwtable
define linkonce_odr dso_local i32* @_ZNSt13_Rb_tree_nodeIiE9_M_valptrEv(%"struct.std::_Rb_tree_node"* nonnull align 8 dereferenceable(36) %0) #3 comdat align 2 {
  %2 = alloca %"struct.std::_Rb_tree_node"*, align 8, !llfi_index !226
  store %"struct.std::_Rb_tree_node"* %0, %"struct.std::_Rb_tree_node"** %2, align 8, !llfi_index !227
  %3 = load %"struct.std::_Rb_tree_node"*, %"struct.std::_Rb_tree_node"** %2, align 8, !llfi_index !228
  %4 = getelementptr inbounds %"struct.std::_Rb_tree_node", %"struct.std::_Rb_tree_node"* %3, i32 0, i32 1, !llfi_index !229
  %5 = call i32* @_ZN9__gnu_cxx16__aligned_membufIiE6_M_ptrEv(%"struct.__gnu_cxx::__aligned_membuf"* nonnull align 4 dereferenceable(4) %4) #2, !llfi_index !230
  ret i32* %5, !llfi_index !231
}

; Function Attrs: mustprogress noinline nounwind uwtable
define linkonce_odr dso_local void @_ZNSt16allocator_traitsISaISt13_Rb_tree_nodeIiEEE7destroyIiEEvRS2_PT_(%"struct.std::less"* nonnull align 1 dereferenceable(1) %0, i32* %1) #3 comdat align 2 {
  %3 = alloca %"struct.std::less"*, align 8, !llfi_index !232
  %4 = alloca i32*, align 8, !llfi_index !233
  store %"struct.std::less"* %0, %"struct.std::less"** %3, align 8, !llfi_index !234
  store i32* %1, i32** %4, align 8, !llfi_index !235
  %5 = load %"struct.std::less"*, %"struct.std::less"** %3, align 8, !llfi_index !236
  %6 = bitcast %"struct.std::less"* %5 to %"struct.std::less"*, !llfi_index !237
  %7 = load i32*, i32** %4, align 8, !llfi_index !238
  call void @_ZN9__gnu_cxx13new_allocatorISt13_Rb_tree_nodeIiEE7destroyIiEEvPT_(%"struct.std::less"* nonnull align 1 dereferenceable(1) %6, i32* %7) #2, !llfi_index !239
  ret void, !llfi_index !240
}

; Function Attrs: mustprogress noinline nounwind uwtable
define linkonce_odr dso_local void @_ZN9__gnu_cxx13new_allocatorISt13_Rb_tree_nodeIiEE7destroyIiEEvPT_(%"struct.std::less"* nonnull align 1 dereferenceable(1) %0, i32* %1) #3 comdat align 2 {
  %3 = alloca %"struct.std::less"*, align 8, !llfi_index !241
  %4 = alloca i32*, align 8, !llfi_index !242
  store %"struct.std::less"* %0, %"struct.std::less"** %3, align 8, !llfi_index !243
  store i32* %1, i32** %4, align 8, !llfi_index !244
  %5 = load %"struct.std::less"*, %"struct.std::less"** %3, align 8, !llfi_index !245
  %6 = load i32*, i32** %4, align 8, !llfi_index !246
  ret void, !llfi_index !247
}

; Function Attrs: mustprogress noinline nounwind uwtable
define linkonce_odr dso_local i32* @_ZN9__gnu_cxx16__aligned_membufIiE6_M_ptrEv(%"struct.__gnu_cxx::__aligned_membuf"* nonnull align 4 dereferenceable(4) %0) #3 comdat align 2 {
  %2 = alloca %"struct.__gnu_cxx::__aligned_membuf"*, align 8, !llfi_index !248
  store %"struct.__gnu_cxx::__aligned_membuf"* %0, %"struct.__gnu_cxx::__aligned_membuf"** %2, align 8, !llfi_index !249
  %3 = load %"struct.__gnu_cxx::__aligned_membuf"*, %"struct.__gnu_cxx::__aligned_membuf"** %2, align 8, !llfi_index !250
  %4 = call i8* @_ZN9__gnu_cxx16__aligned_membufIiE7_M_addrEv(%"struct.__gnu_cxx::__aligned_membuf"* nonnull align 4 dereferenceable(4) %3) #2, !llfi_index !251
  %5 = bitcast i8* %4 to i32*, !llfi_index !252
  ret i32* %5, !llfi_index !253
}

; Function Attrs: mustprogress noinline nounwind uwtable
define linkonce_odr dso_local i8* @_ZN9__gnu_cxx16__aligned_membufIiE7_M_addrEv(%"struct.__gnu_cxx::__aligned_membuf"* nonnull align 4 dereferenceable(4) %0) #3 comdat align 2 {
  %2 = alloca %"struct.__gnu_cxx::__aligned_membuf"*, align 8, !llfi_index !254
  store %"struct.__gnu_cxx::__aligned_membuf"* %0, %"struct.__gnu_cxx::__aligned_membuf"** %2, align 8, !llfi_index !255
  %3 = load %"struct.__gnu_cxx::__aligned_membuf"*, %"struct.__gnu_cxx::__aligned_membuf"** %2, align 8, !llfi_index !256
  %4 = getelementptr inbounds %"struct.__gnu_cxx::__aligned_membuf", %"struct.__gnu_cxx::__aligned_membuf"* %3, i32 0, i32 0, !llfi_index !257
  %5 = bitcast [4 x i8]* %4 to i8*, !llfi_index !258
  ret i8* %5, !llfi_index !259
}

; Function Attrs: noinline nounwind uwtable
define linkonce_odr dso_local void @_ZNSt8_Rb_treeIiiSt9_IdentityIiESt4lessIiESaIiEEC2Ev(%"class.std::_Rb_tree"* nonnull align 8 dereferenceable(48) %0) unnamed_addr #1 comdat align 2 {
  %2 = alloca %"class.std::_Rb_tree"*, align 8, !llfi_index !260
  store %"class.std::_Rb_tree"* %0, %"class.std::_Rb_tree"** %2, align 8, !llfi_index !261
  %3 = load %"class.std::_Rb_tree"*, %"class.std::_Rb_tree"** %2, align 8, !llfi_index !262
  %4 = getelementptr inbounds %"class.std::_Rb_tree", %"class.std::_Rb_tree"* %3, i32 0, i32 0, !llfi_index !263
  call void @_ZNSt8_Rb_treeIiiSt9_IdentityIiESt4lessIiESaIiEE13_Rb_tree_implIS3_Lb1EEC2Ev(%"struct.std::_Rb_tree<int, int, std::_Identity<int>, std::less<int>>::_Rb_tree_impl"* nonnull align 8 dereferenceable(48) %4) #2, !llfi_index !264
  ret void, !llfi_index !265
}

; Function Attrs: noinline nounwind uwtable
define linkonce_odr dso_local void @_ZNSt8_Rb_treeIiiSt9_IdentityIiESt4lessIiESaIiEE13_Rb_tree_implIS3_Lb1EEC2Ev(%"struct.std::_Rb_tree<int, int, std::_Identity<int>, std::less<int>>::_Rb_tree_impl"* nonnull align 8 dereferenceable(48) %0) unnamed_addr #1 comdat align 2 {
  %2 = alloca %"struct.std::_Rb_tree<int, int, std::_Identity<int>, std::less<int>>::_Rb_tree_impl"*, align 8, !llfi_index !266
  store %"struct.std::_Rb_tree<int, int, std::_Identity<int>, std::less<int>>::_Rb_tree_impl"* %0, %"struct.std::_Rb_tree<int, int, std::_Identity<int>, std::less<int>>::_Rb_tree_impl"** %2, align 8, !llfi_index !267
  %3 = load %"struct.std::_Rb_tree<int, int, std::_Identity<int>, std::less<int>>::_Rb_tree_impl"*, %"struct.std::_Rb_tree<int, int, std::_Identity<int>, std::less<int>>::_Rb_tree_impl"** %2, align 8, !llfi_index !268
  %4 = bitcast %"struct.std::_Rb_tree<int, int, std::_Identity<int>, std::less<int>>::_Rb_tree_impl"* %3 to %"struct.std::less"*, !llfi_index !269
  call void @_ZNSaISt13_Rb_tree_nodeIiEEC2Ev(%"struct.std::less"* nonnull align 1 dereferenceable(1) %4) #2, !llfi_index !270
  %5 = bitcast %"struct.std::_Rb_tree<int, int, std::_Identity<int>, std::less<int>>::_Rb_tree_impl"* %3 to %"struct.std::_Rb_tree_key_compare"*, !llfi_index !271
  call void @_ZNSt20_Rb_tree_key_compareISt4lessIiEEC2Ev(%"struct.std::_Rb_tree_key_compare"* nonnull align 1 dereferenceable(1) %5) #2, !llfi_index !272
  %6 = bitcast %"struct.std::_Rb_tree<int, int, std::_Identity<int>, std::less<int>>::_Rb_tree_impl"* %3 to i8*, !llfi_index !273
  %7 = getelementptr inbounds i8, i8* %6, i64 8, !llfi_index !274
  %8 = bitcast i8* %7 to %"struct.std::_Rb_tree_header"*, !llfi_index !275
  call void @_ZNSt15_Rb_tree_headerC2Ev(%"struct.std::_Rb_tree_header"* nonnull align 8 dereferenceable(40) %8) #2, !llfi_index !276
  ret void, !llfi_index !277
}

; Function Attrs: noinline nounwind uwtable
define linkonce_odr dso_local void @_ZNSaISt13_Rb_tree_nodeIiEEC2Ev(%"struct.std::less"* nonnull align 1 dereferenceable(1) %0) unnamed_addr #1 comdat align 2 {
  %2 = alloca %"struct.std::less"*, align 8, !llfi_index !278
  store %"struct.std::less"* %0, %"struct.std::less"** %2, align 8, !llfi_index !279
  %3 = load %"struct.std::less"*, %"struct.std::less"** %2, align 8, !llfi_index !280
  %4 = bitcast %"struct.std::less"* %3 to %"struct.std::less"*, !llfi_index !281
  call void @_ZN9__gnu_cxx13new_allocatorISt13_Rb_tree_nodeIiEEC2Ev(%"struct.std::less"* nonnull align 1 dereferenceable(1) %4) #2, !llfi_index !282
  ret void, !llfi_index !283
}

; Function Attrs: noinline nounwind uwtable
define linkonce_odr dso_local void @_ZNSt20_Rb_tree_key_compareISt4lessIiEEC2Ev(%"struct.std::_Rb_tree_key_compare"* nonnull align 1 dereferenceable(1) %0) unnamed_addr #1 comdat align 2 {
  %2 = alloca %"struct.std::_Rb_tree_key_compare"*, align 8, !llfi_index !284
  store %"struct.std::_Rb_tree_key_compare"* %0, %"struct.std::_Rb_tree_key_compare"** %2, align 8, !llfi_index !285
  %3 = load %"struct.std::_Rb_tree_key_compare"*, %"struct.std::_Rb_tree_key_compare"** %2, align 8, !llfi_index !286
  %4 = getelementptr inbounds %"struct.std::_Rb_tree_key_compare", %"struct.std::_Rb_tree_key_compare"* %3, i32 0, i32 0, !llfi_index !287
  ret void, !llfi_index !288
}

; Function Attrs: noinline nounwind uwtable
define linkonce_odr dso_local void @_ZNSt15_Rb_tree_headerC2Ev(%"struct.std::_Rb_tree_header"* nonnull align 8 dereferenceable(40) %0) unnamed_addr #1 comdat align 2 personality i8* bitcast (i32 (...)* @__gxx_personality_v0 to i8*) {
  %2 = alloca %"struct.std::_Rb_tree_header"*, align 8, !llfi_index !289
  store %"struct.std::_Rb_tree_header"* %0, %"struct.std::_Rb_tree_header"** %2, align 8, !llfi_index !290
  %3 = load %"struct.std::_Rb_tree_header"*, %"struct.std::_Rb_tree_header"** %2, align 8, !llfi_index !291
  %4 = getelementptr inbounds %"struct.std::_Rb_tree_header", %"struct.std::_Rb_tree_header"* %3, i32 0, i32 0, !llfi_index !292
  %5 = getelementptr inbounds %"struct.std::_Rb_tree_header", %"struct.std::_Rb_tree_header"* %3, i32 0, i32 0, !llfi_index !293
  %6 = getelementptr inbounds %"struct.std::_Rb_tree_node_base", %"struct.std::_Rb_tree_node_base"* %5, i32 0, i32 0, !llfi_index !294
  store i32 0, i32* %6, align 8, !llfi_index !295
  invoke void @_ZNSt15_Rb_tree_header8_M_resetEv(%"struct.std::_Rb_tree_header"* nonnull align 8 dereferenceable(40) %3)
          to label %7 unwind label %8, !llfi_index !296

7:                                                ; preds = %1
  ret void, !llfi_index !297

8:                                                ; preds = %1
  %9 = landingpad { i8*, i32 }
          catch i8* null, !llfi_index !298
  %10 = extractvalue { i8*, i32 } %9, 0, !llfi_index !299
  call void @__clang_call_terminate(i8* %10) #14, !llfi_index !300
  unreachable, !llfi_index !301
}

; Function Attrs: mustprogress noinline nounwind uwtable
define linkonce_odr dso_local void @_ZNSt15_Rb_tree_header8_M_resetEv(%"struct.std::_Rb_tree_header"* nonnull align 8 dereferenceable(40) %0) #3 comdat align 2 {
  %2 = alloca %"struct.std::_Rb_tree_header"*, align 8, !llfi_index !302
  store %"struct.std::_Rb_tree_header"* %0, %"struct.std::_Rb_tree_header"** %2, align 8, !llfi_index !303
  %3 = load %"struct.std::_Rb_tree_header"*, %"struct.std::_Rb_tree_header"** %2, align 8, !llfi_index !304
  %4 = getelementptr inbounds %"struct.std::_Rb_tree_header", %"struct.std::_Rb_tree_header"* %3, i32 0, i32 0, !llfi_index !305
  %5 = getelementptr inbounds %"struct.std::_Rb_tree_node_base", %"struct.std::_Rb_tree_node_base"* %4, i32 0, i32 1, !llfi_index !306
  store %"struct.std::_Rb_tree_node_base"* null, %"struct.std::_Rb_tree_node_base"** %5, align 8, !llfi_index !307
  %6 = getelementptr inbounds %"struct.std::_Rb_tree_header", %"struct.std::_Rb_tree_header"* %3, i32 0, i32 0, !llfi_index !308
  %7 = getelementptr inbounds %"struct.std::_Rb_tree_header", %"struct.std::_Rb_tree_header"* %3, i32 0, i32 0, !llfi_index !309
  %8 = getelementptr inbounds %"struct.std::_Rb_tree_node_base", %"struct.std::_Rb_tree_node_base"* %7, i32 0, i32 2, !llfi_index !310
  store %"struct.std::_Rb_tree_node_base"* %6, %"struct.std::_Rb_tree_node_base"** %8, align 8, !llfi_index !311
  %9 = getelementptr inbounds %"struct.std::_Rb_tree_header", %"struct.std::_Rb_tree_header"* %3, i32 0, i32 0, !llfi_index !312
  %10 = getelementptr inbounds %"struct.std::_Rb_tree_header", %"struct.std::_Rb_tree_header"* %3, i32 0, i32 0, !llfi_index !313
  %11 = getelementptr inbounds %"struct.std::_Rb_tree_node_base", %"struct.std::_Rb_tree_node_base"* %10, i32 0, i32 3, !llfi_index !314
  store %"struct.std::_Rb_tree_node_base"* %9, %"struct.std::_Rb_tree_node_base"** %11, align 8, !llfi_index !315
  %12 = getelementptr inbounds %"struct.std::_Rb_tree_header", %"struct.std::_Rb_tree_header"* %3, i32 0, i32 1, !llfi_index !316
  store i64 0, i64* %12, align 8, !llfi_index !317
  ret void, !llfi_index !318
}

; Function Attrs: noinline nounwind uwtable
define linkonce_odr dso_local void @_ZN9__gnu_cxx13new_allocatorISt13_Rb_tree_nodeIiEEC2Ev(%"struct.std::less"* nonnull align 1 dereferenceable(1) %0) unnamed_addr #1 comdat align 2 {
  %2 = alloca %"struct.std::less"*, align 8, !llfi_index !319
  store %"struct.std::less"* %0, %"struct.std::less"** %2, align 8, !llfi_index !320
  %3 = load %"struct.std::less"*, %"struct.std::less"** %2, align 8, !llfi_index !321
  ret void, !llfi_index !322
}

declare dso_local void @_ZNSt8ios_base4InitC1Ev(%"struct.std::less"* nonnull align 1 dereferenceable(1)) unnamed_addr #7

; Function Attrs: noinline uwtable
define internal void @__dtor__ZStL8__ioinit() #0 section ".text.startup" {
  call void @_ZNSt8ios_base4InitD1Ev(%"struct.std::less"* @_ZStL8__ioinit), !llfi_index !323
  ret void, !llfi_index !324
}

; Function Attrs: nounwind
declare dso_local void @_ZNSt8ios_base4InitD1Ev(%"struct.std::less"* nonnull align 1 dereferenceable(1)) unnamed_addr #8

; Function Attrs: mustprogress noinline nounwind uwtable
define dso_local i32 @_Z4absti(i32 %0) #3 {
  %2 = alloca i32, align 4, !llfi_index !325
  store i32 %0, i32* %2, align 4, !llfi_index !326
  %3 = load i32, i32* %2, align 4, !llfi_index !327
  %4 = icmp sge i32 %3, 0, !llfi_index !328
  br i1 %4, label %5, label %7, !llfi_index !329

5:                                                ; preds = %1
  %6 = load i32, i32* %2, align 4, !llfi_index !330
  br label %10, !llfi_index !331

7:                                                ; preds = %1
  %8 = load i32, i32* %2, align 4, !llfi_index !332
  %9 = sub nsw i32 0, %8, !llfi_index !333
  br label %10, !llfi_index !334

10:                                               ; preds = %7, %5
  %11 = phi i32 [ %6, %5 ], [ %9, %7 ], !llfi_index !335
  ret i32 %11, !llfi_index !336
}

; Function Attrs: mustprogress noinline uwtable
define dso_local void @_Z6updatei(i32 %0) #4 {
  %2 = alloca i32, align 4, !llfi_index !337
  %3 = alloca i32, align 4, !llfi_index !338
  %4 = alloca i32, align 4, !llfi_index !339
  %5 = alloca i32, align 4, !llfi_index !340
  %6 = alloca i32, align 4, !llfi_index !341
  store i32 %0, i32* %2, align 4, !llfi_index !342
  %7 = load i32, i32* %2, align 4, !llfi_index !343
  %8 = sext i32 %7 to i64, !llfi_index !344
  %9 = getelementptr inbounds [888888 x %struct.treap], [888888 x %struct.treap]* @t, i64 0, i64 %8, !llfi_index !345
  %10 = getelementptr inbounds %struct.treap, %struct.treap* %9, i32 0, i32 0, !llfi_index !346
  %11 = load i32, i32* %10, align 16, !llfi_index !347
  store i32 %11, i32* %3, align 4, !llfi_index !348
  %12 = load i32, i32* %2, align 4, !llfi_index !349
  %13 = sext i32 %12 to i64, !llfi_index !350
  %14 = getelementptr inbounds [888888 x %struct.treap], [888888 x %struct.treap]* @t, i64 0, i64 %13, !llfi_index !351
  %15 = getelementptr inbounds %struct.treap, %struct.treap* %14, i32 0, i32 1, !llfi_index !352
  %16 = load i32, i32* %15, align 4, !llfi_index !353
  store i32 %16, i32* %4, align 4, !llfi_index !354
  %17 = load i32, i32* %2, align 4, !llfi_index !355
  %18 = sext i32 %17 to i64, !llfi_index !356
  %19 = getelementptr inbounds [888888 x %struct.treap], [888888 x %struct.treap]* @t, i64 0, i64 %18, !llfi_index !357
  call void @_ZN5treap7rewriteEv(%struct.treap* nonnull align 4 dereferenceable(32) %19), !llfi_index !358
  %20 = load i32, i32* %3, align 4, !llfi_index !359
  %21 = icmp ne i32 %20, 0, !llfi_index !360
  br i1 %21, label %22, label %74, !llfi_index !361

22:                                               ; preds = %1
  %23 = load i32, i32* %3, align 4, !llfi_index !362
  %24 = sext i32 %23 to i64, !llfi_index !363
  %25 = getelementptr inbounds [888888 x %struct.treap], [888888 x %struct.treap]* @t, i64 0, i64 %24, !llfi_index !364
  %26 = getelementptr inbounds %struct.treap, %struct.treap* %25, i32 0, i32 4, !llfi_index !365
  %27 = load i32, i32* %26, align 16, !llfi_index !366
  %28 = load i32, i32* %2, align 4, !llfi_index !367
  %29 = sext i32 %28 to i64, !llfi_index !368
  %30 = getelementptr inbounds [888888 x %struct.treap], [888888 x %struct.treap]* @t, i64 0, i64 %29, !llfi_index !369
  %31 = getelementptr inbounds %struct.treap, %struct.treap* %30, i32 0, i32 4, !llfi_index !370
  %32 = load i32, i32* %31, align 16, !llfi_index !371
  %33 = add nsw i32 %32, %27, !llfi_index !372
  store i32 %33, i32* %31, align 16, !llfi_index !373
  %34 = load i32, i32* %2, align 4, !llfi_index !374
  %35 = sext i32 %34 to i64, !llfi_index !375
  %36 = getelementptr inbounds [888888 x %struct.treap], [888888 x %struct.treap]* @t, i64 0, i64 %35, !llfi_index !376
  %37 = getelementptr inbounds %struct.treap, %struct.treap* %36, i32 0, i32 6, !llfi_index !377
  %38 = load i32, i32* %3, align 4, !llfi_index !378
  %39 = sext i32 %38 to i64, !llfi_index !379
  %40 = getelementptr inbounds [888888 x %struct.treap], [888888 x %struct.treap]* @t, i64 0, i64 %39, !llfi_index !380
  %41 = getelementptr inbounds %struct.treap, %struct.treap* %40, i32 0, i32 6, !llfi_index !381
  %42 = call nonnull align 4 dereferenceable(4) i32* @_ZSt3minIiERKT_S2_S2_(i32* nonnull align 4 dereferenceable(4) %37, i32* nonnull align 4 dereferenceable(4) %41), !llfi_index !382
  %43 = load i32, i32* %42, align 4, !llfi_index !383
  %44 = load i32, i32* %2, align 4, !llfi_index !384
  %45 = sext i32 %44 to i64, !llfi_index !385
  %46 = getelementptr inbounds [888888 x %struct.treap], [888888 x %struct.treap]* @t, i64 0, i64 %45, !llfi_index !386
  %47 = getelementptr inbounds %struct.treap, %struct.treap* %46, i32 0, i32 6, !llfi_index !387
  store i32 %43, i32* %47, align 8, !llfi_index !388
  %48 = load i32, i32* %2, align 4, !llfi_index !389
  %49 = sext i32 %48 to i64, !llfi_index !390
  %50 = getelementptr inbounds [888888 x %struct.treap], [888888 x %struct.treap]* @t, i64 0, i64 %49, !llfi_index !391
  %51 = getelementptr inbounds %struct.treap, %struct.treap* %50, i32 0, i32 7, !llfi_index !392
  %52 = load i32, i32* %2, align 4, !llfi_index !393
  %53 = sext i32 %52 to i64, !llfi_index !394
  %54 = getelementptr inbounds [888888 x %struct.treap], [888888 x %struct.treap]* @t, i64 0, i64 %53, !llfi_index !395
  %55 = getelementptr inbounds %struct.treap, %struct.treap* %54, i32 0, i32 2, !llfi_index !396
  %56 = load i32, i32* %55, align 8, !llfi_index !397
  %57 = load i32, i32* %3, align 4, !llfi_index !398
  %58 = sext i32 %57 to i64, !llfi_index !399
  %59 = getelementptr inbounds [888888 x %struct.treap], [888888 x %struct.treap]* @t, i64 0, i64 %58, !llfi_index !400
  %60 = getelementptr inbounds %struct.treap, %struct.treap* %59, i32 0, i32 5, !llfi_index !401
  %61 = load i32, i32* %60, align 4, !llfi_index !402
  %62 = sub nsw i32 %56, %61, !llfi_index !403
  store i32 %62, i32* %5, align 4, !llfi_index !404
  %63 = load i32, i32* %3, align 4, !llfi_index !405
  %64 = sext i32 %63 to i64, !llfi_index !406
  %65 = getelementptr inbounds [888888 x %struct.treap], [888888 x %struct.treap]* @t, i64 0, i64 %64, !llfi_index !407
  %66 = getelementptr inbounds %struct.treap, %struct.treap* %65, i32 0, i32 7, !llfi_index !408
  %67 = call nonnull align 4 dereferenceable(4) i32* @_ZSt3maxIiERKT_S2_S2_(i32* nonnull align 4 dereferenceable(4) %5, i32* nonnull align 4 dereferenceable(4) %66), !llfi_index !409
  %68 = call nonnull align 4 dereferenceable(4) i32* @_ZSt3maxIiERKT_S2_S2_(i32* nonnull align 4 dereferenceable(4) %51, i32* nonnull align 4 dereferenceable(4) %67), !llfi_index !410
  %69 = load i32, i32* %68, align 4, !llfi_index !411
  %70 = load i32, i32* %2, align 4, !llfi_index !412
  %71 = sext i32 %70 to i64, !llfi_index !413
  %72 = getelementptr inbounds [888888 x %struct.treap], [888888 x %struct.treap]* @t, i64 0, i64 %71, !llfi_index !414
  %73 = getelementptr inbounds %struct.treap, %struct.treap* %72, i32 0, i32 7, !llfi_index !415
  store i32 %69, i32* %73, align 4, !llfi_index !416
  br label %74, !llfi_index !417

74:                                               ; preds = %22, %1
  %75 = load i32, i32* %4, align 4, !llfi_index !418
  %76 = icmp ne i32 %75, 0, !llfi_index !419
  br i1 %76, label %77, label %129, !llfi_index !420

77:                                               ; preds = %74
  %78 = load i32, i32* %4, align 4, !llfi_index !421
  %79 = sext i32 %78 to i64, !llfi_index !422
  %80 = getelementptr inbounds [888888 x %struct.treap], [888888 x %struct.treap]* @t, i64 0, i64 %79, !llfi_index !423
  %81 = getelementptr inbounds %struct.treap, %struct.treap* %80, i32 0, i32 4, !llfi_index !424
  %82 = load i32, i32* %81, align 16, !llfi_index !425
  %83 = load i32, i32* %2, align 4, !llfi_index !426
  %84 = sext i32 %83 to i64, !llfi_index !427
  %85 = getelementptr inbounds [888888 x %struct.treap], [888888 x %struct.treap]* @t, i64 0, i64 %84, !llfi_index !428
  %86 = getelementptr inbounds %struct.treap, %struct.treap* %85, i32 0, i32 4, !llfi_index !429
  %87 = load i32, i32* %86, align 16, !llfi_index !430
  %88 = add nsw i32 %87, %82, !llfi_index !431
  store i32 %88, i32* %86, align 16, !llfi_index !432
  %89 = load i32, i32* %2, align 4, !llfi_index !433
  %90 = sext i32 %89 to i64, !llfi_index !434
  %91 = getelementptr inbounds [888888 x %struct.treap], [888888 x %struct.treap]* @t, i64 0, i64 %90, !llfi_index !435
  %92 = getelementptr inbounds %struct.treap, %struct.treap* %91, i32 0, i32 5, !llfi_index !436
  %93 = load i32, i32* %4, align 4, !llfi_index !437
  %94 = sext i32 %93 to i64, !llfi_index !438
  %95 = getelementptr inbounds [888888 x %struct.treap], [888888 x %struct.treap]* @t, i64 0, i64 %94, !llfi_index !439
  %96 = getelementptr inbounds %struct.treap, %struct.treap* %95, i32 0, i32 5, !llfi_index !440
  %97 = call nonnull align 4 dereferenceable(4) i32* @_ZSt3maxIiERKT_S2_S2_(i32* nonnull align 4 dereferenceable(4) %92, i32* nonnull align 4 dereferenceable(4) %96), !llfi_index !441
  %98 = load i32, i32* %97, align 4, !llfi_index !442
  %99 = load i32, i32* %2, align 4, !llfi_index !443
  %100 = sext i32 %99 to i64, !llfi_index !444
  %101 = getelementptr inbounds [888888 x %struct.treap], [888888 x %struct.treap]* @t, i64 0, i64 %100, !llfi_index !445
  %102 = getelementptr inbounds %struct.treap, %struct.treap* %101, i32 0, i32 5, !llfi_index !446
  store i32 %98, i32* %102, align 4, !llfi_index !447
  %103 = load i32, i32* %2, align 4, !llfi_index !448
  %104 = sext i32 %103 to i64, !llfi_index !449
  %105 = getelementptr inbounds [888888 x %struct.treap], [888888 x %struct.treap]* @t, i64 0, i64 %104, !llfi_index !450
  %106 = getelementptr inbounds %struct.treap, %struct.treap* %105, i32 0, i32 7, !llfi_index !451
  %107 = load i32, i32* %4, align 4, !llfi_index !452
  %108 = sext i32 %107 to i64, !llfi_index !453
  %109 = getelementptr inbounds [888888 x %struct.treap], [888888 x %struct.treap]* @t, i64 0, i64 %108, !llfi_index !454
  %110 = getelementptr inbounds %struct.treap, %struct.treap* %109, i32 0, i32 6, !llfi_index !455
  %111 = load i32, i32* %110, align 8, !llfi_index !456
  %112 = load i32, i32* %2, align 4, !llfi_index !457
  %113 = sext i32 %112 to i64, !llfi_index !458
  %114 = getelementptr inbounds [888888 x %struct.treap], [888888 x %struct.treap]* @t, i64 0, i64 %113, !llfi_index !459
  %115 = getelementptr inbounds %struct.treap, %struct.treap* %114, i32 0, i32 2, !llfi_index !460
  %116 = load i32, i32* %115, align 8, !llfi_index !461
  %117 = sub nsw i32 %111, %116, !llfi_index !462
  store i32 %117, i32* %6, align 4, !llfi_index !463
  %118 = load i32, i32* %4, align 4, !llfi_index !464
  %119 = sext i32 %118 to i64, !llfi_index !465
  %120 = getelementptr inbounds [888888 x %struct.treap], [888888 x %struct.treap]* @t, i64 0, i64 %119, !llfi_index !466
  %121 = getelementptr inbounds %struct.treap, %struct.treap* %120, i32 0, i32 7, !llfi_index !467
  %122 = call nonnull align 4 dereferenceable(4) i32* @_ZSt3maxIiERKT_S2_S2_(i32* nonnull align 4 dereferenceable(4) %6, i32* nonnull align 4 dereferenceable(4) %121), !llfi_index !468
  %123 = call nonnull align 4 dereferenceable(4) i32* @_ZSt3maxIiERKT_S2_S2_(i32* nonnull align 4 dereferenceable(4) %106, i32* nonnull align 4 dereferenceable(4) %122), !llfi_index !469
  %124 = load i32, i32* %123, align 4, !llfi_index !470
  %125 = load i32, i32* %2, align 4, !llfi_index !471
  %126 = sext i32 %125 to i64, !llfi_index !472
  %127 = getelementptr inbounds [888888 x %struct.treap], [888888 x %struct.treap]* @t, i64 0, i64 %126, !llfi_index !473
  %128 = getelementptr inbounds %struct.treap, %struct.treap* %127, i32 0, i32 7, !llfi_index !474
  store i32 %124, i32* %128, align 4, !llfi_index !475
  br label %129, !llfi_index !476

129:                                              ; preds = %77, %74
  ret void, !llfi_index !477
}

; Function Attrs: mustprogress noinline nounwind uwtable
define linkonce_odr dso_local void @_ZN5treap7rewriteEv(%struct.treap* nonnull align 4 dereferenceable(32) %0) #3 comdat align 2 {
  %2 = alloca %struct.treap*, align 8, !llfi_index !478
  store %struct.treap* %0, %struct.treap** %2, align 8, !llfi_index !479
  %3 = load %struct.treap*, %struct.treap** %2, align 8, !llfi_index !480
  %4 = getelementptr inbounds %struct.treap, %struct.treap* %3, i32 0, i32 4, !llfi_index !481
  store i32 1, i32* %4, align 4, !llfi_index !482
  %5 = getelementptr inbounds %struct.treap, %struct.treap* %3, i32 0, i32 2, !llfi_index !483
  %6 = load i32, i32* %5, align 4, !llfi_index !484
  %7 = getelementptr inbounds %struct.treap, %struct.treap* %3, i32 0, i32 5, !llfi_index !485
  store i32 %6, i32* %7, align 4, !llfi_index !486
  %8 = getelementptr inbounds %struct.treap, %struct.treap* %3, i32 0, i32 2, !llfi_index !487
  %9 = load i32, i32* %8, align 4, !llfi_index !488
  %10 = getelementptr inbounds %struct.treap, %struct.treap* %3, i32 0, i32 6, !llfi_index !489
  store i32 %9, i32* %10, align 4, !llfi_index !490
  %11 = getelementptr inbounds %struct.treap, %struct.treap* %3, i32 0, i32 7, !llfi_index !491
  store i32 0, i32* %11, align 4, !llfi_index !492
  ret void, !llfi_index !493
}

; Function Attrs: mustprogress noinline nounwind uwtable
define linkonce_odr dso_local nonnull align 4 dereferenceable(4) i32* @_ZSt3minIiERKT_S2_S2_(i32* nonnull align 4 dereferenceable(4) %0, i32* nonnull align 4 dereferenceable(4) %1) #3 comdat {
  %3 = alloca i32*, align 8, !llfi_index !494
  %4 = alloca i32*, align 8, !llfi_index !495
  %5 = alloca i32*, align 8, !llfi_index !496
  store i32* %0, i32** %4, align 8, !llfi_index !497
  store i32* %1, i32** %5, align 8, !llfi_index !498
  %6 = load i32*, i32** %5, align 8, !llfi_index !499
  %7 = load i32, i32* %6, align 4, !llfi_index !500
  %8 = load i32*, i32** %4, align 8, !llfi_index !501
  %9 = load i32, i32* %8, align 4, !llfi_index !502
  %10 = icmp slt i32 %7, %9, !llfi_index !503
  br i1 %10, label %11, label %13, !llfi_index !504

11:                                               ; preds = %2
  %12 = load i32*, i32** %5, align 8, !llfi_index !505
  store i32* %12, i32** %3, align 8, !llfi_index !506
  br label %15, !llfi_index !507

13:                                               ; preds = %2
  %14 = load i32*, i32** %4, align 8, !llfi_index !508
  store i32* %14, i32** %3, align 8, !llfi_index !509
  br label %15, !llfi_index !510

15:                                               ; preds = %13, %11
  %16 = load i32*, i32** %3, align 8, !llfi_index !511
  ret i32* %16, !llfi_index !512
}

; Function Attrs: mustprogress noinline nounwind uwtable
define linkonce_odr dso_local nonnull align 4 dereferenceable(4) i32* @_ZSt3maxIiERKT_S2_S2_(i32* nonnull align 4 dereferenceable(4) %0, i32* nonnull align 4 dereferenceable(4) %1) #3 comdat {
  %3 = alloca i32*, align 8, !llfi_index !513
  %4 = alloca i32*, align 8, !llfi_index !514
  %5 = alloca i32*, align 8, !llfi_index !515
  store i32* %0, i32** %4, align 8, !llfi_index !516
  store i32* %1, i32** %5, align 8, !llfi_index !517
  %6 = load i32*, i32** %4, align 8, !llfi_index !518
  %7 = load i32, i32* %6, align 4, !llfi_index !519
  %8 = load i32*, i32** %5, align 8, !llfi_index !520
  %9 = load i32, i32* %8, align 4, !llfi_index !521
  %10 = icmp slt i32 %7, %9, !llfi_index !522
  br i1 %10, label %11, label %13, !llfi_index !523

11:                                               ; preds = %2
  %12 = load i32*, i32** %5, align 8, !llfi_index !524
  store i32* %12, i32** %3, align 8, !llfi_index !525
  br label %15, !llfi_index !526

13:                                               ; preds = %2
  %14 = load i32*, i32** %4, align 8, !llfi_index !527
  store i32* %14, i32** %3, align 8, !llfi_index !528
  br label %15, !llfi_index !529

15:                                               ; preds = %13, %11
  %16 = load i32*, i32** %3, align 8, !llfi_index !530
  ret i32* %16, !llfi_index !531
}

; Function Attrs: mustprogress noinline uwtable
define dso_local i32 @_Z5mergeii(i32 %0, i32 %1) #4 {
  %3 = alloca i32, align 4, !llfi_index !532
  %4 = alloca i32, align 4, !llfi_index !533
  %5 = alloca i32, align 4, !llfi_index !534
  store i32 %0, i32* %4, align 4, !llfi_index !535
  store i32 %1, i32* %5, align 4, !llfi_index !536
  %6 = load i32, i32* %4, align 4, !llfi_index !537
  %7 = icmp ne i32 %6, 0, !llfi_index !538
  br i1 %7, label %10, label %8, !llfi_index !539

8:                                                ; preds = %2
  %9 = load i32, i32* %5, align 4, !llfi_index !540
  store i32 %9, i32* %3, align 4, !llfi_index !541
  br label %55, !llfi_index !542

10:                                               ; preds = %2
  %11 = load i32, i32* %5, align 4, !llfi_index !543
  %12 = icmp ne i32 %11, 0, !llfi_index !544
  br i1 %12, label %15, label %13, !llfi_index !545

13:                                               ; preds = %10
  %14 = load i32, i32* %4, align 4, !llfi_index !546
  store i32 %14, i32* %3, align 4, !llfi_index !547
  br label %55, !llfi_index !548

15:                                               ; preds = %10
  %16 = load i32, i32* %4, align 4, !llfi_index !549
  %17 = sext i32 %16 to i64, !llfi_index !550
  %18 = getelementptr inbounds [888888 x %struct.treap], [888888 x %struct.treap]* @t, i64 0, i64 %17, !llfi_index !551
  %19 = getelementptr inbounds %struct.treap, %struct.treap* %18, i32 0, i32 3, !llfi_index !552
  %20 = load i32, i32* %19, align 4, !llfi_index !553
  %21 = load i32, i32* %5, align 4, !llfi_index !554
  %22 = sext i32 %21 to i64, !llfi_index !555
  %23 = getelementptr inbounds [888888 x %struct.treap], [888888 x %struct.treap]* @t, i64 0, i64 %22, !llfi_index !556
  %24 = getelementptr inbounds %struct.treap, %struct.treap* %23, i32 0, i32 3, !llfi_index !557
  %25 = load i32, i32* %24, align 4, !llfi_index !558
  %26 = icmp slt i32 %20, %25, !llfi_index !559
  br i1 %26, label %27, label %41, !llfi_index !560

27:                                               ; preds = %15
  %28 = load i32, i32* %4, align 4, !llfi_index !561
  %29 = sext i32 %28 to i64, !llfi_index !562
  %30 = getelementptr inbounds [888888 x %struct.treap], [888888 x %struct.treap]* @t, i64 0, i64 %29, !llfi_index !563
  %31 = getelementptr inbounds %struct.treap, %struct.treap* %30, i32 0, i32 1, !llfi_index !564
  %32 = load i32, i32* %31, align 4, !llfi_index !565
  %33 = load i32, i32* %5, align 4, !llfi_index !566
  %34 = call i32 @_Z5mergeii(i32 %32, i32 %33), !llfi_index !567
  %35 = load i32, i32* %4, align 4, !llfi_index !568
  %36 = sext i32 %35 to i64, !llfi_index !569
  %37 = getelementptr inbounds [888888 x %struct.treap], [888888 x %struct.treap]* @t, i64 0, i64 %36, !llfi_index !570
  %38 = getelementptr inbounds %struct.treap, %struct.treap* %37, i32 0, i32 1, !llfi_index !571
  store i32 %34, i32* %38, align 4, !llfi_index !572
  %39 = load i32, i32* %4, align 4, !llfi_index !573
  call void @_Z6updatei(i32 %39), !llfi_index !574
  %40 = load i32, i32* %4, align 4, !llfi_index !575
  store i32 %40, i32* %3, align 4, !llfi_index !576
  br label %55, !llfi_index !577

41:                                               ; preds = %15
  %42 = load i32, i32* %4, align 4, !llfi_index !578
  %43 = load i32, i32* %5, align 4, !llfi_index !579
  %44 = sext i32 %43 to i64, !llfi_index !580
  %45 = getelementptr inbounds [888888 x %struct.treap], [888888 x %struct.treap]* @t, i64 0, i64 %44, !llfi_index !581
  %46 = getelementptr inbounds %struct.treap, %struct.treap* %45, i32 0, i32 0, !llfi_index !582
  %47 = load i32, i32* %46, align 16, !llfi_index !583
  %48 = call i32 @_Z5mergeii(i32 %42, i32 %47), !llfi_index !584
  %49 = load i32, i32* %5, align 4, !llfi_index !585
  %50 = sext i32 %49 to i64, !llfi_index !586
  %51 = getelementptr inbounds [888888 x %struct.treap], [888888 x %struct.treap]* @t, i64 0, i64 %50, !llfi_index !587
  %52 = getelementptr inbounds %struct.treap, %struct.treap* %51, i32 0, i32 0, !llfi_index !588
  store i32 %48, i32* %52, align 16, !llfi_index !589
  %53 = load i32, i32* %5, align 4, !llfi_index !590
  call void @_Z6updatei(i32 %53), !llfi_index !591
  %54 = load i32, i32* %5, align 4, !llfi_index !592
  store i32 %54, i32* %3, align 4, !llfi_index !593
  br label %55, !llfi_index !594

55:                                               ; preds = %41, %27, %13, %8
  %56 = load i32, i32* %3, align 4, !llfi_index !595
  ret i32 %56, !llfi_index !596
}

; Function Attrs: mustprogress noinline uwtable
define dso_local i64 @_Z5splitii(i32 %0, i32 %1) #4 {
  %3 = alloca %struct.gemini, align 4, !llfi_index !597
  %4 = alloca i32, align 4, !llfi_index !598
  %5 = alloca i32, align 4, !llfi_index !599
  %6 = alloca %struct.gemini, align 4, !llfi_index !600
  %7 = alloca %struct.gemini, align 4, !llfi_index !601
  %8 = alloca %struct.gemini, align 4, !llfi_index !602
  store i32 %0, i32* %4, align 4, !llfi_index !603
  store i32 %1, i32* %5, align 4, !llfi_index !604
  %9 = load i32, i32* %4, align 4, !llfi_index !605
  %10 = icmp eq i32 %9, 0, !llfi_index !606
  br i1 %10, label %11, label %12, !llfi_index !607

11:                                               ; preds = %2
  call void @_ZN6geminiC2Eii(%struct.gemini* nonnull align 4 dereferenceable(8) %3, i32 0, i32 0), !llfi_index !608
  br label %78, !llfi_index !609

12:                                               ; preds = %2
  call void @_ZN6geminiC2Eii(%struct.gemini* nonnull align 4 dereferenceable(8) %6, i32 0, i32 0), !llfi_index !610
  %13 = load i32, i32* %4, align 4, !llfi_index !611
  %14 = sext i32 %13 to i64, !llfi_index !612
  %15 = getelementptr inbounds [888888 x %struct.treap], [888888 x %struct.treap]* @t, i64 0, i64 %14, !llfi_index !613
  %16 = getelementptr inbounds %struct.treap, %struct.treap* %15, i32 0, i32 0, !llfi_index !614
  %17 = load i32, i32* %16, align 16, !llfi_index !615
  %18 = sext i32 %17 to i64, !llfi_index !616
  %19 = getelementptr inbounds [888888 x %struct.treap], [888888 x %struct.treap]* @t, i64 0, i64 %18, !llfi_index !617
  %20 = getelementptr inbounds %struct.treap, %struct.treap* %19, i32 0, i32 4, !llfi_index !618
  %21 = load i32, i32* %20, align 16, !llfi_index !619
  %22 = load i32, i32* %5, align 4, !llfi_index !620
  %23 = icmp sge i32 %21, %22, !llfi_index !621
  br i1 %23, label %24, label %44, !llfi_index !622

24:                                               ; preds = %12
  %25 = load i32, i32* %4, align 4, !llfi_index !623
  %26 = sext i32 %25 to i64, !llfi_index !624
  %27 = getelementptr inbounds [888888 x %struct.treap], [888888 x %struct.treap]* @t, i64 0, i64 %26, !llfi_index !625
  %28 = getelementptr inbounds %struct.treap, %struct.treap* %27, i32 0, i32 0, !llfi_index !626
  %29 = load i32, i32* %28, align 16, !llfi_index !627
  %30 = load i32, i32* %5, align 4, !llfi_index !628
  %31 = call i64 @_Z5splitii(i32 %29, i32 %30), !llfi_index !629
  %32 = bitcast %struct.gemini* %7 to i64*, !llfi_index !630
  store i64 %31, i64* %32, align 4, !llfi_index !631
  %33 = bitcast %struct.gemini* %6 to i8*, !llfi_index !632
  %34 = bitcast %struct.gemini* %7 to i8*, !llfi_index !633
  call void @llvm.memcpy.p0i8.p0i8.i64(i8* align 4 %33, i8* align 4 %34, i64 8, i1 false), !llfi_index !634
  %35 = getelementptr inbounds %struct.gemini, %struct.gemini* %6, i32 0, i32 1, !llfi_index !635
  %36 = load i32, i32* %35, align 4, !llfi_index !636
  %37 = load i32, i32* %4, align 4, !llfi_index !637
  %38 = sext i32 %37 to i64, !llfi_index !638
  %39 = getelementptr inbounds [888888 x %struct.treap], [888888 x %struct.treap]* @t, i64 0, i64 %38, !llfi_index !639
  %40 = getelementptr inbounds %struct.treap, %struct.treap* %39, i32 0, i32 0, !llfi_index !640
  store i32 %36, i32* %40, align 16, !llfi_index !641
  %41 = load i32, i32* %4, align 4, !llfi_index !642
  call void @_Z6updatei(i32 %41), !llfi_index !643
  %42 = load i32, i32* %4, align 4, !llfi_index !644
  %43 = getelementptr inbounds %struct.gemini, %struct.gemini* %6, i32 0, i32 1, !llfi_index !645
  store i32 %42, i32* %43, align 4, !llfi_index !646
  br label %75, !llfi_index !647

44:                                               ; preds = %12
  %45 = load i32, i32* %4, align 4, !llfi_index !648
  %46 = sext i32 %45 to i64, !llfi_index !649
  %47 = getelementptr inbounds [888888 x %struct.treap], [888888 x %struct.treap]* @t, i64 0, i64 %46, !llfi_index !650
  %48 = getelementptr inbounds %struct.treap, %struct.treap* %47, i32 0, i32 1, !llfi_index !651
  %49 = load i32, i32* %48, align 4, !llfi_index !652
  %50 = load i32, i32* %5, align 4, !llfi_index !653
  %51 = load i32, i32* %4, align 4, !llfi_index !654
  %52 = sext i32 %51 to i64, !llfi_index !655
  %53 = getelementptr inbounds [888888 x %struct.treap], [888888 x %struct.treap]* @t, i64 0, i64 %52, !llfi_index !656
  %54 = getelementptr inbounds %struct.treap, %struct.treap* %53, i32 0, i32 0, !llfi_index !657
  %55 = load i32, i32* %54, align 16, !llfi_index !658
  %56 = sext i32 %55 to i64, !llfi_index !659
  %57 = getelementptr inbounds [888888 x %struct.treap], [888888 x %struct.treap]* @t, i64 0, i64 %56, !llfi_index !660
  %58 = getelementptr inbounds %struct.treap, %struct.treap* %57, i32 0, i32 4, !llfi_index !661
  %59 = load i32, i32* %58, align 16, !llfi_index !662
  %60 = sub nsw i32 %50, %59, !llfi_index !663
  %61 = sub nsw i32 %60, 1, !llfi_index !664
  %62 = call i64 @_Z5splitii(i32 %49, i32 %61), !llfi_index !665
  %63 = bitcast %struct.gemini* %8 to i64*, !llfi_index !666
  store i64 %62, i64* %63, align 4, !llfi_index !667
  %64 = bitcast %struct.gemini* %6 to i8*, !llfi_index !668
  %65 = bitcast %struct.gemini* %8 to i8*, !llfi_index !669
  call void @llvm.memcpy.p0i8.p0i8.i64(i8* align 4 %64, i8* align 4 %65, i64 8, i1 false), !llfi_index !670
  %66 = getelementptr inbounds %struct.gemini, %struct.gemini* %6, i32 0, i32 0, !llfi_index !671
  %67 = load i32, i32* %66, align 4, !llfi_index !672
  %68 = load i32, i32* %4, align 4, !llfi_index !673
  %69 = sext i32 %68 to i64, !llfi_index !674
  %70 = getelementptr inbounds [888888 x %struct.treap], [888888 x %struct.treap]* @t, i64 0, i64 %69, !llfi_index !675
  %71 = getelementptr inbounds %struct.treap, %struct.treap* %70, i32 0, i32 1, !llfi_index !676
  store i32 %67, i32* %71, align 4, !llfi_index !677
  %72 = load i32, i32* %4, align 4, !llfi_index !678
  call void @_Z6updatei(i32 %72), !llfi_index !679
  %73 = load i32, i32* %4, align 4, !llfi_index !680
  %74 = getelementptr inbounds %struct.gemini, %struct.gemini* %6, i32 0, i32 0, !llfi_index !681
  store i32 %73, i32* %74, align 4, !llfi_index !682
  br label %75, !llfi_index !683

75:                                               ; preds = %44, %24
  %76 = bitcast %struct.gemini* %3 to i8*, !llfi_index !684
  %77 = bitcast %struct.gemini* %6 to i8*, !llfi_index !685
  call void @llvm.memcpy.p0i8.p0i8.i64(i8* align 4 %76, i8* align 4 %77, i64 8, i1 false), !llfi_index !686
  br label %78, !llfi_index !687

78:                                               ; preds = %75, %11
  %79 = bitcast %struct.gemini* %3 to i64*, !llfi_index !688
  %80 = load i64, i64* %79, align 4, !llfi_index !689
  ret i64 %80, !llfi_index !690
}

; Function Attrs: noinline nounwind uwtable
define linkonce_odr dso_local void @_ZN6geminiC2Eii(%struct.gemini* nonnull align 4 dereferenceable(8) %0, i32 %1, i32 %2) unnamed_addr #1 comdat align 2 {
  %4 = alloca %struct.gemini*, align 8, !llfi_index !691
  %5 = alloca i32, align 4, !llfi_index !692
  %6 = alloca i32, align 4, !llfi_index !693
  store %struct.gemini* %0, %struct.gemini** %4, align 8, !llfi_index !694
  store i32 %1, i32* %5, align 4, !llfi_index !695
  store i32 %2, i32* %6, align 4, !llfi_index !696
  %7 = load %struct.gemini*, %struct.gemini** %4, align 8, !llfi_index !697
  %8 = load i32, i32* %5, align 4, !llfi_index !698
  %9 = getelementptr inbounds %struct.gemini, %struct.gemini* %7, i32 0, i32 0, !llfi_index !699
  store i32 %8, i32* %9, align 4, !llfi_index !700
  %10 = load i32, i32* %6, align 4, !llfi_index !701
  %11 = getelementptr inbounds %struct.gemini, %struct.gemini* %7, i32 0, i32 1, !llfi_index !702
  store i32 %10, i32* %11, align 4, !llfi_index !703
  ret void, !llfi_index !704
}

; Function Attrs: argmemonly nofree nounwind willreturn
declare void @llvm.memcpy.p0i8.p0i8.i64(i8* noalias nocapture writeonly, i8* noalias nocapture readonly, i64, i1 immarg) #9

; Function Attrs: mustprogress noinline uwtable
define dso_local i32 @_Z4getpii(i32 %0, i32 %1) #4 {
  %3 = alloca i32, align 4, !llfi_index !705
  %4 = alloca i32, align 4, !llfi_index !706
  %5 = alloca i32, align 4, !llfi_index !707
  store i32 %0, i32* %4, align 4, !llfi_index !708
  store i32 %1, i32* %5, align 4, !llfi_index !709
  %6 = load i32, i32* %4, align 4, !llfi_index !710
  %7 = icmp ne i32 %6, 0, !llfi_index !711
  br i1 %7, label %9, label %8, !llfi_index !712

8:                                                ; preds = %2
  store i32 0, i32* %3, align 4, !llfi_index !713
  br label %46, !llfi_index !714

9:                                                ; preds = %2
  %10 = load i32, i32* %5, align 4, !llfi_index !715
  %11 = load i32, i32* %4, align 4, !llfi_index !716
  %12 = sext i32 %11 to i64, !llfi_index !717
  %13 = getelementptr inbounds [888888 x %struct.treap], [888888 x %struct.treap]* @t, i64 0, i64 %12, !llfi_index !718
  %14 = getelementptr inbounds %struct.treap, %struct.treap* %13, i32 0, i32 2, !llfi_index !719
  %15 = load i32, i32* %14, align 8, !llfi_index !720
  %16 = icmp slt i32 %10, %15, !llfi_index !721
  br i1 %16, label %17, label %25, !llfi_index !722

17:                                               ; preds = %9
  %18 = load i32, i32* %4, align 4, !llfi_index !723
  %19 = sext i32 %18 to i64, !llfi_index !724
  %20 = getelementptr inbounds [888888 x %struct.treap], [888888 x %struct.treap]* @t, i64 0, i64 %19, !llfi_index !725
  %21 = getelementptr inbounds %struct.treap, %struct.treap* %20, i32 0, i32 0, !llfi_index !726
  %22 = load i32, i32* %21, align 16, !llfi_index !727
  %23 = load i32, i32* %5, align 4, !llfi_index !728
  %24 = call i32 @_Z4getpii(i32 %22, i32 %23), !llfi_index !729
  br label %44, !llfi_index !730

25:                                               ; preds = %9
  %26 = load i32, i32* %4, align 4, !llfi_index !731
  %27 = sext i32 %26 to i64, !llfi_index !732
  %28 = getelementptr inbounds [888888 x %struct.treap], [888888 x %struct.treap]* @t, i64 0, i64 %27, !llfi_index !733
  %29 = getelementptr inbounds %struct.treap, %struct.treap* %28, i32 0, i32 1, !llfi_index !734
  %30 = load i32, i32* %29, align 4, !llfi_index !735
  %31 = load i32, i32* %5, align 4, !llfi_index !736
  %32 = call i32 @_Z4getpii(i32 %30, i32 %31), !llfi_index !737
  %33 = load i32, i32* %4, align 4, !llfi_index !738
  %34 = sext i32 %33 to i64, !llfi_index !739
  %35 = getelementptr inbounds [888888 x %struct.treap], [888888 x %struct.treap]* @t, i64 0, i64 %34, !llfi_index !740
  %36 = getelementptr inbounds %struct.treap, %struct.treap* %35, i32 0, i32 0, !llfi_index !741
  %37 = load i32, i32* %36, align 16, !llfi_index !742
  %38 = sext i32 %37 to i64, !llfi_index !743
  %39 = getelementptr inbounds [888888 x %struct.treap], [888888 x %struct.treap]* @t, i64 0, i64 %38, !llfi_index !744
  %40 = getelementptr inbounds %struct.treap, %struct.treap* %39, i32 0, i32 4, !llfi_index !745
  %41 = load i32, i32* %40, align 16, !llfi_index !746
  %42 = add nsw i32 %32, %41, !llfi_index !747
  %43 = add nsw i32 %42, 1, !llfi_index !748
  br label %44, !llfi_index !749

44:                                               ; preds = %25, %17
  %45 = phi i32 [ %24, %17 ], [ %43, %25 ], !llfi_index !750
  store i32 %45, i32* %3, align 4, !llfi_index !751
  br label %46, !llfi_index !752

46:                                               ; preds = %44, %8
  %47 = load i32, i32* %3, align 4, !llfi_index !753
  ret i32 %47, !llfi_index !754
}

; Function Attrs: mustprogress noinline uwtable
define dso_local void @_Z3addi(i32 %0) #4 {
  %2 = alloca i32, align 4, !llfi_index !755
  %3 = alloca i32, align 4, !llfi_index !756
  %4 = alloca %struct.gemini, align 4, !llfi_index !757
  %5 = alloca %struct.treap, align 4, !llfi_index !758
  store i32 %0, i32* %2, align 4, !llfi_index !759
  %6 = load i32, i32* @rt, align 4, !llfi_index !760
  %7 = load i32, i32* %2, align 4, !llfi_index !761
  %8 = call i32 @_Z4getpii(i32 %6, i32 %7), !llfi_index !762
  store i32 %8, i32* %3, align 4, !llfi_index !763
  %9 = load i32, i32* @rt, align 4, !llfi_index !764
  %10 = load i32, i32* %3, align 4, !llfi_index !765
  %11 = call i64 @_Z5splitii(i32 %9, i32 %10), !llfi_index !766
  %12 = bitcast %struct.gemini* %4 to i64*, !llfi_index !767
  store i64 %11, i64* %12, align 4, !llfi_index !768
  %13 = load i32, i32* %2, align 4, !llfi_index !769
  call void @_ZN5treapC2Ei(%struct.treap* nonnull align 4 dereferenceable(32) %5, i32 %13), !llfi_index !770
  %14 = load i32, i32* @tot, align 4, !llfi_index !771
  %15 = add nsw i32 %14, 1, !llfi_index !772
  store i32 %15, i32* @tot, align 4, !llfi_index !773
  %16 = sext i32 %15 to i64, !llfi_index !774
  %17 = getelementptr inbounds [888888 x %struct.treap], [888888 x %struct.treap]* @t, i64 0, i64 %16, !llfi_index !775
  %18 = bitcast %struct.treap* %17 to i8*, !llfi_index !776
  %19 = bitcast %struct.treap* %5 to i8*, !llfi_index !777
  call void @llvm.memcpy.p0i8.p0i8.i64(i8* align 16 %18, i8* align 4 %19, i64 32, i1 false), !llfi_index !778
  %20 = getelementptr inbounds %struct.gemini, %struct.gemini* %4, i32 0, i32 0, !llfi_index !779
  %21 = load i32, i32* %20, align 4, !llfi_index !780
  %22 = load i32, i32* @tot, align 4, !llfi_index !781
  %23 = call i32 @_Z5mergeii(i32 %21, i32 %22), !llfi_index !782
  %24 = getelementptr inbounds %struct.gemini, %struct.gemini* %4, i32 0, i32 1, !llfi_index !783
  %25 = load i32, i32* %24, align 4, !llfi_index !784
  %26 = call i32 @_Z5mergeii(i32 %23, i32 %25), !llfi_index !785
  store i32 %26, i32* @rt, align 4, !llfi_index !786
  ret void, !llfi_index !787
}

; Function Attrs: noinline nounwind uwtable
define linkonce_odr dso_local void @_ZN5treapC2Ei(%struct.treap* nonnull align 4 dereferenceable(32) %0, i32 %1) unnamed_addr #1 comdat align 2 {
  %3 = alloca %struct.treap*, align 8, !llfi_index !788
  %4 = alloca i32, align 4, !llfi_index !789
  store %struct.treap* %0, %struct.treap** %3, align 8, !llfi_index !790
  store i32 %1, i32* %4, align 4, !llfi_index !791
  %5 = load %struct.treap*, %struct.treap** %3, align 8, !llfi_index !792
  %6 = getelementptr inbounds %struct.treap, %struct.treap* %5, i32 0, i32 0, !llfi_index !793
  store i32 0, i32* %6, align 4, !llfi_index !794
  %7 = getelementptr inbounds %struct.treap, %struct.treap* %5, i32 0, i32 1, !llfi_index !795
  store i32 0, i32* %7, align 4, !llfi_index !796
  %8 = load i32, i32* %4, align 4, !llfi_index !797
  %9 = getelementptr inbounds %struct.treap, %struct.treap* %5, i32 0, i32 2, !llfi_index !798
  store i32 %8, i32* %9, align 4, !llfi_index !799
  %10 = load i32, i32* @rdx, align 4, !llfi_index !800
  %11 = sext i32 %10 to i64, !llfi_index !801
  %12 = mul nsw i64 %11, 16807, !llfi_index !802
  %13 = add nsw i64 %12, 1, !llfi_index !803
  %14 = and i64 %13, 2147483647, !llfi_index !804
  %15 = trunc i64 %14 to i32, !llfi_index !805
  store i32 %15, i32* @rdx, align 4, !llfi_index !806
  %16 = getelementptr inbounds %struct.treap, %struct.treap* %5, i32 0, i32 3, !llfi_index !807
  store i32 %15, i32* %16, align 4, !llfi_index !808
  %17 = getelementptr inbounds %struct.treap, %struct.treap* %5, i32 0, i32 4, !llfi_index !809
  store i32 1, i32* %17, align 4, !llfi_index !810
  %18 = load i32, i32* %4, align 4, !llfi_index !811
  %19 = getelementptr inbounds %struct.treap, %struct.treap* %5, i32 0, i32 5, !llfi_index !812
  store i32 %18, i32* %19, align 4, !llfi_index !813
  %20 = load i32, i32* %4, align 4, !llfi_index !814
  %21 = getelementptr inbounds %struct.treap, %struct.treap* %5, i32 0, i32 6, !llfi_index !815
  store i32 %20, i32* %21, align 4, !llfi_index !816
  %22 = getelementptr inbounds %struct.treap, %struct.treap* %5, i32 0, i32 7, !llfi_index !817
  store i32 0, i32* %22, align 4, !llfi_index !818
  ret void, !llfi_index !819
}

; Function Attrs: mustprogress noinline uwtable
define dso_local i32 @_Z5queryii(i32 %0, i32 %1) #4 {
  %3 = alloca i32, align 4, !llfi_index !820
  %4 = alloca i32, align 4, !llfi_index !821
  %5 = alloca %struct.gemini, align 4, !llfi_index !822
  %6 = alloca %struct.gemini, align 4, !llfi_index !823
  %7 = alloca i32, align 4, !llfi_index !824
  store i32 %0, i32* %3, align 4, !llfi_index !825
  store i32 %1, i32* %4, align 4, !llfi_index !826
  %8 = load i32, i32* @rt, align 4, !llfi_index !827
  %9 = load i32, i32* %4, align 4, !llfi_index !828
  %10 = call i64 @_Z5splitii(i32 %8, i32 %9), !llfi_index !829
  %11 = bitcast %struct.gemini* %5 to i64*, !llfi_index !830
  store i64 %10, i64* %11, align 4, !llfi_index !831
  %12 = getelementptr inbounds %struct.gemini, %struct.gemini* %5, i32 0, i32 0, !llfi_index !832
  %13 = load i32, i32* %12, align 4, !llfi_index !833
  %14 = load i32, i32* %3, align 4, !llfi_index !834
  %15 = sub nsw i32 %14, 1, !llfi_index !835
  %16 = call i64 @_Z5splitii(i32 %13, i32 %15), !llfi_index !836
  %17 = bitcast %struct.gemini* %6 to i64*, !llfi_index !837
  store i64 %16, i64* %17, align 4, !llfi_index !838
  %18 = getelementptr inbounds %struct.gemini, %struct.gemini* %6, i32 0, i32 1, !llfi_index !839
  %19 = load i32, i32* %18, align 4, !llfi_index !840
  %20 = sext i32 %19 to i64, !llfi_index !841
  %21 = getelementptr inbounds [888888 x %struct.treap], [888888 x %struct.treap]* @t, i64 0, i64 %20, !llfi_index !842
  %22 = getelementptr inbounds %struct.treap, %struct.treap* %21, i32 0, i32 7, !llfi_index !843
  %23 = load i32, i32* %22, align 4, !llfi_index !844
  store i32 %23, i32* %7, align 4, !llfi_index !845
  %24 = getelementptr inbounds %struct.gemini, %struct.gemini* %6, i32 0, i32 0, !llfi_index !846
  %25 = load i32, i32* %24, align 4, !llfi_index !847
  %26 = getelementptr inbounds %struct.gemini, %struct.gemini* %6, i32 0, i32 1, !llfi_index !848
  %27 = load i32, i32* %26, align 4, !llfi_index !849
  %28 = call i32 @_Z5mergeii(i32 %25, i32 %27), !llfi_index !850
  %29 = getelementptr inbounds %struct.gemini, %struct.gemini* %5, i32 0, i32 1, !llfi_index !851
  %30 = load i32, i32* %29, align 4, !llfi_index !852
  %31 = call i32 @_Z5mergeii(i32 %28, i32 %30), !llfi_index !853
  store i32 %31, i32* @rt, align 4, !llfi_index !854
  %32 = load i32, i32* %7, align 4, !llfi_index !855
  ret i32 %32, !llfi_index !856
}

; Function Attrs: mustprogress noinline uwtable
define dso_local void @_Z5clearv() #4 {
  %1 = alloca i32, align 4, !llfi_index !857
  %2 = alloca %struct.treap, align 4, !llfi_index !858
  call void @_ZNSt8multisetIiSt4lessIiESaIiEE5clearEv(%"class.std::multiset"* nonnull align 8 dereferenceable(48) @st) #2, !llfi_index !859
  store i32 0, i32* @tot, align 4, !llfi_index !860
  store i32 0, i32* @rt, align 4, !llfi_index !861
  store i32 0, i32* %1, align 4, !llfi_index !862
  br label %3, !llfi_index !863

3:                                                ; preds = %13, %0
  %4 = load i32, i32* %1, align 4, !llfi_index !864
  %5 = load i32, i32* @n, align 4, !llfi_index !865
  %6 = icmp sle i32 %4, %5, !llfi_index !866
  br i1 %6, label %7, label %16, !llfi_index !867

7:                                                ; preds = %3
  call void @_ZN5treapC2Ev(%struct.treap* nonnull align 4 dereferenceable(32) %2), !llfi_index !868
  %8 = load i32, i32* %1, align 4, !llfi_index !869
  %9 = sext i32 %8 to i64, !llfi_index !870
  %10 = getelementptr inbounds [888888 x %struct.treap], [888888 x %struct.treap]* @t, i64 0, i64 %9, !llfi_index !871
  %11 = bitcast %struct.treap* %10 to i8*, !llfi_index !872
  %12 = bitcast %struct.treap* %2 to i8*, !llfi_index !873
  call void @llvm.memcpy.p0i8.p0i8.i64(i8* align 16 %11, i8* align 4 %12, i64 32, i1 false), !llfi_index !874
  br label %13, !llfi_index !875

13:                                               ; preds = %7
  %14 = load i32, i32* %1, align 4, !llfi_index !876
  %15 = add nsw i32 %14, 1, !llfi_index !877
  store i32 %15, i32* %1, align 4, !llfi_index !878
  br label %3, !llvm.loop !879, !llfi_index !880

16:                                               ; preds = %3
  ret void, !llfi_index !881
}

; Function Attrs: mustprogress noinline nounwind uwtable
define linkonce_odr dso_local void @_ZNSt8multisetIiSt4lessIiESaIiEE5clearEv(%"class.std::multiset"* nonnull align 8 dereferenceable(48) %0) #3 comdat align 2 {
  %2 = alloca %"class.std::multiset"*, align 8, !llfi_index !882
  store %"class.std::multiset"* %0, %"class.std::multiset"** %2, align 8, !llfi_index !883
  %3 = load %"class.std::multiset"*, %"class.std::multiset"** %2, align 8, !llfi_index !884
  %4 = getelementptr inbounds %"class.std::multiset", %"class.std::multiset"* %3, i32 0, i32 0, !llfi_index !885
  call void @_ZNSt8_Rb_treeIiiSt9_IdentityIiESt4lessIiESaIiEE5clearEv(%"class.std::_Rb_tree"* nonnull align 8 dereferenceable(48) %4) #2, !llfi_index !886
  ret void, !llfi_index !887
}

; Function Attrs: mustprogress noinline nounwind uwtable
define linkonce_odr dso_local void @_ZNSt8_Rb_treeIiiSt9_IdentityIiESt4lessIiESaIiEE5clearEv(%"class.std::_Rb_tree"* nonnull align 8 dereferenceable(48) %0) #3 comdat align 2 personality i8* bitcast (i32 (...)* @__gxx_personality_v0 to i8*) {
  %2 = alloca %"class.std::_Rb_tree"*, align 8, !llfi_index !888
  store %"class.std::_Rb_tree"* %0, %"class.std::_Rb_tree"** %2, align 8, !llfi_index !889
  %3 = load %"class.std::_Rb_tree"*, %"class.std::_Rb_tree"** %2, align 8, !llfi_index !890
  %4 = call %"struct.std::_Rb_tree_node"* @_ZNSt8_Rb_treeIiiSt9_IdentityIiESt4lessIiESaIiEE8_M_beginEv(%"class.std::_Rb_tree"* nonnull align 8 dereferenceable(48) %3) #2, !llfi_index !891
  invoke void @_ZNSt8_Rb_treeIiiSt9_IdentityIiESt4lessIiESaIiEE8_M_eraseEPSt13_Rb_tree_nodeIiE(%"class.std::_Rb_tree"* nonnull align 8 dereferenceable(48) %3, %"struct.std::_Rb_tree_node"* %4)
          to label %5 unwind label %10, !llfi_index !892

5:                                                ; preds = %1
  %6 = getelementptr inbounds %"class.std::_Rb_tree", %"class.std::_Rb_tree"* %3, i32 0, i32 0, !llfi_index !893
  %7 = bitcast %"struct.std::_Rb_tree<int, int, std::_Identity<int>, std::less<int>>::_Rb_tree_impl"* %6 to i8*, !llfi_index !894
  %8 = getelementptr inbounds i8, i8* %7, i64 8, !llfi_index !895
  %9 = bitcast i8* %8 to %"struct.std::_Rb_tree_header"*, !llfi_index !896
  call void @_ZNSt15_Rb_tree_header8_M_resetEv(%"struct.std::_Rb_tree_header"* nonnull align 8 dereferenceable(40) %9), !llfi_index !897
  ret void, !llfi_index !898

10:                                               ; preds = %1
  %11 = landingpad { i8*, i32 }
          catch i8* null, !llfi_index !899
  %12 = extractvalue { i8*, i32 } %11, 0, !llfi_index !900
  call void @__clang_call_terminate(i8* %12) #14, !llfi_index !901
  unreachable, !llfi_index !902
}

; Function Attrs: mustprogress noinline norecurse uwtable
define dso_local i32 @main() #10 {
  %1 = alloca i32, align 4, !llfi_index !903
  %2 = alloca i32, align 4, !llfi_index !904
  %3 = alloca i32, align 4, !llfi_index !905
  %4 = alloca i32, align 4, !llfi_index !906
  %5 = alloca i32, align 4, !llfi_index !907
  %6 = alloca %"struct.std::_Rb_tree_const_iterator", align 8, !llfi_index !908
  %7 = alloca i32, align 4, !llfi_index !909
  %8 = alloca %"struct.std::_Rb_tree_const_iterator", align 8, !llfi_index !910
  %9 = alloca i32, align 4, !llfi_index !911
  %10 = alloca i32, align 4, !llfi_index !912
  %11 = alloca %"struct.std::_Rb_tree_const_iterator", align 8, !llfi_index !913
  %12 = alloca i32, align 4, !llfi_index !914
  %13 = alloca %"struct.std::_Rb_tree_const_iterator", align 8, !llfi_index !915
  %14 = alloca i32, align 4, !llfi_index !916
  %15 = alloca %"struct.std::_Rb_tree_const_iterator", align 8, !llfi_index !917
  %16 = alloca %"struct.std::_Rb_tree_const_iterator", align 8, !llfi_index !918
  %17 = alloca %"struct.std::_Rb_tree_const_iterator", align 8, !llfi_index !919
  %18 = alloca %"struct.std::_Rb_tree_const_iterator", align 8, !llfi_index !920
  %19 = alloca %"struct.std::_Rb_tree_const_iterator", align 8, !llfi_index !921
  %20 = alloca %"struct.std::_Rb_tree_const_iterator", align 8, !llfi_index !922
  %21 = alloca %"struct.std::_Rb_tree_const_iterator", align 8, !llfi_index !923
  %22 = alloca %"struct.std::_Rb_tree_const_iterator", align 8, !llfi_index !924
  %23 = alloca i32, align 4, !llfi_index !925
  %24 = alloca i32, align 4, !llfi_index !926
  %25 = alloca i32, align 4, !llfi_index !927
  %26 = alloca i32, align 4, !llfi_index !928
  %27 = alloca i32, align 4, !llfi_index !929
  %28 = alloca i32, align 4, !llfi_index !930
  %29 = alloca i32, align 4, !llfi_index !931
  store i32 0, i32* %1, align 4, !llfi_index !932
  %30 = load %struct._IO_FILE*, %struct._IO_FILE** @stdin, align 8, !llfi_index !933
  %31 = call %struct._IO_FILE* @freopen(i8* getelementptr inbounds ([24 x i8], [24 x i8]* @.str, i64 0, i64 0), i8* getelementptr inbounds ([2 x i8], [2 x i8]* @.str.5, i64 0, i64 0), %struct._IO_FILE* %30), !llfi_index !934
  %32 = call i32 (i8*, ...) @__isoc99_scanf(i8* getelementptr inbounds ([3 x i8], [3 x i8]* @.str.6, i64 0, i64 0), i32* %2), !llfi_index !935
  store i32 89, i32* %5, align 4, !llfi_index !936
  br label %33, !llfi_index !937

33:                                               ; preds = %179, %0
  %34 = load i32, i32* %2, align 4, !llfi_index !938
  %35 = add nsw i32 %34, -1, !llfi_index !939
  store i32 %35, i32* %2, align 4, !llfi_index !940
  %36 = icmp ne i32 %34, 0, !llfi_index !941
  br i1 %36, label %37, label %181, !llfi_index !942

37:                                               ; preds = %33
  %38 = call i32 (i8*, ...) @__isoc99_scanf(i8* getelementptr inbounds ([5 x i8], [5 x i8]* @.str.7, i64 0, i64 0), i32* @n, i32* @d), !llfi_index !943
  %39 = call i32 (i8*, ...) @printf(i8* getelementptr inbounds ([2 x i8], [2 x i8]* @.str.8, i64 0, i64 0)), !llfi_index !944
  call void @_Z5clearv(), !llfi_index !945
  %40 = call i32 (i8*, ...) @__isoc99_scanf(i8* getelementptr inbounds ([3 x i8], [3 x i8]* @.str.6, i64 0, i64 0), i32* %3), !llfi_index !946
  %41 = call %"struct.std::_Rb_tree_node_base"* @_ZNSt8multisetIiSt4lessIiESaIiEE6insertERKi(%"class.std::multiset"* nonnull align 8 dereferenceable(48) @st, i32* nonnull align 4 dereferenceable(4) %3), !llfi_index !947
  %42 = getelementptr inbounds %"struct.std::_Rb_tree_const_iterator", %"struct.std::_Rb_tree_const_iterator"* %6, i32 0, i32 0, !llfi_index !948
  store %"struct.std::_Rb_tree_node_base"* %41, %"struct.std::_Rb_tree_node_base"** %42, align 8, !llfi_index !949
  %43 = load i32, i32* %3, align 4, !llfi_index !950
  call void @_Z3addi(i32 %43), !llfi_index !951
  store i32 89, i32* %5, align 4, !llfi_index !952
  store i32 2, i32* %7, align 4, !llfi_index !953
  br label %44, !llfi_index !954

44:                                               ; preds = %176, %37
  %45 = load i32, i32* %7, align 4, !llfi_index !955
  %46 = load i32, i32* @n, align 4, !llfi_index !956
  %47 = icmp sle i32 %45, %46, !llfi_index !957
  br i1 %47, label %48, label %179, !llfi_index !958

48:                                               ; preds = %44
  %49 = call i32 (i8*, ...) @__isoc99_scanf(i8* getelementptr inbounds ([3 x i8], [3 x i8]* @.str.6, i64 0, i64 0), i32* %3), !llfi_index !959
  %50 = call %"struct.std::_Rb_tree_node_base"* @_ZNSt8multisetIiSt4lessIiESaIiEE6insertERKi(%"class.std::multiset"* nonnull align 8 dereferenceable(48) @st, i32* nonnull align 4 dereferenceable(4) %3), !llfi_index !960
  %51 = getelementptr inbounds %"struct.std::_Rb_tree_const_iterator", %"struct.std::_Rb_tree_const_iterator"* %8, i32 0, i32 0, !llfi_index !961
  store %"struct.std::_Rb_tree_node_base"* %50, %"struct.std::_Rb_tree_node_base"** %51, align 8, !llfi_index !962
  %52 = load i32, i32* %3, align 4, !llfi_index !963
  call void @_Z3addi(i32 %52), !llfi_index !964
  %53 = load i32, i32* @rt, align 4, !llfi_index !965
  %54 = sext i32 %53 to i64, !llfi_index !966
  %55 = getelementptr inbounds [888888 x %struct.treap], [888888 x %struct.treap]* @t, i64 0, i64 %54, !llfi_index !967
  %56 = getelementptr inbounds %struct.treap, %struct.treap* %55, i32 0, i32 6, !llfi_index !968
  %57 = load i32, i32* %56, align 8, !llfi_index !969
  store i32 %57, i32* %9, align 4, !llfi_index !970
  %58 = load i32, i32* @rt, align 4, !llfi_index !971
  %59 = sext i32 %58 to i64, !llfi_index !972
  %60 = getelementptr inbounds [888888 x %struct.treap], [888888 x %struct.treap]* @t, i64 0, i64 %59, !llfi_index !973
  %61 = getelementptr inbounds %struct.treap, %struct.treap* %60, i32 0, i32 5, !llfi_index !974
  %62 = load i32, i32* %61, align 4, !llfi_index !975
  store i32 %62, i32* %10, align 4, !llfi_index !976
  %63 = load i32, i32* @d, align 4, !llfi_index !977
  %64 = load i32, i32* %10, align 4, !llfi_index !978
  %65 = sub nsw i32 %63, %64, !llfi_index !979
  %66 = load i32, i32* %9, align 4, !llfi_index !980
  %67 = add nsw i32 %65, %66, !llfi_index !981
  store i32 %67, i32* %4, align 4, !llfi_index !982
  %68 = load i32, i32* @d, align 4, !llfi_index !983
  %69 = load i32, i32* %9, align 4, !llfi_index !984
  %70 = add nsw i32 %69, %68, !llfi_index !985
  store i32 %70, i32* %9, align 4, !llfi_index !986
  %71 = load i32, i32* @d, align 4, !llfi_index !987
  %72 = load i32, i32* %10, align 4, !llfi_index !988
  %73 = sub nsw i32 %72, %71, !llfi_index !989
  store i32 %73, i32* %10, align 4, !llfi_index !990
  %74 = load i32, i32* %10, align 4, !llfi_index !991
  %75 = add nsw i32 %74, 1, !llfi_index !992
  store i32 %75, i32* %12, align 4, !llfi_index !993
  %76 = call %"struct.std::_Rb_tree_node_base"* @_ZNSt8multisetIiSt4lessIiESaIiEE11lower_boundERKi(%"class.std::multiset"* nonnull align 8 dereferenceable(48) @st, i32* nonnull align 4 dereferenceable(4) %12), !llfi_index !994
  %77 = getelementptr inbounds %"struct.std::_Rb_tree_const_iterator", %"struct.std::_Rb_tree_const_iterator"* %11, i32 0, i32 0, !llfi_index !995
  store %"struct.std::_Rb_tree_node_base"* %76, %"struct.std::_Rb_tree_node_base"** %77, align 8, !llfi_index !996
  %78 = bitcast %"struct.std::_Rb_tree_const_iterator"* %11 to i8*, !llfi_index !997
  call void @llvm.memcpy.p0i8.p0i8.i64(i8* align 8 bitcast (%"struct.std::_Rb_tree_const_iterator"* @tmpl to i8*), i8* align 8 %78, i64 8, i1 false), !llfi_index !998
  %79 = load i32, i32* %9, align 4, !llfi_index !999
  %80 = sub nsw i32 %79, 1, !llfi_index !1000
  store i32 %80, i32* %14, align 4, !llfi_index !1001
  %81 = call %"struct.std::_Rb_tree_node_base"* @_ZNSt8multisetIiSt4lessIiESaIiEE11upper_boundERKi(%"class.std::multiset"* nonnull align 8 dereferenceable(48) @st, i32* nonnull align 4 dereferenceable(4) %14), !llfi_index !1002
  %82 = getelementptr inbounds %"struct.std::_Rb_tree_const_iterator", %"struct.std::_Rb_tree_const_iterator"* %13, i32 0, i32 0, !llfi_index !1003
  store %"struct.std::_Rb_tree_node_base"* %81, %"struct.std::_Rb_tree_node_base"** %82, align 8, !llfi_index !1004
  %83 = bitcast %"struct.std::_Rb_tree_const_iterator"* %13 to i8*, !llfi_index !1005
  call void @llvm.memcpy.p0i8.p0i8.i64(i8* align 8 bitcast (%"struct.std::_Rb_tree_const_iterator"* @tmpr to i8*), i8* align 8 %83, i64 8, i1 false), !llfi_index !1006
  %84 = call %"struct.std::_Rb_tree_node_base"* @_ZNSt23_Rb_tree_const_iteratorIiEmmEi(%"struct.std::_Rb_tree_const_iterator"* nonnull align 8 dereferenceable(8) @tmpr, i32 0) #2, !llfi_index !1007
  %85 = getelementptr inbounds %"struct.std::_Rb_tree_const_iterator", %"struct.std::_Rb_tree_const_iterator"* %15, i32 0, i32 0, !llfi_index !1008
  store %"struct.std::_Rb_tree_node_base"* %84, %"struct.std::_Rb_tree_node_base"** %85, align 8, !llfi_index !1009
  %86 = load i32, i32* %9, align 4, !llfi_index !1010
  %87 = load i32, i32* %10, align 4, !llfi_index !1011
  %88 = icmp sle i32 %86, %87, !llfi_index !1012
  br i1 %88, label %95, label %89, !llfi_index !1013

89:                                               ; preds = %48
  %90 = call nonnull align 4 dereferenceable(4) i32* @_ZNKSt23_Rb_tree_const_iteratorIiEdeEv(%"struct.std::_Rb_tree_const_iterator"* nonnull align 8 dereferenceable(8) @tmpl) #2, !llfi_index !1014
  %91 = load i32, i32* %90, align 4, !llfi_index !1015
  %92 = call nonnull align 4 dereferenceable(4) i32* @_ZNKSt23_Rb_tree_const_iteratorIiEdeEv(%"struct.std::_Rb_tree_const_iterator"* nonnull align 8 dereferenceable(8) @tmpr) #2, !llfi_index !1016
  %93 = load i32, i32* %92, align 4, !llfi_index !1017
  %94 = icmp sgt i32 %91, %93, !llfi_index !1018
  br i1 %94, label %95, label %97, !llfi_index !1019

95:                                               ; preds = %89, %48
  %96 = call i32 (i8*, ...) @printf(i8* getelementptr inbounds ([3 x i8], [3 x i8]* @.str.9, i64 0, i64 0)), !llfi_index !1020
  br label %175, !llfi_index !1021

97:                                               ; preds = %89
  %98 = call %"struct.std::_Rb_tree_node_base"* @_ZNSt8multisetIiSt4lessIiESaIiEE11lower_boundERKi(%"class.std::multiset"* nonnull align 8 dereferenceable(48) @st, i32* nonnull align 4 dereferenceable(4) %10), !llfi_index !1022
  %99 = getelementptr inbounds %"struct.std::_Rb_tree_const_iterator", %"struct.std::_Rb_tree_const_iterator"* %16, i32 0, i32 0, !llfi_index !1023
  store %"struct.std::_Rb_tree_node_base"* %98, %"struct.std::_Rb_tree_node_base"** %99, align 8, !llfi_index !1024
  %100 = bitcast %"struct.std::_Rb_tree_const_iterator"* %16 to i8*, !llfi_index !1025
  call void @llvm.memcpy.p0i8.p0i8.i64(i8* align 8 bitcast (%"struct.std::_Rb_tree_const_iterator"* @tmpl to i8*), i8* align 8 %100, i64 8, i1 false), !llfi_index !1026
  %101 = call %"struct.std::_Rb_tree_node_base"* @_ZNSt8multisetIiSt4lessIiESaIiEE11upper_boundERKi(%"class.std::multiset"* nonnull align 8 dereferenceable(48) @st, i32* nonnull align 4 dereferenceable(4) %9), !llfi_index !1027
  %102 = getelementptr inbounds %"struct.std::_Rb_tree_const_iterator", %"struct.std::_Rb_tree_const_iterator"* %17, i32 0, i32 0, !llfi_index !1028
  store %"struct.std::_Rb_tree_node_base"* %101, %"struct.std::_Rb_tree_node_base"** %102, align 8, !llfi_index !1029
  %103 = bitcast %"struct.std::_Rb_tree_const_iterator"* %17 to i8*, !llfi_index !1030
  call void @llvm.memcpy.p0i8.p0i8.i64(i8* align 8 bitcast (%"struct.std::_Rb_tree_const_iterator"* @tmpr to i8*), i8* align 8 %103, i64 8, i1 false), !llfi_index !1031
  %104 = call %"struct.std::_Rb_tree_node_base"* @_ZNSt23_Rb_tree_const_iteratorIiEmmEi(%"struct.std::_Rb_tree_const_iterator"* nonnull align 8 dereferenceable(8) @tmpr, i32 0) #2, !llfi_index !1032
  %105 = getelementptr inbounds %"struct.std::_Rb_tree_const_iterator", %"struct.std::_Rb_tree_const_iterator"* %18, i32 0, i32 0, !llfi_index !1033
  store %"struct.std::_Rb_tree_node_base"* %104, %"struct.std::_Rb_tree_node_base"** %105, align 8, !llfi_index !1034
  %106 = call nonnull align 4 dereferenceable(4) i32* @_ZNKSt23_Rb_tree_const_iteratorIiEdeEv(%"struct.std::_Rb_tree_const_iterator"* nonnull align 8 dereferenceable(8) @tmpl) #2, !llfi_index !1035
  %107 = load i32, i32* %106, align 4, !llfi_index !1036
  %108 = call nonnull align 4 dereferenceable(4) i32* @_ZNKSt23_Rb_tree_const_iteratorIiEdeEv(%"struct.std::_Rb_tree_const_iterator"* nonnull align 8 dereferenceable(8) @tmpr) #2, !llfi_index !1037
  %109 = load i32, i32* %108, align 4, !llfi_index !1038
  %110 = icmp sgt i32 %107, %109, !llfi_index !1039
  br i1 %110, label %111, label %114, !llfi_index !1040

111:                                              ; preds = %97
  %112 = load i32, i32* %4, align 4, !llfi_index !1041
  %113 = call i32 (i8*, ...) @printf(i8* getelementptr inbounds ([4 x i8], [4 x i8]* @.str.10, i64 0, i64 0), i32 %112), !llfi_index !1042
  br label %176, !llfi_index !1043

114:                                              ; preds = %97
  %115 = call %"struct.std::_Rb_tree_node_base"* @_ZNSt23_Rb_tree_const_iteratorIiEmmEi(%"struct.std::_Rb_tree_const_iterator"* nonnull align 8 dereferenceable(8) @tmpr, i32 0) #2, !llfi_index !1044
  %116 = getelementptr inbounds %"struct.std::_Rb_tree_const_iterator", %"struct.std::_Rb_tree_const_iterator"* %19, i32 0, i32 0, !llfi_index !1045
  store %"struct.std::_Rb_tree_node_base"* %115, %"struct.std::_Rb_tree_node_base"** %116, align 8, !llfi_index !1046
  %117 = call %"struct.std::_Rb_tree_node_base"* @_ZNSt23_Rb_tree_const_iteratorIiEppEi(%"struct.std::_Rb_tree_const_iterator"* nonnull align 8 dereferenceable(8) @tmpr, i32 0) #2, !llfi_index !1047
  %118 = getelementptr inbounds %"struct.std::_Rb_tree_const_iterator", %"struct.std::_Rb_tree_const_iterator"* %20, i32 0, i32 0, !llfi_index !1048
  store %"struct.std::_Rb_tree_node_base"* %117, %"struct.std::_Rb_tree_node_base"** %118, align 8, !llfi_index !1049
  %119 = call nonnull align 4 dereferenceable(4) i32* @_ZNKSt23_Rb_tree_const_iteratorIiEdeEv(%"struct.std::_Rb_tree_const_iterator"* nonnull align 8 dereferenceable(8) @tmpr) #2, !llfi_index !1050
  %120 = load i32, i32* %119, align 4, !llfi_index !1051
  %121 = load i32, i32* @rt, align 4, !llfi_index !1052
  %122 = sext i32 %121 to i64, !llfi_index !1053
  %123 = getelementptr inbounds [888888 x %struct.treap], [888888 x %struct.treap]* @t, i64 0, i64 %122, !llfi_index !1054
  %124 = getelementptr inbounds %struct.treap, %struct.treap* %123, i32 0, i32 5, !llfi_index !1055
  %125 = load i32, i32* %124, align 4, !llfi_index !1056
  %126 = icmp eq i32 %120, %125, !llfi_index !1057
  br i1 %126, label %127, label %130, !llfi_index !1058

127:                                              ; preds = %114
  %128 = call %"struct.std::_Rb_tree_node_base"* @_ZNSt23_Rb_tree_const_iteratorIiEmmEi(%"struct.std::_Rb_tree_const_iterator"* nonnull align 8 dereferenceable(8) @tmpr, i32 0) #2, !llfi_index !1059
  %129 = getelementptr inbounds %"struct.std::_Rb_tree_const_iterator", %"struct.std::_Rb_tree_const_iterator"* %21, i32 0, i32 0, !llfi_index !1060
  store %"struct.std::_Rb_tree_node_base"* %128, %"struct.std::_Rb_tree_node_base"** %129, align 8, !llfi_index !1061
  br label %130, !llfi_index !1062

130:                                              ; preds = %127, %114
  %131 = call nonnull align 4 dereferenceable(4) i32* @_ZNKSt23_Rb_tree_const_iteratorIiEdeEv(%"struct.std::_Rb_tree_const_iterator"* nonnull align 8 dereferenceable(8) @tmpl) #2, !llfi_index !1063
  %132 = load i32, i32* %131, align 4, !llfi_index !1064
  %133 = load i32, i32* @rt, align 4, !llfi_index !1065
  %134 = sext i32 %133 to i64, !llfi_index !1066
  %135 = getelementptr inbounds [888888 x %struct.treap], [888888 x %struct.treap]* @t, i64 0, i64 %134, !llfi_index !1067
  %136 = getelementptr inbounds %struct.treap, %struct.treap* %135, i32 0, i32 6, !llfi_index !1068
  %137 = load i32, i32* %136, align 8, !llfi_index !1069
  %138 = icmp eq i32 %132, %137, !llfi_index !1070
  br i1 %138, label %139, label %142, !llfi_index !1071

139:                                              ; preds = %130
  %140 = call %"struct.std::_Rb_tree_node_base"* @_ZNSt23_Rb_tree_const_iteratorIiEppEi(%"struct.std::_Rb_tree_const_iterator"* nonnull align 8 dereferenceable(8) @tmpl, i32 0) #2, !llfi_index !1072
  %141 = getelementptr inbounds %"struct.std::_Rb_tree_const_iterator", %"struct.std::_Rb_tree_const_iterator"* %22, i32 0, i32 0, !llfi_index !1073
  store %"struct.std::_Rb_tree_node_base"* %140, %"struct.std::_Rb_tree_node_base"** %141, align 8, !llfi_index !1074
  br label %142, !llfi_index !1075

142:                                              ; preds = %139, %130
  %143 = load i32, i32* %9, align 4, !llfi_index !1076
  %144 = call nonnull align 4 dereferenceable(4) i32* @_ZNKSt23_Rb_tree_const_iteratorIiEdeEv(%"struct.std::_Rb_tree_const_iterator"* nonnull align 8 dereferenceable(8) @tmpr) #2, !llfi_index !1077
  %145 = load i32, i32* %144, align 4, !llfi_index !1078
  %146 = sub nsw i32 %143, %145, !llfi_index !1079
  store i32 %146, i32* %24, align 4, !llfi_index !1080
  %147 = call nonnull align 4 dereferenceable(4) i32* @_ZNKSt23_Rb_tree_const_iteratorIiEdeEv(%"struct.std::_Rb_tree_const_iterator"* nonnull align 8 dereferenceable(8) @tmpl) #2, !llfi_index !1081
  %148 = load i32, i32* %147, align 4, !llfi_index !1082
  %149 = load i32, i32* %10, align 4, !llfi_index !1083
  %150 = sub nsw i32 %148, %149, !llfi_index !1084
  store i32 %150, i32* %25, align 4, !llfi_index !1085
  %151 = call nonnull align 4 dereferenceable(4) i32* @_ZSt3maxIiERKT_S2_S2_(i32* nonnull align 4 dereferenceable(4) %24, i32* nonnull align 4 dereferenceable(4) %25), !llfi_index !1086
  %152 = load i32, i32* %151, align 4, !llfi_index !1087
  store i32 %152, i32* %23, align 4, !llfi_index !1088
  %153 = load i32, i32* @rt, align 4, !llfi_index !1089
  %154 = call nonnull align 4 dereferenceable(4) i32* @_ZNKSt23_Rb_tree_const_iteratorIiEdeEv(%"struct.std::_Rb_tree_const_iterator"* nonnull align 8 dereferenceable(8) @tmpl) #2, !llfi_index !1090
  %155 = load i32, i32* %154, align 4, !llfi_index !1091
  %156 = call i32 @_Z4getpii(i32 %153, i32 %155), !llfi_index !1092
  store i32 %156, i32* %26, align 4, !llfi_index !1093
  %157 = load i32, i32* @rt, align 4, !llfi_index !1094
  %158 = call nonnull align 4 dereferenceable(4) i32* @_ZNKSt23_Rb_tree_const_iteratorIiEdeEv(%"struct.std::_Rb_tree_const_iterator"* nonnull align 8 dereferenceable(8) @tmpr) #2, !llfi_index !1095
  %159 = load i32, i32* %158, align 4, !llfi_index !1096
  %160 = call i32 @_Z4getpii(i32 %157, i32 %159), !llfi_index !1097
  store i32 %160, i32* %27, align 4, !llfi_index !1098
  %161 = load i32, i32* %26, align 4, !llfi_index !1099
  %162 = load i32, i32* %27, align 4, !llfi_index !1100
  %163 = call i32 @_Z5queryii(i32 %161, i32 %162), !llfi_index !1101
  store i32 %163, i32* %28, align 4, !llfi_index !1102
  %164 = call nonnull align 4 dereferenceable(4) i32* @_ZSt3maxIiERKT_S2_S2_(i32* nonnull align 4 dereferenceable(4) %23, i32* nonnull align 4 dereferenceable(4) %28), !llfi_index !1103
  %165 = load i32, i32* %164, align 4, !llfi_index !1104
  store i32 %165, i32* %23, align 4, !llfi_index !1105
  %166 = load i32, i32* %9, align 4, !llfi_index !1106
  %167 = load i32, i32* %10, align 4, !llfi_index !1107
  %168 = sub nsw i32 %166, %167, !llfi_index !1108
  %169 = load i32, i32* %23, align 4, !llfi_index !1109
  %170 = sub nsw i32 %168, %169, !llfi_index !1110
  store i32 %170, i32* %29, align 4, !llfi_index !1111
  %171 = call nonnull align 4 dereferenceable(4) i32* @_ZSt3maxIiERKT_S2_S2_(i32* nonnull align 4 dereferenceable(4) %4, i32* nonnull align 4 dereferenceable(4) %29), !llfi_index !1112
  %172 = load i32, i32* %171, align 4, !llfi_index !1113
  store i32 %172, i32* %4, align 4, !llfi_index !1114
  %173 = load i32, i32* %4, align 4, !llfi_index !1115
  %174 = call i32 (i8*, ...) @printf(i8* getelementptr inbounds ([4 x i8], [4 x i8]* @.str.10, i64 0, i64 0), i32 %173), !llfi_index !1116
  br label %175, !llfi_index !1117

175:                                              ; preds = %142, %95
  br label %176, !llfi_index !1118

176:                                              ; preds = %175, %111
  %177 = load i32, i32* %7, align 4, !llfi_index !1119
  %178 = add nsw i32 %177, 1, !llfi_index !1120
  store i32 %178, i32* %7, align 4, !llfi_index !1121
  br label %44, !llvm.loop !1122, !llfi_index !1123

179:                                              ; preds = %44
  %180 = call i32 (i8*, ...) @printf(i8* getelementptr inbounds ([2 x i8], [2 x i8]* @.str.11, i64 0, i64 0)), !llfi_index !1124
  br label %33, !llvm.loop !1125, !llfi_index !1126

181:                                              ; preds = %33
  ret i32 0, !llfi_index !1127
}

declare dso_local %struct._IO_FILE* @freopen(i8*, i8*, %struct._IO_FILE*) #7

declare dso_local i32 @__isoc99_scanf(i8*, ...) #7

declare dso_local i32 @printf(i8*, ...) #7

; Function Attrs: mustprogress noinline uwtable
define linkonce_odr dso_local %"struct.std::_Rb_tree_node_base"* @_ZNSt8multisetIiSt4lessIiESaIiEE6insertERKi(%"class.std::multiset"* nonnull align 8 dereferenceable(48) %0, i32* nonnull align 4 dereferenceable(4) %1) #4 comdat align 2 {
  %3 = alloca %"struct.std::_Rb_tree_const_iterator", align 8, !llfi_index !1128
  %4 = alloca %"class.std::multiset"*, align 8, !llfi_index !1129
  %5 = alloca i32*, align 8, !llfi_index !1130
  %6 = alloca %"struct.std::_Rb_tree_const_iterator", align 8, !llfi_index !1131
  store %"class.std::multiset"* %0, %"class.std::multiset"** %4, align 8, !llfi_index !1132
  store i32* %1, i32** %5, align 8, !llfi_index !1133
  %7 = load %"class.std::multiset"*, %"class.std::multiset"** %4, align 8, !llfi_index !1134
  %8 = getelementptr inbounds %"class.std::multiset", %"class.std::multiset"* %7, i32 0, i32 0, !llfi_index !1135
  %9 = load i32*, i32** %5, align 8, !llfi_index !1136
  %10 = call %"struct.std::_Rb_tree_node_base"* @_ZNSt8_Rb_treeIiiSt9_IdentityIiESt4lessIiESaIiEE15_M_insert_equalIRKiEESt17_Rb_tree_iteratorIiEOT_(%"class.std::_Rb_tree"* nonnull align 8 dereferenceable(48) %8, i32* nonnull align 4 dereferenceable(4) %9), !llfi_index !1137
  %11 = getelementptr inbounds %"struct.std::_Rb_tree_const_iterator", %"struct.std::_Rb_tree_const_iterator"* %6, i32 0, i32 0, !llfi_index !1138
  store %"struct.std::_Rb_tree_node_base"* %10, %"struct.std::_Rb_tree_node_base"** %11, align 8, !llfi_index !1139
  call void @_ZNSt23_Rb_tree_const_iteratorIiEC2ERKSt17_Rb_tree_iteratorIiE(%"struct.std::_Rb_tree_const_iterator"* nonnull align 8 dereferenceable(8) %3, %"struct.std::_Rb_tree_const_iterator"* nonnull align 8 dereferenceable(8) %6) #2, !llfi_index !1140
  %12 = getelementptr inbounds %"struct.std::_Rb_tree_const_iterator", %"struct.std::_Rb_tree_const_iterator"* %3, i32 0, i32 0, !llfi_index !1141
  %13 = load %"struct.std::_Rb_tree_node_base"*, %"struct.std::_Rb_tree_node_base"** %12, align 8, !llfi_index !1142
  ret %"struct.std::_Rb_tree_node_base"* %13, !llfi_index !1143
}

; Function Attrs: mustprogress noinline uwtable
define linkonce_odr dso_local %"struct.std::_Rb_tree_node_base"* @_ZNSt8multisetIiSt4lessIiESaIiEE11lower_boundERKi(%"class.std::multiset"* nonnull align 8 dereferenceable(48) %0, i32* nonnull align 4 dereferenceable(4) %1) #4 comdat align 2 {
  %3 = alloca %"struct.std::_Rb_tree_const_iterator", align 8, !llfi_index !1144
  %4 = alloca %"class.std::multiset"*, align 8, !llfi_index !1145
  %5 = alloca i32*, align 8, !llfi_index !1146
  %6 = alloca %"struct.std::_Rb_tree_const_iterator", align 8, !llfi_index !1147
  store %"class.std::multiset"* %0, %"class.std::multiset"** %4, align 8, !llfi_index !1148
  store i32* %1, i32** %5, align 8, !llfi_index !1149
  %7 = load %"class.std::multiset"*, %"class.std::multiset"** %4, align 8, !llfi_index !1150
  %8 = getelementptr inbounds %"class.std::multiset", %"class.std::multiset"* %7, i32 0, i32 0, !llfi_index !1151
  %9 = load i32*, i32** %5, align 8, !llfi_index !1152
  %10 = call %"struct.std::_Rb_tree_node_base"* @_ZNSt8_Rb_treeIiiSt9_IdentityIiESt4lessIiESaIiEE11lower_boundERKi(%"class.std::_Rb_tree"* nonnull align 8 dereferenceable(48) %8, i32* nonnull align 4 dereferenceable(4) %9), !llfi_index !1153
  %11 = getelementptr inbounds %"struct.std::_Rb_tree_const_iterator", %"struct.std::_Rb_tree_const_iterator"* %6, i32 0, i32 0, !llfi_index !1154
  store %"struct.std::_Rb_tree_node_base"* %10, %"struct.std::_Rb_tree_node_base"** %11, align 8, !llfi_index !1155
  call void @_ZNSt23_Rb_tree_const_iteratorIiEC2ERKSt17_Rb_tree_iteratorIiE(%"struct.std::_Rb_tree_const_iterator"* nonnull align 8 dereferenceable(8) %3, %"struct.std::_Rb_tree_const_iterator"* nonnull align 8 dereferenceable(8) %6) #2, !llfi_index !1156
  %12 = getelementptr inbounds %"struct.std::_Rb_tree_const_iterator", %"struct.std::_Rb_tree_const_iterator"* %3, i32 0, i32 0, !llfi_index !1157
  %13 = load %"struct.std::_Rb_tree_node_base"*, %"struct.std::_Rb_tree_node_base"** %12, align 8, !llfi_index !1158
  ret %"struct.std::_Rb_tree_node_base"* %13, !llfi_index !1159
}

; Function Attrs: mustprogress noinline uwtable
define linkonce_odr dso_local %"struct.std::_Rb_tree_node_base"* @_ZNSt8multisetIiSt4lessIiESaIiEE11upper_boundERKi(%"class.std::multiset"* nonnull align 8 dereferenceable(48) %0, i32* nonnull align 4 dereferenceable(4) %1) #4 comdat align 2 {
  %3 = alloca %"struct.std::_Rb_tree_const_iterator", align 8, !llfi_index !1160
  %4 = alloca %"class.std::multiset"*, align 8, !llfi_index !1161
  %5 = alloca i32*, align 8, !llfi_index !1162
  %6 = alloca %"struct.std::_Rb_tree_const_iterator", align 8, !llfi_index !1163
  store %"class.std::multiset"* %0, %"class.std::multiset"** %4, align 8, !llfi_index !1164
  store i32* %1, i32** %5, align 8, !llfi_index !1165
  %7 = load %"class.std::multiset"*, %"class.std::multiset"** %4, align 8, !llfi_index !1166
  %8 = getelementptr inbounds %"class.std::multiset", %"class.std::multiset"* %7, i32 0, i32 0, !llfi_index !1167
  %9 = load i32*, i32** %5, align 8, !llfi_index !1168
  %10 = call %"struct.std::_Rb_tree_node_base"* @_ZNSt8_Rb_treeIiiSt9_IdentityIiESt4lessIiESaIiEE11upper_boundERKi(%"class.std::_Rb_tree"* nonnull align 8 dereferenceable(48) %8, i32* nonnull align 4 dereferenceable(4) %9), !llfi_index !1169
  %11 = getelementptr inbounds %"struct.std::_Rb_tree_const_iterator", %"struct.std::_Rb_tree_const_iterator"* %6, i32 0, i32 0, !llfi_index !1170
  store %"struct.std::_Rb_tree_node_base"* %10, %"struct.std::_Rb_tree_node_base"** %11, align 8, !llfi_index !1171
  call void @_ZNSt23_Rb_tree_const_iteratorIiEC2ERKSt17_Rb_tree_iteratorIiE(%"struct.std::_Rb_tree_const_iterator"* nonnull align 8 dereferenceable(8) %3, %"struct.std::_Rb_tree_const_iterator"* nonnull align 8 dereferenceable(8) %6) #2, !llfi_index !1172
  %12 = getelementptr inbounds %"struct.std::_Rb_tree_const_iterator", %"struct.std::_Rb_tree_const_iterator"* %3, i32 0, i32 0, !llfi_index !1173
  %13 = load %"struct.std::_Rb_tree_node_base"*, %"struct.std::_Rb_tree_node_base"** %12, align 8, !llfi_index !1174
  ret %"struct.std::_Rb_tree_node_base"* %13, !llfi_index !1175
}

; Function Attrs: mustprogress noinline nounwind uwtable
define linkonce_odr dso_local %"struct.std::_Rb_tree_node_base"* @_ZNSt23_Rb_tree_const_iteratorIiEmmEi(%"struct.std::_Rb_tree_const_iterator"* nonnull align 8 dereferenceable(8) %0, i32 %1) #3 comdat align 2 {
  %3 = alloca %"struct.std::_Rb_tree_const_iterator", align 8, !llfi_index !1176
  %4 = alloca %"struct.std::_Rb_tree_const_iterator"*, align 8, !llfi_index !1177
  %5 = alloca i32, align 4, !llfi_index !1178
  store %"struct.std::_Rb_tree_const_iterator"* %0, %"struct.std::_Rb_tree_const_iterator"** %4, align 8, !llfi_index !1179
  store i32 %1, i32* %5, align 4, !llfi_index !1180
  %6 = load %"struct.std::_Rb_tree_const_iterator"*, %"struct.std::_Rb_tree_const_iterator"** %4, align 8, !llfi_index !1181
  %7 = bitcast %"struct.std::_Rb_tree_const_iterator"* %3 to i8*, !llfi_index !1182
  %8 = bitcast %"struct.std::_Rb_tree_const_iterator"* %6 to i8*, !llfi_index !1183
  call void @llvm.memcpy.p0i8.p0i8.i64(i8* align 8 %7, i8* align 8 %8, i64 8, i1 false), !llfi_index !1184
  %9 = getelementptr inbounds %"struct.std::_Rb_tree_const_iterator", %"struct.std::_Rb_tree_const_iterator"* %6, i32 0, i32 0, !llfi_index !1185
  %10 = load %"struct.std::_Rb_tree_node_base"*, %"struct.std::_Rb_tree_node_base"** %9, align 8, !llfi_index !1186
  %11 = call %"struct.std::_Rb_tree_node_base"* @_ZSt18_Rb_tree_decrementPKSt18_Rb_tree_node_base(%"struct.std::_Rb_tree_node_base"* %10) #15, !llfi_index !1187
  %12 = getelementptr inbounds %"struct.std::_Rb_tree_const_iterator", %"struct.std::_Rb_tree_const_iterator"* %6, i32 0, i32 0, !llfi_index !1188
  store %"struct.std::_Rb_tree_node_base"* %11, %"struct.std::_Rb_tree_node_base"** %12, align 8, !llfi_index !1189
  %13 = getelementptr inbounds %"struct.std::_Rb_tree_const_iterator", %"struct.std::_Rb_tree_const_iterator"* %3, i32 0, i32 0, !llfi_index !1190
  %14 = load %"struct.std::_Rb_tree_node_base"*, %"struct.std::_Rb_tree_node_base"** %13, align 8, !llfi_index !1191
  ret %"struct.std::_Rb_tree_node_base"* %14, !llfi_index !1192
}

; Function Attrs: mustprogress noinline nounwind uwtable
define linkonce_odr dso_local nonnull align 4 dereferenceable(4) i32* @_ZNKSt23_Rb_tree_const_iteratorIiEdeEv(%"struct.std::_Rb_tree_const_iterator"* nonnull align 8 dereferenceable(8) %0) #3 comdat align 2 {
  %2 = alloca %"struct.std::_Rb_tree_const_iterator"*, align 8, !llfi_index !1193
  store %"struct.std::_Rb_tree_const_iterator"* %0, %"struct.std::_Rb_tree_const_iterator"** %2, align 8, !llfi_index !1194
  %3 = load %"struct.std::_Rb_tree_const_iterator"*, %"struct.std::_Rb_tree_const_iterator"** %2, align 8, !llfi_index !1195
  %4 = getelementptr inbounds %"struct.std::_Rb_tree_const_iterator", %"struct.std::_Rb_tree_const_iterator"* %3, i32 0, i32 0, !llfi_index !1196
  %5 = load %"struct.std::_Rb_tree_node_base"*, %"struct.std::_Rb_tree_node_base"** %4, align 8, !llfi_index !1197
  %6 = bitcast %"struct.std::_Rb_tree_node_base"* %5 to %"struct.std::_Rb_tree_node"*, !llfi_index !1198
  %7 = call i32* @_ZNKSt13_Rb_tree_nodeIiE9_M_valptrEv(%"struct.std::_Rb_tree_node"* nonnull align 8 dereferenceable(36) %6), !llfi_index !1199
  ret i32* %7, !llfi_index !1200
}

; Function Attrs: mustprogress noinline nounwind uwtable
define linkonce_odr dso_local %"struct.std::_Rb_tree_node_base"* @_ZNSt23_Rb_tree_const_iteratorIiEppEi(%"struct.std::_Rb_tree_const_iterator"* nonnull align 8 dereferenceable(8) %0, i32 %1) #3 comdat align 2 {
  %3 = alloca %"struct.std::_Rb_tree_const_iterator", align 8, !llfi_index !1201
  %4 = alloca %"struct.std::_Rb_tree_const_iterator"*, align 8, !llfi_index !1202
  %5 = alloca i32, align 4, !llfi_index !1203
  store %"struct.std::_Rb_tree_const_iterator"* %0, %"struct.std::_Rb_tree_const_iterator"** %4, align 8, !llfi_index !1204
  store i32 %1, i32* %5, align 4, !llfi_index !1205
  %6 = load %"struct.std::_Rb_tree_const_iterator"*, %"struct.std::_Rb_tree_const_iterator"** %4, align 8, !llfi_index !1206
  %7 = bitcast %"struct.std::_Rb_tree_const_iterator"* %3 to i8*, !llfi_index !1207
  %8 = bitcast %"struct.std::_Rb_tree_const_iterator"* %6 to i8*, !llfi_index !1208
  call void @llvm.memcpy.p0i8.p0i8.i64(i8* align 8 %7, i8* align 8 %8, i64 8, i1 false), !llfi_index !1209
  %9 = getelementptr inbounds %"struct.std::_Rb_tree_const_iterator", %"struct.std::_Rb_tree_const_iterator"* %6, i32 0, i32 0, !llfi_index !1210
  %10 = load %"struct.std::_Rb_tree_node_base"*, %"struct.std::_Rb_tree_node_base"** %9, align 8, !llfi_index !1211
  %11 = call %"struct.std::_Rb_tree_node_base"* @_ZSt18_Rb_tree_incrementPKSt18_Rb_tree_node_base(%"struct.std::_Rb_tree_node_base"* %10) #15, !llfi_index !1212
  %12 = getelementptr inbounds %"struct.std::_Rb_tree_const_iterator", %"struct.std::_Rb_tree_const_iterator"* %6, i32 0, i32 0, !llfi_index !1213
  store %"struct.std::_Rb_tree_node_base"* %11, %"struct.std::_Rb_tree_node_base"** %12, align 8, !llfi_index !1214
  %13 = getelementptr inbounds %"struct.std::_Rb_tree_const_iterator", %"struct.std::_Rb_tree_const_iterator"* %3, i32 0, i32 0, !llfi_index !1215
  %14 = load %"struct.std::_Rb_tree_node_base"*, %"struct.std::_Rb_tree_node_base"** %13, align 8, !llfi_index !1216
  ret %"struct.std::_Rb_tree_node_base"* %14, !llfi_index !1217
}

; Function Attrs: nounwind readonly willreturn
declare dso_local %"struct.std::_Rb_tree_node_base"* @_ZSt18_Rb_tree_incrementPKSt18_Rb_tree_node_base(%"struct.std::_Rb_tree_node_base"*) #11

; Function Attrs: mustprogress noinline nounwind uwtable
define linkonce_odr dso_local i32* @_ZNKSt13_Rb_tree_nodeIiE9_M_valptrEv(%"struct.std::_Rb_tree_node"* nonnull align 8 dereferenceable(36) %0) #3 comdat align 2 {
  %2 = alloca %"struct.std::_Rb_tree_node"*, align 8, !llfi_index !1218
  store %"struct.std::_Rb_tree_node"* %0, %"struct.std::_Rb_tree_node"** %2, align 8, !llfi_index !1219
  %3 = load %"struct.std::_Rb_tree_node"*, %"struct.std::_Rb_tree_node"** %2, align 8, !llfi_index !1220
  %4 = getelementptr inbounds %"struct.std::_Rb_tree_node", %"struct.std::_Rb_tree_node"* %3, i32 0, i32 1, !llfi_index !1221
  %5 = call i32* @_ZNK9__gnu_cxx16__aligned_membufIiE6_M_ptrEv(%"struct.__gnu_cxx::__aligned_membuf"* nonnull align 4 dereferenceable(4) %4) #2, !llfi_index !1222
  ret i32* %5, !llfi_index !1223
}

; Function Attrs: mustprogress noinline nounwind uwtable
define linkonce_odr dso_local i32* @_ZNK9__gnu_cxx16__aligned_membufIiE6_M_ptrEv(%"struct.__gnu_cxx::__aligned_membuf"* nonnull align 4 dereferenceable(4) %0) #3 comdat align 2 {
  %2 = alloca %"struct.__gnu_cxx::__aligned_membuf"*, align 8, !llfi_index !1224
  store %"struct.__gnu_cxx::__aligned_membuf"* %0, %"struct.__gnu_cxx::__aligned_membuf"** %2, align 8, !llfi_index !1225
  %3 = load %"struct.__gnu_cxx::__aligned_membuf"*, %"struct.__gnu_cxx::__aligned_membuf"** %2, align 8, !llfi_index !1226
  %4 = call i8* @_ZNK9__gnu_cxx16__aligned_membufIiE7_M_addrEv(%"struct.__gnu_cxx::__aligned_membuf"* nonnull align 4 dereferenceable(4) %3) #2, !llfi_index !1227
  %5 = bitcast i8* %4 to i32*, !llfi_index !1228
  ret i32* %5, !llfi_index !1229
}

; Function Attrs: mustprogress noinline nounwind uwtable
define linkonce_odr dso_local i8* @_ZNK9__gnu_cxx16__aligned_membufIiE7_M_addrEv(%"struct.__gnu_cxx::__aligned_membuf"* nonnull align 4 dereferenceable(4) %0) #3 comdat align 2 {
  %2 = alloca %"struct.__gnu_cxx::__aligned_membuf"*, align 8, !llfi_index !1230
  store %"struct.__gnu_cxx::__aligned_membuf"* %0, %"struct.__gnu_cxx::__aligned_membuf"** %2, align 8, !llfi_index !1231
  %3 = load %"struct.__gnu_cxx::__aligned_membuf"*, %"struct.__gnu_cxx::__aligned_membuf"** %2, align 8, !llfi_index !1232
  %4 = getelementptr inbounds %"struct.__gnu_cxx::__aligned_membuf", %"struct.__gnu_cxx::__aligned_membuf"* %3, i32 0, i32 0, !llfi_index !1233
  %5 = bitcast [4 x i8]* %4 to i8*, !llfi_index !1234
  ret i8* %5, !llfi_index !1235
}

; Function Attrs: nounwind readonly willreturn
declare dso_local %"struct.std::_Rb_tree_node_base"* @_ZSt18_Rb_tree_decrementPKSt18_Rb_tree_node_base(%"struct.std::_Rb_tree_node_base"*) #11

; Function Attrs: mustprogress noinline uwtable
define linkonce_odr dso_local %"struct.std::_Rb_tree_node_base"* @_ZNSt8_Rb_treeIiiSt9_IdentityIiESt4lessIiESaIiEE11upper_boundERKi(%"class.std::_Rb_tree"* nonnull align 8 dereferenceable(48) %0, i32* nonnull align 4 dereferenceable(4) %1) #4 comdat align 2 {
  %3 = alloca %"struct.std::_Rb_tree_const_iterator", align 8, !llfi_index !1236
  %4 = alloca %"class.std::_Rb_tree"*, align 8, !llfi_index !1237
  %5 = alloca i32*, align 8, !llfi_index !1238
  store %"class.std::_Rb_tree"* %0, %"class.std::_Rb_tree"** %4, align 8, !llfi_index !1239
  store i32* %1, i32** %5, align 8, !llfi_index !1240
  %6 = load %"class.std::_Rb_tree"*, %"class.std::_Rb_tree"** %4, align 8, !llfi_index !1241
  %7 = call %"struct.std::_Rb_tree_node"* @_ZNSt8_Rb_treeIiiSt9_IdentityIiESt4lessIiESaIiEE8_M_beginEv(%"class.std::_Rb_tree"* nonnull align 8 dereferenceable(48) %6) #2, !llfi_index !1242
  %8 = call %"struct.std::_Rb_tree_node_base"* @_ZNSt8_Rb_treeIiiSt9_IdentityIiESt4lessIiESaIiEE6_M_endEv(%"class.std::_Rb_tree"* nonnull align 8 dereferenceable(48) %6) #2, !llfi_index !1243
  %9 = load i32*, i32** %5, align 8, !llfi_index !1244
  %10 = call %"struct.std::_Rb_tree_node_base"* @_ZNSt8_Rb_treeIiiSt9_IdentityIiESt4lessIiESaIiEE14_M_upper_boundEPSt13_Rb_tree_nodeIiEPSt18_Rb_tree_node_baseRKi(%"class.std::_Rb_tree"* nonnull align 8 dereferenceable(48) %6, %"struct.std::_Rb_tree_node"* %7, %"struct.std::_Rb_tree_node_base"* %8, i32* nonnull align 4 dereferenceable(4) %9), !llfi_index !1245
  %11 = getelementptr inbounds %"struct.std::_Rb_tree_const_iterator", %"struct.std::_Rb_tree_const_iterator"* %3, i32 0, i32 0, !llfi_index !1246
  store %"struct.std::_Rb_tree_node_base"* %10, %"struct.std::_Rb_tree_node_base"** %11, align 8, !llfi_index !1247
  %12 = getelementptr inbounds %"struct.std::_Rb_tree_const_iterator", %"struct.std::_Rb_tree_const_iterator"* %3, i32 0, i32 0, !llfi_index !1248
  %13 = load %"struct.std::_Rb_tree_node_base"*, %"struct.std::_Rb_tree_node_base"** %12, align 8, !llfi_index !1249
  ret %"struct.std::_Rb_tree_node_base"* %13, !llfi_index !1250
}

; Function Attrs: noinline nounwind uwtable
define linkonce_odr dso_local void @_ZNSt23_Rb_tree_const_iteratorIiEC2ERKSt17_Rb_tree_iteratorIiE(%"struct.std::_Rb_tree_const_iterator"* nonnull align 8 dereferenceable(8) %0, %"struct.std::_Rb_tree_const_iterator"* nonnull align 8 dereferenceable(8) %1) unnamed_addr #1 comdat align 2 {
  %3 = alloca %"struct.std::_Rb_tree_const_iterator"*, align 8, !llfi_index !1251
  %4 = alloca %"struct.std::_Rb_tree_const_iterator"*, align 8, !llfi_index !1252
  store %"struct.std::_Rb_tree_const_iterator"* %0, %"struct.std::_Rb_tree_const_iterator"** %3, align 8, !llfi_index !1253
  store %"struct.std::_Rb_tree_const_iterator"* %1, %"struct.std::_Rb_tree_const_iterator"** %4, align 8, !llfi_index !1254
  %5 = load %"struct.std::_Rb_tree_const_iterator"*, %"struct.std::_Rb_tree_const_iterator"** %3, align 8, !llfi_index !1255
  %6 = getelementptr inbounds %"struct.std::_Rb_tree_const_iterator", %"struct.std::_Rb_tree_const_iterator"* %5, i32 0, i32 0, !llfi_index !1256
  %7 = load %"struct.std::_Rb_tree_const_iterator"*, %"struct.std::_Rb_tree_const_iterator"** %4, align 8, !llfi_index !1257
  %8 = getelementptr inbounds %"struct.std::_Rb_tree_const_iterator", %"struct.std::_Rb_tree_const_iterator"* %7, i32 0, i32 0, !llfi_index !1258
  %9 = load %"struct.std::_Rb_tree_node_base"*, %"struct.std::_Rb_tree_node_base"** %8, align 8, !llfi_index !1259
  store %"struct.std::_Rb_tree_node_base"* %9, %"struct.std::_Rb_tree_node_base"** %6, align 8, !llfi_index !1260
  ret void, !llfi_index !1261
}

; Function Attrs: mustprogress noinline nounwind uwtable
define linkonce_odr dso_local %"struct.std::_Rb_tree_node_base"* @_ZNSt8_Rb_treeIiiSt9_IdentityIiESt4lessIiESaIiEE6_M_endEv(%"class.std::_Rb_tree"* nonnull align 8 dereferenceable(48) %0) #3 comdat align 2 {
  %2 = alloca %"class.std::_Rb_tree"*, align 8, !llfi_index !1262
  store %"class.std::_Rb_tree"* %0, %"class.std::_Rb_tree"** %2, align 8, !llfi_index !1263
  %3 = load %"class.std::_Rb_tree"*, %"class.std::_Rb_tree"** %2, align 8, !llfi_index !1264
  %4 = getelementptr inbounds %"class.std::_Rb_tree", %"class.std::_Rb_tree"* %3, i32 0, i32 0, !llfi_index !1265
  %5 = bitcast %"struct.std::_Rb_tree<int, int, std::_Identity<int>, std::less<int>>::_Rb_tree_impl"* %4 to i8*, !llfi_index !1266
  %6 = getelementptr inbounds i8, i8* %5, i64 8, !llfi_index !1267
  %7 = bitcast i8* %6 to %"struct.std::_Rb_tree_header"*, !llfi_index !1268
  %8 = getelementptr inbounds %"struct.std::_Rb_tree_header", %"struct.std::_Rb_tree_header"* %7, i32 0, i32 0, !llfi_index !1269
  ret %"struct.std::_Rb_tree_node_base"* %8, !llfi_index !1270
}

; Function Attrs: mustprogress noinline uwtable
define linkonce_odr dso_local %"struct.std::_Rb_tree_node_base"* @_ZNSt8_Rb_treeIiiSt9_IdentityIiESt4lessIiESaIiEE14_M_upper_boundEPSt13_Rb_tree_nodeIiEPSt18_Rb_tree_node_baseRKi(%"class.std::_Rb_tree"* nonnull align 8 dereferenceable(48) %0, %"struct.std::_Rb_tree_node"* %1, %"struct.std::_Rb_tree_node_base"* %2, i32* nonnull align 4 dereferenceable(4) %3) #4 comdat align 2 {
  %5 = alloca %"struct.std::_Rb_tree_const_iterator", align 8, !llfi_index !1271
  %6 = alloca %"class.std::_Rb_tree"*, align 8, !llfi_index !1272
  %7 = alloca %"struct.std::_Rb_tree_node"*, align 8, !llfi_index !1273
  %8 = alloca %"struct.std::_Rb_tree_node_base"*, align 8, !llfi_index !1274
  %9 = alloca i32*, align 8, !llfi_index !1275
  store %"class.std::_Rb_tree"* %0, %"class.std::_Rb_tree"** %6, align 8, !llfi_index !1276
  store %"struct.std::_Rb_tree_node"* %1, %"struct.std::_Rb_tree_node"** %7, align 8, !llfi_index !1277
  store %"struct.std::_Rb_tree_node_base"* %2, %"struct.std::_Rb_tree_node_base"** %8, align 8, !llfi_index !1278
  store i32* %3, i32** %9, align 8, !llfi_index !1279
  %10 = load %"class.std::_Rb_tree"*, %"class.std::_Rb_tree"** %6, align 8, !llfi_index !1280
  br label %11, !llfi_index !1281

11:                                               ; preds = %32, %4
  %12 = load %"struct.std::_Rb_tree_node"*, %"struct.std::_Rb_tree_node"** %7, align 8, !llfi_index !1282
  %13 = icmp ne %"struct.std::_Rb_tree_node"* %12, null, !llfi_index !1283
  br i1 %13, label %14, label %33, !llfi_index !1284

14:                                               ; preds = %11
  %15 = getelementptr inbounds %"class.std::_Rb_tree", %"class.std::_Rb_tree"* %10, i32 0, i32 0, !llfi_index !1285
  %16 = bitcast %"struct.std::_Rb_tree<int, int, std::_Identity<int>, std::less<int>>::_Rb_tree_impl"* %15 to %"struct.std::_Rb_tree_key_compare"*, !llfi_index !1286
  %17 = getelementptr inbounds %"struct.std::_Rb_tree_key_compare", %"struct.std::_Rb_tree_key_compare"* %16, i32 0, i32 0, !llfi_index !1287
  %18 = load i32*, i32** %9, align 8, !llfi_index !1288
  %19 = load %"struct.std::_Rb_tree_node"*, %"struct.std::_Rb_tree_node"** %7, align 8, !llfi_index !1289
  %20 = call nonnull align 4 dereferenceable(4) i32* @_ZNSt8_Rb_treeIiiSt9_IdentityIiESt4lessIiESaIiEE6_S_keyEPKSt13_Rb_tree_nodeIiE(%"struct.std::_Rb_tree_node"* %19), !llfi_index !1290
  %21 = call zeroext i1 @_ZNKSt4lessIiEclERKiS2_(%"struct.std::less"* nonnull align 1 dereferenceable(1) %17, i32* nonnull align 4 dereferenceable(4) %18, i32* nonnull align 4 dereferenceable(4) %20), !llfi_index !1291
  br i1 %21, label %22, label %28, !llfi_index !1292

22:                                               ; preds = %14
  %23 = load %"struct.std::_Rb_tree_node"*, %"struct.std::_Rb_tree_node"** %7, align 8, !llfi_index !1293
  %24 = bitcast %"struct.std::_Rb_tree_node"* %23 to %"struct.std::_Rb_tree_node_base"*, !llfi_index !1294
  store %"struct.std::_Rb_tree_node_base"* %24, %"struct.std::_Rb_tree_node_base"** %8, align 8, !llfi_index !1295
  %25 = load %"struct.std::_Rb_tree_node"*, %"struct.std::_Rb_tree_node"** %7, align 8, !llfi_index !1296
  %26 = bitcast %"struct.std::_Rb_tree_node"* %25 to %"struct.std::_Rb_tree_node_base"*, !llfi_index !1297
  %27 = call %"struct.std::_Rb_tree_node"* @_ZNSt8_Rb_treeIiiSt9_IdentityIiESt4lessIiESaIiEE7_S_leftEPSt18_Rb_tree_node_base(%"struct.std::_Rb_tree_node_base"* %26) #2, !llfi_index !1298
  store %"struct.std::_Rb_tree_node"* %27, %"struct.std::_Rb_tree_node"** %7, align 8, !llfi_index !1299
  br label %32, !llfi_index !1300

28:                                               ; preds = %14
  %29 = load %"struct.std::_Rb_tree_node"*, %"struct.std::_Rb_tree_node"** %7, align 8, !llfi_index !1301
  %30 = bitcast %"struct.std::_Rb_tree_node"* %29 to %"struct.std::_Rb_tree_node_base"*, !llfi_index !1302
  %31 = call %"struct.std::_Rb_tree_node"* @_ZNSt8_Rb_treeIiiSt9_IdentityIiESt4lessIiESaIiEE8_S_rightEPSt18_Rb_tree_node_base(%"struct.std::_Rb_tree_node_base"* %30) #2, !llfi_index !1303
  store %"struct.std::_Rb_tree_node"* %31, %"struct.std::_Rb_tree_node"** %7, align 8, !llfi_index !1304
  br label %32, !llfi_index !1305

32:                                               ; preds = %28, %22
  br label %11, !llvm.loop !1306, !llfi_index !1307

33:                                               ; preds = %11
  %34 = load %"struct.std::_Rb_tree_node_base"*, %"struct.std::_Rb_tree_node_base"** %8, align 8, !llfi_index !1308
  call void @_ZNSt17_Rb_tree_iteratorIiEC2EPSt18_Rb_tree_node_base(%"struct.std::_Rb_tree_const_iterator"* nonnull align 8 dereferenceable(8) %5, %"struct.std::_Rb_tree_node_base"* %34) #2, !llfi_index !1309
  %35 = getelementptr inbounds %"struct.std::_Rb_tree_const_iterator", %"struct.std::_Rb_tree_const_iterator"* %5, i32 0, i32 0, !llfi_index !1310
  %36 = load %"struct.std::_Rb_tree_node_base"*, %"struct.std::_Rb_tree_node_base"** %35, align 8, !llfi_index !1311
  ret %"struct.std::_Rb_tree_node_base"* %36, !llfi_index !1312
}

; Function Attrs: mustprogress noinline uwtable
define linkonce_odr dso_local nonnull align 4 dereferenceable(4) i32* @_ZNSt8_Rb_treeIiiSt9_IdentityIiESt4lessIiESaIiEE6_S_keyEPKSt13_Rb_tree_nodeIiE(%"struct.std::_Rb_tree_node"* %0) #4 comdat align 2 {
  %2 = alloca %"struct.std::_Rb_tree_node"*, align 8, !llfi_index !1313
  %3 = alloca %"struct.std::less", align 1, !llfi_index !1314
  store %"struct.std::_Rb_tree_node"* %0, %"struct.std::_Rb_tree_node"** %2, align 8, !llfi_index !1315
  %4 = load %"struct.std::_Rb_tree_node"*, %"struct.std::_Rb_tree_node"** %2, align 8, !llfi_index !1316
  %5 = call i32* @_ZNKSt13_Rb_tree_nodeIiE9_M_valptrEv(%"struct.std::_Rb_tree_node"* nonnull align 8 dereferenceable(36) %4), !llfi_index !1317
  %6 = call nonnull align 4 dereferenceable(4) i32* @_ZNKSt9_IdentityIiEclERKi(%"struct.std::less"* nonnull align 1 dereferenceable(1) %3, i32* nonnull align 4 dereferenceable(4) %5), !llfi_index !1318
  ret i32* %6, !llfi_index !1319
}

; Function Attrs: mustprogress noinline nounwind uwtable
define linkonce_odr dso_local zeroext i1 @_ZNKSt4lessIiEclERKiS2_(%"struct.std::less"* nonnull align 1 dereferenceable(1) %0, i32* nonnull align 4 dereferenceable(4) %1, i32* nonnull align 4 dereferenceable(4) %2) #3 comdat align 2 {
  %4 = alloca %"struct.std::less"*, align 8, !llfi_index !1320
  %5 = alloca i32*, align 8, !llfi_index !1321
  %6 = alloca i32*, align 8, !llfi_index !1322
  store %"struct.std::less"* %0, %"struct.std::less"** %4, align 8, !llfi_index !1323
  store i32* %1, i32** %5, align 8, !llfi_index !1324
  store i32* %2, i32** %6, align 8, !llfi_index !1325
  %7 = load %"struct.std::less"*, %"struct.std::less"** %4, align 8, !llfi_index !1326
  %8 = load i32*, i32** %5, align 8, !llfi_index !1327
  %9 = load i32, i32* %8, align 4, !llfi_index !1328
  %10 = load i32*, i32** %6, align 8, !llfi_index !1329
  %11 = load i32, i32* %10, align 4, !llfi_index !1330
  %12 = icmp slt i32 %9, %11, !llfi_index !1331
  ret i1 %12, !llfi_index !1332
}

; Function Attrs: noinline nounwind uwtable
define linkonce_odr dso_local void @_ZNSt17_Rb_tree_iteratorIiEC2EPSt18_Rb_tree_node_base(%"struct.std::_Rb_tree_const_iterator"* nonnull align 8 dereferenceable(8) %0, %"struct.std::_Rb_tree_node_base"* %1) unnamed_addr #1 comdat align 2 {
  %3 = alloca %"struct.std::_Rb_tree_const_iterator"*, align 8, !llfi_index !1333
  %4 = alloca %"struct.std::_Rb_tree_node_base"*, align 8, !llfi_index !1334
  store %"struct.std::_Rb_tree_const_iterator"* %0, %"struct.std::_Rb_tree_const_iterator"** %3, align 8, !llfi_index !1335
  store %"struct.std::_Rb_tree_node_base"* %1, %"struct.std::_Rb_tree_node_base"** %4, align 8, !llfi_index !1336
  %5 = load %"struct.std::_Rb_tree_const_iterator"*, %"struct.std::_Rb_tree_const_iterator"** %3, align 8, !llfi_index !1337
  %6 = getelementptr inbounds %"struct.std::_Rb_tree_const_iterator", %"struct.std::_Rb_tree_const_iterator"* %5, i32 0, i32 0, !llfi_index !1338
  %7 = load %"struct.std::_Rb_tree_node_base"*, %"struct.std::_Rb_tree_node_base"** %4, align 8, !llfi_index !1339
  store %"struct.std::_Rb_tree_node_base"* %7, %"struct.std::_Rb_tree_node_base"** %6, align 8, !llfi_index !1340
  ret void, !llfi_index !1341
}

; Function Attrs: mustprogress noinline nounwind uwtable
define linkonce_odr dso_local nonnull align 4 dereferenceable(4) i32* @_ZNKSt9_IdentityIiEclERKi(%"struct.std::less"* nonnull align 1 dereferenceable(1) %0, i32* nonnull align 4 dereferenceable(4) %1) #3 comdat align 2 {
  %3 = alloca %"struct.std::less"*, align 8, !llfi_index !1342
  %4 = alloca i32*, align 8, !llfi_index !1343
  store %"struct.std::less"* %0, %"struct.std::less"** %3, align 8, !llfi_index !1344
  store i32* %1, i32** %4, align 8, !llfi_index !1345
  %5 = load %"struct.std::less"*, %"struct.std::less"** %3, align 8, !llfi_index !1346
  %6 = load i32*, i32** %4, align 8, !llfi_index !1347
  ret i32* %6, !llfi_index !1348
}

; Function Attrs: mustprogress noinline uwtable
define linkonce_odr dso_local %"struct.std::_Rb_tree_node_base"* @_ZNSt8_Rb_treeIiiSt9_IdentityIiESt4lessIiESaIiEE11lower_boundERKi(%"class.std::_Rb_tree"* nonnull align 8 dereferenceable(48) %0, i32* nonnull align 4 dereferenceable(4) %1) #4 comdat align 2 {
  %3 = alloca %"struct.std::_Rb_tree_const_iterator", align 8, !llfi_index !1349
  %4 = alloca %"class.std::_Rb_tree"*, align 8, !llfi_index !1350
  %5 = alloca i32*, align 8, !llfi_index !1351
  store %"class.std::_Rb_tree"* %0, %"class.std::_Rb_tree"** %4, align 8, !llfi_index !1352
  store i32* %1, i32** %5, align 8, !llfi_index !1353
  %6 = load %"class.std::_Rb_tree"*, %"class.std::_Rb_tree"** %4, align 8, !llfi_index !1354
  %7 = call %"struct.std::_Rb_tree_node"* @_ZNSt8_Rb_treeIiiSt9_IdentityIiESt4lessIiESaIiEE8_M_beginEv(%"class.std::_Rb_tree"* nonnull align 8 dereferenceable(48) %6) #2, !llfi_index !1355
  %8 = call %"struct.std::_Rb_tree_node_base"* @_ZNSt8_Rb_treeIiiSt9_IdentityIiESt4lessIiESaIiEE6_M_endEv(%"class.std::_Rb_tree"* nonnull align 8 dereferenceable(48) %6) #2, !llfi_index !1356
  %9 = load i32*, i32** %5, align 8, !llfi_index !1357
  %10 = call %"struct.std::_Rb_tree_node_base"* @_ZNSt8_Rb_treeIiiSt9_IdentityIiESt4lessIiESaIiEE14_M_lower_boundEPSt13_Rb_tree_nodeIiEPSt18_Rb_tree_node_baseRKi(%"class.std::_Rb_tree"* nonnull align 8 dereferenceable(48) %6, %"struct.std::_Rb_tree_node"* %7, %"struct.std::_Rb_tree_node_base"* %8, i32* nonnull align 4 dereferenceable(4) %9), !llfi_index !1358
  %11 = getelementptr inbounds %"struct.std::_Rb_tree_const_iterator", %"struct.std::_Rb_tree_const_iterator"* %3, i32 0, i32 0, !llfi_index !1359
  store %"struct.std::_Rb_tree_node_base"* %10, %"struct.std::_Rb_tree_node_base"** %11, align 8, !llfi_index !1360
  %12 = getelementptr inbounds %"struct.std::_Rb_tree_const_iterator", %"struct.std::_Rb_tree_const_iterator"* %3, i32 0, i32 0, !llfi_index !1361
  %13 = load %"struct.std::_Rb_tree_node_base"*, %"struct.std::_Rb_tree_node_base"** %12, align 8, !llfi_index !1362
  ret %"struct.std::_Rb_tree_node_base"* %13, !llfi_index !1363
}

; Function Attrs: mustprogress noinline uwtable
define linkonce_odr dso_local %"struct.std::_Rb_tree_node_base"* @_ZNSt8_Rb_treeIiiSt9_IdentityIiESt4lessIiESaIiEE14_M_lower_boundEPSt13_Rb_tree_nodeIiEPSt18_Rb_tree_node_baseRKi(%"class.std::_Rb_tree"* nonnull align 8 dereferenceable(48) %0, %"struct.std::_Rb_tree_node"* %1, %"struct.std::_Rb_tree_node_base"* %2, i32* nonnull align 4 dereferenceable(4) %3) #4 comdat align 2 {
  %5 = alloca %"struct.std::_Rb_tree_const_iterator", align 8, !llfi_index !1364
  %6 = alloca %"class.std::_Rb_tree"*, align 8, !llfi_index !1365
  %7 = alloca %"struct.std::_Rb_tree_node"*, align 8, !llfi_index !1366
  %8 = alloca %"struct.std::_Rb_tree_node_base"*, align 8, !llfi_index !1367
  %9 = alloca i32*, align 8, !llfi_index !1368
  store %"class.std::_Rb_tree"* %0, %"class.std::_Rb_tree"** %6, align 8, !llfi_index !1369
  store %"struct.std::_Rb_tree_node"* %1, %"struct.std::_Rb_tree_node"** %7, align 8, !llfi_index !1370
  store %"struct.std::_Rb_tree_node_base"* %2, %"struct.std::_Rb_tree_node_base"** %8, align 8, !llfi_index !1371
  store i32* %3, i32** %9, align 8, !llfi_index !1372
  %10 = load %"class.std::_Rb_tree"*, %"class.std::_Rb_tree"** %6, align 8, !llfi_index !1373
  br label %11, !llfi_index !1374

11:                                               ; preds = %32, %4
  %12 = load %"struct.std::_Rb_tree_node"*, %"struct.std::_Rb_tree_node"** %7, align 8, !llfi_index !1375
  %13 = icmp ne %"struct.std::_Rb_tree_node"* %12, null, !llfi_index !1376
  br i1 %13, label %14, label %33, !llfi_index !1377

14:                                               ; preds = %11
  %15 = getelementptr inbounds %"class.std::_Rb_tree", %"class.std::_Rb_tree"* %10, i32 0, i32 0, !llfi_index !1378
  %16 = bitcast %"struct.std::_Rb_tree<int, int, std::_Identity<int>, std::less<int>>::_Rb_tree_impl"* %15 to %"struct.std::_Rb_tree_key_compare"*, !llfi_index !1379
  %17 = getelementptr inbounds %"struct.std::_Rb_tree_key_compare", %"struct.std::_Rb_tree_key_compare"* %16, i32 0, i32 0, !llfi_index !1380
  %18 = load %"struct.std::_Rb_tree_node"*, %"struct.std::_Rb_tree_node"** %7, align 8, !llfi_index !1381
  %19 = call nonnull align 4 dereferenceable(4) i32* @_ZNSt8_Rb_treeIiiSt9_IdentityIiESt4lessIiESaIiEE6_S_keyEPKSt13_Rb_tree_nodeIiE(%"struct.std::_Rb_tree_node"* %18), !llfi_index !1382
  %20 = load i32*, i32** %9, align 8, !llfi_index !1383
  %21 = call zeroext i1 @_ZNKSt4lessIiEclERKiS2_(%"struct.std::less"* nonnull align 1 dereferenceable(1) %17, i32* nonnull align 4 dereferenceable(4) %19, i32* nonnull align 4 dereferenceable(4) %20), !llfi_index !1384
  br i1 %21, label %28, label %22, !llfi_index !1385

22:                                               ; preds = %14
  %23 = load %"struct.std::_Rb_tree_node"*, %"struct.std::_Rb_tree_node"** %7, align 8, !llfi_index !1386
  %24 = bitcast %"struct.std::_Rb_tree_node"* %23 to %"struct.std::_Rb_tree_node_base"*, !llfi_index !1387
  store %"struct.std::_Rb_tree_node_base"* %24, %"struct.std::_Rb_tree_node_base"** %8, align 8, !llfi_index !1388
  %25 = load %"struct.std::_Rb_tree_node"*, %"struct.std::_Rb_tree_node"** %7, align 8, !llfi_index !1389
  %26 = bitcast %"struct.std::_Rb_tree_node"* %25 to %"struct.std::_Rb_tree_node_base"*, !llfi_index !1390
  %27 = call %"struct.std::_Rb_tree_node"* @_ZNSt8_Rb_treeIiiSt9_IdentityIiESt4lessIiESaIiEE7_S_leftEPSt18_Rb_tree_node_base(%"struct.std::_Rb_tree_node_base"* %26) #2, !llfi_index !1391
  store %"struct.std::_Rb_tree_node"* %27, %"struct.std::_Rb_tree_node"** %7, align 8, !llfi_index !1392
  br label %32, !llfi_index !1393

28:                                               ; preds = %14
  %29 = load %"struct.std::_Rb_tree_node"*, %"struct.std::_Rb_tree_node"** %7, align 8, !llfi_index !1394
  %30 = bitcast %"struct.std::_Rb_tree_node"* %29 to %"struct.std::_Rb_tree_node_base"*, !llfi_index !1395
  %31 = call %"struct.std::_Rb_tree_node"* @_ZNSt8_Rb_treeIiiSt9_IdentityIiESt4lessIiESaIiEE8_S_rightEPSt18_Rb_tree_node_base(%"struct.std::_Rb_tree_node_base"* %30) #2, !llfi_index !1396
  store %"struct.std::_Rb_tree_node"* %31, %"struct.std::_Rb_tree_node"** %7, align 8, !llfi_index !1397
  br label %32, !llfi_index !1398

32:                                               ; preds = %28, %22
  br label %11, !llvm.loop !1399, !llfi_index !1400

33:                                               ; preds = %11
  %34 = load %"struct.std::_Rb_tree_node_base"*, %"struct.std::_Rb_tree_node_base"** %8, align 8, !llfi_index !1401
  call void @_ZNSt17_Rb_tree_iteratorIiEC2EPSt18_Rb_tree_node_base(%"struct.std::_Rb_tree_const_iterator"* nonnull align 8 dereferenceable(8) %5, %"struct.std::_Rb_tree_node_base"* %34) #2, !llfi_index !1402
  %35 = getelementptr inbounds %"struct.std::_Rb_tree_const_iterator", %"struct.std::_Rb_tree_const_iterator"* %5, i32 0, i32 0, !llfi_index !1403
  %36 = load %"struct.std::_Rb_tree_node_base"*, %"struct.std::_Rb_tree_node_base"** %35, align 8, !llfi_index !1404
  ret %"struct.std::_Rb_tree_node_base"* %36, !llfi_index !1405
}

; Function Attrs: mustprogress noinline uwtable
define linkonce_odr dso_local %"struct.std::_Rb_tree_node_base"* @_ZNSt8_Rb_treeIiiSt9_IdentityIiESt4lessIiESaIiEE15_M_insert_equalIRKiEESt17_Rb_tree_iteratorIiEOT_(%"class.std::_Rb_tree"* nonnull align 8 dereferenceable(48) %0, i32* nonnull align 4 dereferenceable(4) %1) #4 comdat align 2 {
  %3 = alloca %"struct.std::_Rb_tree_const_iterator", align 8, !llfi_index !1406
  %4 = alloca %"class.std::_Rb_tree"*, align 8, !llfi_index !1407
  %5 = alloca i32*, align 8, !llfi_index !1408
  %6 = alloca %"struct.std::pair", align 8, !llfi_index !1409
  %7 = alloca %"struct.std::less", align 1, !llfi_index !1410
  %8 = alloca %"struct.std::_Rb_tree<int, int, std::_Identity<int>, std::less<int>>::_Alloc_node", align 8, !llfi_index !1411
  store %"class.std::_Rb_tree"* %0, %"class.std::_Rb_tree"** %4, align 8, !llfi_index !1412
  store i32* %1, i32** %5, align 8, !llfi_index !1413
  %9 = load %"class.std::_Rb_tree"*, %"class.std::_Rb_tree"** %4, align 8, !llfi_index !1414
  %10 = load i32*, i32** %5, align 8, !llfi_index !1415
  %11 = call nonnull align 4 dereferenceable(4) i32* @_ZNKSt9_IdentityIiEclERKi(%"struct.std::less"* nonnull align 1 dereferenceable(1) %7, i32* nonnull align 4 dereferenceable(4) %10), !llfi_index !1416
  %12 = call { %"struct.std::_Rb_tree_node_base"*, %"struct.std::_Rb_tree_node_base"* } @_ZNSt8_Rb_treeIiiSt9_IdentityIiESt4lessIiESaIiEE23_M_get_insert_equal_posERKi(%"class.std::_Rb_tree"* nonnull align 8 dereferenceable(48) %9, i32* nonnull align 4 dereferenceable(4) %11), !llfi_index !1417
  %13 = bitcast %"struct.std::pair"* %6 to { %"struct.std::_Rb_tree_node_base"*, %"struct.std::_Rb_tree_node_base"* }*, !llfi_index !1418
  %14 = getelementptr inbounds { %"struct.std::_Rb_tree_node_base"*, %"struct.std::_Rb_tree_node_base"* }, { %"struct.std::_Rb_tree_node_base"*, %"struct.std::_Rb_tree_node_base"* }* %13, i32 0, i32 0, !llfi_index !1419
  %15 = extractvalue { %"struct.std::_Rb_tree_node_base"*, %"struct.std::_Rb_tree_node_base"* } %12, 0, !llfi_index !1420
  store %"struct.std::_Rb_tree_node_base"* %15, %"struct.std::_Rb_tree_node_base"** %14, align 8, !llfi_index !1421
  %16 = getelementptr inbounds { %"struct.std::_Rb_tree_node_base"*, %"struct.std::_Rb_tree_node_base"* }, { %"struct.std::_Rb_tree_node_base"*, %"struct.std::_Rb_tree_node_base"* }* %13, i32 0, i32 1, !llfi_index !1422
  %17 = extractvalue { %"struct.std::_Rb_tree_node_base"*, %"struct.std::_Rb_tree_node_base"* } %12, 1, !llfi_index !1423
  store %"struct.std::_Rb_tree_node_base"* %17, %"struct.std::_Rb_tree_node_base"** %16, align 8, !llfi_index !1424
  call void @_ZNSt8_Rb_treeIiiSt9_IdentityIiESt4lessIiESaIiEE11_Alloc_nodeC2ERS5_(%"struct.std::_Rb_tree<int, int, std::_Identity<int>, std::less<int>>::_Alloc_node"* nonnull align 8 dereferenceable(8) %8, %"class.std::_Rb_tree"* nonnull align 8 dereferenceable(48) %9), !llfi_index !1425
  %18 = getelementptr inbounds %"struct.std::pair", %"struct.std::pair"* %6, i32 0, i32 0, !llfi_index !1426
  %19 = load %"struct.std::_Rb_tree_node_base"*, %"struct.std::_Rb_tree_node_base"** %18, align 8, !llfi_index !1427
  %20 = getelementptr inbounds %"struct.std::pair", %"struct.std::pair"* %6, i32 0, i32 1, !llfi_index !1428
  %21 = load %"struct.std::_Rb_tree_node_base"*, %"struct.std::_Rb_tree_node_base"** %20, align 8, !llfi_index !1429
  %22 = load i32*, i32** %5, align 8, !llfi_index !1430
  %23 = call nonnull align 4 dereferenceable(4) i32* @_ZSt7forwardIRKiEOT_RNSt16remove_referenceIS2_E4typeE(i32* nonnull align 4 dereferenceable(4) %22) #2, !llfi_index !1431
  %24 = call %"struct.std::_Rb_tree_node_base"* @_ZNSt8_Rb_treeIiiSt9_IdentityIiESt4lessIiESaIiEE10_M_insert_IRKiNS5_11_Alloc_nodeEEESt17_Rb_tree_iteratorIiEPSt18_Rb_tree_node_baseSD_OT_RT0_(%"class.std::_Rb_tree"* nonnull align 8 dereferenceable(48) %9, %"struct.std::_Rb_tree_node_base"* %19, %"struct.std::_Rb_tree_node_base"* %21, i32* nonnull align 4 dereferenceable(4) %23, %"struct.std::_Rb_tree<int, int, std::_Identity<int>, std::less<int>>::_Alloc_node"* nonnull align 8 dereferenceable(8) %8), !llfi_index !1432
  %25 = getelementptr inbounds %"struct.std::_Rb_tree_const_iterator", %"struct.std::_Rb_tree_const_iterator"* %3, i32 0, i32 0, !llfi_index !1433
  store %"struct.std::_Rb_tree_node_base"* %24, %"struct.std::_Rb_tree_node_base"** %25, align 8, !llfi_index !1434
  %26 = getelementptr inbounds %"struct.std::_Rb_tree_const_iterator", %"struct.std::_Rb_tree_const_iterator"* %3, i32 0, i32 0, !llfi_index !1435
  %27 = load %"struct.std::_Rb_tree_node_base"*, %"struct.std::_Rb_tree_node_base"** %26, align 8, !llfi_index !1436
  ret %"struct.std::_Rb_tree_node_base"* %27, !llfi_index !1437
}

; Function Attrs: mustprogress noinline uwtable
define linkonce_odr dso_local { %"struct.std::_Rb_tree_node_base"*, %"struct.std::_Rb_tree_node_base"* } @_ZNSt8_Rb_treeIiiSt9_IdentityIiESt4lessIiESaIiEE23_M_get_insert_equal_posERKi(%"class.std::_Rb_tree"* nonnull align 8 dereferenceable(48) %0, i32* nonnull align 4 dereferenceable(4) %1) #4 comdat align 2 {
  %3 = alloca %"struct.std::pair", align 8, !llfi_index !1438
  %4 = alloca %"class.std::_Rb_tree"*, align 8, !llfi_index !1439
  %5 = alloca i32*, align 8, !llfi_index !1440
  %6 = alloca %"struct.std::_Rb_tree_node"*, align 8, !llfi_index !1441
  %7 = alloca %"struct.std::_Rb_tree_node_base"*, align 8, !llfi_index !1442
  store %"class.std::_Rb_tree"* %0, %"class.std::_Rb_tree"** %4, align 8, !llfi_index !1443
  store i32* %1, i32** %5, align 8, !llfi_index !1444
  %8 = load %"class.std::_Rb_tree"*, %"class.std::_Rb_tree"** %4, align 8, !llfi_index !1445
  %9 = call %"struct.std::_Rb_tree_node"* @_ZNSt8_Rb_treeIiiSt9_IdentityIiESt4lessIiESaIiEE8_M_beginEv(%"class.std::_Rb_tree"* nonnull align 8 dereferenceable(48) %8) #2, !llfi_index !1446
  store %"struct.std::_Rb_tree_node"* %9, %"struct.std::_Rb_tree_node"** %6, align 8, !llfi_index !1447
  %10 = call %"struct.std::_Rb_tree_node_base"* @_ZNSt8_Rb_treeIiiSt9_IdentityIiESt4lessIiESaIiEE6_M_endEv(%"class.std::_Rb_tree"* nonnull align 8 dereferenceable(48) %8) #2, !llfi_index !1448
  store %"struct.std::_Rb_tree_node_base"* %10, %"struct.std::_Rb_tree_node_base"** %7, align 8, !llfi_index !1449
  br label %11, !llfi_index !1450

11:                                               ; preds = %32, %2
  %12 = load %"struct.std::_Rb_tree_node"*, %"struct.std::_Rb_tree_node"** %6, align 8, !llfi_index !1451
  %13 = icmp ne %"struct.std::_Rb_tree_node"* %12, null, !llfi_index !1452
  br i1 %13, label %14, label %34, !llfi_index !1453

14:                                               ; preds = %11
  %15 = load %"struct.std::_Rb_tree_node"*, %"struct.std::_Rb_tree_node"** %6, align 8, !llfi_index !1454
  %16 = bitcast %"struct.std::_Rb_tree_node"* %15 to %"struct.std::_Rb_tree_node_base"*, !llfi_index !1455
  store %"struct.std::_Rb_tree_node_base"* %16, %"struct.std::_Rb_tree_node_base"** %7, align 8, !llfi_index !1456
  %17 = getelementptr inbounds %"class.std::_Rb_tree", %"class.std::_Rb_tree"* %8, i32 0, i32 0, !llfi_index !1457
  %18 = bitcast %"struct.std::_Rb_tree<int, int, std::_Identity<int>, std::less<int>>::_Rb_tree_impl"* %17 to %"struct.std::_Rb_tree_key_compare"*, !llfi_index !1458
  %19 = getelementptr inbounds %"struct.std::_Rb_tree_key_compare", %"struct.std::_Rb_tree_key_compare"* %18, i32 0, i32 0, !llfi_index !1459
  %20 = load i32*, i32** %5, align 8, !llfi_index !1460
  %21 = load %"struct.std::_Rb_tree_node"*, %"struct.std::_Rb_tree_node"** %6, align 8, !llfi_index !1461
  %22 = call nonnull align 4 dereferenceable(4) i32* @_ZNSt8_Rb_treeIiiSt9_IdentityIiESt4lessIiESaIiEE6_S_keyEPKSt13_Rb_tree_nodeIiE(%"struct.std::_Rb_tree_node"* %21), !llfi_index !1462
  %23 = call zeroext i1 @_ZNKSt4lessIiEclERKiS2_(%"struct.std::less"* nonnull align 1 dereferenceable(1) %19, i32* nonnull align 4 dereferenceable(4) %20, i32* nonnull align 4 dereferenceable(4) %22), !llfi_index !1463
  br i1 %23, label %24, label %28, !llfi_index !1464

24:                                               ; preds = %14
  %25 = load %"struct.std::_Rb_tree_node"*, %"struct.std::_Rb_tree_node"** %6, align 8, !llfi_index !1465
  %26 = bitcast %"struct.std::_Rb_tree_node"* %25 to %"struct.std::_Rb_tree_node_base"*, !llfi_index !1466
  %27 = call %"struct.std::_Rb_tree_node"* @_ZNSt8_Rb_treeIiiSt9_IdentityIiESt4lessIiESaIiEE7_S_leftEPSt18_Rb_tree_node_base(%"struct.std::_Rb_tree_node_base"* %26) #2, !llfi_index !1467
  br label %32, !llfi_index !1468

28:                                               ; preds = %14
  %29 = load %"struct.std::_Rb_tree_node"*, %"struct.std::_Rb_tree_node"** %6, align 8, !llfi_index !1469
  %30 = bitcast %"struct.std::_Rb_tree_node"* %29 to %"struct.std::_Rb_tree_node_base"*, !llfi_index !1470
  %31 = call %"struct.std::_Rb_tree_node"* @_ZNSt8_Rb_treeIiiSt9_IdentityIiESt4lessIiESaIiEE8_S_rightEPSt18_Rb_tree_node_base(%"struct.std::_Rb_tree_node_base"* %30) #2, !llfi_index !1471
  br label %32, !llfi_index !1472

32:                                               ; preds = %28, %24
  %33 = phi %"struct.std::_Rb_tree_node"* [ %27, %24 ], [ %31, %28 ], !llfi_index !1473
  store %"struct.std::_Rb_tree_node"* %33, %"struct.std::_Rb_tree_node"** %6, align 8, !llfi_index !1474
  br label %11, !llvm.loop !1475, !llfi_index !1476

34:                                               ; preds = %11
  call void @_ZNSt4pairIPSt18_Rb_tree_node_baseS1_EC2IRPSt13_Rb_tree_nodeIiERS1_Lb1EEEOT_OT0_(%"struct.std::pair"* nonnull align 8 dereferenceable(16) %3, %"struct.std::_Rb_tree_node"** nonnull align 8 dereferenceable(8) %6, %"struct.std::_Rb_tree_node_base"** nonnull align 8 dereferenceable(8) %7), !llfi_index !1477
  %35 = bitcast %"struct.std::pair"* %3 to { %"struct.std::_Rb_tree_node_base"*, %"struct.std::_Rb_tree_node_base"* }*, !llfi_index !1478
  %36 = load { %"struct.std::_Rb_tree_node_base"*, %"struct.std::_Rb_tree_node_base"* }, { %"struct.std::_Rb_tree_node_base"*, %"struct.std::_Rb_tree_node_base"* }* %35, align 8, !llfi_index !1479
  ret { %"struct.std::_Rb_tree_node_base"*, %"struct.std::_Rb_tree_node_base"* } %36, !llfi_index !1480
}

; Function Attrs: noinline nounwind uwtable
define linkonce_odr dso_local void @_ZNSt8_Rb_treeIiiSt9_IdentityIiESt4lessIiESaIiEE11_Alloc_nodeC2ERS5_(%"struct.std::_Rb_tree<int, int, std::_Identity<int>, std::less<int>>::_Alloc_node"* nonnull align 8 dereferenceable(8) %0, %"class.std::_Rb_tree"* nonnull align 8 dereferenceable(48) %1) unnamed_addr #1 comdat align 2 {
  %3 = alloca %"struct.std::_Rb_tree<int, int, std::_Identity<int>, std::less<int>>::_Alloc_node"*, align 8, !llfi_index !1481
  %4 = alloca %"class.std::_Rb_tree"*, align 8, !llfi_index !1482
  store %"struct.std::_Rb_tree<int, int, std::_Identity<int>, std::less<int>>::_Alloc_node"* %0, %"struct.std::_Rb_tree<int, int, std::_Identity<int>, std::less<int>>::_Alloc_node"** %3, align 8, !llfi_index !1483
  store %"class.std::_Rb_tree"* %1, %"class.std::_Rb_tree"** %4, align 8, !llfi_index !1484
  %5 = load %"struct.std::_Rb_tree<int, int, std::_Identity<int>, std::less<int>>::_Alloc_node"*, %"struct.std::_Rb_tree<int, int, std::_Identity<int>, std::less<int>>::_Alloc_node"** %3, align 8, !llfi_index !1485
  %6 = getelementptr inbounds %"struct.std::_Rb_tree<int, int, std::_Identity<int>, std::less<int>>::_Alloc_node", %"struct.std::_Rb_tree<int, int, std::_Identity<int>, std::less<int>>::_Alloc_node"* %5, i32 0, i32 0, !llfi_index !1486
  %7 = load %"class.std::_Rb_tree"*, %"class.std::_Rb_tree"** %4, align 8, !llfi_index !1487
  store %"class.std::_Rb_tree"* %7, %"class.std::_Rb_tree"** %6, align 8, !llfi_index !1488
  ret void, !llfi_index !1489
}

; Function Attrs: mustprogress noinline nounwind uwtable
define linkonce_odr dso_local nonnull align 4 dereferenceable(4) i32* @_ZSt7forwardIRKiEOT_RNSt16remove_referenceIS2_E4typeE(i32* nonnull align 4 dereferenceable(4) %0) #3 comdat {
  %2 = alloca i32*, align 8, !llfi_index !1490
  store i32* %0, i32** %2, align 8, !llfi_index !1491
  %3 = load i32*, i32** %2, align 8, !llfi_index !1492
  ret i32* %3, !llfi_index !1493
}

; Function Attrs: mustprogress noinline uwtable
define linkonce_odr dso_local %"struct.std::_Rb_tree_node_base"* @_ZNSt8_Rb_treeIiiSt9_IdentityIiESt4lessIiESaIiEE10_M_insert_IRKiNS5_11_Alloc_nodeEEESt17_Rb_tree_iteratorIiEPSt18_Rb_tree_node_baseSD_OT_RT0_(%"class.std::_Rb_tree"* nonnull align 8 dereferenceable(48) %0, %"struct.std::_Rb_tree_node_base"* %1, %"struct.std::_Rb_tree_node_base"* %2, i32* nonnull align 4 dereferenceable(4) %3, %"struct.std::_Rb_tree<int, int, std::_Identity<int>, std::less<int>>::_Alloc_node"* nonnull align 8 dereferenceable(8) %4) #4 comdat align 2 {
  %6 = alloca %"struct.std::_Rb_tree_const_iterator", align 8, !llfi_index !1494
  %7 = alloca %"class.std::_Rb_tree"*, align 8, !llfi_index !1495
  %8 = alloca %"struct.std::_Rb_tree_node_base"*, align 8, !llfi_index !1496
  %9 = alloca %"struct.std::_Rb_tree_node_base"*, align 8, !llfi_index !1497
  %10 = alloca i32*, align 8, !llfi_index !1498
  %11 = alloca %"struct.std::_Rb_tree<int, int, std::_Identity<int>, std::less<int>>::_Alloc_node"*, align 8, !llfi_index !1499
  %12 = alloca i8, align 1, !llfi_index !1500
  %13 = alloca %"struct.std::less", align 1, !llfi_index !1501
  %14 = alloca %"struct.std::_Rb_tree_node"*, align 8, !llfi_index !1502
  store %"class.std::_Rb_tree"* %0, %"class.std::_Rb_tree"** %7, align 8, !llfi_index !1503
  store %"struct.std::_Rb_tree_node_base"* %1, %"struct.std::_Rb_tree_node_base"** %8, align 8, !llfi_index !1504
  store %"struct.std::_Rb_tree_node_base"* %2, %"struct.std::_Rb_tree_node_base"** %9, align 8, !llfi_index !1505
  store i32* %3, i32** %10, align 8, !llfi_index !1506
  store %"struct.std::_Rb_tree<int, int, std::_Identity<int>, std::less<int>>::_Alloc_node"* %4, %"struct.std::_Rb_tree<int, int, std::_Identity<int>, std::less<int>>::_Alloc_node"** %11, align 8, !llfi_index !1507
  %15 = load %"class.std::_Rb_tree"*, %"class.std::_Rb_tree"** %7, align 8, !llfi_index !1508
  %16 = load %"struct.std::_Rb_tree_node_base"*, %"struct.std::_Rb_tree_node_base"** %8, align 8, !llfi_index !1509
  %17 = icmp ne %"struct.std::_Rb_tree_node_base"* %16, null, !llfi_index !1510
  br i1 %17, label %31, label %18, !llfi_index !1511

18:                                               ; preds = %5
  %19 = load %"struct.std::_Rb_tree_node_base"*, %"struct.std::_Rb_tree_node_base"** %9, align 8, !llfi_index !1512
  %20 = call %"struct.std::_Rb_tree_node_base"* @_ZNSt8_Rb_treeIiiSt9_IdentityIiESt4lessIiESaIiEE6_M_endEv(%"class.std::_Rb_tree"* nonnull align 8 dereferenceable(48) %15) #2, !llfi_index !1513
  %21 = icmp eq %"struct.std::_Rb_tree_node_base"* %19, %20, !llfi_index !1514
  br i1 %21, label %31, label %22, !llfi_index !1515

22:                                               ; preds = %18
  %23 = getelementptr inbounds %"class.std::_Rb_tree", %"class.std::_Rb_tree"* %15, i32 0, i32 0, !llfi_index !1516
  %24 = bitcast %"struct.std::_Rb_tree<int, int, std::_Identity<int>, std::less<int>>::_Rb_tree_impl"* %23 to %"struct.std::_Rb_tree_key_compare"*, !llfi_index !1517
  %25 = getelementptr inbounds %"struct.std::_Rb_tree_key_compare", %"struct.std::_Rb_tree_key_compare"* %24, i32 0, i32 0, !llfi_index !1518
  %26 = load i32*, i32** %10, align 8, !llfi_index !1519
  %27 = call nonnull align 4 dereferenceable(4) i32* @_ZNKSt9_IdentityIiEclERKi(%"struct.std::less"* nonnull align 1 dereferenceable(1) %13, i32* nonnull align 4 dereferenceable(4) %26), !llfi_index !1520
  %28 = load %"struct.std::_Rb_tree_node_base"*, %"struct.std::_Rb_tree_node_base"** %9, align 8, !llfi_index !1521
  %29 = call nonnull align 4 dereferenceable(4) i32* @_ZNSt8_Rb_treeIiiSt9_IdentityIiESt4lessIiESaIiEE6_S_keyEPKSt18_Rb_tree_node_base(%"struct.std::_Rb_tree_node_base"* %28), !llfi_index !1522
  %30 = call zeroext i1 @_ZNKSt4lessIiEclERKiS2_(%"struct.std::less"* nonnull align 1 dereferenceable(1) %25, i32* nonnull align 4 dereferenceable(4) %27, i32* nonnull align 4 dereferenceable(4) %29), !llfi_index !1523
  br label %31, !llfi_index !1524

31:                                               ; preds = %22, %18, %5
  %32 = phi i1 [ true, %18 ], [ true, %5 ], [ %30, %22 ], !llfi_index !1525
  %33 = zext i1 %32 to i8, !llfi_index !1526
  store i8 %33, i8* %12, align 1, !llfi_index !1527
  %34 = load %"struct.std::_Rb_tree<int, int, std::_Identity<int>, std::less<int>>::_Alloc_node"*, %"struct.std::_Rb_tree<int, int, std::_Identity<int>, std::less<int>>::_Alloc_node"** %11, align 8, !llfi_index !1528
  %35 = load i32*, i32** %10, align 8, !llfi_index !1529
  %36 = call nonnull align 4 dereferenceable(4) i32* @_ZSt7forwardIRKiEOT_RNSt16remove_referenceIS2_E4typeE(i32* nonnull align 4 dereferenceable(4) %35) #2, !llfi_index !1530
  %37 = call %"struct.std::_Rb_tree_node"* @_ZNKSt8_Rb_treeIiiSt9_IdentityIiESt4lessIiESaIiEE11_Alloc_nodeclIRKiEEPSt13_Rb_tree_nodeIiEOT_(%"struct.std::_Rb_tree<int, int, std::_Identity<int>, std::less<int>>::_Alloc_node"* nonnull align 8 dereferenceable(8) %34, i32* nonnull align 4 dereferenceable(4) %36), !llfi_index !1531
  store %"struct.std::_Rb_tree_node"* %37, %"struct.std::_Rb_tree_node"** %14, align 8, !llfi_index !1532
  %38 = load i8, i8* %12, align 1, !llfi_index !1533
  %39 = trunc i8 %38 to i1, !llfi_index !1534
  %40 = load %"struct.std::_Rb_tree_node"*, %"struct.std::_Rb_tree_node"** %14, align 8, !llfi_index !1535
  %41 = bitcast %"struct.std::_Rb_tree_node"* %40 to %"struct.std::_Rb_tree_node_base"*, !llfi_index !1536
  %42 = load %"struct.std::_Rb_tree_node_base"*, %"struct.std::_Rb_tree_node_base"** %9, align 8, !llfi_index !1537
  %43 = getelementptr inbounds %"class.std::_Rb_tree", %"class.std::_Rb_tree"* %15, i32 0, i32 0, !llfi_index !1538
  %44 = bitcast %"struct.std::_Rb_tree<int, int, std::_Identity<int>, std::less<int>>::_Rb_tree_impl"* %43 to i8*, !llfi_index !1539
  %45 = getelementptr inbounds i8, i8* %44, i64 8, !llfi_index !1540
  %46 = bitcast i8* %45 to %"struct.std::_Rb_tree_header"*, !llfi_index !1541
  %47 = getelementptr inbounds %"struct.std::_Rb_tree_header", %"struct.std::_Rb_tree_header"* %46, i32 0, i32 0, !llfi_index !1542
  call void @_ZSt29_Rb_tree_insert_and_rebalancebPSt18_Rb_tree_node_baseS0_RS_(i1 zeroext %39, %"struct.std::_Rb_tree_node_base"* %41, %"struct.std::_Rb_tree_node_base"* %42, %"struct.std::_Rb_tree_node_base"* nonnull align 8 dereferenceable(32) %47) #2, !llfi_index !1543
  %48 = getelementptr inbounds %"class.std::_Rb_tree", %"class.std::_Rb_tree"* %15, i32 0, i32 0, !llfi_index !1544
  %49 = bitcast %"struct.std::_Rb_tree<int, int, std::_Identity<int>, std::less<int>>::_Rb_tree_impl"* %48 to i8*, !llfi_index !1545
  %50 = getelementptr inbounds i8, i8* %49, i64 8, !llfi_index !1546
  %51 = bitcast i8* %50 to %"struct.std::_Rb_tree_header"*, !llfi_index !1547
  %52 = getelementptr inbounds %"struct.std::_Rb_tree_header", %"struct.std::_Rb_tree_header"* %51, i32 0, i32 1, !llfi_index !1548
  %53 = load i64, i64* %52, align 8, !llfi_index !1549
  %54 = add i64 %53, 1, !llfi_index !1550
  store i64 %54, i64* %52, align 8, !llfi_index !1551
  %55 = load %"struct.std::_Rb_tree_node"*, %"struct.std::_Rb_tree_node"** %14, align 8, !llfi_index !1552
  %56 = bitcast %"struct.std::_Rb_tree_node"* %55 to %"struct.std::_Rb_tree_node_base"*, !llfi_index !1553
  call void @_ZNSt17_Rb_tree_iteratorIiEC2EPSt18_Rb_tree_node_base(%"struct.std::_Rb_tree_const_iterator"* nonnull align 8 dereferenceable(8) %6, %"struct.std::_Rb_tree_node_base"* %56) #2, !llfi_index !1554
  %57 = getelementptr inbounds %"struct.std::_Rb_tree_const_iterator", %"struct.std::_Rb_tree_const_iterator"* %6, i32 0, i32 0, !llfi_index !1555
  %58 = load %"struct.std::_Rb_tree_node_base"*, %"struct.std::_Rb_tree_node_base"** %57, align 8, !llfi_index !1556
  ret %"struct.std::_Rb_tree_node_base"* %58, !llfi_index !1557
}

; Function Attrs: mustprogress noinline uwtable
define linkonce_odr dso_local nonnull align 4 dereferenceable(4) i32* @_ZNSt8_Rb_treeIiiSt9_IdentityIiESt4lessIiESaIiEE6_S_keyEPKSt18_Rb_tree_node_base(%"struct.std::_Rb_tree_node_base"* %0) #4 comdat align 2 {
  %2 = alloca %"struct.std::_Rb_tree_node_base"*, align 8, !llfi_index !1558
  store %"struct.std::_Rb_tree_node_base"* %0, %"struct.std::_Rb_tree_node_base"** %2, align 8, !llfi_index !1559
  %3 = load %"struct.std::_Rb_tree_node_base"*, %"struct.std::_Rb_tree_node_base"** %2, align 8, !llfi_index !1560
  %4 = bitcast %"struct.std::_Rb_tree_node_base"* %3 to %"struct.std::_Rb_tree_node"*, !llfi_index !1561
  %5 = call nonnull align 4 dereferenceable(4) i32* @_ZNSt8_Rb_treeIiiSt9_IdentityIiESt4lessIiESaIiEE6_S_keyEPKSt13_Rb_tree_nodeIiE(%"struct.std::_Rb_tree_node"* %4), !llfi_index !1562
  ret i32* %5, !llfi_index !1563
}

; Function Attrs: mustprogress noinline uwtable
define linkonce_odr dso_local %"struct.std::_Rb_tree_node"* @_ZNKSt8_Rb_treeIiiSt9_IdentityIiESt4lessIiESaIiEE11_Alloc_nodeclIRKiEEPSt13_Rb_tree_nodeIiEOT_(%"struct.std::_Rb_tree<int, int, std::_Identity<int>, std::less<int>>::_Alloc_node"* nonnull align 8 dereferenceable(8) %0, i32* nonnull align 4 dereferenceable(4) %1) #4 comdat align 2 {
  %3 = alloca %"struct.std::_Rb_tree<int, int, std::_Identity<int>, std::less<int>>::_Alloc_node"*, align 8, !llfi_index !1564
  %4 = alloca i32*, align 8, !llfi_index !1565
  store %"struct.std::_Rb_tree<int, int, std::_Identity<int>, std::less<int>>::_Alloc_node"* %0, %"struct.std::_Rb_tree<int, int, std::_Identity<int>, std::less<int>>::_Alloc_node"** %3, align 8, !llfi_index !1566
  store i32* %1, i32** %4, align 8, !llfi_index !1567
  %5 = load %"struct.std::_Rb_tree<int, int, std::_Identity<int>, std::less<int>>::_Alloc_node"*, %"struct.std::_Rb_tree<int, int, std::_Identity<int>, std::less<int>>::_Alloc_node"** %3, align 8, !llfi_index !1568
  %6 = getelementptr inbounds %"struct.std::_Rb_tree<int, int, std::_Identity<int>, std::less<int>>::_Alloc_node", %"struct.std::_Rb_tree<int, int, std::_Identity<int>, std::less<int>>::_Alloc_node"* %5, i32 0, i32 0, !llfi_index !1569
  %7 = load %"class.std::_Rb_tree"*, %"class.std::_Rb_tree"** %6, align 8, !llfi_index !1570
  %8 = load i32*, i32** %4, align 8, !llfi_index !1571
  %9 = call nonnull align 4 dereferenceable(4) i32* @_ZSt7forwardIRKiEOT_RNSt16remove_referenceIS2_E4typeE(i32* nonnull align 4 dereferenceable(4) %8) #2, !llfi_index !1572
  %10 = call %"struct.std::_Rb_tree_node"* @_ZNSt8_Rb_treeIiiSt9_IdentityIiESt4lessIiESaIiEE14_M_create_nodeIJRKiEEEPSt13_Rb_tree_nodeIiEDpOT_(%"class.std::_Rb_tree"* nonnull align 8 dereferenceable(48) %7, i32* nonnull align 4 dereferenceable(4) %9), !llfi_index !1573
  ret %"struct.std::_Rb_tree_node"* %10, !llfi_index !1574
}

; Function Attrs: nounwind
declare dso_local void @_ZSt29_Rb_tree_insert_and_rebalancebPSt18_Rb_tree_node_baseS0_RS_(i1 zeroext, %"struct.std::_Rb_tree_node_base"*, %"struct.std::_Rb_tree_node_base"*, %"struct.std::_Rb_tree_node_base"* nonnull align 8 dereferenceable(32)) #8

; Function Attrs: mustprogress noinline uwtable
define linkonce_odr dso_local %"struct.std::_Rb_tree_node"* @_ZNSt8_Rb_treeIiiSt9_IdentityIiESt4lessIiESaIiEE14_M_create_nodeIJRKiEEEPSt13_Rb_tree_nodeIiEDpOT_(%"class.std::_Rb_tree"* nonnull align 8 dereferenceable(48) %0, i32* nonnull align 4 dereferenceable(4) %1) #4 comdat align 2 {
  %3 = alloca %"class.std::_Rb_tree"*, align 8, !llfi_index !1575
  %4 = alloca i32*, align 8, !llfi_index !1576
  %5 = alloca %"struct.std::_Rb_tree_node"*, align 8, !llfi_index !1577
  store %"class.std::_Rb_tree"* %0, %"class.std::_Rb_tree"** %3, align 8, !llfi_index !1578
  store i32* %1, i32** %4, align 8, !llfi_index !1579
  %6 = load %"class.std::_Rb_tree"*, %"class.std::_Rb_tree"** %3, align 8, !llfi_index !1580
  %7 = call %"struct.std::_Rb_tree_node"* @_ZNSt8_Rb_treeIiiSt9_IdentityIiESt4lessIiESaIiEE11_M_get_nodeEv(%"class.std::_Rb_tree"* nonnull align 8 dereferenceable(48) %6), !llfi_index !1581
  store %"struct.std::_Rb_tree_node"* %7, %"struct.std::_Rb_tree_node"** %5, align 8, !llfi_index !1582
  %8 = load %"struct.std::_Rb_tree_node"*, %"struct.std::_Rb_tree_node"** %5, align 8, !llfi_index !1583
  %9 = load i32*, i32** %4, align 8, !llfi_index !1584
  %10 = call nonnull align 4 dereferenceable(4) i32* @_ZSt7forwardIRKiEOT_RNSt16remove_referenceIS2_E4typeE(i32* nonnull align 4 dereferenceable(4) %9) #2, !llfi_index !1585
  call void @_ZNSt8_Rb_treeIiiSt9_IdentityIiESt4lessIiESaIiEE17_M_construct_nodeIJRKiEEEvPSt13_Rb_tree_nodeIiEDpOT_(%"class.std::_Rb_tree"* nonnull align 8 dereferenceable(48) %6, %"struct.std::_Rb_tree_node"* %8, i32* nonnull align 4 dereferenceable(4) %10), !llfi_index !1586
  %11 = load %"struct.std::_Rb_tree_node"*, %"struct.std::_Rb_tree_node"** %5, align 8, !llfi_index !1587
  ret %"struct.std::_Rb_tree_node"* %11, !llfi_index !1588
}

; Function Attrs: mustprogress noinline uwtable
define linkonce_odr dso_local %"struct.std::_Rb_tree_node"* @_ZNSt8_Rb_treeIiiSt9_IdentityIiESt4lessIiESaIiEE11_M_get_nodeEv(%"class.std::_Rb_tree"* nonnull align 8 dereferenceable(48) %0) #4 comdat align 2 {
  %2 = alloca %"class.std::_Rb_tree"*, align 8, !llfi_index !1589
  store %"class.std::_Rb_tree"* %0, %"class.std::_Rb_tree"** %2, align 8, !llfi_index !1590
  %3 = load %"class.std::_Rb_tree"*, %"class.std::_Rb_tree"** %2, align 8, !llfi_index !1591
  %4 = call nonnull align 1 dereferenceable(1) %"struct.std::less"* @_ZNSt8_Rb_treeIiiSt9_IdentityIiESt4lessIiESaIiEE21_M_get_Node_allocatorEv(%"class.std::_Rb_tree"* nonnull align 8 dereferenceable(48) %3) #2, !llfi_index !1592
  %5 = call %"struct.std::_Rb_tree_node"* @_ZNSt16allocator_traitsISaISt13_Rb_tree_nodeIiEEE8allocateERS2_m(%"struct.std::less"* nonnull align 1 dereferenceable(1) %4, i64 1), !llfi_index !1593
  ret %"struct.std::_Rb_tree_node"* %5, !llfi_index !1594
}

; Function Attrs: mustprogress noinline nounwind uwtable
define linkonce_odr dso_local void @_ZNSt8_Rb_treeIiiSt9_IdentityIiESt4lessIiESaIiEE17_M_construct_nodeIJRKiEEEvPSt13_Rb_tree_nodeIiEDpOT_(%"class.std::_Rb_tree"* nonnull align 8 dereferenceable(48) %0, %"struct.std::_Rb_tree_node"* %1, i32* nonnull align 4 dereferenceable(4) %2) #3 comdat align 2 {
  %4 = alloca %"class.std::_Rb_tree"*, align 8, !llfi_index !1595
  %5 = alloca %"struct.std::_Rb_tree_node"*, align 8, !llfi_index !1596
  %6 = alloca i32*, align 8, !llfi_index !1597
  store %"class.std::_Rb_tree"* %0, %"class.std::_Rb_tree"** %4, align 8, !llfi_index !1598
  store %"struct.std::_Rb_tree_node"* %1, %"struct.std::_Rb_tree_node"** %5, align 8, !llfi_index !1599
  store i32* %2, i32** %6, align 8, !llfi_index !1600
  %7 = load %"class.std::_Rb_tree"*, %"class.std::_Rb_tree"** %4, align 8, !llfi_index !1601
  %8 = load %"struct.std::_Rb_tree_node"*, %"struct.std::_Rb_tree_node"** %5, align 8, !llfi_index !1602
  %9 = bitcast %"struct.std::_Rb_tree_node"* %8 to i8*, !llfi_index !1603
  %10 = bitcast i8* %9 to %"struct.std::_Rb_tree_node"*, !llfi_index !1604
  %11 = call nonnull align 1 dereferenceable(1) %"struct.std::less"* @_ZNSt8_Rb_treeIiiSt9_IdentityIiESt4lessIiESaIiEE21_M_get_Node_allocatorEv(%"class.std::_Rb_tree"* nonnull align 8 dereferenceable(48) %7) #2, !llfi_index !1605
  %12 = load %"struct.std::_Rb_tree_node"*, %"struct.std::_Rb_tree_node"** %5, align 8, !llfi_index !1606
  %13 = call i32* @_ZNSt13_Rb_tree_nodeIiE9_M_valptrEv(%"struct.std::_Rb_tree_node"* nonnull align 8 dereferenceable(36) %12), !llfi_index !1607
  %14 = load i32*, i32** %6, align 8, !llfi_index !1608
  %15 = call nonnull align 4 dereferenceable(4) i32* @_ZSt7forwardIRKiEOT_RNSt16remove_referenceIS2_E4typeE(i32* nonnull align 4 dereferenceable(4) %14) #2, !llfi_index !1609
  call void @_ZNSt16allocator_traitsISaISt13_Rb_tree_nodeIiEEE9constructIiJRKiEEEvRS2_PT_DpOT0_(%"struct.std::less"* nonnull align 1 dereferenceable(1) %11, i32* %13, i32* nonnull align 4 dereferenceable(4) %15) #2, !llfi_index !1610
  ret void, !llfi_index !1611
}

; Function Attrs: mustprogress noinline nounwind uwtable
define linkonce_odr dso_local void @_ZNSt16allocator_traitsISaISt13_Rb_tree_nodeIiEEE9constructIiJRKiEEEvRS2_PT_DpOT0_(%"struct.std::less"* nonnull align 1 dereferenceable(1) %0, i32* %1, i32* nonnull align 4 dereferenceable(4) %2) #3 comdat align 2 {
  %4 = alloca %"struct.std::less"*, align 8, !llfi_index !1612
  %5 = alloca i32*, align 8, !llfi_index !1613
  %6 = alloca i32*, align 8, !llfi_index !1614
  store %"struct.std::less"* %0, %"struct.std::less"** %4, align 8, !llfi_index !1615
  store i32* %1, i32** %5, align 8, !llfi_index !1616
  store i32* %2, i32** %6, align 8, !llfi_index !1617
  %7 = load %"struct.std::less"*, %"struct.std::less"** %4, align 8, !llfi_index !1618
  %8 = bitcast %"struct.std::less"* %7 to %"struct.std::less"*, !llfi_index !1619
  %9 = load i32*, i32** %5, align 8, !llfi_index !1620
  %10 = load i32*, i32** %6, align 8, !llfi_index !1621
  %11 = call nonnull align 4 dereferenceable(4) i32* @_ZSt7forwardIRKiEOT_RNSt16remove_referenceIS2_E4typeE(i32* nonnull align 4 dereferenceable(4) %10) #2, !llfi_index !1622
  call void @_ZN9__gnu_cxx13new_allocatorISt13_Rb_tree_nodeIiEE9constructIiJRKiEEEvPT_DpOT0_(%"struct.std::less"* nonnull align 1 dereferenceable(1) %8, i32* %9, i32* nonnull align 4 dereferenceable(4) %11) #2, !llfi_index !1623
  ret void, !llfi_index !1624
}

; Function Attrs: mustprogress noinline nounwind uwtable
define linkonce_odr dso_local void @_ZN9__gnu_cxx13new_allocatorISt13_Rb_tree_nodeIiEE9constructIiJRKiEEEvPT_DpOT0_(%"struct.std::less"* nonnull align 1 dereferenceable(1) %0, i32* %1, i32* nonnull align 4 dereferenceable(4) %2) #3 comdat align 2 {
  %4 = alloca %"struct.std::less"*, align 8, !llfi_index !1625
  %5 = alloca i32*, align 8, !llfi_index !1626
  %6 = alloca i32*, align 8, !llfi_index !1627
  store %"struct.std::less"* %0, %"struct.std::less"** %4, align 8, !llfi_index !1628
  store i32* %1, i32** %5, align 8, !llfi_index !1629
  store i32* %2, i32** %6, align 8, !llfi_index !1630
  %7 = load %"struct.std::less"*, %"struct.std::less"** %4, align 8, !llfi_index !1631
  %8 = load i32*, i32** %5, align 8, !llfi_index !1632
  %9 = bitcast i32* %8 to i8*, !llfi_index !1633
  %10 = bitcast i8* %9 to i32*, !llfi_index !1634
  %11 = load i32*, i32** %6, align 8, !llfi_index !1635
  %12 = call nonnull align 4 dereferenceable(4) i32* @_ZSt7forwardIRKiEOT_RNSt16remove_referenceIS2_E4typeE(i32* nonnull align 4 dereferenceable(4) %11) #2, !llfi_index !1636
  %13 = load i32, i32* %12, align 4, !llfi_index !1637
  store i32 %13, i32* %10, align 4, !llfi_index !1638
  ret void, !llfi_index !1639
}

; Function Attrs: mustprogress noinline uwtable
define linkonce_odr dso_local %"struct.std::_Rb_tree_node"* @_ZNSt16allocator_traitsISaISt13_Rb_tree_nodeIiEEE8allocateERS2_m(%"struct.std::less"* nonnull align 1 dereferenceable(1) %0, i64 %1) #4 comdat align 2 {
  %3 = alloca %"struct.std::less"*, align 8, !llfi_index !1640
  %4 = alloca i64, align 8, !llfi_index !1641
  store %"struct.std::less"* %0, %"struct.std::less"** %3, align 8, !llfi_index !1642
  store i64 %1, i64* %4, align 8, !llfi_index !1643
  %5 = load %"struct.std::less"*, %"struct.std::less"** %3, align 8, !llfi_index !1644
  %6 = bitcast %"struct.std::less"* %5 to %"struct.std::less"*, !llfi_index !1645
  %7 = load i64, i64* %4, align 8, !llfi_index !1646
  %8 = call %"struct.std::_Rb_tree_node"* @_ZN9__gnu_cxx13new_allocatorISt13_Rb_tree_nodeIiEE8allocateEmPKv(%"struct.std::less"* nonnull align 1 dereferenceable(1) %6, i64 %7, i8* null), !llfi_index !1647
  ret %"struct.std::_Rb_tree_node"* %8, !llfi_index !1648
}

; Function Attrs: mustprogress noinline uwtable
define linkonce_odr dso_local %"struct.std::_Rb_tree_node"* @_ZN9__gnu_cxx13new_allocatorISt13_Rb_tree_nodeIiEE8allocateEmPKv(%"struct.std::less"* nonnull align 1 dereferenceable(1) %0, i64 %1, i8* %2) #4 comdat align 2 {
  %4 = alloca %"struct.std::less"*, align 8, !llfi_index !1649
  %5 = alloca i64, align 8, !llfi_index !1650
  %6 = alloca i8*, align 8, !llfi_index !1651
  store %"struct.std::less"* %0, %"struct.std::less"** %4, align 8, !llfi_index !1652
  store i64 %1, i64* %5, align 8, !llfi_index !1653
  store i8* %2, i8** %6, align 8, !llfi_index !1654
  %7 = load %"struct.std::less"*, %"struct.std::less"** %4, align 8, !llfi_index !1655
  %8 = load i64, i64* %5, align 8, !llfi_index !1656
  %9 = call i64 @_ZNK9__gnu_cxx13new_allocatorISt13_Rb_tree_nodeIiEE8max_sizeEv(%"struct.std::less"* nonnull align 1 dereferenceable(1) %7) #2, !llfi_index !1657
  %10 = icmp ugt i64 %8, %9, !llfi_index !1658
  br i1 %10, label %11, label %12, !llfi_index !1659

11:                                               ; preds = %3
  call void @_ZSt17__throw_bad_allocv() #16, !llfi_index !1660
  unreachable, !llfi_index !1661

12:                                               ; preds = %3
  %13 = load i64, i64* %5, align 8, !llfi_index !1662
  %14 = mul i64 %13, 40, !llfi_index !1663
  %15 = call noalias nonnull i8* @_Znwm(i64 %14) #17, !llfi_index !1664
  %16 = bitcast i8* %15 to %"struct.std::_Rb_tree_node"*, !llfi_index !1665
  ret %"struct.std::_Rb_tree_node"* %16, !llfi_index !1666
}

; Function Attrs: mustprogress noinline nounwind uwtable
define linkonce_odr dso_local i64 @_ZNK9__gnu_cxx13new_allocatorISt13_Rb_tree_nodeIiEE8max_sizeEv(%"struct.std::less"* nonnull align 1 dereferenceable(1) %0) #3 comdat align 2 {
  %2 = alloca %"struct.std::less"*, align 8, !llfi_index !1667
  store %"struct.std::less"* %0, %"struct.std::less"** %2, align 8, !llfi_index !1668
  %3 = load %"struct.std::less"*, %"struct.std::less"** %2, align 8, !llfi_index !1669
  ret i64 230584300921369395, !llfi_index !1670
}

; Function Attrs: noreturn
declare dso_local void @_ZSt17__throw_bad_allocv() #12

; Function Attrs: nobuiltin allocsize(0)
declare dso_local nonnull i8* @_Znwm(i64) #13

; Function Attrs: noinline nounwind uwtable
define linkonce_odr dso_local void @_ZNSt4pairIPSt18_Rb_tree_node_baseS1_EC2IRPSt13_Rb_tree_nodeIiERS1_Lb1EEEOT_OT0_(%"struct.std::pair"* nonnull align 8 dereferenceable(16) %0, %"struct.std::_Rb_tree_node"** nonnull align 8 dereferenceable(8) %1, %"struct.std::_Rb_tree_node_base"** nonnull align 8 dereferenceable(8) %2) unnamed_addr #1 comdat align 2 {
  %4 = alloca %"struct.std::pair"*, align 8, !llfi_index !1671
  %5 = alloca %"struct.std::_Rb_tree_node"**, align 8, !llfi_index !1672
  %6 = alloca %"struct.std::_Rb_tree_node_base"**, align 8, !llfi_index !1673
  store %"struct.std::pair"* %0, %"struct.std::pair"** %4, align 8, !llfi_index !1674
  store %"struct.std::_Rb_tree_node"** %1, %"struct.std::_Rb_tree_node"*** %5, align 8, !llfi_index !1675
  store %"struct.std::_Rb_tree_node_base"** %2, %"struct.std::_Rb_tree_node_base"*** %6, align 8, !llfi_index !1676
  %7 = load %"struct.std::pair"*, %"struct.std::pair"** %4, align 8, !llfi_index !1677
  %8 = bitcast %"struct.std::pair"* %7 to %"struct.std::less"*, !llfi_index !1678
  %9 = getelementptr inbounds %"struct.std::pair", %"struct.std::pair"* %7, i32 0, i32 0, !llfi_index !1679
  %10 = load %"struct.std::_Rb_tree_node"**, %"struct.std::_Rb_tree_node"*** %5, align 8, !llfi_index !1680
  %11 = call nonnull align 8 dereferenceable(8) %"struct.std::_Rb_tree_node"** @_ZSt7forwardIRPSt13_Rb_tree_nodeIiEEOT_RNSt16remove_referenceIS4_E4typeE(%"struct.std::_Rb_tree_node"** nonnull align 8 dereferenceable(8) %10) #2, !llfi_index !1681
  %12 = load %"struct.std::_Rb_tree_node"*, %"struct.std::_Rb_tree_node"** %11, align 8, !llfi_index !1682
  %13 = bitcast %"struct.std::_Rb_tree_node"* %12 to %"struct.std::_Rb_tree_node_base"*, !llfi_index !1683
  store %"struct.std::_Rb_tree_node_base"* %13, %"struct.std::_Rb_tree_node_base"** %9, align 8, !llfi_index !1684
  %14 = getelementptr inbounds %"struct.std::pair", %"struct.std::pair"* %7, i32 0, i32 1, !llfi_index !1685
  %15 = load %"struct.std::_Rb_tree_node_base"**, %"struct.std::_Rb_tree_node_base"*** %6, align 8, !llfi_index !1686
  %16 = call nonnull align 8 dereferenceable(8) %"struct.std::_Rb_tree_node_base"** @_ZSt7forwardIRPSt18_Rb_tree_node_baseEOT_RNSt16remove_referenceIS3_E4typeE(%"struct.std::_Rb_tree_node_base"** nonnull align 8 dereferenceable(8) %15) #2, !llfi_index !1687
  %17 = load %"struct.std::_Rb_tree_node_base"*, %"struct.std::_Rb_tree_node_base"** %16, align 8, !llfi_index !1688
  store %"struct.std::_Rb_tree_node_base"* %17, %"struct.std::_Rb_tree_node_base"** %14, align 8, !llfi_index !1689
  ret void, !llfi_index !1690
}

; Function Attrs: mustprogress noinline nounwind uwtable
define linkonce_odr dso_local nonnull align 8 dereferenceable(8) %"struct.std::_Rb_tree_node"** @_ZSt7forwardIRPSt13_Rb_tree_nodeIiEEOT_RNSt16remove_referenceIS4_E4typeE(%"struct.std::_Rb_tree_node"** nonnull align 8 dereferenceable(8) %0) #3 comdat {
  %2 = alloca %"struct.std::_Rb_tree_node"**, align 8, !llfi_index !1691
  store %"struct.std::_Rb_tree_node"** %0, %"struct.std::_Rb_tree_node"*** %2, align 8, !llfi_index !1692
  %3 = load %"struct.std::_Rb_tree_node"**, %"struct.std::_Rb_tree_node"*** %2, align 8, !llfi_index !1693
  ret %"struct.std::_Rb_tree_node"** %3, !llfi_index !1694
}

; Function Attrs: mustprogress noinline nounwind uwtable
define linkonce_odr dso_local nonnull align 8 dereferenceable(8) %"struct.std::_Rb_tree_node_base"** @_ZSt7forwardIRPSt18_Rb_tree_node_baseEOT_RNSt16remove_referenceIS3_E4typeE(%"struct.std::_Rb_tree_node_base"** nonnull align 8 dereferenceable(8) %0) #3 comdat {
  %2 = alloca %"struct.std::_Rb_tree_node_base"**, align 8, !llfi_index !1695
  store %"struct.std::_Rb_tree_node_base"** %0, %"struct.std::_Rb_tree_node_base"*** %2, align 8, !llfi_index !1696
  %3 = load %"struct.std::_Rb_tree_node_base"**, %"struct.std::_Rb_tree_node_base"*** %2, align 8, !llfi_index !1697
  ret %"struct.std::_Rb_tree_node_base"** %3, !llfi_index !1698
}

attributes #0 = { noinline uwtable "frame-pointer"="all" "min-legal-vector-width"="0" "no-trapping-math"="true" "stack-protector-buffer-size"="8" "target-cpu"="x86-64" "target-features"="+cx8,+fxsr,+mmx,+sse,+sse2,+x87" "tune-cpu"="generic" }
attributes #1 = { noinline nounwind uwtable "frame-pointer"="all" "min-legal-vector-width"="0" "no-trapping-math"="true" "stack-protector-buffer-size"="8" "target-cpu"="x86-64" "target-features"="+cx8,+fxsr,+mmx,+sse,+sse2,+x87" "tune-cpu"="generic" }
attributes #2 = { nounwind }
attributes #3 = { mustprogress noinline nounwind uwtable "frame-pointer"="all" "min-legal-vector-width"="0" "no-trapping-math"="true" "stack-protector-buffer-size"="8" "target-cpu"="x86-64" "target-features"="+cx8,+fxsr,+mmx,+sse,+sse2,+x87" "tune-cpu"="generic" }
attributes #4 = { mustprogress noinline uwtable "frame-pointer"="all" "min-legal-vector-width"="0" "no-trapping-math"="true" "stack-protector-buffer-size"="8" "target-cpu"="x86-64" "target-features"="+cx8,+fxsr,+mmx,+sse,+sse2,+x87" "tune-cpu"="generic" }
attributes #5 = { noinline noreturn nounwind }
attributes #6 = { nobuiltin nounwind "frame-pointer"="all" "no-trapping-math"="true" "stack-protector-buffer-size"="8" "target-cpu"="x86-64" "target-features"="+cx8,+fxsr,+mmx,+sse,+sse2,+x87" "tune-cpu"="generic" }
attributes #7 = { "frame-pointer"="all" "no-trapping-math"="true" "stack-protector-buffer-size"="8" "target-cpu"="x86-64" "target-features"="+cx8,+fxsr,+mmx,+sse,+sse2,+x87" "tune-cpu"="generic" }
attributes #8 = { nounwind "frame-pointer"="all" "no-trapping-math"="true" "stack-protector-buffer-size"="8" "target-cpu"="x86-64" "target-features"="+cx8,+fxsr,+mmx,+sse,+sse2,+x87" "tune-cpu"="generic" }
attributes #9 = { argmemonly nofree nounwind willreturn }
attributes #10 = { mustprogress noinline norecurse uwtable "frame-pointer"="all" "min-legal-vector-width"="0" "no-trapping-math"="true" "stack-protector-buffer-size"="8" "target-cpu"="x86-64" "target-features"="+cx8,+fxsr,+mmx,+sse,+sse2,+x87" "tune-cpu"="generic" }
attributes #11 = { nounwind readonly willreturn "frame-pointer"="all" "no-trapping-math"="true" "stack-protector-buffer-size"="8" "target-cpu"="x86-64" "target-features"="+cx8,+fxsr,+mmx,+sse,+sse2,+x87" "tune-cpu"="generic" }
attributes #12 = { noreturn "frame-pointer"="all" "no-trapping-math"="true" "stack-protector-buffer-size"="8" "target-cpu"="x86-64" "target-features"="+cx8,+fxsr,+mmx,+sse,+sse2,+x87" "tune-cpu"="generic" }
attributes #13 = { nobuiltin allocsize(0) "frame-pointer"="all" "no-trapping-math"="true" "stack-protector-buffer-size"="8" "target-cpu"="x86-64" "target-features"="+cx8,+fxsr,+mmx,+sse,+sse2,+x87" "tune-cpu"="generic" }
attributes #14 = { noreturn nounwind }
attributes #15 = { nounwind readonly willreturn }
attributes #16 = { noreturn }
attributes #17 = { allocsize(0) }

!llvm.ident = !{!0}
!llvm.module.flags = !{!1, !2, !3}

!0 = !{!"clang version 13.0.0 (https://github.com/llvm/llvm-project.git d7b669b3a30345cfcdb2fde2af6f48aa4b94845d)"}
!1 = !{i32 1, !"wchar_size", i32 4}
!2 = !{i32 7, !"uwtable", i32 1}
!3 = !{i32 7, !"frame-pointer", i32 2}
!4 = !{i64 1}
!5 = !{i64 2}
!6 = !{i64 3}
!7 = !{i64 4}
!8 = !{i64 5}
!9 = !{i64 6}
!10 = !{i64 7}
!11 = !{i64 8}
!12 = !{i64 9}
!13 = !{i64 10}
!14 = !{i64 11}
!15 = !{i64 12}
!16 = !{i64 13}
!17 = !{i64 14}
!18 = !{i64 15}
!19 = !{i64 16}
!20 = !{i64 17}
!21 = !{i64 18}
!22 = !{i64 19}
!23 = !{i64 20}
!24 = !{i64 21}
!25 = !{i64 22}
!26 = !{i64 23}
!27 = !{i64 24}
!28 = !{i64 25}
!29 = !{i64 26}
!30 = !{i64 27}
!31 = !{i64 28}
!32 = !{i64 29}
!33 = !{i64 30}
!34 = !{i64 31}
!35 = !{i64 32}
!36 = !{i64 33}
!37 = !{i64 34}
!38 = !{i64 35}
!39 = !{i64 36}
!40 = !{i64 37}
!41 = !{i64 38}
!42 = !{i64 39}
!43 = !{i64 40}
!44 = !{i64 41}
!45 = !{i64 42}
!46 = !{i64 43}
!47 = !{i64 44}
!48 = !{i64 45}
!49 = !{i64 46}
!50 = !{i64 47}
!51 = !{i64 48}
!52 = !{i64 49}
!53 = !{i64 50}
!54 = !{i64 51}
!55 = !{i64 52}
!56 = !{i64 53}
!57 = !{i64 54}
!58 = !{i64 55}
!59 = !{i64 56}
!60 = !{i64 57}
!61 = !{i64 58}
!62 = !{i64 59}
!63 = !{i64 60}
!64 = !{i64 61}
!65 = !{i64 62}
!66 = !{i64 63}
!67 = !{i64 64}
!68 = !{i64 65}
!69 = !{i64 66}
!70 = !{i64 67}
!71 = !{i64 68}
!72 = !{i64 69}
!73 = !{i64 70}
!74 = !{i64 71}
!75 = !{i64 72}
!76 = !{i64 73}
!77 = !{i64 74}
!78 = !{i64 75}
!79 = !{i64 76}
!80 = !{i64 77}
!81 = !{i64 78}
!82 = !{i64 79}
!83 = !{i64 80}
!84 = !{i64 81}
!85 = !{i64 82}
!86 = !{i64 83}
!87 = !{i64 84}
!88 = !{i64 85}
!89 = !{i64 86}
!90 = !{i64 87}
!91 = !{i64 88}
!92 = !{i64 89}
!93 = !{i64 90}
!94 = !{i64 91}
!95 = !{i64 92}
!96 = !{i64 93}
!97 = !{i64 94}
!98 = !{i64 95}
!99 = !{i64 96}
!100 = !{i64 97}
!101 = !{i64 98}
!102 = !{i64 99}
!103 = !{i64 100}
!104 = !{i64 101}
!105 = !{i64 102}
!106 = !{i64 103}
!107 = !{i64 104}
!108 = !{i64 105}
!109 = !{i64 106}
!110 = !{i64 107}
!111 = !{i64 108}
!112 = !{i64 109}
!113 = !{i64 110}
!114 = !{i64 111}
!115 = !{i64 112}
!116 = !{i64 113}
!117 = !{i64 114}
!118 = !{i64 115}
!119 = !{i64 116}
!120 = !{i64 117}
!121 = !{i64 118}
!122 = distinct !{!122, !123}
!123 = !{!"llvm.loop.mustprogress"}
!124 = !{i64 119}
!125 = !{i64 120}
!126 = !{i64 121}
!127 = !{i64 122}
!128 = !{i64 123}
!129 = !{i64 124}
!130 = !{i64 125}
!131 = !{i64 126}
!132 = !{i64 127}
!133 = !{i64 128}
!134 = !{i64 129}
!135 = !{i64 130}
!136 = !{i64 131}
!137 = !{i64 132}
!138 = !{i64 133}
!139 = !{i64 134}
!140 = !{i64 135}
!141 = !{i64 136}
!142 = !{i64 137}
!143 = !{i64 138}
!144 = !{i64 139}
!145 = !{i64 140}
!146 = !{i64 141}
!147 = !{i64 142}
!148 = !{i64 143}
!149 = !{i64 144}
!150 = !{i64 145}
!151 = !{i64 146}
!152 = !{i64 147}
!153 = !{i64 148}
!154 = !{i64 149}
!155 = !{i64 150}
!156 = !{i64 151}
!157 = !{i64 152}
!158 = !{i64 153}
!159 = !{i64 154}
!160 = !{i64 155}
!161 = !{i64 156}
!162 = !{i64 157}
!163 = !{i64 158}
!164 = !{i64 159}
!165 = !{i64 160}
!166 = !{i64 161}
!167 = !{i64 162}
!168 = !{i64 163}
!169 = !{i64 164}
!170 = !{i64 165}
!171 = !{i64 166}
!172 = !{i64 167}
!173 = !{i64 168}
!174 = !{i64 169}
!175 = !{i64 170}
!176 = !{i64 171}
!177 = !{i64 172}
!178 = !{i64 173}
!179 = !{i64 174}
!180 = !{i64 175}
!181 = !{i64 176}
!182 = !{i64 177}
!183 = !{i64 178}
!184 = !{i64 179}
!185 = !{i64 180}
!186 = !{i64 181}
!187 = !{i64 182}
!188 = !{i64 183}
!189 = !{i64 184}
!190 = !{i64 185}
!191 = !{i64 186}
!192 = !{i64 187}
!193 = !{i64 188}
!194 = !{i64 189}
!195 = !{i64 190}
!196 = !{i64 191}
!197 = !{i64 192}
!198 = !{i64 193}
!199 = !{i64 194}
!200 = !{i64 195}
!201 = !{i64 196}
!202 = !{i64 197}
!203 = !{i64 198}
!204 = !{i64 199}
!205 = !{i64 200}
!206 = !{i64 201}
!207 = !{i64 202}
!208 = !{i64 203}
!209 = !{i64 204}
!210 = !{i64 205}
!211 = !{i64 206}
!212 = !{i64 207}
!213 = !{i64 208}
!214 = !{i64 209}
!215 = !{i64 210}
!216 = !{i64 211}
!217 = !{i64 212}
!218 = !{i64 213}
!219 = !{i64 214}
!220 = !{i64 215}
!221 = !{i64 216}
!222 = !{i64 217}
!223 = !{i64 218}
!224 = !{i64 219}
!225 = !{i64 220}
!226 = !{i64 221}
!227 = !{i64 222}
!228 = !{i64 223}
!229 = !{i64 224}
!230 = !{i64 225}
!231 = !{i64 226}
!232 = !{i64 227}
!233 = !{i64 228}
!234 = !{i64 229}
!235 = !{i64 230}
!236 = !{i64 231}
!237 = !{i64 232}
!238 = !{i64 233}
!239 = !{i64 234}
!240 = !{i64 235}
!241 = !{i64 236}
!242 = !{i64 237}
!243 = !{i64 238}
!244 = !{i64 239}
!245 = !{i64 240}
!246 = !{i64 241}
!247 = !{i64 242}
!248 = !{i64 243}
!249 = !{i64 244}
!250 = !{i64 245}
!251 = !{i64 246}
!252 = !{i64 247}
!253 = !{i64 248}
!254 = !{i64 249}
!255 = !{i64 250}
!256 = !{i64 251}
!257 = !{i64 252}
!258 = !{i64 253}
!259 = !{i64 254}
!260 = !{i64 255}
!261 = !{i64 256}
!262 = !{i64 257}
!263 = !{i64 258}
!264 = !{i64 259}
!265 = !{i64 260}
!266 = !{i64 261}
!267 = !{i64 262}
!268 = !{i64 263}
!269 = !{i64 264}
!270 = !{i64 265}
!271 = !{i64 266}
!272 = !{i64 267}
!273 = !{i64 268}
!274 = !{i64 269}
!275 = !{i64 270}
!276 = !{i64 271}
!277 = !{i64 272}
!278 = !{i64 273}
!279 = !{i64 274}
!280 = !{i64 275}
!281 = !{i64 276}
!282 = !{i64 277}
!283 = !{i64 278}
!284 = !{i64 279}
!285 = !{i64 280}
!286 = !{i64 281}
!287 = !{i64 282}
!288 = !{i64 283}
!289 = !{i64 284}
!290 = !{i64 285}
!291 = !{i64 286}
!292 = !{i64 287}
!293 = !{i64 288}
!294 = !{i64 289}
!295 = !{i64 290}
!296 = !{i64 291}
!297 = !{i64 292}
!298 = !{i64 293}
!299 = !{i64 294}
!300 = !{i64 295}
!301 = !{i64 296}
!302 = !{i64 297}
!303 = !{i64 298}
!304 = !{i64 299}
!305 = !{i64 300}
!306 = !{i64 301}
!307 = !{i64 302}
!308 = !{i64 303}
!309 = !{i64 304}
!310 = !{i64 305}
!311 = !{i64 306}
!312 = !{i64 307}
!313 = !{i64 308}
!314 = !{i64 309}
!315 = !{i64 310}
!316 = !{i64 311}
!317 = !{i64 312}
!318 = !{i64 313}
!319 = !{i64 314}
!320 = !{i64 315}
!321 = !{i64 316}
!322 = !{i64 317}
!323 = !{i64 318}
!324 = !{i64 319}
!325 = !{i64 320}
!326 = !{i64 321}
!327 = !{i64 322}
!328 = !{i64 323}
!329 = !{i64 324}
!330 = !{i64 325}
!331 = !{i64 326}
!332 = !{i64 327}
!333 = !{i64 328}
!334 = !{i64 329}
!335 = !{i64 330}
!336 = !{i64 331}
!337 = !{i64 332}
!338 = !{i64 333}
!339 = !{i64 334}
!340 = !{i64 335}
!341 = !{i64 336}
!342 = !{i64 337}
!343 = !{i64 338}
!344 = !{i64 339}
!345 = !{i64 340}
!346 = !{i64 341}
!347 = !{i64 342}
!348 = !{i64 343}
!349 = !{i64 344}
!350 = !{i64 345}
!351 = !{i64 346}
!352 = !{i64 347}
!353 = !{i64 348}
!354 = !{i64 349}
!355 = !{i64 350}
!356 = !{i64 351}
!357 = !{i64 352}
!358 = !{i64 353}
!359 = !{i64 354}
!360 = !{i64 355}
!361 = !{i64 356}
!362 = !{i64 357}
!363 = !{i64 358}
!364 = !{i64 359}
!365 = !{i64 360}
!366 = !{i64 361}
!367 = !{i64 362}
!368 = !{i64 363}
!369 = !{i64 364}
!370 = !{i64 365}
!371 = !{i64 366}
!372 = !{i64 367}
!373 = !{i64 368}
!374 = !{i64 369}
!375 = !{i64 370}
!376 = !{i64 371}
!377 = !{i64 372}
!378 = !{i64 373}
!379 = !{i64 374}
!380 = !{i64 375}
!381 = !{i64 376}
!382 = !{i64 377}
!383 = !{i64 378}
!384 = !{i64 379}
!385 = !{i64 380}
!386 = !{i64 381}
!387 = !{i64 382}
!388 = !{i64 383}
!389 = !{i64 384}
!390 = !{i64 385}
!391 = !{i64 386}
!392 = !{i64 387}
!393 = !{i64 388}
!394 = !{i64 389}
!395 = !{i64 390}
!396 = !{i64 391}
!397 = !{i64 392}
!398 = !{i64 393}
!399 = !{i64 394}
!400 = !{i64 395}
!401 = !{i64 396}
!402 = !{i64 397}
!403 = !{i64 398}
!404 = !{i64 399}
!405 = !{i64 400}
!406 = !{i64 401}
!407 = !{i64 402}
!408 = !{i64 403}
!409 = !{i64 404}
!410 = !{i64 405}
!411 = !{i64 406}
!412 = !{i64 407}
!413 = !{i64 408}
!414 = !{i64 409}
!415 = !{i64 410}
!416 = !{i64 411}
!417 = !{i64 412}
!418 = !{i64 413}
!419 = !{i64 414}
!420 = !{i64 415}
!421 = !{i64 416}
!422 = !{i64 417}
!423 = !{i64 418}
!424 = !{i64 419}
!425 = !{i64 420}
!426 = !{i64 421}
!427 = !{i64 422}
!428 = !{i64 423}
!429 = !{i64 424}
!430 = !{i64 425}
!431 = !{i64 426}
!432 = !{i64 427}
!433 = !{i64 428}
!434 = !{i64 429}
!435 = !{i64 430}
!436 = !{i64 431}
!437 = !{i64 432}
!438 = !{i64 433}
!439 = !{i64 434}
!440 = !{i64 435}
!441 = !{i64 436}
!442 = !{i64 437}
!443 = !{i64 438}
!444 = !{i64 439}
!445 = !{i64 440}
!446 = !{i64 441}
!447 = !{i64 442}
!448 = !{i64 443}
!449 = !{i64 444}
!450 = !{i64 445}
!451 = !{i64 446}
!452 = !{i64 447}
!453 = !{i64 448}
!454 = !{i64 449}
!455 = !{i64 450}
!456 = !{i64 451}
!457 = !{i64 452}
!458 = !{i64 453}
!459 = !{i64 454}
!460 = !{i64 455}
!461 = !{i64 456}
!462 = !{i64 457}
!463 = !{i64 458}
!464 = !{i64 459}
!465 = !{i64 460}
!466 = !{i64 461}
!467 = !{i64 462}
!468 = !{i64 463}
!469 = !{i64 464}
!470 = !{i64 465}
!471 = !{i64 466}
!472 = !{i64 467}
!473 = !{i64 468}
!474 = !{i64 469}
!475 = !{i64 470}
!476 = !{i64 471}
!477 = !{i64 472}
!478 = !{i64 473}
!479 = !{i64 474}
!480 = !{i64 475}
!481 = !{i64 476}
!482 = !{i64 477}
!483 = !{i64 478}
!484 = !{i64 479}
!485 = !{i64 480}
!486 = !{i64 481}
!487 = !{i64 482}
!488 = !{i64 483}
!489 = !{i64 484}
!490 = !{i64 485}
!491 = !{i64 486}
!492 = !{i64 487}
!493 = !{i64 488}
!494 = !{i64 489}
!495 = !{i64 490}
!496 = !{i64 491}
!497 = !{i64 492}
!498 = !{i64 493}
!499 = !{i64 494}
!500 = !{i64 495}
!501 = !{i64 496}
!502 = !{i64 497}
!503 = !{i64 498}
!504 = !{i64 499}
!505 = !{i64 500}
!506 = !{i64 501}
!507 = !{i64 502}
!508 = !{i64 503}
!509 = !{i64 504}
!510 = !{i64 505}
!511 = !{i64 506}
!512 = !{i64 507}
!513 = !{i64 508}
!514 = !{i64 509}
!515 = !{i64 510}
!516 = !{i64 511}
!517 = !{i64 512}
!518 = !{i64 513}
!519 = !{i64 514}
!520 = !{i64 515}
!521 = !{i64 516}
!522 = !{i64 517}
!523 = !{i64 518}
!524 = !{i64 519}
!525 = !{i64 520}
!526 = !{i64 521}
!527 = !{i64 522}
!528 = !{i64 523}
!529 = !{i64 524}
!530 = !{i64 525}
!531 = !{i64 526}
!532 = !{i64 527}
!533 = !{i64 528}
!534 = !{i64 529}
!535 = !{i64 530}
!536 = !{i64 531}
!537 = !{i64 532}
!538 = !{i64 533}
!539 = !{i64 534}
!540 = !{i64 535}
!541 = !{i64 536}
!542 = !{i64 537}
!543 = !{i64 538}
!544 = !{i64 539}
!545 = !{i64 540}
!546 = !{i64 541}
!547 = !{i64 542}
!548 = !{i64 543}
!549 = !{i64 544}
!550 = !{i64 545}
!551 = !{i64 546}
!552 = !{i64 547}
!553 = !{i64 548}
!554 = !{i64 549}
!555 = !{i64 550}
!556 = !{i64 551}
!557 = !{i64 552}
!558 = !{i64 553}
!559 = !{i64 554}
!560 = !{i64 555}
!561 = !{i64 556}
!562 = !{i64 557}
!563 = !{i64 558}
!564 = !{i64 559}
!565 = !{i64 560}
!566 = !{i64 561}
!567 = !{i64 562}
!568 = !{i64 563}
!569 = !{i64 564}
!570 = !{i64 565}
!571 = !{i64 566}
!572 = !{i64 567}
!573 = !{i64 568}
!574 = !{i64 569}
!575 = !{i64 570}
!576 = !{i64 571}
!577 = !{i64 572}
!578 = !{i64 573}
!579 = !{i64 574}
!580 = !{i64 575}
!581 = !{i64 576}
!582 = !{i64 577}
!583 = !{i64 578}
!584 = !{i64 579}
!585 = !{i64 580}
!586 = !{i64 581}
!587 = !{i64 582}
!588 = !{i64 583}
!589 = !{i64 584}
!590 = !{i64 585}
!591 = !{i64 586}
!592 = !{i64 587}
!593 = !{i64 588}
!594 = !{i64 589}
!595 = !{i64 590}
!596 = !{i64 591}
!597 = !{i64 592}
!598 = !{i64 593}
!599 = !{i64 594}
!600 = !{i64 595}
!601 = !{i64 596}
!602 = !{i64 597}
!603 = !{i64 598}
!604 = !{i64 599}
!605 = !{i64 600}
!606 = !{i64 601}
!607 = !{i64 602}
!608 = !{i64 603}
!609 = !{i64 604}
!610 = !{i64 605}
!611 = !{i64 606}
!612 = !{i64 607}
!613 = !{i64 608}
!614 = !{i64 609}
!615 = !{i64 610}
!616 = !{i64 611}
!617 = !{i64 612}
!618 = !{i64 613}
!619 = !{i64 614}
!620 = !{i64 615}
!621 = !{i64 616}
!622 = !{i64 617}
!623 = !{i64 618}
!624 = !{i64 619}
!625 = !{i64 620}
!626 = !{i64 621}
!627 = !{i64 622}
!628 = !{i64 623}
!629 = !{i64 624}
!630 = !{i64 625}
!631 = !{i64 626}
!632 = !{i64 627}
!633 = !{i64 628}
!634 = !{i64 629}
!635 = !{i64 630}
!636 = !{i64 631}
!637 = !{i64 632}
!638 = !{i64 633}
!639 = !{i64 634}
!640 = !{i64 635}
!641 = !{i64 636}
!642 = !{i64 637}
!643 = !{i64 638}
!644 = !{i64 639}
!645 = !{i64 640}
!646 = !{i64 641}
!647 = !{i64 642}
!648 = !{i64 643}
!649 = !{i64 644}
!650 = !{i64 645}
!651 = !{i64 646}
!652 = !{i64 647}
!653 = !{i64 648}
!654 = !{i64 649}
!655 = !{i64 650}
!656 = !{i64 651}
!657 = !{i64 652}
!658 = !{i64 653}
!659 = !{i64 654}
!660 = !{i64 655}
!661 = !{i64 656}
!662 = !{i64 657}
!663 = !{i64 658}
!664 = !{i64 659}
!665 = !{i64 660}
!666 = !{i64 661}
!667 = !{i64 662}
!668 = !{i64 663}
!669 = !{i64 664}
!670 = !{i64 665}
!671 = !{i64 666}
!672 = !{i64 667}
!673 = !{i64 668}
!674 = !{i64 669}
!675 = !{i64 670}
!676 = !{i64 671}
!677 = !{i64 672}
!678 = !{i64 673}
!679 = !{i64 674}
!680 = !{i64 675}
!681 = !{i64 676}
!682 = !{i64 677}
!683 = !{i64 678}
!684 = !{i64 679}
!685 = !{i64 680}
!686 = !{i64 681}
!687 = !{i64 682}
!688 = !{i64 683}
!689 = !{i64 684}
!690 = !{i64 685}
!691 = !{i64 686}
!692 = !{i64 687}
!693 = !{i64 688}
!694 = !{i64 689}
!695 = !{i64 690}
!696 = !{i64 691}
!697 = !{i64 692}
!698 = !{i64 693}
!699 = !{i64 694}
!700 = !{i64 695}
!701 = !{i64 696}
!702 = !{i64 697}
!703 = !{i64 698}
!704 = !{i64 699}
!705 = !{i64 700}
!706 = !{i64 701}
!707 = !{i64 702}
!708 = !{i64 703}
!709 = !{i64 704}
!710 = !{i64 705}
!711 = !{i64 706}
!712 = !{i64 707}
!713 = !{i64 708}
!714 = !{i64 709}
!715 = !{i64 710}
!716 = !{i64 711}
!717 = !{i64 712}
!718 = !{i64 713}
!719 = !{i64 714}
!720 = !{i64 715}
!721 = !{i64 716}
!722 = !{i64 717}
!723 = !{i64 718}
!724 = !{i64 719}
!725 = !{i64 720}
!726 = !{i64 721}
!727 = !{i64 722}
!728 = !{i64 723}
!729 = !{i64 724}
!730 = !{i64 725}
!731 = !{i64 726}
!732 = !{i64 727}
!733 = !{i64 728}
!734 = !{i64 729}
!735 = !{i64 730}
!736 = !{i64 731}
!737 = !{i64 732}
!738 = !{i64 733}
!739 = !{i64 734}
!740 = !{i64 735}
!741 = !{i64 736}
!742 = !{i64 737}
!743 = !{i64 738}
!744 = !{i64 739}
!745 = !{i64 740}
!746 = !{i64 741}
!747 = !{i64 742}
!748 = !{i64 743}
!749 = !{i64 744}
!750 = !{i64 745}
!751 = !{i64 746}
!752 = !{i64 747}
!753 = !{i64 748}
!754 = !{i64 749}
!755 = !{i64 750}
!756 = !{i64 751}
!757 = !{i64 752}
!758 = !{i64 753}
!759 = !{i64 754}
!760 = !{i64 755}
!761 = !{i64 756}
!762 = !{i64 757}
!763 = !{i64 758}
!764 = !{i64 759}
!765 = !{i64 760}
!766 = !{i64 761}
!767 = !{i64 762}
!768 = !{i64 763}
!769 = !{i64 764}
!770 = !{i64 765}
!771 = !{i64 766}
!772 = !{i64 767}
!773 = !{i64 768}
!774 = !{i64 769}
!775 = !{i64 770}
!776 = !{i64 771}
!777 = !{i64 772}
!778 = !{i64 773}
!779 = !{i64 774}
!780 = !{i64 775}
!781 = !{i64 776}
!782 = !{i64 777}
!783 = !{i64 778}
!784 = !{i64 779}
!785 = !{i64 780}
!786 = !{i64 781}
!787 = !{i64 782}
!788 = !{i64 783}
!789 = !{i64 784}
!790 = !{i64 785}
!791 = !{i64 786}
!792 = !{i64 787}
!793 = !{i64 788}
!794 = !{i64 789}
!795 = !{i64 790}
!796 = !{i64 791}
!797 = !{i64 792}
!798 = !{i64 793}
!799 = !{i64 794}
!800 = !{i64 795}
!801 = !{i64 796}
!802 = !{i64 797}
!803 = !{i64 798}
!804 = !{i64 799}
!805 = !{i64 800}
!806 = !{i64 801}
!807 = !{i64 802}
!808 = !{i64 803}
!809 = !{i64 804}
!810 = !{i64 805}
!811 = !{i64 806}
!812 = !{i64 807}
!813 = !{i64 808}
!814 = !{i64 809}
!815 = !{i64 810}
!816 = !{i64 811}
!817 = !{i64 812}
!818 = !{i64 813}
!819 = !{i64 814}
!820 = !{i64 815}
!821 = !{i64 816}
!822 = !{i64 817}
!823 = !{i64 818}
!824 = !{i64 819}
!825 = !{i64 820}
!826 = !{i64 821}
!827 = !{i64 822}
!828 = !{i64 823}
!829 = !{i64 824}
!830 = !{i64 825}
!831 = !{i64 826}
!832 = !{i64 827}
!833 = !{i64 828}
!834 = !{i64 829}
!835 = !{i64 830}
!836 = !{i64 831}
!837 = !{i64 832}
!838 = !{i64 833}
!839 = !{i64 834}
!840 = !{i64 835}
!841 = !{i64 836}
!842 = !{i64 837}
!843 = !{i64 838}
!844 = !{i64 839}
!845 = !{i64 840}
!846 = !{i64 841}
!847 = !{i64 842}
!848 = !{i64 843}
!849 = !{i64 844}
!850 = !{i64 845}
!851 = !{i64 846}
!852 = !{i64 847}
!853 = !{i64 848}
!854 = !{i64 849}
!855 = !{i64 850}
!856 = !{i64 851}
!857 = !{i64 852}
!858 = !{i64 853}
!859 = !{i64 854}
!860 = !{i64 855}
!861 = !{i64 856}
!862 = !{i64 857}
!863 = !{i64 858}
!864 = !{i64 859}
!865 = !{i64 860}
!866 = !{i64 861}
!867 = !{i64 862}
!868 = !{i64 863}
!869 = !{i64 864}
!870 = !{i64 865}
!871 = !{i64 866}
!872 = !{i64 867}
!873 = !{i64 868}
!874 = !{i64 869}
!875 = !{i64 870}
!876 = !{i64 871}
!877 = !{i64 872}
!878 = !{i64 873}
!879 = distinct !{!879, !123}
!880 = !{i64 874}
!881 = !{i64 875}
!882 = !{i64 876}
!883 = !{i64 877}
!884 = !{i64 878}
!885 = !{i64 879}
!886 = !{i64 880}
!887 = !{i64 881}
!888 = !{i64 882}
!889 = !{i64 883}
!890 = !{i64 884}
!891 = !{i64 885}
!892 = !{i64 886}
!893 = !{i64 887}
!894 = !{i64 888}
!895 = !{i64 889}
!896 = !{i64 890}
!897 = !{i64 891}
!898 = !{i64 892}
!899 = !{i64 893}
!900 = !{i64 894}
!901 = !{i64 895}
!902 = !{i64 896}
!903 = !{i64 897}
!904 = !{i64 898}
!905 = !{i64 899}
!906 = !{i64 900}
!907 = !{i64 901}
!908 = !{i64 902}
!909 = !{i64 903}
!910 = !{i64 904}
!911 = !{i64 905}
!912 = !{i64 906}
!913 = !{i64 907}
!914 = !{i64 908}
!915 = !{i64 909}
!916 = !{i64 910}
!917 = !{i64 911}
!918 = !{i64 912}
!919 = !{i64 913}
!920 = !{i64 914}
!921 = !{i64 915}
!922 = !{i64 916}
!923 = !{i64 917}
!924 = !{i64 918}
!925 = !{i64 919}
!926 = !{i64 920}
!927 = !{i64 921}
!928 = !{i64 922}
!929 = !{i64 923}
!930 = !{i64 924}
!931 = !{i64 925}
!932 = !{i64 926}
!933 = !{i64 927}
!934 = !{i64 928}
!935 = !{i64 929}
!936 = !{i64 930}
!937 = !{i64 931}
!938 = !{i64 932}
!939 = !{i64 933}
!940 = !{i64 934}
!941 = !{i64 935}
!942 = !{i64 936}
!943 = !{i64 937}
!944 = !{i64 938}
!945 = !{i64 939}
!946 = !{i64 940}
!947 = !{i64 941}
!948 = !{i64 942}
!949 = !{i64 943}
!950 = !{i64 944}
!951 = !{i64 945}
!952 = !{i64 946}
!953 = !{i64 947}
!954 = !{i64 948}
!955 = !{i64 949}
!956 = !{i64 950}
!957 = !{i64 951}
!958 = !{i64 952}
!959 = !{i64 953}
!960 = !{i64 954}
!961 = !{i64 955}
!962 = !{i64 956}
!963 = !{i64 957}
!964 = !{i64 958}
!965 = !{i64 959}
!966 = !{i64 960}
!967 = !{i64 961}
!968 = !{i64 962}
!969 = !{i64 963}
!970 = !{i64 964}
!971 = !{i64 965}
!972 = !{i64 966}
!973 = !{i64 967}
!974 = !{i64 968}
!975 = !{i64 969}
!976 = !{i64 970}
!977 = !{i64 971}
!978 = !{i64 972}
!979 = !{i64 973}
!980 = !{i64 974}
!981 = !{i64 975}
!982 = !{i64 976}
!983 = !{i64 977}
!984 = !{i64 978}
!985 = !{i64 979}
!986 = !{i64 980}
!987 = !{i64 981}
!988 = !{i64 982}
!989 = !{i64 983}
!990 = !{i64 984}
!991 = !{i64 985}
!992 = !{i64 986}
!993 = !{i64 987}
!994 = !{i64 988}
!995 = !{i64 989}
!996 = !{i64 990}
!997 = !{i64 991}
!998 = !{i64 992}
!999 = !{i64 993}
!1000 = !{i64 994}
!1001 = !{i64 995}
!1002 = !{i64 996}
!1003 = !{i64 997}
!1004 = !{i64 998}
!1005 = !{i64 999}
!1006 = !{i64 1000}
!1007 = !{i64 1001}
!1008 = !{i64 1002}
!1009 = !{i64 1003}
!1010 = !{i64 1004}
!1011 = !{i64 1005}
!1012 = !{i64 1006}
!1013 = !{i64 1007}
!1014 = !{i64 1008}
!1015 = !{i64 1009}
!1016 = !{i64 1010}
!1017 = !{i64 1011}
!1018 = !{i64 1012}
!1019 = !{i64 1013}
!1020 = !{i64 1014}
!1021 = !{i64 1015}
!1022 = !{i64 1016}
!1023 = !{i64 1017}
!1024 = !{i64 1018}
!1025 = !{i64 1019}
!1026 = !{i64 1020}
!1027 = !{i64 1021}
!1028 = !{i64 1022}
!1029 = !{i64 1023}
!1030 = !{i64 1024}
!1031 = !{i64 1025}
!1032 = !{i64 1026}
!1033 = !{i64 1027}
!1034 = !{i64 1028}
!1035 = !{i64 1029}
!1036 = !{i64 1030}
!1037 = !{i64 1031}
!1038 = !{i64 1032}
!1039 = !{i64 1033}
!1040 = !{i64 1034}
!1041 = !{i64 1035}
!1042 = !{i64 1036}
!1043 = !{i64 1037}
!1044 = !{i64 1038}
!1045 = !{i64 1039}
!1046 = !{i64 1040}
!1047 = !{i64 1041}
!1048 = !{i64 1042}
!1049 = !{i64 1043}
!1050 = !{i64 1044}
!1051 = !{i64 1045}
!1052 = !{i64 1046}
!1053 = !{i64 1047}
!1054 = !{i64 1048}
!1055 = !{i64 1049}
!1056 = !{i64 1050}
!1057 = !{i64 1051}
!1058 = !{i64 1052}
!1059 = !{i64 1053}
!1060 = !{i64 1054}
!1061 = !{i64 1055}
!1062 = !{i64 1056}
!1063 = !{i64 1057}
!1064 = !{i64 1058}
!1065 = !{i64 1059}
!1066 = !{i64 1060}
!1067 = !{i64 1061}
!1068 = !{i64 1062}
!1069 = !{i64 1063}
!1070 = !{i64 1064}
!1071 = !{i64 1065}
!1072 = !{i64 1066}
!1073 = !{i64 1067}
!1074 = !{i64 1068}
!1075 = !{i64 1069}
!1076 = !{i64 1070}
!1077 = !{i64 1071}
!1078 = !{i64 1072}
!1079 = !{i64 1073}
!1080 = !{i64 1074}
!1081 = !{i64 1075}
!1082 = !{i64 1076}
!1083 = !{i64 1077}
!1084 = !{i64 1078}
!1085 = !{i64 1079}
!1086 = !{i64 1080}
!1087 = !{i64 1081}
!1088 = !{i64 1082}
!1089 = !{i64 1083}
!1090 = !{i64 1084}
!1091 = !{i64 1085}
!1092 = !{i64 1086}
!1093 = !{i64 1087}
!1094 = !{i64 1088}
!1095 = !{i64 1089}
!1096 = !{i64 1090}
!1097 = !{i64 1091}
!1098 = !{i64 1092}
!1099 = !{i64 1093}
!1100 = !{i64 1094}
!1101 = !{i64 1095}
!1102 = !{i64 1096}
!1103 = !{i64 1097}
!1104 = !{i64 1098}
!1105 = !{i64 1099}
!1106 = !{i64 1100}
!1107 = !{i64 1101}
!1108 = !{i64 1102}
!1109 = !{i64 1103}
!1110 = !{i64 1104}
!1111 = !{i64 1105}
!1112 = !{i64 1106}
!1113 = !{i64 1107}
!1114 = !{i64 1108}
!1115 = !{i64 1109}
!1116 = !{i64 1110}
!1117 = !{i64 1111}
!1118 = !{i64 1112}
!1119 = !{i64 1113}
!1120 = !{i64 1114}
!1121 = !{i64 1115}
!1122 = distinct !{!1122, !123}
!1123 = !{i64 1116}
!1124 = !{i64 1117}
!1125 = distinct !{!1125, !123}
!1126 = !{i64 1118}
!1127 = !{i64 1119}
!1128 = !{i64 1120}
!1129 = !{i64 1121}
!1130 = !{i64 1122}
!1131 = !{i64 1123}
!1132 = !{i64 1124}
!1133 = !{i64 1125}
!1134 = !{i64 1126}
!1135 = !{i64 1127}
!1136 = !{i64 1128}
!1137 = !{i64 1129}
!1138 = !{i64 1130}
!1139 = !{i64 1131}
!1140 = !{i64 1132}
!1141 = !{i64 1133}
!1142 = !{i64 1134}
!1143 = !{i64 1135}
!1144 = !{i64 1136}
!1145 = !{i64 1137}
!1146 = !{i64 1138}
!1147 = !{i64 1139}
!1148 = !{i64 1140}
!1149 = !{i64 1141}
!1150 = !{i64 1142}
!1151 = !{i64 1143}
!1152 = !{i64 1144}
!1153 = !{i64 1145}
!1154 = !{i64 1146}
!1155 = !{i64 1147}
!1156 = !{i64 1148}
!1157 = !{i64 1149}
!1158 = !{i64 1150}
!1159 = !{i64 1151}
!1160 = !{i64 1152}
!1161 = !{i64 1153}
!1162 = !{i64 1154}
!1163 = !{i64 1155}
!1164 = !{i64 1156}
!1165 = !{i64 1157}
!1166 = !{i64 1158}
!1167 = !{i64 1159}
!1168 = !{i64 1160}
!1169 = !{i64 1161}
!1170 = !{i64 1162}
!1171 = !{i64 1163}
!1172 = !{i64 1164}
!1173 = !{i64 1165}
!1174 = !{i64 1166}
!1175 = !{i64 1167}
!1176 = !{i64 1168}
!1177 = !{i64 1169}
!1178 = !{i64 1170}
!1179 = !{i64 1171}
!1180 = !{i64 1172}
!1181 = !{i64 1173}
!1182 = !{i64 1174}
!1183 = !{i64 1175}
!1184 = !{i64 1176}
!1185 = !{i64 1177}
!1186 = !{i64 1178}
!1187 = !{i64 1179}
!1188 = !{i64 1180}
!1189 = !{i64 1181}
!1190 = !{i64 1182}
!1191 = !{i64 1183}
!1192 = !{i64 1184}
!1193 = !{i64 1185}
!1194 = !{i64 1186}
!1195 = !{i64 1187}
!1196 = !{i64 1188}
!1197 = !{i64 1189}
!1198 = !{i64 1190}
!1199 = !{i64 1191}
!1200 = !{i64 1192}
!1201 = !{i64 1193}
!1202 = !{i64 1194}
!1203 = !{i64 1195}
!1204 = !{i64 1196}
!1205 = !{i64 1197}
!1206 = !{i64 1198}
!1207 = !{i64 1199}
!1208 = !{i64 1200}
!1209 = !{i64 1201}
!1210 = !{i64 1202}
!1211 = !{i64 1203}
!1212 = !{i64 1204}
!1213 = !{i64 1205}
!1214 = !{i64 1206}
!1215 = !{i64 1207}
!1216 = !{i64 1208}
!1217 = !{i64 1209}
!1218 = !{i64 1210}
!1219 = !{i64 1211}
!1220 = !{i64 1212}
!1221 = !{i64 1213}
!1222 = !{i64 1214}
!1223 = !{i64 1215}
!1224 = !{i64 1216}
!1225 = !{i64 1217}
!1226 = !{i64 1218}
!1227 = !{i64 1219}
!1228 = !{i64 1220}
!1229 = !{i64 1221}
!1230 = !{i64 1222}
!1231 = !{i64 1223}
!1232 = !{i64 1224}
!1233 = !{i64 1225}
!1234 = !{i64 1226}
!1235 = !{i64 1227}
!1236 = !{i64 1228}
!1237 = !{i64 1229}
!1238 = !{i64 1230}
!1239 = !{i64 1231}
!1240 = !{i64 1232}
!1241 = !{i64 1233}
!1242 = !{i64 1234}
!1243 = !{i64 1235}
!1244 = !{i64 1236}
!1245 = !{i64 1237}
!1246 = !{i64 1238}
!1247 = !{i64 1239}
!1248 = !{i64 1240}
!1249 = !{i64 1241}
!1250 = !{i64 1242}
!1251 = !{i64 1243}
!1252 = !{i64 1244}
!1253 = !{i64 1245}
!1254 = !{i64 1246}
!1255 = !{i64 1247}
!1256 = !{i64 1248}
!1257 = !{i64 1249}
!1258 = !{i64 1250}
!1259 = !{i64 1251}
!1260 = !{i64 1252}
!1261 = !{i64 1253}
!1262 = !{i64 1254}
!1263 = !{i64 1255}
!1264 = !{i64 1256}
!1265 = !{i64 1257}
!1266 = !{i64 1258}
!1267 = !{i64 1259}
!1268 = !{i64 1260}
!1269 = !{i64 1261}
!1270 = !{i64 1262}
!1271 = !{i64 1263}
!1272 = !{i64 1264}
!1273 = !{i64 1265}
!1274 = !{i64 1266}
!1275 = !{i64 1267}
!1276 = !{i64 1268}
!1277 = !{i64 1269}
!1278 = !{i64 1270}
!1279 = !{i64 1271}
!1280 = !{i64 1272}
!1281 = !{i64 1273}
!1282 = !{i64 1274}
!1283 = !{i64 1275}
!1284 = !{i64 1276}
!1285 = !{i64 1277}
!1286 = !{i64 1278}
!1287 = !{i64 1279}
!1288 = !{i64 1280}
!1289 = !{i64 1281}
!1290 = !{i64 1282}
!1291 = !{i64 1283}
!1292 = !{i64 1284}
!1293 = !{i64 1285}
!1294 = !{i64 1286}
!1295 = !{i64 1287}
!1296 = !{i64 1288}
!1297 = !{i64 1289}
!1298 = !{i64 1290}
!1299 = !{i64 1291}
!1300 = !{i64 1292}
!1301 = !{i64 1293}
!1302 = !{i64 1294}
!1303 = !{i64 1295}
!1304 = !{i64 1296}
!1305 = !{i64 1297}
!1306 = distinct !{!1306, !123}
!1307 = !{i64 1298}
!1308 = !{i64 1299}
!1309 = !{i64 1300}
!1310 = !{i64 1301}
!1311 = !{i64 1302}
!1312 = !{i64 1303}
!1313 = !{i64 1304}
!1314 = !{i64 1305}
!1315 = !{i64 1306}
!1316 = !{i64 1307}
!1317 = !{i64 1308}
!1318 = !{i64 1309}
!1319 = !{i64 1310}
!1320 = !{i64 1311}
!1321 = !{i64 1312}
!1322 = !{i64 1313}
!1323 = !{i64 1314}
!1324 = !{i64 1315}
!1325 = !{i64 1316}
!1326 = !{i64 1317}
!1327 = !{i64 1318}
!1328 = !{i64 1319}
!1329 = !{i64 1320}
!1330 = !{i64 1321}
!1331 = !{i64 1322}
!1332 = !{i64 1323}
!1333 = !{i64 1324}
!1334 = !{i64 1325}
!1335 = !{i64 1326}
!1336 = !{i64 1327}
!1337 = !{i64 1328}
!1338 = !{i64 1329}
!1339 = !{i64 1330}
!1340 = !{i64 1331}
!1341 = !{i64 1332}
!1342 = !{i64 1333}
!1343 = !{i64 1334}
!1344 = !{i64 1335}
!1345 = !{i64 1336}
!1346 = !{i64 1337}
!1347 = !{i64 1338}
!1348 = !{i64 1339}
!1349 = !{i64 1340}
!1350 = !{i64 1341}
!1351 = !{i64 1342}
!1352 = !{i64 1343}
!1353 = !{i64 1344}
!1354 = !{i64 1345}
!1355 = !{i64 1346}
!1356 = !{i64 1347}
!1357 = !{i64 1348}
!1358 = !{i64 1349}
!1359 = !{i64 1350}
!1360 = !{i64 1351}
!1361 = !{i64 1352}
!1362 = !{i64 1353}
!1363 = !{i64 1354}
!1364 = !{i64 1355}
!1365 = !{i64 1356}
!1366 = !{i64 1357}
!1367 = !{i64 1358}
!1368 = !{i64 1359}
!1369 = !{i64 1360}
!1370 = !{i64 1361}
!1371 = !{i64 1362}
!1372 = !{i64 1363}
!1373 = !{i64 1364}
!1374 = !{i64 1365}
!1375 = !{i64 1366}
!1376 = !{i64 1367}
!1377 = !{i64 1368}
!1378 = !{i64 1369}
!1379 = !{i64 1370}
!1380 = !{i64 1371}
!1381 = !{i64 1372}
!1382 = !{i64 1373}
!1383 = !{i64 1374}
!1384 = !{i64 1375}
!1385 = !{i64 1376}
!1386 = !{i64 1377}
!1387 = !{i64 1378}
!1388 = !{i64 1379}
!1389 = !{i64 1380}
!1390 = !{i64 1381}
!1391 = !{i64 1382}
!1392 = !{i64 1383}
!1393 = !{i64 1384}
!1394 = !{i64 1385}
!1395 = !{i64 1386}
!1396 = !{i64 1387}
!1397 = !{i64 1388}
!1398 = !{i64 1389}
!1399 = distinct !{!1399, !123}
!1400 = !{i64 1390}
!1401 = !{i64 1391}
!1402 = !{i64 1392}
!1403 = !{i64 1393}
!1404 = !{i64 1394}
!1405 = !{i64 1395}
!1406 = !{i64 1396}
!1407 = !{i64 1397}
!1408 = !{i64 1398}
!1409 = !{i64 1399}
!1410 = !{i64 1400}
!1411 = !{i64 1401}
!1412 = !{i64 1402}
!1413 = !{i64 1403}
!1414 = !{i64 1404}
!1415 = !{i64 1405}
!1416 = !{i64 1406}
!1417 = !{i64 1407}
!1418 = !{i64 1408}
!1419 = !{i64 1409}
!1420 = !{i64 1410}
!1421 = !{i64 1411}
!1422 = !{i64 1412}
!1423 = !{i64 1413}
!1424 = !{i64 1414}
!1425 = !{i64 1415}
!1426 = !{i64 1416}
!1427 = !{i64 1417}
!1428 = !{i64 1418}
!1429 = !{i64 1419}
!1430 = !{i64 1420}
!1431 = !{i64 1421}
!1432 = !{i64 1422}
!1433 = !{i64 1423}
!1434 = !{i64 1424}
!1435 = !{i64 1425}
!1436 = !{i64 1426}
!1437 = !{i64 1427}
!1438 = !{i64 1428}
!1439 = !{i64 1429}
!1440 = !{i64 1430}
!1441 = !{i64 1431}
!1442 = !{i64 1432}
!1443 = !{i64 1433}
!1444 = !{i64 1434}
!1445 = !{i64 1435}
!1446 = !{i64 1436}
!1447 = !{i64 1437}
!1448 = !{i64 1438}
!1449 = !{i64 1439}
!1450 = !{i64 1440}
!1451 = !{i64 1441}
!1452 = !{i64 1442}
!1453 = !{i64 1443}
!1454 = !{i64 1444}
!1455 = !{i64 1445}
!1456 = !{i64 1446}
!1457 = !{i64 1447}
!1458 = !{i64 1448}
!1459 = !{i64 1449}
!1460 = !{i64 1450}
!1461 = !{i64 1451}
!1462 = !{i64 1452}
!1463 = !{i64 1453}
!1464 = !{i64 1454}
!1465 = !{i64 1455}
!1466 = !{i64 1456}
!1467 = !{i64 1457}
!1468 = !{i64 1458}
!1469 = !{i64 1459}
!1470 = !{i64 1460}
!1471 = !{i64 1461}
!1472 = !{i64 1462}
!1473 = !{i64 1463}
!1474 = !{i64 1464}
!1475 = distinct !{!1475, !123}
!1476 = !{i64 1465}
!1477 = !{i64 1466}
!1478 = !{i64 1467}
!1479 = !{i64 1468}
!1480 = !{i64 1469}
!1481 = !{i64 1470}
!1482 = !{i64 1471}
!1483 = !{i64 1472}
!1484 = !{i64 1473}
!1485 = !{i64 1474}
!1486 = !{i64 1475}
!1487 = !{i64 1476}
!1488 = !{i64 1477}
!1489 = !{i64 1478}
!1490 = !{i64 1479}
!1491 = !{i64 1480}
!1492 = !{i64 1481}
!1493 = !{i64 1482}
!1494 = !{i64 1483}
!1495 = !{i64 1484}
!1496 = !{i64 1485}
!1497 = !{i64 1486}
!1498 = !{i64 1487}
!1499 = !{i64 1488}
!1500 = !{i64 1489}
!1501 = !{i64 1490}
!1502 = !{i64 1491}
!1503 = !{i64 1492}
!1504 = !{i64 1493}
!1505 = !{i64 1494}
!1506 = !{i64 1495}
!1507 = !{i64 1496}
!1508 = !{i64 1497}
!1509 = !{i64 1498}
!1510 = !{i64 1499}
!1511 = !{i64 1500}
!1512 = !{i64 1501}
!1513 = !{i64 1502}
!1514 = !{i64 1503}
!1515 = !{i64 1504}
!1516 = !{i64 1505}
!1517 = !{i64 1506}
!1518 = !{i64 1507}
!1519 = !{i64 1508}
!1520 = !{i64 1509}
!1521 = !{i64 1510}
!1522 = !{i64 1511}
!1523 = !{i64 1512}
!1524 = !{i64 1513}
!1525 = !{i64 1514}
!1526 = !{i64 1515}
!1527 = !{i64 1516}
!1528 = !{i64 1517}
!1529 = !{i64 1518}
!1530 = !{i64 1519}
!1531 = !{i64 1520}
!1532 = !{i64 1521}
!1533 = !{i64 1522}
!1534 = !{i64 1523}
!1535 = !{i64 1524}
!1536 = !{i64 1525}
!1537 = !{i64 1526}
!1538 = !{i64 1527}
!1539 = !{i64 1528}
!1540 = !{i64 1529}
!1541 = !{i64 1530}
!1542 = !{i64 1531}
!1543 = !{i64 1532}
!1544 = !{i64 1533}
!1545 = !{i64 1534}
!1546 = !{i64 1535}
!1547 = !{i64 1536}
!1548 = !{i64 1537}
!1549 = !{i64 1538}
!1550 = !{i64 1539}
!1551 = !{i64 1540}
!1552 = !{i64 1541}
!1553 = !{i64 1542}
!1554 = !{i64 1543}
!1555 = !{i64 1544}
!1556 = !{i64 1545}
!1557 = !{i64 1546}
!1558 = !{i64 1547}
!1559 = !{i64 1548}
!1560 = !{i64 1549}
!1561 = !{i64 1550}
!1562 = !{i64 1551}
!1563 = !{i64 1552}
!1564 = !{i64 1553}
!1565 = !{i64 1554}
!1566 = !{i64 1555}
!1567 = !{i64 1556}
!1568 = !{i64 1557}
!1569 = !{i64 1558}
!1570 = !{i64 1559}
!1571 = !{i64 1560}
!1572 = !{i64 1561}
!1573 = !{i64 1562}
!1574 = !{i64 1563}
!1575 = !{i64 1564}
!1576 = !{i64 1565}
!1577 = !{i64 1566}
!1578 = !{i64 1567}
!1579 = !{i64 1568}
!1580 = !{i64 1569}
!1581 = !{i64 1570}
!1582 = !{i64 1571}
!1583 = !{i64 1572}
!1584 = !{i64 1573}
!1585 = !{i64 1574}
!1586 = !{i64 1575}
!1587 = !{i64 1576}
!1588 = !{i64 1577}
!1589 = !{i64 1578}
!1590 = !{i64 1579}
!1591 = !{i64 1580}
!1592 = !{i64 1581}
!1593 = !{i64 1582}
!1594 = !{i64 1583}
!1595 = !{i64 1584}
!1596 = !{i64 1585}
!1597 = !{i64 1586}
!1598 = !{i64 1587}
!1599 = !{i64 1588}
!1600 = !{i64 1589}
!1601 = !{i64 1590}
!1602 = !{i64 1591}
!1603 = !{i64 1592}
!1604 = !{i64 1593}
!1605 = !{i64 1594}
!1606 = !{i64 1595}
!1607 = !{i64 1596}
!1608 = !{i64 1597}
!1609 = !{i64 1598}
!1610 = !{i64 1599}
!1611 = !{i64 1600}
!1612 = !{i64 1601}
!1613 = !{i64 1602}
!1614 = !{i64 1603}
!1615 = !{i64 1604}
!1616 = !{i64 1605}
!1617 = !{i64 1606}
!1618 = !{i64 1607}
!1619 = !{i64 1608}
!1620 = !{i64 1609}
!1621 = !{i64 1610}
!1622 = !{i64 1611}
!1623 = !{i64 1612}
!1624 = !{i64 1613}
!1625 = !{i64 1614}
!1626 = !{i64 1615}
!1627 = !{i64 1616}
!1628 = !{i64 1617}
!1629 = !{i64 1618}
!1630 = !{i64 1619}
!1631 = !{i64 1620}
!1632 = !{i64 1621}
!1633 = !{i64 1622}
!1634 = !{i64 1623}
!1635 = !{i64 1624}
!1636 = !{i64 1625}
!1637 = !{i64 1626}
!1638 = !{i64 1627}
!1639 = !{i64 1628}
!1640 = !{i64 1629}
!1641 = !{i64 1630}
!1642 = !{i64 1631}
!1643 = !{i64 1632}
!1644 = !{i64 1633}
!1645 = !{i64 1634}
!1646 = !{i64 1635}
!1647 = !{i64 1636}
!1648 = !{i64 1637}
!1649 = !{i64 1638}
!1650 = !{i64 1639}
!1651 = !{i64 1640}
!1652 = !{i64 1641}
!1653 = !{i64 1642}
!1654 = !{i64 1643}
!1655 = !{i64 1644}
!1656 = !{i64 1645}
!1657 = !{i64 1646}
!1658 = !{i64 1647}
!1659 = !{i64 1648}
!1660 = !{i64 1649}
!1661 = !{i64 1650}
!1662 = !{i64 1651}
!1663 = !{i64 1652}
!1664 = !{i64 1653}
!1665 = !{i64 1654}
!1666 = !{i64 1655}
!1667 = !{i64 1656}
!1668 = !{i64 1657}
!1669 = !{i64 1658}
!1670 = !{i64 1659}
!1671 = !{i64 1660}
!1672 = !{i64 1661}
!1673 = !{i64 1662}
!1674 = !{i64 1663}
!1675 = !{i64 1664}
!1676 = !{i64 1665}
!1677 = !{i64 1666}
!1678 = !{i64 1667}
!1679 = !{i64 1668}
!1680 = !{i64 1669}
!1681 = !{i64 1670}
!1682 = !{i64 1671}
!1683 = !{i64 1672}
!1684 = !{i64 1673}
!1685 = !{i64 1674}
!1686 = !{i64 1675}
!1687 = !{i64 1676}
!1688 = !{i64 1677}
!1689 = !{i64 1678}
!1690 = !{i64 1679}
!1691 = !{i64 1680}
!1692 = !{i64 1681}
!1693 = !{i64 1682}
!1694 = !{i64 1683}
!1695 = !{i64 1684}
!1696 = !{i64 1685}
!1697 = !{i64 1686}
!1698 = !{i64 1687}
