; ModuleID = '/home/hjiang/Computation-Kernel-Dataset/experiments/Fault_injection_0308_parall/O0/AngryChildrens/AngryChildrens.ll'
source_filename = "llvm-link"
target datalayout = "e-m:e-p270:32:32-p271:32:32-p272:64:64-i64:64-f80:128-n8:16:32:64-S128"
target triple = "x86_64-unknown-linux-gnu"

%"class.std::ios_base::Init" = type { i8 }
%struct._IO_FILE = type { i32, i8*, i8*, i8*, i8*, i8*, i8*, i8*, i8*, i8*, i8*, i8*, %struct._IO_marker*, %struct._IO_FILE*, i32, i32, i64, i16, i8, [1 x i8], i8*, i64, %struct._IO_codecvt*, %struct._IO_wide_data*, %struct._IO_FILE*, i8*, i64, i32, [20 x i8] }
%struct._IO_marker = type opaque
%struct._IO_codecvt = type opaque
%struct._IO_wide_data = type opaque

$_ZSt4sortIPxEvT_S1_ = comdat any

$_ZSt3minIxERKT_S2_S2_ = comdat any

$_ZN9__gnu_cxx5__ops16__iter_less_iterEv = comdat any

$_ZSt6__sortIPxN9__gnu_cxx5__ops15_Iter_less_iterEEvT_S4_T0_ = comdat any

$_ZSt4__lgl = comdat any

$_ZSt16__introsort_loopIPxlN9__gnu_cxx5__ops15_Iter_less_iterEEvT_S4_T0_T1_ = comdat any

$_ZSt22__final_insertion_sortIPxN9__gnu_cxx5__ops15_Iter_less_iterEEvT_S4_T0_ = comdat any

$_ZSt16__insertion_sortIPxN9__gnu_cxx5__ops15_Iter_less_iterEEvT_S4_T0_ = comdat any

$_ZSt26__unguarded_insertion_sortIPxN9__gnu_cxx5__ops15_Iter_less_iterEEvT_S4_T0_ = comdat any

$_ZN9__gnu_cxx5__ops15__val_comp_iterENS0_15_Iter_less_iterE = comdat any

$_ZSt25__unguarded_linear_insertIPxN9__gnu_cxx5__ops14_Val_less_iterEEvT_T0_ = comdat any

$_ZSt4moveIRxEONSt16remove_referenceIT_E4typeEOS2_ = comdat any

$_ZNK9__gnu_cxx5__ops14_Val_less_iterclIxPxEEbRT_T0_ = comdat any

$_ZNK9__gnu_cxx5__ops15_Iter_less_iterclIPxS3_EEbT_T0_ = comdat any

$_ZSt13move_backwardIPxS0_ET0_T_S2_S1_ = comdat any

$_ZSt12__miter_baseIPxET_S1_ = comdat any

$_ZSt23__copy_move_backward_a2ILb1EPxS0_ET1_T0_S2_S1_ = comdat any

$_ZSt12__niter_baseIPxET_S1_ = comdat any

$_ZSt22__copy_move_backward_aILb1EPxS0_ET1_T0_S2_S1_ = comdat any

$_ZSt12__niter_wrapIPxET_RKS1_S1_ = comdat any

$_ZNSt20__copy_move_backwardILb1ELb1ESt26random_access_iterator_tagE13__copy_move_bIxEEPT_PKS3_S6_S4_ = comdat any

$_ZSt14__partial_sortIPxN9__gnu_cxx5__ops15_Iter_less_iterEEvT_S4_S4_T0_ = comdat any

$_ZSt27__unguarded_partition_pivotIPxN9__gnu_cxx5__ops15_Iter_less_iterEET_S4_S4_T0_ = comdat any

$_ZSt22__move_median_to_firstIPxN9__gnu_cxx5__ops15_Iter_less_iterEEvT_S4_S4_S4_T0_ = comdat any

$_ZSt21__unguarded_partitionIPxN9__gnu_cxx5__ops15_Iter_less_iterEET_S4_S4_S4_T0_ = comdat any

$_ZSt9iter_swapIPxS0_EvT_T0_ = comdat any

$_ZSt4swapIxENSt9enable_ifIXsr6__and_ISt6__not_ISt15__is_tuple_likeIT_EESt21is_move_constructibleIS3_ESt18is_move_assignableIS3_EEE5valueEvE4typeERS3_SC_ = comdat any

$_ZSt13__heap_selectIPxN9__gnu_cxx5__ops15_Iter_less_iterEEvT_S4_S4_T0_ = comdat any

$_ZSt11__sort_heapIPxN9__gnu_cxx5__ops15_Iter_less_iterEEvT_S4_RT0_ = comdat any

$_ZSt10__pop_heapIPxN9__gnu_cxx5__ops15_Iter_less_iterEEvT_S4_S4_RT0_ = comdat any

$_ZSt13__adjust_heapIPxlxN9__gnu_cxx5__ops15_Iter_less_iterEEvT_T0_S5_T1_T2_ = comdat any

$_ZSt4moveIRN9__gnu_cxx5__ops15_Iter_less_iterEEONSt16remove_referenceIT_E4typeEOS5_ = comdat any

$_ZN9__gnu_cxx5__ops14_Iter_less_valC2ENS0_15_Iter_less_iterE = comdat any

$_ZSt11__push_heapIPxlxN9__gnu_cxx5__ops14_Iter_less_valEEvT_T0_S5_T1_RT2_ = comdat any

$_ZNK9__gnu_cxx5__ops14_Iter_less_valclIPxxEEbT_RT0_ = comdat any

$_ZSt11__make_heapIPxN9__gnu_cxx5__ops15_Iter_less_iterEEvT_S4_RT0_ = comdat any

@llvm.global_ctors = appending global [1 x { i32, void ()*, i8* }] [{ i32, void ()*, i8* } { i32 65535, void ()* @_GLOBAL__sub_I_AngryChildrens.cpp, i8* null }]
@_ZStL8__ioinit = internal global %"class.std::ios_base::Init" zeroinitializer, align 1
@a = dso_local global [100005 x i64] zeroinitializer, align 16
@sum = dso_local global [100005 x i64] zeroinitializer, align 16
@.str = private unnamed_addr constant [30 x i8] c"../input_files/AngryChildrens\00", align 1
@.str.1 = private unnamed_addr constant [2 x i8] c"r\00", align 1
@stdin = external dso_local global %struct._IO_FILE*, align 8
@.str.2 = private unnamed_addr constant [6 x i8] c"%i %i\00", align 1
@.str.3 = private unnamed_addr constant [5 x i8] c"%lld\00", align 1
@.str.4 = private unnamed_addr constant [6 x i8] c"%lld\0A\00", align 1

; Function Attrs: noinline uwtable
define internal void @_GLOBAL__sub_I_AngryChildrens.cpp() #0 section ".text.startup" {
  call void @__cxx_global_var_init(), !llfi_index !4
  ret void, !llfi_index !5
}

; Function Attrs: noinline uwtable
define internal void @__cxx_global_var_init() #0 section ".text.startup" {
  call void @_ZNSt8ios_base4InitC1Ev(%"class.std::ios_base::Init"* nonnull align 1 dereferenceable(1) @_ZStL8__ioinit), !llfi_index !6
  %1 = call i32 @atexit(void ()* @__dtor__ZStL8__ioinit) #2, !llfi_index !7
  ret void, !llfi_index !8
}

declare dso_local void @_ZNSt8ios_base4InitC1Ev(%"class.std::ios_base::Init"* nonnull align 1 dereferenceable(1)) unnamed_addr #1

; Function Attrs: noinline uwtable
define internal void @__dtor__ZStL8__ioinit() #0 section ".text.startup" {
  call void @_ZNSt8ios_base4InitD1Ev(%"class.std::ios_base::Init"* @_ZStL8__ioinit), !llfi_index !9
  ret void, !llfi_index !10
}

; Function Attrs: nounwind
declare dso_local i32 @atexit(void ()*) #2

; Function Attrs: nounwind
declare dso_local void @_ZNSt8ios_base4InitD1Ev(%"class.std::ios_base::Init"* nonnull align 1 dereferenceable(1)) unnamed_addr #3

; Function Attrs: mustprogress noinline nounwind uwtable
define dso_local i64 @_Z1sii(i32 %0, i32 %1) #4 {
  %3 = alloca i32, align 4, !llfi_index !11
  %4 = alloca i32, align 4, !llfi_index !12
  store i32 %0, i32* %3, align 4, !llfi_index !13
  store i32 %1, i32* %4, align 4, !llfi_index !14
  %5 = load i32, i32* %4, align 4, !llfi_index !15
  %6 = sext i32 %5 to i64, !llfi_index !16
  %7 = getelementptr inbounds [100005 x i64], [100005 x i64]* @sum, i64 0, i64 %6, !llfi_index !17
  %8 = load i64, i64* %7, align 8, !llfi_index !18
  %9 = load i32, i32* %3, align 4, !llfi_index !19
  %10 = icmp ne i32 %9, 0, !llfi_index !20
  br i1 %10, label %11, label %17, !llfi_index !21

11:                                               ; preds = %2
  %12 = load i32, i32* %3, align 4, !llfi_index !22
  %13 = sub nsw i32 %12, 1, !llfi_index !23
  %14 = sext i32 %13 to i64, !llfi_index !24
  %15 = getelementptr inbounds [100005 x i64], [100005 x i64]* @sum, i64 0, i64 %14, !llfi_index !25
  %16 = load i64, i64* %15, align 8, !llfi_index !26
  br label %18, !llfi_index !27

17:                                               ; preds = %2
  br label %18, !llfi_index !28

18:                                               ; preds = %17, %11
  %19 = phi i64 [ %16, %11 ], [ 0, %17 ], !llfi_index !29
  %20 = sub nsw i64 %8, %19, !llfi_index !30
  ret i64 %20, !llfi_index !31
}

; Function Attrs: mustprogress noinline norecurse uwtable
define dso_local i32 @main() #5 {
  %1 = alloca i32, align 4, !llfi_index !32
  %2 = alloca i32, align 4, !llfi_index !33
  %3 = alloca i32, align 4, !llfi_index !34
  %4 = alloca i32, align 4, !llfi_index !35
  %5 = alloca i32, align 4, !llfi_index !36
  %6 = alloca i64, align 8, !llfi_index !37
  %7 = alloca i32, align 4, !llfi_index !38
  %8 = alloca i64, align 8, !llfi_index !39
  %9 = alloca i32, align 4, !llfi_index !40
  %10 = alloca i64, align 8, !llfi_index !41
  store i32 0, i32* %1, align 4, !llfi_index !42
  %11 = load %struct._IO_FILE*, %struct._IO_FILE** @stdin, align 8, !llfi_index !43
  %12 = call %struct._IO_FILE* @freopen(i8* getelementptr inbounds ([30 x i8], [30 x i8]* @.str, i64 0, i64 0), i8* getelementptr inbounds ([2 x i8], [2 x i8]* @.str.1, i64 0, i64 0), %struct._IO_FILE* %11), !llfi_index !44
  %13 = call i32 (i8*, ...) @__isoc99_scanf(i8* getelementptr inbounds ([6 x i8], [6 x i8]* @.str.2, i64 0, i64 0), i32* %2, i32* %3), !llfi_index !45
  store i32 0, i32* %4, align 4, !llfi_index !46
  br label %14, !llfi_index !47

14:                                               ; preds = %23, %0
  %15 = load i32, i32* %4, align 4, !llfi_index !48
  %16 = load i32, i32* %2, align 4, !llfi_index !49
  %17 = icmp slt i32 %15, %16, !llfi_index !50
  br i1 %17, label %18, label %26, !llfi_index !51

18:                                               ; preds = %14
  %19 = load i32, i32* %4, align 4, !llfi_index !52
  %20 = sext i32 %19 to i64, !llfi_index !53
  %21 = getelementptr inbounds [100005 x i64], [100005 x i64]* @a, i64 0, i64 %20, !llfi_index !54
  %22 = call i32 (i8*, ...) @__isoc99_scanf(i8* getelementptr inbounds ([5 x i8], [5 x i8]* @.str.3, i64 0, i64 0), i64* %21), !llfi_index !55
  br label %23, !llfi_index !56

23:                                               ; preds = %18
  %24 = load i32, i32* %4, align 4, !llfi_index !57
  %25 = add nsw i32 %24, 1, !llfi_index !58
  store i32 %25, i32* %4, align 4, !llfi_index !59
  br label %14, !llvm.loop !60, !llfi_index !62

26:                                               ; preds = %14
  %27 = load i32, i32* %2, align 4, !llfi_index !63
  %28 = sext i32 %27 to i64, !llfi_index !64
  %29 = getelementptr inbounds i64, i64* getelementptr inbounds ([100005 x i64], [100005 x i64]* @a, i64 0, i64 0), i64 %28, !llfi_index !65
  call void @_ZSt4sortIPxEvT_S1_(i64* getelementptr inbounds ([100005 x i64], [100005 x i64]* @a, i64 0, i64 0), i64* %29), !llfi_index !66
  %30 = load i64, i64* getelementptr inbounds ([100005 x i64], [100005 x i64]* @a, i64 0, i64 0), align 16, !llfi_index !67
  store i64 %30, i64* getelementptr inbounds ([100005 x i64], [100005 x i64]* @sum, i64 0, i64 0), align 16, !llfi_index !68
  store i32 1, i32* %5, align 4, !llfi_index !69
  br label %31, !llfi_index !70

31:                                               ; preds = %49, %26
  %32 = load i32, i32* %5, align 4, !llfi_index !71
  %33 = load i32, i32* %2, align 4, !llfi_index !72
  %34 = icmp slt i32 %32, %33, !llfi_index !73
  br i1 %34, label %35, label %52, !llfi_index !74

35:                                               ; preds = %31
  %36 = load i32, i32* %5, align 4, !llfi_index !75
  %37 = sub nsw i32 %36, 1, !llfi_index !76
  %38 = sext i32 %37 to i64, !llfi_index !77
  %39 = getelementptr inbounds [100005 x i64], [100005 x i64]* @sum, i64 0, i64 %38, !llfi_index !78
  %40 = load i64, i64* %39, align 8, !llfi_index !79
  %41 = load i32, i32* %5, align 4, !llfi_index !80
  %42 = sext i32 %41 to i64, !llfi_index !81
  %43 = getelementptr inbounds [100005 x i64], [100005 x i64]* @a, i64 0, i64 %42, !llfi_index !82
  %44 = load i64, i64* %43, align 8, !llfi_index !83
  %45 = add nsw i64 %40, %44, !llfi_index !84
  %46 = load i32, i32* %5, align 4, !llfi_index !85
  %47 = sext i32 %46 to i64, !llfi_index !86
  %48 = getelementptr inbounds [100005 x i64], [100005 x i64]* @sum, i64 0, i64 %47, !llfi_index !87
  store i64 %45, i64* %48, align 8, !llfi_index !88
  br label %49, !llfi_index !89

49:                                               ; preds = %35
  %50 = load i32, i32* %5, align 4, !llfi_index !90
  %51 = add nsw i32 %50, 1, !llfi_index !91
  store i32 %51, i32* %5, align 4, !llfi_index !92
  br label %31, !llvm.loop !93, !llfi_index !94

52:                                               ; preds = %31
  store i64 0, i64* %6, align 8, !llfi_index !95
  store i32 0, i32* %7, align 4, !llfi_index !96
  br label %53, !llfi_index !97

53:                                               ; preds = %69, %52
  %54 = load i32, i32* %7, align 4, !llfi_index !98
  %55 = load i32, i32* %3, align 4, !llfi_index !99
  %56 = icmp slt i32 %54, %55, !llfi_index !100
  br i1 %56, label %57, label %72, !llfi_index !101

57:                                               ; preds = %53
  %58 = load i32, i32* %7, align 4, !llfi_index !102
  %59 = mul nsw i32 2, %58, !llfi_index !103
  %60 = add nsw i32 %59, 1, !llfi_index !104
  %61 = sext i32 %60 to i64, !llfi_index !105
  %62 = load i32, i32* %7, align 4, !llfi_index !106
  %63 = sext i32 %62 to i64, !llfi_index !107
  %64 = getelementptr inbounds [100005 x i64], [100005 x i64]* @a, i64 0, i64 %63, !llfi_index !108
  %65 = load i64, i64* %64, align 8, !llfi_index !109
  %66 = mul nsw i64 %61, %65, !llfi_index !110
  %67 = load i64, i64* %6, align 8, !llfi_index !111
  %68 = add nsw i64 %67, %66, !llfi_index !112
  store i64 %68, i64* %6, align 8, !llfi_index !113
  br label %69, !llfi_index !114

69:                                               ; preds = %57
  %70 = load i32, i32* %7, align 4, !llfi_index !115
  %71 = add nsw i32 %70, 1, !llfi_index !116
  store i32 %71, i32* %7, align 4, !llfi_index !117
  br label %53, !llvm.loop !118, !llfi_index !119

72:                                               ; preds = %53
  %73 = load i64, i64* %6, align 8, !llfi_index !120
  store i64 %73, i64* %8, align 8, !llfi_index !121
  store i32 0, i32* %9, align 4, !llfi_index !122
  br label %74, !llfi_index !123

74:                                               ; preds = %123, %72
  %75 = load i32, i32* %9, align 4, !llfi_index !124
  %76 = load i32, i32* %3, align 4, !llfi_index !125
  %77 = add nsw i32 %75, %76, !llfi_index !126
  %78 = sub nsw i32 %77, 1, !llfi_index !127
  %79 = load i32, i32* %2, align 4, !llfi_index !128
  %80 = icmp slt i32 %78, %79, !llfi_index !129
  br i1 %80, label %81, label %126, !llfi_index !130

81:                                               ; preds = %74
  %82 = load i64, i64* %6, align 8, !llfi_index !131
  %83 = load i32, i32* %3, align 4, !llfi_index !132
  %84 = sext i32 %83 to i64, !llfi_index !133
  %85 = load i32, i32* %9, align 4, !llfi_index !134
  %86 = load i32, i32* %9, align 4, !llfi_index !135
  %87 = load i32, i32* %3, align 4, !llfi_index !136
  %88 = add nsw i32 %86, %87, !llfi_index !137
  %89 = sub nsw i32 %88, 1, !llfi_index !138
  %90 = call i64 @_Z1sii(i32 %85, i32 %89), !llfi_index !139
  %91 = mul nsw i64 %84, %90, !llfi_index !140
  %92 = sub nsw i64 %82, %91, !llfi_index !141
  store i64 %92, i64* %10, align 8, !llfi_index !142
  %93 = call nonnull align 8 dereferenceable(8) i64* @_ZSt3minIxERKT_S2_S2_(i64* nonnull align 8 dereferenceable(8) %8, i64* nonnull align 8 dereferenceable(8) %10), !llfi_index !143
  %94 = load i64, i64* %93, align 8, !llfi_index !144
  store i64 %94, i64* %8, align 8, !llfi_index !145
  %95 = load i32, i32* %9, align 4, !llfi_index !146
  %96 = sext i32 %95 to i64, !llfi_index !147
  %97 = getelementptr inbounds [100005 x i64], [100005 x i64]* @a, i64 0, i64 %96, !llfi_index !148
  %98 = load i64, i64* %97, align 8, !llfi_index !149
  %99 = load i32, i32* %9, align 4, !llfi_index !150
  %100 = add nsw i32 %99, 1, !llfi_index !151
  %101 = load i32, i32* %9, align 4, !llfi_index !152
  %102 = load i32, i32* %3, align 4, !llfi_index !153
  %103 = add nsw i32 %101, %102, !llfi_index !154
  %104 = sub nsw i32 %103, 1, !llfi_index !155
  %105 = call i64 @_Z1sii(i32 %100, i32 %104), !llfi_index !156
  %106 = mul nsw i64 2, %105, !llfi_index !157
  %107 = add nsw i64 %98, %106, !llfi_index !158
  %108 = load i64, i64* %6, align 8, !llfi_index !159
  %109 = sub nsw i64 %108, %107, !llfi_index !160
  store i64 %109, i64* %6, align 8, !llfi_index !161
  %110 = load i32, i32* %3, align 4, !llfi_index !162
  %111 = mul nsw i32 2, %110, !llfi_index !163
  %112 = sub nsw i32 %111, 1, !llfi_index !164
  %113 = sext i32 %112 to i64, !llfi_index !165
  %114 = load i32, i32* %9, align 4, !llfi_index !166
  %115 = load i32, i32* %3, align 4, !llfi_index !167
  %116 = add nsw i32 %114, %115, !llfi_index !168
  %117 = sext i32 %116 to i64, !llfi_index !169
  %118 = getelementptr inbounds [100005 x i64], [100005 x i64]* @a, i64 0, i64 %117, !llfi_index !170
  %119 = load i64, i64* %118, align 8, !llfi_index !171
  %120 = mul nsw i64 %113, %119, !llfi_index !172
  %121 = load i64, i64* %6, align 8, !llfi_index !173
  %122 = add nsw i64 %121, %120, !llfi_index !174
  store i64 %122, i64* %6, align 8, !llfi_index !175
  br label %123, !llfi_index !176

123:                                              ; preds = %81
  %124 = load i32, i32* %9, align 4, !llfi_index !177
  %125 = add nsw i32 %124, 1, !llfi_index !178
  store i32 %125, i32* %9, align 4, !llfi_index !179
  br label %74, !llvm.loop !180, !llfi_index !181

126:                                              ; preds = %74
  %127 = load i64, i64* %8, align 8, !llfi_index !182
  %128 = call i32 (i8*, ...) @printf(i8* getelementptr inbounds ([6 x i8], [6 x i8]* @.str.4, i64 0, i64 0), i64 %127), !llfi_index !183
  ret i32 0, !llfi_index !184
}

declare dso_local %struct._IO_FILE* @freopen(i8*, i8*, %struct._IO_FILE*) #1

declare dso_local i32 @__isoc99_scanf(i8*, ...) #1

; Function Attrs: mustprogress noinline uwtable
define linkonce_odr dso_local void @_ZSt4sortIPxEvT_S1_(i64* %0, i64* %1) #6 comdat {
  %3 = alloca i64*, align 8, !llfi_index !185
  %4 = alloca i64*, align 8, !llfi_index !186
  %5 = alloca %"class.std::ios_base::Init", align 1, !llfi_index !187
  %6 = alloca %"class.std::ios_base::Init", align 1, !llfi_index !188
  store i64* %0, i64** %3, align 8, !llfi_index !189
  store i64* %1, i64** %4, align 8, !llfi_index !190
  %7 = load i64*, i64** %3, align 8, !llfi_index !191
  %8 = load i64*, i64** %4, align 8, !llfi_index !192
  call void @_ZN9__gnu_cxx5__ops16__iter_less_iterEv(), !llfi_index !193
  call void @_ZSt6__sortIPxN9__gnu_cxx5__ops15_Iter_less_iterEEvT_S4_T0_(i64* %7, i64* %8), !llfi_index !194
  ret void, !llfi_index !195
}

; Function Attrs: mustprogress noinline nounwind uwtable
define linkonce_odr dso_local nonnull align 8 dereferenceable(8) i64* @_ZSt3minIxERKT_S2_S2_(i64* nonnull align 8 dereferenceable(8) %0, i64* nonnull align 8 dereferenceable(8) %1) #4 comdat {
  %3 = alloca i64*, align 8, !llfi_index !196
  %4 = alloca i64*, align 8, !llfi_index !197
  %5 = alloca i64*, align 8, !llfi_index !198
  store i64* %0, i64** %4, align 8, !llfi_index !199
  store i64* %1, i64** %5, align 8, !llfi_index !200
  %6 = load i64*, i64** %5, align 8, !llfi_index !201
  %7 = load i64, i64* %6, align 8, !llfi_index !202
  %8 = load i64*, i64** %4, align 8, !llfi_index !203
  %9 = load i64, i64* %8, align 8, !llfi_index !204
  %10 = icmp slt i64 %7, %9, !llfi_index !205
  br i1 %10, label %11, label %13, !llfi_index !206

11:                                               ; preds = %2
  %12 = load i64*, i64** %5, align 8, !llfi_index !207
  store i64* %12, i64** %3, align 8, !llfi_index !208
  br label %15, !llfi_index !209

13:                                               ; preds = %2
  %14 = load i64*, i64** %4, align 8, !llfi_index !210
  store i64* %14, i64** %3, align 8, !llfi_index !211
  br label %15, !llfi_index !212

15:                                               ; preds = %13, %11
  %16 = load i64*, i64** %3, align 8, !llfi_index !213
  ret i64* %16, !llfi_index !214
}

declare dso_local i32 @printf(i8*, ...) #1

; Function Attrs: mustprogress noinline nounwind uwtable
define linkonce_odr dso_local void @_ZN9__gnu_cxx5__ops16__iter_less_iterEv() #4 comdat {
  ret void, !llfi_index !215
}

; Function Attrs: mustprogress noinline uwtable
define linkonce_odr dso_local void @_ZSt6__sortIPxN9__gnu_cxx5__ops15_Iter_less_iterEEvT_S4_T0_(i64* %0, i64* %1) #6 comdat {
  %3 = alloca %"class.std::ios_base::Init", align 1, !llfi_index !216
  %4 = alloca i64*, align 8, !llfi_index !217
  %5 = alloca i64*, align 8, !llfi_index !218
  %6 = alloca %"class.std::ios_base::Init", align 1, !llfi_index !219
  %7 = alloca %"class.std::ios_base::Init", align 1, !llfi_index !220
  store i64* %0, i64** %4, align 8, !llfi_index !221
  store i64* %1, i64** %5, align 8, !llfi_index !222
  %8 = load i64*, i64** %4, align 8, !llfi_index !223
  %9 = load i64*, i64** %5, align 8, !llfi_index !224
  %10 = icmp ne i64* %8, %9, !llfi_index !225
  br i1 %10, label %11, label %24, !llfi_index !226

11:                                               ; preds = %2
  %12 = load i64*, i64** %4, align 8, !llfi_index !227
  %13 = load i64*, i64** %5, align 8, !llfi_index !228
  %14 = load i64*, i64** %5, align 8, !llfi_index !229
  %15 = load i64*, i64** %4, align 8, !llfi_index !230
  %16 = ptrtoint i64* %14 to i64, !llfi_index !231
  %17 = ptrtoint i64* %15 to i64, !llfi_index !232
  %18 = sub i64 %16, %17, !llfi_index !233
  %19 = sdiv exact i64 %18, 8, !llfi_index !234
  %20 = call i64 @_ZSt4__lgl(i64 %19), !llfi_index !235
  %21 = mul nsw i64 %20, 2, !llfi_index !236
  call void @_ZSt16__introsort_loopIPxlN9__gnu_cxx5__ops15_Iter_less_iterEEvT_S4_T0_T1_(i64* %12, i64* %13, i64 %21), !llfi_index !237
  %22 = load i64*, i64** %4, align 8, !llfi_index !238
  %23 = load i64*, i64** %5, align 8, !llfi_index !239
  call void @_ZSt22__final_insertion_sortIPxN9__gnu_cxx5__ops15_Iter_less_iterEEvT_S4_T0_(i64* %22, i64* %23), !llfi_index !240
  br label %24, !llfi_index !241

24:                                               ; preds = %11, %2
  ret void, !llfi_index !242
}

; Function Attrs: mustprogress noinline nounwind uwtable
define linkonce_odr dso_local i64 @_ZSt4__lgl(i64 %0) #4 comdat {
  %2 = alloca i64, align 8, !llfi_index !243
  store i64 %0, i64* %2, align 8, !llfi_index !244
  %3 = load i64, i64* %2, align 8, !llfi_index !245
  %4 = call i64 @llvm.ctlz.i64(i64 %3, i1 true), !llfi_index !246
  %5 = trunc i64 %4 to i32, !llfi_index !247
  %6 = sub nsw i32 63, %5, !llfi_index !248
  %7 = sext i32 %6 to i64, !llfi_index !249
  ret i64 %7, !llfi_index !250
}

; Function Attrs: mustprogress noinline uwtable
define linkonce_odr dso_local void @_ZSt16__introsort_loopIPxlN9__gnu_cxx5__ops15_Iter_less_iterEEvT_S4_T0_T1_(i64* %0, i64* %1, i64 %2) #6 comdat {
  %4 = alloca %"class.std::ios_base::Init", align 1, !llfi_index !251
  %5 = alloca i64*, align 8, !llfi_index !252
  %6 = alloca i64*, align 8, !llfi_index !253
  %7 = alloca i64, align 8, !llfi_index !254
  %8 = alloca %"class.std::ios_base::Init", align 1, !llfi_index !255
  %9 = alloca i64*, align 8, !llfi_index !256
  %10 = alloca %"class.std::ios_base::Init", align 1, !llfi_index !257
  %11 = alloca %"class.std::ios_base::Init", align 1, !llfi_index !258
  store i64* %0, i64** %5, align 8, !llfi_index !259
  store i64* %1, i64** %6, align 8, !llfi_index !260
  store i64 %2, i64* %7, align 8, !llfi_index !261
  br label %12, !llfi_index !262

12:                                               ; preds = %27, %3
  %13 = load i64*, i64** %6, align 8, !llfi_index !263
  %14 = load i64*, i64** %5, align 8, !llfi_index !264
  %15 = ptrtoint i64* %13 to i64, !llfi_index !265
  %16 = ptrtoint i64* %14 to i64, !llfi_index !266
  %17 = sub i64 %15, %16, !llfi_index !267
  %18 = sdiv exact i64 %17, 8, !llfi_index !268
  %19 = icmp sgt i64 %18, 16, !llfi_index !269
  br i1 %19, label %20, label %37, !llfi_index !270

20:                                               ; preds = %12
  %21 = load i64, i64* %7, align 8, !llfi_index !271
  %22 = icmp eq i64 %21, 0, !llfi_index !272
  br i1 %22, label %23, label %27, !llfi_index !273

23:                                               ; preds = %20
  %24 = load i64*, i64** %5, align 8, !llfi_index !274
  %25 = load i64*, i64** %6, align 8, !llfi_index !275
  %26 = load i64*, i64** %6, align 8, !llfi_index !276
  call void @_ZSt14__partial_sortIPxN9__gnu_cxx5__ops15_Iter_less_iterEEvT_S4_S4_T0_(i64* %24, i64* %25, i64* %26), !llfi_index !277
  br label %37, !llfi_index !278

27:                                               ; preds = %20
  %28 = load i64, i64* %7, align 8, !llfi_index !279
  %29 = add nsw i64 %28, -1, !llfi_index !280
  store i64 %29, i64* %7, align 8, !llfi_index !281
  %30 = load i64*, i64** %5, align 8, !llfi_index !282
  %31 = load i64*, i64** %6, align 8, !llfi_index !283
  %32 = call i64* @_ZSt27__unguarded_partition_pivotIPxN9__gnu_cxx5__ops15_Iter_less_iterEET_S4_S4_T0_(i64* %30, i64* %31), !llfi_index !284
  store i64* %32, i64** %9, align 8, !llfi_index !285
  %33 = load i64*, i64** %9, align 8, !llfi_index !286
  %34 = load i64*, i64** %6, align 8, !llfi_index !287
  %35 = load i64, i64* %7, align 8, !llfi_index !288
  call void @_ZSt16__introsort_loopIPxlN9__gnu_cxx5__ops15_Iter_less_iterEEvT_S4_T0_T1_(i64* %33, i64* %34, i64 %35), !llfi_index !289
  %36 = load i64*, i64** %9, align 8, !llfi_index !290
  store i64* %36, i64** %6, align 8, !llfi_index !291
  br label %12, !llvm.loop !292, !llfi_index !293

37:                                               ; preds = %23, %12
  ret void, !llfi_index !294
}

; Function Attrs: mustprogress noinline uwtable
define linkonce_odr dso_local void @_ZSt22__final_insertion_sortIPxN9__gnu_cxx5__ops15_Iter_less_iterEEvT_S4_T0_(i64* %0, i64* %1) #6 comdat {
  %3 = alloca %"class.std::ios_base::Init", align 1, !llfi_index !295
  %4 = alloca i64*, align 8, !llfi_index !296
  %5 = alloca i64*, align 8, !llfi_index !297
  %6 = alloca %"class.std::ios_base::Init", align 1, !llfi_index !298
  %7 = alloca %"class.std::ios_base::Init", align 1, !llfi_index !299
  %8 = alloca %"class.std::ios_base::Init", align 1, !llfi_index !300
  store i64* %0, i64** %4, align 8, !llfi_index !301
  store i64* %1, i64** %5, align 8, !llfi_index !302
  %9 = load i64*, i64** %5, align 8, !llfi_index !303
  %10 = load i64*, i64** %4, align 8, !llfi_index !304
  %11 = ptrtoint i64* %9 to i64, !llfi_index !305
  %12 = ptrtoint i64* %10 to i64, !llfi_index !306
  %13 = sub i64 %11, %12, !llfi_index !307
  %14 = sdiv exact i64 %13, 8, !llfi_index !308
  %15 = icmp sgt i64 %14, 16, !llfi_index !309
  br i1 %15, label %16, label %23, !llfi_index !310

16:                                               ; preds = %2
  %17 = load i64*, i64** %4, align 8, !llfi_index !311
  %18 = load i64*, i64** %4, align 8, !llfi_index !312
  %19 = getelementptr inbounds i64, i64* %18, i64 16, !llfi_index !313
  call void @_ZSt16__insertion_sortIPxN9__gnu_cxx5__ops15_Iter_less_iterEEvT_S4_T0_(i64* %17, i64* %19), !llfi_index !314
  %20 = load i64*, i64** %4, align 8, !llfi_index !315
  %21 = getelementptr inbounds i64, i64* %20, i64 16, !llfi_index !316
  %22 = load i64*, i64** %5, align 8, !llfi_index !317
  call void @_ZSt26__unguarded_insertion_sortIPxN9__gnu_cxx5__ops15_Iter_less_iterEEvT_S4_T0_(i64* %21, i64* %22), !llfi_index !318
  br label %26, !llfi_index !319

23:                                               ; preds = %2
  %24 = load i64*, i64** %4, align 8, !llfi_index !320
  %25 = load i64*, i64** %5, align 8, !llfi_index !321
  call void @_ZSt16__insertion_sortIPxN9__gnu_cxx5__ops15_Iter_less_iterEEvT_S4_T0_(i64* %24, i64* %25), !llfi_index !322
  br label %26, !llfi_index !323

26:                                               ; preds = %23, %16
  ret void, !llfi_index !324
}

; Function Attrs: mustprogress noinline uwtable
define linkonce_odr dso_local void @_ZSt16__insertion_sortIPxN9__gnu_cxx5__ops15_Iter_less_iterEEvT_S4_T0_(i64* %0, i64* %1) #6 comdat {
  %3 = alloca %"class.std::ios_base::Init", align 1, !llfi_index !325
  %4 = alloca i64*, align 8, !llfi_index !326
  %5 = alloca i64*, align 8, !llfi_index !327
  %6 = alloca i64*, align 8, !llfi_index !328
  %7 = alloca i64, align 8, !llfi_index !329
  %8 = alloca %"class.std::ios_base::Init", align 1, !llfi_index !330
  %9 = alloca %"class.std::ios_base::Init", align 1, !llfi_index !331
  %10 = alloca %"class.std::ios_base::Init", align 1, !llfi_index !332
  store i64* %0, i64** %4, align 8, !llfi_index !333
  store i64* %1, i64** %5, align 8, !llfi_index !334
  %11 = load i64*, i64** %4, align 8, !llfi_index !335
  %12 = load i64*, i64** %5, align 8, !llfi_index !336
  %13 = icmp eq i64* %11, %12, !llfi_index !337
  br i1 %13, label %14, label %15, !llfi_index !338

14:                                               ; preds = %2
  br label %44, !llfi_index !339

15:                                               ; preds = %2
  %16 = load i64*, i64** %4, align 8, !llfi_index !340
  %17 = getelementptr inbounds i64, i64* %16, i64 1, !llfi_index !341
  store i64* %17, i64** %6, align 8, !llfi_index !342
  br label %18, !llfi_index !343

18:                                               ; preds = %41, %15
  %19 = load i64*, i64** %6, align 8, !llfi_index !344
  %20 = load i64*, i64** %5, align 8, !llfi_index !345
  %21 = icmp ne i64* %19, %20, !llfi_index !346
  br i1 %21, label %22, label %44, !llfi_index !347

22:                                               ; preds = %18
  %23 = load i64*, i64** %6, align 8, !llfi_index !348
  %24 = load i64*, i64** %4, align 8, !llfi_index !349
  %25 = call zeroext i1 @_ZNK9__gnu_cxx5__ops15_Iter_less_iterclIPxS3_EEbT_T0_(%"class.std::ios_base::Init"* nonnull align 1 dereferenceable(1) %3, i64* %23, i64* %24), !llfi_index !350
  br i1 %25, label %26, label %38, !llfi_index !351

26:                                               ; preds = %22
  %27 = load i64*, i64** %6, align 8, !llfi_index !352
  %28 = call nonnull align 8 dereferenceable(8) i64* @_ZSt4moveIRxEONSt16remove_referenceIT_E4typeEOS2_(i64* nonnull align 8 dereferenceable(8) %27) #2, !llfi_index !353
  %29 = load i64, i64* %28, align 8, !llfi_index !354
  store i64 %29, i64* %7, align 8, !llfi_index !355
  %30 = load i64*, i64** %4, align 8, !llfi_index !356
  %31 = load i64*, i64** %6, align 8, !llfi_index !357
  %32 = load i64*, i64** %6, align 8, !llfi_index !358
  %33 = getelementptr inbounds i64, i64* %32, i64 1, !llfi_index !359
  %34 = call i64* @_ZSt13move_backwardIPxS0_ET0_T_S2_S1_(i64* %30, i64* %31, i64* %33), !llfi_index !360
  %35 = call nonnull align 8 dereferenceable(8) i64* @_ZSt4moveIRxEONSt16remove_referenceIT_E4typeEOS2_(i64* nonnull align 8 dereferenceable(8) %7) #2, !llfi_index !361
  %36 = load i64, i64* %35, align 8, !llfi_index !362
  %37 = load i64*, i64** %4, align 8, !llfi_index !363
  store i64 %36, i64* %37, align 8, !llfi_index !364
  br label %40, !llfi_index !365

38:                                               ; preds = %22
  %39 = load i64*, i64** %6, align 8, !llfi_index !366
  call void @_ZN9__gnu_cxx5__ops15__val_comp_iterENS0_15_Iter_less_iterE(), !llfi_index !367
  call void @_ZSt25__unguarded_linear_insertIPxN9__gnu_cxx5__ops14_Val_less_iterEEvT_T0_(i64* %39), !llfi_index !368
  br label %40, !llfi_index !369

40:                                               ; preds = %38, %26
  br label %41, !llfi_index !370

41:                                               ; preds = %40
  %42 = load i64*, i64** %6, align 8, !llfi_index !371
  %43 = getelementptr inbounds i64, i64* %42, i32 1, !llfi_index !372
  store i64* %43, i64** %6, align 8, !llfi_index !373
  br label %18, !llvm.loop !374, !llfi_index !375

44:                                               ; preds = %18, %14
  ret void, !llfi_index !376
}

; Function Attrs: mustprogress noinline uwtable
define linkonce_odr dso_local void @_ZSt26__unguarded_insertion_sortIPxN9__gnu_cxx5__ops15_Iter_less_iterEEvT_S4_T0_(i64* %0, i64* %1) #6 comdat {
  %3 = alloca %"class.std::ios_base::Init", align 1, !llfi_index !377
  %4 = alloca i64*, align 8, !llfi_index !378
  %5 = alloca i64*, align 8, !llfi_index !379
  %6 = alloca i64*, align 8, !llfi_index !380
  %7 = alloca %"class.std::ios_base::Init", align 1, !llfi_index !381
  %8 = alloca %"class.std::ios_base::Init", align 1, !llfi_index !382
  %9 = alloca %"class.std::ios_base::Init", align 1, !llfi_index !383
  store i64* %0, i64** %4, align 8, !llfi_index !384
  store i64* %1, i64** %5, align 8, !llfi_index !385
  %10 = load i64*, i64** %4, align 8, !llfi_index !386
  store i64* %10, i64** %6, align 8, !llfi_index !387
  br label %11, !llfi_index !388

11:                                               ; preds = %17, %2
  %12 = load i64*, i64** %6, align 8, !llfi_index !389
  %13 = load i64*, i64** %5, align 8, !llfi_index !390
  %14 = icmp ne i64* %12, %13, !llfi_index !391
  br i1 %14, label %15, label %20, !llfi_index !392

15:                                               ; preds = %11
  %16 = load i64*, i64** %6, align 8, !llfi_index !393
  call void @_ZN9__gnu_cxx5__ops15__val_comp_iterENS0_15_Iter_less_iterE(), !llfi_index !394
  call void @_ZSt25__unguarded_linear_insertIPxN9__gnu_cxx5__ops14_Val_less_iterEEvT_T0_(i64* %16), !llfi_index !395
  br label %17, !llfi_index !396

17:                                               ; preds = %15
  %18 = load i64*, i64** %6, align 8, !llfi_index !397
  %19 = getelementptr inbounds i64, i64* %18, i32 1, !llfi_index !398
  store i64* %19, i64** %6, align 8, !llfi_index !399
  br label %11, !llvm.loop !400, !llfi_index !401

20:                                               ; preds = %11
  ret void, !llfi_index !402
}

; Function Attrs: mustprogress noinline nounwind uwtable
define linkonce_odr dso_local void @_ZN9__gnu_cxx5__ops15__val_comp_iterENS0_15_Iter_less_iterE() #4 comdat {
  %1 = alloca %"class.std::ios_base::Init", align 1, !llfi_index !403
  ret void, !llfi_index !404
}

; Function Attrs: mustprogress noinline uwtable
define linkonce_odr dso_local void @_ZSt25__unguarded_linear_insertIPxN9__gnu_cxx5__ops14_Val_less_iterEEvT_T0_(i64* %0) #6 comdat {
  %2 = alloca %"class.std::ios_base::Init", align 1, !llfi_index !405
  %3 = alloca i64*, align 8, !llfi_index !406
  %4 = alloca i64, align 8, !llfi_index !407
  %5 = alloca i64*, align 8, !llfi_index !408
  store i64* %0, i64** %3, align 8, !llfi_index !409
  %6 = load i64*, i64** %3, align 8, !llfi_index !410
  %7 = call nonnull align 8 dereferenceable(8) i64* @_ZSt4moveIRxEONSt16remove_referenceIT_E4typeEOS2_(i64* nonnull align 8 dereferenceable(8) %6) #2, !llfi_index !411
  %8 = load i64, i64* %7, align 8, !llfi_index !412
  store i64 %8, i64* %4, align 8, !llfi_index !413
  %9 = load i64*, i64** %3, align 8, !llfi_index !414
  store i64* %9, i64** %5, align 8, !llfi_index !415
  %10 = load i64*, i64** %5, align 8, !llfi_index !416
  %11 = getelementptr inbounds i64, i64* %10, i32 -1, !llfi_index !417
  store i64* %11, i64** %5, align 8, !llfi_index !418
  br label %12, !llfi_index !419

12:                                               ; preds = %15, %1
  %13 = load i64*, i64** %5, align 8, !llfi_index !420
  %14 = call zeroext i1 @_ZNK9__gnu_cxx5__ops14_Val_less_iterclIxPxEEbRT_T0_(%"class.std::ios_base::Init"* nonnull align 1 dereferenceable(1) %2, i64* nonnull align 8 dereferenceable(8) %4, i64* %13), !llfi_index !421
  br i1 %14, label %15, label %23, !llfi_index !422

15:                                               ; preds = %12
  %16 = load i64*, i64** %5, align 8, !llfi_index !423
  %17 = call nonnull align 8 dereferenceable(8) i64* @_ZSt4moveIRxEONSt16remove_referenceIT_E4typeEOS2_(i64* nonnull align 8 dereferenceable(8) %16) #2, !llfi_index !424
  %18 = load i64, i64* %17, align 8, !llfi_index !425
  %19 = load i64*, i64** %3, align 8, !llfi_index !426
  store i64 %18, i64* %19, align 8, !llfi_index !427
  %20 = load i64*, i64** %5, align 8, !llfi_index !428
  store i64* %20, i64** %3, align 8, !llfi_index !429
  %21 = load i64*, i64** %5, align 8, !llfi_index !430
  %22 = getelementptr inbounds i64, i64* %21, i32 -1, !llfi_index !431
  store i64* %22, i64** %5, align 8, !llfi_index !432
  br label %12, !llvm.loop !433, !llfi_index !434

23:                                               ; preds = %12
  %24 = call nonnull align 8 dereferenceable(8) i64* @_ZSt4moveIRxEONSt16remove_referenceIT_E4typeEOS2_(i64* nonnull align 8 dereferenceable(8) %4) #2, !llfi_index !435
  %25 = load i64, i64* %24, align 8, !llfi_index !436
  %26 = load i64*, i64** %3, align 8, !llfi_index !437
  store i64 %25, i64* %26, align 8, !llfi_index !438
  ret void, !llfi_index !439
}

; Function Attrs: mustprogress noinline nounwind uwtable
define linkonce_odr dso_local nonnull align 8 dereferenceable(8) i64* @_ZSt4moveIRxEONSt16remove_referenceIT_E4typeEOS2_(i64* nonnull align 8 dereferenceable(8) %0) #4 comdat {
  %2 = alloca i64*, align 8, !llfi_index !440
  store i64* %0, i64** %2, align 8, !llfi_index !441
  %3 = load i64*, i64** %2, align 8, !llfi_index !442
  ret i64* %3, !llfi_index !443
}

; Function Attrs: mustprogress noinline nounwind uwtable
define linkonce_odr dso_local zeroext i1 @_ZNK9__gnu_cxx5__ops14_Val_less_iterclIxPxEEbRT_T0_(%"class.std::ios_base::Init"* nonnull align 1 dereferenceable(1) %0, i64* nonnull align 8 dereferenceable(8) %1, i64* %2) #4 comdat align 2 {
  %4 = alloca %"class.std::ios_base::Init"*, align 8, !llfi_index !444
  %5 = alloca i64*, align 8, !llfi_index !445
  %6 = alloca i64*, align 8, !llfi_index !446
  store %"class.std::ios_base::Init"* %0, %"class.std::ios_base::Init"** %4, align 8, !llfi_index !447
  store i64* %1, i64** %5, align 8, !llfi_index !448
  store i64* %2, i64** %6, align 8, !llfi_index !449
  %7 = load %"class.std::ios_base::Init"*, %"class.std::ios_base::Init"** %4, align 8, !llfi_index !450
  %8 = load i64*, i64** %5, align 8, !llfi_index !451
  %9 = load i64, i64* %8, align 8, !llfi_index !452
  %10 = load i64*, i64** %6, align 8, !llfi_index !453
  %11 = load i64, i64* %10, align 8, !llfi_index !454
  %12 = icmp slt i64 %9, %11, !llfi_index !455
  ret i1 %12, !llfi_index !456
}

; Function Attrs: mustprogress noinline nounwind uwtable
define linkonce_odr dso_local zeroext i1 @_ZNK9__gnu_cxx5__ops15_Iter_less_iterclIPxS3_EEbT_T0_(%"class.std::ios_base::Init"* nonnull align 1 dereferenceable(1) %0, i64* %1, i64* %2) #4 comdat align 2 {
  %4 = alloca %"class.std::ios_base::Init"*, align 8, !llfi_index !457
  %5 = alloca i64*, align 8, !llfi_index !458
  %6 = alloca i64*, align 8, !llfi_index !459
  store %"class.std::ios_base::Init"* %0, %"class.std::ios_base::Init"** %4, align 8, !llfi_index !460
  store i64* %1, i64** %5, align 8, !llfi_index !461
  store i64* %2, i64** %6, align 8, !llfi_index !462
  %7 = load %"class.std::ios_base::Init"*, %"class.std::ios_base::Init"** %4, align 8, !llfi_index !463
  %8 = load i64*, i64** %5, align 8, !llfi_index !464
  %9 = load i64, i64* %8, align 8, !llfi_index !465
  %10 = load i64*, i64** %6, align 8, !llfi_index !466
  %11 = load i64, i64* %10, align 8, !llfi_index !467
  %12 = icmp slt i64 %9, %11, !llfi_index !468
  ret i1 %12, !llfi_index !469
}

; Function Attrs: mustprogress noinline uwtable
define linkonce_odr dso_local i64* @_ZSt13move_backwardIPxS0_ET0_T_S2_S1_(i64* %0, i64* %1, i64* %2) #6 comdat {
  %4 = alloca i64*, align 8, !llfi_index !470
  %5 = alloca i64*, align 8, !llfi_index !471
  %6 = alloca i64*, align 8, !llfi_index !472
  store i64* %0, i64** %4, align 8, !llfi_index !473
  store i64* %1, i64** %5, align 8, !llfi_index !474
  store i64* %2, i64** %6, align 8, !llfi_index !475
  %7 = load i64*, i64** %4, align 8, !llfi_index !476
  %8 = call i64* @_ZSt12__miter_baseIPxET_S1_(i64* %7), !llfi_index !477
  %9 = load i64*, i64** %5, align 8, !llfi_index !478
  %10 = call i64* @_ZSt12__miter_baseIPxET_S1_(i64* %9), !llfi_index !479
  %11 = load i64*, i64** %6, align 8, !llfi_index !480
  %12 = call i64* @_ZSt23__copy_move_backward_a2ILb1EPxS0_ET1_T0_S2_S1_(i64* %8, i64* %10, i64* %11), !llfi_index !481
  ret i64* %12, !llfi_index !482
}

; Function Attrs: mustprogress noinline nounwind uwtable
define linkonce_odr dso_local i64* @_ZSt12__miter_baseIPxET_S1_(i64* %0) #4 comdat {
  %2 = alloca i64*, align 8, !llfi_index !483
  store i64* %0, i64** %2, align 8, !llfi_index !484
  %3 = load i64*, i64** %2, align 8, !llfi_index !485
  ret i64* %3, !llfi_index !486
}

; Function Attrs: mustprogress noinline uwtable
define linkonce_odr dso_local i64* @_ZSt23__copy_move_backward_a2ILb1EPxS0_ET1_T0_S2_S1_(i64* %0, i64* %1, i64* %2) #6 comdat {
  %4 = alloca i64*, align 8, !llfi_index !487
  %5 = alloca i64*, align 8, !llfi_index !488
  %6 = alloca i64*, align 8, !llfi_index !489
  store i64* %0, i64** %4, align 8, !llfi_index !490
  store i64* %1, i64** %5, align 8, !llfi_index !491
  store i64* %2, i64** %6, align 8, !llfi_index !492
  %7 = load i64*, i64** %4, align 8, !llfi_index !493
  %8 = call i64* @_ZSt12__niter_baseIPxET_S1_(i64* %7) #2, !llfi_index !494
  %9 = load i64*, i64** %5, align 8, !llfi_index !495
  %10 = call i64* @_ZSt12__niter_baseIPxET_S1_(i64* %9) #2, !llfi_index !496
  %11 = load i64*, i64** %6, align 8, !llfi_index !497
  %12 = call i64* @_ZSt12__niter_baseIPxET_S1_(i64* %11) #2, !llfi_index !498
  %13 = call i64* @_ZSt22__copy_move_backward_aILb1EPxS0_ET1_T0_S2_S1_(i64* %8, i64* %10, i64* %12), !llfi_index !499
  %14 = call i64* @_ZSt12__niter_wrapIPxET_RKS1_S1_(i64** nonnull align 8 dereferenceable(8) %6, i64* %13), !llfi_index !500
  ret i64* %14, !llfi_index !501
}

; Function Attrs: mustprogress noinline nounwind uwtable
define linkonce_odr dso_local i64* @_ZSt12__niter_baseIPxET_S1_(i64* %0) #4 comdat {
  %2 = alloca i64*, align 8, !llfi_index !502
  store i64* %0, i64** %2, align 8, !llfi_index !503
  %3 = load i64*, i64** %2, align 8, !llfi_index !504
  ret i64* %3, !llfi_index !505
}

; Function Attrs: mustprogress noinline uwtable
define linkonce_odr dso_local i64* @_ZSt22__copy_move_backward_aILb1EPxS0_ET1_T0_S2_S1_(i64* %0, i64* %1, i64* %2) #6 comdat {
  %4 = alloca i64*, align 8, !llfi_index !506
  %5 = alloca i64*, align 8, !llfi_index !507
  %6 = alloca i64*, align 8, !llfi_index !508
  %7 = alloca i8, align 1, !llfi_index !509
  store i64* %0, i64** %4, align 8, !llfi_index !510
  store i64* %1, i64** %5, align 8, !llfi_index !511
  store i64* %2, i64** %6, align 8, !llfi_index !512
  store i8 1, i8* %7, align 1, !llfi_index !513
  %8 = load i64*, i64** %4, align 8, !llfi_index !514
  %9 = load i64*, i64** %5, align 8, !llfi_index !515
  %10 = load i64*, i64** %6, align 8, !llfi_index !516
  %11 = call i64* @_ZNSt20__copy_move_backwardILb1ELb1ESt26random_access_iterator_tagE13__copy_move_bIxEEPT_PKS3_S6_S4_(i64* %8, i64* %9, i64* %10), !llfi_index !517
  ret i64* %11, !llfi_index !518
}

; Function Attrs: mustprogress noinline nounwind uwtable
define linkonce_odr dso_local i64* @_ZSt12__niter_wrapIPxET_RKS1_S1_(i64** nonnull align 8 dereferenceable(8) %0, i64* %1) #4 comdat {
  %3 = alloca i64**, align 8, !llfi_index !519
  %4 = alloca i64*, align 8, !llfi_index !520
  store i64** %0, i64*** %3, align 8, !llfi_index !521
  store i64* %1, i64** %4, align 8, !llfi_index !522
  %5 = load i64*, i64** %4, align 8, !llfi_index !523
  ret i64* %5, !llfi_index !524
}

; Function Attrs: mustprogress noinline nounwind uwtable
define linkonce_odr dso_local i64* @_ZNSt20__copy_move_backwardILb1ELb1ESt26random_access_iterator_tagE13__copy_move_bIxEEPT_PKS3_S6_S4_(i64* %0, i64* %1, i64* %2) #4 comdat align 2 {
  %4 = alloca i64*, align 8, !llfi_index !525
  %5 = alloca i64*, align 8, !llfi_index !526
  %6 = alloca i64*, align 8, !llfi_index !527
  %7 = alloca i64, align 8, !llfi_index !528
  store i64* %0, i64** %4, align 8, !llfi_index !529
  store i64* %1, i64** %5, align 8, !llfi_index !530
  store i64* %2, i64** %6, align 8, !llfi_index !531
  %8 = load i64*, i64** %5, align 8, !llfi_index !532
  %9 = load i64*, i64** %4, align 8, !llfi_index !533
  %10 = ptrtoint i64* %8 to i64, !llfi_index !534
  %11 = ptrtoint i64* %9 to i64, !llfi_index !535
  %12 = sub i64 %10, %11, !llfi_index !536
  %13 = sdiv exact i64 %12, 8, !llfi_index !537
  store i64 %13, i64* %7, align 8, !llfi_index !538
  %14 = load i64, i64* %7, align 8, !llfi_index !539
  %15 = icmp ne i64 %14, 0, !llfi_index !540
  br i1 %15, label %16, label %26, !llfi_index !541

16:                                               ; preds = %3
  %17 = load i64*, i64** %6, align 8, !llfi_index !542
  %18 = load i64, i64* %7, align 8, !llfi_index !543
  %19 = sub i64 0, %18, !llfi_index !544
  %20 = getelementptr inbounds i64, i64* %17, i64 %19, !llfi_index !545
  %21 = bitcast i64* %20 to i8*, !llfi_index !546
  %22 = load i64*, i64** %4, align 8, !llfi_index !547
  %23 = bitcast i64* %22 to i8*, !llfi_index !548
  %24 = load i64, i64* %7, align 8, !llfi_index !549
  %25 = mul i64 8, %24, !llfi_index !550
  call void @llvm.memmove.p0i8.p0i8.i64(i8* align 8 %21, i8* align 8 %23, i64 %25, i1 false), !llfi_index !551
  br label %26, !llfi_index !552

26:                                               ; preds = %16, %3
  %27 = load i64*, i64** %6, align 8, !llfi_index !553
  %28 = load i64, i64* %7, align 8, !llfi_index !554
  %29 = sub i64 0, %28, !llfi_index !555
  %30 = getelementptr inbounds i64, i64* %27, i64 %29, !llfi_index !556
  ret i64* %30, !llfi_index !557
}

; Function Attrs: argmemonly nofree nounwind willreturn
declare void @llvm.memmove.p0i8.p0i8.i64(i8* nocapture writeonly, i8* nocapture readonly, i64, i1 immarg) #7

; Function Attrs: mustprogress noinline uwtable
define linkonce_odr dso_local void @_ZSt14__partial_sortIPxN9__gnu_cxx5__ops15_Iter_less_iterEEvT_S4_S4_T0_(i64* %0, i64* %1, i64* %2) #6 comdat {
  %4 = alloca %"class.std::ios_base::Init", align 1, !llfi_index !558
  %5 = alloca i64*, align 8, !llfi_index !559
  %6 = alloca i64*, align 8, !llfi_index !560
  %7 = alloca i64*, align 8, !llfi_index !561
  %8 = alloca %"class.std::ios_base::Init", align 1, !llfi_index !562
  store i64* %0, i64** %5, align 8, !llfi_index !563
  store i64* %1, i64** %6, align 8, !llfi_index !564
  store i64* %2, i64** %7, align 8, !llfi_index !565
  %9 = load i64*, i64** %5, align 8, !llfi_index !566
  %10 = load i64*, i64** %6, align 8, !llfi_index !567
  %11 = load i64*, i64** %7, align 8, !llfi_index !568
  call void @_ZSt13__heap_selectIPxN9__gnu_cxx5__ops15_Iter_less_iterEEvT_S4_S4_T0_(i64* %9, i64* %10, i64* %11), !llfi_index !569
  %12 = load i64*, i64** %5, align 8, !llfi_index !570
  %13 = load i64*, i64** %6, align 8, !llfi_index !571
  call void @_ZSt11__sort_heapIPxN9__gnu_cxx5__ops15_Iter_less_iterEEvT_S4_RT0_(i64* %12, i64* %13, %"class.std::ios_base::Init"* nonnull align 1 dereferenceable(1) %4), !llfi_index !572
  ret void, !llfi_index !573
}

; Function Attrs: mustprogress noinline uwtable
define linkonce_odr dso_local i64* @_ZSt27__unguarded_partition_pivotIPxN9__gnu_cxx5__ops15_Iter_less_iterEET_S4_S4_T0_(i64* %0, i64* %1) #6 comdat {
  %3 = alloca %"class.std::ios_base::Init", align 1, !llfi_index !574
  %4 = alloca i64*, align 8, !llfi_index !575
  %5 = alloca i64*, align 8, !llfi_index !576
  %6 = alloca i64*, align 8, !llfi_index !577
  %7 = alloca %"class.std::ios_base::Init", align 1, !llfi_index !578
  %8 = alloca %"class.std::ios_base::Init", align 1, !llfi_index !579
  store i64* %0, i64** %4, align 8, !llfi_index !580
  store i64* %1, i64** %5, align 8, !llfi_index !581
  %9 = load i64*, i64** %4, align 8, !llfi_index !582
  %10 = load i64*, i64** %5, align 8, !llfi_index !583
  %11 = load i64*, i64** %4, align 8, !llfi_index !584
  %12 = ptrtoint i64* %10 to i64, !llfi_index !585
  %13 = ptrtoint i64* %11 to i64, !llfi_index !586
  %14 = sub i64 %12, %13, !llfi_index !587
  %15 = sdiv exact i64 %14, 8, !llfi_index !588
  %16 = sdiv i64 %15, 2, !llfi_index !589
  %17 = getelementptr inbounds i64, i64* %9, i64 %16, !llfi_index !590
  store i64* %17, i64** %6, align 8, !llfi_index !591
  %18 = load i64*, i64** %4, align 8, !llfi_index !592
  %19 = load i64*, i64** %4, align 8, !llfi_index !593
  %20 = getelementptr inbounds i64, i64* %19, i64 1, !llfi_index !594
  %21 = load i64*, i64** %6, align 8, !llfi_index !595
  %22 = load i64*, i64** %5, align 8, !llfi_index !596
  %23 = getelementptr inbounds i64, i64* %22, i64 -1, !llfi_index !597
  call void @_ZSt22__move_median_to_firstIPxN9__gnu_cxx5__ops15_Iter_less_iterEEvT_S4_S4_S4_T0_(i64* %18, i64* %20, i64* %21, i64* %23), !llfi_index !598
  %24 = load i64*, i64** %4, align 8, !llfi_index !599
  %25 = getelementptr inbounds i64, i64* %24, i64 1, !llfi_index !600
  %26 = load i64*, i64** %5, align 8, !llfi_index !601
  %27 = load i64*, i64** %4, align 8, !llfi_index !602
  %28 = call i64* @_ZSt21__unguarded_partitionIPxN9__gnu_cxx5__ops15_Iter_less_iterEET_S4_S4_S4_T0_(i64* %25, i64* %26, i64* %27), !llfi_index !603
  ret i64* %28, !llfi_index !604
}

; Function Attrs: mustprogress noinline uwtable
define linkonce_odr dso_local void @_ZSt22__move_median_to_firstIPxN9__gnu_cxx5__ops15_Iter_less_iterEEvT_S4_S4_S4_T0_(i64* %0, i64* %1, i64* %2, i64* %3) #6 comdat {
  %5 = alloca %"class.std::ios_base::Init", align 1, !llfi_index !605
  %6 = alloca i64*, align 8, !llfi_index !606
  %7 = alloca i64*, align 8, !llfi_index !607
  %8 = alloca i64*, align 8, !llfi_index !608
  %9 = alloca i64*, align 8, !llfi_index !609
  store i64* %0, i64** %6, align 8, !llfi_index !610
  store i64* %1, i64** %7, align 8, !llfi_index !611
  store i64* %2, i64** %8, align 8, !llfi_index !612
  store i64* %3, i64** %9, align 8, !llfi_index !613
  %10 = load i64*, i64** %7, align 8, !llfi_index !614
  %11 = load i64*, i64** %8, align 8, !llfi_index !615
  %12 = call zeroext i1 @_ZNK9__gnu_cxx5__ops15_Iter_less_iterclIPxS3_EEbT_T0_(%"class.std::ios_base::Init"* nonnull align 1 dereferenceable(1) %5, i64* %10, i64* %11), !llfi_index !616
  br i1 %12, label %13, label %32, !llfi_index !617

13:                                               ; preds = %4
  %14 = load i64*, i64** %8, align 8, !llfi_index !618
  %15 = load i64*, i64** %9, align 8, !llfi_index !619
  %16 = call zeroext i1 @_ZNK9__gnu_cxx5__ops15_Iter_less_iterclIPxS3_EEbT_T0_(%"class.std::ios_base::Init"* nonnull align 1 dereferenceable(1) %5, i64* %14, i64* %15), !llfi_index !620
  br i1 %16, label %17, label %20, !llfi_index !621

17:                                               ; preds = %13
  %18 = load i64*, i64** %6, align 8, !llfi_index !622
  %19 = load i64*, i64** %8, align 8, !llfi_index !623
  call void @_ZSt9iter_swapIPxS0_EvT_T0_(i64* %18, i64* %19), !llfi_index !624
  br label %31, !llfi_index !625

20:                                               ; preds = %13
  %21 = load i64*, i64** %7, align 8, !llfi_index !626
  %22 = load i64*, i64** %9, align 8, !llfi_index !627
  %23 = call zeroext i1 @_ZNK9__gnu_cxx5__ops15_Iter_less_iterclIPxS3_EEbT_T0_(%"class.std::ios_base::Init"* nonnull align 1 dereferenceable(1) %5, i64* %21, i64* %22), !llfi_index !628
  br i1 %23, label %24, label %27, !llfi_index !629

24:                                               ; preds = %20
  %25 = load i64*, i64** %6, align 8, !llfi_index !630
  %26 = load i64*, i64** %9, align 8, !llfi_index !631
  call void @_ZSt9iter_swapIPxS0_EvT_T0_(i64* %25, i64* %26), !llfi_index !632
  br label %30, !llfi_index !633

27:                                               ; preds = %20
  %28 = load i64*, i64** %6, align 8, !llfi_index !634
  %29 = load i64*, i64** %7, align 8, !llfi_index !635
  call void @_ZSt9iter_swapIPxS0_EvT_T0_(i64* %28, i64* %29), !llfi_index !636
  br label %30, !llfi_index !637

30:                                               ; preds = %27, %24
  br label %31, !llfi_index !638

31:                                               ; preds = %30, %17
  br label %51, !llfi_index !639

32:                                               ; preds = %4
  %33 = load i64*, i64** %7, align 8, !llfi_index !640
  %34 = load i64*, i64** %9, align 8, !llfi_index !641
  %35 = call zeroext i1 @_ZNK9__gnu_cxx5__ops15_Iter_less_iterclIPxS3_EEbT_T0_(%"class.std::ios_base::Init"* nonnull align 1 dereferenceable(1) %5, i64* %33, i64* %34), !llfi_index !642
  br i1 %35, label %36, label %39, !llfi_index !643

36:                                               ; preds = %32
  %37 = load i64*, i64** %6, align 8, !llfi_index !644
  %38 = load i64*, i64** %7, align 8, !llfi_index !645
  call void @_ZSt9iter_swapIPxS0_EvT_T0_(i64* %37, i64* %38), !llfi_index !646
  br label %50, !llfi_index !647

39:                                               ; preds = %32
  %40 = load i64*, i64** %8, align 8, !llfi_index !648
  %41 = load i64*, i64** %9, align 8, !llfi_index !649
  %42 = call zeroext i1 @_ZNK9__gnu_cxx5__ops15_Iter_less_iterclIPxS3_EEbT_T0_(%"class.std::ios_base::Init"* nonnull align 1 dereferenceable(1) %5, i64* %40, i64* %41), !llfi_index !650
  br i1 %42, label %43, label %46, !llfi_index !651

43:                                               ; preds = %39
  %44 = load i64*, i64** %6, align 8, !llfi_index !652
  %45 = load i64*, i64** %9, align 8, !llfi_index !653
  call void @_ZSt9iter_swapIPxS0_EvT_T0_(i64* %44, i64* %45), !llfi_index !654
  br label %49, !llfi_index !655

46:                                               ; preds = %39
  %47 = load i64*, i64** %6, align 8, !llfi_index !656
  %48 = load i64*, i64** %8, align 8, !llfi_index !657
  call void @_ZSt9iter_swapIPxS0_EvT_T0_(i64* %47, i64* %48), !llfi_index !658
  br label %49, !llfi_index !659

49:                                               ; preds = %46, %43
  br label %50, !llfi_index !660

50:                                               ; preds = %49, %36
  br label %51, !llfi_index !661

51:                                               ; preds = %50, %31
  ret void, !llfi_index !662
}

; Function Attrs: mustprogress noinline nounwind uwtable
define linkonce_odr dso_local i64* @_ZSt21__unguarded_partitionIPxN9__gnu_cxx5__ops15_Iter_less_iterEET_S4_S4_S4_T0_(i64* %0, i64* %1, i64* %2) #4 comdat {
  %4 = alloca %"class.std::ios_base::Init", align 1, !llfi_index !663
  %5 = alloca i64*, align 8, !llfi_index !664
  %6 = alloca i64*, align 8, !llfi_index !665
  %7 = alloca i64*, align 8, !llfi_index !666
  store i64* %0, i64** %5, align 8, !llfi_index !667
  store i64* %1, i64** %6, align 8, !llfi_index !668
  store i64* %2, i64** %7, align 8, !llfi_index !669
  br label %8, !llfi_index !670

8:                                                ; preds = %32, %3
  br label %9, !llfi_index !671

9:                                                ; preds = %13, %8
  %10 = load i64*, i64** %5, align 8, !llfi_index !672
  %11 = load i64*, i64** %7, align 8, !llfi_index !673
  %12 = call zeroext i1 @_ZNK9__gnu_cxx5__ops15_Iter_less_iterclIPxS3_EEbT_T0_(%"class.std::ios_base::Init"* nonnull align 1 dereferenceable(1) %4, i64* %10, i64* %11), !llfi_index !674
  br i1 %12, label %13, label %16, !llfi_index !675

13:                                               ; preds = %9
  %14 = load i64*, i64** %5, align 8, !llfi_index !676
  %15 = getelementptr inbounds i64, i64* %14, i32 1, !llfi_index !677
  store i64* %15, i64** %5, align 8, !llfi_index !678
  br label %9, !llvm.loop !679, !llfi_index !680

16:                                               ; preds = %9
  %17 = load i64*, i64** %6, align 8, !llfi_index !681
  %18 = getelementptr inbounds i64, i64* %17, i32 -1, !llfi_index !682
  store i64* %18, i64** %6, align 8, !llfi_index !683
  br label %19, !llfi_index !684

19:                                               ; preds = %23, %16
  %20 = load i64*, i64** %7, align 8, !llfi_index !685
  %21 = load i64*, i64** %6, align 8, !llfi_index !686
  %22 = call zeroext i1 @_ZNK9__gnu_cxx5__ops15_Iter_less_iterclIPxS3_EEbT_T0_(%"class.std::ios_base::Init"* nonnull align 1 dereferenceable(1) %4, i64* %20, i64* %21), !llfi_index !687
  br i1 %22, label %23, label %26, !llfi_index !688

23:                                               ; preds = %19
  %24 = load i64*, i64** %6, align 8, !llfi_index !689
  %25 = getelementptr inbounds i64, i64* %24, i32 -1, !llfi_index !690
  store i64* %25, i64** %6, align 8, !llfi_index !691
  br label %19, !llvm.loop !692, !llfi_index !693

26:                                               ; preds = %19
  %27 = load i64*, i64** %5, align 8, !llfi_index !694
  %28 = load i64*, i64** %6, align 8, !llfi_index !695
  %29 = icmp ult i64* %27, %28, !llfi_index !696
  br i1 %29, label %32, label %30, !llfi_index !697

30:                                               ; preds = %26
  %31 = load i64*, i64** %5, align 8, !llfi_index !698
  ret i64* %31, !llfi_index !699

32:                                               ; preds = %26
  %33 = load i64*, i64** %5, align 8, !llfi_index !700
  %34 = load i64*, i64** %6, align 8, !llfi_index !701
  call void @_ZSt9iter_swapIPxS0_EvT_T0_(i64* %33, i64* %34), !llfi_index !702
  %35 = load i64*, i64** %5, align 8, !llfi_index !703
  %36 = getelementptr inbounds i64, i64* %35, i32 1, !llfi_index !704
  store i64* %36, i64** %5, align 8, !llfi_index !705
  br label %8, !llvm.loop !706, !llfi_index !707
}

; Function Attrs: mustprogress noinline nounwind uwtable
define linkonce_odr dso_local void @_ZSt9iter_swapIPxS0_EvT_T0_(i64* %0, i64* %1) #4 comdat {
  %3 = alloca i64*, align 8, !llfi_index !708
  %4 = alloca i64*, align 8, !llfi_index !709
  store i64* %0, i64** %3, align 8, !llfi_index !710
  store i64* %1, i64** %4, align 8, !llfi_index !711
  %5 = load i64*, i64** %3, align 8, !llfi_index !712
  %6 = load i64*, i64** %4, align 8, !llfi_index !713
  call void @_ZSt4swapIxENSt9enable_ifIXsr6__and_ISt6__not_ISt15__is_tuple_likeIT_EESt21is_move_constructibleIS3_ESt18is_move_assignableIS3_EEE5valueEvE4typeERS3_SC_(i64* nonnull align 8 dereferenceable(8) %5, i64* nonnull align 8 dereferenceable(8) %6) #2, !llfi_index !714
  ret void, !llfi_index !715
}

; Function Attrs: mustprogress noinline nounwind uwtable
define linkonce_odr dso_local void @_ZSt4swapIxENSt9enable_ifIXsr6__and_ISt6__not_ISt15__is_tuple_likeIT_EESt21is_move_constructibleIS3_ESt18is_move_assignableIS3_EEE5valueEvE4typeERS3_SC_(i64* nonnull align 8 dereferenceable(8) %0, i64* nonnull align 8 dereferenceable(8) %1) #4 comdat {
  %3 = alloca i64*, align 8, !llfi_index !716
  %4 = alloca i64*, align 8, !llfi_index !717
  %5 = alloca i64, align 8, !llfi_index !718
  store i64* %0, i64** %3, align 8, !llfi_index !719
  store i64* %1, i64** %4, align 8, !llfi_index !720
  %6 = load i64*, i64** %3, align 8, !llfi_index !721
  %7 = call nonnull align 8 dereferenceable(8) i64* @_ZSt4moveIRxEONSt16remove_referenceIT_E4typeEOS2_(i64* nonnull align 8 dereferenceable(8) %6) #2, !llfi_index !722
  %8 = load i64, i64* %7, align 8, !llfi_index !723
  store i64 %8, i64* %5, align 8, !llfi_index !724
  %9 = load i64*, i64** %4, align 8, !llfi_index !725
  %10 = call nonnull align 8 dereferenceable(8) i64* @_ZSt4moveIRxEONSt16remove_referenceIT_E4typeEOS2_(i64* nonnull align 8 dereferenceable(8) %9) #2, !llfi_index !726
  %11 = load i64, i64* %10, align 8, !llfi_index !727
  %12 = load i64*, i64** %3, align 8, !llfi_index !728
  store i64 %11, i64* %12, align 8, !llfi_index !729
  %13 = call nonnull align 8 dereferenceable(8) i64* @_ZSt4moveIRxEONSt16remove_referenceIT_E4typeEOS2_(i64* nonnull align 8 dereferenceable(8) %5) #2, !llfi_index !730
  %14 = load i64, i64* %13, align 8, !llfi_index !731
  %15 = load i64*, i64** %4, align 8, !llfi_index !732
  store i64 %14, i64* %15, align 8, !llfi_index !733
  ret void, !llfi_index !734
}

; Function Attrs: mustprogress noinline uwtable
define linkonce_odr dso_local void @_ZSt13__heap_selectIPxN9__gnu_cxx5__ops15_Iter_less_iterEEvT_S4_S4_T0_(i64* %0, i64* %1, i64* %2) #6 comdat {
  %4 = alloca %"class.std::ios_base::Init", align 1, !llfi_index !735
  %5 = alloca i64*, align 8, !llfi_index !736
  %6 = alloca i64*, align 8, !llfi_index !737
  %7 = alloca i64*, align 8, !llfi_index !738
  %8 = alloca i64*, align 8, !llfi_index !739
  store i64* %0, i64** %5, align 8, !llfi_index !740
  store i64* %1, i64** %6, align 8, !llfi_index !741
  store i64* %2, i64** %7, align 8, !llfi_index !742
  %9 = load i64*, i64** %5, align 8, !llfi_index !743
  %10 = load i64*, i64** %6, align 8, !llfi_index !744
  call void @_ZSt11__make_heapIPxN9__gnu_cxx5__ops15_Iter_less_iterEEvT_S4_RT0_(i64* %9, i64* %10, %"class.std::ios_base::Init"* nonnull align 1 dereferenceable(1) %4), !llfi_index !745
  %11 = load i64*, i64** %6, align 8, !llfi_index !746
  store i64* %11, i64** %8, align 8, !llfi_index !747
  br label %12, !llfi_index !748

12:                                               ; preds = %25, %3
  %13 = load i64*, i64** %8, align 8, !llfi_index !749
  %14 = load i64*, i64** %7, align 8, !llfi_index !750
  %15 = icmp ult i64* %13, %14, !llfi_index !751
  br i1 %15, label %16, label %28, !llfi_index !752

16:                                               ; preds = %12
  %17 = load i64*, i64** %8, align 8, !llfi_index !753
  %18 = load i64*, i64** %5, align 8, !llfi_index !754
  %19 = call zeroext i1 @_ZNK9__gnu_cxx5__ops15_Iter_less_iterclIPxS3_EEbT_T0_(%"class.std::ios_base::Init"* nonnull align 1 dereferenceable(1) %4, i64* %17, i64* %18), !llfi_index !755
  br i1 %19, label %20, label %24, !llfi_index !756

20:                                               ; preds = %16
  %21 = load i64*, i64** %5, align 8, !llfi_index !757
  %22 = load i64*, i64** %6, align 8, !llfi_index !758
  %23 = load i64*, i64** %8, align 8, !llfi_index !759
  call void @_ZSt10__pop_heapIPxN9__gnu_cxx5__ops15_Iter_less_iterEEvT_S4_S4_RT0_(i64* %21, i64* %22, i64* %23, %"class.std::ios_base::Init"* nonnull align 1 dereferenceable(1) %4), !llfi_index !760
  br label %24, !llfi_index !761

24:                                               ; preds = %20, %16
  br label %25, !llfi_index !762

25:                                               ; preds = %24
  %26 = load i64*, i64** %8, align 8, !llfi_index !763
  %27 = getelementptr inbounds i64, i64* %26, i32 1, !llfi_index !764
  store i64* %27, i64** %8, align 8, !llfi_index !765
  br label %12, !llvm.loop !766, !llfi_index !767

28:                                               ; preds = %12
  ret void, !llfi_index !768
}

; Function Attrs: mustprogress noinline uwtable
define linkonce_odr dso_local void @_ZSt11__sort_heapIPxN9__gnu_cxx5__ops15_Iter_less_iterEEvT_S4_RT0_(i64* %0, i64* %1, %"class.std::ios_base::Init"* nonnull align 1 dereferenceable(1) %2) #6 comdat {
  %4 = alloca i64*, align 8, !llfi_index !769
  %5 = alloca i64*, align 8, !llfi_index !770
  %6 = alloca %"class.std::ios_base::Init"*, align 8, !llfi_index !771
  store i64* %0, i64** %4, align 8, !llfi_index !772
  store i64* %1, i64** %5, align 8, !llfi_index !773
  store %"class.std::ios_base::Init"* %2, %"class.std::ios_base::Init"** %6, align 8, !llfi_index !774
  br label %7, !llfi_index !775

7:                                                ; preds = %15, %3
  %8 = load i64*, i64** %5, align 8, !llfi_index !776
  %9 = load i64*, i64** %4, align 8, !llfi_index !777
  %10 = ptrtoint i64* %8 to i64, !llfi_index !778
  %11 = ptrtoint i64* %9 to i64, !llfi_index !779
  %12 = sub i64 %10, %11, !llfi_index !780
  %13 = sdiv exact i64 %12, 8, !llfi_index !781
  %14 = icmp sgt i64 %13, 1, !llfi_index !782
  br i1 %14, label %15, label %22, !llfi_index !783

15:                                               ; preds = %7
  %16 = load i64*, i64** %5, align 8, !llfi_index !784
  %17 = getelementptr inbounds i64, i64* %16, i32 -1, !llfi_index !785
  store i64* %17, i64** %5, align 8, !llfi_index !786
  %18 = load i64*, i64** %4, align 8, !llfi_index !787
  %19 = load i64*, i64** %5, align 8, !llfi_index !788
  %20 = load i64*, i64** %5, align 8, !llfi_index !789
  %21 = load %"class.std::ios_base::Init"*, %"class.std::ios_base::Init"** %6, align 8, !llfi_index !790
  call void @_ZSt10__pop_heapIPxN9__gnu_cxx5__ops15_Iter_less_iterEEvT_S4_S4_RT0_(i64* %18, i64* %19, i64* %20, %"class.std::ios_base::Init"* nonnull align 1 dereferenceable(1) %21), !llfi_index !791
  br label %7, !llvm.loop !792, !llfi_index !793

22:                                               ; preds = %7
  ret void, !llfi_index !794
}

; Function Attrs: mustprogress noinline uwtable
define linkonce_odr dso_local void @_ZSt10__pop_heapIPxN9__gnu_cxx5__ops15_Iter_less_iterEEvT_S4_S4_RT0_(i64* %0, i64* %1, i64* %2, %"class.std::ios_base::Init"* nonnull align 1 dereferenceable(1) %3) #6 comdat {
  %5 = alloca i64*, align 8, !llfi_index !795
  %6 = alloca i64*, align 8, !llfi_index !796
  %7 = alloca i64*, align 8, !llfi_index !797
  %8 = alloca %"class.std::ios_base::Init"*, align 8, !llfi_index !798
  %9 = alloca i64, align 8, !llfi_index !799
  %10 = alloca %"class.std::ios_base::Init", align 1, !llfi_index !800
  store i64* %0, i64** %5, align 8, !llfi_index !801
  store i64* %1, i64** %6, align 8, !llfi_index !802
  store i64* %2, i64** %7, align 8, !llfi_index !803
  store %"class.std::ios_base::Init"* %3, %"class.std::ios_base::Init"** %8, align 8, !llfi_index !804
  %11 = load i64*, i64** %7, align 8, !llfi_index !805
  %12 = call nonnull align 8 dereferenceable(8) i64* @_ZSt4moveIRxEONSt16remove_referenceIT_E4typeEOS2_(i64* nonnull align 8 dereferenceable(8) %11) #2, !llfi_index !806
  %13 = load i64, i64* %12, align 8, !llfi_index !807
  store i64 %13, i64* %9, align 8, !llfi_index !808
  %14 = load i64*, i64** %5, align 8, !llfi_index !809
  %15 = call nonnull align 8 dereferenceable(8) i64* @_ZSt4moveIRxEONSt16remove_referenceIT_E4typeEOS2_(i64* nonnull align 8 dereferenceable(8) %14) #2, !llfi_index !810
  %16 = load i64, i64* %15, align 8, !llfi_index !811
  %17 = load i64*, i64** %7, align 8, !llfi_index !812
  store i64 %16, i64* %17, align 8, !llfi_index !813
  %18 = load i64*, i64** %5, align 8, !llfi_index !814
  %19 = load i64*, i64** %6, align 8, !llfi_index !815
  %20 = load i64*, i64** %5, align 8, !llfi_index !816
  %21 = ptrtoint i64* %19 to i64, !llfi_index !817
  %22 = ptrtoint i64* %20 to i64, !llfi_index !818
  %23 = sub i64 %21, %22, !llfi_index !819
  %24 = sdiv exact i64 %23, 8, !llfi_index !820
  %25 = call nonnull align 8 dereferenceable(8) i64* @_ZSt4moveIRxEONSt16remove_referenceIT_E4typeEOS2_(i64* nonnull align 8 dereferenceable(8) %9) #2, !llfi_index !821
  %26 = load i64, i64* %25, align 8, !llfi_index !822
  %27 = load %"class.std::ios_base::Init"*, %"class.std::ios_base::Init"** %8, align 8, !llfi_index !823
  call void @_ZSt13__adjust_heapIPxlxN9__gnu_cxx5__ops15_Iter_less_iterEEvT_T0_S5_T1_T2_(i64* %18, i64 0, i64 %24, i64 %26), !llfi_index !824
  ret void, !llfi_index !825
}

; Function Attrs: mustprogress noinline uwtable
define linkonce_odr dso_local void @_ZSt13__adjust_heapIPxlxN9__gnu_cxx5__ops15_Iter_less_iterEEvT_T0_S5_T1_T2_(i64* %0, i64 %1, i64 %2, i64 %3) #6 comdat {
  %5 = alloca %"class.std::ios_base::Init", align 1, !llfi_index !826
  %6 = alloca i64*, align 8, !llfi_index !827
  %7 = alloca i64, align 8, !llfi_index !828
  %8 = alloca i64, align 8, !llfi_index !829
  %9 = alloca i64, align 8, !llfi_index !830
  %10 = alloca i64, align 8, !llfi_index !831
  %11 = alloca i64, align 8, !llfi_index !832
  %12 = alloca %"class.std::ios_base::Init", align 1, !llfi_index !833
  %13 = alloca %"class.std::ios_base::Init", align 1, !llfi_index !834
  store i64* %0, i64** %6, align 8, !llfi_index !835
  store i64 %1, i64* %7, align 8, !llfi_index !836
  store i64 %2, i64* %8, align 8, !llfi_index !837
  store i64 %3, i64* %9, align 8, !llfi_index !838
  %14 = load i64, i64* %7, align 8, !llfi_index !839
  store i64 %14, i64* %10, align 8, !llfi_index !840
  %15 = load i64, i64* %7, align 8, !llfi_index !841
  store i64 %15, i64* %11, align 8, !llfi_index !842
  br label %16, !llfi_index !843

16:                                               ; preds = %37, %4
  %17 = load i64, i64* %11, align 8, !llfi_index !844
  %18 = load i64, i64* %8, align 8, !llfi_index !845
  %19 = sub nsw i64 %18, 1, !llfi_index !846
  %20 = sdiv i64 %19, 2, !llfi_index !847
  %21 = icmp slt i64 %17, %20, !llfi_index !848
  br i1 %21, label %22, label %47, !llfi_index !849

22:                                               ; preds = %16
  %23 = load i64, i64* %11, align 8, !llfi_index !850
  %24 = add nsw i64 %23, 1, !llfi_index !851
  %25 = mul nsw i64 2, %24, !llfi_index !852
  store i64 %25, i64* %11, align 8, !llfi_index !853
  %26 = load i64*, i64** %6, align 8, !llfi_index !854
  %27 = load i64, i64* %11, align 8, !llfi_index !855
  %28 = getelementptr inbounds i64, i64* %26, i64 %27, !llfi_index !856
  %29 = load i64*, i64** %6, align 8, !llfi_index !857
  %30 = load i64, i64* %11, align 8, !llfi_index !858
  %31 = sub nsw i64 %30, 1, !llfi_index !859
  %32 = getelementptr inbounds i64, i64* %29, i64 %31, !llfi_index !860
  %33 = call zeroext i1 @_ZNK9__gnu_cxx5__ops15_Iter_less_iterclIPxS3_EEbT_T0_(%"class.std::ios_base::Init"* nonnull align 1 dereferenceable(1) %5, i64* %28, i64* %32), !llfi_index !861
  br i1 %33, label %34, label %37, !llfi_index !862

34:                                               ; preds = %22
  %35 = load i64, i64* %11, align 8, !llfi_index !863
  %36 = add nsw i64 %35, -1, !llfi_index !864
  store i64 %36, i64* %11, align 8, !llfi_index !865
  br label %37, !llfi_index !866

37:                                               ; preds = %34, %22
  %38 = load i64*, i64** %6, align 8, !llfi_index !867
  %39 = load i64, i64* %11, align 8, !llfi_index !868
  %40 = getelementptr inbounds i64, i64* %38, i64 %39, !llfi_index !869
  %41 = call nonnull align 8 dereferenceable(8) i64* @_ZSt4moveIRxEONSt16remove_referenceIT_E4typeEOS2_(i64* nonnull align 8 dereferenceable(8) %40) #2, !llfi_index !870
  %42 = load i64, i64* %41, align 8, !llfi_index !871
  %43 = load i64*, i64** %6, align 8, !llfi_index !872
  %44 = load i64, i64* %7, align 8, !llfi_index !873
  %45 = getelementptr inbounds i64, i64* %43, i64 %44, !llfi_index !874
  store i64 %42, i64* %45, align 8, !llfi_index !875
  %46 = load i64, i64* %11, align 8, !llfi_index !876
  store i64 %46, i64* %7, align 8, !llfi_index !877
  br label %16, !llvm.loop !878, !llfi_index !879

47:                                               ; preds = %16
  %48 = load i64, i64* %8, align 8, !llfi_index !880
  %49 = and i64 %48, 1, !llfi_index !881
  %50 = icmp eq i64 %49, 0, !llfi_index !882
  br i1 %50, label %51, label %72, !llfi_index !883

51:                                               ; preds = %47
  %52 = load i64, i64* %11, align 8, !llfi_index !884
  %53 = load i64, i64* %8, align 8, !llfi_index !885
  %54 = sub nsw i64 %53, 2, !llfi_index !886
  %55 = sdiv i64 %54, 2, !llfi_index !887
  %56 = icmp eq i64 %52, %55, !llfi_index !888
  br i1 %56, label %57, label %72, !llfi_index !889

57:                                               ; preds = %51
  %58 = load i64, i64* %11, align 8, !llfi_index !890
  %59 = add nsw i64 %58, 1, !llfi_index !891
  %60 = mul nsw i64 2, %59, !llfi_index !892
  store i64 %60, i64* %11, align 8, !llfi_index !893
  %61 = load i64*, i64** %6, align 8, !llfi_index !894
  %62 = load i64, i64* %11, align 8, !llfi_index !895
  %63 = sub nsw i64 %62, 1, !llfi_index !896
  %64 = getelementptr inbounds i64, i64* %61, i64 %63, !llfi_index !897
  %65 = call nonnull align 8 dereferenceable(8) i64* @_ZSt4moveIRxEONSt16remove_referenceIT_E4typeEOS2_(i64* nonnull align 8 dereferenceable(8) %64) #2, !llfi_index !898
  %66 = load i64, i64* %65, align 8, !llfi_index !899
  %67 = load i64*, i64** %6, align 8, !llfi_index !900
  %68 = load i64, i64* %7, align 8, !llfi_index !901
  %69 = getelementptr inbounds i64, i64* %67, i64 %68, !llfi_index !902
  store i64 %66, i64* %69, align 8, !llfi_index !903
  %70 = load i64, i64* %11, align 8, !llfi_index !904
  %71 = sub nsw i64 %70, 1, !llfi_index !905
  store i64 %71, i64* %7, align 8, !llfi_index !906
  br label %72, !llfi_index !907

72:                                               ; preds = %57, %51, %47
  %73 = call nonnull align 1 dereferenceable(1) %"class.std::ios_base::Init"* @_ZSt4moveIRN9__gnu_cxx5__ops15_Iter_less_iterEEONSt16remove_referenceIT_E4typeEOS5_(%"class.std::ios_base::Init"* nonnull align 1 dereferenceable(1) %5) #2, !llfi_index !908
  call void @_ZN9__gnu_cxx5__ops14_Iter_less_valC2ENS0_15_Iter_less_iterE(%"class.std::ios_base::Init"* nonnull align 1 dereferenceable(1) %12), !llfi_index !909
  %74 = load i64*, i64** %6, align 8, !llfi_index !910
  %75 = load i64, i64* %7, align 8, !llfi_index !911
  %76 = load i64, i64* %10, align 8, !llfi_index !912
  %77 = call nonnull align 8 dereferenceable(8) i64* @_ZSt4moveIRxEONSt16remove_referenceIT_E4typeEOS2_(i64* nonnull align 8 dereferenceable(8) %9) #2, !llfi_index !913
  %78 = load i64, i64* %77, align 8, !llfi_index !914
  call void @_ZSt11__push_heapIPxlxN9__gnu_cxx5__ops14_Iter_less_valEEvT_T0_S5_T1_RT2_(i64* %74, i64 %75, i64 %76, i64 %78, %"class.std::ios_base::Init"* nonnull align 1 dereferenceable(1) %12), !llfi_index !915
  ret void, !llfi_index !916
}

; Function Attrs: mustprogress noinline nounwind uwtable
define linkonce_odr dso_local nonnull align 1 dereferenceable(1) %"class.std::ios_base::Init"* @_ZSt4moveIRN9__gnu_cxx5__ops15_Iter_less_iterEEONSt16remove_referenceIT_E4typeEOS5_(%"class.std::ios_base::Init"* nonnull align 1 dereferenceable(1) %0) #4 comdat {
  %2 = alloca %"class.std::ios_base::Init"*, align 8, !llfi_index !917
  store %"class.std::ios_base::Init"* %0, %"class.std::ios_base::Init"** %2, align 8, !llfi_index !918
  %3 = load %"class.std::ios_base::Init"*, %"class.std::ios_base::Init"** %2, align 8, !llfi_index !919
  ret %"class.std::ios_base::Init"* %3, !llfi_index !920
}

; Function Attrs: noinline nounwind uwtable
define linkonce_odr dso_local void @_ZN9__gnu_cxx5__ops14_Iter_less_valC2ENS0_15_Iter_less_iterE(%"class.std::ios_base::Init"* nonnull align 1 dereferenceable(1) %0) unnamed_addr #8 comdat align 2 {
  %2 = alloca %"class.std::ios_base::Init", align 1, !llfi_index !921
  %3 = alloca %"class.std::ios_base::Init"*, align 8, !llfi_index !922
  store %"class.std::ios_base::Init"* %0, %"class.std::ios_base::Init"** %3, align 8, !llfi_index !923
  %4 = load %"class.std::ios_base::Init"*, %"class.std::ios_base::Init"** %3, align 8, !llfi_index !924
  ret void, !llfi_index !925
}

; Function Attrs: mustprogress noinline uwtable
define linkonce_odr dso_local void @_ZSt11__push_heapIPxlxN9__gnu_cxx5__ops14_Iter_less_valEEvT_T0_S5_T1_RT2_(i64* %0, i64 %1, i64 %2, i64 %3, %"class.std::ios_base::Init"* nonnull align 1 dereferenceable(1) %4) #6 comdat {
  %6 = alloca i64*, align 8, !llfi_index !926
  %7 = alloca i64, align 8, !llfi_index !927
  %8 = alloca i64, align 8, !llfi_index !928
  %9 = alloca i64, align 8, !llfi_index !929
  %10 = alloca %"class.std::ios_base::Init"*, align 8, !llfi_index !930
  %11 = alloca i64, align 8, !llfi_index !931
  store i64* %0, i64** %6, align 8, !llfi_index !932
  store i64 %1, i64* %7, align 8, !llfi_index !933
  store i64 %2, i64* %8, align 8, !llfi_index !934
  store i64 %3, i64* %9, align 8, !llfi_index !935
  store %"class.std::ios_base::Init"* %4, %"class.std::ios_base::Init"** %10, align 8, !llfi_index !936
  %12 = load i64, i64* %7, align 8, !llfi_index !937
  %13 = sub nsw i64 %12, 1, !llfi_index !938
  %14 = sdiv i64 %13, 2, !llfi_index !939
  store i64 %14, i64* %11, align 8, !llfi_index !940
  br label %15, !llfi_index !941

15:                                               ; preds = %27, %5
  %16 = load i64, i64* %7, align 8, !llfi_index !942
  %17 = load i64, i64* %8, align 8, !llfi_index !943
  %18 = icmp sgt i64 %16, %17, !llfi_index !944
  br i1 %18, label %19, label %25, !llfi_index !945

19:                                               ; preds = %15
  %20 = load %"class.std::ios_base::Init"*, %"class.std::ios_base::Init"** %10, align 8, !llfi_index !946
  %21 = load i64*, i64** %6, align 8, !llfi_index !947
  %22 = load i64, i64* %11, align 8, !llfi_index !948
  %23 = getelementptr inbounds i64, i64* %21, i64 %22, !llfi_index !949
  %24 = call zeroext i1 @_ZNK9__gnu_cxx5__ops14_Iter_less_valclIPxxEEbT_RT0_(%"class.std::ios_base::Init"* nonnull align 1 dereferenceable(1) %20, i64* %23, i64* nonnull align 8 dereferenceable(8) %9), !llfi_index !950
  br label %25, !llfi_index !951

25:                                               ; preds = %19, %15
  %26 = phi i1 [ false, %15 ], [ %24, %19 ], !llfi_index !952
  br i1 %26, label %27, label %40, !llfi_index !953

27:                                               ; preds = %25
  %28 = load i64*, i64** %6, align 8, !llfi_index !954
  %29 = load i64, i64* %11, align 8, !llfi_index !955
  %30 = getelementptr inbounds i64, i64* %28, i64 %29, !llfi_index !956
  %31 = call nonnull align 8 dereferenceable(8) i64* @_ZSt4moveIRxEONSt16remove_referenceIT_E4typeEOS2_(i64* nonnull align 8 dereferenceable(8) %30) #2, !llfi_index !957
  %32 = load i64, i64* %31, align 8, !llfi_index !958
  %33 = load i64*, i64** %6, align 8, !llfi_index !959
  %34 = load i64, i64* %7, align 8, !llfi_index !960
  %35 = getelementptr inbounds i64, i64* %33, i64 %34, !llfi_index !961
  store i64 %32, i64* %35, align 8, !llfi_index !962
  %36 = load i64, i64* %11, align 8, !llfi_index !963
  store i64 %36, i64* %7, align 8, !llfi_index !964
  %37 = load i64, i64* %7, align 8, !llfi_index !965
  %38 = sub nsw i64 %37, 1, !llfi_index !966
  %39 = sdiv i64 %38, 2, !llfi_index !967
  store i64 %39, i64* %11, align 8, !llfi_index !968
  br label %15, !llvm.loop !969, !llfi_index !970

40:                                               ; preds = %25
  %41 = call nonnull align 8 dereferenceable(8) i64* @_ZSt4moveIRxEONSt16remove_referenceIT_E4typeEOS2_(i64* nonnull align 8 dereferenceable(8) %9) #2, !llfi_index !971
  %42 = load i64, i64* %41, align 8, !llfi_index !972
  %43 = load i64*, i64** %6, align 8, !llfi_index !973
  %44 = load i64, i64* %7, align 8, !llfi_index !974
  %45 = getelementptr inbounds i64, i64* %43, i64 %44, !llfi_index !975
  store i64 %42, i64* %45, align 8, !llfi_index !976
  ret void, !llfi_index !977
}

; Function Attrs: mustprogress noinline nounwind uwtable
define linkonce_odr dso_local zeroext i1 @_ZNK9__gnu_cxx5__ops14_Iter_less_valclIPxxEEbT_RT0_(%"class.std::ios_base::Init"* nonnull align 1 dereferenceable(1) %0, i64* %1, i64* nonnull align 8 dereferenceable(8) %2) #4 comdat align 2 {
  %4 = alloca %"class.std::ios_base::Init"*, align 8, !llfi_index !978
  %5 = alloca i64*, align 8, !llfi_index !979
  %6 = alloca i64*, align 8, !llfi_index !980
  store %"class.std::ios_base::Init"* %0, %"class.std::ios_base::Init"** %4, align 8, !llfi_index !981
  store i64* %1, i64** %5, align 8, !llfi_index !982
  store i64* %2, i64** %6, align 8, !llfi_index !983
  %7 = load %"class.std::ios_base::Init"*, %"class.std::ios_base::Init"** %4, align 8, !llfi_index !984
  %8 = load i64*, i64** %5, align 8, !llfi_index !985
  %9 = load i64, i64* %8, align 8, !llfi_index !986
  %10 = load i64*, i64** %6, align 8, !llfi_index !987
  %11 = load i64, i64* %10, align 8, !llfi_index !988
  %12 = icmp slt i64 %9, %11, !llfi_index !989
  ret i1 %12, !llfi_index !990
}

; Function Attrs: mustprogress noinline uwtable
define linkonce_odr dso_local void @_ZSt11__make_heapIPxN9__gnu_cxx5__ops15_Iter_less_iterEEvT_S4_RT0_(i64* %0, i64* %1, %"class.std::ios_base::Init"* nonnull align 1 dereferenceable(1) %2) #6 comdat {
  %4 = alloca i64*, align 8, !llfi_index !991
  %5 = alloca i64*, align 8, !llfi_index !992
  %6 = alloca %"class.std::ios_base::Init"*, align 8, !llfi_index !993
  %7 = alloca i64, align 8, !llfi_index !994
  %8 = alloca i64, align 8, !llfi_index !995
  %9 = alloca i64, align 8, !llfi_index !996
  %10 = alloca %"class.std::ios_base::Init", align 1, !llfi_index !997
  store i64* %0, i64** %4, align 8, !llfi_index !998
  store i64* %1, i64** %5, align 8, !llfi_index !999
  store %"class.std::ios_base::Init"* %2, %"class.std::ios_base::Init"** %6, align 8, !llfi_index !1000
  %11 = load i64*, i64** %5, align 8, !llfi_index !1001
  %12 = load i64*, i64** %4, align 8, !llfi_index !1002
  %13 = ptrtoint i64* %11 to i64, !llfi_index !1003
  %14 = ptrtoint i64* %12 to i64, !llfi_index !1004
  %15 = sub i64 %13, %14, !llfi_index !1005
  %16 = sdiv exact i64 %15, 8, !llfi_index !1006
  %17 = icmp slt i64 %16, 2, !llfi_index !1007
  br i1 %17, label %18, label %19, !llfi_index !1008

18:                                               ; preds = %3
  br label %47, !llfi_index !1009

19:                                               ; preds = %3
  %20 = load i64*, i64** %5, align 8, !llfi_index !1010
  %21 = load i64*, i64** %4, align 8, !llfi_index !1011
  %22 = ptrtoint i64* %20 to i64, !llfi_index !1012
  %23 = ptrtoint i64* %21 to i64, !llfi_index !1013
  %24 = sub i64 %22, %23, !llfi_index !1014
  %25 = sdiv exact i64 %24, 8, !llfi_index !1015
  store i64 %25, i64* %7, align 8, !llfi_index !1016
  %26 = load i64, i64* %7, align 8, !llfi_index !1017
  %27 = sub nsw i64 %26, 2, !llfi_index !1018
  %28 = sdiv i64 %27, 2, !llfi_index !1019
  store i64 %28, i64* %8, align 8, !llfi_index !1020
  br label %29, !llfi_index !1021

29:                                               ; preds = %44, %19
  %30 = load i64*, i64** %4, align 8, !llfi_index !1022
  %31 = load i64, i64* %8, align 8, !llfi_index !1023
  %32 = getelementptr inbounds i64, i64* %30, i64 %31, !llfi_index !1024
  %33 = call nonnull align 8 dereferenceable(8) i64* @_ZSt4moveIRxEONSt16remove_referenceIT_E4typeEOS2_(i64* nonnull align 8 dereferenceable(8) %32) #2, !llfi_index !1025
  %34 = load i64, i64* %33, align 8, !llfi_index !1026
  store i64 %34, i64* %9, align 8, !llfi_index !1027
  %35 = load i64*, i64** %4, align 8, !llfi_index !1028
  %36 = load i64, i64* %8, align 8, !llfi_index !1029
  %37 = load i64, i64* %7, align 8, !llfi_index !1030
  %38 = call nonnull align 8 dereferenceable(8) i64* @_ZSt4moveIRxEONSt16remove_referenceIT_E4typeEOS2_(i64* nonnull align 8 dereferenceable(8) %9) #2, !llfi_index !1031
  %39 = load i64, i64* %38, align 8, !llfi_index !1032
  %40 = load %"class.std::ios_base::Init"*, %"class.std::ios_base::Init"** %6, align 8, !llfi_index !1033
  call void @_ZSt13__adjust_heapIPxlxN9__gnu_cxx5__ops15_Iter_less_iterEEvT_T0_S5_T1_T2_(i64* %35, i64 %36, i64 %37, i64 %39), !llfi_index !1034
  %41 = load i64, i64* %8, align 8, !llfi_index !1035
  %42 = icmp eq i64 %41, 0, !llfi_index !1036
  br i1 %42, label %43, label %44, !llfi_index !1037

43:                                               ; preds = %29
  br label %47, !llfi_index !1038

44:                                               ; preds = %29
  %45 = load i64, i64* %8, align 8, !llfi_index !1039
  %46 = add nsw i64 %45, -1, !llfi_index !1040
  store i64 %46, i64* %8, align 8, !llfi_index !1041
  br label %29, !llvm.loop !1042, !llfi_index !1043

47:                                               ; preds = %43, %18
  ret void, !llfi_index !1044
}

; Function Attrs: nofree nosync nounwind readnone speculatable willreturn
declare i64 @llvm.ctlz.i64(i64, i1 immarg) #9

attributes #0 = { noinline uwtable "frame-pointer"="all" "min-legal-vector-width"="0" "no-trapping-math"="true" "stack-protector-buffer-size"="8" "target-cpu"="x86-64" "target-features"="+cx8,+fxsr,+mmx,+sse,+sse2,+x87" "tune-cpu"="generic" }
attributes #1 = { "frame-pointer"="all" "no-trapping-math"="true" "stack-protector-buffer-size"="8" "target-cpu"="x86-64" "target-features"="+cx8,+fxsr,+mmx,+sse,+sse2,+x87" "tune-cpu"="generic" }
attributes #2 = { nounwind }
attributes #3 = { nounwind "frame-pointer"="all" "no-trapping-math"="true" "stack-protector-buffer-size"="8" "target-cpu"="x86-64" "target-features"="+cx8,+fxsr,+mmx,+sse,+sse2,+x87" "tune-cpu"="generic" }
attributes #4 = { mustprogress noinline nounwind uwtable "frame-pointer"="all" "min-legal-vector-width"="0" "no-trapping-math"="true" "stack-protector-buffer-size"="8" "target-cpu"="x86-64" "target-features"="+cx8,+fxsr,+mmx,+sse,+sse2,+x87" "tune-cpu"="generic" }
attributes #5 = { mustprogress noinline norecurse uwtable "frame-pointer"="all" "min-legal-vector-width"="0" "no-trapping-math"="true" "stack-protector-buffer-size"="8" "target-cpu"="x86-64" "target-features"="+cx8,+fxsr,+mmx,+sse,+sse2,+x87" "tune-cpu"="generic" }
attributes #6 = { mustprogress noinline uwtable "frame-pointer"="all" "min-legal-vector-width"="0" "no-trapping-math"="true" "stack-protector-buffer-size"="8" "target-cpu"="x86-64" "target-features"="+cx8,+fxsr,+mmx,+sse,+sse2,+x87" "tune-cpu"="generic" }
attributes #7 = { argmemonly nofree nounwind willreturn }
attributes #8 = { noinline nounwind uwtable "frame-pointer"="all" "min-legal-vector-width"="0" "no-trapping-math"="true" "stack-protector-buffer-size"="8" "target-cpu"="x86-64" "target-features"="+cx8,+fxsr,+mmx,+sse,+sse2,+x87" "tune-cpu"="generic" }
attributes #9 = { nofree nosync nounwind readnone speculatable willreturn }

!llvm.ident = !{!0}
!llvm.module.flags = !{!1, !2, !3}

!0 = !{!"clang version 13.0.0 (https://github.com/llvm/llvm-project.git d7b669b3a30345cfcdb2fde2af6f48aa4b94845d)"}
!1 = !{i32 1, !"wchar_size", i32 4}
!2 = !{i32 7, !"uwtable", i32 1}
!3 = !{i32 7, !"frame-pointer", i32 2}
!4 = !{i64 1}
!5 = !{i64 2}
!6 = !{i64 3}
!7 = !{i64 4}
!8 = !{i64 5}
!9 = !{i64 6}
!10 = !{i64 7}
!11 = !{i64 8}
!12 = !{i64 9}
!13 = !{i64 10}
!14 = !{i64 11}
!15 = !{i64 12}
!16 = !{i64 13}
!17 = !{i64 14}
!18 = !{i64 15}
!19 = !{i64 16}
!20 = !{i64 17}
!21 = !{i64 18}
!22 = !{i64 19}
!23 = !{i64 20}
!24 = !{i64 21}
!25 = !{i64 22}
!26 = !{i64 23}
!27 = !{i64 24}
!28 = !{i64 25}
!29 = !{i64 26}
!30 = !{i64 27}
!31 = !{i64 28}
!32 = !{i64 29}
!33 = !{i64 30}
!34 = !{i64 31}
!35 = !{i64 32}
!36 = !{i64 33}
!37 = !{i64 34}
!38 = !{i64 35}
!39 = !{i64 36}
!40 = !{i64 37}
!41 = !{i64 38}
!42 = !{i64 39}
!43 = !{i64 40}
!44 = !{i64 41}
!45 = !{i64 42}
!46 = !{i64 43}
!47 = !{i64 44}
!48 = !{i64 45}
!49 = !{i64 46}
!50 = !{i64 47}
!51 = !{i64 48}
!52 = !{i64 49}
!53 = !{i64 50}
!54 = !{i64 51}
!55 = !{i64 52}
!56 = !{i64 53}
!57 = !{i64 54}
!58 = !{i64 55}
!59 = !{i64 56}
!60 = distinct !{!60, !61}
!61 = !{!"llvm.loop.mustprogress"}
!62 = !{i64 57}
!63 = !{i64 58}
!64 = !{i64 59}
!65 = !{i64 60}
!66 = !{i64 61}
!67 = !{i64 62}
!68 = !{i64 63}
!69 = !{i64 64}
!70 = !{i64 65}
!71 = !{i64 66}
!72 = !{i64 67}
!73 = !{i64 68}
!74 = !{i64 69}
!75 = !{i64 70}
!76 = !{i64 71}
!77 = !{i64 72}
!78 = !{i64 73}
!79 = !{i64 74}
!80 = !{i64 75}
!81 = !{i64 76}
!82 = !{i64 77}
!83 = !{i64 78}
!84 = !{i64 79}
!85 = !{i64 80}
!86 = !{i64 81}
!87 = !{i64 82}
!88 = !{i64 83}
!89 = !{i64 84}
!90 = !{i64 85}
!91 = !{i64 86}
!92 = !{i64 87}
!93 = distinct !{!93, !61}
!94 = !{i64 88}
!95 = !{i64 89}
!96 = !{i64 90}
!97 = !{i64 91}
!98 = !{i64 92}
!99 = !{i64 93}
!100 = !{i64 94}
!101 = !{i64 95}
!102 = !{i64 96}
!103 = !{i64 97}
!104 = !{i64 98}
!105 = !{i64 99}
!106 = !{i64 100}
!107 = !{i64 101}
!108 = !{i64 102}
!109 = !{i64 103}
!110 = !{i64 104}
!111 = !{i64 105}
!112 = !{i64 106}
!113 = !{i64 107}
!114 = !{i64 108}
!115 = !{i64 109}
!116 = !{i64 110}
!117 = !{i64 111}
!118 = distinct !{!118, !61}
!119 = !{i64 112}
!120 = !{i64 113}
!121 = !{i64 114}
!122 = !{i64 115}
!123 = !{i64 116}
!124 = !{i64 117}
!125 = !{i64 118}
!126 = !{i64 119}
!127 = !{i64 120}
!128 = !{i64 121}
!129 = !{i64 122}
!130 = !{i64 123}
!131 = !{i64 124}
!132 = !{i64 125}
!133 = !{i64 126}
!134 = !{i64 127}
!135 = !{i64 128}
!136 = !{i64 129}
!137 = !{i64 130}
!138 = !{i64 131}
!139 = !{i64 132}
!140 = !{i64 133}
!141 = !{i64 134}
!142 = !{i64 135}
!143 = !{i64 136}
!144 = !{i64 137}
!145 = !{i64 138}
!146 = !{i64 139}
!147 = !{i64 140}
!148 = !{i64 141}
!149 = !{i64 142}
!150 = !{i64 143}
!151 = !{i64 144}
!152 = !{i64 145}
!153 = !{i64 146}
!154 = !{i64 147}
!155 = !{i64 148}
!156 = !{i64 149}
!157 = !{i64 150}
!158 = !{i64 151}
!159 = !{i64 152}
!160 = !{i64 153}
!161 = !{i64 154}
!162 = !{i64 155}
!163 = !{i64 156}
!164 = !{i64 157}
!165 = !{i64 158}
!166 = !{i64 159}
!167 = !{i64 160}
!168 = !{i64 161}
!169 = !{i64 162}
!170 = !{i64 163}
!171 = !{i64 164}
!172 = !{i64 165}
!173 = !{i64 166}
!174 = !{i64 167}
!175 = !{i64 168}
!176 = !{i64 169}
!177 = !{i64 170}
!178 = !{i64 171}
!179 = !{i64 172}
!180 = distinct !{!180, !61}
!181 = !{i64 173}
!182 = !{i64 174}
!183 = !{i64 175}
!184 = !{i64 176}
!185 = !{i64 177}
!186 = !{i64 178}
!187 = !{i64 179}
!188 = !{i64 180}
!189 = !{i64 181}
!190 = !{i64 182}
!191 = !{i64 183}
!192 = !{i64 184}
!193 = !{i64 185}
!194 = !{i64 186}
!195 = !{i64 187}
!196 = !{i64 188}
!197 = !{i64 189}
!198 = !{i64 190}
!199 = !{i64 191}
!200 = !{i64 192}
!201 = !{i64 193}
!202 = !{i64 194}
!203 = !{i64 195}
!204 = !{i64 196}
!205 = !{i64 197}
!206 = !{i64 198}
!207 = !{i64 199}
!208 = !{i64 200}
!209 = !{i64 201}
!210 = !{i64 202}
!211 = !{i64 203}
!212 = !{i64 204}
!213 = !{i64 205}
!214 = !{i64 206}
!215 = !{i64 207}
!216 = !{i64 208}
!217 = !{i64 209}
!218 = !{i64 210}
!219 = !{i64 211}
!220 = !{i64 212}
!221 = !{i64 213}
!222 = !{i64 214}
!223 = !{i64 215}
!224 = !{i64 216}
!225 = !{i64 217}
!226 = !{i64 218}
!227 = !{i64 219}
!228 = !{i64 220}
!229 = !{i64 221}
!230 = !{i64 222}
!231 = !{i64 223}
!232 = !{i64 224}
!233 = !{i64 225}
!234 = !{i64 226}
!235 = !{i64 227}
!236 = !{i64 228}
!237 = !{i64 229}
!238 = !{i64 230}
!239 = !{i64 231}
!240 = !{i64 232}
!241 = !{i64 233}
!242 = !{i64 234}
!243 = !{i64 235}
!244 = !{i64 236}
!245 = !{i64 237}
!246 = !{i64 238}
!247 = !{i64 239}
!248 = !{i64 240}
!249 = !{i64 241}
!250 = !{i64 242}
!251 = !{i64 243}
!252 = !{i64 244}
!253 = !{i64 245}
!254 = !{i64 246}
!255 = !{i64 247}
!256 = !{i64 248}
!257 = !{i64 249}
!258 = !{i64 250}
!259 = !{i64 251}
!260 = !{i64 252}
!261 = !{i64 253}
!262 = !{i64 254}
!263 = !{i64 255}
!264 = !{i64 256}
!265 = !{i64 257}
!266 = !{i64 258}
!267 = !{i64 259}
!268 = !{i64 260}
!269 = !{i64 261}
!270 = !{i64 262}
!271 = !{i64 263}
!272 = !{i64 264}
!273 = !{i64 265}
!274 = !{i64 266}
!275 = !{i64 267}
!276 = !{i64 268}
!277 = !{i64 269}
!278 = !{i64 270}
!279 = !{i64 271}
!280 = !{i64 272}
!281 = !{i64 273}
!282 = !{i64 274}
!283 = !{i64 275}
!284 = !{i64 276}
!285 = !{i64 277}
!286 = !{i64 278}
!287 = !{i64 279}
!288 = !{i64 280}
!289 = !{i64 281}
!290 = !{i64 282}
!291 = !{i64 283}
!292 = distinct !{!292, !61}
!293 = !{i64 284}
!294 = !{i64 285}
!295 = !{i64 286}
!296 = !{i64 287}
!297 = !{i64 288}
!298 = !{i64 289}
!299 = !{i64 290}
!300 = !{i64 291}
!301 = !{i64 292}
!302 = !{i64 293}
!303 = !{i64 294}
!304 = !{i64 295}
!305 = !{i64 296}
!306 = !{i64 297}
!307 = !{i64 298}
!308 = !{i64 299}
!309 = !{i64 300}
!310 = !{i64 301}
!311 = !{i64 302}
!312 = !{i64 303}
!313 = !{i64 304}
!314 = !{i64 305}
!315 = !{i64 306}
!316 = !{i64 307}
!317 = !{i64 308}
!318 = !{i64 309}
!319 = !{i64 310}
!320 = !{i64 311}
!321 = !{i64 312}
!322 = !{i64 313}
!323 = !{i64 314}
!324 = !{i64 315}
!325 = !{i64 316}
!326 = !{i64 317}
!327 = !{i64 318}
!328 = !{i64 319}
!329 = !{i64 320}
!330 = !{i64 321}
!331 = !{i64 322}
!332 = !{i64 323}
!333 = !{i64 324}
!334 = !{i64 325}
!335 = !{i64 326}
!336 = !{i64 327}
!337 = !{i64 328}
!338 = !{i64 329}
!339 = !{i64 330}
!340 = !{i64 331}
!341 = !{i64 332}
!342 = !{i64 333}
!343 = !{i64 334}
!344 = !{i64 335}
!345 = !{i64 336}
!346 = !{i64 337}
!347 = !{i64 338}
!348 = !{i64 339}
!349 = !{i64 340}
!350 = !{i64 341}
!351 = !{i64 342}
!352 = !{i64 343}
!353 = !{i64 344}
!354 = !{i64 345}
!355 = !{i64 346}
!356 = !{i64 347}
!357 = !{i64 348}
!358 = !{i64 349}
!359 = !{i64 350}
!360 = !{i64 351}
!361 = !{i64 352}
!362 = !{i64 353}
!363 = !{i64 354}
!364 = !{i64 355}
!365 = !{i64 356}
!366 = !{i64 357}
!367 = !{i64 358}
!368 = !{i64 359}
!369 = !{i64 360}
!370 = !{i64 361}
!371 = !{i64 362}
!372 = !{i64 363}
!373 = !{i64 364}
!374 = distinct !{!374, !61}
!375 = !{i64 365}
!376 = !{i64 366}
!377 = !{i64 367}
!378 = !{i64 368}
!379 = !{i64 369}
!380 = !{i64 370}
!381 = !{i64 371}
!382 = !{i64 372}
!383 = !{i64 373}
!384 = !{i64 374}
!385 = !{i64 375}
!386 = !{i64 376}
!387 = !{i64 377}
!388 = !{i64 378}
!389 = !{i64 379}
!390 = !{i64 380}
!391 = !{i64 381}
!392 = !{i64 382}
!393 = !{i64 383}
!394 = !{i64 384}
!395 = !{i64 385}
!396 = !{i64 386}
!397 = !{i64 387}
!398 = !{i64 388}
!399 = !{i64 389}
!400 = distinct !{!400, !61}
!401 = !{i64 390}
!402 = !{i64 391}
!403 = !{i64 392}
!404 = !{i64 393}
!405 = !{i64 394}
!406 = !{i64 395}
!407 = !{i64 396}
!408 = !{i64 397}
!409 = !{i64 398}
!410 = !{i64 399}
!411 = !{i64 400}
!412 = !{i64 401}
!413 = !{i64 402}
!414 = !{i64 403}
!415 = !{i64 404}
!416 = !{i64 405}
!417 = !{i64 406}
!418 = !{i64 407}
!419 = !{i64 408}
!420 = !{i64 409}
!421 = !{i64 410}
!422 = !{i64 411}
!423 = !{i64 412}
!424 = !{i64 413}
!425 = !{i64 414}
!426 = !{i64 415}
!427 = !{i64 416}
!428 = !{i64 417}
!429 = !{i64 418}
!430 = !{i64 419}
!431 = !{i64 420}
!432 = !{i64 421}
!433 = distinct !{!433, !61}
!434 = !{i64 422}
!435 = !{i64 423}
!436 = !{i64 424}
!437 = !{i64 425}
!438 = !{i64 426}
!439 = !{i64 427}
!440 = !{i64 428}
!441 = !{i64 429}
!442 = !{i64 430}
!443 = !{i64 431}
!444 = !{i64 432}
!445 = !{i64 433}
!446 = !{i64 434}
!447 = !{i64 435}
!448 = !{i64 436}
!449 = !{i64 437}
!450 = !{i64 438}
!451 = !{i64 439}
!452 = !{i64 440}
!453 = !{i64 441}
!454 = !{i64 442}
!455 = !{i64 443}
!456 = !{i64 444}
!457 = !{i64 445}
!458 = !{i64 446}
!459 = !{i64 447}
!460 = !{i64 448}
!461 = !{i64 449}
!462 = !{i64 450}
!463 = !{i64 451}
!464 = !{i64 452}
!465 = !{i64 453}
!466 = !{i64 454}
!467 = !{i64 455}
!468 = !{i64 456}
!469 = !{i64 457}
!470 = !{i64 458}
!471 = !{i64 459}
!472 = !{i64 460}
!473 = !{i64 461}
!474 = !{i64 462}
!475 = !{i64 463}
!476 = !{i64 464}
!477 = !{i64 465}
!478 = !{i64 466}
!479 = !{i64 467}
!480 = !{i64 468}
!481 = !{i64 469}
!482 = !{i64 470}
!483 = !{i64 471}
!484 = !{i64 472}
!485 = !{i64 473}
!486 = !{i64 474}
!487 = !{i64 475}
!488 = !{i64 476}
!489 = !{i64 477}
!490 = !{i64 478}
!491 = !{i64 479}
!492 = !{i64 480}
!493 = !{i64 481}
!494 = !{i64 482}
!495 = !{i64 483}
!496 = !{i64 484}
!497 = !{i64 485}
!498 = !{i64 486}
!499 = !{i64 487}
!500 = !{i64 488}
!501 = !{i64 489}
!502 = !{i64 490}
!503 = !{i64 491}
!504 = !{i64 492}
!505 = !{i64 493}
!506 = !{i64 494}
!507 = !{i64 495}
!508 = !{i64 496}
!509 = !{i64 497}
!510 = !{i64 498}
!511 = !{i64 499}
!512 = !{i64 500}
!513 = !{i64 501}
!514 = !{i64 502}
!515 = !{i64 503}
!516 = !{i64 504}
!517 = !{i64 505}
!518 = !{i64 506}
!519 = !{i64 507}
!520 = !{i64 508}
!521 = !{i64 509}
!522 = !{i64 510}
!523 = !{i64 511}
!524 = !{i64 512}
!525 = !{i64 513}
!526 = !{i64 514}
!527 = !{i64 515}
!528 = !{i64 516}
!529 = !{i64 517}
!530 = !{i64 518}
!531 = !{i64 519}
!532 = !{i64 520}
!533 = !{i64 521}
!534 = !{i64 522}
!535 = !{i64 523}
!536 = !{i64 524}
!537 = !{i64 525}
!538 = !{i64 526}
!539 = !{i64 527}
!540 = !{i64 528}
!541 = !{i64 529}
!542 = !{i64 530}
!543 = !{i64 531}
!544 = !{i64 532}
!545 = !{i64 533}
!546 = !{i64 534}
!547 = !{i64 535}
!548 = !{i64 536}
!549 = !{i64 537}
!550 = !{i64 538}
!551 = !{i64 539}
!552 = !{i64 540}
!553 = !{i64 541}
!554 = !{i64 542}
!555 = !{i64 543}
!556 = !{i64 544}
!557 = !{i64 545}
!558 = !{i64 546}
!559 = !{i64 547}
!560 = !{i64 548}
!561 = !{i64 549}
!562 = !{i64 550}
!563 = !{i64 551}
!564 = !{i64 552}
!565 = !{i64 553}
!566 = !{i64 554}
!567 = !{i64 555}
!568 = !{i64 556}
!569 = !{i64 557}
!570 = !{i64 558}
!571 = !{i64 559}
!572 = !{i64 560}
!573 = !{i64 561}
!574 = !{i64 562}
!575 = !{i64 563}
!576 = !{i64 564}
!577 = !{i64 565}
!578 = !{i64 566}
!579 = !{i64 567}
!580 = !{i64 568}
!581 = !{i64 569}
!582 = !{i64 570}
!583 = !{i64 571}
!584 = !{i64 572}
!585 = !{i64 573}
!586 = !{i64 574}
!587 = !{i64 575}
!588 = !{i64 576}
!589 = !{i64 577}
!590 = !{i64 578}
!591 = !{i64 579}
!592 = !{i64 580}
!593 = !{i64 581}
!594 = !{i64 582}
!595 = !{i64 583}
!596 = !{i64 584}
!597 = !{i64 585}
!598 = !{i64 586}
!599 = !{i64 587}
!600 = !{i64 588}
!601 = !{i64 589}
!602 = !{i64 590}
!603 = !{i64 591}
!604 = !{i64 592}
!605 = !{i64 593}
!606 = !{i64 594}
!607 = !{i64 595}
!608 = !{i64 596}
!609 = !{i64 597}
!610 = !{i64 598}
!611 = !{i64 599}
!612 = !{i64 600}
!613 = !{i64 601}
!614 = !{i64 602}
!615 = !{i64 603}
!616 = !{i64 604}
!617 = !{i64 605}
!618 = !{i64 606}
!619 = !{i64 607}
!620 = !{i64 608}
!621 = !{i64 609}
!622 = !{i64 610}
!623 = !{i64 611}
!624 = !{i64 612}
!625 = !{i64 613}
!626 = !{i64 614}
!627 = !{i64 615}
!628 = !{i64 616}
!629 = !{i64 617}
!630 = !{i64 618}
!631 = !{i64 619}
!632 = !{i64 620}
!633 = !{i64 621}
!634 = !{i64 622}
!635 = !{i64 623}
!636 = !{i64 624}
!637 = !{i64 625}
!638 = !{i64 626}
!639 = !{i64 627}
!640 = !{i64 628}
!641 = !{i64 629}
!642 = !{i64 630}
!643 = !{i64 631}
!644 = !{i64 632}
!645 = !{i64 633}
!646 = !{i64 634}
!647 = !{i64 635}
!648 = !{i64 636}
!649 = !{i64 637}
!650 = !{i64 638}
!651 = !{i64 639}
!652 = !{i64 640}
!653 = !{i64 641}
!654 = !{i64 642}
!655 = !{i64 643}
!656 = !{i64 644}
!657 = !{i64 645}
!658 = !{i64 646}
!659 = !{i64 647}
!660 = !{i64 648}
!661 = !{i64 649}
!662 = !{i64 650}
!663 = !{i64 651}
!664 = !{i64 652}
!665 = !{i64 653}
!666 = !{i64 654}
!667 = !{i64 655}
!668 = !{i64 656}
!669 = !{i64 657}
!670 = !{i64 658}
!671 = !{i64 659}
!672 = !{i64 660}
!673 = !{i64 661}
!674 = !{i64 662}
!675 = !{i64 663}
!676 = !{i64 664}
!677 = !{i64 665}
!678 = !{i64 666}
!679 = distinct !{!679, !61}
!680 = !{i64 667}
!681 = !{i64 668}
!682 = !{i64 669}
!683 = !{i64 670}
!684 = !{i64 671}
!685 = !{i64 672}
!686 = !{i64 673}
!687 = !{i64 674}
!688 = !{i64 675}
!689 = !{i64 676}
!690 = !{i64 677}
!691 = !{i64 678}
!692 = distinct !{!692, !61}
!693 = !{i64 679}
!694 = !{i64 680}
!695 = !{i64 681}
!696 = !{i64 682}
!697 = !{i64 683}
!698 = !{i64 684}
!699 = !{i64 685}
!700 = !{i64 686}
!701 = !{i64 687}
!702 = !{i64 688}
!703 = !{i64 689}
!704 = !{i64 690}
!705 = !{i64 691}
!706 = distinct !{!706, !61}
!707 = !{i64 692}
!708 = !{i64 693}
!709 = !{i64 694}
!710 = !{i64 695}
!711 = !{i64 696}
!712 = !{i64 697}
!713 = !{i64 698}
!714 = !{i64 699}
!715 = !{i64 700}
!716 = !{i64 701}
!717 = !{i64 702}
!718 = !{i64 703}
!719 = !{i64 704}
!720 = !{i64 705}
!721 = !{i64 706}
!722 = !{i64 707}
!723 = !{i64 708}
!724 = !{i64 709}
!725 = !{i64 710}
!726 = !{i64 711}
!727 = !{i64 712}
!728 = !{i64 713}
!729 = !{i64 714}
!730 = !{i64 715}
!731 = !{i64 716}
!732 = !{i64 717}
!733 = !{i64 718}
!734 = !{i64 719}
!735 = !{i64 720}
!736 = !{i64 721}
!737 = !{i64 722}
!738 = !{i64 723}
!739 = !{i64 724}
!740 = !{i64 725}
!741 = !{i64 726}
!742 = !{i64 727}
!743 = !{i64 728}
!744 = !{i64 729}
!745 = !{i64 730}
!746 = !{i64 731}
!747 = !{i64 732}
!748 = !{i64 733}
!749 = !{i64 734}
!750 = !{i64 735}
!751 = !{i64 736}
!752 = !{i64 737}
!753 = !{i64 738}
!754 = !{i64 739}
!755 = !{i64 740}
!756 = !{i64 741}
!757 = !{i64 742}
!758 = !{i64 743}
!759 = !{i64 744}
!760 = !{i64 745}
!761 = !{i64 746}
!762 = !{i64 747}
!763 = !{i64 748}
!764 = !{i64 749}
!765 = !{i64 750}
!766 = distinct !{!766, !61}
!767 = !{i64 751}
!768 = !{i64 752}
!769 = !{i64 753}
!770 = !{i64 754}
!771 = !{i64 755}
!772 = !{i64 756}
!773 = !{i64 757}
!774 = !{i64 758}
!775 = !{i64 759}
!776 = !{i64 760}
!777 = !{i64 761}
!778 = !{i64 762}
!779 = !{i64 763}
!780 = !{i64 764}
!781 = !{i64 765}
!782 = !{i64 766}
!783 = !{i64 767}
!784 = !{i64 768}
!785 = !{i64 769}
!786 = !{i64 770}
!787 = !{i64 771}
!788 = !{i64 772}
!789 = !{i64 773}
!790 = !{i64 774}
!791 = !{i64 775}
!792 = distinct !{!792, !61}
!793 = !{i64 776}
!794 = !{i64 777}
!795 = !{i64 778}
!796 = !{i64 779}
!797 = !{i64 780}
!798 = !{i64 781}
!799 = !{i64 782}
!800 = !{i64 783}
!801 = !{i64 784}
!802 = !{i64 785}
!803 = !{i64 786}
!804 = !{i64 787}
!805 = !{i64 788}
!806 = !{i64 789}
!807 = !{i64 790}
!808 = !{i64 791}
!809 = !{i64 792}
!810 = !{i64 793}
!811 = !{i64 794}
!812 = !{i64 795}
!813 = !{i64 796}
!814 = !{i64 797}
!815 = !{i64 798}
!816 = !{i64 799}
!817 = !{i64 800}
!818 = !{i64 801}
!819 = !{i64 802}
!820 = !{i64 803}
!821 = !{i64 804}
!822 = !{i64 805}
!823 = !{i64 806}
!824 = !{i64 807}
!825 = !{i64 808}
!826 = !{i64 809}
!827 = !{i64 810}
!828 = !{i64 811}
!829 = !{i64 812}
!830 = !{i64 813}
!831 = !{i64 814}
!832 = !{i64 815}
!833 = !{i64 816}
!834 = !{i64 817}
!835 = !{i64 818}
!836 = !{i64 819}
!837 = !{i64 820}
!838 = !{i64 821}
!839 = !{i64 822}
!840 = !{i64 823}
!841 = !{i64 824}
!842 = !{i64 825}
!843 = !{i64 826}
!844 = !{i64 827}
!845 = !{i64 828}
!846 = !{i64 829}
!847 = !{i64 830}
!848 = !{i64 831}
!849 = !{i64 832}
!850 = !{i64 833}
!851 = !{i64 834}
!852 = !{i64 835}
!853 = !{i64 836}
!854 = !{i64 837}
!855 = !{i64 838}
!856 = !{i64 839}
!857 = !{i64 840}
!858 = !{i64 841}
!859 = !{i64 842}
!860 = !{i64 843}
!861 = !{i64 844}
!862 = !{i64 845}
!863 = !{i64 846}
!864 = !{i64 847}
!865 = !{i64 848}
!866 = !{i64 849}
!867 = !{i64 850}
!868 = !{i64 851}
!869 = !{i64 852}
!870 = !{i64 853}
!871 = !{i64 854}
!872 = !{i64 855}
!873 = !{i64 856}
!874 = !{i64 857}
!875 = !{i64 858}
!876 = !{i64 859}
!877 = !{i64 860}
!878 = distinct !{!878, !61}
!879 = !{i64 861}
!880 = !{i64 862}
!881 = !{i64 863}
!882 = !{i64 864}
!883 = !{i64 865}
!884 = !{i64 866}
!885 = !{i64 867}
!886 = !{i64 868}
!887 = !{i64 869}
!888 = !{i64 870}
!889 = !{i64 871}
!890 = !{i64 872}
!891 = !{i64 873}
!892 = !{i64 874}
!893 = !{i64 875}
!894 = !{i64 876}
!895 = !{i64 877}
!896 = !{i64 878}
!897 = !{i64 879}
!898 = !{i64 880}
!899 = !{i64 881}
!900 = !{i64 882}
!901 = !{i64 883}
!902 = !{i64 884}
!903 = !{i64 885}
!904 = !{i64 886}
!905 = !{i64 887}
!906 = !{i64 888}
!907 = !{i64 889}
!908 = !{i64 890}
!909 = !{i64 891}
!910 = !{i64 892}
!911 = !{i64 893}
!912 = !{i64 894}
!913 = !{i64 895}
!914 = !{i64 896}
!915 = !{i64 897}
!916 = !{i64 898}
!917 = !{i64 899}
!918 = !{i64 900}
!919 = !{i64 901}
!920 = !{i64 902}
!921 = !{i64 903}
!922 = !{i64 904}
!923 = !{i64 905}
!924 = !{i64 906}
!925 = !{i64 907}
!926 = !{i64 908}
!927 = !{i64 909}
!928 = !{i64 910}
!929 = !{i64 911}
!930 = !{i64 912}
!931 = !{i64 913}
!932 = !{i64 914}
!933 = !{i64 915}
!934 = !{i64 916}
!935 = !{i64 917}
!936 = !{i64 918}
!937 = !{i64 919}
!938 = !{i64 920}
!939 = !{i64 921}
!940 = !{i64 922}
!941 = !{i64 923}
!942 = !{i64 924}
!943 = !{i64 925}
!944 = !{i64 926}
!945 = !{i64 927}
!946 = !{i64 928}
!947 = !{i64 929}
!948 = !{i64 930}
!949 = !{i64 931}
!950 = !{i64 932}
!951 = !{i64 933}
!952 = !{i64 934}
!953 = !{i64 935}
!954 = !{i64 936}
!955 = !{i64 937}
!956 = !{i64 938}
!957 = !{i64 939}
!958 = !{i64 940}
!959 = !{i64 941}
!960 = !{i64 942}
!961 = !{i64 943}
!962 = !{i64 944}
!963 = !{i64 945}
!964 = !{i64 946}
!965 = !{i64 947}
!966 = !{i64 948}
!967 = !{i64 949}
!968 = !{i64 950}
!969 = distinct !{!969, !61}
!970 = !{i64 951}
!971 = !{i64 952}
!972 = !{i64 953}
!973 = !{i64 954}
!974 = !{i64 955}
!975 = !{i64 956}
!976 = !{i64 957}
!977 = !{i64 958}
!978 = !{i64 959}
!979 = !{i64 960}
!980 = !{i64 961}
!981 = !{i64 962}
!982 = !{i64 963}
!983 = !{i64 964}
!984 = !{i64 965}
!985 = !{i64 966}
!986 = !{i64 967}
!987 = !{i64 968}
!988 = !{i64 969}
!989 = !{i64 970}
!990 = !{i64 971}
!991 = !{i64 972}
!992 = !{i64 973}
!993 = !{i64 974}
!994 = !{i64 975}
!995 = !{i64 976}
!996 = !{i64 977}
!997 = !{i64 978}
!998 = !{i64 979}
!999 = !{i64 980}
!1000 = !{i64 981}
!1001 = !{i64 982}
!1002 = !{i64 983}
!1003 = !{i64 984}
!1004 = !{i64 985}
!1005 = !{i64 986}
!1006 = !{i64 987}
!1007 = !{i64 988}
!1008 = !{i64 989}
!1009 = !{i64 990}
!1010 = !{i64 991}
!1011 = !{i64 992}
!1012 = !{i64 993}
!1013 = !{i64 994}
!1014 = !{i64 995}
!1015 = !{i64 996}
!1016 = !{i64 997}
!1017 = !{i64 998}
!1018 = !{i64 999}
!1019 = !{i64 1000}
!1020 = !{i64 1001}
!1021 = !{i64 1002}
!1022 = !{i64 1003}
!1023 = !{i64 1004}
!1024 = !{i64 1005}
!1025 = !{i64 1006}
!1026 = !{i64 1007}
!1027 = !{i64 1008}
!1028 = !{i64 1009}
!1029 = !{i64 1010}
!1030 = !{i64 1011}
!1031 = !{i64 1012}
!1032 = !{i64 1013}
!1033 = !{i64 1014}
!1034 = !{i64 1015}
!1035 = !{i64 1016}
!1036 = !{i64 1017}
!1037 = !{i64 1018}
!1038 = !{i64 1019}
!1039 = !{i64 1020}
!1040 = !{i64 1021}
!1041 = !{i64 1022}
!1042 = distinct !{!1042, !61}
!1043 = !{i64 1023}
!1044 = !{i64 1024}
