; ModuleID = '/home/hjiang/Computation-Kernel-Dataset/experiments/Fault_injection_0308_parall/O0/AnimalTransport/AnimalTransport.ll'
source_filename = "llvm-link"
target datalayout = "e-m:e-p270:32:32-p271:32:32-p272:64:64-i64:64-f80:128-n8:16:32:64-S128"
target triple = "x86_64-unknown-linux-gnu"

%"class.std::allocator" = type { i8 }
%"class.std::vector" = type { %"struct.std::_Vector_base" }
%"struct.std::_Vector_base" = type { %"struct.std::_Vector_base<std::vector<int>, std::allocator<std::vector<int>>>::_Vector_impl" }
%"struct.std::_Vector_base<std::vector<int>, std::allocator<std::vector<int>>>::_Vector_impl" = type { %"struct.std::_Vector_base<std::vector<int>, std::allocator<std::vector<int>>>::_Vector_impl_data" }
%"struct.std::_Vector_base<std::vector<int>, std::allocator<std::vector<int>>>::_Vector_impl_data" = type { %"class.std::vector.0"*, %"class.std::vector.0"*, %"class.std::vector.0"* }
%"class.std::vector.0" = type { %"struct.std::_Vector_base.1" }
%"struct.std::_Vector_base.1" = type { %"struct.std::_Vector_base<int, std::allocator<int>>::_Vector_impl" }
%"struct.std::_Vector_base<int, std::allocator<int>>::_Vector_impl" = type { %"struct.std::_Vector_base<int, std::allocator<int>>::_Vector_impl_data" }
%"struct.std::_Vector_base<int, std::allocator<int>>::_Vector_impl_data" = type { i32*, i32*, i32* }
%struct._IO_FILE = type { i32, i8*, i8*, i8*, i8*, i8*, i8*, i8*, i8*, i8*, i8*, i8*, %struct._IO_marker*, %struct._IO_FILE*, i32, i32, i64, i16, i8, [1 x i8], i8*, i64, %struct._IO_codecvt*, %struct._IO_wide_data*, %struct._IO_FILE*, i8*, i64, i32, [20 x i8] }
%struct._IO_marker = type opaque
%struct._IO_codecvt = type opaque
%struct._IO_wide_data = type opaque
%"class.__gnu_cxx::__normal_iterator" = type { i32* }

$_ZNSaISt6vectorIiSaIiEEEC2Ev = comdat any

$_ZNSt6vectorIS_IiSaIiEESaIS1_EEC2EmRKS2_ = comdat any

$_ZNSaISt6vectorIiSaIiEEED2Ev = comdat any

$_ZNSt6vectorIS_IiSaIiEESaIS1_EED2Ev = comdat any

$_ZNSt12_Vector_baseISt6vectorIiSaIiEESaIS2_EE19_M_get_Tp_allocatorEv = comdat any

$_ZSt8_DestroyIPSt6vectorIiSaIiEES2_EvT_S4_RSaIT0_E = comdat any

$_ZNSt12_Vector_baseISt6vectorIiSaIiEESaIS2_EED2Ev = comdat any

$__clang_call_terminate = comdat any

$_ZNSt12_Vector_baseISt6vectorIiSaIiEESaIS2_EE13_M_deallocateEPS2_m = comdat any

$_ZNSt12_Vector_baseISt6vectorIiSaIiEESaIS2_EE12_Vector_implD2Ev = comdat any

$_ZNSt16allocator_traitsISaISt6vectorIiSaIiEEEE10deallocateERS3_PS2_m = comdat any

$_ZN9__gnu_cxx13new_allocatorISt6vectorIiSaIiEEE10deallocateEPS3_m = comdat any

$_ZSt8_DestroyIPSt6vectorIiSaIiEEEvT_S4_ = comdat any

$_ZNSt12_Destroy_auxILb0EE9__destroyIPSt6vectorIiSaIiEEEEvT_S6_ = comdat any

$_ZSt11__addressofISt6vectorIiSaIiEEEPT_RS3_ = comdat any

$_ZSt8_DestroyISt6vectorIiSaIiEEEvPT_ = comdat any

$_ZNSt6vectorIiSaIiEED2Ev = comdat any

$_ZNSt12_Vector_baseIiSaIiEE19_M_get_Tp_allocatorEv = comdat any

$_ZSt8_DestroyIPiiEvT_S1_RSaIT0_E = comdat any

$_ZNSt12_Vector_baseIiSaIiEED2Ev = comdat any

$_ZNSt12_Vector_baseIiSaIiEE13_M_deallocateEPim = comdat any

$_ZNSt12_Vector_baseIiSaIiEE12_Vector_implD2Ev = comdat any

$_ZNSaIiED2Ev = comdat any

$_ZN9__gnu_cxx13new_allocatorIiED2Ev = comdat any

$_ZNSt16allocator_traitsISaIiEE10deallocateERS0_Pim = comdat any

$_ZN9__gnu_cxx13new_allocatorIiE10deallocateEPim = comdat any

$_ZSt8_DestroyIPiEvT_S1_ = comdat any

$_ZNSt12_Destroy_auxILb1EE9__destroyIPiEEvT_S3_ = comdat any

$_ZN9__gnu_cxx13new_allocatorISt6vectorIiSaIiEEED2Ev = comdat any

$_ZNSt6vectorIS_IiSaIiEESaIS1_EE17_S_check_init_lenEmRKS2_ = comdat any

$_ZNSt12_Vector_baseISt6vectorIiSaIiEESaIS2_EEC2EmRKS3_ = comdat any

$_ZNSt6vectorIS_IiSaIiEESaIS1_EE21_M_default_initializeEm = comdat any

$_ZSt27__uninitialized_default_n_aIPSt6vectorIiSaIiEEmS2_ET_S4_T0_RSaIT1_E = comdat any

$_ZSt25__uninitialized_default_nIPSt6vectorIiSaIiEEmET_S4_T0_ = comdat any

$_ZNSt27__uninitialized_default_n_1ILb0EE18__uninit_default_nIPSt6vectorIiSaIiEEmEET_S6_T0_ = comdat any

$_ZSt10_ConstructISt6vectorIiSaIiEEJEEvPT_DpOT0_ = comdat any

$_ZNSt6vectorIiSaIiEEC2Ev = comdat any

$_ZNSt12_Vector_baseIiSaIiEEC2Ev = comdat any

$_ZNSt12_Vector_baseIiSaIiEE12_Vector_implC2Ev = comdat any

$_ZNSaIiEC2Ev = comdat any

$_ZNSt12_Vector_baseIiSaIiEE17_Vector_impl_dataC2Ev = comdat any

$_ZN9__gnu_cxx13new_allocatorIiEC2Ev = comdat any

$_ZNSt12_Vector_baseISt6vectorIiSaIiEESaIS2_EE12_Vector_implC2ERKS3_ = comdat any

$_ZNSt12_Vector_baseISt6vectorIiSaIiEESaIS2_EE17_M_create_storageEm = comdat any

$_ZNSt12_Vector_baseISt6vectorIiSaIiEESaIS2_EE11_M_allocateEm = comdat any

$_ZNSt16allocator_traitsISaISt6vectorIiSaIiEEEE8allocateERS3_m = comdat any

$_ZN9__gnu_cxx13new_allocatorISt6vectorIiSaIiEEE8allocateEmPKv = comdat any

$_ZNK9__gnu_cxx13new_allocatorISt6vectorIiSaIiEEE8max_sizeEv = comdat any

$_ZNSaISt6vectorIiSaIiEEEC2ERKS2_ = comdat any

$_ZNSt12_Vector_baseISt6vectorIiSaIiEESaIS2_EE17_Vector_impl_dataC2Ev = comdat any

$_ZN9__gnu_cxx13new_allocatorISt6vectorIiSaIiEEEC2ERKS4_ = comdat any

$_ZNSt6vectorIS_IiSaIiEESaIS1_EE11_S_max_sizeERKS2_ = comdat any

$_ZNSt16allocator_traitsISaISt6vectorIiSaIiEEEE8max_sizeERKS3_ = comdat any

$_ZSt3minImERKT_S2_S2_ = comdat any

$_ZN9__gnu_cxx13new_allocatorISt6vectorIiSaIiEEEC2Ev = comdat any

$_ZSt3maxIiERKT_S2_S2_ = comdat any

$_ZNSt6vectorIS_IiSaIiEESaIS1_EEixEm = comdat any

$_ZNSt6vectorIiSaIiEE9push_backERKi = comdat any

$_ZNSt6vectorIiSaIiEE5beginEv = comdat any

$_ZNSt6vectorIiSaIiEE3endEv = comdat any

$_ZN9__gnu_cxxneIPiSt6vectorIiSaIiEEEEbRKNS_17__normal_iteratorIT_T0_EESA_ = comdat any

$_ZNK9__gnu_cxx17__normal_iteratorIPiSt6vectorIiSaIiEEEdeEv = comdat any

$_ZN9__gnu_cxx17__normal_iteratorIPiSt6vectorIiSaIiEEEppEv = comdat any

$_ZSt11lower_boundIN9__gnu_cxx17__normal_iteratorIPiSt6vectorIiSaIiEEEEiET_S7_S7_RKT0_ = comdat any

$_ZN9__gnu_cxxmiIPiSt6vectorIiSaIiEEEENS_17__normal_iteratorIT_T0_E15difference_typeERKS8_SB_ = comdat any

$_ZNSt6vectorIS_IiSaIiEESaIS1_EE5clearEv = comdat any

$_ZNSt6vectorIS_IiSaIiEESaIS1_EE6resizeEm = comdat any

$_ZNKSt6vectorIS_IiSaIiEESaIS1_EE4sizeEv = comdat any

$_ZNSt6vectorIS_IiSaIiEESaIS1_EE17_M_default_appendEm = comdat any

$_ZNSt6vectorIS_IiSaIiEESaIS1_EE15_M_erase_at_endEPS1_ = comdat any

$_ZNKSt6vectorIS_IiSaIiEESaIS1_EE8max_sizeEv = comdat any

$_ZNKSt6vectorIS_IiSaIiEESaIS1_EE12_M_check_lenEmPKc = comdat any

$_ZNSt6vectorIS_IiSaIiEESaIS1_EE11_S_relocateEPS1_S4_S4_RS2_ = comdat any

$_ZNSt6vectorIS_IiSaIiEESaIS1_EE14_S_do_relocateEPS1_S4_S4_RS2_St17integral_constantIbLb1EE = comdat any

$_ZSt12__relocate_aIPSt6vectorIiSaIiEES3_SaIS2_EET0_T_S6_S5_RT1_ = comdat any

$_ZSt12__niter_baseIPSt6vectorIiSaIiEEET_S4_ = comdat any

$_ZSt14__relocate_a_1IPSt6vectorIiSaIiEES3_SaIS2_EET0_T_S6_S5_RT1_ = comdat any

$_ZSt19__relocate_object_aISt6vectorIiSaIiEES2_SaIS2_EEvPT_PT0_RT1_ = comdat any

$_ZSt4moveIRSt6vectorIiSaIiEEEONSt16remove_referenceIT_E4typeEOS5_ = comdat any

$_ZNSt16allocator_traitsISaISt6vectorIiSaIiEEEE9constructIS2_JS2_EEEvRS3_PT_DpOT0_ = comdat any

$_ZNSt16allocator_traitsISaISt6vectorIiSaIiEEEE7destroyIS2_EEvRS3_PT_ = comdat any

$_ZN9__gnu_cxx13new_allocatorISt6vectorIiSaIiEEE7destroyIS3_EEvPT_ = comdat any

$_ZSt7forwardISt6vectorIiSaIiEEEOT_RNSt16remove_referenceIS3_E4typeE = comdat any

$_ZN9__gnu_cxx13new_allocatorISt6vectorIiSaIiEEE9constructIS3_JS3_EEEvPT_DpOT0_ = comdat any

$_ZNSt6vectorIiSaIiEEC2EOS1_ = comdat any

$_ZNSt12_Vector_baseIiSaIiEEC2EOS1_ = comdat any

$_ZNSt12_Vector_baseIiSaIiEE12_Vector_implC2EOS2_ = comdat any

$_ZSt4moveIRNSt12_Vector_baseIiSaIiEE12_Vector_implEEONSt16remove_referenceIT_E4typeEOS6_ = comdat any

$_ZNSaIiEC2ERKS_ = comdat any

$_ZNSt12_Vector_baseIiSaIiEE17_Vector_impl_dataC2EOS2_ = comdat any

$_ZN9__gnu_cxx13new_allocatorIiEC2ERKS1_ = comdat any

$_ZSt3maxImERKT_S2_S2_ = comdat any

$_ZNKSt12_Vector_baseISt6vectorIiSaIiEESaIS2_EE19_M_get_Tp_allocatorEv = comdat any

$_ZNK9__gnu_cxx17__normal_iteratorIPiSt6vectorIiSaIiEEE4baseEv = comdat any

$_ZN9__gnu_cxx5__ops15__iter_less_valEv = comdat any

$_ZSt13__lower_boundIN9__gnu_cxx17__normal_iteratorIPiSt6vectorIiSaIiEEEEiNS0_5__ops14_Iter_less_valEET_S9_S9_RKT0_T1_ = comdat any

$_ZSt8distanceIN9__gnu_cxx17__normal_iteratorIPiSt6vectorIiSaIiEEEEENSt15iterator_traitsIT_E15difference_typeES8_S8_ = comdat any

$_ZSt7advanceIN9__gnu_cxx17__normal_iteratorIPiSt6vectorIiSaIiEEEElEvRT_T0_ = comdat any

$_ZNK9__gnu_cxx5__ops14_Iter_less_valclINS_17__normal_iteratorIPiSt6vectorIiSaIiEEEEKiEEbT_RT0_ = comdat any

$_ZSt19__iterator_categoryIN9__gnu_cxx17__normal_iteratorIPiSt6vectorIiSaIiEEEEENSt15iterator_traitsIT_E17iterator_categoryERKS8_ = comdat any

$_ZSt9__advanceIN9__gnu_cxx17__normal_iteratorIPiSt6vectorIiSaIiEEEElEvRT_T0_St26random_access_iterator_tag = comdat any

$_ZN9__gnu_cxx17__normal_iteratorIPiSt6vectorIiSaIiEEEmmEv = comdat any

$_ZN9__gnu_cxx17__normal_iteratorIPiSt6vectorIiSaIiEEEpLEl = comdat any

$_ZSt10__distanceIN9__gnu_cxx17__normal_iteratorIPiSt6vectorIiSaIiEEEEENSt15iterator_traitsIT_E15difference_typeES8_S8_St26random_access_iterator_tag = comdat any

$_ZN9__gnu_cxx17__normal_iteratorIPiSt6vectorIiSaIiEEEC2ERKS1_ = comdat any

$_ZNSt16allocator_traitsISaIiEE9constructIiJRKiEEEvRS0_PT_DpOT0_ = comdat any

$_ZNSt6vectorIiSaIiEE17_M_realloc_insertIJRKiEEEvN9__gnu_cxx17__normal_iteratorIPiS1_EEDpOT_ = comdat any

$_ZNKSt6vectorIiSaIiEE12_M_check_lenEmPKc = comdat any

$_ZNSt12_Vector_baseIiSaIiEE11_M_allocateEm = comdat any

$_ZSt7forwardIRKiEOT_RNSt16remove_referenceIS2_E4typeE = comdat any

$_ZNSt6vectorIiSaIiEE11_S_relocateEPiS2_S2_RS0_ = comdat any

$_ZNSt6vectorIiSaIiEE14_S_do_relocateEPiS2_S2_RS0_St17integral_constantIbLb1EE = comdat any

$_ZSt12__relocate_aIPiS0_SaIiEET0_T_S3_S2_RT1_ = comdat any

$_ZSt12__niter_baseIPiET_S1_ = comdat any

$_ZSt14__relocate_a_1IiiENSt9enable_ifIXsr3std24__is_bitwise_relocatableIT_EE5valueEPS1_E4typeES2_S2_S2_RSaIT0_E = comdat any

$_ZNSt16allocator_traitsISaIiEE8allocateERS0_m = comdat any

$_ZN9__gnu_cxx13new_allocatorIiE8allocateEmPKv = comdat any

$_ZNK9__gnu_cxx13new_allocatorIiE8max_sizeEv = comdat any

$_ZNKSt6vectorIiSaIiEE8max_sizeEv = comdat any

$_ZNKSt6vectorIiSaIiEE4sizeEv = comdat any

$_ZNKSt12_Vector_baseIiSaIiEE19_M_get_Tp_allocatorEv = comdat any

$_ZNSt6vectorIiSaIiEE11_S_max_sizeERKS0_ = comdat any

$_ZNSt16allocator_traitsISaIiEE8max_sizeERKS0_ = comdat any

$_ZN9__gnu_cxx13new_allocatorIiE9constructIiJRKiEEEvPT_DpOT0_ = comdat any

@llvm.global_ctors = appending global [1 x { i32, void ()*, i8* }] [{ i32, void ()*, i8* } { i32 65535, void ()* @_GLOBAL__sub_I_AnimalTransport.cpp, i8* null }]
@_ZStL8__ioinit = internal global %"class.std::allocator" zeroinitializer, align 1
@t = dso_local global i32 0, align 4
@m = dso_local global i32 0, align 4
@n = dso_local global i32 0, align 4
@dp = dso_local global [50002 x [2 x i32]] zeroinitializer, align 16
@tree = dso_local global [200008 x [2 x i32]] zeroinitializer, align 16
@lazy = dso_local global [200008 x [2 x i32]] zeroinitializer, align 16
@type = dso_local global [50002 x i32] zeroinitializer, align 16
@second = dso_local global [50002 x i32] zeroinitializer, align 16
@d = dso_local global [50002 x i32] zeroinitializer, align 16
@g = dso_local global %"class.std::vector" zeroinitializer, align 8
@.str = private unnamed_addr constant [31 x i8] c"../input_files/AnimalTransport\00", align 1
@.str.2 = private unnamed_addr constant [2 x i8] c"r\00", align 1
@stdin = external dso_local global %struct._IO_FILE*, align 8
@.str.3 = private unnamed_addr constant [3 x i8] c"%d\00", align 1
@.str.4 = private unnamed_addr constant [5 x i8] c"%d%d\00", align 1
@.str.5 = private unnamed_addr constant [4 x i8] c" %c\00", align 1
@.str.6 = private unnamed_addr constant [4 x i8] c"%d \00", align 1
@.str.7 = private unnamed_addr constant [1 x i8] zeroinitializer, align 1
@.str.8 = private unnamed_addr constant [49 x i8] c"cannot create std::vector larger than max_size()\00", align 1
@.str.9 = private unnamed_addr constant [26 x i8] c"vector::_M_realloc_insert\00", align 1
@.str.10 = private unnamed_addr constant [26 x i8] c"vector::_M_default_append\00", align 1

; Function Attrs: noinline uwtable
define internal void @_GLOBAL__sub_I_AnimalTransport.cpp() #0 section ".text.startup" {
  call void @__cxx_global_var_init(), !llfi_index !4
  call void @__cxx_global_var_init.1(), !llfi_index !5
  ret void, !llfi_index !6
}

; Function Attrs: noinline uwtable
define internal void @__cxx_global_var_init() #0 section ".text.startup" {
  call void @_ZNSt8ios_base4InitC1Ev(%"class.std::allocator"* nonnull align 1 dereferenceable(1) @_ZStL8__ioinit), !llfi_index !7
  %1 = call i32 @atexit(void ()* @__dtor__ZStL8__ioinit) #2, !llfi_index !8
  ret void, !llfi_index !9
}

; Function Attrs: noinline uwtable
define internal void @__cxx_global_var_init.1() #0 section ".text.startup" personality i8* bitcast (i32 (...)* @__gxx_personality_v0 to i8*) {
  %1 = alloca %"class.std::allocator", align 1, !llfi_index !10
  %2 = alloca i8*, align 8, !llfi_index !11
  %3 = alloca i32, align 4, !llfi_index !12
  call void @_ZNSaISt6vectorIiSaIiEEEC2Ev(%"class.std::allocator"* nonnull align 1 dereferenceable(1) %1) #2, !llfi_index !13
  invoke void @_ZNSt6vectorIS_IiSaIiEESaIS1_EEC2EmRKS2_(%"class.std::vector"* nonnull align 8 dereferenceable(24) @g, i64 50002, %"class.std::allocator"* nonnull align 1 dereferenceable(1) %1)
          to label %4 unwind label %6, !llfi_index !14

4:                                                ; preds = %0
  call void @_ZNSaISt6vectorIiSaIiEEED2Ev(%"class.std::allocator"* nonnull align 1 dereferenceable(1) %1) #2, !llfi_index !15
  %5 = call i32 @atexit(void ()* @__dtor_g) #2, !llfi_index !16
  ret void, !llfi_index !17

6:                                                ; preds = %0
  %7 = landingpad { i8*, i32 }
          cleanup, !llfi_index !18
  %8 = extractvalue { i8*, i32 } %7, 0, !llfi_index !19
  store i8* %8, i8** %2, align 8, !llfi_index !20
  %9 = extractvalue { i8*, i32 } %7, 1, !llfi_index !21
  store i32 %9, i32* %3, align 4, !llfi_index !22
  call void @_ZNSaISt6vectorIiSaIiEEED2Ev(%"class.std::allocator"* nonnull align 1 dereferenceable(1) %1) #2, !llfi_index !23
  br label %10, !llfi_index !24

10:                                               ; preds = %6
  %11 = load i8*, i8** %2, align 8, !llfi_index !25
  %12 = load i32, i32* %3, align 4, !llfi_index !26
  %13 = insertvalue { i8*, i32 } undef, i8* %11, 0, !llfi_index !27
  %14 = insertvalue { i8*, i32 } %13, i32 %12, 1, !llfi_index !28
  resume { i8*, i32 } %14, !llfi_index !29
}

declare dso_local i32 @__gxx_personality_v0(...)

; Function Attrs: noinline nounwind uwtable
define linkonce_odr dso_local void @_ZNSaISt6vectorIiSaIiEEEC2Ev(%"class.std::allocator"* nonnull align 1 dereferenceable(1) %0) unnamed_addr #1 comdat align 2 {
  %2 = alloca %"class.std::allocator"*, align 8, !llfi_index !30
  store %"class.std::allocator"* %0, %"class.std::allocator"** %2, align 8, !llfi_index !31
  %3 = load %"class.std::allocator"*, %"class.std::allocator"** %2, align 8, !llfi_index !32
  %4 = bitcast %"class.std::allocator"* %3 to %"class.std::allocator"*, !llfi_index !33
  call void @_ZN9__gnu_cxx13new_allocatorISt6vectorIiSaIiEEEC2Ev(%"class.std::allocator"* nonnull align 1 dereferenceable(1) %4) #2, !llfi_index !34
  ret void, !llfi_index !35
}

; Function Attrs: noinline uwtable
define linkonce_odr dso_local void @_ZNSt6vectorIS_IiSaIiEESaIS1_EEC2EmRKS2_(%"class.std::vector"* nonnull align 8 dereferenceable(24) %0, i64 %1, %"class.std::allocator"* nonnull align 1 dereferenceable(1) %2) unnamed_addr #0 comdat align 2 personality i8* bitcast (i32 (...)* @__gxx_personality_v0 to i8*) {
  %4 = alloca %"class.std::vector"*, align 8, !llfi_index !36
  %5 = alloca i64, align 8, !llfi_index !37
  %6 = alloca %"class.std::allocator"*, align 8, !llfi_index !38
  %7 = alloca i8*, align 8, !llfi_index !39
  %8 = alloca i32, align 4, !llfi_index !40
  store %"class.std::vector"* %0, %"class.std::vector"** %4, align 8, !llfi_index !41
  store i64 %1, i64* %5, align 8, !llfi_index !42
  store %"class.std::allocator"* %2, %"class.std::allocator"** %6, align 8, !llfi_index !43
  %9 = load %"class.std::vector"*, %"class.std::vector"** %4, align 8, !llfi_index !44
  %10 = bitcast %"class.std::vector"* %9 to %"struct.std::_Vector_base"*, !llfi_index !45
  %11 = load i64, i64* %5, align 8, !llfi_index !46
  %12 = load %"class.std::allocator"*, %"class.std::allocator"** %6, align 8, !llfi_index !47
  %13 = call i64 @_ZNSt6vectorIS_IiSaIiEESaIS1_EE17_S_check_init_lenEmRKS2_(i64 %11, %"class.std::allocator"* nonnull align 1 dereferenceable(1) %12), !llfi_index !48
  %14 = load %"class.std::allocator"*, %"class.std::allocator"** %6, align 8, !llfi_index !49
  call void @_ZNSt12_Vector_baseISt6vectorIiSaIiEESaIS2_EEC2EmRKS3_(%"struct.std::_Vector_base"* nonnull align 8 dereferenceable(24) %10, i64 %13, %"class.std::allocator"* nonnull align 1 dereferenceable(1) %14), !llfi_index !50
  %15 = load i64, i64* %5, align 8, !llfi_index !51
  invoke void @_ZNSt6vectorIS_IiSaIiEESaIS1_EE21_M_default_initializeEm(%"class.std::vector"* nonnull align 8 dereferenceable(24) %9, i64 %15)
          to label %16 unwind label %17, !llfi_index !52

16:                                               ; preds = %3
  ret void, !llfi_index !53

17:                                               ; preds = %3
  %18 = landingpad { i8*, i32 }
          cleanup, !llfi_index !54
  %19 = extractvalue { i8*, i32 } %18, 0, !llfi_index !55
  store i8* %19, i8** %7, align 8, !llfi_index !56
  %20 = extractvalue { i8*, i32 } %18, 1, !llfi_index !57
  store i32 %20, i32* %8, align 4, !llfi_index !58
  %21 = bitcast %"class.std::vector"* %9 to %"struct.std::_Vector_base"*, !llfi_index !59
  call void @_ZNSt12_Vector_baseISt6vectorIiSaIiEESaIS2_EED2Ev(%"struct.std::_Vector_base"* nonnull align 8 dereferenceable(24) %21) #2, !llfi_index !60
  br label %22, !llfi_index !61

22:                                               ; preds = %17
  %23 = load i8*, i8** %7, align 8, !llfi_index !62
  %24 = load i32, i32* %8, align 4, !llfi_index !63
  %25 = insertvalue { i8*, i32 } undef, i8* %23, 0, !llfi_index !64
  %26 = insertvalue { i8*, i32 } %25, i32 %24, 1, !llfi_index !65
  resume { i8*, i32 } %26, !llfi_index !66
}

; Function Attrs: noinline nounwind uwtable
define linkonce_odr dso_local void @_ZNSaISt6vectorIiSaIiEEED2Ev(%"class.std::allocator"* nonnull align 1 dereferenceable(1) %0) unnamed_addr #1 comdat align 2 {
  %2 = alloca %"class.std::allocator"*, align 8, !llfi_index !67
  store %"class.std::allocator"* %0, %"class.std::allocator"** %2, align 8, !llfi_index !68
  %3 = load %"class.std::allocator"*, %"class.std::allocator"** %2, align 8, !llfi_index !69
  %4 = bitcast %"class.std::allocator"* %3 to %"class.std::allocator"*, !llfi_index !70
  call void @_ZN9__gnu_cxx13new_allocatorISt6vectorIiSaIiEEED2Ev(%"class.std::allocator"* nonnull align 1 dereferenceable(1) %4) #2, !llfi_index !71
  ret void, !llfi_index !72
}

; Function Attrs: noinline uwtable
define internal void @__dtor_g() #0 section ".text.startup" {
  call void @_ZNSt6vectorIS_IiSaIiEESaIS1_EED2Ev(%"class.std::vector"* @g), !llfi_index !73
  ret void, !llfi_index !74
}

; Function Attrs: nounwind
declare dso_local i32 @atexit(void ()*) #2

; Function Attrs: noinline nounwind uwtable
define linkonce_odr dso_local void @_ZNSt6vectorIS_IiSaIiEESaIS1_EED2Ev(%"class.std::vector"* nonnull align 8 dereferenceable(24) %0) unnamed_addr #1 comdat align 2 personality i8* bitcast (i32 (...)* @__gxx_personality_v0 to i8*) {
  %2 = alloca %"class.std::vector"*, align 8, !llfi_index !75
  %3 = alloca i8*, align 8, !llfi_index !76
  %4 = alloca i32, align 4, !llfi_index !77
  store %"class.std::vector"* %0, %"class.std::vector"** %2, align 8, !llfi_index !78
  %5 = load %"class.std::vector"*, %"class.std::vector"** %2, align 8, !llfi_index !79
  %6 = bitcast %"class.std::vector"* %5 to %"struct.std::_Vector_base"*, !llfi_index !80
  %7 = getelementptr inbounds %"struct.std::_Vector_base", %"struct.std::_Vector_base"* %6, i32 0, i32 0, !llfi_index !81
  %8 = bitcast %"struct.std::_Vector_base<std::vector<int>, std::allocator<std::vector<int>>>::_Vector_impl"* %7 to %"struct.std::_Vector_base<std::vector<int>, std::allocator<std::vector<int>>>::_Vector_impl_data"*, !llfi_index !82
  %9 = getelementptr inbounds %"struct.std::_Vector_base<std::vector<int>, std::allocator<std::vector<int>>>::_Vector_impl_data", %"struct.std::_Vector_base<std::vector<int>, std::allocator<std::vector<int>>>::_Vector_impl_data"* %8, i32 0, i32 0, !llfi_index !83
  %10 = load %"class.std::vector.0"*, %"class.std::vector.0"** %9, align 8, !llfi_index !84
  %11 = bitcast %"class.std::vector"* %5 to %"struct.std::_Vector_base"*, !llfi_index !85
  %12 = getelementptr inbounds %"struct.std::_Vector_base", %"struct.std::_Vector_base"* %11, i32 0, i32 0, !llfi_index !86
  %13 = bitcast %"struct.std::_Vector_base<std::vector<int>, std::allocator<std::vector<int>>>::_Vector_impl"* %12 to %"struct.std::_Vector_base<std::vector<int>, std::allocator<std::vector<int>>>::_Vector_impl_data"*, !llfi_index !87
  %14 = getelementptr inbounds %"struct.std::_Vector_base<std::vector<int>, std::allocator<std::vector<int>>>::_Vector_impl_data", %"struct.std::_Vector_base<std::vector<int>, std::allocator<std::vector<int>>>::_Vector_impl_data"* %13, i32 0, i32 1, !llfi_index !88
  %15 = load %"class.std::vector.0"*, %"class.std::vector.0"** %14, align 8, !llfi_index !89
  %16 = bitcast %"class.std::vector"* %5 to %"struct.std::_Vector_base"*, !llfi_index !90
  %17 = call nonnull align 1 dereferenceable(1) %"class.std::allocator"* @_ZNSt12_Vector_baseISt6vectorIiSaIiEESaIS2_EE19_M_get_Tp_allocatorEv(%"struct.std::_Vector_base"* nonnull align 8 dereferenceable(24) %16) #2, !llfi_index !91
  invoke void @_ZSt8_DestroyIPSt6vectorIiSaIiEES2_EvT_S4_RSaIT0_E(%"class.std::vector.0"* %10, %"class.std::vector.0"* %15, %"class.std::allocator"* nonnull align 1 dereferenceable(1) %17)
          to label %18 unwind label %20, !llfi_index !92

18:                                               ; preds = %1
  %19 = bitcast %"class.std::vector"* %5 to %"struct.std::_Vector_base"*, !llfi_index !93
  call void @_ZNSt12_Vector_baseISt6vectorIiSaIiEESaIS2_EED2Ev(%"struct.std::_Vector_base"* nonnull align 8 dereferenceable(24) %19) #2, !llfi_index !94
  ret void, !llfi_index !95

20:                                               ; preds = %1
  %21 = landingpad { i8*, i32 }
          catch i8* null, !llfi_index !96
  %22 = extractvalue { i8*, i32 } %21, 0, !llfi_index !97
  store i8* %22, i8** %3, align 8, !llfi_index !98
  %23 = extractvalue { i8*, i32 } %21, 1, !llfi_index !99
  store i32 %23, i32* %4, align 4, !llfi_index !100
  %24 = bitcast %"class.std::vector"* %5 to %"struct.std::_Vector_base"*, !llfi_index !101
  call void @_ZNSt12_Vector_baseISt6vectorIiSaIiEESaIS2_EED2Ev(%"struct.std::_Vector_base"* nonnull align 8 dereferenceable(24) %24) #2, !llfi_index !102
  br label %25, !llfi_index !103

25:                                               ; preds = %20
  %26 = load i8*, i8** %3, align 8, !llfi_index !104
  call void @__clang_call_terminate(i8* %26) #16, !llfi_index !105
  unreachable, !llfi_index !106
}

; Function Attrs: mustprogress noinline nounwind uwtable
define linkonce_odr dso_local nonnull align 1 dereferenceable(1) %"class.std::allocator"* @_ZNSt12_Vector_baseISt6vectorIiSaIiEESaIS2_EE19_M_get_Tp_allocatorEv(%"struct.std::_Vector_base"* nonnull align 8 dereferenceable(24) %0) #3 comdat align 2 {
  %2 = alloca %"struct.std::_Vector_base"*, align 8, !llfi_index !107
  store %"struct.std::_Vector_base"* %0, %"struct.std::_Vector_base"** %2, align 8, !llfi_index !108
  %3 = load %"struct.std::_Vector_base"*, %"struct.std::_Vector_base"** %2, align 8, !llfi_index !109
  %4 = getelementptr inbounds %"struct.std::_Vector_base", %"struct.std::_Vector_base"* %3, i32 0, i32 0, !llfi_index !110
  %5 = bitcast %"struct.std::_Vector_base<std::vector<int>, std::allocator<std::vector<int>>>::_Vector_impl"* %4 to %"class.std::allocator"*, !llfi_index !111
  ret %"class.std::allocator"* %5, !llfi_index !112
}

; Function Attrs: mustprogress noinline uwtable
define linkonce_odr dso_local void @_ZSt8_DestroyIPSt6vectorIiSaIiEES2_EvT_S4_RSaIT0_E(%"class.std::vector.0"* %0, %"class.std::vector.0"* %1, %"class.std::allocator"* nonnull align 1 dereferenceable(1) %2) #4 comdat {
  %4 = alloca %"class.std::vector.0"*, align 8, !llfi_index !113
  %5 = alloca %"class.std::vector.0"*, align 8, !llfi_index !114
  %6 = alloca %"class.std::allocator"*, align 8, !llfi_index !115
  store %"class.std::vector.0"* %0, %"class.std::vector.0"** %4, align 8, !llfi_index !116
  store %"class.std::vector.0"* %1, %"class.std::vector.0"** %5, align 8, !llfi_index !117
  store %"class.std::allocator"* %2, %"class.std::allocator"** %6, align 8, !llfi_index !118
  %7 = load %"class.std::vector.0"*, %"class.std::vector.0"** %4, align 8, !llfi_index !119
  %8 = load %"class.std::vector.0"*, %"class.std::vector.0"** %5, align 8, !llfi_index !120
  call void @_ZSt8_DestroyIPSt6vectorIiSaIiEEEvT_S4_(%"class.std::vector.0"* %7, %"class.std::vector.0"* %8), !llfi_index !121
  ret void, !llfi_index !122
}

; Function Attrs: noinline nounwind uwtable
define linkonce_odr dso_local void @_ZNSt12_Vector_baseISt6vectorIiSaIiEESaIS2_EED2Ev(%"struct.std::_Vector_base"* nonnull align 8 dereferenceable(24) %0) unnamed_addr #1 comdat align 2 personality i8* bitcast (i32 (...)* @__gxx_personality_v0 to i8*) {
  %2 = alloca %"struct.std::_Vector_base"*, align 8, !llfi_index !123
  %3 = alloca i8*, align 8, !llfi_index !124
  %4 = alloca i32, align 4, !llfi_index !125
  store %"struct.std::_Vector_base"* %0, %"struct.std::_Vector_base"** %2, align 8, !llfi_index !126
  %5 = load %"struct.std::_Vector_base"*, %"struct.std::_Vector_base"** %2, align 8, !llfi_index !127
  %6 = getelementptr inbounds %"struct.std::_Vector_base", %"struct.std::_Vector_base"* %5, i32 0, i32 0, !llfi_index !128
  %7 = bitcast %"struct.std::_Vector_base<std::vector<int>, std::allocator<std::vector<int>>>::_Vector_impl"* %6 to %"struct.std::_Vector_base<std::vector<int>, std::allocator<std::vector<int>>>::_Vector_impl_data"*, !llfi_index !129
  %8 = getelementptr inbounds %"struct.std::_Vector_base<std::vector<int>, std::allocator<std::vector<int>>>::_Vector_impl_data", %"struct.std::_Vector_base<std::vector<int>, std::allocator<std::vector<int>>>::_Vector_impl_data"* %7, i32 0, i32 0, !llfi_index !130
  %9 = load %"class.std::vector.0"*, %"class.std::vector.0"** %8, align 8, !llfi_index !131
  %10 = getelementptr inbounds %"struct.std::_Vector_base", %"struct.std::_Vector_base"* %5, i32 0, i32 0, !llfi_index !132
  %11 = bitcast %"struct.std::_Vector_base<std::vector<int>, std::allocator<std::vector<int>>>::_Vector_impl"* %10 to %"struct.std::_Vector_base<std::vector<int>, std::allocator<std::vector<int>>>::_Vector_impl_data"*, !llfi_index !133
  %12 = getelementptr inbounds %"struct.std::_Vector_base<std::vector<int>, std::allocator<std::vector<int>>>::_Vector_impl_data", %"struct.std::_Vector_base<std::vector<int>, std::allocator<std::vector<int>>>::_Vector_impl_data"* %11, i32 0, i32 2, !llfi_index !134
  %13 = load %"class.std::vector.0"*, %"class.std::vector.0"** %12, align 8, !llfi_index !135
  %14 = getelementptr inbounds %"struct.std::_Vector_base", %"struct.std::_Vector_base"* %5, i32 0, i32 0, !llfi_index !136
  %15 = bitcast %"struct.std::_Vector_base<std::vector<int>, std::allocator<std::vector<int>>>::_Vector_impl"* %14 to %"struct.std::_Vector_base<std::vector<int>, std::allocator<std::vector<int>>>::_Vector_impl_data"*, !llfi_index !137
  %16 = getelementptr inbounds %"struct.std::_Vector_base<std::vector<int>, std::allocator<std::vector<int>>>::_Vector_impl_data", %"struct.std::_Vector_base<std::vector<int>, std::allocator<std::vector<int>>>::_Vector_impl_data"* %15, i32 0, i32 0, !llfi_index !138
  %17 = load %"class.std::vector.0"*, %"class.std::vector.0"** %16, align 8, !llfi_index !139
  %18 = ptrtoint %"class.std::vector.0"* %13 to i64, !llfi_index !140
  %19 = ptrtoint %"class.std::vector.0"* %17 to i64, !llfi_index !141
  %20 = sub i64 %18, %19, !llfi_index !142
  %21 = sdiv exact i64 %20, 24, !llfi_index !143
  invoke void @_ZNSt12_Vector_baseISt6vectorIiSaIiEESaIS2_EE13_M_deallocateEPS2_m(%"struct.std::_Vector_base"* nonnull align 8 dereferenceable(24) %5, %"class.std::vector.0"* %9, i64 %21)
          to label %22 unwind label %24, !llfi_index !144

22:                                               ; preds = %1
  %23 = getelementptr inbounds %"struct.std::_Vector_base", %"struct.std::_Vector_base"* %5, i32 0, i32 0, !llfi_index !145
  call void @_ZNSt12_Vector_baseISt6vectorIiSaIiEESaIS2_EE12_Vector_implD2Ev(%"struct.std::_Vector_base<std::vector<int>, std::allocator<std::vector<int>>>::_Vector_impl"* nonnull align 8 dereferenceable(24) %23) #2, !llfi_index !146
  ret void, !llfi_index !147

24:                                               ; preds = %1
  %25 = landingpad { i8*, i32 }
          catch i8* null, !llfi_index !148
  %26 = extractvalue { i8*, i32 } %25, 0, !llfi_index !149
  store i8* %26, i8** %3, align 8, !llfi_index !150
  %27 = extractvalue { i8*, i32 } %25, 1, !llfi_index !151
  store i32 %27, i32* %4, align 4, !llfi_index !152
  %28 = getelementptr inbounds %"struct.std::_Vector_base", %"struct.std::_Vector_base"* %5, i32 0, i32 0, !llfi_index !153
  call void @_ZNSt12_Vector_baseISt6vectorIiSaIiEESaIS2_EE12_Vector_implD2Ev(%"struct.std::_Vector_base<std::vector<int>, std::allocator<std::vector<int>>>::_Vector_impl"* nonnull align 8 dereferenceable(24) %28) #2, !llfi_index !154
  br label %29, !llfi_index !155

29:                                               ; preds = %24
  %30 = load i8*, i8** %3, align 8, !llfi_index !156
  call void @__clang_call_terminate(i8* %30) #16, !llfi_index !157
  unreachable, !llfi_index !158
}

; Function Attrs: noinline noreturn nounwind
define linkonce_odr hidden void @__clang_call_terminate(i8* %0) #5 comdat {
  %2 = call i8* @__cxa_begin_catch(i8* %0) #2, !llfi_index !159
  call void @_ZSt9terminatev() #16, !llfi_index !160
  unreachable, !llfi_index !161
}

declare dso_local i8* @__cxa_begin_catch(i8*)

declare dso_local void @_ZSt9terminatev()

; Function Attrs: mustprogress noinline uwtable
define linkonce_odr dso_local void @_ZNSt12_Vector_baseISt6vectorIiSaIiEESaIS2_EE13_M_deallocateEPS2_m(%"struct.std::_Vector_base"* nonnull align 8 dereferenceable(24) %0, %"class.std::vector.0"* %1, i64 %2) #4 comdat align 2 {
  %4 = alloca %"struct.std::_Vector_base"*, align 8, !llfi_index !162
  %5 = alloca %"class.std::vector.0"*, align 8, !llfi_index !163
  %6 = alloca i64, align 8, !llfi_index !164
  store %"struct.std::_Vector_base"* %0, %"struct.std::_Vector_base"** %4, align 8, !llfi_index !165
  store %"class.std::vector.0"* %1, %"class.std::vector.0"** %5, align 8, !llfi_index !166
  store i64 %2, i64* %6, align 8, !llfi_index !167
  %7 = load %"struct.std::_Vector_base"*, %"struct.std::_Vector_base"** %4, align 8, !llfi_index !168
  %8 = load %"class.std::vector.0"*, %"class.std::vector.0"** %5, align 8, !llfi_index !169
  %9 = icmp ne %"class.std::vector.0"* %8, null, !llfi_index !170
  br i1 %9, label %10, label %15, !llfi_index !171

10:                                               ; preds = %3
  %11 = getelementptr inbounds %"struct.std::_Vector_base", %"struct.std::_Vector_base"* %7, i32 0, i32 0, !llfi_index !172
  %12 = bitcast %"struct.std::_Vector_base<std::vector<int>, std::allocator<std::vector<int>>>::_Vector_impl"* %11 to %"class.std::allocator"*, !llfi_index !173
  %13 = load %"class.std::vector.0"*, %"class.std::vector.0"** %5, align 8, !llfi_index !174
  %14 = load i64, i64* %6, align 8, !llfi_index !175
  call void @_ZNSt16allocator_traitsISaISt6vectorIiSaIiEEEE10deallocateERS3_PS2_m(%"class.std::allocator"* nonnull align 1 dereferenceable(1) %12, %"class.std::vector.0"* %13, i64 %14), !llfi_index !176
  br label %15, !llfi_index !177

15:                                               ; preds = %10, %3
  ret void, !llfi_index !178
}

; Function Attrs: noinline nounwind uwtable
define linkonce_odr dso_local void @_ZNSt12_Vector_baseISt6vectorIiSaIiEESaIS2_EE12_Vector_implD2Ev(%"struct.std::_Vector_base<std::vector<int>, std::allocator<std::vector<int>>>::_Vector_impl"* nonnull align 8 dereferenceable(24) %0) unnamed_addr #1 comdat align 2 {
  %2 = alloca %"struct.std::_Vector_base<std::vector<int>, std::allocator<std::vector<int>>>::_Vector_impl"*, align 8, !llfi_index !179
  store %"struct.std::_Vector_base<std::vector<int>, std::allocator<std::vector<int>>>::_Vector_impl"* %0, %"struct.std::_Vector_base<std::vector<int>, std::allocator<std::vector<int>>>::_Vector_impl"** %2, align 8, !llfi_index !180
  %3 = load %"struct.std::_Vector_base<std::vector<int>, std::allocator<std::vector<int>>>::_Vector_impl"*, %"struct.std::_Vector_base<std::vector<int>, std::allocator<std::vector<int>>>::_Vector_impl"** %2, align 8, !llfi_index !181
  %4 = bitcast %"struct.std::_Vector_base<std::vector<int>, std::allocator<std::vector<int>>>::_Vector_impl"* %3 to %"class.std::allocator"*, !llfi_index !182
  call void @_ZNSaISt6vectorIiSaIiEEED2Ev(%"class.std::allocator"* nonnull align 1 dereferenceable(1) %4) #2, !llfi_index !183
  ret void, !llfi_index !184
}

; Function Attrs: mustprogress noinline uwtable
define linkonce_odr dso_local void @_ZNSt16allocator_traitsISaISt6vectorIiSaIiEEEE10deallocateERS3_PS2_m(%"class.std::allocator"* nonnull align 1 dereferenceable(1) %0, %"class.std::vector.0"* %1, i64 %2) #4 comdat align 2 {
  %4 = alloca %"class.std::allocator"*, align 8, !llfi_index !185
  %5 = alloca %"class.std::vector.0"*, align 8, !llfi_index !186
  %6 = alloca i64, align 8, !llfi_index !187
  store %"class.std::allocator"* %0, %"class.std::allocator"** %4, align 8, !llfi_index !188
  store %"class.std::vector.0"* %1, %"class.std::vector.0"** %5, align 8, !llfi_index !189
  store i64 %2, i64* %6, align 8, !llfi_index !190
  %7 = load %"class.std::allocator"*, %"class.std::allocator"** %4, align 8, !llfi_index !191
  %8 = bitcast %"class.std::allocator"* %7 to %"class.std::allocator"*, !llfi_index !192
  %9 = load %"class.std::vector.0"*, %"class.std::vector.0"** %5, align 8, !llfi_index !193
  %10 = load i64, i64* %6, align 8, !llfi_index !194
  call void @_ZN9__gnu_cxx13new_allocatorISt6vectorIiSaIiEEE10deallocateEPS3_m(%"class.std::allocator"* nonnull align 1 dereferenceable(1) %8, %"class.std::vector.0"* %9, i64 %10), !llfi_index !195
  ret void, !llfi_index !196
}

; Function Attrs: mustprogress noinline nounwind uwtable
define linkonce_odr dso_local void @_ZN9__gnu_cxx13new_allocatorISt6vectorIiSaIiEEE10deallocateEPS3_m(%"class.std::allocator"* nonnull align 1 dereferenceable(1) %0, %"class.std::vector.0"* %1, i64 %2) #3 comdat align 2 {
  %4 = alloca %"class.std::allocator"*, align 8, !llfi_index !197
  %5 = alloca %"class.std::vector.0"*, align 8, !llfi_index !198
  %6 = alloca i64, align 8, !llfi_index !199
  store %"class.std::allocator"* %0, %"class.std::allocator"** %4, align 8, !llfi_index !200
  store %"class.std::vector.0"* %1, %"class.std::vector.0"** %5, align 8, !llfi_index !201
  store i64 %2, i64* %6, align 8, !llfi_index !202
  %7 = load %"class.std::allocator"*, %"class.std::allocator"** %4, align 8, !llfi_index !203
  %8 = load %"class.std::vector.0"*, %"class.std::vector.0"** %5, align 8, !llfi_index !204
  %9 = bitcast %"class.std::vector.0"* %8 to i8*, !llfi_index !205
  call void @_ZdlPv(i8* %9) #2, !llfi_index !206
  ret void, !llfi_index !207
}

; Function Attrs: nobuiltin nounwind
declare dso_local void @_ZdlPv(i8*) #6

; Function Attrs: mustprogress noinline uwtable
define linkonce_odr dso_local void @_ZSt8_DestroyIPSt6vectorIiSaIiEEEvT_S4_(%"class.std::vector.0"* %0, %"class.std::vector.0"* %1) #4 comdat {
  %3 = alloca %"class.std::vector.0"*, align 8, !llfi_index !208
  %4 = alloca %"class.std::vector.0"*, align 8, !llfi_index !209
  store %"class.std::vector.0"* %0, %"class.std::vector.0"** %3, align 8, !llfi_index !210
  store %"class.std::vector.0"* %1, %"class.std::vector.0"** %4, align 8, !llfi_index !211
  %5 = load %"class.std::vector.0"*, %"class.std::vector.0"** %3, align 8, !llfi_index !212
  %6 = load %"class.std::vector.0"*, %"class.std::vector.0"** %4, align 8, !llfi_index !213
  call void @_ZNSt12_Destroy_auxILb0EE9__destroyIPSt6vectorIiSaIiEEEEvT_S6_(%"class.std::vector.0"* %5, %"class.std::vector.0"* %6), !llfi_index !214
  ret void, !llfi_index !215
}

; Function Attrs: mustprogress noinline uwtable
define linkonce_odr dso_local void @_ZNSt12_Destroy_auxILb0EE9__destroyIPSt6vectorIiSaIiEEEEvT_S6_(%"class.std::vector.0"* %0, %"class.std::vector.0"* %1) #4 comdat align 2 {
  %3 = alloca %"class.std::vector.0"*, align 8, !llfi_index !216
  %4 = alloca %"class.std::vector.0"*, align 8, !llfi_index !217
  store %"class.std::vector.0"* %0, %"class.std::vector.0"** %3, align 8, !llfi_index !218
  store %"class.std::vector.0"* %1, %"class.std::vector.0"** %4, align 8, !llfi_index !219
  br label %5, !llfi_index !220

5:                                                ; preds = %12, %2
  %6 = load %"class.std::vector.0"*, %"class.std::vector.0"** %3, align 8, !llfi_index !221
  %7 = load %"class.std::vector.0"*, %"class.std::vector.0"** %4, align 8, !llfi_index !222
  %8 = icmp ne %"class.std::vector.0"* %6, %7, !llfi_index !223
  br i1 %8, label %9, label %15, !llfi_index !224

9:                                                ; preds = %5
  %10 = load %"class.std::vector.0"*, %"class.std::vector.0"** %3, align 8, !llfi_index !225
  %11 = call %"class.std::vector.0"* @_ZSt11__addressofISt6vectorIiSaIiEEEPT_RS3_(%"class.std::vector.0"* nonnull align 8 dereferenceable(24) %10) #2, !llfi_index !226
  call void @_ZSt8_DestroyISt6vectorIiSaIiEEEvPT_(%"class.std::vector.0"* %11), !llfi_index !227
  br label %12, !llfi_index !228

12:                                               ; preds = %9
  %13 = load %"class.std::vector.0"*, %"class.std::vector.0"** %3, align 8, !llfi_index !229
  %14 = getelementptr inbounds %"class.std::vector.0", %"class.std::vector.0"* %13, i32 1, !llfi_index !230
  store %"class.std::vector.0"* %14, %"class.std::vector.0"** %3, align 8, !llfi_index !231
  br label %5, !llvm.loop !232, !llfi_index !234

15:                                               ; preds = %5
  ret void, !llfi_index !235
}

; Function Attrs: mustprogress noinline nounwind uwtable
define linkonce_odr dso_local %"class.std::vector.0"* @_ZSt11__addressofISt6vectorIiSaIiEEEPT_RS3_(%"class.std::vector.0"* nonnull align 8 dereferenceable(24) %0) #3 comdat {
  %2 = alloca %"class.std::vector.0"*, align 8, !llfi_index !236
  store %"class.std::vector.0"* %0, %"class.std::vector.0"** %2, align 8, !llfi_index !237
  %3 = load %"class.std::vector.0"*, %"class.std::vector.0"** %2, align 8, !llfi_index !238
  ret %"class.std::vector.0"* %3, !llfi_index !239
}

; Function Attrs: mustprogress noinline nounwind uwtable
define linkonce_odr dso_local void @_ZSt8_DestroyISt6vectorIiSaIiEEEvPT_(%"class.std::vector.0"* %0) #3 comdat {
  %2 = alloca %"class.std::vector.0"*, align 8, !llfi_index !240
  store %"class.std::vector.0"* %0, %"class.std::vector.0"** %2, align 8, !llfi_index !241
  %3 = load %"class.std::vector.0"*, %"class.std::vector.0"** %2, align 8, !llfi_index !242
  call void @_ZNSt6vectorIiSaIiEED2Ev(%"class.std::vector.0"* nonnull align 8 dereferenceable(24) %3) #2, !llfi_index !243
  ret void, !llfi_index !244
}

; Function Attrs: noinline nounwind uwtable
define linkonce_odr dso_local void @_ZNSt6vectorIiSaIiEED2Ev(%"class.std::vector.0"* nonnull align 8 dereferenceable(24) %0) unnamed_addr #1 comdat align 2 personality i8* bitcast (i32 (...)* @__gxx_personality_v0 to i8*) {
  %2 = alloca %"class.std::vector.0"*, align 8, !llfi_index !245
  %3 = alloca i8*, align 8, !llfi_index !246
  %4 = alloca i32, align 4, !llfi_index !247
  store %"class.std::vector.0"* %0, %"class.std::vector.0"** %2, align 8, !llfi_index !248
  %5 = load %"class.std::vector.0"*, %"class.std::vector.0"** %2, align 8, !llfi_index !249
  %6 = bitcast %"class.std::vector.0"* %5 to %"struct.std::_Vector_base.1"*, !llfi_index !250
  %7 = getelementptr inbounds %"struct.std::_Vector_base.1", %"struct.std::_Vector_base.1"* %6, i32 0, i32 0, !llfi_index !251
  %8 = bitcast %"struct.std::_Vector_base<int, std::allocator<int>>::_Vector_impl"* %7 to %"struct.std::_Vector_base<int, std::allocator<int>>::_Vector_impl_data"*, !llfi_index !252
  %9 = getelementptr inbounds %"struct.std::_Vector_base<int, std::allocator<int>>::_Vector_impl_data", %"struct.std::_Vector_base<int, std::allocator<int>>::_Vector_impl_data"* %8, i32 0, i32 0, !llfi_index !253
  %10 = load i32*, i32** %9, align 8, !llfi_index !254
  %11 = bitcast %"class.std::vector.0"* %5 to %"struct.std::_Vector_base.1"*, !llfi_index !255
  %12 = getelementptr inbounds %"struct.std::_Vector_base.1", %"struct.std::_Vector_base.1"* %11, i32 0, i32 0, !llfi_index !256
  %13 = bitcast %"struct.std::_Vector_base<int, std::allocator<int>>::_Vector_impl"* %12 to %"struct.std::_Vector_base<int, std::allocator<int>>::_Vector_impl_data"*, !llfi_index !257
  %14 = getelementptr inbounds %"struct.std::_Vector_base<int, std::allocator<int>>::_Vector_impl_data", %"struct.std::_Vector_base<int, std::allocator<int>>::_Vector_impl_data"* %13, i32 0, i32 1, !llfi_index !258
  %15 = load i32*, i32** %14, align 8, !llfi_index !259
  %16 = bitcast %"class.std::vector.0"* %5 to %"struct.std::_Vector_base.1"*, !llfi_index !260
  %17 = call nonnull align 1 dereferenceable(1) %"class.std::allocator"* @_ZNSt12_Vector_baseIiSaIiEE19_M_get_Tp_allocatorEv(%"struct.std::_Vector_base.1"* nonnull align 8 dereferenceable(24) %16) #2, !llfi_index !261
  invoke void @_ZSt8_DestroyIPiiEvT_S1_RSaIT0_E(i32* %10, i32* %15, %"class.std::allocator"* nonnull align 1 dereferenceable(1) %17)
          to label %18 unwind label %20, !llfi_index !262

18:                                               ; preds = %1
  %19 = bitcast %"class.std::vector.0"* %5 to %"struct.std::_Vector_base.1"*, !llfi_index !263
  call void @_ZNSt12_Vector_baseIiSaIiEED2Ev(%"struct.std::_Vector_base.1"* nonnull align 8 dereferenceable(24) %19) #2, !llfi_index !264
  ret void, !llfi_index !265

20:                                               ; preds = %1
  %21 = landingpad { i8*, i32 }
          catch i8* null, !llfi_index !266
  %22 = extractvalue { i8*, i32 } %21, 0, !llfi_index !267
  store i8* %22, i8** %3, align 8, !llfi_index !268
  %23 = extractvalue { i8*, i32 } %21, 1, !llfi_index !269
  store i32 %23, i32* %4, align 4, !llfi_index !270
  %24 = bitcast %"class.std::vector.0"* %5 to %"struct.std::_Vector_base.1"*, !llfi_index !271
  call void @_ZNSt12_Vector_baseIiSaIiEED2Ev(%"struct.std::_Vector_base.1"* nonnull align 8 dereferenceable(24) %24) #2, !llfi_index !272
  br label %25, !llfi_index !273

25:                                               ; preds = %20
  %26 = load i8*, i8** %3, align 8, !llfi_index !274
  call void @__clang_call_terminate(i8* %26) #16, !llfi_index !275
  unreachable, !llfi_index !276
}

; Function Attrs: mustprogress noinline nounwind uwtable
define linkonce_odr dso_local nonnull align 1 dereferenceable(1) %"class.std::allocator"* @_ZNSt12_Vector_baseIiSaIiEE19_M_get_Tp_allocatorEv(%"struct.std::_Vector_base.1"* nonnull align 8 dereferenceable(24) %0) #3 comdat align 2 {
  %2 = alloca %"struct.std::_Vector_base.1"*, align 8, !llfi_index !277
  store %"struct.std::_Vector_base.1"* %0, %"struct.std::_Vector_base.1"** %2, align 8, !llfi_index !278
  %3 = load %"struct.std::_Vector_base.1"*, %"struct.std::_Vector_base.1"** %2, align 8, !llfi_index !279
  %4 = getelementptr inbounds %"struct.std::_Vector_base.1", %"struct.std::_Vector_base.1"* %3, i32 0, i32 0, !llfi_index !280
  %5 = bitcast %"struct.std::_Vector_base<int, std::allocator<int>>::_Vector_impl"* %4 to %"class.std::allocator"*, !llfi_index !281
  ret %"class.std::allocator"* %5, !llfi_index !282
}

; Function Attrs: mustprogress noinline uwtable
define linkonce_odr dso_local void @_ZSt8_DestroyIPiiEvT_S1_RSaIT0_E(i32* %0, i32* %1, %"class.std::allocator"* nonnull align 1 dereferenceable(1) %2) #4 comdat {
  %4 = alloca i32*, align 8, !llfi_index !283
  %5 = alloca i32*, align 8, !llfi_index !284
  %6 = alloca %"class.std::allocator"*, align 8, !llfi_index !285
  store i32* %0, i32** %4, align 8, !llfi_index !286
  store i32* %1, i32** %5, align 8, !llfi_index !287
  store %"class.std::allocator"* %2, %"class.std::allocator"** %6, align 8, !llfi_index !288
  %7 = load i32*, i32** %4, align 8, !llfi_index !289
  %8 = load i32*, i32** %5, align 8, !llfi_index !290
  call void @_ZSt8_DestroyIPiEvT_S1_(i32* %7, i32* %8), !llfi_index !291
  ret void, !llfi_index !292
}

; Function Attrs: noinline nounwind uwtable
define linkonce_odr dso_local void @_ZNSt12_Vector_baseIiSaIiEED2Ev(%"struct.std::_Vector_base.1"* nonnull align 8 dereferenceable(24) %0) unnamed_addr #1 comdat align 2 personality i8* bitcast (i32 (...)* @__gxx_personality_v0 to i8*) {
  %2 = alloca %"struct.std::_Vector_base.1"*, align 8, !llfi_index !293
  %3 = alloca i8*, align 8, !llfi_index !294
  %4 = alloca i32, align 4, !llfi_index !295
  store %"struct.std::_Vector_base.1"* %0, %"struct.std::_Vector_base.1"** %2, align 8, !llfi_index !296
  %5 = load %"struct.std::_Vector_base.1"*, %"struct.std::_Vector_base.1"** %2, align 8, !llfi_index !297
  %6 = getelementptr inbounds %"struct.std::_Vector_base.1", %"struct.std::_Vector_base.1"* %5, i32 0, i32 0, !llfi_index !298
  %7 = bitcast %"struct.std::_Vector_base<int, std::allocator<int>>::_Vector_impl"* %6 to %"struct.std::_Vector_base<int, std::allocator<int>>::_Vector_impl_data"*, !llfi_index !299
  %8 = getelementptr inbounds %"struct.std::_Vector_base<int, std::allocator<int>>::_Vector_impl_data", %"struct.std::_Vector_base<int, std::allocator<int>>::_Vector_impl_data"* %7, i32 0, i32 0, !llfi_index !300
  %9 = load i32*, i32** %8, align 8, !llfi_index !301
  %10 = getelementptr inbounds %"struct.std::_Vector_base.1", %"struct.std::_Vector_base.1"* %5, i32 0, i32 0, !llfi_index !302
  %11 = bitcast %"struct.std::_Vector_base<int, std::allocator<int>>::_Vector_impl"* %10 to %"struct.std::_Vector_base<int, std::allocator<int>>::_Vector_impl_data"*, !llfi_index !303
  %12 = getelementptr inbounds %"struct.std::_Vector_base<int, std::allocator<int>>::_Vector_impl_data", %"struct.std::_Vector_base<int, std::allocator<int>>::_Vector_impl_data"* %11, i32 0, i32 2, !llfi_index !304
  %13 = load i32*, i32** %12, align 8, !llfi_index !305
  %14 = getelementptr inbounds %"struct.std::_Vector_base.1", %"struct.std::_Vector_base.1"* %5, i32 0, i32 0, !llfi_index !306
  %15 = bitcast %"struct.std::_Vector_base<int, std::allocator<int>>::_Vector_impl"* %14 to %"struct.std::_Vector_base<int, std::allocator<int>>::_Vector_impl_data"*, !llfi_index !307
  %16 = getelementptr inbounds %"struct.std::_Vector_base<int, std::allocator<int>>::_Vector_impl_data", %"struct.std::_Vector_base<int, std::allocator<int>>::_Vector_impl_data"* %15, i32 0, i32 0, !llfi_index !308
  %17 = load i32*, i32** %16, align 8, !llfi_index !309
  %18 = ptrtoint i32* %13 to i64, !llfi_index !310
  %19 = ptrtoint i32* %17 to i64, !llfi_index !311
  %20 = sub i64 %18, %19, !llfi_index !312
  %21 = sdiv exact i64 %20, 4, !llfi_index !313
  invoke void @_ZNSt12_Vector_baseIiSaIiEE13_M_deallocateEPim(%"struct.std::_Vector_base.1"* nonnull align 8 dereferenceable(24) %5, i32* %9, i64 %21)
          to label %22 unwind label %24, !llfi_index !314

22:                                               ; preds = %1
  %23 = getelementptr inbounds %"struct.std::_Vector_base.1", %"struct.std::_Vector_base.1"* %5, i32 0, i32 0, !llfi_index !315
  call void @_ZNSt12_Vector_baseIiSaIiEE12_Vector_implD2Ev(%"struct.std::_Vector_base<int, std::allocator<int>>::_Vector_impl"* nonnull align 8 dereferenceable(24) %23) #2, !llfi_index !316
  ret void, !llfi_index !317

24:                                               ; preds = %1
  %25 = landingpad { i8*, i32 }
          catch i8* null, !llfi_index !318
  %26 = extractvalue { i8*, i32 } %25, 0, !llfi_index !319
  store i8* %26, i8** %3, align 8, !llfi_index !320
  %27 = extractvalue { i8*, i32 } %25, 1, !llfi_index !321
  store i32 %27, i32* %4, align 4, !llfi_index !322
  %28 = getelementptr inbounds %"struct.std::_Vector_base.1", %"struct.std::_Vector_base.1"* %5, i32 0, i32 0, !llfi_index !323
  call void @_ZNSt12_Vector_baseIiSaIiEE12_Vector_implD2Ev(%"struct.std::_Vector_base<int, std::allocator<int>>::_Vector_impl"* nonnull align 8 dereferenceable(24) %28) #2, !llfi_index !324
  br label %29, !llfi_index !325

29:                                               ; preds = %24
  %30 = load i8*, i8** %3, align 8, !llfi_index !326
  call void @__clang_call_terminate(i8* %30) #16, !llfi_index !327
  unreachable, !llfi_index !328
}

; Function Attrs: mustprogress noinline uwtable
define linkonce_odr dso_local void @_ZNSt12_Vector_baseIiSaIiEE13_M_deallocateEPim(%"struct.std::_Vector_base.1"* nonnull align 8 dereferenceable(24) %0, i32* %1, i64 %2) #4 comdat align 2 {
  %4 = alloca %"struct.std::_Vector_base.1"*, align 8, !llfi_index !329
  %5 = alloca i32*, align 8, !llfi_index !330
  %6 = alloca i64, align 8, !llfi_index !331
  store %"struct.std::_Vector_base.1"* %0, %"struct.std::_Vector_base.1"** %4, align 8, !llfi_index !332
  store i32* %1, i32** %5, align 8, !llfi_index !333
  store i64 %2, i64* %6, align 8, !llfi_index !334
  %7 = load %"struct.std::_Vector_base.1"*, %"struct.std::_Vector_base.1"** %4, align 8, !llfi_index !335
  %8 = load i32*, i32** %5, align 8, !llfi_index !336
  %9 = icmp ne i32* %8, null, !llfi_index !337
  br i1 %9, label %10, label %15, !llfi_index !338

10:                                               ; preds = %3
  %11 = getelementptr inbounds %"struct.std::_Vector_base.1", %"struct.std::_Vector_base.1"* %7, i32 0, i32 0, !llfi_index !339
  %12 = bitcast %"struct.std::_Vector_base<int, std::allocator<int>>::_Vector_impl"* %11 to %"class.std::allocator"*, !llfi_index !340
  %13 = load i32*, i32** %5, align 8, !llfi_index !341
  %14 = load i64, i64* %6, align 8, !llfi_index !342
  call void @_ZNSt16allocator_traitsISaIiEE10deallocateERS0_Pim(%"class.std::allocator"* nonnull align 1 dereferenceable(1) %12, i32* %13, i64 %14), !llfi_index !343
  br label %15, !llfi_index !344

15:                                               ; preds = %10, %3
  ret void, !llfi_index !345
}

; Function Attrs: noinline nounwind uwtable
define linkonce_odr dso_local void @_ZNSt12_Vector_baseIiSaIiEE12_Vector_implD2Ev(%"struct.std::_Vector_base<int, std::allocator<int>>::_Vector_impl"* nonnull align 8 dereferenceable(24) %0) unnamed_addr #1 comdat align 2 {
  %2 = alloca %"struct.std::_Vector_base<int, std::allocator<int>>::_Vector_impl"*, align 8, !llfi_index !346
  store %"struct.std::_Vector_base<int, std::allocator<int>>::_Vector_impl"* %0, %"struct.std::_Vector_base<int, std::allocator<int>>::_Vector_impl"** %2, align 8, !llfi_index !347
  %3 = load %"struct.std::_Vector_base<int, std::allocator<int>>::_Vector_impl"*, %"struct.std::_Vector_base<int, std::allocator<int>>::_Vector_impl"** %2, align 8, !llfi_index !348
  %4 = bitcast %"struct.std::_Vector_base<int, std::allocator<int>>::_Vector_impl"* %3 to %"class.std::allocator"*, !llfi_index !349
  call void @_ZNSaIiED2Ev(%"class.std::allocator"* nonnull align 1 dereferenceable(1) %4) #2, !llfi_index !350
  ret void, !llfi_index !351
}

; Function Attrs: noinline nounwind uwtable
define linkonce_odr dso_local void @_ZNSaIiED2Ev(%"class.std::allocator"* nonnull align 1 dereferenceable(1) %0) unnamed_addr #1 comdat align 2 {
  %2 = alloca %"class.std::allocator"*, align 8, !llfi_index !352
  store %"class.std::allocator"* %0, %"class.std::allocator"** %2, align 8, !llfi_index !353
  %3 = load %"class.std::allocator"*, %"class.std::allocator"** %2, align 8, !llfi_index !354
  %4 = bitcast %"class.std::allocator"* %3 to %"class.std::allocator"*, !llfi_index !355
  call void @_ZN9__gnu_cxx13new_allocatorIiED2Ev(%"class.std::allocator"* nonnull align 1 dereferenceable(1) %4) #2, !llfi_index !356
  ret void, !llfi_index !357
}

; Function Attrs: noinline nounwind uwtable
define linkonce_odr dso_local void @_ZN9__gnu_cxx13new_allocatorIiED2Ev(%"class.std::allocator"* nonnull align 1 dereferenceable(1) %0) unnamed_addr #1 comdat align 2 {
  %2 = alloca %"class.std::allocator"*, align 8, !llfi_index !358
  store %"class.std::allocator"* %0, %"class.std::allocator"** %2, align 8, !llfi_index !359
  %3 = load %"class.std::allocator"*, %"class.std::allocator"** %2, align 8, !llfi_index !360
  ret void, !llfi_index !361
}

; Function Attrs: mustprogress noinline uwtable
define linkonce_odr dso_local void @_ZNSt16allocator_traitsISaIiEE10deallocateERS0_Pim(%"class.std::allocator"* nonnull align 1 dereferenceable(1) %0, i32* %1, i64 %2) #4 comdat align 2 {
  %4 = alloca %"class.std::allocator"*, align 8, !llfi_index !362
  %5 = alloca i32*, align 8, !llfi_index !363
  %6 = alloca i64, align 8, !llfi_index !364
  store %"class.std::allocator"* %0, %"class.std::allocator"** %4, align 8, !llfi_index !365
  store i32* %1, i32** %5, align 8, !llfi_index !366
  store i64 %2, i64* %6, align 8, !llfi_index !367
  %7 = load %"class.std::allocator"*, %"class.std::allocator"** %4, align 8, !llfi_index !368
  %8 = bitcast %"class.std::allocator"* %7 to %"class.std::allocator"*, !llfi_index !369
  %9 = load i32*, i32** %5, align 8, !llfi_index !370
  %10 = load i64, i64* %6, align 8, !llfi_index !371
  call void @_ZN9__gnu_cxx13new_allocatorIiE10deallocateEPim(%"class.std::allocator"* nonnull align 1 dereferenceable(1) %8, i32* %9, i64 %10), !llfi_index !372
  ret void, !llfi_index !373
}

; Function Attrs: mustprogress noinline nounwind uwtable
define linkonce_odr dso_local void @_ZN9__gnu_cxx13new_allocatorIiE10deallocateEPim(%"class.std::allocator"* nonnull align 1 dereferenceable(1) %0, i32* %1, i64 %2) #3 comdat align 2 {
  %4 = alloca %"class.std::allocator"*, align 8, !llfi_index !374
  %5 = alloca i32*, align 8, !llfi_index !375
  %6 = alloca i64, align 8, !llfi_index !376
  store %"class.std::allocator"* %0, %"class.std::allocator"** %4, align 8, !llfi_index !377
  store i32* %1, i32** %5, align 8, !llfi_index !378
  store i64 %2, i64* %6, align 8, !llfi_index !379
  %7 = load %"class.std::allocator"*, %"class.std::allocator"** %4, align 8, !llfi_index !380
  %8 = load i32*, i32** %5, align 8, !llfi_index !381
  %9 = bitcast i32* %8 to i8*, !llfi_index !382
  call void @_ZdlPv(i8* %9) #2, !llfi_index !383
  ret void, !llfi_index !384
}

; Function Attrs: mustprogress noinline uwtable
define linkonce_odr dso_local void @_ZSt8_DestroyIPiEvT_S1_(i32* %0, i32* %1) #4 comdat {
  %3 = alloca i32*, align 8, !llfi_index !385
  %4 = alloca i32*, align 8, !llfi_index !386
  store i32* %0, i32** %3, align 8, !llfi_index !387
  store i32* %1, i32** %4, align 8, !llfi_index !388
  %5 = load i32*, i32** %3, align 8, !llfi_index !389
  %6 = load i32*, i32** %4, align 8, !llfi_index !390
  call void @_ZNSt12_Destroy_auxILb1EE9__destroyIPiEEvT_S3_(i32* %5, i32* %6), !llfi_index !391
  ret void, !llfi_index !392
}

; Function Attrs: mustprogress noinline nounwind uwtable
define linkonce_odr dso_local void @_ZNSt12_Destroy_auxILb1EE9__destroyIPiEEvT_S3_(i32* %0, i32* %1) #3 comdat align 2 {
  %3 = alloca i32*, align 8, !llfi_index !393
  %4 = alloca i32*, align 8, !llfi_index !394
  store i32* %0, i32** %3, align 8, !llfi_index !395
  store i32* %1, i32** %4, align 8, !llfi_index !396
  ret void, !llfi_index !397
}

; Function Attrs: noinline nounwind uwtable
define linkonce_odr dso_local void @_ZN9__gnu_cxx13new_allocatorISt6vectorIiSaIiEEED2Ev(%"class.std::allocator"* nonnull align 1 dereferenceable(1) %0) unnamed_addr #1 comdat align 2 {
  %2 = alloca %"class.std::allocator"*, align 8, !llfi_index !398
  store %"class.std::allocator"* %0, %"class.std::allocator"** %2, align 8, !llfi_index !399
  %3 = load %"class.std::allocator"*, %"class.std::allocator"** %2, align 8, !llfi_index !400
  ret void, !llfi_index !401
}

; Function Attrs: mustprogress noinline uwtable
define linkonce_odr dso_local i64 @_ZNSt6vectorIS_IiSaIiEESaIS1_EE17_S_check_init_lenEmRKS2_(i64 %0, %"class.std::allocator"* nonnull align 1 dereferenceable(1) %1) #4 comdat align 2 {
  %3 = alloca i64, align 8, !llfi_index !402
  %4 = alloca %"class.std::allocator"*, align 8, !llfi_index !403
  %5 = alloca %"class.std::allocator", align 1, !llfi_index !404
  store i64 %0, i64* %3, align 8, !llfi_index !405
  store %"class.std::allocator"* %1, %"class.std::allocator"** %4, align 8, !llfi_index !406
  %6 = load i64, i64* %3, align 8, !llfi_index !407
  %7 = load %"class.std::allocator"*, %"class.std::allocator"** %4, align 8, !llfi_index !408
  call void @_ZNSaISt6vectorIiSaIiEEEC2ERKS2_(%"class.std::allocator"* nonnull align 1 dereferenceable(1) %5, %"class.std::allocator"* nonnull align 1 dereferenceable(1) %7) #2, !llfi_index !409
  %8 = call i64 @_ZNSt6vectorIS_IiSaIiEESaIS1_EE11_S_max_sizeERKS2_(%"class.std::allocator"* nonnull align 1 dereferenceable(1) %5) #2, !llfi_index !410
  %9 = icmp ugt i64 %6, %8, !llfi_index !411
  call void @_ZNSaISt6vectorIiSaIiEEED2Ev(%"class.std::allocator"* nonnull align 1 dereferenceable(1) %5) #2, !llfi_index !412
  br i1 %9, label %10, label %11, !llfi_index !413

10:                                               ; preds = %2
  call void @_ZSt20__throw_length_errorPKc(i8* getelementptr inbounds ([49 x i8], [49 x i8]* @.str.8, i64 0, i64 0)) #17, !llfi_index !414
  unreachable, !llfi_index !415

11:                                               ; preds = %2
  %12 = load i64, i64* %3, align 8, !llfi_index !416
  ret i64 %12, !llfi_index !417
}

; Function Attrs: noinline uwtable
define linkonce_odr dso_local void @_ZNSt12_Vector_baseISt6vectorIiSaIiEESaIS2_EEC2EmRKS3_(%"struct.std::_Vector_base"* nonnull align 8 dereferenceable(24) %0, i64 %1, %"class.std::allocator"* nonnull align 1 dereferenceable(1) %2) unnamed_addr #0 comdat align 2 personality i8* bitcast (i32 (...)* @__gxx_personality_v0 to i8*) {
  %4 = alloca %"struct.std::_Vector_base"*, align 8, !llfi_index !418
  %5 = alloca i64, align 8, !llfi_index !419
  %6 = alloca %"class.std::allocator"*, align 8, !llfi_index !420
  %7 = alloca i8*, align 8, !llfi_index !421
  %8 = alloca i32, align 4, !llfi_index !422
  store %"struct.std::_Vector_base"* %0, %"struct.std::_Vector_base"** %4, align 8, !llfi_index !423
  store i64 %1, i64* %5, align 8, !llfi_index !424
  store %"class.std::allocator"* %2, %"class.std::allocator"** %6, align 8, !llfi_index !425
  %9 = load %"struct.std::_Vector_base"*, %"struct.std::_Vector_base"** %4, align 8, !llfi_index !426
  %10 = getelementptr inbounds %"struct.std::_Vector_base", %"struct.std::_Vector_base"* %9, i32 0, i32 0, !llfi_index !427
  %11 = load %"class.std::allocator"*, %"class.std::allocator"** %6, align 8, !llfi_index !428
  call void @_ZNSt12_Vector_baseISt6vectorIiSaIiEESaIS2_EE12_Vector_implC2ERKS3_(%"struct.std::_Vector_base<std::vector<int>, std::allocator<std::vector<int>>>::_Vector_impl"* nonnull align 8 dereferenceable(24) %10, %"class.std::allocator"* nonnull align 1 dereferenceable(1) %11) #2, !llfi_index !429
  %12 = load i64, i64* %5, align 8, !llfi_index !430
  invoke void @_ZNSt12_Vector_baseISt6vectorIiSaIiEESaIS2_EE17_M_create_storageEm(%"struct.std::_Vector_base"* nonnull align 8 dereferenceable(24) %9, i64 %12)
          to label %13 unwind label %14, !llfi_index !431

13:                                               ; preds = %3
  ret void, !llfi_index !432

14:                                               ; preds = %3
  %15 = landingpad { i8*, i32 }
          cleanup, !llfi_index !433
  %16 = extractvalue { i8*, i32 } %15, 0, !llfi_index !434
  store i8* %16, i8** %7, align 8, !llfi_index !435
  %17 = extractvalue { i8*, i32 } %15, 1, !llfi_index !436
  store i32 %17, i32* %8, align 4, !llfi_index !437
  call void @_ZNSt12_Vector_baseISt6vectorIiSaIiEESaIS2_EE12_Vector_implD2Ev(%"struct.std::_Vector_base<std::vector<int>, std::allocator<std::vector<int>>>::_Vector_impl"* nonnull align 8 dereferenceable(24) %10) #2, !llfi_index !438
  br label %18, !llfi_index !439

18:                                               ; preds = %14
  %19 = load i8*, i8** %7, align 8, !llfi_index !440
  %20 = load i32, i32* %8, align 4, !llfi_index !441
  %21 = insertvalue { i8*, i32 } undef, i8* %19, 0, !llfi_index !442
  %22 = insertvalue { i8*, i32 } %21, i32 %20, 1, !llfi_index !443
  resume { i8*, i32 } %22, !llfi_index !444
}

; Function Attrs: mustprogress noinline uwtable
define linkonce_odr dso_local void @_ZNSt6vectorIS_IiSaIiEESaIS1_EE21_M_default_initializeEm(%"class.std::vector"* nonnull align 8 dereferenceable(24) %0, i64 %1) #4 comdat align 2 {
  %3 = alloca %"class.std::vector"*, align 8, !llfi_index !445
  %4 = alloca i64, align 8, !llfi_index !446
  store %"class.std::vector"* %0, %"class.std::vector"** %3, align 8, !llfi_index !447
  store i64 %1, i64* %4, align 8, !llfi_index !448
  %5 = load %"class.std::vector"*, %"class.std::vector"** %3, align 8, !llfi_index !449
  %6 = bitcast %"class.std::vector"* %5 to %"struct.std::_Vector_base"*, !llfi_index !450
  %7 = getelementptr inbounds %"struct.std::_Vector_base", %"struct.std::_Vector_base"* %6, i32 0, i32 0, !llfi_index !451
  %8 = bitcast %"struct.std::_Vector_base<std::vector<int>, std::allocator<std::vector<int>>>::_Vector_impl"* %7 to %"struct.std::_Vector_base<std::vector<int>, std::allocator<std::vector<int>>>::_Vector_impl_data"*, !llfi_index !452
  %9 = getelementptr inbounds %"struct.std::_Vector_base<std::vector<int>, std::allocator<std::vector<int>>>::_Vector_impl_data", %"struct.std::_Vector_base<std::vector<int>, std::allocator<std::vector<int>>>::_Vector_impl_data"* %8, i32 0, i32 0, !llfi_index !453
  %10 = load %"class.std::vector.0"*, %"class.std::vector.0"** %9, align 8, !llfi_index !454
  %11 = load i64, i64* %4, align 8, !llfi_index !455
  %12 = bitcast %"class.std::vector"* %5 to %"struct.std::_Vector_base"*, !llfi_index !456
  %13 = call nonnull align 1 dereferenceable(1) %"class.std::allocator"* @_ZNSt12_Vector_baseISt6vectorIiSaIiEESaIS2_EE19_M_get_Tp_allocatorEv(%"struct.std::_Vector_base"* nonnull align 8 dereferenceable(24) %12) #2, !llfi_index !457
  %14 = call %"class.std::vector.0"* @_ZSt27__uninitialized_default_n_aIPSt6vectorIiSaIiEEmS2_ET_S4_T0_RSaIT1_E(%"class.std::vector.0"* %10, i64 %11, %"class.std::allocator"* nonnull align 1 dereferenceable(1) %13), !llfi_index !458
  %15 = bitcast %"class.std::vector"* %5 to %"struct.std::_Vector_base"*, !llfi_index !459
  %16 = getelementptr inbounds %"struct.std::_Vector_base", %"struct.std::_Vector_base"* %15, i32 0, i32 0, !llfi_index !460
  %17 = bitcast %"struct.std::_Vector_base<std::vector<int>, std::allocator<std::vector<int>>>::_Vector_impl"* %16 to %"struct.std::_Vector_base<std::vector<int>, std::allocator<std::vector<int>>>::_Vector_impl_data"*, !llfi_index !461
  %18 = getelementptr inbounds %"struct.std::_Vector_base<std::vector<int>, std::allocator<std::vector<int>>>::_Vector_impl_data", %"struct.std::_Vector_base<std::vector<int>, std::allocator<std::vector<int>>>::_Vector_impl_data"* %17, i32 0, i32 1, !llfi_index !462
  store %"class.std::vector.0"* %14, %"class.std::vector.0"** %18, align 8, !llfi_index !463
  ret void, !llfi_index !464
}

; Function Attrs: mustprogress noinline uwtable
define linkonce_odr dso_local %"class.std::vector.0"* @_ZSt27__uninitialized_default_n_aIPSt6vectorIiSaIiEEmS2_ET_S4_T0_RSaIT1_E(%"class.std::vector.0"* %0, i64 %1, %"class.std::allocator"* nonnull align 1 dereferenceable(1) %2) #4 comdat {
  %4 = alloca %"class.std::vector.0"*, align 8, !llfi_index !465
  %5 = alloca i64, align 8, !llfi_index !466
  %6 = alloca %"class.std::allocator"*, align 8, !llfi_index !467
  store %"class.std::vector.0"* %0, %"class.std::vector.0"** %4, align 8, !llfi_index !468
  store i64 %1, i64* %5, align 8, !llfi_index !469
  store %"class.std::allocator"* %2, %"class.std::allocator"** %6, align 8, !llfi_index !470
  %7 = load %"class.std::vector.0"*, %"class.std::vector.0"** %4, align 8, !llfi_index !471
  %8 = load i64, i64* %5, align 8, !llfi_index !472
  %9 = call %"class.std::vector.0"* @_ZSt25__uninitialized_default_nIPSt6vectorIiSaIiEEmET_S4_T0_(%"class.std::vector.0"* %7, i64 %8), !llfi_index !473
  ret %"class.std::vector.0"* %9, !llfi_index !474
}

; Function Attrs: mustprogress noinline uwtable
define linkonce_odr dso_local %"class.std::vector.0"* @_ZSt25__uninitialized_default_nIPSt6vectorIiSaIiEEmET_S4_T0_(%"class.std::vector.0"* %0, i64 %1) #4 comdat {
  %3 = alloca %"class.std::vector.0"*, align 8, !llfi_index !475
  %4 = alloca i64, align 8, !llfi_index !476
  %5 = alloca i8, align 1, !llfi_index !477
  store %"class.std::vector.0"* %0, %"class.std::vector.0"** %3, align 8, !llfi_index !478
  store i64 %1, i64* %4, align 8, !llfi_index !479
  store i8 1, i8* %5, align 1, !llfi_index !480
  %6 = load %"class.std::vector.0"*, %"class.std::vector.0"** %3, align 8, !llfi_index !481
  %7 = load i64, i64* %4, align 8, !llfi_index !482
  %8 = call %"class.std::vector.0"* @_ZNSt27__uninitialized_default_n_1ILb0EE18__uninit_default_nIPSt6vectorIiSaIiEEmEET_S6_T0_(%"class.std::vector.0"* %6, i64 %7), !llfi_index !483
  ret %"class.std::vector.0"* %8, !llfi_index !484
}

; Function Attrs: mustprogress noinline uwtable
define linkonce_odr dso_local %"class.std::vector.0"* @_ZNSt27__uninitialized_default_n_1ILb0EE18__uninit_default_nIPSt6vectorIiSaIiEEmEET_S6_T0_(%"class.std::vector.0"* %0, i64 %1) #4 comdat align 2 personality i8* bitcast (i32 (...)* @__gxx_personality_v0 to i8*) {
  %3 = alloca %"class.std::vector.0"*, align 8, !llfi_index !485
  %4 = alloca i64, align 8, !llfi_index !486
  %5 = alloca %"class.std::vector.0"*, align 8, !llfi_index !487
  %6 = alloca i8*, align 8, !llfi_index !488
  %7 = alloca i32, align 4, !llfi_index !489
  store %"class.std::vector.0"* %0, %"class.std::vector.0"** %3, align 8, !llfi_index !490
  store i64 %1, i64* %4, align 8, !llfi_index !491
  %8 = load %"class.std::vector.0"*, %"class.std::vector.0"** %3, align 8, !llfi_index !492
  store %"class.std::vector.0"* %8, %"class.std::vector.0"** %5, align 8, !llfi_index !493
  br label %9, !llfi_index !494

9:                                                ; preds = %16, %2
  %10 = load i64, i64* %4, align 8, !llfi_index !495
  %11 = icmp ugt i64 %10, 0, !llfi_index !496
  br i1 %11, label %12, label %31, !llfi_index !497

12:                                               ; preds = %9
  %13 = load %"class.std::vector.0"*, %"class.std::vector.0"** %5, align 8, !llfi_index !498
  %14 = call %"class.std::vector.0"* @_ZSt11__addressofISt6vectorIiSaIiEEEPT_RS3_(%"class.std::vector.0"* nonnull align 8 dereferenceable(24) %13) #2, !llfi_index !499
  invoke void @_ZSt10_ConstructISt6vectorIiSaIiEEJEEvPT_DpOT0_(%"class.std::vector.0"* %14)
          to label %15 unwind label %21, !llfi_index !500

15:                                               ; preds = %12
  br label %16, !llfi_index !501

16:                                               ; preds = %15
  %17 = load i64, i64* %4, align 8, !llfi_index !502
  %18 = add i64 %17, -1, !llfi_index !503
  store i64 %18, i64* %4, align 8, !llfi_index !504
  %19 = load %"class.std::vector.0"*, %"class.std::vector.0"** %5, align 8, !llfi_index !505
  %20 = getelementptr inbounds %"class.std::vector.0", %"class.std::vector.0"* %19, i32 1, !llfi_index !506
  store %"class.std::vector.0"* %20, %"class.std::vector.0"** %5, align 8, !llfi_index !507
  br label %9, !llvm.loop !508, !llfi_index !509

21:                                               ; preds = %12
  %22 = landingpad { i8*, i32 }
          catch i8* null, !llfi_index !510
  %23 = extractvalue { i8*, i32 } %22, 0, !llfi_index !511
  store i8* %23, i8** %6, align 8, !llfi_index !512
  %24 = extractvalue { i8*, i32 } %22, 1, !llfi_index !513
  store i32 %24, i32* %7, align 4, !llfi_index !514
  br label %25, !llfi_index !515

25:                                               ; preds = %21
  %26 = load i8*, i8** %6, align 8, !llfi_index !516
  %27 = call i8* @__cxa_begin_catch(i8* %26) #2, !llfi_index !517
  %28 = load %"class.std::vector.0"*, %"class.std::vector.0"** %3, align 8, !llfi_index !518
  %29 = load %"class.std::vector.0"*, %"class.std::vector.0"** %5, align 8, !llfi_index !519
  invoke void @_ZSt8_DestroyIPSt6vectorIiSaIiEEEvT_S4_(%"class.std::vector.0"* %28, %"class.std::vector.0"* %29)
          to label %30 unwind label %33, !llfi_index !520

30:                                               ; preds = %25
  invoke void @__cxa_rethrow() #17
          to label %47 unwind label %33, !llfi_index !521

31:                                               ; preds = %9
  %32 = load %"class.std::vector.0"*, %"class.std::vector.0"** %5, align 8, !llfi_index !522
  ret %"class.std::vector.0"* %32, !llfi_index !523

33:                                               ; preds = %30, %25
  %34 = landingpad { i8*, i32 }
          cleanup, !llfi_index !524
  %35 = extractvalue { i8*, i32 } %34, 0, !llfi_index !525
  store i8* %35, i8** %6, align 8, !llfi_index !526
  %36 = extractvalue { i8*, i32 } %34, 1, !llfi_index !527
  store i32 %36, i32* %7, align 4, !llfi_index !528
  invoke void @__cxa_end_catch()
          to label %37 unwind label %44, !llfi_index !529

37:                                               ; preds = %33
  br label %39, !llfi_index !530

38:                                               ; No predecessors!
  call void @llvm.trap(), !llfi_index !531
  unreachable, !llfi_index !532

39:                                               ; preds = %37
  %40 = load i8*, i8** %6, align 8, !llfi_index !533
  %41 = load i32, i32* %7, align 4, !llfi_index !534
  %42 = insertvalue { i8*, i32 } undef, i8* %40, 0, !llfi_index !535
  %43 = insertvalue { i8*, i32 } %42, i32 %41, 1, !llfi_index !536
  resume { i8*, i32 } %43, !llfi_index !537

44:                                               ; preds = %33
  %45 = landingpad { i8*, i32 }
          catch i8* null, !llfi_index !538
  %46 = extractvalue { i8*, i32 } %45, 0, !llfi_index !539
  call void @__clang_call_terminate(i8* %46) #16, !llfi_index !540
  unreachable, !llfi_index !541

47:                                               ; preds = %30
  unreachable, !llfi_index !542
}

; Function Attrs: mustprogress noinline nounwind uwtable
define linkonce_odr dso_local void @_ZSt10_ConstructISt6vectorIiSaIiEEJEEvPT_DpOT0_(%"class.std::vector.0"* %0) #3 comdat {
  %2 = alloca %"class.std::vector.0"*, align 8, !llfi_index !543
  store %"class.std::vector.0"* %0, %"class.std::vector.0"** %2, align 8, !llfi_index !544
  %3 = load %"class.std::vector.0"*, %"class.std::vector.0"** %2, align 8, !llfi_index !545
  %4 = bitcast %"class.std::vector.0"* %3 to i8*, !llfi_index !546
  %5 = bitcast i8* %4 to %"class.std::vector.0"*, !llfi_index !547
  %6 = bitcast %"class.std::vector.0"* %5 to i8*, !llfi_index !548
  call void @llvm.memset.p0i8.i64(i8* align 8 %6, i8 0, i64 24, i1 false), !llfi_index !549
  call void @_ZNSt6vectorIiSaIiEEC2Ev(%"class.std::vector.0"* nonnull align 8 dereferenceable(24) %5) #2, !llfi_index !550
  ret void, !llfi_index !551
}

declare dso_local void @__cxa_rethrow()

declare dso_local void @__cxa_end_catch()

; Function Attrs: cold noreturn nounwind
declare void @llvm.trap() #7

; Function Attrs: argmemonly nofree nounwind willreturn writeonly
declare void @llvm.memset.p0i8.i64(i8* nocapture writeonly, i8, i64, i1 immarg) #8

; Function Attrs: noinline nounwind uwtable
define linkonce_odr dso_local void @_ZNSt6vectorIiSaIiEEC2Ev(%"class.std::vector.0"* nonnull align 8 dereferenceable(24) %0) unnamed_addr #1 comdat align 2 {
  %2 = alloca %"class.std::vector.0"*, align 8, !llfi_index !552
  store %"class.std::vector.0"* %0, %"class.std::vector.0"** %2, align 8, !llfi_index !553
  %3 = load %"class.std::vector.0"*, %"class.std::vector.0"** %2, align 8, !llfi_index !554
  %4 = bitcast %"class.std::vector.0"* %3 to %"struct.std::_Vector_base.1"*, !llfi_index !555
  call void @_ZNSt12_Vector_baseIiSaIiEEC2Ev(%"struct.std::_Vector_base.1"* nonnull align 8 dereferenceable(24) %4) #2, !llfi_index !556
  ret void, !llfi_index !557
}

; Function Attrs: noinline nounwind uwtable
define linkonce_odr dso_local void @_ZNSt12_Vector_baseIiSaIiEEC2Ev(%"struct.std::_Vector_base.1"* nonnull align 8 dereferenceable(24) %0) unnamed_addr #1 comdat align 2 {
  %2 = alloca %"struct.std::_Vector_base.1"*, align 8, !llfi_index !558
  store %"struct.std::_Vector_base.1"* %0, %"struct.std::_Vector_base.1"** %2, align 8, !llfi_index !559
  %3 = load %"struct.std::_Vector_base.1"*, %"struct.std::_Vector_base.1"** %2, align 8, !llfi_index !560
  %4 = getelementptr inbounds %"struct.std::_Vector_base.1", %"struct.std::_Vector_base.1"* %3, i32 0, i32 0, !llfi_index !561
  call void @_ZNSt12_Vector_baseIiSaIiEE12_Vector_implC2Ev(%"struct.std::_Vector_base<int, std::allocator<int>>::_Vector_impl"* nonnull align 8 dereferenceable(24) %4) #2, !llfi_index !562
  ret void, !llfi_index !563
}

; Function Attrs: noinline nounwind uwtable
define linkonce_odr dso_local void @_ZNSt12_Vector_baseIiSaIiEE12_Vector_implC2Ev(%"struct.std::_Vector_base<int, std::allocator<int>>::_Vector_impl"* nonnull align 8 dereferenceable(24) %0) unnamed_addr #1 comdat align 2 {
  %2 = alloca %"struct.std::_Vector_base<int, std::allocator<int>>::_Vector_impl"*, align 8, !llfi_index !564
  store %"struct.std::_Vector_base<int, std::allocator<int>>::_Vector_impl"* %0, %"struct.std::_Vector_base<int, std::allocator<int>>::_Vector_impl"** %2, align 8, !llfi_index !565
  %3 = load %"struct.std::_Vector_base<int, std::allocator<int>>::_Vector_impl"*, %"struct.std::_Vector_base<int, std::allocator<int>>::_Vector_impl"** %2, align 8, !llfi_index !566
  %4 = bitcast %"struct.std::_Vector_base<int, std::allocator<int>>::_Vector_impl"* %3 to %"class.std::allocator"*, !llfi_index !567
  call void @_ZNSaIiEC2Ev(%"class.std::allocator"* nonnull align 1 dereferenceable(1) %4) #2, !llfi_index !568
  %5 = bitcast %"struct.std::_Vector_base<int, std::allocator<int>>::_Vector_impl"* %3 to %"struct.std::_Vector_base<int, std::allocator<int>>::_Vector_impl_data"*, !llfi_index !569
  call void @_ZNSt12_Vector_baseIiSaIiEE17_Vector_impl_dataC2Ev(%"struct.std::_Vector_base<int, std::allocator<int>>::_Vector_impl_data"* nonnull align 8 dereferenceable(24) %5) #2, !llfi_index !570
  ret void, !llfi_index !571
}

; Function Attrs: noinline nounwind uwtable
define linkonce_odr dso_local void @_ZNSaIiEC2Ev(%"class.std::allocator"* nonnull align 1 dereferenceable(1) %0) unnamed_addr #1 comdat align 2 {
  %2 = alloca %"class.std::allocator"*, align 8, !llfi_index !572
  store %"class.std::allocator"* %0, %"class.std::allocator"** %2, align 8, !llfi_index !573
  %3 = load %"class.std::allocator"*, %"class.std::allocator"** %2, align 8, !llfi_index !574
  %4 = bitcast %"class.std::allocator"* %3 to %"class.std::allocator"*, !llfi_index !575
  call void @_ZN9__gnu_cxx13new_allocatorIiEC2Ev(%"class.std::allocator"* nonnull align 1 dereferenceable(1) %4) #2, !llfi_index !576
  ret void, !llfi_index !577
}

; Function Attrs: noinline nounwind uwtable
define linkonce_odr dso_local void @_ZNSt12_Vector_baseIiSaIiEE17_Vector_impl_dataC2Ev(%"struct.std::_Vector_base<int, std::allocator<int>>::_Vector_impl_data"* nonnull align 8 dereferenceable(24) %0) unnamed_addr #1 comdat align 2 {
  %2 = alloca %"struct.std::_Vector_base<int, std::allocator<int>>::_Vector_impl_data"*, align 8, !llfi_index !578
  store %"struct.std::_Vector_base<int, std::allocator<int>>::_Vector_impl_data"* %0, %"struct.std::_Vector_base<int, std::allocator<int>>::_Vector_impl_data"** %2, align 8, !llfi_index !579
  %3 = load %"struct.std::_Vector_base<int, std::allocator<int>>::_Vector_impl_data"*, %"struct.std::_Vector_base<int, std::allocator<int>>::_Vector_impl_data"** %2, align 8, !llfi_index !580
  %4 = getelementptr inbounds %"struct.std::_Vector_base<int, std::allocator<int>>::_Vector_impl_data", %"struct.std::_Vector_base<int, std::allocator<int>>::_Vector_impl_data"* %3, i32 0, i32 0, !llfi_index !581
  store i32* null, i32** %4, align 8, !llfi_index !582
  %5 = getelementptr inbounds %"struct.std::_Vector_base<int, std::allocator<int>>::_Vector_impl_data", %"struct.std::_Vector_base<int, std::allocator<int>>::_Vector_impl_data"* %3, i32 0, i32 1, !llfi_index !583
  store i32* null, i32** %5, align 8, !llfi_index !584
  %6 = getelementptr inbounds %"struct.std::_Vector_base<int, std::allocator<int>>::_Vector_impl_data", %"struct.std::_Vector_base<int, std::allocator<int>>::_Vector_impl_data"* %3, i32 0, i32 2, !llfi_index !585
  store i32* null, i32** %6, align 8, !llfi_index !586
  ret void, !llfi_index !587
}

; Function Attrs: noinline nounwind uwtable
define linkonce_odr dso_local void @_ZN9__gnu_cxx13new_allocatorIiEC2Ev(%"class.std::allocator"* nonnull align 1 dereferenceable(1) %0) unnamed_addr #1 comdat align 2 {
  %2 = alloca %"class.std::allocator"*, align 8, !llfi_index !588
  store %"class.std::allocator"* %0, %"class.std::allocator"** %2, align 8, !llfi_index !589
  %3 = load %"class.std::allocator"*, %"class.std::allocator"** %2, align 8, !llfi_index !590
  ret void, !llfi_index !591
}

; Function Attrs: noinline nounwind uwtable
define linkonce_odr dso_local void @_ZNSt12_Vector_baseISt6vectorIiSaIiEESaIS2_EE12_Vector_implC2ERKS3_(%"struct.std::_Vector_base<std::vector<int>, std::allocator<std::vector<int>>>::_Vector_impl"* nonnull align 8 dereferenceable(24) %0, %"class.std::allocator"* nonnull align 1 dereferenceable(1) %1) unnamed_addr #1 comdat align 2 {
  %3 = alloca %"struct.std::_Vector_base<std::vector<int>, std::allocator<std::vector<int>>>::_Vector_impl"*, align 8, !llfi_index !592
  %4 = alloca %"class.std::allocator"*, align 8, !llfi_index !593
  store %"struct.std::_Vector_base<std::vector<int>, std::allocator<std::vector<int>>>::_Vector_impl"* %0, %"struct.std::_Vector_base<std::vector<int>, std::allocator<std::vector<int>>>::_Vector_impl"** %3, align 8, !llfi_index !594
  store %"class.std::allocator"* %1, %"class.std::allocator"** %4, align 8, !llfi_index !595
  %5 = load %"struct.std::_Vector_base<std::vector<int>, std::allocator<std::vector<int>>>::_Vector_impl"*, %"struct.std::_Vector_base<std::vector<int>, std::allocator<std::vector<int>>>::_Vector_impl"** %3, align 8, !llfi_index !596
  %6 = bitcast %"struct.std::_Vector_base<std::vector<int>, std::allocator<std::vector<int>>>::_Vector_impl"* %5 to %"class.std::allocator"*, !llfi_index !597
  %7 = load %"class.std::allocator"*, %"class.std::allocator"** %4, align 8, !llfi_index !598
  call void @_ZNSaISt6vectorIiSaIiEEEC2ERKS2_(%"class.std::allocator"* nonnull align 1 dereferenceable(1) %6, %"class.std::allocator"* nonnull align 1 dereferenceable(1) %7) #2, !llfi_index !599
  %8 = bitcast %"struct.std::_Vector_base<std::vector<int>, std::allocator<std::vector<int>>>::_Vector_impl"* %5 to %"struct.std::_Vector_base<std::vector<int>, std::allocator<std::vector<int>>>::_Vector_impl_data"*, !llfi_index !600
  call void @_ZNSt12_Vector_baseISt6vectorIiSaIiEESaIS2_EE17_Vector_impl_dataC2Ev(%"struct.std::_Vector_base<std::vector<int>, std::allocator<std::vector<int>>>::_Vector_impl_data"* nonnull align 8 dereferenceable(24) %8) #2, !llfi_index !601
  ret void, !llfi_index !602
}

; Function Attrs: mustprogress noinline uwtable
define linkonce_odr dso_local void @_ZNSt12_Vector_baseISt6vectorIiSaIiEESaIS2_EE17_M_create_storageEm(%"struct.std::_Vector_base"* nonnull align 8 dereferenceable(24) %0, i64 %1) #4 comdat align 2 {
  %3 = alloca %"struct.std::_Vector_base"*, align 8, !llfi_index !603
  %4 = alloca i64, align 8, !llfi_index !604
  store %"struct.std::_Vector_base"* %0, %"struct.std::_Vector_base"** %3, align 8, !llfi_index !605
  store i64 %1, i64* %4, align 8, !llfi_index !606
  %5 = load %"struct.std::_Vector_base"*, %"struct.std::_Vector_base"** %3, align 8, !llfi_index !607
  %6 = load i64, i64* %4, align 8, !llfi_index !608
  %7 = call %"class.std::vector.0"* @_ZNSt12_Vector_baseISt6vectorIiSaIiEESaIS2_EE11_M_allocateEm(%"struct.std::_Vector_base"* nonnull align 8 dereferenceable(24) %5, i64 %6), !llfi_index !609
  %8 = getelementptr inbounds %"struct.std::_Vector_base", %"struct.std::_Vector_base"* %5, i32 0, i32 0, !llfi_index !610
  %9 = bitcast %"struct.std::_Vector_base<std::vector<int>, std::allocator<std::vector<int>>>::_Vector_impl"* %8 to %"struct.std::_Vector_base<std::vector<int>, std::allocator<std::vector<int>>>::_Vector_impl_data"*, !llfi_index !611
  %10 = getelementptr inbounds %"struct.std::_Vector_base<std::vector<int>, std::allocator<std::vector<int>>>::_Vector_impl_data", %"struct.std::_Vector_base<std::vector<int>, std::allocator<std::vector<int>>>::_Vector_impl_data"* %9, i32 0, i32 0, !llfi_index !612
  store %"class.std::vector.0"* %7, %"class.std::vector.0"** %10, align 8, !llfi_index !613
  %11 = getelementptr inbounds %"struct.std::_Vector_base", %"struct.std::_Vector_base"* %5, i32 0, i32 0, !llfi_index !614
  %12 = bitcast %"struct.std::_Vector_base<std::vector<int>, std::allocator<std::vector<int>>>::_Vector_impl"* %11 to %"struct.std::_Vector_base<std::vector<int>, std::allocator<std::vector<int>>>::_Vector_impl_data"*, !llfi_index !615
  %13 = getelementptr inbounds %"struct.std::_Vector_base<std::vector<int>, std::allocator<std::vector<int>>>::_Vector_impl_data", %"struct.std::_Vector_base<std::vector<int>, std::allocator<std::vector<int>>>::_Vector_impl_data"* %12, i32 0, i32 0, !llfi_index !616
  %14 = load %"class.std::vector.0"*, %"class.std::vector.0"** %13, align 8, !llfi_index !617
  %15 = getelementptr inbounds %"struct.std::_Vector_base", %"struct.std::_Vector_base"* %5, i32 0, i32 0, !llfi_index !618
  %16 = bitcast %"struct.std::_Vector_base<std::vector<int>, std::allocator<std::vector<int>>>::_Vector_impl"* %15 to %"struct.std::_Vector_base<std::vector<int>, std::allocator<std::vector<int>>>::_Vector_impl_data"*, !llfi_index !619
  %17 = getelementptr inbounds %"struct.std::_Vector_base<std::vector<int>, std::allocator<std::vector<int>>>::_Vector_impl_data", %"struct.std::_Vector_base<std::vector<int>, std::allocator<std::vector<int>>>::_Vector_impl_data"* %16, i32 0, i32 1, !llfi_index !620
  store %"class.std::vector.0"* %14, %"class.std::vector.0"** %17, align 8, !llfi_index !621
  %18 = getelementptr inbounds %"struct.std::_Vector_base", %"struct.std::_Vector_base"* %5, i32 0, i32 0, !llfi_index !622
  %19 = bitcast %"struct.std::_Vector_base<std::vector<int>, std::allocator<std::vector<int>>>::_Vector_impl"* %18 to %"struct.std::_Vector_base<std::vector<int>, std::allocator<std::vector<int>>>::_Vector_impl_data"*, !llfi_index !623
  %20 = getelementptr inbounds %"struct.std::_Vector_base<std::vector<int>, std::allocator<std::vector<int>>>::_Vector_impl_data", %"struct.std::_Vector_base<std::vector<int>, std::allocator<std::vector<int>>>::_Vector_impl_data"* %19, i32 0, i32 0, !llfi_index !624
  %21 = load %"class.std::vector.0"*, %"class.std::vector.0"** %20, align 8, !llfi_index !625
  %22 = load i64, i64* %4, align 8, !llfi_index !626
  %23 = getelementptr inbounds %"class.std::vector.0", %"class.std::vector.0"* %21, i64 %22, !llfi_index !627
  %24 = getelementptr inbounds %"struct.std::_Vector_base", %"struct.std::_Vector_base"* %5, i32 0, i32 0, !llfi_index !628
  %25 = bitcast %"struct.std::_Vector_base<std::vector<int>, std::allocator<std::vector<int>>>::_Vector_impl"* %24 to %"struct.std::_Vector_base<std::vector<int>, std::allocator<std::vector<int>>>::_Vector_impl_data"*, !llfi_index !629
  %26 = getelementptr inbounds %"struct.std::_Vector_base<std::vector<int>, std::allocator<std::vector<int>>>::_Vector_impl_data", %"struct.std::_Vector_base<std::vector<int>, std::allocator<std::vector<int>>>::_Vector_impl_data"* %25, i32 0, i32 2, !llfi_index !630
  store %"class.std::vector.0"* %23, %"class.std::vector.0"** %26, align 8, !llfi_index !631
  ret void, !llfi_index !632
}

; Function Attrs: mustprogress noinline uwtable
define linkonce_odr dso_local %"class.std::vector.0"* @_ZNSt12_Vector_baseISt6vectorIiSaIiEESaIS2_EE11_M_allocateEm(%"struct.std::_Vector_base"* nonnull align 8 dereferenceable(24) %0, i64 %1) #4 comdat align 2 {
  %3 = alloca %"struct.std::_Vector_base"*, align 8, !llfi_index !633
  %4 = alloca i64, align 8, !llfi_index !634
  store %"struct.std::_Vector_base"* %0, %"struct.std::_Vector_base"** %3, align 8, !llfi_index !635
  store i64 %1, i64* %4, align 8, !llfi_index !636
  %5 = load %"struct.std::_Vector_base"*, %"struct.std::_Vector_base"** %3, align 8, !llfi_index !637
  %6 = load i64, i64* %4, align 8, !llfi_index !638
  %7 = icmp ne i64 %6, 0, !llfi_index !639
  br i1 %7, label %8, label %13, !llfi_index !640

8:                                                ; preds = %2
  %9 = getelementptr inbounds %"struct.std::_Vector_base", %"struct.std::_Vector_base"* %5, i32 0, i32 0, !llfi_index !641
  %10 = bitcast %"struct.std::_Vector_base<std::vector<int>, std::allocator<std::vector<int>>>::_Vector_impl"* %9 to %"class.std::allocator"*, !llfi_index !642
  %11 = load i64, i64* %4, align 8, !llfi_index !643
  %12 = call %"class.std::vector.0"* @_ZNSt16allocator_traitsISaISt6vectorIiSaIiEEEE8allocateERS3_m(%"class.std::allocator"* nonnull align 1 dereferenceable(1) %10, i64 %11), !llfi_index !644
  br label %14, !llfi_index !645

13:                                               ; preds = %2
  br label %14, !llfi_index !646

14:                                               ; preds = %13, %8
  %15 = phi %"class.std::vector.0"* [ %12, %8 ], [ null, %13 ], !llfi_index !647
  ret %"class.std::vector.0"* %15, !llfi_index !648
}

; Function Attrs: mustprogress noinline uwtable
define linkonce_odr dso_local %"class.std::vector.0"* @_ZNSt16allocator_traitsISaISt6vectorIiSaIiEEEE8allocateERS3_m(%"class.std::allocator"* nonnull align 1 dereferenceable(1) %0, i64 %1) #4 comdat align 2 {
  %3 = alloca %"class.std::allocator"*, align 8, !llfi_index !649
  %4 = alloca i64, align 8, !llfi_index !650
  store %"class.std::allocator"* %0, %"class.std::allocator"** %3, align 8, !llfi_index !651
  store i64 %1, i64* %4, align 8, !llfi_index !652
  %5 = load %"class.std::allocator"*, %"class.std::allocator"** %3, align 8, !llfi_index !653
  %6 = bitcast %"class.std::allocator"* %5 to %"class.std::allocator"*, !llfi_index !654
  %7 = load i64, i64* %4, align 8, !llfi_index !655
  %8 = call %"class.std::vector.0"* @_ZN9__gnu_cxx13new_allocatorISt6vectorIiSaIiEEE8allocateEmPKv(%"class.std::allocator"* nonnull align 1 dereferenceable(1) %6, i64 %7, i8* null), !llfi_index !656
  ret %"class.std::vector.0"* %8, !llfi_index !657
}

; Function Attrs: mustprogress noinline uwtable
define linkonce_odr dso_local %"class.std::vector.0"* @_ZN9__gnu_cxx13new_allocatorISt6vectorIiSaIiEEE8allocateEmPKv(%"class.std::allocator"* nonnull align 1 dereferenceable(1) %0, i64 %1, i8* %2) #4 comdat align 2 {
  %4 = alloca %"class.std::allocator"*, align 8, !llfi_index !658
  %5 = alloca i64, align 8, !llfi_index !659
  %6 = alloca i8*, align 8, !llfi_index !660
  store %"class.std::allocator"* %0, %"class.std::allocator"** %4, align 8, !llfi_index !661
  store i64 %1, i64* %5, align 8, !llfi_index !662
  store i8* %2, i8** %6, align 8, !llfi_index !663
  %7 = load %"class.std::allocator"*, %"class.std::allocator"** %4, align 8, !llfi_index !664
  %8 = load i64, i64* %5, align 8, !llfi_index !665
  %9 = call i64 @_ZNK9__gnu_cxx13new_allocatorISt6vectorIiSaIiEEE8max_sizeEv(%"class.std::allocator"* nonnull align 1 dereferenceable(1) %7) #2, !llfi_index !666
  %10 = icmp ugt i64 %8, %9, !llfi_index !667
  br i1 %10, label %11, label %12, !llfi_index !668

11:                                               ; preds = %3
  call void @_ZSt17__throw_bad_allocv() #17, !llfi_index !669
  unreachable, !llfi_index !670

12:                                               ; preds = %3
  %13 = load i64, i64* %5, align 8, !llfi_index !671
  %14 = mul i64 %13, 24, !llfi_index !672
  %15 = call noalias nonnull i8* @_Znwm(i64 %14) #18, !llfi_index !673
  %16 = bitcast i8* %15 to %"class.std::vector.0"*, !llfi_index !674
  ret %"class.std::vector.0"* %16, !llfi_index !675
}

; Function Attrs: mustprogress noinline nounwind uwtable
define linkonce_odr dso_local i64 @_ZNK9__gnu_cxx13new_allocatorISt6vectorIiSaIiEEE8max_sizeEv(%"class.std::allocator"* nonnull align 1 dereferenceable(1) %0) #3 comdat align 2 {
  %2 = alloca %"class.std::allocator"*, align 8, !llfi_index !676
  store %"class.std::allocator"* %0, %"class.std::allocator"** %2, align 8, !llfi_index !677
  %3 = load %"class.std::allocator"*, %"class.std::allocator"** %2, align 8, !llfi_index !678
  ret i64 384307168202282325, !llfi_index !679
}

; Function Attrs: noreturn
declare dso_local void @_ZSt17__throw_bad_allocv() #9

; Function Attrs: nobuiltin allocsize(0)
declare dso_local nonnull i8* @_Znwm(i64) #10

; Function Attrs: noinline nounwind uwtable
define linkonce_odr dso_local void @_ZNSaISt6vectorIiSaIiEEEC2ERKS2_(%"class.std::allocator"* nonnull align 1 dereferenceable(1) %0, %"class.std::allocator"* nonnull align 1 dereferenceable(1) %1) unnamed_addr #1 comdat align 2 {
  %3 = alloca %"class.std::allocator"*, align 8, !llfi_index !680
  %4 = alloca %"class.std::allocator"*, align 8, !llfi_index !681
  store %"class.std::allocator"* %0, %"class.std::allocator"** %3, align 8, !llfi_index !682
  store %"class.std::allocator"* %1, %"class.std::allocator"** %4, align 8, !llfi_index !683
  %5 = load %"class.std::allocator"*, %"class.std::allocator"** %3, align 8, !llfi_index !684
  %6 = bitcast %"class.std::allocator"* %5 to %"class.std::allocator"*, !llfi_index !685
  %7 = load %"class.std::allocator"*, %"class.std::allocator"** %4, align 8, !llfi_index !686
  %8 = bitcast %"class.std::allocator"* %7 to %"class.std::allocator"*, !llfi_index !687
  call void @_ZN9__gnu_cxx13new_allocatorISt6vectorIiSaIiEEEC2ERKS4_(%"class.std::allocator"* nonnull align 1 dereferenceable(1) %6, %"class.std::allocator"* nonnull align 1 dereferenceable(1) %8) #2, !llfi_index !688
  ret void, !llfi_index !689
}

; Function Attrs: noinline nounwind uwtable
define linkonce_odr dso_local void @_ZNSt12_Vector_baseISt6vectorIiSaIiEESaIS2_EE17_Vector_impl_dataC2Ev(%"struct.std::_Vector_base<std::vector<int>, std::allocator<std::vector<int>>>::_Vector_impl_data"* nonnull align 8 dereferenceable(24) %0) unnamed_addr #1 comdat align 2 {
  %2 = alloca %"struct.std::_Vector_base<std::vector<int>, std::allocator<std::vector<int>>>::_Vector_impl_data"*, align 8, !llfi_index !690
  store %"struct.std::_Vector_base<std::vector<int>, std::allocator<std::vector<int>>>::_Vector_impl_data"* %0, %"struct.std::_Vector_base<std::vector<int>, std::allocator<std::vector<int>>>::_Vector_impl_data"** %2, align 8, !llfi_index !691
  %3 = load %"struct.std::_Vector_base<std::vector<int>, std::allocator<std::vector<int>>>::_Vector_impl_data"*, %"struct.std::_Vector_base<std::vector<int>, std::allocator<std::vector<int>>>::_Vector_impl_data"** %2, align 8, !llfi_index !692
  %4 = getelementptr inbounds %"struct.std::_Vector_base<std::vector<int>, std::allocator<std::vector<int>>>::_Vector_impl_data", %"struct.std::_Vector_base<std::vector<int>, std::allocator<std::vector<int>>>::_Vector_impl_data"* %3, i32 0, i32 0, !llfi_index !693
  store %"class.std::vector.0"* null, %"class.std::vector.0"** %4, align 8, !llfi_index !694
  %5 = getelementptr inbounds %"struct.std::_Vector_base<std::vector<int>, std::allocator<std::vector<int>>>::_Vector_impl_data", %"struct.std::_Vector_base<std::vector<int>, std::allocator<std::vector<int>>>::_Vector_impl_data"* %3, i32 0, i32 1, !llfi_index !695
  store %"class.std::vector.0"* null, %"class.std::vector.0"** %5, align 8, !llfi_index !696
  %6 = getelementptr inbounds %"struct.std::_Vector_base<std::vector<int>, std::allocator<std::vector<int>>>::_Vector_impl_data", %"struct.std::_Vector_base<std::vector<int>, std::allocator<std::vector<int>>>::_Vector_impl_data"* %3, i32 0, i32 2, !llfi_index !697
  store %"class.std::vector.0"* null, %"class.std::vector.0"** %6, align 8, !llfi_index !698
  ret void, !llfi_index !699
}

; Function Attrs: noinline nounwind uwtable
define linkonce_odr dso_local void @_ZN9__gnu_cxx13new_allocatorISt6vectorIiSaIiEEEC2ERKS4_(%"class.std::allocator"* nonnull align 1 dereferenceable(1) %0, %"class.std::allocator"* nonnull align 1 dereferenceable(1) %1) unnamed_addr #1 comdat align 2 {
  %3 = alloca %"class.std::allocator"*, align 8, !llfi_index !700
  %4 = alloca %"class.std::allocator"*, align 8, !llfi_index !701
  store %"class.std::allocator"* %0, %"class.std::allocator"** %3, align 8, !llfi_index !702
  store %"class.std::allocator"* %1, %"class.std::allocator"** %4, align 8, !llfi_index !703
  %5 = load %"class.std::allocator"*, %"class.std::allocator"** %3, align 8, !llfi_index !704
  ret void, !llfi_index !705
}

; Function Attrs: mustprogress noinline nounwind uwtable
define linkonce_odr dso_local i64 @_ZNSt6vectorIS_IiSaIiEESaIS1_EE11_S_max_sizeERKS2_(%"class.std::allocator"* nonnull align 1 dereferenceable(1) %0) #3 comdat align 2 personality i8* bitcast (i32 (...)* @__gxx_personality_v0 to i8*) {
  %2 = alloca %"class.std::allocator"*, align 8, !llfi_index !706
  %3 = alloca i64, align 8, !llfi_index !707
  %4 = alloca i64, align 8, !llfi_index !708
  store %"class.std::allocator"* %0, %"class.std::allocator"** %2, align 8, !llfi_index !709
  store i64 384307168202282325, i64* %3, align 8, !llfi_index !710
  %5 = load %"class.std::allocator"*, %"class.std::allocator"** %2, align 8, !llfi_index !711
  %6 = call i64 @_ZNSt16allocator_traitsISaISt6vectorIiSaIiEEEE8max_sizeERKS3_(%"class.std::allocator"* nonnull align 1 dereferenceable(1) %5) #2, !llfi_index !712
  store i64 %6, i64* %4, align 8, !llfi_index !713
  %7 = invoke nonnull align 8 dereferenceable(8) i64* @_ZSt3minImERKT_S2_S2_(i64* nonnull align 8 dereferenceable(8) %3, i64* nonnull align 8 dereferenceable(8) %4)
          to label %8 unwind label %10, !llfi_index !714

8:                                                ; preds = %1
  %9 = load i64, i64* %7, align 8, !llfi_index !715
  ret i64 %9, !llfi_index !716

10:                                               ; preds = %1
  %11 = landingpad { i8*, i32 }
          catch i8* null, !llfi_index !717
  %12 = extractvalue { i8*, i32 } %11, 0, !llfi_index !718
  call void @__clang_call_terminate(i8* %12) #16, !llfi_index !719
  unreachable, !llfi_index !720
}

; Function Attrs: noreturn
declare dso_local void @_ZSt20__throw_length_errorPKc(i8*) #9

; Function Attrs: mustprogress noinline nounwind uwtable
define linkonce_odr dso_local i64 @_ZNSt16allocator_traitsISaISt6vectorIiSaIiEEEE8max_sizeERKS3_(%"class.std::allocator"* nonnull align 1 dereferenceable(1) %0) #3 comdat align 2 {
  %2 = alloca %"class.std::allocator"*, align 8, !llfi_index !721
  store %"class.std::allocator"* %0, %"class.std::allocator"** %2, align 8, !llfi_index !722
  %3 = load %"class.std::allocator"*, %"class.std::allocator"** %2, align 8, !llfi_index !723
  %4 = bitcast %"class.std::allocator"* %3 to %"class.std::allocator"*, !llfi_index !724
  %5 = call i64 @_ZNK9__gnu_cxx13new_allocatorISt6vectorIiSaIiEEE8max_sizeEv(%"class.std::allocator"* nonnull align 1 dereferenceable(1) %4) #2, !llfi_index !725
  ret i64 %5, !llfi_index !726
}

; Function Attrs: mustprogress noinline nounwind uwtable
define linkonce_odr dso_local nonnull align 8 dereferenceable(8) i64* @_ZSt3minImERKT_S2_S2_(i64* nonnull align 8 dereferenceable(8) %0, i64* nonnull align 8 dereferenceable(8) %1) #3 comdat {
  %3 = alloca i64*, align 8, !llfi_index !727
  %4 = alloca i64*, align 8, !llfi_index !728
  %5 = alloca i64*, align 8, !llfi_index !729
  store i64* %0, i64** %4, align 8, !llfi_index !730
  store i64* %1, i64** %5, align 8, !llfi_index !731
  %6 = load i64*, i64** %5, align 8, !llfi_index !732
  %7 = load i64, i64* %6, align 8, !llfi_index !733
  %8 = load i64*, i64** %4, align 8, !llfi_index !734
  %9 = load i64, i64* %8, align 8, !llfi_index !735
  %10 = icmp ult i64 %7, %9, !llfi_index !736
  br i1 %10, label %11, label %13, !llfi_index !737

11:                                               ; preds = %2
  %12 = load i64*, i64** %5, align 8, !llfi_index !738
  store i64* %12, i64** %3, align 8, !llfi_index !739
  br label %15, !llfi_index !740

13:                                               ; preds = %2
  %14 = load i64*, i64** %4, align 8, !llfi_index !741
  store i64* %14, i64** %3, align 8, !llfi_index !742
  br label %15, !llfi_index !743

15:                                               ; preds = %13, %11
  %16 = load i64*, i64** %3, align 8, !llfi_index !744
  ret i64* %16, !llfi_index !745
}

; Function Attrs: noinline nounwind uwtable
define linkonce_odr dso_local void @_ZN9__gnu_cxx13new_allocatorISt6vectorIiSaIiEEEC2Ev(%"class.std::allocator"* nonnull align 1 dereferenceable(1) %0) unnamed_addr #1 comdat align 2 {
  %2 = alloca %"class.std::allocator"*, align 8, !llfi_index !746
  store %"class.std::allocator"* %0, %"class.std::allocator"** %2, align 8, !llfi_index !747
  %3 = load %"class.std::allocator"*, %"class.std::allocator"** %2, align 8, !llfi_index !748
  ret void, !llfi_index !749
}

declare dso_local void @_ZNSt8ios_base4InitC1Ev(%"class.std::allocator"* nonnull align 1 dereferenceable(1)) unnamed_addr #11

; Function Attrs: noinline uwtable
define internal void @__dtor__ZStL8__ioinit() #0 section ".text.startup" {
  call void @_ZNSt8ios_base4InitD1Ev(%"class.std::allocator"* @_ZStL8__ioinit), !llfi_index !750
  ret void, !llfi_index !751
}

; Function Attrs: nounwind
declare dso_local void @_ZNSt8ios_base4InitD1Ev(%"class.std::allocator"* nonnull align 1 dereferenceable(1)) unnamed_addr #12

; Function Attrs: mustprogress noinline nounwind uwtable
define dso_local void @_Z9propagateiib(i32 %0, i32 %1, i1 zeroext %2) #3 {
  %4 = alloca i32, align 4, !llfi_index !752
  %5 = alloca i32, align 4, !llfi_index !753
  %6 = alloca i8, align 1, !llfi_index !754
  store i32 %0, i32* %4, align 4, !llfi_index !755
  store i32 %1, i32* %5, align 4, !llfi_index !756
  %7 = zext i1 %2 to i8, !llfi_index !757
  store i8 %7, i8* %6, align 1, !llfi_index !758
  %8 = load i32, i32* %4, align 4, !llfi_index !759
  %9 = sext i32 %8 to i64, !llfi_index !760
  %10 = getelementptr inbounds [200008 x [2 x i32]], [200008 x [2 x i32]]* @lazy, i64 0, i64 %9, !llfi_index !761
  %11 = load i32, i32* %5, align 4, !llfi_index !762
  %12 = sext i32 %11 to i64, !llfi_index !763
  %13 = getelementptr inbounds [2 x i32], [2 x i32]* %10, i64 0, i64 %12, !llfi_index !764
  %14 = load i32, i32* %13, align 4, !llfi_index !765
  %15 = load i32, i32* %4, align 4, !llfi_index !766
  %16 = sext i32 %15 to i64, !llfi_index !767
  %17 = getelementptr inbounds [200008 x [2 x i32]], [200008 x [2 x i32]]* @tree, i64 0, i64 %16, !llfi_index !768
  %18 = load i32, i32* %5, align 4, !llfi_index !769
  %19 = sext i32 %18 to i64, !llfi_index !770
  %20 = getelementptr inbounds [2 x i32], [2 x i32]* %17, i64 0, i64 %19, !llfi_index !771
  %21 = load i32, i32* %20, align 4, !llfi_index !772
  %22 = add nsw i32 %21, %14, !llfi_index !773
  store i32 %22, i32* %20, align 4, !llfi_index !774
  %23 = load i8, i8* %6, align 1, !llfi_index !775
  %24 = trunc i8 %23 to i1, !llfi_index !776
  br i1 %24, label %59, label %25, !llfi_index !777

25:                                               ; preds = %3
  %26 = load i32, i32* %4, align 4, !llfi_index !778
  %27 = sext i32 %26 to i64, !llfi_index !779
  %28 = getelementptr inbounds [200008 x [2 x i32]], [200008 x [2 x i32]]* @lazy, i64 0, i64 %27, !llfi_index !780
  %29 = load i32, i32* %5, align 4, !llfi_index !781
  %30 = sext i32 %29 to i64, !llfi_index !782
  %31 = getelementptr inbounds [2 x i32], [2 x i32]* %28, i64 0, i64 %30, !llfi_index !783
  %32 = load i32, i32* %31, align 4, !llfi_index !784
  %33 = load i32, i32* %4, align 4, !llfi_index !785
  %34 = mul nsw i32 2, %33, !llfi_index !786
  %35 = sext i32 %34 to i64, !llfi_index !787
  %36 = getelementptr inbounds [200008 x [2 x i32]], [200008 x [2 x i32]]* @lazy, i64 0, i64 %35, !llfi_index !788
  %37 = load i32, i32* %5, align 4, !llfi_index !789
  %38 = sext i32 %37 to i64, !llfi_index !790
  %39 = getelementptr inbounds [2 x i32], [2 x i32]* %36, i64 0, i64 %38, !llfi_index !791
  %40 = load i32, i32* %39, align 4, !llfi_index !792
  %41 = add nsw i32 %40, %32, !llfi_index !793
  store i32 %41, i32* %39, align 4, !llfi_index !794
  %42 = load i32, i32* %4, align 4, !llfi_index !795
  %43 = sext i32 %42 to i64, !llfi_index !796
  %44 = getelementptr inbounds [200008 x [2 x i32]], [200008 x [2 x i32]]* @lazy, i64 0, i64 %43, !llfi_index !797
  %45 = load i32, i32* %5, align 4, !llfi_index !798
  %46 = sext i32 %45 to i64, !llfi_index !799
  %47 = getelementptr inbounds [2 x i32], [2 x i32]* %44, i64 0, i64 %46, !llfi_index !800
  %48 = load i32, i32* %47, align 4, !llfi_index !801
  %49 = load i32, i32* %4, align 4, !llfi_index !802
  %50 = mul nsw i32 2, %49, !llfi_index !803
  %51 = add nsw i32 %50, 1, !llfi_index !804
  %52 = sext i32 %51 to i64, !llfi_index !805
  %53 = getelementptr inbounds [200008 x [2 x i32]], [200008 x [2 x i32]]* @lazy, i64 0, i64 %52, !llfi_index !806
  %54 = load i32, i32* %5, align 4, !llfi_index !807
  %55 = sext i32 %54 to i64, !llfi_index !808
  %56 = getelementptr inbounds [2 x i32], [2 x i32]* %53, i64 0, i64 %55, !llfi_index !809
  %57 = load i32, i32* %56, align 4, !llfi_index !810
  %58 = add nsw i32 %57, %48, !llfi_index !811
  store i32 %58, i32* %56, align 4, !llfi_index !812
  br label %59, !llfi_index !813

59:                                               ; preds = %25, %3
  %60 = load i32, i32* %4, align 4, !llfi_index !814
  %61 = sext i32 %60 to i64, !llfi_index !815
  %62 = getelementptr inbounds [200008 x [2 x i32]], [200008 x [2 x i32]]* @lazy, i64 0, i64 %61, !llfi_index !816
  %63 = load i32, i32* %5, align 4, !llfi_index !817
  %64 = sext i32 %63 to i64, !llfi_index !818
  %65 = getelementptr inbounds [2 x i32], [2 x i32]* %62, i64 0, i64 %64, !llfi_index !819
  store i32 0, i32* %65, align 4, !llfi_index !820
  ret void, !llfi_index !821
}

; Function Attrs: mustprogress noinline uwtable
define dso_local i32 @_Z5queryiiiiii(i32 %0, i32 %1, i32 %2, i32 %3, i32 %4, i32 %5) #4 {
  %7 = alloca i32, align 4, !llfi_index !822
  %8 = alloca i32, align 4, !llfi_index !823
  %9 = alloca i32, align 4, !llfi_index !824
  %10 = alloca i32, align 4, !llfi_index !825
  %11 = alloca i32, align 4, !llfi_index !826
  %12 = alloca i32, align 4, !llfi_index !827
  %13 = alloca i32, align 4, !llfi_index !828
  %14 = alloca i32, align 4, !llfi_index !829
  %15 = alloca i32, align 4, !llfi_index !830
  %16 = alloca i32, align 4, !llfi_index !831
  store i32 %0, i32* %8, align 4, !llfi_index !832
  store i32 %1, i32* %9, align 4, !llfi_index !833
  store i32 %2, i32* %10, align 4, !llfi_index !834
  store i32 %3, i32* %11, align 4, !llfi_index !835
  store i32 %4, i32* %12, align 4, !llfi_index !836
  store i32 %5, i32* %13, align 4, !llfi_index !837
  %17 = load i32, i32* %8, align 4, !llfi_index !838
  %18 = load i32, i32* %13, align 4, !llfi_index !839
  %19 = load i32, i32* %9, align 4, !llfi_index !840
  %20 = load i32, i32* %10, align 4, !llfi_index !841
  %21 = icmp eq i32 %19, %20, !llfi_index !842
  call void @_Z9propagateiib(i32 %17, i32 %18, i1 zeroext %21), !llfi_index !843
  %22 = load i32, i32* %11, align 4, !llfi_index !844
  %23 = load i32, i32* %9, align 4, !llfi_index !845
  %24 = icmp sle i32 %22, %23, !llfi_index !846
  br i1 %24, label %25, label %37, !llfi_index !847

25:                                               ; preds = %6
  %26 = load i32, i32* %12, align 4, !llfi_index !848
  %27 = load i32, i32* %10, align 4, !llfi_index !849
  %28 = icmp sge i32 %26, %27, !llfi_index !850
  br i1 %28, label %29, label %37, !llfi_index !851

29:                                               ; preds = %25
  %30 = load i32, i32* %8, align 4, !llfi_index !852
  %31 = sext i32 %30 to i64, !llfi_index !853
  %32 = getelementptr inbounds [200008 x [2 x i32]], [200008 x [2 x i32]]* @tree, i64 0, i64 %31, !llfi_index !854
  %33 = load i32, i32* %13, align 4, !llfi_index !855
  %34 = sext i32 %33 to i64, !llfi_index !856
  %35 = getelementptr inbounds [2 x i32], [2 x i32]* %32, i64 0, i64 %34, !llfi_index !857
  %36 = load i32, i32* %35, align 4, !llfi_index !858
  store i32 %36, i32* %7, align 4, !llfi_index !859
  br label %71, !llfi_index !860

37:                                               ; preds = %25, %6
  %38 = load i32, i32* %12, align 4, !llfi_index !861
  %39 = load i32, i32* %9, align 4, !llfi_index !862
  %40 = icmp slt i32 %38, %39, !llfi_index !863
  br i1 %40, label %45, label %41, !llfi_index !864

41:                                               ; preds = %37
  %42 = load i32, i32* %11, align 4, !llfi_index !865
  %43 = load i32, i32* %10, align 4, !llfi_index !866
  %44 = icmp sgt i32 %42, %43, !llfi_index !867
  br i1 %44, label %45, label %46, !llfi_index !868

45:                                               ; preds = %41, %37
  store i32 0, i32* %7, align 4, !llfi_index !869
  br label %71, !llfi_index !870

46:                                               ; preds = %41
  %47 = load i32, i32* %9, align 4, !llfi_index !871
  %48 = load i32, i32* %10, align 4, !llfi_index !872
  %49 = add nsw i32 %47, %48, !llfi_index !873
  %50 = sdiv i32 %49, 2, !llfi_index !874
  store i32 %50, i32* %14, align 4, !llfi_index !875
  %51 = load i32, i32* %8, align 4, !llfi_index !876
  %52 = mul nsw i32 2, %51, !llfi_index !877
  %53 = load i32, i32* %9, align 4, !llfi_index !878
  %54 = load i32, i32* %14, align 4, !llfi_index !879
  %55 = load i32, i32* %11, align 4, !llfi_index !880
  %56 = load i32, i32* %12, align 4, !llfi_index !881
  %57 = load i32, i32* %13, align 4, !llfi_index !882
  %58 = call i32 @_Z5queryiiiiii(i32 %52, i32 %53, i32 %54, i32 %55, i32 %56, i32 %57), !llfi_index !883
  store i32 %58, i32* %15, align 4, !llfi_index !884
  %59 = load i32, i32* %8, align 4, !llfi_index !885
  %60 = mul nsw i32 2, %59, !llfi_index !886
  %61 = add nsw i32 %60, 1, !llfi_index !887
  %62 = load i32, i32* %14, align 4, !llfi_index !888
  %63 = add nsw i32 %62, 1, !llfi_index !889
  %64 = load i32, i32* %10, align 4, !llfi_index !890
  %65 = load i32, i32* %11, align 4, !llfi_index !891
  %66 = load i32, i32* %12, align 4, !llfi_index !892
  %67 = load i32, i32* %13, align 4, !llfi_index !893
  %68 = call i32 @_Z5queryiiiiii(i32 %61, i32 %63, i32 %64, i32 %65, i32 %66, i32 %67), !llfi_index !894
  store i32 %68, i32* %16, align 4, !llfi_index !895
  %69 = call nonnull align 4 dereferenceable(4) i32* @_ZSt3maxIiERKT_S2_S2_(i32* nonnull align 4 dereferenceable(4) %15, i32* nonnull align 4 dereferenceable(4) %16), !llfi_index !896
  %70 = load i32, i32* %69, align 4, !llfi_index !897
  store i32 %70, i32* %7, align 4, !llfi_index !898
  br label %71, !llfi_index !899

71:                                               ; preds = %46, %45, %29
  %72 = load i32, i32* %7, align 4, !llfi_index !900
  ret i32 %72, !llfi_index !901
}

; Function Attrs: mustprogress noinline nounwind uwtable
define linkonce_odr dso_local nonnull align 4 dereferenceable(4) i32* @_ZSt3maxIiERKT_S2_S2_(i32* nonnull align 4 dereferenceable(4) %0, i32* nonnull align 4 dereferenceable(4) %1) #3 comdat {
  %3 = alloca i32*, align 8, !llfi_index !902
  %4 = alloca i32*, align 8, !llfi_index !903
  %5 = alloca i32*, align 8, !llfi_index !904
  store i32* %0, i32** %4, align 8, !llfi_index !905
  store i32* %1, i32** %5, align 8, !llfi_index !906
  %6 = load i32*, i32** %4, align 8, !llfi_index !907
  %7 = load i32, i32* %6, align 4, !llfi_index !908
  %8 = load i32*, i32** %5, align 8, !llfi_index !909
  %9 = load i32, i32* %8, align 4, !llfi_index !910
  %10 = icmp slt i32 %7, %9, !llfi_index !911
  br i1 %10, label %11, label %13, !llfi_index !912

11:                                               ; preds = %2
  %12 = load i32*, i32** %5, align 8, !llfi_index !913
  store i32* %12, i32** %3, align 8, !llfi_index !914
  br label %15, !llfi_index !915

13:                                               ; preds = %2
  %14 = load i32*, i32** %4, align 8, !llfi_index !916
  store i32* %14, i32** %3, align 8, !llfi_index !917
  br label %15, !llfi_index !918

15:                                               ; preds = %13, %11
  %16 = load i32*, i32** %3, align 8, !llfi_index !919
  ret i32* %16, !llfi_index !920
}

; Function Attrs: mustprogress noinline uwtable
define dso_local void @_Z6updateiiiiiii(i32 %0, i32 %1, i32 %2, i32 %3, i32 %4, i32 %5, i32 %6) #4 {
  %8 = alloca i32, align 4, !llfi_index !921
  %9 = alloca i32, align 4, !llfi_index !922
  %10 = alloca i32, align 4, !llfi_index !923
  %11 = alloca i32, align 4, !llfi_index !924
  %12 = alloca i32, align 4, !llfi_index !925
  %13 = alloca i32, align 4, !llfi_index !926
  %14 = alloca i32, align 4, !llfi_index !927
  %15 = alloca i32, align 4, !llfi_index !928
  store i32 %0, i32* %8, align 4, !llfi_index !929
  store i32 %1, i32* %9, align 4, !llfi_index !930
  store i32 %2, i32* %10, align 4, !llfi_index !931
  store i32 %3, i32* %11, align 4, !llfi_index !932
  store i32 %4, i32* %12, align 4, !llfi_index !933
  store i32 %5, i32* %13, align 4, !llfi_index !934
  store i32 %6, i32* %14, align 4, !llfi_index !935
  %16 = load i32, i32* %8, align 4, !llfi_index !936
  %17 = load i32, i32* %13, align 4, !llfi_index !937
  %18 = load i32, i32* %9, align 4, !llfi_index !938
  %19 = load i32, i32* %10, align 4, !llfi_index !939
  %20 = icmp eq i32 %18, %19, !llfi_index !940
  call void @_Z9propagateiib(i32 %16, i32 %17, i1 zeroext %20), !llfi_index !941
  %21 = load i32, i32* %11, align 4, !llfi_index !942
  %22 = load i32, i32* %9, align 4, !llfi_index !943
  %23 = icmp sle i32 %21, %22, !llfi_index !944
  br i1 %23, label %24, label %43, !llfi_index !945

24:                                               ; preds = %7
  %25 = load i32, i32* %12, align 4, !llfi_index !946
  %26 = load i32, i32* %10, align 4, !llfi_index !947
  %27 = icmp sge i32 %25, %26, !llfi_index !948
  br i1 %27, label %28, label %43, !llfi_index !949

28:                                               ; preds = %24
  %29 = load i32, i32* %14, align 4, !llfi_index !950
  %30 = load i32, i32* %8, align 4, !llfi_index !951
  %31 = sext i32 %30 to i64, !llfi_index !952
  %32 = getelementptr inbounds [200008 x [2 x i32]], [200008 x [2 x i32]]* @lazy, i64 0, i64 %31, !llfi_index !953
  %33 = load i32, i32* %13, align 4, !llfi_index !954
  %34 = sext i32 %33 to i64, !llfi_index !955
  %35 = getelementptr inbounds [2 x i32], [2 x i32]* %32, i64 0, i64 %34, !llfi_index !956
  %36 = load i32, i32* %35, align 4, !llfi_index !957
  %37 = add nsw i32 %36, %29, !llfi_index !958
  store i32 %37, i32* %35, align 4, !llfi_index !959
  %38 = load i32, i32* %8, align 4, !llfi_index !960
  %39 = load i32, i32* %13, align 4, !llfi_index !961
  %40 = load i32, i32* %9, align 4, !llfi_index !962
  %41 = load i32, i32* %10, align 4, !llfi_index !963
  %42 = icmp eq i32 %40, %41, !llfi_index !964
  call void @_Z9propagateiib(i32 %38, i32 %39, i1 zeroext %42), !llfi_index !965
  br label %98, !llfi_index !966

43:                                               ; preds = %24, %7
  %44 = load i32, i32* %12, align 4, !llfi_index !967
  %45 = load i32, i32* %9, align 4, !llfi_index !968
  %46 = icmp slt i32 %44, %45, !llfi_index !969
  br i1 %46, label %51, label %47, !llfi_index !970

47:                                               ; preds = %43
  %48 = load i32, i32* %11, align 4, !llfi_index !971
  %49 = load i32, i32* %10, align 4, !llfi_index !972
  %50 = icmp sgt i32 %48, %49, !llfi_index !973
  br i1 %50, label %51, label %52, !llfi_index !974

51:                                               ; preds = %47, %43
  br label %98, !llfi_index !975

52:                                               ; preds = %47
  %53 = load i32, i32* %9, align 4, !llfi_index !976
  %54 = load i32, i32* %10, align 4, !llfi_index !977
  %55 = add nsw i32 %53, %54, !llfi_index !978
  %56 = sdiv i32 %55, 2, !llfi_index !979
  store i32 %56, i32* %15, align 4, !llfi_index !980
  %57 = load i32, i32* %8, align 4, !llfi_index !981
  %58 = mul nsw i32 2, %57, !llfi_index !982
  %59 = load i32, i32* %9, align 4, !llfi_index !983
  %60 = load i32, i32* %15, align 4, !llfi_index !984
  %61 = load i32, i32* %11, align 4, !llfi_index !985
  %62 = load i32, i32* %12, align 4, !llfi_index !986
  %63 = load i32, i32* %13, align 4, !llfi_index !987
  %64 = load i32, i32* %14, align 4, !llfi_index !988
  call void @_Z6updateiiiiiii(i32 %58, i32 %59, i32 %60, i32 %61, i32 %62, i32 %63, i32 %64), !llfi_index !989
  %65 = load i32, i32* %8, align 4, !llfi_index !990
  %66 = mul nsw i32 2, %65, !llfi_index !991
  %67 = add nsw i32 %66, 1, !llfi_index !992
  %68 = load i32, i32* %15, align 4, !llfi_index !993
  %69 = add nsw i32 %68, 1, !llfi_index !994
  %70 = load i32, i32* %10, align 4, !llfi_index !995
  %71 = load i32, i32* %11, align 4, !llfi_index !996
  %72 = load i32, i32* %12, align 4, !llfi_index !997
  %73 = load i32, i32* %13, align 4, !llfi_index !998
  %74 = load i32, i32* %14, align 4, !llfi_index !999
  call void @_Z6updateiiiiiii(i32 %67, i32 %69, i32 %70, i32 %71, i32 %72, i32 %73, i32 %74), !llfi_index !1000
  %75 = load i32, i32* %8, align 4, !llfi_index !1001
  %76 = mul nsw i32 2, %75, !llfi_index !1002
  %77 = sext i32 %76 to i64, !llfi_index !1003
  %78 = getelementptr inbounds [200008 x [2 x i32]], [200008 x [2 x i32]]* @tree, i64 0, i64 %77, !llfi_index !1004
  %79 = load i32, i32* %13, align 4, !llfi_index !1005
  %80 = sext i32 %79 to i64, !llfi_index !1006
  %81 = getelementptr inbounds [2 x i32], [2 x i32]* %78, i64 0, i64 %80, !llfi_index !1007
  %82 = load i32, i32* %8, align 4, !llfi_index !1008
  %83 = mul nsw i32 2, %82, !llfi_index !1009
  %84 = add nsw i32 %83, 1, !llfi_index !1010
  %85 = sext i32 %84 to i64, !llfi_index !1011
  %86 = getelementptr inbounds [200008 x [2 x i32]], [200008 x [2 x i32]]* @tree, i64 0, i64 %85, !llfi_index !1012
  %87 = load i32, i32* %13, align 4, !llfi_index !1013
  %88 = sext i32 %87 to i64, !llfi_index !1014
  %89 = getelementptr inbounds [2 x i32], [2 x i32]* %86, i64 0, i64 %88, !llfi_index !1015
  %90 = call nonnull align 4 dereferenceable(4) i32* @_ZSt3maxIiERKT_S2_S2_(i32* nonnull align 4 dereferenceable(4) %81, i32* nonnull align 4 dereferenceable(4) %89), !llfi_index !1016
  %91 = load i32, i32* %90, align 4, !llfi_index !1017
  %92 = load i32, i32* %8, align 4, !llfi_index !1018
  %93 = sext i32 %92 to i64, !llfi_index !1019
  %94 = getelementptr inbounds [200008 x [2 x i32]], [200008 x [2 x i32]]* @tree, i64 0, i64 %93, !llfi_index !1020
  %95 = load i32, i32* %13, align 4, !llfi_index !1021
  %96 = sext i32 %95 to i64, !llfi_index !1022
  %97 = getelementptr inbounds [2 x i32], [2 x i32]* %94, i64 0, i64 %96, !llfi_index !1023
  store i32 %91, i32* %97, align 4, !llfi_index !1024
  br label %98, !llfi_index !1025

98:                                               ; preds = %52, %51, %28
  ret void, !llfi_index !1026
}

; Function Attrs: mustprogress noinline norecurse uwtable
define dso_local i32 @main() #13 personality i8* bitcast (i32 (...)* @__gxx_personality_v0 to i8*) {
  %1 = alloca i32, align 4, !llfi_index !1027
  %2 = alloca i32, align 4, !llfi_index !1028
  %3 = alloca i32, align 4, !llfi_index !1029
  %4 = alloca i8, align 1, !llfi_index !1030
  %5 = alloca i32, align 4, !llfi_index !1031
  %6 = alloca i32, align 4, !llfi_index !1032
  %7 = alloca i32, align 4, !llfi_index !1033
  %8 = alloca %"class.std::vector.0"*, align 8, !llfi_index !1034
  %9 = alloca %"class.__gnu_cxx::__normal_iterator", align 8, !llfi_index !1035
  %10 = alloca %"class.__gnu_cxx::__normal_iterator", align 8, !llfi_index !1036
  %11 = alloca i32, align 4, !llfi_index !1037
  %12 = alloca %"class.std::vector.0", align 8, !llfi_index !1038
  %13 = alloca i32, align 4, !llfi_index !1039
  %14 = alloca i8*, align 8, !llfi_index !1040
  %15 = alloca i32, align 4, !llfi_index !1041
  %16 = alloca i32, align 4, !llfi_index !1042
  %17 = alloca i32, align 4, !llfi_index !1043
  %18 = alloca %"class.__gnu_cxx::__normal_iterator", align 8, !llfi_index !1044
  %19 = alloca %"class.__gnu_cxx::__normal_iterator", align 8, !llfi_index !1045
  %20 = alloca %"class.__gnu_cxx::__normal_iterator", align 8, !llfi_index !1046
  %21 = alloca %"class.__gnu_cxx::__normal_iterator", align 8, !llfi_index !1047
  store i32 0, i32* %1, align 4, !llfi_index !1048
  %22 = load %struct._IO_FILE*, %struct._IO_FILE** @stdin, align 8, !llfi_index !1049
  %23 = call %struct._IO_FILE* @freopen(i8* getelementptr inbounds ([31 x i8], [31 x i8]* @.str, i64 0, i64 0), i8* getelementptr inbounds ([2 x i8], [2 x i8]* @.str.2, i64 0, i64 0), %struct._IO_FILE* %22), !llfi_index !1050
  %24 = call i32 (i8*, ...) @__isoc99_scanf(i8* getelementptr inbounds ([3 x i8], [3 x i8]* @.str.3, i64 0, i64 0), i32* @t), !llfi_index !1051
  store i32 89, i32* %2, align 4, !llfi_index !1052
  br label %25, !llfi_index !1053

25:                                               ; preds = %223, %0
  %26 = load i32, i32* @t, align 4, !llfi_index !1054
  %27 = add nsw i32 %26, -1, !llfi_index !1055
  store i32 %27, i32* @t, align 4, !llfi_index !1056
  %28 = icmp ne i32 %26, 0, !llfi_index !1057
  br i1 %28, label %29, label %224, !llfi_index !1058

29:                                               ; preds = %25
  %30 = call i32 (i8*, ...) @__isoc99_scanf(i8* getelementptr inbounds ([5 x i8], [5 x i8]* @.str.4, i64 0, i64 0), i32* @m, i32* @n), !llfi_index !1059
  store i32 1, i32* %3, align 4, !llfi_index !1060
  br label %31, !llfi_index !1061

31:                                               ; preds = %51, %29
  %32 = load i32, i32* %3, align 4, !llfi_index !1062
  %33 = load i32, i32* @n, align 4, !llfi_index !1063
  %34 = icmp sle i32 %32, %33, !llfi_index !1064
  br i1 %34, label %35, label %54, !llfi_index !1065

35:                                               ; preds = %31
  %36 = call i32 (i8*, ...) @__isoc99_scanf(i8* getelementptr inbounds ([4 x i8], [4 x i8]* @.str.5, i64 0, i64 0), i8* %4), !llfi_index !1066
  %37 = load i8, i8* %4, align 1, !llfi_index !1067
  %38 = sext i8 %37 to i32, !llfi_index !1068
  %39 = icmp eq i32 %38, 68, !llfi_index !1069
  br i1 %39, label %44, label %40, !llfi_index !1070

40:                                               ; preds = %35
  %41 = load i8, i8* %4, align 1, !llfi_index !1071
  %42 = sext i8 %41 to i32, !llfi_index !1072
  %43 = icmp eq i32 %42, 77, !llfi_index !1073
  br label %44, !llfi_index !1074

44:                                               ; preds = %40, %35
  %45 = phi i1 [ true, %35 ], [ %43, %40 ], !llfi_index !1075
  %46 = zext i1 %45 to i64, !llfi_index !1076
  %47 = select i1 %45, i32 0, i32 1, !llfi_index !1077
  %48 = load i32, i32* %3, align 4, !llfi_index !1078
  %49 = sext i32 %48 to i64, !llfi_index !1079
  %50 = getelementptr inbounds [50002 x i32], [50002 x i32]* @type, i64 0, i64 %49, !llfi_index !1080
  store i32 %47, i32* %50, align 4, !llfi_index !1081
  br label %51, !llfi_index !1082

51:                                               ; preds = %44
  %52 = load i32, i32* %3, align 4, !llfi_index !1083
  %53 = add nsw i32 %52, 1, !llfi_index !1084
  store i32 %53, i32* %3, align 4, !llfi_index !1085
  br label %31, !llvm.loop !1086, !llfi_index !1087

54:                                               ; preds = %31
  store i32 1, i32* %5, align 4, !llfi_index !1088
  br label %55, !llfi_index !1089

55:                                               ; preds = %64, %54
  %56 = load i32, i32* %5, align 4, !llfi_index !1090
  %57 = load i32, i32* @n, align 4, !llfi_index !1091
  %58 = icmp sle i32 %56, %57, !llfi_index !1092
  br i1 %58, label %59, label %67, !llfi_index !1093

59:                                               ; preds = %55
  %60 = load i32, i32* %5, align 4, !llfi_index !1094
  %61 = sext i32 %60 to i64, !llfi_index !1095
  %62 = getelementptr inbounds [50002 x i32], [50002 x i32]* @second, i64 0, i64 %61, !llfi_index !1096
  %63 = call i32 (i8*, ...) @__isoc99_scanf(i8* getelementptr inbounds ([3 x i8], [3 x i8]* @.str.3, i64 0, i64 0), i32* %62), !llfi_index !1097
  br label %64, !llfi_index !1098

64:                                               ; preds = %59
  %65 = load i32, i32* %5, align 4, !llfi_index !1099
  %66 = add nsw i32 %65, 1, !llfi_index !1100
  store i32 %66, i32* %5, align 4, !llfi_index !1101
  br label %55, !llvm.loop !1102, !llfi_index !1103

67:                                               ; preds = %55
  store i32 1, i32* %6, align 4, !llfi_index !1104
  br label %68, !llfi_index !1105

68:                                               ; preds = %83, %67
  %69 = load i32, i32* %6, align 4, !llfi_index !1106
  %70 = load i32, i32* @n, align 4, !llfi_index !1107
  %71 = icmp sle i32 %69, %70, !llfi_index !1108
  br i1 %71, label %72, label %86, !llfi_index !1109

72:                                               ; preds = %68
  %73 = load i32, i32* %6, align 4, !llfi_index !1110
  %74 = sext i32 %73 to i64, !llfi_index !1111
  %75 = getelementptr inbounds [50002 x i32], [50002 x i32]* @d, i64 0, i64 %74, !llfi_index !1112
  %76 = call i32 (i8*, ...) @__isoc99_scanf(i8* getelementptr inbounds ([3 x i8], [3 x i8]* @.str.3, i64 0, i64 0), i32* %75), !llfi_index !1113
  %77 = load i32, i32* %6, align 4, !llfi_index !1114
  %78 = sext i32 %77 to i64, !llfi_index !1115
  %79 = getelementptr inbounds [50002 x i32], [50002 x i32]* @d, i64 0, i64 %78, !llfi_index !1116
  %80 = load i32, i32* %79, align 4, !llfi_index !1117
  %81 = sext i32 %80 to i64, !llfi_index !1118
  %82 = call nonnull align 8 dereferenceable(24) %"class.std::vector.0"* @_ZNSt6vectorIS_IiSaIiEESaIS1_EEixEm(%"class.std::vector"* nonnull align 8 dereferenceable(24) @g, i64 %81) #2, !llfi_index !1119
  call void @_ZNSt6vectorIiSaIiEE9push_backERKi(%"class.std::vector.0"* nonnull align 8 dereferenceable(24) %82, i32* nonnull align 4 dereferenceable(4) %6), !llfi_index !1120
  br label %83, !llfi_index !1121

83:                                               ; preds = %72
  %84 = load i32, i32* %6, align 4, !llfi_index !1122
  %85 = add nsw i32 %84, 1, !llfi_index !1123
  store i32 %85, i32* %6, align 4, !llfi_index !1124
  br label %68, !llvm.loop !1125, !llfi_index !1126

86:                                               ; preds = %68
  store i32 1, i32* %7, align 4, !llfi_index !1127
  br label %87, !llfi_index !1128

87:                                               ; preds = %159, %86
  %88 = load i32, i32* %7, align 4, !llfi_index !1129
  %89 = load i32, i32* @m, align 4, !llfi_index !1130
  %90 = icmp sle i32 %88, %89, !llfi_index !1131
  br i1 %90, label %91, label %162, !llfi_index !1132

91:                                               ; preds = %87
  %92 = load i32, i32* %7, align 4, !llfi_index !1133
  %93 = sext i32 %92 to i64, !llfi_index !1134
  %94 = call nonnull align 8 dereferenceable(24) %"class.std::vector.0"* @_ZNSt6vectorIS_IiSaIiEESaIS1_EEixEm(%"class.std::vector"* nonnull align 8 dereferenceable(24) @g, i64 %93) #2, !llfi_index !1135
  store %"class.std::vector.0"* %94, %"class.std::vector.0"** %8, align 8, !llfi_index !1136
  %95 = load %"class.std::vector.0"*, %"class.std::vector.0"** %8, align 8, !llfi_index !1137
  %96 = call i32* @_ZNSt6vectorIiSaIiEE5beginEv(%"class.std::vector.0"* nonnull align 8 dereferenceable(24) %95) #2, !llfi_index !1138
  %97 = getelementptr inbounds %"class.__gnu_cxx::__normal_iterator", %"class.__gnu_cxx::__normal_iterator"* %9, i32 0, i32 0, !llfi_index !1139
  store i32* %96, i32** %97, align 8, !llfi_index !1140
  %98 = load %"class.std::vector.0"*, %"class.std::vector.0"** %8, align 8, !llfi_index !1141
  %99 = call i32* @_ZNSt6vectorIiSaIiEE3endEv(%"class.std::vector.0"* nonnull align 8 dereferenceable(24) %98) #2, !llfi_index !1142
  %100 = getelementptr inbounds %"class.__gnu_cxx::__normal_iterator", %"class.__gnu_cxx::__normal_iterator"* %10, i32 0, i32 0, !llfi_index !1143
  store i32* %99, i32** %100, align 8, !llfi_index !1144
  br label %101, !llfi_index !1145

101:                                              ; preds = %126, %91
  %102 = call zeroext i1 @_ZN9__gnu_cxxneIPiSt6vectorIiSaIiEEEEbRKNS_17__normal_iteratorIT_T0_EESA_(%"class.__gnu_cxx::__normal_iterator"* nonnull align 8 dereferenceable(8) %9, %"class.__gnu_cxx::__normal_iterator"* nonnull align 8 dereferenceable(8) %10) #2, !llfi_index !1146
  br i1 %102, label %103, label %128, !llfi_index !1147

103:                                              ; preds = %101
  %104 = call nonnull align 4 dereferenceable(4) i32* @_ZNK9__gnu_cxx17__normal_iteratorIPiSt6vectorIiSaIiEEEdeEv(%"class.__gnu_cxx::__normal_iterator"* nonnull align 8 dereferenceable(8) %9) #2, !llfi_index !1148
  %105 = load i32, i32* %104, align 4, !llfi_index !1149
  store i32 %105, i32* %11, align 4, !llfi_index !1150
  %106 = load i32, i32* %11, align 4, !llfi_index !1151
  %107 = sext i32 %106 to i64, !llfi_index !1152
  %108 = getelementptr inbounds [50002 x i32], [50002 x i32]* @second, i64 0, i64 %107, !llfi_index !1153
  %109 = load i32, i32* %108, align 4, !llfi_index !1154
  %110 = load i32, i32* %7, align 4, !llfi_index !1155
  %111 = icmp slt i32 %109, %110, !llfi_index !1156
  br i1 %111, label %112, label %125, !llfi_index !1157

112:                                              ; preds = %103
  %113 = load i32, i32* @m, align 4, !llfi_index !1158
  %114 = load i32, i32* %11, align 4, !llfi_index !1159
  %115 = sext i32 %114 to i64, !llfi_index !1160
  %116 = getelementptr inbounds [50002 x i32], [50002 x i32]* @second, i64 0, i64 %115, !llfi_index !1161
  %117 = load i32, i32* %116, align 4, !llfi_index !1162
  %118 = load i32, i32* %11, align 4, !llfi_index !1163
  %119 = sext i32 %118 to i64, !llfi_index !1164
  %120 = getelementptr inbounds [50002 x i32], [50002 x i32]* @type, i64 0, i64 %119, !llfi_index !1165
  %121 = load i32, i32* %120, align 4, !llfi_index !1166
  %122 = icmp ne i32 %121, 0, !llfi_index !1167
  %123 = xor i1 %122, true, !llfi_index !1168
  %124 = zext i1 %123 to i32, !llfi_index !1169
  call void @_Z6updateiiiiiii(i32 1, i32 1, i32 %113, i32 1, i32 %117, i32 %124, i32 1), !llfi_index !1170
  br label %125, !llfi_index !1171

125:                                              ; preds = %112, %103
  br label %126, !llfi_index !1172

126:                                              ; preds = %125
  %127 = call nonnull align 8 dereferenceable(8) %"class.__gnu_cxx::__normal_iterator"* @_ZN9__gnu_cxx17__normal_iteratorIPiSt6vectorIiSaIiEEEppEv(%"class.__gnu_cxx::__normal_iterator"* nonnull align 8 dereferenceable(8) %9) #2, !llfi_index !1173
  br label %101, !llfi_index !1174

128:                                              ; preds = %101
  %129 = load i32, i32* @m, align 4, !llfi_index !1175
  %130 = load i32, i32* %7, align 4, !llfi_index !1176
  %131 = call i32 @_Z5queryiiiiii(i32 1, i32 1, i32 %129, i32 1, i32 %130, i32 1), !llfi_index !1177
  %132 = load i32, i32* %7, align 4, !llfi_index !1178
  %133 = sext i32 %132 to i64, !llfi_index !1179
  %134 = getelementptr inbounds [50002 x [2 x i32]], [50002 x [2 x i32]]* @dp, i64 0, i64 %133, !llfi_index !1180
  %135 = getelementptr inbounds [2 x i32], [2 x i32]* %134, i64 0, i64 0, !llfi_index !1181
  store i32 %131, i32* %135, align 8, !llfi_index !1182
  %136 = load i32, i32* @m, align 4, !llfi_index !1183
  %137 = load i32, i32* %7, align 4, !llfi_index !1184
  %138 = call i32 @_Z5queryiiiiii(i32 1, i32 1, i32 %136, i32 1, i32 %137, i32 0), !llfi_index !1185
  %139 = load i32, i32* %7, align 4, !llfi_index !1186
  %140 = sext i32 %139 to i64, !llfi_index !1187
  %141 = getelementptr inbounds [50002 x [2 x i32]], [50002 x [2 x i32]]* @dp, i64 0, i64 %140, !llfi_index !1188
  %142 = getelementptr inbounds [2 x i32], [2 x i32]* %141, i64 0, i64 1, !llfi_index !1189
  store i32 %138, i32* %142, align 4, !llfi_index !1190
  %143 = load i32, i32* @m, align 4, !llfi_index !1191
  %144 = load i32, i32* %7, align 4, !llfi_index !1192
  %145 = load i32, i32* %7, align 4, !llfi_index !1193
  %146 = load i32, i32* %7, align 4, !llfi_index !1194
  %147 = sext i32 %146 to i64, !llfi_index !1195
  %148 = getelementptr inbounds [50002 x [2 x i32]], [50002 x [2 x i32]]* @dp, i64 0, i64 %147, !llfi_index !1196
  %149 = getelementptr inbounds [2 x i32], [2 x i32]* %148, i64 0, i64 0, !llfi_index !1197
  %150 = load i32, i32* %149, align 8, !llfi_index !1198
  call void @_Z6updateiiiiiii(i32 1, i32 1, i32 %143, i32 %144, i32 %145, i32 0, i32 %150), !llfi_index !1199
  %151 = load i32, i32* @m, align 4, !llfi_index !1200
  %152 = load i32, i32* %7, align 4, !llfi_index !1201
  %153 = load i32, i32* %7, align 4, !llfi_index !1202
  %154 = load i32, i32* %7, align 4, !llfi_index !1203
  %155 = sext i32 %154 to i64, !llfi_index !1204
  %156 = getelementptr inbounds [50002 x [2 x i32]], [50002 x [2 x i32]]* @dp, i64 0, i64 %155, !llfi_index !1205
  %157 = getelementptr inbounds [2 x i32], [2 x i32]* %156, i64 0, i64 1, !llfi_index !1206
  %158 = load i32, i32* %157, align 4, !llfi_index !1207
  call void @_Z6updateiiiiiii(i32 1, i32 1, i32 %151, i32 %152, i32 %153, i32 1, i32 %158), !llfi_index !1208
  br label %159, !llfi_index !1209

159:                                              ; preds = %128
  %160 = load i32, i32* %7, align 4, !llfi_index !1210
  %161 = add nsw i32 %160, 1, !llfi_index !1211
  store i32 %161, i32* %7, align 4, !llfi_index !1212
  br label %87, !llvm.loop !1213, !llfi_index !1214

162:                                              ; preds = %87
  call void @_ZNSt6vectorIiSaIiEEC2Ev(%"class.std::vector.0"* nonnull align 8 dereferenceable(24) %12) #2, !llfi_index !1215
  store i32 1, i32* %13, align 4, !llfi_index !1216
  br label %163, !llfi_index !1217

163:                                              ; preds = %179, %162
  %164 = load i32, i32* %13, align 4, !llfi_index !1218
  %165 = load i32, i32* @m, align 4, !llfi_index !1219
  %166 = icmp sle i32 %164, %165, !llfi_index !1220
  br i1 %166, label %167, label %186, !llfi_index !1221

167:                                              ; preds = %163
  %168 = load i32, i32* %13, align 4, !llfi_index !1222
  %169 = sext i32 %168 to i64, !llfi_index !1223
  %170 = getelementptr inbounds [50002 x [2 x i32]], [50002 x [2 x i32]]* @dp, i64 0, i64 %169, !llfi_index !1224
  %171 = getelementptr inbounds [2 x i32], [2 x i32]* %170, i64 0, i64 0, !llfi_index !1225
  %172 = load i32, i32* %13, align 4, !llfi_index !1226
  %173 = sext i32 %172 to i64, !llfi_index !1227
  %174 = getelementptr inbounds [50002 x [2 x i32]], [50002 x [2 x i32]]* @dp, i64 0, i64 %173, !llfi_index !1228
  %175 = getelementptr inbounds [2 x i32], [2 x i32]* %174, i64 0, i64 1, !llfi_index !1229
  %176 = invoke nonnull align 4 dereferenceable(4) i32* @_ZSt3maxIiERKT_S2_S2_(i32* nonnull align 4 dereferenceable(4) %171, i32* nonnull align 4 dereferenceable(4) %175)
          to label %177 unwind label %182, !llfi_index !1230

177:                                              ; preds = %167
  invoke void @_ZNSt6vectorIiSaIiEE9push_backERKi(%"class.std::vector.0"* nonnull align 8 dereferenceable(24) %12, i32* nonnull align 4 dereferenceable(4) %176)
          to label %178 unwind label %182, !llfi_index !1231

178:                                              ; preds = %177
  br label %179, !llfi_index !1232

179:                                              ; preds = %178
  %180 = load i32, i32* %13, align 4, !llfi_index !1233
  %181 = add nsw i32 %180, 1, !llfi_index !1234
  store i32 %181, i32* %13, align 4, !llfi_index !1235
  br label %163, !llvm.loop !1236, !llfi_index !1237

182:                                              ; preds = %222, %220, %213, %191, %177, %167
  %183 = landingpad { i8*, i32 }
          cleanup, !llfi_index !1238
  %184 = extractvalue { i8*, i32 } %183, 0, !llfi_index !1239
  store i8* %184, i8** %14, align 8, !llfi_index !1240
  %185 = extractvalue { i8*, i32 } %183, 1, !llfi_index !1241
  store i32 %185, i32* %15, align 4, !llfi_index !1242
  call void @_ZNSt6vectorIiSaIiEED2Ev(%"class.std::vector.0"* nonnull align 8 dereferenceable(24) %12) #2, !llfi_index !1243
  br label %226, !llfi_index !1244

186:                                              ; preds = %163
  store i32 1, i32* %16, align 4, !llfi_index !1245
  br label %187, !llfi_index !1246

187:                                              ; preds = %217, %186
  %188 = load i32, i32* %16, align 4, !llfi_index !1247
  %189 = load i32, i32* @n, align 4, !llfi_index !1248
  %190 = icmp sle i32 %188, %189, !llfi_index !1249
  br i1 %190, label %191, label %220, !llfi_index !1250

191:                                              ; preds = %187
  %192 = call i32* @_ZNSt6vectorIiSaIiEE5beginEv(%"class.std::vector.0"* nonnull align 8 dereferenceable(24) %12) #2, !llfi_index !1251
  %193 = getelementptr inbounds %"class.__gnu_cxx::__normal_iterator", %"class.__gnu_cxx::__normal_iterator"* %19, i32 0, i32 0, !llfi_index !1252
  store i32* %192, i32** %193, align 8, !llfi_index !1253
  %194 = call i32* @_ZNSt6vectorIiSaIiEE3endEv(%"class.std::vector.0"* nonnull align 8 dereferenceable(24) %12) #2, !llfi_index !1254
  %195 = getelementptr inbounds %"class.__gnu_cxx::__normal_iterator", %"class.__gnu_cxx::__normal_iterator"* %20, i32 0, i32 0, !llfi_index !1255
  store i32* %194, i32** %195, align 8, !llfi_index !1256
  %196 = getelementptr inbounds %"class.__gnu_cxx::__normal_iterator", %"class.__gnu_cxx::__normal_iterator"* %19, i32 0, i32 0, !llfi_index !1257
  %197 = load i32*, i32** %196, align 8, !llfi_index !1258
  %198 = getelementptr inbounds %"class.__gnu_cxx::__normal_iterator", %"class.__gnu_cxx::__normal_iterator"* %20, i32 0, i32 0, !llfi_index !1259
  %199 = load i32*, i32** %198, align 8, !llfi_index !1260
  %200 = invoke i32* @_ZSt11lower_boundIN9__gnu_cxx17__normal_iteratorIPiSt6vectorIiSaIiEEEEiET_S7_S7_RKT0_(i32* %197, i32* %199, i32* nonnull align 4 dereferenceable(4) %16)
          to label %201 unwind label %182, !llfi_index !1261

201:                                              ; preds = %191
  %202 = getelementptr inbounds %"class.__gnu_cxx::__normal_iterator", %"class.__gnu_cxx::__normal_iterator"* %18, i32 0, i32 0, !llfi_index !1262
  store i32* %200, i32** %202, align 8, !llfi_index !1263
  %203 = call i32* @_ZNSt6vectorIiSaIiEE5beginEv(%"class.std::vector.0"* nonnull align 8 dereferenceable(24) %12) #2, !llfi_index !1264
  %204 = getelementptr inbounds %"class.__gnu_cxx::__normal_iterator", %"class.__gnu_cxx::__normal_iterator"* %21, i32 0, i32 0, !llfi_index !1265
  store i32* %203, i32** %204, align 8, !llfi_index !1266
  %205 = call i64 @_ZN9__gnu_cxxmiIPiSt6vectorIiSaIiEEEENS_17__normal_iteratorIT_T0_E15difference_typeERKS8_SB_(%"class.__gnu_cxx::__normal_iterator"* nonnull align 8 dereferenceable(8) %18, %"class.__gnu_cxx::__normal_iterator"* nonnull align 8 dereferenceable(8) %21) #2, !llfi_index !1267
  %206 = add nsw i64 %205, 1, !llfi_index !1268
  %207 = trunc i64 %206 to i32, !llfi_index !1269
  store i32 %207, i32* %17, align 4, !llfi_index !1270
  %208 = load i32, i32* %17, align 4, !llfi_index !1271
  %209 = load i32, i32* @m, align 4, !llfi_index !1272
  %210 = add nsw i32 %209, 1, !llfi_index !1273
  %211 = icmp eq i32 %208, %210, !llfi_index !1274
  br i1 %211, label %212, label %213, !llfi_index !1275

212:                                              ; preds = %201
  store i32 -1, i32* %17, align 4, !llfi_index !1276
  br label %213, !llfi_index !1277

213:                                              ; preds = %212, %201
  %214 = load i32, i32* %17, align 4, !llfi_index !1278
  %215 = invoke i32 (i8*, ...) @printf(i8* getelementptr inbounds ([4 x i8], [4 x i8]* @.str.6, i64 0, i64 0), i32 %214)
          to label %216 unwind label %182, !llfi_index !1279

216:                                              ; preds = %213
  br label %217, !llfi_index !1280

217:                                              ; preds = %216
  %218 = load i32, i32* %16, align 4, !llfi_index !1281
  %219 = add nsw i32 %218, 1, !llfi_index !1282
  store i32 %219, i32* %16, align 4, !llfi_index !1283
  br label %187, !llvm.loop !1284, !llfi_index !1285

220:                                              ; preds = %187
  %221 = invoke i32 @puts(i8* getelementptr inbounds ([1 x i8], [1 x i8]* @.str.7, i64 0, i64 0))
          to label %222 unwind label %182, !llfi_index !1286

222:                                              ; preds = %220
  call void @_ZNSt6vectorIS_IiSaIiEESaIS1_EE5clearEv(%"class.std::vector"* nonnull align 8 dereferenceable(24) @g) #2, !llfi_index !1287
  invoke void @_ZNSt6vectorIS_IiSaIiEESaIS1_EE6resizeEm(%"class.std::vector"* nonnull align 8 dereferenceable(24) @g, i64 50002)
          to label %223 unwind label %182, !llfi_index !1288

223:                                              ; preds = %222
  call void @llvm.memset.p0i8.i64(i8* align 16 bitcast ([200008 x [2 x i32]]* @tree to i8*), i8 0, i64 1600064, i1 false), !llfi_index !1289
  call void @llvm.memset.p0i8.i64(i8* align 16 bitcast ([200008 x [2 x i32]]* @lazy to i8*), i8 0, i64 1600064, i1 false), !llfi_index !1290
  call void @_ZNSt6vectorIiSaIiEED2Ev(%"class.std::vector.0"* nonnull align 8 dereferenceable(24) %12) #2, !llfi_index !1291
  br label %25, !llvm.loop !1292, !llfi_index !1293

224:                                              ; preds = %25
  %225 = load i32, i32* %1, align 4, !llfi_index !1294
  ret i32 %225, !llfi_index !1295

226:                                              ; preds = %182
  %227 = load i8*, i8** %14, align 8, !llfi_index !1296
  %228 = load i32, i32* %15, align 4, !llfi_index !1297
  %229 = insertvalue { i8*, i32 } undef, i8* %227, 0, !llfi_index !1298
  %230 = insertvalue { i8*, i32 } %229, i32 %228, 1, !llfi_index !1299
  resume { i8*, i32 } %230, !llfi_index !1300
}

declare dso_local %struct._IO_FILE* @freopen(i8*, i8*, %struct._IO_FILE*) #11

declare dso_local i32 @__isoc99_scanf(i8*, ...) #11

; Function Attrs: mustprogress noinline nounwind uwtable
define linkonce_odr dso_local nonnull align 8 dereferenceable(24) %"class.std::vector.0"* @_ZNSt6vectorIS_IiSaIiEESaIS1_EEixEm(%"class.std::vector"* nonnull align 8 dereferenceable(24) %0, i64 %1) #3 comdat align 2 {
  %3 = alloca %"class.std::vector"*, align 8, !llfi_index !1301
  %4 = alloca i64, align 8, !llfi_index !1302
  store %"class.std::vector"* %0, %"class.std::vector"** %3, align 8, !llfi_index !1303
  store i64 %1, i64* %4, align 8, !llfi_index !1304
  %5 = load %"class.std::vector"*, %"class.std::vector"** %3, align 8, !llfi_index !1305
  %6 = bitcast %"class.std::vector"* %5 to %"struct.std::_Vector_base"*, !llfi_index !1306
  %7 = getelementptr inbounds %"struct.std::_Vector_base", %"struct.std::_Vector_base"* %6, i32 0, i32 0, !llfi_index !1307
  %8 = bitcast %"struct.std::_Vector_base<std::vector<int>, std::allocator<std::vector<int>>>::_Vector_impl"* %7 to %"struct.std::_Vector_base<std::vector<int>, std::allocator<std::vector<int>>>::_Vector_impl_data"*, !llfi_index !1308
  %9 = getelementptr inbounds %"struct.std::_Vector_base<std::vector<int>, std::allocator<std::vector<int>>>::_Vector_impl_data", %"struct.std::_Vector_base<std::vector<int>, std::allocator<std::vector<int>>>::_Vector_impl_data"* %8, i32 0, i32 0, !llfi_index !1309
  %10 = load %"class.std::vector.0"*, %"class.std::vector.0"** %9, align 8, !llfi_index !1310
  %11 = load i64, i64* %4, align 8, !llfi_index !1311
  %12 = getelementptr inbounds %"class.std::vector.0", %"class.std::vector.0"* %10, i64 %11, !llfi_index !1312
  ret %"class.std::vector.0"* %12, !llfi_index !1313
}

; Function Attrs: mustprogress noinline uwtable
define linkonce_odr dso_local void @_ZNSt6vectorIiSaIiEE9push_backERKi(%"class.std::vector.0"* nonnull align 8 dereferenceable(24) %0, i32* nonnull align 4 dereferenceable(4) %1) #4 comdat align 2 {
  %3 = alloca %"class.std::vector.0"*, align 8, !llfi_index !1314
  %4 = alloca i32*, align 8, !llfi_index !1315
  %5 = alloca %"class.__gnu_cxx::__normal_iterator", align 8, !llfi_index !1316
  store %"class.std::vector.0"* %0, %"class.std::vector.0"** %3, align 8, !llfi_index !1317
  store i32* %1, i32** %4, align 8, !llfi_index !1318
  %6 = load %"class.std::vector.0"*, %"class.std::vector.0"** %3, align 8, !llfi_index !1319
  %7 = bitcast %"class.std::vector.0"* %6 to %"struct.std::_Vector_base.1"*, !llfi_index !1320
  %8 = getelementptr inbounds %"struct.std::_Vector_base.1", %"struct.std::_Vector_base.1"* %7, i32 0, i32 0, !llfi_index !1321
  %9 = bitcast %"struct.std::_Vector_base<int, std::allocator<int>>::_Vector_impl"* %8 to %"struct.std::_Vector_base<int, std::allocator<int>>::_Vector_impl_data"*, !llfi_index !1322
  %10 = getelementptr inbounds %"struct.std::_Vector_base<int, std::allocator<int>>::_Vector_impl_data", %"struct.std::_Vector_base<int, std::allocator<int>>::_Vector_impl_data"* %9, i32 0, i32 1, !llfi_index !1323
  %11 = load i32*, i32** %10, align 8, !llfi_index !1324
  %12 = bitcast %"class.std::vector.0"* %6 to %"struct.std::_Vector_base.1"*, !llfi_index !1325
  %13 = getelementptr inbounds %"struct.std::_Vector_base.1", %"struct.std::_Vector_base.1"* %12, i32 0, i32 0, !llfi_index !1326
  %14 = bitcast %"struct.std::_Vector_base<int, std::allocator<int>>::_Vector_impl"* %13 to %"struct.std::_Vector_base<int, std::allocator<int>>::_Vector_impl_data"*, !llfi_index !1327
  %15 = getelementptr inbounds %"struct.std::_Vector_base<int, std::allocator<int>>::_Vector_impl_data", %"struct.std::_Vector_base<int, std::allocator<int>>::_Vector_impl_data"* %14, i32 0, i32 2, !llfi_index !1328
  %16 = load i32*, i32** %15, align 8, !llfi_index !1329
  %17 = icmp ne i32* %11, %16, !llfi_index !1330
  br i1 %17, label %18, label %34, !llfi_index !1331

18:                                               ; preds = %2
  %19 = bitcast %"class.std::vector.0"* %6 to %"struct.std::_Vector_base.1"*, !llfi_index !1332
  %20 = getelementptr inbounds %"struct.std::_Vector_base.1", %"struct.std::_Vector_base.1"* %19, i32 0, i32 0, !llfi_index !1333
  %21 = bitcast %"struct.std::_Vector_base<int, std::allocator<int>>::_Vector_impl"* %20 to %"class.std::allocator"*, !llfi_index !1334
  %22 = bitcast %"class.std::vector.0"* %6 to %"struct.std::_Vector_base.1"*, !llfi_index !1335
  %23 = getelementptr inbounds %"struct.std::_Vector_base.1", %"struct.std::_Vector_base.1"* %22, i32 0, i32 0, !llfi_index !1336
  %24 = bitcast %"struct.std::_Vector_base<int, std::allocator<int>>::_Vector_impl"* %23 to %"struct.std::_Vector_base<int, std::allocator<int>>::_Vector_impl_data"*, !llfi_index !1337
  %25 = getelementptr inbounds %"struct.std::_Vector_base<int, std::allocator<int>>::_Vector_impl_data", %"struct.std::_Vector_base<int, std::allocator<int>>::_Vector_impl_data"* %24, i32 0, i32 1, !llfi_index !1338
  %26 = load i32*, i32** %25, align 8, !llfi_index !1339
  %27 = load i32*, i32** %4, align 8, !llfi_index !1340
  call void @_ZNSt16allocator_traitsISaIiEE9constructIiJRKiEEEvRS0_PT_DpOT0_(%"class.std::allocator"* nonnull align 1 dereferenceable(1) %21, i32* %26, i32* nonnull align 4 dereferenceable(4) %27) #2, !llfi_index !1341
  %28 = bitcast %"class.std::vector.0"* %6 to %"struct.std::_Vector_base.1"*, !llfi_index !1342
  %29 = getelementptr inbounds %"struct.std::_Vector_base.1", %"struct.std::_Vector_base.1"* %28, i32 0, i32 0, !llfi_index !1343
  %30 = bitcast %"struct.std::_Vector_base<int, std::allocator<int>>::_Vector_impl"* %29 to %"struct.std::_Vector_base<int, std::allocator<int>>::_Vector_impl_data"*, !llfi_index !1344
  %31 = getelementptr inbounds %"struct.std::_Vector_base<int, std::allocator<int>>::_Vector_impl_data", %"struct.std::_Vector_base<int, std::allocator<int>>::_Vector_impl_data"* %30, i32 0, i32 1, !llfi_index !1345
  %32 = load i32*, i32** %31, align 8, !llfi_index !1346
  %33 = getelementptr inbounds i32, i32* %32, i32 1, !llfi_index !1347
  store i32* %33, i32** %31, align 8, !llfi_index !1348
  br label %40, !llfi_index !1349

34:                                               ; preds = %2
  %35 = call i32* @_ZNSt6vectorIiSaIiEE3endEv(%"class.std::vector.0"* nonnull align 8 dereferenceable(24) %6) #2, !llfi_index !1350
  %36 = getelementptr inbounds %"class.__gnu_cxx::__normal_iterator", %"class.__gnu_cxx::__normal_iterator"* %5, i32 0, i32 0, !llfi_index !1351
  store i32* %35, i32** %36, align 8, !llfi_index !1352
  %37 = load i32*, i32** %4, align 8, !llfi_index !1353
  %38 = getelementptr inbounds %"class.__gnu_cxx::__normal_iterator", %"class.__gnu_cxx::__normal_iterator"* %5, i32 0, i32 0, !llfi_index !1354
  %39 = load i32*, i32** %38, align 8, !llfi_index !1355
  call void @_ZNSt6vectorIiSaIiEE17_M_realloc_insertIJRKiEEEvN9__gnu_cxx17__normal_iteratorIPiS1_EEDpOT_(%"class.std::vector.0"* nonnull align 8 dereferenceable(24) %6, i32* %39, i32* nonnull align 4 dereferenceable(4) %37), !llfi_index !1356
  br label %40, !llfi_index !1357

40:                                               ; preds = %34, %18
  ret void, !llfi_index !1358
}

; Function Attrs: mustprogress noinline nounwind uwtable
define linkonce_odr dso_local i32* @_ZNSt6vectorIiSaIiEE5beginEv(%"class.std::vector.0"* nonnull align 8 dereferenceable(24) %0) #3 comdat align 2 {
  %2 = alloca %"class.__gnu_cxx::__normal_iterator", align 8, !llfi_index !1359
  %3 = alloca %"class.std::vector.0"*, align 8, !llfi_index !1360
  store %"class.std::vector.0"* %0, %"class.std::vector.0"** %3, align 8, !llfi_index !1361
  %4 = load %"class.std::vector.0"*, %"class.std::vector.0"** %3, align 8, !llfi_index !1362
  %5 = bitcast %"class.std::vector.0"* %4 to %"struct.std::_Vector_base.1"*, !llfi_index !1363
  %6 = getelementptr inbounds %"struct.std::_Vector_base.1", %"struct.std::_Vector_base.1"* %5, i32 0, i32 0, !llfi_index !1364
  %7 = bitcast %"struct.std::_Vector_base<int, std::allocator<int>>::_Vector_impl"* %6 to %"struct.std::_Vector_base<int, std::allocator<int>>::_Vector_impl_data"*, !llfi_index !1365
  %8 = getelementptr inbounds %"struct.std::_Vector_base<int, std::allocator<int>>::_Vector_impl_data", %"struct.std::_Vector_base<int, std::allocator<int>>::_Vector_impl_data"* %7, i32 0, i32 0, !llfi_index !1366
  call void @_ZN9__gnu_cxx17__normal_iteratorIPiSt6vectorIiSaIiEEEC2ERKS1_(%"class.__gnu_cxx::__normal_iterator"* nonnull align 8 dereferenceable(8) %2, i32** nonnull align 8 dereferenceable(8) %8) #2, !llfi_index !1367
  %9 = getelementptr inbounds %"class.__gnu_cxx::__normal_iterator", %"class.__gnu_cxx::__normal_iterator"* %2, i32 0, i32 0, !llfi_index !1368
  %10 = load i32*, i32** %9, align 8, !llfi_index !1369
  ret i32* %10, !llfi_index !1370
}

; Function Attrs: mustprogress noinline nounwind uwtable
define linkonce_odr dso_local i32* @_ZNSt6vectorIiSaIiEE3endEv(%"class.std::vector.0"* nonnull align 8 dereferenceable(24) %0) #3 comdat align 2 {
  %2 = alloca %"class.__gnu_cxx::__normal_iterator", align 8, !llfi_index !1371
  %3 = alloca %"class.std::vector.0"*, align 8, !llfi_index !1372
  store %"class.std::vector.0"* %0, %"class.std::vector.0"** %3, align 8, !llfi_index !1373
  %4 = load %"class.std::vector.0"*, %"class.std::vector.0"** %3, align 8, !llfi_index !1374
  %5 = bitcast %"class.std::vector.0"* %4 to %"struct.std::_Vector_base.1"*, !llfi_index !1375
  %6 = getelementptr inbounds %"struct.std::_Vector_base.1", %"struct.std::_Vector_base.1"* %5, i32 0, i32 0, !llfi_index !1376
  %7 = bitcast %"struct.std::_Vector_base<int, std::allocator<int>>::_Vector_impl"* %6 to %"struct.std::_Vector_base<int, std::allocator<int>>::_Vector_impl_data"*, !llfi_index !1377
  %8 = getelementptr inbounds %"struct.std::_Vector_base<int, std::allocator<int>>::_Vector_impl_data", %"struct.std::_Vector_base<int, std::allocator<int>>::_Vector_impl_data"* %7, i32 0, i32 1, !llfi_index !1378
  call void @_ZN9__gnu_cxx17__normal_iteratorIPiSt6vectorIiSaIiEEEC2ERKS1_(%"class.__gnu_cxx::__normal_iterator"* nonnull align 8 dereferenceable(8) %2, i32** nonnull align 8 dereferenceable(8) %8) #2, !llfi_index !1379
  %9 = getelementptr inbounds %"class.__gnu_cxx::__normal_iterator", %"class.__gnu_cxx::__normal_iterator"* %2, i32 0, i32 0, !llfi_index !1380
  %10 = load i32*, i32** %9, align 8, !llfi_index !1381
  ret i32* %10, !llfi_index !1382
}

; Function Attrs: mustprogress noinline nounwind uwtable
define linkonce_odr dso_local zeroext i1 @_ZN9__gnu_cxxneIPiSt6vectorIiSaIiEEEEbRKNS_17__normal_iteratorIT_T0_EESA_(%"class.__gnu_cxx::__normal_iterator"* nonnull align 8 dereferenceable(8) %0, %"class.__gnu_cxx::__normal_iterator"* nonnull align 8 dereferenceable(8) %1) #3 comdat {
  %3 = alloca %"class.__gnu_cxx::__normal_iterator"*, align 8, !llfi_index !1383
  %4 = alloca %"class.__gnu_cxx::__normal_iterator"*, align 8, !llfi_index !1384
  store %"class.__gnu_cxx::__normal_iterator"* %0, %"class.__gnu_cxx::__normal_iterator"** %3, align 8, !llfi_index !1385
  store %"class.__gnu_cxx::__normal_iterator"* %1, %"class.__gnu_cxx::__normal_iterator"** %4, align 8, !llfi_index !1386
  %5 = load %"class.__gnu_cxx::__normal_iterator"*, %"class.__gnu_cxx::__normal_iterator"** %3, align 8, !llfi_index !1387
  %6 = call nonnull align 8 dereferenceable(8) i32** @_ZNK9__gnu_cxx17__normal_iteratorIPiSt6vectorIiSaIiEEE4baseEv(%"class.__gnu_cxx::__normal_iterator"* nonnull align 8 dereferenceable(8) %5) #2, !llfi_index !1388
  %7 = load i32*, i32** %6, align 8, !llfi_index !1389
  %8 = load %"class.__gnu_cxx::__normal_iterator"*, %"class.__gnu_cxx::__normal_iterator"** %4, align 8, !llfi_index !1390
  %9 = call nonnull align 8 dereferenceable(8) i32** @_ZNK9__gnu_cxx17__normal_iteratorIPiSt6vectorIiSaIiEEE4baseEv(%"class.__gnu_cxx::__normal_iterator"* nonnull align 8 dereferenceable(8) %8) #2, !llfi_index !1391
  %10 = load i32*, i32** %9, align 8, !llfi_index !1392
  %11 = icmp ne i32* %7, %10, !llfi_index !1393
  ret i1 %11, !llfi_index !1394
}

; Function Attrs: mustprogress noinline nounwind uwtable
define linkonce_odr dso_local nonnull align 4 dereferenceable(4) i32* @_ZNK9__gnu_cxx17__normal_iteratorIPiSt6vectorIiSaIiEEEdeEv(%"class.__gnu_cxx::__normal_iterator"* nonnull align 8 dereferenceable(8) %0) #3 comdat align 2 {
  %2 = alloca %"class.__gnu_cxx::__normal_iterator"*, align 8, !llfi_index !1395
  store %"class.__gnu_cxx::__normal_iterator"* %0, %"class.__gnu_cxx::__normal_iterator"** %2, align 8, !llfi_index !1396
  %3 = load %"class.__gnu_cxx::__normal_iterator"*, %"class.__gnu_cxx::__normal_iterator"** %2, align 8, !llfi_index !1397
  %4 = getelementptr inbounds %"class.__gnu_cxx::__normal_iterator", %"class.__gnu_cxx::__normal_iterator"* %3, i32 0, i32 0, !llfi_index !1398
  %5 = load i32*, i32** %4, align 8, !llfi_index !1399
  ret i32* %5, !llfi_index !1400
}

; Function Attrs: mustprogress noinline nounwind uwtable
define linkonce_odr dso_local nonnull align 8 dereferenceable(8) %"class.__gnu_cxx::__normal_iterator"* @_ZN9__gnu_cxx17__normal_iteratorIPiSt6vectorIiSaIiEEEppEv(%"class.__gnu_cxx::__normal_iterator"* nonnull align 8 dereferenceable(8) %0) #3 comdat align 2 {
  %2 = alloca %"class.__gnu_cxx::__normal_iterator"*, align 8, !llfi_index !1401
  store %"class.__gnu_cxx::__normal_iterator"* %0, %"class.__gnu_cxx::__normal_iterator"** %2, align 8, !llfi_index !1402
  %3 = load %"class.__gnu_cxx::__normal_iterator"*, %"class.__gnu_cxx::__normal_iterator"** %2, align 8, !llfi_index !1403
  %4 = getelementptr inbounds %"class.__gnu_cxx::__normal_iterator", %"class.__gnu_cxx::__normal_iterator"* %3, i32 0, i32 0, !llfi_index !1404
  %5 = load i32*, i32** %4, align 8, !llfi_index !1405
  %6 = getelementptr inbounds i32, i32* %5, i32 1, !llfi_index !1406
  store i32* %6, i32** %4, align 8, !llfi_index !1407
  ret %"class.__gnu_cxx::__normal_iterator"* %3, !llfi_index !1408
}

; Function Attrs: mustprogress noinline uwtable
define linkonce_odr dso_local i32* @_ZSt11lower_boundIN9__gnu_cxx17__normal_iteratorIPiSt6vectorIiSaIiEEEEiET_S7_S7_RKT0_(i32* %0, i32* %1, i32* nonnull align 4 dereferenceable(4) %2) #4 comdat {
  %4 = alloca %"class.__gnu_cxx::__normal_iterator", align 8, !llfi_index !1409
  %5 = alloca %"class.__gnu_cxx::__normal_iterator", align 8, !llfi_index !1410
  %6 = alloca %"class.__gnu_cxx::__normal_iterator", align 8, !llfi_index !1411
  %7 = alloca i32*, align 8, !llfi_index !1412
  %8 = alloca %"class.__gnu_cxx::__normal_iterator", align 8, !llfi_index !1413
  %9 = alloca %"class.__gnu_cxx::__normal_iterator", align 8, !llfi_index !1414
  %10 = alloca %"class.std::allocator", align 1, !llfi_index !1415
  %11 = alloca %"class.std::allocator", align 1, !llfi_index !1416
  %12 = getelementptr inbounds %"class.__gnu_cxx::__normal_iterator", %"class.__gnu_cxx::__normal_iterator"* %5, i32 0, i32 0, !llfi_index !1417
  store i32* %0, i32** %12, align 8, !llfi_index !1418
  %13 = getelementptr inbounds %"class.__gnu_cxx::__normal_iterator", %"class.__gnu_cxx::__normal_iterator"* %6, i32 0, i32 0, !llfi_index !1419
  store i32* %1, i32** %13, align 8, !llfi_index !1420
  store i32* %2, i32** %7, align 8, !llfi_index !1421
  %14 = bitcast %"class.__gnu_cxx::__normal_iterator"* %8 to i8*, !llfi_index !1422
  %15 = bitcast %"class.__gnu_cxx::__normal_iterator"* %5 to i8*, !llfi_index !1423
  call void @llvm.memcpy.p0i8.p0i8.i64(i8* align 8 %14, i8* align 8 %15, i64 8, i1 false), !llfi_index !1424
  %16 = bitcast %"class.__gnu_cxx::__normal_iterator"* %9 to i8*, !llfi_index !1425
  %17 = bitcast %"class.__gnu_cxx::__normal_iterator"* %6 to i8*, !llfi_index !1426
  call void @llvm.memcpy.p0i8.p0i8.i64(i8* align 8 %16, i8* align 8 %17, i64 8, i1 false), !llfi_index !1427
  %18 = load i32*, i32** %7, align 8, !llfi_index !1428
  call void @_ZN9__gnu_cxx5__ops15__iter_less_valEv(), !llfi_index !1429
  %19 = getelementptr inbounds %"class.__gnu_cxx::__normal_iterator", %"class.__gnu_cxx::__normal_iterator"* %8, i32 0, i32 0, !llfi_index !1430
  %20 = load i32*, i32** %19, align 8, !llfi_index !1431
  %21 = getelementptr inbounds %"class.__gnu_cxx::__normal_iterator", %"class.__gnu_cxx::__normal_iterator"* %9, i32 0, i32 0, !llfi_index !1432
  %22 = load i32*, i32** %21, align 8, !llfi_index !1433
  %23 = call i32* @_ZSt13__lower_boundIN9__gnu_cxx17__normal_iteratorIPiSt6vectorIiSaIiEEEEiNS0_5__ops14_Iter_less_valEET_S9_S9_RKT0_T1_(i32* %20, i32* %22, i32* nonnull align 4 dereferenceable(4) %18), !llfi_index !1434
  %24 = getelementptr inbounds %"class.__gnu_cxx::__normal_iterator", %"class.__gnu_cxx::__normal_iterator"* %4, i32 0, i32 0, !llfi_index !1435
  store i32* %23, i32** %24, align 8, !llfi_index !1436
  %25 = getelementptr inbounds %"class.__gnu_cxx::__normal_iterator", %"class.__gnu_cxx::__normal_iterator"* %4, i32 0, i32 0, !llfi_index !1437
  %26 = load i32*, i32** %25, align 8, !llfi_index !1438
  ret i32* %26, !llfi_index !1439
}

; Function Attrs: mustprogress noinline nounwind uwtable
define linkonce_odr dso_local i64 @_ZN9__gnu_cxxmiIPiSt6vectorIiSaIiEEEENS_17__normal_iteratorIT_T0_E15difference_typeERKS8_SB_(%"class.__gnu_cxx::__normal_iterator"* nonnull align 8 dereferenceable(8) %0, %"class.__gnu_cxx::__normal_iterator"* nonnull align 8 dereferenceable(8) %1) #3 comdat {
  %3 = alloca %"class.__gnu_cxx::__normal_iterator"*, align 8, !llfi_index !1440
  %4 = alloca %"class.__gnu_cxx::__normal_iterator"*, align 8, !llfi_index !1441
  store %"class.__gnu_cxx::__normal_iterator"* %0, %"class.__gnu_cxx::__normal_iterator"** %3, align 8, !llfi_index !1442
  store %"class.__gnu_cxx::__normal_iterator"* %1, %"class.__gnu_cxx::__normal_iterator"** %4, align 8, !llfi_index !1443
  %5 = load %"class.__gnu_cxx::__normal_iterator"*, %"class.__gnu_cxx::__normal_iterator"** %3, align 8, !llfi_index !1444
  %6 = call nonnull align 8 dereferenceable(8) i32** @_ZNK9__gnu_cxx17__normal_iteratorIPiSt6vectorIiSaIiEEE4baseEv(%"class.__gnu_cxx::__normal_iterator"* nonnull align 8 dereferenceable(8) %5) #2, !llfi_index !1445
  %7 = load i32*, i32** %6, align 8, !llfi_index !1446
  %8 = load %"class.__gnu_cxx::__normal_iterator"*, %"class.__gnu_cxx::__normal_iterator"** %4, align 8, !llfi_index !1447
  %9 = call nonnull align 8 dereferenceable(8) i32** @_ZNK9__gnu_cxx17__normal_iteratorIPiSt6vectorIiSaIiEEE4baseEv(%"class.__gnu_cxx::__normal_iterator"* nonnull align 8 dereferenceable(8) %8) #2, !llfi_index !1448
  %10 = load i32*, i32** %9, align 8, !llfi_index !1449
  %11 = ptrtoint i32* %7 to i64, !llfi_index !1450
  %12 = ptrtoint i32* %10 to i64, !llfi_index !1451
  %13 = sub i64 %11, %12, !llfi_index !1452
  %14 = sdiv exact i64 %13, 4, !llfi_index !1453
  ret i64 %14, !llfi_index !1454
}

declare dso_local i32 @printf(i8*, ...) #11

declare dso_local i32 @puts(i8*) #11

; Function Attrs: mustprogress noinline nounwind uwtable
define linkonce_odr dso_local void @_ZNSt6vectorIS_IiSaIiEESaIS1_EE5clearEv(%"class.std::vector"* nonnull align 8 dereferenceable(24) %0) #3 comdat align 2 {
  %2 = alloca %"class.std::vector"*, align 8, !llfi_index !1455
  store %"class.std::vector"* %0, %"class.std::vector"** %2, align 8, !llfi_index !1456
  %3 = load %"class.std::vector"*, %"class.std::vector"** %2, align 8, !llfi_index !1457
  %4 = bitcast %"class.std::vector"* %3 to %"struct.std::_Vector_base"*, !llfi_index !1458
  %5 = getelementptr inbounds %"struct.std::_Vector_base", %"struct.std::_Vector_base"* %4, i32 0, i32 0, !llfi_index !1459
  %6 = bitcast %"struct.std::_Vector_base<std::vector<int>, std::allocator<std::vector<int>>>::_Vector_impl"* %5 to %"struct.std::_Vector_base<std::vector<int>, std::allocator<std::vector<int>>>::_Vector_impl_data"*, !llfi_index !1460
  %7 = getelementptr inbounds %"struct.std::_Vector_base<std::vector<int>, std::allocator<std::vector<int>>>::_Vector_impl_data", %"struct.std::_Vector_base<std::vector<int>, std::allocator<std::vector<int>>>::_Vector_impl_data"* %6, i32 0, i32 0, !llfi_index !1461
  %8 = load %"class.std::vector.0"*, %"class.std::vector.0"** %7, align 8, !llfi_index !1462
  call void @_ZNSt6vectorIS_IiSaIiEESaIS1_EE15_M_erase_at_endEPS1_(%"class.std::vector"* nonnull align 8 dereferenceable(24) %3, %"class.std::vector.0"* %8) #2, !llfi_index !1463
  ret void, !llfi_index !1464
}

; Function Attrs: mustprogress noinline uwtable
define linkonce_odr dso_local void @_ZNSt6vectorIS_IiSaIiEESaIS1_EE6resizeEm(%"class.std::vector"* nonnull align 8 dereferenceable(24) %0, i64 %1) #4 comdat align 2 {
  %3 = alloca %"class.std::vector"*, align 8, !llfi_index !1465
  %4 = alloca i64, align 8, !llfi_index !1466
  store %"class.std::vector"* %0, %"class.std::vector"** %3, align 8, !llfi_index !1467
  store i64 %1, i64* %4, align 8, !llfi_index !1468
  %5 = load %"class.std::vector"*, %"class.std::vector"** %3, align 8, !llfi_index !1469
  %6 = load i64, i64* %4, align 8, !llfi_index !1470
  %7 = call i64 @_ZNKSt6vectorIS_IiSaIiEESaIS1_EE4sizeEv(%"class.std::vector"* nonnull align 8 dereferenceable(24) %5) #2, !llfi_index !1471
  %8 = icmp ugt i64 %6, %7, !llfi_index !1472
  br i1 %8, label %9, label %13, !llfi_index !1473

9:                                                ; preds = %2
  %10 = load i64, i64* %4, align 8, !llfi_index !1474
  %11 = call i64 @_ZNKSt6vectorIS_IiSaIiEESaIS1_EE4sizeEv(%"class.std::vector"* nonnull align 8 dereferenceable(24) %5) #2, !llfi_index !1475
  %12 = sub i64 %10, %11, !llfi_index !1476
  call void @_ZNSt6vectorIS_IiSaIiEESaIS1_EE17_M_default_appendEm(%"class.std::vector"* nonnull align 8 dereferenceable(24) %5, i64 %12), !llfi_index !1477
  br label %26, !llfi_index !1478

13:                                               ; preds = %2
  %14 = load i64, i64* %4, align 8, !llfi_index !1479
  %15 = call i64 @_ZNKSt6vectorIS_IiSaIiEESaIS1_EE4sizeEv(%"class.std::vector"* nonnull align 8 dereferenceable(24) %5) #2, !llfi_index !1480
  %16 = icmp ult i64 %14, %15, !llfi_index !1481
  br i1 %16, label %17, label %25, !llfi_index !1482

17:                                               ; preds = %13
  %18 = bitcast %"class.std::vector"* %5 to %"struct.std::_Vector_base"*, !llfi_index !1483
  %19 = getelementptr inbounds %"struct.std::_Vector_base", %"struct.std::_Vector_base"* %18, i32 0, i32 0, !llfi_index !1484
  %20 = bitcast %"struct.std::_Vector_base<std::vector<int>, std::allocator<std::vector<int>>>::_Vector_impl"* %19 to %"struct.std::_Vector_base<std::vector<int>, std::allocator<std::vector<int>>>::_Vector_impl_data"*, !llfi_index !1485
  %21 = getelementptr inbounds %"struct.std::_Vector_base<std::vector<int>, std::allocator<std::vector<int>>>::_Vector_impl_data", %"struct.std::_Vector_base<std::vector<int>, std::allocator<std::vector<int>>>::_Vector_impl_data"* %20, i32 0, i32 0, !llfi_index !1486
  %22 = load %"class.std::vector.0"*, %"class.std::vector.0"** %21, align 8, !llfi_index !1487
  %23 = load i64, i64* %4, align 8, !llfi_index !1488
  %24 = getelementptr inbounds %"class.std::vector.0", %"class.std::vector.0"* %22, i64 %23, !llfi_index !1489
  call void @_ZNSt6vectorIS_IiSaIiEESaIS1_EE15_M_erase_at_endEPS1_(%"class.std::vector"* nonnull align 8 dereferenceable(24) %5, %"class.std::vector.0"* %24) #2, !llfi_index !1490
  br label %25, !llfi_index !1491

25:                                               ; preds = %17, %13
  br label %26, !llfi_index !1492

26:                                               ; preds = %25, %9
  ret void, !llfi_index !1493
}

; Function Attrs: mustprogress noinline nounwind uwtable
define linkonce_odr dso_local i64 @_ZNKSt6vectorIS_IiSaIiEESaIS1_EE4sizeEv(%"class.std::vector"* nonnull align 8 dereferenceable(24) %0) #3 comdat align 2 {
  %2 = alloca %"class.std::vector"*, align 8, !llfi_index !1494
  store %"class.std::vector"* %0, %"class.std::vector"** %2, align 8, !llfi_index !1495
  %3 = load %"class.std::vector"*, %"class.std::vector"** %2, align 8, !llfi_index !1496
  %4 = bitcast %"class.std::vector"* %3 to %"struct.std::_Vector_base"*, !llfi_index !1497
  %5 = getelementptr inbounds %"struct.std::_Vector_base", %"struct.std::_Vector_base"* %4, i32 0, i32 0, !llfi_index !1498
  %6 = bitcast %"struct.std::_Vector_base<std::vector<int>, std::allocator<std::vector<int>>>::_Vector_impl"* %5 to %"struct.std::_Vector_base<std::vector<int>, std::allocator<std::vector<int>>>::_Vector_impl_data"*, !llfi_index !1499
  %7 = getelementptr inbounds %"struct.std::_Vector_base<std::vector<int>, std::allocator<std::vector<int>>>::_Vector_impl_data", %"struct.std::_Vector_base<std::vector<int>, std::allocator<std::vector<int>>>::_Vector_impl_data"* %6, i32 0, i32 1, !llfi_index !1500
  %8 = load %"class.std::vector.0"*, %"class.std::vector.0"** %7, align 8, !llfi_index !1501
  %9 = bitcast %"class.std::vector"* %3 to %"struct.std::_Vector_base"*, !llfi_index !1502
  %10 = getelementptr inbounds %"struct.std::_Vector_base", %"struct.std::_Vector_base"* %9, i32 0, i32 0, !llfi_index !1503
  %11 = bitcast %"struct.std::_Vector_base<std::vector<int>, std::allocator<std::vector<int>>>::_Vector_impl"* %10 to %"struct.std::_Vector_base<std::vector<int>, std::allocator<std::vector<int>>>::_Vector_impl_data"*, !llfi_index !1504
  %12 = getelementptr inbounds %"struct.std::_Vector_base<std::vector<int>, std::allocator<std::vector<int>>>::_Vector_impl_data", %"struct.std::_Vector_base<std::vector<int>, std::allocator<std::vector<int>>>::_Vector_impl_data"* %11, i32 0, i32 0, !llfi_index !1505
  %13 = load %"class.std::vector.0"*, %"class.std::vector.0"** %12, align 8, !llfi_index !1506
  %14 = ptrtoint %"class.std::vector.0"* %8 to i64, !llfi_index !1507
  %15 = ptrtoint %"class.std::vector.0"* %13 to i64, !llfi_index !1508
  %16 = sub i64 %14, %15, !llfi_index !1509
  %17 = sdiv exact i64 %16, 24, !llfi_index !1510
  ret i64 %17, !llfi_index !1511
}

; Function Attrs: mustprogress noinline uwtable
define linkonce_odr dso_local void @_ZNSt6vectorIS_IiSaIiEESaIS1_EE17_M_default_appendEm(%"class.std::vector"* nonnull align 8 dereferenceable(24) %0, i64 %1) #4 comdat align 2 personality i8* bitcast (i32 (...)* @__gxx_personality_v0 to i8*) {
  %3 = alloca %"class.std::vector"*, align 8, !llfi_index !1512
  %4 = alloca i64, align 8, !llfi_index !1513
  %5 = alloca i64, align 8, !llfi_index !1514
  %6 = alloca i64, align 8, !llfi_index !1515
  %7 = alloca i64, align 8, !llfi_index !1516
  %8 = alloca %"class.std::vector.0"*, align 8, !llfi_index !1517
  %9 = alloca i8*, align 8, !llfi_index !1518
  %10 = alloca i32, align 4, !llfi_index !1519
  store %"class.std::vector"* %0, %"class.std::vector"** %3, align 8, !llfi_index !1520
  store i64 %1, i64* %4, align 8, !llfi_index !1521
  %11 = load %"class.std::vector"*, %"class.std::vector"** %3, align 8, !llfi_index !1522
  %12 = load i64, i64* %4, align 8, !llfi_index !1523
  %13 = icmp ne i64 %12, 0, !llfi_index !1524
  br i1 %13, label %14, label %145, !llfi_index !1525

14:                                               ; preds = %2
  %15 = call i64 @_ZNKSt6vectorIS_IiSaIiEESaIS1_EE4sizeEv(%"class.std::vector"* nonnull align 8 dereferenceable(24) %11) #2, !llfi_index !1526
  store i64 %15, i64* %5, align 8, !llfi_index !1527
  %16 = bitcast %"class.std::vector"* %11 to %"struct.std::_Vector_base"*, !llfi_index !1528
  %17 = getelementptr inbounds %"struct.std::_Vector_base", %"struct.std::_Vector_base"* %16, i32 0, i32 0, !llfi_index !1529
  %18 = bitcast %"struct.std::_Vector_base<std::vector<int>, std::allocator<std::vector<int>>>::_Vector_impl"* %17 to %"struct.std::_Vector_base<std::vector<int>, std::allocator<std::vector<int>>>::_Vector_impl_data"*, !llfi_index !1530
  %19 = getelementptr inbounds %"struct.std::_Vector_base<std::vector<int>, std::allocator<std::vector<int>>>::_Vector_impl_data", %"struct.std::_Vector_base<std::vector<int>, std::allocator<std::vector<int>>>::_Vector_impl_data"* %18, i32 0, i32 2, !llfi_index !1531
  %20 = load %"class.std::vector.0"*, %"class.std::vector.0"** %19, align 8, !llfi_index !1532
  %21 = bitcast %"class.std::vector"* %11 to %"struct.std::_Vector_base"*, !llfi_index !1533
  %22 = getelementptr inbounds %"struct.std::_Vector_base", %"struct.std::_Vector_base"* %21, i32 0, i32 0, !llfi_index !1534
  %23 = bitcast %"struct.std::_Vector_base<std::vector<int>, std::allocator<std::vector<int>>>::_Vector_impl"* %22 to %"struct.std::_Vector_base<std::vector<int>, std::allocator<std::vector<int>>>::_Vector_impl_data"*, !llfi_index !1535
  %24 = getelementptr inbounds %"struct.std::_Vector_base<std::vector<int>, std::allocator<std::vector<int>>>::_Vector_impl_data", %"struct.std::_Vector_base<std::vector<int>, std::allocator<std::vector<int>>>::_Vector_impl_data"* %23, i32 0, i32 1, !llfi_index !1536
  %25 = load %"class.std::vector.0"*, %"class.std::vector.0"** %24, align 8, !llfi_index !1537
  %26 = ptrtoint %"class.std::vector.0"* %20 to i64, !llfi_index !1538
  %27 = ptrtoint %"class.std::vector.0"* %25 to i64, !llfi_index !1539
  %28 = sub i64 %26, %27, !llfi_index !1540
  %29 = sdiv exact i64 %28, 24, !llfi_index !1541
  store i64 %29, i64* %6, align 8, !llfi_index !1542
  %30 = load i64, i64* %5, align 8, !llfi_index !1543
  %31 = call i64 @_ZNKSt6vectorIS_IiSaIiEESaIS1_EE8max_sizeEv(%"class.std::vector"* nonnull align 8 dereferenceable(24) %11) #2, !llfi_index !1544
  %32 = icmp ugt i64 %30, %31, !llfi_index !1545
  br i1 %32, label %39, label %33, !llfi_index !1546

33:                                               ; preds = %14
  %34 = load i64, i64* %6, align 8, !llfi_index !1547
  %35 = call i64 @_ZNKSt6vectorIS_IiSaIiEESaIS1_EE8max_sizeEv(%"class.std::vector"* nonnull align 8 dereferenceable(24) %11) #2, !llfi_index !1548
  %36 = load i64, i64* %5, align 8, !llfi_index !1549
  %37 = sub i64 %35, %36, !llfi_index !1550
  %38 = icmp ugt i64 %34, %37, !llfi_index !1551
  br i1 %38, label %39, label %40, !llfi_index !1552

39:                                               ; preds = %33, %14
  unreachable, !llfi_index !1553

40:                                               ; preds = %33
  %41 = load i64, i64* %6, align 8, !llfi_index !1554
  %42 = load i64, i64* %4, align 8, !llfi_index !1555
  %43 = icmp uge i64 %41, %42, !llfi_index !1556
  br i1 %43, label %44, label %58, !llfi_index !1557

44:                                               ; preds = %40
  %45 = bitcast %"class.std::vector"* %11 to %"struct.std::_Vector_base"*, !llfi_index !1558
  %46 = getelementptr inbounds %"struct.std::_Vector_base", %"struct.std::_Vector_base"* %45, i32 0, i32 0, !llfi_index !1559
  %47 = bitcast %"struct.std::_Vector_base<std::vector<int>, std::allocator<std::vector<int>>>::_Vector_impl"* %46 to %"struct.std::_Vector_base<std::vector<int>, std::allocator<std::vector<int>>>::_Vector_impl_data"*, !llfi_index !1560
  %48 = getelementptr inbounds %"struct.std::_Vector_base<std::vector<int>, std::allocator<std::vector<int>>>::_Vector_impl_data", %"struct.std::_Vector_base<std::vector<int>, std::allocator<std::vector<int>>>::_Vector_impl_data"* %47, i32 0, i32 1, !llfi_index !1561
  %49 = load %"class.std::vector.0"*, %"class.std::vector.0"** %48, align 8, !llfi_index !1562
  %50 = load i64, i64* %4, align 8, !llfi_index !1563
  %51 = bitcast %"class.std::vector"* %11 to %"struct.std::_Vector_base"*, !llfi_index !1564
  %52 = call nonnull align 1 dereferenceable(1) %"class.std::allocator"* @_ZNSt12_Vector_baseISt6vectorIiSaIiEESaIS2_EE19_M_get_Tp_allocatorEv(%"struct.std::_Vector_base"* nonnull align 8 dereferenceable(24) %51) #2, !llfi_index !1565
  %53 = call %"class.std::vector.0"* @_ZSt27__uninitialized_default_n_aIPSt6vectorIiSaIiEEmS2_ET_S4_T0_RSaIT1_E(%"class.std::vector.0"* %49, i64 %50, %"class.std::allocator"* nonnull align 1 dereferenceable(1) %52), !llfi_index !1566
  %54 = bitcast %"class.std::vector"* %11 to %"struct.std::_Vector_base"*, !llfi_index !1567
  %55 = getelementptr inbounds %"struct.std::_Vector_base", %"struct.std::_Vector_base"* %54, i32 0, i32 0, !llfi_index !1568
  %56 = bitcast %"struct.std::_Vector_base<std::vector<int>, std::allocator<std::vector<int>>>::_Vector_impl"* %55 to %"struct.std::_Vector_base<std::vector<int>, std::allocator<std::vector<int>>>::_Vector_impl_data"*, !llfi_index !1569
  %57 = getelementptr inbounds %"struct.std::_Vector_base<std::vector<int>, std::allocator<std::vector<int>>>::_Vector_impl_data", %"struct.std::_Vector_base<std::vector<int>, std::allocator<std::vector<int>>>::_Vector_impl_data"* %56, i32 0, i32 1, !llfi_index !1570
  store %"class.std::vector.0"* %53, %"class.std::vector.0"** %57, align 8, !llfi_index !1571
  br label %144, !llfi_index !1572

58:                                               ; preds = %40
  %59 = load i64, i64* %4, align 8, !llfi_index !1573
  %60 = call i64 @_ZNKSt6vectorIS_IiSaIiEESaIS1_EE12_M_check_lenEmPKc(%"class.std::vector"* nonnull align 8 dereferenceable(24) %11, i64 %59, i8* getelementptr inbounds ([26 x i8], [26 x i8]* @.str.10, i64 0, i64 0)), !llfi_index !1574
  store i64 %60, i64* %7, align 8, !llfi_index !1575
  %61 = bitcast %"class.std::vector"* %11 to %"struct.std::_Vector_base"*, !llfi_index !1576
  %62 = load i64, i64* %7, align 8, !llfi_index !1577
  %63 = call %"class.std::vector.0"* @_ZNSt12_Vector_baseISt6vectorIiSaIiEESaIS2_EE11_M_allocateEm(%"struct.std::_Vector_base"* nonnull align 8 dereferenceable(24) %61, i64 %62), !llfi_index !1578
  store %"class.std::vector.0"* %63, %"class.std::vector.0"** %8, align 8, !llfi_index !1579
  %64 = load %"class.std::vector.0"*, %"class.std::vector.0"** %8, align 8, !llfi_index !1580
  %65 = load i64, i64* %5, align 8, !llfi_index !1581
  %66 = getelementptr inbounds %"class.std::vector.0", %"class.std::vector.0"* %64, i64 %65, !llfi_index !1582
  %67 = load i64, i64* %4, align 8, !llfi_index !1583
  %68 = bitcast %"class.std::vector"* %11 to %"struct.std::_Vector_base"*, !llfi_index !1584
  %69 = call nonnull align 1 dereferenceable(1) %"class.std::allocator"* @_ZNSt12_Vector_baseISt6vectorIiSaIiEESaIS2_EE19_M_get_Tp_allocatorEv(%"struct.std::_Vector_base"* nonnull align 8 dereferenceable(24) %68) #2, !llfi_index !1585
  %70 = invoke %"class.std::vector.0"* @_ZSt27__uninitialized_default_n_aIPSt6vectorIiSaIiEEmS2_ET_S4_T0_RSaIT1_E(%"class.std::vector.0"* %66, i64 %67, %"class.std::allocator"* nonnull align 1 dereferenceable(1) %69)
          to label %71 unwind label %72, !llfi_index !1586

71:                                               ; preds = %58
  br label %88, !llfi_index !1587

72:                                               ; preds = %58
  %73 = landingpad { i8*, i32 }
          catch i8* null, !llfi_index !1588
  %74 = extractvalue { i8*, i32 } %73, 0, !llfi_index !1589
  store i8* %74, i8** %9, align 8, !llfi_index !1590
  %75 = extractvalue { i8*, i32 } %73, 1, !llfi_index !1591
  store i32 %75, i32* %10, align 4, !llfi_index !1592
  br label %76, !llfi_index !1593

76:                                               ; preds = %72
  %77 = load i8*, i8** %9, align 8, !llfi_index !1594
  %78 = call i8* @__cxa_begin_catch(i8* %77) #2, !llfi_index !1595
  %79 = bitcast %"class.std::vector"* %11 to %"struct.std::_Vector_base"*, !llfi_index !1596
  %80 = load %"class.std::vector.0"*, %"class.std::vector.0"** %8, align 8, !llfi_index !1597
  %81 = load i64, i64* %7, align 8, !llfi_index !1598
  invoke void @_ZNSt12_Vector_baseISt6vectorIiSaIiEESaIS2_EE13_M_deallocateEPS2_m(%"struct.std::_Vector_base"* nonnull align 8 dereferenceable(24) %79, %"class.std::vector.0"* %80, i64 %81)
          to label %82 unwind label %83, !llfi_index !1599

82:                                               ; preds = %76
  invoke void @__cxa_rethrow() #17
          to label %154 unwind label %83, !llfi_index !1600

83:                                               ; preds = %82, %76
  %84 = landingpad { i8*, i32 }
          cleanup, !llfi_index !1601
  %85 = extractvalue { i8*, i32 } %84, 0, !llfi_index !1602
  store i8* %85, i8** %9, align 8, !llfi_index !1603
  %86 = extractvalue { i8*, i32 } %84, 1, !llfi_index !1604
  store i32 %86, i32* %10, align 4, !llfi_index !1605
  invoke void @__cxa_end_catch()
          to label %87 unwind label %151, !llfi_index !1606

87:                                               ; preds = %83
  br label %146, !llfi_index !1607

88:                                               ; preds = %71
  %89 = bitcast %"class.std::vector"* %11 to %"struct.std::_Vector_base"*, !llfi_index !1608
  %90 = getelementptr inbounds %"struct.std::_Vector_base", %"struct.std::_Vector_base"* %89, i32 0, i32 0, !llfi_index !1609
  %91 = bitcast %"struct.std::_Vector_base<std::vector<int>, std::allocator<std::vector<int>>>::_Vector_impl"* %90 to %"struct.std::_Vector_base<std::vector<int>, std::allocator<std::vector<int>>>::_Vector_impl_data"*, !llfi_index !1610
  %92 = getelementptr inbounds %"struct.std::_Vector_base<std::vector<int>, std::allocator<std::vector<int>>>::_Vector_impl_data", %"struct.std::_Vector_base<std::vector<int>, std::allocator<std::vector<int>>>::_Vector_impl_data"* %91, i32 0, i32 0, !llfi_index !1611
  %93 = load %"class.std::vector.0"*, %"class.std::vector.0"** %92, align 8, !llfi_index !1612
  %94 = bitcast %"class.std::vector"* %11 to %"struct.std::_Vector_base"*, !llfi_index !1613
  %95 = getelementptr inbounds %"struct.std::_Vector_base", %"struct.std::_Vector_base"* %94, i32 0, i32 0, !llfi_index !1614
  %96 = bitcast %"struct.std::_Vector_base<std::vector<int>, std::allocator<std::vector<int>>>::_Vector_impl"* %95 to %"struct.std::_Vector_base<std::vector<int>, std::allocator<std::vector<int>>>::_Vector_impl_data"*, !llfi_index !1615
  %97 = getelementptr inbounds %"struct.std::_Vector_base<std::vector<int>, std::allocator<std::vector<int>>>::_Vector_impl_data", %"struct.std::_Vector_base<std::vector<int>, std::allocator<std::vector<int>>>::_Vector_impl_data"* %96, i32 0, i32 1, !llfi_index !1616
  %98 = load %"class.std::vector.0"*, %"class.std::vector.0"** %97, align 8, !llfi_index !1617
  %99 = load %"class.std::vector.0"*, %"class.std::vector.0"** %8, align 8, !llfi_index !1618
  %100 = bitcast %"class.std::vector"* %11 to %"struct.std::_Vector_base"*, !llfi_index !1619
  %101 = call nonnull align 1 dereferenceable(1) %"class.std::allocator"* @_ZNSt12_Vector_baseISt6vectorIiSaIiEESaIS2_EE19_M_get_Tp_allocatorEv(%"struct.std::_Vector_base"* nonnull align 8 dereferenceable(24) %100) #2, !llfi_index !1620
  %102 = call %"class.std::vector.0"* @_ZNSt6vectorIS_IiSaIiEESaIS1_EE11_S_relocateEPS1_S4_S4_RS2_(%"class.std::vector.0"* %93, %"class.std::vector.0"* %98, %"class.std::vector.0"* %99, %"class.std::allocator"* nonnull align 1 dereferenceable(1) %101) #2, !llfi_index !1621
  %103 = bitcast %"class.std::vector"* %11 to %"struct.std::_Vector_base"*, !llfi_index !1622
  %104 = bitcast %"class.std::vector"* %11 to %"struct.std::_Vector_base"*, !llfi_index !1623
  %105 = getelementptr inbounds %"struct.std::_Vector_base", %"struct.std::_Vector_base"* %104, i32 0, i32 0, !llfi_index !1624
  %106 = bitcast %"struct.std::_Vector_base<std::vector<int>, std::allocator<std::vector<int>>>::_Vector_impl"* %105 to %"struct.std::_Vector_base<std::vector<int>, std::allocator<std::vector<int>>>::_Vector_impl_data"*, !llfi_index !1625
  %107 = getelementptr inbounds %"struct.std::_Vector_base<std::vector<int>, std::allocator<std::vector<int>>>::_Vector_impl_data", %"struct.std::_Vector_base<std::vector<int>, std::allocator<std::vector<int>>>::_Vector_impl_data"* %106, i32 0, i32 0, !llfi_index !1626
  %108 = load %"class.std::vector.0"*, %"class.std::vector.0"** %107, align 8, !llfi_index !1627
  %109 = bitcast %"class.std::vector"* %11 to %"struct.std::_Vector_base"*, !llfi_index !1628
  %110 = getelementptr inbounds %"struct.std::_Vector_base", %"struct.std::_Vector_base"* %109, i32 0, i32 0, !llfi_index !1629
  %111 = bitcast %"struct.std::_Vector_base<std::vector<int>, std::allocator<std::vector<int>>>::_Vector_impl"* %110 to %"struct.std::_Vector_base<std::vector<int>, std::allocator<std::vector<int>>>::_Vector_impl_data"*, !llfi_index !1630
  %112 = getelementptr inbounds %"struct.std::_Vector_base<std::vector<int>, std::allocator<std::vector<int>>>::_Vector_impl_data", %"struct.std::_Vector_base<std::vector<int>, std::allocator<std::vector<int>>>::_Vector_impl_data"* %111, i32 0, i32 2, !llfi_index !1631
  %113 = load %"class.std::vector.0"*, %"class.std::vector.0"** %112, align 8, !llfi_index !1632
  %114 = bitcast %"class.std::vector"* %11 to %"struct.std::_Vector_base"*, !llfi_index !1633
  %115 = getelementptr inbounds %"struct.std::_Vector_base", %"struct.std::_Vector_base"* %114, i32 0, i32 0, !llfi_index !1634
  %116 = bitcast %"struct.std::_Vector_base<std::vector<int>, std::allocator<std::vector<int>>>::_Vector_impl"* %115 to %"struct.std::_Vector_base<std::vector<int>, std::allocator<std::vector<int>>>::_Vector_impl_data"*, !llfi_index !1635
  %117 = getelementptr inbounds %"struct.std::_Vector_base<std::vector<int>, std::allocator<std::vector<int>>>::_Vector_impl_data", %"struct.std::_Vector_base<std::vector<int>, std::allocator<std::vector<int>>>::_Vector_impl_data"* %116, i32 0, i32 0, !llfi_index !1636
  %118 = load %"class.std::vector.0"*, %"class.std::vector.0"** %117, align 8, !llfi_index !1637
  %119 = ptrtoint %"class.std::vector.0"* %113 to i64, !llfi_index !1638
  %120 = ptrtoint %"class.std::vector.0"* %118 to i64, !llfi_index !1639
  %121 = sub i64 %119, %120, !llfi_index !1640
  %122 = sdiv exact i64 %121, 24, !llfi_index !1641
  call void @_ZNSt12_Vector_baseISt6vectorIiSaIiEESaIS2_EE13_M_deallocateEPS2_m(%"struct.std::_Vector_base"* nonnull align 8 dereferenceable(24) %103, %"class.std::vector.0"* %108, i64 %122), !llfi_index !1642
  %123 = load %"class.std::vector.0"*, %"class.std::vector.0"** %8, align 8, !llfi_index !1643
  %124 = bitcast %"class.std::vector"* %11 to %"struct.std::_Vector_base"*, !llfi_index !1644
  %125 = getelementptr inbounds %"struct.std::_Vector_base", %"struct.std::_Vector_base"* %124, i32 0, i32 0, !llfi_index !1645
  %126 = bitcast %"struct.std::_Vector_base<std::vector<int>, std::allocator<std::vector<int>>>::_Vector_impl"* %125 to %"struct.std::_Vector_base<std::vector<int>, std::allocator<std::vector<int>>>::_Vector_impl_data"*, !llfi_index !1646
  %127 = getelementptr inbounds %"struct.std::_Vector_base<std::vector<int>, std::allocator<std::vector<int>>>::_Vector_impl_data", %"struct.std::_Vector_base<std::vector<int>, std::allocator<std::vector<int>>>::_Vector_impl_data"* %126, i32 0, i32 0, !llfi_index !1647
  store %"class.std::vector.0"* %123, %"class.std::vector.0"** %127, align 8, !llfi_index !1648
  %128 = load %"class.std::vector.0"*, %"class.std::vector.0"** %8, align 8, !llfi_index !1649
  %129 = load i64, i64* %5, align 8, !llfi_index !1650
  %130 = getelementptr inbounds %"class.std::vector.0", %"class.std::vector.0"* %128, i64 %129, !llfi_index !1651
  %131 = load i64, i64* %4, align 8, !llfi_index !1652
  %132 = getelementptr inbounds %"class.std::vector.0", %"class.std::vector.0"* %130, i64 %131, !llfi_index !1653
  %133 = bitcast %"class.std::vector"* %11 to %"struct.std::_Vector_base"*, !llfi_index !1654
  %134 = getelementptr inbounds %"struct.std::_Vector_base", %"struct.std::_Vector_base"* %133, i32 0, i32 0, !llfi_index !1655
  %135 = bitcast %"struct.std::_Vector_base<std::vector<int>, std::allocator<std::vector<int>>>::_Vector_impl"* %134 to %"struct.std::_Vector_base<std::vector<int>, std::allocator<std::vector<int>>>::_Vector_impl_data"*, !llfi_index !1656
  %136 = getelementptr inbounds %"struct.std::_Vector_base<std::vector<int>, std::allocator<std::vector<int>>>::_Vector_impl_data", %"struct.std::_Vector_base<std::vector<int>, std::allocator<std::vector<int>>>::_Vector_impl_data"* %135, i32 0, i32 1, !llfi_index !1657
  store %"class.std::vector.0"* %132, %"class.std::vector.0"** %136, align 8, !llfi_index !1658
  %137 = load %"class.std::vector.0"*, %"class.std::vector.0"** %8, align 8, !llfi_index !1659
  %138 = load i64, i64* %7, align 8, !llfi_index !1660
  %139 = getelementptr inbounds %"class.std::vector.0", %"class.std::vector.0"* %137, i64 %138, !llfi_index !1661
  %140 = bitcast %"class.std::vector"* %11 to %"struct.std::_Vector_base"*, !llfi_index !1662
  %141 = getelementptr inbounds %"struct.std::_Vector_base", %"struct.std::_Vector_base"* %140, i32 0, i32 0, !llfi_index !1663
  %142 = bitcast %"struct.std::_Vector_base<std::vector<int>, std::allocator<std::vector<int>>>::_Vector_impl"* %141 to %"struct.std::_Vector_base<std::vector<int>, std::allocator<std::vector<int>>>::_Vector_impl_data"*, !llfi_index !1664
  %143 = getelementptr inbounds %"struct.std::_Vector_base<std::vector<int>, std::allocator<std::vector<int>>>::_Vector_impl_data", %"struct.std::_Vector_base<std::vector<int>, std::allocator<std::vector<int>>>::_Vector_impl_data"* %142, i32 0, i32 2, !llfi_index !1665
  store %"class.std::vector.0"* %139, %"class.std::vector.0"** %143, align 8, !llfi_index !1666
  br label %144, !llfi_index !1667

144:                                              ; preds = %88, %44
  br label %145, !llfi_index !1668

145:                                              ; preds = %144, %2
  ret void, !llfi_index !1669

146:                                              ; preds = %87
  %147 = load i8*, i8** %9, align 8, !llfi_index !1670
  %148 = load i32, i32* %10, align 4, !llfi_index !1671
  %149 = insertvalue { i8*, i32 } undef, i8* %147, 0, !llfi_index !1672
  %150 = insertvalue { i8*, i32 } %149, i32 %148, 1, !llfi_index !1673
  resume { i8*, i32 } %150, !llfi_index !1674

151:                                              ; preds = %83
  %152 = landingpad { i8*, i32 }
          catch i8* null, !llfi_index !1675
  %153 = extractvalue { i8*, i32 } %152, 0, !llfi_index !1676
  call void @__clang_call_terminate(i8* %153) #16, !llfi_index !1677
  unreachable, !llfi_index !1678

154:                                              ; preds = %82
  unreachable, !llfi_index !1679
}

; Function Attrs: mustprogress noinline nounwind uwtable
define linkonce_odr dso_local void @_ZNSt6vectorIS_IiSaIiEESaIS1_EE15_M_erase_at_endEPS1_(%"class.std::vector"* nonnull align 8 dereferenceable(24) %0, %"class.std::vector.0"* %1) #3 comdat align 2 personality i8* bitcast (i32 (...)* @__gxx_personality_v0 to i8*) {
  %3 = alloca %"class.std::vector"*, align 8, !llfi_index !1680
  %4 = alloca %"class.std::vector.0"*, align 8, !llfi_index !1681
  %5 = alloca i64, align 8, !llfi_index !1682
  store %"class.std::vector"* %0, %"class.std::vector"** %3, align 8, !llfi_index !1683
  store %"class.std::vector.0"* %1, %"class.std::vector.0"** %4, align 8, !llfi_index !1684
  %6 = load %"class.std::vector"*, %"class.std::vector"** %3, align 8, !llfi_index !1685
  %7 = bitcast %"class.std::vector"* %6 to %"struct.std::_Vector_base"*, !llfi_index !1686
  %8 = getelementptr inbounds %"struct.std::_Vector_base", %"struct.std::_Vector_base"* %7, i32 0, i32 0, !llfi_index !1687
  %9 = bitcast %"struct.std::_Vector_base<std::vector<int>, std::allocator<std::vector<int>>>::_Vector_impl"* %8 to %"struct.std::_Vector_base<std::vector<int>, std::allocator<std::vector<int>>>::_Vector_impl_data"*, !llfi_index !1688
  %10 = getelementptr inbounds %"struct.std::_Vector_base<std::vector<int>, std::allocator<std::vector<int>>>::_Vector_impl_data", %"struct.std::_Vector_base<std::vector<int>, std::allocator<std::vector<int>>>::_Vector_impl_data"* %9, i32 0, i32 1, !llfi_index !1689
  %11 = load %"class.std::vector.0"*, %"class.std::vector.0"** %10, align 8, !llfi_index !1690
  %12 = load %"class.std::vector.0"*, %"class.std::vector.0"** %4, align 8, !llfi_index !1691
  %13 = ptrtoint %"class.std::vector.0"* %11 to i64, !llfi_index !1692
  %14 = ptrtoint %"class.std::vector.0"* %12 to i64, !llfi_index !1693
  %15 = sub i64 %13, %14, !llfi_index !1694
  %16 = sdiv exact i64 %15, 24, !llfi_index !1695
  store i64 %16, i64* %5, align 8, !llfi_index !1696
  %17 = load i64, i64* %5, align 8, !llfi_index !1697
  %18 = icmp ne i64 %17, 0, !llfi_index !1698
  br i1 %18, label %19, label %34, !llfi_index !1699

19:                                               ; preds = %2
  %20 = load %"class.std::vector.0"*, %"class.std::vector.0"** %4, align 8, !llfi_index !1700
  %21 = bitcast %"class.std::vector"* %6 to %"struct.std::_Vector_base"*, !llfi_index !1701
  %22 = getelementptr inbounds %"struct.std::_Vector_base", %"struct.std::_Vector_base"* %21, i32 0, i32 0, !llfi_index !1702
  %23 = bitcast %"struct.std::_Vector_base<std::vector<int>, std::allocator<std::vector<int>>>::_Vector_impl"* %22 to %"struct.std::_Vector_base<std::vector<int>, std::allocator<std::vector<int>>>::_Vector_impl_data"*, !llfi_index !1703
  %24 = getelementptr inbounds %"struct.std::_Vector_base<std::vector<int>, std::allocator<std::vector<int>>>::_Vector_impl_data", %"struct.std::_Vector_base<std::vector<int>, std::allocator<std::vector<int>>>::_Vector_impl_data"* %23, i32 0, i32 1, !llfi_index !1704
  %25 = load %"class.std::vector.0"*, %"class.std::vector.0"** %24, align 8, !llfi_index !1705
  %26 = bitcast %"class.std::vector"* %6 to %"struct.std::_Vector_base"*, !llfi_index !1706
  %27 = call nonnull align 1 dereferenceable(1) %"class.std::allocator"* @_ZNSt12_Vector_baseISt6vectorIiSaIiEESaIS2_EE19_M_get_Tp_allocatorEv(%"struct.std::_Vector_base"* nonnull align 8 dereferenceable(24) %26) #2, !llfi_index !1707
  invoke void @_ZSt8_DestroyIPSt6vectorIiSaIiEES2_EvT_S4_RSaIT0_E(%"class.std::vector.0"* %20, %"class.std::vector.0"* %25, %"class.std::allocator"* nonnull align 1 dereferenceable(1) %27)
          to label %28 unwind label %35, !llfi_index !1708

28:                                               ; preds = %19
  %29 = load %"class.std::vector.0"*, %"class.std::vector.0"** %4, align 8, !llfi_index !1709
  %30 = bitcast %"class.std::vector"* %6 to %"struct.std::_Vector_base"*, !llfi_index !1710
  %31 = getelementptr inbounds %"struct.std::_Vector_base", %"struct.std::_Vector_base"* %30, i32 0, i32 0, !llfi_index !1711
  %32 = bitcast %"struct.std::_Vector_base<std::vector<int>, std::allocator<std::vector<int>>>::_Vector_impl"* %31 to %"struct.std::_Vector_base<std::vector<int>, std::allocator<std::vector<int>>>::_Vector_impl_data"*, !llfi_index !1712
  %33 = getelementptr inbounds %"struct.std::_Vector_base<std::vector<int>, std::allocator<std::vector<int>>>::_Vector_impl_data", %"struct.std::_Vector_base<std::vector<int>, std::allocator<std::vector<int>>>::_Vector_impl_data"* %32, i32 0, i32 1, !llfi_index !1713
  store %"class.std::vector.0"* %29, %"class.std::vector.0"** %33, align 8, !llfi_index !1714
  br label %34, !llfi_index !1715

34:                                               ; preds = %28, %2
  ret void, !llfi_index !1716

35:                                               ; preds = %19
  %36 = landingpad { i8*, i32 }
          catch i8* null, !llfi_index !1717
  %37 = extractvalue { i8*, i32 } %36, 0, !llfi_index !1718
  call void @__clang_call_terminate(i8* %37) #16, !llfi_index !1719
  unreachable, !llfi_index !1720
}

; Function Attrs: mustprogress noinline nounwind uwtable
define linkonce_odr dso_local i64 @_ZNKSt6vectorIS_IiSaIiEESaIS1_EE8max_sizeEv(%"class.std::vector"* nonnull align 8 dereferenceable(24) %0) #3 comdat align 2 {
  %2 = alloca %"class.std::vector"*, align 8, !llfi_index !1721
  store %"class.std::vector"* %0, %"class.std::vector"** %2, align 8, !llfi_index !1722
  %3 = load %"class.std::vector"*, %"class.std::vector"** %2, align 8, !llfi_index !1723
  %4 = bitcast %"class.std::vector"* %3 to %"struct.std::_Vector_base"*, !llfi_index !1724
  %5 = call nonnull align 1 dereferenceable(1) %"class.std::allocator"* @_ZNKSt12_Vector_baseISt6vectorIiSaIiEESaIS2_EE19_M_get_Tp_allocatorEv(%"struct.std::_Vector_base"* nonnull align 8 dereferenceable(24) %4) #2, !llfi_index !1725
  %6 = call i64 @_ZNSt6vectorIS_IiSaIiEESaIS1_EE11_S_max_sizeERKS2_(%"class.std::allocator"* nonnull align 1 dereferenceable(1) %5) #2, !llfi_index !1726
  ret i64 %6, !llfi_index !1727
}

; Function Attrs: mustprogress noinline uwtable
define linkonce_odr dso_local i64 @_ZNKSt6vectorIS_IiSaIiEESaIS1_EE12_M_check_lenEmPKc(%"class.std::vector"* nonnull align 8 dereferenceable(24) %0, i64 %1, i8* %2) #4 comdat align 2 {
  %4 = alloca %"class.std::vector"*, align 8, !llfi_index !1728
  %5 = alloca i64, align 8, !llfi_index !1729
  %6 = alloca i8*, align 8, !llfi_index !1730
  %7 = alloca i64, align 8, !llfi_index !1731
  %8 = alloca i64, align 8, !llfi_index !1732
  store %"class.std::vector"* %0, %"class.std::vector"** %4, align 8, !llfi_index !1733
  store i64 %1, i64* %5, align 8, !llfi_index !1734
  store i8* %2, i8** %6, align 8, !llfi_index !1735
  %9 = load %"class.std::vector"*, %"class.std::vector"** %4, align 8, !llfi_index !1736
  %10 = call i64 @_ZNKSt6vectorIS_IiSaIiEESaIS1_EE8max_sizeEv(%"class.std::vector"* nonnull align 8 dereferenceable(24) %9) #2, !llfi_index !1737
  %11 = call i64 @_ZNKSt6vectorIS_IiSaIiEESaIS1_EE4sizeEv(%"class.std::vector"* nonnull align 8 dereferenceable(24) %9) #2, !llfi_index !1738
  %12 = sub i64 %10, %11, !llfi_index !1739
  %13 = load i64, i64* %5, align 8, !llfi_index !1740
  %14 = icmp ult i64 %12, %13, !llfi_index !1741
  br i1 %14, label %15, label %17, !llfi_index !1742

15:                                               ; preds = %3
  %16 = load i8*, i8** %6, align 8, !llfi_index !1743
  call void @_ZSt20__throw_length_errorPKc(i8* %16) #17, !llfi_index !1744
  unreachable, !llfi_index !1745

17:                                               ; preds = %3
  %18 = call i64 @_ZNKSt6vectorIS_IiSaIiEESaIS1_EE4sizeEv(%"class.std::vector"* nonnull align 8 dereferenceable(24) %9) #2, !llfi_index !1746
  %19 = call i64 @_ZNKSt6vectorIS_IiSaIiEESaIS1_EE4sizeEv(%"class.std::vector"* nonnull align 8 dereferenceable(24) %9) #2, !llfi_index !1747
  store i64 %19, i64* %8, align 8, !llfi_index !1748
  %20 = call nonnull align 8 dereferenceable(8) i64* @_ZSt3maxImERKT_S2_S2_(i64* nonnull align 8 dereferenceable(8) %8, i64* nonnull align 8 dereferenceable(8) %5), !llfi_index !1749
  %21 = load i64, i64* %20, align 8, !llfi_index !1750
  %22 = add i64 %18, %21, !llfi_index !1751
  store i64 %22, i64* %7, align 8, !llfi_index !1752
  %23 = load i64, i64* %7, align 8, !llfi_index !1753
  %24 = call i64 @_ZNKSt6vectorIS_IiSaIiEESaIS1_EE4sizeEv(%"class.std::vector"* nonnull align 8 dereferenceable(24) %9) #2, !llfi_index !1754
  %25 = icmp ult i64 %23, %24, !llfi_index !1755
  br i1 %25, label %30, label %26, !llfi_index !1756

26:                                               ; preds = %17
  %27 = load i64, i64* %7, align 8, !llfi_index !1757
  %28 = call i64 @_ZNKSt6vectorIS_IiSaIiEESaIS1_EE8max_sizeEv(%"class.std::vector"* nonnull align 8 dereferenceable(24) %9) #2, !llfi_index !1758
  %29 = icmp ugt i64 %27, %28, !llfi_index !1759
  br i1 %29, label %30, label %32, !llfi_index !1760

30:                                               ; preds = %26, %17
  %31 = call i64 @_ZNKSt6vectorIS_IiSaIiEESaIS1_EE8max_sizeEv(%"class.std::vector"* nonnull align 8 dereferenceable(24) %9) #2, !llfi_index !1761
  br label %34, !llfi_index !1762

32:                                               ; preds = %26
  %33 = load i64, i64* %7, align 8, !llfi_index !1763
  br label %34, !llfi_index !1764

34:                                               ; preds = %32, %30
  %35 = phi i64 [ %31, %30 ], [ %33, %32 ], !llfi_index !1765
  ret i64 %35, !llfi_index !1766
}

; Function Attrs: mustprogress noinline nounwind uwtable
define linkonce_odr dso_local %"class.std::vector.0"* @_ZNSt6vectorIS_IiSaIiEESaIS1_EE11_S_relocateEPS1_S4_S4_RS2_(%"class.std::vector.0"* %0, %"class.std::vector.0"* %1, %"class.std::vector.0"* %2, %"class.std::allocator"* nonnull align 1 dereferenceable(1) %3) #3 comdat align 2 {
  %5 = alloca %"class.std::vector.0"*, align 8, !llfi_index !1767
  %6 = alloca %"class.std::vector.0"*, align 8, !llfi_index !1768
  %7 = alloca %"class.std::vector.0"*, align 8, !llfi_index !1769
  %8 = alloca %"class.std::allocator"*, align 8, !llfi_index !1770
  %9 = alloca %"class.std::allocator", align 1, !llfi_index !1771
  store %"class.std::vector.0"* %0, %"class.std::vector.0"** %5, align 8, !llfi_index !1772
  store %"class.std::vector.0"* %1, %"class.std::vector.0"** %6, align 8, !llfi_index !1773
  store %"class.std::vector.0"* %2, %"class.std::vector.0"** %7, align 8, !llfi_index !1774
  store %"class.std::allocator"* %3, %"class.std::allocator"** %8, align 8, !llfi_index !1775
  %10 = load %"class.std::vector.0"*, %"class.std::vector.0"** %5, align 8, !llfi_index !1776
  %11 = load %"class.std::vector.0"*, %"class.std::vector.0"** %6, align 8, !llfi_index !1777
  %12 = load %"class.std::vector.0"*, %"class.std::vector.0"** %7, align 8, !llfi_index !1778
  %13 = load %"class.std::allocator"*, %"class.std::allocator"** %8, align 8, !llfi_index !1779
  %14 = call %"class.std::vector.0"* @_ZNSt6vectorIS_IiSaIiEESaIS1_EE14_S_do_relocateEPS1_S4_S4_RS2_St17integral_constantIbLb1EE(%"class.std::vector.0"* %10, %"class.std::vector.0"* %11, %"class.std::vector.0"* %12, %"class.std::allocator"* nonnull align 1 dereferenceable(1) %13) #2, !llfi_index !1780
  ret %"class.std::vector.0"* %14, !llfi_index !1781
}

; Function Attrs: mustprogress noinline nounwind uwtable
define linkonce_odr dso_local %"class.std::vector.0"* @_ZNSt6vectorIS_IiSaIiEESaIS1_EE14_S_do_relocateEPS1_S4_S4_RS2_St17integral_constantIbLb1EE(%"class.std::vector.0"* %0, %"class.std::vector.0"* %1, %"class.std::vector.0"* %2, %"class.std::allocator"* nonnull align 1 dereferenceable(1) %3) #3 comdat align 2 {
  %5 = alloca %"class.std::allocator", align 1, !llfi_index !1782
  %6 = alloca %"class.std::vector.0"*, align 8, !llfi_index !1783
  %7 = alloca %"class.std::vector.0"*, align 8, !llfi_index !1784
  %8 = alloca %"class.std::vector.0"*, align 8, !llfi_index !1785
  %9 = alloca %"class.std::allocator"*, align 8, !llfi_index !1786
  store %"class.std::vector.0"* %0, %"class.std::vector.0"** %6, align 8, !llfi_index !1787
  store %"class.std::vector.0"* %1, %"class.std::vector.0"** %7, align 8, !llfi_index !1788
  store %"class.std::vector.0"* %2, %"class.std::vector.0"** %8, align 8, !llfi_index !1789
  store %"class.std::allocator"* %3, %"class.std::allocator"** %9, align 8, !llfi_index !1790
  %10 = load %"class.std::vector.0"*, %"class.std::vector.0"** %6, align 8, !llfi_index !1791
  %11 = load %"class.std::vector.0"*, %"class.std::vector.0"** %7, align 8, !llfi_index !1792
  %12 = load %"class.std::vector.0"*, %"class.std::vector.0"** %8, align 8, !llfi_index !1793
  %13 = load %"class.std::allocator"*, %"class.std::allocator"** %9, align 8, !llfi_index !1794
  %14 = call %"class.std::vector.0"* @_ZSt12__relocate_aIPSt6vectorIiSaIiEES3_SaIS2_EET0_T_S6_S5_RT1_(%"class.std::vector.0"* %10, %"class.std::vector.0"* %11, %"class.std::vector.0"* %12, %"class.std::allocator"* nonnull align 1 dereferenceable(1) %13) #2, !llfi_index !1795
  ret %"class.std::vector.0"* %14, !llfi_index !1796
}

; Function Attrs: mustprogress noinline nounwind uwtable
define linkonce_odr dso_local %"class.std::vector.0"* @_ZSt12__relocate_aIPSt6vectorIiSaIiEES3_SaIS2_EET0_T_S6_S5_RT1_(%"class.std::vector.0"* %0, %"class.std::vector.0"* %1, %"class.std::vector.0"* %2, %"class.std::allocator"* nonnull align 1 dereferenceable(1) %3) #3 comdat {
  %5 = alloca %"class.std::vector.0"*, align 8, !llfi_index !1797
  %6 = alloca %"class.std::vector.0"*, align 8, !llfi_index !1798
  %7 = alloca %"class.std::vector.0"*, align 8, !llfi_index !1799
  %8 = alloca %"class.std::allocator"*, align 8, !llfi_index !1800
  store %"class.std::vector.0"* %0, %"class.std::vector.0"** %5, align 8, !llfi_index !1801
  store %"class.std::vector.0"* %1, %"class.std::vector.0"** %6, align 8, !llfi_index !1802
  store %"class.std::vector.0"* %2, %"class.std::vector.0"** %7, align 8, !llfi_index !1803
  store %"class.std::allocator"* %3, %"class.std::allocator"** %8, align 8, !llfi_index !1804
  %9 = load %"class.std::vector.0"*, %"class.std::vector.0"** %5, align 8, !llfi_index !1805
  %10 = call %"class.std::vector.0"* @_ZSt12__niter_baseIPSt6vectorIiSaIiEEET_S4_(%"class.std::vector.0"* %9) #2, !llfi_index !1806
  %11 = load %"class.std::vector.0"*, %"class.std::vector.0"** %6, align 8, !llfi_index !1807
  %12 = call %"class.std::vector.0"* @_ZSt12__niter_baseIPSt6vectorIiSaIiEEET_S4_(%"class.std::vector.0"* %11) #2, !llfi_index !1808
  %13 = load %"class.std::vector.0"*, %"class.std::vector.0"** %7, align 8, !llfi_index !1809
  %14 = call %"class.std::vector.0"* @_ZSt12__niter_baseIPSt6vectorIiSaIiEEET_S4_(%"class.std::vector.0"* %13) #2, !llfi_index !1810
  %15 = load %"class.std::allocator"*, %"class.std::allocator"** %8, align 8, !llfi_index !1811
  %16 = call %"class.std::vector.0"* @_ZSt14__relocate_a_1IPSt6vectorIiSaIiEES3_SaIS2_EET0_T_S6_S5_RT1_(%"class.std::vector.0"* %10, %"class.std::vector.0"* %12, %"class.std::vector.0"* %14, %"class.std::allocator"* nonnull align 1 dereferenceable(1) %15) #2, !llfi_index !1812
  ret %"class.std::vector.0"* %16, !llfi_index !1813
}

; Function Attrs: mustprogress noinline nounwind uwtable
define linkonce_odr dso_local %"class.std::vector.0"* @_ZSt12__niter_baseIPSt6vectorIiSaIiEEET_S4_(%"class.std::vector.0"* %0) #3 comdat {
  %2 = alloca %"class.std::vector.0"*, align 8, !llfi_index !1814
  store %"class.std::vector.0"* %0, %"class.std::vector.0"** %2, align 8, !llfi_index !1815
  %3 = load %"class.std::vector.0"*, %"class.std::vector.0"** %2, align 8, !llfi_index !1816
  ret %"class.std::vector.0"* %3, !llfi_index !1817
}

; Function Attrs: mustprogress noinline nounwind uwtable
define linkonce_odr dso_local %"class.std::vector.0"* @_ZSt14__relocate_a_1IPSt6vectorIiSaIiEES3_SaIS2_EET0_T_S6_S5_RT1_(%"class.std::vector.0"* %0, %"class.std::vector.0"* %1, %"class.std::vector.0"* %2, %"class.std::allocator"* nonnull align 1 dereferenceable(1) %3) #3 comdat {
  %5 = alloca %"class.std::vector.0"*, align 8, !llfi_index !1818
  %6 = alloca %"class.std::vector.0"*, align 8, !llfi_index !1819
  %7 = alloca %"class.std::vector.0"*, align 8, !llfi_index !1820
  %8 = alloca %"class.std::allocator"*, align 8, !llfi_index !1821
  %9 = alloca %"class.std::vector.0"*, align 8, !llfi_index !1822
  store %"class.std::vector.0"* %0, %"class.std::vector.0"** %5, align 8, !llfi_index !1823
  store %"class.std::vector.0"* %1, %"class.std::vector.0"** %6, align 8, !llfi_index !1824
  store %"class.std::vector.0"* %2, %"class.std::vector.0"** %7, align 8, !llfi_index !1825
  store %"class.std::allocator"* %3, %"class.std::allocator"** %8, align 8, !llfi_index !1826
  %10 = load %"class.std::vector.0"*, %"class.std::vector.0"** %7, align 8, !llfi_index !1827
  store %"class.std::vector.0"* %10, %"class.std::vector.0"** %9, align 8, !llfi_index !1828
  br label %11, !llfi_index !1829

11:                                               ; preds = %21, %4
  %12 = load %"class.std::vector.0"*, %"class.std::vector.0"** %5, align 8, !llfi_index !1830
  %13 = load %"class.std::vector.0"*, %"class.std::vector.0"** %6, align 8, !llfi_index !1831
  %14 = icmp ne %"class.std::vector.0"* %12, %13, !llfi_index !1832
  br i1 %14, label %15, label %26, !llfi_index !1833

15:                                               ; preds = %11
  %16 = load %"class.std::vector.0"*, %"class.std::vector.0"** %9, align 8, !llfi_index !1834
  %17 = call %"class.std::vector.0"* @_ZSt11__addressofISt6vectorIiSaIiEEEPT_RS3_(%"class.std::vector.0"* nonnull align 8 dereferenceable(24) %16) #2, !llfi_index !1835
  %18 = load %"class.std::vector.0"*, %"class.std::vector.0"** %5, align 8, !llfi_index !1836
  %19 = call %"class.std::vector.0"* @_ZSt11__addressofISt6vectorIiSaIiEEEPT_RS3_(%"class.std::vector.0"* nonnull align 8 dereferenceable(24) %18) #2, !llfi_index !1837
  %20 = load %"class.std::allocator"*, %"class.std::allocator"** %8, align 8, !llfi_index !1838
  call void @_ZSt19__relocate_object_aISt6vectorIiSaIiEES2_SaIS2_EEvPT_PT0_RT1_(%"class.std::vector.0"* %17, %"class.std::vector.0"* %19, %"class.std::allocator"* nonnull align 1 dereferenceable(1) %20) #2, !llfi_index !1839
  br label %21, !llfi_index !1840

21:                                               ; preds = %15
  %22 = load %"class.std::vector.0"*, %"class.std::vector.0"** %5, align 8, !llfi_index !1841
  %23 = getelementptr inbounds %"class.std::vector.0", %"class.std::vector.0"* %22, i32 1, !llfi_index !1842
  store %"class.std::vector.0"* %23, %"class.std::vector.0"** %5, align 8, !llfi_index !1843
  %24 = load %"class.std::vector.0"*, %"class.std::vector.0"** %9, align 8, !llfi_index !1844
  %25 = getelementptr inbounds %"class.std::vector.0", %"class.std::vector.0"* %24, i32 1, !llfi_index !1845
  store %"class.std::vector.0"* %25, %"class.std::vector.0"** %9, align 8, !llfi_index !1846
  br label %11, !llvm.loop !1847, !llfi_index !1848

26:                                               ; preds = %11
  %27 = load %"class.std::vector.0"*, %"class.std::vector.0"** %9, align 8, !llfi_index !1849
  ret %"class.std::vector.0"* %27, !llfi_index !1850
}

; Function Attrs: mustprogress noinline nounwind uwtable
define linkonce_odr dso_local void @_ZSt19__relocate_object_aISt6vectorIiSaIiEES2_SaIS2_EEvPT_PT0_RT1_(%"class.std::vector.0"* %0, %"class.std::vector.0"* %1, %"class.std::allocator"* nonnull align 1 dereferenceable(1) %2) #3 comdat {
  %4 = alloca %"class.std::vector.0"*, align 8, !llfi_index !1851
  %5 = alloca %"class.std::vector.0"*, align 8, !llfi_index !1852
  %6 = alloca %"class.std::allocator"*, align 8, !llfi_index !1853
  store %"class.std::vector.0"* %0, %"class.std::vector.0"** %4, align 8, !llfi_index !1854
  store %"class.std::vector.0"* %1, %"class.std::vector.0"** %5, align 8, !llfi_index !1855
  store %"class.std::allocator"* %2, %"class.std::allocator"** %6, align 8, !llfi_index !1856
  %7 = load %"class.std::allocator"*, %"class.std::allocator"** %6, align 8, !llfi_index !1857
  %8 = load %"class.std::vector.0"*, %"class.std::vector.0"** %4, align 8, !llfi_index !1858
  %9 = load %"class.std::vector.0"*, %"class.std::vector.0"** %5, align 8, !llfi_index !1859
  %10 = call nonnull align 8 dereferenceable(24) %"class.std::vector.0"* @_ZSt4moveIRSt6vectorIiSaIiEEEONSt16remove_referenceIT_E4typeEOS5_(%"class.std::vector.0"* nonnull align 8 dereferenceable(24) %9) #2, !llfi_index !1860
  call void @_ZNSt16allocator_traitsISaISt6vectorIiSaIiEEEE9constructIS2_JS2_EEEvRS3_PT_DpOT0_(%"class.std::allocator"* nonnull align 1 dereferenceable(1) %7, %"class.std::vector.0"* %8, %"class.std::vector.0"* nonnull align 8 dereferenceable(24) %10) #2, !llfi_index !1861
  %11 = load %"class.std::allocator"*, %"class.std::allocator"** %6, align 8, !llfi_index !1862
  %12 = load %"class.std::vector.0"*, %"class.std::vector.0"** %5, align 8, !llfi_index !1863
  %13 = call %"class.std::vector.0"* @_ZSt11__addressofISt6vectorIiSaIiEEEPT_RS3_(%"class.std::vector.0"* nonnull align 8 dereferenceable(24) %12) #2, !llfi_index !1864
  call void @_ZNSt16allocator_traitsISaISt6vectorIiSaIiEEEE7destroyIS2_EEvRS3_PT_(%"class.std::allocator"* nonnull align 1 dereferenceable(1) %11, %"class.std::vector.0"* %13) #2, !llfi_index !1865
  ret void, !llfi_index !1866
}

; Function Attrs: mustprogress noinline nounwind uwtable
define linkonce_odr dso_local nonnull align 8 dereferenceable(24) %"class.std::vector.0"* @_ZSt4moveIRSt6vectorIiSaIiEEEONSt16remove_referenceIT_E4typeEOS5_(%"class.std::vector.0"* nonnull align 8 dereferenceable(24) %0) #3 comdat {
  %2 = alloca %"class.std::vector.0"*, align 8, !llfi_index !1867
  store %"class.std::vector.0"* %0, %"class.std::vector.0"** %2, align 8, !llfi_index !1868
  %3 = load %"class.std::vector.0"*, %"class.std::vector.0"** %2, align 8, !llfi_index !1869
  ret %"class.std::vector.0"* %3, !llfi_index !1870
}

; Function Attrs: mustprogress noinline nounwind uwtable
define linkonce_odr dso_local void @_ZNSt16allocator_traitsISaISt6vectorIiSaIiEEEE9constructIS2_JS2_EEEvRS3_PT_DpOT0_(%"class.std::allocator"* nonnull align 1 dereferenceable(1) %0, %"class.std::vector.0"* %1, %"class.std::vector.0"* nonnull align 8 dereferenceable(24) %2) #3 comdat align 2 {
  %4 = alloca %"class.std::allocator"*, align 8, !llfi_index !1871
  %5 = alloca %"class.std::vector.0"*, align 8, !llfi_index !1872
  %6 = alloca %"class.std::vector.0"*, align 8, !llfi_index !1873
  store %"class.std::allocator"* %0, %"class.std::allocator"** %4, align 8, !llfi_index !1874
  store %"class.std::vector.0"* %1, %"class.std::vector.0"** %5, align 8, !llfi_index !1875
  store %"class.std::vector.0"* %2, %"class.std::vector.0"** %6, align 8, !llfi_index !1876
  %7 = load %"class.std::allocator"*, %"class.std::allocator"** %4, align 8, !llfi_index !1877
  %8 = bitcast %"class.std::allocator"* %7 to %"class.std::allocator"*, !llfi_index !1878
  %9 = load %"class.std::vector.0"*, %"class.std::vector.0"** %5, align 8, !llfi_index !1879
  %10 = load %"class.std::vector.0"*, %"class.std::vector.0"** %6, align 8, !llfi_index !1880
  %11 = call nonnull align 8 dereferenceable(24) %"class.std::vector.0"* @_ZSt7forwardISt6vectorIiSaIiEEEOT_RNSt16remove_referenceIS3_E4typeE(%"class.std::vector.0"* nonnull align 8 dereferenceable(24) %10) #2, !llfi_index !1881
  call void @_ZN9__gnu_cxx13new_allocatorISt6vectorIiSaIiEEE9constructIS3_JS3_EEEvPT_DpOT0_(%"class.std::allocator"* nonnull align 1 dereferenceable(1) %8, %"class.std::vector.0"* %9, %"class.std::vector.0"* nonnull align 8 dereferenceable(24) %11) #2, !llfi_index !1882
  ret void, !llfi_index !1883
}

; Function Attrs: mustprogress noinline nounwind uwtable
define linkonce_odr dso_local void @_ZNSt16allocator_traitsISaISt6vectorIiSaIiEEEE7destroyIS2_EEvRS3_PT_(%"class.std::allocator"* nonnull align 1 dereferenceable(1) %0, %"class.std::vector.0"* %1) #3 comdat align 2 {
  %3 = alloca %"class.std::allocator"*, align 8, !llfi_index !1884
  %4 = alloca %"class.std::vector.0"*, align 8, !llfi_index !1885
  store %"class.std::allocator"* %0, %"class.std::allocator"** %3, align 8, !llfi_index !1886
  store %"class.std::vector.0"* %1, %"class.std::vector.0"** %4, align 8, !llfi_index !1887
  %5 = load %"class.std::allocator"*, %"class.std::allocator"** %3, align 8, !llfi_index !1888
  %6 = bitcast %"class.std::allocator"* %5 to %"class.std::allocator"*, !llfi_index !1889
  %7 = load %"class.std::vector.0"*, %"class.std::vector.0"** %4, align 8, !llfi_index !1890
  call void @_ZN9__gnu_cxx13new_allocatorISt6vectorIiSaIiEEE7destroyIS3_EEvPT_(%"class.std::allocator"* nonnull align 1 dereferenceable(1) %6, %"class.std::vector.0"* %7) #2, !llfi_index !1891
  ret void, !llfi_index !1892
}

; Function Attrs: mustprogress noinline nounwind uwtable
define linkonce_odr dso_local void @_ZN9__gnu_cxx13new_allocatorISt6vectorIiSaIiEEE7destroyIS3_EEvPT_(%"class.std::allocator"* nonnull align 1 dereferenceable(1) %0, %"class.std::vector.0"* %1) #3 comdat align 2 {
  %3 = alloca %"class.std::allocator"*, align 8, !llfi_index !1893
  %4 = alloca %"class.std::vector.0"*, align 8, !llfi_index !1894
  store %"class.std::allocator"* %0, %"class.std::allocator"** %3, align 8, !llfi_index !1895
  store %"class.std::vector.0"* %1, %"class.std::vector.0"** %4, align 8, !llfi_index !1896
  %5 = load %"class.std::allocator"*, %"class.std::allocator"** %3, align 8, !llfi_index !1897
  %6 = load %"class.std::vector.0"*, %"class.std::vector.0"** %4, align 8, !llfi_index !1898
  call void @_ZNSt6vectorIiSaIiEED2Ev(%"class.std::vector.0"* nonnull align 8 dereferenceable(24) %6) #2, !llfi_index !1899
  ret void, !llfi_index !1900
}

; Function Attrs: mustprogress noinline nounwind uwtable
define linkonce_odr dso_local nonnull align 8 dereferenceable(24) %"class.std::vector.0"* @_ZSt7forwardISt6vectorIiSaIiEEEOT_RNSt16remove_referenceIS3_E4typeE(%"class.std::vector.0"* nonnull align 8 dereferenceable(24) %0) #3 comdat {
  %2 = alloca %"class.std::vector.0"*, align 8, !llfi_index !1901
  store %"class.std::vector.0"* %0, %"class.std::vector.0"** %2, align 8, !llfi_index !1902
  %3 = load %"class.std::vector.0"*, %"class.std::vector.0"** %2, align 8, !llfi_index !1903
  ret %"class.std::vector.0"* %3, !llfi_index !1904
}

; Function Attrs: mustprogress noinline nounwind uwtable
define linkonce_odr dso_local void @_ZN9__gnu_cxx13new_allocatorISt6vectorIiSaIiEEE9constructIS3_JS3_EEEvPT_DpOT0_(%"class.std::allocator"* nonnull align 1 dereferenceable(1) %0, %"class.std::vector.0"* %1, %"class.std::vector.0"* nonnull align 8 dereferenceable(24) %2) #3 comdat align 2 {
  %4 = alloca %"class.std::allocator"*, align 8, !llfi_index !1905
  %5 = alloca %"class.std::vector.0"*, align 8, !llfi_index !1906
  %6 = alloca %"class.std::vector.0"*, align 8, !llfi_index !1907
  store %"class.std::allocator"* %0, %"class.std::allocator"** %4, align 8, !llfi_index !1908
  store %"class.std::vector.0"* %1, %"class.std::vector.0"** %5, align 8, !llfi_index !1909
  store %"class.std::vector.0"* %2, %"class.std::vector.0"** %6, align 8, !llfi_index !1910
  %7 = load %"class.std::allocator"*, %"class.std::allocator"** %4, align 8, !llfi_index !1911
  %8 = load %"class.std::vector.0"*, %"class.std::vector.0"** %5, align 8, !llfi_index !1912
  %9 = bitcast %"class.std::vector.0"* %8 to i8*, !llfi_index !1913
  %10 = bitcast i8* %9 to %"class.std::vector.0"*, !llfi_index !1914
  %11 = load %"class.std::vector.0"*, %"class.std::vector.0"** %6, align 8, !llfi_index !1915
  %12 = call nonnull align 8 dereferenceable(24) %"class.std::vector.0"* @_ZSt7forwardISt6vectorIiSaIiEEEOT_RNSt16remove_referenceIS3_E4typeE(%"class.std::vector.0"* nonnull align 8 dereferenceable(24) %11) #2, !llfi_index !1916
  call void @_ZNSt6vectorIiSaIiEEC2EOS1_(%"class.std::vector.0"* nonnull align 8 dereferenceable(24) %10, %"class.std::vector.0"* nonnull align 8 dereferenceable(24) %12) #2, !llfi_index !1917
  ret void, !llfi_index !1918
}

; Function Attrs: noinline nounwind uwtable
define linkonce_odr dso_local void @_ZNSt6vectorIiSaIiEEC2EOS1_(%"class.std::vector.0"* nonnull align 8 dereferenceable(24) %0, %"class.std::vector.0"* nonnull align 8 dereferenceable(24) %1) unnamed_addr #1 comdat align 2 {
  %3 = alloca %"class.std::vector.0"*, align 8, !llfi_index !1919
  %4 = alloca %"class.std::vector.0"*, align 8, !llfi_index !1920
  store %"class.std::vector.0"* %0, %"class.std::vector.0"** %3, align 8, !llfi_index !1921
  store %"class.std::vector.0"* %1, %"class.std::vector.0"** %4, align 8, !llfi_index !1922
  %5 = load %"class.std::vector.0"*, %"class.std::vector.0"** %3, align 8, !llfi_index !1923
  %6 = bitcast %"class.std::vector.0"* %5 to %"struct.std::_Vector_base.1"*, !llfi_index !1924
  %7 = load %"class.std::vector.0"*, %"class.std::vector.0"** %4, align 8, !llfi_index !1925
  %8 = bitcast %"class.std::vector.0"* %7 to %"struct.std::_Vector_base.1"*, !llfi_index !1926
  call void @_ZNSt12_Vector_baseIiSaIiEEC2EOS1_(%"struct.std::_Vector_base.1"* nonnull align 8 dereferenceable(24) %6, %"struct.std::_Vector_base.1"* nonnull align 8 dereferenceable(24) %8) #2, !llfi_index !1927
  ret void, !llfi_index !1928
}

; Function Attrs: noinline nounwind uwtable
define linkonce_odr dso_local void @_ZNSt12_Vector_baseIiSaIiEEC2EOS1_(%"struct.std::_Vector_base.1"* nonnull align 8 dereferenceable(24) %0, %"struct.std::_Vector_base.1"* nonnull align 8 dereferenceable(24) %1) unnamed_addr #1 comdat align 2 {
  %3 = alloca %"struct.std::_Vector_base.1"*, align 8, !llfi_index !1929
  %4 = alloca %"struct.std::_Vector_base.1"*, align 8, !llfi_index !1930
  store %"struct.std::_Vector_base.1"* %0, %"struct.std::_Vector_base.1"** %3, align 8, !llfi_index !1931
  store %"struct.std::_Vector_base.1"* %1, %"struct.std::_Vector_base.1"** %4, align 8, !llfi_index !1932
  %5 = load %"struct.std::_Vector_base.1"*, %"struct.std::_Vector_base.1"** %3, align 8, !llfi_index !1933
  %6 = getelementptr inbounds %"struct.std::_Vector_base.1", %"struct.std::_Vector_base.1"* %5, i32 0, i32 0, !llfi_index !1934
  %7 = load %"struct.std::_Vector_base.1"*, %"struct.std::_Vector_base.1"** %4, align 8, !llfi_index !1935
  %8 = getelementptr inbounds %"struct.std::_Vector_base.1", %"struct.std::_Vector_base.1"* %7, i32 0, i32 0, !llfi_index !1936
  call void @_ZNSt12_Vector_baseIiSaIiEE12_Vector_implC2EOS2_(%"struct.std::_Vector_base<int, std::allocator<int>>::_Vector_impl"* nonnull align 8 dereferenceable(24) %6, %"struct.std::_Vector_base<int, std::allocator<int>>::_Vector_impl"* nonnull align 8 dereferenceable(24) %8) #2, !llfi_index !1937
  ret void, !llfi_index !1938
}

; Function Attrs: noinline nounwind uwtable
define linkonce_odr dso_local void @_ZNSt12_Vector_baseIiSaIiEE12_Vector_implC2EOS2_(%"struct.std::_Vector_base<int, std::allocator<int>>::_Vector_impl"* nonnull align 8 dereferenceable(24) %0, %"struct.std::_Vector_base<int, std::allocator<int>>::_Vector_impl"* nonnull align 8 dereferenceable(24) %1) unnamed_addr #1 comdat align 2 {
  %3 = alloca %"struct.std::_Vector_base<int, std::allocator<int>>::_Vector_impl"*, align 8, !llfi_index !1939
  %4 = alloca %"struct.std::_Vector_base<int, std::allocator<int>>::_Vector_impl"*, align 8, !llfi_index !1940
  store %"struct.std::_Vector_base<int, std::allocator<int>>::_Vector_impl"* %0, %"struct.std::_Vector_base<int, std::allocator<int>>::_Vector_impl"** %3, align 8, !llfi_index !1941
  store %"struct.std::_Vector_base<int, std::allocator<int>>::_Vector_impl"* %1, %"struct.std::_Vector_base<int, std::allocator<int>>::_Vector_impl"** %4, align 8, !llfi_index !1942
  %5 = load %"struct.std::_Vector_base<int, std::allocator<int>>::_Vector_impl"*, %"struct.std::_Vector_base<int, std::allocator<int>>::_Vector_impl"** %3, align 8, !llfi_index !1943
  %6 = bitcast %"struct.std::_Vector_base<int, std::allocator<int>>::_Vector_impl"* %5 to %"class.std::allocator"*, !llfi_index !1944
  %7 = load %"struct.std::_Vector_base<int, std::allocator<int>>::_Vector_impl"*, %"struct.std::_Vector_base<int, std::allocator<int>>::_Vector_impl"** %4, align 8, !llfi_index !1945
  %8 = call nonnull align 8 dereferenceable(24) %"struct.std::_Vector_base<int, std::allocator<int>>::_Vector_impl"* @_ZSt4moveIRNSt12_Vector_baseIiSaIiEE12_Vector_implEEONSt16remove_referenceIT_E4typeEOS6_(%"struct.std::_Vector_base<int, std::allocator<int>>::_Vector_impl"* nonnull align 8 dereferenceable(24) %7) #2, !llfi_index !1946
  %9 = bitcast %"struct.std::_Vector_base<int, std::allocator<int>>::_Vector_impl"* %8 to %"class.std::allocator"*, !llfi_index !1947
  call void @_ZNSaIiEC2ERKS_(%"class.std::allocator"* nonnull align 1 dereferenceable(1) %6, %"class.std::allocator"* nonnull align 1 dereferenceable(1) %9) #2, !llfi_index !1948
  %10 = bitcast %"struct.std::_Vector_base<int, std::allocator<int>>::_Vector_impl"* %5 to %"struct.std::_Vector_base<int, std::allocator<int>>::_Vector_impl_data"*, !llfi_index !1949
  %11 = load %"struct.std::_Vector_base<int, std::allocator<int>>::_Vector_impl"*, %"struct.std::_Vector_base<int, std::allocator<int>>::_Vector_impl"** %4, align 8, !llfi_index !1950
  %12 = call nonnull align 8 dereferenceable(24) %"struct.std::_Vector_base<int, std::allocator<int>>::_Vector_impl"* @_ZSt4moveIRNSt12_Vector_baseIiSaIiEE12_Vector_implEEONSt16remove_referenceIT_E4typeEOS6_(%"struct.std::_Vector_base<int, std::allocator<int>>::_Vector_impl"* nonnull align 8 dereferenceable(24) %11) #2, !llfi_index !1951
  %13 = bitcast %"struct.std::_Vector_base<int, std::allocator<int>>::_Vector_impl"* %12 to %"struct.std::_Vector_base<int, std::allocator<int>>::_Vector_impl_data"*, !llfi_index !1952
  call void @_ZNSt12_Vector_baseIiSaIiEE17_Vector_impl_dataC2EOS2_(%"struct.std::_Vector_base<int, std::allocator<int>>::_Vector_impl_data"* nonnull align 8 dereferenceable(24) %10, %"struct.std::_Vector_base<int, std::allocator<int>>::_Vector_impl_data"* nonnull align 8 dereferenceable(24) %13) #2, !llfi_index !1953
  ret void, !llfi_index !1954
}

; Function Attrs: mustprogress noinline nounwind uwtable
define linkonce_odr dso_local nonnull align 8 dereferenceable(24) %"struct.std::_Vector_base<int, std::allocator<int>>::_Vector_impl"* @_ZSt4moveIRNSt12_Vector_baseIiSaIiEE12_Vector_implEEONSt16remove_referenceIT_E4typeEOS6_(%"struct.std::_Vector_base<int, std::allocator<int>>::_Vector_impl"* nonnull align 8 dereferenceable(24) %0) #3 comdat {
  %2 = alloca %"struct.std::_Vector_base<int, std::allocator<int>>::_Vector_impl"*, align 8, !llfi_index !1955
  store %"struct.std::_Vector_base<int, std::allocator<int>>::_Vector_impl"* %0, %"struct.std::_Vector_base<int, std::allocator<int>>::_Vector_impl"** %2, align 8, !llfi_index !1956
  %3 = load %"struct.std::_Vector_base<int, std::allocator<int>>::_Vector_impl"*, %"struct.std::_Vector_base<int, std::allocator<int>>::_Vector_impl"** %2, align 8, !llfi_index !1957
  ret %"struct.std::_Vector_base<int, std::allocator<int>>::_Vector_impl"* %3, !llfi_index !1958
}

; Function Attrs: noinline nounwind uwtable
define linkonce_odr dso_local void @_ZNSaIiEC2ERKS_(%"class.std::allocator"* nonnull align 1 dereferenceable(1) %0, %"class.std::allocator"* nonnull align 1 dereferenceable(1) %1) unnamed_addr #1 comdat align 2 {
  %3 = alloca %"class.std::allocator"*, align 8, !llfi_index !1959
  %4 = alloca %"class.std::allocator"*, align 8, !llfi_index !1960
  store %"class.std::allocator"* %0, %"class.std::allocator"** %3, align 8, !llfi_index !1961
  store %"class.std::allocator"* %1, %"class.std::allocator"** %4, align 8, !llfi_index !1962
  %5 = load %"class.std::allocator"*, %"class.std::allocator"** %3, align 8, !llfi_index !1963
  %6 = bitcast %"class.std::allocator"* %5 to %"class.std::allocator"*, !llfi_index !1964
  %7 = load %"class.std::allocator"*, %"class.std::allocator"** %4, align 8, !llfi_index !1965
  %8 = bitcast %"class.std::allocator"* %7 to %"class.std::allocator"*, !llfi_index !1966
  call void @_ZN9__gnu_cxx13new_allocatorIiEC2ERKS1_(%"class.std::allocator"* nonnull align 1 dereferenceable(1) %6, %"class.std::allocator"* nonnull align 1 dereferenceable(1) %8) #2, !llfi_index !1967
  ret void, !llfi_index !1968
}

; Function Attrs: noinline nounwind uwtable
define linkonce_odr dso_local void @_ZNSt12_Vector_baseIiSaIiEE17_Vector_impl_dataC2EOS2_(%"struct.std::_Vector_base<int, std::allocator<int>>::_Vector_impl_data"* nonnull align 8 dereferenceable(24) %0, %"struct.std::_Vector_base<int, std::allocator<int>>::_Vector_impl_data"* nonnull align 8 dereferenceable(24) %1) unnamed_addr #1 comdat align 2 {
  %3 = alloca %"struct.std::_Vector_base<int, std::allocator<int>>::_Vector_impl_data"*, align 8, !llfi_index !1969
  %4 = alloca %"struct.std::_Vector_base<int, std::allocator<int>>::_Vector_impl_data"*, align 8, !llfi_index !1970
  store %"struct.std::_Vector_base<int, std::allocator<int>>::_Vector_impl_data"* %0, %"struct.std::_Vector_base<int, std::allocator<int>>::_Vector_impl_data"** %3, align 8, !llfi_index !1971
  store %"struct.std::_Vector_base<int, std::allocator<int>>::_Vector_impl_data"* %1, %"struct.std::_Vector_base<int, std::allocator<int>>::_Vector_impl_data"** %4, align 8, !llfi_index !1972
  %5 = load %"struct.std::_Vector_base<int, std::allocator<int>>::_Vector_impl_data"*, %"struct.std::_Vector_base<int, std::allocator<int>>::_Vector_impl_data"** %3, align 8, !llfi_index !1973
  %6 = getelementptr inbounds %"struct.std::_Vector_base<int, std::allocator<int>>::_Vector_impl_data", %"struct.std::_Vector_base<int, std::allocator<int>>::_Vector_impl_data"* %5, i32 0, i32 0, !llfi_index !1974
  %7 = load %"struct.std::_Vector_base<int, std::allocator<int>>::_Vector_impl_data"*, %"struct.std::_Vector_base<int, std::allocator<int>>::_Vector_impl_data"** %4, align 8, !llfi_index !1975
  %8 = getelementptr inbounds %"struct.std::_Vector_base<int, std::allocator<int>>::_Vector_impl_data", %"struct.std::_Vector_base<int, std::allocator<int>>::_Vector_impl_data"* %7, i32 0, i32 0, !llfi_index !1976
  %9 = load i32*, i32** %8, align 8, !llfi_index !1977
  store i32* %9, i32** %6, align 8, !llfi_index !1978
  %10 = getelementptr inbounds %"struct.std::_Vector_base<int, std::allocator<int>>::_Vector_impl_data", %"struct.std::_Vector_base<int, std::allocator<int>>::_Vector_impl_data"* %5, i32 0, i32 1, !llfi_index !1979
  %11 = load %"struct.std::_Vector_base<int, std::allocator<int>>::_Vector_impl_data"*, %"struct.std::_Vector_base<int, std::allocator<int>>::_Vector_impl_data"** %4, align 8, !llfi_index !1980
  %12 = getelementptr inbounds %"struct.std::_Vector_base<int, std::allocator<int>>::_Vector_impl_data", %"struct.std::_Vector_base<int, std::allocator<int>>::_Vector_impl_data"* %11, i32 0, i32 1, !llfi_index !1981
  %13 = load i32*, i32** %12, align 8, !llfi_index !1982
  store i32* %13, i32** %10, align 8, !llfi_index !1983
  %14 = getelementptr inbounds %"struct.std::_Vector_base<int, std::allocator<int>>::_Vector_impl_data", %"struct.std::_Vector_base<int, std::allocator<int>>::_Vector_impl_data"* %5, i32 0, i32 2, !llfi_index !1984
  %15 = load %"struct.std::_Vector_base<int, std::allocator<int>>::_Vector_impl_data"*, %"struct.std::_Vector_base<int, std::allocator<int>>::_Vector_impl_data"** %4, align 8, !llfi_index !1985
  %16 = getelementptr inbounds %"struct.std::_Vector_base<int, std::allocator<int>>::_Vector_impl_data", %"struct.std::_Vector_base<int, std::allocator<int>>::_Vector_impl_data"* %15, i32 0, i32 2, !llfi_index !1986
  %17 = load i32*, i32** %16, align 8, !llfi_index !1987
  store i32* %17, i32** %14, align 8, !llfi_index !1988
  %18 = load %"struct.std::_Vector_base<int, std::allocator<int>>::_Vector_impl_data"*, %"struct.std::_Vector_base<int, std::allocator<int>>::_Vector_impl_data"** %4, align 8, !llfi_index !1989
  %19 = getelementptr inbounds %"struct.std::_Vector_base<int, std::allocator<int>>::_Vector_impl_data", %"struct.std::_Vector_base<int, std::allocator<int>>::_Vector_impl_data"* %18, i32 0, i32 2, !llfi_index !1990
  store i32* null, i32** %19, align 8, !llfi_index !1991
  %20 = load %"struct.std::_Vector_base<int, std::allocator<int>>::_Vector_impl_data"*, %"struct.std::_Vector_base<int, std::allocator<int>>::_Vector_impl_data"** %4, align 8, !llfi_index !1992
  %21 = getelementptr inbounds %"struct.std::_Vector_base<int, std::allocator<int>>::_Vector_impl_data", %"struct.std::_Vector_base<int, std::allocator<int>>::_Vector_impl_data"* %20, i32 0, i32 1, !llfi_index !1993
  store i32* null, i32** %21, align 8, !llfi_index !1994
  %22 = load %"struct.std::_Vector_base<int, std::allocator<int>>::_Vector_impl_data"*, %"struct.std::_Vector_base<int, std::allocator<int>>::_Vector_impl_data"** %4, align 8, !llfi_index !1995
  %23 = getelementptr inbounds %"struct.std::_Vector_base<int, std::allocator<int>>::_Vector_impl_data", %"struct.std::_Vector_base<int, std::allocator<int>>::_Vector_impl_data"* %22, i32 0, i32 0, !llfi_index !1996
  store i32* null, i32** %23, align 8, !llfi_index !1997
  ret void, !llfi_index !1998
}

; Function Attrs: noinline nounwind uwtable
define linkonce_odr dso_local void @_ZN9__gnu_cxx13new_allocatorIiEC2ERKS1_(%"class.std::allocator"* nonnull align 1 dereferenceable(1) %0, %"class.std::allocator"* nonnull align 1 dereferenceable(1) %1) unnamed_addr #1 comdat align 2 {
  %3 = alloca %"class.std::allocator"*, align 8, !llfi_index !1999
  %4 = alloca %"class.std::allocator"*, align 8, !llfi_index !2000
  store %"class.std::allocator"* %0, %"class.std::allocator"** %3, align 8, !llfi_index !2001
  store %"class.std::allocator"* %1, %"class.std::allocator"** %4, align 8, !llfi_index !2002
  %5 = load %"class.std::allocator"*, %"class.std::allocator"** %3, align 8, !llfi_index !2003
  ret void, !llfi_index !2004
}

; Function Attrs: mustprogress noinline nounwind uwtable
define linkonce_odr dso_local nonnull align 8 dereferenceable(8) i64* @_ZSt3maxImERKT_S2_S2_(i64* nonnull align 8 dereferenceable(8) %0, i64* nonnull align 8 dereferenceable(8) %1) #3 comdat {
  %3 = alloca i64*, align 8, !llfi_index !2005
  %4 = alloca i64*, align 8, !llfi_index !2006
  %5 = alloca i64*, align 8, !llfi_index !2007
  store i64* %0, i64** %4, align 8, !llfi_index !2008
  store i64* %1, i64** %5, align 8, !llfi_index !2009
  %6 = load i64*, i64** %4, align 8, !llfi_index !2010
  %7 = load i64, i64* %6, align 8, !llfi_index !2011
  %8 = load i64*, i64** %5, align 8, !llfi_index !2012
  %9 = load i64, i64* %8, align 8, !llfi_index !2013
  %10 = icmp ult i64 %7, %9, !llfi_index !2014
  br i1 %10, label %11, label %13, !llfi_index !2015

11:                                               ; preds = %2
  %12 = load i64*, i64** %5, align 8, !llfi_index !2016
  store i64* %12, i64** %3, align 8, !llfi_index !2017
  br label %15, !llfi_index !2018

13:                                               ; preds = %2
  %14 = load i64*, i64** %4, align 8, !llfi_index !2019
  store i64* %14, i64** %3, align 8, !llfi_index !2020
  br label %15, !llfi_index !2021

15:                                               ; preds = %13, %11
  %16 = load i64*, i64** %3, align 8, !llfi_index !2022
  ret i64* %16, !llfi_index !2023
}

; Function Attrs: mustprogress noinline nounwind uwtable
define linkonce_odr dso_local nonnull align 1 dereferenceable(1) %"class.std::allocator"* @_ZNKSt12_Vector_baseISt6vectorIiSaIiEESaIS2_EE19_M_get_Tp_allocatorEv(%"struct.std::_Vector_base"* nonnull align 8 dereferenceable(24) %0) #3 comdat align 2 {
  %2 = alloca %"struct.std::_Vector_base"*, align 8, !llfi_index !2024
  store %"struct.std::_Vector_base"* %0, %"struct.std::_Vector_base"** %2, align 8, !llfi_index !2025
  %3 = load %"struct.std::_Vector_base"*, %"struct.std::_Vector_base"** %2, align 8, !llfi_index !2026
  %4 = getelementptr inbounds %"struct.std::_Vector_base", %"struct.std::_Vector_base"* %3, i32 0, i32 0, !llfi_index !2027
  %5 = bitcast %"struct.std::_Vector_base<std::vector<int>, std::allocator<std::vector<int>>>::_Vector_impl"* %4 to %"class.std::allocator"*, !llfi_index !2028
  ret %"class.std::allocator"* %5, !llfi_index !2029
}

; Function Attrs: mustprogress noinline nounwind uwtable
define linkonce_odr dso_local nonnull align 8 dereferenceable(8) i32** @_ZNK9__gnu_cxx17__normal_iteratorIPiSt6vectorIiSaIiEEE4baseEv(%"class.__gnu_cxx::__normal_iterator"* nonnull align 8 dereferenceable(8) %0) #3 comdat align 2 {
  %2 = alloca %"class.__gnu_cxx::__normal_iterator"*, align 8, !llfi_index !2030
  store %"class.__gnu_cxx::__normal_iterator"* %0, %"class.__gnu_cxx::__normal_iterator"** %2, align 8, !llfi_index !2031
  %3 = load %"class.__gnu_cxx::__normal_iterator"*, %"class.__gnu_cxx::__normal_iterator"** %2, align 8, !llfi_index !2032
  %4 = getelementptr inbounds %"class.__gnu_cxx::__normal_iterator", %"class.__gnu_cxx::__normal_iterator"* %3, i32 0, i32 0, !llfi_index !2033
  ret i32** %4, !llfi_index !2034
}

; Function Attrs: argmemonly nofree nounwind willreturn
declare void @llvm.memcpy.p0i8.p0i8.i64(i8* noalias nocapture writeonly, i8* noalias nocapture readonly, i64, i1 immarg) #14

; Function Attrs: mustprogress noinline nounwind uwtable
define linkonce_odr dso_local void @_ZN9__gnu_cxx5__ops15__iter_less_valEv() #3 comdat {
  ret void, !llfi_index !2035
}

; Function Attrs: mustprogress noinline uwtable
define linkonce_odr dso_local i32* @_ZSt13__lower_boundIN9__gnu_cxx17__normal_iteratorIPiSt6vectorIiSaIiEEEEiNS0_5__ops14_Iter_less_valEET_S9_S9_RKT0_T1_(i32* %0, i32* %1, i32* nonnull align 4 dereferenceable(4) %2) #4 comdat {
  %4 = alloca %"class.__gnu_cxx::__normal_iterator", align 8, !llfi_index !2036
  %5 = alloca %"class.__gnu_cxx::__normal_iterator", align 8, !llfi_index !2037
  %6 = alloca %"class.__gnu_cxx::__normal_iterator", align 8, !llfi_index !2038
  %7 = alloca %"class.std::allocator", align 1, !llfi_index !2039
  %8 = alloca i32*, align 8, !llfi_index !2040
  %9 = alloca i64, align 8, !llfi_index !2041
  %10 = alloca %"class.__gnu_cxx::__normal_iterator", align 8, !llfi_index !2042
  %11 = alloca %"class.__gnu_cxx::__normal_iterator", align 8, !llfi_index !2043
  %12 = alloca i64, align 8, !llfi_index !2044
  %13 = alloca %"class.__gnu_cxx::__normal_iterator", align 8, !llfi_index !2045
  %14 = alloca %"class.__gnu_cxx::__normal_iterator", align 8, !llfi_index !2046
  %15 = getelementptr inbounds %"class.__gnu_cxx::__normal_iterator", %"class.__gnu_cxx::__normal_iterator"* %5, i32 0, i32 0, !llfi_index !2047
  store i32* %0, i32** %15, align 8, !llfi_index !2048
  %16 = getelementptr inbounds %"class.__gnu_cxx::__normal_iterator", %"class.__gnu_cxx::__normal_iterator"* %6, i32 0, i32 0, !llfi_index !2049
  store i32* %1, i32** %16, align 8, !llfi_index !2050
  store i32* %2, i32** %8, align 8, !llfi_index !2051
  %17 = bitcast %"class.__gnu_cxx::__normal_iterator"* %10 to i8*, !llfi_index !2052
  %18 = bitcast %"class.__gnu_cxx::__normal_iterator"* %5 to i8*, !llfi_index !2053
  call void @llvm.memcpy.p0i8.p0i8.i64(i8* align 8 %17, i8* align 8 %18, i64 8, i1 false), !llfi_index !2054
  %19 = bitcast %"class.__gnu_cxx::__normal_iterator"* %11 to i8*, !llfi_index !2055
  %20 = bitcast %"class.__gnu_cxx::__normal_iterator"* %6 to i8*, !llfi_index !2056
  call void @llvm.memcpy.p0i8.p0i8.i64(i8* align 8 %19, i8* align 8 %20, i64 8, i1 false), !llfi_index !2057
  %21 = getelementptr inbounds %"class.__gnu_cxx::__normal_iterator", %"class.__gnu_cxx::__normal_iterator"* %10, i32 0, i32 0, !llfi_index !2058
  %22 = load i32*, i32** %21, align 8, !llfi_index !2059
  %23 = getelementptr inbounds %"class.__gnu_cxx::__normal_iterator", %"class.__gnu_cxx::__normal_iterator"* %11, i32 0, i32 0, !llfi_index !2060
  %24 = load i32*, i32** %23, align 8, !llfi_index !2061
  %25 = call i64 @_ZSt8distanceIN9__gnu_cxx17__normal_iteratorIPiSt6vectorIiSaIiEEEEENSt15iterator_traitsIT_E15difference_typeES8_S8_(i32* %22, i32* %24), !llfi_index !2062
  store i64 %25, i64* %9, align 8, !llfi_index !2063
  br label %26, !llfi_index !2064

26:                                               ; preds = %51, %3
  %27 = load i64, i64* %9, align 8, !llfi_index !2065
  %28 = icmp sgt i64 %27, 0, !llfi_index !2066
  br i1 %28, label %29, label %52, !llfi_index !2067

29:                                               ; preds = %26
  %30 = load i64, i64* %9, align 8, !llfi_index !2068
  %31 = ashr i64 %30, 1, !llfi_index !2069
  store i64 %31, i64* %12, align 8, !llfi_index !2070
  %32 = bitcast %"class.__gnu_cxx::__normal_iterator"* %13 to i8*, !llfi_index !2071
  %33 = bitcast %"class.__gnu_cxx::__normal_iterator"* %5 to i8*, !llfi_index !2072
  call void @llvm.memcpy.p0i8.p0i8.i64(i8* align 8 %32, i8* align 8 %33, i64 8, i1 false), !llfi_index !2073
  %34 = load i64, i64* %12, align 8, !llfi_index !2074
  call void @_ZSt7advanceIN9__gnu_cxx17__normal_iteratorIPiSt6vectorIiSaIiEEEElEvRT_T0_(%"class.__gnu_cxx::__normal_iterator"* nonnull align 8 dereferenceable(8) %13, i64 %34), !llfi_index !2075
  %35 = bitcast %"class.__gnu_cxx::__normal_iterator"* %14 to i8*, !llfi_index !2076
  %36 = bitcast %"class.__gnu_cxx::__normal_iterator"* %13 to i8*, !llfi_index !2077
  call void @llvm.memcpy.p0i8.p0i8.i64(i8* align 8 %35, i8* align 8 %36, i64 8, i1 false), !llfi_index !2078
  %37 = load i32*, i32** %8, align 8, !llfi_index !2079
  %38 = getelementptr inbounds %"class.__gnu_cxx::__normal_iterator", %"class.__gnu_cxx::__normal_iterator"* %14, i32 0, i32 0, !llfi_index !2080
  %39 = load i32*, i32** %38, align 8, !llfi_index !2081
  %40 = call zeroext i1 @_ZNK9__gnu_cxx5__ops14_Iter_less_valclINS_17__normal_iteratorIPiSt6vectorIiSaIiEEEEKiEEbT_RT0_(%"class.std::allocator"* nonnull align 1 dereferenceable(1) %7, i32* %39, i32* nonnull align 4 dereferenceable(4) %37), !llfi_index !2082
  br i1 %40, label %41, label %49, !llfi_index !2083

41:                                               ; preds = %29
  %42 = bitcast %"class.__gnu_cxx::__normal_iterator"* %5 to i8*, !llfi_index !2084
  %43 = bitcast %"class.__gnu_cxx::__normal_iterator"* %13 to i8*, !llfi_index !2085
  call void @llvm.memcpy.p0i8.p0i8.i64(i8* align 8 %42, i8* align 8 %43, i64 8, i1 false), !llfi_index !2086
  %44 = call nonnull align 8 dereferenceable(8) %"class.__gnu_cxx::__normal_iterator"* @_ZN9__gnu_cxx17__normal_iteratorIPiSt6vectorIiSaIiEEEppEv(%"class.__gnu_cxx::__normal_iterator"* nonnull align 8 dereferenceable(8) %5) #2, !llfi_index !2087
  %45 = load i64, i64* %9, align 8, !llfi_index !2088
  %46 = load i64, i64* %12, align 8, !llfi_index !2089
  %47 = sub nsw i64 %45, %46, !llfi_index !2090
  %48 = sub nsw i64 %47, 1, !llfi_index !2091
  store i64 %48, i64* %9, align 8, !llfi_index !2092
  br label %51, !llfi_index !2093

49:                                               ; preds = %29
  %50 = load i64, i64* %12, align 8, !llfi_index !2094
  store i64 %50, i64* %9, align 8, !llfi_index !2095
  br label %51, !llfi_index !2096

51:                                               ; preds = %49, %41
  br label %26, !llvm.loop !2097, !llfi_index !2098

52:                                               ; preds = %26
  %53 = bitcast %"class.__gnu_cxx::__normal_iterator"* %4 to i8*, !llfi_index !2099
  %54 = bitcast %"class.__gnu_cxx::__normal_iterator"* %5 to i8*, !llfi_index !2100
  call void @llvm.memcpy.p0i8.p0i8.i64(i8* align 8 %53, i8* align 8 %54, i64 8, i1 false), !llfi_index !2101
  %55 = getelementptr inbounds %"class.__gnu_cxx::__normal_iterator", %"class.__gnu_cxx::__normal_iterator"* %4, i32 0, i32 0, !llfi_index !2102
  %56 = load i32*, i32** %55, align 8, !llfi_index !2103
  ret i32* %56, !llfi_index !2104
}

; Function Attrs: mustprogress noinline uwtable
define linkonce_odr dso_local i64 @_ZSt8distanceIN9__gnu_cxx17__normal_iteratorIPiSt6vectorIiSaIiEEEEENSt15iterator_traitsIT_E15difference_typeES8_S8_(i32* %0, i32* %1) #4 comdat {
  %3 = alloca %"class.__gnu_cxx::__normal_iterator", align 8, !llfi_index !2105
  %4 = alloca %"class.__gnu_cxx::__normal_iterator", align 8, !llfi_index !2106
  %5 = alloca %"class.__gnu_cxx::__normal_iterator", align 8, !llfi_index !2107
  %6 = alloca %"class.__gnu_cxx::__normal_iterator", align 8, !llfi_index !2108
  %7 = alloca %"class.std::allocator", align 1, !llfi_index !2109
  %8 = alloca %"class.std::allocator", align 1, !llfi_index !2110
  %9 = getelementptr inbounds %"class.__gnu_cxx::__normal_iterator", %"class.__gnu_cxx::__normal_iterator"* %3, i32 0, i32 0, !llfi_index !2111
  store i32* %0, i32** %9, align 8, !llfi_index !2112
  %10 = getelementptr inbounds %"class.__gnu_cxx::__normal_iterator", %"class.__gnu_cxx::__normal_iterator"* %4, i32 0, i32 0, !llfi_index !2113
  store i32* %1, i32** %10, align 8, !llfi_index !2114
  %11 = bitcast %"class.__gnu_cxx::__normal_iterator"* %5 to i8*, !llfi_index !2115
  %12 = bitcast %"class.__gnu_cxx::__normal_iterator"* %3 to i8*, !llfi_index !2116
  call void @llvm.memcpy.p0i8.p0i8.i64(i8* align 8 %11, i8* align 8 %12, i64 8, i1 false), !llfi_index !2117
  %13 = bitcast %"class.__gnu_cxx::__normal_iterator"* %6 to i8*, !llfi_index !2118
  %14 = bitcast %"class.__gnu_cxx::__normal_iterator"* %4 to i8*, !llfi_index !2119
  call void @llvm.memcpy.p0i8.p0i8.i64(i8* align 8 %13, i8* align 8 %14, i64 8, i1 false), !llfi_index !2120
  call void @_ZSt19__iterator_categoryIN9__gnu_cxx17__normal_iteratorIPiSt6vectorIiSaIiEEEEENSt15iterator_traitsIT_E17iterator_categoryERKS8_(%"class.__gnu_cxx::__normal_iterator"* nonnull align 8 dereferenceable(8) %3), !llfi_index !2121
  %15 = getelementptr inbounds %"class.__gnu_cxx::__normal_iterator", %"class.__gnu_cxx::__normal_iterator"* %5, i32 0, i32 0, !llfi_index !2122
  %16 = load i32*, i32** %15, align 8, !llfi_index !2123
  %17 = getelementptr inbounds %"class.__gnu_cxx::__normal_iterator", %"class.__gnu_cxx::__normal_iterator"* %6, i32 0, i32 0, !llfi_index !2124
  %18 = load i32*, i32** %17, align 8, !llfi_index !2125
  %19 = call i64 @_ZSt10__distanceIN9__gnu_cxx17__normal_iteratorIPiSt6vectorIiSaIiEEEEENSt15iterator_traitsIT_E15difference_typeES8_S8_St26random_access_iterator_tag(i32* %16, i32* %18), !llfi_index !2126
  ret i64 %19, !llfi_index !2127
}

; Function Attrs: mustprogress noinline uwtable
define linkonce_odr dso_local void @_ZSt7advanceIN9__gnu_cxx17__normal_iteratorIPiSt6vectorIiSaIiEEEElEvRT_T0_(%"class.__gnu_cxx::__normal_iterator"* nonnull align 8 dereferenceable(8) %0, i64 %1) #4 comdat {
  %3 = alloca %"class.__gnu_cxx::__normal_iterator"*, align 8, !llfi_index !2128
  %4 = alloca i64, align 8, !llfi_index !2129
  %5 = alloca i64, align 8, !llfi_index !2130
  %6 = alloca %"class.std::allocator", align 1, !llfi_index !2131
  %7 = alloca %"class.std::allocator", align 1, !llfi_index !2132
  store %"class.__gnu_cxx::__normal_iterator"* %0, %"class.__gnu_cxx::__normal_iterator"** %3, align 8, !llfi_index !2133
  store i64 %1, i64* %4, align 8, !llfi_index !2134
  %8 = load i64, i64* %4, align 8, !llfi_index !2135
  store i64 %8, i64* %5, align 8, !llfi_index !2136
  %9 = load %"class.__gnu_cxx::__normal_iterator"*, %"class.__gnu_cxx::__normal_iterator"** %3, align 8, !llfi_index !2137
  %10 = load i64, i64* %5, align 8, !llfi_index !2138
  %11 = load %"class.__gnu_cxx::__normal_iterator"*, %"class.__gnu_cxx::__normal_iterator"** %3, align 8, !llfi_index !2139
  call void @_ZSt19__iterator_categoryIN9__gnu_cxx17__normal_iteratorIPiSt6vectorIiSaIiEEEEENSt15iterator_traitsIT_E17iterator_categoryERKS8_(%"class.__gnu_cxx::__normal_iterator"* nonnull align 8 dereferenceable(8) %11), !llfi_index !2140
  call void @_ZSt9__advanceIN9__gnu_cxx17__normal_iteratorIPiSt6vectorIiSaIiEEEElEvRT_T0_St26random_access_iterator_tag(%"class.__gnu_cxx::__normal_iterator"* nonnull align 8 dereferenceable(8) %9, i64 %10), !llfi_index !2141
  ret void, !llfi_index !2142
}

; Function Attrs: mustprogress noinline nounwind uwtable
define linkonce_odr dso_local zeroext i1 @_ZNK9__gnu_cxx5__ops14_Iter_less_valclINS_17__normal_iteratorIPiSt6vectorIiSaIiEEEEKiEEbT_RT0_(%"class.std::allocator"* nonnull align 1 dereferenceable(1) %0, i32* %1, i32* nonnull align 4 dereferenceable(4) %2) #3 comdat align 2 {
  %4 = alloca %"class.__gnu_cxx::__normal_iterator", align 8, !llfi_index !2143
  %5 = alloca %"class.std::allocator"*, align 8, !llfi_index !2144
  %6 = alloca i32*, align 8, !llfi_index !2145
  %7 = getelementptr inbounds %"class.__gnu_cxx::__normal_iterator", %"class.__gnu_cxx::__normal_iterator"* %4, i32 0, i32 0, !llfi_index !2146
  store i32* %1, i32** %7, align 8, !llfi_index !2147
  store %"class.std::allocator"* %0, %"class.std::allocator"** %5, align 8, !llfi_index !2148
  store i32* %2, i32** %6, align 8, !llfi_index !2149
  %8 = load %"class.std::allocator"*, %"class.std::allocator"** %5, align 8, !llfi_index !2150
  %9 = call nonnull align 4 dereferenceable(4) i32* @_ZNK9__gnu_cxx17__normal_iteratorIPiSt6vectorIiSaIiEEEdeEv(%"class.__gnu_cxx::__normal_iterator"* nonnull align 8 dereferenceable(8) %4) #2, !llfi_index !2151
  %10 = load i32, i32* %9, align 4, !llfi_index !2152
  %11 = load i32*, i32** %6, align 8, !llfi_index !2153
  %12 = load i32, i32* %11, align 4, !llfi_index !2154
  %13 = icmp slt i32 %10, %12, !llfi_index !2155
  ret i1 %13, !llfi_index !2156
}

; Function Attrs: mustprogress noinline nounwind uwtable
define linkonce_odr dso_local void @_ZSt19__iterator_categoryIN9__gnu_cxx17__normal_iteratorIPiSt6vectorIiSaIiEEEEENSt15iterator_traitsIT_E17iterator_categoryERKS8_(%"class.__gnu_cxx::__normal_iterator"* nonnull align 8 dereferenceable(8) %0) #3 comdat {
  %2 = alloca %"class.__gnu_cxx::__normal_iterator"*, align 8, !llfi_index !2157
  store %"class.__gnu_cxx::__normal_iterator"* %0, %"class.__gnu_cxx::__normal_iterator"** %2, align 8, !llfi_index !2158
  ret void, !llfi_index !2159
}

; Function Attrs: mustprogress noinline nounwind uwtable
define linkonce_odr dso_local void @_ZSt9__advanceIN9__gnu_cxx17__normal_iteratorIPiSt6vectorIiSaIiEEEElEvRT_T0_St26random_access_iterator_tag(%"class.__gnu_cxx::__normal_iterator"* nonnull align 8 dereferenceable(8) %0, i64 %1) #3 comdat {
  %3 = alloca %"class.std::allocator", align 1, !llfi_index !2160
  %4 = alloca %"class.__gnu_cxx::__normal_iterator"*, align 8, !llfi_index !2161
  %5 = alloca i64, align 8, !llfi_index !2162
  store %"class.__gnu_cxx::__normal_iterator"* %0, %"class.__gnu_cxx::__normal_iterator"** %4, align 8, !llfi_index !2163
  store i64 %1, i64* %5, align 8, !llfi_index !2164
  %6 = load i64, i64* %5, align 8, !llfi_index !2165
  %7 = call i1 @llvm.is.constant.i64(i64 %6), !llfi_index !2166
  br i1 %7, label %8, label %14, !llfi_index !2167

8:                                                ; preds = %2
  %9 = load i64, i64* %5, align 8, !llfi_index !2168
  %10 = icmp eq i64 %9, 1, !llfi_index !2169
  br i1 %10, label %11, label %14, !llfi_index !2170

11:                                               ; preds = %8
  %12 = load %"class.__gnu_cxx::__normal_iterator"*, %"class.__gnu_cxx::__normal_iterator"** %4, align 8, !llfi_index !2171
  %13 = call nonnull align 8 dereferenceable(8) %"class.__gnu_cxx::__normal_iterator"* @_ZN9__gnu_cxx17__normal_iteratorIPiSt6vectorIiSaIiEEEppEv(%"class.__gnu_cxx::__normal_iterator"* nonnull align 8 dereferenceable(8) %12) #2, !llfi_index !2172
  br label %28, !llfi_index !2173

14:                                               ; preds = %8, %2
  %15 = load i64, i64* %5, align 8, !llfi_index !2174
  %16 = call i1 @llvm.is.constant.i64(i64 %15), !llfi_index !2175
  br i1 %16, label %17, label %23, !llfi_index !2176

17:                                               ; preds = %14
  %18 = load i64, i64* %5, align 8, !llfi_index !2177
  %19 = icmp eq i64 %18, -1, !llfi_index !2178
  br i1 %19, label %20, label %23, !llfi_index !2179

20:                                               ; preds = %17
  %21 = load %"class.__gnu_cxx::__normal_iterator"*, %"class.__gnu_cxx::__normal_iterator"** %4, align 8, !llfi_index !2180
  %22 = call nonnull align 8 dereferenceable(8) %"class.__gnu_cxx::__normal_iterator"* @_ZN9__gnu_cxx17__normal_iteratorIPiSt6vectorIiSaIiEEEmmEv(%"class.__gnu_cxx::__normal_iterator"* nonnull align 8 dereferenceable(8) %21) #2, !llfi_index !2181
  br label %27, !llfi_index !2182

23:                                               ; preds = %17, %14
  %24 = load i64, i64* %5, align 8, !llfi_index !2183
  %25 = load %"class.__gnu_cxx::__normal_iterator"*, %"class.__gnu_cxx::__normal_iterator"** %4, align 8, !llfi_index !2184
  %26 = call nonnull align 8 dereferenceable(8) %"class.__gnu_cxx::__normal_iterator"* @_ZN9__gnu_cxx17__normal_iteratorIPiSt6vectorIiSaIiEEEpLEl(%"class.__gnu_cxx::__normal_iterator"* nonnull align 8 dereferenceable(8) %25, i64 %24) #2, !llfi_index !2185
  br label %27, !llfi_index !2186

27:                                               ; preds = %23, %20
  br label %28, !llfi_index !2187

28:                                               ; preds = %27, %11
  ret void, !llfi_index !2188
}

; Function Attrs: convergent nofree nosync nounwind readnone willreturn
declare i1 @llvm.is.constant.i64(i64) #15

; Function Attrs: mustprogress noinline nounwind uwtable
define linkonce_odr dso_local nonnull align 8 dereferenceable(8) %"class.__gnu_cxx::__normal_iterator"* @_ZN9__gnu_cxx17__normal_iteratorIPiSt6vectorIiSaIiEEEmmEv(%"class.__gnu_cxx::__normal_iterator"* nonnull align 8 dereferenceable(8) %0) #3 comdat align 2 {
  %2 = alloca %"class.__gnu_cxx::__normal_iterator"*, align 8, !llfi_index !2189
  store %"class.__gnu_cxx::__normal_iterator"* %0, %"class.__gnu_cxx::__normal_iterator"** %2, align 8, !llfi_index !2190
  %3 = load %"class.__gnu_cxx::__normal_iterator"*, %"class.__gnu_cxx::__normal_iterator"** %2, align 8, !llfi_index !2191
  %4 = getelementptr inbounds %"class.__gnu_cxx::__normal_iterator", %"class.__gnu_cxx::__normal_iterator"* %3, i32 0, i32 0, !llfi_index !2192
  %5 = load i32*, i32** %4, align 8, !llfi_index !2193
  %6 = getelementptr inbounds i32, i32* %5, i32 -1, !llfi_index !2194
  store i32* %6, i32** %4, align 8, !llfi_index !2195
  ret %"class.__gnu_cxx::__normal_iterator"* %3, !llfi_index !2196
}

; Function Attrs: mustprogress noinline nounwind uwtable
define linkonce_odr dso_local nonnull align 8 dereferenceable(8) %"class.__gnu_cxx::__normal_iterator"* @_ZN9__gnu_cxx17__normal_iteratorIPiSt6vectorIiSaIiEEEpLEl(%"class.__gnu_cxx::__normal_iterator"* nonnull align 8 dereferenceable(8) %0, i64 %1) #3 comdat align 2 {
  %3 = alloca %"class.__gnu_cxx::__normal_iterator"*, align 8, !llfi_index !2197
  %4 = alloca i64, align 8, !llfi_index !2198
  store %"class.__gnu_cxx::__normal_iterator"* %0, %"class.__gnu_cxx::__normal_iterator"** %3, align 8, !llfi_index !2199
  store i64 %1, i64* %4, align 8, !llfi_index !2200
  %5 = load %"class.__gnu_cxx::__normal_iterator"*, %"class.__gnu_cxx::__normal_iterator"** %3, align 8, !llfi_index !2201
  %6 = load i64, i64* %4, align 8, !llfi_index !2202
  %7 = getelementptr inbounds %"class.__gnu_cxx::__normal_iterator", %"class.__gnu_cxx::__normal_iterator"* %5, i32 0, i32 0, !llfi_index !2203
  %8 = load i32*, i32** %7, align 8, !llfi_index !2204
  %9 = getelementptr inbounds i32, i32* %8, i64 %6, !llfi_index !2205
  store i32* %9, i32** %7, align 8, !llfi_index !2206
  ret %"class.__gnu_cxx::__normal_iterator"* %5, !llfi_index !2207
}

; Function Attrs: mustprogress noinline nounwind uwtable
define linkonce_odr dso_local i64 @_ZSt10__distanceIN9__gnu_cxx17__normal_iteratorIPiSt6vectorIiSaIiEEEEENSt15iterator_traitsIT_E15difference_typeES8_S8_St26random_access_iterator_tag(i32* %0, i32* %1) #3 comdat {
  %3 = alloca %"class.__gnu_cxx::__normal_iterator", align 8, !llfi_index !2208
  %4 = alloca %"class.__gnu_cxx::__normal_iterator", align 8, !llfi_index !2209
  %5 = alloca %"class.std::allocator", align 1, !llfi_index !2210
  %6 = getelementptr inbounds %"class.__gnu_cxx::__normal_iterator", %"class.__gnu_cxx::__normal_iterator"* %3, i32 0, i32 0, !llfi_index !2211
  store i32* %0, i32** %6, align 8, !llfi_index !2212
  %7 = getelementptr inbounds %"class.__gnu_cxx::__normal_iterator", %"class.__gnu_cxx::__normal_iterator"* %4, i32 0, i32 0, !llfi_index !2213
  store i32* %1, i32** %7, align 8, !llfi_index !2214
  %8 = call i64 @_ZN9__gnu_cxxmiIPiSt6vectorIiSaIiEEEENS_17__normal_iteratorIT_T0_E15difference_typeERKS8_SB_(%"class.__gnu_cxx::__normal_iterator"* nonnull align 8 dereferenceable(8) %4, %"class.__gnu_cxx::__normal_iterator"* nonnull align 8 dereferenceable(8) %3) #2, !llfi_index !2215
  ret i64 %8, !llfi_index !2216
}

; Function Attrs: noinline nounwind uwtable
define linkonce_odr dso_local void @_ZN9__gnu_cxx17__normal_iteratorIPiSt6vectorIiSaIiEEEC2ERKS1_(%"class.__gnu_cxx::__normal_iterator"* nonnull align 8 dereferenceable(8) %0, i32** nonnull align 8 dereferenceable(8) %1) unnamed_addr #1 comdat align 2 {
  %3 = alloca %"class.__gnu_cxx::__normal_iterator"*, align 8, !llfi_index !2217
  %4 = alloca i32**, align 8, !llfi_index !2218
  store %"class.__gnu_cxx::__normal_iterator"* %0, %"class.__gnu_cxx::__normal_iterator"** %3, align 8, !llfi_index !2219
  store i32** %1, i32*** %4, align 8, !llfi_index !2220
  %5 = load %"class.__gnu_cxx::__normal_iterator"*, %"class.__gnu_cxx::__normal_iterator"** %3, align 8, !llfi_index !2221
  %6 = getelementptr inbounds %"class.__gnu_cxx::__normal_iterator", %"class.__gnu_cxx::__normal_iterator"* %5, i32 0, i32 0, !llfi_index !2222
  %7 = load i32**, i32*** %4, align 8, !llfi_index !2223
  %8 = load i32*, i32** %7, align 8, !llfi_index !2224
  store i32* %8, i32** %6, align 8, !llfi_index !2225
  ret void, !llfi_index !2226
