; ModuleID = '/home/hjiang/Computation-Kernel-Dataset/experiments/Fault_injection_0308_parall/O0/BlackWhiteTree/BlackWhiteTree.ll'
source_filename = "llvm-link"
target datalayout = "e-m:e-p270:32:32-p271:32:32-p272:64:64-i64:64-f80:128-n8:16:32:64-S128"
target triple = "x86_64-unknown-linux-gnu"

%"class.std::allocator" = type { i8 }
%"class.std::vector" = type { %"struct.std::_Vector_base" }
%"struct.std::_Vector_base" = type { %"struct.std::_Vector_base<int, std::allocator<int>>::_Vector_impl" }
%"struct.std::_Vector_base<int, std::allocator<int>>::_Vector_impl" = type { %"struct.std::_Vector_base<int, std::allocator<int>>::_Vector_impl_data" }
%"struct.std::_Vector_base<int, std::allocator<int>>::_Vector_impl_data" = type { i32*, i32*, i32* }
%struct._IO_FILE = type { i32, i8*, i8*, i8*, i8*, i8*, i8*, i8*, i8*, i8*, i8*, i8*, %struct._IO_marker*, %struct._IO_FILE*, i32, i32, i64, i16, i8, [1 x i8], i8*, i64, %struct._IO_codecvt*, %struct._IO_wide_data*, %struct._IO_FILE*, i8*, i64, i32, [20 x i8] }
%struct._IO_marker = type opaque
%struct._IO_codecvt = type opaque
%struct._IO_wide_data = type opaque
%"class.std::basic_istream" = type { i32 (...)**, i64, %"class.std::basic_ios" }
%"class.std::basic_ios" = type { %"class.std::ios_base", %"class.std::basic_ostream"*, i8, i8, %"class.std::basic_streambuf"*, %"class.std::ctype"*, %"class.std::num_put"*, %"class.std::num_put"* }
%"class.std::ios_base" = type { i32 (...)**, i64, i64, i32, i32, i32, %"struct.std::ios_base::_Callback_list"*, %"struct.std::ios_base::_Words", [8 x %"struct.std::ios_base::_Words"], i32, %"struct.std::ios_base::_Words"*, %"class.std::locale" }
%"struct.std::ios_base::_Callback_list" = type { %"struct.std::ios_base::_Callback_list"*, void (i32, %"class.std::ios_base"*, i32)*, i32, i32 }
%"struct.std::ios_base::_Words" = type { i8*, i64 }
%"class.std::locale" = type { %"class.std::locale::_Impl"* }
%"class.std::locale::_Impl" = type { i32, %"class.std::locale::facet"**, i64, %"class.std::locale::facet"**, i8** }
%"class.std::locale::facet" = type <{ i32 (...)**, i32, [4 x i8] }>
%"class.std::basic_ostream" = type { i32 (...)**, %"class.std::basic_ios" }
%"class.std::basic_streambuf" = type { i32 (...)**, i8*, i8*, i8*, i8*, i8*, i8*, %"class.std::locale" }
%"class.std::ctype" = type <{ %"class.std::locale::facet.base", [4 x i8], %struct.__locale_struct*, i8, [7 x i8], i32*, i32*, i16*, i8, [256 x i8], [256 x i8], i8, [6 x i8] }>
%"class.std::locale::facet.base" = type <{ i32 (...)**, i32 }>
%struct.__locale_struct = type { [13 x %struct.__locale_data*], i16*, i32*, i32*, [13 x i8*] }
%struct.__locale_data = type opaque
%"class.std::num_put" = type { %"class.std::locale::facet.base", [4 x i8] }
%"class.__gnu_cxx::__normal_iterator" = type { i32* }

$_ZNSt6vectorIiSaIiEEC2Ev = comdat any

$_ZNSt6vectorIiSaIiEED2Ev = comdat any

$_ZNSt12_Vector_baseIiSaIiEE19_M_get_Tp_allocatorEv = comdat any

$_ZSt8_DestroyIPiiEvT_S1_RSaIT0_E = comdat any

$_ZNSt12_Vector_baseIiSaIiEED2Ev = comdat any

$__clang_call_terminate = comdat any

$_ZNSt12_Vector_baseIiSaIiEE13_M_deallocateEPim = comdat any

$_ZNSt12_Vector_baseIiSaIiEE12_Vector_implD2Ev = comdat any

$_ZNSaIiED2Ev = comdat any

$_ZN9__gnu_cxx13new_allocatorIiED2Ev = comdat any

$_ZNSt16allocator_traitsISaIiEE10deallocateERS0_Pim = comdat any

$_ZN9__gnu_cxx13new_allocatorIiE10deallocateEPim = comdat any

$_ZSt8_DestroyIPiEvT_S1_ = comdat any

$_ZNSt12_Destroy_auxILb1EE9__destroyIPiEEvT_S3_ = comdat any

$_ZNSt12_Vector_baseIiSaIiEEC2Ev = comdat any

$_ZNSt12_Vector_baseIiSaIiEE12_Vector_implC2Ev = comdat any

$_ZNSaIiEC2Ev = comdat any

$_ZNSt12_Vector_baseIiSaIiEE17_Vector_impl_dataC2Ev = comdat any

$_ZN9__gnu_cxx13new_allocatorIiEC2Ev = comdat any

$_ZNSt6vectorIiSaIiEE5beginEv = comdat any

$_ZNSt6vectorIiSaIiEE3endEv = comdat any

$_ZN9__gnu_cxxneIPiSt6vectorIiSaIiEEEEbRKNS_17__normal_iteratorIT_T0_EESA_ = comdat any

$_ZNK9__gnu_cxx17__normal_iteratorIPiSt6vectorIiSaIiEEEdeEv = comdat any

$_ZSt3maxIiERKT_S2_S2_ = comdat any

$_ZN9__gnu_cxx17__normal_iteratorIPiSt6vectorIiSaIiEEEppEv = comdat any

$_ZNK9__gnu_cxx17__normal_iteratorIPiSt6vectorIiSaIiEEE4baseEv = comdat any

$_ZN9__gnu_cxx17__normal_iteratorIPiSt6vectorIiSaIiEEEC2ERKS1_ = comdat any

$_ZNSt6vectorIiSaIiEE9push_backERKi = comdat any

$_ZNSt16allocator_traitsISaIiEE9constructIiJRKiEEEvRS0_PT_DpOT0_ = comdat any

$_ZNSt6vectorIiSaIiEE17_M_realloc_insertIJRKiEEEvN9__gnu_cxx17__normal_iteratorIPiS1_EEDpOT_ = comdat any

$_ZNKSt6vectorIiSaIiEE12_M_check_lenEmPKc = comdat any

$_ZN9__gnu_cxxmiIPiSt6vectorIiSaIiEEEENS_17__normal_iteratorIT_T0_E15difference_typeERKS8_SB_ = comdat any

$_ZNSt12_Vector_baseIiSaIiEE11_M_allocateEm = comdat any

$_ZSt7forwardIRKiEOT_RNSt16remove_referenceIS2_E4typeE = comdat any

$_ZNSt6vectorIiSaIiEE11_S_relocateEPiS2_S2_RS0_ = comdat any

$_ZNSt6vectorIiSaIiEE14_S_do_relocateEPiS2_S2_RS0_St17integral_constantIbLb1EE = comdat any

$_ZSt12__relocate_aIPiS0_SaIiEET0_T_S3_S2_RT1_ = comdat any

$_ZSt12__niter_baseIPiET_S1_ = comdat any

$_ZSt14__relocate_a_1IiiENSt9enable_ifIXsr3std24__is_bitwise_relocatableIT_EE5valueEPS1_E4typeES2_S2_S2_RSaIT0_E = comdat any

$_ZNSt16allocator_traitsISaIiEE8allocateERS0_m = comdat any

$_ZN9__gnu_cxx13new_allocatorIiE8allocateEmPKv = comdat any

$_ZNK9__gnu_cxx13new_allocatorIiE8max_sizeEv = comdat any

$_ZNKSt6vectorIiSaIiEE8max_sizeEv = comdat any

$_ZNKSt6vectorIiSaIiEE4sizeEv = comdat any

$_ZSt3maxImERKT_S2_S2_ = comdat any

$_ZNKSt12_Vector_baseIiSaIiEE19_M_get_Tp_allocatorEv = comdat any

$_ZNSt6vectorIiSaIiEE11_S_max_sizeERKS0_ = comdat any

$_ZNSt16allocator_traitsISaIiEE8max_sizeERKS0_ = comdat any

$_ZSt3minImERKT_S2_S2_ = comdat any

$_ZN9__gnu_cxx13new_allocatorIiE9constructIiJRKiEEEvPT_DpOT0_ = comdat any

$_ZSt4sortIN9__gnu_cxx17__normal_iteratorIPiSt6vectorIiSaIiEEEEEvT_S7_ = comdat any

$_ZNSt6vectorIiSaIiEEixEm = comdat any

$_ZN9__gnu_cxx5__ops16__iter_less_iterEv = comdat any

$_ZSt6__sortIN9__gnu_cxx17__normal_iteratorIPiSt6vectorIiSaIiEEEENS0_5__ops15_Iter_less_iterEEvT_S9_T0_ = comdat any

$_ZSt4__lgl = comdat any

$_ZSt16__introsort_loopIN9__gnu_cxx17__normal_iteratorIPiSt6vectorIiSaIiEEEElNS0_5__ops15_Iter_less_iterEEvT_S9_T0_T1_ = comdat any

$_ZSt22__final_insertion_sortIN9__gnu_cxx17__normal_iteratorIPiSt6vectorIiSaIiEEEENS0_5__ops15_Iter_less_iterEEvT_S9_T0_ = comdat any

$_ZNK9__gnu_cxx17__normal_iteratorIPiSt6vectorIiSaIiEEEplEl = comdat any

$_ZSt16__insertion_sortIN9__gnu_cxx17__normal_iteratorIPiSt6vectorIiSaIiEEEENS0_5__ops15_Iter_less_iterEEvT_S9_T0_ = comdat any

$_ZSt26__unguarded_insertion_sortIN9__gnu_cxx17__normal_iteratorIPiSt6vectorIiSaIiEEEENS0_5__ops15_Iter_less_iterEEvT_S9_T0_ = comdat any

$_ZN9__gnu_cxx5__ops15__val_comp_iterENS0_15_Iter_less_iterE = comdat any

$_ZSt25__unguarded_linear_insertIN9__gnu_cxx17__normal_iteratorIPiSt6vectorIiSaIiEEEENS0_5__ops14_Val_less_iterEEvT_T0_ = comdat any

$_ZSt4moveIRiEONSt16remove_referenceIT_E4typeEOS2_ = comdat any

$_ZN9__gnu_cxx17__normal_iteratorIPiSt6vectorIiSaIiEEEmmEv = comdat any

$_ZNK9__gnu_cxx5__ops14_Val_less_iterclIiNS_17__normal_iteratorIPiSt6vectorIiSaIiEEEEEEbRT_T0_ = comdat any

$_ZN9__gnu_cxxeqIPiSt6vectorIiSaIiEEEEbRKNS_17__normal_iteratorIT_T0_EESA_ = comdat any

$_ZNK9__gnu_cxx5__ops15_Iter_less_iterclINS_17__normal_iteratorIPiSt6vectorIiSaIiEEEES8_EEbT_T0_ = comdat any

$_ZSt13move_backwardIN9__gnu_cxx17__normal_iteratorIPiSt6vectorIiSaIiEEEES6_ET0_T_S8_S7_ = comdat any

$_ZSt12__miter_baseIN9__gnu_cxx17__normal_iteratorIPiSt6vectorIiSaIiEEEEET_S7_ = comdat any

$_ZSt23__copy_move_backward_a2ILb1EN9__gnu_cxx17__normal_iteratorIPiSt6vectorIiSaIiEEEES6_ET1_T0_S8_S7_ = comdat any

$_ZSt12__niter_baseIPiSt6vectorIiSaIiEEET_N9__gnu_cxx17__normal_iteratorIS4_T0_EE = comdat any

$_ZSt22__copy_move_backward_aILb1EPiS0_ET1_T0_S2_S1_ = comdat any

$_ZSt12__niter_wrapIN9__gnu_cxx17__normal_iteratorIPiSt6vectorIiSaIiEEEES2_ET_S7_T0_ = comdat any

$_ZNSt20__copy_move_backwardILb1ELb1ESt26random_access_iterator_tagE13__copy_move_bIiEEPT_PKS3_S6_S4_ = comdat any

$_ZSt14__partial_sortIN9__gnu_cxx17__normal_iteratorIPiSt6vectorIiSaIiEEEENS0_5__ops15_Iter_less_iterEEvT_S9_S9_T0_ = comdat any

$_ZSt27__unguarded_partition_pivotIN9__gnu_cxx17__normal_iteratorIPiSt6vectorIiSaIiEEEENS0_5__ops15_Iter_less_iterEET_S9_S9_T0_ = comdat any

$_ZNK9__gnu_cxx17__normal_iteratorIPiSt6vectorIiSaIiEEEmiEl = comdat any

$_ZSt22__move_median_to_firstIN9__gnu_cxx17__normal_iteratorIPiSt6vectorIiSaIiEEEENS0_5__ops15_Iter_less_iterEEvT_S9_S9_S9_T0_ = comdat any

$_ZSt21__unguarded_partitionIN9__gnu_cxx17__normal_iteratorIPiSt6vectorIiSaIiEEEENS0_5__ops15_Iter_less_iterEET_S9_S9_S9_T0_ = comdat any

$_ZN9__gnu_cxxltIPiSt6vectorIiSaIiEEEEbRKNS_17__normal_iteratorIT_T0_EESA_ = comdat any

$_ZSt9iter_swapIN9__gnu_cxx17__normal_iteratorIPiSt6vectorIiSaIiEEEES6_EvT_T0_ = comdat any

$_ZSt4swapIiENSt9enable_ifIXsr6__and_ISt6__not_ISt15__is_tuple_likeIT_EESt21is_move_constructibleIS3_ESt18is_move_assignableIS3_EEE5valueEvE4typeERS3_SC_ = comdat any

$_ZSt13__heap_selectIN9__gnu_cxx17__normal_iteratorIPiSt6vectorIiSaIiEEEENS0_5__ops15_Iter_less_iterEEvT_S9_S9_T0_ = comdat any

$_ZSt11__sort_heapIN9__gnu_cxx17__normal_iteratorIPiSt6vectorIiSaIiEEEENS0_5__ops15_Iter_less_iterEEvT_S9_RT0_ = comdat any

$_ZSt10__pop_heapIN9__gnu_cxx17__normal_iteratorIPiSt6vectorIiSaIiEEEENS0_5__ops15_Iter_less_iterEEvT_S9_S9_RT0_ = comdat any

$_ZSt13__adjust_heapIN9__gnu_cxx17__normal_iteratorIPiSt6vectorIiSaIiEEEEliNS0_5__ops15_Iter_less_iterEEvT_T0_SA_T1_T2_ = comdat any

$_ZSt4moveIRN9__gnu_cxx5__ops15_Iter_less_iterEEONSt16remove_referenceIT_E4typeEOS5_ = comdat any

$_ZN9__gnu_cxx5__ops14_Iter_less_valC2ENS0_15_Iter_less_iterE = comdat any

$_ZSt11__push_heapIN9__gnu_cxx17__normal_iteratorIPiSt6vectorIiSaIiEEEEliNS0_5__ops14_Iter_less_valEEvT_T0_SA_T1_RT2_ = comdat any

$_ZNK9__gnu_cxx5__ops14_Iter_less_valclINS_17__normal_iteratorIPiSt6vectorIiSaIiEEEEiEEbT_RT0_ = comdat any

$_ZSt11__make_heapIN9__gnu_cxx17__normal_iteratorIPiSt6vectorIiSaIiEEEENS0_5__ops15_Iter_less_iterEEvT_S9_RT0_ = comdat any

@llvm.global_ctors = appending global [1 x { i32, void ()*, i8* }] [{ i32, void ()*, i8* } { i32 65535, void ()* @_GLOBAL__sub_I_BlackWhiteTree.cpp, i8* null }]
@_ZStL8__ioinit = internal global %"class.std::allocator" zeroinitializer, align 1
@color = dso_local global [100005 x i32] zeroinitializer, align 16
@graph = dso_local global [100005 x %"class.std::vector"] zeroinitializer, align 16
@dp1 = dso_local global [100005 x i32] zeroinitializer, align 16
@dp2 = dso_local global [100005 x i32] zeroinitializer, align 16
@ans1 = dso_local global i32 -200010, align 4
@where1 = dso_local global i32 0, align 4
@ans2 = dso_local global i32 -200010, align 4
@where2 = dso_local global i32 0, align 4
@f = dso_local global [100005 x i32] zeroinitializer, align 16
@sol = dso_local global %"class.std::vector" zeroinitializer, align 8
@.str = private unnamed_addr constant [30 x i8] c"../input_files/BlackWhiteTree\00", align 1
@.str.3 = private unnamed_addr constant [2 x i8] c"r\00", align 1
@stdin = external dso_local global %struct._IO_FILE*, align 8
@_ZSt3cin = external dso_local global %"class.std::basic_istream", align 8
@_ZSt4cout = external dso_local global %"class.std::basic_ostream", align 8
@.str.4 = private unnamed_addr constant [3 x i8] c" \0A\00", align 1
@.str.5 = private unnamed_addr constant [26 x i8] c"vector::_M_realloc_insert\00", align 1

; Function Attrs: noinline uwtable
define internal void @_GLOBAL__sub_I_BlackWhiteTree.cpp() #0 section ".text.startup" {
  call void @__cxx_global_var_init(), !llfi_index !4
  call void @__cxx_global_var_init.1(), !llfi_index !5
  call void @__cxx_global_var_init.2(), !llfi_index !6
  ret void, !llfi_index !7
}

; Function Attrs: noinline uwtable
define internal void @__cxx_global_var_init() #0 section ".text.startup" {
  call void @_ZNSt8ios_base4InitC1Ev(%"class.std::allocator"* nonnull align 1 dereferenceable(1) @_ZStL8__ioinit), !llfi_index !8
  %1 = call i32 @atexit(void ()* @__dtor__ZStL8__ioinit) #2, !llfi_index !9
  ret void, !llfi_index !10
}

; Function Attrs: noinline uwtable
define internal void @__cxx_global_var_init.1() #0 section ".text.startup" {
  br label %1, !llfi_index !11

1:                                                ; preds = %1, %0
  %2 = phi %"class.std::vector"* [ getelementptr inbounds ([100005 x %"class.std::vector"], [100005 x %"class.std::vector"]* @graph, i32 0, i32 0), %0 ], [ %3, %1 ], !llfi_index !12
  call void @_ZNSt6vectorIiSaIiEEC2Ev(%"class.std::vector"* nonnull align 8 dereferenceable(24) %2) #2, !llfi_index !13
  %3 = getelementptr inbounds %"class.std::vector", %"class.std::vector"* %2, i64 1, !llfi_index !14
  %4 = icmp eq %"class.std::vector"* %3, getelementptr inbounds (%"class.std::vector", %"class.std::vector"* getelementptr inbounds ([100005 x %"class.std::vector"], [100005 x %"class.std::vector"]* @graph, i32 0, i32 0), i64 100005), !llfi_index !15
  br i1 %4, label %5, label %1, !llfi_index !16

5:                                                ; preds = %1
  %6 = call i32 @atexit(void ()* @__dtor_graph) #2, !llfi_index !17
  ret void, !llfi_index !18
}

; Function Attrs: noinline uwtable
define internal void @__cxx_global_var_init.2() #0 section ".text.startup" {
  call void @_ZNSt6vectorIiSaIiEEC2Ev(%"class.std::vector"* nonnull align 8 dereferenceable(24) @sol) #2, !llfi_index !19
  %1 = call i32 @atexit(void ()* @__dtor_sol) #2, !llfi_index !20
  ret void, !llfi_index !21
}

; Function Attrs: noinline nounwind uwtable
define linkonce_odr dso_local void @_ZNSt6vectorIiSaIiEEC2Ev(%"class.std::vector"* nonnull align 8 dereferenceable(24) %0) unnamed_addr #1 comdat align 2 {
  %2 = alloca %"class.std::vector"*, align 8, !llfi_index !22
  store %"class.std::vector"* %0, %"class.std::vector"** %2, align 8, !llfi_index !23
  %3 = load %"class.std::vector"*, %"class.std::vector"** %2, align 8, !llfi_index !24
  %4 = bitcast %"class.std::vector"* %3 to %"struct.std::_Vector_base"*, !llfi_index !25
  call void @_ZNSt12_Vector_baseIiSaIiEEC2Ev(%"struct.std::_Vector_base"* nonnull align 8 dereferenceable(24) %4) #2, !llfi_index !26
  ret void, !llfi_index !27
}

; Function Attrs: noinline uwtable
define internal void @__dtor_sol() #0 section ".text.startup" {
  call void @_ZNSt6vectorIiSaIiEED2Ev(%"class.std::vector"* @sol), !llfi_index !28
  ret void, !llfi_index !29
}

; Function Attrs: nounwind
declare dso_local i32 @atexit(void ()*) #2

; Function Attrs: noinline nounwind uwtable
define linkonce_odr dso_local void @_ZNSt6vectorIiSaIiEED2Ev(%"class.std::vector"* nonnull align 8 dereferenceable(24) %0) unnamed_addr #1 comdat align 2 personality i8* bitcast (i32 (...)* @__gxx_personality_v0 to i8*) {
  %2 = alloca %"class.std::vector"*, align 8, !llfi_index !30
  %3 = alloca i8*, align 8, !llfi_index !31
  %4 = alloca i32, align 4, !llfi_index !32
  store %"class.std::vector"* %0, %"class.std::vector"** %2, align 8, !llfi_index !33
  %5 = load %"class.std::vector"*, %"class.std::vector"** %2, align 8, !llfi_index !34
  %6 = bitcast %"class.std::vector"* %5 to %"struct.std::_Vector_base"*, !llfi_index !35
  %7 = getelementptr inbounds %"struct.std::_Vector_base", %"struct.std::_Vector_base"* %6, i32 0, i32 0, !llfi_index !36
  %8 = bitcast %"struct.std::_Vector_base<int, std::allocator<int>>::_Vector_impl"* %7 to %"struct.std::_Vector_base<int, std::allocator<int>>::_Vector_impl_data"*, !llfi_index !37
  %9 = getelementptr inbounds %"struct.std::_Vector_base<int, std::allocator<int>>::_Vector_impl_data", %"struct.std::_Vector_base<int, std::allocator<int>>::_Vector_impl_data"* %8, i32 0, i32 0, !llfi_index !38
  %10 = load i32*, i32** %9, align 8, !llfi_index !39
  %11 = bitcast %"class.std::vector"* %5 to %"struct.std::_Vector_base"*, !llfi_index !40
  %12 = getelementptr inbounds %"struct.std::_Vector_base", %"struct.std::_Vector_base"* %11, i32 0, i32 0, !llfi_index !41
  %13 = bitcast %"struct.std::_Vector_base<int, std::allocator<int>>::_Vector_impl"* %12 to %"struct.std::_Vector_base<int, std::allocator<int>>::_Vector_impl_data"*, !llfi_index !42
  %14 = getelementptr inbounds %"struct.std::_Vector_base<int, std::allocator<int>>::_Vector_impl_data", %"struct.std::_Vector_base<int, std::allocator<int>>::_Vector_impl_data"* %13, i32 0, i32 1, !llfi_index !43
  %15 = load i32*, i32** %14, align 8, !llfi_index !44
  %16 = bitcast %"class.std::vector"* %5 to %"struct.std::_Vector_base"*, !llfi_index !45
  %17 = call nonnull align 1 dereferenceable(1) %"class.std::allocator"* @_ZNSt12_Vector_baseIiSaIiEE19_M_get_Tp_allocatorEv(%"struct.std::_Vector_base"* nonnull align 8 dereferenceable(24) %16) #2, !llfi_index !46
  invoke void @_ZSt8_DestroyIPiiEvT_S1_RSaIT0_E(i32* %10, i32* %15, %"class.std::allocator"* nonnull align 1 dereferenceable(1) %17)
          to label %18 unwind label %20, !llfi_index !47

18:                                               ; preds = %1
  %19 = bitcast %"class.std::vector"* %5 to %"struct.std::_Vector_base"*, !llfi_index !48
  call void @_ZNSt12_Vector_baseIiSaIiEED2Ev(%"struct.std::_Vector_base"* nonnull align 8 dereferenceable(24) %19) #2, !llfi_index !49
  ret void, !llfi_index !50

20:                                               ; preds = %1
  %21 = landingpad { i8*, i32 }
          catch i8* null, !llfi_index !51
  %22 = extractvalue { i8*, i32 } %21, 0, !llfi_index !52
  store i8* %22, i8** %3, align 8, !llfi_index !53
  %23 = extractvalue { i8*, i32 } %21, 1, !llfi_index !54
  store i32 %23, i32* %4, align 4, !llfi_index !55
  %24 = bitcast %"class.std::vector"* %5 to %"struct.std::_Vector_base"*, !llfi_index !56
  call void @_ZNSt12_Vector_baseIiSaIiEED2Ev(%"struct.std::_Vector_base"* nonnull align 8 dereferenceable(24) %24) #2, !llfi_index !57
  br label %25, !llfi_index !58

25:                                               ; preds = %20
  %26 = load i8*, i8** %3, align 8, !llfi_index !59
  call void @__clang_call_terminate(i8* %26) #14, !llfi_index !60
  unreachable, !llfi_index !61
}

declare dso_local i32 @__gxx_personality_v0(...)

; Function Attrs: mustprogress noinline nounwind uwtable
define linkonce_odr dso_local nonnull align 1 dereferenceable(1) %"class.std::allocator"* @_ZNSt12_Vector_baseIiSaIiEE19_M_get_Tp_allocatorEv(%"struct.std::_Vector_base"* nonnull align 8 dereferenceable(24) %0) #3 comdat align 2 {
  %2 = alloca %"struct.std::_Vector_base"*, align 8, !llfi_index !62
  store %"struct.std::_Vector_base"* %0, %"struct.std::_Vector_base"** %2, align 8, !llfi_index !63
  %3 = load %"struct.std::_Vector_base"*, %"struct.std::_Vector_base"** %2, align 8, !llfi_index !64
  %4 = getelementptr inbounds %"struct.std::_Vector_base", %"struct.std::_Vector_base"* %3, i32 0, i32 0, !llfi_index !65
  %5 = bitcast %"struct.std::_Vector_base<int, std::allocator<int>>::_Vector_impl"* %4 to %"class.std::allocator"*, !llfi_index !66
  ret %"class.std::allocator"* %5, !llfi_index !67
}

; Function Attrs: mustprogress noinline uwtable
define linkonce_odr dso_local void @_ZSt8_DestroyIPiiEvT_S1_RSaIT0_E(i32* %0, i32* %1, %"class.std::allocator"* nonnull align 1 dereferenceable(1) %2) #4 comdat {
  %4 = alloca i32*, align 8, !llfi_index !68
  %5 = alloca i32*, align 8, !llfi_index !69
  %6 = alloca %"class.std::allocator"*, align 8, !llfi_index !70
  store i32* %0, i32** %4, align 8, !llfi_index !71
  store i32* %1, i32** %5, align 8, !llfi_index !72
  store %"class.std::allocator"* %2, %"class.std::allocator"** %6, align 8, !llfi_index !73
  %7 = load i32*, i32** %4, align 8, !llfi_index !74
  %8 = load i32*, i32** %5, align 8, !llfi_index !75
  call void @_ZSt8_DestroyIPiEvT_S1_(i32* %7, i32* %8), !llfi_index !76
  ret void, !llfi_index !77
}

; Function Attrs: noinline nounwind uwtable
define linkonce_odr dso_local void @_ZNSt12_Vector_baseIiSaIiEED2Ev(%"struct.std::_Vector_base"* nonnull align 8 dereferenceable(24) %0) unnamed_addr #1 comdat align 2 personality i8* bitcast (i32 (...)* @__gxx_personality_v0 to i8*) {
  %2 = alloca %"struct.std::_Vector_base"*, align 8, !llfi_index !78
  %3 = alloca i8*, align 8, !llfi_index !79
  %4 = alloca i32, align 4, !llfi_index !80
  store %"struct.std::_Vector_base"* %0, %"struct.std::_Vector_base"** %2, align 8, !llfi_index !81
  %5 = load %"struct.std::_Vector_base"*, %"struct.std::_Vector_base"** %2, align 8, !llfi_index !82
  %6 = getelementptr inbounds %"struct.std::_Vector_base", %"struct.std::_Vector_base"* %5, i32 0, i32 0, !llfi_index !83
  %7 = bitcast %"struct.std::_Vector_base<int, std::allocator<int>>::_Vector_impl"* %6 to %"struct.std::_Vector_base<int, std::allocator<int>>::_Vector_impl_data"*, !llfi_index !84
  %8 = getelementptr inbounds %"struct.std::_Vector_base<int, std::allocator<int>>::_Vector_impl_data", %"struct.std::_Vector_base<int, std::allocator<int>>::_Vector_impl_data"* %7, i32 0, i32 0, !llfi_index !85
  %9 = load i32*, i32** %8, align 8, !llfi_index !86
  %10 = getelementptr inbounds %"struct.std::_Vector_base", %"struct.std::_Vector_base"* %5, i32 0, i32 0, !llfi_index !87
  %11 = bitcast %"struct.std::_Vector_base<int, std::allocator<int>>::_Vector_impl"* %10 to %"struct.std::_Vector_base<int, std::allocator<int>>::_Vector_impl_data"*, !llfi_index !88
  %12 = getelementptr inbounds %"struct.std::_Vector_base<int, std::allocator<int>>::_Vector_impl_data", %"struct.std::_Vector_base<int, std::allocator<int>>::_Vector_impl_data"* %11, i32 0, i32 2, !llfi_index !89
  %13 = load i32*, i32** %12, align 8, !llfi_index !90
  %14 = getelementptr inbounds %"struct.std::_Vector_base", %"struct.std::_Vector_base"* %5, i32 0, i32 0, !llfi_index !91
  %15 = bitcast %"struct.std::_Vector_base<int, std::allocator<int>>::_Vector_impl"* %14 to %"struct.std::_Vector_base<int, std::allocator<int>>::_Vector_impl_data"*, !llfi_index !92
  %16 = getelementptr inbounds %"struct.std::_Vector_base<int, std::allocator<int>>::_Vector_impl_data", %"struct.std::_Vector_base<int, std::allocator<int>>::_Vector_impl_data"* %15, i32 0, i32 0, !llfi_index !93
  %17 = load i32*, i32** %16, align 8, !llfi_index !94
  %18 = ptrtoint i32* %13 to i64, !llfi_index !95
  %19 = ptrtoint i32* %17 to i64, !llfi_index !96
  %20 = sub i64 %18, %19, !llfi_index !97
  %21 = sdiv exact i64 %20, 4, !llfi_index !98
  invoke void @_ZNSt12_Vector_baseIiSaIiEE13_M_deallocateEPim(%"struct.std::_Vector_base"* nonnull align 8 dereferenceable(24) %5, i32* %9, i64 %21)
          to label %22 unwind label %24, !llfi_index !99

22:                                               ; preds = %1
  %23 = getelementptr inbounds %"struct.std::_Vector_base", %"struct.std::_Vector_base"* %5, i32 0, i32 0, !llfi_index !100
  call void @_ZNSt12_Vector_baseIiSaIiEE12_Vector_implD2Ev(%"struct.std::_Vector_base<int, std::allocator<int>>::_Vector_impl"* nonnull align 8 dereferenceable(24) %23) #2, !llfi_index !101
  ret void, !llfi_index !102

24:                                               ; preds = %1
  %25 = landingpad { i8*, i32 }
          catch i8* null, !llfi_index !103
  %26 = extractvalue { i8*, i32 } %25, 0, !llfi_index !104
  store i8* %26, i8** %3, align 8, !llfi_index !105
  %27 = extractvalue { i8*, i32 } %25, 1, !llfi_index !106
  store i32 %27, i32* %4, align 4, !llfi_index !107
  %28 = getelementptr inbounds %"struct.std::_Vector_base", %"struct.std::_Vector_base"* %5, i32 0, i32 0, !llfi_index !108
  call void @_ZNSt12_Vector_baseIiSaIiEE12_Vector_implD2Ev(%"struct.std::_Vector_base<int, std::allocator<int>>::_Vector_impl"* nonnull align 8 dereferenceable(24) %28) #2, !llfi_index !109
  br label %29, !llfi_index !110

29:                                               ; preds = %24
  %30 = load i8*, i8** %3, align 8, !llfi_index !111
  call void @__clang_call_terminate(i8* %30) #14, !llfi_index !112
  unreachable, !llfi_index !113
}

; Function Attrs: noinline noreturn nounwind
define linkonce_odr hidden void @__clang_call_terminate(i8* %0) #5 comdat {
  %2 = call i8* @__cxa_begin_catch(i8* %0) #2, !llfi_index !114
  call void @_ZSt9terminatev() #14, !llfi_index !115
  unreachable, !llfi_index !116
}

declare dso_local i8* @__cxa_begin_catch(i8*)

declare dso_local void @_ZSt9terminatev()

; Function Attrs: mustprogress noinline uwtable
define linkonce_odr dso_local void @_ZNSt12_Vector_baseIiSaIiEE13_M_deallocateEPim(%"struct.std::_Vector_base"* nonnull align 8 dereferenceable(24) %0, i32* %1, i64 %2) #4 comdat align 2 {
  %4 = alloca %"struct.std::_Vector_base"*, align 8, !llfi_index !117
  %5 = alloca i32*, align 8, !llfi_index !118
  %6 = alloca i64, align 8, !llfi_index !119
  store %"struct.std::_Vector_base"* %0, %"struct.std::_Vector_base"** %4, align 8, !llfi_index !120
  store i32* %1, i32** %5, align 8, !llfi_index !121
  store i64 %2, i64* %6, align 8, !llfi_index !122
  %7 = load %"struct.std::_Vector_base"*, %"struct.std::_Vector_base"** %4, align 8, !llfi_index !123
  %8 = load i32*, i32** %5, align 8, !llfi_index !124
  %9 = icmp ne i32* %8, null, !llfi_index !125
  br i1 %9, label %10, label %15, !llfi_index !126

10:                                               ; preds = %3
  %11 = getelementptr inbounds %"struct.std::_Vector_base", %"struct.std::_Vector_base"* %7, i32 0, i32 0, !llfi_index !127
  %12 = bitcast %"struct.std::_Vector_base<int, std::allocator<int>>::_Vector_impl"* %11 to %"class.std::allocator"*, !llfi_index !128
  %13 = load i32*, i32** %5, align 8, !llfi_index !129
  %14 = load i64, i64* %6, align 8, !llfi_index !130
  call void @_ZNSt16allocator_traitsISaIiEE10deallocateERS0_Pim(%"class.std::allocator"* nonnull align 1 dereferenceable(1) %12, i32* %13, i64 %14), !llfi_index !131
  br label %15, !llfi_index !132

15:                                               ; preds = %10, %3
  ret void, !llfi_index !133
}

; Function Attrs: noinline nounwind uwtable
define linkonce_odr dso_local void @_ZNSt12_Vector_baseIiSaIiEE12_Vector_implD2Ev(%"struct.std::_Vector_base<int, std::allocator<int>>::_Vector_impl"* nonnull align 8 dereferenceable(24) %0) unnamed_addr #1 comdat align 2 {
  %2 = alloca %"struct.std::_Vector_base<int, std::allocator<int>>::_Vector_impl"*, align 8, !llfi_index !134
  store %"struct.std::_Vector_base<int, std::allocator<int>>::_Vector_impl"* %0, %"struct.std::_Vector_base<int, std::allocator<int>>::_Vector_impl"** %2, align 8, !llfi_index !135
  %3 = load %"struct.std::_Vector_base<int, std::allocator<int>>::_Vector_impl"*, %"struct.std::_Vector_base<int, std::allocator<int>>::_Vector_impl"** %2, align 8, !llfi_index !136
  %4 = bitcast %"struct.std::_Vector_base<int, std::allocator<int>>::_Vector_impl"* %3 to %"class.std::allocator"*, !llfi_index !137
  call void @_ZNSaIiED2Ev(%"class.std::allocator"* nonnull align 1 dereferenceable(1) %4) #2, !llfi_index !138
  ret void, !llfi_index !139
}

; Function Attrs: noinline nounwind uwtable
define linkonce_odr dso_local void @_ZNSaIiED2Ev(%"class.std::allocator"* nonnull align 1 dereferenceable(1) %0) unnamed_addr #1 comdat align 2 {
  %2 = alloca %"class.std::allocator"*, align 8, !llfi_index !140
  store %"class.std::allocator"* %0, %"class.std::allocator"** %2, align 8, !llfi_index !141
  %3 = load %"class.std::allocator"*, %"class.std::allocator"** %2, align 8, !llfi_index !142
  %4 = bitcast %"class.std::allocator"* %3 to %"class.std::allocator"*, !llfi_index !143
  call void @_ZN9__gnu_cxx13new_allocatorIiED2Ev(%"class.std::allocator"* nonnull align 1 dereferenceable(1) %4) #2, !llfi_index !144
  ret void, !llfi_index !145
}

; Function Attrs: noinline nounwind uwtable
define linkonce_odr dso_local void @_ZN9__gnu_cxx13new_allocatorIiED2Ev(%"class.std::allocator"* nonnull align 1 dereferenceable(1) %0) unnamed_addr #1 comdat align 2 {
  %2 = alloca %"class.std::allocator"*, align 8, !llfi_index !146
  store %"class.std::allocator"* %0, %"class.std::allocator"** %2, align 8, !llfi_index !147
  %3 = load %"class.std::allocator"*, %"class.std::allocator"** %2, align 8, !llfi_index !148
  ret void, !llfi_index !149
}

; Function Attrs: mustprogress noinline uwtable
define linkonce_odr dso_local void @_ZNSt16allocator_traitsISaIiEE10deallocateERS0_Pim(%"class.std::allocator"* nonnull align 1 dereferenceable(1) %0, i32* %1, i64 %2) #4 comdat align 2 {
  %4 = alloca %"class.std::allocator"*, align 8, !llfi_index !150
  %5 = alloca i32*, align 8, !llfi_index !151
  %6 = alloca i64, align 8, !llfi_index !152
  store %"class.std::allocator"* %0, %"class.std::allocator"** %4, align 8, !llfi_index !153
  store i32* %1, i32** %5, align 8, !llfi_index !154
  store i64 %2, i64* %6, align 8, !llfi_index !155
  %7 = load %"class.std::allocator"*, %"class.std::allocator"** %4, align 8, !llfi_index !156
  %8 = bitcast %"class.std::allocator"* %7 to %"class.std::allocator"*, !llfi_index !157
  %9 = load i32*, i32** %5, align 8, !llfi_index !158
  %10 = load i64, i64* %6, align 8, !llfi_index !159
  call void @_ZN9__gnu_cxx13new_allocatorIiE10deallocateEPim(%"class.std::allocator"* nonnull align 1 dereferenceable(1) %8, i32* %9, i64 %10), !llfi_index !160
  ret void, !llfi_index !161
}

; Function Attrs: mustprogress noinline nounwind uwtable
define linkonce_odr dso_local void @_ZN9__gnu_cxx13new_allocatorIiE10deallocateEPim(%"class.std::allocator"* nonnull align 1 dereferenceable(1) %0, i32* %1, i64 %2) #3 comdat align 2 {
  %4 = alloca %"class.std::allocator"*, align 8, !llfi_index !162
  %5 = alloca i32*, align 8, !llfi_index !163
  %6 = alloca i64, align 8, !llfi_index !164
  store %"class.std::allocator"* %0, %"class.std::allocator"** %4, align 8, !llfi_index !165
  store i32* %1, i32** %5, align 8, !llfi_index !166
  store i64 %2, i64* %6, align 8, !llfi_index !167
  %7 = load %"class.std::allocator"*, %"class.std::allocator"** %4, align 8, !llfi_index !168
  %8 = load i32*, i32** %5, align 8, !llfi_index !169
  %9 = bitcast i32* %8 to i8*, !llfi_index !170
  call void @_ZdlPv(i8* %9) #2, !llfi_index !171
  ret void, !llfi_index !172
}

; Function Attrs: nobuiltin nounwind
declare dso_local void @_ZdlPv(i8*) #6

; Function Attrs: mustprogress noinline uwtable
define linkonce_odr dso_local void @_ZSt8_DestroyIPiEvT_S1_(i32* %0, i32* %1) #4 comdat {
  %3 = alloca i32*, align 8, !llfi_index !173
  %4 = alloca i32*, align 8, !llfi_index !174
  store i32* %0, i32** %3, align 8, !llfi_index !175
  store i32* %1, i32** %4, align 8, !llfi_index !176
  %5 = load i32*, i32** %3, align 8, !llfi_index !177
  %6 = load i32*, i32** %4, align 8, !llfi_index !178
  call void @_ZNSt12_Destroy_auxILb1EE9__destroyIPiEEvT_S3_(i32* %5, i32* %6), !llfi_index !179
  ret void, !llfi_index !180
}

; Function Attrs: mustprogress noinline nounwind uwtable
define linkonce_odr dso_local void @_ZNSt12_Destroy_auxILb1EE9__destroyIPiEEvT_S3_(i32* %0, i32* %1) #3 comdat align 2 {
  %3 = alloca i32*, align 8, !llfi_index !181
  %4 = alloca i32*, align 8, !llfi_index !182
  store i32* %0, i32** %3, align 8, !llfi_index !183
  store i32* %1, i32** %4, align 8, !llfi_index !184
  ret void, !llfi_index !185
}

; Function Attrs: noinline nounwind uwtable
define linkonce_odr dso_local void @_ZNSt12_Vector_baseIiSaIiEEC2Ev(%"struct.std::_Vector_base"* nonnull align 8 dereferenceable(24) %0) unnamed_addr #1 comdat align 2 {
  %2 = alloca %"struct.std::_Vector_base"*, align 8, !llfi_index !186
  store %"struct.std::_Vector_base"* %0, %"struct.std::_Vector_base"** %2, align 8, !llfi_index !187
  %3 = load %"struct.std::_Vector_base"*, %"struct.std::_Vector_base"** %2, align 8, !llfi_index !188
  %4 = getelementptr inbounds %"struct.std::_Vector_base", %"struct.std::_Vector_base"* %3, i32 0, i32 0, !llfi_index !189
  call void @_ZNSt12_Vector_baseIiSaIiEE12_Vector_implC2Ev(%"struct.std::_Vector_base<int, std::allocator<int>>::_Vector_impl"* nonnull align 8 dereferenceable(24) %4) #2, !llfi_index !190
  ret void, !llfi_index !191
}

; Function Attrs: noinline nounwind uwtable
define linkonce_odr dso_local void @_ZNSt12_Vector_baseIiSaIiEE12_Vector_implC2Ev(%"struct.std::_Vector_base<int, std::allocator<int>>::_Vector_impl"* nonnull align 8 dereferenceable(24) %0) unnamed_addr #1 comdat align 2 {
  %2 = alloca %"struct.std::_Vector_base<int, std::allocator<int>>::_Vector_impl"*, align 8, !llfi_index !192
  store %"struct.std::_Vector_base<int, std::allocator<int>>::_Vector_impl"* %0, %"struct.std::_Vector_base<int, std::allocator<int>>::_Vector_impl"** %2, align 8, !llfi_index !193
  %3 = load %"struct.std::_Vector_base<int, std::allocator<int>>::_Vector_impl"*, %"struct.std::_Vector_base<int, std::allocator<int>>::_Vector_impl"** %2, align 8, !llfi_index !194
  %4 = bitcast %"struct.std::_Vector_base<int, std::allocator<int>>::_Vector_impl"* %3 to %"class.std::allocator"*, !llfi_index !195
  call void @_ZNSaIiEC2Ev(%"class.std::allocator"* nonnull align 1 dereferenceable(1) %4) #2, !llfi_index !196
  %5 = bitcast %"struct.std::_Vector_base<int, std::allocator<int>>::_Vector_impl"* %3 to %"struct.std::_Vector_base<int, std::allocator<int>>::_Vector_impl_data"*, !llfi_index !197
  call void @_ZNSt12_Vector_baseIiSaIiEE17_Vector_impl_dataC2Ev(%"struct.std::_Vector_base<int, std::allocator<int>>::_Vector_impl_data"* nonnull align 8 dereferenceable(24) %5) #2, !llfi_index !198
  ret void, !llfi_index !199
}

; Function Attrs: noinline nounwind uwtable
define linkonce_odr dso_local void @_ZNSaIiEC2Ev(%"class.std::allocator"* nonnull align 1 dereferenceable(1) %0) unnamed_addr #1 comdat align 2 {
  %2 = alloca %"class.std::allocator"*, align 8, !llfi_index !200
  store %"class.std::allocator"* %0, %"class.std::allocator"** %2, align 8, !llfi_index !201
  %3 = load %"class.std::allocator"*, %"class.std::allocator"** %2, align 8, !llfi_index !202
  %4 = bitcast %"class.std::allocator"* %3 to %"class.std::allocator"*, !llfi_index !203
  call void @_ZN9__gnu_cxx13new_allocatorIiEC2Ev(%"class.std::allocator"* nonnull align 1 dereferenceable(1) %4) #2, !llfi_index !204
  ret void, !llfi_index !205
}

; Function Attrs: noinline nounwind uwtable
define linkonce_odr dso_local void @_ZNSt12_Vector_baseIiSaIiEE17_Vector_impl_dataC2Ev(%"struct.std::_Vector_base<int, std::allocator<int>>::_Vector_impl_data"* nonnull align 8 dereferenceable(24) %0) unnamed_addr #1 comdat align 2 {
  %2 = alloca %"struct.std::_Vector_base<int, std::allocator<int>>::_Vector_impl_data"*, align 8, !llfi_index !206
  store %"struct.std::_Vector_base<int, std::allocator<int>>::_Vector_impl_data"* %0, %"struct.std::_Vector_base<int, std::allocator<int>>::_Vector_impl_data"** %2, align 8, !llfi_index !207
  %3 = load %"struct.std::_Vector_base<int, std::allocator<int>>::_Vector_impl_data"*, %"struct.std::_Vector_base<int, std::allocator<int>>::_Vector_impl_data"** %2, align 8, !llfi_index !208
  %4 = getelementptr inbounds %"struct.std::_Vector_base<int, std::allocator<int>>::_Vector_impl_data", %"struct.std::_Vector_base<int, std::allocator<int>>::_Vector_impl_data"* %3, i32 0, i32 0, !llfi_index !209
  store i32* null, i32** %4, align 8, !llfi_index !210
  %5 = getelementptr inbounds %"struct.std::_Vector_base<int, std::allocator<int>>::_Vector_impl_data", %"struct.std::_Vector_base<int, std::allocator<int>>::_Vector_impl_data"* %3, i32 0, i32 1, !llfi_index !211
  store i32* null, i32** %5, align 8, !llfi_index !212
  %6 = getelementptr inbounds %"struct.std::_Vector_base<int, std::allocator<int>>::_Vector_impl_data", %"struct.std::_Vector_base<int, std::allocator<int>>::_Vector_impl_data"* %3, i32 0, i32 2, !llfi_index !213
  store i32* null, i32** %6, align 8, !llfi_index !214
  ret void, !llfi_index !215
}

; Function Attrs: noinline nounwind uwtable
define linkonce_odr dso_local void @_ZN9__gnu_cxx13new_allocatorIiEC2Ev(%"class.std::allocator"* nonnull align 1 dereferenceable(1) %0) unnamed_addr #1 comdat align 2 {
  %2 = alloca %"class.std::allocator"*, align 8, !llfi_index !216
  store %"class.std::allocator"* %0, %"class.std::allocator"** %2, align 8, !llfi_index !217
  %3 = load %"class.std::allocator"*, %"class.std::allocator"** %2, align 8, !llfi_index !218
  ret void, !llfi_index !219
}

; Function Attrs: noinline uwtable
define internal void @__dtor_graph() #0 section ".text.startup" {
  call void @__cxx_global_array_dtor(i8* null), !llfi_index !220
  ret void, !llfi_index !221
}

; Function Attrs: noinline uwtable
define internal void @__cxx_global_array_dtor(i8* %0) #0 section ".text.startup" {
  %2 = alloca i8*, align 8, !llfi_index !222
  store i8* %0, i8** %2, align 8, !llfi_index !223
  br label %3, !llfi_index !224

3:                                                ; preds = %3, %1
  %4 = phi %"class.std::vector"* [ getelementptr inbounds (%"class.std::vector", %"class.std::vector"* getelementptr inbounds ([100005 x %"class.std::vector"], [100005 x %"class.std::vector"]* @graph, i32 0, i32 0), i64 100005), %1 ], [ %5, %3 ], !llfi_index !225
  %5 = getelementptr inbounds %"class.std::vector", %"class.std::vector"* %4, i64 -1, !llfi_index !226
  call void @_ZNSt6vectorIiSaIiEED2Ev(%"class.std::vector"* nonnull align 8 dereferenceable(24) %5) #2, !llfi_index !227
  %6 = icmp eq %"class.std::vector"* %5, getelementptr inbounds ([100005 x %"class.std::vector"], [100005 x %"class.std::vector"]* @graph, i32 0, i32 0), !llfi_index !228
  br i1 %6, label %7, label %3, !llfi_index !229

7:                                                ; preds = %3
  ret void, !llfi_index !230
}

declare dso_local void @_ZNSt8ios_base4InitC1Ev(%"class.std::allocator"* nonnull align 1 dereferenceable(1)) unnamed_addr #7

; Function Attrs: noinline uwtable
define internal void @__dtor__ZStL8__ioinit() #0 section ".text.startup" {
  call void @_ZNSt8ios_base4InitD1Ev(%"class.std::allocator"* @_ZStL8__ioinit), !llfi_index !231
  ret void, !llfi_index !232
}

; Function Attrs: nounwind
declare dso_local void @_ZNSt8ios_base4InitD1Ev(%"class.std::allocator"* nonnull align 1 dereferenceable(1)) unnamed_addr #8

; Function Attrs: mustprogress noinline uwtable
define dso_local void @_Z3dfsii(i32 %0, i32 %1) #4 {
  %3 = alloca i32, align 4, !llfi_index !233
  %4 = alloca i32, align 4, !llfi_index !234
  %5 = alloca %"class.std::vector"*, align 8, !llfi_index !235
  %6 = alloca %"class.__gnu_cxx::__normal_iterator", align 8, !llfi_index !236
  %7 = alloca %"class.__gnu_cxx::__normal_iterator", align 8, !llfi_index !237
  %8 = alloca i32, align 4, !llfi_index !238
  %9 = alloca i32, align 4, !llfi_index !239
  %10 = alloca i32, align 4, !llfi_index !240
  store i32 %0, i32* %3, align 4, !llfi_index !241
  store i32 %1, i32* %4, align 4, !llfi_index !242
  %11 = load i32, i32* %3, align 4, !llfi_index !243
  %12 = sext i32 %11 to i64, !llfi_index !244
  %13 = getelementptr inbounds [100005 x i32], [100005 x i32]* @color, i64 0, i64 %12, !llfi_index !245
  %14 = load i32, i32* %13, align 4, !llfi_index !246
  %15 = load i32, i32* %3, align 4, !llfi_index !247
  %16 = sext i32 %15 to i64, !llfi_index !248
  %17 = getelementptr inbounds [100005 x i32], [100005 x i32]* @dp1, i64 0, i64 %16, !llfi_index !249
  store i32 %14, i32* %17, align 4, !llfi_index !250
  %18 = load i32, i32* %3, align 4, !llfi_index !251
  %19 = sext i32 %18 to i64, !llfi_index !252
  %20 = getelementptr inbounds [100005 x i32], [100005 x i32]* @color, i64 0, i64 %19, !llfi_index !253
  %21 = load i32, i32* %20, align 4, !llfi_index !254
  %22 = sub nsw i32 0, %21, !llfi_index !255
  %23 = load i32, i32* %3, align 4, !llfi_index !256
  %24 = sext i32 %23 to i64, !llfi_index !257
  %25 = getelementptr inbounds [100005 x i32], [100005 x i32]* @dp2, i64 0, i64 %24, !llfi_index !258
  store i32 %22, i32* %25, align 4, !llfi_index !259
  %26 = load i32, i32* %4, align 4, !llfi_index !260
  %27 = load i32, i32* %3, align 4, !llfi_index !261
  %28 = sext i32 %27 to i64, !llfi_index !262
  %29 = getelementptr inbounds [100005 x i32], [100005 x i32]* @f, i64 0, i64 %28, !llfi_index !263
  store i32 %26, i32* %29, align 4, !llfi_index !264
  %30 = load i32, i32* %3, align 4, !llfi_index !265
  %31 = sext i32 %30 to i64, !llfi_index !266
  %32 = getelementptr inbounds [100005 x %"class.std::vector"], [100005 x %"class.std::vector"]* @graph, i64 0, i64 %31, !llfi_index !267
  store %"class.std::vector"* %32, %"class.std::vector"** %5, align 8, !llfi_index !268
  %33 = load %"class.std::vector"*, %"class.std::vector"** %5, align 8, !llfi_index !269
  %34 = call i32* @_ZNSt6vectorIiSaIiEE5beginEv(%"class.std::vector"* nonnull align 8 dereferenceable(24) %33) #2, !llfi_index !270
  %35 = getelementptr inbounds %"class.__gnu_cxx::__normal_iterator", %"class.__gnu_cxx::__normal_iterator"* %6, i32 0, i32 0, !llfi_index !271
  store i32* %34, i32** %35, align 8, !llfi_index !272
  %36 = load %"class.std::vector"*, %"class.std::vector"** %5, align 8, !llfi_index !273
  %37 = call i32* @_ZNSt6vectorIiSaIiEE3endEv(%"class.std::vector"* nonnull align 8 dereferenceable(24) %36) #2, !llfi_index !274
  %38 = getelementptr inbounds %"class.__gnu_cxx::__normal_iterator", %"class.__gnu_cxx::__normal_iterator"* %7, i32 0, i32 0, !llfi_index !275
  store i32* %37, i32** %38, align 8, !llfi_index !276
  br label %39, !llfi_index !277

39:                                               ; preds = %71, %2
  %40 = call zeroext i1 @_ZN9__gnu_cxxneIPiSt6vectorIiSaIiEEEEbRKNS_17__normal_iteratorIT_T0_EESA_(%"class.__gnu_cxx::__normal_iterator"* nonnull align 8 dereferenceable(8) %6, %"class.__gnu_cxx::__normal_iterator"* nonnull align 8 dereferenceable(8) %7) #2, !llfi_index !278
  br i1 %40, label %41, label %73, !llfi_index !279

41:                                               ; preds = %39
  %42 = call nonnull align 4 dereferenceable(4) i32* @_ZNK9__gnu_cxx17__normal_iteratorIPiSt6vectorIiSaIiEEEdeEv(%"class.__gnu_cxx::__normal_iterator"* nonnull align 8 dereferenceable(8) %6) #2, !llfi_index !280
  %43 = load i32, i32* %42, align 4, !llfi_index !281
  store i32 %43, i32* %8, align 4, !llfi_index !282
  %44 = load i32, i32* %8, align 4, !llfi_index !283
  %45 = load i32, i32* %4, align 4, !llfi_index !284
  %46 = icmp ne i32 %44, %45, !llfi_index !285
  br i1 %46, label %47, label %70, !llfi_index !286

47:                                               ; preds = %41
  %48 = load i32, i32* %8, align 4, !llfi_index !287
  %49 = load i32, i32* %3, align 4, !llfi_index !288
  call void @_Z3dfsii(i32 %48, i32 %49), !llfi_index !289
  store i32 0, i32* %9, align 4, !llfi_index !290
  %50 = load i32, i32* %8, align 4, !llfi_index !291
  %51 = sext i32 %50 to i64, !llfi_index !292
  %52 = getelementptr inbounds [100005 x i32], [100005 x i32]* @dp1, i64 0, i64 %51, !llfi_index !293
  %53 = call nonnull align 4 dereferenceable(4) i32* @_ZSt3maxIiERKT_S2_S2_(i32* nonnull align 4 dereferenceable(4) %9, i32* nonnull align 4 dereferenceable(4) %52), !llfi_index !294
  %54 = load i32, i32* %53, align 4, !llfi_index !295
  %55 = load i32, i32* %3, align 4, !llfi_index !296
  %56 = sext i32 %55 to i64, !llfi_index !297
  %57 = getelementptr inbounds [100005 x i32], [100005 x i32]* @dp1, i64 0, i64 %56, !llfi_index !298
  %58 = load i32, i32* %57, align 4, !llfi_index !299
  %59 = add nsw i32 %58, %54, !llfi_index !300
  store i32 %59, i32* %57, align 4, !llfi_index !301
  store i32 0, i32* %10, align 4, !llfi_index !302
  %60 = load i32, i32* %8, align 4, !llfi_index !303
  %61 = sext i32 %60 to i64, !llfi_index !304
  %62 = getelementptr inbounds [100005 x i32], [100005 x i32]* @dp2, i64 0, i64 %61, !llfi_index !305
  %63 = call nonnull align 4 dereferenceable(4) i32* @_ZSt3maxIiERKT_S2_S2_(i32* nonnull align 4 dereferenceable(4) %10, i32* nonnull align 4 dereferenceable(4) %62), !llfi_index !306
  %64 = load i32, i32* %63, align 4, !llfi_index !307
  %65 = load i32, i32* %3, align 4, !llfi_index !308
  %66 = sext i32 %65 to i64, !llfi_index !309
  %67 = getelementptr inbounds [100005 x i32], [100005 x i32]* @dp2, i64 0, i64 %66, !llfi_index !310
  %68 = load i32, i32* %67, align 4, !llfi_index !311
  %69 = add nsw i32 %68, %64, !llfi_index !312
  store i32 %69, i32* %67, align 4, !llfi_index !313
  br label %70, !llfi_index !314

70:                                               ; preds = %47, %41
  br label %71, !llfi_index !315

71:                                               ; preds = %70
  %72 = call nonnull align 8 dereferenceable(8) %"class.__gnu_cxx::__normal_iterator"* @_ZN9__gnu_cxx17__normal_iteratorIPiSt6vectorIiSaIiEEEppEv(%"class.__gnu_cxx::__normal_iterator"* nonnull align 8 dereferenceable(8) %6) #2, !llfi_index !316
  br label %39, !llfi_index !317

73:                                               ; preds = %39
  %74 = load i32, i32* %3, align 4, !llfi_index !318
  %75 = sext i32 %74 to i64, !llfi_index !319
  %76 = getelementptr inbounds [100005 x i32], [100005 x i32]* @dp1, i64 0, i64 %75, !llfi_index !320
  %77 = call nonnull align 4 dereferenceable(4) i32* @_ZSt3maxIiERKT_S2_S2_(i32* nonnull align 4 dereferenceable(4) @ans1, i32* nonnull align 4 dereferenceable(4) %76), !llfi_index !321
  %78 = load i32, i32* %77, align 4, !llfi_index !322
  store i32 %78, i32* @ans1, align 4, !llfi_index !323
  %79 = load i32, i32* @ans1, align 4, !llfi_index !324
  %80 = load i32, i32* %3, align 4, !llfi_index !325
  %81 = sext i32 %80 to i64, !llfi_index !326
  %82 = getelementptr inbounds [100005 x i32], [100005 x i32]* @dp1, i64 0, i64 %81, !llfi_index !327
  %83 = load i32, i32* %82, align 4, !llfi_index !328
  %84 = icmp eq i32 %79, %83, !llfi_index !329
  br i1 %84, label %85, label %87, !llfi_index !330

85:                                               ; preds = %73
  %86 = load i32, i32* %3, align 4, !llfi_index !331
  store i32 %86, i32* @where1, align 4, !llfi_index !332
  br label %87, !llfi_index !333

87:                                               ; preds = %85, %73
  %88 = load i32, i32* %3, align 4, !llfi_index !334
  %89 = sext i32 %88 to i64, !llfi_index !335
  %90 = getelementptr inbounds [100005 x i32], [100005 x i32]* @dp2, i64 0, i64 %89, !llfi_index !336
  %91 = call nonnull align 4 dereferenceable(4) i32* @_ZSt3maxIiERKT_S2_S2_(i32* nonnull align 4 dereferenceable(4) @ans2, i32* nonnull align 4 dereferenceable(4) %90), !llfi_index !337
  %92 = load i32, i32* %91, align 4, !llfi_index !338
  store i32 %92, i32* @ans2, align 4, !llfi_index !339
  %93 = load i32, i32* @ans2, align 4, !llfi_index !340
  %94 = load i32, i32* %3, align 4, !llfi_index !341
  %95 = sext i32 %94 to i64, !llfi_index !342
  %96 = getelementptr inbounds [100005 x i32], [100005 x i32]* @dp2, i64 0, i64 %95, !llfi_index !343
  %97 = load i32, i32* %96, align 4, !llfi_index !344
  %98 = icmp eq i32 %93, %97, !llfi_index !345
  br i1 %98, label %99, label %101, !llfi_index !346

99:                                               ; preds = %87
  %100 = load i32, i32* %3, align 4, !llfi_index !347
  store i32 %100, i32* @where2, align 4, !llfi_index !348
  br label %101, !llfi_index !349

101:                                              ; preds = %99, %87
  ret void, !llfi_index !350
}

; Function Attrs: mustprogress noinline nounwind uwtable
define linkonce_odr dso_local i32* @_ZNSt6vectorIiSaIiEE5beginEv(%"class.std::vector"* nonnull align 8 dereferenceable(24) %0) #3 comdat align 2 {
  %2 = alloca %"class.__gnu_cxx::__normal_iterator", align 8, !llfi_index !351
  %3 = alloca %"class.std::vector"*, align 8, !llfi_index !352
  store %"class.std::vector"* %0, %"class.std::vector"** %3, align 8, !llfi_index !353
  %4 = load %"class.std::vector"*, %"class.std::vector"** %3, align 8, !llfi_index !354
  %5 = bitcast %"class.std::vector"* %4 to %"struct.std::_Vector_base"*, !llfi_index !355
  %6 = getelementptr inbounds %"struct.std::_Vector_base", %"struct.std::_Vector_base"* %5, i32 0, i32 0, !llfi_index !356
  %7 = bitcast %"struct.std::_Vector_base<int, std::allocator<int>>::_Vector_impl"* %6 to %"struct.std::_Vector_base<int, std::allocator<int>>::_Vector_impl_data"*, !llfi_index !357
  %8 = getelementptr inbounds %"struct.std::_Vector_base<int, std::allocator<int>>::_Vector_impl_data", %"struct.std::_Vector_base<int, std::allocator<int>>::_Vector_impl_data"* %7, i32 0, i32 0, !llfi_index !358
  call void @_ZN9__gnu_cxx17__normal_iteratorIPiSt6vectorIiSaIiEEEC2ERKS1_(%"class.__gnu_cxx::__normal_iterator"* nonnull align 8 dereferenceable(8) %2, i32** nonnull align 8 dereferenceable(8) %8) #2, !llfi_index !359
  %9 = getelementptr inbounds %"class.__gnu_cxx::__normal_iterator", %"class.__gnu_cxx::__normal_iterator"* %2, i32 0, i32 0, !llfi_index !360
  %10 = load i32*, i32** %9, align 8, !llfi_index !361
  ret i32* %10, !llfi_index !362
}

; Function Attrs: mustprogress noinline nounwind uwtable
define linkonce_odr dso_local i32* @_ZNSt6vectorIiSaIiEE3endEv(%"class.std::vector"* nonnull align 8 dereferenceable(24) %0) #3 comdat align 2 {
  %2 = alloca %"class.__gnu_cxx::__normal_iterator", align 8, !llfi_index !363
  %3 = alloca %"class.std::vector"*, align 8, !llfi_index !364
  store %"class.std::vector"* %0, %"class.std::vector"** %3, align 8, !llfi_index !365
  %4 = load %"class.std::vector"*, %"class.std::vector"** %3, align 8, !llfi_index !366
  %5 = bitcast %"class.std::vector"* %4 to %"struct.std::_Vector_base"*, !llfi_index !367
  %6 = getelementptr inbounds %"struct.std::_Vector_base", %"struct.std::_Vector_base"* %5, i32 0, i32 0, !llfi_index !368
  %7 = bitcast %"struct.std::_Vector_base<int, std::allocator<int>>::_Vector_impl"* %6 to %"struct.std::_Vector_base<int, std::allocator<int>>::_Vector_impl_data"*, !llfi_index !369
  %8 = getelementptr inbounds %"struct.std::_Vector_base<int, std::allocator<int>>::_Vector_impl_data", %"struct.std::_Vector_base<int, std::allocator<int>>::_Vector_impl_data"* %7, i32 0, i32 1, !llfi_index !370
  call void @_ZN9__gnu_cxx17__normal_iteratorIPiSt6vectorIiSaIiEEEC2ERKS1_(%"class.__gnu_cxx::__normal_iterator"* nonnull align 8 dereferenceable(8) %2, i32** nonnull align 8 dereferenceable(8) %8) #2, !llfi_index !371
  %9 = getelementptr inbounds %"class.__gnu_cxx::__normal_iterator", %"class.__gnu_cxx::__normal_iterator"* %2, i32 0, i32 0, !llfi_index !372
  %10 = load i32*, i32** %9, align 8, !llfi_index !373
  ret i32* %10, !llfi_index !374
}

; Function Attrs: mustprogress noinline nounwind uwtable
define linkonce_odr dso_local zeroext i1 @_ZN9__gnu_cxxneIPiSt6vectorIiSaIiEEEEbRKNS_17__normal_iteratorIT_T0_EESA_(%"class.__gnu_cxx::__normal_iterator"* nonnull align 8 dereferenceable(8) %0, %"class.__gnu_cxx::__normal_iterator"* nonnull align 8 dereferenceable(8) %1) #3 comdat {
  %3 = alloca %"class.__gnu_cxx::__normal_iterator"*, align 8, !llfi_index !375
  %4 = alloca %"class.__gnu_cxx::__normal_iterator"*, align 8, !llfi_index !376
  store %"class.__gnu_cxx::__normal_iterator"* %0, %"class.__gnu_cxx::__normal_iterator"** %3, align 8, !llfi_index !377
  store %"class.__gnu_cxx::__normal_iterator"* %1, %"class.__gnu_cxx::__normal_iterator"** %4, align 8, !llfi_index !378
  %5 = load %"class.__gnu_cxx::__normal_iterator"*, %"class.__gnu_cxx::__normal_iterator"** %3, align 8, !llfi_index !379
  %6 = call nonnull align 8 dereferenceable(8) i32** @_ZNK9__gnu_cxx17__normal_iteratorIPiSt6vectorIiSaIiEEE4baseEv(%"class.__gnu_cxx::__normal_iterator"* nonnull align 8 dereferenceable(8) %5) #2, !llfi_index !380
  %7 = load i32*, i32** %6, align 8, !llfi_index !381
  %8 = load %"class.__gnu_cxx::__normal_iterator"*, %"class.__gnu_cxx::__normal_iterator"** %4, align 8, !llfi_index !382
  %9 = call nonnull align 8 dereferenceable(8) i32** @_ZNK9__gnu_cxx17__normal_iteratorIPiSt6vectorIiSaIiEEE4baseEv(%"class.__gnu_cxx::__normal_iterator"* nonnull align 8 dereferenceable(8) %8) #2, !llfi_index !383
  %10 = load i32*, i32** %9, align 8, !llfi_index !384
  %11 = icmp ne i32* %7, %10, !llfi_index !385
  ret i1 %11, !llfi_index !386
}

; Function Attrs: mustprogress noinline nounwind uwtable
define linkonce_odr dso_local nonnull align 4 dereferenceable(4) i32* @_ZNK9__gnu_cxx17__normal_iteratorIPiSt6vectorIiSaIiEEEdeEv(%"class.__gnu_cxx::__normal_iterator"* nonnull align 8 dereferenceable(8) %0) #3 comdat align 2 {
  %2 = alloca %"class.__gnu_cxx::__normal_iterator"*, align 8, !llfi_index !387
  store %"class.__gnu_cxx::__normal_iterator"* %0, %"class.__gnu_cxx::__normal_iterator"** %2, align 8, !llfi_index !388
  %3 = load %"class.__gnu_cxx::__normal_iterator"*, %"class.__gnu_cxx::__normal_iterator"** %2, align 8, !llfi_index !389
  %4 = getelementptr inbounds %"class.__gnu_cxx::__normal_iterator", %"class.__gnu_cxx::__normal_iterator"* %3, i32 0, i32 0, !llfi_index !390
  %5 = load i32*, i32** %4, align 8, !llfi_index !391
  ret i32* %5, !llfi_index !392
}

; Function Attrs: mustprogress noinline nounwind uwtable
define linkonce_odr dso_local nonnull align 4 dereferenceable(4) i32* @_ZSt3maxIiERKT_S2_S2_(i32* nonnull align 4 dereferenceable(4) %0, i32* nonnull align 4 dereferenceable(4) %1) #3 comdat {
  %3 = alloca i32*, align 8, !llfi_index !393
  %4 = alloca i32*, align 8, !llfi_index !394
  %5 = alloca i32*, align 8, !llfi_index !395
  store i32* %0, i32** %4, align 8, !llfi_index !396
  store i32* %1, i32** %5, align 8, !llfi_index !397
  %6 = load i32*, i32** %4, align 8, !llfi_index !398
  %7 = load i32, i32* %6, align 4, !llfi_index !399
  %8 = load i32*, i32** %5, align 8, !llfi_index !400
  %9 = load i32, i32* %8, align 4, !llfi_index !401
  %10 = icmp slt i32 %7, %9, !llfi_index !402
  br i1 %10, label %11, label %13, !llfi_index !403

11:                                               ; preds = %2
  %12 = load i32*, i32** %5, align 8, !llfi_index !404
  store i32* %12, i32** %3, align 8, !llfi_index !405
  br label %15, !llfi_index !406

13:                                               ; preds = %2
  %14 = load i32*, i32** %4, align 8, !llfi_index !407
  store i32* %14, i32** %3, align 8, !llfi_index !408
  br label %15, !llfi_index !409

15:                                               ; preds = %13, %11
  %16 = load i32*, i32** %3, align 8, !llfi_index !410
  ret i32* %16, !llfi_index !411
}

; Function Attrs: mustprogress noinline nounwind uwtable
define linkonce_odr dso_local nonnull align 8 dereferenceable(8) %"class.__gnu_cxx::__normal_iterator"* @_ZN9__gnu_cxx17__normal_iteratorIPiSt6vectorIiSaIiEEEppEv(%"class.__gnu_cxx::__normal_iterator"* nonnull align 8 dereferenceable(8) %0) #3 comdat align 2 {
  %2 = alloca %"class.__gnu_cxx::__normal_iterator"*, align 8, !llfi_index !412
  store %"class.__gnu_cxx::__normal_iterator"* %0, %"class.__gnu_cxx::__normal_iterator"** %2, align 8, !llfi_index !413
  %3 = load %"class.__gnu_cxx::__normal_iterator"*, %"class.__gnu_cxx::__normal_iterator"** %2, align 8, !llfi_index !414
  %4 = getelementptr inbounds %"class.__gnu_cxx::__normal_iterator", %"class.__gnu_cxx::__normal_iterator"* %3, i32 0, i32 0, !llfi_index !415
  %5 = load i32*, i32** %4, align 8, !llfi_index !416
  %6 = getelementptr inbounds i32, i32* %5, i32 1, !llfi_index !417
  store i32* %6, i32** %4, align 8, !llfi_index !418
  ret %"class.__gnu_cxx::__normal_iterator"* %3, !llfi_index !419
}

; Function Attrs: mustprogress noinline nounwind uwtable
define linkonce_odr dso_local nonnull align 8 dereferenceable(8) i32** @_ZNK9__gnu_cxx17__normal_iteratorIPiSt6vectorIiSaIiEEE4baseEv(%"class.__gnu_cxx::__normal_iterator"* nonnull align 8 dereferenceable(8) %0) #3 comdat align 2 {
  %2 = alloca %"class.__gnu_cxx::__normal_iterator"*, align 8, !llfi_index !420
  store %"class.__gnu_cxx::__normal_iterator"* %0, %"class.__gnu_cxx::__normal_iterator"** %2, align 8, !llfi_index !421
  %3 = load %"class.__gnu_cxx::__normal_iterator"*, %"class.__gnu_cxx::__normal_iterator"** %2, align 8, !llfi_index !422
  %4 = getelementptr inbounds %"class.__gnu_cxx::__normal_iterator", %"class.__gnu_cxx::__normal_iterator"* %3, i32 0, i32 0, !llfi_index !423
  ret i32** %4, !llfi_index !424
}

; Function Attrs: noinline nounwind uwtable
define linkonce_odr dso_local void @_ZN9__gnu_cxx17__normal_iteratorIPiSt6vectorIiSaIiEEEC2ERKS1_(%"class.__gnu_cxx::__normal_iterator"* nonnull align 8 dereferenceable(8) %0, i32** nonnull align 8 dereferenceable(8) %1) unnamed_addr #1 comdat align 2 {
  %3 = alloca %"class.__gnu_cxx::__normal_iterator"*, align 8, !llfi_index !425
  %4 = alloca i32**, align 8, !llfi_index !426
  store %"class.__gnu_cxx::__normal_iterator"* %0, %"class.__gnu_cxx::__normal_iterator"** %3, align 8, !llfi_index !427
  store i32** %1, i32*** %4, align 8, !llfi_index !428
  %5 = load %"class.__gnu_cxx::__normal_iterator"*, %"class.__gnu_cxx::__normal_iterator"** %3, align 8, !llfi_index !429
  %6 = getelementptr inbounds %"class.__gnu_cxx::__normal_iterator", %"class.__gnu_cxx::__normal_iterator"* %5, i32 0, i32 0, !llfi_index !430
  %7 = load i32**, i32*** %4, align 8, !llfi_index !431
  %8 = load i32*, i32** %7, align 8, !llfi_index !432
  store i32* %8, i32** %6, align 8, !llfi_index !433
  ret void, !llfi_index !434
}

; Function Attrs: mustprogress noinline uwtable
define dso_local void @_Z5reco1ii(i32 %0, i32 %1) #4 {
  %3 = alloca i32, align 4, !llfi_index !435
  %4 = alloca i32, align 4, !llfi_index !436
  %5 = alloca %"class.std::vector"*, align 8, !llfi_index !437
  %6 = alloca %"class.__gnu_cxx::__normal_iterator", align 8, !llfi_index !438
  %7 = alloca %"class.__gnu_cxx::__normal_iterator", align 8, !llfi_index !439
  %8 = alloca i32, align 4, !llfi_index !440
  store i32 %0, i32* %3, align 4, !llfi_index !441
  store i32 %1, i32* %4, align 4, !llfi_index !442
  call void @_ZNSt6vectorIiSaIiEE9push_backERKi(%"class.std::vector"* nonnull align 8 dereferenceable(24) @sol, i32* nonnull align 4 dereferenceable(4) %3), !llfi_index !443
  %9 = load i32, i32* %3, align 4, !llfi_index !444
  %10 = sext i32 %9 to i64, !llfi_index !445
  %11 = getelementptr inbounds [100005 x %"class.std::vector"], [100005 x %"class.std::vector"]* @graph, i64 0, i64 %10, !llfi_index !446
  store %"class.std::vector"* %11, %"class.std::vector"** %5, align 8, !llfi_index !447
  %12 = load %"class.std::vector"*, %"class.std::vector"** %5, align 8, !llfi_index !448
  %13 = call i32* @_ZNSt6vectorIiSaIiEE5beginEv(%"class.std::vector"* nonnull align 8 dereferenceable(24) %12) #2, !llfi_index !449
  %14 = getelementptr inbounds %"class.__gnu_cxx::__normal_iterator", %"class.__gnu_cxx::__normal_iterator"* %6, i32 0, i32 0, !llfi_index !450
  store i32* %13, i32** %14, align 8, !llfi_index !451
  %15 = load %"class.std::vector"*, %"class.std::vector"** %5, align 8, !llfi_index !452
  %16 = call i32* @_ZNSt6vectorIiSaIiEE3endEv(%"class.std::vector"* nonnull align 8 dereferenceable(24) %15) #2, !llfi_index !453
  %17 = getelementptr inbounds %"class.__gnu_cxx::__normal_iterator", %"class.__gnu_cxx::__normal_iterator"* %7, i32 0, i32 0, !llfi_index !454
  store i32* %16, i32** %17, align 8, !llfi_index !455
  br label %18, !llfi_index !456

18:                                               ; preds = %36, %2
  %19 = call zeroext i1 @_ZN9__gnu_cxxneIPiSt6vectorIiSaIiEEEEbRKNS_17__normal_iteratorIT_T0_EESA_(%"class.__gnu_cxx::__normal_iterator"* nonnull align 8 dereferenceable(8) %6, %"class.__gnu_cxx::__normal_iterator"* nonnull align 8 dereferenceable(8) %7) #2, !llfi_index !457
  br i1 %19, label %20, label %38, !llfi_index !458

20:                                               ; preds = %18
  %21 = call nonnull align 4 dereferenceable(4) i32* @_ZNK9__gnu_cxx17__normal_iteratorIPiSt6vectorIiSaIiEEEdeEv(%"class.__gnu_cxx::__normal_iterator"* nonnull align 8 dereferenceable(8) %6) #2, !llfi_index !459
  %22 = load i32, i32* %21, align 4, !llfi_index !460
  store i32 %22, i32* %8, align 4, !llfi_index !461
  %23 = load i32, i32* %8, align 4, !llfi_index !462
  %24 = load i32, i32* %4, align 4, !llfi_index !463
  %25 = icmp ne i32 %23, %24, !llfi_index !464
  br i1 %25, label %26, label %35, !llfi_index !465

26:                                               ; preds = %20
  %27 = load i32, i32* %8, align 4, !llfi_index !466
  %28 = sext i32 %27 to i64, !llfi_index !467
  %29 = getelementptr inbounds [100005 x i32], [100005 x i32]* @dp1, i64 0, i64 %28, !llfi_index !468
  %30 = load i32, i32* %29, align 4, !llfi_index !469
  %31 = icmp sgt i32 %30, 0, !llfi_index !470
  br i1 %31, label %32, label %35, !llfi_index !471

32:                                               ; preds = %26
  %33 = load i32, i32* %8, align 4, !llfi_index !472
  %34 = load i32, i32* %3, align 4, !llfi_index !473
  call void @_Z5reco1ii(i32 %33, i32 %34), !llfi_index !474
  br label %35, !llfi_index !475

35:                                               ; preds = %32, %26, %20
  br label %36, !llfi_index !476

36:                                               ; preds = %35
  %37 = call nonnull align 8 dereferenceable(8) %"class.__gnu_cxx::__normal_iterator"* @_ZN9__gnu_cxx17__normal_iteratorIPiSt6vectorIiSaIiEEEppEv(%"class.__gnu_cxx::__normal_iterator"* nonnull align 8 dereferenceable(8) %6) #2, !llfi_index !477
  br label %18, !llfi_index !478

38:                                               ; preds = %18
  ret void, !llfi_index !479
}

; Function Attrs: mustprogress noinline uwtable
define linkonce_odr dso_local void @_ZNSt6vectorIiSaIiEE9push_backERKi(%"class.std::vector"* nonnull align 8 dereferenceable(24) %0, i32* nonnull align 4 dereferenceable(4) %1) #4 comdat align 2 {
  %3 = alloca %"class.std::vector"*, align 8, !llfi_index !480
  %4 = alloca i32*, align 8, !llfi_index !481
  %5 = alloca %"class.__gnu_cxx::__normal_iterator", align 8, !llfi_index !482
  store %"class.std::vector"* %0, %"class.std::vector"** %3, align 8, !llfi_index !483
  store i32* %1, i32** %4, align 8, !llfi_index !484
  %6 = load %"class.std::vector"*, %"class.std::vector"** %3, align 8, !llfi_index !485
  %7 = bitcast %"class.std::vector"* %6 to %"struct.std::_Vector_base"*, !llfi_index !486
  %8 = getelementptr inbounds %"struct.std::_Vector_base", %"struct.std::_Vector_base"* %7, i32 0, i32 0, !llfi_index !487
  %9 = bitcast %"struct.std::_Vector_base<int, std::allocator<int>>::_Vector_impl"* %8 to %"struct.std::_Vector_base<int, std::allocator<int>>::_Vector_impl_data"*, !llfi_index !488
  %10 = getelementptr inbounds %"struct.std::_Vector_base<int, std::allocator<int>>::_Vector_impl_data", %"struct.std::_Vector_base<int, std::allocator<int>>::_Vector_impl_data"* %9, i32 0, i32 1, !llfi_index !489
  %11 = load i32*, i32** %10, align 8, !llfi_index !490
  %12 = bitcast %"class.std::vector"* %6 to %"struct.std::_Vector_base"*, !llfi_index !491
  %13 = getelementptr inbounds %"struct.std::_Vector_base", %"struct.std::_Vector_base"* %12, i32 0, i32 0, !llfi_index !492
  %14 = bitcast %"struct.std::_Vector_base<int, std::allocator<int>>::_Vector_impl"* %13 to %"struct.std::_Vector_base<int, std::allocator<int>>::_Vector_impl_data"*, !llfi_index !493
  %15 = getelementptr inbounds %"struct.std::_Vector_base<int, std::allocator<int>>::_Vector_impl_data", %"struct.std::_Vector_base<int, std::allocator<int>>::_Vector_impl_data"* %14, i32 0, i32 2, !llfi_index !494
  %16 = load i32*, i32** %15, align 8, !llfi_index !495
  %17 = icmp ne i32* %11, %16, !llfi_index !496
  br i1 %17, label %18, label %34, !llfi_index !497

18:                                               ; preds = %2
  %19 = bitcast %"class.std::vector"* %6 to %"struct.std::_Vector_base"*, !llfi_index !498
  %20 = getelementptr inbounds %"struct.std::_Vector_base", %"struct.std::_Vector_base"* %19, i32 0, i32 0, !llfi_index !499
  %21 = bitcast %"struct.std::_Vector_base<int, std::allocator<int>>::_Vector_impl"* %20 to %"class.std::allocator"*, !llfi_index !500
  %22 = bitcast %"class.std::vector"* %6 to %"struct.std::_Vector_base"*, !llfi_index !501
  %23 = getelementptr inbounds %"struct.std::_Vector_base", %"struct.std::_Vector_base"* %22, i32 0, i32 0, !llfi_index !502
  %24 = bitcast %"struct.std::_Vector_base<int, std::allocator<int>>::_Vector_impl"* %23 to %"struct.std::_Vector_base<int, std::allocator<int>>::_Vector_impl_data"*, !llfi_index !503
  %25 = getelementptr inbounds %"struct.std::_Vector_base<int, std::allocator<int>>::_Vector_impl_data", %"struct.std::_Vector_base<int, std::allocator<int>>::_Vector_impl_data"* %24, i32 0, i32 1, !llfi_index !504
  %26 = load i32*, i32** %25, align 8, !llfi_index !505
  %27 = load i32*, i32** %4, align 8, !llfi_index !506
  call void @_ZNSt16allocator_traitsISaIiEE9constructIiJRKiEEEvRS0_PT_DpOT0_(%"class.std::allocator"* nonnull align 1 dereferenceable(1) %21, i32* %26, i32* nonnull align 4 dereferenceable(4) %27) #2, !llfi_index !507
  %28 = bitcast %"class.std::vector"* %6 to %"struct.std::_Vector_base"*, !llfi_index !508
  %29 = getelementptr inbounds %"struct.std::_Vector_base", %"struct.std::_Vector_base"* %28, i32 0, i32 0, !llfi_index !509
  %30 = bitcast %"struct.std::_Vector_base<int, std::allocator<int>>::_Vector_impl"* %29 to %"struct.std::_Vector_base<int, std::allocator<int>>::_Vector_impl_data"*, !llfi_index !510
  %31 = getelementptr inbounds %"struct.std::_Vector_base<int, std::allocator<int>>::_Vector_impl_data", %"struct.std::_Vector_base<int, std::allocator<int>>::_Vector_impl_data"* %30, i32 0, i32 1, !llfi_index !511
  %32 = load i32*, i32** %31, align 8, !llfi_index !512
  %33 = getelementptr inbounds i32, i32* %32, i32 1, !llfi_index !513
  store i32* %33, i32** %31, align 8, !llfi_index !514
  br label %40, !llfi_index !515

34:                                               ; preds = %2
  %35 = call i32* @_ZNSt6vectorIiSaIiEE3endEv(%"class.std::vector"* nonnull align 8 dereferenceable(24) %6) #2, !llfi_index !516
  %36 = getelementptr inbounds %"class.__gnu_cxx::__normal_iterator", %"class.__gnu_cxx::__normal_iterator"* %5, i32 0, i32 0, !llfi_index !517
  store i32* %35, i32** %36, align 8, !llfi_index !518
  %37 = load i32*, i32** %4, align 8, !llfi_index !519
  %38 = getelementptr inbounds %"class.__gnu_cxx::__normal_iterator", %"class.__gnu_cxx::__normal_iterator"* %5, i32 0, i32 0, !llfi_index !520
  %39 = load i32*, i32** %38, align 8, !llfi_index !521
  call void @_ZNSt6vectorIiSaIiEE17_M_realloc_insertIJRKiEEEvN9__gnu_cxx17__normal_iteratorIPiS1_EEDpOT_(%"class.std::vector"* nonnull align 8 dereferenceable(24) %6, i32* %39, i32* nonnull align 4 dereferenceable(4) %37), !llfi_index !522
  br label %40, !llfi_index !523

40:                                               ; preds = %34, %18
  ret void, !llfi_index !524
}

; Function Attrs: mustprogress noinline nounwind uwtable
define linkonce_odr dso_local void @_ZNSt16allocator_traitsISaIiEE9constructIiJRKiEEEvRS0_PT_DpOT0_(%"class.std::allocator"* nonnull align 1 dereferenceable(1) %0, i32* %1, i32* nonnull align 4 dereferenceable(4) %2) #3 comdat align 2 {
  %4 = alloca %"class.std::allocator"*, align 8, !llfi_index !525
  %5 = alloca i32*, align 8, !llfi_index !526
  %6 = alloca i32*, align 8, !llfi_index !527
  store %"class.std::allocator"* %0, %"class.std::allocator"** %4, align 8, !llfi_index !528
  store i32* %1, i32** %5, align 8, !llfi_index !529
  store i32* %2, i32** %6, align 8, !llfi_index !530
  %7 = load %"class.std::allocator"*, %"class.std::allocator"** %4, align 8, !llfi_index !531
  %8 = bitcast %"class.std::allocator"* %7 to %"class.std::allocator"*, !llfi_index !532
  %9 = load i32*, i32** %5, align 8, !llfi_index !533
  %10 = load i32*, i32** %6, align 8, !llfi_index !534
  %11 = call nonnull align 4 dereferenceable(4) i32* @_ZSt7forwardIRKiEOT_RNSt16remove_referenceIS2_E4typeE(i32* nonnull align 4 dereferenceable(4) %10) #2, !llfi_index !535
  call void @_ZN9__gnu_cxx13new_allocatorIiE9constructIiJRKiEEEvPT_DpOT0_(%"class.std::allocator"* nonnull align 1 dereferenceable(1) %8, i32* %9, i32* nonnull align 4 dereferenceable(4) %11) #2, !llfi_index !536
  ret void, !llfi_index !537
}

; Function Attrs: mustprogress noinline uwtable
define linkonce_odr dso_local void @_ZNSt6vectorIiSaIiEE17_M_realloc_insertIJRKiEEEvN9__gnu_cxx17__normal_iteratorIPiS1_EEDpOT_(%"class.std::vector"* nonnull align 8 dereferenceable(24) %0, i32* %1, i32* nonnull align 4 dereferenceable(4) %2) #4 comdat align 2 {
  %4 = alloca %"class.__gnu_cxx::__normal_iterator", align 8, !llfi_index !538
  %5 = alloca %"class.std::vector"*, align 8, !llfi_index !539
  %6 = alloca i32*, align 8, !llfi_index !540
  %7 = alloca i64, align 8, !llfi_index !541
  %8 = alloca i32*, align 8, !llfi_index !542
  %9 = alloca i32*, align 8, !llfi_index !543
  %10 = alloca i64, align 8, !llfi_index !544
  %11 = alloca %"class.__gnu_cxx::__normal_iterator", align 8, !llfi_index !545
  %12 = alloca i32*, align 8, !llfi_index !546
  %13 = alloca i32*, align 8, !llfi_index !547
  %14 = getelementptr inbounds %"class.__gnu_cxx::__normal_iterator", %"class.__gnu_cxx::__normal_iterator"* %4, i32 0, i32 0, !llfi_index !548
  store i32* %1, i32** %14, align 8, !llfi_index !549
  store %"class.std::vector"* %0, %"class.std::vector"** %5, align 8, !llfi_index !550
  store i32* %2, i32** %6, align 8, !llfi_index !551
  %15 = load %"class.std::vector"*, %"class.std::vector"** %5, align 8, !llfi_index !552
  %16 = call i64 @_ZNKSt6vectorIiSaIiEE12_M_check_lenEmPKc(%"class.std::vector"* nonnull align 8 dereferenceable(24) %15, i64 1, i8* getelementptr inbounds ([26 x i8], [26 x i8]* @.str.5, i64 0, i64 0)), !llfi_index !553
  store i64 %16, i64* %7, align 8, !llfi_index !554
  %17 = bitcast %"class.std::vector"* %15 to %"struct.std::_Vector_base"*, !llfi_index !555
  %18 = getelementptr inbounds %"struct.std::_Vector_base", %"struct.std::_Vector_base"* %17, i32 0, i32 0, !llfi_index !556
  %19 = bitcast %"struct.std::_Vector_base<int, std::allocator<int>>::_Vector_impl"* %18 to %"struct.std::_Vector_base<int, std::allocator<int>>::_Vector_impl_data"*, !llfi_index !557
  %20 = getelementptr inbounds %"struct.std::_Vector_base<int, std::allocator<int>>::_Vector_impl_data", %"struct.std::_Vector_base<int, std::allocator<int>>::_Vector_impl_data"* %19, i32 0, i32 0, !llfi_index !558
  %21 = load i32*, i32** %20, align 8, !llfi_index !559
  store i32* %21, i32** %8, align 8, !llfi_index !560
  %22 = bitcast %"class.std::vector"* %15 to %"struct.std::_Vector_base"*, !llfi_index !561
  %23 = getelementptr inbounds %"struct.std::_Vector_base", %"struct.std::_Vector_base"* %22, i32 0, i32 0, !llfi_index !562
  %24 = bitcast %"struct.std::_Vector_base<int, std::allocator<int>>::_Vector_impl"* %23 to %"struct.std::_Vector_base<int, std::allocator<int>>::_Vector_impl_data"*, !llfi_index !563
  %25 = getelementptr inbounds %"struct.std::_Vector_base<int, std::allocator<int>>::_Vector_impl_data", %"struct.std::_Vector_base<int, std::allocator<int>>::_Vector_impl_data"* %24, i32 0, i32 1, !llfi_index !564
  %26 = load i32*, i32** %25, align 8, !llfi_index !565
  store i32* %26, i32** %9, align 8, !llfi_index !566
  %27 = call i32* @_ZNSt6vectorIiSaIiEE5beginEv(%"class.std::vector"* nonnull align 8 dereferenceable(24) %15) #2, !llfi_index !567
  %28 = getelementptr inbounds %"class.__gnu_cxx::__normal_iterator", %"class.__gnu_cxx::__normal_iterator"* %11, i32 0, i32 0, !llfi_index !568
  store i32* %27, i32** %28, align 8, !llfi_index !569
  %29 = call i64 @_ZN9__gnu_cxxmiIPiSt6vectorIiSaIiEEEENS_17__normal_iteratorIT_T0_E15difference_typeERKS8_SB_(%"class.__gnu_cxx::__normal_iterator"* nonnull align 8 dereferenceable(8) %4, %"class.__gnu_cxx::__normal_iterator"* nonnull align 8 dereferenceable(8) %11) #2, !llfi_index !570
  store i64 %29, i64* %10, align 8, !llfi_index !571
  %30 = bitcast %"class.std::vector"* %15 to %"struct.std::_Vector_base"*, !llfi_index !572
  %31 = load i64, i64* %7, align 8, !llfi_index !573
  %32 = call i32* @_ZNSt12_Vector_baseIiSaIiEE11_M_allocateEm(%"struct.std::_Vector_base"* nonnull align 8 dereferenceable(24) %30, i64 %31), !llfi_index !574
  store i32* %32, i32** %12, align 8, !llfi_index !575
  %33 = load i32*, i32** %12, align 8, !llfi_index !576
  store i32* %33, i32** %13, align 8, !llfi_index !577
  %34 = bitcast %"class.std::vector"* %15 to %"struct.std::_Vector_base"*, !llfi_index !578
  %35 = getelementptr inbounds %"struct.std::_Vector_base", %"struct.std::_Vector_base"* %34, i32 0, i32 0, !llfi_index !579
  %36 = bitcast %"struct.std::_Vector_base<int, std::allocator<int>>::_Vector_impl"* %35 to %"class.std::allocator"*, !llfi_index !580
  %37 = load i32*, i32** %12, align 8, !llfi_index !581
  %38 = load i64, i64* %10, align 8, !llfi_index !582
  %39 = getelementptr inbounds i32, i32* %37, i64 %38, !llfi_index !583
  %40 = load i32*, i32** %6, align 8, !llfi_index !584
  %41 = call nonnull align 4 dereferenceable(4) i32* @_ZSt7forwardIRKiEOT_RNSt16remove_referenceIS2_E4typeE(i32* nonnull align 4 dereferenceable(4) %40) #2, !llfi_index !585
  call void @_ZNSt16allocator_traitsISaIiEE9constructIiJRKiEEEvRS0_PT_DpOT0_(%"class.std::allocator"* nonnull align 1 dereferenceable(1) %36, i32* %39, i32* nonnull align 4 dereferenceable(4) %41) #2, !llfi_index !586
  store i32* null, i32** %13, align 8, !llfi_index !587
  %42 = load i32*, i32** %8, align 8, !llfi_index !588
  %43 = call nonnull align 8 dereferenceable(8) i32** @_ZNK9__gnu_cxx17__normal_iteratorIPiSt6vectorIiSaIiEEE4baseEv(%"class.__gnu_cxx::__normal_iterator"* nonnull align 8 dereferenceable(8) %4) #2, !llfi_index !589
  %44 = load i32*, i32** %43, align 8, !llfi_index !590
  %45 = load i32*, i32** %12, align 8, !llfi_index !591
  %46 = bitcast %"class.std::vector"* %15 to %"struct.std::_Vector_base"*, !llfi_index !592
  %47 = call nonnull align 1 dereferenceable(1) %"class.std::allocator"* @_ZNSt12_Vector_baseIiSaIiEE19_M_get_Tp_allocatorEv(%"struct.std::_Vector_base"* nonnull align 8 dereferenceable(24) %46) #2, !llfi_index !593
  %48 = call i32* @_ZNSt6vectorIiSaIiEE11_S_relocateEPiS2_S2_RS0_(i32* %42, i32* %44, i32* %45, %"class.std::allocator"* nonnull align 1 dereferenceable(1) %47) #2, !llfi_index !594
  store i32* %48, i32** %13, align 8, !llfi_index !595
  %49 = load i32*, i32** %13, align 8, !llfi_index !596
  %50 = getelementptr inbounds i32, i32* %49, i32 1, !llfi_index !597
  store i32* %50, i32** %13, align 8, !llfi_index !598
  %51 = call nonnull align 8 dereferenceable(8) i32** @_ZNK9__gnu_cxx17__normal_iteratorIPiSt6vectorIiSaIiEEE4baseEv(%"class.__gnu_cxx::__normal_iterator"* nonnull align 8 dereferenceable(8) %4) #2, !llfi_index !599
  %52 = load i32*, i32** %51, align 8, !llfi_index !600
  %53 = load i32*, i32** %9, align 8, !llfi_index !601
  %54 = load i32*, i32** %13, align 8, !llfi_index !602
  %55 = bitcast %"class.std::vector"* %15 to %"struct.std::_Vector_base"*, !llfi_index !603
  %56 = call nonnull align 1 dereferenceable(1) %"class.std::allocator"* @_ZNSt12_Vector_baseIiSaIiEE19_M_get_Tp_allocatorEv(%"struct.std::_Vector_base"* nonnull align 8 dereferenceable(24) %55) #2, !llfi_index !604
  %57 = call i32* @_ZNSt6vectorIiSaIiEE11_S_relocateEPiS2_S2_RS0_(i32* %52, i32* %53, i32* %54, %"class.std::allocator"* nonnull align 1 dereferenceable(1) %56) #2, !llfi_index !605
  store i32* %57, i32** %13, align 8, !llfi_index !606
  %58 = bitcast %"class.std::vector"* %15 to %"struct.std::_Vector_base"*, !llfi_index !607
  %59 = load i32*, i32** %8, align 8, !llfi_index !608
  %60 = bitcast %"class.std::vector"* %15 to %"struct.std::_Vector_base"*, !llfi_index !609
  %61 = getelementptr inbounds %"struct.std::_Vector_base", %"struct.std::_Vector_base"* %60, i32 0, i32 0, !llfi_index !610
  %62 = bitcast %"struct.std::_Vector_base<int, std::allocator<int>>::_Vector_impl"* %61 to %"struct.std::_Vector_base<int, std::allocator<int>>::_Vector_impl_data"*, !llfi_index !611
  %63 = getelementptr inbounds %"struct.std::_Vector_base<int, std::allocator<int>>::_Vector_impl_data", %"struct.std::_Vector_base<int, std::allocator<int>>::_Vector_impl_data"* %62, i32 0, i32 2, !llfi_index !612
  %64 = load i32*, i32** %63, align 8, !llfi_index !613
  %65 = load i32*, i32** %8, align 8, !llfi_index !614
  %66 = ptrtoint i32* %64 to i64, !llfi_index !615
  %67 = ptrtoint i32* %65 to i64, !llfi_index !616
  %68 = sub i64 %66, %67, !llfi_index !617
  %69 = sdiv exact i64 %68, 4, !llfi_index !618
  call void @_ZNSt12_Vector_baseIiSaIiEE13_M_deallocateEPim(%"struct.std::_Vector_base"* nonnull align 8 dereferenceable(24) %58, i32* %59, i64 %69), !llfi_index !619
  %70 = load i32*, i32** %12, align 8, !llfi_index !620
  %71 = bitcast %"class.std::vector"* %15 to %"struct.std::_Vector_base"*, !llfi_index !621
  %72 = getelementptr inbounds %"struct.std::_Vector_base", %"struct.std::_Vector_base"* %71, i32 0, i32 0, !llfi_index !622
  %73 = bitcast %"struct.std::_Vector_base<int, std::allocator<int>>::_Vector_impl"* %72 to %"struct.std::_Vector_base<int, std::allocator<int>>::_Vector_impl_data"*, !llfi_index !623
  %74 = getelementptr inbounds %"struct.std::_Vector_base<int, std::allocator<int>>::_Vector_impl_data", %"struct.std::_Vector_base<int, std::allocator<int>>::_Vector_impl_data"* %73, i32 0, i32 0, !llfi_index !624
  store i32* %70, i32** %74, align 8, !llfi_index !625
  %75 = load i32*, i32** %13, align 8, !llfi_index !626
  %76 = bitcast %"class.std::vector"* %15 to %"struct.std::_Vector_base"*, !llfi_index !627
  %77 = getelementptr inbounds %"struct.std::_Vector_base", %"struct.std::_Vector_base"* %76, i32 0, i32 0, !llfi_index !628
  %78 = bitcast %"struct.std::_Vector_base<int, std::allocator<int>>::_Vector_impl"* %77 to %"struct.std::_Vector_base<int, std::allocator<int>>::_Vector_impl_data"*, !llfi_index !629
  %79 = getelementptr inbounds %"struct.std::_Vector_base<int, std::allocator<int>>::_Vector_impl_data", %"struct.std::_Vector_base<int, std::allocator<int>>::_Vector_impl_data"* %78, i32 0, i32 1, !llfi_index !630
  store i32* %75, i32** %79, align 8, !llfi_index !631
  %80 = load i32*, i32** %12, align 8, !llfi_index !632
  %81 = load i64, i64* %7, align 8, !llfi_index !633
  %82 = getelementptr inbounds i32, i32* %80, i64 %81, !llfi_index !634
  %83 = bitcast %"class.std::vector"* %15 to %"struct.std::_Vector_base"*, !llfi_index !635
  %84 = getelementptr inbounds %"struct.std::_Vector_base", %"struct.std::_Vector_base"* %83, i32 0, i32 0, !llfi_index !636
  %85 = bitcast %"struct.std::_Vector_base<int, std::allocator<int>>::_Vector_impl"* %84 to %"struct.std::_Vector_base<int, std::allocator<int>>::_Vector_impl_data"*, !llfi_index !637
  %86 = getelementptr inbounds %"struct.std::_Vector_base<int, std::allocator<int>>::_Vector_impl_data", %"struct.std::_Vector_base<int, std::allocator<int>>::_Vector_impl_data"* %85, i32 0, i32 2, !llfi_index !638
  store i32* %82, i32** %86, align 8, !llfi_index !639
  ret void, !llfi_index !640
}

; Function Attrs: mustprogress noinline uwtable
define linkonce_odr dso_local i64 @_ZNKSt6vectorIiSaIiEE12_M_check_lenEmPKc(%"class.std::vector"* nonnull align 8 dereferenceable(24) %0, i64 %1, i8* %2) #4 comdat align 2 {
  %4 = alloca %"class.std::vector"*, align 8, !llfi_index !641
  %5 = alloca i64, align 8, !llfi_index !642
  %6 = alloca i8*, align 8, !llfi_index !643
  %7 = alloca i64, align 8, !llfi_index !644
  %8 = alloca i64, align 8, !llfi_index !645
  store %"class.std::vector"* %0, %"class.std::vector"** %4, align 8, !llfi_index !646
  store i64 %1, i64* %5, align 8, !llfi_index !647
  store i8* %2, i8** %6, align 8, !llfi_index !648
  %9 = load %"class.std::vector"*, %"class.std::vector"** %4, align 8, !llfi_index !649
  %10 = call i64 @_ZNKSt6vectorIiSaIiEE8max_sizeEv(%"class.std::vector"* nonnull align 8 dereferenceable(24) %9) #2, !llfi_index !650
  %11 = call i64 @_ZNKSt6vectorIiSaIiEE4sizeEv(%"class.std::vector"* nonnull align 8 dereferenceable(24) %9) #2, !llfi_index !651
  %12 = sub i64 %10, %11, !llfi_index !652
  %13 = load i64, i64* %5, align 8, !llfi_index !653
  %14 = icmp ult i64 %12, %13, !llfi_index !654
  br i1 %14, label %15, label %17, !llfi_index !655

15:                                               ; preds = %3
  %16 = load i8*, i8** %6, align 8, !llfi_index !656
  call void @_ZSt20__throw_length_errorPKc(i8* %16) #15, !llfi_index !657
  unreachable, !llfi_index !658

17:                                               ; preds = %3
  %18 = call i64 @_ZNKSt6vectorIiSaIiEE4sizeEv(%"class.std::vector"* nonnull align 8 dereferenceable(24) %9) #2, !llfi_index !659
  %19 = call i64 @_ZNKSt6vectorIiSaIiEE4sizeEv(%"class.std::vector"* nonnull align 8 dereferenceable(24) %9) #2, !llfi_index !660
  store i64 %19, i64* %8, align 8, !llfi_index !661
  %20 = call nonnull align 8 dereferenceable(8) i64* @_ZSt3maxImERKT_S2_S2_(i64* nonnull align 8 dereferenceable(8) %8, i64* nonnull align 8 dereferenceable(8) %5), !llfi_index !662
  %21 = load i64, i64* %20, align 8, !llfi_index !663
  %22 = add i64 %18, %21, !llfi_index !664
  store i64 %22, i64* %7, align 8, !llfi_index !665
  %23 = load i64, i64* %7, align 8, !llfi_index !666
  %24 = call i64 @_ZNKSt6vectorIiSaIiEE4sizeEv(%"class.std::vector"* nonnull align 8 dereferenceable(24) %9) #2, !llfi_index !667
  %25 = icmp ult i64 %23, %24, !llfi_index !668
  br i1 %25, label %30, label %26, !llfi_index !669

26:                                               ; preds = %17
  %27 = load i64, i64* %7, align 8, !llfi_index !670
  %28 = call i64 @_ZNKSt6vectorIiSaIiEE8max_sizeEv(%"class.std::vector"* nonnull align 8 dereferenceable(24) %9) #2, !llfi_index !671
  %29 = icmp ugt i64 %27, %28, !llfi_index !672
  br i1 %29, label %30, label %32, !llfi_index !673

30:                                               ; preds = %26, %17
  %31 = call i64 @_ZNKSt6vectorIiSaIiEE8max_sizeEv(%"class.std::vector"* nonnull align 8 dereferenceable(24) %9) #2, !llfi_index !674
  br label %34, !llfi_index !675

32:                                               ; preds = %26
  %33 = load i64, i64* %7, align 8, !llfi_index !676
  br label %34, !llfi_index !677

34:                                               ; preds = %32, %30
  %35 = phi i64 [ %31, %30 ], [ %33, %32 ], !llfi_index !678
  ret i64 %35, !llfi_index !679
}

; Function Attrs: mustprogress noinline nounwind uwtable
define linkonce_odr dso_local i64 @_ZN9__gnu_cxxmiIPiSt6vectorIiSaIiEEEENS_17__normal_iteratorIT_T0_E15difference_typeERKS8_SB_(%"class.__gnu_cxx::__normal_iterator"* nonnull align 8 dereferenceable(8) %0, %"class.__gnu_cxx::__normal_iterator"* nonnull align 8 dereferenceable(8) %1) #3 comdat {
  %3 = alloca %"class.__gnu_cxx::__normal_iterator"*, align 8, !llfi_index !680
  %4 = alloca %"class.__gnu_cxx::__normal_iterator"*, align 8, !llfi_index !681
  store %"class.__gnu_cxx::__normal_iterator"* %0, %"class.__gnu_cxx::__normal_iterator"** %3, align 8, !llfi_index !682
  store %"class.__gnu_cxx::__normal_iterator"* %1, %"class.__gnu_cxx::__normal_iterator"** %4, align 8, !llfi_index !683
  %5 = load %"class.__gnu_cxx::__normal_iterator"*, %"class.__gnu_cxx::__normal_iterator"** %3, align 8, !llfi_index !684
  %6 = call nonnull align 8 dereferenceable(8) i32** @_ZNK9__gnu_cxx17__normal_iteratorIPiSt6vectorIiSaIiEEE4baseEv(%"class.__gnu_cxx::__normal_iterator"* nonnull align 8 dereferenceable(8) %5) #2, !llfi_index !685
  %7 = load i32*, i32** %6, align 8, !llfi_index !686
  %8 = load %"class.__gnu_cxx::__normal_iterator"*, %"class.__gnu_cxx::__normal_iterator"** %4, align 8, !llfi_index !687
  %9 = call nonnull align 8 dereferenceable(8) i32** @_ZNK9__gnu_cxx17__normal_iteratorIPiSt6vectorIiSaIiEEE4baseEv(%"class.__gnu_cxx::__normal_iterator"* nonnull align 8 dereferenceable(8) %8) #2, !llfi_index !688
  %10 = load i32*, i32** %9, align 8, !llfi_index !689
  %11 = ptrtoint i32* %7 to i64, !llfi_index !690
  %12 = ptrtoint i32* %10 to i64, !llfi_index !691
  %13 = sub i64 %11, %12, !llfi_index !692
  %14 = sdiv exact i64 %13, 4, !llfi_index !693
  ret i64 %14, !llfi_index !694
}

; Function Attrs: mustprogress noinline uwtable
define linkonce_odr dso_local i32* @_ZNSt12_Vector_baseIiSaIiEE11_M_allocateEm(%"struct.std::_Vector_base"* nonnull align 8 dereferenceable(24) %0, i64 %1) #4 comdat align 2 {
  %3 = alloca %"struct.std::_Vector_base"*, align 8, !llfi_index !695
  %4 = alloca i64, align 8, !llfi_index !696
  store %"struct.std::_Vector_base"* %0, %"struct.std::_Vector_base"** %3, align 8, !llfi_index !697
  store i64 %1, i64* %4, align 8, !llfi_index !698
  %5 = load %"struct.std::_Vector_base"*, %"struct.std::_Vector_base"** %3, align 8, !llfi_index !699
  %6 = load i64, i64* %4, align 8, !llfi_index !700
  %7 = icmp ne i64 %6, 0, !llfi_index !701
  br i1 %7, label %8, label %13, !llfi_index !702

8:                                                ; preds = %2
  %9 = getelementptr inbounds %"struct.std::_Vector_base", %"struct.std::_Vector_base"* %5, i32 0, i32 0, !llfi_index !703
  %10 = bitcast %"struct.std::_Vector_base<int, std::allocator<int>>::_Vector_impl"* %9 to %"class.std::allocator"*, !llfi_index !704
  %11 = load i64, i64* %4, align 8, !llfi_index !705
  %12 = call i32* @_ZNSt16allocator_traitsISaIiEE8allocateERS0_m(%"class.std::allocator"* nonnull align 1 dereferenceable(1) %10, i64 %11), !llfi_index !706
  br label %14, !llfi_index !707

13:                                               ; preds = %2
  br label %14, !llfi_index !708

14:                                               ; preds = %13, %8
  %15 = phi i32* [ %12, %8 ], [ null, %13 ], !llfi_index !709
  ret i32* %15, !llfi_index !710
}

; Function Attrs: mustprogress noinline nounwind uwtable
define linkonce_odr dso_local nonnull align 4 dereferenceable(4) i32* @_ZSt7forwardIRKiEOT_RNSt16remove_referenceIS2_E4typeE(i32* nonnull align 4 dereferenceable(4) %0) #3 comdat {
  %2 = alloca i32*, align 8, !llfi_index !711
  store i32* %0, i32** %2, align 8, !llfi_index !712
  %3 = load i32*, i32** %2, align 8, !llfi_index !713
  ret i32* %3, !llfi_index !714
}

; Function Attrs: mustprogress noinline nounwind uwtable
define linkonce_odr dso_local i32* @_ZNSt6vectorIiSaIiEE11_S_relocateEPiS2_S2_RS0_(i32* %0, i32* %1, i32* %2, %"class.std::allocator"* nonnull align 1 dereferenceable(1) %3) #3 comdat align 2 {
  %5 = alloca i32*, align 8, !llfi_index !715
  %6 = alloca i32*, align 8, !llfi_index !716
  %7 = alloca i32*, align 8, !llfi_index !717
  %8 = alloca %"class.std::allocator"*, align 8, !llfi_index !718
  %9 = alloca %"class.std::allocator", align 1, !llfi_index !719
  store i32* %0, i32** %5, align 8, !llfi_index !720
  store i32* %1, i32** %6, align 8, !llfi_index !721
  store i32* %2, i32** %7, align 8, !llfi_index !722
  store %"class.std::allocator"* %3, %"class.std::allocator"** %8, align 8, !llfi_index !723
  %10 = load i32*, i32** %5, align 8, !llfi_index !724
  %11 = load i32*, i32** %6, align 8, !llfi_index !725
  %12 = load i32*, i32** %7, align 8, !llfi_index !726
  %13 = load %"class.std::allocator"*, %"class.std::allocator"** %8, align 8, !llfi_index !727
  %14 = call i32* @_ZNSt6vectorIiSaIiEE14_S_do_relocateEPiS2_S2_RS0_St17integral_constantIbLb1EE(i32* %10, i32* %11, i32* %12, %"class.std::allocator"* nonnull align 1 dereferenceable(1) %13) #2, !llfi_index !728
  ret i32* %14, !llfi_index !729
}

; Function Attrs: mustprogress noinline nounwind uwtable
define linkonce_odr dso_local i32* @_ZNSt6vectorIiSaIiEE14_S_do_relocateEPiS2_S2_RS0_St17integral_constantIbLb1EE(i32* %0, i32* %1, i32* %2, %"class.std::allocator"* nonnull align 1 dereferenceable(1) %3) #3 comdat align 2 {
  %5 = alloca %"class.std::allocator", align 1, !llfi_index !730
  %6 = alloca i32*, align 8, !llfi_index !731
  %7 = alloca i32*, align 8, !llfi_index !732
  %8 = alloca i32*, align 8, !llfi_index !733
  %9 = alloca %"class.std::allocator"*, align 8, !llfi_index !734
  store i32* %0, i32** %6, align 8, !llfi_index !735
  store i32* %1, i32** %7, align 8, !llfi_index !736
  store i32* %2, i32** %8, align 8, !llfi_index !737
  store %"class.std::allocator"* %3, %"class.std::allocator"** %9, align 8, !llfi_index !738
  %10 = load i32*, i32** %6, align 8, !llfi_index !739
  %11 = load i32*, i32** %7, align 8, !llfi_index !740
  %12 = load i32*, i32** %8, align 8, !llfi_index !741
  %13 = load %"class.std::allocator"*, %"class.std::allocator"** %9, align 8, !llfi_index !742
  %14 = call i32* @_ZSt12__relocate_aIPiS0_SaIiEET0_T_S3_S2_RT1_(i32* %10, i32* %11, i32* %12, %"class.std::allocator"* nonnull align 1 dereferenceable(1) %13) #2, !llfi_index !743
  ret i32* %14, !llfi_index !744
}

; Function Attrs: mustprogress noinline nounwind uwtable
define linkonce_odr dso_local i32* @_ZSt12__relocate_aIPiS0_SaIiEET0_T_S3_S2_RT1_(i32* %0, i32* %1, i32* %2, %"class.std::allocator"* nonnull align 1 dereferenceable(1) %3) #3 comdat {
  %5 = alloca i32*, align 8, !llfi_index !745
  %6 = alloca i32*, align 8, !llfi_index !746
  %7 = alloca i32*, align 8, !llfi_index !747
  %8 = alloca %"class.std::allocator"*, align 8, !llfi_index !748
  store i32* %0, i32** %5, align 8, !llfi_index !749
  store i32* %1, i32** %6, align 8, !llfi_index !750
  store i32* %2, i32** %7, align 8, !llfi_index !751
  store %"class.std::allocator"* %3, %"class.std::allocator"** %8, align 8, !llfi_index !752
  %9 = load i32*, i32** %5, align 8, !llfi_index !753
  %10 = call i32* @_ZSt12__niter_baseIPiET_S1_(i32* %9) #2, !llfi_index !754
  %11 = load i32*, i32** %6, align 8, !llfi_index !755
  %12 = call i32* @_ZSt12__niter_baseIPiET_S1_(i32* %11) #2, !llfi_index !756
  %13 = load i32*, i32** %7, align 8, !llfi_index !757
  %14 = call i32* @_ZSt12__niter_baseIPiET_S1_(i32* %13) #2, !llfi_index !758
  %15 = load %"class.std::allocator"*, %"class.std::allocator"** %8, align 8, !llfi_index !759
  %16 = call i32* @_ZSt14__relocate_a_1IiiENSt9enable_ifIXsr3std24__is_bitwise_relocatableIT_EE5valueEPS1_E4typeES2_S2_S2_RSaIT0_E(i32* %10, i32* %12, i32* %14, %"class.std::allocator"* nonnull align 1 dereferenceable(1) %15) #2, !llfi_index !760
  ret i32* %16, !llfi_index !761
}

; Function Attrs: mustprogress noinline nounwind uwtable
define linkonce_odr dso_local i32* @_ZSt12__niter_baseIPiET_S1_(i32* %0) #3 comdat {
  %2 = alloca i32*, align 8, !llfi_index !762
  store i32* %0, i32** %2, align 8, !llfi_index !763
  %3 = load i32*, i32** %2, align 8, !llfi_index !764
  ret i32* %3, !llfi_index !765
}

; Function Attrs: mustprogress noinline nounwind uwtable
define linkonce_odr dso_local i32* @_ZSt14__relocate_a_1IiiENSt9enable_ifIXsr3std24__is_bitwise_relocatableIT_EE5valueEPS1_E4typeES2_S2_S2_RSaIT0_E(i32* %0, i32* %1, i32* %2, %"class.std::allocator"* nonnull align 1 dereferenceable(1) %3) #3 comdat {
  %5 = alloca i32*, align 8, !llfi_index !766
  %6 = alloca i32*, align 8, !llfi_index !767
  %7 = alloca i32*, align 8, !llfi_index !768
  %8 = alloca %"class.std::allocator"*, align 8, !llfi_index !769
  %9 = alloca i64, align 8, !llfi_index !770
  store i32* %0, i32** %5, align 8, !llfi_index !771
  store i32* %1, i32** %6, align 8, !llfi_index !772
  store i32* %2, i32** %7, align 8, !llfi_index !773
  store %"class.std::allocator"* %3, %"class.std::allocator"** %8, align 8, !llfi_index !774
  %10 = load i32*, i32** %6, align 8, !llfi_index !775
  %11 = load i32*, i32** %5, align 8, !llfi_index !776
  %12 = ptrtoint i32* %10 to i64, !llfi_index !777
  %13 = ptrtoint i32* %11 to i64, !llfi_index !778
  %14 = sub i64 %12, %13, !llfi_index !779
  %15 = sdiv exact i64 %14, 4, !llfi_index !780
  store i64 %15, i64* %9, align 8, !llfi_index !781
  %16 = load i64, i64* %9, align 8, !llfi_index !782
  %17 = icmp sgt i64 %16, 0, !llfi_index !783
  br i1 %17, label %18, label %25, !llfi_index !784

18:                                               ; preds = %4
  %19 = load i32*, i32** %7, align 8, !llfi_index !785
  %20 = bitcast i32* %19 to i8*, !llfi_index !786
  %21 = load i32*, i32** %5, align 8, !llfi_index !787
  %22 = bitcast i32* %21 to i8*, !llfi_index !788
  %23 = load i64, i64* %9, align 8, !llfi_index !789
  %24 = mul i64 %23, 4, !llfi_index !790
  call void @llvm.memmove.p0i8.p0i8.i64(i8* align 4 %20, i8* align 4 %22, i64 %24, i1 false), !llfi_index !791
  br label %25, !llfi_index !792

25:                                               ; preds = %18, %4
  %26 = load i32*, i32** %7, align 8, !llfi_index !793
  %27 = load i64, i64* %9, align 8, !llfi_index !794
  %28 = getelementptr inbounds i32, i32* %26, i64 %27, !llfi_index !795
  ret i32* %28, !llfi_index !796
}

; Function Attrs: argmemonly nofree nounwind willreturn
declare void @llvm.memmove.p0i8.p0i8.i64(i8* nocapture writeonly, i8* nocapture readonly, i64, i1 immarg) #9

; Function Attrs: mustprogress noinline uwtable
define linkonce_odr dso_local i32* @_ZNSt16allocator_traitsISaIiEE8allocateERS0_m(%"class.std::allocator"* nonnull align 1 dereferenceable(1) %0, i64 %1) #4 comdat align 2 {
  %3 = alloca %"class.std::allocator"*, align 8, !llfi_index !797
  %4 = alloca i64, align 8, !llfi_index !798
  store %"class.std::allocator"* %0, %"class.std::allocator"** %3, align 8, !llfi_index !799
  store i64 %1, i64* %4, align 8, !llfi_index !800
  %5 = load %"class.std::allocator"*, %"class.std::allocator"** %3, align 8, !llfi_index !801
  %6 = bitcast %"class.std::allocator"* %5 to %"class.std::allocator"*, !llfi_index !802
  %7 = load i64, i64* %4, align 8, !llfi_index !803
  %8 = call i32* @_ZN9__gnu_cxx13new_allocatorIiE8allocateEmPKv(%"class.std::allocator"* nonnull align 1 dereferenceable(1) %6, i64 %7, i8* null), !llfi_index !804
  ret i32* %8, !llfi_index !805
}

; Function Attrs: mustprogress noinline uwtable
define linkonce_odr dso_local i32* @_ZN9__gnu_cxx13new_allocatorIiE8allocateEmPKv(%"class.std::allocator"* nonnull align 1 dereferenceable(1) %0, i64 %1, i8* %2) #4 comdat align 2 {
  %4 = alloca %"class.std::allocator"*, align 8, !llfi_index !806
  %5 = alloca i64, align 8, !llfi_index !807
  %6 = alloca i8*, align 8, !llfi_index !808
  store %"class.std::allocator"* %0, %"class.std::allocator"** %4, align 8, !llfi_index !809
  store i64 %1, i64* %5, align 8, !llfi_index !810
  store i8* %2, i8** %6, align 8, !llfi_index !811
  %7 = load %"class.std::allocator"*, %"class.std::allocator"** %4, align 8, !llfi_index !812
  %8 = load i64, i64* %5, align 8, !llfi_index !813
  %9 = call i64 @_ZNK9__gnu_cxx13new_allocatorIiE8max_sizeEv(%"class.std::allocator"* nonnull align 1 dereferenceable(1) %7) #2, !llfi_index !814
  %10 = icmp ugt i64 %8, %9, !llfi_index !815
  br i1 %10, label %11, label %12, !llfi_index !816

11:                                               ; preds = %3
  call void @_ZSt17__throw_bad_allocv() #15, !llfi_index !817
  unreachable, !llfi_index !818

12:                                               ; preds = %3
  %13 = load i64, i64* %5, align 8, !llfi_index !819
  %14 = mul i64 %13, 4, !llfi_index !820
  %15 = call noalias nonnull i8* @_Znwm(i64 %14) #16, !llfi_index !821
  %16 = bitcast i8* %15 to i32*, !llfi_index !822
  ret i32* %16, !llfi_index !823
}

; Function Attrs: mustprogress noinline nounwind uwtable
define linkonce_odr dso_local i64 @_ZNK9__gnu_cxx13new_allocatorIiE8max_sizeEv(%"class.std::allocator"* nonnull align 1 dereferenceable(1) %0) #3 comdat align 2 {
  %2 = alloca %"class.std::allocator"*, align 8, !llfi_index !824
  store %"class.std::allocator"* %0, %"class.std::allocator"** %2, align 8, !llfi_index !825
  %3 = load %"class.std::allocator"*, %"class.std::allocator"** %2, align 8, !llfi_index !826
  ret i64 2305843009213693951, !llfi_index !827
}

; Function Attrs: noreturn
declare dso_local void @_ZSt17__throw_bad_allocv() #10

; Function Attrs: nobuiltin allocsize(0)
declare dso_local nonnull i8* @_Znwm(i64) #11

; Function Attrs: mustprogress noinline nounwind uwtable
define linkonce_odr dso_local i64 @_ZNKSt6vectorIiSaIiEE8max_sizeEv(%"class.std::vector"* nonnull align 8 dereferenceable(24) %0) #3 comdat align 2 {
  %2 = alloca %"class.std::vector"*, align 8, !llfi_index !828
  store %"class.std::vector"* %0, %"class.std::vector"** %2, align 8, !llfi_index !829
  %3 = load %"class.std::vector"*, %"class.std::vector"** %2, align 8, !llfi_index !830
  %4 = bitcast %"class.std::vector"* %3 to %"struct.std::_Vector_base"*, !llfi_index !831
  %5 = call nonnull align 1 dereferenceable(1) %"class.std::allocator"* @_ZNKSt12_Vector_baseIiSaIiEE19_M_get_Tp_allocatorEv(%"struct.std::_Vector_base"* nonnull align 8 dereferenceable(24) %4) #2, !llfi_index !832
  %6 = call i64 @_ZNSt6vectorIiSaIiEE11_S_max_sizeERKS0_(%"class.std::allocator"* nonnull align 1 dereferenceable(1) %5) #2, !llfi_index !833
  ret i64 %6, !llfi_index !834
}

; Function Attrs: mustprogress noinline nounwind uwtable
define linkonce_odr dso_local i64 @_ZNKSt6vectorIiSaIiEE4sizeEv(%"class.std::vector"* nonnull align 8 dereferenceable(24) %0) #3 comdat align 2 {
  %2 = alloca %"class.std::vector"*, align 8, !llfi_index !835
  store %"class.std::vector"* %0, %"class.std::vector"** %2, align 8, !llfi_index !836
  %3 = load %"class.std::vector"*, %"class.std::vector"** %2, align 8, !llfi_index !837
  %4 = bitcast %"class.std::vector"* %3 to %"struct.std::_Vector_base"*, !llfi_index !838
  %5 = getelementptr inbounds %"struct.std::_Vector_base", %"struct.std::_Vector_base"* %4, i32 0, i32 0, !llfi_index !839
  %6 = bitcast %"struct.std::_Vector_base<int, std::allocator<int>>::_Vector_impl"* %5 to %"struct.std::_Vector_base<int, std::allocator<int>>::_Vector_impl_data"*, !llfi_index !840
  %7 = getelementptr inbounds %"struct.std::_Vector_base<int, std::allocator<int>>::_Vector_impl_data", %"struct.std::_Vector_base<int, std::allocator<int>>::_Vector_impl_data"* %6, i32 0, i32 1, !llfi_index !841
  %8 = load i32*, i32** %7, align 8, !llfi_index !842
  %9 = bitcast %"class.std::vector"* %3 to %"struct.std::_Vector_base"*, !llfi_index !843
  %10 = getelementptr inbounds %"struct.std::_Vector_base", %"struct.std::_Vector_base"* %9, i32 0, i32 0, !llfi_index !844
  %11 = bitcast %"struct.std::_Vector_base<int, std::allocator<int>>::_Vector_impl"* %10 to %"struct.std::_Vector_base<int, std::allocator<int>>::_Vector_impl_data"*, !llfi_index !845
  %12 = getelementptr inbounds %"struct.std::_Vector_base<int, std::allocator<int>>::_Vector_impl_data", %"struct.std::_Vector_base<int, std::allocator<int>>::_Vector_impl_data"* %11, i32 0, i32 0, !llfi_index !846
  %13 = load i32*, i32** %12, align 8, !llfi_index !847
  %14 = ptrtoint i32* %8 to i64, !llfi_index !848
  %15 = ptrtoint i32* %13 to i64, !llfi_index !849
  %16 = sub i64 %14, %15, !llfi_index !850
  %17 = sdiv exact i64 %16, 4, !llfi_index !851
  ret i64 %17, !llfi_index !852
}

; Function Attrs: noreturn
declare dso_local void @_ZSt20__throw_length_errorPKc(i8*) #10

; Function Attrs: mustprogress noinline nounwind uwtable
define linkonce_odr dso_local nonnull align 8 dereferenceable(8) i64* @_ZSt3maxImERKT_S2_S2_(i64* nonnull align 8 dereferenceable(8) %0, i64* nonnull align 8 dereferenceable(8) %1) #3 comdat {
  %3 = alloca i64*, align 8, !llfi_index !853
  %4 = alloca i64*, align 8, !llfi_index !854
  %5 = alloca i64*, align 8, !llfi_index !855
  store i64* %0, i64** %4, align 8, !llfi_index !856
  store i64* %1, i64** %5, align 8, !llfi_index !857
  %6 = load i64*, i64** %4, align 8, !llfi_index !858
  %7 = load i64, i64* %6, align 8, !llfi_index !859
  %8 = load i64*, i64** %5, align 8, !llfi_index !860
  %9 = load i64, i64* %8, align 8, !llfi_index !861
  %10 = icmp ult i64 %7, %9, !llfi_index !862
  br i1 %10, label %11, label %13, !llfi_index !863

11:                                               ; preds = %2
  %12 = load i64*, i64** %5, align 8, !llfi_index !864
  store i64* %12, i64** %3, align 8, !llfi_index !865
  br label %15, !llfi_index !866

13:                                               ; preds = %2
  %14 = load i64*, i64** %4, align 8, !llfi_index !867
  store i64* %14, i64** %3, align 8, !llfi_index !868
  br label %15, !llfi_index !869

15:                                               ; preds = %13, %11
  %16 = load i64*, i64** %3, align 8, !llfi_index !870
  ret i64* %16, !llfi_index !871
}

; Function Attrs: mustprogress noinline nounwind uwtable
define linkonce_odr dso_local nonnull align 1 dereferenceable(1) %"class.std::allocator"* @_ZNKSt12_Vector_baseIiSaIiEE19_M_get_Tp_allocatorEv(%"struct.std::_Vector_base"* nonnull align 8 dereferenceable(24) %0) #3 comdat align 2 {
  %2 = alloca %"struct.std::_Vector_base"*, align 8, !llfi_index !872
  store %"struct.std::_Vector_base"* %0, %"struct.std::_Vector_base"** %2, align 8, !llfi_index !873
  %3 = load %"struct.std::_Vector_base"*, %"struct.std::_Vector_base"** %2, align 8, !llfi_index !874
  %4 = getelementptr inbounds %"struct.std::_Vector_base", %"struct.std::_Vector_base"* %3, i32 0, i32 0, !llfi_index !875
  %5 = bitcast %"struct.std::_Vector_base<int, std::allocator<int>>::_Vector_impl"* %4 to %"class.std::allocator"*, !llfi_index !876
  ret %"class.std::allocator"* %5, !llfi_index !877
}

; Function Attrs: mustprogress noinline nounwind uwtable
define linkonce_odr dso_local i64 @_ZNSt6vectorIiSaIiEE11_S_max_sizeERKS0_(%"class.std::allocator"* nonnull align 1 dereferenceable(1) %0) #3 comdat align 2 personality i8* bitcast (i32 (...)* @__gxx_personality_v0 to i8*) {
  %2 = alloca %"class.std::allocator"*, align 8, !llfi_index !878
  %3 = alloca i64, align 8, !llfi_index !879
  %4 = alloca i64, align 8, !llfi_index !880
  store %"class.std::allocator"* %0, %"class.std::allocator"** %2, align 8, !llfi_index !881
  store i64 2305843009213693951, i64* %3, align 8, !llfi_index !882
  %5 = load %"class.std::allocator"*, %"class.std::allocator"** %2, align 8, !llfi_index !883
  %6 = call i64 @_ZNSt16allocator_traitsISaIiEE8max_sizeERKS0_(%"class.std::allocator"* nonnull align 1 dereferenceable(1) %5) #2, !llfi_index !884
  store i64 %6, i64* %4, align 8, !llfi_index !885
  %7 = invoke nonnull align 8 dereferenceable(8) i64* @_ZSt3minImERKT_S2_S2_(i64* nonnull align 8 dereferenceable(8) %3, i64* nonnull align 8 dereferenceable(8) %4)
          to label %8 unwind label %10, !llfi_index !886

8:                                                ; preds = %1
  %9 = load i64, i64* %7, align 8, !llfi_index !887
  ret i64 %9, !llfi_index !888

10:                                               ; preds = %1
  %11 = landingpad { i8*, i32 }
          catch i8* null, !llfi_index !889
  %12 = extractvalue { i8*, i32 } %11, 0, !llfi_index !890
  call void @__clang_call_terminate(i8* %12) #14, !llfi_index !891
  unreachable, !llfi_index !892
}

; Function Attrs: mustprogress noinline nounwind uwtable
define linkonce_odr dso_local i64 @_ZNSt16allocator_traitsISaIiEE8max_sizeERKS0_(%"class.std::allocator"* nonnull align 1 dereferenceable(1) %0) #3 comdat align 2 {
  %2 = alloca %"class.std::allocator"*, align 8, !llfi_index !893
  store %"class.std::allocator"* %0, %"class.std::allocator"** %2, align 8, !llfi_index !894
  %3 = load %"class.std::allocator"*, %"class.std::allocator"** %2, align 8, !llfi_index !895
  %4 = bitcast %"class.std::allocator"* %3 to %"class.std::allocator"*, !llfi_index !896
  %5 = call i64 @_ZNK9__gnu_cxx13new_allocatorIiE8max_sizeEv(%"class.std::allocator"* nonnull align 1 dereferenceable(1) %4) #2, !llfi_index !897
  ret i64 %5, !llfi_index !898
}

; Function Attrs: mustprogress noinline nounwind uwtable
define linkonce_odr dso_local nonnull align 8 dereferenceable(8) i64* @_ZSt3minImERKT_S2_S2_(i64* nonnull align 8 dereferenceable(8) %0, i64* nonnull align 8 dereferenceable(8) %1) #3 comdat {
  %3 = alloca i64*, align 8, !llfi_index !899
  %4 = alloca i64*, align 8, !llfi_index !900
  %5 = alloca i64*, align 8, !llfi_index !901
  store i64* %0, i64** %4, align 8, !llfi_index !902
  store i64* %1, i64** %5, align 8, !llfi_index !903
  %6 = load i64*, i64** %5, align 8, !llfi_index !904
  %7 = load i64, i64* %6, align 8, !llfi_index !905
  %8 = load i64*, i64** %4, align 8, !llfi_index !906
  %9 = load i64, i64* %8, align 8, !llfi_index !907
  %10 = icmp ult i64 %7, %9, !llfi_index !908
  br i1 %10, label %11, label %13, !llfi_index !909

11:                                               ; preds = %2
  %12 = load i64*, i64** %5, align 8, !llfi_index !910
  store i64* %12, i64** %3, align 8, !llfi_index !911
  br label %15, !llfi_index !912

13:                                               ; preds = %2
  %14 = load i64*, i64** %4, align 8, !llfi_index !913
  store i64* %14, i64** %3, align 8, !llfi_index !914
  br label %15, !llfi_index !915

15:                                               ; preds = %13, %11
  %16 = load i64*, i64** %3, align 8, !llfi_index !916
  ret i64* %16, !llfi_index !917
}

; Function Attrs: mustprogress noinline nounwind uwtable
define linkonce_odr dso_local void @_ZN9__gnu_cxx13new_allocatorIiE9constructIiJRKiEEEvPT_DpOT0_(%"class.std::allocator"* nonnull align 1 dereferenceable(1) %0, i32* %1, i32* nonnull align 4 dereferenceable(4) %2) #3 comdat align 2 {
  %4 = alloca %"class.std::allocator"*, align 8, !llfi_index !918
  %5 = alloca i32*, align 8, !llfi_index !919
  %6 = alloca i32*, align 8, !llfi_index !920
  store %"class.std::allocator"* %0, %"class.std::allocator"** %4, align 8, !llfi_index !921
  store i32* %1, i32** %5, align 8, !llfi_index !922
  store i32* %2, i32** %6, align 8, !llfi_index !923
  %7 = load %"class.std::allocator"*, %"class.std::allocator"** %4, align 8, !llfi_index !924
  %8 = load i32*, i32** %5, align 8, !llfi_index !925
  %9 = bitcast i32* %8 to i8*, !llfi_index !926
  %10 = bitcast i8* %9 to i32*, !llfi_index !927
  %11 = load i32*, i32** %6, align 8, !llfi_index !928
  %12 = call nonnull align 4 dereferenceable(4) i32* @_ZSt7forwardIRKiEOT_RNSt16remove_referenceIS2_E4typeE(i32* nonnull align 4 dereferenceable(4) %11) #2, !llfi_index !929
  %13 = load i32, i32* %12, align 4, !llfi_index !930
  store i32 %13, i32* %10, align 4, !llfi_index !931
  ret void, !llfi_index !932
}

; Function Attrs: mustprogress noinline uwtable
define dso_local void @_Z5reco2ii(i32 %0, i32 %1) #4 {
  %3 = alloca i32, align 4, !llfi_index !933
  %4 = alloca i32, align 4, !llfi_index !934
  %5 = alloca %"class.std::vector"*, align 8, !llfi_index !935
  %6 = alloca %"class.__gnu_cxx::__normal_iterator", align 8, !llfi_index !936
  %7 = alloca %"class.__gnu_cxx::__normal_iterator", align 8, !llfi_index !937
  %8 = alloca i32, align 4, !llfi_index !938
  store i32 %0, i32* %3, align 4, !llfi_index !939
  store i32 %1, i32* %4, align 4, !llfi_index !940
  call void @_ZNSt6vectorIiSaIiEE9push_backERKi(%"class.std::vector"* nonnull align 8 dereferenceable(24) @sol, i32* nonnull align 4 dereferenceable(4) %3), !llfi_index !941
  %9 = load i32, i32* %3, align 4, !llfi_index !942
  %10 = sext i32 %9 to i64, !llfi_index !943
  %11 = getelementptr inbounds [100005 x %"class.std::vector"], [100005 x %"class.std::vector"]* @graph, i64 0, i64 %10, !llfi_index !944
  store %"class.std::vector"* %11, %"class.std::vector"** %5, align 8, !llfi_index !945
  %12 = load %"class.std::vector"*, %"class.std::vector"** %5, align 8, !llfi_index !946
  %13 = call i32* @_ZNSt6vectorIiSaIiEE5beginEv(%"class.std::vector"* nonnull align 8 dereferenceable(24) %12) #2, !llfi_index !947
  %14 = getelementptr inbounds %"class.__gnu_cxx::__normal_iterator", %"class.__gnu_cxx::__normal_iterator"* %6, i32 0, i32 0, !llfi_index !948
  store i32* %13, i32** %14, align 8, !llfi_index !949
  %15 = load %"class.std::vector"*, %"class.std::vector"** %5, align 8, !llfi_index !950
  %16 = call i32* @_ZNSt6vectorIiSaIiEE3endEv(%"class.std::vector"* nonnull align 8 dereferenceable(24) %15) #2, !llfi_index !951
  %17 = getelementptr inbounds %"class.__gnu_cxx::__normal_iterator", %"class.__gnu_cxx::__normal_iterator"* %7, i32 0, i32 0, !llfi_index !952
  store i32* %16, i32** %17, align 8, !llfi_index !953
  br label %18, !llfi_index !954

18:                                               ; preds = %36, %2
  %19 = call zeroext i1 @_ZN9__gnu_cxxneIPiSt6vectorIiSaIiEEEEbRKNS_17__normal_iteratorIT_T0_EESA_(%"class.__gnu_cxx::__normal_iterator"* nonnull align 8 dereferenceable(8) %6, %"class.__gnu_cxx::__normal_iterator"* nonnull align 8 dereferenceable(8) %7) #2, !llfi_index !955
  br i1 %19, label %20, label %38, !llfi_index !956

20:                                               ; preds = %18
  %21 = call nonnull align 4 dereferenceable(4) i32* @_ZNK9__gnu_cxx17__normal_iteratorIPiSt6vectorIiSaIiEEEdeEv(%"class.__gnu_cxx::__normal_iterator"* nonnull align 8 dereferenceable(8) %6) #2, !llfi_index !957
  %22 = load i32, i32* %21, align 4, !llfi_index !958
  store i32 %22, i32* %8, align 4, !llfi_index !959
  %23 = load i32, i32* %8, align 4, !llfi_index !960
  %24 = load i32, i32* %4, align 4, !llfi_index !961
  %25 = icmp ne i32 %23, %24, !llfi_index !962
  br i1 %25, label %26, label %35, !llfi_index !963

26:                                               ; preds = %20
  %27 = load i32, i32* %8, align 4, !llfi_index !964
  %28 = sext i32 %27 to i64, !llfi_index !965
  %29 = getelementptr inbounds [100005 x i32], [100005 x i32]* @dp2, i64 0, i64 %28, !llfi_index !966
  %30 = load i32, i32* %29, align 4, !llfi_index !967
  %31 = icmp sgt i32 %30, 0, !llfi_index !968
  br i1 %31, label %32, label %35, !llfi_index !969

32:                                               ; preds = %26
  %33 = load i32, i32* %8, align 4, !llfi_index !970
  %34 = load i32, i32* %3, align 4, !llfi_index !971
  call void @_Z5reco2ii(i32 %33, i32 %34), !llfi_index !972
  br label %35, !llfi_index !973

35:                                               ; preds = %32, %26, %20
  br label %36, !llfi_index !974

36:                                               ; preds = %35
  %37 = call nonnull align 8 dereferenceable(8) %"class.__gnu_cxx::__normal_iterator"* @_ZN9__gnu_cxx17__normal_iteratorIPiSt6vectorIiSaIiEEEppEv(%"class.__gnu_cxx::__normal_iterator"* nonnull align 8 dereferenceable(8) %6) #2, !llfi_index !975
  br label %18, !llfi_index !976

38:                                               ; preds = %18
  ret void, !llfi_index !977
}

; Function Attrs: mustprogress noinline norecurse uwtable
define dso_local i32 @main() #12 {
  %1 = alloca i32, align 4, !llfi_index !978
  %2 = alloca i32, align 4, !llfi_index !979
  %3 = alloca i32, align 4, !llfi_index !980
  %4 = alloca i32, align 4, !llfi_index !981
  %5 = alloca i8, align 1, !llfi_index !982
  %6 = alloca i32, align 4, !llfi_index !983
  %7 = alloca i32, align 4, !llfi_index !984
  %8 = alloca i32, align 4, !llfi_index !985
  %9 = alloca %"class.__gnu_cxx::__normal_iterator", align 8, !llfi_index !986
  %10 = alloca %"class.__gnu_cxx::__normal_iterator", align 8, !llfi_index !987
  %11 = alloca %"class.__gnu_cxx::__normal_iterator", align 8, !llfi_index !988
  %12 = alloca %"class.__gnu_cxx::__normal_iterator", align 8, !llfi_index !989
  %13 = alloca i32, align 4, !llfi_index !990
  store i32 0, i32* %1, align 4, !llfi_index !991
  %14 = load %struct._IO_FILE*, %struct._IO_FILE** @stdin, align 8, !llfi_index !992
  %15 = call %struct._IO_FILE* @freopen(i8* getelementptr inbounds ([30 x i8], [30 x i8]* @.str, i64 0, i64 0), i8* getelementptr inbounds ([2 x i8], [2 x i8]* @.str.3, i64 0, i64 0), %struct._IO_FILE* %14), !llfi_index !993
  %16 = call nonnull align 8 dereferenceable(16) %"class.std::basic_istream"* @_ZNSirsERi(%"class.std::basic_istream"* nonnull align 8 dereferenceable(16) @_ZSt3cin, i32* nonnull align 4 dereferenceable(4) %2), !llfi_index !994
  store i32 89, i32* %3, align 4, !llfi_index !995
  store i32 1, i32* %4, align 4, !llfi_index !996
  br label %17, !llfi_index !997

17:                                               ; preds = %34, %0
  %18 = load i32, i32* %4, align 4, !llfi_index !998
  %19 = load i32, i32* %2, align 4, !llfi_index !999
  %20 = icmp sle i32 %18, %19, !llfi_index !1000
  br i1 %20, label %21, label %37, !llfi_index !1001

21:                                               ; preds = %17
  %22 = call nonnull align 8 dereferenceable(16) %"class.std::basic_istream"* @_ZNSirsERb(%"class.std::basic_istream"* nonnull align 8 dereferenceable(16) @_ZSt3cin, i8* nonnull align 1 dereferenceable(1) %5), !llfi_index !1002
  %23 = load i8, i8* %5, align 1, !llfi_index !1003
  %24 = trunc i8 %23 to i1, !llfi_index !1004
  br i1 %24, label %29, label %25, !llfi_index !1005

25:                                               ; preds = %21
  %26 = load i32, i32* %4, align 4, !llfi_index !1006
  %27 = sext i32 %26 to i64, !llfi_index !1007
  %28 = getelementptr inbounds [100005 x i32], [100005 x i32]* @color, i64 0, i64 %27, !llfi_index !1008
  store i32 1, i32* %28, align 4, !llfi_index !1009
  br label %33, !llfi_index !1010

29:                                               ; preds = %21
  %30 = load i32, i32* %4, align 4, !llfi_index !1011
  %31 = sext i32 %30 to i64, !llfi_index !1012
  %32 = getelementptr inbounds [100005 x i32], [100005 x i32]* @color, i64 0, i64 %31, !llfi_index !1013
  store i32 -1, i32* %32, align 4, !llfi_index !1014
  br label %33, !llfi_index !1015

33:                                               ; preds = %29, %25
  br label %34, !llfi_index !1016

34:                                               ; preds = %33
  %35 = load i32, i32* %4, align 4, !llfi_index !1017
  %36 = add nsw i32 %35, 1, !llfi_index !1018
  store i32 %36, i32* %4, align 4, !llfi_index !1019
  br label %17, !llvm.loop !1020, !llfi_index !1022

37:                                               ; preds = %17
  store i32 89, i32* %3, align 4, !llfi_index !1023
  store i32 1, i32* %6, align 4, !llfi_index !1024
  br label %38, !llfi_index !1025

38:                                               ; preds = %51, %37
  %39 = load i32, i32* %6, align 4, !llfi_index !1026
  %40 = load i32, i32* %2, align 4, !llfi_index !1027
  %41 = icmp slt i32 %39, %40, !llfi_index !1028
  br i1 %41, label %42, label %54, !llfi_index !1029

42:                                               ; preds = %38
  %43 = call nonnull align 8 dereferenceable(16) %"class.std::basic_istream"* @_ZNSirsERi(%"class.std::basic_istream"* nonnull align 8 dereferenceable(16) @_ZSt3cin, i32* nonnull align 4 dereferenceable(4) %7), !llfi_index !1030
  %44 = call nonnull align 8 dereferenceable(16) %"class.std::basic_istream"* @_ZNSirsERi(%"class.std::basic_istream"* nonnull align 8 dereferenceable(16) %43, i32* nonnull align 4 dereferenceable(4) %8), !llfi_index !1031
  %45 = load i32, i32* %7, align 4, !llfi_index !1032
  %46 = sext i32 %45 to i64, !llfi_index !1033
  %47 = getelementptr inbounds [100005 x %"class.std::vector"], [100005 x %"class.std::vector"]* @graph, i64 0, i64 %46, !llfi_index !1034
  call void @_ZNSt6vectorIiSaIiEE9push_backERKi(%"class.std::vector"* nonnull align 8 dereferenceable(24) %47, i32* nonnull align 4 dereferenceable(4) %8), !llfi_index !1035
  %48 = load i32, i32* %8, align 4, !llfi_index !1036
  %49 = sext i32 %48 to i64, !llfi_index !1037
  %50 = getelementptr inbounds [100005 x %"class.std::vector"], [100005 x %"class.std::vector"]* @graph, i64 0, i64 %49, !llfi_index !1038
  call void @_ZNSt6vectorIiSaIiEE9push_backERKi(%"class.std::vector"* nonnull align 8 dereferenceable(24) %50, i32* nonnull align 4 dereferenceable(4) %7), !llfi_index !1039
  br label %51, !llfi_index !1040

51:                                               ; preds = %42
  %52 = load i32, i32* %6, align 4, !llfi_index !1041
  %53 = add nsw i32 %52, 1, !llfi_index !1042
  store i32 %53, i32* %6, align 4, !llfi_index !1043
  br label %38, !llvm.loop !1044, !llfi_index !1045

54:                                               ; preds = %38
  call void @_Z3dfsii(i32 1, i32 0), !llfi_index !1046
  %55 = load i32, i32* @ans1, align 4, !llfi_index !1047
  %56 = load i32, i32* @ans2, align 4, !llfi_index !1048
  %57 = icmp sgt i32 %55, %56, !llfi_index !1049
  br i1 %57, label %58, label %75, !llfi_index !1050

58:                                               ; preds = %54
  %59 = load i32, i32* @ans1, align 4, !llfi_index !1051
  %60 = call nonnull align 8 dereferenceable(8) %"class.std::basic_ostream"* @_ZNSolsEi(%"class.std::basic_ostream"* nonnull align 8 dereferenceable(8) @_ZSt4cout, i32 %59), !llfi_index !1052
  %61 = call nonnull align 8 dereferenceable(8) %"class.std::basic_ostream"* @_ZStlsISt11char_traitsIcEERSt13basic_ostreamIcT_ES5_c(%"class.std::basic_ostream"* nonnull align 8 dereferenceable(8) %60, i8 signext 10), !llfi_index !1053
  %62 = load i32, i32* @where1, align 4, !llfi_index !1054
  %63 = load i32, i32* @where1, align 4, !llfi_index !1055
  %64 = sext i32 %63 to i64, !llfi_index !1056
  %65 = getelementptr inbounds [100005 x i32], [100005 x i32]* @f, i64 0, i64 %64, !llfi_index !1057
  %66 = load i32, i32* %65, align 4, !llfi_index !1058
  call void @_Z5reco1ii(i32 %62, i32 %66), !llfi_index !1059
  %67 = call i32* @_ZNSt6vectorIiSaIiEE5beginEv(%"class.std::vector"* nonnull align 8 dereferenceable(24) @sol) #2, !llfi_index !1060
  %68 = getelementptr inbounds %"class.__gnu_cxx::__normal_iterator", %"class.__gnu_cxx::__normal_iterator"* %9, i32 0, i32 0, !llfi_index !1061
  store i32* %67, i32** %68, align 8, !llfi_index !1062
  %69 = call i32* @_ZNSt6vectorIiSaIiEE3endEv(%"class.std::vector"* nonnull align 8 dereferenceable(24) @sol) #2, !llfi_index !1063
  %70 = getelementptr inbounds %"class.__gnu_cxx::__normal_iterator", %"class.__gnu_cxx::__normal_iterator"* %10, i32 0, i32 0, !llfi_index !1064
  store i32* %69, i32** %70, align 8, !llfi_index !1065
  %71 = getelementptr inbounds %"class.__gnu_cxx::__normal_iterator", %"class.__gnu_cxx::__normal_iterator"* %9, i32 0, i32 0, !llfi_index !1066
  %72 = load i32*, i32** %71, align 8, !llfi_index !1067
  %73 = getelementptr inbounds %"class.__gnu_cxx::__normal_iterator", %"class.__gnu_cxx::__normal_iterator"* %10, i32 0, i32 0, !llfi_index !1068
  %74 = load i32*, i32** %73, align 8, !llfi_index !1069
  call void @_ZSt4sortIN9__gnu_cxx17__normal_iteratorIPiSt6vectorIiSaIiEEEEEvT_S7_(i32* %72, i32* %74), !llfi_index !1070
  br label %92, !llfi_index !1071

75:                                               ; preds = %54
  %76 = load i32, i32* @ans2, align 4, !llfi_index !1072
  %77 = call nonnull align 8 dereferenceable(8) %"class.std::basic_ostream"* @_ZNSolsEi(%"class.std::basic_ostream"* nonnull align 8 dereferenceable(8) @_ZSt4cout, i32 %76), !llfi_index !1073
  %78 = call nonnull align 8 dereferenceable(8) %"class.std::basic_ostream"* @_ZStlsISt11char_traitsIcEERSt13basic_ostreamIcT_ES5_c(%"class.std::basic_ostream"* nonnull align 8 dereferenceable(8) %77, i8 signext 10), !llfi_index !1074
  %79 = load i32, i32* @where2, align 4, !llfi_index !1075
  %80 = load i32, i32* @where2, align 4, !llfi_index !1076
  %81 = sext i32 %80 to i64, !llfi_index !1077
  %82 = getelementptr inbounds [100005 x i32], [100005 x i32]* @f, i64 0, i64 %81, !llfi_index !1078
  %83 = load i32, i32* %82, align 4, !llfi_index !1079
  call void @_Z5reco2ii(i32 %79, i32 %83), !llfi_index !1080
  %84 = call i32* @_ZNSt6vectorIiSaIiEE5beginEv(%"class.std::vector"* nonnull align 8 dereferenceable(24) @sol) #2, !llfi_index !1081
  %85 = getelementptr inbounds %"class.__gnu_cxx::__normal_iterator", %"class.__gnu_cxx::__normal_iterator"* %11, i32 0, i32 0, !llfi_index !1082
  store i32* %84, i32** %85, align 8, !llfi_index !1083
  %86 = call i32* @_ZNSt6vectorIiSaIiEE3endEv(%"class.std::vector"* nonnull align 8 dereferenceable(24) @sol) #2, !llfi_index !1084
  %87 = getelementptr inbounds %"class.__gnu_cxx::__normal_iterator", %"class.__gnu_cxx::__normal_iterator"* %12, i32 0, i32 0, !llfi_index !1085
  store i32* %86, i32** %87, align 8, !llfi_index !1086
  %88 = getelementptr inbounds %"class.__gnu_cxx::__normal_iterator", %"class.__gnu_cxx::__normal_iterator"* %11, i32 0, i32 0, !llfi_index !1087
  %89 = load i32*, i32** %88, align 8, !llfi_index !1088
  %90 = getelementptr inbounds %"class.__gnu_cxx::__normal_iterator", %"class.__gnu_cxx::__normal_iterator"* %12, i32 0, i32 0, !llfi_index !1089
  %91 = load i32*, i32** %90, align 8, !llfi_index !1090
  call void @_ZSt4sortIN9__gnu_cxx17__normal_iteratorIPiSt6vectorIiSaIiEEEEEvT_S7_(i32* %89, i32* %91), !llfi_index !1091
  br label %92, !llfi_index !1092

92:                                               ; preds = %75, %58
  %93 = call i64 @_ZNKSt6vectorIiSaIiEE4sizeEv(%"class.std::vector"* nonnull align 8 dereferenceable(24) @sol) #2, !llfi_index !1093
  %94 = call nonnull align 8 dereferenceable(8) %"class.std::basic_ostream"* @_ZNSolsEm(%"class.std::basic_ostream"* nonnull align 8 dereferenceable(8) @_ZSt4cout, i64 %93), !llfi_index !1094
  %95 = call nonnull align 8 dereferenceable(8) %"class.std::basic_ostream"* @_ZStlsISt11char_traitsIcEERSt13basic_ostreamIcT_ES5_c(%"class.std::basic_ostream"* nonnull align 8 dereferenceable(8) %94, i8 signext 10), !llfi_index !1095
  store i32 89, i32* %3, align 4, !llfi_index !1096
  store i32 0, i32* %13, align 4, !llfi_index !1097
  br label %96, !llfi_index !1098

96:                                               ; preds = %116, %92
  %97 = load i32, i32* %13, align 4, !llfi_index !1099
  %98 = sext i32 %97 to i64, !llfi_index !1100
  %99 = call i64 @_ZNKSt6vectorIiSaIiEE4sizeEv(%"class.std::vector"* nonnull align 8 dereferenceable(24) @sol) #2, !llfi_index !1101
  %100 = icmp ult i64 %98, %99, !llfi_index !1102
  br i1 %100, label %101, label %119, !llfi_index !1103

101:                                              ; preds = %96
  %102 = load i32, i32* %13, align 4, !llfi_index !1104
  %103 = sext i32 %102 to i64, !llfi_index !1105
  %104 = call nonnull align 4 dereferenceable(4) i32* @_ZNSt6vectorIiSaIiEEixEm(%"class.std::vector"* nonnull align 8 dereferenceable(24) @sol, i64 %103) #2, !llfi_index !1106
  %105 = load i32, i32* %104, align 4, !llfi_index !1107
  %106 = call nonnull align 8 dereferenceable(8) %"class.std::basic_ostream"* @_ZNSolsEi(%"class.std::basic_ostream"* nonnull align 8 dereferenceable(8) @_ZSt4cout, i32 %105), !llfi_index !1108
  %107 = load i32, i32* %13, align 4, !llfi_index !1109
  %108 = add nsw i32 %107, 1, !llfi_index !1110
  %109 = sext i32 %108 to i64, !llfi_index !1111
  %110 = call i64 @_ZNKSt6vectorIiSaIiEE4sizeEv(%"class.std::vector"* nonnull align 8 dereferenceable(24) @sol) #2, !llfi_index !1112
  %111 = icmp eq i64 %109, %110, !llfi_index !1113
  %112 = zext i1 %111 to i64, !llfi_index !1114
  %113 = getelementptr inbounds [3 x i8], [3 x i8]* @.str.4, i64 0, i64 %112, !llfi_index !1115
  %114 = load i8, i8* %113, align 1, !llfi_index !1116
  %115 = call nonnull align 8 dereferenceable(8) %"class.std::basic_ostream"* @_ZStlsISt11char_traitsIcEERSt13basic_ostreamIcT_ES5_c(%"class.std::basic_ostream"* nonnull align 8 dereferenceable(8) %106, i8 signext %114), !llfi_index !1117
  br label %116, !llfi_index !1118

116:                                              ; preds = %101
  %117 = load i32, i32* %13, align 4, !llfi_index !1119
  %118 = add nsw i32 %117, 1, !llfi_index !1120
  store i32 %118, i32* %13, align 4, !llfi_index !1121
  br label %96, !llvm.loop !1122, !llfi_index !1123

119:                                              ; preds = %96
  ret i32 0, !llfi_index !1124
}

declare dso_local %struct._IO_FILE* @freopen(i8*, i8*, %struct._IO_FILE*) #7

declare dso_local nonnull align 8 dereferenceable(16) %"class.std::basic_istream"* @_ZNSirsERi(%"class.std::basic_istream"* nonnull align 8 dereferenceable(16), i32* nonnull align 4 dereferenceable(4)) #7

declare dso_local nonnull align 8 dereferenceable(16) %"class.std::basic_istream"* @_ZNSirsERb(%"class.std::basic_istream"* nonnull align 8 dereferenceable(16), i8* nonnull align 1 dereferenceable(1)) #7

declare dso_local nonnull align 8 dereferenceable(8) %"class.std::basic_ostream"* @_ZNSolsEi(%"class.std::basic_ostream"* nonnull align 8 dereferenceable(8), i32) #7

declare dso_local nonnull align 8 dereferenceable(8) %"class.std::basic_ostream"* @_ZStlsISt11char_traitsIcEERSt13basic_ostreamIcT_ES5_c(%"class.std::basic_ostream"* nonnull align 8 dereferenceable(8), i8 signext) #7

; Function Attrs: mustprogress noinline uwtable
define linkonce_odr dso_local void @_ZSt4sortIN9__gnu_cxx17__normal_iteratorIPiSt6vectorIiSaIiEEEEEvT_S7_(i32* %0, i32* %1) #4 comdat {
  %3 = alloca %"class.__gnu_cxx::__normal_iterator", align 8, !llfi_index !1125
  %4 = alloca %"class.__gnu_cxx::__normal_iterator", align 8, !llfi_index !1126
  %5 = alloca %"class.__gnu_cxx::__normal_iterator", align 8, !llfi_index !1127
  %6 = alloca %"class.__gnu_cxx::__normal_iterator", align 8, !llfi_index !1128
  %7 = alloca %"class.std::allocator", align 1, !llfi_index !1129
  %8 = alloca %"class.std::allocator", align 1, !llfi_index !1130
  %9 = getelementptr inbounds %"class.__gnu_cxx::__normal_iterator", %"class.__gnu_cxx::__normal_iterator"* %3, i32 0, i32 0, !llfi_index !1131
  store i32* %0, i32** %9, align 8, !llfi_index !1132
  %10 = getelementptr inbounds %"class.__gnu_cxx::__normal_iterator", %"class.__gnu_cxx::__normal_iterator"* %4, i32 0, i32 0, !llfi_index !1133
  store i32* %1, i32** %10, align 8, !llfi_index !1134
  %11 = bitcast %"class.__gnu_cxx::__normal_iterator"* %5 to i8*, !llfi_index !1135
  %12 = bitcast %"class.__gnu_cxx::__normal_iterator"* %3 to i8*, !llfi_index !1136
  call void @llvm.memcpy.p0i8.p0i8.i64(i8* align 8 %11, i8* align 8 %12, i64 8, i1 false), !llfi_index !1137
  %13 = bitcast %"class.__gnu_cxx::__normal_iterator"* %6 to i8*, !llfi_index !1138
  %14 = bitcast %"class.__gnu_cxx::__normal_iterator"* %4 to i8*, !llfi_index !1139
  call void @llvm.memcpy.p0i8.p0i8.i64(i8* align 8 %13, i8* align 8 %14, i64 8, i1 false), !llfi_index !1140
  call void @_ZN9__gnu_cxx5__ops16__iter_less_iterEv(), !llfi_index !1141
  %15 = getelementptr inbounds %"class.__gnu_cxx::__normal_iterator", %"class.__gnu_cxx::__normal_iterator"* %5, i32 0, i32 0, !llfi_index !1142
  %16 = load i32*, i32** %15, align 8, !llfi_index !1143
  %17 = getelementptr inbounds %"class.__gnu_cxx::__normal_iterator", %"class.__gnu_cxx::__normal_iterator"* %6, i32 0, i32 0, !llfi_index !1144
  %18 = load i32*, i32** %17, align 8, !llfi_index !1145
  call void @_ZSt6__sortIN9__gnu_cxx17__normal_iteratorIPiSt6vectorIiSaIiEEEENS0_5__ops15_Iter_less_iterEEvT_S9_T0_(i32* %16, i32* %18), !llfi_index !1146
  ret void, !llfi_index !1147
}

declare dso_local nonnull align 8 dereferenceable(8) %"class.std::basic_ostream"* @_ZNSolsEm(%"class.std::basic_ostream"* nonnull align 8 dereferenceable(8), i64) #7

; Function Attrs: mustprogress noinline nounwind uwtable
define linkonce_odr dso_local nonnull align 4 dereferenceable(4) i32* @_ZNSt6vectorIiSaIiEEixEm(%"class.std::vector"* nonnull align 8 dereferenceable(24) %0, i64 %1) #3 comdat align 2 {
  %3 = alloca %"class.std::vector"*, align 8, !llfi_index !1148
  %4 = alloca i64, align 8, !llfi_index !1149
  store %"class.std::vector"* %0, %"class.std::vector"** %3, align 8, !llfi_index !1150
  store i64 %1, i64* %4, align 8, !llfi_index !1151
  %5 = load %"class.std::vector"*, %"class.std::vector"** %3, align 8, !llfi_index !1152
  %6 = bitcast %"class.std::vector"* %5 to %"struct.std::_Vector_base"*, !llfi_index !1153
  %7 = getelementptr inbounds %"struct.std::_Vector_base", %"struct.std::_Vector_base"* %6, i32 0, i32 0, !llfi_index !1154
  %8 = bitcast %"struct.std::_Vector_base<int, std::allocator<int>>::_Vector_impl"* %7 to %"struct.std::_Vector_base<int, std::allocator<int>>::_Vector_impl_data"*, !llfi_index !1155
  %9 = getelementptr inbounds %"struct.std::_Vector_base<int, std::allocator<int>>::_Vector_impl_data", %"struct.std::_Vector_base<int, std::allocator<int>>::_Vector_impl_data"* %8, i32 0, i32 0, !llfi_index !1156
  %10 = load i32*, i32** %9, align 8, !llfi_index !1157
  %11 = load i64, i64* %4, align 8, !llfi_index !1158
  %12 = getelementptr inbounds i32, i32* %10, i64 %11, !llfi_index !1159
  ret i32* %12, !llfi_index !1160
}

; Function Attrs: argmemonly nofree nounwind willreturn
declare void @llvm.memcpy.p0i8.p0i8.i64(i8* noalias nocapture writeonly, i8* noalias nocapture readonly, i64, i1 immarg) #9

; Function Attrs: mustprogress noinline nounwind uwtable
define linkonce_odr dso_local void @_ZN9__gnu_cxx5__ops16__iter_less_iterEv() #3 comdat {
  ret void, !llfi_index !1161
}

; Function Attrs: mustprogress noinline uwtable
define linkonce_odr dso_local void @_ZSt6__sortIN9__gnu_cxx17__normal_iteratorIPiSt6vectorIiSaIiEEEENS0_5__ops15_Iter_less_iterEEvT_S9_T0_(i32* %0, i32* %1) #4 comdat {
  %3 = alloca %"class.__gnu_cxx::__normal_iterator", align 8, !llfi_index !1162
  %4 = alloca %"class.__gnu_cxx::__normal_iterator", align 8, !llfi_index !1163
  %5 = alloca %"class.std::allocator", align 1, !llfi_index !1164
  %6 = alloca %"class.__gnu_cxx::__normal_iterator", align 8, !llfi_index !1165
  %7 = alloca %"class.__gnu_cxx::__normal_iterator", align 8, !llfi_index !1166
  %8 = alloca %"class.std::allocator", align 1, !llfi_index !1167
  %9 = alloca %"class.__gnu_cxx::__normal_iterator", align 8, !llfi_index !1168
  %10 = alloca %"class.__gnu_cxx::__normal_iterator", align 8, !llfi_index !1169
  %11 = alloca %"class.std::allocator", align 1, !llfi_index !1170
  %12 = getelementptr inbounds %"class.__gnu_cxx::__normal_iterator", %"class.__gnu_cxx::__normal_iterator"* %3, i32 0, i32 0, !llfi_index !1171
  store i32* %0, i32** %12, align 8, !llfi_index !1172
  %13 = getelementptr inbounds %"class.__gnu_cxx::__normal_iterator", %"class.__gnu_cxx::__normal_iterator"* %4, i32 0, i32 0, !llfi_index !1173
  store i32* %1, i32** %13, align 8, !llfi_index !1174
  %14 = call zeroext i1 @_ZN9__gnu_cxxneIPiSt6vectorIiSaIiEEEEbRKNS_17__normal_iteratorIT_T0_EESA_(%"class.__gnu_cxx::__normal_iterator"* nonnull align 8 dereferenceable(8) %3, %"class.__gnu_cxx::__normal_iterator"* nonnull align 8 dereferenceable(8) %4) #2, !llfi_index !1175
  br i1 %14, label %15, label %35, !llfi_index !1176

15:                                               ; preds = %2
  %16 = bitcast %"class.__gnu_cxx::__normal_iterator"* %6 to i8*, !llfi_index !1177
  %17 = bitcast %"class.__gnu_cxx::__normal_iterator"* %3 to i8*, !llfi_index !1178
  call void @llvm.memcpy.p0i8.p0i8.i64(i8* align 8 %16, i8* align 8 %17, i64 8, i1 false), !llfi_index !1179
  %18 = bitcast %"class.__gnu_cxx::__normal_iterator"* %7 to i8*, !llfi_index !1180
  %19 = bitcast %"class.__gnu_cxx::__normal_iterator"* %4 to i8*, !llfi_index !1181
  call void @llvm.memcpy.p0i8.p0i8.i64(i8* align 8 %18, i8* align 8 %19, i64 8, i1 false), !llfi_index !1182
  %20 = call i64 @_ZN9__gnu_cxxmiIPiSt6vectorIiSaIiEEEENS_17__normal_iteratorIT_T0_E15difference_typeERKS8_SB_(%"class.__gnu_cxx::__normal_iterator"* nonnull align 8 dereferenceable(8) %4, %"class.__gnu_cxx::__normal_iterator"* nonnull align 8 dereferenceable(8) %3) #2, !llfi_index !1183
  %21 = call i64 @_ZSt4__lgl(i64 %20), !llfi_index !1184
  %22 = mul nsw i64 %21, 2, !llfi_index !1185
  %23 = getelementptr inbounds %"class.__gnu_cxx::__normal_iterator", %"class.__gnu_cxx::__normal_iterator"* %6, i32 0, i32 0, !llfi_index !1186
  %24 = load i32*, i32** %23, align 8, !llfi_index !1187
  %25 = getelementptr inbounds %"class.__gnu_cxx::__normal_iterator", %"class.__gnu_cxx::__normal_iterator"* %7, i32 0, i32 0, !llfi_index !1188
  %26 = load i32*, i32** %25, align 8, !llfi_index !1189
  call void @_ZSt16__introsort_loopIN9__gnu_cxx17__normal_iteratorIPiSt6vectorIiSaIiEEEElNS0_5__ops15_Iter_less_iterEEvT_S9_T0_T1_(i32* %24, i32* %26, i64 %22), !llfi_index !1190
  %27 = bitcast %"class.__gnu_cxx::__normal_iterator"* %9 to i8*, !llfi_index !1191
  %28 = bitcast %"class.__gnu_cxx::__normal_iterator"* %3 to i8*, !llfi_index !1192
  call void @llvm.memcpy.p0i8.p0i8.i64(i8* align 8 %27, i8* align 8 %28, i64 8, i1 false), !llfi_index !1193
  %29 = bitcast %"class.__gnu_cxx::__normal_iterator"* %10 to i8*, !llfi_index !1194
  %30 = bitcast %"class.__gnu_cxx::__normal_iterator"* %4 to i8*, !llfi_index !1195
  call void @llvm.memcpy.p0i8.p0i8.i64(i8* align 8 %29, i8* align 8 %30, i64 8, i1 false), !llfi_index !1196
  %31 = getelementptr inbounds %"class.__gnu_cxx::__normal_iterator", %"class.__gnu_cxx::__normal_iterator"* %9, i32 0, i32 0, !llfi_index !1197
  %32 = load i32*, i32** %31, align 8, !llfi_index !1198
  %33 = getelementptr inbounds %"class.__gnu_cxx::__normal_iterator", %"class.__gnu_cxx::__normal_iterator"* %10, i32 0, i32 0, !llfi_index !1199
  %34 = load i32*, i32** %33, align 8, !llfi_index !1200
  call void @_ZSt22__final_insertion_sortIN9__gnu_cxx17__normal_iteratorIPiSt6vectorIiSaIiEEEENS0_5__ops15_Iter_less_iterEEvT_S9_T0_(i32* %32, i32* %34), !llfi_index !1201
  br label %35, !llfi_index !1202

35:                                               ; preds = %15, %2
  ret void, !llfi_index !1203
}

; Function Attrs: mustprogress noinline nounwind uwtable
define linkonce_odr dso_local i64 @_ZSt4__lgl(i64 %0) #3 comdat {
  %2 = alloca i64, align 8, !llfi_index !1204
  store i64 %0, i64* %2, align 8, !llfi_index !1205
  %3 = load i64, i64* %2, align 8, !llfi_index !1206
  %4 = call i64 @llvm.ctlz.i64(i64 %3, i1 true), !llfi_index !1207
  %5 = trunc i64 %4 to i32, !llfi_index !1208
  %6 = sub nsw i32 63, %5, !llfi_index !1209
  %7 = sext i32 %6 to i64, !llfi_index !1210
  ret i64 %7, !llfi_index !1211
}

; Function Attrs: mustprogress noinline uwtable
define linkonce_odr dso_local void @_ZSt16__introsort_loopIN9__gnu_cxx17__normal_iteratorIPiSt6vectorIiSaIiEEEElNS0_5__ops15_Iter_less_iterEEvT_S9_T0_T1_(i32* %0, i32* %1, i64 %2) #4 comdat {
  %4 = alloca %"class.__gnu_cxx::__normal_iterator", align 8, !llfi_index !1212
  %5 = alloca %"class.__gnu_cxx::__normal_iterator", align 8, !llfi_index !1213
  %6 = alloca %"class.std::allocator", align 1, !llfi_index !1214
  %7 = alloca i64, align 8, !llfi_index !1215
  %8 = alloca %"class.__gnu_cxx::__normal_iterator", align 8, !llfi_index !1216
  %9 = alloca %"class.__gnu_cxx::__normal_iterator", align 8, !llfi_index !1217
  %10 = alloca %"class.__gnu_cxx::__normal_iterator", align 8, !llfi_index !1218
  %11 = alloca %"class.std::allocator", align 1, !llfi_index !1219
  %12 = alloca %"class.__gnu_cxx::__normal_iterator", align 8, !llfi_index !1220
  %13 = alloca %"class.__gnu_cxx::__normal_iterator", align 8, !llfi_index !1221
  %14 = alloca %"class.__gnu_cxx::__normal_iterator", align 8, !llfi_index !1222
  %15 = alloca %"class.std::allocator", align 1, !llfi_index !1223
  %16 = alloca %"class.__gnu_cxx::__normal_iterator", align 8, !llfi_index !1224
  %17 = alloca %"class.__gnu_cxx::__normal_iterator", align 8, !llfi_index !1225
  %18 = alloca %"class.std::allocator", align 1, !llfi_index !1226
  %19 = getelementptr inbounds %"class.__gnu_cxx::__normal_iterator", %"class.__gnu_cxx::__normal_iterator"* %4, i32 0, i32 0, !llfi_index !1227
  store i32* %0, i32** %19, align 8, !llfi_index !1228
  %20 = getelementptr inbounds %"class.__gnu_cxx::__normal_iterator", %"class.__gnu_cxx::__normal_iterator"* %5, i32 0, i32 0, !llfi_index !1229
  store i32* %1, i32** %20, align 8, !llfi_index !1230
  store i64 %2, i64* %7, align 8, !llfi_index !1231
  br label %21, !llfi_index !1232

21:                                               ; preds = %40, %3
  %22 = call i64 @_ZN9__gnu_cxxmiIPiSt6vectorIiSaIiEEEENS_17__normal_iteratorIT_T0_E15difference_typeERKS8_SB_(%"class.__gnu_cxx::__normal_iterator"* nonnull align 8 dereferenceable(8) %5, %"class.__gnu_cxx::__normal_iterator"* nonnull align 8 dereferenceable(8) %4) #2, !llfi_index !1233
  %23 = icmp sgt i64 %22, 16, !llfi_index !1234
  br i1 %23, label %24, label %64, !llfi_index !1235

24:                                               ; preds = %21
  %25 = load i64, i64* %7, align 8, !llfi_index !1236
  %26 = icmp eq i64 %25, 0, !llfi_index !1237
  br i1 %26, label %27, label %40, !llfi_index !1238

27:                                               ; preds = %24
  %28 = bitcast %"class.__gnu_cxx::__normal_iterator"* %8 to i8*, !llfi_index !1239
  %29 = bitcast %"class.__gnu_cxx::__normal_iterator"* %4 to i8*, !llfi_index !1240
  call void @llvm.memcpy.p0i8.p0i8.i64(i8* align 8 %28, i8* align 8 %29, i64 8, i1 false), !llfi_index !1241
  %30 = bitcast %"class.__gnu_cxx::__normal_iterator"* %9 to i8*, !llfi_index !1242
  %31 = bitcast %"class.__gnu_cxx::__normal_iterator"* %5 to i8*, !llfi_index !1243
  call void @llvm.memcpy.p0i8.p0i8.i64(i8* align 8 %30, i8* align 8 %31, i64 8, i1 false), !llfi_index !1244
  %32 = bitcast %"class.__gnu_cxx::__normal_iterator"* %10 to i8*, !llfi_index !1245
  %33 = bitcast %"class.__gnu_cxx::__normal_iterator"* %5 to i8*, !llfi_index !1246
  call void @llvm.memcpy.p0i8.p0i8.i64(i8* align 8 %32, i8* align 8 %33, i64 8, i1 false), !llfi_index !1247
  %34 = getelementptr inbounds %"class.__gnu_cxx::__normal_iterator", %"class.__gnu_cxx::__normal_iterator"* %8, i32 0, i32 0, !llfi_index !1248
  %35 = load i32*, i32** %34, align 8, !llfi_index !1249
  %36 = getelementptr inbounds %"class.__gnu_cxx::__normal_iterator", %"class.__gnu_cxx::__normal_iterator"* %9, i32 0, i32 0, !llfi_index !1250
  %37 = load i32*, i32** %36, align 8, !llfi_index !1251
  %38 = getelementptr inbounds %"class.__gnu_cxx::__normal_iterator", %"class.__gnu_cxx::__normal_iterator"* %10, i32 0, i32 0, !llfi_index !1252
  %39 = load i32*, i32** %38, align 8, !llfi_index !1253
  call void @_ZSt14__partial_sortIN9__gnu_cxx17__normal_iteratorIPiSt6vectorIiSaIiEEEENS0_5__ops15_Iter_less_iterEEvT_S9_S9_T0_(i32* %35, i32* %37, i32* %39), !llfi_index !1254
  br label %64, !llfi_index !1255

40:                                               ; preds = %24
  %41 = load i64, i64* %7, align 8, !llfi_index !1256
  %42 = add nsw i64 %41, -1, !llfi_index !1257
  store i64 %42, i64* %7, align 8, !llfi_index !1258
  %43 = bitcast %"class.__gnu_cxx::__normal_iterator"* %13 to i8*, !llfi_index !1259
  %44 = bitcast %"class.__gnu_cxx::__normal_iterator"* %4 to i8*, !llfi_index !1260
  call void @llvm.memcpy.p0i8.p0i8.i64(i8* align 8 %43, i8* align 8 %44, i64 8, i1 false), !llfi_index !1261
  %45 = bitcast %"class.__gnu_cxx::__normal_iterator"* %14 to i8*, !llfi_index !1262
  %46 = bitcast %"class.__gnu_cxx::__normal_iterator"* %5 to i8*, !llfi_index !1263
  call void @llvm.memcpy.p0i8.p0i8.i64(i8* align 8 %45, i8* align 8 %46, i64 8, i1 false), !llfi_index !1264
  %47 = getelementptr inbounds %"class.__gnu_cxx::__normal_iterator", %"class.__gnu_cxx::__normal_iterator"* %13, i32 0, i32 0, !llfi_index !1265
  %48 = load i32*, i32** %47, align 8, !llfi_index !1266
  %49 = getelementptr inbounds %"class.__gnu_cxx::__normal_iterator", %"class.__gnu_cxx::__normal_iterator"* %14, i32 0, i32 0, !llfi_index !1267
  %50 = load i32*, i32** %49, align 8, !llfi_index !1268
  %51 = call i32* @_ZSt27__unguarded_partition_pivotIN9__gnu_cxx17__normal_iteratorIPiSt6vectorIiSaIiEEEENS0_5__ops15_Iter_less_iterEET_S9_S9_T0_(i32* %48, i32* %50), !llfi_index !1269
  %52 = getelementptr inbounds %"class.__gnu_cxx::__normal_iterator", %"class.__gnu_cxx::__normal_iterator"* %12, i32 0, i32 0, !llfi_index !1270
  store i32* %51, i32** %52, align 8, !llfi_index !1271
  %53 = bitcast %"class.__gnu_cxx::__normal_iterator"* %16 to i8*, !llfi_index !1272
  %54 = bitcast %"class.__gnu_cxx::__normal_iterator"* %12 to i8*, !llfi_index !1273
  call void @llvm.memcpy.p0i8.p0i8.i64(i8* align 8 %53, i8* align 8 %54, i64 8, i1 false), !llfi_index !1274
  %55 = bitcast %"class.__gnu_cxx::__normal_iterator"* %17 to i8*, !llfi_index !1275
  %56 = bitcast %"class.__gnu_cxx::__normal_iterator"* %5 to i8*, !llfi_index !1276
  call void @llvm.memcpy.p0i8.p0i8.i64(i8* align 8 %55, i8* align 8 %56, i64 8, i1 false), !llfi_index !1277
  %57 = load i64, i64* %7, align 8, !llfi_index !1278
  %58 = getelementptr inbounds %"class.__gnu_cxx::__normal_iterator", %"class.__gnu_cxx::__normal_iterator"* %16, i32 0, i32 0, !llfi_index !1279
  %59 = load i32*, i32** %58, align 8, !llfi_index !1280
  %60 = getelementptr inbounds %"class.__gnu_cxx::__normal_iterator", %"class.__gnu_cxx::__normal_iterator"* %17, i32 0, i32 0, !llfi_index !1281
  %61 = load i32*, i32** %60, align 8, !llfi_index !1282
  call void @_ZSt16__introsort_loopIN9__gnu_cxx17__normal_iteratorIPiSt6vectorIiSaIiEEEElNS0_5__ops15_Iter_less_iterEEvT_S9_T0_T1_(i32* %59, i32* %61, i64 %57), !llfi_index !1283
  %62 = bitcast %"class.__gnu_cxx::__normal_iterator"* %5 to i8*, !llfi_index !1284
  %63 = bitcast %"class.__gnu_cxx::__normal_iterator"* %12 to i8*, !llfi_index !1285
  call void @llvm.memcpy.p0i8.p0i8.i64(i8* align 8 %62, i8* align 8 %63, i64 8, i1 false), !llfi_index !1286
  br label %21, !llvm.loop !1287, !llfi_index !1288

64:                                               ; preds = %27, %21
  ret void, !llfi_index !1289
}

; Function Attrs: mustprogress noinline uwtable
define linkonce_odr dso_local void @_ZSt22__final_insertion_sortIN9__gnu_cxx17__normal_iteratorIPiSt6vectorIiSaIiEEEENS0_5__ops15_Iter_less_iterEEvT_S9_T0_(i32* %0, i32* %1) #4 comdat {
  %3 = alloca %"class.__gnu_cxx::__normal_iterator", align 8, !llfi_index !1290
  %4 = alloca %"class.__gnu_cxx::__normal_iterator", align 8, !llfi_index !1291
  %5 = alloca %"class.std::allocator", align 1, !llfi_index !1292
  %6 = alloca %"class.__gnu_cxx::__normal_iterator", align 8, !llfi_index !1293
  %7 = alloca %"class.__gnu_cxx::__normal_iterator", align 8, !llfi_index !1294
  %8 = alloca %"class.std::allocator", align 1, !llfi_index !1295
  %9 = alloca %"class.__gnu_cxx::__normal_iterator", align 8, !llfi_index !1296
  %10 = alloca %"class.__gnu_cxx::__normal_iterator", align 8, !llfi_index !1297
  %11 = alloca %"class.std::allocator", align 1, !llfi_index !1298
  %12 = alloca %"class.__gnu_cxx::__normal_iterator", align 8, !llfi_index !1299
  %13 = alloca %"class.__gnu_cxx::__normal_iterator", align 8, !llfi_index !1300
  %14 = alloca %"class.std::allocator", align 1, !llfi_index !1301
  %15 = getelementptr inbounds %"class.__gnu_cxx::__normal_iterator", %"class.__gnu_cxx::__normal_iterator"* %3, i32 0, i32 0, !llfi_index !1302
  store i32* %0, i32** %15, align 8, !llfi_index !1303
  %16 = getelementptr inbounds %"class.__gnu_cxx::__normal_iterator", %"class.__gnu_cxx::__normal_iterator"* %4, i32 0, i32 0, !llfi_index !1304
  store i32* %1, i32** %16, align 8, !llfi_index !1305
  %17 = call i64 @_ZN9__gnu_cxxmiIPiSt6vectorIiSaIiEEEENS_17__normal_iteratorIT_T0_E15difference_typeERKS8_SB_(%"class.__gnu_cxx::__normal_iterator"* nonnull align 8 dereferenceable(8) %4, %"class.__gnu_cxx::__normal_iterator"* nonnull align 8 dereferenceable(8) %3) #2, !llfi_index !1306
  %18 = icmp sgt i64 %17, 16, !llfi_index !1307
  br i1 %18, label %19, label %36, !llfi_index !1308

19:                                               ; preds = %2
  %20 = bitcast %"class.__gnu_cxx::__normal_iterator"* %6 to i8*, !llfi_index !1309
  %21 = bitcast %"class.__gnu_cxx::__normal_iterator"* %3 to i8*, !llfi_index !1310
  call void @llvm.memcpy.p0i8.p0i8.i64(i8* align 8 %20, i8* align 8 %21, i64 8, i1 false), !llfi_index !1311
  %22 = call i32* @_ZNK9__gnu_cxx17__normal_iteratorIPiSt6vectorIiSaIiEEEplEl(%"class.__gnu_cxx::__normal_iterator"* nonnull align 8 dereferenceable(8) %3, i64 16) #2, !llfi_index !1312
  %23 = getelementptr inbounds %"class.__gnu_cxx::__normal_iterator", %"class.__gnu_cxx::__normal_iterator"* %7, i32 0, i32 0, !llfi_index !1313
  store i32* %22, i32** %23, align 8, !llfi_index !1314
  %24 = getelementptr inbounds %"class.__gnu_cxx::__normal_iterator", %"class.__gnu_cxx::__normal_iterator"* %6, i32 0, i32 0, !llfi_index !1315
  %25 = load i32*, i32** %24, align 8, !llfi_index !1316
  %26 = getelementptr inbounds %"class.__gnu_cxx::__normal_iterator", %"class.__gnu_cxx::__normal_iterator"* %7, i32 0, i32 0, !llfi_index !1317
  %27 = load i32*, i32** %26, align 8, !llfi_index !1318
  call void @_ZSt16__insertion_sortIN9__gnu_cxx17__normal_iteratorIPiSt6vectorIiSaIiEEEENS0_5__ops15_Iter_less_iterEEvT_S9_T0_(i32* %25, i32* %27), !llfi_index !1319
  %28 = call i32* @_ZNK9__gnu_cxx17__normal_iteratorIPiSt6vectorIiSaIiEEEplEl(%"class.__gnu_cxx::__normal_iterator"* nonnull align 8 dereferenceable(8) %3, i64 16) #2, !llfi_index !1320
  %29 = getelementptr inbounds %"class.__gnu_cxx::__normal_iterator", %"class.__gnu_cxx::__normal_iterator"* %9, i32 0, i32 0, !llfi_index !1321
  store i32* %28, i32** %29, align 8, !llfi_index !1322
  %30 = bitcast %"class.__gnu_cxx::__normal_iterator"* %10 to i8*, !llfi_index !1323
  %31 = bitcast %"class.__gnu_cxx::__normal_iterator"* %4 to i8*, !llfi_index !1324
  call void @llvm.memcpy.p0i8.p0i8.i64(i8* align 8 %30, i8* align 8 %31, i64 8, i1 false), !llfi_index !1325
  %32 = getelementptr inbounds %"class.__gnu_cxx::__normal_iterator", %"class.__gnu_cxx::__normal_iterator"* %9, i32 0, i32 0, !llfi_index !1326
  %33 = load i32*, i32** %32, align 8, !llfi_index !1327
  %34 = getelementptr inbounds %"class.__gnu_cxx::__normal_iterator", %"class.__gnu_cxx::__normal_iterator"* %10, i32 0, i32 0, !llfi_index !1328
  %35 = load i32*, i32** %34, align 8, !llfi_index !1329
  call void @_ZSt26__unguarded_insertion_sortIN9__gnu_cxx17__normal_iteratorIPiSt6vectorIiSaIiEEEENS0_5__ops15_Iter_less_iterEEvT_S9_T0_(i32* %33, i32* %35), !llfi_index !1330
  br label %45, !llfi_index !1331

36:                                               ; preds = %2
  %37 = bitcast %"class.__gnu_cxx::__normal_iterator"* %12 to i8*, !llfi_index !1332
  %38 = bitcast %"class.__gnu_cxx::__normal_iterator"* %3 to i8*, !llfi_index !1333
  call void @llvm.memcpy.p0i8.p0i8.i64(i8* align 8 %37, i8* align 8 %38, i64 8, i1 false), !llfi_index !1334
  %39 = bitcast %"class.__gnu_cxx::__normal_iterator"* %13 to i8*, !llfi_index !1335
  %40 = bitcast %"class.__gnu_cxx::__normal_iterator"* %4 to i8*, !llfi_index !1336
  call void @llvm.memcpy.p0i8.p0i8.i64(i8* align 8 %39, i8* align 8 %40, i64 8, i1 false), !llfi_index !1337
  %41 = getelementptr inbounds %"class.__gnu_cxx::__normal_iterator", %"class.__gnu_cxx::__normal_iterator"* %12, i32 0, i32 0, !llfi_index !1338
  %42 = load i32*, i32** %41, align 8, !llfi_index !1339
  %43 = getelementptr inbounds %"class.__gnu_cxx::__normal_iterator", %"class.__gnu_cxx::__normal_iterator"* %13, i32 0, i32 0, !llfi_index !1340
  %44 = load i32*, i32** %43, align 8, !llfi_index !1341
  call void @_ZSt16__insertion_sortIN9__gnu_cxx17__normal_iteratorIPiSt6vectorIiSaIiEEEENS0_5__ops15_Iter_less_iterEEvT_S9_T0_(i32* %42, i32* %44), !llfi_index !1342
  br label %45, !llfi_index !1343

45:                                               ; preds = %36, %19
  ret void, !llfi_index !1344
}

; Function Attrs: mustprogress noinline nounwind uwtable
define linkonce_odr dso_local i32* @_ZNK9__gnu_cxx17__normal_iteratorIPiSt6vectorIiSaIiEEEplEl(%"class.__gnu_cxx::__normal_iterator"* nonnull align 8 dereferenceable(8) %0, i64 %1) #3 comdat align 2 {
  %3 = alloca %"class.__gnu_cxx::__normal_iterator", align 8, !llfi_index !1345
  %4 = alloca %"class.__gnu_cxx::__normal_iterator"*, align 8, !llfi_index !1346
  %5 = alloca i64, align 8, !llfi_index !1347
  %6 = alloca i32*, align 8, !llfi_index !1348
  store %"class.__gnu_cxx::__normal_iterator"* %0, %"class.__gnu_cxx::__normal_iterator"** %4, align 8, !llfi_index !1349
  store i64 %1, i64* %5, align 8, !llfi_index !1350
  %7 = load %"class.__gnu_cxx::__normal_iterator"*, %"class.__gnu_cxx::__normal_iterator"** %4, align 8, !llfi_index !1351
  %8 = getelementptr inbounds %"class.__gnu_cxx::__normal_iterator", %"class.__gnu_cxx::__normal_iterator"* %7, i32 0, i32 0, !llfi_index !1352
  %9 = load i32*, i32** %8, align 8, !llfi_index !1353
  %10 = load i64, i64* %5, align 8, !llfi_index !1354
  %11 = getelementptr inbounds i32, i32* %9, i64 %10, !llfi_index !1355
  store i32* %11, i32** %6, align 8, !llfi_index !1356
  call void @_ZN9__gnu_cxx17__normal_iteratorIPiSt6vectorIiSaIiEEEC2ERKS1_(%"class.__gnu_cxx::__normal_iterator"* nonnull align 8 dereferenceable(8) %3, i32** nonnull align 8 dereferenceable(8) %6) #2, !llfi_index !1357
  %12 = getelementptr inbounds %"class.__gnu_cxx::__normal_iterator", %"class.__gnu_cxx::__normal_iterator"* %3, i32 0, i32 0, !llfi_index !1358
  %13 = load i32*, i32** %12, align 8, !llfi_index !1359
  ret i32* %13, !llfi_index !1360
}

; Function Attrs: mustprogress noinline uwtable
define linkonce_odr dso_local void @_ZSt16__insertion_sortIN9__gnu_cxx17__normal_iteratorIPiSt6vectorIiSaIiEEEENS0_5__ops15_Iter_less_iterEEvT_S9_T0_(i32* %0, i32* %1) #4 comdat {
  %3 = alloca %"class.__gnu_cxx::__normal_iterator", align 8, !llfi_index !1361
  %4 = alloca %"class.__gnu_cxx::__normal_iterator", align 8, !llfi_index !1362
  %5 = alloca %"class.std::allocator", align 1, !llfi_index !1363
  %6 = alloca %"class.__gnu_cxx::__normal_iterator", align 8, !llfi_index !1364
  %7 = alloca %"class.__gnu_cxx::__normal_iterator", align 8, !llfi_index !1365
  %8 = alloca %"class.__gnu_cxx::__normal_iterator", align 8, !llfi_index !1366
  %9 = alloca i32, align 4, !llfi_index !1367
  %10 = alloca %"class.__gnu_cxx::__normal_iterator", align 8, !llfi_index !1368
  %11 = alloca %"class.__gnu_cxx::__normal_iterator", align 8, !llfi_index !1369
  %12 = alloca %"class.__gnu_cxx::__normal_iterator", align 8, !llfi_index !1370
  %13 = alloca %"class.__gnu_cxx::__normal_iterator", align 8, !llfi_index !1371
  %14 = alloca %"class.__gnu_cxx::__normal_iterator", align 8, !llfi_index !1372
  %15 = alloca %"class.std::allocator", align 1, !llfi_index !1373
  %16 = alloca %"class.std::allocator", align 1, !llfi_index !1374
  %17 = alloca %"class.std::allocator", align 1, !llfi_index !1375
  %18 = getelementptr inbounds %"class.__gnu_cxx::__normal_iterator", %"class.__gnu_cxx::__normal_iterator"* %3, i32 0, i32 0, !llfi_index !1376
  store i32* %0, i32** %18, align 8, !llfi_index !1377
  %19 = getelementptr inbounds %"class.__gnu_cxx::__normal_iterator", %"class.__gnu_cxx::__normal_iterator"* %4, i32 0, i32 0, !llfi_index !1378
  store i32* %1, i32** %19, align 8, !llfi_index !1379
  %20 = call zeroext i1 @_ZN9__gnu_cxxeqIPiSt6vectorIiSaIiEEEEbRKNS_17__normal_iteratorIT_T0_EESA_(%"class.__gnu_cxx::__normal_iterator"* nonnull align 8 dereferenceable(8) %3, %"class.__gnu_cxx::__normal_iterator"* nonnull align 8 dereferenceable(8) %4) #2, !llfi_index !1380
  br i1 %20, label %21, label %22, !llfi_index !1381

21:                                               ; preds = %2
  br label %66, !llfi_index !1382

22:                                               ; preds = %2
  %23 = call i32* @_ZNK9__gnu_cxx17__normal_iteratorIPiSt6vectorIiSaIiEEEplEl(%"class.__gnu_cxx::__normal_iterator"* nonnull align 8 dereferenceable(8) %3, i64 1) #2, !llfi_index !1383
  %24 = getelementptr inbounds %"class.__gnu_cxx::__normal_iterator", %"class.__gnu_cxx::__normal_iterator"* %6, i32 0, i32 0, !llfi_index !1384
  store i32* %23, i32** %24, align 8, !llfi_index !1385
  br label %25, !llfi_index !1386

25:                                               ; preds = %64, %22
  %26 = call zeroext i1 @_ZN9__gnu_cxxneIPiSt6vectorIiSaIiEEEEbRKNS_17__normal_iteratorIT_T0_EESA_(%"class.__gnu_cxx::__normal_iterator"* nonnull align 8 dereferenceable(8) %6, %"class.__gnu_cxx::__normal_iterator"* nonnull align 8 dereferenceable(8) %4) #2, !llfi_index !1387
  br i1 %26, label %27, label %66, !llfi_index !1388

27:                                               ; preds = %25
  %28 = bitcast %"class.__gnu_cxx::__normal_iterator"* %7 to i8*, !llfi_index !1389
  %29 = bitcast %"class.__gnu_cxx::__normal_iterator"* %6 to i8*, !llfi_index !1390
  call void @llvm.memcpy.p0i8.p0i8.i64(i8* align 8 %28, i8* align 8 %29, i64 8, i1 false), !llfi_index !1391
  %30 = bitcast %"class.__gnu_cxx::__normal_iterator"* %8 to i8*, !llfi_index !1392
  %31 = bitcast %"class.__gnu_cxx::__normal_iterator"* %3 to i8*, !llfi_index !1393
  call void @llvm.memcpy.p0i8.p0i8.i64(i8* align 8 %30, i8* align 8 %31, i64 8, i1 false), !llfi_index !1394
  %32 = getelementptr inbounds %"class.__gnu_cxx::__normal_iterator", %"class.__gnu_cxx::__normal_iterator"* %7, i32 0, i32 0, !llfi_index !1395
  %33 = load i32*, i32** %32, align 8, !llfi_index !1396
  %34 = getelementptr inbounds %"class.__gnu_cxx::__normal_iterator", %"class.__gnu_cxx::__normal_iterator"* %8, i32 0, i32 0, !llfi_index !1397
  %35 = load i32*, i32** %34, align 8, !llfi_index !1398
  %36 = call zeroext i1 @_ZNK9__gnu_cxx5__ops15_Iter_less_iterclINS_17__normal_iteratorIPiSt6vectorIiSaIiEEEES8_EEbT_T0_(%"class.std::allocator"* nonnull align 1 dereferenceable(1) %5, i32* %33, i32* %35), !llfi_index !1399
  br i1 %36, label %37, label %58, !llfi_index !1400

37:                                               ; preds = %27
  %38 = call nonnull align 4 dereferenceable(4) i32* @_ZNK9__gnu_cxx17__normal_iteratorIPiSt6vectorIiSaIiEEEdeEv(%"class.__gnu_cxx::__normal_iterator"* nonnull align 8 dereferenceable(8) %6) #2, !llfi_index !1401
  %39 = call nonnull align 4 dereferenceable(4) i32* @_ZSt4moveIRiEONSt16remove_referenceIT_E4typeEOS2_(i32* nonnull align 4 dereferenceable(4) %38) #2, !llfi_index !1402
  %40 = load i32, i32* %39, align 4, !llfi_index !1403
  store i32 %40, i32* %9, align 4, !llfi_index !1404
  %41 = bitcast %"class.__gnu_cxx::__normal_iterator"* %10 to i8*, !llfi_index !1405
  %42 = bitcast %"class.__gnu_cxx::__normal_iterator"* %3 to i8*, !llfi_index !1406
  call void @llvm.memcpy.p0i8.p0i8.i64(i8* align 8 %41, i8* align 8 %42, i64 8, i1 false), !llfi_index !1407
  %43 = bitcast %"class.__gnu_cxx::__normal_iterator"* %11 to i8*, !llfi_index !1408
  %44 = bitcast %"class.__gnu_cxx::__normal_iterator"* %6 to i8*, !llfi_index !1409
  call void @llvm.memcpy.p0i8.p0i8.i64(i8* align 8 %43, i8* align 8 %44, i64 8, i1 false), !llfi_index !1410
  %45 = call i32* @_ZNK9__gnu_cxx17__normal_iteratorIPiSt6vectorIiSaIiEEEplEl(%"class.__gnu_cxx::__normal_iterator"* nonnull align 8 dereferenceable(8) %6, i64 1) #2, !llfi_index !1411
  %46 = getelementptr inbounds %"class.__gnu_cxx::__normal_iterator", %"class.__gnu_cxx::__normal_iterator"* %12, i32 0, i32 0, !llfi_index !1412
  store i32* %45, i32** %46, align 8, !llfi_index !1413
  %47 = getelementptr inbounds %"class.__gnu_cxx::__normal_iterator", %"class.__gnu_cxx::__normal_iterator"* %10, i32 0, i32 0, !llfi_index !1414
  %48 = load i32*, i32** %47, align 8, !llfi_index !1415
  %49 = getelementptr inbounds %"class.__gnu_cxx::__normal_iterator", %"class.__gnu_cxx::__normal_iterator"* %11, i32 0, i32 0, !llfi_index !1416
  %50 = load i32*, i32** %49, align 8, !llfi_index !1417
  %51 = getelementptr inbounds %"class.__gnu_cxx::__normal_iterator", %"class.__gnu_cxx::__normal_iterator"* %12, i32 0, i32 0, !llfi_index !1418
  %52 = load i32*, i32** %51, align 8, !llfi_index !1419
  %53 = call i32* @_ZSt13move_backwardIN9__gnu_cxx17__normal_iteratorIPiSt6vectorIiSaIiEEEES6_ET0_T_S8_S7_(i32* %48, i32* %50, i32* %52), !llfi_index !1420
  %54 = getelementptr inbounds %"class.__gnu_cxx::__normal_iterator", %"class.__gnu_cxx::__normal_iterator"* %13, i32 0, i32 0, !llfi_index !1421
  store i32* %53, i32** %54, align 8, !llfi_index !1422
  %55 = call nonnull align 4 dereferenceable(4) i32* @_ZSt4moveIRiEONSt16remove_referenceIT_E4typeEOS2_(i32* nonnull align 4 dereferenceable(4) %9) #2, !llfi_index !1423
  %56 = load i32, i32* %55, align 4, !llfi_index !1424
  %57 = call nonnull align 4 dereferenceable(4) i32* @_ZNK9__gnu_cxx17__normal_iteratorIPiSt6vectorIiSaIiEEEdeEv(%"class.__gnu_cxx::__normal_iterator"* nonnull align 8 dereferenceable(8) %3) #2, !llfi_index !1425
  store i32 %56, i32* %57, align 4, !llfi_index !1426
  br label %63, !llfi_index !1427

58:                                               ; preds = %27
  %59 = bitcast %"class.__gnu_cxx::__normal_iterator"* %14 to i8*, !llfi_index !1428
  %60 = bitcast %"class.__gnu_cxx::__normal_iterator"* %6 to i8*, !llfi_index !1429
  call void @llvm.memcpy.p0i8.p0i8.i64(i8* align 8 %59, i8* align 8 %60, i64 8, i1 false), !llfi_index !1430
  call void @_ZN9__gnu_cxx5__ops15__val_comp_iterENS0_15_Iter_less_iterE(), !llfi_index !1431
  %61 = getelementptr inbounds %"class.__gnu_cxx::__normal_iterator", %"class.__gnu_cxx::__normal_iterator"* %14, i32 0, i32 0, !llfi_index !1432
  %62 = load i32*, i32** %61, align 8, !llfi_index !1433
  call void @_ZSt25__unguarded_linear_insertIN9__gnu_cxx17__normal_iteratorIPiSt6vectorIiSaIiEEEENS0_5__ops14_Val_less_iterEEvT_T0_(i32* %62), !llfi_index !1434
  br label %63, !llfi_index !1435

63:                                               ; preds = %58, %37
  br label %64, !llfi_index !1436

64:                                               ; preds = %63
  %65 = call nonnull align 8 dereferenceable(8) %"class.__gnu_cxx::__normal_iterator"* @_ZN9__gnu_cxx17__normal_iteratorIPiSt6vectorIiSaIiEEEppEv(%"class.__gnu_cxx::__normal_iterator"* nonnull align 8 dereferenceable(8) %6) #2, !llfi_index !1437
  br label %25, !llvm.loop !1438, !llfi_index !1439

66:                                               ; preds = %25, %21
  ret void, !llfi_index !1440
}

; Function Attrs: mustprogress noinline uwtable
define linkonce_odr dso_local void @_ZSt26__unguarded_insertion_sortIN9__gnu_cxx17__normal_iteratorIPiSt6vectorIiSaIiEEEENS0_5__ops15_Iter_less_iterEEvT_S9_T0_(i32* %0, i32* %1) #4 comdat {
  %3 = alloca %"class.__gnu_cxx::__normal_iterator", align 8, !llfi_index !1441
  %4 = alloca %"class.__gnu_cxx::__normal_iterator", align 8, !llfi_index !1442
  %5 = alloca %"class.std::allocator", align 1, !llfi_index !1443
  %6 = alloca %"class.__gnu_cxx::__normal_iterator", align 8, !llfi_index !1444
  %7 = alloca %"class.__gnu_cxx::__normal_iterator", align 8, !llfi_index !1445
  %8 = alloca %"class.std::allocator", align 1, !llfi_index !1446
  %9 = alloca %"class.std::allocator", align 1, !llfi_index !1447
  %10 = alloca %"class.std::allocator", align 1, !llfi_index !1448
  %11 = getelementptr inbounds %"class.__gnu_cxx::__normal_iterator", %"class.__gnu_cxx::__normal_iterator"* %3, i32 0, i32 0, !llfi_index !1449
  store i32* %0, i32** %11, align 8, !llfi_index !1450
  %12 = getelementptr inbounds %"class.__gnu_cxx::__normal_iterator", %"class.__gnu_cxx::__normal_iterator"* %4, i32 0, i32 0, !llfi_index !1451
  store i32* %1, i32** %12, align 8, !llfi_index !1452
  %13 = bitcast %"class.__gnu_cxx::__normal_iterator"* %6 to i8*, !llfi_index !1453
  %14 = bitcast %"class.__gnu_cxx::__normal_iterator"* %3 to i8*, !llfi_index !1454
  call void @llvm.memcpy.p0i8.p0i8.i64(i8* align 8 %13, i8* align 8 %14, i64 8, i1 false), !llfi_index !1455
  br label %15, !llfi_index !1456

15:                                               ; preds = %22, %2
  %16 = call zeroext i1 @_ZN9__gnu_cxxneIPiSt6vectorIiSaIiEEEEbRKNS_17__normal_iteratorIT_T0_EESA_(%"class.__gnu_cxx::__normal_iterator"* nonnull align 8 dereferenceable(8) %6, %"class.__gnu_cxx::__normal_iterator"* nonnull align 8 dereferenceable(8) %4) #2, !llfi_index !1457
  br i1 %16, label %17, label %24, !llfi_index !1458

17:                                               ; preds = %15
  %18 = bitcast %"class.__gnu_cxx::__normal_iterator"* %7 to i8*, !llfi_index !1459
  %19 = bitcast %"class.__gnu_cxx::__normal_iterator"* %6 to i8*, !llfi_index !1460
  call void @llvm.memcpy.p0i8.p0i8.i64(i8* align 8 %18, i8* align 8 %19, i64 8, i1 false), !llfi_index !1461
  call void @_ZN9__gnu_cxx5__ops15__val_comp_iterENS0_15_Iter_less_iterE(), !llfi_index !1462
  %20 = getelementptr inbounds %"class.__gnu_cxx::__normal_iterator", %"class.__gnu_cxx::__normal_iterator"* %7, i32 0, i32 0, !llfi_index !1463
  %21 = load i32*, i32** %20, align 8, !llfi_index !1464
  call void @_ZSt25__unguarded_linear_insertIN9__gnu_cxx17__normal_iteratorIPiSt6vectorIiSaIiEEEENS0_5__ops14_Val_less_iterEEvT_T0_(i32* %21), !llfi_index !1465
  br label %22, !llfi_index !1466

22:                                               ; preds = %17
  %23 = call nonnull align 8 dereferenceable(8) %"class.__gnu_cxx::__normal_iterator"* @_ZN9__gnu_cxx17__normal_iteratorIPiSt6vectorIiSaIiEEEppEv(%"class.__gnu_cxx::__normal_iterator"* nonnull align 8 dereferenceable(8) %6) #2, !llfi_index !1467
  br label %15, !llvm.loop !1468, !llfi_index !1469

24:                                               ; preds = %15
  ret void, !llfi_index !1470
}

; Function Attrs: mustprogress noinline nounwind uwtable
define linkonce_odr dso_local void @_ZN9__gnu_cxx5__ops15__val_comp_iterENS0_15_Iter_less_iterE() #3 comdat {
  %1 = alloca %"class.std::allocator", align 1, !llfi_index !1471
  ret void, !llfi_index !1472
}

; Function Attrs: mustprogress noinline uwtable
define linkonce_odr dso_local void @_ZSt25__unguarded_linear_insertIN9__gnu_cxx17__normal_iteratorIPiSt6vectorIiSaIiEEEENS0_5__ops14_Val_less_iterEEvT_T0_(i32* %0) #4 comdat {
  %2 = alloca %"class.__gnu_cxx::__normal_iterator", align 8, !llfi_index !1473
  %3 = alloca %"class.std::allocator", align 1, !llfi_index !1474
  %4 = alloca i32, align 4, !llfi_index !1475
  %5 = alloca %"class.__gnu_cxx::__normal_iterator", align 8, !llfi_index !1476
  %6 = alloca %"class.__gnu_cxx::__normal_iterator", align 8, !llfi_index !1477
  %7 = getelementptr inbounds %"class.__gnu_cxx::__normal_iterator", %"class.__gnu_cxx::__normal_iterator"* %2, i32 0, i32 0, !llfi_index !1478
  store i32* %0, i32** %7, align 8, !llfi_index !1479
  %8 = call nonnull align 4 dereferenceable(4) i32* @_ZNK9__gnu_cxx17__normal_iteratorIPiSt6vectorIiSaIiEEEdeEv(%"class.__gnu_cxx::__normal_iterator"* nonnull align 8 dereferenceable(8) %2) #2, !llfi_index !1480
  %9 = call nonnull align 4 dereferenceable(4) i32* @_ZSt4moveIRiEONSt16remove_referenceIT_E4typeEOS2_(i32* nonnull align 4 dereferenceable(4) %8) #2, !llfi_index !1481
  %10 = load i32, i32* %9, align 4, !llfi_index !1482
  store i32 %10, i32* %4, align 4, !llfi_index !1483
  %11 = bitcast %"class.__gnu_cxx::__normal_iterator"* %5 to i8*, !llfi_index !1484
  %12 = bitcast %"class.__gnu_cxx::__normal_iterator"* %2 to i8*, !llfi_index !1485
  call void @llvm.memcpy.p0i8.p0i8.i64(i8* align 8 %11, i8* align 8 %12, i64 8, i1 false), !llfi_index !1486
  %13 = call nonnull align 8 dereferenceable(8) %"class.__gnu_cxx::__normal_iterator"* @_ZN9__gnu_cxx17__normal_iteratorIPiSt6vectorIiSaIiEEEmmEv(%"class.__gnu_cxx::__normal_iterator"* nonnull align 8 dereferenceable(8) %5) #2, !llfi_index !1487
  br label %14, !llfi_index !1488

14:                                               ; preds = %20, %1
  %15 = bitcast %"class.__gnu_cxx::__normal_iterator"* %6 to i8*, !llfi_index !1489
  %16 = bitcast %"class.__gnu_cxx::__normal_iterator"* %5 to i8*, !llfi_index !1490
  call void @llvm.memcpy.p0i8.p0i8.i64(i8* align 8 %15, i8* align 8 %16, i64 8, i1 false), !llfi_index !1491
  %17 = getelementptr inbounds %"class.__gnu_cxx::__normal_iterator", %"class.__gnu_cxx::__normal_iterator"* %6, i32 0, i32 0, !llfi_index !1492
  %18 = load i32*, i32** %17, align 8, !llfi_index !1493
  %19 = call zeroext i1 @_ZNK9__gnu_cxx5__ops14_Val_less_iterclIiNS_17__normal_iteratorIPiSt6vectorIiSaIiEEEEEEbRT_T0_(%"class.std::allocator"* nonnull align 1 dereferenceable(1) %3, i32* nonnull align 4 dereferenceable(4) %4, i32* %18), !llfi_index !1494
  br i1 %19, label %20, label %28, !llfi_index !1495

20:                                               ; preds = %14
  %21 = call nonnull align 4 dereferenceable(4) i32* @_ZNK9__gnu_cxx17__normal_iteratorIPiSt6vectorIiSaIiEEEdeEv(%"class.__gnu_cxx::__normal_iterator"* nonnull align 8 dereferenceable(8) %5) #2, !llfi_index !1496
  %22 = call nonnull align 4 dereferenceable(4) i32* @_ZSt4moveIRiEONSt16remove_referenceIT_E4typeEOS2_(i32* nonnull align 4 dereferenceable(4) %21) #2, !llfi_index !1497
  %23 = load i32, i32* %22, align 4, !llfi_index !1498
  %24 = call nonnull align 4 dereferenceable(4) i32* @_ZNK9__gnu_cxx17__normal_iteratorIPiSt6vectorIiSaIiEEEdeEv(%"class.__gnu_cxx::__normal_iterator"* nonnull align 8 dereferenceable(8) %2) #2, !llfi_index !1499
  store i32 %23, i32* %24, align 4, !llfi_index !1500
  %25 = bitcast %"class.__gnu_cxx::__normal_iterator"* %2 to i8*, !llfi_index !1501
  %26 = bitcast %"class.__gnu_cxx::__normal_iterator"* %5 to i8*, !llfi_index !1502
  call void @llvm.memcpy.p0i8.p0i8.i64(i8* align 8 %25, i8* align 8 %26, i64 8, i1 false), !llfi_index !1503
  %27 = call nonnull align 8 dereferenceable(8) %"class.__gnu_cxx::__normal_iterator"* @_ZN9__gnu_cxx17__normal_iteratorIPiSt6vectorIiSaIiEEEmmEv(%"class.__gnu_cxx::__normal_iterator"* nonnull align 8 dereferenceable(8) %5) #2, !llfi_index !1504
  br label %14, !llvm.loop !1505, !llfi_index !1506

28:                                               ; preds = %14
  %29 = call nonnull align 4 dereferenceable(4) i32* @_ZSt4moveIRiEONSt16remove_referenceIT_E4typeEOS2_(i32* nonnull align 4 dereferenceable(4) %4) #2, !llfi_index !1507
  %30 = load i32, i32* %29, align 4, !llfi_index !1508
  %31 = call nonnull align 4 dereferenceable(4) i32* @_ZNK9__gnu_cxx17__normal_iteratorIPiSt6vectorIiSaIiEEEdeEv(%"class.__gnu_cxx::__normal_iterator"* nonnull align 8 dereferenceable(8) %2) #2, !llfi_index !1509
  store i32 %30, i32* %31, align 4, !llfi_index !1510
  ret void, !llfi_index !1511
}

; Function Attrs: mustprogress noinline nounwind uwtable
define linkonce_odr dso_local nonnull align 4 dereferenceable(4) i32* @_ZSt4moveIRiEONSt16remove_referenceIT_E4typeEOS2_(i32* nonnull align 4 dereferenceable(4) %0) #3 comdat {
  %2 = alloca i32*, align 8, !llfi_index !1512
  store i32* %0, i32** %2, align 8, !llfi_index !1513
  %3 = load i32*, i32** %2, align 8, !llfi_index !1514
  ret i32* %3, !llfi_index !1515
}

; Function Attrs: mustprogress noinline nounwind uwtable
define linkonce_odr dso_local nonnull align 8 dereferenceable(8) %"class.__gnu_cxx::__normal_iterator"* @_ZN9__gnu_cxx17__normal_iteratorIPiSt6vectorIiSaIiEEEmmEv(%"class.__gnu_cxx::__normal_iterator"* nonnull align 8 dereferenceable(8) %0) #3 comdat align 2 {
  %2 = alloca %"class.__gnu_cxx::__normal_iterator"*, align 8, !llfi_index !1516
  store %"class.__gnu_cxx::__normal_iterator"* %0, %"class.__gnu_cxx::__normal_iterator"** %2, align 8, !llfi_index !1517
  %3 = load %"class.__gnu_cxx::__normal_iterator"*, %"class.__gnu_cxx::__normal_iterator"** %2, align 8, !llfi_index !1518
  %4 = getelementptr inbounds %"class.__gnu_cxx::__normal_iterator", %"class.__gnu_cxx::__normal_iterator"* %3, i32 0, i32 0, !llfi_index !1519
  %5 = load i32*, i32** %4, align 8, !llfi_index !1520
  %6 = getelementptr inbounds i32, i32* %5, i32 -1, !llfi_index !1521
  store i32* %6, i32** %4, align 8, !llfi_index !1522
  ret %"class.__gnu_cxx::__normal_iterator"* %3, !llfi_index !1523
}

; Function Attrs: mustprogress noinline nounwind uwtable
define linkonce_odr dso_local zeroext i1 @_ZNK9__gnu_cxx5__ops14_Val_less_iterclIiNS_17__normal_iteratorIPiSt6vectorIiSaIiEEEEEEbRT_T0_(%"class.std::allocator"* nonnull align 1 dereferenceable(1) %0, i32* nonnull align 4 dereferenceable(4) %1, i32* %2) #3 comdat align 2 {
  %4 = alloca %"class.__gnu_cxx::__normal_iterator", align 8, !llfi_index !1524
  %5 = alloca %"class.std::allocator"*, align 8, !llfi_index !1525
  %6 = alloca i32*, align 8, !llfi_index !1526
  %7 = getelementptr inbounds %"class.__gnu_cxx::__normal_iterator", %"class.__gnu_cxx::__normal_iterator"* %4, i32 0, i32 0, !llfi_index !1527
  store i32* %2, i32** %7, align 8, !llfi_index !1528
  store %"class.std::allocator"* %0, %"class.std::allocator"** %5, align 8, !llfi_index !1529
  store i32* %1, i32** %6, align 8, !llfi_index !1530
  %8 = load %"class.std::allocator"*, %"class.std::allocator"** %5, align 8, !llfi_index !1531
  %9 = load i32*, i32** %6, align 8, !llfi_index !1532
  %10 = load i32, i32* %9, align 4, !llfi_index !1533
  %11 = call nonnull align 4 dereferenceable(4) i32* @_ZNK9__gnu_cxx17__normal_iteratorIPiSt6vectorIiSaIiEEEdeEv(%"class.__gnu_cxx::__normal_iterator"* nonnull align 8 dereferenceable(8) %4) #2, !llfi_index !1534
  %12 = load i32, i32* %11, align 4, !llfi_index !1535
  %13 = icmp slt i32 %10, %12, !llfi_index !1536
  ret i1 %13, !llfi_index !1537
}

; Function Attrs: mustprogress noinline nounwind uwtable
define linkonce_odr dso_local zeroext i1 @_ZN9__gnu_cxxeqIPiSt6vectorIiSaIiEEEEbRKNS_17__normal_iteratorIT_T0_EESA_(%"class.__gnu_cxx::__normal_iterator"* nonnull align 8 dereferenceable(8) %0, %"class.__gnu_cxx::__normal_iterator"* nonnull align 8 dereferenceable(8) %1) #3 comdat {
  %3 = alloca %"class.__gnu_cxx::__normal_iterator"*, align 8, !llfi_index !1538
  %4 = alloca %"class.__gnu_cxx::__normal_iterator"*, align 8, !llfi_index !1539
  store %"class.__gnu_cxx::__normal_iterator"* %0, %"class.__gnu_cxx::__normal_iterator"** %3, align 8, !llfi_index !1540
  store %"class.__gnu_cxx::__normal_iterator"* %1, %"class.__gnu_cxx::__normal_iterator"** %4, align 8, !llfi_index !1541
  %5 = load %"class.__gnu_cxx::__normal_iterator"*, %"class.__gnu_cxx::__normal_iterator"** %3, align 8, !llfi_index !1542
  %6 = call nonnull align 8 dereferenceable(8) i32** @_ZNK9__gnu_cxx17__normal_iteratorIPiSt6vectorIiSaIiEEE4baseEv(%"class.__gnu_cxx::__normal_iterator"* nonnull align 8 dereferenceable(8) %5) #2, !llfi_index !1543
  %7 = load i32*, i32** %6, align 8, !llfi_index !1544
  %8 = load %"class.__gnu_cxx::__normal_iterator"*, %"class.__gnu_cxx::__normal_iterator"** %4, align 8, !llfi_index !1545
  %9 = call nonnull align 8 dereferenceable(8) i32** @_ZNK9__gnu_cxx17__normal_iteratorIPiSt6vectorIiSaIiEEE4baseEv(%"class.__gnu_cxx::__normal_iterator"* nonnull align 8 dereferenceable(8) %8) #2, !llfi_index !1546
  %10 = load i32*, i32** %9, align 8, !llfi_index !1547
  %11 = icmp eq i32* %7, %10, !llfi_index !1548
  ret i1 %11, !llfi_index !1549
}

; Function Attrs: mustprogress noinline nounwind uwtable
define linkonce_odr dso_local zeroext i1 @_ZNK9__gnu_cxx5__ops15_Iter_less_iterclINS_17__normal_iteratorIPiSt6vectorIiSaIiEEEES8_EEbT_T0_(%"class.std::allocator"* nonnull align 1 dereferenceable(1) %0, i32* %1, i32* %2) #3 comdat align 2 {
  %4 = alloca %"class.__gnu_cxx::__normal_iterator", align 8, !llfi_index !1550
  %5 = alloca %"class.__gnu_cxx::__normal_iterator", align 8, !llfi_index !1551
  %6 = alloca %"class.std::allocator"*, align 8, !llfi_index !1552
  %7 = getelementptr inbounds %"class.__gnu_cxx::__normal_iterator", %"class.__gnu_cxx::__normal_iterator"* %4, i32 0, i32 0, !llfi_index !1553
  store i32* %1, i32** %7, align 8, !llfi_index !1554
  %8 = getelementptr inbounds %"class.__gnu_cxx::__normal_iterator", %"class.__gnu_cxx::__normal_iterator"* %5, i32 0, i32 0, !llfi_index !1555
  store i32* %2, i32** %8, align 8, !llfi_index !1556
  store %"class.std::allocator"* %0, %"class.std::allocator"** %6, align 8, !llfi_index !1557
  %9 = load %"class.std::allocator"*, %"class.std::allocator"** %6, align 8, !llfi_index !1558
  %10 = call nonnull align 4 dereferenceable(4) i32* @_ZNK9__gnu_cxx17__normal_iteratorIPiSt6vectorIiSaIiEEEdeEv(%"class.__gnu_cxx::__normal_iterator"* nonnull align 8 dereferenceable(8) %4) #2, !llfi_index !1559
  %11 = load i32, i32* %10, align 4, !llfi_index !1560
  %12 = call nonnull align 4 dereferenceable(4) i32* @_ZNK9__gnu_cxx17__normal_iteratorIPiSt6vectorIiSaIiEEEdeEv(%"class.__gnu_cxx::__normal_iterator"* nonnull align 8 dereferenceable(8) %5) #2, !llfi_index !1561
  %13 = load i32, i32* %12, align 4, !llfi_index !1562
  %14 = icmp slt i32 %11, %13, !llfi_index !1563
  ret i1 %14, !llfi_index !1564
}

; Function Attrs: mustprogress noinline uwtable
define linkonce_odr dso_local i32* @_ZSt13move_backwardIN9__gnu_cxx17__normal_iteratorIPiSt6vectorIiSaIiEEEES6_ET0_T_S8_S7_(i32* %0, i32* %1, i32* %2) #4 comdat {
  %4 = alloca %"class.__gnu_cxx::__normal_iterator", align 8, !llfi_index !1565
  %5 = alloca %"class.__gnu_cxx::__normal_iterator", align 8, !llfi_index !1566
  %6 = alloca %"class.__gnu_cxx::__normal_iterator", align 8, !llfi_index !1567
  %7 = alloca %"class.__gnu_cxx::__normal_iterator", align 8, !llfi_index !1568
  %8 = alloca %"class.__gnu_cxx::__normal_iterator", align 8, !llfi_index !1569
  %9 = alloca %"class.__gnu_cxx::__normal_iterator", align 8, !llfi_index !1570
  %10 = alloca %"class.__gnu_cxx::__normal_iterator", align 8, !llfi_index !1571
  %11 = alloca %"class.__gnu_cxx::__normal_iterator", align 8, !llfi_index !1572
  %12 = alloca %"class.__gnu_cxx::__normal_iterator", align 8, !llfi_index !1573
  %13 = getelementptr inbounds %"class.__gnu_cxx::__normal_iterator", %"class.__gnu_cxx::__normal_iterator"* %5, i32 0, i32 0, !llfi_index !1574
  store i32* %0, i32** %13, align 8, !llfi_index !1575
  %14 = getelementptr inbounds %"class.__gnu_cxx::__normal_iterator", %"class.__gnu_cxx::__normal_iterator"* %6, i32 0, i32 0, !llfi_index !1576
  store i32* %1, i32** %14, align 8, !llfi_index !1577
  %15 = getelementptr inbounds %"class.__gnu_cxx::__normal_iterator", %"class.__gnu_cxx::__normal_iterator"* %7, i32 0, i32 0, !llfi_index !1578
  store i32* %2, i32** %15, align 8, !llfi_index !1579
  %16 = bitcast %"class.__gnu_cxx::__normal_iterator"* %9 to i8*, !llfi_index !1580
  %17 = bitcast %"class.__gnu_cxx::__normal_iterator"* %5 to i8*, !llfi_index !1581
  call void @llvm.memcpy.p0i8.p0i8.i64(i8* align 8 %16, i8* align 8 %17, i64 8, i1 false), !llfi_index !1582
  %18 = getelementptr inbounds %"class.__gnu_cxx::__normal_iterator", %"class.__gnu_cxx::__normal_iterator"* %9, i32 0, i32 0, !llfi_index !1583
  %19 = load i32*, i32** %18, align 8, !llfi_index !1584
  %20 = call i32* @_ZSt12__miter_baseIN9__gnu_cxx17__normal_iteratorIPiSt6vectorIiSaIiEEEEET_S7_(i32* %19), !llfi_index !1585
  %21 = getelementptr inbounds %"class.__gnu_cxx::__normal_iterator", %"class.__gnu_cxx::__normal_iterator"* %8, i32 0, i32 0, !llfi_index !1586
  store i32* %20, i32** %21, align 8, !llfi_index !1587
  %22 = bitcast %"class.__gnu_cxx::__normal_iterator"* %11 to i8*, !llfi_index !1588
  %23 = bitcast %"class.__gnu_cxx::__normal_iterator"* %6 to i8*, !llfi_index !1589
  call void @llvm.memcpy.p0i8.p0i8.i64(i8* align 8 %22, i8* align 8 %23, i64 8, i1 false), !llfi_index !1590
  %24 = getelementptr inbounds %"class.__gnu_cxx::__normal_iterator", %"class.__gnu_cxx::__normal_iterator"* %11, i32 0, i32 0, !llfi_index !1591
  %25 = load i32*, i32** %24, align 8, !llfi_index !1592
  %26 = call i32* @_ZSt12__miter_baseIN9__gnu_cxx17__normal_iteratorIPiSt6vectorIiSaIiEEEEET_S7_(i32* %25), !llfi_index !1593
  %27 = getelementptr inbounds %"class.__gnu_cxx::__normal_iterator", %"class.__gnu_cxx::__normal_iterator"* %10, i32 0, i32 0, !llfi_index !1594
  store i32* %26, i32** %27, align 8, !llfi_index !1595
  %28 = bitcast %"class.__gnu_cxx::__normal_iterator"* %12 to i8*, !llfi_index !1596
  %29 = bitcast %"class.__gnu_cxx::__normal_iterator"* %7 to i8*, !llfi_index !1597
  call void @llvm.memcpy.p0i8.p0i8.i64(i8* align 8 %28, i8* align 8 %29, i64 8, i1 false), !llfi_index !1598
  %30 = getelementptr inbounds %"class.__gnu_cxx::__normal_iterator", %"class.__gnu_cxx::__normal_iterator"* %8, i32 0, i32 0, !llfi_index !1599
  %31 = load i32*, i32** %30, align 8, !llfi_index !1600
  %32 = getelementptr inbounds %"class.__gnu_cxx::__normal_iterator", %"class.__gnu_cxx::__normal_iterator"* %10, i32 0, i32 0, !llfi_index !1601
  %33 = load i32*, i32** %32, align 8, !llfi_index !1602
  %34 = getelementptr inbounds %"class.__gnu_cxx::__normal_iterator", %"class.__gnu_cxx::__normal_iterator"* %12, i32 0, i32 0, !llfi_index !1603
  %35 = load i32*, i32** %34, align 8, !llfi_index !1604
  %36 = call i32* @_ZSt23__copy_move_backward_a2ILb1EN9__gnu_cxx17__normal_iteratorIPiSt6vectorIiSaIiEEEES6_ET1_T0_S8_S7_(i32* %31, i32* %33, i32* %35), !llfi_index !1605
  %37 = getelementptr inbounds %"class.__gnu_cxx::__normal_iterator", %"class.__gnu_cxx::__normal_iterator"* %4, i32 0, i32 0, !llfi_index !1606
  store i32* %36, i32** %37, align 8, !llfi_index !1607
  %38 = getelementptr inbounds %"class.__gnu_cxx::__normal_iterator", %"class.__gnu_cxx::__normal_iterator"* %4, i32 0, i32 0, !llfi_index !1608
  %39 = load i32*, i32** %38, align 8, !llfi_index !1609
  ret i32* %39, !llfi_index !1610
}

; Function Attrs: mustprogress noinline nounwind uwtable
define linkonce_odr dso_local i32* @_ZSt12__miter_baseIN9__gnu_cxx17__normal_iteratorIPiSt6vectorIiSaIiEEEEET_S7_(i32* %0) #3 comdat {
  %2 = alloca %"class.__gnu_cxx::__normal_iterator", align 8, !llfi_index !1611
  %3 = alloca %"class.__gnu_cxx::__normal_iterator", align 8, !llfi_index !1612
  %4 = getelementptr inbounds %"class.__gnu_cxx::__normal_iterator", %"class.__gnu_cxx::__normal_iterator"* %3, i32 0, i32 0, !llfi_index !1613
  store i32* %0, i32** %4, align 8, !llfi_index !1614
  %5 = bitcast %"class.__gnu_cxx::__normal_iterator"* %2 to i8*, !llfi_index !1615
  %6 = bitcast %"class.__gnu_cxx::__normal_iterator"* %3 to i8*, !llfi_index !1616
  call void @llvm.memcpy.p0i8.p0i8.i64(i8* align 8 %5, i8* align 8 %6, i64 8, i1 false), !llfi_index !1617
  %7 = getelementptr inbounds %"class.__gnu_cxx::__normal_iterator", %"class.__gnu_cxx::__normal_iterator"* %2, i32 0, i32 0, !llfi_index !1618
  %8 = load i32*, i32** %7, align 8, !llfi_index !1619
  ret i32* %8, !llfi_index !1620
}

; Function Attrs: mustprogress noinline uwtable
define linkonce_odr dso_local i32* @_ZSt23__copy_move_backward_a2ILb1EN9__gnu_cxx17__normal_iteratorIPiSt6vectorIiSaIiEEEES6_ET1_T0_S8_S7_(i32* %0, i32* %1, i32* %2) #4 comdat {
  %4 = alloca %"class.__gnu_cxx::__normal_iterator", align 8, !llfi_index !1621
  %5 = alloca %"class.__gnu_cxx::__normal_iterator", align 8, !llfi_index !1622
  %6 = alloca %"class.__gnu_cxx::__normal_iterator", align 8, !llfi_index !1623
  %7 = alloca %"class.__gnu_cxx::__normal_iterator", align 8, !llfi_index !1624
  %8 = alloca %"class.__gnu_cxx::__normal_iterator", align 8, !llfi_index !1625
  %9 = alloca %"class.__gnu_cxx::__normal_iterator", align 8, !llfi_index !1626
  %10 = alloca %"class.__gnu_cxx::__normal_iterator", align 8, !llfi_index !1627
  %11 = alloca %"class.__gnu_cxx::__normal_iterator", align 8, !llfi_index !1628
  %12 = getelementptr inbounds %"class.__gnu_cxx::__normal_iterator", %"class.__gnu_cxx::__normal_iterator"* %5, i32 0, i32 0, !llfi_index !1629
  store i32* %0, i32** %12, align 8, !llfi_index !1630
  %13 = getelementptr inbounds %"class.__gnu_cxx::__normal_iterator", %"class.__gnu_cxx::__normal_iterator"* %6, i32 0, i32 0, !llfi_index !1631
  store i32* %1, i32** %13, align 8, !llfi_index !1632
  %14 = getelementptr inbounds %"class.__gnu_cxx::__normal_iterator", %"class.__gnu_cxx::__normal_iterator"* %7, i32 0, i32 0, !llfi_index !1633
  store i32* %2, i32** %14, align 8, !llfi_index !1634
  %15 = bitcast %"class.__gnu_cxx::__normal_iterator"* %8 to i8*, !llfi_index !1635
  %16 = bitcast %"class.__gnu_cxx::__normal_iterator"* %7 to i8*, !llfi_index !1636
  call void @llvm.memcpy.p0i8.p0i8.i64(i8* align 8 %15, i8* align 8 %16, i64 8, i1 false), !llfi_index !1637
  %17 = bitcast %"class.__gnu_cxx::__normal_iterator"* %9 to i8*, !llfi_index !1638
  %18 = bitcast %"class.__gnu_cxx::__normal_iterator"* %5 to i8*, !llfi_index !1639
  call void @llvm.memcpy.p0i8.p0i8.i64(i8* align 8 %17, i8* align 8 %18, i64 8, i1 false), !llfi_index !1640
  %19 = getelementptr inbounds %"class.__gnu_cxx::__normal_iterator", %"class.__gnu_cxx::__normal_iterator"* %9, i32 0, i32 0, !llfi_index !1641
  %20 = load i32*, i32** %19, align 8, !llfi_index !1642
  %21 = call i32* @_ZSt12__niter_baseIPiSt6vectorIiSaIiEEET_N9__gnu_cxx17__normal_iteratorIS4_T0_EE(i32* %20) #2, !llfi_index !1643
  %22 = bitcast %"class.__gnu_cxx::__normal_iterator"* %10 to i8*, !llfi_index !1644
  %23 = bitcast %"class.__gnu_cxx::__normal_iterator"* %6 to i8*, !llfi_index !1645
  call void @llvm.memcpy.p0i8.p0i8.i64(i8* align 8 %22, i8* align 8 %23, i64 8, i1 false), !llfi_index !1646
  %24 = getelementptr inbounds %"class.__gnu_cxx::__normal_iterator", %"class.__gnu_cxx::__normal_iterator"* %10, i32 0, i32 0, !llfi_index !1647
  %25 = load i32*, i32** %24, align 8, !llfi_index !1648
  %26 = call i32* @_ZSt12__niter_baseIPiSt6vectorIiSaIiEEET_N9__gnu_cxx17__normal_iteratorIS4_T0_EE(i32* %25) #2, !llfi_index !1649
  %27 = bitcast %"class.__gnu_cxx::__normal_iterator"* %11 to i8*, !llfi_index !1650
  %28 = bitcast %"class.__gnu_cxx::__normal_iterator"* %7 to i8*, !llfi_index !1651
  call void @llvm.memcpy.p0i8.p0i8.i64(i8* align 8 %27, i8* align 8 %28, i64 8, i1 false), !llfi_index !1652
  %29 = getelementptr inbounds %"class.__gnu_cxx::__normal_iterator", %"class.__gnu_cxx::__normal_iterator"* %11, i32 0, i32 0, !llfi_index !1653
  %30 = load i32*, i32** %29, align 8, !llfi_index !1654
  %31 = call i32* @_ZSt12__niter_baseIPiSt6vectorIiSaIiEEET_N9__gnu_cxx17__normal_iteratorIS4_T0_EE(i32* %30) #2, !llfi_index !1655
  %32 = call i32* @_ZSt22__copy_move_backward_aILb1EPiS0_ET1_T0_S2_S1_(i32* %21, i32* %26, i32* %31), !llfi_index !1656
  %33 = getelementptr inbounds %"class.__gnu_cxx::__normal_iterator", %"class.__gnu_cxx::__normal_iterator"* %8, i32 0, i32 0, !llfi_index !1657
  %34 = load i32*, i32** %33, align 8, !llfi_index !1658
  %35 = call i32* @_ZSt12__niter_wrapIN9__gnu_cxx17__normal_iteratorIPiSt6vectorIiSaIiEEEES2_ET_S7_T0_(i32* %34, i32* %32), !llfi_index !1659
  %36 = getelementptr inbounds %"class.__gnu_cxx::__normal_iterator", %"class.__gnu_cxx::__normal_iterator"* %4, i32 0, i32 0, !llfi_index !1660
  store i32* %35, i32** %36, align 8, !llfi_index !1661
  %37 = getelementptr inbounds %"class.__gnu_cxx::__normal_iterator", %"class.__gnu_cxx::__normal_iterator"* %4, i32 0, i32 0, !llfi_index !1662
  %38 = load i32*, i32** %37, align 8, !llfi_index !1663
  ret i32* %38, !llfi_index !1664
}

; Function Attrs: mustprogress noinline nounwind uwtable
define linkonce_odr dso_local i32* @_ZSt12__niter_baseIPiSt6vectorIiSaIiEEET_N9__gnu_cxx17__normal_iteratorIS4_T0_EE(i32* %0) #3 comdat {
  %2 = alloca %"class.__gnu_cxx::__normal_iterator", align 8, !llfi_index !1665
  %3 = getelementptr inbounds %"class.__gnu_cxx::__normal_iterator", %"class.__gnu_cxx::__normal_iterator"* %2, i32 0, i32 0, !llfi_index !1666
  store i32* %0, i32** %3, align 8, !llfi_index !1667
  %4 = call nonnull align 8 dereferenceable(8) i32** @_ZNK9__gnu_cxx17__normal_iteratorIPiSt6vectorIiSaIiEEE4baseEv(%"class.__gnu_cxx::__normal_iterator"* nonnull align 8 dereferenceable(8) %2) #2, !llfi_index !1668
  %5 = load i32*, i32** %4, align 8, !llfi_index !1669
  ret i32* %5, !llfi_index !1670
}

; Function Attrs: mustprogress noinline uwtable
define linkonce_odr dso_local i32* @_ZSt22__copy_move_backward_aILb1EPiS0_ET1_T0_S2_S1_(i32* %0, i32* %1, i32* %2) #4 comdat {
  %4 = alloca i32*, align 8, !llfi_index !1671
  %5 = alloca i32*, align 8, !llfi_index !1672
  %6 = alloca i32*, align 8, !llfi_index !1673
  %7 = alloca i8, align 1, !llfi_index !1674
  store i32* %0, i32** %4, align 8, !llfi_index !1675
  store i32* %1, i32** %5, align 8, !llfi_index !1676
  store i32* %2, i32** %6, align 8, !llfi_index !1677
  store i8 1, i8* %7, align 1, !llfi_index !1678
  %8 = load i32*, i32** %4, align 8, !llfi_index !1679
  %9 = load i32*, i32** %5, align 8, !llfi_index !1680
  %10 = load i32*, i32** %6, align 8, !llfi_index !1681
  %11 = call i32* @_ZNSt20__copy_move_backwardILb1ELb1ESt26random_access_iterator_tagE13__copy_move_bIiEEPT_PKS3_S6_S4_(i32* %8, i32* %9, i32* %10), !llfi_index !1682
  ret i32* %11, !llfi_index !1683
}

; Function Attrs: mustprogress noinline nounwind uwtable
define linkonce_odr dso_local i32* @_ZSt12__niter_wrapIN9__gnu_cxx17__normal_iteratorIPiSt6vectorIiSaIiEEEES2_ET_S7_T0_(i32* %0, i32* %1) #3 comdat {
  %3 = alloca %"class.__gnu_cxx::__normal_iterator", align 8, !llfi_index !1684
  %4 = alloca %"class.__gnu_cxx::__normal_iterator", align 8, !llfi_index !1685
  %5 = alloca i32*, align 8, !llfi_index !1686
  %6 = alloca %"class.__gnu_cxx::__normal_iterator", align 8, !llfi_index !1687
  %7 = getelementptr inbounds %"class.__gnu_cxx::__normal_iterator", %"class.__gnu_cxx::__normal_iterator"* %4, i32 0, i32 0, !llfi_index !1688
  store i32* %0, i32** %7, align 8, !llfi_index !1689
  store i32* %1, i32** %5, align 8, !llfi_index !1690
  %8 = load i32*, i32** %5, align 8, !llfi_index !1691
  %9 = bitcast %"class.__gnu_cxx::__normal_iterator"* %6 to i8*, !llfi_index !1692
  %10 = bitcast %"class.__gnu_cxx::__normal_iterator"* %4 to i8*, !llfi_index !1693
  call void @llvm.memcpy.p0i8.p0i8.i64(i8* align 8 %9, i8* align 8 %10, i64 8, i1 false), !llfi_index !1694
  %11 = getelementptr inbounds %"class.__gnu_cxx::__normal_iterator", %"class.__gnu_cxx::__normal_iterator"* %6, i32 0, i32 0, !llfi_index !1695
  %12 = load i32*, i32** %11, align 8, !llfi_index !1696
  %13 = call i32* @_ZSt12__niter_baseIPiSt6vectorIiSaIiEEET_N9__gnu_cxx17__normal_iteratorIS4_T0_EE(i32* %12) #2, !llfi_index !1697
  %14 = ptrtoint i32* %8 to i64, !llfi_index !1698
  %15 = ptrtoint i32* %13 to i64, !llfi_index !1699
  %16 = sub i64 %14, %15, !llfi_index !1700
  %17 = sdiv exact i64 %16, 4, !llfi_index !1701
  %18 = call i32* @_ZNK9__gnu_cxx17__normal_iteratorIPiSt6vectorIiSaIiEEEplEl(%"class.__gnu_cxx::__normal_iterator"* nonnull align 8 dereferenceable(8) %4, i64 %17) #2, !llfi_index !1702
  %19 = getelementptr inbounds %"class.__gnu_cxx::__normal_iterator", %"class.__gnu_cxx::__normal_iterator"* %3, i32 0, i32 0, !llfi_index !1703
  store i32* %18, i32** %19, align 8, !llfi_index !1704
  %20 = getelementptr inbounds %"class.__gnu_cxx::__normal_iterator", %"class.__gnu_cxx::__normal_iterator"* %3, i32 0, i32 0, !llfi_index !1705
  %21 = load i32*, i32** %20, align 8, !llfi_index !1706
  ret i32* %21, !llfi_index !1707
}

; Function Attrs: mustprogress noinline nounwind uwtable
define linkonce_odr dso_local i32* @_ZNSt20__copy_move_backwardILb1ELb1ESt26random_access_iterator_tagE13__copy_move_bIiEEPT_PKS3_S6_S4_(i32* %0, i32* %1, i32* %2) #3 comdat align 2 {
  %4 = alloca i32*, align 8, !llfi_index !1708
  %5 = alloca i32*, align 8, !llfi_index !1709
  %6 = alloca i32*, align 8, !llfi_index !1710
  %7 = alloca i64, align 8, !llfi_index !1711
  store i32* %0, i32** %4, align 8, !llfi_index !1712
  store i32* %1, i32** %5, align 8, !llfi_index !1713
  store i32* %2, i32** %6, align 8, !llfi_index !1714
  %8 = load i32*, i32** %5, align 8, !llfi_index !1715
  %9 = load i32*, i32** %4, align 8, !llfi_index !1716
  %10 = ptrtoint i32* %8 to i64, !llfi_index !1717
  %11 = ptrtoint i32* %9 to i64, !llfi_index !1718
  %12 = sub i64 %10, %11, !llfi_index !1719
  %13 = sdiv exact i64 %12, 4, !llfi_index !1720
  store i64 %13, i64* %7, align 8, !llfi_index !1721
  %14 = load i64, i64* %7, align 8, !llfi_index !1722
  %15 = icmp ne i64 %14, 0, !llfi_index !1723
  br i1 %15, label %16, label %26, !llfi_index !1724

16:                                               ; preds = %3
  %17 = load i32*, i32** %6, align 8, !llfi_index !1725
  %18 = load i64, i64* %7, align 8, !llfi_index !1726
  %19 = sub i64 0, %18, !llfi_index !1727
  %20 = getelementptr inbounds i32, i32* %17, i64 %19, !llfi_index !1728
  %21 = bitcast i32* %20 to i8*, !llfi_index !1729
  %22 = load i32*, i32** %4, align 8, !llfi_index !1730
  %23 = bitcast i32* %22 to i8*, !llfi_index !1731
  %24 = load i64, i64* %7, align 8, !llfi_index !1732
  %25 = mul i64 4, %24, !llfi_index !1733
  call void @llvm.memmove.p0i8.p0i8.i64(i8* align 4 %21, i8* align 4 %23, i64 %25, i1 false), !llfi_index !1734
  br label %26, !llfi_index !1735

26:                                               ; preds = %16, %3
  %27 = load i32*, i32** %6, align 8, !llfi_index !1736
  %28 = load i64, i64* %7, align 8, !llfi_index !1737
  %29 = sub i64 0, %28, !llfi_index !1738
  %30 = getelementptr inbounds i32, i32* %27, i64 %29, !llfi_index !1739
  ret i32* %30, !llfi_index !1740
}

; Function Attrs: mustprogress noinline uwtable
define linkonce_odr dso_local void @_ZSt14__partial_sortIN9__gnu_cxx17__normal_iteratorIPiSt6vectorIiSaIiEEEENS0_5__ops15_Iter_less_iterEEvT_S9_S9_T0_(i32* %0, i32* %1, i32* %2) #4 comdat {
  %4 = alloca %"class.__gnu_cxx::__normal_iterator", align 8, !llfi_index !1741
  %5 = alloca %"class.__gnu_cxx::__normal_iterator", align 8, !llfi_index !1742
  %6 = alloca %"class.__gnu_cxx::__normal_iterator", align 8, !llfi_index !1743
  %7 = alloca %"class.std::allocator", align 1, !llfi_index !1744
  %8 = alloca %"class.__gnu_cxx::__normal_iterator", align 8, !llfi_index !1745
  %9 = alloca %"class.__gnu_cxx::__normal_iterator", align 8, !llfi_index !1746
  %10 = alloca %"class.__gnu_cxx::__normal_iterator", align 8, !llfi_index !1747
  %11 = alloca %"class.std::allocator", align 1, !llfi_index !1748
  %12 = alloca %"class.__gnu_cxx::__normal_iterator", align 8, !llfi_index !1749
  %13 = alloca %"class.__gnu_cxx::__normal_iterator", align 8, !llfi_index !1750
  %14 = getelementptr inbounds %"class.__gnu_cxx::__normal_iterator", %"class.__gnu_cxx::__normal_iterator"* %4, i32 0, i32 0, !llfi_index !1751
  store i32* %0, i32** %14, align 8, !llfi_index !1752
  %15 = getelementptr inbounds %"class.__gnu_cxx::__normal_iterator", %"class.__gnu_cxx::__normal_iterator"* %5, i32 0, i32 0, !llfi_index !1753
  store i32* %1, i32** %15, align 8, !llfi_index !1754
  %16 = getelementptr inbounds %"class.__gnu_cxx::__normal_iterator", %"class.__gnu_cxx::__normal_iterator"* %6, i32 0, i32 0, !llfi_index !1755
  store i32* %2, i32** %16, align 8, !llfi_index !1756
  %17 = bitcast %"class.__gnu_cxx::__normal_iterator"* %8 to i8*, !llfi_index !1757
  %18 = bitcast %"class.__gnu_cxx::__normal_iterator"* %4 to i8*, !llfi_index !1758
  call void @llvm.memcpy.p0i8.p0i8.i64(i8* align 8 %17, i8* align 8 %18, i64 8, i1 false), !llfi_index !1759
  %19 = bitcast %"class.__gnu_cxx::__normal_iterator"* %9 to i8*, !llfi_index !1760
  %20 = bitcast %"class.__gnu_cxx::__normal_iterator"* %5 to i8*, !llfi_index !1761
  call void @llvm.memcpy.p0i8.p0i8.i64(i8* align 8 %19, i8* align 8 %20, i64 8, i1 false), !llfi_index !1762
  %21 = bitcast %"class.__gnu_cxx::__normal_iterator"* %10 to i8*, !llfi_index !1763
  %22 = bitcast %"class.__gnu_cxx::__normal_iterator"* %6 to i8*, !llfi_index !1764
  call void @llvm.memcpy.p0i8.p0i8.i64(i8* align 8 %21, i8* align 8 %22, i64 8, i1 false), !llfi_index !1765
  %23 = getelementptr inbounds %"class.__gnu_cxx::__normal_iterator", %"class.__gnu_cxx::__normal_iterator"* %8, i32 0, i32 0, !llfi_index !1766
  %24 = load i32*, i32** %23, align 8, !llfi_index !1767
  %25 = getelementptr inbounds %"class.__gnu_cxx::__normal_iterator", %"class.__gnu_cxx::__normal_iterator"* %9, i32 0, i32 0, !llfi_index !1768
  %26 = load i32*, i32** %25, align 8, !llfi_index !1769
  %27 = getelementptr inbounds %"class.__gnu_cxx::__normal_iterator", %"class.__gnu_cxx::__normal_iterator"* %10, i32 0, i32 0, !llfi_index !1770
  %28 = load i32*, i32** %27, align 8, !llfi_index !1771
  call void @_ZSt13__heap_selectIN9__gnu_cxx17__normal_iteratorIPiSt6vectorIiSaIiEEEENS0_5__ops15_Iter_less_iterEEvT_S9_S9_T0_(i32* %24, i32* %26, i32* %28), !llfi_index !1772
  %29 = bitcast %"class.__gnu_cxx::__normal_iterator"* %12 to i8*, !llfi_index !1773
  %30 = bitcast %"class.__gnu_cxx::__normal_iterator"* %4 to i8*, !llfi_index !1774
  call void @llvm.memcpy.p0i8.p0i8.i64(i8* align 8 %29, i8* align 8 %30, i64 8, i1 false), !llfi_index !1775
  %31 = bitcast %"class.__gnu_cxx::__normal_iterator"* %13 to i8*, !llfi_index !1776
  %32 = bitcast %"class.__gnu_cxx::__normal_iterator"* %5 to i8*, !llfi_index !1777
  call void @llvm.memcpy.p0i8.p0i8.i64(i8* align 8 %31, i8* align 8 %32, i64 8, i1 false), !llfi_index !1778
  %33 = getelementptr inbounds %"class.__gnu_cxx::__normal_iterator", %"class.__gnu_cxx::__normal_iterator"* %12, i32 0, i32 0, !llfi_index !1779
  %34 = load i32*, i32** %33, align 8, !llfi_index !1780
  %35 = getelementptr inbounds %"class.__gnu_cxx::__normal_iterator", %"class.__gnu_cxx::__normal_iterator"* %13, i32 0, i32 0, !llfi_index !1781
  %36 = load i32*, i32** %35, align 8, !llfi_index !1782
  call void @_ZSt11__sort_heapIN9__gnu_cxx17__normal_iteratorIPiSt6vectorIiSaIiEEEENS0_5__ops15_Iter_less_iterEEvT_S9_RT0_(i32* %34, i32* %36, %"class.std::allocator"* nonnull align 1 dereferenceable(1) %7), !llfi_index !1783
  ret void, !llfi_index !1784
}

; Function Attrs: mustprogress noinline uwtable
define linkonce_odr dso_local i32* @_ZSt27__unguarded_partition_pivotIN9__gnu_cxx17__normal_iteratorIPiSt6vectorIiSaIiEEEENS0_5__ops15_Iter_less_iterEET_S9_S9_T0_(i32* %0, i32* %1) #4 comdat {
  %3 = alloca %"class.__gnu_cxx::__normal_iterator", align 8, !llfi_index !1785
  %4 = alloca %"class.__gnu_cxx::__normal_iterator", align 8, !llfi_index !1786
  %5 = alloca %"class.__gnu_cxx::__normal_iterator", align 8, !llfi_index !1787
  %6 = alloca %"class.std::allocator", align 1, !llfi_index !1788
  %7 = alloca %"class.__gnu_cxx::__normal_iterator", align 8, !llfi_index !1789
  %8 = alloca %"class.__gnu_cxx::__normal_iterator", align 8, !llfi_index !1790
  %9 = alloca %"class.__gnu_cxx::__normal_iterator", align 8, !llfi_index !1791
  %10 = alloca %"class.__gnu_cxx::__normal_iterator", align 8, !llfi_index !1792
  %11 = alloca %"class.__gnu_cxx::__normal_iterator", align 8, !llfi_index !1793
  %12 = alloca %"class.std::allocator", align 1, !llfi_index !1794
  %13 = alloca %"class.__gnu_cxx::__normal_iterator", align 8, !llfi_index !1795
  %14 = alloca %"class.__gnu_cxx::__normal_iterator", align 8, !llfi_index !1796
  %15 = alloca %"class.__gnu_cxx::__normal_iterator", align 8, !llfi_index !1797
  %16 = alloca %"class.std::allocator", align 1, !llfi_index !1798
  %17 = getelementptr inbounds %"class.__gnu_cxx::__normal_iterator", %"class.__gnu_cxx::__normal_iterator"* %4, i32 0, i32 0, !llfi_index !1799
  store i32* %0, i32** %17, align 8, !llfi_index !1800
  %18 = getelementptr inbounds %"class.__gnu_cxx::__normal_iterator", %"class.__gnu_cxx::__normal_iterator"* %5, i32 0, i32 0, !llfi_index !1801
  store i32* %1, i32** %18, align 8, !llfi_index !1802
  %19 = call i64 @_ZN9__gnu_cxxmiIPiSt6vectorIiSaIiEEEENS_17__normal_iteratorIT_T0_E15difference_typeERKS8_SB_(%"class.__gnu_cxx::__normal_iterator"* nonnull align 8 dereferenceable(8) %5, %"class.__gnu_cxx::__normal_iterator"* nonnull align 8 dereferenceable(8) %4) #2, !llfi_index !1803
  %20 = sdiv i64 %19, 2, !llfi_index !1804
  %21 = call i32* @_ZNK9__gnu_cxx17__normal_iteratorIPiSt6vectorIiSaIiEEEplEl(%"class.__gnu_cxx::__normal_iterator"* nonnull align 8 dereferenceable(8) %4, i64 %20) #2, !llfi_index !1805
  %22 = getelementptr inbounds %"class.__gnu_cxx::__normal_iterator", %"class.__gnu_cxx::__normal_iterator"* %7, i32 0, i32 0, !llfi_index !1806
  store i32* %21, i32** %22, align 8, !llfi_index !1807
  %23 = bitcast %"class.__gnu_cxx::__normal_iterator"* %8 to i8*, !llfi_index !1808
  %24 = bitcast %"class.__gnu_cxx::__normal_iterator"* %4 to i8*, !llfi_index !1809
  call void @llvm.memcpy.p0i8.p0i8.i64(i8* align 8 %23, i8* align 8 %24, i64 8, i1 false), !llfi_index !1810
  %25 = call i32* @_ZNK9__gnu_cxx17__normal_iteratorIPiSt6vectorIiSaIiEEEplEl(%"class.__gnu_cxx::__normal_iterator"* nonnull align 8 dereferenceable(8) %4, i64 1) #2, !llfi_index !1811
  %26 = getelementptr inbounds %"class.__gnu_cxx::__normal_iterator", %"class.__gnu_cxx::__normal_iterator"* %9, i32 0, i32 0, !llfi_index !1812
  store i32* %25, i32** %26, align 8, !llfi_index !1813
  %27 = bitcast %"class.__gnu_cxx::__normal_iterator"* %10 to i8*, !llfi_index !1814
  %28 = bitcast %"class.__gnu_cxx::__normal_iterator"* %7 to i8*, !llfi_index !1815
  call void @llvm.memcpy.p0i8.p0i8.i64(i8* align 8 %27, i8* align 8 %28, i64 8, i1 false), !llfi_index !1816
  %29 = call i32* @_ZNK9__gnu_cxx17__normal_iteratorIPiSt6vectorIiSaIiEEEmiEl(%"class.__gnu_cxx::__normal_iterator"* nonnull align 8 dereferenceable(8) %5, i64 1) #2, !llfi_index !1817
  %30 = getelementptr inbounds %"class.__gnu_cxx::__normal_iterator", %"class.__gnu_cxx::__normal_iterator"* %11, i32 0, i32 0, !llfi_index !1818
  store i32* %29, i32** %30, align 8, !llfi_index !1819
  %31 = getelementptr inbounds %"class.__gnu_cxx::__normal_iterator", %"class.__gnu_cxx::__normal_iterator"* %8, i32 0, i32 0, !llfi_index !1820
  %32 = load i32*, i32** %31, align 8, !llfi_index !1821
  %33 = getelementptr inbounds %"class.__gnu_cxx::__normal_iterator", %"class.__gnu_cxx::__normal_iterator"* %9, i32 0, i32 0, !llfi_index !1822
  %34 = load i32*, i32** %33, align 8, !llfi_index !1823
  %35 = getelementptr inbounds %"class.__gnu_cxx::__normal_iterator", %"class.__gnu_cxx::__normal_iterator"* %10, i32 0, i32 0, !llfi_index !1824
  %36 = load i32*, i32** %35, align 8, !llfi_index !1825
  %37 = getelementptr inbounds %"class.__gnu_cxx::__normal_iterator", %"class.__gnu_cxx::__normal_iterator"* %11, i32 0, i32 0, !llfi_index !1826
  %38 = load i32*, i32** %37, align 8, !llfi_index !1827
  call void @_ZSt22__move_median_to_firstIN9__gnu_cxx17__normal_iteratorIPiSt6vectorIiSaIiEEEENS0_5__ops15_Iter_less_iterEEvT_S9_S9_S9_T0_(i32* %32, i32* %34, i32* %36, i32* %38), !llfi_index !1828
  %39 = call i32* @_ZNK9__gnu_cxx17__normal_iteratorIPiSt6vectorIiSaIiEEEplEl(%"class.__gnu_cxx::__normal_iterator"* nonnull align 8 dereferenceable(8) %4, i64 1) #2, !llfi_index !1829
  %40 = getelementptr inbounds %"class.__gnu_cxx::__normal_iterator", %"class.__gnu_cxx::__normal_iterator"* %13, i32 0, i32 0, !llfi_index !1830
  store i32* %39, i32** %40, align 8, !llfi_index !1831
  %41 = bitcast %"class.__gnu_cxx::__normal_iterator"* %14 to i8*, !llfi_index !1832
  %42 = bitcast %"class.__gnu_cxx::__normal_iterator"* %5 to i8*, !llfi_index !1833
  call void @llvm.memcpy.p0i8.p0i8.i64(i8* align 8 %41, i8* align 8 %42, i64 8, i1 false), !llfi_index !1834
  %43 = bitcast %"class.__gnu_cxx::__normal_iterator"* %15 to i8*, !llfi_index !1835
  %44 = bitcast %"class.__gnu_cxx::__normal_iterator"* %4 to i8*, !llfi_index !1836
  call void @llvm.memcpy.p0i8.p0i8.i64(i8* align 8 %43, i8* align 8 %44, i64 8, i1 false), !llfi_index !1837
  %45 = getelementptr inbounds %"class.__gnu_cxx::__normal_iterator", %"class.__gnu_cxx::__normal_iterator"* %13, i32 0, i32 0, !llfi_index !1838
  %46 = load i32*, i32** %45, align 8, !llfi_index !1839
  %47 = getelementptr inbounds %"class.__gnu_cxx::__normal_iterator", %"class.__gnu_cxx::__normal_iterator"* %14, i32 0, i32 0, !llfi_index !1840
  %48 = load i32*, i32** %47, align 8, !llfi_index !1841
  %49 = getelementptr inbounds %"class.__gnu_cxx::__normal_iterator", %"class.__gnu_cxx::__normal_iterator"* %15, i32 0, i32 0, !llfi_index !1842
  %50 = load i32*, i32** %49, align 8, !llfi_index !1843
  %51 = call i32* @_ZSt21__unguarded_partitionIN9__gnu_cxx17__normal_iteratorIPiSt6vectorIiSaIiEEEENS0_5__ops15_Iter_less_iterEET_S9_S9_S9_T0_(i32* %46, i32* %48, i32* %50), !llfi_index !1844
  %52 = getelementptr inbounds %"class.__gnu_cxx::__normal_iterator", %"class.__gnu_cxx::__normal_iterator"* %3, i32 0, i32 0, !llfi_index !1845
  store i32* %51, i32** %52, align 8, !llfi_index !1846
  %53 = getelementptr inbounds %"class.__gnu_cxx::__normal_iterator", %"class.__gnu_cxx::__normal_iterator"* %3, i32 0, i32 0, !llfi_index !1847
  %54 = load i32*, i32** %53, align 8, !llfi_index !1848
  ret i32* %54, !llfi_index !1849
}

; Function Attrs: mustprogress noinline nounwind uwtable
define linkonce_odr dso_local i32* @_ZNK9__gnu_cxx17__normal_iteratorIPiSt6vectorIiSaIiEEEmiEl(%"class.__gnu_cxx::__normal_iterator"* nonnull align 8 dereferenceable(8) %0, i64 %1) #3 comdat align 2 {
  %3 = alloca %"class.__gnu_cxx::__normal_iterator", align 8, !llfi_index !1850
  %4 = alloca %"class.__gnu_cxx::__normal_iterator"*, align 8, !llfi_index !1851
  %5 = alloca i64, align 8, !llfi_index !1852
  %6 = alloca i32*, align 8, !llfi_index !1853
  store %"class.__gnu_cxx::__normal_iterator"* %0, %"class.__gnu_cxx::__normal_iterator"** %4, align 8, !llfi_index !1854
  store i64 %1, i64* %5, align 8, !llfi_index !1855
  %7 = load %"class.__gnu_cxx::__normal_iterator"*, %"class.__gnu_cxx::__normal_iterator"** %4, align 8, !llfi_index !1856
  %8 = getelementptr inbounds %"class.__gnu_cxx::__normal_iterator", %"class.__gnu_cxx::__normal_iterator"* %7, i32 0, i32 0, !llfi_index !1857
  %9 = load i32*, i32** %8, align 8, !llfi_index !1858
  %10 = load i64, i64* %5, align 8, !llfi_index !1859
  %11 = sub i64 0, %10, !llfi_index !1860
  %12 = getelementptr inbounds i32, i32* %9, i64 %11, !llfi_index !1861
  store i32* %12, i32** %6, align 8, !llfi_index !1862
  call void @_ZN9__gnu_cxx17__normal_iteratorIPiSt6vectorIiSaIiEEEC2ERKS1_(%"class.__gnu_cxx::__normal_iterator"* nonnull align 8 dereferenceable(8) %3, i32** nonnull align 8 dereferenceable(8) %6) #2, !llfi_index !1863
  %13 = getelementptr inbounds %"class.__gnu_cxx::__normal_iterator", %"class.__gnu_cxx::__normal_iterator"* %3, i32 0, i32 0, !llfi_index !1864
  %14 = load i32*, i32** %13, align 8, !llfi_index !1865
  ret i32* %14, !llfi_index !1866
}

; Function Attrs: mustprogress noinline uwtable
define linkonce_odr dso_local void @_ZSt22__move_median_to_firstIN9__gnu_cxx17__normal_iteratorIPiSt6vectorIiSaIiEEEENS0_5__ops15_Iter_less_iterEEvT_S9_S9_S9_T0_(i32* %0, i32* %1, i32* %2, i32* %3) #4 comdat {
  %5 = alloca %"class.__gnu_cxx::__normal_iterator", align 8, !llfi_index !1867
  %6 = alloca %"class.__gnu_cxx::__normal_iterator", align 8, !llfi_index !1868
  %7 = alloca %"class.__gnu_cxx::__normal_iterator", align 8, !llfi_index !1869
  %8 = alloca %"class.__gnu_cxx::__normal_iterator", align 8, !llfi_index !1870
  %9 = alloca %"class.std::allocator", align 1, !llfi_index !1871
  %10 = alloca %"class.__gnu_cxx::__normal_iterator", align 8, !llfi_index !1872
  %11 = alloca %"class.__gnu_cxx::__normal_iterator", align 8, !llfi_index !1873
  %12 = alloca %"class.__gnu_cxx::__normal_iterator", align 8, !llfi_index !1874
  %13 = alloca %"class.__gnu_cxx::__normal_iterator", align 8, !llfi_index !1875
  %14 = alloca %"class.__gnu_cxx::__normal_iterator", align 8, !llfi_index !1876
  %15 = alloca %"class.__gnu_cxx::__normal_iterator", align 8, !llfi_index !1877
  %16 = alloca %"class.__gnu_cxx::__normal_iterator", align 8, !llfi_index !1878
  %17 = alloca %"class.__gnu_cxx::__normal_iterator", align 8, !llfi_index !1879
  %18 = alloca %"class.__gnu_cxx::__normal_iterator", align 8, !llfi_index !1880
  %19 = alloca %"class.__gnu_cxx::__normal_iterator", align 8, !llfi_index !1881
  %20 = alloca %"class.__gnu_cxx::__normal_iterator", align 8, !llfi_index !1882
  %21 = alloca %"class.__gnu_cxx::__normal_iterator", align 8, !llfi_index !1883
  %22 = alloca %"class.__gnu_cxx::__normal_iterator", align 8, !llfi_index !1884
  %23 = alloca %"class.__gnu_cxx::__normal_iterator", align 8, !llfi_index !1885
  %24 = alloca %"class.__gnu_cxx::__normal_iterator", align 8, !llfi_index !1886
  %25 = alloca %"class.__gnu_cxx::__normal_iterator", align 8, !llfi_index !1887
  %26 = alloca %"class.__gnu_cxx::__normal_iterator", align 8, !llfi_index !1888
  %27 = alloca %"class.__gnu_cxx::__normal_iterator", align 8, !llfi_index !1889
  %28 = alloca %"class.__gnu_cxx::__normal_iterator", align 8, !llfi_index !1890
  %29 = alloca %"class.__gnu_cxx::__normal_iterator", align 8, !llfi_index !1891
  %30 = alloca %"class.__gnu_cxx::__normal_iterator", align 8, !llfi_index !1892
  %31 = alloca %"class.__gnu_cxx::__normal_iterator", align 8, !llfi_index !1893
  %32 = getelementptr inbounds %"class.__gnu_cxx::__normal_iterator", %"class.__gnu_cxx::__normal_iterator"* %5, i32 0, i32 0, !llfi_index !1894
  store i32* %0, i32** %32, align 8, !llfi_index !1895
  %33 = getelementptr inbounds %"class.__gnu_cxx::__normal_iterator", %"class.__gnu_cxx::__normal_iterator"* %6, i32 0, i32 0, !llfi_index !1896
  store i32* %1, i32** %33, align 8, !llfi_index !1897
  %34 = getelementptr inbounds %"class.__gnu_cxx::__normal_iterator", %"class.__gnu_cxx::__normal_iterator"* %7, i32 0, i32 0, !llfi_index !1898
  store i32* %2, i32** %34, align 8, !llfi_index !1899
  %35 = getelementptr inbounds %"class.__gnu_cxx::__normal_iterator", %"class.__gnu_cxx::__normal_iterator"* %8, i32 0, i32 0, !llfi_index !1900
  store i32* %3, i32** %35, align 8, !llfi_index !1901
  %36 = bitcast %"class.__gnu_cxx::__normal_iterator"* %10 to i8*, !llfi_index !1902
  %37 = bitcast %"class.__gnu_cxx::__normal_iterator"* %6 to i8*, !llfi_index !1903
  call void @llvm.memcpy.p0i8.p0i8.i64(i8* align 8 %36, i8* align 8 %37, i64 8, i1 false), !llfi_index !1904
  %38 = bitcast %"class.__gnu_cxx::__normal_iterator"* %11 to i8*, !llfi_index !1905
  %39 = bitcast %"class.__gnu_cxx::__normal_iterator"* %7 to i8*, !llfi_index !1906
  call void @llvm.memcpy.p0i8.p0i8.i64(i8* align 8 %38, i8* align 8 %39, i64 8, i1 false), !llfi_index !1907
  %40 = getelementptr inbounds %"class.__gnu_cxx::__normal_iterator", %"class.__gnu_cxx::__normal_iterator"* %10, i32 0, i32 0, !llfi_index !1908
  %41 = load i32*, i32** %40, align 8, !llfi_index !1909
  %42 = getelementptr inbounds %"class.__gnu_cxx::__normal_iterator", %"class.__gnu_cxx::__normal_iterator"* %11, i32 0, i32 0, !llfi_index !1910
  %43 = load i32*, i32** %42, align 8, !llfi_index !1911
  %44 = call zeroext i1 @_ZNK9__gnu_cxx5__ops15_Iter_less_iterclINS_17__normal_iteratorIPiSt6vectorIiSaIiEEEES8_EEbT_T0_(%"class.std::allocator"* nonnull align 1 dereferenceable(1) %9, i32* %41, i32* %43), !llfi_index !1912
  br i1 %44, label %45, label %94, !llfi_index !1913

45:                                               ; preds = %4
  %46 = bitcast %"class.__gnu_cxx::__normal_iterator"* %12 to i8*, !llfi_index !1914
  %47 = bitcast %"class.__gnu_cxx::__normal_iterator"* %7 to i8*, !llfi_index !1915
  call void @llvm.memcpy.p0i8.p0i8.i64(i8* align 8 %46, i8* align 8 %47, i64 8, i1 false), !llfi_index !1916
  %48 = bitcast %"class.__gnu_cxx::__normal_iterator"* %13 to i8*, !llfi_index !1917
  %49 = bitcast %"class.__gnu_cxx::__normal_iterator"* %8 to i8*, !llfi_index !1918
  call void @llvm.memcpy.p0i8.p0i8.i64(i8* align 8 %48, i8* align 8 %49, i64 8, i1 false), !llfi_index !1919
  %50 = getelementptr inbounds %"class.__gnu_cxx::__normal_iterator", %"class.__gnu_cxx::__normal_iterator"* %12, i32 0, i32 0, !llfi_index !1920
  %51 = load i32*, i32** %50, align 8, !llfi_index !1921
  %52 = getelementptr inbounds %"class.__gnu_cxx::__normal_iterator", %"class.__gnu_cxx::__normal_iterator"* %13, i32 0, i32 0, !llfi_index !1922
  %53 = load i32*, i32** %52, align 8, !llfi_index !1923
  %54 = call zeroext i1 @_ZNK9__gnu_cxx5__ops15_Iter_less_iterclINS_17__normal_iteratorIPiSt6vectorIiSaIiEEEES8_EEbT_T0_(%"class.std::allocator"* nonnull align 1 dereferenceable(1) %9, i32* %51, i32* %53), !llfi_index !1924
  br i1 %54, label %55, label %64, !llfi_index !1925

55:                                               ; preds = %45
  %56 = bitcast %"class.__gnu_cxx::__normal_iterator"* %14 to i8*, !llfi_index !1926
  %57 = bitcast %"class.__gnu_cxx::__normal_iterator"* %5 to i8*, !llfi_index !1927
  call void @llvm.memcpy.p0i8.p0i8.i64(i8* align 8 %56, i8* align 8 %57, i64 8, i1 false), !llfi_index !1928
  %58 = bitcast %"class.__gnu_cxx::__normal_iterator"* %15 to i8*, !llfi_index !1929
  %59 = bitcast %"class.__gnu_cxx::__normal_iterator"* %7 to i8*, !llfi_index !1930
  call void @llvm.memcpy.p0i8.p0i8.i64(i8* align 8 %58, i8* align 8 %59, i64 8, i1 false), !llfi_index !1931
  %60 = getelementptr inbounds %"class.__gnu_cxx::__normal_iterator", %"class.__gnu_cxx::__normal_iterator"* %14, i32 0, i32 0, !llfi_index !1932
  %61 = load i32*, i32** %60, align 8, !llfi_index !1933
  %62 = getelementptr inbounds %"class.__gnu_cxx::__normal_iterator", %"class.__gnu_cxx::__normal_iterator"* %15, i32 0, i32 0, !llfi_index !1934
  %63 = load i32*, i32** %62, align 8, !llfi_index !1935
  call void @_ZSt9iter_swapIN9__gnu_cxx17__normal_iteratorIPiSt6vectorIiSaIiEEEES6_EvT_T0_(i32* %61, i32* %63), !llfi_index !1936
  br label %93, !llfi_index !1937

64:                                               ; preds = %45
  %65 = bitcast %"class.__gnu_cxx::__normal_iterator"* %16 to i8*, !llfi_index !1938
  %66 = bitcast %"class.__gnu_cxx::__normal_iterator"* %6 to i8*, !llfi_index !1939
  call void @llvm.memcpy.p0i8.p0i8.i64(i8* align 8 %65, i8* align 8 %66, i64 8, i1 false), !llfi_index !1940
  %67 = bitcast %"class.__gnu_cxx::__normal_iterator"* %17 to i8*, !llfi_index !1941
  %68 = bitcast %"class.__gnu_cxx::__normal_iterator"* %8 to i8*, !llfi_index !1942
  call void @llvm.memcpy.p0i8.p0i8.i64(i8* align 8 %67, i8* align 8 %68, i64 8, i1 false), !llfi_index !1943
  %69 = getelementptr inbounds %"class.__gnu_cxx::__normal_iterator", %"class.__gnu_cxx::__normal_iterator"* %16, i32 0, i32 0, !llfi_index !1944
  %70 = load i32*, i32** %69, align 8, !llfi_index !1945
  %71 = getelementptr inbounds %"class.__gnu_cxx::__normal_iterator", %"class.__gnu_cxx::__normal_iterator"* %17, i32 0, i32 0, !llfi_index !1946
  %72 = load i32*, i32** %71, align 8, !llfi_index !1947
  %73 = call zeroext i1 @_ZNK9__gnu_cxx5__ops15_Iter_less_iterclINS_17__normal_iteratorIPiSt6vectorIiSaIiEEEES8_EEbT_T0_(%"class.std::allocator"* nonnull align 1 dereferenceable(1) %9, i32* %70, i32* %72), !llfi_index !1948
  br i1 %73, label %74, label %83, !llfi_index !1949

74:                                               ; preds = %64
  %75 = bitcast %"class.__gnu_cxx::__normal_iterator"* %18 to i8*, !llfi_index !1950
  %76 = bitcast %"class.__gnu_cxx::__normal_iterator"* %5 to i8*, !llfi_index !1951
  call void @llvm.memcpy.p0i8.p0i8.i64(i8* align 8 %75, i8* align 8 %76, i64 8, i1 false), !llfi_index !1952
  %77 = bitcast %"class.__gnu_cxx::__normal_iterator"* %19 to i8*, !llfi_index !1953
  %78 = bitcast %"class.__gnu_cxx::__normal_iterator"* %8 to i8*, !llfi_index !1954
  call void @llvm.memcpy.p0i8.p0i8.i64(i8* align 8 %77, i8* align 8 %78, i64 8, i1 false), !llfi_index !1955
  %79 = getelementptr inbounds %"class.__gnu_cxx::__normal_iterator", %"class.__gnu_cxx::__normal_iterator"* %18, i32 0, i32 0, !llfi_index !1956
  %80 = load i32*, i32** %79, align 8, !llfi_index !1957
  %81 = getelementptr inbounds %"class.__gnu_cxx::__normal_iterator", %"class.__gnu_cxx::__normal_iterator"* %19, i32 0, i32 0, !llfi_index !1958
  %82 = load i32*, i32** %81, align 8, !llfi_index !1959
  call void @_ZSt9iter_swapIN9__gnu_cxx17__normal_iteratorIPiSt6vectorIiSaIiEEEES6_EvT_T0_(i32* %80, i32* %82), !llfi_index !1960
  br label %92, !llfi_index !1961

83:                                               ; preds = %64
  %84 = bitcast %"class.__gnu_cxx::__normal_iterator"* %20 to i8*, !llfi_index !1962
  %85 = bitcast %"class.__gnu_cxx::__normal_iterator"* %5 to i8*, !llfi_index !1963
  call void @llvm.memcpy.p0i8.p0i8.i64(i8* align 8 %84, i8* align 8 %85, i64 8, i1 false), !llfi_index !1964
  %86 = bitcast %"class.__gnu_cxx::__normal_iterator"* %21 to i8*, !llfi_index !1965
  %87 = bitcast %"class.__gnu_cxx::__normal_iterator"* %6 to i8*, !llfi_index !1966
  call void @llvm.memcpy.p0i8.p0i8.i64(i8* align 8 %86, i8* align 8 %87, i64 8, i1 false), !llfi_index !1967
  %88 = getelementptr inbounds %"class.__gnu_cxx::__normal_iterator", %"class.__gnu_cxx::__normal_iterator"* %20, i32 0, i32 0, !llfi_index !1968
  %89 = load i32*, i32** %88, align 8, !llfi_index !1969
  %90 = getelementptr inbounds %"class.__gnu_cxx::__normal_iterator", %"class.__gnu_cxx::__normal_iterator"* %21, i32 0, i32 0, !llfi_index !1970
  %91 = load i32*, i32** %90, align 8, !llfi_index !1971
  call void @_ZSt9iter_swapIN9__gnu_cxx17__normal_iteratorIPiSt6vectorIiSaIiEEEES6_EvT_T0_(i32* %89, i32* %91), !llfi_index !1972
  br label %92, !llfi_index !1973

92:                                               ; preds = %83, %74
  br label %93, !llfi_index !1974

93:                                               ; preds = %92, %55
  br label %143, !llfi_index !1975

94:                                               ; preds = %4
  %95 = bitcast %"class.__gnu_cxx::__normal_iterator"* %22 to i8*, !llfi_index !1976
  %96 = bitcast %"class.__gnu_cxx::__normal_iterator"* %6 to i8*, !llfi_index !1977
  call void @llvm.memcpy.p0i8.p0i8.i64(i8* align 8 %95, i8* align 8 %96, i64 8, i1 false), !llfi_index !1978
  %97 = bitcast %"class.__gnu_cxx::__normal_iterator"* %23 to i8*, !llfi_index !1979
  %98 = bitcast %"class.__gnu_cxx::__normal_iterator"* %8 to i8*, !llfi_index !1980
  call void @llvm.memcpy.p0i8.p0i8.i64(i8* align 8 %97, i8* align 8 %98, i64 8, i1 false), !llfi_index !1981
  %99 = getelementptr inbounds %"class.__gnu_cxx::__normal_iterator", %"class.__gnu_cxx::__normal_iterator"* %22, i32 0, i32 0, !llfi_index !1982
  %100 = load i32*, i32** %99, align 8, !llfi_index !1983
  %101 = getelementptr inbounds %"class.__gnu_cxx::__normal_iterator", %"class.__gnu_cxx::__normal_iterator"* %23, i32 0, i32 0, !llfi_index !1984
  %102 = load i32*, i32** %101, align 8, !llfi_index !1985
  %103 = call zeroext i1 @_ZNK9__gnu_cxx5__ops15_Iter_less_iterclINS_17__normal_iteratorIPiSt6vectorIiSaIiEEEES8_EEbT_T0_(%"class.std::allocator"* nonnull align 1 dereferenceable(1) %9, i32* %100, i32* %102), !llfi_index !1986
  br i1 %103, label %104, label %113, !llfi_index !1987

104:                                              ; preds = %94
  %105 = bitcast %"class.__gnu_cxx::__normal_iterator"* %24 to i8*, !llfi_index !1988
  %106 = bitcast %"class.__gnu_cxx::__normal_iterator"* %5 to i8*, !llfi_index !1989
  call void @llvm.memcpy.p0i8.p0i8.i64(i8* align 8 %105, i8* align 8 %106, i64 8, i1 false), !llfi_index !1990
  %107 = bitcast %"class.__gnu_cxx::__normal_iterator"* %25 to i8*, !llfi_index !1991
  %108 = bitcast %"class.__gnu_cxx::__normal_iterator"* %6 to i8*, !llfi_index !1992
  call void @llvm.memcpy.p0i8.p0i8.i64(i8* align 8 %107, i8* align 8 %108, i64 8, i1 false), !llfi_index !1993
  %109 = getelementptr inbounds %"class.__gnu_cxx::__normal_iterator", %"class.__gnu_cxx::__normal_iterator"* %24, i32 0, i32 0, !llfi_index !1994
  %110 = load i32*, i32** %109, align 8, !llfi_index !1995
  %111 = getelementptr inbounds %"class.__gnu_cxx::__normal_iterator", %"class.__gnu_cxx::__normal_iterator"* %25, i32 0, i32 0, !llfi_index !1996
  %112 = load i32*, i32** %111, align 8, !llfi_index !1997
  call void @_ZSt9iter_swapIN9__gnu_cxx17__normal_iteratorIPiSt6vectorIiSaIiEEEES6_EvT_T0_(i32* %110, i32* %112), !llfi_index !1998
  br label %142, !llfi_index !1999

113:                                              ; preds = %94
  %114 = bitcast %"class.__gnu_cxx::__normal_iterator"* %26 to i8*, !llfi_index !2000
  %115 = bitcast %"class.__gnu_cxx::__normal_iterator"* %7 to i8*, !llfi_index !2001
  call void @llvm.memcpy.p0i8.p0i8.i64(i8* align 8 %114, i8* align 8 %115, i64 8, i1 false), !llfi_index !2002
  %116 = bitcast %"class.__gnu_cxx::__normal_iterator"* %27 to i8*, !llfi_index !2003
  %117 = bitcast %"class.__gnu_cxx::__normal_iterator"* %8 to i8*, !llfi_index !2004
  call void @llvm.memcpy.p0i8.p0i8.i64(i8* align 8 %116, i8* align 8 %117, i64 8, i1 false), !llfi_index !2005
  %118 = getelementptr inbounds %"class.__gnu_cxx::__normal_iterator", %"class.__gnu_cxx::__normal_iterator"* %26, i32 0, i32 0, !llfi_index !2006
  %119 = load i32*, i32** %118, align 8, !llfi_index !2007
  %120 = getelementptr inbounds %"class.__gnu_cxx::__normal_iterator", %"class.__gnu_cxx::__normal_iterator"* %27, i32 0, i32 0, !llfi_index !2008
  %121 = load i32*, i32** %120, align 8, !llfi_index !2009
  %122 = call zeroext i1 @_ZNK9__gnu_cxx5__ops15_Iter_less_iterclINS_17__normal_iteratorIPiSt6vectorIiSaIiEEEES8_EEbT_T0_(%"class.std::allocator"* nonnull align 1 dereferenceable(1) %9, i32* %119, i32* %121), !llfi_index !2010
  br i1 %122, label %123, label %132, !llfi_index !2011

123:                                              ; preds = %113
  %124 = bitcast %"class.__gnu_cxx::__normal_iterator"* %28 to i8*, !llfi_index !2012
  %125 = bitcast %"class.__gnu_cxx::__normal_iterator"* %5 to i8*, !llfi_index !2013
  call void @llvm.memcpy.p0i8.p0i8.i64(i8* align 8 %124, i8* align 8 %125, i64 8, i1 false), !llfi_index !2014
  %126 = bitcast %"class.__gnu_cxx::__normal_iterator"* %29 to i8*, !llfi_index !2015
  %127 = bitcast %"class.__gnu_cxx::__normal_iterator"* %8 to i8*, !llfi_index !2016
  call void @llvm.memcpy.p0i8.p0i8.i64(i8* align 8 %126, i8* align 8 %127, i64 8, i1 false), !llfi_index !2017
  %128 = getelementptr inbounds %"class.__gnu_cxx::__normal_iterator", %"class.__gnu_cxx::__normal_iterator"* %28, i32 0, i32 0, !llfi_index !2018
  %129 = load i32*, i32** %128, align 8, !llfi_index !2019
  %130 = getelementptr inbounds %"class.__gnu_cxx::__normal_iterator", %"class.__gnu_cxx::__normal_iterator"* %29, i32 0, i32 0, !llfi_index !2020
  %131 = load i32*, i32** %130, align 8, !llfi_index !2021
  call void @_ZSt9iter_swapIN9__gnu_cxx17__normal_iteratorIPiSt6vectorIiSaIiEEEES6_EvT_T0_(i32* %129, i32* %131), !llfi_index !2022
  br label %141, !llfi_index !2023

132:                                              ; preds = %113
  %133 = bitcast %"class.__gnu_cxx::__normal_iterator"* %30 to i8*, !llfi_index !2024
  %134 = bitcast %"class.__gnu_cxx::__normal_iterator"* %5 to i8*, !llfi_index !2025
  call void @llvm.memcpy.p0i8.p0i8.i64(i8* align 8 %133, i8* align 8 %134, i64 8, i1 false), !llfi_index !2026
  %135 = bitcast %"class.__gnu_cxx::__normal_iterator"* %31 to i8*, !llfi_index !2027
  %136 = bitcast %"class.__gnu_cxx::__normal_iterator"* %7 to i8*, !llfi_index !2028
  call void @llvm.memcpy.p0i8.p0i8.i64(i8* align 8 %135, i8* align 8 %136, i64 8, i1 false), !llfi_index !2029
  %137 = getelementptr inbounds %"class.__gnu_cxx::__normal_iterator", %"class.__gnu_cxx::__normal_iterator"* %30, i32 0, i32 0, !llfi_index !2030
  %138 = load i32*, i32** %137, align 8, !llfi_index !2031
  %139 = getelementptr inbounds %"class.__gnu_cxx::__normal_iterator", %"class.__gnu_cxx::__normal_iterator"* %31, i32 0, i32 0, !llfi_index !2032
  %140 = load i32*, i32** %139, align 8, !llfi_index !2033
  call void @_ZSt9iter_swapIN9__gnu_cxx17__normal_iteratorIPiSt6vectorIiSaIiEEEES6_EvT_T0_(i32* %138, i32* %140), !llfi_index !2034
  br label %141, !llfi_index !2035

141:                                              ; preds = %132, %123
  br label %142, !llfi_index !2036

142:                                              ; preds = %141, %104
  br label %143, !llfi_index !2037

143:                                              ; preds = %142, %93
  ret void, !llfi_index !2038
}

; Function Attrs: mustprogress noinline nounwind uwtable
define linkonce_odr dso_local i32* @_ZSt21__unguarded_partitionIN9__gnu_cxx17__normal_iteratorIPiSt6vectorIiSaIiEEEENS0_5__ops15_Iter_less_iterEET_S9_S9_S9_T0_(i32* %0, i32* %1, i32* %2) #3 comdat {
  %4 = alloca %"class.__gnu_cxx::__normal_iterator", align 8, !llfi_index !2039
  %5 = alloca %"class.__gnu_cxx::__normal_iterator", align 8, !llfi_index !2040
  %6 = alloca %"class.__gnu_cxx::__normal_iterator", align 8, !llfi_index !2041
  %7 = alloca %"class.__gnu_cxx::__normal_iterator", align 8, !llfi_index !2042
  %8 = alloca %"class.std::allocator", align 1, !llfi_index !2043
  %9 = alloca %"class.__gnu_cxx::__normal_iterator", align 8, !llfi_index !2044
  %10 = alloca %"class.__gnu_cxx::__normal_iterator", align 8, !llfi_index !2045
  %11 = alloca %"class.__gnu_cxx::__normal_iterator", align 8, !llfi_index !2046
  %12 = alloca %"class.__gnu_cxx::__normal_iterator", align 8, !llfi_index !2047
  %13 = alloca %"class.__gnu_cxx::__normal_iterator", align 8, !llfi_index !2048
  %14 = alloca %"class.__gnu_cxx::__normal_iterator", align 8, !llfi_index !2049
  %15 = getelementptr inbounds %"class.__gnu_cxx::__normal_iterator", %"class.__gnu_cxx::__normal_iterator"* %5, i32 0, i32 0, !llfi_index !2050
  store i32* %0, i32** %15, align 8, !llfi_index !2051
  %16 = getelementptr inbounds %"class.__gnu_cxx::__normal_iterator", %"class.__gnu_cxx::__normal_iterator"* %6, i32 0, i32 0, !llfi_index !2052
  store i32* %1, i32** %16, align 8, !llfi_index !2053
  %17 = getelementptr inbounds %"class.__gnu_cxx::__normal_iterator", %"class.__gnu_cxx::__normal_iterator"* %7, i32 0, i32 0, !llfi_index !2054
  store i32* %2, i32** %17, align 8, !llfi_index !2055
  br label %18, !llfi_index !2056

18:                                               ; preds = %52, %3
  br label %19, !llfi_index !2057

19:                                               ; preds = %29, %18
  %20 = bitcast %"class.__gnu_cxx::__normal_iterator"* %9 to i8*, !llfi_index !2058
  %21 = bitcast %"class.__gnu_cxx::__normal_iterator"* %5 to i8*, !llfi_index !2059
  call void @llvm.memcpy.p0i8.p0i8.i64(i8* align 8 %20, i8* align 8 %21, i64 8, i1 false), !llfi_index !2060
  %22 = bitcast %"class.__gnu_cxx::__normal_iterator"* %10 to i8*, !llfi_index !2061
  %23 = bitcast %"class.__gnu_cxx::__normal_iterator"* %7 to i8*, !llfi_index !2062
  call void @llvm.memcpy.p0i8.p0i8.i64(i8* align 8 %22, i8* align 8 %23, i64 8, i1 false), !llfi_index !2063
  %24 = getelementptr inbounds %"class.__gnu_cxx::__normal_iterator", %"class.__gnu_cxx::__normal_iterator"* %9, i32 0, i32 0, !llfi_index !2064
  %25 = load i32*, i32** %24, align 8, !llfi_index !2065
  %26 = getelementptr inbounds %"class.__gnu_cxx::__normal_iterator", %"class.__gnu_cxx::__normal_iterator"* %10, i32 0, i32 0, !llfi_index !2066
  %27 = load i32*, i32** %26, align 8, !llfi_index !2067
  %28 = call zeroext i1 @_ZNK9__gnu_cxx5__ops15_Iter_less_iterclINS_17__normal_iteratorIPiSt6vectorIiSaIiEEEES8_EEbT_T0_(%"class.std::allocator"* nonnull align 1 dereferenceable(1) %8, i32* %25, i32* %27), !llfi_index !2068
  br i1 %28, label %29, label %31, !llfi_index !2069

29:                                               ; preds = %19
  %30 = call nonnull align 8 dereferenceable(8) %"class.__gnu_cxx::__normal_iterator"* @_ZN9__gnu_cxx17__normal_iteratorIPiSt6vectorIiSaIiEEEppEv(%"class.__gnu_cxx::__normal_iterator"* nonnull align 8 dereferenceable(8) %5) #2, !llfi_index !2070
  br label %19, !llvm.loop !2071, !llfi_index !2072

31:                                               ; preds = %19
  %32 = call nonnull align 8 dereferenceable(8) %"class.__gnu_cxx::__normal_iterator"* @_ZN9__gnu_cxx17__normal_iteratorIPiSt6vectorIiSaIiEEEmmEv(%"class.__gnu_cxx::__normal_iterator"* nonnull align 8 dereferenceable(8) %6) #2, !llfi_index !2073
  br label %33, !llfi_index !2074

33:                                               ; preds = %43, %31
  %34 = bitcast %"class.__gnu_cxx::__normal_iterator"* %11 to i8*, !llfi_index !2075
  %35 = bitcast %"class.__gnu_cxx::__normal_iterator"* %7 to i8*, !llfi_index !2076
  call void @llvm.memcpy.p0i8.p0i8.i64(i8* align 8 %34, i8* align 8 %35, i64 8, i1 false), !llfi_index !2077
  %36 = bitcast %"class.__gnu_cxx::__normal_iterator"* %12 to i8*, !llfi_index !2078
  %37 = bitcast %"class.__gnu_cxx::__normal_iterator"* %6 to i8*, !llfi_index !2079
  call void @llvm.memcpy.p0i8.p0i8.i64(i8* align 8 %36, i8* align 8 %37, i64 8, i1 false), !llfi_index !2080
  %38 = getelementptr inbounds %"class.__gnu_cxx::__normal_iterator", %"class.__gnu_cxx::__normal_iterator"* %11, i32 0, i32 0, !llfi_index !2081
  %39 = load i32*, i32** %38, align 8, !llfi_index !2082
  %40 = getelementptr inbounds %"class.__gnu_cxx::__normal_iterator", %"class.__gnu_cxx::__normal_iterator"* %12, i32 0, i32 0, !llfi_index !2083
  %41 = load i32*, i32** %40, align 8, !llfi_index !2084
  %42 = call zeroext i1 @_ZNK9__gnu_cxx5__ops15_Iter_less_iterclINS_17__normal_iteratorIPiSt6vectorIiSaIiEEEES8_EEbT_T0_(%"class.std::allocator"* nonnull align 1 dereferenceable(1) %8, i32* %39, i32* %41), !llfi_index !2085
  br i1 %42, label %43, label %45, !llfi_index !2086

43:                                               ; preds = %33
  %44 = call nonnull align 8 dereferenceable(8) %"class.__gnu_cxx::__normal_iterator"* @_ZN9__gnu_cxx17__normal_iteratorIPiSt6vectorIiSaIiEEEmmEv(%"class.__gnu_cxx::__normal_iterator"* nonnull align 8 dereferenceable(8) %6) #2, !llfi_index !2087
  br label %33, !llvm.loop !2088, !llfi_index !2089

45:                                               ; preds = %33
  %46 = call zeroext i1 @_ZN9__gnu_cxxltIPiSt6vectorIiSaIiEEEEbRKNS_17__normal_iteratorIT_T0_EESA_(%"class.__gnu_cxx::__normal_iterator"* nonnull align 8 dereferenceable(8) %5, %"class.__gnu_cxx::__normal_iterator"* nonnull align 8 dereferenceable(8) %6) #2, !llfi_index !2090
  br i1 %46, label %52, label %47, !llfi_index !2091

47:                                               ; preds = %45
  %48 = bitcast %"class.__gnu_cxx::__normal_iterator"* %4 to i8*, !llfi_index !2092
  %49 = bitcast %"class.__gnu_cxx::__normal_iterator"* %5 to i8*, !llfi_index !2093
  call void @llvm.memcpy.p0i8.p0i8.i64(i8* align 8 %48, i8* align 8 %49, i64 8, i1 false), !llfi_index !2094
  %50 = getelementptr inbounds %"class.__gnu_cxx::__normal_iterator", %"class.__gnu_cxx::__normal_iterator"* %4, i32 0, i32 0, !llfi_index !2095
  %51 = load i32*, i32** %50, align 8, !llfi_index !2096
  ret i32* %51, !llfi_index !2097

52:                                               ; preds = %45
  %53 = bitcast %"class.__gnu_cxx::__normal_iterator"* %13 to i8*, !llfi_index !2098
  %54 = bitcast %"class.__gnu_cxx::__normal_iterator"* %5 to i8*, !llfi_index !2099
  call void @llvm.memcpy.p0i8.p0i8.i64(i8* align 8 %53, i8* align 8 %54, i64 8, i1 false), !llfi_index !2100
  %55 = bitcast %"class.__gnu_cxx::__normal_iterator"* %14 to i8*, !llfi_index !2101
  %56 = bitcast %"class.__gnu_cxx::__normal_iterator"* %6 to i8*, !llfi_index !2102
  call void @llvm.memcpy.p0i8.p0i8.i64(i8* align 8 %55, i8* align 8 %56, i64 8, i1 false), !llfi_index !2103
  %57 = getelementptr inbounds %"class.__gnu_cxx::__normal_iterator", %"class.__gnu_cxx::__normal_iterator"* %13, i32 0, i32 0, !llfi_index !2104
  %58 = load i32*, i32** %57, align 8, !llfi_index !2105
  %59 = getelementptr inbounds %"class.__gnu_cxx::__normal_iterator", %"class.__gnu_cxx::__normal_iterator"* %14, i32 0, i32 0, !llfi_index !2106
  %60 = load i32*, i32** %59, align 8, !llfi_index !2107
  call void @_ZSt9iter_swapIN9__gnu_cxx17__normal_iteratorIPiSt6vectorIiSaIiEEEES6_EvT_T0_(i32* %58, i32* %60), !llfi_index !2108
  %61 = call nonnull align 8 dereferenceable(8) %"class.__gnu_cxx::__normal_iterator"* @_ZN9__gnu_cxx17__normal_iteratorIPiSt6vectorIiSaIiEEEppEv(%"class.__gnu_cxx::__normal_iterator"* nonnull align 8 dereferenceable(8) %5) #2, !llfi_index !2109
  br label %18, !llvm.loop !2110, !llfi_index !2111
}

; Function Attrs: mustprogress noinline nounwind uwtable
define linkonce_odr dso_local zeroext i1 @_ZN9__gnu_cxxltIPiSt6vectorIiSaIiEEEEbRKNS_17__normal_iteratorIT_T0_EESA_(%"class.__gnu_cxx::__normal_iterator"* nonnull align 8 dereferenceable(8) %0, %"class.__gnu_cxx::__normal_iterator"* nonnull align 8 dereferenceable(8) %1) #3 comdat {
  %3 = alloca %"class.__gnu_cxx::__normal_iterator"*, align 8, !llfi_index !2112
  %4 = alloca %"class.__gnu_cxx::__normal_iterator"*, align 8, !llfi_index !2113
  store %"class.__gnu_cxx::__normal_iterator"* %0, %"class.__gnu_cxx::__normal_iterator"** %3, align 8, !llfi_index !2114
  store %"class.__gnu_cxx::__normal_iterator"* %1, %"class.__gnu_cxx::__normal_iterator"** %4, align 8, !llfi_index !2115
  %5 = load %"class.__gnu_cxx::__normal_iterator"*, %"class.__gnu_cxx::__normal_iterator"** %3, align 8, !llfi_index !2116
  %6 = call nonnull align 8 dereferenceable(8) i32** @_ZNK9__gnu_cxx17__normal_iteratorIPiSt6vectorIiSaIiEEE4baseEv(%"class.__gnu_cxx::__normal_iterator"* nonnull align 8 dereferenceable(8) %5) #2, !llfi_index !2117
  %7 = load i32*, i32** %6, align 8, !llfi_index !2118
  %8 = load %"class.__gnu_cxx::__normal_iterator"*, %"class.__gnu_cxx::__normal_iterator"** %4, align 8, !llfi_index !2119
  %9 = call nonnull align 8 dereferenceable(8) i32** @_ZNK9__gnu_cxx17__normal_iteratorIPiSt6vectorIiSaIiEEE4baseEv(%"class.__gnu_cxx::__normal_iterator"* nonnull align 8 dereferenceable(8) %8) #2, !llfi_index !2120
  %10 = load i32*, i32** %9, align 8, !llfi_index !2121
  %11 = icmp ult i32* %7, %10, !llfi_index !2122
  ret i1 %11, !llfi_index !2123
}

; Function Attrs: mustprogress noinline nounwind uwtable
define linkonce_odr dso_local void @_ZSt9iter_swapIN9__gnu_cxx17__normal_iteratorIPiSt6vectorIiSaIiEEEES6_EvT_T0_(i32* %0, i32* %1) #3 comdat {
  %3 = alloca %"class.__gnu_cxx::__normal_iterator", align 8, !llfi_index !2124
  %4 = alloca %"class.__gnu_cxx::__normal_iterator", align 8, !llfi_index !2125
  %5 = getelementptr inbounds %"class.__gnu_cxx::__normal_iterator", %"class.__gnu_cxx::__normal_iterator"* %3, i32 0, i32 0, !llfi_index !2126
  store i32* %0, i32** %5, align 8, !llfi_index !2127
  %6 = getelementptr inbounds %"class.__gnu_cxx::__normal_iterator", %"class.__gnu_cxx::__normal_iterator"* %4, i32 0, i32 0, !llfi_index !2128
  store i32* %1, i32** %6, align 8, !llfi_index !2129
  %7 = call nonnull align 4 dereferenceable(4) i32* @_ZNK9__gnu_cxx17__normal_iteratorIPiSt6vectorIiSaIiEEEdeEv(%"class.__gnu_cxx::__normal_iterator"* nonnull align 8 dereferenceable(8) %3) #2, !llfi_index !2130
  %8 = call nonnull align 4 dereferenceable(4) i32* @_ZNK9__gnu_cxx17__normal_iteratorIPiSt6vectorIiSaIiEEEdeEv(%"class.__gnu_cxx::__normal_iterator"* nonnull align 8 dereferenceable(8) %4) #2, !llfi_index !2131
  call void @_ZSt4swapIiENSt9enable_ifIXsr6__and_ISt6__not_ISt15__is_tuple_likeIT_EESt21is_move_constructibleIS3_ESt18is_move_assignableIS3_EEE5valueEvE4typeERS3_SC_(i32* nonnull align 4 dereferenceable(4) %7, i32* nonnull align 4 dereferenceable(4) %8) #2, !llfi_index !2132
  ret void, !llfi_index !2133
}

; Function Attrs: mustprogress noinline nounwind uwtable
define linkonce_odr dso_local void @_ZSt4swapIiENSt9enable_ifIXsr6__and_ISt6__not_ISt15__is_tuple_likeIT_EESt21is_move_constructibleIS3_ESt18is_move_assignableIS3_EEE5valueEvE4typeERS3_SC_(i32* nonnull align 4 dereferenceable(4) %0, i32* nonnull align 4 dereferenceable(4) %1) #3 comdat {
  %3 = alloca i32*, align 8, !llfi_index !2134
  %4 = alloca i32*, align 8, !llfi_index !2135
  %5 = alloca i32, align 4, !llfi_index !2136
  store i32* %0, i32** %3, align 8, !llfi_index !2137
  store i32* %1, i32** %4, align 8, !llfi_index !2138
  %6 = load i32*, i32** %3, align 8, !llfi_index !2139
  %7 = call nonnull align 4 dereferenceable(4) i32* @_ZSt4moveIRiEONSt16remove_referenceIT_E4typeEOS2_(i32* nonnull align 4 dereferenceable(4) %6) #2, !llfi_index !2140
  %8 = load i32, i32* %7, align 4, !llfi_index !2141
  store i32 %8, i32* %5, align 4, !llfi_index !2142
  %9 = load i32*, i32** %4, align 8, !llfi_index !2143
  %10 = call nonnull align 4 dereferenceable(4) i32* @_ZSt4moveIRiEONSt16remove_referenceIT_E4typeEOS2_(i32* nonnull align 4 dereferenceable(4) %9) #2, !llfi_index !2144
  %11 = load i32, i32* %10, align 4, !llfi_index !2145
  %12 = load i32*, i32** %3, align 8, !llfi_index !2146
  store i32 %11, i32* %12, align 4, !llfi_index !2147
  %13 = call nonnull align 4 dereferenceable(4) i32* @_ZSt4moveIRiEONSt16remove_referenceIT_E4typeEOS2_(i32* nonnull align 4 dereferenceable(4) %5) #2, !llfi_index !2148
  %14 = load i32, i32* %13, align 4, !llfi_index !2149
  %15 = load i32*, i32** %4, align 8, !llfi_index !2150
  store i32 %14, i32* %15, align 4, !llfi_index !2151
  ret void, !llfi_index !2152
}

; Function Attrs: mustprogress noinline uwtable
define linkonce_odr dso_local void @_ZSt13__heap_selectIN9__gnu_cxx17__normal_iteratorIPiSt6vectorIiSaIiEEEENS0_5__ops15_Iter_less_iterEEvT_S9_S9_T0_(i32* %0, i32* %1, i32* %2) #4 comdat {
  %4 = alloca %"class.__gnu_cxx::__normal_iterator", align 8, !llfi_index !2153
  %5 = alloca %"class.__gnu_cxx::__normal_iterator", align 8, !llfi_index !2154
  %6 = alloca %"class.__gnu_cxx::__normal_iterator", align 8, !llfi_index !2155
  %7 = alloca %"class.std::allocator", align 1, !llfi_index !2156
  %8 = alloca %"class.__gnu_cxx::__normal_iterator", align 8, !llfi_index !2157
  %9 = alloca %"class.__gnu_cxx::__normal_iterator", align 8, !llfi_index !2158
  %10 = alloca %"class.__gnu_cxx::__normal_iterator", align 8, !llfi_index !2159
  %11 = alloca %"class.__gnu_cxx::__normal_iterator", align 8, !llfi_index !2160
  %12 = alloca %"class.__gnu_cxx::__normal_iterator", align 8, !llfi_index !2161
  %13 = alloca %"class.__gnu_cxx::__normal_iterator", align 8, !llfi_index !2162
  %14 = alloca %"class.__gnu_cxx::__normal_iterator", align 8, !llfi_index !2163
  %15 = alloca %"class.__gnu_cxx::__normal_iterator", align 8, !llfi_index !2164
  %16 = getelementptr inbounds %"class.__gnu_cxx::__normal_iterator", %"class.__gnu_cxx::__normal_iterator"* %4, i32 0, i32 0, !llfi_index !2165
  store i32* %0, i32** %16, align 8, !llfi_index !2166
  %17 = getelementptr inbounds %"class.__gnu_cxx::__normal_iterator", %"class.__gnu_cxx::__normal_iterator"* %5, i32 0, i32 0, !llfi_index !2167
  store i32* %1, i32** %17, align 8, !llfi_index !2168
  %18 = getelementptr inbounds %"class.__gnu_cxx::__normal_iterator", %"class.__gnu_cxx::__normal_iterator"* %6, i32 0, i32 0, !llfi_index !2169
  store i32* %2, i32** %18, align 8, !llfi_index !2170
  %19 = bitcast %"class.__gnu_cxx::__normal_iterator"* %8 to i8*, !llfi_index !2171
  %20 = bitcast %"class.__gnu_cxx::__normal_iterator"* %4 to i8*, !llfi_index !2172
  call void @llvm.memcpy.p0i8.p0i8.i64(i8* align 8 %19, i8* align 8 %20, i64 8, i1 false), !llfi_index !2173
  %21 = bitcast %"class.__gnu_cxx::__normal_iterator"* %9 to i8*, !llfi_index !2174
  %22 = bitcast %"class.__gnu_cxx::__normal_iterator"* %5 to i8*, !llfi_index !2175
  call void @llvm.memcpy.p0i8.p0i8.i64(i8* align 8 %21, i8* align 8 %22, i64 8, i1 false), !llfi_index !2176
  %23 = getelementptr inbounds %"class.__gnu_cxx::__normal_iterator", %"class.__gnu_cxx::__normal_iterator"* %8, i32 0, i32 0, !llfi_index !2177
  %24 = load i32*, i32** %23, align 8, !llfi_index !2178
  %25 = getelementptr inbounds %"class.__gnu_cxx::__normal_iterator", %"class.__gnu_cxx::__normal_iterator"* %9, i32 0, i32 0, !llfi_index !2179
  %26 = load i32*, i32** %25, align 8, !llfi_index !2180
  call void @_ZSt11__make_heapIN9__gnu_cxx17__normal_iteratorIPiSt6vectorIiSaIiEEEENS0_5__ops15_Iter_less_iterEEvT_S9_RT0_(i32* %24, i32* %26, %"class.std::allocator"* nonnull align 1 dereferenceable(1) %7), !llfi_index !2181
  %27 = bitcast %"class.__gnu_cxx::__normal_iterator"* %10 to i8*, !llfi_index !2182
  %28 = bitcast %"class.__gnu_cxx::__normal_iterator"* %5 to i8*, !llfi_index !2183
  call void @llvm.memcpy.p0i8.p0i8.i64(i8* align 8 %27, i8* align 8 %28, i64 8, i1 false), !llfi_index !2184
  br label %29, !llfi_index !2185

29:                                               ; preds = %55, %3
  %30 = call zeroext i1 @_ZN9__gnu_cxxltIPiSt6vectorIiSaIiEEEEbRKNS_17__normal_iteratorIT_T0_EESA_(%"class.__gnu_cxx::__normal_iterator"* nonnull align 8 dereferenceable(8) %10, %"class.__gnu_cxx::__normal_iterator"* nonnull align 8 dereferenceable(8) %6) #2, !llfi_index !2186
  br i1 %30, label %31, label %57, !llfi_index !2187

31:                                               ; preds = %29
  %32 = bitcast %"class.__gnu_cxx::__normal_iterator"* %11 to i8*, !llfi_index !2188
  %33 = bitcast %"class.__gnu_cxx::__normal_iterator"* %10 to i8*, !llfi_index !2189
  call void @llvm.memcpy.p0i8.p0i8.i64(i8* align 8 %32, i8* align 8 %33, i64 8, i1 false), !llfi_index !2190
  %34 = bitcast %"class.__gnu_cxx::__normal_iterator"* %12 to i8*, !llfi_index !2191
  %35 = bitcast %"class.__gnu_cxx::__normal_iterator"* %4 to i8*, !llfi_index !2192
  call void @llvm.memcpy.p0i8.p0i8.i64(i8* align 8 %34, i8* align 8 %35, i64 8, i1 false), !llfi_index !2193
  %36 = getelementptr inbounds %"class.__gnu_cxx::__normal_iterator", %"class.__gnu_cxx::__normal_iterator"* %11, i32 0, i32 0, !llfi_index !2194
  %37 = load i32*, i32** %36, align 8, !llfi_index !2195
  %38 = getelementptr inbounds %"class.__gnu_cxx::__normal_iterator", %"class.__gnu_cxx::__normal_iterator"* %12, i32 0, i32 0, !llfi_index !2196
  %39 = load i32*, i32** %38, align 8, !llfi_index !2197
  %40 = call zeroext i1 @_ZNK9__gnu_cxx5__ops15_Iter_less_iterclINS_17__normal_iteratorIPiSt6vectorIiSaIiEEEES8_EEbT_T0_(%"class.std::allocator"* nonnull align 1 dereferenceable(1) %7, i32* %37, i32* %39), !llfi_index !2198
  br i1 %40, label %41, label %54, !llfi_index !2199

41:                                               ; preds = %31
  %42 = bitcast %"class.__gnu_cxx::__normal_iterator"* %13 to i8*, !llfi_index !2200
  %43 = bitcast %"class.__gnu_cxx::__normal_iterator"* %4 to i8*, !llfi_index !2201
  call void @llvm.memcpy.p0i8.p0i8.i64(i8* align 8 %42, i8* align 8 %43, i64 8, i1 false), !llfi_index !2202
  %44 = bitcast %"class.__gnu_cxx::__normal_iterator"* %14 to i8*, !llfi_index !2203
  %45 = bitcast %"class.__gnu_cxx::__normal_iterator"* %5 to i8*, !llfi_index !2204
  call void @llvm.memcpy.p0i8.p0i8.i64(i8* align 8 %44, i8* align 8 %45, i64 8, i1 false), !llfi_index !2205
  %46 = bitcast %"class.__gnu_cxx::__normal_iterator"* %15 to i8*, !llfi_index !2206
  %47 = bitcast %"class.__gnu_cxx::__normal_iterator"* %10 to i8*, !llfi_index !2207
  call void @llvm.memcpy.p0i8.p0i8.i64(i8* align 8 %46, i8* align 8 %47, i64 8, i1 false), !llfi_index !2208
  %48 = getelementptr inbounds %"class.__gnu_cxx::__normal_iterator", %"class.__gnu_cxx::__normal_iterator"* %13, i32 0, i32 0, !llfi_index !2209
  %49 = load i32*, i32** %48, align 8, !llfi_index !2210
  %50 = getelementptr inbounds %"class.__gnu_cxx::__normal_iterator", %"class.__gnu_cxx::__normal_iterator"* %14, i32 0, i32 0, !llfi_index !2211
  %51 = load i32*, i32** %50, align 8, !llfi_index !2212
  %52 = getelementptr inbounds %"class.__gnu_cxx::__normal_iterator", %"class.__gnu_cxx::__normal_iterator"* %15, i32 0, i32 0, !llfi_index !2213
  %53 = load i32*, i32** %52, align 8, !llfi_index !2214
  call void @_ZSt10__pop_heapIN9__gnu_cxx17__normal_iteratorIPiSt6vectorIiSaIiEEEENS0_5__ops15_Iter_less_iterEEvT_S9_S9_RT0_(i32* %49, i32* %51, i32* %53, %"class.std::allocator"* nonnull align 1 dereferenceable(1) %7), !llfi_index !2215
  br label %54, !llfi_index !2216

54:                                               ; preds = %41, %31
  br label %55, !llfi_index !2217

55:                                               ; preds = %54
  %56 = call nonnull align 8 dereferenceable(8) %"class.__gnu_cxx::__normal_iterator"* @_ZN9__gnu_cxx17__normal_iteratorIPiSt6vectorIiSaIiEEEppEv(%"class.__gnu_cxx::__normal_iterator"* nonnull align 8 dereferenceable(8) %10) #2, !llfi_index !2218
  br label %29, !llvm.loop !2219, !llfi_index !2220

57:                                               ; preds = %29
  ret void, !llfi_index !2221
}

; Function Attrs: mustprogress noinline uwtable
define linkonce_odr dso_local void @_ZSt11__sort_heapIN9__gnu_cxx17__normal_iteratorIPiSt6vectorIiSaIiEEEENS0_5__ops15_Iter_less_iterEEvT_S9_RT0_(i32* %0, i32* %1, %"class.std::allocator"* nonnull align 1 dereferenceable(1) %2) #4 comdat {
  %4 = alloca %"class.__gnu_cxx::__normal_iterator", align 8, !llfi_index !2222
  %5 = alloca %"class.__gnu_cxx::__normal_iterator", align 8, !llfi_index !2223
  %6 = alloca %"class.std::allocator"*, align 8, !llfi_index !2224
  %7 = alloca %"class.__gnu_cxx::__normal_iterator", align 8, !llfi_index !2225
  %8 = alloca %"class.__gnu_cxx::__normal_iterator", align 8, !llfi_index !2226
  %9 = alloca %"class.__gnu_cxx::__normal_iterator", align 8, !llfi_index !2227
  %10 = getelementptr inbounds %"class.__gnu_cxx::__normal_iterator", %"class.__gnu_cxx::__normal_iterator"* %4, i32 0, i32 0, !llfi_index !2228
  store i32* %0, i32** %10, align 8, !llfi_index !2229
  %11 = getelementptr inbounds %"class.__gnu_cxx::__normal_iterator", %"class.__gnu_cxx::__normal_iterator"* %5, i32 0, i32 0, !llfi_index !2230
  store i32* %1, i32** %11, align 8, !llfi_index !2231
  store %"class.std::allocator"* %2, %"class.std::allocator"** %6, align 8, !llfi_index !2232
  br label %12, !llfi_index !2233

12:                                               ; preds = %15, %3
  %13 = call i64 @_ZN9__gnu_cxxmiIPiSt6vectorIiSaIiEEEENS_17__normal_iteratorIT_T0_E15difference_typeERKS8_SB_(%"class.__gnu_cxx::__normal_iterator"* nonnull align 8 dereferenceable(8) %5, %"class.__gnu_cxx::__normal_iterator"* nonnull align 8 dereferenceable(8) %4) #2, !llfi_index !2234
  %14 = icmp sgt i64 %13, 1, !llfi_index !2235
  br i1 %14, label %15, label %30, !llfi_index !2236

15:                                               ; preds = %12
  %16 = call nonnull align 8 dereferenceable(8) %"class.__gnu_cxx::__normal_iterator"* @_ZN9__gnu_cxx17__normal_iteratorIPiSt6vectorIiSaIiEEEmmEv(%"class.__gnu_cxx::__normal_iterator"* nonnull align 8 dereferenceable(8) %5) #2, !llfi_index !2237
  %17 = bitcast %"class.__gnu_cxx::__normal_iterator"* %7 to i8*, !llfi_index !2238
  %18 = bitcast %"class.__gnu_cxx::__normal_iterator"* %4 to i8*, !llfi_index !2239
  call void @llvm.memcpy.p0i8.p0i8.i64(i8* align 8 %17, i8* align 8 %18, i64 8, i1 false), !llfi_index !2240
  %19 = bitcast %"class.__gnu_cxx::__normal_iterator"* %8 to i8*, !llfi_index !2241
  %20 = bitcast %"class.__gnu_cxx::__normal_iterator"* %5 to i8*, !llfi_index !2242
  call void @llvm.memcpy.p0i8.p0i8.i64(i8* align 8 %19, i8* align 8 %20, i64 8, i1 false), !llfi_index !2243
  %21 = bitcast %"class.__gnu_cxx::__normal_iterator"* %9 to i8*, !llfi_index !2244
  %22 = bitcast %"class.__gnu_cxx::__normal_iterator"* %5 to i8*, !llfi_index !2245
  call void @llvm.memcpy.p0i8.p0i8.i64(i8* align 8 %21, i8* align 8 %22, i64 8, i1 false), !llfi_index !2246
  %23 = load %"class.std::allocator"*, %"class.std::allocator"** %6, align 8, !llfi_index !2247
  %24 = getelementptr inbounds %"class.__gnu_cxx::__normal_iterator", %"class.__gnu_cxx::__normal_iterator"* %7, i32 0, i32 0, !llfi_index !2248
  %25 = load i32*, i32** %24, align 8, !llfi_index !2249
  %26 = getelementptr inbounds %"class.__gnu_cxx::__normal_iterator", %"class.__gnu_cxx::__normal_iterator"* %8, i32 0, i32 0, !llfi_index !2250
  %27 = load i32*, i32** %26, align 8, !llfi_index !2251
  %28 = getelementptr inbounds %"class.__gnu_cxx::__normal_iterator", %"class.__gnu_cxx::__normal_iterator"* %9, i32 0, i32 0, !llfi_index !2252
  %29 = load i32*, i32** %28, align 8, !llfi_index !2253
  call void @_ZSt10__pop_heapIN9__gnu_cxx17__normal_iteratorIPiSt6vectorIiSaIiEEEENS0_5__ops15_Iter_less_iterEEvT_S9_S9_RT0_(i32* %25, i32* %27, i32* %29, %"class.std::allocator"* nonnull align 1 dereferenceable(1) %23), !llfi_index !2254
  br label %12, !llvm.loop !2255, !llfi_index !2256

30:                                               ; preds = %12
  ret void, !llfi_index !2257
}

; Function Attrs: mustprogress noinline uwtable
define linkonce_odr dso_local void @_ZSt10__pop_heapIN9__gnu_cxx17__normal_iteratorIPiSt6vectorIiSaIiEEEENS0_5__ops15_Iter_less_iterEEvT_S9_S9_RT0_(i32* %0, i32* %1, i32* %2, %"class.std::allocator"* nonnull align 1 dereferenceable(1) %3) #4 comdat {
  %5 = alloca %"class.__gnu_cxx::__normal_iterator", align 8, !llfi_index !2258
  %6 = alloca %"class.__gnu_cxx::__normal_iterator", align 8, !llfi_index !2259
  %7 = alloca %"class.__gnu_cxx::__normal_iterator", align 8, !llfi_index !2260
  %8 = alloca %"class.std::allocator"*, align 8, !llfi_index !2261
  %9 = alloca i32, align 4, !llfi_index !2262
  %10 = alloca %"class.__gnu_cxx::__normal_iterator", align 8, !llfi_index !2263
  %11 = alloca %"class.std::allocator", align 1, !llfi_index !2264
  %12 = getelementptr inbounds %"class.__gnu_cxx::__normal_iterator", %"class.__gnu_cxx::__normal_iterator"* %5, i32 0, i32 0, !llfi_index !2265
  store i32* %0, i32** %12, align 8, !llfi_index !2266
  %13 = getelementptr inbounds %"class.__gnu_cxx::__normal_iterator", %"class.__gnu_cxx::__normal_iterator"* %6, i32 0, i32 0, !llfi_index !2267
  store i32* %1, i32** %13, align 8, !llfi_index !2268
  %14 = getelementptr inbounds %"class.__gnu_cxx::__normal_iterator", %"class.__gnu_cxx::__normal_iterator"* %7, i32 0, i32 0, !llfi_index !2269
  store i32* %2, i32** %14, align 8, !llfi_index !2270
  store %"class.std::allocator"* %3, %"class.std::allocator"** %8, align 8, !llfi_index !2271
  %15 = call nonnull align 4 dereferenceable(4) i32* @_ZNK9__gnu_cxx17__normal_iteratorIPiSt6vectorIiSaIiEEEdeEv(%"class.__gnu_cxx::__normal_iterator"* nonnull align 8 dereferenceable(8) %7) #2, !llfi_index !2272
  %16 = call nonnull align 4 dereferenceable(4) i32* @_ZSt4moveIRiEONSt16remove_referenceIT_E4typeEOS2_(i32* nonnull align 4 dereferenceable(4) %15) #2, !llfi_index !2273
  %17 = load i32, i32* %16, align 4, !llfi_index !2274
  store i32 %17, i32* %9, align 4, !llfi_index !2275
  %18 = call nonnull align 4 dereferenceable(4) i32* @_ZNK9__gnu_cxx17__normal_iteratorIPiSt6vectorIiSaIiEEEdeEv(%"class.__gnu_cxx::__normal_iterator"* nonnull align 8 dereferenceable(8) %5) #2, !llfi_index !2276
  %19 = call nonnull align 4 dereferenceable(4) i32* @_ZSt4moveIRiEONSt16remove_referenceIT_E4typeEOS2_(i32* nonnull align 4 dereferenceable(4) %18) #2, !llfi_index !2277
  %20 = load i32, i32* %19, align 4, !llfi_index !2278
  %21 = call nonnull align 4 dereferenceable(4) i32* @_ZNK9__gnu_cxx17__normal_iteratorIPiSt6vectorIiSaIiEEEdeEv(%"class.__gnu_cxx::__normal_iterator"* nonnull align 8 dereferenceable(8) %7) #2, !llfi_index !2279
  store i32 %20, i32* %21, align 4, !llfi_index !2280
  %22 = bitcast %"class.__gnu_cxx::__normal_iterator"* %10 to i8*, !llfi_index !2281
  %23 = bitcast %"class.__gnu_cxx::__normal_iterator"* %5 to i8*, !llfi_index !2282
  call void @llvm.memcpy.p0i8.p0i8.i64(i8* align 8 %22, i8* align 8 %23, i64 8, i1 false), !llfi_index !2283
  %24 = call i64 @_ZN9__gnu_cxxmiIPiSt6vectorIiSaIiEEEENS_17__normal_iteratorIT_T0_E15difference_typeERKS8_SB_(%"class.__gnu_cxx::__normal_iterator"* nonnull align 8 dereferenceable(8) %6, %"class.__gnu_cxx::__normal_iterator"* nonnull align 8 dereferenceable(8) %5) #2, !llfi_index !2284
  %25 = call nonnull align 4 dereferenceable(4) i32* @_ZSt4moveIRiEONSt16remove_referenceIT_E4typeEOS2_(i32* nonnull align 4 dereferenceable(4) %9) #2, !llfi_index !2285
  %26 = load i32, i32* %25, align 4, !llfi_index !2286
  %27 = load %"class.std::allocator"*, %"class.std::allocator"** %8, align 8, !llfi_index !2287
  %28 = getelementptr inbounds %"class.__gnu_cxx::__normal_iterator", %"class.__gnu_cxx::__normal_iterator"* %10, i32 0, i32 0, !llfi_index !2288
  %29 = load i32*, i32** %28, align 8, !llfi_index !2289
  call void @_ZSt13__adjust_heapIN9__gnu_cxx17__normal_iteratorIPiSt6vectorIiSaIiEEEEliNS0_5__ops15_Iter_less_iterEEvT_T0_SA_T1_T2_(i32* %29, i64 0, i64 %24, i32 %26), !llfi_index !2290
  ret void, !llfi_index !2291
}

; Function Attrs: mustprogress noinline uwtable
define linkonce_odr dso_local void @_ZSt13__adjust_heapIN9__gnu_cxx17__normal_iteratorIPiSt6vectorIiSaIiEEEEliNS0_5__ops15_Iter_less_iterEEvT_T0_SA_T1_T2_(i32* %0, i64 %1, i64 %2, i32 %3) #4 comdat {
  %5 = alloca %"class.__gnu_cxx::__normal_iterator", align 8, !llfi_index !2292
  %6 = alloca %"class.std::allocator", align 1, !llfi_index !2293
  %7 = alloca i64, align 8, !llfi_index !2294
  %8 = alloca i64, align 8, !llfi_index !2295
  %9 = alloca i32, align 4, !llfi_index !2296
  %10 = alloca i64, align 8, !llfi_index !2297
  %11 = alloca i64, align 8, !llfi_index !2298
  %12 = alloca %"class.__gnu_cxx::__normal_iterator", align 8, !llfi_index !2299
  %13 = alloca %"class.__gnu_cxx::__normal_iterator", align 8, !llfi_index !2300
  %14 = alloca %"class.__gnu_cxx::__normal_iterator", align 8, !llfi_index !2301
  %15 = alloca %"class.__gnu_cxx::__normal_iterator", align 8, !llfi_index !2302
  %16 = alloca %"class.__gnu_cxx::__normal_iterator", align 8, !llfi_index !2303
  %17 = alloca %"class.__gnu_cxx::__normal_iterator", align 8, !llfi_index !2304
  %18 = alloca %"class.std::allocator", align 1, !llfi_index !2305
  %19 = alloca %"class.std::allocator", align 1, !llfi_index !2306
  %20 = alloca %"class.__gnu_cxx::__normal_iterator", align 8, !llfi_index !2307
  %21 = getelementptr inbounds %"class.__gnu_cxx::__normal_iterator", %"class.__gnu_cxx::__normal_iterator"* %5, i32 0, i32 0, !llfi_index !2308
  store i32* %0, i32** %21, align 8, !llfi_index !2309
  store i64 %1, i64* %7, align 8, !llfi_index !2310
  store i64 %2, i64* %8, align 8, !llfi_index !2311
  store i32 %3, i32* %9, align 4, !llfi_index !2312
  %22 = load i64, i64* %7, align 8, !llfi_index !2313
  store i64 %22, i64* %10, align 8, !llfi_index !2314
  %23 = load i64, i64* %7, align 8, !llfi_index !2315
  store i64 %23, i64* %11, align 8, !llfi_index !2316
  br label %24, !llfi_index !2317

24:                                               ; preds = %49, %4
  %25 = load i64, i64* %11, align 8, !llfi_index !2318
  %26 = load i64, i64* %8, align 8, !llfi_index !2319
  %27 = sub nsw i64 %26, 1, !llfi_index !2320
  %28 = sdiv i64 %27, 2, !llfi_index !2321
  %29 = icmp slt i64 %25, %28, !llfi_index !2322
  br i1 %29, label %30, label %61, !llfi_index !2323

30:                                               ; preds = %24
  %31 = load i64, i64* %11, align 8, !llfi_index !2324
  %32 = add nsw i64 %31, 1, !llfi_index !2325
  %33 = mul nsw i64 2, %32, !llfi_index !2326
  store i64 %33, i64* %11, align 8, !llfi_index !2327
  %34 = load i64, i64* %11, align 8, !llfi_index !2328
  %35 = call i32* @_ZNK9__gnu_cxx17__normal_iteratorIPiSt6vectorIiSaIiEEEplEl(%"class.__gnu_cxx::__normal_iterator"* nonnull align 8 dereferenceable(8) %5, i64 %34) #2, !llfi_index !2329
  %36 = getelementptr inbounds %"class.__gnu_cxx::__normal_iterator", %"class.__gnu_cxx::__normal_iterator"* %12, i32 0, i32 0, !llfi_index !2330
  store i32* %35, i32** %36, align 8, !llfi_index !2331
  %37 = load i64, i64* %11, align 8, !llfi_index !2332
  %38 = sub nsw i64 %37, 1, !llfi_index !2333
  %39 = call i32* @_ZNK9__gnu_cxx17__normal_iteratorIPiSt6vectorIiSaIiEEEplEl(%"class.__gnu_cxx::__normal_iterator"* nonnull align 8 dereferenceable(8) %5, i64 %38) #2, !llfi_index !2334
  %40 = getelementptr inbounds %"class.__gnu_cxx::__normal_iterator", %"class.__gnu_cxx::__normal_iterator"* %13, i32 0, i32 0, !llfi_index !2335
  store i32* %39, i32** %40, align 8, !llfi_index !2336
  %41 = getelementptr inbounds %"class.__gnu_cxx::__normal_iterator", %"class.__gnu_cxx::__normal_iterator"* %12, i32 0, i32 0, !llfi_index !2337
  %42 = load i32*, i32** %41, align 8, !llfi_index !2338
  %43 = getelementptr inbounds %"class.__gnu_cxx::__normal_iterator", %"class.__gnu_cxx::__normal_iterator"* %13, i32 0, i32 0, !llfi_index !2339
  %44 = load i32*, i32** %43, align 8, !llfi_index !2340
  %45 = call zeroext i1 @_ZNK9__gnu_cxx5__ops15_Iter_less_iterclINS_17__normal_iteratorIPiSt6vectorIiSaIiEEEES8_EEbT_T0_(%"class.std::allocator"* nonnull align 1 dereferenceable(1) %6, i32* %42, i32* %44), !llfi_index !2341
  br i1 %45, label %46, label %49, !llfi_index !2342

46:                                               ; preds = %30
  %47 = load i64, i64* %11, align 8, !llfi_index !2343
  %48 = add nsw i64 %47, -1, !llfi_index !2344
