; ModuleID = '/home/hjiang/Computation-Kernel-Dataset/experiments/Fault_injection_0308_parall/O0/BobGame/BobGame.ll'
source_filename = "llvm-link"
target datalayout = "e-m:e-p270:32:32-p271:32:32-p272:64:64-i64:64-f80:128-n8:16:32:64-S128"
target triple = "x86_64-unknown-linux-gnu"

%"class.std::ios_base::Init" = type { i8 }
%struct._IO_FILE = type { i32, i8*, i8*, i8*, i8*, i8*, i8*, i8*, i8*, i8*, i8*, i8*, %struct._IO_marker*, %struct._IO_FILE*, i32, i32, i64, i16, i8, [1 x i8], i8*, i64, %struct._IO_codecvt*, %struct._IO_wide_data*, %struct._IO_FILE*, i8*, i64, i32, [20 x i8] }
%struct._IO_marker = type opaque
%struct._IO_codecvt = type opaque
%struct._IO_wide_data = type opaque
%"class.std::set" = type { %"class.std::_Rb_tree" }
%"class.std::_Rb_tree" = type { %"struct.std::_Rb_tree<int, int, std::_Identity<int>, std::less<int>>::_Rb_tree_impl" }
%"struct.std::_Rb_tree<int, int, std::_Identity<int>, std::less<int>>::_Rb_tree_impl" = type { %"struct.std::_Rb_tree_key_compare", %"struct.std::_Rb_tree_header" }
%"struct.std::_Rb_tree_key_compare" = type { %"class.std::ios_base::Init" }
%"struct.std::_Rb_tree_header" = type { %"struct.std::_Rb_tree_node_base", i64 }
%"struct.std::_Rb_tree_node_base" = type { i32, %"struct.std::_Rb_tree_node_base"*, %"struct.std::_Rb_tree_node_base"*, %"struct.std::_Rb_tree_node_base"* }
%"struct.std::pair" = type <{ %"struct.std::_Rb_tree_const_iterator", i8, [7 x i8] }>
%"struct.std::_Rb_tree_const_iterator" = type { %"struct.std::_Rb_tree_node_base"* }
%"struct.std::_Rb_tree_node" = type <{ %"struct.std::_Rb_tree_node_base", %"struct.__gnu_cxx::__aligned_membuf", [4 x i8] }>
%"struct.__gnu_cxx::__aligned_membuf" = type { [4 x i8] }
%"struct.std::pair.4" = type { %"struct.std::_Rb_tree_node_base"*, %"struct.std::_Rb_tree_node_base"* }
%"struct.std::_Rb_tree<int, int, std::_Identity<int>, std::less<int>>::_Alloc_node" = type { %"class.std::_Rb_tree"* }

$_ZNSt3setIiSt4lessIiESaIiEEC2Ev = comdat any

$_ZNSt3setIiSt4lessIiESaIiEE6insertERKi = comdat any

$_ZNSt3setIiSt4lessIiESaIiEED2Ev = comdat any

$_ZNSt3setIiSt4lessIiESaIiEE4findERKi = comdat any

$_ZNKSt3setIiSt4lessIiESaIiEE3endEv = comdat any

$_ZStneRKSt23_Rb_tree_const_iteratorIiES2_ = comdat any

$_ZNKSt8_Rb_treeIiiSt9_IdentityIiESt4lessIiESaIiEE3endEv = comdat any

$_ZNSt23_Rb_tree_const_iteratorIiEC2EPKSt18_Rb_tree_node_base = comdat any

$_ZNSt8_Rb_treeIiiSt9_IdentityIiESt4lessIiESaIiEE4findERKi = comdat any

$_ZNSt23_Rb_tree_const_iteratorIiEC2ERKSt17_Rb_tree_iteratorIiE = comdat any

$_ZNSt8_Rb_treeIiiSt9_IdentityIiESt4lessIiESaIiEE8_M_beginEv = comdat any

$_ZNSt8_Rb_treeIiiSt9_IdentityIiESt4lessIiESaIiEE6_M_endEv = comdat any

$_ZNSt8_Rb_treeIiiSt9_IdentityIiESt4lessIiESaIiEE14_M_lower_boundEPSt13_Rb_tree_nodeIiEPSt18_Rb_tree_node_baseRKi = comdat any

$_ZNSt8_Rb_treeIiiSt9_IdentityIiESt4lessIiESaIiEE3endEv = comdat any

$_ZSteqRKSt17_Rb_tree_iteratorIiES2_ = comdat any

$_ZNSt8_Rb_treeIiiSt9_IdentityIiESt4lessIiESaIiEE6_S_keyEPKSt18_Rb_tree_node_base = comdat any

$_ZNKSt4lessIiEclERKiS2_ = comdat any

$_ZNSt8_Rb_treeIiiSt9_IdentityIiESt4lessIiESaIiEE6_S_keyEPKSt13_Rb_tree_nodeIiE = comdat any

$_ZNKSt13_Rb_tree_nodeIiE9_M_valptrEv = comdat any

$_ZNKSt9_IdentityIiEclERKi = comdat any

$_ZNK9__gnu_cxx16__aligned_membufIiE6_M_ptrEv = comdat any

$_ZNK9__gnu_cxx16__aligned_membufIiE7_M_addrEv = comdat any

$_ZNSt17_Rb_tree_iteratorIiEC2EPSt18_Rb_tree_node_base = comdat any

$_ZNSt8_Rb_treeIiiSt9_IdentityIiESt4lessIiESaIiEE7_S_leftEPSt18_Rb_tree_node_base = comdat any

$_ZNSt8_Rb_treeIiiSt9_IdentityIiESt4lessIiESaIiEE8_S_rightEPSt18_Rb_tree_node_base = comdat any

$_ZNSt8_Rb_treeIiiSt9_IdentityIiESt4lessIiESaIiEED2Ev = comdat any

$_ZNSt8_Rb_treeIiiSt9_IdentityIiESt4lessIiESaIiEE8_M_eraseEPSt13_Rb_tree_nodeIiE = comdat any

$_ZNSt8_Rb_treeIiiSt9_IdentityIiESt4lessIiESaIiEE13_Rb_tree_implIS3_Lb1EED2Ev = comdat any

$__clang_call_terminate = comdat any

$_ZNSaISt13_Rb_tree_nodeIiEED2Ev = comdat any

$_ZN9__gnu_cxx13new_allocatorISt13_Rb_tree_nodeIiEED2Ev = comdat any

$_ZNSt8_Rb_treeIiiSt9_IdentityIiESt4lessIiESaIiEE12_M_drop_nodeEPSt13_Rb_tree_nodeIiE = comdat any

$_ZNSt8_Rb_treeIiiSt9_IdentityIiESt4lessIiESaIiEE15_M_destroy_nodeEPSt13_Rb_tree_nodeIiE = comdat any

$_ZNSt8_Rb_treeIiiSt9_IdentityIiESt4lessIiESaIiEE11_M_put_nodeEPSt13_Rb_tree_nodeIiE = comdat any

$_ZNSt8_Rb_treeIiiSt9_IdentityIiESt4lessIiESaIiEE21_M_get_Node_allocatorEv = comdat any

$_ZNSt16allocator_traitsISaISt13_Rb_tree_nodeIiEEE10deallocateERS2_PS1_m = comdat any

$_ZN9__gnu_cxx13new_allocatorISt13_Rb_tree_nodeIiEE10deallocateEPS2_m = comdat any

$_ZNSt13_Rb_tree_nodeIiE9_M_valptrEv = comdat any

$_ZNSt16allocator_traitsISaISt13_Rb_tree_nodeIiEEE7destroyIiEEvRS2_PT_ = comdat any

$_ZN9__gnu_cxx13new_allocatorISt13_Rb_tree_nodeIiEE7destroyIiEEvPT_ = comdat any

$_ZN9__gnu_cxx16__aligned_membufIiE6_M_ptrEv = comdat any

$_ZN9__gnu_cxx16__aligned_membufIiE7_M_addrEv = comdat any

$_ZNSt8_Rb_treeIiiSt9_IdentityIiESt4lessIiESaIiEE16_M_insert_uniqueIRKiEESt4pairISt17_Rb_tree_iteratorIiEbEOT_ = comdat any

$_ZNSt4pairISt23_Rb_tree_const_iteratorIiEbEC2IRSt17_Rb_tree_iteratorIiERbLb1EEEOT_OT0_ = comdat any

$_ZSt7forwardIRSt17_Rb_tree_iteratorIiEEOT_RNSt16remove_referenceIS3_E4typeE = comdat any

$_ZSt7forwardIRbEOT_RNSt16remove_referenceIS1_E4typeE = comdat any

$_ZNSt8_Rb_treeIiiSt9_IdentityIiESt4lessIiESaIiEE24_M_get_insert_unique_posERKi = comdat any

$_ZNSt8_Rb_treeIiiSt9_IdentityIiESt4lessIiESaIiEE11_Alloc_nodeC2ERS5_ = comdat any

$_ZSt7forwardIRKiEOT_RNSt16remove_referenceIS2_E4typeE = comdat any

$_ZNSt8_Rb_treeIiiSt9_IdentityIiESt4lessIiESaIiEE10_M_insert_IRKiNS5_11_Alloc_nodeEEESt17_Rb_tree_iteratorIiEPSt18_Rb_tree_node_baseSD_OT_RT0_ = comdat any

$_ZNSt4pairISt17_Rb_tree_iteratorIiEbEC2IS1_bLb1EEEOT_OT0_ = comdat any

$_ZSt7forwardISt17_Rb_tree_iteratorIiEEOT_RNSt16remove_referenceIS2_E4typeE = comdat any

$_ZSt7forwardIbEOT_RNSt16remove_referenceIS0_E4typeE = comdat any

$_ZNKSt8_Rb_treeIiiSt9_IdentityIiESt4lessIiESaIiEE11_Alloc_nodeclIRKiEEPSt13_Rb_tree_nodeIiEOT_ = comdat any

$_ZNSt8_Rb_treeIiiSt9_IdentityIiESt4lessIiESaIiEE14_M_create_nodeIJRKiEEEPSt13_Rb_tree_nodeIiEDpOT_ = comdat any

$_ZNSt8_Rb_treeIiiSt9_IdentityIiESt4lessIiESaIiEE11_M_get_nodeEv = comdat any

$_ZNSt8_Rb_treeIiiSt9_IdentityIiESt4lessIiESaIiEE17_M_construct_nodeIJRKiEEEvPSt13_Rb_tree_nodeIiEDpOT_ = comdat any

$_ZNSt16allocator_traitsISaISt13_Rb_tree_nodeIiEEE9constructIiJRKiEEEvRS2_PT_DpOT0_ = comdat any

$_ZN9__gnu_cxx13new_allocatorISt13_Rb_tree_nodeIiEE9constructIiJRKiEEEvPT_DpOT0_ = comdat any

$_ZNSt16allocator_traitsISaISt13_Rb_tree_nodeIiEEE8allocateERS2_m = comdat any

$_ZN9__gnu_cxx13new_allocatorISt13_Rb_tree_nodeIiEE8allocateEmPKv = comdat any

$_ZNK9__gnu_cxx13new_allocatorISt13_Rb_tree_nodeIiEE8max_sizeEv = comdat any

$_ZNSt8_Rb_treeIiiSt9_IdentityIiESt4lessIiESaIiEE5beginEv = comdat any

$_ZNSt4pairIPSt18_Rb_tree_node_baseS1_EC2IRPSt13_Rb_tree_nodeIiERS1_Lb1EEEOT_OT0_ = comdat any

$_ZNSt17_Rb_tree_iteratorIiEmmEv = comdat any

$_ZNSt4pairIPSt18_Rb_tree_node_baseS1_EC2IRS1_Lb1EEEOT_RKS1_ = comdat any

$_ZSt7forwardIRPSt18_Rb_tree_node_baseEOT_RNSt16remove_referenceIS3_E4typeE = comdat any

$_ZSt7forwardIRPSt13_Rb_tree_nodeIiEEOT_RNSt16remove_referenceIS4_E4typeE = comdat any

$_ZNSt8_Rb_treeIiiSt9_IdentityIiESt4lessIiESaIiEEC2Ev = comdat any

$_ZNSt8_Rb_treeIiiSt9_IdentityIiESt4lessIiESaIiEE13_Rb_tree_implIS3_Lb1EEC2Ev = comdat any

$_ZNSaISt13_Rb_tree_nodeIiEEC2Ev = comdat any

$_ZNSt20_Rb_tree_key_compareISt4lessIiEEC2Ev = comdat any

$_ZNSt15_Rb_tree_headerC2Ev = comdat any

$_ZNSt15_Rb_tree_header8_M_resetEv = comdat any

$_ZN9__gnu_cxx13new_allocatorISt13_Rb_tree_nodeIiEEC2Ev = comdat any

@llvm.global_ctors = appending global [1 x { i32, void ()*, i8* }] [{ i32, void ()*, i8* } { i32 65535, void ()* @_GLOBAL__sub_I_BobGame.cpp, i8* null }]
@_ZStL8__ioinit = internal global %"class.std::ios_base::Init" zeroinitializer, align 1
@s = dso_local global [1234 x [1234 x i8]] zeroinitializer, align 16
@g = dso_local global [1234 x [1234 x i32]] zeroinitializer, align 16
@.str = private unnamed_addr constant [23 x i8] c"../input_files/BobGame\00", align 1
@.str.1 = private unnamed_addr constant [2 x i8] c"r\00", align 1
@stdin = external dso_local global %struct._IO_FILE*, align 8
@.str.2 = private unnamed_addr constant [3 x i8] c"%d\00", align 1
@.str.3 = private unnamed_addr constant [3 x i8] c"%s\00", align 1
@.str.4 = private unnamed_addr constant [5 x i8] c"LOSE\00", align 1
@.str.5 = private unnamed_addr constant [8 x i8] c"WIN %d\0A\00", align 1

; Function Attrs: noinline uwtable
define internal void @_GLOBAL__sub_I_BobGame.cpp() #0 section ".text.startup" {
  call void @__cxx_global_var_init(), !llfi_index !4
  ret void, !llfi_index !5
}

; Function Attrs: noinline uwtable
define internal void @__cxx_global_var_init() #0 section ".text.startup" {
  call void @_ZNSt8ios_base4InitC1Ev(%"class.std::ios_base::Init"* nonnull align 1 dereferenceable(1) @_ZStL8__ioinit), !llfi_index !6
  %1 = call i32 @atexit(void ()* @__dtor__ZStL8__ioinit) #2, !llfi_index !7
  ret void, !llfi_index !8
}

declare dso_local void @_ZNSt8ios_base4InitC1Ev(%"class.std::ios_base::Init"* nonnull align 1 dereferenceable(1)) unnamed_addr #1

; Function Attrs: noinline uwtable
define internal void @__dtor__ZStL8__ioinit() #0 section ".text.startup" {
  call void @_ZNSt8ios_base4InitD1Ev(%"class.std::ios_base::Init"* @_ZStL8__ioinit), !llfi_index !9
  ret void, !llfi_index !10
}

; Function Attrs: nounwind
declare dso_local i32 @atexit(void ()*) #2

; Function Attrs: nounwind
declare dso_local void @_ZNSt8ios_base4InitD1Ev(%"class.std::ios_base::Init"* nonnull align 1 dereferenceable(1)) unnamed_addr #3

; Function Attrs: mustprogress noinline norecurse uwtable
define dso_local i32 @main() #4 personality i8* bitcast (i32 (...)* @__gxx_personality_v0 to i8*) {
  %1 = alloca i32, align 4, !llfi_index !11
  %2 = alloca i32, align 4, !llfi_index !12
  %3 = alloca i32, align 4, !llfi_index !13
  %4 = alloca i32, align 4, !llfi_index !14
  %5 = alloca i32, align 4, !llfi_index !15
  %6 = alloca i32, align 4, !llfi_index !16
  %7 = alloca i32, align 4, !llfi_index !17
  %8 = alloca %"class.std::set", align 8, !llfi_index !18
  %9 = alloca i8*, align 8, !llfi_index !19
  %10 = alloca i32, align 4, !llfi_index !20
  %11 = alloca %"struct.std::pair", align 8, !llfi_index !21
  %12 = alloca %"struct.std::pair", align 8, !llfi_index !22
  %13 = alloca %"struct.std::pair", align 8, !llfi_index !23
  %14 = alloca %"struct.std::_Rb_tree_const_iterator", align 8, !llfi_index !24
  %15 = alloca %"struct.std::_Rb_tree_const_iterator", align 8, !llfi_index !25
  %16 = alloca i32, align 4, !llfi_index !26
  %17 = alloca i32, align 4, !llfi_index !27
  %18 = alloca i32, align 4, !llfi_index !28
  %19 = alloca i32, align 4, !llfi_index !29
  %20 = alloca i32, align 4, !llfi_index !30
  %21 = alloca i32, align 4, !llfi_index !31
  store i32 0, i32* %1, align 4, !llfi_index !32
  %22 = load %struct._IO_FILE*, %struct._IO_FILE** @stdin, align 8, !llfi_index !33
  %23 = call %struct._IO_FILE* @freopen(i8* getelementptr inbounds ([23 x i8], [23 x i8]* @.str, i64 0, i64 0), i8* getelementptr inbounds ([2 x i8], [2 x i8]* @.str.1, i64 0, i64 0), %struct._IO_FILE* %22), !llfi_index !34
  %24 = call i32 (i8*, ...) @__isoc99_scanf(i8* getelementptr inbounds ([3 x i8], [3 x i8]* @.str.2, i64 0, i64 0), i32* %2), !llfi_index !35
  store i32 89, i32* %3, align 4, !llfi_index !36
  br label %25, !llfi_index !37

25:                                               ; preds = %361, %0
  %26 = load i32, i32* %2, align 4, !llfi_index !38
  %27 = add nsw i32 %26, -1, !llfi_index !39
  store i32 %27, i32* %2, align 4, !llfi_index !40
  %28 = icmp ne i32 %26, 0, !llfi_index !41
  br i1 %28, label %29, label %362, !llfi_index !42

29:                                               ; preds = %25
  %30 = call i32 (i8*, ...) @__isoc99_scanf(i8* getelementptr inbounds ([3 x i8], [3 x i8]* @.str.2, i64 0, i64 0), i32* %4), !llfi_index !43
  store i32 89, i32* %3, align 4, !llfi_index !44
  store i32 0, i32* %5, align 4, !llfi_index !45
  br label %31, !llfi_index !46

31:                                               ; preds = %41, %29
  %32 = load i32, i32* %5, align 4, !llfi_index !47
  %33 = load i32, i32* %4, align 4, !llfi_index !48
  %34 = icmp slt i32 %32, %33, !llfi_index !49
  br i1 %34, label %35, label %44, !llfi_index !50

35:                                               ; preds = %31
  %36 = load i32, i32* %5, align 4, !llfi_index !51
  %37 = sext i32 %36 to i64, !llfi_index !52
  %38 = getelementptr inbounds [1234 x [1234 x i8]], [1234 x [1234 x i8]]* @s, i64 0, i64 %37, !llfi_index !53
  %39 = getelementptr inbounds [1234 x i8], [1234 x i8]* %38, i64 0, i64 0, !llfi_index !54
  %40 = call i32 (i8*, ...) @__isoc99_scanf(i8* getelementptr inbounds ([3 x i8], [3 x i8]* @.str.3, i64 0, i64 0), i8* %39), !llfi_index !55
  br label %41, !llfi_index !56

41:                                               ; preds = %35
  %42 = load i32, i32* %5, align 4, !llfi_index !57
  %43 = add nsw i32 %42, 1, !llfi_index !58
  store i32 %43, i32* %5, align 4, !llfi_index !59
  br label %31, !llvm.loop !60, !llfi_index !62

44:                                               ; preds = %31
  store i32 89, i32* %3, align 4, !llfi_index !63
  store i32 0, i32* %6, align 4, !llfi_index !64
  br label %45, !llfi_index !65

45:                                               ; preds = %167, %44
  %46 = load i32, i32* %6, align 4, !llfi_index !66
  %47 = load i32, i32* %4, align 4, !llfi_index !67
  %48 = icmp slt i32 %46, %47, !llfi_index !68
  br i1 %48, label %49, label %170, !llfi_index !69

49:                                               ; preds = %45
  store i32 0, i32* %7, align 4, !llfi_index !70
  br label %50, !llfi_index !71

50:                                               ; preds = %163, %49
  %51 = load i32, i32* %7, align 4, !llfi_index !72
  %52 = load i32, i32* %4, align 4, !llfi_index !73
  %53 = icmp slt i32 %51, %52, !llfi_index !74
  br i1 %53, label %54, label %166, !llfi_index !75

54:                                               ; preds = %50
  %55 = load i32, i32* %6, align 4, !llfi_index !76
  %56 = sext i32 %55 to i64, !llfi_index !77
  %57 = getelementptr inbounds [1234 x [1234 x i8]], [1234 x [1234 x i8]]* @s, i64 0, i64 %56, !llfi_index !78
  %58 = load i32, i32* %7, align 4, !llfi_index !79
  %59 = sext i32 %58 to i64, !llfi_index !80
  %60 = getelementptr inbounds [1234 x i8], [1234 x i8]* %57, i64 0, i64 %59, !llfi_index !81
  %61 = load i8, i8* %60, align 1, !llfi_index !82
  %62 = sext i8 %61 to i32, !llfi_index !83
  %63 = icmp eq i32 %62, 88, !llfi_index !84
  br i1 %63, label %64, label %71, !llfi_index !85

64:                                               ; preds = %54
  %65 = load i32, i32* %6, align 4, !llfi_index !86
  %66 = sext i32 %65 to i64, !llfi_index !87
  %67 = getelementptr inbounds [1234 x [1234 x i32]], [1234 x [1234 x i32]]* @g, i64 0, i64 %66, !llfi_index !88
  %68 = load i32, i32* %7, align 4, !llfi_index !89
  %69 = sext i32 %68 to i64, !llfi_index !90
  %70 = getelementptr inbounds [1234 x i32], [1234 x i32]* %67, i64 0, i64 %69, !llfi_index !91
  store i32 -1, i32* %70, align 4, !llfi_index !92
  br label %163, !llfi_index !93

71:                                               ; preds = %54
  call void @_ZNSt3setIiSt4lessIiESaIiEEC2Ev(%"class.std::set"* nonnull align 8 dereferenceable(48) %8) #2, !llfi_index !94
  %72 = load i32, i32* %6, align 4, !llfi_index !95
  %73 = icmp sgt i32 %72, 0, !llfi_index !96
  br i1 %73, label %74, label %93, !llfi_index !97

74:                                               ; preds = %71
  %75 = load i32, i32* %6, align 4, !llfi_index !98
  %76 = sub nsw i32 %75, 1, !llfi_index !99
  %77 = sext i32 %76 to i64, !llfi_index !100
  %78 = getelementptr inbounds [1234 x [1234 x i32]], [1234 x [1234 x i32]]* @g, i64 0, i64 %77, !llfi_index !101
  %79 = load i32, i32* %7, align 4, !llfi_index !102
  %80 = sext i32 %79 to i64, !llfi_index !103
  %81 = getelementptr inbounds [1234 x i32], [1234 x i32]* %78, i64 0, i64 %80, !llfi_index !104
  %82 = invoke { %"struct.std::_Rb_tree_node_base"*, i8 } @_ZNSt3setIiSt4lessIiESaIiEE6insertERKi(%"class.std::set"* nonnull align 8 dereferenceable(48) %8, i32* nonnull align 4 dereferenceable(4) %81)
          to label %83 unwind label %89, !llfi_index !105

83:                                               ; preds = %74
  %84 = bitcast %"struct.std::pair"* %11 to { %"struct.std::_Rb_tree_node_base"*, i8 }*, !llfi_index !106
  %85 = getelementptr inbounds { %"struct.std::_Rb_tree_node_base"*, i8 }, { %"struct.std::_Rb_tree_node_base"*, i8 }* %84, i32 0, i32 0, !llfi_index !107
  %86 = extractvalue { %"struct.std::_Rb_tree_node_base"*, i8 } %82, 0, !llfi_index !108
  store %"struct.std::_Rb_tree_node_base"* %86, %"struct.std::_Rb_tree_node_base"** %85, align 8, !llfi_index !109
  %87 = getelementptr inbounds { %"struct.std::_Rb_tree_node_base"*, i8 }, { %"struct.std::_Rb_tree_node_base"*, i8 }* %84, i32 0, i32 1, !llfi_index !110
  %88 = extractvalue { %"struct.std::_Rb_tree_node_base"*, i8 } %82, 1, !llfi_index !111
  store i8 %88, i8* %87, align 8, !llfi_index !112
  br label %93, !llfi_index !113

89:                                               ; preds = %140, %117, %96, %74
  %90 = landingpad { i8*, i32 }
          cleanup, !llfi_index !114
  %91 = extractvalue { i8*, i32 } %90, 0, !llfi_index !115
  store i8* %91, i8** %9, align 8, !llfi_index !116
  %92 = extractvalue { i8*, i32 } %90, 1, !llfi_index !117
  store i32 %92, i32* %10, align 4, !llfi_index !118
  call void @_ZNSt3setIiSt4lessIiESaIiEED2Ev(%"class.std::set"* nonnull align 8 dereferenceable(48) %8) #2, !llfi_index !119
  br label %363, !llfi_index !120

93:                                               ; preds = %83, %71
  %94 = load i32, i32* %7, align 4, !llfi_index !121
  %95 = icmp sgt i32 %94, 0, !llfi_index !122
  br i1 %95, label %96, label %111, !llfi_index !123

96:                                               ; preds = %93
  %97 = load i32, i32* %6, align 4, !llfi_index !124
  %98 = sext i32 %97 to i64, !llfi_index !125
  %99 = getelementptr inbounds [1234 x [1234 x i32]], [1234 x [1234 x i32]]* @g, i64 0, i64 %98, !llfi_index !126
  %100 = load i32, i32* %7, align 4, !llfi_index !127
  %101 = sub nsw i32 %100, 1, !llfi_index !128
  %102 = sext i32 %101 to i64, !llfi_index !129
  %103 = getelementptr inbounds [1234 x i32], [1234 x i32]* %99, i64 0, i64 %102, !llfi_index !130
  %104 = invoke { %"struct.std::_Rb_tree_node_base"*, i8 } @_ZNSt3setIiSt4lessIiESaIiEE6insertERKi(%"class.std::set"* nonnull align 8 dereferenceable(48) %8, i32* nonnull align 4 dereferenceable(4) %103)
          to label %105 unwind label %89, !llfi_index !131

105:                                              ; preds = %96
  %106 = bitcast %"struct.std::pair"* %12 to { %"struct.std::_Rb_tree_node_base"*, i8 }*, !llfi_index !132
  %107 = getelementptr inbounds { %"struct.std::_Rb_tree_node_base"*, i8 }, { %"struct.std::_Rb_tree_node_base"*, i8 }* %106, i32 0, i32 0, !llfi_index !133
  %108 = extractvalue { %"struct.std::_Rb_tree_node_base"*, i8 } %104, 0, !llfi_index !134
  store %"struct.std::_Rb_tree_node_base"* %108, %"struct.std::_Rb_tree_node_base"** %107, align 8, !llfi_index !135
  %109 = getelementptr inbounds { %"struct.std::_Rb_tree_node_base"*, i8 }, { %"struct.std::_Rb_tree_node_base"*, i8 }* %106, i32 0, i32 1, !llfi_index !136
  %110 = extractvalue { %"struct.std::_Rb_tree_node_base"*, i8 } %104, 1, !llfi_index !137
  store i8 %110, i8* %109, align 8, !llfi_index !138
  br label %111, !llfi_index !139

111:                                              ; preds = %105, %93
  %112 = load i32, i32* %6, align 4, !llfi_index !140
  %113 = icmp sgt i32 %112, 0, !llfi_index !141
  br i1 %113, label %114, label %133, !llfi_index !142

114:                                              ; preds = %111
  %115 = load i32, i32* %7, align 4, !llfi_index !143
  %116 = icmp sgt i32 %115, 0, !llfi_index !144
  br i1 %116, label %117, label %133, !llfi_index !145

117:                                              ; preds = %114
  %118 = load i32, i32* %6, align 4, !llfi_index !146
  %119 = sub nsw i32 %118, 1, !llfi_index !147
  %120 = sext i32 %119 to i64, !llfi_index !148
  %121 = getelementptr inbounds [1234 x [1234 x i32]], [1234 x [1234 x i32]]* @g, i64 0, i64 %120, !llfi_index !149
  %122 = load i32, i32* %7, align 4, !llfi_index !150
  %123 = sub nsw i32 %122, 1, !llfi_index !151
  %124 = sext i32 %123 to i64, !llfi_index !152
  %125 = getelementptr inbounds [1234 x i32], [1234 x i32]* %121, i64 0, i64 %124, !llfi_index !153
  %126 = invoke { %"struct.std::_Rb_tree_node_base"*, i8 } @_ZNSt3setIiSt4lessIiESaIiEE6insertERKi(%"class.std::set"* nonnull align 8 dereferenceable(48) %8, i32* nonnull align 4 dereferenceable(4) %125)
          to label %127 unwind label %89, !llfi_index !154

127:                                              ; preds = %117
  %128 = bitcast %"struct.std::pair"* %13 to { %"struct.std::_Rb_tree_node_base"*, i8 }*, !llfi_index !155
  %129 = getelementptr inbounds { %"struct.std::_Rb_tree_node_base"*, i8 }, { %"struct.std::_Rb_tree_node_base"*, i8 }* %128, i32 0, i32 0, !llfi_index !156
  %130 = extractvalue { %"struct.std::_Rb_tree_node_base"*, i8 } %126, 0, !llfi_index !157
  store %"struct.std::_Rb_tree_node_base"* %130, %"struct.std::_Rb_tree_node_base"** %129, align 8, !llfi_index !158
  %131 = getelementptr inbounds { %"struct.std::_Rb_tree_node_base"*, i8 }, { %"struct.std::_Rb_tree_node_base"*, i8 }* %128, i32 0, i32 1, !llfi_index !159
  %132 = extractvalue { %"struct.std::_Rb_tree_node_base"*, i8 } %126, 1, !llfi_index !160
  store i8 %132, i8* %131, align 8, !llfi_index !161
  br label %133, !llfi_index !162

133:                                              ; preds = %127, %114, %111
  %134 = load i32, i32* %6, align 4, !llfi_index !163
  %135 = sext i32 %134 to i64, !llfi_index !164
  %136 = getelementptr inbounds [1234 x [1234 x i32]], [1234 x [1234 x i32]]* @g, i64 0, i64 %135, !llfi_index !165
  %137 = load i32, i32* %7, align 4, !llfi_index !166
  %138 = sext i32 %137 to i64, !llfi_index !167
  %139 = getelementptr inbounds [1234 x i32], [1234 x i32]* %136, i64 0, i64 %138, !llfi_index !168
  store i32 0, i32* %139, align 4, !llfi_index !169
  br label %140, !llfi_index !170

140:                                              ; preds = %153, %133
  %141 = load i32, i32* %6, align 4, !llfi_index !171
  %142 = sext i32 %141 to i64, !llfi_index !172
  %143 = getelementptr inbounds [1234 x [1234 x i32]], [1234 x [1234 x i32]]* @g, i64 0, i64 %142, !llfi_index !173
  %144 = load i32, i32* %7, align 4, !llfi_index !174
  %145 = sext i32 %144 to i64, !llfi_index !175
  %146 = getelementptr inbounds [1234 x i32], [1234 x i32]* %143, i64 0, i64 %145, !llfi_index !176
  %147 = invoke %"struct.std::_Rb_tree_node_base"* @_ZNSt3setIiSt4lessIiESaIiEE4findERKi(%"class.std::set"* nonnull align 8 dereferenceable(48) %8, i32* nonnull align 4 dereferenceable(4) %146)
          to label %148 unwind label %89, !llfi_index !177

148:                                              ; preds = %140
  %149 = getelementptr inbounds %"struct.std::_Rb_tree_const_iterator", %"struct.std::_Rb_tree_const_iterator"* %14, i32 0, i32 0, !llfi_index !178
  store %"struct.std::_Rb_tree_node_base"* %147, %"struct.std::_Rb_tree_node_base"** %149, align 8, !llfi_index !179
  %150 = call %"struct.std::_Rb_tree_node_base"* @_ZNKSt3setIiSt4lessIiESaIiEE3endEv(%"class.std::set"* nonnull align 8 dereferenceable(48) %8) #2, !llfi_index !180
  %151 = getelementptr inbounds %"struct.std::_Rb_tree_const_iterator", %"struct.std::_Rb_tree_const_iterator"* %15, i32 0, i32 0, !llfi_index !181
  store %"struct.std::_Rb_tree_node_base"* %150, %"struct.std::_Rb_tree_node_base"** %151, align 8, !llfi_index !182
  %152 = call zeroext i1 @_ZStneRKSt23_Rb_tree_const_iteratorIiES2_(%"struct.std::_Rb_tree_const_iterator"* nonnull align 8 dereferenceable(8) %14, %"struct.std::_Rb_tree_const_iterator"* nonnull align 8 dereferenceable(8) %15) #2, !llfi_index !183
  br i1 %152, label %153, label %162, !llfi_index !184

153:                                              ; preds = %148
  %154 = load i32, i32* %6, align 4, !llfi_index !185
  %155 = sext i32 %154 to i64, !llfi_index !186
  %156 = getelementptr inbounds [1234 x [1234 x i32]], [1234 x [1234 x i32]]* @g, i64 0, i64 %155, !llfi_index !187
  %157 = load i32, i32* %7, align 4, !llfi_index !188
  %158 = sext i32 %157 to i64, !llfi_index !189
  %159 = getelementptr inbounds [1234 x i32], [1234 x i32]* %156, i64 0, i64 %158, !llfi_index !190
  %160 = load i32, i32* %159, align 4, !llfi_index !191
  %161 = add nsw i32 %160, 1, !llfi_index !192
  store i32 %161, i32* %159, align 4, !llfi_index !193
  br label %140, !llvm.loop !194, !llfi_index !195

162:                                              ; preds = %148
  call void @_ZNSt3setIiSt4lessIiESaIiEED2Ev(%"class.std::set"* nonnull align 8 dereferenceable(48) %8) #2, !llfi_index !196
  br label %163, !llfi_index !197

163:                                              ; preds = %162, %64
  %164 = load i32, i32* %7, align 4, !llfi_index !198
  %165 = add nsw i32 %164, 1, !llfi_index !199
  store i32 %165, i32* %7, align 4, !llfi_index !200
  br label %50, !llvm.loop !201, !llfi_index !202

166:                                              ; preds = %50
  br label %167, !llfi_index !203

167:                                              ; preds = %166
  %168 = load i32, i32* %6, align 4, !llfi_index !204
  %169 = add nsw i32 %168, 1, !llfi_index !205
  store i32 %169, i32* %6, align 4, !llfi_index !206
  br label %45, !llvm.loop !207, !llfi_index !208

170:                                              ; preds = %45
  store i32 0, i32* %16, align 4, !llfi_index !209
  store i32 89, i32* %3, align 4, !llfi_index !210
  store i32 0, i32* %17, align 4, !llfi_index !211
  br label %171, !llfi_index !212

171:                                              ; preds = %205, %170
  %172 = load i32, i32* %17, align 4, !llfi_index !213
  %173 = load i32, i32* %4, align 4, !llfi_index !214
  %174 = icmp slt i32 %172, %173, !llfi_index !215
  br i1 %174, label %175, label %208, !llfi_index !216

175:                                              ; preds = %171
  store i32 0, i32* %18, align 4, !llfi_index !217
  br label %176, !llfi_index !218

176:                                              ; preds = %201, %175
  %177 = load i32, i32* %18, align 4, !llfi_index !219
  %178 = load i32, i32* %4, align 4, !llfi_index !220
  %179 = icmp slt i32 %177, %178, !llfi_index !221
  br i1 %179, label %180, label %204, !llfi_index !222

180:                                              ; preds = %176
  %181 = load i32, i32* %17, align 4, !llfi_index !223
  %182 = sext i32 %181 to i64, !llfi_index !224
  %183 = getelementptr inbounds [1234 x [1234 x i8]], [1234 x [1234 x i8]]* @s, i64 0, i64 %182, !llfi_index !225
  %184 = load i32, i32* %18, align 4, !llfi_index !226
  %185 = sext i32 %184 to i64, !llfi_index !227
  %186 = getelementptr inbounds [1234 x i8], [1234 x i8]* %183, i64 0, i64 %185, !llfi_index !228
  %187 = load i8, i8* %186, align 1, !llfi_index !229
  %188 = sext i8 %187 to i32, !llfi_index !230
  %189 = icmp eq i32 %188, 75, !llfi_index !231
  br i1 %189, label %190, label %200, !llfi_index !232

190:                                              ; preds = %180
  %191 = load i32, i32* %17, align 4, !llfi_index !233
  %192 = sext i32 %191 to i64, !llfi_index !234
  %193 = getelementptr inbounds [1234 x [1234 x i32]], [1234 x [1234 x i32]]* @g, i64 0, i64 %192, !llfi_index !235
  %194 = load i32, i32* %18, align 4, !llfi_index !236
  %195 = sext i32 %194 to i64, !llfi_index !237
  %196 = getelementptr inbounds [1234 x i32], [1234 x i32]* %193, i64 0, i64 %195, !llfi_index !238
  %197 = load i32, i32* %196, align 4, !llfi_index !239
  %198 = load i32, i32* %16, align 4, !llfi_index !240
  %199 = xor i32 %198, %197, !llfi_index !241
  store i32 %199, i32* %16, align 4, !llfi_index !242
  br label %200, !llfi_index !243

200:                                              ; preds = %190, %180
  br label %201, !llfi_index !244

201:                                              ; preds = %200
  %202 = load i32, i32* %18, align 4, !llfi_index !245
  %203 = add nsw i32 %202, 1, !llfi_index !246
  store i32 %203, i32* %18, align 4, !llfi_index !247
  br label %176, !llvm.loop !248, !llfi_index !249

204:                                              ; preds = %176
  br label %205, !llfi_index !250

205:                                              ; preds = %204
  %206 = load i32, i32* %17, align 4, !llfi_index !251
  %207 = add nsw i32 %206, 1, !llfi_index !252
  store i32 %207, i32* %17, align 4, !llfi_index !253
  br label %171, !llvm.loop !254, !llfi_index !255

208:                                              ; preds = %171
  store i32 89, i32* %3, align 4, !llfi_index !256
  %209 = load i32, i32* %16, align 4, !llfi_index !257
  %210 = icmp eq i32 %209, 0, !llfi_index !258
  br i1 %210, label %211, label %213, !llfi_index !259

211:                                              ; preds = %208
  %212 = call i32 @puts(i8* getelementptr inbounds ([5 x i8], [5 x i8]* @.str.4, i64 0, i64 0)), !llfi_index !260
  br label %361, !llfi_index !261

213:                                              ; preds = %208
  store i32 0, i32* %19, align 4, !llfi_index !262
  store i32 0, i32* %20, align 4, !llfi_index !263
  br label %214, !llfi_index !264

214:                                              ; preds = %355, %213
  %215 = load i32, i32* %20, align 4, !llfi_index !265
  %216 = load i32, i32* %4, align 4, !llfi_index !266
  %217 = icmp slt i32 %215, %216, !llfi_index !267
  br i1 %217, label %218, label %358, !llfi_index !268

218:                                              ; preds = %214
  store i32 0, i32* %21, align 4, !llfi_index !269
  br label %219, !llfi_index !270

219:                                              ; preds = %351, %218
  %220 = load i32, i32* %21, align 4, !llfi_index !271
  %221 = load i32, i32* %4, align 4, !llfi_index !272
  %222 = icmp slt i32 %220, %221, !llfi_index !273
  br i1 %222, label %223, label %354, !llfi_index !274

223:                                              ; preds = %219
  %224 = load i32, i32* %20, align 4, !llfi_index !275
  %225 = sext i32 %224 to i64, !llfi_index !276
  %226 = getelementptr inbounds [1234 x [1234 x i8]], [1234 x [1234 x i8]]* @s, i64 0, i64 %225, !llfi_index !277
  %227 = load i32, i32* %21, align 4, !llfi_index !278
  %228 = sext i32 %227 to i64, !llfi_index !279
  %229 = getelementptr inbounds [1234 x i8], [1234 x i8]* %226, i64 0, i64 %228, !llfi_index !280
  %230 = load i8, i8* %229, align 1, !llfi_index !281
  %231 = sext i8 %230 to i32, !llfi_index !282
  %232 = icmp eq i32 %231, 75, !llfi_index !283
  br i1 %232, label %233, label %350, !llfi_index !284

233:                                              ; preds = %223
  %234 = load i32, i32* %20, align 4, !llfi_index !285
  %235 = icmp sgt i32 %234, 0, !llfi_index !286
  br i1 %235, label %236, label %270, !llfi_index !287

236:                                              ; preds = %233
  %237 = load i32, i32* %20, align 4, !llfi_index !288
  %238 = sub nsw i32 %237, 1, !llfi_index !289
  %239 = sext i32 %238 to i64, !llfi_index !290
  %240 = getelementptr inbounds [1234 x [1234 x i8]], [1234 x [1234 x i8]]* @s, i64 0, i64 %239, !llfi_index !291
  %241 = load i32, i32* %21, align 4, !llfi_index !292
  %242 = sext i32 %241 to i64, !llfi_index !293
  %243 = getelementptr inbounds [1234 x i8], [1234 x i8]* %240, i64 0, i64 %242, !llfi_index !294
  %244 = load i8, i8* %243, align 1, !llfi_index !295
  %245 = sext i8 %244 to i32, !llfi_index !296
  %246 = icmp ne i32 %245, 88, !llfi_index !297
  br i1 %246, label %247, label %270, !llfi_index !298

247:                                              ; preds = %236
  %248 = load i32, i32* %20, align 4, !llfi_index !299
  %249 = sub nsw i32 %248, 1, !llfi_index !300
  %250 = sext i32 %249 to i64, !llfi_index !301
  %251 = getelementptr inbounds [1234 x [1234 x i32]], [1234 x [1234 x i32]]* @g, i64 0, i64 %250, !llfi_index !302
  %252 = load i32, i32* %21, align 4, !llfi_index !303
  %253 = sext i32 %252 to i64, !llfi_index !304
  %254 = getelementptr inbounds [1234 x i32], [1234 x i32]* %251, i64 0, i64 %253, !llfi_index !305
  %255 = load i32, i32* %254, align 4, !llfi_index !306
  %256 = load i32, i32* %20, align 4, !llfi_index !307
  %257 = sext i32 %256 to i64, !llfi_index !308
  %258 = getelementptr inbounds [1234 x [1234 x i32]], [1234 x [1234 x i32]]* @g, i64 0, i64 %257, !llfi_index !309
  %259 = load i32, i32* %21, align 4, !llfi_index !310
  %260 = sext i32 %259 to i64, !llfi_index !311
  %261 = getelementptr inbounds [1234 x i32], [1234 x i32]* %258, i64 0, i64 %260, !llfi_index !312
  %262 = load i32, i32* %261, align 4, !llfi_index !313
  %263 = xor i32 %255, %262, !llfi_index !314
  %264 = load i32, i32* %16, align 4, !llfi_index !315
  %265 = icmp eq i32 %263, %264, !llfi_index !316
  br i1 %265, label %266, label %269, !llfi_index !317

266:                                              ; preds = %247
  %267 = load i32, i32* %19, align 4, !llfi_index !318
  %268 = add nsw i32 %267, 1, !llfi_index !319
  store i32 %268, i32* %19, align 4, !llfi_index !320
  br label %269, !llfi_index !321

269:                                              ; preds = %266, %247
  br label %270, !llfi_index !322

270:                                              ; preds = %269, %236, %233
  %271 = load i32, i32* %21, align 4, !llfi_index !323
  %272 = icmp sgt i32 %271, 0, !llfi_index !324
  br i1 %272, label %273, label %307, !llfi_index !325

273:                                              ; preds = %270
  %274 = load i32, i32* %20, align 4, !llfi_index !326
  %275 = sext i32 %274 to i64, !llfi_index !327
  %276 = getelementptr inbounds [1234 x [1234 x i8]], [1234 x [1234 x i8]]* @s, i64 0, i64 %275, !llfi_index !328
  %277 = load i32, i32* %21, align 4, !llfi_index !329
  %278 = sub nsw i32 %277, 1, !llfi_index !330
  %279 = sext i32 %278 to i64, !llfi_index !331
  %280 = getelementptr inbounds [1234 x i8], [1234 x i8]* %276, i64 0, i64 %279, !llfi_index !332
  %281 = load i8, i8* %280, align 1, !llfi_index !333
  %282 = sext i8 %281 to i32, !llfi_index !334
  %283 = icmp ne i32 %282, 88, !llfi_index !335
  br i1 %283, label %284, label %307, !llfi_index !336

284:                                              ; preds = %273
  %285 = load i32, i32* %20, align 4, !llfi_index !337
  %286 = sext i32 %285 to i64, !llfi_index !338
  %287 = getelementptr inbounds [1234 x [1234 x i32]], [1234 x [1234 x i32]]* @g, i64 0, i64 %286, !llfi_index !339
  %288 = load i32, i32* %21, align 4, !llfi_index !340
  %289 = sub nsw i32 %288, 1, !llfi_index !341
  %290 = sext i32 %289 to i64, !llfi_index !342
  %291 = getelementptr inbounds [1234 x i32], [1234 x i32]* %287, i64 0, i64 %290, !llfi_index !343
  %292 = load i32, i32* %291, align 4, !llfi_index !344
  %293 = load i32, i32* %20, align 4, !llfi_index !345
  %294 = sext i32 %293 to i64, !llfi_index !346
  %295 = getelementptr inbounds [1234 x [1234 x i32]], [1234 x [1234 x i32]]* @g, i64 0, i64 %294, !llfi_index !347
  %296 = load i32, i32* %21, align 4, !llfi_index !348
  %297 = sext i32 %296 to i64, !llfi_index !349
  %298 = getelementptr inbounds [1234 x i32], [1234 x i32]* %295, i64 0, i64 %297, !llfi_index !350
  %299 = load i32, i32* %298, align 4, !llfi_index !351
  %300 = xor i32 %292, %299, !llfi_index !352
  %301 = load i32, i32* %16, align 4, !llfi_index !353
  %302 = icmp eq i32 %300, %301, !llfi_index !354
  br i1 %302, label %303, label %306, !llfi_index !355

303:                                              ; preds = %284
  %304 = load i32, i32* %19, align 4, !llfi_index !356
  %305 = add nsw i32 %304, 1, !llfi_index !357
  store i32 %305, i32* %19, align 4, !llfi_index !358
  br label %306, !llfi_index !359

306:                                              ; preds = %303, %284
  br label %307, !llfi_index !360

307:                                              ; preds = %306, %273, %270
  %308 = load i32, i32* %20, align 4, !llfi_index !361
  %309 = icmp sgt i32 %308, 0, !llfi_index !362
  br i1 %309, label %310, label %349, !llfi_index !363

310:                                              ; preds = %307
  %311 = load i32, i32* %21, align 4, !llfi_index !364
  %312 = icmp sgt i32 %311, 0, !llfi_index !365
  br i1 %312, label %313, label %349, !llfi_index !366

313:                                              ; preds = %310
  %314 = load i32, i32* %20, align 4, !llfi_index !367
  %315 = sub nsw i32 %314, 1, !llfi_index !368
  %316 = sext i32 %315 to i64, !llfi_index !369
  %317 = getelementptr inbounds [1234 x [1234 x i8]], [1234 x [1234 x i8]]* @s, i64 0, i64 %316, !llfi_index !370
  %318 = load i32, i32* %21, align 4, !llfi_index !371
  %319 = sub nsw i32 %318, 1, !llfi_index !372
  %320 = sext i32 %319 to i64, !llfi_index !373
  %321 = getelementptr inbounds [1234 x i8], [1234 x i8]* %317, i64 0, i64 %320, !llfi_index !374
  %322 = load i8, i8* %321, align 1, !llfi_index !375
  %323 = sext i8 %322 to i32, !llfi_index !376
  %324 = icmp ne i32 %323, 88, !llfi_index !377
  br i1 %324, label %325, label %349, !llfi_index !378

325:                                              ; preds = %313
  %326 = load i32, i32* %20, align 4, !llfi_index !379
  %327 = sub nsw i32 %326, 1, !llfi_index !380
  %328 = sext i32 %327 to i64, !llfi_index !381
  %329 = getelementptr inbounds [1234 x [1234 x i32]], [1234 x [1234 x i32]]* @g, i64 0, i64 %328, !llfi_index !382
  %330 = load i32, i32* %21, align 4, !llfi_index !383
  %331 = sub nsw i32 %330, 1, !llfi_index !384
  %332 = sext i32 %331 to i64, !llfi_index !385
  %333 = getelementptr inbounds [1234 x i32], [1234 x i32]* %329, i64 0, i64 %332, !llfi_index !386
  %334 = load i32, i32* %333, align 4, !llfi_index !387
  %335 = load i32, i32* %20, align 4, !llfi_index !388
  %336 = sext i32 %335 to i64, !llfi_index !389
  %337 = getelementptr inbounds [1234 x [1234 x i32]], [1234 x [1234 x i32]]* @g, i64 0, i64 %336, !llfi_index !390
  %338 = load i32, i32* %21, align 4, !llfi_index !391
  %339 = sext i32 %338 to i64, !llfi_index !392
  %340 = getelementptr inbounds [1234 x i32], [1234 x i32]* %337, i64 0, i64 %339, !llfi_index !393
  %341 = load i32, i32* %340, align 4, !llfi_index !394
  %342 = xor i32 %334, %341, !llfi_index !395
  %343 = load i32, i32* %16, align 4, !llfi_index !396
  %344 = icmp eq i32 %342, %343, !llfi_index !397
  br i1 %344, label %345, label %348, !llfi_index !398

345:                                              ; preds = %325
  %346 = load i32, i32* %19, align 4, !llfi_index !399
  %347 = add nsw i32 %346, 1, !llfi_index !400
  store i32 %347, i32* %19, align 4, !llfi_index !401
  br label %348, !llfi_index !402

348:                                              ; preds = %345, %325
  br label %349, !llfi_index !403

349:                                              ; preds = %348, %313, %310, %307
  br label %350, !llfi_index !404

350:                                              ; preds = %349, %223
  br label %351, !llfi_index !405

351:                                              ; preds = %350
  %352 = load i32, i32* %21, align 4, !llfi_index !406
  %353 = add nsw i32 %352, 1, !llfi_index !407
  store i32 %353, i32* %21, align 4, !llfi_index !408
  br label %219, !llvm.loop !409, !llfi_index !410

354:                                              ; preds = %219
  br label %355, !llfi_index !411

355:                                              ; preds = %354
  %356 = load i32, i32* %20, align 4, !llfi_index !412
  %357 = add nsw i32 %356, 1, !llfi_index !413
  store i32 %357, i32* %20, align 4, !llfi_index !414
  br label %214, !llvm.loop !415, !llfi_index !416

358:                                              ; preds = %214
  %359 = load i32, i32* %19, align 4, !llfi_index !417
  %360 = call i32 (i8*, ...) @printf(i8* getelementptr inbounds ([8 x i8], [8 x i8]* @.str.5, i64 0, i64 0), i32 %359), !llfi_index !418
  br label %361, !llfi_index !419

361:                                              ; preds = %358, %211
  br label %25, !llvm.loop !420, !llfi_index !421

362:                                              ; preds = %25
  ret i32 0, !llfi_index !422

363:                                              ; preds = %89
  %364 = load i8*, i8** %9, align 8, !llfi_index !423
  %365 = load i32, i32* %10, align 4, !llfi_index !424
  %366 = insertvalue { i8*, i32 } undef, i8* %364, 0, !llfi_index !425
  %367 = insertvalue { i8*, i32 } %366, i32 %365, 1, !llfi_index !426
  resume { i8*, i32 } %367, !llfi_index !427
}

declare dso_local i32 @__gxx_personality_v0(...)

declare dso_local %struct._IO_FILE* @freopen(i8*, i8*, %struct._IO_FILE*) #1

declare dso_local i32 @__isoc99_scanf(i8*, ...) #1

; Function Attrs: noinline nounwind uwtable
define linkonce_odr dso_local void @_ZNSt3setIiSt4lessIiESaIiEEC2Ev(%"class.std::set"* nonnull align 8 dereferenceable(48) %0) unnamed_addr #5 comdat align 2 {
  %2 = alloca %"class.std::set"*, align 8, !llfi_index !428
  store %"class.std::set"* %0, %"class.std::set"** %2, align 8, !llfi_index !429
  %3 = load %"class.std::set"*, %"class.std::set"** %2, align 8, !llfi_index !430
  %4 = getelementptr inbounds %"class.std::set", %"class.std::set"* %3, i32 0, i32 0, !llfi_index !431
  call void @_ZNSt8_Rb_treeIiiSt9_IdentityIiESt4lessIiESaIiEEC2Ev(%"class.std::_Rb_tree"* nonnull align 8 dereferenceable(48) %4) #2, !llfi_index !432
  ret void, !llfi_index !433
}

; Function Attrs: mustprogress noinline uwtable
define linkonce_odr dso_local { %"struct.std::_Rb_tree_node_base"*, i8 } @_ZNSt3setIiSt4lessIiESaIiEE6insertERKi(%"class.std::set"* nonnull align 8 dereferenceable(48) %0, i32* nonnull align 4 dereferenceable(4) %1) #6 comdat align 2 {
  %3 = alloca %"struct.std::pair", align 8, !llfi_index !434
  %4 = alloca %"class.std::set"*, align 8, !llfi_index !435
  %5 = alloca i32*, align 8, !llfi_index !436
  %6 = alloca %"struct.std::pair", align 8, !llfi_index !437
  store %"class.std::set"* %0, %"class.std::set"** %4, align 8, !llfi_index !438
  store i32* %1, i32** %5, align 8, !llfi_index !439
  %7 = load %"class.std::set"*, %"class.std::set"** %4, align 8, !llfi_index !440
  %8 = getelementptr inbounds %"class.std::set", %"class.std::set"* %7, i32 0, i32 0, !llfi_index !441
  %9 = load i32*, i32** %5, align 8, !llfi_index !442
  %10 = call { %"struct.std::_Rb_tree_node_base"*, i8 } @_ZNSt8_Rb_treeIiiSt9_IdentityIiESt4lessIiESaIiEE16_M_insert_uniqueIRKiEESt4pairISt17_Rb_tree_iteratorIiEbEOT_(%"class.std::_Rb_tree"* nonnull align 8 dereferenceable(48) %8, i32* nonnull align 4 dereferenceable(4) %9), !llfi_index !443
  %11 = bitcast %"struct.std::pair"* %6 to { %"struct.std::_Rb_tree_node_base"*, i8 }*, !llfi_index !444
  %12 = getelementptr inbounds { %"struct.std::_Rb_tree_node_base"*, i8 }, { %"struct.std::_Rb_tree_node_base"*, i8 }* %11, i32 0, i32 0, !llfi_index !445
  %13 = extractvalue { %"struct.std::_Rb_tree_node_base"*, i8 } %10, 0, !llfi_index !446
  store %"struct.std::_Rb_tree_node_base"* %13, %"struct.std::_Rb_tree_node_base"** %12, align 8, !llfi_index !447
  %14 = getelementptr inbounds { %"struct.std::_Rb_tree_node_base"*, i8 }, { %"struct.std::_Rb_tree_node_base"*, i8 }* %11, i32 0, i32 1, !llfi_index !448
  %15 = extractvalue { %"struct.std::_Rb_tree_node_base"*, i8 } %10, 1, !llfi_index !449
  store i8 %15, i8* %14, align 8, !llfi_index !450
  %16 = getelementptr inbounds %"struct.std::pair", %"struct.std::pair"* %6, i32 0, i32 0, !llfi_index !451
  %17 = getelementptr inbounds %"struct.std::pair", %"struct.std::pair"* %6, i32 0, i32 1, !llfi_index !452
  call void @_ZNSt4pairISt23_Rb_tree_const_iteratorIiEbEC2IRSt17_Rb_tree_iteratorIiERbLb1EEEOT_OT0_(%"struct.std::pair"* nonnull align 8 dereferenceable(9) %3, %"struct.std::_Rb_tree_const_iterator"* nonnull align 8 dereferenceable(8) %16, i8* nonnull align 1 dereferenceable(1) %17), !llfi_index !453
  %18 = bitcast %"struct.std::pair"* %3 to { %"struct.std::_Rb_tree_node_base"*, i8 }*, !llfi_index !454
  %19 = load { %"struct.std::_Rb_tree_node_base"*, i8 }, { %"struct.std::_Rb_tree_node_base"*, i8 }* %18, align 8, !llfi_index !455
  ret { %"struct.std::_Rb_tree_node_base"*, i8 } %19, !llfi_index !456
}

; Function Attrs: noinline nounwind uwtable
define linkonce_odr dso_local void @_ZNSt3setIiSt4lessIiESaIiEED2Ev(%"class.std::set"* nonnull align 8 dereferenceable(48) %0) unnamed_addr #5 comdat align 2 {
  %2 = alloca %"class.std::set"*, align 8, !llfi_index !457
  store %"class.std::set"* %0, %"class.std::set"** %2, align 8, !llfi_index !458
  %3 = load %"class.std::set"*, %"class.std::set"** %2, align 8, !llfi_index !459
  %4 = getelementptr inbounds %"class.std::set", %"class.std::set"* %3, i32 0, i32 0, !llfi_index !460
  call void @_ZNSt8_Rb_treeIiiSt9_IdentityIiESt4lessIiESaIiEED2Ev(%"class.std::_Rb_tree"* nonnull align 8 dereferenceable(48) %4) #2, !llfi_index !461
  ret void, !llfi_index !462
}

; Function Attrs: mustprogress noinline uwtable
define linkonce_odr dso_local %"struct.std::_Rb_tree_node_base"* @_ZNSt3setIiSt4lessIiESaIiEE4findERKi(%"class.std::set"* nonnull align 8 dereferenceable(48) %0, i32* nonnull align 4 dereferenceable(4) %1) #6 comdat align 2 {
  %3 = alloca %"struct.std::_Rb_tree_const_iterator", align 8, !llfi_index !463
  %4 = alloca %"class.std::set"*, align 8, !llfi_index !464
  %5 = alloca i32*, align 8, !llfi_index !465
  %6 = alloca %"struct.std::_Rb_tree_const_iterator", align 8, !llfi_index !466
  store %"class.std::set"* %0, %"class.std::set"** %4, align 8, !llfi_index !467
  store i32* %1, i32** %5, align 8, !llfi_index !468
  %7 = load %"class.std::set"*, %"class.std::set"** %4, align 8, !llfi_index !469
  %8 = getelementptr inbounds %"class.std::set", %"class.std::set"* %7, i32 0, i32 0, !llfi_index !470
  %9 = load i32*, i32** %5, align 8, !llfi_index !471
  %10 = call %"struct.std::_Rb_tree_node_base"* @_ZNSt8_Rb_treeIiiSt9_IdentityIiESt4lessIiESaIiEE4findERKi(%"class.std::_Rb_tree"* nonnull align 8 dereferenceable(48) %8, i32* nonnull align 4 dereferenceable(4) %9), !llfi_index !472
  %11 = getelementptr inbounds %"struct.std::_Rb_tree_const_iterator", %"struct.std::_Rb_tree_const_iterator"* %6, i32 0, i32 0, !llfi_index !473
  store %"struct.std::_Rb_tree_node_base"* %10, %"struct.std::_Rb_tree_node_base"** %11, align 8, !llfi_index !474
  call void @_ZNSt23_Rb_tree_const_iteratorIiEC2ERKSt17_Rb_tree_iteratorIiE(%"struct.std::_Rb_tree_const_iterator"* nonnull align 8 dereferenceable(8) %3, %"struct.std::_Rb_tree_const_iterator"* nonnull align 8 dereferenceable(8) %6) #2, !llfi_index !475
  %12 = getelementptr inbounds %"struct.std::_Rb_tree_const_iterator", %"struct.std::_Rb_tree_const_iterator"* %3, i32 0, i32 0, !llfi_index !476
  %13 = load %"struct.std::_Rb_tree_node_base"*, %"struct.std::_Rb_tree_node_base"** %12, align 8, !llfi_index !477
  ret %"struct.std::_Rb_tree_node_base"* %13, !llfi_index !478
}

; Function Attrs: mustprogress noinline nounwind uwtable
define linkonce_odr dso_local %"struct.std::_Rb_tree_node_base"* @_ZNKSt3setIiSt4lessIiESaIiEE3endEv(%"class.std::set"* nonnull align 8 dereferenceable(48) %0) #7 comdat align 2 {
  %2 = alloca %"struct.std::_Rb_tree_const_iterator", align 8, !llfi_index !479
  %3 = alloca %"class.std::set"*, align 8, !llfi_index !480
  store %"class.std::set"* %0, %"class.std::set"** %3, align 8, !llfi_index !481
  %4 = load %"class.std::set"*, %"class.std::set"** %3, align 8, !llfi_index !482
  %5 = getelementptr inbounds %"class.std::set", %"class.std::set"* %4, i32 0, i32 0, !llfi_index !483
  %6 = call %"struct.std::_Rb_tree_node_base"* @_ZNKSt8_Rb_treeIiiSt9_IdentityIiESt4lessIiESaIiEE3endEv(%"class.std::_Rb_tree"* nonnull align 8 dereferenceable(48) %5) #2, !llfi_index !484
  %7 = getelementptr inbounds %"struct.std::_Rb_tree_const_iterator", %"struct.std::_Rb_tree_const_iterator"* %2, i32 0, i32 0, !llfi_index !485
  store %"struct.std::_Rb_tree_node_base"* %6, %"struct.std::_Rb_tree_node_base"** %7, align 8, !llfi_index !486
  %8 = getelementptr inbounds %"struct.std::_Rb_tree_const_iterator", %"struct.std::_Rb_tree_const_iterator"* %2, i32 0, i32 0, !llfi_index !487
  %9 = load %"struct.std::_Rb_tree_node_base"*, %"struct.std::_Rb_tree_node_base"** %8, align 8, !llfi_index !488
  ret %"struct.std::_Rb_tree_node_base"* %9, !llfi_index !489
}

; Function Attrs: mustprogress noinline nounwind uwtable
define linkonce_odr dso_local zeroext i1 @_ZStneRKSt23_Rb_tree_const_iteratorIiES2_(%"struct.std::_Rb_tree_const_iterator"* nonnull align 8 dereferenceable(8) %0, %"struct.std::_Rb_tree_const_iterator"* nonnull align 8 dereferenceable(8) %1) #7 comdat {
  %3 = alloca %"struct.std::_Rb_tree_const_iterator"*, align 8, !llfi_index !490
  %4 = alloca %"struct.std::_Rb_tree_const_iterator"*, align 8, !llfi_index !491
  store %"struct.std::_Rb_tree_const_iterator"* %0, %"struct.std::_Rb_tree_const_iterator"** %3, align 8, !llfi_index !492
  store %"struct.std::_Rb_tree_const_iterator"* %1, %"struct.std::_Rb_tree_const_iterator"** %4, align 8, !llfi_index !493
  %5 = load %"struct.std::_Rb_tree_const_iterator"*, %"struct.std::_Rb_tree_const_iterator"** %3, align 8, !llfi_index !494
  %6 = getelementptr inbounds %"struct.std::_Rb_tree_const_iterator", %"struct.std::_Rb_tree_const_iterator"* %5, i32 0, i32 0, !llfi_index !495
  %7 = load %"struct.std::_Rb_tree_node_base"*, %"struct.std::_Rb_tree_node_base"** %6, align 8, !llfi_index !496
  %8 = load %"struct.std::_Rb_tree_const_iterator"*, %"struct.std::_Rb_tree_const_iterator"** %4, align 8, !llfi_index !497
  %9 = getelementptr inbounds %"struct.std::_Rb_tree_const_iterator", %"struct.std::_Rb_tree_const_iterator"* %8, i32 0, i32 0, !llfi_index !498
  %10 = load %"struct.std::_Rb_tree_node_base"*, %"struct.std::_Rb_tree_node_base"** %9, align 8, !llfi_index !499
  %11 = icmp ne %"struct.std::_Rb_tree_node_base"* %7, %10, !llfi_index !500
  ret i1 %11, !llfi_index !501
}

declare dso_local i32 @puts(i8*) #1

declare dso_local i32 @printf(i8*, ...) #1

; Function Attrs: mustprogress noinline nounwind uwtable
define linkonce_odr dso_local %"struct.std::_Rb_tree_node_base"* @_ZNKSt8_Rb_treeIiiSt9_IdentityIiESt4lessIiESaIiEE3endEv(%"class.std::_Rb_tree"* nonnull align 8 dereferenceable(48) %0) #7 comdat align 2 {
  %2 = alloca %"struct.std::_Rb_tree_const_iterator", align 8, !llfi_index !502
  %3 = alloca %"class.std::_Rb_tree"*, align 8, !llfi_index !503
  store %"class.std::_Rb_tree"* %0, %"class.std::_Rb_tree"** %3, align 8, !llfi_index !504
  %4 = load %"class.std::_Rb_tree"*, %"class.std::_Rb_tree"** %3, align 8, !llfi_index !505
  %5 = getelementptr inbounds %"class.std::_Rb_tree", %"class.std::_Rb_tree"* %4, i32 0, i32 0, !llfi_index !506
  %6 = bitcast %"struct.std::_Rb_tree<int, int, std::_Identity<int>, std::less<int>>::_Rb_tree_impl"* %5 to i8*, !llfi_index !507
  %7 = getelementptr inbounds i8, i8* %6, i64 8, !llfi_index !508
  %8 = bitcast i8* %7 to %"struct.std::_Rb_tree_header"*, !llfi_index !509
  %9 = getelementptr inbounds %"struct.std::_Rb_tree_header", %"struct.std::_Rb_tree_header"* %8, i32 0, i32 0, !llfi_index !510
  call void @_ZNSt23_Rb_tree_const_iteratorIiEC2EPKSt18_Rb_tree_node_base(%"struct.std::_Rb_tree_const_iterator"* nonnull align 8 dereferenceable(8) %2, %"struct.std::_Rb_tree_node_base"* %9) #2, !llfi_index !511
  %10 = getelementptr inbounds %"struct.std::_Rb_tree_const_iterator", %"struct.std::_Rb_tree_const_iterator"* %2, i32 0, i32 0, !llfi_index !512
  %11 = load %"struct.std::_Rb_tree_node_base"*, %"struct.std::_Rb_tree_node_base"** %10, align 8, !llfi_index !513
  ret %"struct.std::_Rb_tree_node_base"* %11, !llfi_index !514
}

; Function Attrs: noinline nounwind uwtable
define linkonce_odr dso_local void @_ZNSt23_Rb_tree_const_iteratorIiEC2EPKSt18_Rb_tree_node_base(%"struct.std::_Rb_tree_const_iterator"* nonnull align 8 dereferenceable(8) %0, %"struct.std::_Rb_tree_node_base"* %1) unnamed_addr #5 comdat align 2 {
  %3 = alloca %"struct.std::_Rb_tree_const_iterator"*, align 8, !llfi_index !515
  %4 = alloca %"struct.std::_Rb_tree_node_base"*, align 8, !llfi_index !516
  store %"struct.std::_Rb_tree_const_iterator"* %0, %"struct.std::_Rb_tree_const_iterator"** %3, align 8, !llfi_index !517
  store %"struct.std::_Rb_tree_node_base"* %1, %"struct.std::_Rb_tree_node_base"** %4, align 8, !llfi_index !518
  %5 = load %"struct.std::_Rb_tree_const_iterator"*, %"struct.std::_Rb_tree_const_iterator"** %3, align 8, !llfi_index !519
  %6 = getelementptr inbounds %"struct.std::_Rb_tree_const_iterator", %"struct.std::_Rb_tree_const_iterator"* %5, i32 0, i32 0, !llfi_index !520
  %7 = load %"struct.std::_Rb_tree_node_base"*, %"struct.std::_Rb_tree_node_base"** %4, align 8, !llfi_index !521
  store %"struct.std::_Rb_tree_node_base"* %7, %"struct.std::_Rb_tree_node_base"** %6, align 8, !llfi_index !522
  ret void, !llfi_index !523
}

; Function Attrs: mustprogress noinline uwtable
define linkonce_odr dso_local %"struct.std::_Rb_tree_node_base"* @_ZNSt8_Rb_treeIiiSt9_IdentityIiESt4lessIiESaIiEE4findERKi(%"class.std::_Rb_tree"* nonnull align 8 dereferenceable(48) %0, i32* nonnull align 4 dereferenceable(4) %1) #6 comdat align 2 {
  %3 = alloca %"struct.std::_Rb_tree_const_iterator", align 8, !llfi_index !524
  %4 = alloca %"class.std::_Rb_tree"*, align 8, !llfi_index !525
  %5 = alloca i32*, align 8, !llfi_index !526
  %6 = alloca %"struct.std::_Rb_tree_const_iterator", align 8, !llfi_index !527
  %7 = alloca %"struct.std::_Rb_tree_const_iterator", align 8, !llfi_index !528
  store %"class.std::_Rb_tree"* %0, %"class.std::_Rb_tree"** %4, align 8, !llfi_index !529
  store i32* %1, i32** %5, align 8, !llfi_index !530
  %8 = load %"class.std::_Rb_tree"*, %"class.std::_Rb_tree"** %4, align 8, !llfi_index !531
  %9 = call %"struct.std::_Rb_tree_node"* @_ZNSt8_Rb_treeIiiSt9_IdentityIiESt4lessIiESaIiEE8_M_beginEv(%"class.std::_Rb_tree"* nonnull align 8 dereferenceable(48) %8) #2, !llfi_index !532
  %10 = call %"struct.std::_Rb_tree_node_base"* @_ZNSt8_Rb_treeIiiSt9_IdentityIiESt4lessIiESaIiEE6_M_endEv(%"class.std::_Rb_tree"* nonnull align 8 dereferenceable(48) %8) #2, !llfi_index !533
  %11 = load i32*, i32** %5, align 8, !llfi_index !534
  %12 = call %"struct.std::_Rb_tree_node_base"* @_ZNSt8_Rb_treeIiiSt9_IdentityIiESt4lessIiESaIiEE14_M_lower_boundEPSt13_Rb_tree_nodeIiEPSt18_Rb_tree_node_baseRKi(%"class.std::_Rb_tree"* nonnull align 8 dereferenceable(48) %8, %"struct.std::_Rb_tree_node"* %9, %"struct.std::_Rb_tree_node_base"* %10, i32* nonnull align 4 dereferenceable(4) %11), !llfi_index !535
  %13 = getelementptr inbounds %"struct.std::_Rb_tree_const_iterator", %"struct.std::_Rb_tree_const_iterator"* %6, i32 0, i32 0, !llfi_index !536
  store %"struct.std::_Rb_tree_node_base"* %12, %"struct.std::_Rb_tree_node_base"** %13, align 8, !llfi_index !537
  %14 = call %"struct.std::_Rb_tree_node_base"* @_ZNSt8_Rb_treeIiiSt9_IdentityIiESt4lessIiESaIiEE3endEv(%"class.std::_Rb_tree"* nonnull align 8 dereferenceable(48) %8) #2, !llfi_index !538
  %15 = getelementptr inbounds %"struct.std::_Rb_tree_const_iterator", %"struct.std::_Rb_tree_const_iterator"* %7, i32 0, i32 0, !llfi_index !539
  store %"struct.std::_Rb_tree_node_base"* %14, %"struct.std::_Rb_tree_node_base"** %15, align 8, !llfi_index !540
  %16 = call zeroext i1 @_ZSteqRKSt17_Rb_tree_iteratorIiES2_(%"struct.std::_Rb_tree_const_iterator"* nonnull align 8 dereferenceable(8) %6, %"struct.std::_Rb_tree_const_iterator"* nonnull align 8 dereferenceable(8) %7) #2, !llfi_index !541
  br i1 %16, label %26, label %17, !llfi_index !542

17:                                               ; preds = %2
  %18 = getelementptr inbounds %"class.std::_Rb_tree", %"class.std::_Rb_tree"* %8, i32 0, i32 0, !llfi_index !543
  %19 = bitcast %"struct.std::_Rb_tree<int, int, std::_Identity<int>, std::less<int>>::_Rb_tree_impl"* %18 to %"struct.std::_Rb_tree_key_compare"*, !llfi_index !544
  %20 = getelementptr inbounds %"struct.std::_Rb_tree_key_compare", %"struct.std::_Rb_tree_key_compare"* %19, i32 0, i32 0, !llfi_index !545
  %21 = load i32*, i32** %5, align 8, !llfi_index !546
  %22 = getelementptr inbounds %"struct.std::_Rb_tree_const_iterator", %"struct.std::_Rb_tree_const_iterator"* %6, i32 0, i32 0, !llfi_index !547
  %23 = load %"struct.std::_Rb_tree_node_base"*, %"struct.std::_Rb_tree_node_base"** %22, align 8, !llfi_index !548
  %24 = call nonnull align 4 dereferenceable(4) i32* @_ZNSt8_Rb_treeIiiSt9_IdentityIiESt4lessIiESaIiEE6_S_keyEPKSt18_Rb_tree_node_base(%"struct.std::_Rb_tree_node_base"* %23), !llfi_index !549
  %25 = call zeroext i1 @_ZNKSt4lessIiEclERKiS2_(%"class.std::ios_base::Init"* nonnull align 1 dereferenceable(1) %20, i32* nonnull align 4 dereferenceable(4) %21, i32* nonnull align 4 dereferenceable(4) %24), !llfi_index !550
  br i1 %25, label %26, label %29, !llfi_index !551

26:                                               ; preds = %17, %2
  %27 = call %"struct.std::_Rb_tree_node_base"* @_ZNSt8_Rb_treeIiiSt9_IdentityIiESt4lessIiESaIiEE3endEv(%"class.std::_Rb_tree"* nonnull align 8 dereferenceable(48) %8) #2, !llfi_index !552
  %28 = getelementptr inbounds %"struct.std::_Rb_tree_const_iterator", %"struct.std::_Rb_tree_const_iterator"* %3, i32 0, i32 0, !llfi_index !553
  store %"struct.std::_Rb_tree_node_base"* %27, %"struct.std::_Rb_tree_node_base"** %28, align 8, !llfi_index !554
  br label %32, !llfi_index !555

29:                                               ; preds = %17
  %30 = bitcast %"struct.std::_Rb_tree_const_iterator"* %3 to i8*, !llfi_index !556
  %31 = bitcast %"struct.std::_Rb_tree_const_iterator"* %6 to i8*, !llfi_index !557
  call void @llvm.memcpy.p0i8.p0i8.i64(i8* align 8 %30, i8* align 8 %31, i64 8, i1 false), !llfi_index !558
  br label %32, !llfi_index !559

32:                                               ; preds = %29, %26
  %33 = getelementptr inbounds %"struct.std::_Rb_tree_const_iterator", %"struct.std::_Rb_tree_const_iterator"* %3, i32 0, i32 0, !llfi_index !560
  %34 = load %"struct.std::_Rb_tree_node_base"*, %"struct.std::_Rb_tree_node_base"** %33, align 8, !llfi_index !561
  ret %"struct.std::_Rb_tree_node_base"* %34, !llfi_index !562
}

; Function Attrs: noinline nounwind uwtable
define linkonce_odr dso_local void @_ZNSt23_Rb_tree_const_iteratorIiEC2ERKSt17_Rb_tree_iteratorIiE(%"struct.std::_Rb_tree_const_iterator"* nonnull align 8 dereferenceable(8) %0, %"struct.std::_Rb_tree_const_iterator"* nonnull align 8 dereferenceable(8) %1) unnamed_addr #5 comdat align 2 {
  %3 = alloca %"struct.std::_Rb_tree_const_iterator"*, align 8, !llfi_index !563
  %4 = alloca %"struct.std::_Rb_tree_const_iterator"*, align 8, !llfi_index !564
  store %"struct.std::_Rb_tree_const_iterator"* %0, %"struct.std::_Rb_tree_const_iterator"** %3, align 8, !llfi_index !565
  store %"struct.std::_Rb_tree_const_iterator"* %1, %"struct.std::_Rb_tree_const_iterator"** %4, align 8, !llfi_index !566
  %5 = load %"struct.std::_Rb_tree_const_iterator"*, %"struct.std::_Rb_tree_const_iterator"** %3, align 8, !llfi_index !567
  %6 = getelementptr inbounds %"struct.std::_Rb_tree_const_iterator", %"struct.std::_Rb_tree_const_iterator"* %5, i32 0, i32 0, !llfi_index !568
  %7 = load %"struct.std::_Rb_tree_const_iterator"*, %"struct.std::_Rb_tree_const_iterator"** %4, align 8, !llfi_index !569
  %8 = getelementptr inbounds %"struct.std::_Rb_tree_const_iterator", %"struct.std::_Rb_tree_const_iterator"* %7, i32 0, i32 0, !llfi_index !570
  %9 = load %"struct.std::_Rb_tree_node_base"*, %"struct.std::_Rb_tree_node_base"** %8, align 8, !llfi_index !571
  store %"struct.std::_Rb_tree_node_base"* %9, %"struct.std::_Rb_tree_node_base"** %6, align 8, !llfi_index !572
  ret void, !llfi_index !573
}

; Function Attrs: mustprogress noinline nounwind uwtable
define linkonce_odr dso_local %"struct.std::_Rb_tree_node"* @_ZNSt8_Rb_treeIiiSt9_IdentityIiESt4lessIiESaIiEE8_M_beginEv(%"class.std::_Rb_tree"* nonnull align 8 dereferenceable(48) %0) #7 comdat align 2 {
  %2 = alloca %"class.std::_Rb_tree"*, align 8, !llfi_index !574
  store %"class.std::_Rb_tree"* %0, %"class.std::_Rb_tree"** %2, align 8, !llfi_index !575
  %3 = load %"class.std::_Rb_tree"*, %"class.std::_Rb_tree"** %2, align 8, !llfi_index !576
  %4 = getelementptr inbounds %"class.std::_Rb_tree", %"class.std::_Rb_tree"* %3, i32 0, i32 0, !llfi_index !577
  %5 = bitcast %"struct.std::_Rb_tree<int, int, std::_Identity<int>, std::less<int>>::_Rb_tree_impl"* %4 to i8*, !llfi_index !578
  %6 = getelementptr inbounds i8, i8* %5, i64 8, !llfi_index !579
  %7 = bitcast i8* %6 to %"struct.std::_Rb_tree_header"*, !llfi_index !580
  %8 = getelementptr inbounds %"struct.std::_Rb_tree_header", %"struct.std::_Rb_tree_header"* %7, i32 0, i32 0, !llfi_index !581
  %9 = getelementptr inbounds %"struct.std::_Rb_tree_node_base", %"struct.std::_Rb_tree_node_base"* %8, i32 0, i32 1, !llfi_index !582
  %10 = load %"struct.std::_Rb_tree_node_base"*, %"struct.std::_Rb_tree_node_base"** %9, align 8, !llfi_index !583
  %11 = bitcast %"struct.std::_Rb_tree_node_base"* %10 to %"struct.std::_Rb_tree_node"*, !llfi_index !584
  ret %"struct.std::_Rb_tree_node"* %11, !llfi_index !585
}

; Function Attrs: mustprogress noinline nounwind uwtable
define linkonce_odr dso_local %"struct.std::_Rb_tree_node_base"* @_ZNSt8_Rb_treeIiiSt9_IdentityIiESt4lessIiESaIiEE6_M_endEv(%"class.std::_Rb_tree"* nonnull align 8 dereferenceable(48) %0) #7 comdat align 2 {
  %2 = alloca %"class.std::_Rb_tree"*, align 8, !llfi_index !586
  store %"class.std::_Rb_tree"* %0, %"class.std::_Rb_tree"** %2, align 8, !llfi_index !587
  %3 = load %"class.std::_Rb_tree"*, %"class.std::_Rb_tree"** %2, align 8, !llfi_index !588
  %4 = getelementptr inbounds %"class.std::_Rb_tree", %"class.std::_Rb_tree"* %3, i32 0, i32 0, !llfi_index !589
  %5 = bitcast %"struct.std::_Rb_tree<int, int, std::_Identity<int>, std::less<int>>::_Rb_tree_impl"* %4 to i8*, !llfi_index !590
  %6 = getelementptr inbounds i8, i8* %5, i64 8, !llfi_index !591
  %7 = bitcast i8* %6 to %"struct.std::_Rb_tree_header"*, !llfi_index !592
  %8 = getelementptr inbounds %"struct.std::_Rb_tree_header", %"struct.std::_Rb_tree_header"* %7, i32 0, i32 0, !llfi_index !593
  ret %"struct.std::_Rb_tree_node_base"* %8, !llfi_index !594
}

; Function Attrs: mustprogress noinline uwtable
define linkonce_odr dso_local %"struct.std::_Rb_tree_node_base"* @_ZNSt8_Rb_treeIiiSt9_IdentityIiESt4lessIiESaIiEE14_M_lower_boundEPSt13_Rb_tree_nodeIiEPSt18_Rb_tree_node_baseRKi(%"class.std::_Rb_tree"* nonnull align 8 dereferenceable(48) %0, %"struct.std::_Rb_tree_node"* %1, %"struct.std::_Rb_tree_node_base"* %2, i32* nonnull align 4 dereferenceable(4) %3) #6 comdat align 2 {
  %5 = alloca %"struct.std::_Rb_tree_const_iterator", align 8, !llfi_index !595
  %6 = alloca %"class.std::_Rb_tree"*, align 8, !llfi_index !596
  %7 = alloca %"struct.std::_Rb_tree_node"*, align 8, !llfi_index !597
  %8 = alloca %"struct.std::_Rb_tree_node_base"*, align 8, !llfi_index !598
  %9 = alloca i32*, align 8, !llfi_index !599
  store %"class.std::_Rb_tree"* %0, %"class.std::_Rb_tree"** %6, align 8, !llfi_index !600
  store %"struct.std::_Rb_tree_node"* %1, %"struct.std::_Rb_tree_node"** %7, align 8, !llfi_index !601
  store %"struct.std::_Rb_tree_node_base"* %2, %"struct.std::_Rb_tree_node_base"** %8, align 8, !llfi_index !602
  store i32* %3, i32** %9, align 8, !llfi_index !603
  %10 = load %"class.std::_Rb_tree"*, %"class.std::_Rb_tree"** %6, align 8, !llfi_index !604
  br label %11, !llfi_index !605

11:                                               ; preds = %32, %4
  %12 = load %"struct.std::_Rb_tree_node"*, %"struct.std::_Rb_tree_node"** %7, align 8, !llfi_index !606
  %13 = icmp ne %"struct.std::_Rb_tree_node"* %12, null, !llfi_index !607
  br i1 %13, label %14, label %33, !llfi_index !608

14:                                               ; preds = %11
  %15 = getelementptr inbounds %"class.std::_Rb_tree", %"class.std::_Rb_tree"* %10, i32 0, i32 0, !llfi_index !609
  %16 = bitcast %"struct.std::_Rb_tree<int, int, std::_Identity<int>, std::less<int>>::_Rb_tree_impl"* %15 to %"struct.std::_Rb_tree_key_compare"*, !llfi_index !610
  %17 = getelementptr inbounds %"struct.std::_Rb_tree_key_compare", %"struct.std::_Rb_tree_key_compare"* %16, i32 0, i32 0, !llfi_index !611
  %18 = load %"struct.std::_Rb_tree_node"*, %"struct.std::_Rb_tree_node"** %7, align 8, !llfi_index !612
  %19 = call nonnull align 4 dereferenceable(4) i32* @_ZNSt8_Rb_treeIiiSt9_IdentityIiESt4lessIiESaIiEE6_S_keyEPKSt13_Rb_tree_nodeIiE(%"struct.std::_Rb_tree_node"* %18), !llfi_index !613
  %20 = load i32*, i32** %9, align 8, !llfi_index !614
  %21 = call zeroext i1 @_ZNKSt4lessIiEclERKiS2_(%"class.std::ios_base::Init"* nonnull align 1 dereferenceable(1) %17, i32* nonnull align 4 dereferenceable(4) %19, i32* nonnull align 4 dereferenceable(4) %20), !llfi_index !615
  br i1 %21, label %28, label %22, !llfi_index !616

22:                                               ; preds = %14
  %23 = load %"struct.std::_Rb_tree_node"*, %"struct.std::_Rb_tree_node"** %7, align 8, !llfi_index !617
  %24 = bitcast %"struct.std::_Rb_tree_node"* %23 to %"struct.std::_Rb_tree_node_base"*, !llfi_index !618
  store %"struct.std::_Rb_tree_node_base"* %24, %"struct.std::_Rb_tree_node_base"** %8, align 8, !llfi_index !619
  %25 = load %"struct.std::_Rb_tree_node"*, %"struct.std::_Rb_tree_node"** %7, align 8, !llfi_index !620
  %26 = bitcast %"struct.std::_Rb_tree_node"* %25 to %"struct.std::_Rb_tree_node_base"*, !llfi_index !621
  %27 = call %"struct.std::_Rb_tree_node"* @_ZNSt8_Rb_treeIiiSt9_IdentityIiESt4lessIiESaIiEE7_S_leftEPSt18_Rb_tree_node_base(%"struct.std::_Rb_tree_node_base"* %26) #2, !llfi_index !622
  store %"struct.std::_Rb_tree_node"* %27, %"struct.std::_Rb_tree_node"** %7, align 8, !llfi_index !623
  br label %32, !llfi_index !624

28:                                               ; preds = %14
  %29 = load %"struct.std::_Rb_tree_node"*, %"struct.std::_Rb_tree_node"** %7, align 8, !llfi_index !625
  %30 = bitcast %"struct.std::_Rb_tree_node"* %29 to %"struct.std::_Rb_tree_node_base"*, !llfi_index !626
  %31 = call %"struct.std::_Rb_tree_node"* @_ZNSt8_Rb_treeIiiSt9_IdentityIiESt4lessIiESaIiEE8_S_rightEPSt18_Rb_tree_node_base(%"struct.std::_Rb_tree_node_base"* %30) #2, !llfi_index !627
  store %"struct.std::_Rb_tree_node"* %31, %"struct.std::_Rb_tree_node"** %7, align 8, !llfi_index !628
  br label %32, !llfi_index !629

32:                                               ; preds = %28, %22
  br label %11, !llvm.loop !630, !llfi_index !631

33:                                               ; preds = %11
  %34 = load %"struct.std::_Rb_tree_node_base"*, %"struct.std::_Rb_tree_node_base"** %8, align 8, !llfi_index !632
  call void @_ZNSt17_Rb_tree_iteratorIiEC2EPSt18_Rb_tree_node_base(%"struct.std::_Rb_tree_const_iterator"* nonnull align 8 dereferenceable(8) %5, %"struct.std::_Rb_tree_node_base"* %34) #2, !llfi_index !633
  %35 = getelementptr inbounds %"struct.std::_Rb_tree_const_iterator", %"struct.std::_Rb_tree_const_iterator"* %5, i32 0, i32 0, !llfi_index !634
  %36 = load %"struct.std::_Rb_tree_node_base"*, %"struct.std::_Rb_tree_node_base"** %35, align 8, !llfi_index !635
  ret %"struct.std::_Rb_tree_node_base"* %36, !llfi_index !636
}

; Function Attrs: mustprogress noinline nounwind uwtable
define linkonce_odr dso_local %"struct.std::_Rb_tree_node_base"* @_ZNSt8_Rb_treeIiiSt9_IdentityIiESt4lessIiESaIiEE3endEv(%"class.std::_Rb_tree"* nonnull align 8 dereferenceable(48) %0) #7 comdat align 2 {
  %2 = alloca %"struct.std::_Rb_tree_const_iterator", align 8, !llfi_index !637
  %3 = alloca %"class.std::_Rb_tree"*, align 8, !llfi_index !638
  store %"class.std::_Rb_tree"* %0, %"class.std::_Rb_tree"** %3, align 8, !llfi_index !639
  %4 = load %"class.std::_Rb_tree"*, %"class.std::_Rb_tree"** %3, align 8, !llfi_index !640
  %5 = getelementptr inbounds %"class.std::_Rb_tree", %"class.std::_Rb_tree"* %4, i32 0, i32 0, !llfi_index !641
  %6 = bitcast %"struct.std::_Rb_tree<int, int, std::_Identity<int>, std::less<int>>::_Rb_tree_impl"* %5 to i8*, !llfi_index !642
  %7 = getelementptr inbounds i8, i8* %6, i64 8, !llfi_index !643
  %8 = bitcast i8* %7 to %"struct.std::_Rb_tree_header"*, !llfi_index !644
  %9 = getelementptr inbounds %"struct.std::_Rb_tree_header", %"struct.std::_Rb_tree_header"* %8, i32 0, i32 0, !llfi_index !645
  call void @_ZNSt17_Rb_tree_iteratorIiEC2EPSt18_Rb_tree_node_base(%"struct.std::_Rb_tree_const_iterator"* nonnull align 8 dereferenceable(8) %2, %"struct.std::_Rb_tree_node_base"* %9) #2, !llfi_index !646
  %10 = getelementptr inbounds %"struct.std::_Rb_tree_const_iterator", %"struct.std::_Rb_tree_const_iterator"* %2, i32 0, i32 0, !llfi_index !647
  %11 = load %"struct.std::_Rb_tree_node_base"*, %"struct.std::_Rb_tree_node_base"** %10, align 8, !llfi_index !648
  ret %"struct.std::_Rb_tree_node_base"* %11, !llfi_index !649
}

; Function Attrs: mustprogress noinline nounwind uwtable
define linkonce_odr dso_local zeroext i1 @_ZSteqRKSt17_Rb_tree_iteratorIiES2_(%"struct.std::_Rb_tree_const_iterator"* nonnull align 8 dereferenceable(8) %0, %"struct.std::_Rb_tree_const_iterator"* nonnull align 8 dereferenceable(8) %1) #7 comdat {
  %3 = alloca %"struct.std::_Rb_tree_const_iterator"*, align 8, !llfi_index !650
  %4 = alloca %"struct.std::_Rb_tree_const_iterator"*, align 8, !llfi_index !651
  store %"struct.std::_Rb_tree_const_iterator"* %0, %"struct.std::_Rb_tree_const_iterator"** %3, align 8, !llfi_index !652
  store %"struct.std::_Rb_tree_const_iterator"* %1, %"struct.std::_Rb_tree_const_iterator"** %4, align 8, !llfi_index !653
  %5 = load %"struct.std::_Rb_tree_const_iterator"*, %"struct.std::_Rb_tree_const_iterator"** %3, align 8, !llfi_index !654
  %6 = getelementptr inbounds %"struct.std::_Rb_tree_const_iterator", %"struct.std::_Rb_tree_const_iterator"* %5, i32 0, i32 0, !llfi_index !655
  %7 = load %"struct.std::_Rb_tree_node_base"*, %"struct.std::_Rb_tree_node_base"** %6, align 8, !llfi_index !656
  %8 = load %"struct.std::_Rb_tree_const_iterator"*, %"struct.std::_Rb_tree_const_iterator"** %4, align 8, !llfi_index !657
  %9 = getelementptr inbounds %"struct.std::_Rb_tree_const_iterator", %"struct.std::_Rb_tree_const_iterator"* %8, i32 0, i32 0, !llfi_index !658
  %10 = load %"struct.std::_Rb_tree_node_base"*, %"struct.std::_Rb_tree_node_base"** %9, align 8, !llfi_index !659
  %11 = icmp eq %"struct.std::_Rb_tree_node_base"* %7, %10, !llfi_index !660
  ret i1 %11, !llfi_index !661
}

; Function Attrs: mustprogress noinline uwtable
define linkonce_odr dso_local nonnull align 4 dereferenceable(4) i32* @_ZNSt8_Rb_treeIiiSt9_IdentityIiESt4lessIiESaIiEE6_S_keyEPKSt18_Rb_tree_node_base(%"struct.std::_Rb_tree_node_base"* %0) #6 comdat align 2 {
  %2 = alloca %"struct.std::_Rb_tree_node_base"*, align 8, !llfi_index !662
  store %"struct.std::_Rb_tree_node_base"* %0, %"struct.std::_Rb_tree_node_base"** %2, align 8, !llfi_index !663
  %3 = load %"struct.std::_Rb_tree_node_base"*, %"struct.std::_Rb_tree_node_base"** %2, align 8, !llfi_index !664
  %4 = bitcast %"struct.std::_Rb_tree_node_base"* %3 to %"struct.std::_Rb_tree_node"*, !llfi_index !665
  %5 = call nonnull align 4 dereferenceable(4) i32* @_ZNSt8_Rb_treeIiiSt9_IdentityIiESt4lessIiESaIiEE6_S_keyEPKSt13_Rb_tree_nodeIiE(%"struct.std::_Rb_tree_node"* %4), !llfi_index !666
  ret i32* %5, !llfi_index !667
}

; Function Attrs: mustprogress noinline nounwind uwtable
define linkonce_odr dso_local zeroext i1 @_ZNKSt4lessIiEclERKiS2_(%"class.std::ios_base::Init"* nonnull align 1 dereferenceable(1) %0, i32* nonnull align 4 dereferenceable(4) %1, i32* nonnull align 4 dereferenceable(4) %2) #7 comdat align 2 {
  %4 = alloca %"class.std::ios_base::Init"*, align 8, !llfi_index !668
  %5 = alloca i32*, align 8, !llfi_index !669
  %6 = alloca i32*, align 8, !llfi_index !670
  store %"class.std::ios_base::Init"* %0, %"class.std::ios_base::Init"** %4, align 8, !llfi_index !671
  store i32* %1, i32** %5, align 8, !llfi_index !672
  store i32* %2, i32** %6, align 8, !llfi_index !673
  %7 = load %"class.std::ios_base::Init"*, %"class.std::ios_base::Init"** %4, align 8, !llfi_index !674
  %8 = load i32*, i32** %5, align 8, !llfi_index !675
  %9 = load i32, i32* %8, align 4, !llfi_index !676
  %10 = load i32*, i32** %6, align 8, !llfi_index !677
  %11 = load i32, i32* %10, align 4, !llfi_index !678
  %12 = icmp slt i32 %9, %11, !llfi_index !679
  ret i1 %12, !llfi_index !680
}

; Function Attrs: argmemonly nofree nounwind willreturn
declare void @llvm.memcpy.p0i8.p0i8.i64(i8* noalias nocapture writeonly, i8* noalias nocapture readonly, i64, i1 immarg) #8

; Function Attrs: mustprogress noinline uwtable
define linkonce_odr dso_local nonnull align 4 dereferenceable(4) i32* @_ZNSt8_Rb_treeIiiSt9_IdentityIiESt4lessIiESaIiEE6_S_keyEPKSt13_Rb_tree_nodeIiE(%"struct.std::_Rb_tree_node"* %0) #6 comdat align 2 {
  %2 = alloca %"struct.std::_Rb_tree_node"*, align 8, !llfi_index !681
  %3 = alloca %"class.std::ios_base::Init", align 1, !llfi_index !682
  store %"struct.std::_Rb_tree_node"* %0, %"struct.std::_Rb_tree_node"** %2, align 8, !llfi_index !683
  %4 = load %"struct.std::_Rb_tree_node"*, %"struct.std::_Rb_tree_node"** %2, align 8, !llfi_index !684
  %5 = call i32* @_ZNKSt13_Rb_tree_nodeIiE9_M_valptrEv(%"struct.std::_Rb_tree_node"* nonnull align 8 dereferenceable(36) %4), !llfi_index !685
  %6 = call nonnull align 4 dereferenceable(4) i32* @_ZNKSt9_IdentityIiEclERKi(%"class.std::ios_base::Init"* nonnull align 1 dereferenceable(1) %3, i32* nonnull align 4 dereferenceable(4) %5), !llfi_index !686
  ret i32* %6, !llfi_index !687
}

; Function Attrs: mustprogress noinline nounwind uwtable
define linkonce_odr dso_local i32* @_ZNKSt13_Rb_tree_nodeIiE9_M_valptrEv(%"struct.std::_Rb_tree_node"* nonnull align 8 dereferenceable(36) %0) #7 comdat align 2 {
  %2 = alloca %"struct.std::_Rb_tree_node"*, align 8, !llfi_index !688
  store %"struct.std::_Rb_tree_node"* %0, %"struct.std::_Rb_tree_node"** %2, align 8, !llfi_index !689
  %3 = load %"struct.std::_Rb_tree_node"*, %"struct.std::_Rb_tree_node"** %2, align 8, !llfi_index !690
  %4 = getelementptr inbounds %"struct.std::_Rb_tree_node", %"struct.std::_Rb_tree_node"* %3, i32 0, i32 1, !llfi_index !691
  %5 = call i32* @_ZNK9__gnu_cxx16__aligned_membufIiE6_M_ptrEv(%"struct.__gnu_cxx::__aligned_membuf"* nonnull align 4 dereferenceable(4) %4) #2, !llfi_index !692
  ret i32* %5, !llfi_index !693
}

; Function Attrs: mustprogress noinline nounwind uwtable
define linkonce_odr dso_local nonnull align 4 dereferenceable(4) i32* @_ZNKSt9_IdentityIiEclERKi(%"class.std::ios_base::Init"* nonnull align 1 dereferenceable(1) %0, i32* nonnull align 4 dereferenceable(4) %1) #7 comdat align 2 {
  %3 = alloca %"class.std::ios_base::Init"*, align 8, !llfi_index !694
  %4 = alloca i32*, align 8, !llfi_index !695
  store %"class.std::ios_base::Init"* %0, %"class.std::ios_base::Init"** %3, align 8, !llfi_index !696
  store i32* %1, i32** %4, align 8, !llfi_index !697
  %5 = load %"class.std::ios_base::Init"*, %"class.std::ios_base::Init"** %3, align 8, !llfi_index !698
  %6 = load i32*, i32** %4, align 8, !llfi_index !699
  ret i32* %6, !llfi_index !700
}

; Function Attrs: mustprogress noinline nounwind uwtable
define linkonce_odr dso_local i32* @_ZNK9__gnu_cxx16__aligned_membufIiE6_M_ptrEv(%"struct.__gnu_cxx::__aligned_membuf"* nonnull align 4 dereferenceable(4) %0) #7 comdat align 2 {
  %2 = alloca %"struct.__gnu_cxx::__aligned_membuf"*, align 8, !llfi_index !701
  store %"struct.__gnu_cxx::__aligned_membuf"* %0, %"struct.__gnu_cxx::__aligned_membuf"** %2, align 8, !llfi_index !702
  %3 = load %"struct.__gnu_cxx::__aligned_membuf"*, %"struct.__gnu_cxx::__aligned_membuf"** %2, align 8, !llfi_index !703
  %4 = call i8* @_ZNK9__gnu_cxx16__aligned_membufIiE7_M_addrEv(%"struct.__gnu_cxx::__aligned_membuf"* nonnull align 4 dereferenceable(4) %3) #2, !llfi_index !704
  %5 = bitcast i8* %4 to i32*, !llfi_index !705
  ret i32* %5, !llfi_index !706
}

; Function Attrs: mustprogress noinline nounwind uwtable
define linkonce_odr dso_local i8* @_ZNK9__gnu_cxx16__aligned_membufIiE7_M_addrEv(%"struct.__gnu_cxx::__aligned_membuf"* nonnull align 4 dereferenceable(4) %0) #7 comdat align 2 {
  %2 = alloca %"struct.__gnu_cxx::__aligned_membuf"*, align 8, !llfi_index !707
  store %"struct.__gnu_cxx::__aligned_membuf"* %0, %"struct.__gnu_cxx::__aligned_membuf"** %2, align 8, !llfi_index !708
  %3 = load %"struct.__gnu_cxx::__aligned_membuf"*, %"struct.__gnu_cxx::__aligned_membuf"** %2, align 8, !llfi_index !709
  %4 = getelementptr inbounds %"struct.__gnu_cxx::__aligned_membuf", %"struct.__gnu_cxx::__aligned_membuf"* %3, i32 0, i32 0, !llfi_index !710
  %5 = bitcast [4 x i8]* %4 to i8*, !llfi_index !711
  ret i8* %5, !llfi_index !712
}

; Function Attrs: noinline nounwind uwtable
define linkonce_odr dso_local void @_ZNSt17_Rb_tree_iteratorIiEC2EPSt18_Rb_tree_node_base(%"struct.std::_Rb_tree_const_iterator"* nonnull align 8 dereferenceable(8) %0, %"struct.std::_Rb_tree_node_base"* %1) unnamed_addr #5 comdat align 2 {
  %3 = alloca %"struct.std::_Rb_tree_const_iterator"*, align 8, !llfi_index !713
  %4 = alloca %"struct.std::_Rb_tree_node_base"*, align 8, !llfi_index !714
  store %"struct.std::_Rb_tree_const_iterator"* %0, %"struct.std::_Rb_tree_const_iterator"** %3, align 8, !llfi_index !715
  store %"struct.std::_Rb_tree_node_base"* %1, %"struct.std::_Rb_tree_node_base"** %4, align 8, !llfi_index !716
  %5 = load %"struct.std::_Rb_tree_const_iterator"*, %"struct.std::_Rb_tree_const_iterator"** %3, align 8, !llfi_index !717
  %6 = getelementptr inbounds %"struct.std::_Rb_tree_const_iterator", %"struct.std::_Rb_tree_const_iterator"* %5, i32 0, i32 0, !llfi_index !718
  %7 = load %"struct.std::_Rb_tree_node_base"*, %"struct.std::_Rb_tree_node_base"** %4, align 8, !llfi_index !719
  store %"struct.std::_Rb_tree_node_base"* %7, %"struct.std::_Rb_tree_node_base"** %6, align 8, !llfi_index !720
  ret void, !llfi_index !721
}

; Function Attrs: mustprogress noinline nounwind uwtable
define linkonce_odr dso_local %"struct.std::_Rb_tree_node"* @_ZNSt8_Rb_treeIiiSt9_IdentityIiESt4lessIiESaIiEE7_S_leftEPSt18_Rb_tree_node_base(%"struct.std::_Rb_tree_node_base"* %0) #7 comdat align 2 {
  %2 = alloca %"struct.std::_Rb_tree_node_base"*, align 8, !llfi_index !722
  store %"struct.std::_Rb_tree_node_base"* %0, %"struct.std::_Rb_tree_node_base"** %2, align 8, !llfi_index !723
  %3 = load %"struct.std::_Rb_tree_node_base"*, %"struct.std::_Rb_tree_node_base"** %2, align 8, !llfi_index !724
  %4 = getelementptr inbounds %"struct.std::_Rb_tree_node_base", %"struct.std::_Rb_tree_node_base"* %3, i32 0, i32 2, !llfi_index !725
  %5 = load %"struct.std::_Rb_tree_node_base"*, %"struct.std::_Rb_tree_node_base"** %4, align 8, !llfi_index !726
  %6 = bitcast %"struct.std::_Rb_tree_node_base"* %5 to %"struct.std::_Rb_tree_node"*, !llfi_index !727
  ret %"struct.std::_Rb_tree_node"* %6, !llfi_index !728
}

; Function Attrs: mustprogress noinline nounwind uwtable
define linkonce_odr dso_local %"struct.std::_Rb_tree_node"* @_ZNSt8_Rb_treeIiiSt9_IdentityIiESt4lessIiESaIiEE8_S_rightEPSt18_Rb_tree_node_base(%"struct.std::_Rb_tree_node_base"* %0) #7 comdat align 2 {
  %2 = alloca %"struct.std::_Rb_tree_node_base"*, align 8, !llfi_index !729
  store %"struct.std::_Rb_tree_node_base"* %0, %"struct.std::_Rb_tree_node_base"** %2, align 8, !llfi_index !730
  %3 = load %"struct.std::_Rb_tree_node_base"*, %"struct.std::_Rb_tree_node_base"** %2, align 8, !llfi_index !731
  %4 = getelementptr inbounds %"struct.std::_Rb_tree_node_base", %"struct.std::_Rb_tree_node_base"* %3, i32 0, i32 3, !llfi_index !732
  %5 = load %"struct.std::_Rb_tree_node_base"*, %"struct.std::_Rb_tree_node_base"** %4, align 8, !llfi_index !733
  %6 = bitcast %"struct.std::_Rb_tree_node_base"* %5 to %"struct.std::_Rb_tree_node"*, !llfi_index !734
  ret %"struct.std::_Rb_tree_node"* %6, !llfi_index !735
}

; Function Attrs: noinline nounwind uwtable
define linkonce_odr dso_local void @_ZNSt8_Rb_treeIiiSt9_IdentityIiESt4lessIiESaIiEED2Ev(%"class.std::_Rb_tree"* nonnull align 8 dereferenceable(48) %0) unnamed_addr #5 comdat align 2 personality i8* bitcast (i32 (...)* @__gxx_personality_v0 to i8*) {
  %2 = alloca %"class.std::_Rb_tree"*, align 8, !llfi_index !736
  %3 = alloca i8*, align 8, !llfi_index !737
  %4 = alloca i32, align 4, !llfi_index !738
  store %"class.std::_Rb_tree"* %0, %"class.std::_Rb_tree"** %2, align 8, !llfi_index !739
  %5 = load %"class.std::_Rb_tree"*, %"class.std::_Rb_tree"** %2, align 8, !llfi_index !740
  %6 = call %"struct.std::_Rb_tree_node"* @_ZNSt8_Rb_treeIiiSt9_IdentityIiESt4lessIiESaIiEE8_M_beginEv(%"class.std::_Rb_tree"* nonnull align 8 dereferenceable(48) %5) #2, !llfi_index !741
  invoke void @_ZNSt8_Rb_treeIiiSt9_IdentityIiESt4lessIiESaIiEE8_M_eraseEPSt13_Rb_tree_nodeIiE(%"class.std::_Rb_tree"* nonnull align 8 dereferenceable(48) %5, %"struct.std::_Rb_tree_node"* %6)
          to label %7 unwind label %9, !llfi_index !742

7:                                                ; preds = %1
  %8 = getelementptr inbounds %"class.std::_Rb_tree", %"class.std::_Rb_tree"* %5, i32 0, i32 0, !llfi_index !743
  call void @_ZNSt8_Rb_treeIiiSt9_IdentityIiESt4lessIiESaIiEE13_Rb_tree_implIS3_Lb1EED2Ev(%"struct.std::_Rb_tree<int, int, std::_Identity<int>, std::less<int>>::_Rb_tree_impl"* nonnull align 8 dereferenceable(48) %8) #2, !llfi_index !744
  ret void, !llfi_index !745

9:                                                ; preds = %1
  %10 = landingpad { i8*, i32 }
          catch i8* null, !llfi_index !746
  %11 = extractvalue { i8*, i32 } %10, 0, !llfi_index !747
  store i8* %11, i8** %3, align 8, !llfi_index !748
  %12 = extractvalue { i8*, i32 } %10, 1, !llfi_index !749
  store i32 %12, i32* %4, align 4, !llfi_index !750
  %13 = getelementptr inbounds %"class.std::_Rb_tree", %"class.std::_Rb_tree"* %5, i32 0, i32 0, !llfi_index !751
  call void @_ZNSt8_Rb_treeIiiSt9_IdentityIiESt4lessIiESaIiEE13_Rb_tree_implIS3_Lb1EED2Ev(%"struct.std::_Rb_tree<int, int, std::_Identity<int>, std::less<int>>::_Rb_tree_impl"* nonnull align 8 dereferenceable(48) %13) #2, !llfi_index !752
  br label %14, !llfi_index !753

14:                                               ; preds = %9
  %15 = load i8*, i8** %3, align 8, !llfi_index !754
  call void @__clang_call_terminate(i8* %15) #14, !llfi_index !755
  unreachable, !llfi_index !756
}

; Function Attrs: mustprogress noinline uwtable
define linkonce_odr dso_local void @_ZNSt8_Rb_treeIiiSt9_IdentityIiESt4lessIiESaIiEE8_M_eraseEPSt13_Rb_tree_nodeIiE(%"class.std::_Rb_tree"* nonnull align 8 dereferenceable(48) %0, %"struct.std::_Rb_tree_node"* %1) #6 comdat align 2 {
  %3 = alloca %"class.std::_Rb_tree"*, align 8, !llfi_index !757
  %4 = alloca %"struct.std::_Rb_tree_node"*, align 8, !llfi_index !758
  %5 = alloca %"struct.std::_Rb_tree_node"*, align 8, !llfi_index !759
  store %"class.std::_Rb_tree"* %0, %"class.std::_Rb_tree"** %3, align 8, !llfi_index !760
  store %"struct.std::_Rb_tree_node"* %1, %"struct.std::_Rb_tree_node"** %4, align 8, !llfi_index !761
  %6 = load %"class.std::_Rb_tree"*, %"class.std::_Rb_tree"** %3, align 8, !llfi_index !762
  br label %7, !llfi_index !763

7:                                                ; preds = %10, %2
  %8 = load %"struct.std::_Rb_tree_node"*, %"struct.std::_Rb_tree_node"** %4, align 8, !llfi_index !764
  %9 = icmp ne %"struct.std::_Rb_tree_node"* %8, null, !llfi_index !765
  br i1 %9, label %10, label %19, !llfi_index !766

10:                                               ; preds = %7
  %11 = load %"struct.std::_Rb_tree_node"*, %"struct.std::_Rb_tree_node"** %4, align 8, !llfi_index !767
  %12 = bitcast %"struct.std::_Rb_tree_node"* %11 to %"struct.std::_Rb_tree_node_base"*, !llfi_index !768
  %13 = call %"struct.std::_Rb_tree_node"* @_ZNSt8_Rb_treeIiiSt9_IdentityIiESt4lessIiESaIiEE8_S_rightEPSt18_Rb_tree_node_base(%"struct.std::_Rb_tree_node_base"* %12) #2, !llfi_index !769
  call void @_ZNSt8_Rb_treeIiiSt9_IdentityIiESt4lessIiESaIiEE8_M_eraseEPSt13_Rb_tree_nodeIiE(%"class.std::_Rb_tree"* nonnull align 8 dereferenceable(48) %6, %"struct.std::_Rb_tree_node"* %13), !llfi_index !770
  %14 = load %"struct.std::_Rb_tree_node"*, %"struct.std::_Rb_tree_node"** %4, align 8, !llfi_index !771
  %15 = bitcast %"struct.std::_Rb_tree_node"* %14 to %"struct.std::_Rb_tree_node_base"*, !llfi_index !772
  %16 = call %"struct.std::_Rb_tree_node"* @_ZNSt8_Rb_treeIiiSt9_IdentityIiESt4lessIiESaIiEE7_S_leftEPSt18_Rb_tree_node_base(%"struct.std::_Rb_tree_node_base"* %15) #2, !llfi_index !773
  store %"struct.std::_Rb_tree_node"* %16, %"struct.std::_Rb_tree_node"** %5, align 8, !llfi_index !774
  %17 = load %"struct.std::_Rb_tree_node"*, %"struct.std::_Rb_tree_node"** %4, align 8, !llfi_index !775
  call void @_ZNSt8_Rb_treeIiiSt9_IdentityIiESt4lessIiESaIiEE12_M_drop_nodeEPSt13_Rb_tree_nodeIiE(%"class.std::_Rb_tree"* nonnull align 8 dereferenceable(48) %6, %"struct.std::_Rb_tree_node"* %17) #2, !llfi_index !776
  %18 = load %"struct.std::_Rb_tree_node"*, %"struct.std::_Rb_tree_node"** %5, align 8, !llfi_index !777
  store %"struct.std::_Rb_tree_node"* %18, %"struct.std::_Rb_tree_node"** %4, align 8, !llfi_index !778
  br label %7, !llvm.loop !779, !llfi_index !780

19:                                               ; preds = %7
  ret void, !llfi_index !781
}

; Function Attrs: noinline nounwind uwtable
define linkonce_odr dso_local void @_ZNSt8_Rb_treeIiiSt9_IdentityIiESt4lessIiESaIiEE13_Rb_tree_implIS3_Lb1EED2Ev(%"struct.std::_Rb_tree<int, int, std::_Identity<int>, std::less<int>>::_Rb_tree_impl"* nonnull align 8 dereferenceable(48) %0) unnamed_addr #5 comdat align 2 {
  %2 = alloca %"struct.std::_Rb_tree<int, int, std::_Identity<int>, std::less<int>>::_Rb_tree_impl"*, align 8, !llfi_index !782
  store %"struct.std::_Rb_tree<int, int, std::_Identity<int>, std::less<int>>::_Rb_tree_impl"* %0, %"struct.std::_Rb_tree<int, int, std::_Identity<int>, std::less<int>>::_Rb_tree_impl"** %2, align 8, !llfi_index !783
  %3 = load %"struct.std::_Rb_tree<int, int, std::_Identity<int>, std::less<int>>::_Rb_tree_impl"*, %"struct.std::_Rb_tree<int, int, std::_Identity<int>, std::less<int>>::_Rb_tree_impl"** %2, align 8, !llfi_index !784
  %4 = bitcast %"struct.std::_Rb_tree<int, int, std::_Identity<int>, std::less<int>>::_Rb_tree_impl"* %3 to %"class.std::ios_base::Init"*, !llfi_index !785
  call void @_ZNSaISt13_Rb_tree_nodeIiEED2Ev(%"class.std::ios_base::Init"* nonnull align 1 dereferenceable(1) %4) #2, !llfi_index !786
  ret void, !llfi_index !787
}

; Function Attrs: noinline noreturn nounwind
define linkonce_odr hidden void @__clang_call_terminate(i8* %0) #9 comdat {
  %2 = call i8* @__cxa_begin_catch(i8* %0) #2, !llfi_index !788
  call void @_ZSt9terminatev() #14, !llfi_index !789
  unreachable, !llfi_index !790
}

declare dso_local i8* @__cxa_begin_catch(i8*)

declare dso_local void @_ZSt9terminatev()

; Function Attrs: noinline nounwind uwtable
define linkonce_odr dso_local void @_ZNSaISt13_Rb_tree_nodeIiEED2Ev(%"class.std::ios_base::Init"* nonnull align 1 dereferenceable(1) %0) unnamed_addr #5 comdat align 2 {
  %2 = alloca %"class.std::ios_base::Init"*, align 8, !llfi_index !791
  store %"class.std::ios_base::Init"* %0, %"class.std::ios_base::Init"** %2, align 8, !llfi_index !792
  %3 = load %"class.std::ios_base::Init"*, %"class.std::ios_base::Init"** %2, align 8, !llfi_index !793
  %4 = bitcast %"class.std::ios_base::Init"* %3 to %"class.std::ios_base::Init"*, !llfi_index !794
  call void @_ZN9__gnu_cxx13new_allocatorISt13_Rb_tree_nodeIiEED2Ev(%"class.std::ios_base::Init"* nonnull align 1 dereferenceable(1) %4) #2, !llfi_index !795
  ret void, !llfi_index !796
}

; Function Attrs: noinline nounwind uwtable
define linkonce_odr dso_local void @_ZN9__gnu_cxx13new_allocatorISt13_Rb_tree_nodeIiEED2Ev(%"class.std::ios_base::Init"* nonnull align 1 dereferenceable(1) %0) unnamed_addr #5 comdat align 2 {
  %2 = alloca %"class.std::ios_base::Init"*, align 8, !llfi_index !797
  store %"class.std::ios_base::Init"* %0, %"class.std::ios_base::Init"** %2, align 8, !llfi_index !798
  %3 = load %"class.std::ios_base::Init"*, %"class.std::ios_base::Init"** %2, align 8, !llfi_index !799
  ret void, !llfi_index !800
}

; Function Attrs: mustprogress noinline nounwind uwtable
define linkonce_odr dso_local void @_ZNSt8_Rb_treeIiiSt9_IdentityIiESt4lessIiESaIiEE12_M_drop_nodeEPSt13_Rb_tree_nodeIiE(%"class.std::_Rb_tree"* nonnull align 8 dereferenceable(48) %0, %"struct.std::_Rb_tree_node"* %1) #7 comdat align 2 {
  %3 = alloca %"class.std::_Rb_tree"*, align 8, !llfi_index !801
  %4 = alloca %"struct.std::_Rb_tree_node"*, align 8, !llfi_index !802
  store %"class.std::_Rb_tree"* %0, %"class.std::_Rb_tree"** %3, align 8, !llfi_index !803
  store %"struct.std::_Rb_tree_node"* %1, %"struct.std::_Rb_tree_node"** %4, align 8, !llfi_index !804
  %5 = load %"class.std::_Rb_tree"*, %"class.std::_Rb_tree"** %3, align 8, !llfi_index !805
  %6 = load %"struct.std::_Rb_tree_node"*, %"struct.std::_Rb_tree_node"** %4, align 8, !llfi_index !806
  call void @_ZNSt8_Rb_treeIiiSt9_IdentityIiESt4lessIiESaIiEE15_M_destroy_nodeEPSt13_Rb_tree_nodeIiE(%"class.std::_Rb_tree"* nonnull align 8 dereferenceable(48) %5, %"struct.std::_Rb_tree_node"* %6) #2, !llfi_index !807
  %7 = load %"struct.std::_Rb_tree_node"*, %"struct.std::_Rb_tree_node"** %4, align 8, !llfi_index !808
  call void @_ZNSt8_Rb_treeIiiSt9_IdentityIiESt4lessIiESaIiEE11_M_put_nodeEPSt13_Rb_tree_nodeIiE(%"class.std::_Rb_tree"* nonnull align 8 dereferenceable(48) %5, %"struct.std::_Rb_tree_node"* %7) #2, !llfi_index !809
  ret void, !llfi_index !810
}

; Function Attrs: mustprogress noinline nounwind uwtable
define linkonce_odr dso_local void @_ZNSt8_Rb_treeIiiSt9_IdentityIiESt4lessIiESaIiEE15_M_destroy_nodeEPSt13_Rb_tree_nodeIiE(%"class.std::_Rb_tree"* nonnull align 8 dereferenceable(48) %0, %"struct.std::_Rb_tree_node"* %1) #7 comdat align 2 personality i8* bitcast (i32 (...)* @__gxx_personality_v0 to i8*) {
  %3 = alloca %"class.std::_Rb_tree"*, align 8, !llfi_index !811
  %4 = alloca %"struct.std::_Rb_tree_node"*, align 8, !llfi_index !812
  store %"class.std::_Rb_tree"* %0, %"class.std::_Rb_tree"** %3, align 8, !llfi_index !813
  store %"struct.std::_Rb_tree_node"* %1, %"struct.std::_Rb_tree_node"** %4, align 8, !llfi_index !814
  %5 = load %"class.std::_Rb_tree"*, %"class.std::_Rb_tree"** %3, align 8, !llfi_index !815
  %6 = call nonnull align 1 dereferenceable(1) %"class.std::ios_base::Init"* @_ZNSt8_Rb_treeIiiSt9_IdentityIiESt4lessIiESaIiEE21_M_get_Node_allocatorEv(%"class.std::_Rb_tree"* nonnull align 8 dereferenceable(48) %5) #2, !llfi_index !816
  %7 = load %"struct.std::_Rb_tree_node"*, %"struct.std::_Rb_tree_node"** %4, align 8, !llfi_index !817
  %8 = invoke i32* @_ZNSt13_Rb_tree_nodeIiE9_M_valptrEv(%"struct.std::_Rb_tree_node"* nonnull align 8 dereferenceable(36) %7)
          to label %9 unwind label %11, !llfi_index !818

9:                                                ; preds = %2
  call void @_ZNSt16allocator_traitsISaISt13_Rb_tree_nodeIiEEE7destroyIiEEvRS2_PT_(%"class.std::ios_base::Init"* nonnull align 1 dereferenceable(1) %6, i32* %8) #2, !llfi_index !819
  %10 = load %"struct.std::_Rb_tree_node"*, %"struct.std::_Rb_tree_node"** %4, align 8, !llfi_index !820
  ret void, !llfi_index !821

11:                                               ; preds = %2
  %12 = landingpad { i8*, i32 }
          catch i8* null, !llfi_index !822
  %13 = extractvalue { i8*, i32 } %12, 0, !llfi_index !823
  call void @__clang_call_terminate(i8* %13) #14, !llfi_index !824
  unreachable, !llfi_index !825
}

; Function Attrs: mustprogress noinline nounwind uwtable
define linkonce_odr dso_local void @_ZNSt8_Rb_treeIiiSt9_IdentityIiESt4lessIiESaIiEE11_M_put_nodeEPSt13_Rb_tree_nodeIiE(%"class.std::_Rb_tree"* nonnull align 8 dereferenceable(48) %0, %"struct.std::_Rb_tree_node"* %1) #7 comdat align 2 personality i8* bitcast (i32 (...)* @__gxx_personality_v0 to i8*) {
  %3 = alloca %"class.std::_Rb_tree"*, align 8, !llfi_index !826
  %4 = alloca %"struct.std::_Rb_tree_node"*, align 8, !llfi_index !827
  store %"class.std::_Rb_tree"* %0, %"class.std::_Rb_tree"** %3, align 8, !llfi_index !828
  store %"struct.std::_Rb_tree_node"* %1, %"struct.std::_Rb_tree_node"** %4, align 8, !llfi_index !829
  %5 = load %"class.std::_Rb_tree"*, %"class.std::_Rb_tree"** %3, align 8, !llfi_index !830
  %6 = call nonnull align 1 dereferenceable(1) %"class.std::ios_base::Init"* @_ZNSt8_Rb_treeIiiSt9_IdentityIiESt4lessIiESaIiEE21_M_get_Node_allocatorEv(%"class.std::_Rb_tree"* nonnull align 8 dereferenceable(48) %5) #2, !llfi_index !831
  %7 = load %"struct.std::_Rb_tree_node"*, %"struct.std::_Rb_tree_node"** %4, align 8, !llfi_index !832
  invoke void @_ZNSt16allocator_traitsISaISt13_Rb_tree_nodeIiEEE10deallocateERS2_PS1_m(%"class.std::ios_base::Init"* nonnull align 1 dereferenceable(1) %6, %"struct.std::_Rb_tree_node"* %7, i64 1)
          to label %8 unwind label %9, !llfi_index !833

8:                                                ; preds = %2
  ret void, !llfi_index !834

9:                                                ; preds = %2
  %10 = landingpad { i8*, i32 }
          catch i8* null, !llfi_index !835
  %11 = extractvalue { i8*, i32 } %10, 0, !llfi_index !836
  call void @__clang_call_terminate(i8* %11) #14, !llfi_index !837
  unreachable, !llfi_index !838
}

; Function Attrs: mustprogress noinline nounwind uwtable
define linkonce_odr dso_local nonnull align 1 dereferenceable(1) %"class.std::ios_base::Init"* @_ZNSt8_Rb_treeIiiSt9_IdentityIiESt4lessIiESaIiEE21_M_get_Node_allocatorEv(%"class.std::_Rb_tree"* nonnull align 8 dereferenceable(48) %0) #7 comdat align 2 {
  %2 = alloca %"class.std::_Rb_tree"*, align 8, !llfi_index !839
  store %"class.std::_Rb_tree"* %0, %"class.std::_Rb_tree"** %2, align 8, !llfi_index !840
  %3 = load %"class.std::_Rb_tree"*, %"class.std::_Rb_tree"** %2, align 8, !llfi_index !841
  %4 = getelementptr inbounds %"class.std::_Rb_tree", %"class.std::_Rb_tree"* %3, i32 0, i32 0, !llfi_index !842
  %5 = bitcast %"struct.std::_Rb_tree<int, int, std::_Identity<int>, std::less<int>>::_Rb_tree_impl"* %4 to %"class.std::ios_base::Init"*, !llfi_index !843
  ret %"class.std::ios_base::Init"* %5, !llfi_index !844
}

; Function Attrs: mustprogress noinline uwtable
define linkonce_odr dso_local void @_ZNSt16allocator_traitsISaISt13_Rb_tree_nodeIiEEE10deallocateERS2_PS1_m(%"class.std::ios_base::Init"* nonnull align 1 dereferenceable(1) %0, %"struct.std::_Rb_tree_node"* %1, i64 %2) #6 comdat align 2 {
  %4 = alloca %"class.std::ios_base::Init"*, align 8, !llfi_index !845
  %5 = alloca %"struct.std::_Rb_tree_node"*, align 8, !llfi_index !846
  %6 = alloca i64, align 8, !llfi_index !847
  store %"class.std::ios_base::Init"* %0, %"class.std::ios_base::Init"** %4, align 8, !llfi_index !848
  store %"struct.std::_Rb_tree_node"* %1, %"struct.std::_Rb_tree_node"** %5, align 8, !llfi_index !849
  store i64 %2, i64* %6, align 8, !llfi_index !850
  %7 = load %"class.std::ios_base::Init"*, %"class.std::ios_base::Init"** %4, align 8, !llfi_index !851
  %8 = bitcast %"class.std::ios_base::Init"* %7 to %"class.std::ios_base::Init"*, !llfi_index !852
  %9 = load %"struct.std::_Rb_tree_node"*, %"struct.std::_Rb_tree_node"** %5, align 8, !llfi_index !853
  %10 = load i64, i64* %6, align 8, !llfi_index !854
  call void @_ZN9__gnu_cxx13new_allocatorISt13_Rb_tree_nodeIiEE10deallocateEPS2_m(%"class.std::ios_base::Init"* nonnull align 1 dereferenceable(1) %8, %"struct.std::_Rb_tree_node"* %9, i64 %10), !llfi_index !855
  ret void, !llfi_index !856
}

; Function Attrs: mustprogress noinline nounwind uwtable
define linkonce_odr dso_local void @_ZN9__gnu_cxx13new_allocatorISt13_Rb_tree_nodeIiEE10deallocateEPS2_m(%"class.std::ios_base::Init"* nonnull align 1 dereferenceable(1) %0, %"struct.std::_Rb_tree_node"* %1, i64 %2) #7 comdat align 2 {
  %4 = alloca %"class.std::ios_base::Init"*, align 8, !llfi_index !857
  %5 = alloca %"struct.std::_Rb_tree_node"*, align 8, !llfi_index !858
  %6 = alloca i64, align 8, !llfi_index !859
  store %"class.std::ios_base::Init"* %0, %"class.std::ios_base::Init"** %4, align 8, !llfi_index !860
  store %"struct.std::_Rb_tree_node"* %1, %"struct.std::_Rb_tree_node"** %5, align 8, !llfi_index !861
  store i64 %2, i64* %6, align 8, !llfi_index !862
  %7 = load %"class.std::ios_base::Init"*, %"class.std::ios_base::Init"** %4, align 8, !llfi_index !863
  %8 = load %"struct.std::_Rb_tree_node"*, %"struct.std::_Rb_tree_node"** %5, align 8, !llfi_index !864
  %9 = bitcast %"struct.std::_Rb_tree_node"* %8 to i8*, !llfi_index !865
  call void @_ZdlPv(i8* %9) #2, !llfi_index !866
  ret void, !llfi_index !867
}

; Function Attrs: nobuiltin nounwind
declare dso_local void @_ZdlPv(i8*) #10

; Function Attrs: mustprogress noinline nounwind uwtable
define linkonce_odr dso_local i32* @_ZNSt13_Rb_tree_nodeIiE9_M_valptrEv(%"struct.std::_Rb_tree_node"* nonnull align 8 dereferenceable(36) %0) #7 comdat align 2 {
  %2 = alloca %"struct.std::_Rb_tree_node"*, align 8, !llfi_index !868
  store %"struct.std::_Rb_tree_node"* %0, %"struct.std::_Rb_tree_node"** %2, align 8, !llfi_index !869
  %3 = load %"struct.std::_Rb_tree_node"*, %"struct.std::_Rb_tree_node"** %2, align 8, !llfi_index !870
  %4 = getelementptr inbounds %"struct.std::_Rb_tree_node", %"struct.std::_Rb_tree_node"* %3, i32 0, i32 1, !llfi_index !871
  %5 = call i32* @_ZN9__gnu_cxx16__aligned_membufIiE6_M_ptrEv(%"struct.__gnu_cxx::__aligned_membuf"* nonnull align 4 dereferenceable(4) %4) #2, !llfi_index !872
  ret i32* %5, !llfi_index !873
}

; Function Attrs: mustprogress noinline nounwind uwtable
define linkonce_odr dso_local void @_ZNSt16allocator_traitsISaISt13_Rb_tree_nodeIiEEE7destroyIiEEvRS2_PT_(%"class.std::ios_base::Init"* nonnull align 1 dereferenceable(1) %0, i32* %1) #7 comdat align 2 {
  %3 = alloca %"class.std::ios_base::Init"*, align 8, !llfi_index !874
  %4 = alloca i32*, align 8, !llfi_index !875
  store %"class.std::ios_base::Init"* %0, %"class.std::ios_base::Init"** %3, align 8, !llfi_index !876
  store i32* %1, i32** %4, align 8, !llfi_index !877
  %5 = load %"class.std::ios_base::Init"*, %"class.std::ios_base::Init"** %3, align 8, !llfi_index !878
  %6 = bitcast %"class.std::ios_base::Init"* %5 to %"class.std::ios_base::Init"*, !llfi_index !879
  %7 = load i32*, i32** %4, align 8, !llfi_index !880
  call void @_ZN9__gnu_cxx13new_allocatorISt13_Rb_tree_nodeIiEE7destroyIiEEvPT_(%"class.std::ios_base::Init"* nonnull align 1 dereferenceable(1) %6, i32* %7) #2, !llfi_index !881
  ret void, !llfi_index !882
}

; Function Attrs: mustprogress noinline nounwind uwtable
define linkonce_odr dso_local void @_ZN9__gnu_cxx13new_allocatorISt13_Rb_tree_nodeIiEE7destroyIiEEvPT_(%"class.std::ios_base::Init"* nonnull align 1 dereferenceable(1) %0, i32* %1) #7 comdat align 2 {
  %3 = alloca %"class.std::ios_base::Init"*, align 8, !llfi_index !883
  %4 = alloca i32*, align 8, !llfi_index !884
  store %"class.std::ios_base::Init"* %0, %"class.std::ios_base::Init"** %3, align 8, !llfi_index !885
  store i32* %1, i32** %4, align 8, !llfi_index !886
  %5 = load %"class.std::ios_base::Init"*, %"class.std::ios_base::Init"** %3, align 8, !llfi_index !887
  %6 = load i32*, i32** %4, align 8, !llfi_index !888
  ret void, !llfi_index !889
}

; Function Attrs: mustprogress noinline nounwind uwtable
define linkonce_odr dso_local i32* @_ZN9__gnu_cxx16__aligned_membufIiE6_M_ptrEv(%"struct.__gnu_cxx::__aligned_membuf"* nonnull align 4 dereferenceable(4) %0) #7 comdat align 2 {
  %2 = alloca %"struct.__gnu_cxx::__aligned_membuf"*, align 8, !llfi_index !890
  store %"struct.__gnu_cxx::__aligned_membuf"* %0, %"struct.__gnu_cxx::__aligned_membuf"** %2, align 8, !llfi_index !891
  %3 = load %"struct.__gnu_cxx::__aligned_membuf"*, %"struct.__gnu_cxx::__aligned_membuf"** %2, align 8, !llfi_index !892
  %4 = call i8* @_ZN9__gnu_cxx16__aligned_membufIiE7_M_addrEv(%"struct.__gnu_cxx::__aligned_membuf"* nonnull align 4 dereferenceable(4) %3) #2, !llfi_index !893
  %5 = bitcast i8* %4 to i32*, !llfi_index !894
  ret i32* %5, !llfi_index !895
}

; Function Attrs: mustprogress noinline nounwind uwtable
define linkonce_odr dso_local i8* @_ZN9__gnu_cxx16__aligned_membufIiE7_M_addrEv(%"struct.__gnu_cxx::__aligned_membuf"* nonnull align 4 dereferenceable(4) %0) #7 comdat align 2 {
  %2 = alloca %"struct.__gnu_cxx::__aligned_membuf"*, align 8, !llfi_index !896
  store %"struct.__gnu_cxx::__aligned_membuf"* %0, %"struct.__gnu_cxx::__aligned_membuf"** %2, align 8, !llfi_index !897
  %3 = load %"struct.__gnu_cxx::__aligned_membuf"*, %"struct.__gnu_cxx::__aligned_membuf"** %2, align 8, !llfi_index !898
  %4 = getelementptr inbounds %"struct.__gnu_cxx::__aligned_membuf", %"struct.__gnu_cxx::__aligned_membuf"* %3, i32 0, i32 0, !llfi_index !899
  %5 = bitcast [4 x i8]* %4 to i8*, !llfi_index !900
  ret i8* %5, !llfi_index !901
}

; Function Attrs: mustprogress noinline uwtable
define linkonce_odr dso_local { %"struct.std::_Rb_tree_node_base"*, i8 } @_ZNSt8_Rb_treeIiiSt9_IdentityIiESt4lessIiESaIiEE16_M_insert_uniqueIRKiEESt4pairISt17_Rb_tree_iteratorIiEbEOT_(%"class.std::_Rb_tree"* nonnull align 8 dereferenceable(48) %0, i32* nonnull align 4 dereferenceable(4) %1) #6 comdat align 2 {
  %3 = alloca %"struct.std::pair", align 8, !llfi_index !902
  %4 = alloca %"class.std::_Rb_tree"*, align 8, !llfi_index !903
  %5 = alloca i32*, align 8, !llfi_index !904
  %6 = alloca %"struct.std::pair.4", align 8, !llfi_index !905
  %7 = alloca %"class.std::ios_base::Init", align 1, !llfi_index !906
  %8 = alloca %"struct.std::_Rb_tree<int, int, std::_Identity<int>, std::less<int>>::_Alloc_node", align 8, !llfi_index !907
  %9 = alloca %"struct.std::_Rb_tree_const_iterator", align 8, !llfi_index !908
  %10 = alloca i8, align 1, !llfi_index !909
  %11 = alloca %"struct.std::_Rb_tree_const_iterator", align 8, !llfi_index !910
  %12 = alloca i8, align 1, !llfi_index !911
  store %"class.std::_Rb_tree"* %0, %"class.std::_Rb_tree"** %4, align 8, !llfi_index !912
  store i32* %1, i32** %5, align 8, !llfi_index !913
  %13 = load %"class.std::_Rb_tree"*, %"class.std::_Rb_tree"** %4, align 8, !llfi_index !914
  %14 = load i32*, i32** %5, align 8, !llfi_index !915
  %15 = call nonnull align 4 dereferenceable(4) i32* @_ZNKSt9_IdentityIiEclERKi(%"class.std::ios_base::Init"* nonnull align 1 dereferenceable(1) %7, i32* nonnull align 4 dereferenceable(4) %14), !llfi_index !916
  %16 = call { %"struct.std::_Rb_tree_node_base"*, %"struct.std::_Rb_tree_node_base"* } @_ZNSt8_Rb_treeIiiSt9_IdentityIiESt4lessIiESaIiEE24_M_get_insert_unique_posERKi(%"class.std::_Rb_tree"* nonnull align 8 dereferenceable(48) %13, i32* nonnull align 4 dereferenceable(4) %15), !llfi_index !917
  %17 = bitcast %"struct.std::pair.4"* %6 to { %"struct.std::_Rb_tree_node_base"*, %"struct.std::_Rb_tree_node_base"* }*, !llfi_index !918
  %18 = getelementptr inbounds { %"struct.std::_Rb_tree_node_base"*, %"struct.std::_Rb_tree_node_base"* }, { %"struct.std::_Rb_tree_node_base"*, %"struct.std::_Rb_tree_node_base"* }* %17, i32 0, i32 0, !llfi_index !919
  %19 = extractvalue { %"struct.std::_Rb_tree_node_base"*, %"struct.std::_Rb_tree_node_base"* } %16, 0, !llfi_index !920
  store %"struct.std::_Rb_tree_node_base"* %19, %"struct.std::_Rb_tree_node_base"** %18, align 8, !llfi_index !921
  %20 = getelementptr inbounds { %"struct.std::_Rb_tree_node_base"*, %"struct.std::_Rb_tree_node_base"* }, { %"struct.std::_Rb_tree_node_base"*, %"struct.std::_Rb_tree_node_base"* }* %17, i32 0, i32 1, !llfi_index !922
  %21 = extractvalue { %"struct.std::_Rb_tree_node_base"*, %"struct.std::_Rb_tree_node_base"* } %16, 1, !llfi_index !923
  store %"struct.std::_Rb_tree_node_base"* %21, %"struct.std::_Rb_tree_node_base"** %20, align 8, !llfi_index !924
  %22 = getelementptr inbounds %"struct.std::pair.4", %"struct.std::pair.4"* %6, i32 0, i32 1, !llfi_index !925
  %23 = load %"struct.std::_Rb_tree_node_base"*, %"struct.std::_Rb_tree_node_base"** %22, align 8, !llfi_index !926
  %24 = icmp ne %"struct.std::_Rb_tree_node_base"* %23, null, !llfi_index !927
  br i1 %24, label %25, label %34, !llfi_index !928

25:                                               ; preds = %2
  call void @_ZNSt8_Rb_treeIiiSt9_IdentityIiESt4lessIiESaIiEE11_Alloc_nodeC2ERS5_(%"struct.std::_Rb_tree<int, int, std::_Identity<int>, std::less<int>>::_Alloc_node"* nonnull align 8 dereferenceable(8) %8, %"class.std::_Rb_tree"* nonnull align 8 dereferenceable(48) %13), !llfi_index !929
  %26 = getelementptr inbounds %"struct.std::pair.4", %"struct.std::pair.4"* %6, i32 0, i32 0, !llfi_index !930
  %27 = load %"struct.std::_Rb_tree_node_base"*, %"struct.std::_Rb_tree_node_base"** %26, align 8, !llfi_index !931
  %28 = getelementptr inbounds %"struct.std::pair.4", %"struct.std::pair.4"* %6, i32 0, i32 1, !llfi_index !932
  %29 = load %"struct.std::_Rb_tree_node_base"*, %"struct.std::_Rb_tree_node_base"** %28, align 8, !llfi_index !933
  %30 = load i32*, i32** %5, align 8, !llfi_index !934
  %31 = call nonnull align 4 dereferenceable(4) i32* @_ZSt7forwardIRKiEOT_RNSt16remove_referenceIS2_E4typeE(i32* nonnull align 4 dereferenceable(4) %30) #2, !llfi_index !935
  %32 = call %"struct.std::_Rb_tree_node_base"* @_ZNSt8_Rb_treeIiiSt9_IdentityIiESt4lessIiESaIiEE10_M_insert_IRKiNS5_11_Alloc_nodeEEESt17_Rb_tree_iteratorIiEPSt18_Rb_tree_node_baseSD_OT_RT0_(%"class.std::_Rb_tree"* nonnull align 8 dereferenceable(48) %13, %"struct.std::_Rb_tree_node_base"* %27, %"struct.std::_Rb_tree_node_base"* %29, i32* nonnull align 4 dereferenceable(4) %31, %"struct.std::_Rb_tree<int, int, std::_Identity<int>, std::less<int>>::_Alloc_node"* nonnull align 8 dereferenceable(8) %8), !llfi_index !936
  %33 = getelementptr inbounds %"struct.std::_Rb_tree_const_iterator", %"struct.std::_Rb_tree_const_iterator"* %9, i32 0, i32 0, !llfi_index !937
  store %"struct.std::_Rb_tree_node_base"* %32, %"struct.std::_Rb_tree_node_base"** %33, align 8, !llfi_index !938
  store i8 1, i8* %10, align 1, !llfi_index !939
  call void @_ZNSt4pairISt17_Rb_tree_iteratorIiEbEC2IS1_bLb1EEEOT_OT0_(%"struct.std::pair"* nonnull align 8 dereferenceable(9) %3, %"struct.std::_Rb_tree_const_iterator"* nonnull align 8 dereferenceable(8) %9, i8* nonnull align 1 dereferenceable(1) %10), !llfi_index !940
  br label %37, !llfi_index !941

34:                                               ; preds = %2
  %35 = getelementptr inbounds %"struct.std::pair.4", %"struct.std::pair.4"* %6, i32 0, i32 0, !llfi_index !942
  %36 = load %"struct.std::_Rb_tree_node_base"*, %"struct.std::_Rb_tree_node_base"** %35, align 8, !llfi_index !943
  call void @_ZNSt17_Rb_tree_iteratorIiEC2EPSt18_Rb_tree_node_base(%"struct.std::_Rb_tree_const_iterator"* nonnull align 8 dereferenceable(8) %11, %"struct.std::_Rb_tree_node_base"* %36) #2, !llfi_index !944
  store i8 0, i8* %12, align 1, !llfi_index !945
  call void @_ZNSt4pairISt17_Rb_tree_iteratorIiEbEC2IS1_bLb1EEEOT_OT0_(%"struct.std::pair"* nonnull align 8 dereferenceable(9) %3, %"struct.std::_Rb_tree_const_iterator"* nonnull align 8 dereferenceable(8) %11, i8* nonnull align 1 dereferenceable(1) %12), !llfi_index !946
  br label %37, !llfi_index !947

37:                                               ; preds = %34, %25
  %38 = bitcast %"struct.std::pair"* %3 to { %"struct.std::_Rb_tree_node_base"*, i8 }*, !llfi_index !948
  %39 = load { %"struct.std::_Rb_tree_node_base"*, i8 }, { %"struct.std::_Rb_tree_node_base"*, i8 }* %38, align 8, !llfi_index !949
  ret { %"struct.std::_Rb_tree_node_base"*, i8 } %39, !llfi_index !950
}

; Function Attrs: noinline nounwind uwtable
define linkonce_odr dso_local void @_ZNSt4pairISt23_Rb_tree_const_iteratorIiEbEC2IRSt17_Rb_tree_iteratorIiERbLb1EEEOT_OT0_(%"struct.std::pair"* nonnull align 8 dereferenceable(9) %0, %"struct.std::_Rb_tree_const_iterator"* nonnull align 8 dereferenceable(8) %1, i8* nonnull align 1 dereferenceable(1) %2) unnamed_addr #5 comdat align 2 {
  %4 = alloca %"struct.std::pair"*, align 8, !llfi_index !951
  %5 = alloca %"struct.std::_Rb_tree_const_iterator"*, align 8, !llfi_index !952
  %6 = alloca i8*, align 8, !llfi_index !953
  store %"struct.std::pair"* %0, %"struct.std::pair"** %4, align 8, !llfi_index !954
  store %"struct.std::_Rb_tree_const_iterator"* %1, %"struct.std::_Rb_tree_const_iterator"** %5, align 8, !llfi_index !955
  store i8* %2, i8** %6, align 8, !llfi_index !956
  %7 = load %"struct.std::pair"*, %"struct.std::pair"** %4, align 8, !llfi_index !957
  %8 = bitcast %"struct.std::pair"* %7 to %"class.std::ios_base::Init"*, !llfi_index !958
  %9 = getelementptr inbounds %"struct.std::pair", %"struct.std::pair"* %7, i32 0, i32 0, !llfi_index !959
  %10 = load %"struct.std::_Rb_tree_const_iterator"*, %"struct.std::_Rb_tree_const_iterator"** %5, align 8, !llfi_index !960
  %11 = call nonnull align 8 dereferenceable(8) %"struct.std::_Rb_tree_const_iterator"* @_ZSt7forwardIRSt17_Rb_tree_iteratorIiEEOT_RNSt16remove_referenceIS3_E4typeE(%"struct.std::_Rb_tree_const_iterator"* nonnull align 8 dereferenceable(8) %10) #2, !llfi_index !961
  call void @_ZNSt23_Rb_tree_const_iteratorIiEC2ERKSt17_Rb_tree_iteratorIiE(%"struct.std::_Rb_tree_const_iterator"* nonnull align 8 dereferenceable(8) %9, %"struct.std::_Rb_tree_const_iterator"* nonnull align 8 dereferenceable(8) %11) #2, !llfi_index !962
  %12 = getelementptr inbounds %"struct.std::pair", %"struct.std::pair"* %7, i32 0, i32 1, !llfi_index !963
  %13 = load i8*, i8** %6, align 8, !llfi_index !964
  %14 = call nonnull align 1 dereferenceable(1) i8* @_ZSt7forwardIRbEOT_RNSt16remove_referenceIS1_E4typeE(i8* nonnull align 1 dereferenceable(1) %13) #2, !llfi_index !965
  %15 = load i8, i8* %14, align 1, !llfi_index !966
  %16 = trunc i8 %15 to i1, !llfi_index !967
  %17 = zext i1 %16 to i8, !llfi_index !968
  store i8 %17, i8* %12, align 8, !llfi_index !969
  ret void, !llfi_index !970
}

; Function Attrs: mustprogress noinline nounwind uwtable
define linkonce_odr dso_local nonnull align 8 dereferenceable(8) %"struct.std::_Rb_tree_const_iterator"* @_ZSt7forwardIRSt17_Rb_tree_iteratorIiEEOT_RNSt16remove_referenceIS3_E4typeE(%"struct.std::_Rb_tree_const_iterator"* nonnull align 8 dereferenceable(8) %0) #7 comdat {
  %2 = alloca %"struct.std::_Rb_tree_const_iterator"*, align 8, !llfi_index !971
  store %"struct.std::_Rb_tree_const_iterator"* %0, %"struct.std::_Rb_tree_const_iterator"** %2, align 8, !llfi_index !972
  %3 = load %"struct.std::_Rb_tree_const_iterator"*, %"struct.std::_Rb_tree_const_iterator"** %2, align 8, !llfi_index !973
  ret %"struct.std::_Rb_tree_const_iterator"* %3, !llfi_index !974
}

; Function Attrs: mustprogress noinline nounwind uwtable
define linkonce_odr dso_local nonnull align 1 dereferenceable(1) i8* @_ZSt7forwardIRbEOT_RNSt16remove_referenceIS1_E4typeE(i8* nonnull align 1 dereferenceable(1) %0) #7 comdat {
  %2 = alloca i8*, align 8, !llfi_index !975
  store i8* %0, i8** %2, align 8, !llfi_index !976
  %3 = load i8*, i8** %2, align 8, !llfi_index !977
  ret i8* %3, !llfi_index !978
}

; Function Attrs: mustprogress noinline uwtable
define linkonce_odr dso_local { %"struct.std::_Rb_tree_node_base"*, %"struct.std::_Rb_tree_node_base"* } @_ZNSt8_Rb_treeIiiSt9_IdentityIiESt4lessIiESaIiEE24_M_get_insert_unique_posERKi(%"class.std::_Rb_tree"* nonnull align 8 dereferenceable(48) %0, i32* nonnull align 4 dereferenceable(4) %1) #6 comdat align 2 {
  %3 = alloca %"struct.std::pair.4", align 8, !llfi_index !979
  %4 = alloca %"class.std::_Rb_tree"*, align 8, !llfi_index !980
  %5 = alloca i32*, align 8, !llfi_index !981
  %6 = alloca %"struct.std::_Rb_tree_node"*, align 8, !llfi_index !982
  %7 = alloca %"struct.std::_Rb_tree_node_base"*, align 8, !llfi_index !983
  %8 = alloca i8, align 1, !llfi_index !984
  %9 = alloca %"struct.std::_Rb_tree_const_iterator", align 8, !llfi_index !985
  %10 = alloca %"struct.std::_Rb_tree_const_iterator", align 8, !llfi_index !986
  %11 = alloca %"struct.std::_Rb_tree_node_base"*, align 8, !llfi_index !987
  store %"class.std::_Rb_tree"* %0, %"class.std::_Rb_tree"** %4, align 8, !llfi_index !988
  store i32* %1, i32** %5, align 8, !llfi_index !989
  %12 = load %"class.std::_Rb_tree"*, %"class.std::_Rb_tree"** %4, align 8, !llfi_index !990
  %13 = call %"struct.std::_Rb_tree_node"* @_ZNSt8_Rb_treeIiiSt9_IdentityIiESt4lessIiESaIiEE8_M_beginEv(%"class.std::_Rb_tree"* nonnull align 8 dereferenceable(48) %12) #2, !llfi_index !991
  store %"struct.std::_Rb_tree_node"* %13, %"struct.std::_Rb_tree_node"** %6, align 8, !llfi_index !992
  %14 = call %"struct.std::_Rb_tree_node_base"* @_ZNSt8_Rb_treeIiiSt9_IdentityIiESt4lessIiESaIiEE6_M_endEv(%"class.std::_Rb_tree"* nonnull align 8 dereferenceable(48) %12) #2, !llfi_index !993
  store %"struct.std::_Rb_tree_node_base"* %14, %"struct.std::_Rb_tree_node_base"** %7, align 8, !llfi_index !994
  store i8 1, i8* %8, align 1, !llfi_index !995
  br label %15, !llfi_index !996

15:                                               ; preds = %39, %2
  %16 = load %"struct.std::_Rb_tree_node"*, %"struct.std::_Rb_tree_node"** %6, align 8, !llfi_index !997
  %17 = icmp ne %"struct.std::_Rb_tree_node"* %16, null, !llfi_index !998
  br i1 %17, label %18, label %41, !llfi_index !999

18:                                               ; preds = %15
  %19 = load %"struct.std::_Rb_tree_node"*, %"struct.std::_Rb_tree_node"** %6, align 8, !llfi_index !1000
  %20 = bitcast %"struct.std::_Rb_tree_node"* %19 to %"struct.std::_Rb_tree_node_base"*, !llfi_index !1001
  store %"struct.std::_Rb_tree_node_base"* %20, %"struct.std::_Rb_tree_node_base"** %7, align 8, !llfi_index !1002
  %21 = getelementptr inbounds %"class.std::_Rb_tree", %"class.std::_Rb_tree"* %12, i32 0, i32 0, !llfi_index !1003
  %22 = bitcast %"struct.std::_Rb_tree<int, int, std::_Identity<int>, std::less<int>>::_Rb_tree_impl"* %21 to %"struct.std::_Rb_tree_key_compare"*, !llfi_index !1004
  %23 = getelementptr inbounds %"struct.std::_Rb_tree_key_compare", %"struct.std::_Rb_tree_key_compare"* %22, i32 0, i32 0, !llfi_index !1005
  %24 = load i32*, i32** %5, align 8, !llfi_index !1006
  %25 = load %"struct.std::_Rb_tree_node"*, %"struct.std::_Rb_tree_node"** %6, align 8, !llfi_index !1007
  %26 = call nonnull align 4 dereferenceable(4) i32* @_ZNSt8_Rb_treeIiiSt9_IdentityIiESt4lessIiESaIiEE6_S_keyEPKSt13_Rb_tree_nodeIiE(%"struct.std::_Rb_tree_node"* %25), !llfi_index !1008
  %27 = call zeroext i1 @_ZNKSt4lessIiEclERKiS2_(%"class.std::ios_base::Init"* nonnull align 1 dereferenceable(1) %23, i32* nonnull align 4 dereferenceable(4) %24, i32* nonnull align 4 dereferenceable(4) %26), !llfi_index !1009
  %28 = zext i1 %27 to i8, !llfi_index !1010
  store i8 %28, i8* %8, align 1, !llfi_index !1011
  %29 = load i8, i8* %8, align 1, !llfi_index !1012
  %30 = trunc i8 %29 to i1, !llfi_index !1013
  br i1 %30, label %31, label %35, !llfi_index !1014

31:                                               ; preds = %18
  %32 = load %"struct.std::_Rb_tree_node"*, %"struct.std::_Rb_tree_node"** %6, align 8, !llfi_index !1015
  %33 = bitcast %"struct.std::_Rb_tree_node"* %32 to %"struct.std::_Rb_tree_node_base"*, !llfi_index !1016
  %34 = call %"struct.std::_Rb_tree_node"* @_ZNSt8_Rb_treeIiiSt9_IdentityIiESt4lessIiESaIiEE7_S_leftEPSt18_Rb_tree_node_base(%"struct.std::_Rb_tree_node_base"* %33) #2, !llfi_index !1017
  br label %39, !llfi_index !1018

35:                                               ; preds = %18
  %36 = load %"struct.std::_Rb_tree_node"*, %"struct.std::_Rb_tree_node"** %6, align 8, !llfi_index !1019
  %37 = bitcast %"struct.std::_Rb_tree_node"* %36 to %"struct.std::_Rb_tree_node_base"*, !llfi_index !1020
  %38 = call %"struct.std::_Rb_tree_node"* @_ZNSt8_Rb_treeIiiSt9_IdentityIiESt4lessIiESaIiEE8_S_rightEPSt18_Rb_tree_node_base(%"struct.std::_Rb_tree_node_base"* %37) #2, !llfi_index !1021
  br label %39, !llfi_index !1022

39:                                               ; preds = %35, %31
  %40 = phi %"struct.std::_Rb_tree_node"* [ %34, %31 ], [ %38, %35 ], !llfi_index !1023
  store %"struct.std::_Rb_tree_node"* %40, %"struct.std::_Rb_tree_node"** %6, align 8, !llfi_index !1024
  br label %15, !llvm.loop !1025, !llfi_index !1026

41:                                               ; preds = %15
  %42 = load %"struct.std::_Rb_tree_node_base"*, %"struct.std::_Rb_tree_node_base"** %7, align 8, !llfi_index !1027
  call void @_ZNSt17_Rb_tree_iteratorIiEC2EPSt18_Rb_tree_node_base(%"struct.std::_Rb_tree_const_iterator"* nonnull align 8 dereferenceable(8) %9, %"struct.std::_Rb_tree_node_base"* %42) #2, !llfi_index !1028
  %43 = load i8, i8* %8, align 1, !llfi_index !1029
  %44 = trunc i8 %43 to i1, !llfi_index !1030
  br i1 %44, label %45, label %53, !llfi_index !1031

45:                                               ; preds = %41
  %46 = call %"struct.std::_Rb_tree_node_base"* @_ZNSt8_Rb_treeIiiSt9_IdentityIiESt4lessIiESaIiEE5beginEv(%"class.std::_Rb_tree"* nonnull align 8 dereferenceable(48) %12) #2, !llfi_index !1032
  %47 = getelementptr inbounds %"struct.std::_Rb_tree_const_iterator", %"struct.std::_Rb_tree_const_iterator"* %10, i32 0, i32 0, !llfi_index !1033
  store %"struct.std::_Rb_tree_node_base"* %46, %"struct.std::_Rb_tree_node_base"** %47, align 8, !llfi_index !1034
  %48 = call zeroext i1 @_ZSteqRKSt17_Rb_tree_iteratorIiES2_(%"struct.std::_Rb_tree_const_iterator"* nonnull align 8 dereferenceable(8) %9, %"struct.std::_Rb_tree_const_iterator"* nonnull align 8 dereferenceable(8) %10) #2, !llfi_index !1035
  br i1 %48, label %49, label %50, !llfi_index !1036

49:                                               ; preds = %45
  call void @_ZNSt4pairIPSt18_Rb_tree_node_baseS1_EC2IRPSt13_Rb_tree_nodeIiERS1_Lb1EEEOT_OT0_(%"struct.std::pair.4"* nonnull align 8 dereferenceable(16) %3, %"struct.std::_Rb_tree_node"** nonnull align 8 dereferenceable(8) %6, %"struct.std::_Rb_tree_node_base"** nonnull align 8 dereferenceable(8) %7), !llfi_index !1037
  br label %65, !llfi_index !1038

50:                                               ; preds = %45
  %51 = call nonnull align 8 dereferenceable(8) %"struct.std::_Rb_tree_const_iterator"* @_ZNSt17_Rb_tree_iteratorIiEmmEv(%"struct.std::_Rb_tree_const_iterator"* nonnull align 8 dereferenceable(8) %9) #2, !llfi_index !1039
  br label %52, !llfi_index !1040

52:                                               ; preds = %50
  br label %53, !llfi_index !1041

53:                                               ; preds = %52, %41
  %54 = getelementptr inbounds %"class.std::_Rb_tree", %"class.std::_Rb_tree"* %12, i32 0, i32 0, !llfi_index !1042
  %55 = bitcast %"struct.std::_Rb_tree<int, int, std::_Identity<int>, std::less<int>>::_Rb_tree_impl"* %54 to %"struct.std::_Rb_tree_key_compare"*, !llfi_index !1043
  %56 = getelementptr inbounds %"struct.std::_Rb_tree_key_compare", %"struct.std::_Rb_tree_key_compare"* %55, i32 0, i32 0, !llfi_index !1044
  %57 = getelementptr inbounds %"struct.std::_Rb_tree_const_iterator", %"struct.std::_Rb_tree_const_iterator"* %9, i32 0, i32 0, !llfi_index !1045
  %58 = load %"struct.std::_Rb_tree_node_base"*, %"struct.std::_Rb_tree_node_base"** %57, align 8, !llfi_index !1046
  %59 = call nonnull align 4 dereferenceable(4) i32* @_ZNSt8_Rb_treeIiiSt9_IdentityIiESt4lessIiESaIiEE6_S_keyEPKSt18_Rb_tree_node_base(%"struct.std::_Rb_tree_node_base"* %58), !llfi_index !1047
  %60 = load i32*, i32** %5, align 8, !llfi_index !1048
  %61 = call zeroext i1 @_ZNKSt4lessIiEclERKiS2_(%"class.std::ios_base::Init"* nonnull align 1 dereferenceable(1) %56, i32* nonnull align 4 dereferenceable(4) %59, i32* nonnull align 4 dereferenceable(4) %60), !llfi_index !1049
  br i1 %61, label %62, label %63, !llfi_index !1050

62:                                               ; preds = %53
  call void @_ZNSt4pairIPSt18_Rb_tree_node_baseS1_EC2IRPSt13_Rb_tree_nodeIiERS1_Lb1EEEOT_OT0_(%"struct.std::pair.4"* nonnull align 8 dereferenceable(16) %3, %"struct.std::_Rb_tree_node"** nonnull align 8 dereferenceable(8) %6, %"struct.std::_Rb_tree_node_base"** nonnull align 8 dereferenceable(8) %7), !llfi_index !1051
  br label %65, !llfi_index !1052

63:                                               ; preds = %53
  %64 = getelementptr inbounds %"struct.std::_Rb_tree_const_iterator", %"struct.std::_Rb_tree_const_iterator"* %9, i32 0, i32 0, !llfi_index !1053
  store %"struct.std::_Rb_tree_node_base"* null, %"struct.std::_Rb_tree_node_base"** %11, align 8, !llfi_index !1054
  call void @_ZNSt4pairIPSt18_Rb_tree_node_baseS1_EC2IRS1_Lb1EEEOT_RKS1_(%"struct.std::pair.4"* nonnull align 8 dereferenceable(16) %3, %"struct.std::_Rb_tree_node_base"** nonnull align 8 dereferenceable(8) %64, %"struct.std::_Rb_tree_node_base"** nonnull align 8 dereferenceable(8) %11), !llfi_index !1055
  br label %65, !llfi_index !1056

65:                                               ; preds = %63, %62, %49
  %66 = bitcast %"struct.std::pair.4"* %3 to { %"struct.std::_Rb_tree_node_base"*, %"struct.std::_Rb_tree_node_base"* }*, !llfi_index !1057
  %67 = load { %"struct.std::_Rb_tree_node_base"*, %"struct.std::_Rb_tree_node_base"* }, { %"struct.std::_Rb_tree_node_base"*, %"struct.std::_Rb_tree_node_base"* }* %66, align 8, !llfi_index !1058
  ret { %"struct.std::_Rb_tree_node_base"*, %"struct.std::_Rb_tree_node_base"* } %67, !llfi_index !1059
}

; Function Attrs: noinline nounwind uwtable
define linkonce_odr dso_local void @_ZNSt8_Rb_treeIiiSt9_IdentityIiESt4lessIiESaIiEE11_Alloc_nodeC2ERS5_(%"struct.std::_Rb_tree<int, int, std::_Identity<int>, std::less<int>>::_Alloc_node"* nonnull align 8 dereferenceable(8) %0, %"class.std::_Rb_tree"* nonnull align 8 dereferenceable(48) %1) unnamed_addr #5 comdat align 2 {
  %3 = alloca %"struct.std::_Rb_tree<int, int, std::_Identity<int>, std::less<int>>::_Alloc_node"*, align 8, !llfi_index !1060
  %4 = alloca %"class.std::_Rb_tree"*, align 8, !llfi_index !1061
  store %"struct.std::_Rb_tree<int, int, std::_Identity<int>, std::less<int>>::_Alloc_node"* %0, %"struct.std::_Rb_tree<int, int, std::_Identity<int>, std::less<int>>::_Alloc_node"** %3, align 8, !llfi_index !1062
  store %"class.std::_Rb_tree"* %1, %"class.std::_Rb_tree"** %4, align 8, !llfi_index !1063
  %5 = load %"struct.std::_Rb_tree<int, int, std::_Identity<int>, std::less<int>>::_Alloc_node"*, %"struct.std::_Rb_tree<int, int, std::_Identity<int>, std::less<int>>::_Alloc_node"** %3, align 8, !llfi_index !1064
  %6 = getelementptr inbounds %"struct.std::_Rb_tree<int, int, std::_Identity<int>, std::less<int>>::_Alloc_node", %"struct.std::_Rb_tree<int, int, std::_Identity<int>, std::less<int>>::_Alloc_node"* %5, i32 0, i32 0, !llfi_index !1065
  %7 = load %"class.std::_Rb_tree"*, %"class.std::_Rb_tree"** %4, align 8, !llfi_index !1066
  store %"class.std::_Rb_tree"* %7, %"class.std::_Rb_tree"** %6, align 8, !llfi_index !1067
  ret void, !llfi_index !1068
}

; Function Attrs: mustprogress noinline nounwind uwtable
define linkonce_odr dso_local nonnull align 4 dereferenceable(4) i32* @_ZSt7forwardIRKiEOT_RNSt16remove_referenceIS2_E4typeE(i32* nonnull align 4 dereferenceable(4) %0) #7 comdat {
  %2 = alloca i32*, align 8, !llfi_index !1069
  store i32* %0, i32** %2, align 8, !llfi_index !1070
  %3 = load i32*, i32** %2, align 8, !llfi_index !1071
  ret i32* %3, !llfi_index !1072
}

; Function Attrs: mustprogress noinline uwtable
define linkonce_odr dso_local %"struct.std::_Rb_tree_node_base"* @_ZNSt8_Rb_treeIiiSt9_IdentityIiESt4lessIiESaIiEE10_M_insert_IRKiNS5_11_Alloc_nodeEEESt17_Rb_tree_iteratorIiEPSt18_Rb_tree_node_baseSD_OT_RT0_(%"class.std::_Rb_tree"* nonnull align 8 dereferenceable(48) %0, %"struct.std::_Rb_tree_node_base"* %1, %"struct.std::_Rb_tree_node_base"* %2, i32* nonnull align 4 dereferenceable(4) %3, %"struct.std::_Rb_tree<int, int, std::_Identity<int>, std::less<int>>::_Alloc_node"* nonnull align 8 dereferenceable(8) %4) #6 comdat align 2 {
  %6 = alloca %"struct.std::_Rb_tree_const_iterator", align 8, !llfi_index !1073
  %7 = alloca %"class.std::_Rb_tree"*, align 8, !llfi_index !1074
  %8 = alloca %"struct.std::_Rb_tree_node_base"*, align 8, !llfi_index !1075
  %9 = alloca %"struct.std::_Rb_tree_node_base"*, align 8, !llfi_index !1076
  %10 = alloca i32*, align 8, !llfi_index !1077
  %11 = alloca %"struct.std::_Rb_tree<int, int, std::_Identity<int>, std::less<int>>::_Alloc_node"*, align 8, !llfi_index !1078
  %12 = alloca i8, align 1, !llfi_index !1079
  %13 = alloca %"class.std::ios_base::Init", align 1, !llfi_index !1080
  %14 = alloca %"struct.std::_Rb_tree_node"*, align 8, !llfi_index !1081
  store %"class.std::_Rb_tree"* %0, %"class.std::_Rb_tree"** %7, align 8, !llfi_index !1082
  store %"struct.std::_Rb_tree_node_base"* %1, %"struct.std::_Rb_tree_node_base"** %8, align 8, !llfi_index !1083
  store %"struct.std::_Rb_tree_node_base"* %2, %"struct.std::_Rb_tree_node_base"** %9, align 8, !llfi_index !1084
  store i32* %3, i32** %10, align 8, !llfi_index !1085
  store %"struct.std::_Rb_tree<int, int, std::_Identity<int>, std::less<int>>::_Alloc_node"* %4, %"struct.std::_Rb_tree<int, int, std::_Identity<int>, std::less<int>>::_Alloc_node"** %11, align 8, !llfi_index !1086
  %15 = load %"class.std::_Rb_tree"*, %"class.std::_Rb_tree"** %7, align 8, !llfi_index !1087
  %16 = load %"struct.std::_Rb_tree_node_base"*, %"struct.std::_Rb_tree_node_base"** %8, align 8, !llfi_index !1088
  %17 = icmp ne %"struct.std::_Rb_tree_node_base"* %16, null, !llfi_index !1089
  br i1 %17, label %31, label %18, !llfi_index !1090

18:                                               ; preds = %5
  %19 = load %"struct.std::_Rb_tree_node_base"*, %"struct.std::_Rb_tree_node_base"** %9, align 8, !llfi_index !1091
  %20 = call %"struct.std::_Rb_tree_node_base"* @_ZNSt8_Rb_treeIiiSt9_IdentityIiESt4lessIiESaIiEE6_M_endEv(%"class.std::_Rb_tree"* nonnull align 8 dereferenceable(48) %15) #2, !llfi_index !1092
  %21 = icmp eq %"struct.std::_Rb_tree_node_base"* %19, %20, !llfi_index !1093
  br i1 %21, label %31, label %22, !llfi_index !1094

22:                                               ; preds = %18
  %23 = getelementptr inbounds %"class.std::_Rb_tree", %"class.std::_Rb_tree"* %15, i32 0, i32 0, !llfi_index !1095
  %24 = bitcast %"struct.std::_Rb_tree<int, int, std::_Identity<int>, std::less<int>>::_Rb_tree_impl"* %23 to %"struct.std::_Rb_tree_key_compare"*, !llfi_index !1096
  %25 = getelementptr inbounds %"struct.std::_Rb_tree_key_compare", %"struct.std::_Rb_tree_key_compare"* %24, i32 0, i32 0, !llfi_index !1097
  %26 = load i32*, i32** %10, align 8, !llfi_index !1098
  %27 = call nonnull align 4 dereferenceable(4) i32* @_ZNKSt9_IdentityIiEclERKi(%"class.std::ios_base::Init"* nonnull align 1 dereferenceable(1) %13, i32* nonnull align 4 dereferenceable(4) %26), !llfi_index !1099
  %28 = load %"struct.std::_Rb_tree_node_base"*, %"struct.std::_Rb_tree_node_base"** %9, align 8, !llfi_index !1100
  %29 = call nonnull align 4 dereferenceable(4) i32* @_ZNSt8_Rb_treeIiiSt9_IdentityIiESt4lessIiESaIiEE6_S_keyEPKSt18_Rb_tree_node_base(%"struct.std::_Rb_tree_node_base"* %28), !llfi_index !1101
  %30 = call zeroext i1 @_ZNKSt4lessIiEclERKiS2_(%"class.std::ios_base::Init"* nonnull align 1 dereferenceable(1) %25, i32* nonnull align 4 dereferenceable(4) %27, i32* nonnull align 4 dereferenceable(4) %29), !llfi_index !1102
  br label %31, !llfi_index !1103

31:                                               ; preds = %22, %18, %5
  %32 = phi i1 [ true, %18 ], [ true, %5 ], [ %30, %22 ], !llfi_index !1104
  %33 = zext i1 %32 to i8, !llfi_index !1105
  store i8 %33, i8* %12, align 1, !llfi_index !1106
  %34 = load %"struct.std::_Rb_tree<int, int, std::_Identity<int>, std::less<int>>::_Alloc_node"*, %"struct.std::_Rb_tree<int, int, std::_Identity<int>, std::less<int>>::_Alloc_node"** %11, align 8, !llfi_index !1107
  %35 = load i32*, i32** %10, align 8, !llfi_index !1108
  %36 = call nonnull align 4 dereferenceable(4) i32* @_ZSt7forwardIRKiEOT_RNSt16remove_referenceIS2_E4typeE(i32* nonnull align 4 dereferenceable(4) %35) #2, !llfi_index !1109
  %37 = call %"struct.std::_Rb_tree_node"* @_ZNKSt8_Rb_treeIiiSt9_IdentityIiESt4lessIiESaIiEE11_Alloc_nodeclIRKiEEPSt13_Rb_tree_nodeIiEOT_(%"struct.std::_Rb_tree<int, int, std::_Identity<int>, std::less<int>>::_Alloc_node"* nonnull align 8 dereferenceable(8) %34, i32* nonnull align 4 dereferenceable(4) %36), !llfi_index !1110
  store %"struct.std::_Rb_tree_node"* %37, %"struct.std::_Rb_tree_node"** %14, align 8, !llfi_index !1111
  %38 = load i8, i8* %12, align 1, !llfi_index !1112
  %39 = trunc i8 %38 to i1, !llfi_index !1113
  %40 = load %"struct.std::_Rb_tree_node"*, %"struct.std::_Rb_tree_node"** %14, align 8, !llfi_index !1114
  %41 = bitcast %"struct.std::_Rb_tree_node"* %40 to %"struct.std::_Rb_tree_node_base"*, !llfi_index !1115
  %42 = load %"struct.std::_Rb_tree_node_base"*, %"struct.std::_Rb_tree_node_base"** %9, align 8, !llfi_index !1116
  %43 = getelementptr inbounds %"class.std::_Rb_tree", %"class.std::_Rb_tree"* %15, i32 0, i32 0, !llfi_index !1117
  %44 = bitcast %"struct.std::_Rb_tree<int, int, std::_Identity<int>, std::less<int>>::_Rb_tree_impl"* %43 to i8*, !llfi_index !1118
  %45 = getelementptr inbounds i8, i8* %44, i64 8, !llfi_index !1119
  %46 = bitcast i8* %45 to %"struct.std::_Rb_tree_header"*, !llfi_index !1120
  %47 = getelementptr inbounds %"struct.std::_Rb_tree_header", %"struct.std::_Rb_tree_header"* %46, i32 0, i32 0, !llfi_index !1121
  call void @_ZSt29_Rb_tree_insert_and_rebalancebPSt18_Rb_tree_node_baseS0_RS_(i1 zeroext %39, %"struct.std::_Rb_tree_node_base"* %41, %"struct.std::_Rb_tree_node_base"* %42, %"struct.std::_Rb_tree_node_base"* nonnull align 8 dereferenceable(32) %47) #2, !llfi_index !1122
  %48 = getelementptr inbounds %"class.std::_Rb_tree", %"class.std::_Rb_tree"* %15, i32 0, i32 0, !llfi_index !1123
  %49 = bitcast %"struct.std::_Rb_tree<int, int, std::_Identity<int>, std::less<int>>::_Rb_tree_impl"* %48 to i8*, !llfi_index !1124
  %50 = getelementptr inbounds i8, i8* %49, i64 8, !llfi_index !1125
  %51 = bitcast i8* %50 to %"struct.std::_Rb_tree_header"*, !llfi_index !1126
  %52 = getelementptr inbounds %"struct.std::_Rb_tree_header", %"struct.std::_Rb_tree_header"* %51, i32 0, i32 1, !llfi_index !1127
  %53 = load i64, i64* %52, align 8, !llfi_index !1128
  %54 = add i64 %53, 1, !llfi_index !1129
  store i64 %54, i64* %52, align 8, !llfi_index !1130
  %55 = load %"struct.std::_Rb_tree_node"*, %"struct.std::_Rb_tree_node"** %14, align 8, !llfi_index !1131
  %56 = bitcast %"struct.std::_Rb_tree_node"* %55 to %"struct.std::_Rb_tree_node_base"*, !llfi_index !1132
  call void @_ZNSt17_Rb_tree_iteratorIiEC2EPSt18_Rb_tree_node_base(%"struct.std::_Rb_tree_const_iterator"* nonnull align 8 dereferenceable(8) %6, %"struct.std::_Rb_tree_node_base"* %56) #2, !llfi_index !1133
  %57 = getelementptr inbounds %"struct.std::_Rb_tree_const_iterator", %"struct.std::_Rb_tree_const_iterator"* %6, i32 0, i32 0, !llfi_index !1134
  %58 = load %"struct.std::_Rb_tree_node_base"*, %"struct.std::_Rb_tree_node_base"** %57, align 8, !llfi_index !1135
  ret %"struct.std::_Rb_tree_node_base"* %58, !llfi_index !1136
}

; Function Attrs: noinline nounwind uwtable
define linkonce_odr dso_local void @_ZNSt4pairISt17_Rb_tree_iteratorIiEbEC2IS1_bLb1EEEOT_OT0_(%"struct.std::pair"* nonnull align 8 dereferenceable(9) %0, %"struct.std::_Rb_tree_const_iterator"* nonnull align 8 dereferenceable(8) %1, i8* nonnull align 1 dereferenceable(1) %2) unnamed_addr #5 comdat align 2 {
  %4 = alloca %"struct.std::pair"*, align 8, !llfi_index !1137
  %5 = alloca %"struct.std::_Rb_tree_const_iterator"*, align 8, !llfi_index !1138
  %6 = alloca i8*, align 8, !llfi_index !1139
  store %"struct.std::pair"* %0, %"struct.std::pair"** %4, align 8, !llfi_index !1140
  store %"struct.std::_Rb_tree_const_iterator"* %1, %"struct.std::_Rb_tree_const_iterator"** %5, align 8, !llfi_index !1141
  store i8* %2, i8** %6, align 8, !llfi_index !1142
  %7 = load %"struct.std::pair"*, %"struct.std::pair"** %4, align 8, !llfi_index !1143
  %8 = bitcast %"struct.std::pair"* %7 to %"class.std::ios_base::Init"*, !llfi_index !1144
  %9 = getelementptr inbounds %"struct.std::pair", %"struct.std::pair"* %7, i32 0, i32 0, !llfi_index !1145
  %10 = load %"struct.std::_Rb_tree_const_iterator"*, %"struct.std::_Rb_tree_const_iterator"** %5, align 8, !llfi_index !1146
  %11 = call nonnull align 8 dereferenceable(8) %"struct.std::_Rb_tree_const_iterator"* @_ZSt7forwardISt17_Rb_tree_iteratorIiEEOT_RNSt16remove_referenceIS2_E4typeE(%"struct.std::_Rb_tree_const_iterator"* nonnull align 8 dereferenceable(8) %10) #2, !llfi_index !1147
  %12 = bitcast %"struct.std::_Rb_tree_const_iterator"* %9 to i8*, !llfi_index !1148
  %13 = bitcast %"struct.std::_Rb_tree_const_iterator"* %11 to i8*, !llfi_index !1149
  call void @llvm.memcpy.p0i8.p0i8.i64(i8* align 8 %12, i8* align 8 %13, i64 8, i1 false), !llfi_index !1150
  %14 = getelementptr inbounds %"struct.std::pair", %"struct.std::pair"* %7, i32 0, i32 1, !llfi_index !1151
  %15 = load i8*, i8** %6, align 8, !llfi_index !1152
  %16 = call nonnull align 1 dereferenceable(1) i8* @_ZSt7forwardIbEOT_RNSt16remove_referenceIS0_E4typeE(i8* nonnull align 1 dereferenceable(1) %15) #2, !llfi_index !1153
  %17 = load i8, i8* %16, align 1, !llfi_index !1154
  %18 = trunc i8 %17 to i1, !llfi_index !1155
  %19 = zext i1 %18 to i8, !llfi_index !1156
  store i8 %19, i8* %14, align 8, !llfi_index !1157
  ret void, !llfi_index !1158
}

; Function Attrs: mustprogress noinline nounwind uwtable
define linkonce_odr dso_local nonnull align 8 dereferenceable(8) %"struct.std::_Rb_tree_const_iterator"* @_ZSt7forwardISt17_Rb_tree_iteratorIiEEOT_RNSt16remove_referenceIS2_E4typeE(%"struct.std::_Rb_tree_const_iterator"* nonnull align 8 dereferenceable(8) %0) #7 comdat {
  %2 = alloca %"struct.std::_Rb_tree_const_iterator"*, align 8, !llfi_index !1159
  store %"struct.std::_Rb_tree_const_iterator"* %0, %"struct.std::_Rb_tree_const_iterator"** %2, align 8, !llfi_index !1160
  %3 = load %"struct.std::_Rb_tree_const_iterator"*, %"struct.std::_Rb_tree_const_iterator"** %2, align 8, !llfi_index !1161
  ret %"struct.std::_Rb_tree_const_iterator"* %3, !llfi_index !1162
}

; Function Attrs: mustprogress noinline nounwind uwtable
define linkonce_odr dso_local nonnull align 1 dereferenceable(1) i8* @_ZSt7forwardIbEOT_RNSt16remove_referenceIS0_E4typeE(i8* nonnull align 1 dereferenceable(1) %0) #7 comdat {
  %2 = alloca i8*, align 8, !llfi_index !1163
  store i8* %0, i8** %2, align 8, !llfi_index !1164
  %3 = load i8*, i8** %2, align 8, !llfi_index !1165
  ret i8* %3, !llfi_index !1166
}

; Function Attrs: mustprogress noinline uwtable
define linkonce_odr dso_local %"struct.std::_Rb_tree_node"* @_ZNKSt8_Rb_treeIiiSt9_IdentityIiESt4lessIiESaIiEE11_Alloc_nodeclIRKiEEPSt13_Rb_tree_nodeIiEOT_(%"struct.std::_Rb_tree<int, int, std::_Identity<int>, std::less<int>>::_Alloc_node"* nonnull align 8 dereferenceable(8) %0, i32* nonnull align 4 dereferenceable(4) %1) #6 comdat align 2 {
  %3 = alloca %"struct.std::_Rb_tree<int, int, std::_Identity<int>, std::less<int>>::_Alloc_node"*, align 8, !llfi_index !1167
  %4 = alloca i32*, align 8, !llfi_index !1168
  store %"struct.std::_Rb_tree<int, int, std::_Identity<int>, std::less<int>>::_Alloc_node"* %0, %"struct.std::_Rb_tree<int, int, std::_Identity<int>, std::less<int>>::_Alloc_node"** %3, align 8, !llfi_index !1169
  store i32* %1, i32** %4, align 8, !llfi_index !1170
  %5 = load %"struct.std::_Rb_tree<int, int, std::_Identity<int>, std::less<int>>::_Alloc_node"*, %"struct.std::_Rb_tree<int, int, std::_Identity<int>, std::less<int>>::_Alloc_node"** %3, align 8, !llfi_index !1171
  %6 = getelementptr inbounds %"struct.std::_Rb_tree<int, int, std::_Identity<int>, std::less<int>>::_Alloc_node", %"struct.std::_Rb_tree<int, int, std::_Identity<int>, std::less<int>>::_Alloc_node"* %5, i32 0, i32 0, !llfi_index !1172
  %7 = load %"class.std::_Rb_tree"*, %"class.std::_Rb_tree"** %6, align 8, !llfi_index !1173
  %8 = load i32*, i32** %4, align 8, !llfi_index !1174
  %9 = call nonnull align 4 dereferenceable(4) i32* @_ZSt7forwardIRKiEOT_RNSt16remove_referenceIS2_E4typeE(i32* nonnull align 4 dereferenceable(4) %8) #2, !llfi_index !1175
  %10 = call %"struct.std::_Rb_tree_node"* @_ZNSt8_Rb_treeIiiSt9_IdentityIiESt4lessIiESaIiEE14_M_create_nodeIJRKiEEEPSt13_Rb_tree_nodeIiEDpOT_(%"class.std::_Rb_tree"* nonnull align 8 dereferenceable(48) %7, i32* nonnull align 4 dereferenceable(4) %9), !llfi_index !1176
  ret %"struct.std::_Rb_tree_node"* %10, !llfi_index !1177
}

; Function Attrs: nounwind
declare dso_local void @_ZSt29_Rb_tree_insert_and_rebalancebPSt18_Rb_tree_node_baseS0_RS_(i1 zeroext, %"struct.std::_Rb_tree_node_base"*, %"struct.std::_Rb_tree_node_base"*, %"struct.std::_Rb_tree_node_base"* nonnull align 8 dereferenceable(32)) #3

; Function Attrs: mustprogress noinline uwtable
define linkonce_odr dso_local %"struct.std::_Rb_tree_node"* @_ZNSt8_Rb_treeIiiSt9_IdentityIiESt4lessIiESaIiEE14_M_create_nodeIJRKiEEEPSt13_Rb_tree_nodeIiEDpOT_(%"class.std::_Rb_tree"* nonnull align 8 dereferenceable(48) %0, i32* nonnull align 4 dereferenceable(4) %1) #6 comdat align 2 {
  %3 = alloca %"class.std::_Rb_tree"*, align 8, !llfi_index !1178
  %4 = alloca i32*, align 8, !llfi_index !1179
  %5 = alloca %"struct.std::_Rb_tree_node"*, align 8, !llfi_index !1180
  store %"class.std::_Rb_tree"* %0, %"class.std::_Rb_tree"** %3, align 8, !llfi_index !1181
  store i32* %1, i32** %4, align 8, !llfi_index !1182
  %6 = load %"class.std::_Rb_tree"*, %"class.std::_Rb_tree"** %3, align 8, !llfi_index !1183
  %7 = call %"struct.std::_Rb_tree_node"* @_ZNSt8_Rb_treeIiiSt9_IdentityIiESt4lessIiESaIiEE11_M_get_nodeEv(%"class.std::_Rb_tree"* nonnull align 8 dereferenceable(48) %6), !llfi_index !1184
  store %"struct.std::_Rb_tree_node"* %7, %"struct.std::_Rb_tree_node"** %5, align 8, !llfi_index !1185
  %8 = load %"struct.std::_Rb_tree_node"*, %"struct.std::_Rb_tree_node"** %5, align 8, !llfi_index !1186
  %9 = load i32*, i32** %4, align 8, !llfi_index !1187
  %10 = call nonnull align 4 dereferenceable(4) i32* @_ZSt7forwardIRKiEOT_RNSt16remove_referenceIS2_E4typeE(i32* nonnull align 4 dereferenceable(4) %9) #2, !llfi_index !1188
  call void @_ZNSt8_Rb_treeIiiSt9_IdentityIiESt4lessIiESaIiEE17_M_construct_nodeIJRKiEEEvPSt13_Rb_tree_nodeIiEDpOT_(%"class.std::_Rb_tree"* nonnull align 8 dereferenceable(48) %6, %"struct.std::_Rb_tree_node"* %8, i32* nonnull align 4 dereferenceable(4) %10), !llfi_index !1189
  %11 = load %"struct.std::_Rb_tree_node"*, %"struct.std::_Rb_tree_node"** %5, align 8, !llfi_index !1190
  ret %"struct.std::_Rb_tree_node"* %11, !llfi_index !1191
}

; Function Attrs: mustprogress noinline uwtable
define linkonce_odr dso_local %"struct.std::_Rb_tree_node"* @_ZNSt8_Rb_treeIiiSt9_IdentityIiESt4lessIiESaIiEE11_M_get_nodeEv(%"class.std::_Rb_tree"* nonnull align 8 dereferenceable(48) %0) #6 comdat align 2 {
  %2 = alloca %"class.std::_Rb_tree"*, align 8, !llfi_index !1192
  store %"class.std::_Rb_tree"* %0, %"class.std::_Rb_tree"** %2, align 8, !llfi_index !1193
  %3 = load %"class.std::_Rb_tree"*, %"class.std::_Rb_tree"** %2, align 8, !llfi_index !1194
  %4 = call nonnull align 1 dereferenceable(1) %"class.std::ios_base::Init"* @_ZNSt8_Rb_treeIiiSt9_IdentityIiESt4lessIiESaIiEE21_M_get_Node_allocatorEv(%"class.std::_Rb_tree"* nonnull align 8 dereferenceable(48) %3) #2, !llfi_index !1195
  %5 = call %"struct.std::_Rb_tree_node"* @_ZNSt16allocator_traitsISaISt13_Rb_tree_nodeIiEEE8allocateERS2_m(%"class.std::ios_base::Init"* nonnull align 1 dereferenceable(1) %4, i64 1), !llfi_index !1196
  ret %"struct.std::_Rb_tree_node"* %5, !llfi_index !1197
}

; Function Attrs: mustprogress noinline nounwind uwtable
define linkonce_odr dso_local void @_ZNSt8_Rb_treeIiiSt9_IdentityIiESt4lessIiESaIiEE17_M_construct_nodeIJRKiEEEvPSt13_Rb_tree_nodeIiEDpOT_(%"class.std::_Rb_tree"* nonnull align 8 dereferenceable(48) %0, %"struct.std::_Rb_tree_node"* %1, i32* nonnull align 4 dereferenceable(4) %2) #7 comdat align 2 {
  %4 = alloca %"class.std::_Rb_tree"*, align 8, !llfi_index !1198
  %5 = alloca %"struct.std::_Rb_tree_node"*, align 8, !llfi_index !1199
  %6 = alloca i32*, align 8, !llfi_index !1200
  store %"class.std::_Rb_tree"* %0, %"class.std::_Rb_tree"** %4, align 8, !llfi_index !1201
  store %"struct.std::_Rb_tree_node"* %1, %"struct.std::_Rb_tree_node"** %5, align 8, !llfi_index !1202
  store i32* %2, i32** %6, align 8, !llfi_index !1203
  %7 = load %"class.std::_Rb_tree"*, %"class.std::_Rb_tree"** %4, align 8, !llfi_index !1204
  %8 = load %"struct.std::_Rb_tree_node"*, %"struct.std::_Rb_tree_node"** %5, align 8, !llfi_index !1205
  %9 = bitcast %"struct.std::_Rb_tree_node"* %8 to i8*, !llfi_index !1206
  %10 = bitcast i8* %9 to %"struct.std::_Rb_tree_node"*, !llfi_index !1207
  %11 = call nonnull align 1 dereferenceable(1) %"class.std::ios_base::Init"* @_ZNSt8_Rb_treeIiiSt9_IdentityIiESt4lessIiESaIiEE21_M_get_Node_allocatorEv(%"class.std::_Rb_tree"* nonnull align 8 dereferenceable(48) %7) #2, !llfi_index !1208
  %12 = load %"struct.std::_Rb_tree_node"*, %"struct.std::_Rb_tree_node"** %5, align 8, !llfi_index !1209
  %13 = call i32* @_ZNSt13_Rb_tree_nodeIiE9_M_valptrEv(%"struct.std::_Rb_tree_node"* nonnull align 8 dereferenceable(36) %12), !llfi_index !1210
  %14 = load i32*, i32** %6, align 8, !llfi_index !1211
  %15 = call nonnull align 4 dereferenceable(4) i32* @_ZSt7forwardIRKiEOT_RNSt16remove_referenceIS2_E4typeE(i32* nonnull align 4 dereferenceable(4) %14) #2, !llfi_index !1212
  call void @_ZNSt16allocator_traitsISaISt13_Rb_tree_nodeIiEEE9constructIiJRKiEEEvRS2_PT_DpOT0_(%"class.std::ios_base::Init"* nonnull align 1 dereferenceable(1) %11, i32* %13, i32* nonnull align 4 dereferenceable(4) %15) #2, !llfi_index !1213
  ret void, !llfi_index !1214
}

; Function Attrs: mustprogress noinline nounwind uwtable
define linkonce_odr dso_local void @_ZNSt16allocator_traitsISaISt13_Rb_tree_nodeIiEEE9constructIiJRKiEEEvRS2_PT_DpOT0_(%"class.std::ios_base::Init"* nonnull align 1 dereferenceable(1) %0, i32* %1, i32* nonnull align 4 dereferenceable(4) %2) #7 comdat align 2 {
  %4 = alloca %"class.std::ios_base::Init"*, align 8, !llfi_index !1215
  %5 = alloca i32*, align 8, !llfi_index !1216
  %6 = alloca i32*, align 8, !llfi_index !1217
  store %"class.std::ios_base::Init"* %0, %"class.std::ios_base::Init"** %4, align 8, !llfi_index !1218
  store i32* %1, i32** %5, align 8, !llfi_index !1219
  store i32* %2, i32** %6, align 8, !llfi_index !1220
  %7 = load %"class.std::ios_base::Init"*, %"class.std::ios_base::Init"** %4, align 8, !llfi_index !1221
  %8 = bitcast %"class.std::ios_base::Init"* %7 to %"class.std::ios_base::Init"*, !llfi_index !1222
  %9 = load i32*, i32** %5, align 8, !llfi_index !1223
  %10 = load i32*, i32** %6, align 8, !llfi_index !1224
  %11 = call nonnull align 4 dereferenceable(4) i32* @_ZSt7forwardIRKiEOT_RNSt16remove_referenceIS2_E4typeE(i32* nonnull align 4 dereferenceable(4) %10) #2, !llfi_index !1225
  call void @_ZN9__gnu_cxx13new_allocatorISt13_Rb_tree_nodeIiEE9constructIiJRKiEEEvPT_DpOT0_(%"class.std::ios_base::Init"* nonnull align 1 dereferenceable(1) %8, i32* %9, i32* nonnull align 4 dereferenceable(4) %11) #2, !llfi_index !1226
  ret void, !llfi_index !1227
}

; Function Attrs: mustprogress noinline nounwind uwtable
define linkonce_odr dso_local void @_ZN9__gnu_cxx13new_allocatorISt13_Rb_tree_nodeIiEE9constructIiJRKiEEEvPT_DpOT0_(%"class.std::ios_base::Init"* nonnull align 1 dereferenceable(1) %0, i32* %1, i32* nonnull align 4 dereferenceable(4) %2) #7 comdat align 2 {
  %4 = alloca %"class.std::ios_base::Init"*, align 8, !llfi_index !1228
  %5 = alloca i32*, align 8, !llfi_index !1229
  %6 = alloca i32*, align 8, !llfi_index !1230
  store %"class.std::ios_base::Init"* %0, %"class.std::ios_base::Init"** %4, align 8, !llfi_index !1231
  store i32* %1, i32** %5, align 8, !llfi_index !1232
  store i32* %2, i32** %6, align 8, !llfi_index !1233
  %7 = load %"class.std::ios_base::Init"*, %"class.std::ios_base::Init"** %4, align 8, !llfi_index !1234
  %8 = load i32*, i32** %5, align 8, !llfi_index !1235
  %9 = bitcast i32* %8 to i8*, !llfi_index !1236
  %10 = bitcast i8* %9 to i32*, !llfi_index !1237
  %11 = load i32*, i32** %6, align 8, !llfi_index !1238
  %12 = call nonnull align 4 dereferenceable(4) i32* @_ZSt7forwardIRKiEOT_RNSt16remove_referenceIS2_E4typeE(i32* nonnull align 4 dereferenceable(4) %11) #2, !llfi_index !1239
  %13 = load i32, i32* %12, align 4, !llfi_index !1240
  store i32 %13, i32* %10, align 4, !llfi_index !1241
  ret void, !llfi_index !1242
}

; Function Attrs: mustprogress noinline uwtable
define linkonce_odr dso_local %"struct.std::_Rb_tree_node"* @_ZNSt16allocator_traitsISaISt13_Rb_tree_nodeIiEEE8allocateERS2_m(%"class.std::ios_base::Init"* nonnull align 1 dereferenceable(1) %0, i64 %1) #6 comdat align 2 {
  %3 = alloca %"class.std::ios_base::Init"*, align 8, !llfi_index !1243
  %4 = alloca i64, align 8, !llfi_index !1244
  store %"class.std::ios_base::Init"* %0, %"class.std::ios_base::Init"** %3, align 8, !llfi_index !1245
  store i64 %1, i64* %4, align 8, !llfi_index !1246
  %5 = load %"class.std::ios_base::Init"*, %"class.std::ios_base::Init"** %3, align 8, !llfi_index !1247
  %6 = bitcast %"class.std::ios_base::Init"* %5 to %"class.std::ios_base::Init"*, !llfi_index !1248
  %7 = load i64, i64* %4, align 8, !llfi_index !1249
  %8 = call %"struct.std::_Rb_tree_node"* @_ZN9__gnu_cxx13new_allocatorISt13_Rb_tree_nodeIiEE8allocateEmPKv(%"class.std::ios_base::Init"* nonnull align 1 dereferenceable(1) %6, i64 %7, i8* null), !llfi_index !1250
  ret %"struct.std::_Rb_tree_node"* %8, !llfi_index !1251
}

; Function Attrs: mustprogress noinline uwtable
define linkonce_odr dso_local %"struct.std::_Rb_tree_node"* @_ZN9__gnu_cxx13new_allocatorISt13_Rb_tree_nodeIiEE8allocateEmPKv(%"class.std::ios_base::Init"* nonnull align 1 dereferenceable(1) %0, i64 %1, i8* %2) #6 comdat align 2 {
  %4 = alloca %"class.std::ios_base::Init"*, align 8, !llfi_index !1252
  %5 = alloca i64, align 8, !llfi_index !1253
  %6 = alloca i8*, align 8, !llfi_index !1254
  store %"class.std::ios_base::Init"* %0, %"class.std::ios_base::Init"** %4, align 8, !llfi_index !1255
  store i64 %1, i64* %5, align 8, !llfi_index !1256
  store i8* %2, i8** %6, align 8, !llfi_index !1257
  %7 = load %"class.std::ios_base::Init"*, %"class.std::ios_base::Init"** %4, align 8, !llfi_index !1258
  %8 = load i64, i64* %5, align 8, !llfi_index !1259
  %9 = call i64 @_ZNK9__gnu_cxx13new_allocatorISt13_Rb_tree_nodeIiEE8max_sizeEv(%"class.std::ios_base::Init"* nonnull align 1 dereferenceable(1) %7) #2, !llfi_index !1260
  %10 = icmp ugt i64 %8, %9, !llfi_index !1261
  br i1 %10, label %11, label %12, !llfi_index !1262

11:                                               ; preds = %3
  call void @_ZSt17__throw_bad_allocv() #15, !llfi_index !1263
  unreachable, !llfi_index !1264

12:                                               ; preds = %3
  %13 = load i64, i64* %5, align 8, !llfi_index !1265
  %14 = mul i64 %13, 40, !llfi_index !1266
  %15 = call noalias nonnull i8* @_Znwm(i64 %14) #16, !llfi_index !1267
  %16 = bitcast i8* %15 to %"struct.std::_Rb_tree_node"*, !llfi_index !1268
  ret %"struct.std::_Rb_tree_node"* %16, !llfi_index !1269
}

; Function Attrs: mustprogress noinline nounwind uwtable
define linkonce_odr dso_local i64 @_ZNK9__gnu_cxx13new_allocatorISt13_Rb_tree_nodeIiEE8max_sizeEv(%"class.std::ios_base::Init"* nonnull align 1 dereferenceable(1) %0) #7 comdat align 2 {
  %2 = alloca %"class.std::ios_base::Init"*, align 8, !llfi_index !1270
  store %"class.std::ios_base::Init"* %0, %"class.std::ios_base::Init"** %2, align 8, !llfi_index !1271
  %3 = load %"class.std::ios_base::Init"*, %"class.std::ios_base::Init"** %2, align 8, !llfi_index !1272
  ret i64 230584300921369395, !llfi_index !1273
}

; Function Attrs: noreturn
declare dso_local void @_ZSt17__throw_bad_allocv() #11

; Function Attrs: nobuiltin allocsize(0)
declare dso_local nonnull i8* @_Znwm(i64) #12

; Function Attrs: mustprogress noinline nounwind uwtable
define linkonce_odr dso_local %"struct.std::_Rb_tree_node_base"* @_ZNSt8_Rb_treeIiiSt9_IdentityIiESt4lessIiESaIiEE5beginEv(%"class.std::_Rb_tree"* nonnull align 8 dereferenceable(48) %0) #7 comdat align 2 {
  %2 = alloca %"struct.std::_Rb_tree_const_iterator", align 8, !llfi_index !1274
  %3 = alloca %"class.std::_Rb_tree"*, align 8, !llfi_index !1275
  store %"class.std::_Rb_tree"* %0, %"class.std::_Rb_tree"** %3, align 8, !llfi_index !1276
  %4 = load %"class.std::_Rb_tree"*, %"class.std::_Rb_tree"** %3, align 8, !llfi_index !1277
  %5 = getelementptr inbounds %"class.std::_Rb_tree", %"class.std::_Rb_tree"* %4, i32 0, i32 0, !llfi_index !1278
  %6 = bitcast %"struct.std::_Rb_tree<int, int, std::_Identity<int>, std::less<int>>::_Rb_tree_impl"* %5 to i8*, !llfi_index !1279
  %7 = getelementptr inbounds i8, i8* %6, i64 8, !llfi_index !1280
  %8 = bitcast i8* %7 to %"struct.std::_Rb_tree_header"*, !llfi_index !1281
  %9 = getelementptr inbounds %"struct.std::_Rb_tree_header", %"struct.std::_Rb_tree_header"* %8, i32 0, i32 0, !llfi_index !1282
  %10 = getelementptr inbounds %"struct.std::_Rb_tree_node_base", %"struct.std::_Rb_tree_node_base"* %9, i32 0, i32 2, !llfi_index !1283
  %11 = load %"struct.std::_Rb_tree_node_base"*, %"struct.std::_Rb_tree_node_base"** %10, align 8, !llfi_index !1284
  call void @_ZNSt17_Rb_tree_iteratorIiEC2EPSt18_Rb_tree_node_base(%"struct.std::_Rb_tree_const_iterator"* nonnull align 8 dereferenceable(8) %2, %"struct.std::_Rb_tree_node_base"* %11) #2, !llfi_index !1285
  %12 = getelementptr inbounds %"struct.std::_Rb_tree_const_iterator", %"struct.std::_Rb_tree_const_iterator"* %2, i32 0, i32 0, !llfi_index !1286
  %13 = load %"struct.std::_Rb_tree_node_base"*, %"struct.std::_Rb_tree_node_base"** %12, align 8, !llfi_index !1287
  ret %"struct.std::_Rb_tree_node_base"* %13, !llfi_index !1288
}

; Function Attrs: noinline nounwind uwtable
define linkonce_odr dso_local void @_ZNSt4pairIPSt18_Rb_tree_node_baseS1_EC2IRPSt13_Rb_tree_nodeIiERS1_Lb1EEEOT_OT0_(%"struct.std::pair.4"* nonnull align 8 dereferenceable(16) %0, %"struct.std::_Rb_tree_node"** nonnull align 8 dereferenceable(8) %1, %"struct.std::_Rb_tree_node_base"** nonnull align 8 dereferenceable(8) %2) unnamed_addr #5 comdat align 2 {
  %4 = alloca %"struct.std::pair.4"*, align 8, !llfi_index !1289
  %5 = alloca %"struct.std::_Rb_tree_node"**, align 8, !llfi_index !1290
  %6 = alloca %"struct.std::_Rb_tree_node_base"**, align 8, !llfi_index !1291
  store %"struct.std::pair.4"* %0, %"struct.std::pair.4"** %4, align 8, !llfi_index !1292
  store %"struct.std::_Rb_tree_node"** %1, %"struct.std::_Rb_tree_node"*** %5, align 8, !llfi_index !1293
  store %"struct.std::_Rb_tree_node_base"** %2, %"struct.std::_Rb_tree_node_base"*** %6, align 8, !llfi_index !1294
  %7 = load %"struct.std::pair.4"*, %"struct.std::pair.4"** %4, align 8, !llfi_index !1295
  %8 = bitcast %"struct.std::pair.4"* %7 to %"class.std::ios_base::Init"*, !llfi_index !1296
  %9 = getelementptr inbounds %"struct.std::pair.4", %"struct.std::pair.4"* %7, i32 0, i32 0, !llfi_index !1297
  %10 = load %"struct.std::_Rb_tree_node"**, %"struct.std::_Rb_tree_node"*** %5, align 8, !llfi_index !1298
  %11 = call nonnull align 8 dereferenceable(8) %"struct.std::_Rb_tree_node"** @_ZSt7forwardIRPSt13_Rb_tree_nodeIiEEOT_RNSt16remove_referenceIS4_E4typeE(%"struct.std::_Rb_tree_node"** nonnull align 8 dereferenceable(8) %10) #2, !llfi_index !1299
  %12 = load %"struct.std::_Rb_tree_node"*, %"struct.std::_Rb_tree_node"** %11, align 8, !llfi_index !1300
  %13 = bitcast %"struct.std::_Rb_tree_node"* %12 to %"struct.std::_Rb_tree_node_base"*, !llfi_index !1301
  store %"struct.std::_Rb_tree_node_base"* %13, %"struct.std::_Rb_tree_node_base"** %9, align 8, !llfi_index !1302
  %14 = getelementptr inbounds %"struct.std::pair.4", %"struct.std::pair.4"* %7, i32 0, i32 1, !llfi_index !1303
  %15 = load %"struct.std::_Rb_tree_node_base"**, %"struct.std::_Rb_tree_node_base"*** %6, align 8, !llfi_index !1304
  %16 = call nonnull align 8 dereferenceable(8) %"struct.std::_Rb_tree_node_base"** @_ZSt7forwardIRPSt18_Rb_tree_node_baseEOT_RNSt16remove_referenceIS3_E4typeE(%"struct.std::_Rb_tree_node_base"** nonnull align 8 dereferenceable(8) %15) #2, !llfi_index !1305
  %17 = load %"struct.std::_Rb_tree_node_base"*, %"struct.std::_Rb_tree_node_base"** %16, align 8, !llfi_index !1306
  store %"struct.std::_Rb_tree_node_base"* %17, %"struct.std::_Rb_tree_node_base"** %14, align 8, !llfi_index !1307
  ret void, !llfi_index !1308
}

; Function Attrs: mustprogress noinline nounwind uwtable
define linkonce_odr dso_local nonnull align 8 dereferenceable(8) %"struct.std::_Rb_tree_const_iterator"* @_ZNSt17_Rb_tree_iteratorIiEmmEv(%"struct.std::_Rb_tree_const_iterator"* nonnull align 8 dereferenceable(8) %0) #7 comdat align 2 {
  %2 = alloca %"struct.std::_Rb_tree_const_iterator"*, align 8, !llfi_index !1309
  store %"struct.std::_Rb_tree_const_iterator"* %0, %"struct.std::_Rb_tree_const_iterator"** %2, align 8, !llfi_index !1310
  %3 = load %"struct.std::_Rb_tree_const_iterator"*, %"struct.std::_Rb_tree_const_iterator"** %2, align 8, !llfi_index !1311
  %4 = getelementptr inbounds %"struct.std::_Rb_tree_const_iterator", %"struct.std::_Rb_tree_const_iterator"* %3, i32 0, i32 0, !llfi_index !1312
  %5 = load %"struct.std::_Rb_tree_node_base"*, %"struct.std::_Rb_tree_node_base"** %4, align 8, !llfi_index !1313
  %6 = call %"struct.std::_Rb_tree_node_base"* @_ZSt18_Rb_tree_decrementPSt18_Rb_tree_node_base(%"struct.std::_Rb_tree_node_base"* %5) #17, !llfi_index !1314
  %7 = getelementptr inbounds %"struct.std::_Rb_tree_const_iterator", %"struct.std::_Rb_tree_const_iterator"* %3, i32 0, i32 0, !llfi_index !1315
  store %"struct.std::_Rb_tree_node_base"* %6, %"struct.std::_Rb_tree_node_base"** %7, align 8, !llfi_index !1316
  ret %"struct.std::_Rb_tree_const_iterator"* %3, !llfi_index !1317
}

; Function Attrs: noinline nounwind uwtable
define linkonce_odr dso_local void @_ZNSt4pairIPSt18_Rb_tree_node_baseS1_EC2IRS1_Lb1EEEOT_RKS1_(%"struct.std::pair.4"* nonnull align 8 dereferenceable(16) %0, %"struct.std::_Rb_tree_node_base"** nonnull align 8 dereferenceable(8) %1, %"struct.std::_Rb_tree_node_base"** nonnull align 8 dereferenceable(8) %2) unnamed_addr #5 comdat align 2 {
  %4 = alloca %"struct.std::pair.4"*, align 8, !llfi_index !1318
  %5 = alloca %"struct.std::_Rb_tree_node_base"**, align 8, !llfi_index !1319
  %6 = alloca %"struct.std::_Rb_tree_node_base"**, align 8, !llfi_index !1320
  store %"struct.std::pair.4"* %0, %"struct.std::pair.4"** %4, align 8, !llfi_index !1321
  store %"struct.std::_Rb_tree_node_base"** %1, %"struct.std::_Rb_tree_node_base"*** %5, align 8, !llfi_index !1322
  store %"struct.std::_Rb_tree_node_base"** %2, %"struct.std::_Rb_tree_node_base"*** %6, align 8, !llfi_index !1323
  %7 = load %"struct.std::pair.4"*, %"struct.std::pair.4"** %4, align 8, !llfi_index !1324
  %8 = bitcast %"struct.std::pair.4"* %7 to %"class.std::ios_base::Init"*, !llfi_index !1325
  %9 = getelementptr inbounds %"struct.std::pair.4", %"struct.std::pair.4"* %7, i32 0, i32 0, !llfi_index !1326
  %10 = load %"struct.std::_Rb_tree_node_base"**, %"struct.std::_Rb_tree_node_base"*** %5, align 8, !llfi_index !1327
  %11 = call nonnull align 8 dereferenceable(8) %"struct.std::_Rb_tree_node_base"** @_ZSt7forwardIRPSt18_Rb_tree_node_baseEOT_RNSt16remove_referenceIS3_E4typeE(%"struct.std::_Rb_tree_node_base"** nonnull align 8 dereferenceable(8) %10) #2, !llfi_index !1328
  %12 = load %"struct.std::_Rb_tree_node_base"*, %"struct.std::_Rb_tree_node_base"** %11, align 8, !llfi_index !1329
  store %"struct.std::_Rb_tree_node_base"* %12, %"struct.std::_Rb_tree_node_base"** %9, align 8, !llfi_index !1330
  %13 = getelementptr inbounds %"struct.std::pair.4", %"struct.std::pair.4"* %7, i32 0, i32 1, !llfi_index !1331
  %14 = load %"struct.std::_Rb_tree_node_base"**, %"struct.std::_Rb_tree_node_base"*** %6, align 8, !llfi_index !1332
  %15 = load %"struct.std::_Rb_tree_node_base"*, %"struct.std::_Rb_tree_node_base"** %14, align 8, !llfi_index !1333
  store %"struct.std::_Rb_tree_node_base"* %15, %"struct.std::_Rb_tree_node_base"** %13, align 8, !llfi_index !1334
  ret void, !llfi_index !1335
}

; Function Attrs: mustprogress noinline nounwind uwtable
define linkonce_odr dso_local nonnull align 8 dereferenceable(8) %"struct.std::_Rb_tree_node_base"** @_ZSt7forwardIRPSt18_Rb_tree_node_baseEOT_RNSt16remove_referenceIS3_E4typeE(%"struct.std::_Rb_tree_node_base"** nonnull align 8 dereferenceable(8) %0) #7 comdat {
  %2 = alloca %"struct.std::_Rb_tree_node_base"**, align 8, !llfi_index !1336
  store %"struct.std::_Rb_tree_node_base"** %0, %"struct.std::_Rb_tree_node_base"*** %2, align 8, !llfi_index !1337
  %3 = load %"struct.std::_Rb_tree_node_base"**, %"struct.std::_Rb_tree_node_base"*** %2, align 8, !llfi_index !1338
  ret %"struct.std::_Rb_tree_node_base"** %3, !llfi_index !1339
}

; Function Attrs: nounwind readonly willreturn
declare dso_local %"struct.std::_Rb_tree_node_base"* @_ZSt18_Rb_tree_decrementPSt18_Rb_tree_node_base(%"struct.std::_Rb_tree_node_base"*) #13

; Function Attrs: mustprogress noinline nounwind uwtable
define linkonce_odr dso_local nonnull align 8 dereferenceable(8) %"struct.std::_Rb_tree_node"** @_ZSt7forwardIRPSt13_Rb_tree_nodeIiEEOT_RNSt16remove_referenceIS4_E4typeE(%"struct.std::_Rb_tree_node"** nonnull align 8 dereferenceable(8) %0) #7 comdat {
  %2 = alloca %"struct.std::_Rb_tree_node"**, align 8, !llfi_index !1340
  store %"struct.std::_Rb_tree_node"** %0, %"struct.std::_Rb_tree_node"*** %2, align 8, !llfi_index !1341
  %3 = load %"struct.std::_Rb_tree_node"**, %"struct.std::_Rb_tree_node"*** %2, align 8, !llfi_index !1342
  ret %"struct.std::_Rb_tree_node"** %3, !llfi_index !1343
}

; Function Attrs: noinline nounwind uwtable
define linkonce_odr dso_local void @_ZNSt8_Rb_treeIiiSt9_IdentityIiESt4lessIiESaIiEEC2Ev(%"class.std::_Rb_tree"* nonnull align 8 dereferenceable(48) %0) unnamed_addr #5 comdat align 2 {
  %2 = alloca %"class.std::_Rb_tree"*, align 8, !llfi_index !1344
  store %"class.std::_Rb_tree"* %0, %"class.std::_Rb_tree"** %2, align 8, !llfi_index !1345
  %3 = load %"class.std::_Rb_tree"*, %"class.std::_Rb_tree"** %2, align 8, !llfi_index !1346
  %4 = getelementptr inbounds %"class.std::_Rb_tree", %"class.std::_Rb_tree"* %3, i32 0, i32 0, !llfi_index !1347
  call void @_ZNSt8_Rb_treeIiiSt9_IdentityIiESt4lessIiESaIiEE13_Rb_tree_implIS3_Lb1EEC2Ev(%"struct.std::_Rb_tree<int, int, std::_Identity<int>, std::less<int>>::_Rb_tree_impl"* nonnull align 8 dereferenceable(48) %4) #2, !llfi_index !1348
  ret void, !llfi_index !1349
}

; Function Attrs: noinline nounwind uwtable
define linkonce_odr dso_local void @_ZNSt8_Rb_treeIiiSt9_IdentityIiESt4lessIiESaIiEE13_Rb_tree_implIS3_Lb1EEC2Ev(%"struct.std::_Rb_tree<int, int, std::_Identity<int>, std::less<int>>::_Rb_tree_impl"* nonnull align 8 dereferenceable(48) %0) unnamed_addr #5 comdat align 2 {
  %2 = alloca %"struct.std::_Rb_tree<int, int, std::_Identity<int>, std::less<int>>::_Rb_tree_impl"*, align 8, !llfi_index !1350
  store %"struct.std::_Rb_tree<int, int, std::_Identity<int>, std::less<int>>::_Rb_tree_impl"* %0, %"struct.std::_Rb_tree<int, int, std::_Identity<int>, std::less<int>>::_Rb_tree_impl"** %2, align 8, !llfi_index !1351
  %3 = load %"struct.std::_Rb_tree<int, int, std::_Identity<int>, std::less<int>>::_Rb_tree_impl"*, %"struct.std::_Rb_tree<int, int, std::_Identity<int>, std::less<int>>::_Rb_tree_impl"** %2, align 8, !llfi_index !1352
  %4 = bitcast %"struct.std::_Rb_tree<int, int, std::_Identity<int>, std::less<int>>::_Rb_tree_impl"* %3 to %"class.std::ios_base::Init"*, !llfi_index !1353
  call void @_ZNSaISt13_Rb_tree_nodeIiEEC2Ev(%"class.std::ios_base::Init"* nonnull align 1 dereferenceable(1) %4) #2, !llfi_index !1354
  %5 = bitcast %"struct.std::_Rb_tree<int, int, std::_Identity<int>, std::less<int>>::_Rb_tree_impl"* %3 to %"struct.std::_Rb_tree_key_compare"*, !llfi_index !1355
  call void @_ZNSt20_Rb_tree_key_compareISt4lessIiEEC2Ev(%"struct.std::_Rb_tree_key_compare"* nonnull align 1 dereferenceable(1) %5) #2, !llfi_index !1356
  %6 = bitcast %"struct.std::_Rb_tree<int, int, std::_Identity<int>, std::less<int>>::_Rb_tree_impl"* %3 to i8*, !llfi_index !1357
  %7 = getelementptr inbounds i8, i8* %6, i64 8, !llfi_index !1358
  %8 = bitcast i8* %7 to %"struct.std::_Rb_tree_header"*, !llfi_index !1359
  call void @_ZNSt15_Rb_tree_headerC2Ev(%"struct.std::_Rb_tree_header"* nonnull align 8 dereferenceable(40) %8) #2, !llfi_index !1360
  ret void, !llfi_index !1361
}

; Function Attrs: noinline nounwind uwtable
define linkonce_odr dso_local void @_ZNSaISt13_Rb_tree_nodeIiEEC2Ev(%"class.std::ios_base::Init"* nonnull align 1 dereferenceable(1) %0) unnamed_addr #5 comdat align 2 {
  %2 = alloca %"class.std::ios_base::Init"*, align 8, !llfi_index !1362
  store %"class.std::ios_base::Init"* %0, %"class.std::ios_base::Init"** %2, align 8, !llfi_index !1363
  %3 = load %"class.std::ios_base::Init"*, %"class.std::ios_base::Init"** %2, align 8, !llfi_index !1364
  %4 = bitcast %"class.std::ios_base::Init"* %3 to %"class.std::ios_base::Init"*, !llfi_index !1365
  call void @_ZN9__gnu_cxx13new_allocatorISt13_Rb_tree_nodeIiEEC2Ev(%"class.std::ios_base::Init"* nonnull align 1 dereferenceable(1) %4) #2, !llfi_index !1366
  ret void, !llfi_index !1367
}

; Function Attrs: noinline nounwind uwtable
define linkonce_odr dso_local void @_ZNSt20_Rb_tree_key_compareISt4lessIiEEC2Ev(%"struct.std::_Rb_tree_key_compare"* nonnull align 1 dereferenceable(1) %0) unnamed_addr #5 comdat align 2 {
  %2 = alloca %"struct.std::_Rb_tree_key_compare"*, align 8, !llfi_index !1368
  store %"struct.std::_Rb_tree_key_compare"* %0, %"struct.std::_Rb_tree_key_compare"** %2, align 8, !llfi_index !1369
  %3 = load %"struct.std::_Rb_tree_key_compare"*, %"struct.std::_Rb_tree_key_compare"** %2, align 8, !llfi_index !1370
  %4 = getelementptr inbounds %"struct.std::_Rb_tree_key_compare", %"struct.std::_Rb_tree_key_compare"* %3, i32 0, i32 0, !llfi_index !1371
  ret void, !llfi_index !1372
}

; Function Attrs: noinline nounwind uwtable
define linkonce_odr dso_local void @_ZNSt15_Rb_tree_headerC2Ev(%"struct.std::_Rb_tree_header"* nonnull align 8 dereferenceable(40) %0) unnamed_addr #5 comdat align 2 personality i8* bitcast (i32 (...)* @__gxx_personality_v0 to i8*) {
  %2 = alloca %"struct.std::_Rb_tree_header"*, align 8, !llfi_index !1373
  store %"struct.std::_Rb_tree_header"* %0, %"struct.std::_Rb_tree_header"** %2, align 8, !llfi_index !1374
  %3 = load %"struct.std::_Rb_tree_header"*, %"struct.std::_Rb_tree_header"** %2, align 8, !llfi_index !1375
  %4 = getelementptr inbounds %"struct.std::_Rb_tree_header", %"struct.std::_Rb_tree_header"* %3, i32 0, i32 0, !llfi_index !1376
  %5 = getelementptr inbounds %"struct.std::_Rb_tree_header", %"struct.std::_Rb_tree_header"* %3, i32 0, i32 0, !llfi_index !1377
  %6 = getelementptr inbounds %"struct.std::_Rb_tree_node_base", %"struct.std::_Rb_tree_node_base"* %5, i32 0, i32 0, !llfi_index !1378
  store i32 0, i32* %6, align 8, !llfi_index !1379
  invoke void @_ZNSt15_Rb_tree_header8_M_resetEv(%"struct.std::_Rb_tree_header"* nonnull align 8 dereferenceable(40) %3)
          to label %7 unwind label %8, !llfi_index !1380

7:                                                ; preds = %1
  ret void, !llfi_index !1381

8:                                                ; preds = %1
  %9 = landingpad { i8*, i32 }
          catch i8* null, !llfi_index !1382
  %10 = extractvalue { i8*, i32 } %9, 0, !llfi_index !1383
  call void @__clang_call_terminate(i8* %10) #14, !llfi_index !1384
  unreachable, !llfi_index !1385
}

; Function Attrs: mustprogress noinline nounwind uwtable
define linkonce_odr dso_local void @_ZNSt15_Rb_tree_header8_M_resetEv(%"struct.std::_Rb_tree_header"* nonnull align 8 dereferenceable(40) %0) #7 comdat align 2 {
  %2 = alloca %"struct.std::_Rb_tree_header"*, align 8, !llfi_index !1386
  store %"struct.std::_Rb_tree_header"* %0, %"struct.std::_Rb_tree_header"** %2, align 8, !llfi_index !1387
  %3 = load %"struct.std::_Rb_tree_header"*, %"struct.std::_Rb_tree_header"** %2, align 8, !llfi_index !1388
  %4 = getelementptr inbounds %"struct.std::_Rb_tree_header", %"struct.std::_Rb_tree_header"* %3, i32 0, i32 0, !llfi_index !1389
  %5 = getelementptr inbounds %"struct.std::_Rb_tree_node_base", %"struct.std::_Rb_tree_node_base"* %4, i32 0, i32 1, !llfi_index !1390
  store %"struct.std::_Rb_tree_node_base"* null, %"struct.std::_Rb_tree_node_base"** %5, align 8, !llfi_index !1391
  %6 = getelementptr inbounds %"struct.std::_Rb_tree_header", %"struct.std::_Rb_tree_header"* %3, i32 0, i32 0, !llfi_index !1392
  %7 = getelementptr inbounds %"struct.std::_Rb_tree_header", %"struct.std::_Rb_tree_header"* %3, i32 0, i32 0, !llfi_index !1393
  %8 = getelementptr inbounds %"struct.std::_Rb_tree_node_base", %"struct.std::_Rb_tree_node_base"* %7, i32 0, i32 2, !llfi_index !1394
  store %"struct.std::_Rb_tree_node_base"* %6, %"struct.std::_Rb_tree_node_base"** %8, align 8, !llfi_index !1395
  %9 = getelementptr inbounds %"struct.std::_Rb_tree_header", %"struct.std::_Rb_tree_header"* %3, i32 0, i32 0, !llfi_index !1396
  %10 = getelementptr inbounds %"struct.std::_Rb_tree_header", %"struct.std::_Rb_tree_header"* %3, i32 0, i32 0, !llfi_index !1397
  %11 = getelementptr inbounds %"struct.std::_Rb_tree_node_base", %"struct.std::_Rb_tree_node_base"* %10, i32 0, i32 3, !llfi_index !1398
  store %"struct.std::_Rb_tree_node_base"* %9, %"struct.std::_Rb_tree_node_base"** %11, align 8, !llfi_index !1399
  %12 = getelementptr inbounds %"struct.std::_Rb_tree_header", %"struct.std::_Rb_tree_header"* %3, i32 0, i32 1, !llfi_index !1400
  store i64 0, i64* %12, align 8, !llfi_index !1401
  ret void, !llfi_index !1402
}

; Function Attrs: noinline nounwind uwtable
define linkonce_odr dso_local void @_ZN9__gnu_cxx13new_allocatorISt13_Rb_tree_nodeIiEEC2Ev(%"class.std::ios_base::Init"* nonnull align 1 dereferenceable(1) %0) unnamed_addr #5 comdat align 2 {
  %2 = alloca %"class.std::ios_base::Init"*, align 8, !llfi_index !1403
  store %"class.std::ios_base::Init"* %0, %"class.std::ios_base::Init"** %2, align 8, !llfi_index !1404
  %3 = load %"class.std::ios_base::Init"*, %"class.std::ios_base::Init"** %2, align 8, !llfi_index !1405
  ret void, !llfi_index !1406
}

attributes #0 = { noinline uwtable "frame-pointer"="all" "min-legal-vector-width"="0" "no-trapping-math"="true" "stack-protector-buffer-size"="8" "target-cpu"="x86-64" "target-features"="+cx8,+fxsr,+mmx,+sse,+sse2,+x87" "tune-cpu"="generic" }
attributes #1 = { "frame-pointer"="all" "no-trapping-math"="true" "stack-protector-buffer-size"="8" "target-cpu"="x86-64" "target-features"="+cx8,+fxsr,+mmx,+sse,+sse2,+x87" "tune-cpu"="generic" }
attributes #2 = { nounwind }
attributes #3 = { nounwind "frame-pointer"="all" "no-trapping-math"="true" "stack-protector-buffer-size"="8" "target-cpu"="x86-64" "target-features"="+cx8,+fxsr,+mmx,+sse,+sse2,+x87" "tune-cpu"="generic" }
attributes #4 = { mustprogress noinline norecurse uwtable "frame-pointer"="all" "min-legal-vector-width"="0" "no-trapping-math"="true" "stack-protector-buffer-size"="8" "target-cpu"="x86-64" "target-features"="+cx8,+fxsr,+mmx,+sse,+sse2,+x87" "tune-cpu"="generic" }
attributes #5 = { noinline nounwind uwtable "frame-pointer"="all" "min-legal-vector-width"="0" "no-trapping-math"="true" "stack-protector-buffer-size"="8" "target-cpu"="x86-64" "target-features"="+cx8,+fxsr,+mmx,+sse,+sse2,+x87" "tune-cpu"="generic" }
attributes #6 = { mustprogress noinline uwtable "frame-pointer"="all" "min-legal-vector-width"="0" "no-trapping-math"="true" "stack-protector-buffer-size"="8" "target-cpu"="x86-64" "target-features"="+cx8,+fxsr,+mmx,+sse,+sse2,+x87" "tune-cpu"="generic" }
attributes #7 = { mustprogress noinline nounwind uwtable "frame-pointer"="all" "min-legal-vector-width"="0" "no-trapping-math"="true" "stack-protector-buffer-size"="8" "target-cpu"="x86-64" "target-features"="+cx8,+fxsr,+mmx,+sse,+sse2,+x87" "tune-cpu"="generic" }
attributes #8 = { argmemonly nofree nounwind willreturn }
attributes #9 = { noinline noreturn nounwind }
attributes #10 = { nobuiltin nounwind "frame-pointer"="all" "no-trapping-math"="true" "stack-protector-buffer-size"="8" "target-cpu"="x86-64" "target-features"="+cx8,+fxsr,+mmx,+sse,+sse2,+x87" "tune-cpu"="generic" }
attributes #11 = { noreturn "frame-pointer"="all" "no-trapping-math"="true" "stack-protector-buffer-size"="8" "target-cpu"="x86-64" "target-features"="+cx8,+fxsr,+mmx,+sse,+sse2,+x87" "tune-cpu"="generic" }
attributes #12 = { nobuiltin allocsize(0) "frame-pointer"="all" "no-trapping-math"="true" "stack-protector-buffer-size"="8" "target-cpu"="x86-64" "target-features"="+cx8,+fxsr,+mmx,+sse,+sse2,+x87" "tune-cpu"="generic" }
attributes #13 = { nounwind readonly willreturn "frame-pointer"="all" "no-trapping-math"="true" "stack-protector-buffer-size"="8" "target-cpu"="x86-64" "target-features"="+cx8,+fxsr,+mmx,+sse,+sse2,+x87" "tune-cpu"="generic" }
attributes #14 = { noreturn nounwind }
attributes #15 = { noreturn }
attributes #16 = { allocsize(0) }
attributes #17 = { nounwind readonly willreturn }

!llvm.ident = !{!0}
!llvm.module.flags = !{!1, !2, !3}

!0 = !{!"clang version 13.0.0 (https://github.com/llvm/llvm-project.git d7b669b3a30345cfcdb2fde2af6f48aa4b94845d)"}
!1 = !{i32 1, !"wchar_size", i32 4}
!2 = !{i32 7, !"uwtable", i32 1}
!3 = !{i32 7, !"frame-pointer", i32 2}
!4 = !{i64 1}
!5 = !{i64 2}
!6 = !{i64 3}
!7 = !{i64 4}
!8 = !{i64 5}
!9 = !{i64 6}
!10 = !{i64 7}
!11 = !{i64 8}
!12 = !{i64 9}
!13 = !{i64 10}
!14 = !{i64 11}
!15 = !{i64 12}
!16 = !{i64 13}
!17 = !{i64 14}
!18 = !{i64 15}
!19 = !{i64 16}
!20 = !{i64 17}
!21 = !{i64 18}
!22 = !{i64 19}
!23 = !{i64 20}
!24 = !{i64 21}
!25 = !{i64 22}
!26 = !{i64 23}
!27 = !{i64 24}
!28 = !{i64 25}
!29 = !{i64 26}
!30 = !{i64 27}
!31 = !{i64 28}
!32 = !{i64 29}
!33 = !{i64 30}
!34 = !{i64 31}
!35 = !{i64 32}
!36 = !{i64 33}
!37 = !{i64 34}
!38 = !{i64 35}
!39 = !{i64 36}
!40 = !{i64 37}
!41 = !{i64 38}
!42 = !{i64 39}
!43 = !{i64 40}
!44 = !{i64 41}
!45 = !{i64 42}
!46 = !{i64 43}
!47 = !{i64 44}
!48 = !{i64 45}
!49 = !{i64 46}
!50 = !{i64 47}
!51 = !{i64 48}
!52 = !{i64 49}
!53 = !{i64 50}
!54 = !{i64 51}
!55 = !{i64 52}
!56 = !{i64 53}
!57 = !{i64 54}
!58 = !{i64 55}
!59 = !{i64 56}
!60 = distinct !{!60, !61}
!61 = !{!"llvm.loop.mustprogress"}
!62 = !{i64 57}
!63 = !{i64 58}
!64 = !{i64 59}
!65 = !{i64 60}
!66 = !{i64 61}
!67 = !{i64 62}
!68 = !{i64 63}
!69 = !{i64 64}
!70 = !{i64 65}
!71 = !{i64 66}
!72 = !{i64 67}
!73 = !{i64 68}
!74 = !{i64 69}
!75 = !{i64 70}
!76 = !{i64 71}
!77 = !{i64 72}
!78 = !{i64 73}
!79 = !{i64 74}
!80 = !{i64 75}
!81 = !{i64 76}
!82 = !{i64 77}
!83 = !{i64 78}
!84 = !{i64 79}
!85 = !{i64 80}
!86 = !{i64 81}
!87 = !{i64 82}
!88 = !{i64 83}
!89 = !{i64 84}
!90 = !{i64 85}
!91 = !{i64 86}
!92 = !{i64 87}
!93 = !{i64 88}
!94 = !{i64 89}
!95 = !{i64 90}
!96 = !{i64 91}
!97 = !{i64 92}
!98 = !{i64 93}
!99 = !{i64 94}
!100 = !{i64 95}
!101 = !{i64 96}
!102 = !{i64 97}
!103 = !{i64 98}
!104 = !{i64 99}
!105 = !{i64 100}
!106 = !{i64 101}
!107 = !{i64 102}
!108 = !{i64 103}
!109 = !{i64 104}
!110 = !{i64 105}
!111 = !{i64 106}
!112 = !{i64 107}
!113 = !{i64 108}
!114 = !{i64 109}
!115 = !{i64 110}
!116 = !{i64 111}
!117 = !{i64 112}
!118 = !{i64 113}
!119 = !{i64 114}
!120 = !{i64 115}
!121 = !{i64 116}
!122 = !{i64 117}
!123 = !{i64 118}
!124 = !{i64 119}
!125 = !{i64 120}
!126 = !{i64 121}
!127 = !{i64 122}
!128 = !{i64 123}
!129 = !{i64 124}
!130 = !{i64 125}
!131 = !{i64 126}
!132 = !{i64 127}
!133 = !{i64 128}
!134 = !{i64 129}
!135 = !{i64 130}
!136 = !{i64 131}
!137 = !{i64 132}
!138 = !{i64 133}
!139 = !{i64 134}
!140 = !{i64 135}
!141 = !{i64 136}
!142 = !{i64 137}
!143 = !{i64 138}
!144 = !{i64 139}
!145 = !{i64 140}
!146 = !{i64 141}
!147 = !{i64 142}
!148 = !{i64 143}
!149 = !{i64 144}
!150 = !{i64 145}
!151 = !{i64 146}
!152 = !{i64 147}
!153 = !{i64 148}
!154 = !{i64 149}
!155 = !{i64 150}
!156 = !{i64 151}
!157 = !{i64 152}
!158 = !{i64 153}
!159 = !{i64 154}
!160 = !{i64 155}
!161 = !{i64 156}
!162 = !{i64 157}
!163 = !{i64 158}
!164 = !{i64 159}
!165 = !{i64 160}
!166 = !{i64 161}
!167 = !{i64 162}
!168 = !{i64 163}
!169 = !{i64 164}
!170 = !{i64 165}
!171 = !{i64 166}
!172 = !{i64 167}
!173 = !{i64 168}
!174 = !{i64 169}
!175 = !{i64 170}
!176 = !{i64 171}
!177 = !{i64 172}
!178 = !{i64 173}
!179 = !{i64 174}
!180 = !{i64 175}
!181 = !{i64 176}
!182 = !{i64 177}
!183 = !{i64 178}
!184 = !{i64 179}
!185 = !{i64 180}
!186 = !{i64 181}
!187 = !{i64 182}
!188 = !{i64 183}
!189 = !{i64 184}
!190 = !{i64 185}
!191 = !{i64 186}
!192 = !{i64 187}
!193 = !{i64 188}
!194 = distinct !{!194, !61}
!195 = !{i64 189}
!196 = !{i64 190}
!197 = !{i64 191}
!198 = !{i64 192}
!199 = !{i64 193}
!200 = !{i64 194}
!201 = distinct !{!201, !61}
!202 = !{i64 195}
!203 = !{i64 196}
!204 = !{i64 197}
!205 = !{i64 198}
!206 = !{i64 199}
!207 = distinct !{!207, !61}
!208 = !{i64 200}
!209 = !{i64 201}
!210 = !{i64 202}
!211 = !{i64 203}
!212 = !{i64 204}
!213 = !{i64 205}
!214 = !{i64 206}
!215 = !{i64 207}
!216 = !{i64 208}
!217 = !{i64 209}
!218 = !{i64 210}
!219 = !{i64 211}
!220 = !{i64 212}
!221 = !{i64 213}
!222 = !{i64 214}
!223 = !{i64 215}
!224 = !{i64 216}
!225 = !{i64 217}
!226 = !{i64 218}
!227 = !{i64 219}
!228 = !{i64 220}
!229 = !{i64 221}
!230 = !{i64 222}
!231 = !{i64 223}
!232 = !{i64 224}
!233 = !{i64 225}
!234 = !{i64 226}
!235 = !{i64 227}
!236 = !{i64 228}
!237 = !{i64 229}
!238 = !{i64 230}
!239 = !{i64 231}
!240 = !{i64 232}
!241 = !{i64 233}
!242 = !{i64 234}
!243 = !{i64 235}
!244 = !{i64 236}
!245 = !{i64 237}
!246 = !{i64 238}
!247 = !{i64 239}
!248 = distinct !{!248, !61}
!249 = !{i64 240}
!250 = !{i64 241}
!251 = !{i64 242}
!252 = !{i64 243}
!253 = !{i64 244}
!254 = distinct !{!254, !61}
!255 = !{i64 245}
!256 = !{i64 246}
!257 = !{i64 247}
!258 = !{i64 248}
!259 = !{i64 249}
!260 = !{i64 250}
!261 = !{i64 251}
!262 = !{i64 252}
!263 = !{i64 253}
!264 = !{i64 254}
!265 = !{i64 255}
!266 = !{i64 256}
!267 = !{i64 257}
!268 = !{i64 258}
!269 = !{i64 259}
!270 = !{i64 260}
!271 = !{i64 261}
!272 = !{i64 262}
!273 = !{i64 263}
!274 = !{i64 264}
!275 = !{i64 265}
!276 = !{i64 266}
!277 = !{i64 267}
!278 = !{i64 268}
!279 = !{i64 269}
!280 = !{i64 270}
!281 = !{i64 271}
!282 = !{i64 272}
!283 = !{i64 273}
!284 = !{i64 274}
!285 = !{i64 275}
!286 = !{i64 276}
!287 = !{i64 277}
!288 = !{i64 278}
!289 = !{i64 279}
!290 = !{i64 280}
!291 = !{i64 281}
!292 = !{i64 282}
!293 = !{i64 283}
!294 = !{i64 284}
!295 = !{i64 285}
!296 = !{i64 286}
!297 = !{i64 287}
!298 = !{i64 288}
!299 = !{i64 289}
!300 = !{i64 290}
!301 = !{i64 291}
!302 = !{i64 292}
!303 = !{i64 293}
!304 = !{i64 294}
!305 = !{i64 295}
!306 = !{i64 296}
!307 = !{i64 297}
!308 = !{i64 298}
!309 = !{i64 299}
!310 = !{i64 300}
!311 = !{i64 301}
!312 = !{i64 302}
!313 = !{i64 303}
!314 = !{i64 304}
!315 = !{i64 305}
!316 = !{i64 306}
!317 = !{i64 307}
!318 = !{i64 308}
!319 = !{i64 309}
!320 = !{i64 310}
!321 = !{i64 311}
!322 = !{i64 312}
!323 = !{i64 313}
!324 = !{i64 314}
!325 = !{i64 315}
!326 = !{i64 316}
!327 = !{i64 317}
!328 = !{i64 318}
!329 = !{i64 319}
!330 = !{i64 320}
!331 = !{i64 321}
!332 = !{i64 322}
!333 = !{i64 323}
!334 = !{i64 324}
!335 = !{i64 325}
!336 = !{i64 326}
!337 = !{i64 327}
!338 = !{i64 328}
!339 = !{i64 329}
!340 = !{i64 330}
!341 = !{i64 331}
!342 = !{i64 332}
!343 = !{i64 333}
!344 = !{i64 334}
!345 = !{i64 335}
!346 = !{i64 336}
!347 = !{i64 337}
!348 = !{i64 338}
!349 = !{i64 339}
!350 = !{i64 340}
!351 = !{i64 341}
!352 = !{i64 342}
!353 = !{i64 343}
!354 = !{i64 344}
!355 = !{i64 345}
!356 = !{i64 346}
!357 = !{i64 347}
!358 = !{i64 348}
!359 = !{i64 349}
!360 = !{i64 350}
!361 = !{i64 351}
!362 = !{i64 352}
!363 = !{i64 353}
!364 = !{i64 354}
!365 = !{i64 355}
!366 = !{i64 356}
!367 = !{i64 357}
!368 = !{i64 358}
!369 = !{i64 359}
!370 = !{i64 360}
!371 = !{i64 361}
!372 = !{i64 362}
!373 = !{i64 363}
!374 = !{i64 364}
!375 = !{i64 365}
!376 = !{i64 366}
!377 = !{i64 367}
!378 = !{i64 368}
!379 = !{i64 369}
!380 = !{i64 370}
!381 = !{i64 371}
!382 = !{i64 372}
!383 = !{i64 373}
!384 = !{i64 374}
!385 = !{i64 375}
!386 = !{i64 376}
!387 = !{i64 377}
!388 = !{i64 378}
!389 = !{i64 379}
!390 = !{i64 380}
!391 = !{i64 381}
!392 = !{i64 382}
!393 = !{i64 383}
!394 = !{i64 384}
!395 = !{i64 385}
!396 = !{i64 386}
!397 = !{i64 387}
!398 = !{i64 388}
!399 = !{i64 389}
!400 = !{i64 390}
!401 = !{i64 391}
!402 = !{i64 392}
!403 = !{i64 393}
!404 = !{i64 394}
!405 = !{i64 395}
!406 = !{i64 396}
!407 = !{i64 397}
!408 = !{i64 398}
!409 = distinct !{!409, !61}
!410 = !{i64 399}
!411 = !{i64 400}
!412 = !{i64 401}
!413 = !{i64 402}
!414 = !{i64 403}
!415 = distinct !{!415, !61}
!416 = !{i64 404}
!417 = !{i64 405}
!418 = !{i64 406}
!419 = !{i64 407}
!420 = distinct !{!420, !61}
!421 = !{i64 408}
!422 = !{i64 409}
!423 = !{i64 410}
!424 = !{i64 411}
!425 = !{i64 412}
!426 = !{i64 413}
!427 = !{i64 414}
!428 = !{i64 415}
!429 = !{i64 416}
!430 = !{i64 417}
!431 = !{i64 418}
!432 = !{i64 419}
!433 = !{i64 420}
!434 = !{i64 421}
!435 = !{i64 422}
!436 = !{i64 423}
!437 = !{i64 424}
!438 = !{i64 425}
!439 = !{i64 426}
!440 = !{i64 427}
!441 = !{i64 428}
!442 = !{i64 429}
!443 = !{i64 430}
!444 = !{i64 431}
!445 = !{i64 432}
!446 = !{i64 433}
!447 = !{i64 434}
!448 = !{i64 435}
!449 = !{i64 436}
!450 = !{i64 437}
!451 = !{i64 438}
!452 = !{i64 439}
!453 = !{i64 440}
!454 = !{i64 441}
!455 = !{i64 442}
!456 = !{i64 443}
!457 = !{i64 444}
!458 = !{i64 445}
!459 = !{i64 446}
!460 = !{i64 447}
!461 = !{i64 448}
!462 = !{i64 449}
!463 = !{i64 450}
!464 = !{i64 451}
!465 = !{i64 452}
!466 = !{i64 453}
!467 = !{i64 454}
!468 = !{i64 455}
!469 = !{i64 456}
!470 = !{i64 457}
!471 = !{i64 458}
!472 = !{i64 459}
!473 = !{i64 460}
!474 = !{i64 461}
!475 = !{i64 462}
!476 = !{i64 463}
!477 = !{i64 464}
!478 = !{i64 465}
!479 = !{i64 466}
!480 = !{i64 467}
!481 = !{i64 468}
!482 = !{i64 469}
!483 = !{i64 470}
!484 = !{i64 471}
!485 = !{i64 472}
!486 = !{i64 473}
!487 = !{i64 474}
!488 = !{i64 475}
!489 = !{i64 476}
!490 = !{i64 477}
!491 = !{i64 478}
!492 = !{i64 479}
!493 = !{i64 480}
!494 = !{i64 481}
!495 = !{i64 482}
!496 = !{i64 483}
!497 = !{i64 484}
!498 = !{i64 485}
!499 = !{i64 486}
!500 = !{i64 487}
!501 = !{i64 488}
!502 = !{i64 489}
!503 = !{i64 490}
!504 = !{i64 491}
!505 = !{i64 492}
!506 = !{i64 493}
!507 = !{i64 494}
!508 = !{i64 495}
!509 = !{i64 496}
!510 = !{i64 497}
!511 = !{i64 498}
!512 = !{i64 499}
!513 = !{i64 500}
!514 = !{i64 501}
!515 = !{i64 502}
!516 = !{i64 503}
!517 = !{i64 504}
!518 = !{i64 505}
!519 = !{i64 506}
!520 = !{i64 507}
!521 = !{i64 508}
!522 = !{i64 509}
!523 = !{i64 510}
!524 = !{i64 511}
!525 = !{i64 512}
!526 = !{i64 513}
!527 = !{i64 514}
!528 = !{i64 515}
!529 = !{i64 516}
!530 = !{i64 517}
!531 = !{i64 518}
!532 = !{i64 519}
!533 = !{i64 520}
!534 = !{i64 521}
!535 = !{i64 522}
!536 = !{i64 523}
!537 = !{i64 524}
!538 = !{i64 525}
!539 = !{i64 526}
!540 = !{i64 527}
!541 = !{i64 528}
!542 = !{i64 529}
!543 = !{i64 530}
!544 = !{i64 531}
!545 = !{i64 532}
!546 = !{i64 533}
!547 = !{i64 534}
!548 = !{i64 535}
!549 = !{i64 536}
!550 = !{i64 537}
!551 = !{i64 538}
!552 = !{i64 539}
!553 = !{i64 540}
!554 = !{i64 541}
!555 = !{i64 542}
!556 = !{i64 543}
!557 = !{i64 544}
!558 = !{i64 545}
!559 = !{i64 546}
!560 = !{i64 547}
!561 = !{i64 548}
!562 = !{i64 549}
!563 = !{i64 550}
!564 = !{i64 551}
!565 = !{i64 552}
!566 = !{i64 553}
!567 = !{i64 554}
!568 = !{i64 555}
!569 = !{i64 556}
!570 = !{i64 557}
!571 = !{i64 558}
!572 = !{i64 559}
!573 = !{i64 560}
!574 = !{i64 561}
!575 = !{i64 562}
!576 = !{i64 563}
!577 = !{i64 564}
!578 = !{i64 565}
!579 = !{i64 566}
!580 = !{i64 567}
!581 = !{i64 568}
!582 = !{i64 569}
!583 = !{i64 570}
!584 = !{i64 571}
!585 = !{i64 572}
!586 = !{i64 573}
!587 = !{i64 574}
!588 = !{i64 575}
!589 = !{i64 576}
!590 = !{i64 577}
!591 = !{i64 578}
!592 = !{i64 579}
!593 = !{i64 580}
!594 = !{i64 581}
!595 = !{i64 582}
!596 = !{i64 583}
!597 = !{i64 584}
!598 = !{i64 585}
!599 = !{i64 586}
!600 = !{i64 587}
!601 = !{i64 588}
!602 = !{i64 589}
!603 = !{i64 590}
!604 = !{i64 591}
!605 = !{i64 592}
!606 = !{i64 593}
!607 = !{i64 594}
!608 = !{i64 595}
!609 = !{i64 596}
!610 = !{i64 597}
!611 = !{i64 598}
!612 = !{i64 599}
!613 = !{i64 600}
!614 = !{i64 601}
!615 = !{i64 602}
!616 = !{i64 603}
!617 = !{i64 604}
!618 = !{i64 605}
!619 = !{i64 606}
!620 = !{i64 607}
!621 = !{i64 608}
!622 = !{i64 609}
!623 = !{i64 610}
!624 = !{i64 611}
!625 = !{i64 612}
!626 = !{i64 613}
!627 = !{i64 614}
!628 = !{i64 615}
!629 = !{i64 616}
!630 = distinct !{!630, !61}
!631 = !{i64 617}
!632 = !{i64 618}
!633 = !{i64 619}
!634 = !{i64 620}
!635 = !{i64 621}
!636 = !{i64 622}
!637 = !{i64 623}
!638 = !{i64 624}
!639 = !{i64 625}
!640 = !{i64 626}
!641 = !{i64 627}
!642 = !{i64 628}
!643 = !{i64 629}
!644 = !{i64 630}
!645 = !{i64 631}
!646 = !{i64 632}
!647 = !{i64 633}
!648 = !{i64 634}
!649 = !{i64 635}
!650 = !{i64 636}
!651 = !{i64 637}
!652 = !{i64 638}
!653 = !{i64 639}
!654 = !{i64 640}
!655 = !{i64 641}
!656 = !{i64 642}
!657 = !{i64 643}
!658 = !{i64 644}
!659 = !{i64 645}
!660 = !{i64 646}
!661 = !{i64 647}
!662 = !{i64 648}
!663 = !{i64 649}
!664 = !{i64 650}
!665 = !{i64 651}
!666 = !{i64 652}
!667 = !{i64 653}
!668 = !{i64 654}
!669 = !{i64 655}
!670 = !{i64 656}
!671 = !{i64 657}
!672 = !{i64 658}
!673 = !{i64 659}
!674 = !{i64 660}
!675 = !{i64 661}
!676 = !{i64 662}
!677 = !{i64 663}
!678 = !{i64 664}
!679 = !{i64 665}
!680 = !{i64 666}
!681 = !{i64 667}
!682 = !{i64 668}
!683 = !{i64 669}
!684 = !{i64 670}
!685 = !{i64 671}
!686 = !{i64 672}
!687 = !{i64 673}
!688 = !{i64 674}
!689 = !{i64 675}
!690 = !{i64 676}
!691 = !{i64 677}
!692 = !{i64 678}
!693 = !{i64 679}
!694 = !{i64 680}
!695 = !{i64 681}
!696 = !{i64 682}
!697 = !{i64 683}
!698 = !{i64 684}
!699 = !{i64 685}
!700 = !{i64 686}
!701 = !{i64 687}
!702 = !{i64 688}
!703 = !{i64 689}
!704 = !{i64 690}
!705 = !{i64 691}
!706 = !{i64 692}
!707 = !{i64 693}
!708 = !{i64 694}
!709 = !{i64 695}
!710 = !{i64 696}
!711 = !{i64 697}
!712 = !{i64 698}
!713 = !{i64 699}
!714 = !{i64 700}
!715 = !{i64 701}
!716 = !{i64 702}
!717 = !{i64 703}
!718 = !{i64 704}
!719 = !{i64 705}
!720 = !{i64 706}
!721 = !{i64 707}
!722 = !{i64 708}
!723 = !{i64 709}
!724 = !{i64 710}
!725 = !{i64 711}
!726 = !{i64 712}
!727 = !{i64 713}
!728 = !{i64 714}
!729 = !{i64 715}
!730 = !{i64 716}
!731 = !{i64 717}
!732 = !{i64 718}
!733 = !{i64 719}
!734 = !{i64 720}
!735 = !{i64 721}
!736 = !{i64 722}
!737 = !{i64 723}
!738 = !{i64 724}
!739 = !{i64 725}
!740 = !{i64 726}
!741 = !{i64 727}
!742 = !{i64 728}
!743 = !{i64 729}
!744 = !{i64 730}
!745 = !{i64 731}
!746 = !{i64 732}
!747 = !{i64 733}
!748 = !{i64 734}
!749 = !{i64 735}
!750 = !{i64 736}
!751 = !{i64 737}
!752 = !{i64 738}
!753 = !{i64 739}
!754 = !{i64 740}
!755 = !{i64 741}
!756 = !{i64 742}
!757 = !{i64 743}
!758 = !{i64 744}
!759 = !{i64 745}
!760 = !{i64 746}
!761 = !{i64 747}
!762 = !{i64 748}
!763 = !{i64 749}
!764 = !{i64 750}
!765 = !{i64 751}
!766 = !{i64 752}
!767 = !{i64 753}
!768 = !{i64 754}
!769 = !{i64 755}
!770 = !{i64 756}
!771 = !{i64 757}
!772 = !{i64 758}
!773 = !{i64 759}
!774 = !{i64 760}
!775 = !{i64 761}
!776 = !{i64 762}
!777 = !{i64 763}
!778 = !{i64 764}
!779 = distinct !{!779, !61}
!780 = !{i64 765}
!781 = !{i64 766}
!782 = !{i64 767}
!783 = !{i64 768}
!784 = !{i64 769}
!785 = !{i64 770}
!786 = !{i64 771}
!787 = !{i64 772}
!788 = !{i64 773}
!789 = !{i64 774}
!790 = !{i64 775}
!791 = !{i64 776}
!792 = !{i64 777}
!793 = !{i64 778}
!794 = !{i64 779}
!795 = !{i64 780}
!796 = !{i64 781}
!797 = !{i64 782}
!798 = !{i64 783}
!799 = !{i64 784}
!800 = !{i64 785}
!801 = !{i64 786}
!802 = !{i64 787}
!803 = !{i64 788}
!804 = !{i64 789}
!805 = !{i64 790}
!806 = !{i64 791}
!807 = !{i64 792}
!808 = !{i64 793}
!809 = !{i64 794}
!810 = !{i64 795}
!811 = !{i64 796}
!812 = !{i64 797}
!813 = !{i64 798}
!814 = !{i64 799}
!815 = !{i64 800}
!816 = !{i64 801}
!817 = !{i64 802}
!818 = !{i64 803}
!819 = !{i64 804}
!820 = !{i64 805}
!821 = !{i64 806}
!822 = !{i64 807}
!823 = !{i64 808}
!824 = !{i64 809}
!825 = !{i64 810}
!826 = !{i64 811}
!827 = !{i64 812}
!828 = !{i64 813}
!829 = !{i64 814}
!830 = !{i64 815}
!831 = !{i64 816}
!832 = !{i64 817}
!833 = !{i64 818}
!834 = !{i64 819}
!835 = !{i64 820}
!836 = !{i64 821}
!837 = !{i64 822}
!838 = !{i64 823}
!839 = !{i64 824}
!840 = !{i64 825}
!841 = !{i64 826}
!842 = !{i64 827}
!843 = !{i64 828}
!844 = !{i64 829}
!845 = !{i64 830}
!846 = !{i64 831}
!847 = !{i64 832}
!848 = !{i64 833}
!849 = !{i64 834}
!850 = !{i64 835}
!851 = !{i64 836}
!852 = !{i64 837}
!853 = !{i64 838}
!854 = !{i64 839}
!855 = !{i64 840}
!856 = !{i64 841}
!857 = !{i64 842}
!858 = !{i64 843}
!859 = !{i64 844}
!860 = !{i64 845}
!861 = !{i64 846}
!862 = !{i64 847}
!863 = !{i64 848}
!864 = !{i64 849}
!865 = !{i64 850}
!866 = !{i64 851}
!867 = !{i64 852}
!868 = !{i64 853}
!869 = !{i64 854}
!870 = !{i64 855}
!871 = !{i64 856}
!872 = !{i64 857}
!873 = !{i64 858}
!874 = !{i64 859}
!875 = !{i64 860}
!876 = !{i64 861}
!877 = !{i64 862}
!878 = !{i64 863}
!879 = !{i64 864}
!880 = !{i64 865}
!881 = !{i64 866}
!882 = !{i64 867}
!883 = !{i64 868}
!884 = !{i64 869}
!885 = !{i64 870}
!886 = !{i64 871}
!887 = !{i64 872}
!888 = !{i64 873}
!889 = !{i64 874}
!890 = !{i64 875}
!891 = !{i64 876}
!892 = !{i64 877}
!893 = !{i64 878}
!894 = !{i64 879}
!895 = !{i64 880}
!896 = !{i64 881}
!897 = !{i64 882}
!898 = !{i64 883}
!899 = !{i64 884}
!900 = !{i64 885}
!901 = !{i64 886}
!902 = !{i64 887}
!903 = !{i64 888}
!904 = !{i64 889}
!905 = !{i64 890}
!906 = !{i64 891}
!907 = !{i64 892}
!908 = !{i64 893}
!909 = !{i64 894}
!910 = !{i64 895}
!911 = !{i64 896}
!912 = !{i64 897}
!913 = !{i64 898}
!914 = !{i64 899}
!915 = !{i64 900}
!916 = !{i64 901}
!917 = !{i64 902}
!918 = !{i64 903}
!919 = !{i64 904}
!920 = !{i64 905}
!921 = !{i64 906}
!922 = !{i64 907}
!923 = !{i64 908}
!924 = !{i64 909}
!925 = !{i64 910}
!926 = !{i64 911}
!927 = !{i64 912}
!928 = !{i64 913}
!929 = !{i64 914}
!930 = !{i64 915}
!931 = !{i64 916}
!932 = !{i64 917}
!933 = !{i64 918}
!934 = !{i64 919}
!935 = !{i64 920}
!936 = !{i64 921}
!937 = !{i64 922}
!938 = !{i64 923}
!939 = !{i64 924}
!940 = !{i64 925}
!941 = !{i64 926}
!942 = !{i64 927}
!943 = !{i64 928}
!944 = !{i64 929}
!945 = !{i64 930}
!946 = !{i64 931}
!947 = !{i64 932}
!948 = !{i64 933}
!949 = !{i64 934}
!950 = !{i64 935}
!951 = !{i64 936}
!952 = !{i64 937}
!953 = !{i64 938}
!954 = !{i64 939}
!955 = !{i64 940}
!956 = !{i64 941}
!957 = !{i64 942}
!958 = !{i64 943}
!959 = !{i64 944}
!960 = !{i64 945}
!961 = !{i64 946}
!962 = !{i64 947}
!963 = !{i64 948}
!964 = !{i64 949}
!965 = !{i64 950}
!966 = !{i64 951}
!967 = !{i64 952}
!968 = !{i64 953}
!969 = !{i64 954}
!970 = !{i64 955}
!971 = !{i64 956}
!972 = !{i64 957}
!973 = !{i64 958}
!974 = !{i64 959}
!975 = !{i64 960}
!976 = !{i64 961}
!977 = !{i64 962}
!978 = !{i64 963}
!979 = !{i64 964}
!980 = !{i64 965}
!981 = !{i64 966}
!982 = !{i64 967}
!983 = !{i64 968}
!984 = !{i64 969}
!985 = !{i64 970}
!986 = !{i64 971}
!987 = !{i64 972}
!988 = !{i64 973}
!989 = !{i64 974}
!990 = !{i64 975}
!991 = !{i64 976}
!992 = !{i64 977}
!993 = !{i64 978}
!994 = !{i64 979}
!995 = !{i64 980}
!996 = !{i64 981}
!997 = !{i64 982}
!998 = !{i64 983}
!999 = !{i64 984}
!1000 = !{i64 985}
!1001 = !{i64 986}
!1002 = !{i64 987}
!1003 = !{i64 988}
!1004 = !{i64 989}
!1005 = !{i64 990}
!1006 = !{i64 991}
!1007 = !{i64 992}
!1008 = !{i64 993}
!1009 = !{i64 994}
!1010 = !{i64 995}
!1011 = !{i64 996}
!1012 = !{i64 997}
!1013 = !{i64 998}
!1014 = !{i64 999}
!1015 = !{i64 1000}
!1016 = !{i64 1001}
!1017 = !{i64 1002}
!1018 = !{i64 1003}
!1019 = !{i64 1004}
!1020 = !{i64 1005}
!1021 = !{i64 1006}
!1022 = !{i64 1007}
!1023 = !{i64 1008}
!1024 = !{i64 1009}
!1025 = distinct !{!1025, !61}
!1026 = !{i64 1010}
!1027 = !{i64 1011}
!1028 = !{i64 1012}
!1029 = !{i64 1013}
!1030 = !{i64 1014}
!1031 = !{i64 1015}
!1032 = !{i64 1016}
!1033 = !{i64 1017}
!1034 = !{i64 1018}
!1035 = !{i64 1019}
!1036 = !{i64 1020}
!1037 = !{i64 1021}
!1038 = !{i64 1022}
!1039 = !{i64 1023}
!1040 = !{i64 1024}
!1041 = !{i64 1025}
!1042 = !{i64 1026}
!1043 = !{i64 1027}
!1044 = !{i64 1028}
!1045 = !{i64 1029}
!1046 = !{i64 1030}
!1047 = !{i64 1031}
!1048 = !{i64 1032}
!1049 = !{i64 1033}
!1050 = !{i64 1034}
!1051 = !{i64 1035}
!1052 = !{i64 1036}
!1053 = !{i64 1037}
!1054 = !{i64 1038}
!1055 = !{i64 1039}
!1056 = !{i64 1040}
!1057 = !{i64 1041}
!1058 = !{i64 1042}
!1059 = !{i64 1043}
!1060 = !{i64 1044}
!1061 = !{i64 1045}
!1062 = !{i64 1046}
!1063 = !{i64 1047}
!1064 = !{i64 1048}
!1065 = !{i64 1049}
!1066 = !{i64 1050}
!1067 = !{i64 1051}
!1068 = !{i64 1052}
!1069 = !{i64 1053}
!1070 = !{i64 1054}
!1071 = !{i64 1055}
!1072 = !{i64 1056}
!1073 = !{i64 1057}
!1074 = !{i64 1058}
!1075 = !{i64 1059}
!1076 = !{i64 1060}
!1077 = !{i64 1061}
!1078 = !{i64 1062}
!1079 = !{i64 1063}
!1080 = !{i64 1064}
!1081 = !{i64 1065}
!1082 = !{i64 1066}
!1083 = !{i64 1067}
!1084 = !{i64 1068}
!1085 = !{i64 1069}
!1086 = !{i64 1070}
!1087 = !{i64 1071}
!1088 = !{i64 1072}
!1089 = !{i64 1073}
!1090 = !{i64 1074}
!1091 = !{i64 1075}
!1092 = !{i64 1076}
!1093 = !{i64 1077}
!1094 = !{i64 1078}
!1095 = !{i64 1079}
!1096 = !{i64 1080}
!1097 = !{i64 1081}
!1098 = !{i64 1082}
!1099 = !{i64 1083}
!1100 = !{i64 1084}
!1101 = !{i64 1085}
!1102 = !{i64 1086}
!1103 = !{i64 1087}
!1104 = !{i64 1088}
!1105 = !{i64 1089}
!1106 = !{i64 1090}
!1107 = !{i64 1091}
!1108 = !{i64 1092}
!1109 = !{i64 1093}
!1110 = !{i64 1094}
!1111 = !{i64 1095}
!1112 = !{i64 1096}
!1113 = !{i64 1097}
!1114 = !{i64 1098}
!1115 = !{i64 1099}
!1116 = !{i64 1100}
!1117 = !{i64 1101}
!1118 = !{i64 1102}
!1119 = !{i64 1103}
!1120 = !{i64 1104}
!1121 = !{i64 1105}
!1122 = !{i64 1106}
!1123 = !{i64 1107}
!1124 = !{i64 1108}
!1125 = !{i64 1109}
!1126 = !{i64 1110}
!1127 = !{i64 1111}
!1128 = !{i64 1112}
!1129 = !{i64 1113}
!1130 = !{i64 1114}
!1131 = !{i64 1115}
!1132 = !{i64 1116}
!1133 = !{i64 1117}
!1134 = !{i64 1118}
!1135 = !{i64 1119}
!1136 = !{i64 1120}
!1137 = !{i64 1121}
!1138 = !{i64 1122}
!1139 = !{i64 1123}
!1140 = !{i64 1124}
!1141 = !{i64 1125}
!1142 = !{i64 1126}
!1143 = !{i64 1127}
!1144 = !{i64 1128}
!1145 = !{i64 1129}
!1146 = !{i64 1130}
!1147 = !{i64 1131}
!1148 = !{i64 1132}
!1149 = !{i64 1133}
!1150 = !{i64 1134}
!1151 = !{i64 1135}
!1152 = !{i64 1136}
!1153 = !{i64 1137}
!1154 = !{i64 1138}
!1155 = !{i64 1139}
!1156 = !{i64 1140}
!1157 = !{i64 1141}
!1158 = !{i64 1142}
!1159 = !{i64 1143}
!1160 = !{i64 1144}
!1161 = !{i64 1145}
!1162 = !{i64 1146}
!1163 = !{i64 1147}
!1164 = !{i64 1148}
!1165 = !{i64 1149}
!1166 = !{i64 1150}
!1167 = !{i64 1151}
!1168 = !{i64 1152}
!1169 = !{i64 1153}
!1170 = !{i64 1154}
!1171 = !{i64 1155}
!1172 = !{i64 1156}
!1173 = !{i64 1157}
!1174 = !{i64 1158}
!1175 = !{i64 1159}
!1176 = !{i64 1160}
!1177 = !{i64 1161}
!1178 = !{i64 1162}
!1179 = !{i64 1163}
!1180 = !{i64 1164}
!1181 = !{i64 1165}
!1182 = !{i64 1166}
!1183 = !{i64 1167}
!1184 = !{i64 1168}
!1185 = !{i64 1169}
!1186 = !{i64 1170}
!1187 = !{i64 1171}
!1188 = !{i64 1172}
!1189 = !{i64 1173}
!1190 = !{i64 1174}
!1191 = !{i64 1175}
!1192 = !{i64 1176}
!1193 = !{i64 1177}
!1194 = !{i64 1178}
!1195 = !{i64 1179}
!1196 = !{i64 1180}
!1197 = !{i64 1181}
!1198 = !{i64 1182}
!1199 = !{i64 1183}
!1200 = !{i64 1184}
!1201 = !{i64 1185}
!1202 = !{i64 1186}
!1203 = !{i64 1187}
!1204 = !{i64 1188}
!1205 = !{i64 1189}
!1206 = !{i64 1190}
!1207 = !{i64 1191}
!1208 = !{i64 1192}
!1209 = !{i64 1193}
!1210 = !{i64 1194}
!1211 = !{i64 1195}
!1212 = !{i64 1196}
!1213 = !{i64 1197}
!1214 = !{i64 1198}
!1215 = !{i64 1199}
!1216 = !{i64 1200}
!1217 = !{i64 1201}
!1218 = !{i64 1202}
!1219 = !{i64 1203}
!1220 = !{i64 1204}
!1221 = !{i64 1205}
!1222 = !{i64 1206}
!1223 = !{i64 1207}
!1224 = !{i64 1208}
!1225 = !{i64 1209}
!1226 = !{i64 1210}
!1227 = !{i64 1211}
!1228 = !{i64 1212}
!1229 = !{i64 1213}
!1230 = !{i64 1214}
!1231 = !{i64 1215}
!1232 = !{i64 1216}
!1233 = !{i64 1217}
!1234 = !{i64 1218}
!1235 = !{i64 1219}
!1236 = !{i64 1220}
!1237 = !{i64 1221}
!1238 = !{i64 1222}
!1239 = !{i64 1223}
!1240 = !{i64 1224}
!1241 = !{i64 1225}
!1242 = !{i64 1226}
!1243 = !{i64 1227}
!1244 = !{i64 1228}
!1245 = !{i64 1229}
!1246 = !{i64 1230}
!1247 = !{i64 1231}
!1248 = !{i64 1232}
!1249 = !{i64 1233}
!1250 = !{i64 1234}
!1251 = !{i64 1235}
!1252 = !{i64 1236}
!1253 = !{i64 1237}
!1254 = !{i64 1238}
!1255 = !{i64 1239}
!1256 = !{i64 1240}
!1257 = !{i64 1241}
!1258 = !{i64 1242}
!1259 = !{i64 1243}
!1260 = !{i64 1244}
!1261 = !{i64 1245}
!1262 = !{i64 1246}
!1263 = !{i64 1247}
!1264 = !{i64 1248}
!1265 = !{i64 1249}
!1266 = !{i64 1250}
!1267 = !{i64 1251}
!1268 = !{i64 1252}
!1269 = !{i64 1253}
!1270 = !{i64 1254}
!1271 = !{i64 1255}
!1272 = !{i64 1256}
!1273 = !{i64 1257}
!1274 = !{i64 1258}
!1275 = !{i64 1259}
!1276 = !{i64 1260}
!1277 = !{i64 1261}
!1278 = !{i64 1262}
!1279 = !{i64 1263}
!1280 = !{i64 1264}
!1281 = !{i64 1265}
!1282 = !{i64 1266}
!1283 = !{i64 1267}
!1284 = !{i64 1268}
!1285 = !{i64 1269}
!1286 = !{i64 1270}
!1287 = !{i64 1271}
!1288 = !{i64 1272}
!1289 = !{i64 1273}
!1290 = !{i64 1274}
!1291 = !{i64 1275}
!1292 = !{i64 1276}
!1293 = !{i64 1277}
!1294 = !{i64 1278}
!1295 = !{i64 1279}
!1296 = !{i64 1280}
!1297 = !{i64 1281}
!1298 = !{i64 1282}
!1299 = !{i64 1283}
!1300 = !{i64 1284}
!1301 = !{i64 1285}
!1302 = !{i64 1286}
!1303 = !{i64 1287}
!1304 = !{i64 1288}
!1305 = !{i64 1289}
!1306 = !{i64 1290}
!1307 = !{i64 1291}
!1308 = !{i64 1292}
!1309 = !{i64 1293}
!1310 = !{i64 1294}
!1311 = !{i64 1295}
!1312 = !{i64 1296}
!1313 = !{i64 1297}
!1314 = !{i64 1298}
!1315 = !{i64 1299}
!1316 = !{i64 1300}
!1317 = !{i64 1301}
!1318 = !{i64 1302}
!1319 = !{i64 1303}
!1320 = !{i64 1304}
!1321 = !{i64 1305}
!1322 = !{i64 1306}
!1323 = !{i64 1307}
!1324 = !{i64 1308}
!1325 = !{i64 1309}
!1326 = !{i64 1310}
!1327 = !{i64 1311}
!1328 = !{i64 1312}
!1329 = !{i64 1313}
!1330 = !{i64 1314}
!1331 = !{i64 1315}
!1332 = !{i64 1316}
!1333 = !{i64 1317}
!1334 = !{i64 1318}
!1335 = !{i64 1319}
!1336 = !{i64 1320}
!1337 = !{i64 1321}
!1338 = !{i64 1322}
!1339 = !{i64 1323}
!1340 = !{i64 1324}
!1341 = !{i64 1325}
!1342 = !{i64 1326}
!1343 = !{i64 1327}
!1344 = !{i64 1328}
!1345 = !{i64 1329}
!1346 = !{i64 1330}
!1347 = !{i64 1331}
!1348 = !{i64 1332}
!1349 = !{i64 1333}
!1350 = !{i64 1334}
!1351 = !{i64 1335}
!1352 = !{i64 1336}
!1353 = !{i64 1337}
!1354 = !{i64 1338}
!1355 = !{i64 1339}
!1356 = !{i64 1340}
!1357 = !{i64 1341}
!1358 = !{i64 1342}
!1359 = !{i64 1343}
!1360 = !{i64 1344}
!1361 = !{i64 1345}
!1362 = !{i64 1346}
!1363 = !{i64 1347}
!1364 = !{i64 1348}
!1365 = !{i64 1349}
!1366 = !{i64 1350}
!1367 = !{i64 1351}
!1368 = !{i64 1352}
!1369 = !{i64 1353}
!1370 = !{i64 1354}
!1371 = !{i64 1355}
!1372 = !{i64 1356}
!1373 = !{i64 1357}
!1374 = !{i64 1358}
!1375 = !{i64 1359}
!1376 = !{i64 1360}
!1377 = !{i64 1361}
!1378 = !{i64 1362}
!1379 = !{i64 1363}
!1380 = !{i64 1364}
!1381 = !{i64 1365}
!1382 = !{i64 1366}
!1383 = !{i64 1367}
!1384 = !{i64 1368}
!1385 = !{i64 1369}
!1386 = !{i64 1370}
!1387 = !{i64 1371}
!1388 = !{i64 1372}
!1389 = !{i64 1373}
!1390 = !{i64 1374}
!1391 = !{i64 1375}
!1392 = !{i64 1376}
!1393 = !{i64 1377}
!1394 = !{i64 1378}
!1395 = !{i64 1379}
!1396 = !{i64 1380}
!1397 = !{i64 1381}
!1398 = !{i64 1382}
!1399 = !{i64 1383}
!1400 = !{i64 1384}
!1401 = !{i64 1385}
!1402 = !{i64 1386}
!1403 = !{i64 1387}
!1404 = !{i64 1388}
!1405 = !{i64 1389}
!1406 = !{i64 1390}
