; ModuleID = '/home/hjiang/Computation-Kernel-Dataset/experiments/Fault_injection_0306/O0/BoxOperations/BoxOperations.ll'
source_filename = "llvm-link"
target datalayout = "e-m:e-p270:32:32-p271:32:32-p272:64:64-i64:64-f80:128-n8:16:32:64-S128"
target triple = "x86_64-unknown-linux-gnu"

%"class.std::ios_base::Init" = type { i8 }
%struct.Node = type { i32, i32, i32, i32, i32, i32, i64 }
%struct._IO_FILE = type { i32, i8*, i8*, i8*, i8*, i8*, i8*, i8*, i8*, i8*, i8*, i8*, %struct._IO_marker*, %struct._IO_FILE*, i32, i32, i64, i16, i8, [1 x i8], i8*, i64, %struct._IO_codecvt*, %struct._IO_wide_data*, %struct._IO_FILE*, i8*, i64, i32, [20 x i8] }
%struct._IO_marker = type opaque
%struct._IO_codecvt = type opaque
%struct._IO_wide_data = type opaque

$_ZSt3minIiERKT_S2_S2_ = comdat any

$_ZSt3maxIiERKT_S2_S2_ = comdat any

@llvm.global_ctors = appending global [1 x { i32, void ()*, i8* }] [{ i32, void ()*, i8* } { i32 65535, void ()* @_GLOBAL__sub_I_BoxOperations.cpp, i8* null }]
@_ZStL8__ioinit = internal global %"class.std::ios_base::Init" zeroinitializer, align 1
@n = dso_local global i32 0, align 4
@m = dso_local global i32 0, align 4
@A = dso_local global [100010 x i32] zeroinitializer, align 16
@T = dso_local global [400040 x %struct.Node] zeroinitializer, align 16
@.str = private unnamed_addr constant [7 x i8] c"%d%d%d\00", align 1
@.str.1 = private unnamed_addr constant [3 x i8] c"%d\00", align 1
@.str.2 = private unnamed_addr constant [4 x i8] c"%d\0A\00", align 1
@.str.3 = private unnamed_addr constant [6 x i8] c"%lld\0A\00", align 1
@.str.4 = private unnamed_addr constant [5 x i8] c"%d%d\00", align 1
@.str.5 = private unnamed_addr constant [29 x i8] c"../input_files/BoxOperations\00", align 1
@.str.6 = private unnamed_addr constant [2 x i8] c"r\00", align 1
@stdin = external dso_local global %struct._IO_FILE*, align 8

; Function Attrs: noinline uwtable
define internal void @_GLOBAL__sub_I_BoxOperations.cpp() #0 section ".text.startup" {
  call void @__cxx_global_var_init(), !llfi_index !4
  ret void, !llfi_index !5
}

; Function Attrs: noinline uwtable
define internal void @__cxx_global_var_init() #0 section ".text.startup" {
  call void @_ZNSt8ios_base4InitC1Ev(%"class.std::ios_base::Init"* nonnull align 1 dereferenceable(1) @_ZStL8__ioinit), !llfi_index !6
  %1 = call i32 @atexit(void ()* @__dtor__ZStL8__ioinit) #2, !llfi_index !7
  ret void, !llfi_index !8
}

declare dso_local void @_ZNSt8ios_base4InitC1Ev(%"class.std::ios_base::Init"* nonnull align 1 dereferenceable(1)) unnamed_addr #1

; Function Attrs: noinline uwtable
define internal void @__dtor__ZStL8__ioinit() #0 section ".text.startup" {
  call void @_ZNSt8ios_base4InitD1Ev(%"class.std::ios_base::Init"* @_ZStL8__ioinit), !llfi_index !9
  ret void, !llfi_index !10
}

; Function Attrs: nounwind
declare dso_local i32 @atexit(void ()*) #2

; Function Attrs: nounwind
declare dso_local void @_ZNSt8ios_base4InitD1Ev(%"class.std::ios_base::Init"* nonnull align 1 dereferenceable(1)) unnamed_addr #3

; Function Attrs: mustprogress noinline nounwind uwtable
define dso_local void @_Z3addii(i32 %0, i32 %1) #4 {
  %3 = alloca i32, align 4, !llfi_index !11
  %4 = alloca i32, align 4, !llfi_index !12
  store i32 %0, i32* %3, align 4, !llfi_index !13
  store i32 %1, i32* %4, align 4, !llfi_index !14
  %5 = load i32, i32* %3, align 4, !llfi_index !15
  %6 = sext i32 %5 to i64, !llfi_index !16
  %7 = getelementptr inbounds [400040 x %struct.Node], [400040 x %struct.Node]* @T, i64 0, i64 %6, !llfi_index !17
  %8 = getelementptr inbounds %struct.Node, %struct.Node* %7, i32 0, i32 1, !llfi_index !18
  %9 = load i32, i32* %8, align 4, !llfi_index !19
  %10 = load i32, i32* %3, align 4, !llfi_index !20
  %11 = sext i32 %10 to i64, !llfi_index !21
  %12 = getelementptr inbounds [400040 x %struct.Node], [400040 x %struct.Node]* @T, i64 0, i64 %11, !llfi_index !22
  %13 = getelementptr inbounds %struct.Node, %struct.Node* %12, i32 0, i32 0, !llfi_index !23
  %14 = load i32, i32* %13, align 16, !llfi_index !24
  %15 = sub nsw i32 %9, %14, !llfi_index !25
  %16 = add nsw i32 %15, 1, !llfi_index !26
  %17 = sext i32 %16 to i64, !llfi_index !27
  %18 = mul nsw i64 1, %17, !llfi_index !28
  %19 = load i32, i32* %4, align 4, !llfi_index !29
  %20 = sext i32 %19 to i64, !llfi_index !30
  %21 = mul nsw i64 %18, %20, !llfi_index !31
  %22 = load i32, i32* %3, align 4, !llfi_index !32
  %23 = sext i32 %22 to i64, !llfi_index !33
  %24 = getelementptr inbounds [400040 x %struct.Node], [400040 x %struct.Node]* @T, i64 0, i64 %23, !llfi_index !34
  %25 = getelementptr inbounds %struct.Node, %struct.Node* %24, i32 0, i32 6, !llfi_index !35
  %26 = load i64, i64* %25, align 8, !llfi_index !36
  %27 = add nsw i64 %26, %21, !llfi_index !37
  store i64 %27, i64* %25, align 8, !llfi_index !38
  %28 = load i32, i32* %4, align 4, !llfi_index !39
  %29 = load i32, i32* %3, align 4, !llfi_index !40
  %30 = sext i32 %29 to i64, !llfi_index !41
  %31 = getelementptr inbounds [400040 x %struct.Node], [400040 x %struct.Node]* @T, i64 0, i64 %30, !llfi_index !42
  %32 = getelementptr inbounds %struct.Node, %struct.Node* %31, i32 0, i32 2, !llfi_index !43
  %33 = load i32, i32* %32, align 8, !llfi_index !44
  %34 = add nsw i32 %33, %28, !llfi_index !45
  store i32 %34, i32* %32, align 8, !llfi_index !46
  %35 = load i32, i32* %4, align 4, !llfi_index !47
  %36 = load i32, i32* %3, align 4, !llfi_index !48
  %37 = sext i32 %36 to i64, !llfi_index !49
  %38 = getelementptr inbounds [400040 x %struct.Node], [400040 x %struct.Node]* @T, i64 0, i64 %37, !llfi_index !50
  %39 = getelementptr inbounds %struct.Node, %struct.Node* %38, i32 0, i32 3, !llfi_index !51
  %40 = load i32, i32* %39, align 4, !llfi_index !52
  %41 = add nsw i32 %40, %35, !llfi_index !53
  store i32 %41, i32* %39, align 4, !llfi_index !54
  %42 = load i32, i32* %4, align 4, !llfi_index !55
  %43 = load i32, i32* %3, align 4, !llfi_index !56
  %44 = sext i32 %43 to i64, !llfi_index !57
  %45 = getelementptr inbounds [400040 x %struct.Node], [400040 x %struct.Node]* @T, i64 0, i64 %44, !llfi_index !58
  %46 = getelementptr inbounds %struct.Node, %struct.Node* %45, i32 0, i32 5, !llfi_index !59
  %47 = load i32, i32* %46, align 4, !llfi_index !60
  %48 = add nsw i32 %47, %42, !llfi_index !61
  store i32 %48, i32* %46, align 4, !llfi_index !62
  ret void, !llfi_index !63
}

; Function Attrs: mustprogress noinline nounwind uwtable
define dso_local void @_Z2stii(i32 %0, i32 %1) #4 {
  %3 = alloca i32, align 4, !llfi_index !64
  %4 = alloca i32, align 4, !llfi_index !65
  store i32 %0, i32* %3, align 4, !llfi_index !66
  store i32 %1, i32* %4, align 4, !llfi_index !67
  %5 = load i32, i32* %3, align 4, !llfi_index !68
  %6 = sext i32 %5 to i64, !llfi_index !69
  %7 = getelementptr inbounds [400040 x %struct.Node], [400040 x %struct.Node]* @T, i64 0, i64 %6, !llfi_index !70
  %8 = getelementptr inbounds %struct.Node, %struct.Node* %7, i32 0, i32 1, !llfi_index !71
  %9 = load i32, i32* %8, align 4, !llfi_index !72
  %10 = load i32, i32* %3, align 4, !llfi_index !73
  %11 = sext i32 %10 to i64, !llfi_index !74
  %12 = getelementptr inbounds [400040 x %struct.Node], [400040 x %struct.Node]* @T, i64 0, i64 %11, !llfi_index !75
  %13 = getelementptr inbounds %struct.Node, %struct.Node* %12, i32 0, i32 0, !llfi_index !76
  %14 = load i32, i32* %13, align 16, !llfi_index !77
  %15 = sub nsw i32 %9, %14, !llfi_index !78
  %16 = add nsw i32 %15, 1, !llfi_index !79
  %17 = sext i32 %16 to i64, !llfi_index !80
  %18 = mul nsw i64 1, %17, !llfi_index !81
  %19 = load i32, i32* %4, align 4, !llfi_index !82
  %20 = sext i32 %19 to i64, !llfi_index !83
  %21 = mul nsw i64 %18, %20, !llfi_index !84
  %22 = load i32, i32* %3, align 4, !llfi_index !85
  %23 = sext i32 %22 to i64, !llfi_index !86
  %24 = getelementptr inbounds [400040 x %struct.Node], [400040 x %struct.Node]* @T, i64 0, i64 %23, !llfi_index !87
  %25 = getelementptr inbounds %struct.Node, %struct.Node* %24, i32 0, i32 6, !llfi_index !88
  store i64 %21, i64* %25, align 8, !llfi_index !89
  %26 = load i32, i32* %4, align 4, !llfi_index !90
  %27 = load i32, i32* %3, align 4, !llfi_index !91
  %28 = sext i32 %27 to i64, !llfi_index !92
  %29 = getelementptr inbounds [400040 x %struct.Node], [400040 x %struct.Node]* @T, i64 0, i64 %28, !llfi_index !93
  %30 = getelementptr inbounds %struct.Node, %struct.Node* %29, i32 0, i32 4, !llfi_index !94
  store i32 %26, i32* %30, align 16, !llfi_index !95
  %31 = load i32, i32* %3, align 4, !llfi_index !96
  %32 = sext i32 %31 to i64, !llfi_index !97
  %33 = getelementptr inbounds [400040 x %struct.Node], [400040 x %struct.Node]* @T, i64 0, i64 %32, !llfi_index !98
  %34 = getelementptr inbounds %struct.Node, %struct.Node* %33, i32 0, i32 3, !llfi_index !99
  store i32 %26, i32* %34, align 4, !llfi_index !100
  %35 = load i32, i32* %3, align 4, !llfi_index !101
  %36 = sext i32 %35 to i64, !llfi_index !102
  %37 = getelementptr inbounds [400040 x %struct.Node], [400040 x %struct.Node]* @T, i64 0, i64 %36, !llfi_index !103
  %38 = getelementptr inbounds %struct.Node, %struct.Node* %37, i32 0, i32 2, !llfi_index !104
  store i32 %26, i32* %38, align 8, !llfi_index !105
  %39 = load i32, i32* %3, align 4, !llfi_index !106
  %40 = sext i32 %39 to i64, !llfi_index !107
  %41 = getelementptr inbounds [400040 x %struct.Node], [400040 x %struct.Node]* @T, i64 0, i64 %40, !llfi_index !108
  %42 = getelementptr inbounds %struct.Node, %struct.Node* %41, i32 0, i32 5, !llfi_index !109
  store i32 0, i32* %42, align 4, !llfi_index !110
  ret void, !llfi_index !111
}

; Function Attrs: mustprogress noinline nounwind uwtable
define dso_local void @_Z8pushdowni(i32 %0) #4 {
  %2 = alloca i32, align 4, !llfi_index !112
  store i32 %0, i32* %2, align 4, !llfi_index !113
  %3 = load i32, i32* %2, align 4, !llfi_index !114
  %4 = sext i32 %3 to i64, !llfi_index !115
  %5 = getelementptr inbounds [400040 x %struct.Node], [400040 x %struct.Node]* @T, i64 0, i64 %4, !llfi_index !116
  %6 = getelementptr inbounds %struct.Node, %struct.Node* %5, i32 0, i32 0, !llfi_index !117
  %7 = load i32, i32* %6, align 16, !llfi_index !118
  %8 = load i32, i32* %2, align 4, !llfi_index !119
  %9 = sext i32 %8 to i64, !llfi_index !120
  %10 = getelementptr inbounds [400040 x %struct.Node], [400040 x %struct.Node]* @T, i64 0, i64 %9, !llfi_index !121
  %11 = getelementptr inbounds %struct.Node, %struct.Node* %10, i32 0, i32 1, !llfi_index !122
  %12 = load i32, i32* %11, align 4, !llfi_index !123
  %13 = icmp eq i32 %7, %12, !llfi_index !124
  br i1 %13, label %14, label %15, !llfi_index !125

14:                                               ; preds = %1
  br label %69, !llfi_index !126

15:                                               ; preds = %1
  %16 = load i32, i32* %2, align 4, !llfi_index !127
  %17 = sext i32 %16 to i64, !llfi_index !128
  %18 = getelementptr inbounds [400040 x %struct.Node], [400040 x %struct.Node]* @T, i64 0, i64 %17, !llfi_index !129
  %19 = getelementptr inbounds %struct.Node, %struct.Node* %18, i32 0, i32 4, !llfi_index !130
  %20 = load i32, i32* %19, align 16, !llfi_index !131
  %21 = icmp ne i32 %20, 2139062143, !llfi_index !132
  br i1 %21, label %22, label %42, !llfi_index !133

22:                                               ; preds = %15
  %23 = load i32, i32* %2, align 4, !llfi_index !134
  %24 = shl i32 %23, 1, !llfi_index !135
  %25 = load i32, i32* %2, align 4, !llfi_index !136
  %26 = sext i32 %25 to i64, !llfi_index !137
  %27 = getelementptr inbounds [400040 x %struct.Node], [400040 x %struct.Node]* @T, i64 0, i64 %26, !llfi_index !138
  %28 = getelementptr inbounds %struct.Node, %struct.Node* %27, i32 0, i32 4, !llfi_index !139
  %29 = load i32, i32* %28, align 16, !llfi_index !140
  call void @_Z2stii(i32 %24, i32 %29), !llfi_index !141
  %30 = load i32, i32* %2, align 4, !llfi_index !142
  %31 = shl i32 %30, 1, !llfi_index !143
  %32 = or i32 %31, 1, !llfi_index !144
  %33 = load i32, i32* %2, align 4, !llfi_index !145
  %34 = sext i32 %33 to i64, !llfi_index !146
  %35 = getelementptr inbounds [400040 x %struct.Node], [400040 x %struct.Node]* @T, i64 0, i64 %34, !llfi_index !147
  %36 = getelementptr inbounds %struct.Node, %struct.Node* %35, i32 0, i32 4, !llfi_index !148
  %37 = load i32, i32* %36, align 16, !llfi_index !149
  call void @_Z2stii(i32 %32, i32 %37), !llfi_index !150
  %38 = load i32, i32* %2, align 4, !llfi_index !151
  %39 = sext i32 %38 to i64, !llfi_index !152
  %40 = getelementptr inbounds [400040 x %struct.Node], [400040 x %struct.Node]* @T, i64 0, i64 %39, !llfi_index !153
  %41 = getelementptr inbounds %struct.Node, %struct.Node* %40, i32 0, i32 4, !llfi_index !154
  store i32 2139062143, i32* %41, align 16, !llfi_index !155
  br label %42, !llfi_index !156

42:                                               ; preds = %22, %15
  %43 = load i32, i32* %2, align 4, !llfi_index !157
  %44 = sext i32 %43 to i64, !llfi_index !158
  %45 = getelementptr inbounds [400040 x %struct.Node], [400040 x %struct.Node]* @T, i64 0, i64 %44, !llfi_index !159
  %46 = getelementptr inbounds %struct.Node, %struct.Node* %45, i32 0, i32 5, !llfi_index !160
  %47 = load i32, i32* %46, align 4, !llfi_index !161
  %48 = icmp ne i32 %47, 0, !llfi_index !162
  br i1 %48, label %49, label %69, !llfi_index !163

49:                                               ; preds = %42
  %50 = load i32, i32* %2, align 4, !llfi_index !164
  %51 = shl i32 %50, 1, !llfi_index !165
  %52 = load i32, i32* %2, align 4, !llfi_index !166
  %53 = sext i32 %52 to i64, !llfi_index !167
  %54 = getelementptr inbounds [400040 x %struct.Node], [400040 x %struct.Node]* @T, i64 0, i64 %53, !llfi_index !168
  %55 = getelementptr inbounds %struct.Node, %struct.Node* %54, i32 0, i32 5, !llfi_index !169
  %56 = load i32, i32* %55, align 4, !llfi_index !170
  call void @_Z3addii(i32 %51, i32 %56), !llfi_index !171
  %57 = load i32, i32* %2, align 4, !llfi_index !172
  %58 = shl i32 %57, 1, !llfi_index !173
  %59 = or i32 %58, 1, !llfi_index !174
  %60 = load i32, i32* %2, align 4, !llfi_index !175
  %61 = sext i32 %60 to i64, !llfi_index !176
  %62 = getelementptr inbounds [400040 x %struct.Node], [400040 x %struct.Node]* @T, i64 0, i64 %61, !llfi_index !177
  %63 = getelementptr inbounds %struct.Node, %struct.Node* %62, i32 0, i32 5, !llfi_index !178
  %64 = load i32, i32* %63, align 4, !llfi_index !179
  call void @_Z3addii(i32 %59, i32 %64), !llfi_index !180
  %65 = load i32, i32* %2, align 4, !llfi_index !181
  %66 = sext i32 %65 to i64, !llfi_index !182
  %67 = getelementptr inbounds [400040 x %struct.Node], [400040 x %struct.Node]* @T, i64 0, i64 %66, !llfi_index !183
  %68 = getelementptr inbounds %struct.Node, %struct.Node* %67, i32 0, i32 5, !llfi_index !184
  store i32 0, i32* %68, align 4, !llfi_index !185
  br label %69, !llfi_index !186

69:                                               ; preds = %49, %42, %14
  ret void, !llfi_index !187
}

; Function Attrs: mustprogress noinline uwtable
define dso_local void @_Z6pushupi(i32 %0) #5 {
  %2 = alloca i32, align 4, !llfi_index !188
  store i32 %0, i32* %2, align 4, !llfi_index !189
  %3 = load i32, i32* %2, align 4, !llfi_index !190
  %4 = shl i32 %3, 1, !llfi_index !191
  %5 = sext i32 %4 to i64, !llfi_index !192
  %6 = getelementptr inbounds [400040 x %struct.Node], [400040 x %struct.Node]* @T, i64 0, i64 %5, !llfi_index !193
  %7 = getelementptr inbounds %struct.Node, %struct.Node* %6, i32 0, i32 3, !llfi_index !194
  %8 = load i32, i32* %2, align 4, !llfi_index !195
  %9 = shl i32 %8, 1, !llfi_index !196
  %10 = or i32 %9, 1, !llfi_index !197
  %11 = sext i32 %10 to i64, !llfi_index !198
  %12 = getelementptr inbounds [400040 x %struct.Node], [400040 x %struct.Node]* @T, i64 0, i64 %11, !llfi_index !199
  %13 = getelementptr inbounds %struct.Node, %struct.Node* %12, i32 0, i32 3, !llfi_index !200
  %14 = call nonnull align 4 dereferenceable(4) i32* @_ZSt3minIiERKT_S2_S2_(i32* nonnull align 4 dereferenceable(4) %7, i32* nonnull align 4 dereferenceable(4) %13), !llfi_index !201
  %15 = load i32, i32* %14, align 4, !llfi_index !202
  %16 = load i32, i32* %2, align 4, !llfi_index !203
  %17 = sext i32 %16 to i64, !llfi_index !204
  %18 = getelementptr inbounds [400040 x %struct.Node], [400040 x %struct.Node]* @T, i64 0, i64 %17, !llfi_index !205
  %19 = getelementptr inbounds %struct.Node, %struct.Node* %18, i32 0, i32 3, !llfi_index !206
  store i32 %15, i32* %19, align 4, !llfi_index !207
  %20 = load i32, i32* %2, align 4, !llfi_index !208
  %21 = shl i32 %20, 1, !llfi_index !209
  %22 = sext i32 %21 to i64, !llfi_index !210
  %23 = getelementptr inbounds [400040 x %struct.Node], [400040 x %struct.Node]* @T, i64 0, i64 %22, !llfi_index !211
  %24 = getelementptr inbounds %struct.Node, %struct.Node* %23, i32 0, i32 2, !llfi_index !212
  %25 = load i32, i32* %2, align 4, !llfi_index !213
  %26 = shl i32 %25, 1, !llfi_index !214
  %27 = or i32 %26, 1, !llfi_index !215
  %28 = sext i32 %27 to i64, !llfi_index !216
  %29 = getelementptr inbounds [400040 x %struct.Node], [400040 x %struct.Node]* @T, i64 0, i64 %28, !llfi_index !217
  %30 = getelementptr inbounds %struct.Node, %struct.Node* %29, i32 0, i32 2, !llfi_index !218
  %31 = call nonnull align 4 dereferenceable(4) i32* @_ZSt3maxIiERKT_S2_S2_(i32* nonnull align 4 dereferenceable(4) %24, i32* nonnull align 4 dereferenceable(4) %30), !llfi_index !219
  %32 = load i32, i32* %31, align 4, !llfi_index !220
  %33 = load i32, i32* %2, align 4, !llfi_index !221
  %34 = sext i32 %33 to i64, !llfi_index !222
  %35 = getelementptr inbounds [400040 x %struct.Node], [400040 x %struct.Node]* @T, i64 0, i64 %34, !llfi_index !223
  %36 = getelementptr inbounds %struct.Node, %struct.Node* %35, i32 0, i32 2, !llfi_index !224
  store i32 %32, i32* %36, align 8, !llfi_index !225
  %37 = load i32, i32* %2, align 4, !llfi_index !226
  %38 = shl i32 %37, 1, !llfi_index !227
  %39 = sext i32 %38 to i64, !llfi_index !228
  %40 = getelementptr inbounds [400040 x %struct.Node], [400040 x %struct.Node]* @T, i64 0, i64 %39, !llfi_index !229
  %41 = getelementptr inbounds %struct.Node, %struct.Node* %40, i32 0, i32 6, !llfi_index !230
  %42 = load i64, i64* %41, align 8, !llfi_index !231
  %43 = load i32, i32* %2, align 4, !llfi_index !232
  %44 = shl i32 %43, 1, !llfi_index !233
  %45 = or i32 %44, 1, !llfi_index !234
  %46 = sext i32 %45 to i64, !llfi_index !235
  %47 = getelementptr inbounds [400040 x %struct.Node], [400040 x %struct.Node]* @T, i64 0, i64 %46, !llfi_index !236
  %48 = getelementptr inbounds %struct.Node, %struct.Node* %47, i32 0, i32 6, !llfi_index !237
  %49 = load i64, i64* %48, align 8, !llfi_index !238
  %50 = add nsw i64 %42, %49, !llfi_index !239
  %51 = load i32, i32* %2, align 4, !llfi_index !240
  %52 = sext i32 %51 to i64, !llfi_index !241
  %53 = getelementptr inbounds [400040 x %struct.Node], [400040 x %struct.Node]* @T, i64 0, i64 %52, !llfi_index !242
  %54 = getelementptr inbounds %struct.Node, %struct.Node* %53, i32 0, i32 6, !llfi_index !243
  store i64 %50, i64* %54, align 8, !llfi_index !244
  ret void, !llfi_index !245
}

; Function Attrs: mustprogress noinline nounwind uwtable
define linkonce_odr dso_local nonnull align 4 dereferenceable(4) i32* @_ZSt3minIiERKT_S2_S2_(i32* nonnull align 4 dereferenceable(4) %0, i32* nonnull align 4 dereferenceable(4) %1) #4 comdat {
  %3 = alloca i32*, align 8, !llfi_index !246
  %4 = alloca i32*, align 8, !llfi_index !247
  %5 = alloca i32*, align 8, !llfi_index !248
  store i32* %0, i32** %4, align 8, !llfi_index !249
  store i32* %1, i32** %5, align 8, !llfi_index !250
  %6 = load i32*, i32** %5, align 8, !llfi_index !251
  %7 = load i32, i32* %6, align 4, !llfi_index !252
  %8 = load i32*, i32** %4, align 8, !llfi_index !253
  %9 = load i32, i32* %8, align 4, !llfi_index !254
  %10 = icmp slt i32 %7, %9, !llfi_index !255
  br i1 %10, label %11, label %13, !llfi_index !256

11:                                               ; preds = %2
  %12 = load i32*, i32** %5, align 8, !llfi_index !257
  store i32* %12, i32** %3, align 8, !llfi_index !258
  br label %15, !llfi_index !259

13:                                               ; preds = %2
  %14 = load i32*, i32** %4, align 8, !llfi_index !260
  store i32* %14, i32** %3, align 8, !llfi_index !261
  br label %15, !llfi_index !262

15:                                               ; preds = %13, %11
  %16 = load i32*, i32** %3, align 8, !llfi_index !263
  ret i32* %16, !llfi_index !264
}

; Function Attrs: mustprogress noinline nounwind uwtable
define linkonce_odr dso_local nonnull align 4 dereferenceable(4) i32* @_ZSt3maxIiERKT_S2_S2_(i32* nonnull align 4 dereferenceable(4) %0, i32* nonnull align 4 dereferenceable(4) %1) #4 comdat {
  %3 = alloca i32*, align 8, !llfi_index !265
  %4 = alloca i32*, align 8, !llfi_index !266
  %5 = alloca i32*, align 8, !llfi_index !267
  store i32* %0, i32** %4, align 8, !llfi_index !268
  store i32* %1, i32** %5, align 8, !llfi_index !269
  %6 = load i32*, i32** %4, align 8, !llfi_index !270
  %7 = load i32, i32* %6, align 4, !llfi_index !271
  %8 = load i32*, i32** %5, align 8, !llfi_index !272
  %9 = load i32, i32* %8, align 4, !llfi_index !273
  %10 = icmp slt i32 %7, %9, !llfi_index !274
  br i1 %10, label %11, label %13, !llfi_index !275

11:                                               ; preds = %2
  %12 = load i32*, i32** %5, align 8, !llfi_index !276
  store i32* %12, i32** %3, align 8, !llfi_index !277
  br label %15, !llfi_index !278

13:                                               ; preds = %2
  %14 = load i32*, i32** %4, align 8, !llfi_index !279
  store i32* %14, i32** %3, align 8, !llfi_index !280
  br label %15, !llfi_index !281

15:                                               ; preds = %13, %11
  %16 = load i32*, i32** %3, align 8, !llfi_index !282
  ret i32* %16, !llfi_index !283
}

; Function Attrs: mustprogress noinline uwtable
define dso_local void @_Z5buildiii(i32 %0, i32 %1, i32 %2) #5 {
  %4 = alloca i32, align 4, !llfi_index !284
  %5 = alloca i32, align 4, !llfi_index !285
  %6 = alloca i32, align 4, !llfi_index !286
  %7 = alloca i32, align 4, !llfi_index !287
  store i32 %0, i32* %4, align 4, !llfi_index !288
  store i32 %1, i32* %5, align 4, !llfi_index !289
  store i32 %2, i32* %6, align 4, !llfi_index !290
  %8 = load i32, i32* %5, align 4, !llfi_index !291
  %9 = load i32, i32* %4, align 4, !llfi_index !292
  %10 = sext i32 %9 to i64, !llfi_index !293
  %11 = getelementptr inbounds [400040 x %struct.Node], [400040 x %struct.Node]* @T, i64 0, i64 %10, !llfi_index !294
  %12 = getelementptr inbounds %struct.Node, %struct.Node* %11, i32 0, i32 0, !llfi_index !295
  store i32 %8, i32* %12, align 16, !llfi_index !296
  %13 = load i32, i32* %6, align 4, !llfi_index !297
  %14 = load i32, i32* %4, align 4, !llfi_index !298
  %15 = sext i32 %14 to i64, !llfi_index !299
  %16 = getelementptr inbounds [400040 x %struct.Node], [400040 x %struct.Node]* @T, i64 0, i64 %15, !llfi_index !300
  %17 = getelementptr inbounds %struct.Node, %struct.Node* %16, i32 0, i32 1, !llfi_index !301
  store i32 %13, i32* %17, align 4, !llfi_index !302
  %18 = load i32, i32* %4, align 4, !llfi_index !303
  %19 = sext i32 %18 to i64, !llfi_index !304
  %20 = getelementptr inbounds [400040 x %struct.Node], [400040 x %struct.Node]* @T, i64 0, i64 %19, !llfi_index !305
  %21 = getelementptr inbounds %struct.Node, %struct.Node* %20, i32 0, i32 5, !llfi_index !306
  store i32 0, i32* %21, align 4, !llfi_index !307
  %22 = load i32, i32* %4, align 4, !llfi_index !308
  %23 = sext i32 %22 to i64, !llfi_index !309
  %24 = getelementptr inbounds [400040 x %struct.Node], [400040 x %struct.Node]* @T, i64 0, i64 %23, !llfi_index !310
  %25 = getelementptr inbounds %struct.Node, %struct.Node* %24, i32 0, i32 4, !llfi_index !311
  store i32 2139062143, i32* %25, align 16, !llfi_index !312
  %26 = load i32, i32* %5, align 4, !llfi_index !313
  %27 = load i32, i32* %6, align 4, !llfi_index !314
  %28 = icmp eq i32 %26, %27, !llfi_index !315
  br i1 %28, label %29, label %48, !llfi_index !316

29:                                               ; preds = %3
  %30 = load i32, i32* %5, align 4, !llfi_index !317
  %31 = sext i32 %30 to i64, !llfi_index !318
  %32 = getelementptr inbounds [100010 x i32], [100010 x i32]* @A, i64 0, i64 %31, !llfi_index !319
  %33 = load i32, i32* %32, align 4, !llfi_index !320
  %34 = sext i32 %33 to i64, !llfi_index !321
  %35 = load i32, i32* %4, align 4, !llfi_index !322
  %36 = sext i32 %35 to i64, !llfi_index !323
  %37 = getelementptr inbounds [400040 x %struct.Node], [400040 x %struct.Node]* @T, i64 0, i64 %36, !llfi_index !324
  %38 = getelementptr inbounds %struct.Node, %struct.Node* %37, i32 0, i32 6, !llfi_index !325
  store i64 %34, i64* %38, align 8, !llfi_index !326
  %39 = trunc i64 %34 to i32, !llfi_index !327
  %40 = load i32, i32* %4, align 4, !llfi_index !328
  %41 = sext i32 %40 to i64, !llfi_index !329
  %42 = getelementptr inbounds [400040 x %struct.Node], [400040 x %struct.Node]* @T, i64 0, i64 %41, !llfi_index !330
  %43 = getelementptr inbounds %struct.Node, %struct.Node* %42, i32 0, i32 2, !llfi_index !331
  store i32 %39, i32* %43, align 8, !llfi_index !332
  %44 = load i32, i32* %4, align 4, !llfi_index !333
  %45 = sext i32 %44 to i64, !llfi_index !334
  %46 = getelementptr inbounds [400040 x %struct.Node], [400040 x %struct.Node]* @T, i64 0, i64 %45, !llfi_index !335
  %47 = getelementptr inbounds %struct.Node, %struct.Node* %46, i32 0, i32 3, !llfi_index !336
  store i32 %39, i32* %47, align 4, !llfi_index !337
  br label %64, !llfi_index !338

48:                                               ; preds = %3
  %49 = load i32, i32* %5, align 4, !llfi_index !339
  %50 = load i32, i32* %6, align 4, !llfi_index !340
  %51 = add nsw i32 %49, %50, !llfi_index !341
  %52 = ashr i32 %51, 1, !llfi_index !342
  store i32 %52, i32* %7, align 4, !llfi_index !343
  %53 = load i32, i32* %4, align 4, !llfi_index !344
  %54 = shl i32 %53, 1, !llfi_index !345
  %55 = load i32, i32* %5, align 4, !llfi_index !346
  %56 = load i32, i32* %7, align 4, !llfi_index !347
  call void @_Z5buildiii(i32 %54, i32 %55, i32 %56), !llfi_index !348
  %57 = load i32, i32* %4, align 4, !llfi_index !349
  %58 = shl i32 %57, 1, !llfi_index !350
  %59 = or i32 %58, 1, !llfi_index !351
  %60 = load i32, i32* %7, align 4, !llfi_index !352
  %61 = add nsw i32 %60, 1, !llfi_index !353
  %62 = load i32, i32* %6, align 4, !llfi_index !354
  call void @_Z5buildiii(i32 %59, i32 %61, i32 %62), !llfi_index !355
  %63 = load i32, i32* %4, align 4, !llfi_index !356
  call void @_Z6pushupi(i32 %63), !llfi_index !357
  br label %64, !llfi_index !358

64:                                               ; preds = %48, %29
  ret void, !llfi_index !359
}

; Function Attrs: mustprogress noinline uwtable
define dso_local void @_Z9updateaddiiii(i32 %0, i32 %1, i32 %2, i32 %3) #5 {
  %5 = alloca i32, align 4, !llfi_index !360
  %6 = alloca i32, align 4, !llfi_index !361
  %7 = alloca i32, align 4, !llfi_index !362
  %8 = alloca i32, align 4, !llfi_index !363
  %9 = alloca i32, align 4, !llfi_index !364
  store i32 %0, i32* %5, align 4, !llfi_index !365
  store i32 %1, i32* %6, align 4, !llfi_index !366
  store i32 %2, i32* %7, align 4, !llfi_index !367
  store i32 %3, i32* %8, align 4, !llfi_index !368
  %10 = load i32, i32* %6, align 4, !llfi_index !369
  %11 = load i32, i32* %5, align 4, !llfi_index !370
  %12 = sext i32 %11 to i64, !llfi_index !371
  %13 = getelementptr inbounds [400040 x %struct.Node], [400040 x %struct.Node]* @T, i64 0, i64 %12, !llfi_index !372
  %14 = getelementptr inbounds %struct.Node, %struct.Node* %13, i32 0, i32 0, !llfi_index !373
  %15 = load i32, i32* %14, align 16, !llfi_index !374
  %16 = icmp sle i32 %10, %15, !llfi_index !375
  br i1 %16, label %17, label %28, !llfi_index !376

17:                                               ; preds = %4
  %18 = load i32, i32* %5, align 4, !llfi_index !377
  %19 = sext i32 %18 to i64, !llfi_index !378
  %20 = getelementptr inbounds [400040 x %struct.Node], [400040 x %struct.Node]* @T, i64 0, i64 %19, !llfi_index !379
  %21 = getelementptr inbounds %struct.Node, %struct.Node* %20, i32 0, i32 1, !llfi_index !380
  %22 = load i32, i32* %21, align 4, !llfi_index !381
  %23 = load i32, i32* %7, align 4, !llfi_index !382
  %24 = icmp sle i32 %22, %23, !llfi_index !383
  br i1 %24, label %25, label %28, !llfi_index !384

25:                                               ; preds = %17
  %26 = load i32, i32* %5, align 4, !llfi_index !385
  %27 = load i32, i32* %8, align 4, !llfi_index !386
  call void @_Z3addii(i32 %26, i32 %27), !llfi_index !387
  br label %64, !llfi_index !388

28:                                               ; preds = %17, %4
  %29 = load i32, i32* %5, align 4, !llfi_index !389
  call void @_Z8pushdowni(i32 %29), !llfi_index !390
  %30 = load i32, i32* %5, align 4, !llfi_index !391
  %31 = sext i32 %30 to i64, !llfi_index !392
  %32 = getelementptr inbounds [400040 x %struct.Node], [400040 x %struct.Node]* @T, i64 0, i64 %31, !llfi_index !393
  %33 = getelementptr inbounds %struct.Node, %struct.Node* %32, i32 0, i32 0, !llfi_index !394
  %34 = load i32, i32* %33, align 16, !llfi_index !395
  %35 = load i32, i32* %5, align 4, !llfi_index !396
  %36 = sext i32 %35 to i64, !llfi_index !397
  %37 = getelementptr inbounds [400040 x %struct.Node], [400040 x %struct.Node]* @T, i64 0, i64 %36, !llfi_index !398
  %38 = getelementptr inbounds %struct.Node, %struct.Node* %37, i32 0, i32 1, !llfi_index !399
  %39 = load i32, i32* %38, align 4, !llfi_index !400
  %40 = add nsw i32 %34, %39, !llfi_index !401
  %41 = ashr i32 %40, 1, !llfi_index !402
  store i32 %41, i32* %9, align 4, !llfi_index !403
  %42 = load i32, i32* %6, align 4, !llfi_index !404
  %43 = load i32, i32* %9, align 4, !llfi_index !405
  %44 = icmp sle i32 %42, %43, !llfi_index !406
  br i1 %44, label %45, label %51, !llfi_index !407

45:                                               ; preds = %28
  %46 = load i32, i32* %5, align 4, !llfi_index !408
  %47 = shl i32 %46, 1, !llfi_index !409
  %48 = load i32, i32* %6, align 4, !llfi_index !410
  %49 = load i32, i32* %7, align 4, !llfi_index !411
  %50 = load i32, i32* %8, align 4, !llfi_index !412
  call void @_Z9updateaddiiii(i32 %47, i32 %48, i32 %49, i32 %50), !llfi_index !413
  br label %51, !llfi_index !414

51:                                               ; preds = %45, %28
  %52 = load i32, i32* %7, align 4, !llfi_index !415
  %53 = load i32, i32* %9, align 4, !llfi_index !416
  %54 = icmp sgt i32 %52, %53, !llfi_index !417
  br i1 %54, label %55, label %62, !llfi_index !418

55:                                               ; preds = %51
  %56 = load i32, i32* %5, align 4, !llfi_index !419
  %57 = shl i32 %56, 1, !llfi_index !420
  %58 = or i32 %57, 1, !llfi_index !421
  %59 = load i32, i32* %6, align 4, !llfi_index !422
  %60 = load i32, i32* %7, align 4, !llfi_index !423
  %61 = load i32, i32* %8, align 4, !llfi_index !424
  call void @_Z9updateaddiiii(i32 %58, i32 %59, i32 %60, i32 %61), !llfi_index !425
  br label %62, !llfi_index !426

62:                                               ; preds = %55, %51
  %63 = load i32, i32* %5, align 4, !llfi_index !427
  call void @_Z6pushupi(i32 %63), !llfi_index !428
  br label %64, !llfi_index !429

64:                                               ; preds = %62, %25
  ret void, !llfi_index !430
}

; Function Attrs: mustprogress noinline nounwind uwtable
define dso_local i32 @_Z3Divii(i32 %0, i32 %1) #4 {
  %3 = alloca i32, align 4, !llfi_index !431
  %4 = alloca i32, align 4, !llfi_index !432
  %5 = alloca i32, align 4, !llfi_index !433
  store i32 %0, i32* %4, align 4, !llfi_index !434
  store i32 %1, i32* %5, align 4, !llfi_index !435
  %6 = load i32, i32* %4, align 4, !llfi_index !436
  %7 = icmp sge i32 %6, 0, !llfi_index !437
  br i1 %7, label %8, label %12, !llfi_index !438

8:                                                ; preds = %2
  %9 = load i32, i32* %4, align 4, !llfi_index !439
  %10 = load i32, i32* %5, align 4, !llfi_index !440
  %11 = sdiv i32 %9, %10, !llfi_index !441
  store i32 %11, i32* %3, align 4, !llfi_index !442
  br label %29, !llfi_index !443

12:                                               ; preds = %2
  %13 = load i32, i32* %4, align 4, !llfi_index !444
  %14 = load i32, i32* %5, align 4, !llfi_index !445
  %15 = sdiv i32 %13, %14, !llfi_index !446
  %16 = load i32, i32* %5, align 4, !llfi_index !447
  %17 = mul nsw i32 %15, %16, !llfi_index !448
  %18 = load i32, i32* %4, align 4, !llfi_index !449
  %19 = icmp ne i32 %17, %18, !llfi_index !450
  br i1 %19, label %20, label %25, !llfi_index !451

20:                                               ; preds = %12
  %21 = load i32, i32* %4, align 4, !llfi_index !452
  %22 = load i32, i32* %5, align 4, !llfi_index !453
  %23 = sdiv i32 %21, %22, !llfi_index !454
  %24 = sub nsw i32 %23, 1, !llfi_index !455
  store i32 %24, i32* %3, align 4, !llfi_index !456
  br label %29, !llfi_index !457

25:                                               ; preds = %12
  %26 = load i32, i32* %4, align 4, !llfi_index !458
  %27 = load i32, i32* %5, align 4, !llfi_index !459
  %28 = sdiv i32 %26, %27, !llfi_index !460
  store i32 %28, i32* %3, align 4, !llfi_index !461
  br label %29, !llfi_index !462

29:                                               ; preds = %25, %20, %8
  %30 = load i32, i32* %3, align 4, !llfi_index !463
  ret i32 %30, !llfi_index !464
}

; Function Attrs: mustprogress noinline uwtable
define dso_local void @_Z9updatediviiii(i32 %0, i32 %1, i32 %2, i32 %3) #5 {
  %5 = alloca i32, align 4, !llfi_index !465
  %6 = alloca i32, align 4, !llfi_index !466
  %7 = alloca i32, align 4, !llfi_index !467
  %8 = alloca i32, align 4, !llfi_index !468
  %9 = alloca i32, align 4, !llfi_index !469
  store i32 %0, i32* %5, align 4, !llfi_index !470
  store i32 %1, i32* %6, align 4, !llfi_index !471
  store i32 %2, i32* %7, align 4, !llfi_index !472
  store i32 %3, i32* %8, align 4, !llfi_index !473
  %10 = load i32, i32* %6, align 4, !llfi_index !474
  %11 = load i32, i32* %5, align 4, !llfi_index !475
  %12 = sext i32 %11 to i64, !llfi_index !476
  %13 = getelementptr inbounds [400040 x %struct.Node], [400040 x %struct.Node]* @T, i64 0, i64 %12, !llfi_index !477
  %14 = getelementptr inbounds %struct.Node, %struct.Node* %13, i32 0, i32 0, !llfi_index !478
  %15 = load i32, i32* %14, align 16, !llfi_index !479
  %16 = icmp sle i32 %10, %15, !llfi_index !480
  br i1 %16, label %17, label %80, !llfi_index !481

17:                                               ; preds = %4
  %18 = load i32, i32* %5, align 4, !llfi_index !482
  %19 = sext i32 %18 to i64, !llfi_index !483
  %20 = getelementptr inbounds [400040 x %struct.Node], [400040 x %struct.Node]* @T, i64 0, i64 %19, !llfi_index !484
  %21 = getelementptr inbounds %struct.Node, %struct.Node* %20, i32 0, i32 1, !llfi_index !485
  %22 = load i32, i32* %21, align 4, !llfi_index !486
  %23 = load i32, i32* %7, align 4, !llfi_index !487
  %24 = icmp sle i32 %22, %23, !llfi_index !488
  br i1 %24, label %25, label %80, !llfi_index !489

25:                                               ; preds = %17
  %26 = load i32, i32* %5, align 4, !llfi_index !490
  %27 = sext i32 %26 to i64, !llfi_index !491
  %28 = getelementptr inbounds [400040 x %struct.Node], [400040 x %struct.Node]* @T, i64 0, i64 %27, !llfi_index !492
  %29 = getelementptr inbounds %struct.Node, %struct.Node* %28, i32 0, i32 2, !llfi_index !493
  %30 = load i32, i32* %29, align 8, !llfi_index !494
  %31 = load i32, i32* %8, align 4, !llfi_index !495
  %32 = call i32 @_Z3Divii(i32 %30, i32 %31), !llfi_index !496
  %33 = load i32, i32* %5, align 4, !llfi_index !497
  %34 = sext i32 %33 to i64, !llfi_index !498
  %35 = getelementptr inbounds [400040 x %struct.Node], [400040 x %struct.Node]* @T, i64 0, i64 %34, !llfi_index !499
  %36 = getelementptr inbounds %struct.Node, %struct.Node* %35, i32 0, i32 3, !llfi_index !500
  %37 = load i32, i32* %36, align 4, !llfi_index !501
  %38 = load i32, i32* %8, align 4, !llfi_index !502
  %39 = call i32 @_Z3Divii(i32 %37, i32 %38), !llfi_index !503
  %40 = icmp eq i32 %32, %39, !llfi_index !504
  br i1 %40, label %41, label %50, !llfi_index !505

41:                                               ; preds = %25
  %42 = load i32, i32* %5, align 4, !llfi_index !506
  %43 = load i32, i32* %5, align 4, !llfi_index !507
  %44 = sext i32 %43 to i64, !llfi_index !508
  %45 = getelementptr inbounds [400040 x %struct.Node], [400040 x %struct.Node]* @T, i64 0, i64 %44, !llfi_index !509
  %46 = getelementptr inbounds %struct.Node, %struct.Node* %45, i32 0, i32 2, !llfi_index !510
  %47 = load i32, i32* %46, align 8, !llfi_index !511
  %48 = load i32, i32* %8, align 4, !llfi_index !512
  %49 = call i32 @_Z3Divii(i32 %47, i32 %48), !llfi_index !513
  call void @_Z2stii(i32 %42, i32 %49), !llfi_index !514
  br label %116, !llfi_index !515

50:                                               ; preds = %25
  %51 = load i32, i32* %5, align 4, !llfi_index !516
  %52 = sext i32 %51 to i64, !llfi_index !517
  %53 = getelementptr inbounds [400040 x %struct.Node], [400040 x %struct.Node]* @T, i64 0, i64 %52, !llfi_index !518
  %54 = getelementptr inbounds %struct.Node, %struct.Node* %53, i32 0, i32 2, !llfi_index !519
  %55 = load i32, i32* %54, align 8, !llfi_index !520
  %56 = load i32, i32* %5, align 4, !llfi_index !521
  %57 = sext i32 %56 to i64, !llfi_index !522
  %58 = getelementptr inbounds [400040 x %struct.Node], [400040 x %struct.Node]* @T, i64 0, i64 %57, !llfi_index !523
  %59 = getelementptr inbounds %struct.Node, %struct.Node* %58, i32 0, i32 3, !llfi_index !524
  %60 = load i32, i32* %59, align 4, !llfi_index !525
  %61 = add nsw i32 %60, 1, !llfi_index !526
  %62 = icmp eq i32 %55, %61, !llfi_index !527
  br i1 %62, label %63, label %78, !llfi_index !528

63:                                               ; preds = %50
  %64 = load i32, i32* %5, align 4, !llfi_index !529
  %65 = load i32, i32* %5, align 4, !llfi_index !530
  %66 = sext i32 %65 to i64, !llfi_index !531
  %67 = getelementptr inbounds [400040 x %struct.Node], [400040 x %struct.Node]* @T, i64 0, i64 %66, !llfi_index !532
  %68 = getelementptr inbounds %struct.Node, %struct.Node* %67, i32 0, i32 3, !llfi_index !533
  %69 = load i32, i32* %68, align 4, !llfi_index !534
  %70 = load i32, i32* %8, align 4, !llfi_index !535
  %71 = call i32 @_Z3Divii(i32 %69, i32 %70), !llfi_index !536
  %72 = load i32, i32* %5, align 4, !llfi_index !537
  %73 = sext i32 %72 to i64, !llfi_index !538
  %74 = getelementptr inbounds [400040 x %struct.Node], [400040 x %struct.Node]* @T, i64 0, i64 %73, !llfi_index !539
  %75 = getelementptr inbounds %struct.Node, %struct.Node* %74, i32 0, i32 3, !llfi_index !540
  %76 = load i32, i32* %75, align 4, !llfi_index !541
  %77 = sub nsw i32 %71, %76, !llfi_index !542
  call void @_Z3addii(i32 %64, i32 %77), !llfi_index !543
  br label %116, !llfi_index !544

78:                                               ; preds = %50
  br label %79, !llfi_index !545

79:                                               ; preds = %78
  br label %80, !llfi_index !546

80:                                               ; preds = %79, %17, %4
  %81 = load i32, i32* %5, align 4, !llfi_index !547
  call void @_Z8pushdowni(i32 %81), !llfi_index !548
  %82 = load i32, i32* %5, align 4, !llfi_index !549
  %83 = sext i32 %82 to i64, !llfi_index !550
  %84 = getelementptr inbounds [400040 x %struct.Node], [400040 x %struct.Node]* @T, i64 0, i64 %83, !llfi_index !551
  %85 = getelementptr inbounds %struct.Node, %struct.Node* %84, i32 0, i32 0, !llfi_index !552
  %86 = load i32, i32* %85, align 16, !llfi_index !553
  %87 = load i32, i32* %5, align 4, !llfi_index !554
  %88 = sext i32 %87 to i64, !llfi_index !555
  %89 = getelementptr inbounds [400040 x %struct.Node], [400040 x %struct.Node]* @T, i64 0, i64 %88, !llfi_index !556
  %90 = getelementptr inbounds %struct.Node, %struct.Node* %89, i32 0, i32 1, !llfi_index !557
  %91 = load i32, i32* %90, align 4, !llfi_index !558
  %92 = add nsw i32 %86, %91, !llfi_index !559
  %93 = ashr i32 %92, 1, !llfi_index !560
  store i32 %93, i32* %9, align 4, !llfi_index !561
  %94 = load i32, i32* %6, align 4, !llfi_index !562
  %95 = load i32, i32* %9, align 4, !llfi_index !563
  %96 = icmp sle i32 %94, %95, !llfi_index !564
  br i1 %96, label %97, label %103, !llfi_index !565

97:                                               ; preds = %80
  %98 = load i32, i32* %5, align 4, !llfi_index !566
  %99 = shl i32 %98, 1, !llfi_index !567
  %100 = load i32, i32* %6, align 4, !llfi_index !568
  %101 = load i32, i32* %7, align 4, !llfi_index !569
  %102 = load i32, i32* %8, align 4, !llfi_index !570
  call void @_Z9updatediviiii(i32 %99, i32 %100, i32 %101, i32 %102), !llfi_index !571
  br label %103, !llfi_index !572

103:                                              ; preds = %97, %80
  %104 = load i32, i32* %7, align 4, !llfi_index !573
  %105 = load i32, i32* %9, align 4, !llfi_index !574
  %106 = icmp sgt i32 %104, %105, !llfi_index !575
  br i1 %106, label %107, label %114, !llfi_index !576

107:                                              ; preds = %103
  %108 = load i32, i32* %5, align 4, !llfi_index !577
  %109 = shl i32 %108, 1, !llfi_index !578
  %110 = or i32 %109, 1, !llfi_index !579
  %111 = load i32, i32* %6, align 4, !llfi_index !580
  %112 = load i32, i32* %7, align 4, !llfi_index !581
  %113 = load i32, i32* %8, align 4, !llfi_index !582
  call void @_Z9updatediviiii(i32 %110, i32 %111, i32 %112, i32 %113), !llfi_index !583
  br label %114, !llfi_index !584

114:                                              ; preds = %107, %103
  %115 = load i32, i32* %5, align 4, !llfi_index !585
  call void @_Z6pushupi(i32 %115), !llfi_index !586
  br label %116, !llfi_index !587

116:                                              ; preds = %114, %63, %41
  ret void, !llfi_index !588
}

; Function Attrs: mustprogress noinline uwtable
define dso_local i32 @_Z7querymniii(i32 %0, i32 %1, i32 %2) #5 {
  %4 = alloca i32, align 4, !llfi_index !589
  %5 = alloca i32, align 4, !llfi_index !590
  %6 = alloca i32, align 4, !llfi_index !591
  %7 = alloca i32, align 4, !llfi_index !592
  %8 = alloca i32, align 4, !llfi_index !593
  %9 = alloca i32, align 4, !llfi_index !594
  %10 = alloca i32, align 4, !llfi_index !595
  %11 = alloca i32, align 4, !llfi_index !596
  store i32 %0, i32* %5, align 4, !llfi_index !597
  store i32 %1, i32* %6, align 4, !llfi_index !598
  store i32 %2, i32* %7, align 4, !llfi_index !599
  %12 = load i32, i32* %6, align 4, !llfi_index !600
  %13 = load i32, i32* %5, align 4, !llfi_index !601
  %14 = sext i32 %13 to i64, !llfi_index !602
  %15 = getelementptr inbounds [400040 x %struct.Node], [400040 x %struct.Node]* @T, i64 0, i64 %14, !llfi_index !603
  %16 = getelementptr inbounds %struct.Node, %struct.Node* %15, i32 0, i32 0, !llfi_index !604
  %17 = load i32, i32* %16, align 16, !llfi_index !605
  %18 = icmp sle i32 %12, %17, !llfi_index !606
  br i1 %18, label %19, label %33, !llfi_index !607

19:                                               ; preds = %3
  %20 = load i32, i32* %5, align 4, !llfi_index !608
  %21 = sext i32 %20 to i64, !llfi_index !609
  %22 = getelementptr inbounds [400040 x %struct.Node], [400040 x %struct.Node]* @T, i64 0, i64 %21, !llfi_index !610
  %23 = getelementptr inbounds %struct.Node, %struct.Node* %22, i32 0, i32 1, !llfi_index !611
  %24 = load i32, i32* %23, align 4, !llfi_index !612
  %25 = load i32, i32* %7, align 4, !llfi_index !613
  %26 = icmp sle i32 %24, %25, !llfi_index !614
  br i1 %26, label %27, label %33, !llfi_index !615

27:                                               ; preds = %19
  %28 = load i32, i32* %5, align 4, !llfi_index !616
  %29 = sext i32 %28 to i64, !llfi_index !617
  %30 = getelementptr inbounds [400040 x %struct.Node], [400040 x %struct.Node]* @T, i64 0, i64 %29, !llfi_index !618
  %31 = getelementptr inbounds %struct.Node, %struct.Node* %30, i32 0, i32 3, !llfi_index !619
  %32 = load i32, i32* %31, align 4, !llfi_index !620
  store i32 %32, i32* %4, align 4, !llfi_index !621
  br label %73, !llfi_index !622

33:                                               ; preds = %19, %3
  %34 = load i32, i32* %5, align 4, !llfi_index !623
  call void @_Z8pushdowni(i32 %34), !llfi_index !624
  store i32 2139062143, i32* %8, align 4, !llfi_index !625
  %35 = load i32, i32* %5, align 4, !llfi_index !626
  %36 = sext i32 %35 to i64, !llfi_index !627
  %37 = getelementptr inbounds [400040 x %struct.Node], [400040 x %struct.Node]* @T, i64 0, i64 %36, !llfi_index !628
  %38 = getelementptr inbounds %struct.Node, %struct.Node* %37, i32 0, i32 0, !llfi_index !629
  %39 = load i32, i32* %38, align 16, !llfi_index !630
  %40 = load i32, i32* %5, align 4, !llfi_index !631
  %41 = sext i32 %40 to i64, !llfi_index !632
  %42 = getelementptr inbounds [400040 x %struct.Node], [400040 x %struct.Node]* @T, i64 0, i64 %41, !llfi_index !633
  %43 = getelementptr inbounds %struct.Node, %struct.Node* %42, i32 0, i32 1, !llfi_index !634
  %44 = load i32, i32* %43, align 4, !llfi_index !635
  %45 = add nsw i32 %39, %44, !llfi_index !636
  %46 = ashr i32 %45, 1, !llfi_index !637
  store i32 %46, i32* %9, align 4, !llfi_index !638
  %47 = load i32, i32* %6, align 4, !llfi_index !639
  %48 = load i32, i32* %9, align 4, !llfi_index !640
  %49 = icmp sle i32 %47, %48, !llfi_index !641
  br i1 %49, label %50, label %58, !llfi_index !642

50:                                               ; preds = %33
  %51 = load i32, i32* %5, align 4, !llfi_index !643
  %52 = shl i32 %51, 1, !llfi_index !644
  %53 = load i32, i32* %6, align 4, !llfi_index !645
  %54 = load i32, i32* %7, align 4, !llfi_index !646
  %55 = call i32 @_Z7querymniii(i32 %52, i32 %53, i32 %54), !llfi_index !647
  store i32 %55, i32* %10, align 4, !llfi_index !648
  %56 = call nonnull align 4 dereferenceable(4) i32* @_ZSt3minIiERKT_S2_S2_(i32* nonnull align 4 dereferenceable(4) %8, i32* nonnull align 4 dereferenceable(4) %10), !llfi_index !649
  %57 = load i32, i32* %56, align 4, !llfi_index !650
  store i32 %57, i32* %8, align 4, !llfi_index !651
  br label %58, !llfi_index !652

58:                                               ; preds = %50, %33
  %59 = load i32, i32* %7, align 4, !llfi_index !653
  %60 = load i32, i32* %9, align 4, !llfi_index !654
  %61 = icmp sgt i32 %59, %60, !llfi_index !655
  br i1 %61, label %62, label %71, !llfi_index !656

62:                                               ; preds = %58
  %63 = load i32, i32* %5, align 4, !llfi_index !657
  %64 = shl i32 %63, 1, !llfi_index !658
  %65 = or i32 %64, 1, !llfi_index !659
  %66 = load i32, i32* %6, align 4, !llfi_index !660
  %67 = load i32, i32* %7, align 4, !llfi_index !661
  %68 = call i32 @_Z7querymniii(i32 %65, i32 %66, i32 %67), !llfi_index !662
  store i32 %68, i32* %11, align 4, !llfi_index !663
  %69 = call nonnull align 4 dereferenceable(4) i32* @_ZSt3minIiERKT_S2_S2_(i32* nonnull align 4 dereferenceable(4) %8, i32* nonnull align 4 dereferenceable(4) %11), !llfi_index !664
  %70 = load i32, i32* %69, align 4, !llfi_index !665
  store i32 %70, i32* %8, align 4, !llfi_index !666
  br label %71, !llfi_index !667

71:                                               ; preds = %62, %58
  %72 = load i32, i32* %8, align 4, !llfi_index !668
  store i32 %72, i32* %4, align 4, !llfi_index !669
  br label %73, !llfi_index !670

73:                                               ; preds = %71, %27
  %74 = load i32, i32* %4, align 4, !llfi_index !671
  ret i32 %74, !llfi_index !672
}

; Function Attrs: mustprogress noinline uwtable
define dso_local i64 @_Z7querysmiii(i32 %0, i32 %1, i32 %2) #5 {
  %4 = alloca i64, align 8, !llfi_index !673
  %5 = alloca i32, align 4, !llfi_index !674
  %6 = alloca i32, align 4, !llfi_index !675
  %7 = alloca i32, align 4, !llfi_index !676
  %8 = alloca i32, align 4, !llfi_index !677
  %9 = alloca i64, align 8, !llfi_index !678
  store i32 %0, i32* %5, align 4, !llfi_index !679
  store i32 %1, i32* %6, align 4, !llfi_index !680
  store i32 %2, i32* %7, align 4, !llfi_index !681
  %10 = load i32, i32* %6, align 4, !llfi_index !682
  %11 = load i32, i32* %5, align 4, !llfi_index !683
  %12 = sext i32 %11 to i64, !llfi_index !684
  %13 = getelementptr inbounds [400040 x %struct.Node], [400040 x %struct.Node]* @T, i64 0, i64 %12, !llfi_index !685
  %14 = getelementptr inbounds %struct.Node, %struct.Node* %13, i32 0, i32 0, !llfi_index !686
  %15 = load i32, i32* %14, align 16, !llfi_index !687
  %16 = icmp sle i32 %10, %15, !llfi_index !688
  br i1 %16, label %17, label %31, !llfi_index !689

17:                                               ; preds = %3
  %18 = load i32, i32* %5, align 4, !llfi_index !690
  %19 = sext i32 %18 to i64, !llfi_index !691
  %20 = getelementptr inbounds [400040 x %struct.Node], [400040 x %struct.Node]* @T, i64 0, i64 %19, !llfi_index !692
  %21 = getelementptr inbounds %struct.Node, %struct.Node* %20, i32 0, i32 1, !llfi_index !693
  %22 = load i32, i32* %21, align 4, !llfi_index !694
  %23 = load i32, i32* %7, align 4, !llfi_index !695
  %24 = icmp sle i32 %22, %23, !llfi_index !696
  br i1 %24, label %25, label %31, !llfi_index !697

25:                                               ; preds = %17
  %26 = load i32, i32* %5, align 4, !llfi_index !698
  %27 = sext i32 %26 to i64, !llfi_index !699
  %28 = getelementptr inbounds [400040 x %struct.Node], [400040 x %struct.Node]* @T, i64 0, i64 %27, !llfi_index !700
  %29 = getelementptr inbounds %struct.Node, %struct.Node* %28, i32 0, i32 6, !llfi_index !701
  %30 = load i64, i64* %29, align 8, !llfi_index !702
  store i64 %30, i64* %4, align 8, !llfi_index !703
  br label %71, !llfi_index !704

31:                                               ; preds = %17, %3
  %32 = load i32, i32* %5, align 4, !llfi_index !705
  call void @_Z8pushdowni(i32 %32), !llfi_index !706
  %33 = load i32, i32* %5, align 4, !llfi_index !707
  %34 = sext i32 %33 to i64, !llfi_index !708
  %35 = getelementptr inbounds [400040 x %struct.Node], [400040 x %struct.Node]* @T, i64 0, i64 %34, !llfi_index !709
  %36 = getelementptr inbounds %struct.Node, %struct.Node* %35, i32 0, i32 0, !llfi_index !710
  %37 = load i32, i32* %36, align 16, !llfi_index !711
  %38 = load i32, i32* %5, align 4, !llfi_index !712
  %39 = sext i32 %38 to i64, !llfi_index !713
  %40 = getelementptr inbounds [400040 x %struct.Node], [400040 x %struct.Node]* @T, i64 0, i64 %39, !llfi_index !714
  %41 = getelementptr inbounds %struct.Node, %struct.Node* %40, i32 0, i32 1, !llfi_index !715
  %42 = load i32, i32* %41, align 4, !llfi_index !716
  %43 = add nsw i32 %37, %42, !llfi_index !717
  %44 = ashr i32 %43, 1, !llfi_index !718
  store i32 %44, i32* %8, align 4, !llfi_index !719
  store i64 0, i64* %9, align 8, !llfi_index !720
  %45 = load i32, i32* %6, align 4, !llfi_index !721
  %46 = load i32, i32* %8, align 4, !llfi_index !722
  %47 = icmp sle i32 %45, %46, !llfi_index !723
  br i1 %47, label %48, label %56, !llfi_index !724

48:                                               ; preds = %31
  %49 = load i32, i32* %5, align 4, !llfi_index !725
  %50 = shl i32 %49, 1, !llfi_index !726
  %51 = load i32, i32* %6, align 4, !llfi_index !727
  %52 = load i32, i32* %7, align 4, !llfi_index !728
  %53 = call i64 @_Z7querysmiii(i32 %50, i32 %51, i32 %52), !llfi_index !729
  %54 = load i64, i64* %9, align 8, !llfi_index !730
  %55 = add nsw i64 %54, %53, !llfi_index !731
  store i64 %55, i64* %9, align 8, !llfi_index !732
  br label %56, !llfi_index !733

56:                                               ; preds = %48, %31
  %57 = load i32, i32* %7, align 4, !llfi_index !734
  %58 = load i32, i32* %8, align 4, !llfi_index !735
  %59 = icmp sgt i32 %57, %58, !llfi_index !736
  br i1 %59, label %60, label %69, !llfi_index !737

60:                                               ; preds = %56
  %61 = load i32, i32* %5, align 4, !llfi_index !738
  %62 = shl i32 %61, 1, !llfi_index !739
  %63 = or i32 %62, 1, !llfi_index !740
  %64 = load i32, i32* %6, align 4, !llfi_index !741
  %65 = load i32, i32* %7, align 4, !llfi_index !742
  %66 = call i64 @_Z7querysmiii(i32 %63, i32 %64, i32 %65), !llfi_index !743
  %67 = load i64, i64* %9, align 8, !llfi_index !744
  %68 = add nsw i64 %67, %66, !llfi_index !745
  store i64 %68, i64* %9, align 8, !llfi_index !746
  br label %69, !llfi_index !747

69:                                               ; preds = %60, %56
  %70 = load i64, i64* %9, align 8, !llfi_index !748
  store i64 %70, i64* %4, align 8, !llfi_index !749
  br label %71, !llfi_index !750

71:                                               ; preds = %69, %25
  %72 = load i64, i64* %4, align 8, !llfi_index !751
  ret i64 %72, !llfi_index !752
}

; Function Attrs: mustprogress noinline uwtable
define dso_local void @_Z4Workv() #5 {
  %1 = alloca i32, align 4, !llfi_index !753
  %2 = alloca i32, align 4, !llfi_index !754
  %3 = alloca i32, align 4, !llfi_index !755
  %4 = alloca i32, align 4, !llfi_index !756
  br label %5, !llfi_index !757

5:                                                ; preds = %45, %0
  %6 = load i32, i32* @m, align 4, !llfi_index !758
  %7 = add nsw i32 %6, -1, !llfi_index !759
  store i32 %7, i32* @m, align 4, !llfi_index !760
  %8 = icmp ne i32 %6, 0, !llfi_index !761
  br i1 %8, label %9, label %46, !llfi_index !762

9:                                                ; preds = %5
  %10 = call i32 (i8*, ...) @__isoc99_scanf(i8* getelementptr inbounds ([7 x i8], [7 x i8]* @.str, i64 0, i64 0), i32* %1, i32* %2, i32* %3), !llfi_index !763
  %11 = load i32, i32* %2, align 4, !llfi_index !764
  %12 = add nsw i32 %11, 1, !llfi_index !765
  store i32 %12, i32* %2, align 4, !llfi_index !766
  %13 = load i32, i32* %3, align 4, !llfi_index !767
  %14 = add nsw i32 %13, 1, !llfi_index !768
  store i32 %14, i32* %3, align 4, !llfi_index !769
  %15 = load i32, i32* %1, align 4, !llfi_index !770
  %16 = icmp eq i32 %15, 1, !llfi_index !771
  br i1 %16, label %17, label %22, !llfi_index !772

17:                                               ; preds = %9
  %18 = call i32 (i8*, ...) @__isoc99_scanf(i8* getelementptr inbounds ([3 x i8], [3 x i8]* @.str.1, i64 0, i64 0), i32* %4), !llfi_index !773
  %19 = load i32, i32* %2, align 4, !llfi_index !774
  %20 = load i32, i32* %3, align 4, !llfi_index !775
  %21 = load i32, i32* %4, align 4, !llfi_index !776
  call void @_Z9updateaddiiii(i32 1, i32 %19, i32 %20, i32 %21), !llfi_index !777
  br label %45, !llfi_index !778

22:                                               ; preds = %9
  %23 = load i32, i32* %1, align 4, !llfi_index !779
  %24 = icmp eq i32 %23, 2, !llfi_index !780
  br i1 %24, label %25, label %30, !llfi_index !781

25:                                               ; preds = %22
  %26 = call i32 (i8*, ...) @__isoc99_scanf(i8* getelementptr inbounds ([3 x i8], [3 x i8]* @.str.1, i64 0, i64 0), i32* %4), !llfi_index !782
  %27 = load i32, i32* %2, align 4, !llfi_index !783
  %28 = load i32, i32* %3, align 4, !llfi_index !784
  %29 = load i32, i32* %4, align 4, !llfi_index !785
  call void @_Z9updatediviiii(i32 1, i32 %27, i32 %28, i32 %29), !llfi_index !786
  br label %44, !llfi_index !787

30:                                               ; preds = %22
  %31 = load i32, i32* %1, align 4, !llfi_index !788
  %32 = icmp eq i32 %31, 3, !llfi_index !789
  br i1 %32, label %33, label %38, !llfi_index !790

33:                                               ; preds = %30
  %34 = load i32, i32* %2, align 4, !llfi_index !791
  %35 = load i32, i32* %3, align 4, !llfi_index !792
  %36 = call i32 @_Z7querymniii(i32 1, i32 %34, i32 %35), !llfi_index !793
  %37 = call i32 (i8*, ...) @printf(i8* getelementptr inbounds ([4 x i8], [4 x i8]* @.str.2, i64 0, i64 0), i32 %36), !llfi_index !794
  br label %43, !llfi_index !795

38:                                               ; preds = %30
  %39 = load i32, i32* %2, align 4, !llfi_index !796
  %40 = load i32, i32* %3, align 4, !llfi_index !797
  %41 = call i64 @_Z7querysmiii(i32 1, i32 %39, i32 %40), !llfi_index !798
  %42 = call i32 (i8*, ...) @printf(i8* getelementptr inbounds ([6 x i8], [6 x i8]* @.str.3, i64 0, i64 0), i64 %41), !llfi_index !799
  br label %43, !llfi_index !800

43:                                               ; preds = %38, %33
  br label %44, !llfi_index !801

44:                                               ; preds = %43, %25
  br label %45, !llfi_index !802

45:                                               ; preds = %44, %17
  br label %5, !llvm.loop !803, !llfi_index !805

46:                                               ; preds = %5
  ret void, !llfi_index !806
}

declare dso_local i32 @__isoc99_scanf(i8*, ...) #1

declare dso_local i32 @printf(i8*, ...) #1

; Function Attrs: mustprogress noinline uwtable
define dso_local void @_Z4Initv() #5 {
  %1 = alloca i32, align 4, !llfi_index !807
  %2 = call i32 (i8*, ...) @__isoc99_scanf(i8* getelementptr inbounds ([5 x i8], [5 x i8]* @.str.4, i64 0, i64 0), i32* @n, i32* @m), !llfi_index !808
  store i32 1, i32* %1, align 4, !llfi_index !809
  br label %3, !llfi_index !810

3:                                                ; preds = %12, %0
  %4 = load i32, i32* %1, align 4, !llfi_index !811
  %5 = load i32, i32* @n, align 4, !llfi_index !812
  %6 = icmp sle i32 %4, %5, !llfi_index !813
  br i1 %6, label %7, label %15, !llfi_index !814

7:                                                ; preds = %3
  %8 = load i32, i32* %1, align 4, !llfi_index !815
  %9 = sext i32 %8 to i64, !llfi_index !816
  %10 = getelementptr inbounds [100010 x i32], [100010 x i32]* @A, i64 0, i64 %9, !llfi_index !817
  %11 = call i32 (i8*, ...) @__isoc99_scanf(i8* getelementptr inbounds ([3 x i8], [3 x i8]* @.str.1, i64 0, i64 0), i32* %10), !llfi_index !818
  br label %12, !llfi_index !819

12:                                               ; preds = %7
  %13 = load i32, i32* %1, align 4, !llfi_index !820
  %14 = add nsw i32 %13, 1, !llfi_index !821
  store i32 %14, i32* %1, align 4, !llfi_index !822
  br label %3, !llvm.loop !823, !llfi_index !824

15:                                               ; preds = %3
  %16 = load i32, i32* @n, align 4, !llfi_index !825
  call void @_Z5buildiii(i32 1, i32 1, i32 %16), !llfi_index !826
  ret void, !llfi_index !827
}

; Function Attrs: mustprogress noinline norecurse uwtable
define dso_local i32 @main() #6 {
  %1 = alloca i32, align 4, !llfi_index !828
  %2 = alloca i32, align 4, !llfi_index !829
  store i32 0, i32* %1, align 4, !llfi_index !830
  %3 = load %struct._IO_FILE*, %struct._IO_FILE** @stdin, align 8, !llfi_index !831
  %4 = call %struct._IO_FILE* @freopen(i8* getelementptr inbounds ([29 x i8], [29 x i8]* @.str.5, i64 0, i64 0), i8* getelementptr inbounds ([2 x i8], [2 x i8]* @.str.6, i64 0, i64 0), %struct._IO_FILE* %3), !llfi_index !832
  store i32 89, i32* %2, align 4, !llfi_index !833
  call void @_Z4Initv(), !llfi_index !834
  store i32 89, i32* %2, align 4, !llfi_index !835
  call void @_Z4Workv(), !llfi_index !836
  ret i32 0, !llfi_index !837
}

declare dso_local %struct._IO_FILE* @freopen(i8*, i8*, %struct._IO_FILE*) #1

attributes #0 = { noinline uwtable "frame-pointer"="all" "min-legal-vector-width"="0" "no-trapping-math"="true" "stack-protector-buffer-size"="8" "target-cpu"="x86-64" "target-features"="+cx8,+fxsr,+mmx,+sse,+sse2,+x87" "tune-cpu"="generic" }
attributes #1 = { "frame-pointer"="all" "no-trapping-math"="true" "stack-protector-buffer-size"="8" "target-cpu"="x86-64" "target-features"="+cx8,+fxsr,+mmx,+sse,+sse2,+x87" "tune-cpu"="generic" }
attributes #2 = { nounwind }
attributes #3 = { nounwind "frame-pointer"="all" "no-trapping-math"="true" "stack-protector-buffer-size"="8" "target-cpu"="x86-64" "target-features"="+cx8,+fxsr,+mmx,+sse,+sse2,+x87" "tune-cpu"="generic" }
attributes #4 = { mustprogress noinline nounwind uwtable "frame-pointer"="all" "min-legal-vector-width"="0" "no-trapping-math"="true" "stack-protector-buffer-size"="8" "target-cpu"="x86-64" "target-features"="+cx8,+fxsr,+mmx,+sse,+sse2,+x87" "tune-cpu"="generic" }
attributes #5 = { mustprogress noinline uwtable "frame-pointer"="all" "min-legal-vector-width"="0" "no-trapping-math"="true" "stack-protector-buffer-size"="8" "target-cpu"="x86-64" "target-features"="+cx8,+fxsr,+mmx,+sse,+sse2,+x87" "tune-cpu"="generic" }
attributes #6 = { mustprogress noinline norecurse uwtable "frame-pointer"="all" "min-legal-vector-width"="0" "no-trapping-math"="true" "stack-protector-buffer-size"="8" "target-cpu"="x86-64" "target-features"="+cx8,+fxsr,+mmx,+sse,+sse2,+x87" "tune-cpu"="generic" }

!llvm.ident = !{!0}
!llvm.module.flags = !{!1, !2, !3}

!0 = !{!"clang version 13.0.0 (https://github.com/llvm/llvm-project.git d7b669b3a30345cfcdb2fde2af6f48aa4b94845d)"}
!1 = !{i32 1, !"wchar_size", i32 4}
!2 = !{i32 7, !"uwtable", i32 1}
!3 = !{i32 7, !"frame-pointer", i32 2}
!4 = !{i64 1}
!5 = !{i64 2}
!6 = !{i64 3}
!7 = !{i64 4}
!8 = !{i64 5}
!9 = !{i64 6}
!10 = !{i64 7}
!11 = !{i64 8}
!12 = !{i64 9}
!13 = !{i64 10}
!14 = !{i64 11}
!15 = !{i64 12}
!16 = !{i64 13}
!17 = !{i64 14}
!18 = !{i64 15}
!19 = !{i64 16}
!20 = !{i64 17}
!21 = !{i64 18}
!22 = !{i64 19}
!23 = !{i64 20}
!24 = !{i64 21}
!25 = !{i64 22}
!26 = !{i64 23}
!27 = !{i64 24}
!28 = !{i64 25}
!29 = !{i64 26}
!30 = !{i64 27}
!31 = !{i64 28}
!32 = !{i64 29}
!33 = !{i64 30}
!34 = !{i64 31}
!35 = !{i64 32}
!36 = !{i64 33}
!37 = !{i64 34}
!38 = !{i64 35}
!39 = !{i64 36}
!40 = !{i64 37}
!41 = !{i64 38}
!42 = !{i64 39}
!43 = !{i64 40}
!44 = !{i64 41}
!45 = !{i64 42}
!46 = !{i64 43}
!47 = !{i64 44}
!48 = !{i64 45}
!49 = !{i64 46}
!50 = !{i64 47}
!51 = !{i64 48}
!52 = !{i64 49}
!53 = !{i64 50}
!54 = !{i64 51}
!55 = !{i64 52}
!56 = !{i64 53}
!57 = !{i64 54}
!58 = !{i64 55}
!59 = !{i64 56}
!60 = !{i64 57}
!61 = !{i64 58}
!62 = !{i64 59}
!63 = !{i64 60}
!64 = !{i64 61}
!65 = !{i64 62}
!66 = !{i64 63}
!67 = !{i64 64}
!68 = !{i64 65}
!69 = !{i64 66}
!70 = !{i64 67}
!71 = !{i64 68}
!72 = !{i64 69}
!73 = !{i64 70}
!74 = !{i64 71}
!75 = !{i64 72}
!76 = !{i64 73}
!77 = !{i64 74}
!78 = !{i64 75}
!79 = !{i64 76}
!80 = !{i64 77}
!81 = !{i64 78}
!82 = !{i64 79}
!83 = !{i64 80}
!84 = !{i64 81}
!85 = !{i64 82}
!86 = !{i64 83}
!87 = !{i64 84}
!88 = !{i64 85}
!89 = !{i64 86}
!90 = !{i64 87}
!91 = !{i64 88}
!92 = !{i64 89}
!93 = !{i64 90}
!94 = !{i64 91}
!95 = !{i64 92}
!96 = !{i64 93}
!97 = !{i64 94}
!98 = !{i64 95}
!99 = !{i64 96}
!100 = !{i64 97}
!101 = !{i64 98}
!102 = !{i64 99}
!103 = !{i64 100}
!104 = !{i64 101}
!105 = !{i64 102}
!106 = !{i64 103}
!107 = !{i64 104}
!108 = !{i64 105}
!109 = !{i64 106}
!110 = !{i64 107}
!111 = !{i64 108}
!112 = !{i64 109}
!113 = !{i64 110}
!114 = !{i64 111}
!115 = !{i64 112}
!116 = !{i64 113}
!117 = !{i64 114}
!118 = !{i64 115}
!119 = !{i64 116}
!120 = !{i64 117}
!121 = !{i64 118}
!122 = !{i64 119}
!123 = !{i64 120}
!124 = !{i64 121}
!125 = !{i64 122}
!126 = !{i64 123}
!127 = !{i64 124}
!128 = !{i64 125}
!129 = !{i64 126}
!130 = !{i64 127}
!131 = !{i64 128}
!132 = !{i64 129}
!133 = !{i64 130}
!134 = !{i64 131}
!135 = !{i64 132}
!136 = !{i64 133}
!137 = !{i64 134}
!138 = !{i64 135}
!139 = !{i64 136}
!140 = !{i64 137}
!141 = !{i64 138}
!142 = !{i64 139}
!143 = !{i64 140}
!144 = !{i64 141}
!145 = !{i64 142}
!146 = !{i64 143}
!147 = !{i64 144}
!148 = !{i64 145}
!149 = !{i64 146}
!150 = !{i64 147}
!151 = !{i64 148}
!152 = !{i64 149}
!153 = !{i64 150}
!154 = !{i64 151}
!155 = !{i64 152}
!156 = !{i64 153}
!157 = !{i64 154}
!158 = !{i64 155}
!159 = !{i64 156}
!160 = !{i64 157}
!161 = !{i64 158}
!162 = !{i64 159}
!163 = !{i64 160}
!164 = !{i64 161}
!165 = !{i64 162}
!166 = !{i64 163}
!167 = !{i64 164}
!168 = !{i64 165}
!169 = !{i64 166}
!170 = !{i64 167}
!171 = !{i64 168}
!172 = !{i64 169}
!173 = !{i64 170}
!174 = !{i64 171}
!175 = !{i64 172}
!176 = !{i64 173}
!177 = !{i64 174}
!178 = !{i64 175}
!179 = !{i64 176}
!180 = !{i64 177}
!181 = !{i64 178}
!182 = !{i64 179}
!183 = !{i64 180}
!184 = !{i64 181}
!185 = !{i64 182}
!186 = !{i64 183}
!187 = !{i64 184}
!188 = !{i64 185}
!189 = !{i64 186}
!190 = !{i64 187}
!191 = !{i64 188}
!192 = !{i64 189}
!193 = !{i64 190}
!194 = !{i64 191}
!195 = !{i64 192}
!196 = !{i64 193}
!197 = !{i64 194}
!198 = !{i64 195}
!199 = !{i64 196}
!200 = !{i64 197}
!201 = !{i64 198}
!202 = !{i64 199}
!203 = !{i64 200}
!204 = !{i64 201}
!205 = !{i64 202}
!206 = !{i64 203}
!207 = !{i64 204}
!208 = !{i64 205}
!209 = !{i64 206}
!210 = !{i64 207}
!211 = !{i64 208}
!212 = !{i64 209}
!213 = !{i64 210}
!214 = !{i64 211}
!215 = !{i64 212}
!216 = !{i64 213}
!217 = !{i64 214}
!218 = !{i64 215}
!219 = !{i64 216}
!220 = !{i64 217}
!221 = !{i64 218}
!222 = !{i64 219}
!223 = !{i64 220}
!224 = !{i64 221}
!225 = !{i64 222}
!226 = !{i64 223}
!227 = !{i64 224}
!228 = !{i64 225}
!229 = !{i64 226}
!230 = !{i64 227}
!231 = !{i64 228}
!232 = !{i64 229}
!233 = !{i64 230}
!234 = !{i64 231}
!235 = !{i64 232}
!236 = !{i64 233}
!237 = !{i64 234}
!238 = !{i64 235}
!239 = !{i64 236}
!240 = !{i64 237}
!241 = !{i64 238}
!242 = !{i64 239}
!243 = !{i64 240}
!244 = !{i64 241}
!245 = !{i64 242}
!246 = !{i64 243}
!247 = !{i64 244}
!248 = !{i64 245}
!249 = !{i64 246}
!250 = !{i64 247}
!251 = !{i64 248}
!252 = !{i64 249}
!253 = !{i64 250}
!254 = !{i64 251}
!255 = !{i64 252}
!256 = !{i64 253}
!257 = !{i64 254}
!258 = !{i64 255}
!259 = !{i64 256}
!260 = !{i64 257}
!261 = !{i64 258}
!262 = !{i64 259}
!263 = !{i64 260}
!264 = !{i64 261}
!265 = !{i64 262}
!266 = !{i64 263}
!267 = !{i64 264}
!268 = !{i64 265}
!269 = !{i64 266}
!270 = !{i64 267}
!271 = !{i64 268}
!272 = !{i64 269}
!273 = !{i64 270}
!274 = !{i64 271}
!275 = !{i64 272}
!276 = !{i64 273}
!277 = !{i64 274}
!278 = !{i64 275}
!279 = !{i64 276}
!280 = !{i64 277}
!281 = !{i64 278}
!282 = !{i64 279}
!283 = !{i64 280}
!284 = !{i64 281}
!285 = !{i64 282}
!286 = !{i64 283}
!287 = !{i64 284}
!288 = !{i64 285}
!289 = !{i64 286}
!290 = !{i64 287}
!291 = !{i64 288}
!292 = !{i64 289}
!293 = !{i64 290}
!294 = !{i64 291}
!295 = !{i64 292}
!296 = !{i64 293}
!297 = !{i64 294}
!298 = !{i64 295}
!299 = !{i64 296}
!300 = !{i64 297}
!301 = !{i64 298}
!302 = !{i64 299}
!303 = !{i64 300}
!304 = !{i64 301}
!305 = !{i64 302}
!306 = !{i64 303}
!307 = !{i64 304}
!308 = !{i64 305}
!309 = !{i64 306}
!310 = !{i64 307}
!311 = !{i64 308}
!312 = !{i64 309}
!313 = !{i64 310}
!314 = !{i64 311}
!315 = !{i64 312}
!316 = !{i64 313}
!317 = !{i64 314}
!318 = !{i64 315}
!319 = !{i64 316}
!320 = !{i64 317}
!321 = !{i64 318}
!322 = !{i64 319}
!323 = !{i64 320}
!324 = !{i64 321}
!325 = !{i64 322}
!326 = !{i64 323}
!327 = !{i64 324}
!328 = !{i64 325}
!329 = !{i64 326}
!330 = !{i64 327}
!331 = !{i64 328}
!332 = !{i64 329}
!333 = !{i64 330}
!334 = !{i64 331}
!335 = !{i64 332}
!336 = !{i64 333}
!337 = !{i64 334}
!338 = !{i64 335}
!339 = !{i64 336}
!340 = !{i64 337}
!341 = !{i64 338}
!342 = !{i64 339}
!343 = !{i64 340}
!344 = !{i64 341}
!345 = !{i64 342}
!346 = !{i64 343}
!347 = !{i64 344}
!348 = !{i64 345}
!349 = !{i64 346}
!350 = !{i64 347}
!351 = !{i64 348}
!352 = !{i64 349}
!353 = !{i64 350}
!354 = !{i64 351}
!355 = !{i64 352}
!356 = !{i64 353}
!357 = !{i64 354}
!358 = !{i64 355}
!359 = !{i64 356}
!360 = !{i64 357}
!361 = !{i64 358}
!362 = !{i64 359}
!363 = !{i64 360}
!364 = !{i64 361}
!365 = !{i64 362}
!366 = !{i64 363}
!367 = !{i64 364}
!368 = !{i64 365}
!369 = !{i64 366}
!370 = !{i64 367}
!371 = !{i64 368}
!372 = !{i64 369}
!373 = !{i64 370}
!374 = !{i64 371}
!375 = !{i64 372}
!376 = !{i64 373}
!377 = !{i64 374}
!378 = !{i64 375}
!379 = !{i64 376}
!380 = !{i64 377}
!381 = !{i64 378}
!382 = !{i64 379}
!383 = !{i64 380}
!384 = !{i64 381}
!385 = !{i64 382}
!386 = !{i64 383}
!387 = !{i64 384}
!388 = !{i64 385}
!389 = !{i64 386}
!390 = !{i64 387}
!391 = !{i64 388}
!392 = !{i64 389}
!393 = !{i64 390}
!394 = !{i64 391}
!395 = !{i64 392}
!396 = !{i64 393}
!397 = !{i64 394}
!398 = !{i64 395}
!399 = !{i64 396}
!400 = !{i64 397}
!401 = !{i64 398}
!402 = !{i64 399}
!403 = !{i64 400}
!404 = !{i64 401}
!405 = !{i64 402}
!406 = !{i64 403}
!407 = !{i64 404}
!408 = !{i64 405}
!409 = !{i64 406}
!410 = !{i64 407}
!411 = !{i64 408}
!412 = !{i64 409}
!413 = !{i64 410}
!414 = !{i64 411}
!415 = !{i64 412}
!416 = !{i64 413}
!417 = !{i64 414}
!418 = !{i64 415}
!419 = !{i64 416}
!420 = !{i64 417}
!421 = !{i64 418}
!422 = !{i64 419}
!423 = !{i64 420}
!424 = !{i64 421}
!425 = !{i64 422}
!426 = !{i64 423}
!427 = !{i64 424}
!428 = !{i64 425}
!429 = !{i64 426}
!430 = !{i64 427}
!431 = !{i64 428}
!432 = !{i64 429}
!433 = !{i64 430}
!434 = !{i64 431}
!435 = !{i64 432}
!436 = !{i64 433}
!437 = !{i64 434}
!438 = !{i64 435}
!439 = !{i64 436}
!440 = !{i64 437}
!441 = !{i64 438}
!442 = !{i64 439}
!443 = !{i64 440}
!444 = !{i64 441}
!445 = !{i64 442}
!446 = !{i64 443}
!447 = !{i64 444}
!448 = !{i64 445}
!449 = !{i64 446}
!450 = !{i64 447}
!451 = !{i64 448}
!452 = !{i64 449}
!453 = !{i64 450}
!454 = !{i64 451}
!455 = !{i64 452}
!456 = !{i64 453}
!457 = !{i64 454}
!458 = !{i64 455}
!459 = !{i64 456}
!460 = !{i64 457}
!461 = !{i64 458}
!462 = !{i64 459}
!463 = !{i64 460}
!464 = !{i64 461}
!465 = !{i64 462}
!466 = !{i64 463}
!467 = !{i64 464}
!468 = !{i64 465}
!469 = !{i64 466}
!470 = !{i64 467}
!471 = !{i64 468}
!472 = !{i64 469}
!473 = !{i64 470}
!474 = !{i64 471}
!475 = !{i64 472}
!476 = !{i64 473}
!477 = !{i64 474}
!478 = !{i64 475}
!479 = !{i64 476}
!480 = !{i64 477}
!481 = !{i64 478}
!482 = !{i64 479}
!483 = !{i64 480}
!484 = !{i64 481}
!485 = !{i64 482}
!486 = !{i64 483}
!487 = !{i64 484}
!488 = !{i64 485}
!489 = !{i64 486}
!490 = !{i64 487}
!491 = !{i64 488}
!492 = !{i64 489}
!493 = !{i64 490}
!494 = !{i64 491}
!495 = !{i64 492}
!496 = !{i64 493}
!497 = !{i64 494}
!498 = !{i64 495}
!499 = !{i64 496}
!500 = !{i64 497}
!501 = !{i64 498}
!502 = !{i64 499}
!503 = !{i64 500}
!504 = !{i64 501}
!505 = !{i64 502}
!506 = !{i64 503}
!507 = !{i64 504}
!508 = !{i64 505}
!509 = !{i64 506}
!510 = !{i64 507}
!511 = !{i64 508}
!512 = !{i64 509}
!513 = !{i64 510}
!514 = !{i64 511}
!515 = !{i64 512}
!516 = !{i64 513}
!517 = !{i64 514}
!518 = !{i64 515}
!519 = !{i64 516}
!520 = !{i64 517}
!521 = !{i64 518}
!522 = !{i64 519}
!523 = !{i64 520}
!524 = !{i64 521}
!525 = !{i64 522}
!526 = !{i64 523}
!527 = !{i64 524}
!528 = !{i64 525}
!529 = !{i64 526}
!530 = !{i64 527}
!531 = !{i64 528}
!532 = !{i64 529}
!533 = !{i64 530}
!534 = !{i64 531}
!535 = !{i64 532}
!536 = !{i64 533}
!537 = !{i64 534}
!538 = !{i64 535}
!539 = !{i64 536}
!540 = !{i64 537}
!541 = !{i64 538}
!542 = !{i64 539}
!543 = !{i64 540}
!544 = !{i64 541}
!545 = !{i64 542}
!546 = !{i64 543}
!547 = !{i64 544}
!548 = !{i64 545}
!549 = !{i64 546}
!550 = !{i64 547}
!551 = !{i64 548}
!552 = !{i64 549}
!553 = !{i64 550}
!554 = !{i64 551}
!555 = !{i64 552}
!556 = !{i64 553}
!557 = !{i64 554}
!558 = !{i64 555}
!559 = !{i64 556}
!560 = !{i64 557}
!561 = !{i64 558}
!562 = !{i64 559}
!563 = !{i64 560}
!564 = !{i64 561}
!565 = !{i64 562}
!566 = !{i64 563}
!567 = !{i64 564}
!568 = !{i64 565}
!569 = !{i64 566}
!570 = !{i64 567}
!571 = !{i64 568}
!572 = !{i64 569}
!573 = !{i64 570}
!574 = !{i64 571}
!575 = !{i64 572}
!576 = !{i64 573}
!577 = !{i64 574}
!578 = !{i64 575}
!579 = !{i64 576}
!580 = !{i64 577}
!581 = !{i64 578}
!582 = !{i64 579}
!583 = !{i64 580}
!584 = !{i64 581}
!585 = !{i64 582}
!586 = !{i64 583}
!587 = !{i64 584}
!588 = !{i64 585}
!589 = !{i64 586}
!590 = !{i64 587}
!591 = !{i64 588}
!592 = !{i64 589}
!593 = !{i64 590}
!594 = !{i64 591}
!595 = !{i64 592}
!596 = !{i64 593}
!597 = !{i64 594}
!598 = !{i64 595}
!599 = !{i64 596}
!600 = !{i64 597}
!601 = !{i64 598}
!602 = !{i64 599}
!603 = !{i64 600}
!604 = !{i64 601}
!605 = !{i64 602}
!606 = !{i64 603}
!607 = !{i64 604}
!608 = !{i64 605}
!609 = !{i64 606}
!610 = !{i64 607}
!611 = !{i64 608}
!612 = !{i64 609}
!613 = !{i64 610}
!614 = !{i64 611}
!615 = !{i64 612}
!616 = !{i64 613}
!617 = !{i64 614}
!618 = !{i64 615}
!619 = !{i64 616}
!620 = !{i64 617}
!621 = !{i64 618}
!622 = !{i64 619}
!623 = !{i64 620}
!624 = !{i64 621}
!625 = !{i64 622}
!626 = !{i64 623}
!627 = !{i64 624}
!628 = !{i64 625}
!629 = !{i64 626}
!630 = !{i64 627}
!631 = !{i64 628}
!632 = !{i64 629}
!633 = !{i64 630}
!634 = !{i64 631}
!635 = !{i64 632}
!636 = !{i64 633}
!637 = !{i64 634}
!638 = !{i64 635}
!639 = !{i64 636}
!640 = !{i64 637}
!641 = !{i64 638}
!642 = !{i64 639}
!643 = !{i64 640}
!644 = !{i64 641}
!645 = !{i64 642}
!646 = !{i64 643}
!647 = !{i64 644}
!648 = !{i64 645}
!649 = !{i64 646}
!650 = !{i64 647}
!651 = !{i64 648}
!652 = !{i64 649}
!653 = !{i64 650}
!654 = !{i64 651}
!655 = !{i64 652}
!656 = !{i64 653}
!657 = !{i64 654}
!658 = !{i64 655}
!659 = !{i64 656}
!660 = !{i64 657}
!661 = !{i64 658}
!662 = !{i64 659}
!663 = !{i64 660}
!664 = !{i64 661}
!665 = !{i64 662}
!666 = !{i64 663}
!667 = !{i64 664}
!668 = !{i64 665}
!669 = !{i64 666}
!670 = !{i64 667}
!671 = !{i64 668}
!672 = !{i64 669}
!673 = !{i64 670}
!674 = !{i64 671}
!675 = !{i64 672}
!676 = !{i64 673}
!677 = !{i64 674}
!678 = !{i64 675}
!679 = !{i64 676}
!680 = !{i64 677}
!681 = !{i64 678}
!682 = !{i64 679}
!683 = !{i64 680}
!684 = !{i64 681}
!685 = !{i64 682}
!686 = !{i64 683}
!687 = !{i64 684}
!688 = !{i64 685}
!689 = !{i64 686}
!690 = !{i64 687}
!691 = !{i64 688}
!692 = !{i64 689}
!693 = !{i64 690}
!694 = !{i64 691}
!695 = !{i64 692}
!696 = !{i64 693}
!697 = !{i64 694}
!698 = !{i64 695}
!699 = !{i64 696}
!700 = !{i64 697}
!701 = !{i64 698}
!702 = !{i64 699}
!703 = !{i64 700}
!704 = !{i64 701}
!705 = !{i64 702}
!706 = !{i64 703}
!707 = !{i64 704}
!708 = !{i64 705}
!709 = !{i64 706}
!710 = !{i64 707}
!711 = !{i64 708}
!712 = !{i64 709}
!713 = !{i64 710}
!714 = !{i64 711}
!715 = !{i64 712}
!716 = !{i64 713}
!717 = !{i64 714}
!718 = !{i64 715}
!719 = !{i64 716}
!720 = !{i64 717}
!721 = !{i64 718}
!722 = !{i64 719}
!723 = !{i64 720}
!724 = !{i64 721}
!725 = !{i64 722}
!726 = !{i64 723}
!727 = !{i64 724}
!728 = !{i64 725}
!729 = !{i64 726}
!730 = !{i64 727}
!731 = !{i64 728}
!732 = !{i64 729}
!733 = !{i64 730}
!734 = !{i64 731}
!735 = !{i64 732}
!736 = !{i64 733}
!737 = !{i64 734}
!738 = !{i64 735}
!739 = !{i64 736}
!740 = !{i64 737}
!741 = !{i64 738}
!742 = !{i64 739}
!743 = !{i64 740}
!744 = !{i64 741}
!745 = !{i64 742}
!746 = !{i64 743}
!747 = !{i64 744}
!748 = !{i64 745}
!749 = !{i64 746}
!750 = !{i64 747}
!751 = !{i64 748}
!752 = !{i64 749}
!753 = !{i64 750}
!754 = !{i64 751}
!755 = !{i64 752}
!756 = !{i64 753}
!757 = !{i64 754}
!758 = !{i64 755}
!759 = !{i64 756}
!760 = !{i64 757}
!761 = !{i64 758}
!762 = !{i64 759}
!763 = !{i64 760}
!764 = !{i64 761}
!765 = !{i64 762}
!766 = !{i64 763}
!767 = !{i64 764}
!768 = !{i64 765}
!769 = !{i64 766}
!770 = !{i64 767}
!771 = !{i64 768}
!772 = !{i64 769}
!773 = !{i64 770}
!774 = !{i64 771}
!775 = !{i64 772}
!776 = !{i64 773}
!777 = !{i64 774}
!778 = !{i64 775}
!779 = !{i64 776}
!780 = !{i64 777}
!781 = !{i64 778}
!782 = !{i64 779}
!783 = !{i64 780}
!784 = !{i64 781}
!785 = !{i64 782}
!786 = !{i64 783}
!787 = !{i64 784}
!788 = !{i64 785}
!789 = !{i64 786}
!790 = !{i64 787}
!791 = !{i64 788}
!792 = !{i64 789}
!793 = !{i64 790}
!794 = !{i64 791}
!795 = !{i64 792}
!796 = !{i64 793}
!797 = !{i64 794}
!798 = !{i64 795}
!799 = !{i64 796}
!800 = !{i64 797}
!801 = !{i64 798}
!802 = !{i64 799}
!803 = distinct !{!803, !804}
!804 = !{!"llvm.loop.mustprogress"}
!805 = !{i64 800}
!806 = !{i64 801}
!807 = !{i64 802}
!808 = !{i64 803}
!809 = !{i64 804}
!810 = !{i64 805}
!811 = !{i64 806}
!812 = !{i64 807}
!813 = !{i64 808}
!814 = !{i64 809}
!815 = !{i64 810}
!816 = !{i64 811}
!817 = !{i64 812}
!818 = !{i64 813}
!819 = !{i64 814}
!820 = !{i64 815}
!821 = !{i64 816}
!822 = !{i64 817}
!823 = distinct !{!823, !804}
!824 = !{i64 818}
!825 = !{i64 819}
!826 = !{i64 820}
!827 = !{i64 821}
!828 = !{i64 822}
!829 = !{i64 823}
!830 = !{i64 824}
!831 = !{i64 825}
!832 = !{i64 826}
!833 = !{i64 827}
!834 = !{i64 828}
!835 = !{i64 829}
!836 = !{i64 830}
!837 = !{i64 831}
