; ModuleID = '/home/hjiang/Computation-Kernel-Dataset/experiments/Fault_injection_0308_parall/O0/CameraPurchase/CameraPurchase.ll'
source_filename = "llvm-link"
target datalayout = "e-m:e-p270:32:32-p271:32:32-p272:64:64-i64:64-f80:128-n8:16:32:64-S128"
target triple = "x86_64-unknown-linux-gnu"

%"class.std::allocator" = type { i8 }
%"class.std::vector" = type { %"struct.std::_Vector_base" }
%"struct.std::_Vector_base" = type { %"struct.std::_Vector_base<int, std::allocator<int>>::_Vector_impl" }
%"struct.std::_Vector_base<int, std::allocator<int>>::_Vector_impl" = type { %"struct.std::_Vector_base<int, std::allocator<int>>::_Vector_impl_data" }
%"struct.std::_Vector_base<int, std::allocator<int>>::_Vector_impl_data" = type { i32*, i32*, i32* }
%struct._IO_FILE = type { i32, i8*, i8*, i8*, i8*, i8*, i8*, i8*, i8*, i8*, i8*, i8*, %struct._IO_marker*, %struct._IO_FILE*, i32, i32, i64, i16, i8, [1 x i8], i8*, i64, %struct._IO_codecvt*, %struct._IO_wide_data*, %struct._IO_FILE*, i8*, i64, i32, [20 x i8] }
%struct._IO_marker = type opaque
%struct._IO_codecvt = type opaque
%struct._IO_wide_data = type opaque
%"class.std::basic_istream" = type { i32 (...)**, i64, %"class.std::basic_ios" }
%"class.std::basic_ios" = type { %"class.std::ios_base", %"class.std::basic_ostream"*, i8, i8, %"class.std::basic_streambuf"*, %"class.std::ctype"*, %"class.std::num_put"*, %"class.std::num_put"* }
%"class.std::ios_base" = type { i32 (...)**, i64, i64, i32, i32, i32, %"struct.std::ios_base::_Callback_list"*, %"struct.std::ios_base::_Words", [8 x %"struct.std::ios_base::_Words"], i32, %"struct.std::ios_base::_Words"*, %"class.std::locale" }
%"struct.std::ios_base::_Callback_list" = type { %"struct.std::ios_base::_Callback_list"*, void (i32, %"class.std::ios_base"*, i32)*, i32, i32 }
%"struct.std::ios_base::_Words" = type { i8*, i64 }
%"class.std::locale" = type { %"class.std::locale::_Impl"* }
%"class.std::locale::_Impl" = type { i32, %"class.std::locale::facet"**, i64, %"class.std::locale::facet"**, i8** }
%"class.std::locale::facet" = type <{ i32 (...)**, i32, [4 x i8] }>
%"class.std::basic_ostream" = type { i32 (...)**, %"class.std::basic_ios" }
%"class.std::basic_streambuf" = type { i32 (...)**, i8*, i8*, i8*, i8*, i8*, i8*, %"class.std::locale" }
%"class.std::ctype" = type <{ %"class.std::locale::facet.base", [4 x i8], %struct.__locale_struct*, i8, [7 x i8], i32*, i32*, i16*, i8, [256 x i8], [256 x i8], i8, [6 x i8] }>
%"class.std::locale::facet.base" = type <{ i32 (...)**, i32 }>
%struct.__locale_struct = type { [13 x %struct.__locale_data*], i16*, i32*, i32*, [13 x i8*] }
%struct.__locale_data = type opaque
%"class.std::num_put" = type { %"class.std::locale::facet.base", [4 x i8] }
%"class.__gnu_cxx::__normal_iterator" = type { i32* }

$_ZNSt6vectorIiSaIiEEC2Ev = comdat any

$_ZNSt6vectorIiSaIiEED2Ev = comdat any

$_ZNSt12_Vector_baseIiSaIiEE19_M_get_Tp_allocatorEv = comdat any

$_ZSt8_DestroyIPiiEvT_S1_RSaIT0_E = comdat any

$_ZNSt12_Vector_baseIiSaIiEED2Ev = comdat any

$__clang_call_terminate = comdat any

$_ZNSt12_Vector_baseIiSaIiEE13_M_deallocateEPim = comdat any

$_ZNSt12_Vector_baseIiSaIiEE12_Vector_implD2Ev = comdat any

$_ZNSaIiED2Ev = comdat any

$_ZN9__gnu_cxx13new_allocatorIiED2Ev = comdat any

$_ZNSt16allocator_traitsISaIiEE10deallocateERS0_Pim = comdat any

$_ZN9__gnu_cxx13new_allocatorIiE10deallocateEPim = comdat any

$_ZSt8_DestroyIPiEvT_S1_ = comdat any

$_ZNSt12_Destroy_auxILb1EE9__destroyIPiEEvT_S3_ = comdat any

$_ZNSt12_Vector_baseIiSaIiEEC2Ev = comdat any

$_ZNSt12_Vector_baseIiSaIiEE12_Vector_implC2Ev = comdat any

$_ZNSaIiEC2Ev = comdat any

$_ZNSt12_Vector_baseIiSaIiEE17_Vector_impl_dataC2Ev = comdat any

$_ZN9__gnu_cxx13new_allocatorIiEC2Ev = comdat any

$_ZNSt6vectorIiSaIiEE9push_backERKi = comdat any

$_ZNSt16allocator_traitsISaIiEE9constructIiJRKiEEEvRS0_PT_DpOT0_ = comdat any

$_ZNSt6vectorIiSaIiEE3endEv = comdat any

$_ZNSt6vectorIiSaIiEE17_M_realloc_insertIJRKiEEEvN9__gnu_cxx17__normal_iteratorIPiS1_EEDpOT_ = comdat any

$_ZNKSt6vectorIiSaIiEE12_M_check_lenEmPKc = comdat any

$_ZNSt6vectorIiSaIiEE5beginEv = comdat any

$_ZN9__gnu_cxxmiIPiSt6vectorIiSaIiEEEENS_17__normal_iteratorIT_T0_E15difference_typeERKS8_SB_ = comdat any

$_ZNSt12_Vector_baseIiSaIiEE11_M_allocateEm = comdat any

$_ZSt7forwardIRKiEOT_RNSt16remove_referenceIS2_E4typeE = comdat any

$_ZNK9__gnu_cxx17__normal_iteratorIPiSt6vectorIiSaIiEEE4baseEv = comdat any

$_ZNSt6vectorIiSaIiEE11_S_relocateEPiS2_S2_RS0_ = comdat any

$_ZNSt6vectorIiSaIiEE14_S_do_relocateEPiS2_S2_RS0_St17integral_constantIbLb1EE = comdat any

$_ZSt12__relocate_aIPiS0_SaIiEET0_T_S3_S2_RT1_ = comdat any

$_ZSt12__niter_baseIPiET_S1_ = comdat any

$_ZSt14__relocate_a_1IiiENSt9enable_ifIXsr3std24__is_bitwise_relocatableIT_EE5valueEPS1_E4typeES2_S2_S2_RSaIT0_E = comdat any

$_ZNSt16allocator_traitsISaIiEE8allocateERS0_m = comdat any

$_ZN9__gnu_cxx13new_allocatorIiE8allocateEmPKv = comdat any

$_ZNK9__gnu_cxx13new_allocatorIiE8max_sizeEv = comdat any

$_ZN9__gnu_cxx17__normal_iteratorIPiSt6vectorIiSaIiEEEC2ERKS1_ = comdat any

$_ZNKSt6vectorIiSaIiEE8max_sizeEv = comdat any

$_ZNKSt6vectorIiSaIiEE4sizeEv = comdat any

$_ZSt3maxImERKT_S2_S2_ = comdat any

$_ZNKSt12_Vector_baseIiSaIiEE19_M_get_Tp_allocatorEv = comdat any

$_ZNSt6vectorIiSaIiEE11_S_max_sizeERKS0_ = comdat any

$_ZNSt16allocator_traitsISaIiEE8max_sizeERKS0_ = comdat any

$_ZSt3minImERKT_S2_S2_ = comdat any

$_ZN9__gnu_cxx13new_allocatorIiE9constructIiJRKiEEEvPT_DpOT0_ = comdat any

$_ZSt4sortIN9__gnu_cxx17__normal_iteratorIPiSt6vectorIiSaIiEEEEEvT_S7_ = comdat any

$_ZNSt6vectorIiSaIiEEixEm = comdat any

$_ZN9__gnu_cxx5__ops16__iter_less_iterEv = comdat any

$_ZSt6__sortIN9__gnu_cxx17__normal_iteratorIPiSt6vectorIiSaIiEEEENS0_5__ops15_Iter_less_iterEEvT_S9_T0_ = comdat any

$_ZN9__gnu_cxxneIPiSt6vectorIiSaIiEEEEbRKNS_17__normal_iteratorIT_T0_EESA_ = comdat any

$_ZSt4__lgl = comdat any

$_ZSt16__introsort_loopIN9__gnu_cxx17__normal_iteratorIPiSt6vectorIiSaIiEEEElNS0_5__ops15_Iter_less_iterEEvT_S9_T0_T1_ = comdat any

$_ZSt22__final_insertion_sortIN9__gnu_cxx17__normal_iteratorIPiSt6vectorIiSaIiEEEENS0_5__ops15_Iter_less_iterEEvT_S9_T0_ = comdat any

$_ZNK9__gnu_cxx17__normal_iteratorIPiSt6vectorIiSaIiEEEplEl = comdat any

$_ZSt16__insertion_sortIN9__gnu_cxx17__normal_iteratorIPiSt6vectorIiSaIiEEEENS0_5__ops15_Iter_less_iterEEvT_S9_T0_ = comdat any

$_ZSt26__unguarded_insertion_sortIN9__gnu_cxx17__normal_iteratorIPiSt6vectorIiSaIiEEEENS0_5__ops15_Iter_less_iterEEvT_S9_T0_ = comdat any

$_ZN9__gnu_cxx5__ops15__val_comp_iterENS0_15_Iter_less_iterE = comdat any

$_ZSt25__unguarded_linear_insertIN9__gnu_cxx17__normal_iteratorIPiSt6vectorIiSaIiEEEENS0_5__ops14_Val_less_iterEEvT_T0_ = comdat any

$_ZN9__gnu_cxx17__normal_iteratorIPiSt6vectorIiSaIiEEEppEv = comdat any

$_ZNK9__gnu_cxx17__normal_iteratorIPiSt6vectorIiSaIiEEEdeEv = comdat any

$_ZSt4moveIRiEONSt16remove_referenceIT_E4typeEOS2_ = comdat any

$_ZN9__gnu_cxx17__normal_iteratorIPiSt6vectorIiSaIiEEEmmEv = comdat any

$_ZNK9__gnu_cxx5__ops14_Val_less_iterclIiNS_17__normal_iteratorIPiSt6vectorIiSaIiEEEEEEbRT_T0_ = comdat any

$_ZN9__gnu_cxxeqIPiSt6vectorIiSaIiEEEEbRKNS_17__normal_iteratorIT_T0_EESA_ = comdat any

$_ZNK9__gnu_cxx5__ops15_Iter_less_iterclINS_17__normal_iteratorIPiSt6vectorIiSaIiEEEES8_EEbT_T0_ = comdat any

$_ZSt13move_backwardIN9__gnu_cxx17__normal_iteratorIPiSt6vectorIiSaIiEEEES6_ET0_T_S8_S7_ = comdat any

$_ZSt12__miter_baseIN9__gnu_cxx17__normal_iteratorIPiSt6vectorIiSaIiEEEEET_S7_ = comdat any

$_ZSt23__copy_move_backward_a2ILb1EN9__gnu_cxx17__normal_iteratorIPiSt6vectorIiSaIiEEEES6_ET1_T0_S8_S7_ = comdat any

$_ZSt12__niter_baseIPiSt6vectorIiSaIiEEET_N9__gnu_cxx17__normal_iteratorIS4_T0_EE = comdat any

$_ZSt22__copy_move_backward_aILb1EPiS0_ET1_T0_S2_S1_ = comdat any

$_ZSt12__niter_wrapIN9__gnu_cxx17__normal_iteratorIPiSt6vectorIiSaIiEEEES2_ET_S7_T0_ = comdat any

$_ZNSt20__copy_move_backwardILb1ELb1ESt26random_access_iterator_tagE13__copy_move_bIiEEPT_PKS3_S6_S4_ = comdat any

$_ZSt14__partial_sortIN9__gnu_cxx17__normal_iteratorIPiSt6vectorIiSaIiEEEENS0_5__ops15_Iter_less_iterEEvT_S9_S9_T0_ = comdat any

$_ZSt27__unguarded_partition_pivotIN9__gnu_cxx17__normal_iteratorIPiSt6vectorIiSaIiEEEENS0_5__ops15_Iter_less_iterEET_S9_S9_T0_ = comdat any

$_ZNK9__gnu_cxx17__normal_iteratorIPiSt6vectorIiSaIiEEEmiEl = comdat any

$_ZSt22__move_median_to_firstIN9__gnu_cxx17__normal_iteratorIPiSt6vectorIiSaIiEEEENS0_5__ops15_Iter_less_iterEEvT_S9_S9_S9_T0_ = comdat any

$_ZSt21__unguarded_partitionIN9__gnu_cxx17__normal_iteratorIPiSt6vectorIiSaIiEEEENS0_5__ops15_Iter_less_iterEET_S9_S9_S9_T0_ = comdat any

$_ZN9__gnu_cxxltIPiSt6vectorIiSaIiEEEEbRKNS_17__normal_iteratorIT_T0_EESA_ = comdat any

$_ZSt9iter_swapIN9__gnu_cxx17__normal_iteratorIPiSt6vectorIiSaIiEEEES6_EvT_T0_ = comdat any

$_ZSt4swapIiENSt9enable_ifIXsr6__and_ISt6__not_ISt15__is_tuple_likeIT_EESt21is_move_constructibleIS3_ESt18is_move_assignableIS3_EEE5valueEvE4typeERS3_SC_ = comdat any

$_ZSt13__heap_selectIN9__gnu_cxx17__normal_iteratorIPiSt6vectorIiSaIiEEEENS0_5__ops15_Iter_less_iterEEvT_S9_S9_T0_ = comdat any

$_ZSt11__sort_heapIN9__gnu_cxx17__normal_iteratorIPiSt6vectorIiSaIiEEEENS0_5__ops15_Iter_less_iterEEvT_S9_RT0_ = comdat any

$_ZSt10__pop_heapIN9__gnu_cxx17__normal_iteratorIPiSt6vectorIiSaIiEEEENS0_5__ops15_Iter_less_iterEEvT_S9_S9_RT0_ = comdat any

$_ZSt13__adjust_heapIN9__gnu_cxx17__normal_iteratorIPiSt6vectorIiSaIiEEEEliNS0_5__ops15_Iter_less_iterEEvT_T0_SA_T1_T2_ = comdat any

$_ZSt4moveIRN9__gnu_cxx5__ops15_Iter_less_iterEEONSt16remove_referenceIT_E4typeEOS5_ = comdat any

$_ZN9__gnu_cxx5__ops14_Iter_less_valC2ENS0_15_Iter_less_iterE = comdat any

$_ZSt11__push_heapIN9__gnu_cxx17__normal_iteratorIPiSt6vectorIiSaIiEEEEliNS0_5__ops14_Iter_less_valEEvT_T0_SA_T1_RT2_ = comdat any

$_ZNK9__gnu_cxx5__ops14_Iter_less_valclINS_17__normal_iteratorIPiSt6vectorIiSaIiEEEEiEEbT_RT0_ = comdat any

$_ZSt11__make_heapIN9__gnu_cxx17__normal_iteratorIPiSt6vectorIiSaIiEEEENS0_5__ops15_Iter_less_iterEEvT_S9_RT0_ = comdat any

@llvm.global_ctors = appending global [1 x { i32, void ()*, i8* }] [{ i32, void ()*, i8* } { i32 65535, void ()* @_GLOBAL__sub_I_CameraPurchase.cpp, i8* null }]
@_ZStL8__ioinit = internal global %"class.std::allocator" zeroinitializer, align 1
@arr = dso_local global [33 x %"class.std::vector"] zeroinitializer, align 16
@brand = dso_local global [100005 x i32] zeroinitializer, align 16
@price = dso_local global [100005 x i32] zeroinitializer, align 16
@n = dso_local global i32 0, align 4
@.str = private unnamed_addr constant [30 x i8] c"../input_files/CameraPurchase\00", align 1
@.str.2 = private unnamed_addr constant [2 x i8] c"r\00", align 1
@stdin = external dso_local global %struct._IO_FILE*, align 8
@_ZSt3cin = external dso_local global %"class.std::basic_istream", align 8
@_ZSt4cout = external dso_local global %"class.std::basic_ostream", align 8
@.str.3 = private unnamed_addr constant [26 x i8] c"vector::_M_realloc_insert\00", align 1

; Function Attrs: noinline uwtable
define internal void @_GLOBAL__sub_I_CameraPurchase.cpp() #0 section ".text.startup" {
  call void @__cxx_global_var_init(), !llfi_index !4
  call void @__cxx_global_var_init.1(), !llfi_index !5
  ret void, !llfi_index !6
}

; Function Attrs: noinline uwtable
define internal void @__cxx_global_var_init() #0 section ".text.startup" {
  call void @_ZNSt8ios_base4InitC1Ev(%"class.std::allocator"* nonnull align 1 dereferenceable(1) @_ZStL8__ioinit), !llfi_index !7
  %1 = call i32 @atexit(void ()* @__dtor__ZStL8__ioinit) #2, !llfi_index !8
  ret void, !llfi_index !9
}

; Function Attrs: noinline uwtable
define internal void @__cxx_global_var_init.1() #0 section ".text.startup" {
  br label %1, !llfi_index !10

1:                                                ; preds = %1, %0
  %2 = phi %"class.std::vector"* [ getelementptr inbounds ([33 x %"class.std::vector"], [33 x %"class.std::vector"]* @arr, i32 0, i32 0), %0 ], [ %3, %1 ], !llfi_index !11
  call void @_ZNSt6vectorIiSaIiEEC2Ev(%"class.std::vector"* nonnull align 8 dereferenceable(24) %2) #2, !llfi_index !12
  %3 = getelementptr inbounds %"class.std::vector", %"class.std::vector"* %2, i64 1, !llfi_index !13
  %4 = icmp eq %"class.std::vector"* %3, getelementptr inbounds (%"class.std::vector", %"class.std::vector"* getelementptr inbounds ([33 x %"class.std::vector"], [33 x %"class.std::vector"]* @arr, i32 0, i32 0), i64 33), !llfi_index !14
  br i1 %4, label %5, label %1, !llfi_index !15

5:                                                ; preds = %1
  %6 = call i32 @atexit(void ()* @__dtor_arr) #2, !llfi_index !16
  ret void, !llfi_index !17
}

; Function Attrs: noinline nounwind uwtable
define linkonce_odr dso_local void @_ZNSt6vectorIiSaIiEEC2Ev(%"class.std::vector"* nonnull align 8 dereferenceable(24) %0) unnamed_addr #1 comdat align 2 {
  %2 = alloca %"class.std::vector"*, align 8, !llfi_index !18
  store %"class.std::vector"* %0, %"class.std::vector"** %2, align 8, !llfi_index !19
  %3 = load %"class.std::vector"*, %"class.std::vector"** %2, align 8, !llfi_index !20
  %4 = bitcast %"class.std::vector"* %3 to %"struct.std::_Vector_base"*, !llfi_index !21
  call void @_ZNSt12_Vector_baseIiSaIiEEC2Ev(%"struct.std::_Vector_base"* nonnull align 8 dereferenceable(24) %4) #2, !llfi_index !22
  ret void, !llfi_index !23
}

; Function Attrs: noinline uwtable
define internal void @__dtor_arr() #0 section ".text.startup" {
  call void @__cxx_global_array_dtor(i8* null), !llfi_index !24
  ret void, !llfi_index !25
}

; Function Attrs: nounwind
declare dso_local i32 @atexit(void ()*) #2

; Function Attrs: noinline uwtable
define internal void @__cxx_global_array_dtor(i8* %0) #0 section ".text.startup" {
  %2 = alloca i8*, align 8, !llfi_index !26
  store i8* %0, i8** %2, align 8, !llfi_index !27
  br label %3, !llfi_index !28

3:                                                ; preds = %3, %1
  %4 = phi %"class.std::vector"* [ getelementptr inbounds (%"class.std::vector", %"class.std::vector"* getelementptr inbounds ([33 x %"class.std::vector"], [33 x %"class.std::vector"]* @arr, i32 0, i32 0), i64 33), %1 ], [ %5, %3 ], !llfi_index !29
  %5 = getelementptr inbounds %"class.std::vector", %"class.std::vector"* %4, i64 -1, !llfi_index !30
  call void @_ZNSt6vectorIiSaIiEED2Ev(%"class.std::vector"* nonnull align 8 dereferenceable(24) %5) #2, !llfi_index !31
  %6 = icmp eq %"class.std::vector"* %5, getelementptr inbounds ([33 x %"class.std::vector"], [33 x %"class.std::vector"]* @arr, i32 0, i32 0), !llfi_index !32
  br i1 %6, label %7, label %3, !llfi_index !33

7:                                                ; preds = %3
  ret void, !llfi_index !34
}

; Function Attrs: noinline nounwind uwtable
define linkonce_odr dso_local void @_ZNSt6vectorIiSaIiEED2Ev(%"class.std::vector"* nonnull align 8 dereferenceable(24) %0) unnamed_addr #1 comdat align 2 personality i8* bitcast (i32 (...)* @__gxx_personality_v0 to i8*) {
  %2 = alloca %"class.std::vector"*, align 8, !llfi_index !35
  %3 = alloca i8*, align 8, !llfi_index !36
  %4 = alloca i32, align 4, !llfi_index !37
  store %"class.std::vector"* %0, %"class.std::vector"** %2, align 8, !llfi_index !38
  %5 = load %"class.std::vector"*, %"class.std::vector"** %2, align 8, !llfi_index !39
  %6 = bitcast %"class.std::vector"* %5 to %"struct.std::_Vector_base"*, !llfi_index !40
  %7 = getelementptr inbounds %"struct.std::_Vector_base", %"struct.std::_Vector_base"* %6, i32 0, i32 0, !llfi_index !41
  %8 = bitcast %"struct.std::_Vector_base<int, std::allocator<int>>::_Vector_impl"* %7 to %"struct.std::_Vector_base<int, std::allocator<int>>::_Vector_impl_data"*, !llfi_index !42
  %9 = getelementptr inbounds %"struct.std::_Vector_base<int, std::allocator<int>>::_Vector_impl_data", %"struct.std::_Vector_base<int, std::allocator<int>>::_Vector_impl_data"* %8, i32 0, i32 0, !llfi_index !43
  %10 = load i32*, i32** %9, align 8, !llfi_index !44
  %11 = bitcast %"class.std::vector"* %5 to %"struct.std::_Vector_base"*, !llfi_index !45
  %12 = getelementptr inbounds %"struct.std::_Vector_base", %"struct.std::_Vector_base"* %11, i32 0, i32 0, !llfi_index !46
  %13 = bitcast %"struct.std::_Vector_base<int, std::allocator<int>>::_Vector_impl"* %12 to %"struct.std::_Vector_base<int, std::allocator<int>>::_Vector_impl_data"*, !llfi_index !47
  %14 = getelementptr inbounds %"struct.std::_Vector_base<int, std::allocator<int>>::_Vector_impl_data", %"struct.std::_Vector_base<int, std::allocator<int>>::_Vector_impl_data"* %13, i32 0, i32 1, !llfi_index !48
  %15 = load i32*, i32** %14, align 8, !llfi_index !49
  %16 = bitcast %"class.std::vector"* %5 to %"struct.std::_Vector_base"*, !llfi_index !50
  %17 = call nonnull align 1 dereferenceable(1) %"class.std::allocator"* @_ZNSt12_Vector_baseIiSaIiEE19_M_get_Tp_allocatorEv(%"struct.std::_Vector_base"* nonnull align 8 dereferenceable(24) %16) #2, !llfi_index !51
  invoke void @_ZSt8_DestroyIPiiEvT_S1_RSaIT0_E(i32* %10, i32* %15, %"class.std::allocator"* nonnull align 1 dereferenceable(1) %17)
          to label %18 unwind label %20, !llfi_index !52

18:                                               ; preds = %1
  %19 = bitcast %"class.std::vector"* %5 to %"struct.std::_Vector_base"*, !llfi_index !53
  call void @_ZNSt12_Vector_baseIiSaIiEED2Ev(%"struct.std::_Vector_base"* nonnull align 8 dereferenceable(24) %19) #2, !llfi_index !54
  ret void, !llfi_index !55

20:                                               ; preds = %1
  %21 = landingpad { i8*, i32 }
          catch i8* null, !llfi_index !56
  %22 = extractvalue { i8*, i32 } %21, 0, !llfi_index !57
  store i8* %22, i8** %3, align 8, !llfi_index !58
  %23 = extractvalue { i8*, i32 } %21, 1, !llfi_index !59
  store i32 %23, i32* %4, align 4, !llfi_index !60
  %24 = bitcast %"class.std::vector"* %5 to %"struct.std::_Vector_base"*, !llfi_index !61
  call void @_ZNSt12_Vector_baseIiSaIiEED2Ev(%"struct.std::_Vector_base"* nonnull align 8 dereferenceable(24) %24) #2, !llfi_index !62
  br label %25, !llfi_index !63

25:                                               ; preds = %20
  %26 = load i8*, i8** %3, align 8, !llfi_index !64
  call void @__clang_call_terminate(i8* %26) #14, !llfi_index !65
  unreachable, !llfi_index !66
}

declare dso_local i32 @__gxx_personality_v0(...)

; Function Attrs: mustprogress noinline nounwind uwtable
define linkonce_odr dso_local nonnull align 1 dereferenceable(1) %"class.std::allocator"* @_ZNSt12_Vector_baseIiSaIiEE19_M_get_Tp_allocatorEv(%"struct.std::_Vector_base"* nonnull align 8 dereferenceable(24) %0) #3 comdat align 2 {
  %2 = alloca %"struct.std::_Vector_base"*, align 8, !llfi_index !67
  store %"struct.std::_Vector_base"* %0, %"struct.std::_Vector_base"** %2, align 8, !llfi_index !68
  %3 = load %"struct.std::_Vector_base"*, %"struct.std::_Vector_base"** %2, align 8, !llfi_index !69
  %4 = getelementptr inbounds %"struct.std::_Vector_base", %"struct.std::_Vector_base"* %3, i32 0, i32 0, !llfi_index !70
  %5 = bitcast %"struct.std::_Vector_base<int, std::allocator<int>>::_Vector_impl"* %4 to %"class.std::allocator"*, !llfi_index !71
  ret %"class.std::allocator"* %5, !llfi_index !72
}

; Function Attrs: mustprogress noinline uwtable
define linkonce_odr dso_local void @_ZSt8_DestroyIPiiEvT_S1_RSaIT0_E(i32* %0, i32* %1, %"class.std::allocator"* nonnull align 1 dereferenceable(1) %2) #4 comdat {
  %4 = alloca i32*, align 8, !llfi_index !73
  %5 = alloca i32*, align 8, !llfi_index !74
  %6 = alloca %"class.std::allocator"*, align 8, !llfi_index !75
  store i32* %0, i32** %4, align 8, !llfi_index !76
  store i32* %1, i32** %5, align 8, !llfi_index !77
  store %"class.std::allocator"* %2, %"class.std::allocator"** %6, align 8, !llfi_index !78
  %7 = load i32*, i32** %4, align 8, !llfi_index !79
  %8 = load i32*, i32** %5, align 8, !llfi_index !80
  call void @_ZSt8_DestroyIPiEvT_S1_(i32* %7, i32* %8), !llfi_index !81
  ret void, !llfi_index !82
}

; Function Attrs: noinline nounwind uwtable
define linkonce_odr dso_local void @_ZNSt12_Vector_baseIiSaIiEED2Ev(%"struct.std::_Vector_base"* nonnull align 8 dereferenceable(24) %0) unnamed_addr #1 comdat align 2 personality i8* bitcast (i32 (...)* @__gxx_personality_v0 to i8*) {
  %2 = alloca %"struct.std::_Vector_base"*, align 8, !llfi_index !83
  %3 = alloca i8*, align 8, !llfi_index !84
  %4 = alloca i32, align 4, !llfi_index !85
  store %"struct.std::_Vector_base"* %0, %"struct.std::_Vector_base"** %2, align 8, !llfi_index !86
  %5 = load %"struct.std::_Vector_base"*, %"struct.std::_Vector_base"** %2, align 8, !llfi_index !87
  %6 = getelementptr inbounds %"struct.std::_Vector_base", %"struct.std::_Vector_base"* %5, i32 0, i32 0, !llfi_index !88
  %7 = bitcast %"struct.std::_Vector_base<int, std::allocator<int>>::_Vector_impl"* %6 to %"struct.std::_Vector_base<int, std::allocator<int>>::_Vector_impl_data"*, !llfi_index !89
  %8 = getelementptr inbounds %"struct.std::_Vector_base<int, std::allocator<int>>::_Vector_impl_data", %"struct.std::_Vector_base<int, std::allocator<int>>::_Vector_impl_data"* %7, i32 0, i32 0, !llfi_index !90
  %9 = load i32*, i32** %8, align 8, !llfi_index !91
  %10 = getelementptr inbounds %"struct.std::_Vector_base", %"struct.std::_Vector_base"* %5, i32 0, i32 0, !llfi_index !92
  %11 = bitcast %"struct.std::_Vector_base<int, std::allocator<int>>::_Vector_impl"* %10 to %"struct.std::_Vector_base<int, std::allocator<int>>::_Vector_impl_data"*, !llfi_index !93
  %12 = getelementptr inbounds %"struct.std::_Vector_base<int, std::allocator<int>>::_Vector_impl_data", %"struct.std::_Vector_base<int, std::allocator<int>>::_Vector_impl_data"* %11, i32 0, i32 2, !llfi_index !94
  %13 = load i32*, i32** %12, align 8, !llfi_index !95
  %14 = getelementptr inbounds %"struct.std::_Vector_base", %"struct.std::_Vector_base"* %5, i32 0, i32 0, !llfi_index !96
  %15 = bitcast %"struct.std::_Vector_base<int, std::allocator<int>>::_Vector_impl"* %14 to %"struct.std::_Vector_base<int, std::allocator<int>>::_Vector_impl_data"*, !llfi_index !97
  %16 = getelementptr inbounds %"struct.std::_Vector_base<int, std::allocator<int>>::_Vector_impl_data", %"struct.std::_Vector_base<int, std::allocator<int>>::_Vector_impl_data"* %15, i32 0, i32 0, !llfi_index !98
  %17 = load i32*, i32** %16, align 8, !llfi_index !99
  %18 = ptrtoint i32* %13 to i64, !llfi_index !100
  %19 = ptrtoint i32* %17 to i64, !llfi_index !101
  %20 = sub i64 %18, %19, !llfi_index !102
  %21 = sdiv exact i64 %20, 4, !llfi_index !103
  invoke void @_ZNSt12_Vector_baseIiSaIiEE13_M_deallocateEPim(%"struct.std::_Vector_base"* nonnull align 8 dereferenceable(24) %5, i32* %9, i64 %21)
          to label %22 unwind label %24, !llfi_index !104

22:                                               ; preds = %1
  %23 = getelementptr inbounds %"struct.std::_Vector_base", %"struct.std::_Vector_base"* %5, i32 0, i32 0, !llfi_index !105
  call void @_ZNSt12_Vector_baseIiSaIiEE12_Vector_implD2Ev(%"struct.std::_Vector_base<int, std::allocator<int>>::_Vector_impl"* nonnull align 8 dereferenceable(24) %23) #2, !llfi_index !106
  ret void, !llfi_index !107

24:                                               ; preds = %1
  %25 = landingpad { i8*, i32 }
          catch i8* null, !llfi_index !108
  %26 = extractvalue { i8*, i32 } %25, 0, !llfi_index !109
  store i8* %26, i8** %3, align 8, !llfi_index !110
  %27 = extractvalue { i8*, i32 } %25, 1, !llfi_index !111
  store i32 %27, i32* %4, align 4, !llfi_index !112
  %28 = getelementptr inbounds %"struct.std::_Vector_base", %"struct.std::_Vector_base"* %5, i32 0, i32 0, !llfi_index !113
  call void @_ZNSt12_Vector_baseIiSaIiEE12_Vector_implD2Ev(%"struct.std::_Vector_base<int, std::allocator<int>>::_Vector_impl"* nonnull align 8 dereferenceable(24) %28) #2, !llfi_index !114
  br label %29, !llfi_index !115

29:                                               ; preds = %24
  %30 = load i8*, i8** %3, align 8, !llfi_index !116
  call void @__clang_call_terminate(i8* %30) #14, !llfi_index !117
  unreachable, !llfi_index !118
}

; Function Attrs: noinline noreturn nounwind
define linkonce_odr hidden void @__clang_call_terminate(i8* %0) #5 comdat {
  %2 = call i8* @__cxa_begin_catch(i8* %0) #2, !llfi_index !119
  call void @_ZSt9terminatev() #14, !llfi_index !120
  unreachable, !llfi_index !121
}

declare dso_local i8* @__cxa_begin_catch(i8*)

declare dso_local void @_ZSt9terminatev()

; Function Attrs: mustprogress noinline uwtable
define linkonce_odr dso_local void @_ZNSt12_Vector_baseIiSaIiEE13_M_deallocateEPim(%"struct.std::_Vector_base"* nonnull align 8 dereferenceable(24) %0, i32* %1, i64 %2) #4 comdat align 2 {
  %4 = alloca %"struct.std::_Vector_base"*, align 8, !llfi_index !122
  %5 = alloca i32*, align 8, !llfi_index !123
  %6 = alloca i64, align 8, !llfi_index !124
  store %"struct.std::_Vector_base"* %0, %"struct.std::_Vector_base"** %4, align 8, !llfi_index !125
  store i32* %1, i32** %5, align 8, !llfi_index !126
  store i64 %2, i64* %6, align 8, !llfi_index !127
  %7 = load %"struct.std::_Vector_base"*, %"struct.std::_Vector_base"** %4, align 8, !llfi_index !128
  %8 = load i32*, i32** %5, align 8, !llfi_index !129
  %9 = icmp ne i32* %8, null, !llfi_index !130
  br i1 %9, label %10, label %15, !llfi_index !131

10:                                               ; preds = %3
  %11 = getelementptr inbounds %"struct.std::_Vector_base", %"struct.std::_Vector_base"* %7, i32 0, i32 0, !llfi_index !132
  %12 = bitcast %"struct.std::_Vector_base<int, std::allocator<int>>::_Vector_impl"* %11 to %"class.std::allocator"*, !llfi_index !133
  %13 = load i32*, i32** %5, align 8, !llfi_index !134
  %14 = load i64, i64* %6, align 8, !llfi_index !135
  call void @_ZNSt16allocator_traitsISaIiEE10deallocateERS0_Pim(%"class.std::allocator"* nonnull align 1 dereferenceable(1) %12, i32* %13, i64 %14), !llfi_index !136
  br label %15, !llfi_index !137

15:                                               ; preds = %10, %3
  ret void, !llfi_index !138
}

; Function Attrs: noinline nounwind uwtable
define linkonce_odr dso_local void @_ZNSt12_Vector_baseIiSaIiEE12_Vector_implD2Ev(%"struct.std::_Vector_base<int, std::allocator<int>>::_Vector_impl"* nonnull align 8 dereferenceable(24) %0) unnamed_addr #1 comdat align 2 {
  %2 = alloca %"struct.std::_Vector_base<int, std::allocator<int>>::_Vector_impl"*, align 8, !llfi_index !139
  store %"struct.std::_Vector_base<int, std::allocator<int>>::_Vector_impl"* %0, %"struct.std::_Vector_base<int, std::allocator<int>>::_Vector_impl"** %2, align 8, !llfi_index !140
  %3 = load %"struct.std::_Vector_base<int, std::allocator<int>>::_Vector_impl"*, %"struct.std::_Vector_base<int, std::allocator<int>>::_Vector_impl"** %2, align 8, !llfi_index !141
  %4 = bitcast %"struct.std::_Vector_base<int, std::allocator<int>>::_Vector_impl"* %3 to %"class.std::allocator"*, !llfi_index !142
  call void @_ZNSaIiED2Ev(%"class.std::allocator"* nonnull align 1 dereferenceable(1) %4) #2, !llfi_index !143
  ret void, !llfi_index !144
}

; Function Attrs: noinline nounwind uwtable
define linkonce_odr dso_local void @_ZNSaIiED2Ev(%"class.std::allocator"* nonnull align 1 dereferenceable(1) %0) unnamed_addr #1 comdat align 2 {
  %2 = alloca %"class.std::allocator"*, align 8, !llfi_index !145
  store %"class.std::allocator"* %0, %"class.std::allocator"** %2, align 8, !llfi_index !146
  %3 = load %"class.std::allocator"*, %"class.std::allocator"** %2, align 8, !llfi_index !147
  %4 = bitcast %"class.std::allocator"* %3 to %"class.std::allocator"*, !llfi_index !148
  call void @_ZN9__gnu_cxx13new_allocatorIiED2Ev(%"class.std::allocator"* nonnull align 1 dereferenceable(1) %4) #2, !llfi_index !149
  ret void, !llfi_index !150
}

; Function Attrs: noinline nounwind uwtable
define linkonce_odr dso_local void @_ZN9__gnu_cxx13new_allocatorIiED2Ev(%"class.std::allocator"* nonnull align 1 dereferenceable(1) %0) unnamed_addr #1 comdat align 2 {
  %2 = alloca %"class.std::allocator"*, align 8, !llfi_index !151
  store %"class.std::allocator"* %0, %"class.std::allocator"** %2, align 8, !llfi_index !152
  %3 = load %"class.std::allocator"*, %"class.std::allocator"** %2, align 8, !llfi_index !153
  ret void, !llfi_index !154
}

; Function Attrs: mustprogress noinline uwtable
define linkonce_odr dso_local void @_ZNSt16allocator_traitsISaIiEE10deallocateERS0_Pim(%"class.std::allocator"* nonnull align 1 dereferenceable(1) %0, i32* %1, i64 %2) #4 comdat align 2 {
  %4 = alloca %"class.std::allocator"*, align 8, !llfi_index !155
  %5 = alloca i32*, align 8, !llfi_index !156
  %6 = alloca i64, align 8, !llfi_index !157
  store %"class.std::allocator"* %0, %"class.std::allocator"** %4, align 8, !llfi_index !158
  store i32* %1, i32** %5, align 8, !llfi_index !159
  store i64 %2, i64* %6, align 8, !llfi_index !160
  %7 = load %"class.std::allocator"*, %"class.std::allocator"** %4, align 8, !llfi_index !161
  %8 = bitcast %"class.std::allocator"* %7 to %"class.std::allocator"*, !llfi_index !162
  %9 = load i32*, i32** %5, align 8, !llfi_index !163
  %10 = load i64, i64* %6, align 8, !llfi_index !164
  call void @_ZN9__gnu_cxx13new_allocatorIiE10deallocateEPim(%"class.std::allocator"* nonnull align 1 dereferenceable(1) %8, i32* %9, i64 %10), !llfi_index !165
  ret void, !llfi_index !166
}

; Function Attrs: mustprogress noinline nounwind uwtable
define linkonce_odr dso_local void @_ZN9__gnu_cxx13new_allocatorIiE10deallocateEPim(%"class.std::allocator"* nonnull align 1 dereferenceable(1) %0, i32* %1, i64 %2) #3 comdat align 2 {
  %4 = alloca %"class.std::allocator"*, align 8, !llfi_index !167
  %5 = alloca i32*, align 8, !llfi_index !168
  %6 = alloca i64, align 8, !llfi_index !169
  store %"class.std::allocator"* %0, %"class.std::allocator"** %4, align 8, !llfi_index !170
  store i32* %1, i32** %5, align 8, !llfi_index !171
  store i64 %2, i64* %6, align 8, !llfi_index !172
  %7 = load %"class.std::allocator"*, %"class.std::allocator"** %4, align 8, !llfi_index !173
  %8 = load i32*, i32** %5, align 8, !llfi_index !174
  %9 = bitcast i32* %8 to i8*, !llfi_index !175
  call void @_ZdlPv(i8* %9) #2, !llfi_index !176
  ret void, !llfi_index !177
}

; Function Attrs: nobuiltin nounwind
declare dso_local void @_ZdlPv(i8*) #6

; Function Attrs: mustprogress noinline uwtable
define linkonce_odr dso_local void @_ZSt8_DestroyIPiEvT_S1_(i32* %0, i32* %1) #4 comdat {
  %3 = alloca i32*, align 8, !llfi_index !178
  %4 = alloca i32*, align 8, !llfi_index !179
  store i32* %0, i32** %3, align 8, !llfi_index !180
  store i32* %1, i32** %4, align 8, !llfi_index !181
  %5 = load i32*, i32** %3, align 8, !llfi_index !182
  %6 = load i32*, i32** %4, align 8, !llfi_index !183
  call void @_ZNSt12_Destroy_auxILb1EE9__destroyIPiEEvT_S3_(i32* %5, i32* %6), !llfi_index !184
  ret void, !llfi_index !185
}

; Function Attrs: mustprogress noinline nounwind uwtable
define linkonce_odr dso_local void @_ZNSt12_Destroy_auxILb1EE9__destroyIPiEEvT_S3_(i32* %0, i32* %1) #3 comdat align 2 {
  %3 = alloca i32*, align 8, !llfi_index !186
  %4 = alloca i32*, align 8, !llfi_index !187
  store i32* %0, i32** %3, align 8, !llfi_index !188
  store i32* %1, i32** %4, align 8, !llfi_index !189
  ret void, !llfi_index !190
}

; Function Attrs: noinline nounwind uwtable
define linkonce_odr dso_local void @_ZNSt12_Vector_baseIiSaIiEEC2Ev(%"struct.std::_Vector_base"* nonnull align 8 dereferenceable(24) %0) unnamed_addr #1 comdat align 2 {
  %2 = alloca %"struct.std::_Vector_base"*, align 8, !llfi_index !191
  store %"struct.std::_Vector_base"* %0, %"struct.std::_Vector_base"** %2, align 8, !llfi_index !192
  %3 = load %"struct.std::_Vector_base"*, %"struct.std::_Vector_base"** %2, align 8, !llfi_index !193
  %4 = getelementptr inbounds %"struct.std::_Vector_base", %"struct.std::_Vector_base"* %3, i32 0, i32 0, !llfi_index !194
  call void @_ZNSt12_Vector_baseIiSaIiEE12_Vector_implC2Ev(%"struct.std::_Vector_base<int, std::allocator<int>>::_Vector_impl"* nonnull align 8 dereferenceable(24) %4) #2, !llfi_index !195
  ret void, !llfi_index !196
}

; Function Attrs: noinline nounwind uwtable
define linkonce_odr dso_local void @_ZNSt12_Vector_baseIiSaIiEE12_Vector_implC2Ev(%"struct.std::_Vector_base<int, std::allocator<int>>::_Vector_impl"* nonnull align 8 dereferenceable(24) %0) unnamed_addr #1 comdat align 2 {
  %2 = alloca %"struct.std::_Vector_base<int, std::allocator<int>>::_Vector_impl"*, align 8, !llfi_index !197
  store %"struct.std::_Vector_base<int, std::allocator<int>>::_Vector_impl"* %0, %"struct.std::_Vector_base<int, std::allocator<int>>::_Vector_impl"** %2, align 8, !llfi_index !198
  %3 = load %"struct.std::_Vector_base<int, std::allocator<int>>::_Vector_impl"*, %"struct.std::_Vector_base<int, std::allocator<int>>::_Vector_impl"** %2, align 8, !llfi_index !199
  %4 = bitcast %"struct.std::_Vector_base<int, std::allocator<int>>::_Vector_impl"* %3 to %"class.std::allocator"*, !llfi_index !200
  call void @_ZNSaIiEC2Ev(%"class.std::allocator"* nonnull align 1 dereferenceable(1) %4) #2, !llfi_index !201
  %5 = bitcast %"struct.std::_Vector_base<int, std::allocator<int>>::_Vector_impl"* %3 to %"struct.std::_Vector_base<int, std::allocator<int>>::_Vector_impl_data"*, !llfi_index !202
  call void @_ZNSt12_Vector_baseIiSaIiEE17_Vector_impl_dataC2Ev(%"struct.std::_Vector_base<int, std::allocator<int>>::_Vector_impl_data"* nonnull align 8 dereferenceable(24) %5) #2, !llfi_index !203
  ret void, !llfi_index !204
}

; Function Attrs: noinline nounwind uwtable
define linkonce_odr dso_local void @_ZNSaIiEC2Ev(%"class.std::allocator"* nonnull align 1 dereferenceable(1) %0) unnamed_addr #1 comdat align 2 {
  %2 = alloca %"class.std::allocator"*, align 8, !llfi_index !205
  store %"class.std::allocator"* %0, %"class.std::allocator"** %2, align 8, !llfi_index !206
  %3 = load %"class.std::allocator"*, %"class.std::allocator"** %2, align 8, !llfi_index !207
  %4 = bitcast %"class.std::allocator"* %3 to %"class.std::allocator"*, !llfi_index !208
  call void @_ZN9__gnu_cxx13new_allocatorIiEC2Ev(%"class.std::allocator"* nonnull align 1 dereferenceable(1) %4) #2, !llfi_index !209
  ret void, !llfi_index !210
}

; Function Attrs: noinline nounwind uwtable
define linkonce_odr dso_local void @_ZNSt12_Vector_baseIiSaIiEE17_Vector_impl_dataC2Ev(%"struct.std::_Vector_base<int, std::allocator<int>>::_Vector_impl_data"* nonnull align 8 dereferenceable(24) %0) unnamed_addr #1 comdat align 2 {
  %2 = alloca %"struct.std::_Vector_base<int, std::allocator<int>>::_Vector_impl_data"*, align 8, !llfi_index !211
  store %"struct.std::_Vector_base<int, std::allocator<int>>::_Vector_impl_data"* %0, %"struct.std::_Vector_base<int, std::allocator<int>>::_Vector_impl_data"** %2, align 8, !llfi_index !212
  %3 = load %"struct.std::_Vector_base<int, std::allocator<int>>::_Vector_impl_data"*, %"struct.std::_Vector_base<int, std::allocator<int>>::_Vector_impl_data"** %2, align 8, !llfi_index !213
  %4 = getelementptr inbounds %"struct.std::_Vector_base<int, std::allocator<int>>::_Vector_impl_data", %"struct.std::_Vector_base<int, std::allocator<int>>::_Vector_impl_data"* %3, i32 0, i32 0, !llfi_index !214
  store i32* null, i32** %4, align 8, !llfi_index !215
  %5 = getelementptr inbounds %"struct.std::_Vector_base<int, std::allocator<int>>::_Vector_impl_data", %"struct.std::_Vector_base<int, std::allocator<int>>::_Vector_impl_data"* %3, i32 0, i32 1, !llfi_index !216
  store i32* null, i32** %5, align 8, !llfi_index !217
  %6 = getelementptr inbounds %"struct.std::_Vector_base<int, std::allocator<int>>::_Vector_impl_data", %"struct.std::_Vector_base<int, std::allocator<int>>::_Vector_impl_data"* %3, i32 0, i32 2, !llfi_index !218
  store i32* null, i32** %6, align 8, !llfi_index !219
  ret void, !llfi_index !220
}

; Function Attrs: noinline nounwind uwtable
define linkonce_odr dso_local void @_ZN9__gnu_cxx13new_allocatorIiEC2Ev(%"class.std::allocator"* nonnull align 1 dereferenceable(1) %0) unnamed_addr #1 comdat align 2 {
  %2 = alloca %"class.std::allocator"*, align 8, !llfi_index !221
  store %"class.std::allocator"* %0, %"class.std::allocator"** %2, align 8, !llfi_index !222
  %3 = load %"class.std::allocator"*, %"class.std::allocator"** %2, align 8, !llfi_index !223
  ret void, !llfi_index !224
}

declare dso_local void @_ZNSt8ios_base4InitC1Ev(%"class.std::allocator"* nonnull align 1 dereferenceable(1)) unnamed_addr #7

; Function Attrs: noinline uwtable
define internal void @__dtor__ZStL8__ioinit() #0 section ".text.startup" {
  call void @_ZNSt8ios_base4InitD1Ev(%"class.std::allocator"* @_ZStL8__ioinit), !llfi_index !225
  ret void, !llfi_index !226
}

; Function Attrs: nounwind
declare dso_local void @_ZNSt8ios_base4InitD1Ev(%"class.std::allocator"* nonnull align 1 dereferenceable(1)) unnamed_addr #8

; Function Attrs: mustprogress noinline uwtable
define dso_local void @_Z2goi(i32 %0) #4 {
  %2 = alloca i32, align 4, !llfi_index !227
  %3 = alloca i32, align 4, !llfi_index !228
  %4 = alloca i32, align 4, !llfi_index !229
  store i32 %0, i32* %2, align 4, !llfi_index !230
  store i32 0, i32* %3, align 4, !llfi_index !231
  br label %5, !llfi_index !232

5:                                                ; preds = %40, %1
  %6 = load i32, i32* %3, align 4, !llfi_index !233
  %7 = icmp slt i32 %6, 6, !llfi_index !234
  br i1 %7, label %8, label %43, !llfi_index !235

8:                                                ; preds = %5
  %9 = load i32, i32* %3, align 4, !llfi_index !236
  %10 = shl i32 1, %9, !llfi_index !237
  %11 = load i32, i32* %2, align 4, !llfi_index !238
  %12 = and i32 %10, %11, !llfi_index !239
  %13 = icmp ne i32 %12, 0, !llfi_index !240
  br i1 %13, label %14, label %39, !llfi_index !241

14:                                               ; preds = %8
  store i32 0, i32* %4, align 4, !llfi_index !242
  br label %15, !llfi_index !243

15:                                               ; preds = %35, %14
  %16 = load i32, i32* %4, align 4, !llfi_index !244
  %17 = load i32, i32* @n, align 4, !llfi_index !245
  %18 = icmp slt i32 %16, %17, !llfi_index !246
  br i1 %18, label %19, label %38, !llfi_index !247

19:                                               ; preds = %15
  %20 = load i32, i32* %4, align 4, !llfi_index !248
  %21 = sext i32 %20 to i64, !llfi_index !249
  %22 = getelementptr inbounds [100005 x i32], [100005 x i32]* @brand, i64 0, i64 %21, !llfi_index !250
  %23 = load i32, i32* %22, align 4, !llfi_index !251
  %24 = load i32, i32* %3, align 4, !llfi_index !252
  %25 = add nsw i32 %24, 1, !llfi_index !253
  %26 = icmp eq i32 %23, %25, !llfi_index !254
  br i1 %26, label %27, label %34, !llfi_index !255

27:                                               ; preds = %19
  %28 = load i32, i32* %2, align 4, !llfi_index !256
  %29 = sext i32 %28 to i64, !llfi_index !257
  %30 = getelementptr inbounds [33 x %"class.std::vector"], [33 x %"class.std::vector"]* @arr, i64 0, i64 %29, !llfi_index !258
  %31 = load i32, i32* %4, align 4, !llfi_index !259
  %32 = sext i32 %31 to i64, !llfi_index !260
  %33 = getelementptr inbounds [100005 x i32], [100005 x i32]* @price, i64 0, i64 %32, !llfi_index !261
  call void @_ZNSt6vectorIiSaIiEE9push_backERKi(%"class.std::vector"* nonnull align 8 dereferenceable(24) %30, i32* nonnull align 4 dereferenceable(4) %33), !llfi_index !262
  br label %34, !llfi_index !263

34:                                               ; preds = %27, %19
  br label %35, !llfi_index !264

35:                                               ; preds = %34
  %36 = load i32, i32* %4, align 4, !llfi_index !265
  %37 = add nsw i32 %36, 1, !llfi_index !266
  store i32 %37, i32* %4, align 4, !llfi_index !267
  br label %15, !llvm.loop !268, !llfi_index !270

38:                                               ; preds = %15
  br label %39, !llfi_index !271

39:                                               ; preds = %38, %8
  br label %40, !llfi_index !272

40:                                               ; preds = %39
  %41 = load i32, i32* %3, align 4, !llfi_index !273
  %42 = add nsw i32 %41, 1, !llfi_index !274
  store i32 %42, i32* %3, align 4, !llfi_index !275
  br label %5, !llvm.loop !276, !llfi_index !277

43:                                               ; preds = %5
  ret void, !llfi_index !278
}

; Function Attrs: mustprogress noinline uwtable
define linkonce_odr dso_local void @_ZNSt6vectorIiSaIiEE9push_backERKi(%"class.std::vector"* nonnull align 8 dereferenceable(24) %0, i32* nonnull align 4 dereferenceable(4) %1) #4 comdat align 2 {
  %3 = alloca %"class.std::vector"*, align 8, !llfi_index !279
  %4 = alloca i32*, align 8, !llfi_index !280
  %5 = alloca %"class.__gnu_cxx::__normal_iterator", align 8, !llfi_index !281
  store %"class.std::vector"* %0, %"class.std::vector"** %3, align 8, !llfi_index !282
  store i32* %1, i32** %4, align 8, !llfi_index !283
  %6 = load %"class.std::vector"*, %"class.std::vector"** %3, align 8, !llfi_index !284
  %7 = bitcast %"class.std::vector"* %6 to %"struct.std::_Vector_base"*, !llfi_index !285
  %8 = getelementptr inbounds %"struct.std::_Vector_base", %"struct.std::_Vector_base"* %7, i32 0, i32 0, !llfi_index !286
  %9 = bitcast %"struct.std::_Vector_base<int, std::allocator<int>>::_Vector_impl"* %8 to %"struct.std::_Vector_base<int, std::allocator<int>>::_Vector_impl_data"*, !llfi_index !287
  %10 = getelementptr inbounds %"struct.std::_Vector_base<int, std::allocator<int>>::_Vector_impl_data", %"struct.std::_Vector_base<int, std::allocator<int>>::_Vector_impl_data"* %9, i32 0, i32 1, !llfi_index !288
  %11 = load i32*, i32** %10, align 8, !llfi_index !289
  %12 = bitcast %"class.std::vector"* %6 to %"struct.std::_Vector_base"*, !llfi_index !290
  %13 = getelementptr inbounds %"struct.std::_Vector_base", %"struct.std::_Vector_base"* %12, i32 0, i32 0, !llfi_index !291
  %14 = bitcast %"struct.std::_Vector_base<int, std::allocator<int>>::_Vector_impl"* %13 to %"struct.std::_Vector_base<int, std::allocator<int>>::_Vector_impl_data"*, !llfi_index !292
  %15 = getelementptr inbounds %"struct.std::_Vector_base<int, std::allocator<int>>::_Vector_impl_data", %"struct.std::_Vector_base<int, std::allocator<int>>::_Vector_impl_data"* %14, i32 0, i32 2, !llfi_index !293
  %16 = load i32*, i32** %15, align 8, !llfi_index !294
  %17 = icmp ne i32* %11, %16, !llfi_index !295
  br i1 %17, label %18, label %34, !llfi_index !296

18:                                               ; preds = %2
  %19 = bitcast %"class.std::vector"* %6 to %"struct.std::_Vector_base"*, !llfi_index !297
  %20 = getelementptr inbounds %"struct.std::_Vector_base", %"struct.std::_Vector_base"* %19, i32 0, i32 0, !llfi_index !298
  %21 = bitcast %"struct.std::_Vector_base<int, std::allocator<int>>::_Vector_impl"* %20 to %"class.std::allocator"*, !llfi_index !299
  %22 = bitcast %"class.std::vector"* %6 to %"struct.std::_Vector_base"*, !llfi_index !300
  %23 = getelementptr inbounds %"struct.std::_Vector_base", %"struct.std::_Vector_base"* %22, i32 0, i32 0, !llfi_index !301
  %24 = bitcast %"struct.std::_Vector_base<int, std::allocator<int>>::_Vector_impl"* %23 to %"struct.std::_Vector_base<int, std::allocator<int>>::_Vector_impl_data"*, !llfi_index !302
  %25 = getelementptr inbounds %"struct.std::_Vector_base<int, std::allocator<int>>::_Vector_impl_data", %"struct.std::_Vector_base<int, std::allocator<int>>::_Vector_impl_data"* %24, i32 0, i32 1, !llfi_index !303
  %26 = load i32*, i32** %25, align 8, !llfi_index !304
  %27 = load i32*, i32** %4, align 8, !llfi_index !305
  call void @_ZNSt16allocator_traitsISaIiEE9constructIiJRKiEEEvRS0_PT_DpOT0_(%"class.std::allocator"* nonnull align 1 dereferenceable(1) %21, i32* %26, i32* nonnull align 4 dereferenceable(4) %27) #2, !llfi_index !306
  %28 = bitcast %"class.std::vector"* %6 to %"struct.std::_Vector_base"*, !llfi_index !307
  %29 = getelementptr inbounds %"struct.std::_Vector_base", %"struct.std::_Vector_base"* %28, i32 0, i32 0, !llfi_index !308
  %30 = bitcast %"struct.std::_Vector_base<int, std::allocator<int>>::_Vector_impl"* %29 to %"struct.std::_Vector_base<int, std::allocator<int>>::_Vector_impl_data"*, !llfi_index !309
  %31 = getelementptr inbounds %"struct.std::_Vector_base<int, std::allocator<int>>::_Vector_impl_data", %"struct.std::_Vector_base<int, std::allocator<int>>::_Vector_impl_data"* %30, i32 0, i32 1, !llfi_index !310
  %32 = load i32*, i32** %31, align 8, !llfi_index !311
  %33 = getelementptr inbounds i32, i32* %32, i32 1, !llfi_index !312
  store i32* %33, i32** %31, align 8, !llfi_index !313
  br label %40, !llfi_index !314

34:                                               ; preds = %2
  %35 = call i32* @_ZNSt6vectorIiSaIiEE3endEv(%"class.std::vector"* nonnull align 8 dereferenceable(24) %6) #2, !llfi_index !315
  %36 = getelementptr inbounds %"class.__gnu_cxx::__normal_iterator", %"class.__gnu_cxx::__normal_iterator"* %5, i32 0, i32 0, !llfi_index !316
  store i32* %35, i32** %36, align 8, !llfi_index !317
  %37 = load i32*, i32** %4, align 8, !llfi_index !318
  %38 = getelementptr inbounds %"class.__gnu_cxx::__normal_iterator", %"class.__gnu_cxx::__normal_iterator"* %5, i32 0, i32 0, !llfi_index !319
  %39 = load i32*, i32** %38, align 8, !llfi_index !320
  call void @_ZNSt6vectorIiSaIiEE17_M_realloc_insertIJRKiEEEvN9__gnu_cxx17__normal_iteratorIPiS1_EEDpOT_(%"class.std::vector"* nonnull align 8 dereferenceable(24) %6, i32* %39, i32* nonnull align 4 dereferenceable(4) %37), !llfi_index !321
  br label %40, !llfi_index !322

40:                                               ; preds = %34, %18
  ret void, !llfi_index !323
}

; Function Attrs: mustprogress noinline nounwind uwtable
define linkonce_odr dso_local void @_ZNSt16allocator_traitsISaIiEE9constructIiJRKiEEEvRS0_PT_DpOT0_(%"class.std::allocator"* nonnull align 1 dereferenceable(1) %0, i32* %1, i32* nonnull align 4 dereferenceable(4) %2) #3 comdat align 2 {
  %4 = alloca %"class.std::allocator"*, align 8, !llfi_index !324
  %5 = alloca i32*, align 8, !llfi_index !325
  %6 = alloca i32*, align 8, !llfi_index !326
  store %"class.std::allocator"* %0, %"class.std::allocator"** %4, align 8, !llfi_index !327
  store i32* %1, i32** %5, align 8, !llfi_index !328
  store i32* %2, i32** %6, align 8, !llfi_index !329
  %7 = load %"class.std::allocator"*, %"class.std::allocator"** %4, align 8, !llfi_index !330
  %8 = bitcast %"class.std::allocator"* %7 to %"class.std::allocator"*, !llfi_index !331
  %9 = load i32*, i32** %5, align 8, !llfi_index !332
  %10 = load i32*, i32** %6, align 8, !llfi_index !333
  %11 = call nonnull align 4 dereferenceable(4) i32* @_ZSt7forwardIRKiEOT_RNSt16remove_referenceIS2_E4typeE(i32* nonnull align 4 dereferenceable(4) %10) #2, !llfi_index !334
  call void @_ZN9__gnu_cxx13new_allocatorIiE9constructIiJRKiEEEvPT_DpOT0_(%"class.std::allocator"* nonnull align 1 dereferenceable(1) %8, i32* %9, i32* nonnull align 4 dereferenceable(4) %11) #2, !llfi_index !335
  ret void, !llfi_index !336
}

; Function Attrs: mustprogress noinline nounwind uwtable
define linkonce_odr dso_local i32* @_ZNSt6vectorIiSaIiEE3endEv(%"class.std::vector"* nonnull align 8 dereferenceable(24) %0) #3 comdat align 2 {
  %2 = alloca %"class.__gnu_cxx::__normal_iterator", align 8, !llfi_index !337
  %3 = alloca %"class.std::vector"*, align 8, !llfi_index !338
  store %"class.std::vector"* %0, %"class.std::vector"** %3, align 8, !llfi_index !339
  %4 = load %"class.std::vector"*, %"class.std::vector"** %3, align 8, !llfi_index !340
  %5 = bitcast %"class.std::vector"* %4 to %"struct.std::_Vector_base"*, !llfi_index !341
  %6 = getelementptr inbounds %"struct.std::_Vector_base", %"struct.std::_Vector_base"* %5, i32 0, i32 0, !llfi_index !342
  %7 = bitcast %"struct.std::_Vector_base<int, std::allocator<int>>::_Vector_impl"* %6 to %"struct.std::_Vector_base<int, std::allocator<int>>::_Vector_impl_data"*, !llfi_index !343
  %8 = getelementptr inbounds %"struct.std::_Vector_base<int, std::allocator<int>>::_Vector_impl_data", %"struct.std::_Vector_base<int, std::allocator<int>>::_Vector_impl_data"* %7, i32 0, i32 1, !llfi_index !344
  call void @_ZN9__gnu_cxx17__normal_iteratorIPiSt6vectorIiSaIiEEEC2ERKS1_(%"class.__gnu_cxx::__normal_iterator"* nonnull align 8 dereferenceable(8) %2, i32** nonnull align 8 dereferenceable(8) %8) #2, !llfi_index !345
  %9 = getelementptr inbounds %"class.__gnu_cxx::__normal_iterator", %"class.__gnu_cxx::__normal_iterator"* %2, i32 0, i32 0, !llfi_index !346
  %10 = load i32*, i32** %9, align 8, !llfi_index !347
  ret i32* %10, !llfi_index !348
}

; Function Attrs: mustprogress noinline uwtable
define linkonce_odr dso_local void @_ZNSt6vectorIiSaIiEE17_M_realloc_insertIJRKiEEEvN9__gnu_cxx17__normal_iteratorIPiS1_EEDpOT_(%"class.std::vector"* nonnull align 8 dereferenceable(24) %0, i32* %1, i32* nonnull align 4 dereferenceable(4) %2) #4 comdat align 2 {
  %4 = alloca %"class.__gnu_cxx::__normal_iterator", align 8, !llfi_index !349
  %5 = alloca %"class.std::vector"*, align 8, !llfi_index !350
  %6 = alloca i32*, align 8, !llfi_index !351
  %7 = alloca i64, align 8, !llfi_index !352
  %8 = alloca i32*, align 8, !llfi_index !353
  %9 = alloca i32*, align 8, !llfi_index !354
  %10 = alloca i64, align 8, !llfi_index !355
  %11 = alloca %"class.__gnu_cxx::__normal_iterator", align 8, !llfi_index !356
  %12 = alloca i32*, align 8, !llfi_index !357
  %13 = alloca i32*, align 8, !llfi_index !358
  %14 = getelementptr inbounds %"class.__gnu_cxx::__normal_iterator", %"class.__gnu_cxx::__normal_iterator"* %4, i32 0, i32 0, !llfi_index !359
  store i32* %1, i32** %14, align 8, !llfi_index !360
  store %"class.std::vector"* %0, %"class.std::vector"** %5, align 8, !llfi_index !361
  store i32* %2, i32** %6, align 8, !llfi_index !362
  %15 = load %"class.std::vector"*, %"class.std::vector"** %5, align 8, !llfi_index !363
  %16 = call i64 @_ZNKSt6vectorIiSaIiEE12_M_check_lenEmPKc(%"class.std::vector"* nonnull align 8 dereferenceable(24) %15, i64 1, i8* getelementptr inbounds ([26 x i8], [26 x i8]* @.str.3, i64 0, i64 0)), !llfi_index !364
  store i64 %16, i64* %7, align 8, !llfi_index !365
  %17 = bitcast %"class.std::vector"* %15 to %"struct.std::_Vector_base"*, !llfi_index !366
  %18 = getelementptr inbounds %"struct.std::_Vector_base", %"struct.std::_Vector_base"* %17, i32 0, i32 0, !llfi_index !367
  %19 = bitcast %"struct.std::_Vector_base<int, std::allocator<int>>::_Vector_impl"* %18 to %"struct.std::_Vector_base<int, std::allocator<int>>::_Vector_impl_data"*, !llfi_index !368
  %20 = getelementptr inbounds %"struct.std::_Vector_base<int, std::allocator<int>>::_Vector_impl_data", %"struct.std::_Vector_base<int, std::allocator<int>>::_Vector_impl_data"* %19, i32 0, i32 0, !llfi_index !369
  %21 = load i32*, i32** %20, align 8, !llfi_index !370
  store i32* %21, i32** %8, align 8, !llfi_index !371
  %22 = bitcast %"class.std::vector"* %15 to %"struct.std::_Vector_base"*, !llfi_index !372
  %23 = getelementptr inbounds %"struct.std::_Vector_base", %"struct.std::_Vector_base"* %22, i32 0, i32 0, !llfi_index !373
  %24 = bitcast %"struct.std::_Vector_base<int, std::allocator<int>>::_Vector_impl"* %23 to %"struct.std::_Vector_base<int, std::allocator<int>>::_Vector_impl_data"*, !llfi_index !374
  %25 = getelementptr inbounds %"struct.std::_Vector_base<int, std::allocator<int>>::_Vector_impl_data", %"struct.std::_Vector_base<int, std::allocator<int>>::_Vector_impl_data"* %24, i32 0, i32 1, !llfi_index !375
  %26 = load i32*, i32** %25, align 8, !llfi_index !376
  store i32* %26, i32** %9, align 8, !llfi_index !377
  %27 = call i32* @_ZNSt6vectorIiSaIiEE5beginEv(%"class.std::vector"* nonnull align 8 dereferenceable(24) %15) #2, !llfi_index !378
  %28 = getelementptr inbounds %"class.__gnu_cxx::__normal_iterator", %"class.__gnu_cxx::__normal_iterator"* %11, i32 0, i32 0, !llfi_index !379
  store i32* %27, i32** %28, align 8, !llfi_index !380
  %29 = call i64 @_ZN9__gnu_cxxmiIPiSt6vectorIiSaIiEEEENS_17__normal_iteratorIT_T0_E15difference_typeERKS8_SB_(%"class.__gnu_cxx::__normal_iterator"* nonnull align 8 dereferenceable(8) %4, %"class.__gnu_cxx::__normal_iterator"* nonnull align 8 dereferenceable(8) %11) #2, !llfi_index !381
  store i64 %29, i64* %10, align 8, !llfi_index !382
  %30 = bitcast %"class.std::vector"* %15 to %"struct.std::_Vector_base"*, !llfi_index !383
  %31 = load i64, i64* %7, align 8, !llfi_index !384
  %32 = call i32* @_ZNSt12_Vector_baseIiSaIiEE11_M_allocateEm(%"struct.std::_Vector_base"* nonnull align 8 dereferenceable(24) %30, i64 %31), !llfi_index !385
  store i32* %32, i32** %12, align 8, !llfi_index !386
  %33 = load i32*, i32** %12, align 8, !llfi_index !387
  store i32* %33, i32** %13, align 8, !llfi_index !388
  %34 = bitcast %"class.std::vector"* %15 to %"struct.std::_Vector_base"*, !llfi_index !389
  %35 = getelementptr inbounds %"struct.std::_Vector_base", %"struct.std::_Vector_base"* %34, i32 0, i32 0, !llfi_index !390
  %36 = bitcast %"struct.std::_Vector_base<int, std::allocator<int>>::_Vector_impl"* %35 to %"class.std::allocator"*, !llfi_index !391
  %37 = load i32*, i32** %12, align 8, !llfi_index !392
  %38 = load i64, i64* %10, align 8, !llfi_index !393
  %39 = getelementptr inbounds i32, i32* %37, i64 %38, !llfi_index !394
  %40 = load i32*, i32** %6, align 8, !llfi_index !395
  %41 = call nonnull align 4 dereferenceable(4) i32* @_ZSt7forwardIRKiEOT_RNSt16remove_referenceIS2_E4typeE(i32* nonnull align 4 dereferenceable(4) %40) #2, !llfi_index !396
  call void @_ZNSt16allocator_traitsISaIiEE9constructIiJRKiEEEvRS0_PT_DpOT0_(%"class.std::allocator"* nonnull align 1 dereferenceable(1) %36, i32* %39, i32* nonnull align 4 dereferenceable(4) %41) #2, !llfi_index !397
  store i32* null, i32** %13, align 8, !llfi_index !398
  %42 = load i32*, i32** %8, align 8, !llfi_index !399
  %43 = call nonnull align 8 dereferenceable(8) i32** @_ZNK9__gnu_cxx17__normal_iteratorIPiSt6vectorIiSaIiEEE4baseEv(%"class.__gnu_cxx::__normal_iterator"* nonnull align 8 dereferenceable(8) %4) #2, !llfi_index !400
  %44 = load i32*, i32** %43, align 8, !llfi_index !401
  %45 = load i32*, i32** %12, align 8, !llfi_index !402
  %46 = bitcast %"class.std::vector"* %15 to %"struct.std::_Vector_base"*, !llfi_index !403
  %47 = call nonnull align 1 dereferenceable(1) %"class.std::allocator"* @_ZNSt12_Vector_baseIiSaIiEE19_M_get_Tp_allocatorEv(%"struct.std::_Vector_base"* nonnull align 8 dereferenceable(24) %46) #2, !llfi_index !404
  %48 = call i32* @_ZNSt6vectorIiSaIiEE11_S_relocateEPiS2_S2_RS0_(i32* %42, i32* %44, i32* %45, %"class.std::allocator"* nonnull align 1 dereferenceable(1) %47) #2, !llfi_index !405
  store i32* %48, i32** %13, align 8, !llfi_index !406
  %49 = load i32*, i32** %13, align 8, !llfi_index !407
  %50 = getelementptr inbounds i32, i32* %49, i32 1, !llfi_index !408
  store i32* %50, i32** %13, align 8, !llfi_index !409
  %51 = call nonnull align 8 dereferenceable(8) i32** @_ZNK9__gnu_cxx17__normal_iteratorIPiSt6vectorIiSaIiEEE4baseEv(%"class.__gnu_cxx::__normal_iterator"* nonnull align 8 dereferenceable(8) %4) #2, !llfi_index !410
  %52 = load i32*, i32** %51, align 8, !llfi_index !411
  %53 = load i32*, i32** %9, align 8, !llfi_index !412
  %54 = load i32*, i32** %13, align 8, !llfi_index !413
  %55 = bitcast %"class.std::vector"* %15 to %"struct.std::_Vector_base"*, !llfi_index !414
  %56 = call nonnull align 1 dereferenceable(1) %"class.std::allocator"* @_ZNSt12_Vector_baseIiSaIiEE19_M_get_Tp_allocatorEv(%"struct.std::_Vector_base"* nonnull align 8 dereferenceable(24) %55) #2, !llfi_index !415
  %57 = call i32* @_ZNSt6vectorIiSaIiEE11_S_relocateEPiS2_S2_RS0_(i32* %52, i32* %53, i32* %54, %"class.std::allocator"* nonnull align 1 dereferenceable(1) %56) #2, !llfi_index !416
  store i32* %57, i32** %13, align 8, !llfi_index !417
  %58 = bitcast %"class.std::vector"* %15 to %"struct.std::_Vector_base"*, !llfi_index !418
  %59 = load i32*, i32** %8, align 8, !llfi_index !419
  %60 = bitcast %"class.std::vector"* %15 to %"struct.std::_Vector_base"*, !llfi_index !420
  %61 = getelementptr inbounds %"struct.std::_Vector_base", %"struct.std::_Vector_base"* %60, i32 0, i32 0, !llfi_index !421
  %62 = bitcast %"struct.std::_Vector_base<int, std::allocator<int>>::_Vector_impl"* %61 to %"struct.std::_Vector_base<int, std::allocator<int>>::_Vector_impl_data"*, !llfi_index !422
  %63 = getelementptr inbounds %"struct.std::_Vector_base<int, std::allocator<int>>::_Vector_impl_data", %"struct.std::_Vector_base<int, std::allocator<int>>::_Vector_impl_data"* %62, i32 0, i32 2, !llfi_index !423
  %64 = load i32*, i32** %63, align 8, !llfi_index !424
  %65 = load i32*, i32** %8, align 8, !llfi_index !425
  %66 = ptrtoint i32* %64 to i64, !llfi_index !426
  %67 = ptrtoint i32* %65 to i64, !llfi_index !427
  %68 = sub i64 %66, %67, !llfi_index !428
  %69 = sdiv exact i64 %68, 4, !llfi_index !429
  call void @_ZNSt12_Vector_baseIiSaIiEE13_M_deallocateEPim(%"struct.std::_Vector_base"* nonnull align 8 dereferenceable(24) %58, i32* %59, i64 %69), !llfi_index !430
  %70 = load i32*, i32** %12, align 8, !llfi_index !431
  %71 = bitcast %"class.std::vector"* %15 to %"struct.std::_Vector_base"*, !llfi_index !432
  %72 = getelementptr inbounds %"struct.std::_Vector_base", %"struct.std::_Vector_base"* %71, i32 0, i32 0, !llfi_index !433
  %73 = bitcast %"struct.std::_Vector_base<int, std::allocator<int>>::_Vector_impl"* %72 to %"struct.std::_Vector_base<int, std::allocator<int>>::_Vector_impl_data"*, !llfi_index !434
  %74 = getelementptr inbounds %"struct.std::_Vector_base<int, std::allocator<int>>::_Vector_impl_data", %"struct.std::_Vector_base<int, std::allocator<int>>::_Vector_impl_data"* %73, i32 0, i32 0, !llfi_index !435
  store i32* %70, i32** %74, align 8, !llfi_index !436
  %75 = load i32*, i32** %13, align 8, !llfi_index !437
  %76 = bitcast %"class.std::vector"* %15 to %"struct.std::_Vector_base"*, !llfi_index !438
  %77 = getelementptr inbounds %"struct.std::_Vector_base", %"struct.std::_Vector_base"* %76, i32 0, i32 0, !llfi_index !439
  %78 = bitcast %"struct.std::_Vector_base<int, std::allocator<int>>::_Vector_impl"* %77 to %"struct.std::_Vector_base<int, std::allocator<int>>::_Vector_impl_data"*, !llfi_index !440
  %79 = getelementptr inbounds %"struct.std::_Vector_base<int, std::allocator<int>>::_Vector_impl_data", %"struct.std::_Vector_base<int, std::allocator<int>>::_Vector_impl_data"* %78, i32 0, i32 1, !llfi_index !441
  store i32* %75, i32** %79, align 8, !llfi_index !442
  %80 = load i32*, i32** %12, align 8, !llfi_index !443
  %81 = load i64, i64* %7, align 8, !llfi_index !444
  %82 = getelementptr inbounds i32, i32* %80, i64 %81, !llfi_index !445
  %83 = bitcast %"class.std::vector"* %15 to %"struct.std::_Vector_base"*, !llfi_index !446
  %84 = getelementptr inbounds %"struct.std::_Vector_base", %"struct.std::_Vector_base"* %83, i32 0, i32 0, !llfi_index !447
  %85 = bitcast %"struct.std::_Vector_base<int, std::allocator<int>>::_Vector_impl"* %84 to %"struct.std::_Vector_base<int, std::allocator<int>>::_Vector_impl_data"*, !llfi_index !448
  %86 = getelementptr inbounds %"struct.std::_Vector_base<int, std::allocator<int>>::_Vector_impl_data", %"struct.std::_Vector_base<int, std::allocator<int>>::_Vector_impl_data"* %85, i32 0, i32 2, !llfi_index !449
  store i32* %82, i32** %86, align 8, !llfi_index !450
  ret void, !llfi_index !451
}

; Function Attrs: mustprogress noinline uwtable
define linkonce_odr dso_local i64 @_ZNKSt6vectorIiSaIiEE12_M_check_lenEmPKc(%"class.std::vector"* nonnull align 8 dereferenceable(24) %0, i64 %1, i8* %2) #4 comdat align 2 {
  %4 = alloca %"class.std::vector"*, align 8, !llfi_index !452
  %5 = alloca i64, align 8, !llfi_index !453
  %6 = alloca i8*, align 8, !llfi_index !454
  %7 = alloca i64, align 8, !llfi_index !455
  %8 = alloca i64, align 8, !llfi_index !456
  store %"class.std::vector"* %0, %"class.std::vector"** %4, align 8, !llfi_index !457
  store i64 %1, i64* %5, align 8, !llfi_index !458
  store i8* %2, i8** %6, align 8, !llfi_index !459
  %9 = load %"class.std::vector"*, %"class.std::vector"** %4, align 8, !llfi_index !460
  %10 = call i64 @_ZNKSt6vectorIiSaIiEE8max_sizeEv(%"class.std::vector"* nonnull align 8 dereferenceable(24) %9) #2, !llfi_index !461
  %11 = call i64 @_ZNKSt6vectorIiSaIiEE4sizeEv(%"class.std::vector"* nonnull align 8 dereferenceable(24) %9) #2, !llfi_index !462
  %12 = sub i64 %10, %11, !llfi_index !463
  %13 = load i64, i64* %5, align 8, !llfi_index !464
  %14 = icmp ult i64 %12, %13, !llfi_index !465
  br i1 %14, label %15, label %17, !llfi_index !466

15:                                               ; preds = %3
  %16 = load i8*, i8** %6, align 8, !llfi_index !467
  call void @_ZSt20__throw_length_errorPKc(i8* %16) #15, !llfi_index !468
  unreachable, !llfi_index !469

17:                                               ; preds = %3
  %18 = call i64 @_ZNKSt6vectorIiSaIiEE4sizeEv(%"class.std::vector"* nonnull align 8 dereferenceable(24) %9) #2, !llfi_index !470
  %19 = call i64 @_ZNKSt6vectorIiSaIiEE4sizeEv(%"class.std::vector"* nonnull align 8 dereferenceable(24) %9) #2, !llfi_index !471
  store i64 %19, i64* %8, align 8, !llfi_index !472
  %20 = call nonnull align 8 dereferenceable(8) i64* @_ZSt3maxImERKT_S2_S2_(i64* nonnull align 8 dereferenceable(8) %8, i64* nonnull align 8 dereferenceable(8) %5), !llfi_index !473
  %21 = load i64, i64* %20, align 8, !llfi_index !474
  %22 = add i64 %18, %21, !llfi_index !475
  store i64 %22, i64* %7, align 8, !llfi_index !476
  %23 = load i64, i64* %7, align 8, !llfi_index !477
  %24 = call i64 @_ZNKSt6vectorIiSaIiEE4sizeEv(%"class.std::vector"* nonnull align 8 dereferenceable(24) %9) #2, !llfi_index !478
  %25 = icmp ult i64 %23, %24, !llfi_index !479
  br i1 %25, label %30, label %26, !llfi_index !480

26:                                               ; preds = %17
  %27 = load i64, i64* %7, align 8, !llfi_index !481
  %28 = call i64 @_ZNKSt6vectorIiSaIiEE8max_sizeEv(%"class.std::vector"* nonnull align 8 dereferenceable(24) %9) #2, !llfi_index !482
  %29 = icmp ugt i64 %27, %28, !llfi_index !483
  br i1 %29, label %30, label %32, !llfi_index !484

30:                                               ; preds = %26, %17
  %31 = call i64 @_ZNKSt6vectorIiSaIiEE8max_sizeEv(%"class.std::vector"* nonnull align 8 dereferenceable(24) %9) #2, !llfi_index !485
  br label %34, !llfi_index !486

32:                                               ; preds = %26
  %33 = load i64, i64* %7, align 8, !llfi_index !487
  br label %34, !llfi_index !488

34:                                               ; preds = %32, %30
  %35 = phi i64 [ %31, %30 ], [ %33, %32 ], !llfi_index !489
  ret i64 %35, !llfi_index !490
}

; Function Attrs: mustprogress noinline nounwind uwtable
define linkonce_odr dso_local i32* @_ZNSt6vectorIiSaIiEE5beginEv(%"class.std::vector"* nonnull align 8 dereferenceable(24) %0) #3 comdat align 2 {
  %2 = alloca %"class.__gnu_cxx::__normal_iterator", align 8, !llfi_index !491
  %3 = alloca %"class.std::vector"*, align 8, !llfi_index !492
  store %"class.std::vector"* %0, %"class.std::vector"** %3, align 8, !llfi_index !493
  %4 = load %"class.std::vector"*, %"class.std::vector"** %3, align 8, !llfi_index !494
  %5 = bitcast %"class.std::vector"* %4 to %"struct.std::_Vector_base"*, !llfi_index !495
  %6 = getelementptr inbounds %"struct.std::_Vector_base", %"struct.std::_Vector_base"* %5, i32 0, i32 0, !llfi_index !496
  %7 = bitcast %"struct.std::_Vector_base<int, std::allocator<int>>::_Vector_impl"* %6 to %"struct.std::_Vector_base<int, std::allocator<int>>::_Vector_impl_data"*, !llfi_index !497
  %8 = getelementptr inbounds %"struct.std::_Vector_base<int, std::allocator<int>>::_Vector_impl_data", %"struct.std::_Vector_base<int, std::allocator<int>>::_Vector_impl_data"* %7, i32 0, i32 0, !llfi_index !498
  call void @_ZN9__gnu_cxx17__normal_iteratorIPiSt6vectorIiSaIiEEEC2ERKS1_(%"class.__gnu_cxx::__normal_iterator"* nonnull align 8 dereferenceable(8) %2, i32** nonnull align 8 dereferenceable(8) %8) #2, !llfi_index !499
  %9 = getelementptr inbounds %"class.__gnu_cxx::__normal_iterator", %"class.__gnu_cxx::__normal_iterator"* %2, i32 0, i32 0, !llfi_index !500
  %10 = load i32*, i32** %9, align 8, !llfi_index !501
  ret i32* %10, !llfi_index !502
}

; Function Attrs: mustprogress noinline nounwind uwtable
define linkonce_odr dso_local i64 @_ZN9__gnu_cxxmiIPiSt6vectorIiSaIiEEEENS_17__normal_iteratorIT_T0_E15difference_typeERKS8_SB_(%"class.__gnu_cxx::__normal_iterator"* nonnull align 8 dereferenceable(8) %0, %"class.__gnu_cxx::__normal_iterator"* nonnull align 8 dereferenceable(8) %1) #3 comdat {
  %3 = alloca %"class.__gnu_cxx::__normal_iterator"*, align 8, !llfi_index !503
  %4 = alloca %"class.__gnu_cxx::__normal_iterator"*, align 8, !llfi_index !504
  store %"class.__gnu_cxx::__normal_iterator"* %0, %"class.__gnu_cxx::__normal_iterator"** %3, align 8, !llfi_index !505
  store %"class.__gnu_cxx::__normal_iterator"* %1, %"class.__gnu_cxx::__normal_iterator"** %4, align 8, !llfi_index !506
  %5 = load %"class.__gnu_cxx::__normal_iterator"*, %"class.__gnu_cxx::__normal_iterator"** %3, align 8, !llfi_index !507
  %6 = call nonnull align 8 dereferenceable(8) i32** @_ZNK9__gnu_cxx17__normal_iteratorIPiSt6vectorIiSaIiEEE4baseEv(%"class.__gnu_cxx::__normal_iterator"* nonnull align 8 dereferenceable(8) %5) #2, !llfi_index !508
  %7 = load i32*, i32** %6, align 8, !llfi_index !509
  %8 = load %"class.__gnu_cxx::__normal_iterator"*, %"class.__gnu_cxx::__normal_iterator"** %4, align 8, !llfi_index !510
  %9 = call nonnull align 8 dereferenceable(8) i32** @_ZNK9__gnu_cxx17__normal_iteratorIPiSt6vectorIiSaIiEEE4baseEv(%"class.__gnu_cxx::__normal_iterator"* nonnull align 8 dereferenceable(8) %8) #2, !llfi_index !511
  %10 = load i32*, i32** %9, align 8, !llfi_index !512
  %11 = ptrtoint i32* %7 to i64, !llfi_index !513
  %12 = ptrtoint i32* %10 to i64, !llfi_index !514
  %13 = sub i64 %11, %12, !llfi_index !515
  %14 = sdiv exact i64 %13, 4, !llfi_index !516
  ret i64 %14, !llfi_index !517
}

; Function Attrs: mustprogress noinline uwtable
define linkonce_odr dso_local i32* @_ZNSt12_Vector_baseIiSaIiEE11_M_allocateEm(%"struct.std::_Vector_base"* nonnull align 8 dereferenceable(24) %0, i64 %1) #4 comdat align 2 {
  %3 = alloca %"struct.std::_Vector_base"*, align 8, !llfi_index !518
  %4 = alloca i64, align 8, !llfi_index !519
  store %"struct.std::_Vector_base"* %0, %"struct.std::_Vector_base"** %3, align 8, !llfi_index !520
  store i64 %1, i64* %4, align 8, !llfi_index !521
  %5 = load %"struct.std::_Vector_base"*, %"struct.std::_Vector_base"** %3, align 8, !llfi_index !522
  %6 = load i64, i64* %4, align 8, !llfi_index !523
  %7 = icmp ne i64 %6, 0, !llfi_index !524
  br i1 %7, label %8, label %13, !llfi_index !525

8:                                                ; preds = %2
  %9 = getelementptr inbounds %"struct.std::_Vector_base", %"struct.std::_Vector_base"* %5, i32 0, i32 0, !llfi_index !526
  %10 = bitcast %"struct.std::_Vector_base<int, std::allocator<int>>::_Vector_impl"* %9 to %"class.std::allocator"*, !llfi_index !527
  %11 = load i64, i64* %4, align 8, !llfi_index !528
  %12 = call i32* @_ZNSt16allocator_traitsISaIiEE8allocateERS0_m(%"class.std::allocator"* nonnull align 1 dereferenceable(1) %10, i64 %11), !llfi_index !529
  br label %14, !llfi_index !530

13:                                               ; preds = %2
  br label %14, !llfi_index !531

14:                                               ; preds = %13, %8
  %15 = phi i32* [ %12, %8 ], [ null, %13 ], !llfi_index !532
  ret i32* %15, !llfi_index !533
}

; Function Attrs: mustprogress noinline nounwind uwtable
define linkonce_odr dso_local nonnull align 4 dereferenceable(4) i32* @_ZSt7forwardIRKiEOT_RNSt16remove_referenceIS2_E4typeE(i32* nonnull align 4 dereferenceable(4) %0) #3 comdat {
  %2 = alloca i32*, align 8, !llfi_index !534
  store i32* %0, i32** %2, align 8, !llfi_index !535
  %3 = load i32*, i32** %2, align 8, !llfi_index !536
  ret i32* %3, !llfi_index !537
}

; Function Attrs: mustprogress noinline nounwind uwtable
define linkonce_odr dso_local nonnull align 8 dereferenceable(8) i32** @_ZNK9__gnu_cxx17__normal_iteratorIPiSt6vectorIiSaIiEEE4baseEv(%"class.__gnu_cxx::__normal_iterator"* nonnull align 8 dereferenceable(8) %0) #3 comdat align 2 {
  %2 = alloca %"class.__gnu_cxx::__normal_iterator"*, align 8, !llfi_index !538
  store %"class.__gnu_cxx::__normal_iterator"* %0, %"class.__gnu_cxx::__normal_iterator"** %2, align 8, !llfi_index !539
  %3 = load %"class.__gnu_cxx::__normal_iterator"*, %"class.__gnu_cxx::__normal_iterator"** %2, align 8, !llfi_index !540
  %4 = getelementptr inbounds %"class.__gnu_cxx::__normal_iterator", %"class.__gnu_cxx::__normal_iterator"* %3, i32 0, i32 0, !llfi_index !541
  ret i32** %4, !llfi_index !542
}

; Function Attrs: mustprogress noinline nounwind uwtable
define linkonce_odr dso_local i32* @_ZNSt6vectorIiSaIiEE11_S_relocateEPiS2_S2_RS0_(i32* %0, i32* %1, i32* %2, %"class.std::allocator"* nonnull align 1 dereferenceable(1) %3) #3 comdat align 2 {
  %5 = alloca i32*, align 8, !llfi_index !543
  %6 = alloca i32*, align 8, !llfi_index !544
  %7 = alloca i32*, align 8, !llfi_index !545
  %8 = alloca %"class.std::allocator"*, align 8, !llfi_index !546
  %9 = alloca %"class.std::allocator", align 1, !llfi_index !547
  store i32* %0, i32** %5, align 8, !llfi_index !548
  store i32* %1, i32** %6, align 8, !llfi_index !549
  store i32* %2, i32** %7, align 8, !llfi_index !550
  store %"class.std::allocator"* %3, %"class.std::allocator"** %8, align 8, !llfi_index !551
  %10 = load i32*, i32** %5, align 8, !llfi_index !552
  %11 = load i32*, i32** %6, align 8, !llfi_index !553
  %12 = load i32*, i32** %7, align 8, !llfi_index !554
  %13 = load %"class.std::allocator"*, %"class.std::allocator"** %8, align 8, !llfi_index !555
  %14 = call i32* @_ZNSt6vectorIiSaIiEE14_S_do_relocateEPiS2_S2_RS0_St17integral_constantIbLb1EE(i32* %10, i32* %11, i32* %12, %"class.std::allocator"* nonnull align 1 dereferenceable(1) %13) #2, !llfi_index !556
  ret i32* %14, !llfi_index !557
}

; Function Attrs: mustprogress noinline nounwind uwtable
define linkonce_odr dso_local i32* @_ZNSt6vectorIiSaIiEE14_S_do_relocateEPiS2_S2_RS0_St17integral_constantIbLb1EE(i32* %0, i32* %1, i32* %2, %"class.std::allocator"* nonnull align 1 dereferenceable(1) %3) #3 comdat align 2 {
  %5 = alloca %"class.std::allocator", align 1, !llfi_index !558
  %6 = alloca i32*, align 8, !llfi_index !559
  %7 = alloca i32*, align 8, !llfi_index !560
  %8 = alloca i32*, align 8, !llfi_index !561
  %9 = alloca %"class.std::allocator"*, align 8, !llfi_index !562
  store i32* %0, i32** %6, align 8, !llfi_index !563
  store i32* %1, i32** %7, align 8, !llfi_index !564
  store i32* %2, i32** %8, align 8, !llfi_index !565
  store %"class.std::allocator"* %3, %"class.std::allocator"** %9, align 8, !llfi_index !566
  %10 = load i32*, i32** %6, align 8, !llfi_index !567
  %11 = load i32*, i32** %7, align 8, !llfi_index !568
  %12 = load i32*, i32** %8, align 8, !llfi_index !569
  %13 = load %"class.std::allocator"*, %"class.std::allocator"** %9, align 8, !llfi_index !570
  %14 = call i32* @_ZSt12__relocate_aIPiS0_SaIiEET0_T_S3_S2_RT1_(i32* %10, i32* %11, i32* %12, %"class.std::allocator"* nonnull align 1 dereferenceable(1) %13) #2, !llfi_index !571
  ret i32* %14, !llfi_index !572
}

; Function Attrs: mustprogress noinline nounwind uwtable
define linkonce_odr dso_local i32* @_ZSt12__relocate_aIPiS0_SaIiEET0_T_S3_S2_RT1_(i32* %0, i32* %1, i32* %2, %"class.std::allocator"* nonnull align 1 dereferenceable(1) %3) #3 comdat {
  %5 = alloca i32*, align 8, !llfi_index !573
  %6 = alloca i32*, align 8, !llfi_index !574
  %7 = alloca i32*, align 8, !llfi_index !575
  %8 = alloca %"class.std::allocator"*, align 8, !llfi_index !576
  store i32* %0, i32** %5, align 8, !llfi_index !577
  store i32* %1, i32** %6, align 8, !llfi_index !578
  store i32* %2, i32** %7, align 8, !llfi_index !579
  store %"class.std::allocator"* %3, %"class.std::allocator"** %8, align 8, !llfi_index !580
  %9 = load i32*, i32** %5, align 8, !llfi_index !581
  %10 = call i32* @_ZSt12__niter_baseIPiET_S1_(i32* %9) #2, !llfi_index !582
  %11 = load i32*, i32** %6, align 8, !llfi_index !583
  %12 = call i32* @_ZSt12__niter_baseIPiET_S1_(i32* %11) #2, !llfi_index !584
  %13 = load i32*, i32** %7, align 8, !llfi_index !585
  %14 = call i32* @_ZSt12__niter_baseIPiET_S1_(i32* %13) #2, !llfi_index !586
  %15 = load %"class.std::allocator"*, %"class.std::allocator"** %8, align 8, !llfi_index !587
  %16 = call i32* @_ZSt14__relocate_a_1IiiENSt9enable_ifIXsr3std24__is_bitwise_relocatableIT_EE5valueEPS1_E4typeES2_S2_S2_RSaIT0_E(i32* %10, i32* %12, i32* %14, %"class.std::allocator"* nonnull align 1 dereferenceable(1) %15) #2, !llfi_index !588
  ret i32* %16, !llfi_index !589
}

; Function Attrs: mustprogress noinline nounwind uwtable
define linkonce_odr dso_local i32* @_ZSt12__niter_baseIPiET_S1_(i32* %0) #3 comdat {
  %2 = alloca i32*, align 8, !llfi_index !590
  store i32* %0, i32** %2, align 8, !llfi_index !591
  %3 = load i32*, i32** %2, align 8, !llfi_index !592
  ret i32* %3, !llfi_index !593
}

; Function Attrs: mustprogress noinline nounwind uwtable
define linkonce_odr dso_local i32* @_ZSt14__relocate_a_1IiiENSt9enable_ifIXsr3std24__is_bitwise_relocatableIT_EE5valueEPS1_E4typeES2_S2_S2_RSaIT0_E(i32* %0, i32* %1, i32* %2, %"class.std::allocator"* nonnull align 1 dereferenceable(1) %3) #3 comdat {
  %5 = alloca i32*, align 8, !llfi_index !594
  %6 = alloca i32*, align 8, !llfi_index !595
  %7 = alloca i32*, align 8, !llfi_index !596
  %8 = alloca %"class.std::allocator"*, align 8, !llfi_index !597
  %9 = alloca i64, align 8, !llfi_index !598
  store i32* %0, i32** %5, align 8, !llfi_index !599
  store i32* %1, i32** %6, align 8, !llfi_index !600
  store i32* %2, i32** %7, align 8, !llfi_index !601
  store %"class.std::allocator"* %3, %"class.std::allocator"** %8, align 8, !llfi_index !602
  %10 = load i32*, i32** %6, align 8, !llfi_index !603
  %11 = load i32*, i32** %5, align 8, !llfi_index !604
  %12 = ptrtoint i32* %10 to i64, !llfi_index !605
  %13 = ptrtoint i32* %11 to i64, !llfi_index !606
  %14 = sub i64 %12, %13, !llfi_index !607
  %15 = sdiv exact i64 %14, 4, !llfi_index !608
  store i64 %15, i64* %9, align 8, !llfi_index !609
  %16 = load i64, i64* %9, align 8, !llfi_index !610
  %17 = icmp sgt i64 %16, 0, !llfi_index !611
  br i1 %17, label %18, label %25, !llfi_index !612

18:                                               ; preds = %4
  %19 = load i32*, i32** %7, align 8, !llfi_index !613
  %20 = bitcast i32* %19 to i8*, !llfi_index !614
  %21 = load i32*, i32** %5, align 8, !llfi_index !615
  %22 = bitcast i32* %21 to i8*, !llfi_index !616
  %23 = load i64, i64* %9, align 8, !llfi_index !617
  %24 = mul i64 %23, 4, !llfi_index !618
  call void @llvm.memmove.p0i8.p0i8.i64(i8* align 4 %20, i8* align 4 %22, i64 %24, i1 false), !llfi_index !619
  br label %25, !llfi_index !620

25:                                               ; preds = %18, %4
  %26 = load i32*, i32** %7, align 8, !llfi_index !621
  %27 = load i64, i64* %9, align 8, !llfi_index !622
  %28 = getelementptr inbounds i32, i32* %26, i64 %27, !llfi_index !623
  ret i32* %28, !llfi_index !624
}

; Function Attrs: argmemonly nofree nounwind willreturn
declare void @llvm.memmove.p0i8.p0i8.i64(i8* nocapture writeonly, i8* nocapture readonly, i64, i1 immarg) #9

; Function Attrs: mustprogress noinline uwtable
define linkonce_odr dso_local i32* @_ZNSt16allocator_traitsISaIiEE8allocateERS0_m(%"class.std::allocator"* nonnull align 1 dereferenceable(1) %0, i64 %1) #4 comdat align 2 {
  %3 = alloca %"class.std::allocator"*, align 8, !llfi_index !625
  %4 = alloca i64, align 8, !llfi_index !626
  store %"class.std::allocator"* %0, %"class.std::allocator"** %3, align 8, !llfi_index !627
  store i64 %1, i64* %4, align 8, !llfi_index !628
  %5 = load %"class.std::allocator"*, %"class.std::allocator"** %3, align 8, !llfi_index !629
  %6 = bitcast %"class.std::allocator"* %5 to %"class.std::allocator"*, !llfi_index !630
  %7 = load i64, i64* %4, align 8, !llfi_index !631
  %8 = call i32* @_ZN9__gnu_cxx13new_allocatorIiE8allocateEmPKv(%"class.std::allocator"* nonnull align 1 dereferenceable(1) %6, i64 %7, i8* null), !llfi_index !632
  ret i32* %8, !llfi_index !633
}

; Function Attrs: mustprogress noinline uwtable
define linkonce_odr dso_local i32* @_ZN9__gnu_cxx13new_allocatorIiE8allocateEmPKv(%"class.std::allocator"* nonnull align 1 dereferenceable(1) %0, i64 %1, i8* %2) #4 comdat align 2 {
  %4 = alloca %"class.std::allocator"*, align 8, !llfi_index !634
  %5 = alloca i64, align 8, !llfi_index !635
  %6 = alloca i8*, align 8, !llfi_index !636
  store %"class.std::allocator"* %0, %"class.std::allocator"** %4, align 8, !llfi_index !637
  store i64 %1, i64* %5, align 8, !llfi_index !638
  store i8* %2, i8** %6, align 8, !llfi_index !639
  %7 = load %"class.std::allocator"*, %"class.std::allocator"** %4, align 8, !llfi_index !640
  %8 = load i64, i64* %5, align 8, !llfi_index !641
  %9 = call i64 @_ZNK9__gnu_cxx13new_allocatorIiE8max_sizeEv(%"class.std::allocator"* nonnull align 1 dereferenceable(1) %7) #2, !llfi_index !642
  %10 = icmp ugt i64 %8, %9, !llfi_index !643
  br i1 %10, label %11, label %12, !llfi_index !644

11:                                               ; preds = %3
  call void @_ZSt17__throw_bad_allocv() #15, !llfi_index !645
  unreachable, !llfi_index !646

12:                                               ; preds = %3
  %13 = load i64, i64* %5, align 8, !llfi_index !647
  %14 = mul i64 %13, 4, !llfi_index !648
  %15 = call noalias nonnull i8* @_Znwm(i64 %14) #16, !llfi_index !649
  %16 = bitcast i8* %15 to i32*, !llfi_index !650
  ret i32* %16, !llfi_index !651
}

; Function Attrs: mustprogress noinline nounwind uwtable
define linkonce_odr dso_local i64 @_ZNK9__gnu_cxx13new_allocatorIiE8max_sizeEv(%"class.std::allocator"* nonnull align 1 dereferenceable(1) %0) #3 comdat align 2 {
  %2 = alloca %"class.std::allocator"*, align 8, !llfi_index !652
  store %"class.std::allocator"* %0, %"class.std::allocator"** %2, align 8, !llfi_index !653
  %3 = load %"class.std::allocator"*, %"class.std::allocator"** %2, align 8, !llfi_index !654
  ret i64 2305843009213693951, !llfi_index !655
}

; Function Attrs: noreturn
declare dso_local void @_ZSt17__throw_bad_allocv() #10

; Function Attrs: nobuiltin allocsize(0)
declare dso_local nonnull i8* @_Znwm(i64) #11

; Function Attrs: noinline nounwind uwtable
define linkonce_odr dso_local void @_ZN9__gnu_cxx17__normal_iteratorIPiSt6vectorIiSaIiEEEC2ERKS1_(%"class.__gnu_cxx::__normal_iterator"* nonnull align 8 dereferenceable(8) %0, i32** nonnull align 8 dereferenceable(8) %1) unnamed_addr #1 comdat align 2 {
  %3 = alloca %"class.__gnu_cxx::__normal_iterator"*, align 8, !llfi_index !656
  %4 = alloca i32**, align 8, !llfi_index !657
  store %"class.__gnu_cxx::__normal_iterator"* %0, %"class.__gnu_cxx::__normal_iterator"** %3, align 8, !llfi_index !658
  store i32** %1, i32*** %4, align 8, !llfi_index !659
  %5 = load %"class.__gnu_cxx::__normal_iterator"*, %"class.__gnu_cxx::__normal_iterator"** %3, align 8, !llfi_index !660
  %6 = getelementptr inbounds %"class.__gnu_cxx::__normal_iterator", %"class.__gnu_cxx::__normal_iterator"* %5, i32 0, i32 0, !llfi_index !661
  %7 = load i32**, i32*** %4, align 8, !llfi_index !662
  %8 = load i32*, i32** %7, align 8, !llfi_index !663
  store i32* %8, i32** %6, align 8, !llfi_index !664
  ret void, !llfi_index !665
}

; Function Attrs: mustprogress noinline nounwind uwtable
define linkonce_odr dso_local i64 @_ZNKSt6vectorIiSaIiEE8max_sizeEv(%"class.std::vector"* nonnull align 8 dereferenceable(24) %0) #3 comdat align 2 {
  %2 = alloca %"class.std::vector"*, align 8, !llfi_index !666
  store %"class.std::vector"* %0, %"class.std::vector"** %2, align 8, !llfi_index !667
  %3 = load %"class.std::vector"*, %"class.std::vector"** %2, align 8, !llfi_index !668
  %4 = bitcast %"class.std::vector"* %3 to %"struct.std::_Vector_base"*, !llfi_index !669
  %5 = call nonnull align 1 dereferenceable(1) %"class.std::allocator"* @_ZNKSt12_Vector_baseIiSaIiEE19_M_get_Tp_allocatorEv(%"struct.std::_Vector_base"* nonnull align 8 dereferenceable(24) %4) #2, !llfi_index !670
  %6 = call i64 @_ZNSt6vectorIiSaIiEE11_S_max_sizeERKS0_(%"class.std::allocator"* nonnull align 1 dereferenceable(1) %5) #2, !llfi_index !671
  ret i64 %6, !llfi_index !672
}

; Function Attrs: mustprogress noinline nounwind uwtable
define linkonce_odr dso_local i64 @_ZNKSt6vectorIiSaIiEE4sizeEv(%"class.std::vector"* nonnull align 8 dereferenceable(24) %0) #3 comdat align 2 {
  %2 = alloca %"class.std::vector"*, align 8, !llfi_index !673
  store %"class.std::vector"* %0, %"class.std::vector"** %2, align 8, !llfi_index !674
  %3 = load %"class.std::vector"*, %"class.std::vector"** %2, align 8, !llfi_index !675
  %4 = bitcast %"class.std::vector"* %3 to %"struct.std::_Vector_base"*, !llfi_index !676
  %5 = getelementptr inbounds %"struct.std::_Vector_base", %"struct.std::_Vector_base"* %4, i32 0, i32 0, !llfi_index !677
  %6 = bitcast %"struct.std::_Vector_base<int, std::allocator<int>>::_Vector_impl"* %5 to %"struct.std::_Vector_base<int, std::allocator<int>>::_Vector_impl_data"*, !llfi_index !678
  %7 = getelementptr inbounds %"struct.std::_Vector_base<int, std::allocator<int>>::_Vector_impl_data", %"struct.std::_Vector_base<int, std::allocator<int>>::_Vector_impl_data"* %6, i32 0, i32 1, !llfi_index !679
  %8 = load i32*, i32** %7, align 8, !llfi_index !680
  %9 = bitcast %"class.std::vector"* %3 to %"struct.std::_Vector_base"*, !llfi_index !681
  %10 = getelementptr inbounds %"struct.std::_Vector_base", %"struct.std::_Vector_base"* %9, i32 0, i32 0, !llfi_index !682
  %11 = bitcast %"struct.std::_Vector_base<int, std::allocator<int>>::_Vector_impl"* %10 to %"struct.std::_Vector_base<int, std::allocator<int>>::_Vector_impl_data"*, !llfi_index !683
  %12 = getelementptr inbounds %"struct.std::_Vector_base<int, std::allocator<int>>::_Vector_impl_data", %"struct.std::_Vector_base<int, std::allocator<int>>::_Vector_impl_data"* %11, i32 0, i32 0, !llfi_index !684
  %13 = load i32*, i32** %12, align 8, !llfi_index !685
  %14 = ptrtoint i32* %8 to i64, !llfi_index !686
  %15 = ptrtoint i32* %13 to i64, !llfi_index !687
  %16 = sub i64 %14, %15, !llfi_index !688
  %17 = sdiv exact i64 %16, 4, !llfi_index !689
  ret i64 %17, !llfi_index !690
}

; Function Attrs: noreturn
declare dso_local void @_ZSt20__throw_length_errorPKc(i8*) #10

; Function Attrs: mustprogress noinline nounwind uwtable
define linkonce_odr dso_local nonnull align 8 dereferenceable(8) i64* @_ZSt3maxImERKT_S2_S2_(i64* nonnull align 8 dereferenceable(8) %0, i64* nonnull align 8 dereferenceable(8) %1) #3 comdat {
  %3 = alloca i64*, align 8, !llfi_index !691
  %4 = alloca i64*, align 8, !llfi_index !692
  %5 = alloca i64*, align 8, !llfi_index !693
  store i64* %0, i64** %4, align 8, !llfi_index !694
  store i64* %1, i64** %5, align 8, !llfi_index !695
  %6 = load i64*, i64** %4, align 8, !llfi_index !696
  %7 = load i64, i64* %6, align 8, !llfi_index !697
  %8 = load i64*, i64** %5, align 8, !llfi_index !698
  %9 = load i64, i64* %8, align 8, !llfi_index !699
  %10 = icmp ult i64 %7, %9, !llfi_index !700
  br i1 %10, label %11, label %13, !llfi_index !701

11:                                               ; preds = %2
  %12 = load i64*, i64** %5, align 8, !llfi_index !702
  store i64* %12, i64** %3, align 8, !llfi_index !703
  br label %15, !llfi_index !704

13:                                               ; preds = %2
  %14 = load i64*, i64** %4, align 8, !llfi_index !705
  store i64* %14, i64** %3, align 8, !llfi_index !706
  br label %15, !llfi_index !707

15:                                               ; preds = %13, %11
  %16 = load i64*, i64** %3, align 8, !llfi_index !708
  ret i64* %16, !llfi_index !709
}

; Function Attrs: mustprogress noinline nounwind uwtable
define linkonce_odr dso_local nonnull align 1 dereferenceable(1) %"class.std::allocator"* @_ZNKSt12_Vector_baseIiSaIiEE19_M_get_Tp_allocatorEv(%"struct.std::_Vector_base"* nonnull align 8 dereferenceable(24) %0) #3 comdat align 2 {
  %2 = alloca %"struct.std::_Vector_base"*, align 8, !llfi_index !710
  store %"struct.std::_Vector_base"* %0, %"struct.std::_Vector_base"** %2, align 8, !llfi_index !711
  %3 = load %"struct.std::_Vector_base"*, %"struct.std::_Vector_base"** %2, align 8, !llfi_index !712
  %4 = getelementptr inbounds %"struct.std::_Vector_base", %"struct.std::_Vector_base"* %3, i32 0, i32 0, !llfi_index !713
  %5 = bitcast %"struct.std::_Vector_base<int, std::allocator<int>>::_Vector_impl"* %4 to %"class.std::allocator"*, !llfi_index !714
  ret %"class.std::allocator"* %5, !llfi_index !715
}

; Function Attrs: mustprogress noinline nounwind uwtable
define linkonce_odr dso_local i64 @_ZNSt6vectorIiSaIiEE11_S_max_sizeERKS0_(%"class.std::allocator"* nonnull align 1 dereferenceable(1) %0) #3 comdat align 2 personality i8* bitcast (i32 (...)* @__gxx_personality_v0 to i8*) {
  %2 = alloca %"class.std::allocator"*, align 8, !llfi_index !716
  %3 = alloca i64, align 8, !llfi_index !717
  %4 = alloca i64, align 8, !llfi_index !718
  store %"class.std::allocator"* %0, %"class.std::allocator"** %2, align 8, !llfi_index !719
  store i64 2305843009213693951, i64* %3, align 8, !llfi_index !720
  %5 = load %"class.std::allocator"*, %"class.std::allocator"** %2, align 8, !llfi_index !721
  %6 = call i64 @_ZNSt16allocator_traitsISaIiEE8max_sizeERKS0_(%"class.std::allocator"* nonnull align 1 dereferenceable(1) %5) #2, !llfi_index !722
  store i64 %6, i64* %4, align 8, !llfi_index !723
  %7 = invoke nonnull align 8 dereferenceable(8) i64* @_ZSt3minImERKT_S2_S2_(i64* nonnull align 8 dereferenceable(8) %3, i64* nonnull align 8 dereferenceable(8) %4)
          to label %8 unwind label %10, !llfi_index !724

8:                                                ; preds = %1
  %9 = load i64, i64* %7, align 8, !llfi_index !725
  ret i64 %9, !llfi_index !726

10:                                               ; preds = %1
  %11 = landingpad { i8*, i32 }
          catch i8* null, !llfi_index !727
  %12 = extractvalue { i8*, i32 } %11, 0, !llfi_index !728
  call void @__clang_call_terminate(i8* %12) #14, !llfi_index !729
  unreachable, !llfi_index !730
}

; Function Attrs: mustprogress noinline nounwind uwtable
define linkonce_odr dso_local i64 @_ZNSt16allocator_traitsISaIiEE8max_sizeERKS0_(%"class.std::allocator"* nonnull align 1 dereferenceable(1) %0) #3 comdat align 2 {
  %2 = alloca %"class.std::allocator"*, align 8, !llfi_index !731
  store %"class.std::allocator"* %0, %"class.std::allocator"** %2, align 8, !llfi_index !732
  %3 = load %"class.std::allocator"*, %"class.std::allocator"** %2, align 8, !llfi_index !733
  %4 = bitcast %"class.std::allocator"* %3 to %"class.std::allocator"*, !llfi_index !734
  %5 = call i64 @_ZNK9__gnu_cxx13new_allocatorIiE8max_sizeEv(%"class.std::allocator"* nonnull align 1 dereferenceable(1) %4) #2, !llfi_index !735
  ret i64 %5, !llfi_index !736
}

; Function Attrs: mustprogress noinline nounwind uwtable
define linkonce_odr dso_local nonnull align 8 dereferenceable(8) i64* @_ZSt3minImERKT_S2_S2_(i64* nonnull align 8 dereferenceable(8) %0, i64* nonnull align 8 dereferenceable(8) %1) #3 comdat {
  %3 = alloca i64*, align 8, !llfi_index !737
  %4 = alloca i64*, align 8, !llfi_index !738
  %5 = alloca i64*, align 8, !llfi_index !739
  store i64* %0, i64** %4, align 8, !llfi_index !740
  store i64* %1, i64** %5, align 8, !llfi_index !741
  %6 = load i64*, i64** %5, align 8, !llfi_index !742
  %7 = load i64, i64* %6, align 8, !llfi_index !743
  %8 = load i64*, i64** %4, align 8, !llfi_index !744
  %9 = load i64, i64* %8, align 8, !llfi_index !745
  %10 = icmp ult i64 %7, %9, !llfi_index !746
  br i1 %10, label %11, label %13, !llfi_index !747

11:                                               ; preds = %2
  %12 = load i64*, i64** %5, align 8, !llfi_index !748
  store i64* %12, i64** %3, align 8, !llfi_index !749
  br label %15, !llfi_index !750

13:                                               ; preds = %2
  %14 = load i64*, i64** %4, align 8, !llfi_index !751
  store i64* %14, i64** %3, align 8, !llfi_index !752
  br label %15, !llfi_index !753

15:                                               ; preds = %13, %11
  %16 = load i64*, i64** %3, align 8, !llfi_index !754
  ret i64* %16, !llfi_index !755
}

; Function Attrs: mustprogress noinline nounwind uwtable
define linkonce_odr dso_local void @_ZN9__gnu_cxx13new_allocatorIiE9constructIiJRKiEEEvPT_DpOT0_(%"class.std::allocator"* nonnull align 1 dereferenceable(1) %0, i32* %1, i32* nonnull align 4 dereferenceable(4) %2) #3 comdat align 2 {
  %4 = alloca %"class.std::allocator"*, align 8, !llfi_index !756
  %5 = alloca i32*, align 8, !llfi_index !757
  %6 = alloca i32*, align 8, !llfi_index !758
  store %"class.std::allocator"* %0, %"class.std::allocator"** %4, align 8, !llfi_index !759
  store i32* %1, i32** %5, align 8, !llfi_index !760
  store i32* %2, i32** %6, align 8, !llfi_index !761
  %7 = load %"class.std::allocator"*, %"class.std::allocator"** %4, align 8, !llfi_index !762
  %8 = load i32*, i32** %5, align 8, !llfi_index !763
  %9 = bitcast i32* %8 to i8*, !llfi_index !764
  %10 = bitcast i8* %9 to i32*, !llfi_index !765
  %11 = load i32*, i32** %6, align 8, !llfi_index !766
  %12 = call nonnull align 4 dereferenceable(4) i32* @_ZSt7forwardIRKiEOT_RNSt16remove_referenceIS2_E4typeE(i32* nonnull align 4 dereferenceable(4) %11) #2, !llfi_index !767
  %13 = load i32, i32* %12, align 4, !llfi_index !768
  store i32 %13, i32* %10, align 4, !llfi_index !769
  ret void, !llfi_index !770
}

; Function Attrs: mustprogress noinline norecurse uwtable
define dso_local i32 @main() #12 {
  %1 = alloca i32, align 4, !llfi_index !771
  %2 = alloca i32, align 4, !llfi_index !772
  %3 = alloca i32, align 4, !llfi_index !773
  %4 = alloca i32, align 4, !llfi_index !774
  %5 = alloca i32, align 4, !llfi_index !775
  %6 = alloca %"class.__gnu_cxx::__normal_iterator", align 8, !llfi_index !776
  %7 = alloca %"class.__gnu_cxx::__normal_iterator", align 8, !llfi_index !777
  %8 = alloca i32, align 4, !llfi_index !778
  %9 = alloca i32, align 4, !llfi_index !779
  %10 = alloca i32, align 4, !llfi_index !780
  %11 = alloca i32, align 4, !llfi_index !781
  %12 = alloca i32, align 4, !llfi_index !782
  %13 = alloca i32, align 4, !llfi_index !783
  store i32 0, i32* %1, align 4, !llfi_index !784
  %14 = load %struct._IO_FILE*, %struct._IO_FILE** @stdin, align 8, !llfi_index !785
  %15 = call %struct._IO_FILE* @freopen(i8* getelementptr inbounds ([30 x i8], [30 x i8]* @.str, i64 0, i64 0), i8* getelementptr inbounds ([2 x i8], [2 x i8]* @.str.2, i64 0, i64 0), %struct._IO_FILE* %14), !llfi_index !786
  %16 = call nonnull align 8 dereferenceable(16) %"class.std::basic_istream"* @_ZNSirsERi(%"class.std::basic_istream"* nonnull align 8 dereferenceable(16) @_ZSt3cin, i32* nonnull align 4 dereferenceable(4) @n), !llfi_index !787
  store i32 0, i32* %2, align 4, !llfi_index !788
  br label %17, !llfi_index !789

17:                                               ; preds = %26, %0
  %18 = load i32, i32* %2, align 4, !llfi_index !790
  %19 = load i32, i32* @n, align 4, !llfi_index !791
  %20 = icmp slt i32 %18, %19, !llfi_index !792
  br i1 %20, label %21, label %29, !llfi_index !793

21:                                               ; preds = %17
  %22 = load i32, i32* %2, align 4, !llfi_index !794
  %23 = sext i32 %22 to i64, !llfi_index !795
  %24 = getelementptr inbounds [100005 x i32], [100005 x i32]* @brand, i64 0, i64 %23, !llfi_index !796
  %25 = call nonnull align 8 dereferenceable(16) %"class.std::basic_istream"* @_ZNSirsERi(%"class.std::basic_istream"* nonnull align 8 dereferenceable(16) @_ZSt3cin, i32* nonnull align 4 dereferenceable(4) %24), !llfi_index !797
  br label %26, !llfi_index !798

26:                                               ; preds = %21
  %27 = load i32, i32* %2, align 4, !llfi_index !799
  %28 = add nsw i32 %27, 1, !llfi_index !800
  store i32 %28, i32* %2, align 4, !llfi_index !801
  br label %17, !llvm.loop !802, !llfi_index !803

29:                                               ; preds = %17
  store i32 0, i32* %3, align 4, !llfi_index !804
  br label %30, !llfi_index !805

30:                                               ; preds = %39, %29
  %31 = load i32, i32* %3, align 4, !llfi_index !806
  %32 = load i32, i32* @n, align 4, !llfi_index !807
  %33 = icmp slt i32 %31, %32, !llfi_index !808
  br i1 %33, label %34, label %42, !llfi_index !809

34:                                               ; preds = %30
  %35 = load i32, i32* %3, align 4, !llfi_index !810
  %36 = sext i32 %35 to i64, !llfi_index !811
  %37 = getelementptr inbounds [100005 x i32], [100005 x i32]* @price, i64 0, i64 %36, !llfi_index !812
  %38 = call nonnull align 8 dereferenceable(16) %"class.std::basic_istream"* @_ZNSirsERi(%"class.std::basic_istream"* nonnull align 8 dereferenceable(16) @_ZSt3cin, i32* nonnull align 4 dereferenceable(4) %37), !llfi_index !813
  br label %39, !llfi_index !814

39:                                               ; preds = %34
  %40 = load i32, i32* %3, align 4, !llfi_index !815
  %41 = add nsw i32 %40, 1, !llfi_index !816
  store i32 %41, i32* %3, align 4, !llfi_index !817
  br label %30, !llvm.loop !818, !llfi_index !819

42:                                               ; preds = %30
  store i32 89, i32* %4, align 4, !llfi_index !820
  store i32 0, i32* %5, align 4, !llfi_index !821
  br label %43, !llfi_index !822

43:                                               ; preds = %62, %42
  %44 = load i32, i32* %5, align 4, !llfi_index !823
  %45 = icmp slt i32 %44, 32, !llfi_index !824
  br i1 %45, label %46, label %65, !llfi_index !825

46:                                               ; preds = %43
  %47 = load i32, i32* %5, align 4, !llfi_index !826
  call void @_Z2goi(i32 %47), !llfi_index !827
  %48 = load i32, i32* %5, align 4, !llfi_index !828
  %49 = sext i32 %48 to i64, !llfi_index !829
  %50 = getelementptr inbounds [33 x %"class.std::vector"], [33 x %"class.std::vector"]* @arr, i64 0, i64 %49, !llfi_index !830
  %51 = call i32* @_ZNSt6vectorIiSaIiEE5beginEv(%"class.std::vector"* nonnull align 8 dereferenceable(24) %50) #2, !llfi_index !831
  %52 = getelementptr inbounds %"class.__gnu_cxx::__normal_iterator", %"class.__gnu_cxx::__normal_iterator"* %6, i32 0, i32 0, !llfi_index !832
  store i32* %51, i32** %52, align 8, !llfi_index !833
  %53 = load i32, i32* %5, align 4, !llfi_index !834
  %54 = sext i32 %53 to i64, !llfi_index !835
  %55 = getelementptr inbounds [33 x %"class.std::vector"], [33 x %"class.std::vector"]* @arr, i64 0, i64 %54, !llfi_index !836
  %56 = call i32* @_ZNSt6vectorIiSaIiEE3endEv(%"class.std::vector"* nonnull align 8 dereferenceable(24) %55) #2, !llfi_index !837
  %57 = getelementptr inbounds %"class.__gnu_cxx::__normal_iterator", %"class.__gnu_cxx::__normal_iterator"* %7, i32 0, i32 0, !llfi_index !838
  store i32* %56, i32** %57, align 8, !llfi_index !839
  %58 = getelementptr inbounds %"class.__gnu_cxx::__normal_iterator", %"class.__gnu_cxx::__normal_iterator"* %6, i32 0, i32 0, !llfi_index !840
  %59 = load i32*, i32** %58, align 8, !llfi_index !841
  %60 = getelementptr inbounds %"class.__gnu_cxx::__normal_iterator", %"class.__gnu_cxx::__normal_iterator"* %7, i32 0, i32 0, !llfi_index !842
  %61 = load i32*, i32** %60, align 8, !llfi_index !843
  call void @_ZSt4sortIN9__gnu_cxx17__normal_iteratorIPiSt6vectorIiSaIiEEEEEvT_S7_(i32* %59, i32* %61), !llfi_index !844
  br label %62, !llfi_index !845

62:                                               ; preds = %46
  %63 = load i32, i32* %5, align 4, !llfi_index !846
  %64 = add nsw i32 %63, 1, !llfi_index !847
  store i32 %64, i32* %5, align 4, !llfi_index !848
  br label %43, !llvm.loop !849, !llfi_index !850

65:                                               ; preds = %43
  %66 = call nonnull align 8 dereferenceable(16) %"class.std::basic_istream"* @_ZNSirsERi(%"class.std::basic_istream"* nonnull align 8 dereferenceable(16) @_ZSt3cin, i32* nonnull align 4 dereferenceable(4) %8), !llfi_index !851
  store i32 89, i32* %4, align 4, !llfi_index !852
  br label %67, !llfi_index !853

67:                                               ; preds = %110, %65
  %68 = load i32, i32* %8, align 4, !llfi_index !854
  %69 = add nsw i32 %68, -1, !llfi_index !855
  store i32 %69, i32* %8, align 4, !llfi_index !856
  %70 = icmp ne i32 %68, 0, !llfi_index !857
  br i1 %70, label %71, label %111, !llfi_index !858

71:                                               ; preds = %67
  %72 = call nonnull align 8 dereferenceable(16) %"class.std::basic_istream"* @_ZNSirsERi(%"class.std::basic_istream"* nonnull align 8 dereferenceable(16) @_ZSt3cin, i32* nonnull align 4 dereferenceable(4) %9), !llfi_index !859
  store i32 0, i32* %10, align 4, !llfi_index !860
  store i32 0, i32* %11, align 4, !llfi_index !861
  br label %73, !llfi_index !862

73:                                               ; preds = %84, %71
  %74 = load i32, i32* %11, align 4, !llfi_index !863
  %75 = load i32, i32* %9, align 4, !llfi_index !864
  %76 = icmp slt i32 %74, %75, !llfi_index !865
  br i1 %76, label %77, label %87, !llfi_index !866

77:                                               ; preds = %73
  %78 = call nonnull align 8 dereferenceable(16) %"class.std::basic_istream"* @_ZNSirsERi(%"class.std::basic_istream"* nonnull align 8 dereferenceable(16) @_ZSt3cin, i32* nonnull align 4 dereferenceable(4) %12), !llfi_index !867
  %79 = load i32, i32* %12, align 4, !llfi_index !868
  %80 = sub nsw i32 %79, 1, !llfi_index !869
  %81 = shl i32 1, %80, !llfi_index !870
  %82 = load i32, i32* %10, align 4, !llfi_index !871
  %83 = add nsw i32 %82, %81, !llfi_index !872
  store i32 %83, i32* %10, align 4, !llfi_index !873
  br label %84, !llfi_index !874

84:                                               ; preds = %77
  %85 = load i32, i32* %11, align 4, !llfi_index !875
  %86 = add nsw i32 %85, 1, !llfi_index !876
  store i32 %86, i32* %11, align 4, !llfi_index !877
  br label %73, !llvm.loop !878, !llfi_index !879

87:                                               ; preds = %73
  %88 = call nonnull align 8 dereferenceable(16) %"class.std::basic_istream"* @_ZNSirsERi(%"class.std::basic_istream"* nonnull align 8 dereferenceable(16) @_ZSt3cin, i32* nonnull align 4 dereferenceable(4) %13), !llfi_index !880
  %89 = load i32, i32* %10, align 4, !llfi_index !881
  %90 = sext i32 %89 to i64, !llfi_index !882
  %91 = getelementptr inbounds [33 x %"class.std::vector"], [33 x %"class.std::vector"]* @arr, i64 0, i64 %90, !llfi_index !883
  %92 = call i64 @_ZNKSt6vectorIiSaIiEE4sizeEv(%"class.std::vector"* nonnull align 8 dereferenceable(24) %91) #2, !llfi_index !884
  %93 = load i32, i32* %13, align 4, !llfi_index !885
  %94 = sext i32 %93 to i64, !llfi_index !886
  %95 = icmp ult i64 %92, %94, !llfi_index !887
  br i1 %95, label %96, label %99, !llfi_index !888

96:                                               ; preds = %87
  %97 = call nonnull align 8 dereferenceable(8) %"class.std::basic_ostream"* @_ZNSolsEi(%"class.std::basic_ostream"* nonnull align 8 dereferenceable(8) @_ZSt4cout, i32 -1), !llfi_index !889
  %98 = call nonnull align 8 dereferenceable(8) %"class.std::basic_ostream"* @_ZNSolsEPFRSoS_E(%"class.std::basic_ostream"* nonnull align 8 dereferenceable(8) %97, %"class.std::basic_ostream"* (%"class.std::basic_ostream"*)* @_ZSt4endlIcSt11char_traitsIcEERSt13basic_ostreamIT_T0_ES6_), !llfi_index !890
  br label %110, !llfi_index !891

99:                                               ; preds = %87
  %100 = load i32, i32* %10, align 4, !llfi_index !892
  %101 = sext i32 %100 to i64, !llfi_index !893
  %102 = getelementptr inbounds [33 x %"class.std::vector"], [33 x %"class.std::vector"]* @arr, i64 0, i64 %101, !llfi_index !894
  %103 = load i32, i32* %13, align 4, !llfi_index !895
  %104 = sub nsw i32 %103, 1, !llfi_index !896
  %105 = sext i32 %104 to i64, !llfi_index !897
  %106 = call nonnull align 4 dereferenceable(4) i32* @_ZNSt6vectorIiSaIiEEixEm(%"class.std::vector"* nonnull align 8 dereferenceable(24) %102, i64 %105) #2, !llfi_index !898
  %107 = load i32, i32* %106, align 4, !llfi_index !899
  %108 = call nonnull align 8 dereferenceable(8) %"class.std::basic_ostream"* @_ZNSolsEi(%"class.std::basic_ostream"* nonnull align 8 dereferenceable(8) @_ZSt4cout, i32 %107), !llfi_index !900
  %109 = call nonnull align 8 dereferenceable(8) %"class.std::basic_ostream"* @_ZNSolsEPFRSoS_E(%"class.std::basic_ostream"* nonnull align 8 dereferenceable(8) %108, %"class.std::basic_ostream"* (%"class.std::basic_ostream"*)* @_ZSt4endlIcSt11char_traitsIcEERSt13basic_ostreamIT_T0_ES6_), !llfi_index !901
  br label %110, !llfi_index !902

110:                                              ; preds = %99, %96
  br label %67, !llvm.loop !903, !llfi_index !904

111:                                              ; preds = %67
  ret i32 0, !llfi_index !905
}

declare dso_local %struct._IO_FILE* @freopen(i8*, i8*, %struct._IO_FILE*) #7

declare dso_local nonnull align 8 dereferenceable(16) %"class.std::basic_istream"* @_ZNSirsERi(%"class.std::basic_istream"* nonnull align 8 dereferenceable(16), i32* nonnull align 4 dereferenceable(4)) #7

; Function Attrs: mustprogress noinline uwtable
define linkonce_odr dso_local void @_ZSt4sortIN9__gnu_cxx17__normal_iteratorIPiSt6vectorIiSaIiEEEEEvT_S7_(i32* %0, i32* %1) #4 comdat {
  %3 = alloca %"class.__gnu_cxx::__normal_iterator", align 8, !llfi_index !906
  %4 = alloca %"class.__gnu_cxx::__normal_iterator", align 8, !llfi_index !907
  %5 = alloca %"class.__gnu_cxx::__normal_iterator", align 8, !llfi_index !908
  %6 = alloca %"class.__gnu_cxx::__normal_iterator", align 8, !llfi_index !909
  %7 = alloca %"class.std::allocator", align 1, !llfi_index !910
  %8 = alloca %"class.std::allocator", align 1, !llfi_index !911
  %9 = getelementptr inbounds %"class.__gnu_cxx::__normal_iterator", %"class.__gnu_cxx::__normal_iterator"* %3, i32 0, i32 0, !llfi_index !912
  store i32* %0, i32** %9, align 8, !llfi_index !913
  %10 = getelementptr inbounds %"class.__gnu_cxx::__normal_iterator", %"class.__gnu_cxx::__normal_iterator"* %4, i32 0, i32 0, !llfi_index !914
  store i32* %1, i32** %10, align 8, !llfi_index !915
  %11 = bitcast %"class.__gnu_cxx::__normal_iterator"* %5 to i8*, !llfi_index !916
  %12 = bitcast %"class.__gnu_cxx::__normal_iterator"* %3 to i8*, !llfi_index !917
  call void @llvm.memcpy.p0i8.p0i8.i64(i8* align 8 %11, i8* align 8 %12, i64 8, i1 false), !llfi_index !918
  %13 = bitcast %"class.__gnu_cxx::__normal_iterator"* %6 to i8*, !llfi_index !919
  %14 = bitcast %"class.__gnu_cxx::__normal_iterator"* %4 to i8*, !llfi_index !920
  call void @llvm.memcpy.p0i8.p0i8.i64(i8* align 8 %13, i8* align 8 %14, i64 8, i1 false), !llfi_index !921
  call void @_ZN9__gnu_cxx5__ops16__iter_less_iterEv(), !llfi_index !922
  %15 = getelementptr inbounds %"class.__gnu_cxx::__normal_iterator", %"class.__gnu_cxx::__normal_iterator"* %5, i32 0, i32 0, !llfi_index !923
  %16 = load i32*, i32** %15, align 8, !llfi_index !924
  %17 = getelementptr inbounds %"class.__gnu_cxx::__normal_iterator", %"class.__gnu_cxx::__normal_iterator"* %6, i32 0, i32 0, !llfi_index !925
  %18 = load i32*, i32** %17, align 8, !llfi_index !926
  call void @_ZSt6__sortIN9__gnu_cxx17__normal_iteratorIPiSt6vectorIiSaIiEEEENS0_5__ops15_Iter_less_iterEEvT_S9_T0_(i32* %16, i32* %18), !llfi_index !927
  ret void, !llfi_index !928
}

declare dso_local nonnull align 8 dereferenceable(8) %"class.std::basic_ostream"* @_ZNSolsEi(%"class.std::basic_ostream"* nonnull align 8 dereferenceable(8), i32) #7

declare dso_local nonnull align 8 dereferenceable(8) %"class.std::basic_ostream"* @_ZSt4endlIcSt11char_traitsIcEERSt13basic_ostreamIT_T0_ES6_(%"class.std::basic_ostream"* nonnull align 8 dereferenceable(8)) #7

declare dso_local nonnull align 8 dereferenceable(8) %"class.std::basic_ostream"* @_ZNSolsEPFRSoS_E(%"class.std::basic_ostream"* nonnull align 8 dereferenceable(8), %"class.std::basic_ostream"* (%"class.std::basic_ostream"*)*) #7

; Function Attrs: mustprogress noinline nounwind uwtable
define linkonce_odr dso_local nonnull align 4 dereferenceable(4) i32* @_ZNSt6vectorIiSaIiEEixEm(%"class.std::vector"* nonnull align 8 dereferenceable(24) %0, i64 %1) #3 comdat align 2 {
  %3 = alloca %"class.std::vector"*, align 8, !llfi_index !929
  %4 = alloca i64, align 8, !llfi_index !930
  store %"class.std::vector"* %0, %"class.std::vector"** %3, align 8, !llfi_index !931
  store i64 %1, i64* %4, align 8, !llfi_index !932
  %5 = load %"class.std::vector"*, %"class.std::vector"** %3, align 8, !llfi_index !933
  %6 = bitcast %"class.std::vector"* %5 to %"struct.std::_Vector_base"*, !llfi_index !934
  %7 = getelementptr inbounds %"struct.std::_Vector_base", %"struct.std::_Vector_base"* %6, i32 0, i32 0, !llfi_index !935
  %8 = bitcast %"struct.std::_Vector_base<int, std::allocator<int>>::_Vector_impl"* %7 to %"struct.std::_Vector_base<int, std::allocator<int>>::_Vector_impl_data"*, !llfi_index !936
  %9 = getelementptr inbounds %"struct.std::_Vector_base<int, std::allocator<int>>::_Vector_impl_data", %"struct.std::_Vector_base<int, std::allocator<int>>::_Vector_impl_data"* %8, i32 0, i32 0, !llfi_index !937
  %10 = load i32*, i32** %9, align 8, !llfi_index !938
  %11 = load i64, i64* %4, align 8, !llfi_index !939
  %12 = getelementptr inbounds i32, i32* %10, i64 %11, !llfi_index !940
  ret i32* %12, !llfi_index !941
}

; Function Attrs: argmemonly nofree nounwind willreturn
declare void @llvm.memcpy.p0i8.p0i8.i64(i8* noalias nocapture writeonly, i8* noalias nocapture readonly, i64, i1 immarg) #9

; Function Attrs: mustprogress noinline nounwind uwtable
define linkonce_odr dso_local void @_ZN9__gnu_cxx5__ops16__iter_less_iterEv() #3 comdat {
  ret void, !llfi_index !942
}

; Function Attrs: mustprogress noinline uwtable
define linkonce_odr dso_local void @_ZSt6__sortIN9__gnu_cxx17__normal_iteratorIPiSt6vectorIiSaIiEEEENS0_5__ops15_Iter_less_iterEEvT_S9_T0_(i32* %0, i32* %1) #4 comdat {
  %3 = alloca %"class.__gnu_cxx::__normal_iterator", align 8, !llfi_index !943
  %4 = alloca %"class.__gnu_cxx::__normal_iterator", align 8, !llfi_index !944
  %5 = alloca %"class.std::allocator", align 1, !llfi_index !945
  %6 = alloca %"class.__gnu_cxx::__normal_iterator", align 8, !llfi_index !946
  %7 = alloca %"class.__gnu_cxx::__normal_iterator", align 8, !llfi_index !947
  %8 = alloca %"class.std::allocator", align 1, !llfi_index !948
  %9 = alloca %"class.__gnu_cxx::__normal_iterator", align 8, !llfi_index !949
  %10 = alloca %"class.__gnu_cxx::__normal_iterator", align 8, !llfi_index !950
  %11 = alloca %"class.std::allocator", align 1, !llfi_index !951
  %12 = getelementptr inbounds %"class.__gnu_cxx::__normal_iterator", %"class.__gnu_cxx::__normal_iterator"* %3, i32 0, i32 0, !llfi_index !952
  store i32* %0, i32** %12, align 8, !llfi_index !953
  %13 = getelementptr inbounds %"class.__gnu_cxx::__normal_iterator", %"class.__gnu_cxx::__normal_iterator"* %4, i32 0, i32 0, !llfi_index !954
  store i32* %1, i32** %13, align 8, !llfi_index !955
  %14 = call zeroext i1 @_ZN9__gnu_cxxneIPiSt6vectorIiSaIiEEEEbRKNS_17__normal_iteratorIT_T0_EESA_(%"class.__gnu_cxx::__normal_iterator"* nonnull align 8 dereferenceable(8) %3, %"class.__gnu_cxx::__normal_iterator"* nonnull align 8 dereferenceable(8) %4) #2, !llfi_index !956
  br i1 %14, label %15, label %35, !llfi_index !957

15:                                               ; preds = %2
  %16 = bitcast %"class.__gnu_cxx::__normal_iterator"* %6 to i8*, !llfi_index !958
  %17 = bitcast %"class.__gnu_cxx::__normal_iterator"* %3 to i8*, !llfi_index !959
  call void @llvm.memcpy.p0i8.p0i8.i64(i8* align 8 %16, i8* align 8 %17, i64 8, i1 false), !llfi_index !960
  %18 = bitcast %"class.__gnu_cxx::__normal_iterator"* %7 to i8*, !llfi_index !961
  %19 = bitcast %"class.__gnu_cxx::__normal_iterator"* %4 to i8*, !llfi_index !962
  call void @llvm.memcpy.p0i8.p0i8.i64(i8* align 8 %18, i8* align 8 %19, i64 8, i1 false), !llfi_index !963
  %20 = call i64 @_ZN9__gnu_cxxmiIPiSt6vectorIiSaIiEEEENS_17__normal_iteratorIT_T0_E15difference_typeERKS8_SB_(%"class.__gnu_cxx::__normal_iterator"* nonnull align 8 dereferenceable(8) %4, %"class.__gnu_cxx::__normal_iterator"* nonnull align 8 dereferenceable(8) %3) #2, !llfi_index !964
  %21 = call i64 @_ZSt4__lgl(i64 %20), !llfi_index !965
  %22 = mul nsw i64 %21, 2, !llfi_index !966
  %23 = getelementptr inbounds %"class.__gnu_cxx::__normal_iterator", %"class.__gnu_cxx::__normal_iterator"* %6, i32 0, i32 0, !llfi_index !967
  %24 = load i32*, i32** %23, align 8, !llfi_index !968
  %25 = getelementptr inbounds %"class.__gnu_cxx::__normal_iterator", %"class.__gnu_cxx::__normal_iterator"* %7, i32 0, i32 0, !llfi_index !969
  %26 = load i32*, i32** %25, align 8, !llfi_index !970
  call void @_ZSt16__introsort_loopIN9__gnu_cxx17__normal_iteratorIPiSt6vectorIiSaIiEEEElNS0_5__ops15_Iter_less_iterEEvT_S9_T0_T1_(i32* %24, i32* %26, i64 %22), !llfi_index !971
  %27 = bitcast %"class.__gnu_cxx::__normal_iterator"* %9 to i8*, !llfi_index !972
  %28 = bitcast %"class.__gnu_cxx::__normal_iterator"* %3 to i8*, !llfi_index !973
  call void @llvm.memcpy.p0i8.p0i8.i64(i8* align 8 %27, i8* align 8 %28, i64 8, i1 false), !llfi_index !974
  %29 = bitcast %"class.__gnu_cxx::__normal_iterator"* %10 to i8*, !llfi_index !975
  %30 = bitcast %"class.__gnu_cxx::__normal_iterator"* %4 to i8*, !llfi_index !976
  call void @llvm.memcpy.p0i8.p0i8.i64(i8* align 8 %29, i8* align 8 %30, i64 8, i1 false), !llfi_index !977
  %31 = getelementptr inbounds %"class.__gnu_cxx::__normal_iterator", %"class.__gnu_cxx::__normal_iterator"* %9, i32 0, i32 0, !llfi_index !978
  %32 = load i32*, i32** %31, align 8, !llfi_index !979
  %33 = getelementptr inbounds %"class.__gnu_cxx::__normal_iterator", %"class.__gnu_cxx::__normal_iterator"* %10, i32 0, i32 0, !llfi_index !980
  %34 = load i32*, i32** %33, align 8, !llfi_index !981
  call void @_ZSt22__final_insertion_sortIN9__gnu_cxx17__normal_iteratorIPiSt6vectorIiSaIiEEEENS0_5__ops15_Iter_less_iterEEvT_S9_T0_(i32* %32, i32* %34), !llfi_index !982
  br label %35, !llfi_index !983

35:                                               ; preds = %15, %2
  ret void, !llfi_index !984
}

; Function Attrs: mustprogress noinline nounwind uwtable
define linkonce_odr dso_local zeroext i1 @_ZN9__gnu_cxxneIPiSt6vectorIiSaIiEEEEbRKNS_17__normal_iteratorIT_T0_EESA_(%"class.__gnu_cxx::__normal_iterator"* nonnull align 8 dereferenceable(8) %0, %"class.__gnu_cxx::__normal_iterator"* nonnull align 8 dereferenceable(8) %1) #3 comdat {
  %3 = alloca %"class.__gnu_cxx::__normal_iterator"*, align 8, !llfi_index !985
  %4 = alloca %"class.__gnu_cxx::__normal_iterator"*, align 8, !llfi_index !986
  store %"class.__gnu_cxx::__normal_iterator"* %0, %"class.__gnu_cxx::__normal_iterator"** %3, align 8, !llfi_index !987
  store %"class.__gnu_cxx::__normal_iterator"* %1, %"class.__gnu_cxx::__normal_iterator"** %4, align 8, !llfi_index !988
  %5 = load %"class.__gnu_cxx::__normal_iterator"*, %"class.__gnu_cxx::__normal_iterator"** %3, align 8, !llfi_index !989
  %6 = call nonnull align 8 dereferenceable(8) i32** @_ZNK9__gnu_cxx17__normal_iteratorIPiSt6vectorIiSaIiEEE4baseEv(%"class.__gnu_cxx::__normal_iterator"* nonnull align 8 dereferenceable(8) %5) #2, !llfi_index !990
  %7 = load i32*, i32** %6, align 8, !llfi_index !991
  %8 = load %"class.__gnu_cxx::__normal_iterator"*, %"class.__gnu_cxx::__normal_iterator"** %4, align 8, !llfi_index !992
  %9 = call nonnull align 8 dereferenceable(8) i32** @_ZNK9__gnu_cxx17__normal_iteratorIPiSt6vectorIiSaIiEEE4baseEv(%"class.__gnu_cxx::__normal_iterator"* nonnull align 8 dereferenceable(8) %8) #2, !llfi_index !993
  %10 = load i32*, i32** %9, align 8, !llfi_index !994
  %11 = icmp ne i32* %7, %10, !llfi_index !995
  ret i1 %11, !llfi_index !996
}

; Function Attrs: mustprogress noinline nounwind uwtable
define linkonce_odr dso_local i64 @_ZSt4__lgl(i64 %0) #3 comdat {
  %2 = alloca i64, align 8, !llfi_index !997
  store i64 %0, i64* %2, align 8, !llfi_index !998
  %3 = load i64, i64* %2, align 8, !llfi_index !999
  %4 = call i64 @llvm.ctlz.i64(i64 %3, i1 true), !llfi_index !1000
  %5 = trunc i64 %4 to i32, !llfi_index !1001
  %6 = sub nsw i32 63, %5, !llfi_index !1002
  %7 = sext i32 %6 to i64, !llfi_index !1003
  ret i64 %7, !llfi_index !1004
}

; Function Attrs: mustprogress noinline uwtable
define linkonce_odr dso_local void @_ZSt16__introsort_loopIN9__gnu_cxx17__normal_iteratorIPiSt6vectorIiSaIiEEEElNS0_5__ops15_Iter_less_iterEEvT_S9_T0_T1_(i32* %0, i32* %1, i64 %2) #4 comdat {
  %4 = alloca %"class.__gnu_cxx::__normal_iterator", align 8, !llfi_index !1005
  %5 = alloca %"class.__gnu_cxx::__normal_iterator", align 8, !llfi_index !1006
  %6 = alloca %"class.std::allocator", align 1, !llfi_index !1007
  %7 = alloca i64, align 8, !llfi_index !1008
  %8 = alloca %"class.__gnu_cxx::__normal_iterator", align 8, !llfi_index !1009
  %9 = alloca %"class.__gnu_cxx::__normal_iterator", align 8, !llfi_index !1010
  %10 = alloca %"class.__gnu_cxx::__normal_iterator", align 8, !llfi_index !1011
  %11 = alloca %"class.std::allocator", align 1, !llfi_index !1012
  %12 = alloca %"class.__gnu_cxx::__normal_iterator", align 8, !llfi_index !1013
  %13 = alloca %"class.__gnu_cxx::__normal_iterator", align 8, !llfi_index !1014
  %14 = alloca %"class.__gnu_cxx::__normal_iterator", align 8, !llfi_index !1015
  %15 = alloca %"class.std::allocator", align 1, !llfi_index !1016
  %16 = alloca %"class.__gnu_cxx::__normal_iterator", align 8, !llfi_index !1017
  %17 = alloca %"class.__gnu_cxx::__normal_iterator", align 8, !llfi_index !1018
  %18 = alloca %"class.std::allocator", align 1, !llfi_index !1019
  %19 = getelementptr inbounds %"class.__gnu_cxx::__normal_iterator", %"class.__gnu_cxx::__normal_iterator"* %4, i32 0, i32 0, !llfi_index !1020
  store i32* %0, i32** %19, align 8, !llfi_index !1021
  %20 = getelementptr inbounds %"class.__gnu_cxx::__normal_iterator", %"class.__gnu_cxx::__normal_iterator"* %5, i32 0, i32 0, !llfi_index !1022
  store i32* %1, i32** %20, align 8, !llfi_index !1023
  store i64 %2, i64* %7, align 8, !llfi_index !1024
  br label %21, !llfi_index !1025

21:                                               ; preds = %40, %3
  %22 = call i64 @_ZN9__gnu_cxxmiIPiSt6vectorIiSaIiEEEENS_17__normal_iteratorIT_T0_E15difference_typeERKS8_SB_(%"class.__gnu_cxx::__normal_iterator"* nonnull align 8 dereferenceable(8) %5, %"class.__gnu_cxx::__normal_iterator"* nonnull align 8 dereferenceable(8) %4) #2, !llfi_index !1026
  %23 = icmp sgt i64 %22, 16, !llfi_index !1027
  br i1 %23, label %24, label %64, !llfi_index !1028

24:                                               ; preds = %21
  %25 = load i64, i64* %7, align 8, !llfi_index !1029
  %26 = icmp eq i64 %25, 0, !llfi_index !1030
  br i1 %26, label %27, label %40, !llfi_index !1031

27:                                               ; preds = %24
  %28 = bitcast %"class.__gnu_cxx::__normal_iterator"* %8 to i8*, !llfi_index !1032
  %29 = bitcast %"class.__gnu_cxx::__normal_iterator"* %4 to i8*, !llfi_index !1033
  call void @llvm.memcpy.p0i8.p0i8.i64(i8* align 8 %28, i8* align 8 %29, i64 8, i1 false), !llfi_index !1034
  %30 = bitcast %"class.__gnu_cxx::__normal_iterator"* %9 to i8*, !llfi_index !1035
  %31 = bitcast %"class.__gnu_cxx::__normal_iterator"* %5 to i8*, !llfi_index !1036
  call void @llvm.memcpy.p0i8.p0i8.i64(i8* align 8 %30, i8* align 8 %31, i64 8, i1 false), !llfi_index !1037
  %32 = bitcast %"class.__gnu_cxx::__normal_iterator"* %10 to i8*, !llfi_index !1038
  %33 = bitcast %"class.__gnu_cxx::__normal_iterator"* %5 to i8*, !llfi_index !1039
  call void @llvm.memcpy.p0i8.p0i8.i64(i8* align 8 %32, i8* align 8 %33, i64 8, i1 false), !llfi_index !1040
  %34 = getelementptr inbounds %"class.__gnu_cxx::__normal_iterator", %"class.__gnu_cxx::__normal_iterator"* %8, i32 0, i32 0, !llfi_index !1041
  %35 = load i32*, i32** %34, align 8, !llfi_index !1042
  %36 = getelementptr inbounds %"class.__gnu_cxx::__normal_iterator", %"class.__gnu_cxx::__normal_iterator"* %9, i32 0, i32 0, !llfi_index !1043
  %37 = load i32*, i32** %36, align 8, !llfi_index !1044
  %38 = getelementptr inbounds %"class.__gnu_cxx::__normal_iterator", %"class.__gnu_cxx::__normal_iterator"* %10, i32 0, i32 0, !llfi_index !1045
  %39 = load i32*, i32** %38, align 8, !llfi_index !1046
  call void @_ZSt14__partial_sortIN9__gnu_cxx17__normal_iteratorIPiSt6vectorIiSaIiEEEENS0_5__ops15_Iter_less_iterEEvT_S9_S9_T0_(i32* %35, i32* %37, i32* %39), !llfi_index !1047
  br label %64, !llfi_index !1048

40:                                               ; preds = %24
  %41 = load i64, i64* %7, align 8, !llfi_index !1049
  %42 = add nsw i64 %41, -1, !llfi_index !1050
  store i64 %42, i64* %7, align 8, !llfi_index !1051
  %43 = bitcast %"class.__gnu_cxx::__normal_iterator"* %13 to i8*, !llfi_index !1052
  %44 = bitcast %"class.__gnu_cxx::__normal_iterator"* %4 to i8*, !llfi_index !1053
  call void @llvm.memcpy.p0i8.p0i8.i64(i8* align 8 %43, i8* align 8 %44, i64 8, i1 false), !llfi_index !1054
  %45 = bitcast %"class.__gnu_cxx::__normal_iterator"* %14 to i8*, !llfi_index !1055
  %46 = bitcast %"class.__gnu_cxx::__normal_iterator"* %5 to i8*, !llfi_index !1056
  call void @llvm.memcpy.p0i8.p0i8.i64(i8* align 8 %45, i8* align 8 %46, i64 8, i1 false), !llfi_index !1057
  %47 = getelementptr inbounds %"class.__gnu_cxx::__normal_iterator", %"class.__gnu_cxx::__normal_iterator"* %13, i32 0, i32 0, !llfi_index !1058
  %48 = load i32*, i32** %47, align 8, !llfi_index !1059
  %49 = getelementptr inbounds %"class.__gnu_cxx::__normal_iterator", %"class.__gnu_cxx::__normal_iterator"* %14, i32 0, i32 0, !llfi_index !1060
  %50 = load i32*, i32** %49, align 8, !llfi_index !1061
  %51 = call i32* @_ZSt27__unguarded_partition_pivotIN9__gnu_cxx17__normal_iteratorIPiSt6vectorIiSaIiEEEENS0_5__ops15_Iter_less_iterEET_S9_S9_T0_(i32* %48, i32* %50), !llfi_index !1062
  %52 = getelementptr inbounds %"class.__gnu_cxx::__normal_iterator", %"class.__gnu_cxx::__normal_iterator"* %12, i32 0, i32 0, !llfi_index !1063
  store i32* %51, i32** %52, align 8, !llfi_index !1064
  %53 = bitcast %"class.__gnu_cxx::__normal_iterator"* %16 to i8*, !llfi_index !1065
  %54 = bitcast %"class.__gnu_cxx::__normal_iterator"* %12 to i8*, !llfi_index !1066
  call void @llvm.memcpy.p0i8.p0i8.i64(i8* align 8 %53, i8* align 8 %54, i64 8, i1 false), !llfi_index !1067
  %55 = bitcast %"class.__gnu_cxx::__normal_iterator"* %17 to i8*, !llfi_index !1068
  %56 = bitcast %"class.__gnu_cxx::__normal_iterator"* %5 to i8*, !llfi_index !1069
  call void @llvm.memcpy.p0i8.p0i8.i64(i8* align 8 %55, i8* align 8 %56, i64 8, i1 false), !llfi_index !1070
  %57 = load i64, i64* %7, align 8, !llfi_index !1071
  %58 = getelementptr inbounds %"class.__gnu_cxx::__normal_iterator", %"class.__gnu_cxx::__normal_iterator"* %16, i32 0, i32 0, !llfi_index !1072
  %59 = load i32*, i32** %58, align 8, !llfi_index !1073
  %60 = getelementptr inbounds %"class.__gnu_cxx::__normal_iterator", %"class.__gnu_cxx::__normal_iterator"* %17, i32 0, i32 0, !llfi_index !1074
  %61 = load i32*, i32** %60, align 8, !llfi_index !1075
  call void @_ZSt16__introsort_loopIN9__gnu_cxx17__normal_iteratorIPiSt6vectorIiSaIiEEEElNS0_5__ops15_Iter_less_iterEEvT_S9_T0_T1_(i32* %59, i32* %61, i64 %57), !llfi_index !1076
  %62 = bitcast %"class.__gnu_cxx::__normal_iterator"* %5 to i8*, !llfi_index !1077
  %63 = bitcast %"class.__gnu_cxx::__normal_iterator"* %12 to i8*, !llfi_index !1078
  call void @llvm.memcpy.p0i8.p0i8.i64(i8* align 8 %62, i8* align 8 %63, i64 8, i1 false), !llfi_index !1079
  br label %21, !llvm.loop !1080, !llfi_index !1081

64:                                               ; preds = %27, %21
  ret void, !llfi_index !1082
}

; Function Attrs: mustprogress noinline uwtable
define linkonce_odr dso_local void @_ZSt22__final_insertion_sortIN9__gnu_cxx17__normal_iteratorIPiSt6vectorIiSaIiEEEENS0_5__ops15_Iter_less_iterEEvT_S9_T0_(i32* %0, i32* %1) #4 comdat {
  %3 = alloca %"class.__gnu_cxx::__normal_iterator", align 8, !llfi_index !1083
  %4 = alloca %"class.__gnu_cxx::__normal_iterator", align 8, !llfi_index !1084
  %5 = alloca %"class.std::allocator", align 1, !llfi_index !1085
  %6 = alloca %"class.__gnu_cxx::__normal_iterator", align 8, !llfi_index !1086
  %7 = alloca %"class.__gnu_cxx::__normal_iterator", align 8, !llfi_index !1087
  %8 = alloca %"class.std::allocator", align 1, !llfi_index !1088
  %9 = alloca %"class.__gnu_cxx::__normal_iterator", align 8, !llfi_index !1089
  %10 = alloca %"class.__gnu_cxx::__normal_iterator", align 8, !llfi_index !1090
  %11 = alloca %"class.std::allocator", align 1, !llfi_index !1091
  %12 = alloca %"class.__gnu_cxx::__normal_iterator", align 8, !llfi_index !1092
  %13 = alloca %"class.__gnu_cxx::__normal_iterator", align 8, !llfi_index !1093
  %14 = alloca %"class.std::allocator", align 1, !llfi_index !1094
  %15 = getelementptr inbounds %"class.__gnu_cxx::__normal_iterator", %"class.__gnu_cxx::__normal_iterator"* %3, i32 0, i32 0, !llfi_index !1095
  store i32* %0, i32** %15, align 8, !llfi_index !1096
  %16 = getelementptr inbounds %"class.__gnu_cxx::__normal_iterator", %"class.__gnu_cxx::__normal_iterator"* %4, i32 0, i32 0, !llfi_index !1097
  store i32* %1, i32** %16, align 8, !llfi_index !1098
  %17 = call i64 @_ZN9__gnu_cxxmiIPiSt6vectorIiSaIiEEEENS_17__normal_iteratorIT_T0_E15difference_typeERKS8_SB_(%"class.__gnu_cxx::__normal_iterator"* nonnull align 8 dereferenceable(8) %4, %"class.__gnu_cxx::__normal_iterator"* nonnull align 8 dereferenceable(8) %3) #2, !llfi_index !1099
  %18 = icmp sgt i64 %17, 16, !llfi_index !1100
  br i1 %18, label %19, label %36, !llfi_index !1101

19:                                               ; preds = %2
  %20 = bitcast %"class.__gnu_cxx::__normal_iterator"* %6 to i8*, !llfi_index !1102
  %21 = bitcast %"class.__gnu_cxx::__normal_iterator"* %3 to i8*, !llfi_index !1103
  call void @llvm.memcpy.p0i8.p0i8.i64(i8* align 8 %20, i8* align 8 %21, i64 8, i1 false), !llfi_index !1104
  %22 = call i32* @_ZNK9__gnu_cxx17__normal_iteratorIPiSt6vectorIiSaIiEEEplEl(%"class.__gnu_cxx::__normal_iterator"* nonnull align 8 dereferenceable(8) %3, i64 16) #2, !llfi_index !1105
  %23 = getelementptr inbounds %"class.__gnu_cxx::__normal_iterator", %"class.__gnu_cxx::__normal_iterator"* %7, i32 0, i32 0, !llfi_index !1106
  store i32* %22, i32** %23, align 8, !llfi_index !1107
  %24 = getelementptr inbounds %"class.__gnu_cxx::__normal_iterator", %"class.__gnu_cxx::__normal_iterator"* %6, i32 0, i32 0, !llfi_index !1108
  %25 = load i32*, i32** %24, align 8, !llfi_index !1109
  %26 = getelementptr inbounds %"class.__gnu_cxx::__normal_iterator", %"class.__gnu_cxx::__normal_iterator"* %7, i32 0, i32 0, !llfi_index !1110
  %27 = load i32*, i32** %26, align 8, !llfi_index !1111
  call void @_ZSt16__insertion_sortIN9__gnu_cxx17__normal_iteratorIPiSt6vectorIiSaIiEEEENS0_5__ops15_Iter_less_iterEEvT_S9_T0_(i32* %25, i32* %27), !llfi_index !1112
  %28 = call i32* @_ZNK9__gnu_cxx17__normal_iteratorIPiSt6vectorIiSaIiEEEplEl(%"class.__gnu_cxx::__normal_iterator"* nonnull align 8 dereferenceable(8) %3, i64 16) #2, !llfi_index !1113
  %29 = getelementptr inbounds %"class.__gnu_cxx::__normal_iterator", %"class.__gnu_cxx::__normal_iterator"* %9, i32 0, i32 0, !llfi_index !1114
  store i32* %28, i32** %29, align 8, !llfi_index !1115
  %30 = bitcast %"class.__gnu_cxx::__normal_iterator"* %10 to i8*, !llfi_index !1116
  %31 = bitcast %"class.__gnu_cxx::__normal_iterator"* %4 to i8*, !llfi_index !1117
  call void @llvm.memcpy.p0i8.p0i8.i64(i8* align 8 %30, i8* align 8 %31, i64 8, i1 false), !llfi_index !1118
  %32 = getelementptr inbounds %"class.__gnu_cxx::__normal_iterator", %"class.__gnu_cxx::__normal_iterator"* %9, i32 0, i32 0, !llfi_index !1119
  %33 = load i32*, i32** %32, align 8, !llfi_index !1120
  %34 = getelementptr inbounds %"class.__gnu_cxx::__normal_iterator", %"class.__gnu_cxx::__normal_iterator"* %10, i32 0, i32 0, !llfi_index !1121
  %35 = load i32*, i32** %34, align 8, !llfi_index !1122
  call void @_ZSt26__unguarded_insertion_sortIN9__gnu_cxx17__normal_iteratorIPiSt6vectorIiSaIiEEEENS0_5__ops15_Iter_less_iterEEvT_S9_T0_(i32* %33, i32* %35), !llfi_index !1123
  br label %45, !llfi_index !1124

36:                                               ; preds = %2
  %37 = bitcast %"class.__gnu_cxx::__normal_iterator"* %12 to i8*, !llfi_index !1125
  %38 = bitcast %"class.__gnu_cxx::__normal_iterator"* %3 to i8*, !llfi_index !1126
  call void @llvm.memcpy.p0i8.p0i8.i64(i8* align 8 %37, i8* align 8 %38, i64 8, i1 false), !llfi_index !1127
  %39 = bitcast %"class.__gnu_cxx::__normal_iterator"* %13 to i8*, !llfi_index !1128
  %40 = bitcast %"class.__gnu_cxx::__normal_iterator"* %4 to i8*, !llfi_index !1129
  call void @llvm.memcpy.p0i8.p0i8.i64(i8* align 8 %39, i8* align 8 %40, i64 8, i1 false), !llfi_index !1130
  %41 = getelementptr inbounds %"class.__gnu_cxx::__normal_iterator", %"class.__gnu_cxx::__normal_iterator"* %12, i32 0, i32 0, !llfi_index !1131
  %42 = load i32*, i32** %41, align 8, !llfi_index !1132
  %43 = getelementptr inbounds %"class.__gnu_cxx::__normal_iterator", %"class.__gnu_cxx::__normal_iterator"* %13, i32 0, i32 0, !llfi_index !1133
  %44 = load i32*, i32** %43, align 8, !llfi_index !1134
  call void @_ZSt16__insertion_sortIN9__gnu_cxx17__normal_iteratorIPiSt6vectorIiSaIiEEEENS0_5__ops15_Iter_less_iterEEvT_S9_T0_(i32* %42, i32* %44), !llfi_index !1135
  br label %45, !llfi_index !1136

45:                                               ; preds = %36, %19
  ret void, !llfi_index !1137
}

; Function Attrs: mustprogress noinline nounwind uwtable
define linkonce_odr dso_local i32* @_ZNK9__gnu_cxx17__normal_iteratorIPiSt6vectorIiSaIiEEEplEl(%"class.__gnu_cxx::__normal_iterator"* nonnull align 8 dereferenceable(8) %0, i64 %1) #3 comdat align 2 {
  %3 = alloca %"class.__gnu_cxx::__normal_iterator", align 8, !llfi_index !1138
  %4 = alloca %"class.__gnu_cxx::__normal_iterator"*, align 8, !llfi_index !1139
  %5 = alloca i64, align 8, !llfi_index !1140
  %6 = alloca i32*, align 8, !llfi_index !1141
  store %"class.__gnu_cxx::__normal_iterator"* %0, %"class.__gnu_cxx::__normal_iterator"** %4, align 8, !llfi_index !1142
  store i64 %1, i64* %5, align 8, !llfi_index !1143
  %7 = load %"class.__gnu_cxx::__normal_iterator"*, %"class.__gnu_cxx::__normal_iterator"** %4, align 8, !llfi_index !1144
  %8 = getelementptr inbounds %"class.__gnu_cxx::__normal_iterator", %"class.__gnu_cxx::__normal_iterator"* %7, i32 0, i32 0, !llfi_index !1145
  %9 = load i32*, i32** %8, align 8, !llfi_index !1146
  %10 = load i64, i64* %5, align 8, !llfi_index !1147
  %11 = getelementptr inbounds i32, i32* %9, i64 %10, !llfi_index !1148
  store i32* %11, i32** %6, align 8, !llfi_index !1149
  call void @_ZN9__gnu_cxx17__normal_iteratorIPiSt6vectorIiSaIiEEEC2ERKS1_(%"class.__gnu_cxx::__normal_iterator"* nonnull align 8 dereferenceable(8) %3, i32** nonnull align 8 dereferenceable(8) %6) #2, !llfi_index !1150
  %12 = getelementptr inbounds %"class.__gnu_cxx::__normal_iterator", %"class.__gnu_cxx::__normal_iterator"* %3, i32 0, i32 0, !llfi_index !1151
  %13 = load i32*, i32** %12, align 8, !llfi_index !1152
  ret i32* %13, !llfi_index !1153
}

; Function Attrs: mustprogress noinline uwtable
define linkonce_odr dso_local void @_ZSt16__insertion_sortIN9__gnu_cxx17__normal_iteratorIPiSt6vectorIiSaIiEEEENS0_5__ops15_Iter_less_iterEEvT_S9_T0_(i32* %0, i32* %1) #4 comdat {
  %3 = alloca %"class.__gnu_cxx::__normal_iterator", align 8, !llfi_index !1154
  %4 = alloca %"class.__gnu_cxx::__normal_iterator", align 8, !llfi_index !1155
  %5 = alloca %"class.std::allocator", align 1, !llfi_index !1156
  %6 = alloca %"class.__gnu_cxx::__normal_iterator", align 8, !llfi_index !1157
  %7 = alloca %"class.__gnu_cxx::__normal_iterator", align 8, !llfi_index !1158
  %8 = alloca %"class.__gnu_cxx::__normal_iterator", align 8, !llfi_index !1159
  %9 = alloca i32, align 4, !llfi_index !1160
  %10 = alloca %"class.__gnu_cxx::__normal_iterator", align 8, !llfi_index !1161
  %11 = alloca %"class.__gnu_cxx::__normal_iterator", align 8, !llfi_index !1162
  %12 = alloca %"class.__gnu_cxx::__normal_iterator", align 8, !llfi_index !1163
  %13 = alloca %"class.__gnu_cxx::__normal_iterator", align 8, !llfi_index !1164
  %14 = alloca %"class.__gnu_cxx::__normal_iterator", align 8, !llfi_index !1165
  %15 = alloca %"class.std::allocator", align 1, !llfi_index !1166
  %16 = alloca %"class.std::allocator", align 1, !llfi_index !1167
  %17 = alloca %"class.std::allocator", align 1, !llfi_index !1168
  %18 = getelementptr inbounds %"class.__gnu_cxx::__normal_iterator", %"class.__gnu_cxx::__normal_iterator"* %3, i32 0, i32 0, !llfi_index !1169
  store i32* %0, i32** %18, align 8, !llfi_index !1170
  %19 = getelementptr inbounds %"class.__gnu_cxx::__normal_iterator", %"class.__gnu_cxx::__normal_iterator"* %4, i32 0, i32 0, !llfi_index !1171
  store i32* %1, i32** %19, align 8, !llfi_index !1172
  %20 = call zeroext i1 @_ZN9__gnu_cxxeqIPiSt6vectorIiSaIiEEEEbRKNS_17__normal_iteratorIT_T0_EESA_(%"class.__gnu_cxx::__normal_iterator"* nonnull align 8 dereferenceable(8) %3, %"class.__gnu_cxx::__normal_iterator"* nonnull align 8 dereferenceable(8) %4) #2, !llfi_index !1173
  br i1 %20, label %21, label %22, !llfi_index !1174

21:                                               ; preds = %2
  br label %66, !llfi_index !1175

22:                                               ; preds = %2
  %23 = call i32* @_ZNK9__gnu_cxx17__normal_iteratorIPiSt6vectorIiSaIiEEEplEl(%"class.__gnu_cxx::__normal_iterator"* nonnull align 8 dereferenceable(8) %3, i64 1) #2, !llfi_index !1176
  %24 = getelementptr inbounds %"class.__gnu_cxx::__normal_iterator", %"class.__gnu_cxx::__normal_iterator"* %6, i32 0, i32 0, !llfi_index !1177
  store i32* %23, i32** %24, align 8, !llfi_index !1178
  br label %25, !llfi_index !1179

25:                                               ; preds = %64, %22
  %26 = call zeroext i1 @_ZN9__gnu_cxxneIPiSt6vectorIiSaIiEEEEbRKNS_17__normal_iteratorIT_T0_EESA_(%"class.__gnu_cxx::__normal_iterator"* nonnull align 8 dereferenceable(8) %6, %"class.__gnu_cxx::__normal_iterator"* nonnull align 8 dereferenceable(8) %4) #2, !llfi_index !1180
  br i1 %26, label %27, label %66, !llfi_index !1181

27:                                               ; preds = %25
  %28 = bitcast %"class.__gnu_cxx::__normal_iterator"* %7 to i8*, !llfi_index !1182
  %29 = bitcast %"class.__gnu_cxx::__normal_iterator"* %6 to i8*, !llfi_index !1183
  call void @llvm.memcpy.p0i8.p0i8.i64(i8* align 8 %28, i8* align 8 %29, i64 8, i1 false), !llfi_index !1184
  %30 = bitcast %"class.__gnu_cxx::__normal_iterator"* %8 to i8*, !llfi_index !1185
  %31 = bitcast %"class.__gnu_cxx::__normal_iterator"* %3 to i8*, !llfi_index !1186
  call void @llvm.memcpy.p0i8.p0i8.i64(i8* align 8 %30, i8* align 8 %31, i64 8, i1 false), !llfi_index !1187
  %32 = getelementptr inbounds %"class.__gnu_cxx::__normal_iterator", %"class.__gnu_cxx::__normal_iterator"* %7, i32 0, i32 0, !llfi_index !1188
  %33 = load i32*, i32** %32, align 8, !llfi_index !1189
  %34 = getelementptr inbounds %"class.__gnu_cxx::__normal_iterator", %"class.__gnu_cxx::__normal_iterator"* %8, i32 0, i32 0, !llfi_index !1190
  %35 = load i32*, i32** %34, align 8, !llfi_index !1191
  %36 = call zeroext i1 @_ZNK9__gnu_cxx5__ops15_Iter_less_iterclINS_17__normal_iteratorIPiSt6vectorIiSaIiEEEES8_EEbT_T0_(%"class.std::allocator"* nonnull align 1 dereferenceable(1) %5, i32* %33, i32* %35), !llfi_index !1192
  br i1 %36, label %37, label %58, !llfi_index !1193

37:                                               ; preds = %27
  %38 = call nonnull align 4 dereferenceable(4) i32* @_ZNK9__gnu_cxx17__normal_iteratorIPiSt6vectorIiSaIiEEEdeEv(%"class.__gnu_cxx::__normal_iterator"* nonnull align 8 dereferenceable(8) %6) #2, !llfi_index !1194
  %39 = call nonnull align 4 dereferenceable(4) i32* @_ZSt4moveIRiEONSt16remove_referenceIT_E4typeEOS2_(i32* nonnull align 4 dereferenceable(4) %38) #2, !llfi_index !1195
  %40 = load i32, i32* %39, align 4, !llfi_index !1196
  store i32 %40, i32* %9, align 4, !llfi_index !1197
  %41 = bitcast %"class.__gnu_cxx::__normal_iterator"* %10 to i8*, !llfi_index !1198
  %42 = bitcast %"class.__gnu_cxx::__normal_iterator"* %3 to i8*, !llfi_index !1199
  call void @llvm.memcpy.p0i8.p0i8.i64(i8* align 8 %41, i8* align 8 %42, i64 8, i1 false), !llfi_index !1200
  %43 = bitcast %"class.__gnu_cxx::__normal_iterator"* %11 to i8*, !llfi_index !1201
  %44 = bitcast %"class.__gnu_cxx::__normal_iterator"* %6 to i8*, !llfi_index !1202
  call void @llvm.memcpy.p0i8.p0i8.i64(i8* align 8 %43, i8* align 8 %44, i64 8, i1 false), !llfi_index !1203
  %45 = call i32* @_ZNK9__gnu_cxx17__normal_iteratorIPiSt6vectorIiSaIiEEEplEl(%"class.__gnu_cxx::__normal_iterator"* nonnull align 8 dereferenceable(8) %6, i64 1) #2, !llfi_index !1204
  %46 = getelementptr inbounds %"class.__gnu_cxx::__normal_iterator", %"class.__gnu_cxx::__normal_iterator"* %12, i32 0, i32 0, !llfi_index !1205
  store i32* %45, i32** %46, align 8, !llfi_index !1206
  %47 = getelementptr inbounds %"class.__gnu_cxx::__normal_iterator", %"class.__gnu_cxx::__normal_iterator"* %10, i32 0, i32 0, !llfi_index !1207
  %48 = load i32*, i32** %47, align 8, !llfi_index !1208
  %49 = getelementptr inbounds %"class.__gnu_cxx::__normal_iterator", %"class.__gnu_cxx::__normal_iterator"* %11, i32 0, i32 0, !llfi_index !1209
  %50 = load i32*, i32** %49, align 8, !llfi_index !1210
  %51 = getelementptr inbounds %"class.__gnu_cxx::__normal_iterator", %"class.__gnu_cxx::__normal_iterator"* %12, i32 0, i32 0, !llfi_index !1211
  %52 = load i32*, i32** %51, align 8, !llfi_index !1212
  %53 = call i32* @_ZSt13move_backwardIN9__gnu_cxx17__normal_iteratorIPiSt6vectorIiSaIiEEEES6_ET0_T_S8_S7_(i32* %48, i32* %50, i32* %52), !llfi_index !1213
  %54 = getelementptr inbounds %"class.__gnu_cxx::__normal_iterator", %"class.__gnu_cxx::__normal_iterator"* %13, i32 0, i32 0, !llfi_index !1214
  store i32* %53, i32** %54, align 8, !llfi_index !1215
  %55 = call nonnull align 4 dereferenceable(4) i32* @_ZSt4moveIRiEONSt16remove_referenceIT_E4typeEOS2_(i32* nonnull align 4 dereferenceable(4) %9) #2, !llfi_index !1216
  %56 = load i32, i32* %55, align 4, !llfi_index !1217
  %57 = call nonnull align 4 dereferenceable(4) i32* @_ZNK9__gnu_cxx17__normal_iteratorIPiSt6vectorIiSaIiEEEdeEv(%"class.__gnu_cxx::__normal_iterator"* nonnull align 8 dereferenceable(8) %3) #2, !llfi_index !1218
  store i32 %56, i32* %57, align 4, !llfi_index !1219
  br label %63, !llfi_index !1220

58:                                               ; preds = %27
  %59 = bitcast %"class.__gnu_cxx::__normal_iterator"* %14 to i8*, !llfi_index !1221
  %60 = bitcast %"class.__gnu_cxx::__normal_iterator"* %6 to i8*, !llfi_index !1222
  call void @llvm.memcpy.p0i8.p0i8.i64(i8* align 8 %59, i8* align 8 %60, i64 8, i1 false), !llfi_index !1223
  call void @_ZN9__gnu_cxx5__ops15__val_comp_iterENS0_15_Iter_less_iterE(), !llfi_index !1224
  %61 = getelementptr inbounds %"class.__gnu_cxx::__normal_iterator", %"class.__gnu_cxx::__normal_iterator"* %14, i32 0, i32 0, !llfi_index !1225
  %62 = load i32*, i32** %61, align 8, !llfi_index !1226
  call void @_ZSt25__unguarded_linear_insertIN9__gnu_cxx17__normal_iteratorIPiSt6vectorIiSaIiEEEENS0_5__ops14_Val_less_iterEEvT_T0_(i32* %62), !llfi_index !1227
  br label %63, !llfi_index !1228

63:                                               ; preds = %58, %37
  br label %64, !llfi_index !1229

64:                                               ; preds = %63
  %65 = call nonnull align 8 dereferenceable(8) %"class.__gnu_cxx::__normal_iterator"* @_ZN9__gnu_cxx17__normal_iteratorIPiSt6vectorIiSaIiEEEppEv(%"class.__gnu_cxx::__normal_iterator"* nonnull align 8 dereferenceable(8) %6) #2, !llfi_index !1230
  br label %25, !llvm.loop !1231, !llfi_index !1232

66:                                               ; preds = %25, %21
  ret void, !llfi_index !1233
}

; Function Attrs: mustprogress noinline uwtable
define linkonce_odr dso_local void @_ZSt26__unguarded_insertion_sortIN9__gnu_cxx17__normal_iteratorIPiSt6vectorIiSaIiEEEENS0_5__ops15_Iter_less_iterEEvT_S9_T0_(i32* %0, i32* %1) #4 comdat {
  %3 = alloca %"class.__gnu_cxx::__normal_iterator", align 8, !llfi_index !1234
  %4 = alloca %"class.__gnu_cxx::__normal_iterator", align 8, !llfi_index !1235
  %5 = alloca %"class.std::allocator", align 1, !llfi_index !1236
  %6 = alloca %"class.__gnu_cxx::__normal_iterator", align 8, !llfi_index !1237
  %7 = alloca %"class.__gnu_cxx::__normal_iterator", align 8, !llfi_index !1238
  %8 = alloca %"class.std::allocator", align 1, !llfi_index !1239
  %9 = alloca %"class.std::allocator", align 1, !llfi_index !1240
  %10 = alloca %"class.std::allocator", align 1, !llfi_index !1241
  %11 = getelementptr inbounds %"class.__gnu_cxx::__normal_iterator", %"class.__gnu_cxx::__normal_iterator"* %3, i32 0, i32 0, !llfi_index !1242
  store i32* %0, i32** %11, align 8, !llfi_index !1243
  %12 = getelementptr inbounds %"class.__gnu_cxx::__normal_iterator", %"class.__gnu_cxx::__normal_iterator"* %4, i32 0, i32 0, !llfi_index !1244
  store i32* %1, i32** %12, align 8, !llfi_index !1245
  %13 = bitcast %"class.__gnu_cxx::__normal_iterator"* %6 to i8*, !llfi_index !1246
  %14 = bitcast %"class.__gnu_cxx::__normal_iterator"* %3 to i8*, !llfi_index !1247
  call void @llvm.memcpy.p0i8.p0i8.i64(i8* align 8 %13, i8* align 8 %14, i64 8, i1 false), !llfi_index !1248
  br label %15, !llfi_index !1249

15:                                               ; preds = %22, %2
  %16 = call zeroext i1 @_ZN9__gnu_cxxneIPiSt6vectorIiSaIiEEEEbRKNS_17__normal_iteratorIT_T0_EESA_(%"class.__gnu_cxx::__normal_iterator"* nonnull align 8 dereferenceable(8) %6, %"class.__gnu_cxx::__normal_iterator"* nonnull align 8 dereferenceable(8) %4) #2, !llfi_index !1250
  br i1 %16, label %17, label %24, !llfi_index !1251

17:                                               ; preds = %15
  %18 = bitcast %"class.__gnu_cxx::__normal_iterator"* %7 to i8*, !llfi_index !1252
  %19 = bitcast %"class.__gnu_cxx::__normal_iterator"* %6 to i8*, !llfi_index !1253
  call void @llvm.memcpy.p0i8.p0i8.i64(i8* align 8 %18, i8* align 8 %19, i64 8, i1 false), !llfi_index !1254
  call void @_ZN9__gnu_cxx5__ops15__val_comp_iterENS0_15_Iter_less_iterE(), !llfi_index !1255
  %20 = getelementptr inbounds %"class.__gnu_cxx::__normal_iterator", %"class.__gnu_cxx::__normal_iterator"* %7, i32 0, i32 0, !llfi_index !1256
  %21 = load i32*, i32** %20, align 8, !llfi_index !1257
  call void @_ZSt25__unguarded_linear_insertIN9__gnu_cxx17__normal_iteratorIPiSt6vectorIiSaIiEEEENS0_5__ops14_Val_less_iterEEvT_T0_(i32* %21), !llfi_index !1258
  br label %22, !llfi_index !1259

22:                                               ; preds = %17
  %23 = call nonnull align 8 dereferenceable(8) %"class.__gnu_cxx::__normal_iterator"* @_ZN9__gnu_cxx17__normal_iteratorIPiSt6vectorIiSaIiEEEppEv(%"class.__gnu_cxx::__normal_iterator"* nonnull align 8 dereferenceable(8) %6) #2, !llfi_index !1260
  br label %15, !llvm.loop !1261, !llfi_index !1262

24:                                               ; preds = %15
  ret void, !llfi_index !1263
}

; Function Attrs: mustprogress noinline nounwind uwtable
define linkonce_odr dso_local void @_ZN9__gnu_cxx5__ops15__val_comp_iterENS0_15_Iter_less_iterE() #3 comdat {
  %1 = alloca %"class.std::allocator", align 1, !llfi_index !1264
  ret void, !llfi_index !1265
}

; Function Attrs: mustprogress noinline uwtable
define linkonce_odr dso_local void @_ZSt25__unguarded_linear_insertIN9__gnu_cxx17__normal_iteratorIPiSt6vectorIiSaIiEEEENS0_5__ops14_Val_less_iterEEvT_T0_(i32* %0) #4 comdat {
  %2 = alloca %"class.__gnu_cxx::__normal_iterator", align 8, !llfi_index !1266
  %3 = alloca %"class.std::allocator", align 1, !llfi_index !1267
  %4 = alloca i32, align 4, !llfi_index !1268
  %5 = alloca %"class.__gnu_cxx::__normal_iterator", align 8, !llfi_index !1269
  %6 = alloca %"class.__gnu_cxx::__normal_iterator", align 8, !llfi_index !1270
  %7 = getelementptr inbounds %"class.__gnu_cxx::__normal_iterator", %"class.__gnu_cxx::__normal_iterator"* %2, i32 0, i32 0, !llfi_index !1271
  store i32* %0, i32** %7, align 8, !llfi_index !1272
  %8 = call nonnull align 4 dereferenceable(4) i32* @_ZNK9__gnu_cxx17__normal_iteratorIPiSt6vectorIiSaIiEEEdeEv(%"class.__gnu_cxx::__normal_iterator"* nonnull align 8 dereferenceable(8) %2) #2, !llfi_index !1273
  %9 = call nonnull align 4 dereferenceable(4) i32* @_ZSt4moveIRiEONSt16remove_referenceIT_E4typeEOS2_(i32* nonnull align 4 dereferenceable(4) %8) #2, !llfi_index !1274
  %10 = load i32, i32* %9, align 4, !llfi_index !1275
  store i32 %10, i32* %4, align 4, !llfi_index !1276
  %11 = bitcast %"class.__gnu_cxx::__normal_iterator"* %5 to i8*, !llfi_index !1277
  %12 = bitcast %"class.__gnu_cxx::__normal_iterator"* %2 to i8*, !llfi_index !1278
  call void @llvm.memcpy.p0i8.p0i8.i64(i8* align 8 %11, i8* align 8 %12, i64 8, i1 false), !llfi_index !1279
  %13 = call nonnull align 8 dereferenceable(8) %"class.__gnu_cxx::__normal_iterator"* @_ZN9__gnu_cxx17__normal_iteratorIPiSt6vectorIiSaIiEEEmmEv(%"class.__gnu_cxx::__normal_iterator"* nonnull align 8 dereferenceable(8) %5) #2, !llfi_index !1280
  br label %14, !llfi_index !1281

14:                                               ; preds = %20, %1
  %15 = bitcast %"class.__gnu_cxx::__normal_iterator"* %6 to i8*, !llfi_index !1282
  %16 = bitcast %"class.__gnu_cxx::__normal_iterator"* %5 to i8*, !llfi_index !1283
  call void @llvm.memcpy.p0i8.p0i8.i64(i8* align 8 %15, i8* align 8 %16, i64 8, i1 false), !llfi_index !1284
  %17 = getelementptr inbounds %"class.__gnu_cxx::__normal_iterator", %"class.__gnu_cxx::__normal_iterator"* %6, i32 0, i32 0, !llfi_index !1285
  %18 = load i32*, i32** %17, align 8, !llfi_index !1286
  %19 = call zeroext i1 @_ZNK9__gnu_cxx5__ops14_Val_less_iterclIiNS_17__normal_iteratorIPiSt6vectorIiSaIiEEEEEEbRT_T0_(%"class.std::allocator"* nonnull align 1 dereferenceable(1) %3, i32* nonnull align 4 dereferenceable(4) %4, i32* %18), !llfi_index !1287
  br i1 %19, label %20, label %28, !llfi_index !1288

20:                                               ; preds = %14
  %21 = call nonnull align 4 dereferenceable(4) i32* @_ZNK9__gnu_cxx17__normal_iteratorIPiSt6vectorIiSaIiEEEdeEv(%"class.__gnu_cxx::__normal_iterator"* nonnull align 8 dereferenceable(8) %5) #2, !llfi_index !1289
  %22 = call nonnull align 4 dereferenceable(4) i32* @_ZSt4moveIRiEONSt16remove_referenceIT_E4typeEOS2_(i32* nonnull align 4 dereferenceable(4) %21) #2, !llfi_index !1290
  %23 = load i32, i32* %22, align 4, !llfi_index !1291
  %24 = call nonnull align 4 dereferenceable(4) i32* @_ZNK9__gnu_cxx17__normal_iteratorIPiSt6vectorIiSaIiEEEdeEv(%"class.__gnu_cxx::__normal_iterator"* nonnull align 8 dereferenceable(8) %2) #2, !llfi_index !1292
  store i32 %23, i32* %24, align 4, !llfi_index !1293
  %25 = bitcast %"class.__gnu_cxx::__normal_iterator"* %2 to i8*, !llfi_index !1294
  %26 = bitcast %"class.__gnu_cxx::__normal_iterator"* %5 to i8*, !llfi_index !1295
  call void @llvm.memcpy.p0i8.p0i8.i64(i8* align 8 %25, i8* align 8 %26, i64 8, i1 false), !llfi_index !1296
  %27 = call nonnull align 8 dereferenceable(8) %"class.__gnu_cxx::__normal_iterator"* @_ZN9__gnu_cxx17__normal_iteratorIPiSt6vectorIiSaIiEEEmmEv(%"class.__gnu_cxx::__normal_iterator"* nonnull align 8 dereferenceable(8) %5) #2, !llfi_index !1297
  br label %14, !llvm.loop !1298, !llfi_index !1299

28:                                               ; preds = %14
  %29 = call nonnull align 4 dereferenceable(4) i32* @_ZSt4moveIRiEONSt16remove_referenceIT_E4typeEOS2_(i32* nonnull align 4 dereferenceable(4) %4) #2, !llfi_index !1300
  %30 = load i32, i32* %29, align 4, !llfi_index !1301
  %31 = call nonnull align 4 dereferenceable(4) i32* @_ZNK9__gnu_cxx17__normal_iteratorIPiSt6vectorIiSaIiEEEdeEv(%"class.__gnu_cxx::__normal_iterator"* nonnull align 8 dereferenceable(8) %2) #2, !llfi_index !1302
  store i32 %30, i32* %31, align 4, !llfi_index !1303
  ret void, !llfi_index !1304
}

; Function Attrs: mustprogress noinline nounwind uwtable
define linkonce_odr dso_local nonnull align 8 dereferenceable(8) %"class.__gnu_cxx::__normal_iterator"* @_ZN9__gnu_cxx17__normal_iteratorIPiSt6vectorIiSaIiEEEppEv(%"class.__gnu_cxx::__normal_iterator"* nonnull align 8 dereferenceable(8) %0) #3 comdat align 2 {
  %2 = alloca %"class.__gnu_cxx::__normal_iterator"*, align 8, !llfi_index !1305
  store %"class.__gnu_cxx::__normal_iterator"* %0, %"class.__gnu_cxx::__normal_iterator"** %2, align 8, !llfi_index !1306
  %3 = load %"class.__gnu_cxx::__normal_iterator"*, %"class.__gnu_cxx::__normal_iterator"** %2, align 8, !llfi_index !1307
  %4 = getelementptr inbounds %"class.__gnu_cxx::__normal_iterator", %"class.__gnu_cxx::__normal_iterator"* %3, i32 0, i32 0, !llfi_index !1308
  %5 = load i32*, i32** %4, align 8, !llfi_index !1309
  %6 = getelementptr inbounds i32, i32* %5, i32 1, !llfi_index !1310
  store i32* %6, i32** %4, align 8, !llfi_index !1311
  ret %"class.__gnu_cxx::__normal_iterator"* %3, !llfi_index !1312
}

; Function Attrs: mustprogress noinline nounwind uwtable
define linkonce_odr dso_local nonnull align 4 dereferenceable(4) i32* @_ZNK9__gnu_cxx17__normal_iteratorIPiSt6vectorIiSaIiEEEdeEv(%"class.__gnu_cxx::__normal_iterator"* nonnull align 8 dereferenceable(8) %0) #3 comdat align 2 {
  %2 = alloca %"class.__gnu_cxx::__normal_iterator"*, align 8, !llfi_index !1313
  store %"class.__gnu_cxx::__normal_iterator"* %0, %"class.__gnu_cxx::__normal_iterator"** %2, align 8, !llfi_index !1314
  %3 = load %"class.__gnu_cxx::__normal_iterator"*, %"class.__gnu_cxx::__normal_iterator"** %2, align 8, !llfi_index !1315
  %4 = getelementptr inbounds %"class.__gnu_cxx::__normal_iterator", %"class.__gnu_cxx::__normal_iterator"* %3, i32 0, i32 0, !llfi_index !1316
  %5 = load i32*, i32** %4, align 8, !llfi_index !1317
  ret i32* %5, !llfi_index !1318
}

; Function Attrs: mustprogress noinline nounwind uwtable
define linkonce_odr dso_local nonnull align 4 dereferenceable(4) i32* @_ZSt4moveIRiEONSt16remove_referenceIT_E4typeEOS2_(i32* nonnull align 4 dereferenceable(4) %0) #3 comdat {
  %2 = alloca i32*, align 8, !llfi_index !1319
  store i32* %0, i32** %2, align 8, !llfi_index !1320
  %3 = load i32*, i32** %2, align 8, !llfi_index !1321
  ret i32* %3, !llfi_index !1322
}

; Function Attrs: mustprogress noinline nounwind uwtable
define linkonce_odr dso_local nonnull align 8 dereferenceable(8) %"class.__gnu_cxx::__normal_iterator"* @_ZN9__gnu_cxx17__normal_iteratorIPiSt6vectorIiSaIiEEEmmEv(%"class.__gnu_cxx::__normal_iterator"* nonnull align 8 dereferenceable(8) %0) #3 comdat align 2 {
  %2 = alloca %"class.__gnu_cxx::__normal_iterator"*, align 8, !llfi_index !1323
  store %"class.__gnu_cxx::__normal_iterator"* %0, %"class.__gnu_cxx::__normal_iterator"** %2, align 8, !llfi_index !1324
  %3 = load %"class.__gnu_cxx::__normal_iterator"*, %"class.__gnu_cxx::__normal_iterator"** %2, align 8, !llfi_index !1325
  %4 = getelementptr inbounds %"class.__gnu_cxx::__normal_iterator", %"class.__gnu_cxx::__normal_iterator"* %3, i32 0, i32 0, !llfi_index !1326
  %5 = load i32*, i32** %4, align 8, !llfi_index !1327
  %6 = getelementptr inbounds i32, i32* %5, i32 -1, !llfi_index !1328
  store i32* %6, i32** %4, align 8, !llfi_index !1329
  ret %"class.__gnu_cxx::__normal_iterator"* %3, !llfi_index !1330
}

; Function Attrs: mustprogress noinline nounwind uwtable
define linkonce_odr dso_local zeroext i1 @_ZNK9__gnu_cxx5__ops14_Val_less_iterclIiNS_17__normal_iteratorIPiSt6vectorIiSaIiEEEEEEbRT_T0_(%"class.std::allocator"* nonnull align 1 dereferenceable(1) %0, i32* nonnull align 4 dereferenceable(4) %1, i32* %2) #3 comdat align 2 {
  %4 = alloca %"class.__gnu_cxx::__normal_iterator", align 8, !llfi_index !1331
  %5 = alloca %"class.std::allocator"*, align 8, !llfi_index !1332
  %6 = alloca i32*, align 8, !llfi_index !1333
  %7 = getelementptr inbounds %"class.__gnu_cxx::__normal_iterator", %"class.__gnu_cxx::__normal_iterator"* %4, i32 0, i32 0, !llfi_index !1334
  store i32* %2, i32** %7, align 8, !llfi_index !1335
  store %"class.std::allocator"* %0, %"class.std::allocator"** %5, align 8, !llfi_index !1336
  store i32* %1, i32** %6, align 8, !llfi_index !1337
  %8 = load %"class.std::allocator"*, %"class.std::allocator"** %5, align 8, !llfi_index !1338
  %9 = load i32*, i32** %6, align 8, !llfi_index !1339
  %10 = load i32, i32* %9, align 4, !llfi_index !1340
  %11 = call nonnull align 4 dereferenceable(4) i32* @_ZNK9__gnu_cxx17__normal_iteratorIPiSt6vectorIiSaIiEEEdeEv(%"class.__gnu_cxx::__normal_iterator"* nonnull align 8 dereferenceable(8) %4) #2, !llfi_index !1341
  %12 = load i32, i32* %11, align 4, !llfi_index !1342
  %13 = icmp slt i32 %10, %12, !llfi_index !1343
  ret i1 %13, !llfi_index !1344
}

; Function Attrs: mustprogress noinline nounwind uwtable
define linkonce_odr dso_local zeroext i1 @_ZN9__gnu_cxxeqIPiSt6vectorIiSaIiEEEEbRKNS_17__normal_iteratorIT_T0_EESA_(%"class.__gnu_cxx::__normal_iterator"* nonnull align 8 dereferenceable(8) %0, %"class.__gnu_cxx::__normal_iterator"* nonnull align 8 dereferenceable(8) %1) #3 comdat {
  %3 = alloca %"class.__gnu_cxx::__normal_iterator"*, align 8, !llfi_index !1345
  %4 = alloca %"class.__gnu_cxx::__normal_iterator"*, align 8, !llfi_index !1346
  store %"class.__gnu_cxx::__normal_iterator"* %0, %"class.__gnu_cxx::__normal_iterator"** %3, align 8, !llfi_index !1347
  store %"class.__gnu_cxx::__normal_iterator"* %1, %"class.__gnu_cxx::__normal_iterator"** %4, align 8, !llfi_index !1348
  %5 = load %"class.__gnu_cxx::__normal_iterator"*, %"class.__gnu_cxx::__normal_iterator"** %3, align 8, !llfi_index !1349
  %6 = call nonnull align 8 dereferenceable(8) i32** @_ZNK9__gnu_cxx17__normal_iteratorIPiSt6vectorIiSaIiEEE4baseEv(%"class.__gnu_cxx::__normal_iterator"* nonnull align 8 dereferenceable(8) %5) #2, !llfi_index !1350
  %7 = load i32*, i32** %6, align 8, !llfi_index !1351
  %8 = load %"class.__gnu_cxx::__normal_iterator"*, %"class.__gnu_cxx::__normal_iterator"** %4, align 8, !llfi_index !1352
  %9 = call nonnull align 8 dereferenceable(8) i32** @_ZNK9__gnu_cxx17__normal_iteratorIPiSt6vectorIiSaIiEEE4baseEv(%"class.__gnu_cxx::__normal_iterator"* nonnull align 8 dereferenceable(8) %8) #2, !llfi_index !1353
  %10 = load i32*, i32** %9, align 8, !llfi_index !1354
  %11 = icmp eq i32* %7, %10, !llfi_index !1355
  ret i1 %11, !llfi_index !1356
}

; Function Attrs: mustprogress noinline nounwind uwtable
define linkonce_odr dso_local zeroext i1 @_ZNK9__gnu_cxx5__ops15_Iter_less_iterclINS_17__normal_iteratorIPiSt6vectorIiSaIiEEEES8_EEbT_T0_(%"class.std::allocator"* nonnull align 1 dereferenceable(1) %0, i32* %1, i32* %2) #3 comdat align 2 {
  %4 = alloca %"class.__gnu_cxx::__normal_iterator", align 8, !llfi_index !1357
  %5 = alloca %"class.__gnu_cxx::__normal_iterator", align 8, !llfi_index !1358
  %6 = alloca %"class.std::allocator"*, align 8, !llfi_index !1359
  %7 = getelementptr inbounds %"class.__gnu_cxx::__normal_iterator", %"class.__gnu_cxx::__normal_iterator"* %4, i32 0, i32 0, !llfi_index !1360
  store i32* %1, i32** %7, align 8, !llfi_index !1361
  %8 = getelementptr inbounds %"class.__gnu_cxx::__normal_iterator", %"class.__gnu_cxx::__normal_iterator"* %5, i32 0, i32 0, !llfi_index !1362
  store i32* %2, i32** %8, align 8, !llfi_index !1363
  store %"class.std::allocator"* %0, %"class.std::allocator"** %6, align 8, !llfi_index !1364
  %9 = load %"class.std::allocator"*, %"class.std::allocator"** %6, align 8, !llfi_index !1365
  %10 = call nonnull align 4 dereferenceable(4) i32* @_ZNK9__gnu_cxx17__normal_iteratorIPiSt6vectorIiSaIiEEEdeEv(%"class.__gnu_cxx::__normal_iterator"* nonnull align 8 dereferenceable(8) %4) #2, !llfi_index !1366
  %11 = load i32, i32* %10, align 4, !llfi_index !1367
  %12 = call nonnull align 4 dereferenceable(4) i32* @_ZNK9__gnu_cxx17__normal_iteratorIPiSt6vectorIiSaIiEEEdeEv(%"class.__gnu_cxx::__normal_iterator"* nonnull align 8 dereferenceable(8) %5) #2, !llfi_index !1368
  %13 = load i32, i32* %12, align 4, !llfi_index !1369
  %14 = icmp slt i32 %11, %13, !llfi_index !1370
  ret i1 %14, !llfi_index !1371
}

; Function Attrs: mustprogress noinline uwtable
define linkonce_odr dso_local i32* @_ZSt13move_backwardIN9__gnu_cxx17__normal_iteratorIPiSt6vectorIiSaIiEEEES6_ET0_T_S8_S7_(i32* %0, i32* %1, i32* %2) #4 comdat {
  %4 = alloca %"class.__gnu_cxx::__normal_iterator", align 8, !llfi_index !1372
  %5 = alloca %"class.__gnu_cxx::__normal_iterator", align 8, !llfi_index !1373
  %6 = alloca %"class.__gnu_cxx::__normal_iterator", align 8, !llfi_index !1374
  %7 = alloca %"class.__gnu_cxx::__normal_iterator", align 8, !llfi_index !1375
  %8 = alloca %"class.__gnu_cxx::__normal_iterator", align 8, !llfi_index !1376
  %9 = alloca %"class.__gnu_cxx::__normal_iterator", align 8, !llfi_index !1377
  %10 = alloca %"class.__gnu_cxx::__normal_iterator", align 8, !llfi_index !1378
  %11 = alloca %"class.__gnu_cxx::__normal_iterator", align 8, !llfi_index !1379
  %12 = alloca %"class.__gnu_cxx::__normal_iterator", align 8, !llfi_index !1380
  %13 = getelementptr inbounds %"class.__gnu_cxx::__normal_iterator", %"class.__gnu_cxx::__normal_iterator"* %5, i32 0, i32 0, !llfi_index !1381
  store i32* %0, i32** %13, align 8, !llfi_index !1382
  %14 = getelementptr inbounds %"class.__gnu_cxx::__normal_iterator", %"class.__gnu_cxx::__normal_iterator"* %6, i32 0, i32 0, !llfi_index !1383
  store i32* %1, i32** %14, align 8, !llfi_index !1384
  %15 = getelementptr inbounds %"class.__gnu_cxx::__normal_iterator", %"class.__gnu_cxx::__normal_iterator"* %7, i32 0, i32 0, !llfi_index !1385
  store i32* %2, i32** %15, align 8, !llfi_index !1386
  %16 = bitcast %"class.__gnu_cxx::__normal_iterator"* %9 to i8*, !llfi_index !1387
  %17 = bitcast %"class.__gnu_cxx::__normal_iterator"* %5 to i8*, !llfi_index !1388
  call void @llvm.memcpy.p0i8.p0i8.i64(i8* align 8 %16, i8* align 8 %17, i64 8, i1 false), !llfi_index !1389
  %18 = getelementptr inbounds %"class.__gnu_cxx::__normal_iterator", %"class.__gnu_cxx::__normal_iterator"* %9, i32 0, i32 0, !llfi_index !1390
  %19 = load i32*, i32** %18, align 8, !llfi_index !1391
  %20 = call i32* @_ZSt12__miter_baseIN9__gnu_cxx17__normal_iteratorIPiSt6vectorIiSaIiEEEEET_S7_(i32* %19), !llfi_index !1392
  %21 = getelementptr inbounds %"class.__gnu_cxx::__normal_iterator", %"class.__gnu_cxx::__normal_iterator"* %8, i32 0, i32 0, !llfi_index !1393
  store i32* %20, i32** %21, align 8, !llfi_index !1394
  %22 = bitcast %"class.__gnu_cxx::__normal_iterator"* %11 to i8*, !llfi_index !1395
  %23 = bitcast %"class.__gnu_cxx::__normal_iterator"* %6 to i8*, !llfi_index !1396
  call void @llvm.memcpy.p0i8.p0i8.i64(i8* align 8 %22, i8* align 8 %23, i64 8, i1 false), !llfi_index !1397
  %24 = getelementptr inbounds %"class.__gnu_cxx::__normal_iterator", %"class.__gnu_cxx::__normal_iterator"* %11, i32 0, i32 0, !llfi_index !1398
  %25 = load i32*, i32** %24, align 8, !llfi_index !1399
  %26 = call i32* @_ZSt12__miter_baseIN9__gnu_cxx17__normal_iteratorIPiSt6vectorIiSaIiEEEEET_S7_(i32* %25), !llfi_index !1400
  %27 = getelementptr inbounds %"class.__gnu_cxx::__normal_iterator", %"class.__gnu_cxx::__normal_iterator"* %10, i32 0, i32 0, !llfi_index !1401
  store i32* %26, i32** %27, align 8, !llfi_index !1402
  %28 = bitcast %"class.__gnu_cxx::__normal_iterator"* %12 to i8*, !llfi_index !1403
  %29 = bitcast %"class.__gnu_cxx::__normal_iterator"* %7 to i8*, !llfi_index !1404
  call void @llvm.memcpy.p0i8.p0i8.i64(i8* align 8 %28, i8* align 8 %29, i64 8, i1 false), !llfi_index !1405
  %30 = getelementptr inbounds %"class.__gnu_cxx::__normal_iterator", %"class.__gnu_cxx::__normal_iterator"* %8, i32 0, i32 0, !llfi_index !1406
  %31 = load i32*, i32** %30, align 8, !llfi_index !1407
  %32 = getelementptr inbounds %"class.__gnu_cxx::__normal_iterator", %"class.__gnu_cxx::__normal_iterator"* %10, i32 0, i32 0, !llfi_index !1408
  %33 = load i32*, i32** %32, align 8, !llfi_index !1409
  %34 = getelementptr inbounds %"class.__gnu_cxx::__normal_iterator", %"class.__gnu_cxx::__normal_iterator"* %12, i32 0, i32 0, !llfi_index !1410
  %35 = load i32*, i32** %34, align 8, !llfi_index !1411
  %36 = call i32* @_ZSt23__copy_move_backward_a2ILb1EN9__gnu_cxx17__normal_iteratorIPiSt6vectorIiSaIiEEEES6_ET1_T0_S8_S7_(i32* %31, i32* %33, i32* %35), !llfi_index !1412
  %37 = getelementptr inbounds %"class.__gnu_cxx::__normal_iterator", %"class.__gnu_cxx::__normal_iterator"* %4, i32 0, i32 0, !llfi_index !1413
  store i32* %36, i32** %37, align 8, !llfi_index !1414
  %38 = getelementptr inbounds %"class.__gnu_cxx::__normal_iterator", %"class.__gnu_cxx::__normal_iterator"* %4, i32 0, i32 0, !llfi_index !1415
  %39 = load i32*, i32** %38, align 8, !llfi_index !1416
  ret i32* %39, !llfi_index !1417
}

; Function Attrs: mustprogress noinline nounwind uwtable
define linkonce_odr dso_local i32* @_ZSt12__miter_baseIN9__gnu_cxx17__normal_iteratorIPiSt6vectorIiSaIiEEEEET_S7_(i32* %0) #3 comdat {
  %2 = alloca %"class.__gnu_cxx::__normal_iterator", align 8, !llfi_index !1418
  %3 = alloca %"class.__gnu_cxx::__normal_iterator", align 8, !llfi_index !1419
  %4 = getelementptr inbounds %"class.__gnu_cxx::__normal_iterator", %"class.__gnu_cxx::__normal_iterator"* %3, i32 0, i32 0, !llfi_index !1420
  store i32* %0, i32** %4, align 8, !llfi_index !1421
  %5 = bitcast %"class.__gnu_cxx::__normal_iterator"* %2 to i8*, !llfi_index !1422
  %6 = bitcast %"class.__gnu_cxx::__normal_iterator"* %3 to i8*, !llfi_index !1423
  call void @llvm.memcpy.p0i8.p0i8.i64(i8* align 8 %5, i8* align 8 %6, i64 8, i1 false), !llfi_index !1424
  %7 = getelementptr inbounds %"class.__gnu_cxx::__normal_iterator", %"class.__gnu_cxx::__normal_iterator"* %2, i32 0, i32 0, !llfi_index !1425
  %8 = load i32*, i32** %7, align 8, !llfi_index !1426
  ret i32* %8, !llfi_index !1427
}

; Function Attrs: mustprogress noinline uwtable
define linkonce_odr dso_local i32* @_ZSt23__copy_move_backward_a2ILb1EN9__gnu_cxx17__normal_iteratorIPiSt6vectorIiSaIiEEEES6_ET1_T0_S8_S7_(i32* %0, i32* %1, i32* %2) #4 comdat {
  %4 = alloca %"class.__gnu_cxx::__normal_iterator", align 8, !llfi_index !1428
  %5 = alloca %"class.__gnu_cxx::__normal_iterator", align 8, !llfi_index !1429
  %6 = alloca %"class.__gnu_cxx::__normal_iterator", align 8, !llfi_index !1430
  %7 = alloca %"class.__gnu_cxx::__normal_iterator", align 8, !llfi_index !1431
  %8 = alloca %"class.__gnu_cxx::__normal_iterator", align 8, !llfi_index !1432
  %9 = alloca %"class.__gnu_cxx::__normal_iterator", align 8, !llfi_index !1433
  %10 = alloca %"class.__gnu_cxx::__normal_iterator", align 8, !llfi_index !1434
  %11 = alloca %"class.__gnu_cxx::__normal_iterator", align 8, !llfi_index !1435
  %12 = getelementptr inbounds %"class.__gnu_cxx::__normal_iterator", %"class.__gnu_cxx::__normal_iterator"* %5, i32 0, i32 0, !llfi_index !1436
  store i32* %0, i32** %12, align 8, !llfi_index !1437
  %13 = getelementptr inbounds %"class.__gnu_cxx::__normal_iterator", %"class.__gnu_cxx::__normal_iterator"* %6, i32 0, i32 0, !llfi_index !1438
  store i32* %1, i32** %13, align 8, !llfi_index !1439
  %14 = getelementptr inbounds %"class.__gnu_cxx::__normal_iterator", %"class.__gnu_cxx::__normal_iterator"* %7, i32 0, i32 0, !llfi_index !1440
  store i32* %2, i32** %14, align 8, !llfi_index !1441
  %15 = bitcast %"class.__gnu_cxx::__normal_iterator"* %8 to i8*, !llfi_index !1442
  %16 = bitcast %"class.__gnu_cxx::__normal_iterator"* %7 to i8*, !llfi_index !1443
  call void @llvm.memcpy.p0i8.p0i8.i64(i8* align 8 %15, i8* align 8 %16, i64 8, i1 false), !llfi_index !1444
  %17 = bitcast %"class.__gnu_cxx::__normal_iterator"* %9 to i8*, !llfi_index !1445
  %18 = bitcast %"class.__gnu_cxx::__normal_iterator"* %5 to i8*, !llfi_index !1446
  call void @llvm.memcpy.p0i8.p0i8.i64(i8* align 8 %17, i8* align 8 %18, i64 8, i1 false), !llfi_index !1447
  %19 = getelementptr inbounds %"class.__gnu_cxx::__normal_iterator", %"class.__gnu_cxx::__normal_iterator"* %9, i32 0, i32 0, !llfi_index !1448
  %20 = load i32*, i32** %19, align 8, !llfi_index !1449
  %21 = call i32* @_ZSt12__niter_baseIPiSt6vectorIiSaIiEEET_N9__gnu_cxx17__normal_iteratorIS4_T0_EE(i32* %20) #2, !llfi_index !1450
  %22 = bitcast %"class.__gnu_cxx::__normal_iterator"* %10 to i8*, !llfi_index !1451
  %23 = bitcast %"class.__gnu_cxx::__normal_iterator"* %6 to i8*, !llfi_index !1452
  call void @llvm.memcpy.p0i8.p0i8.i64(i8* align 8 %22, i8* align 8 %23, i64 8, i1 false), !llfi_index !1453
  %24 = getelementptr inbounds %"class.__gnu_cxx::__normal_iterator", %"class.__gnu_cxx::__normal_iterator"* %10, i32 0, i32 0, !llfi_index !1454
  %25 = load i32*, i32** %24, align 8, !llfi_index !1455
  %26 = call i32* @_ZSt12__niter_baseIPiSt6vectorIiSaIiEEET_N9__gnu_cxx17__normal_iteratorIS4_T0_EE(i32* %25) #2, !llfi_index !1456
  %27 = bitcast %"class.__gnu_cxx::__normal_iterator"* %11 to i8*, !llfi_index !1457
  %28 = bitcast %"class.__gnu_cxx::__normal_iterator"* %7 to i8*, !llfi_index !1458
  call void @llvm.memcpy.p0i8.p0i8.i64(i8* align 8 %27, i8* align 8 %28, i64 8, i1 false), !llfi_index !1459
  %29 = getelementptr inbounds %"class.__gnu_cxx::__normal_iterator", %"class.__gnu_cxx::__normal_iterator"* %11, i32 0, i32 0, !llfi_index !1460
  %30 = load i32*, i32** %29, align 8, !llfi_index !1461
  %31 = call i32* @_ZSt12__niter_baseIPiSt6vectorIiSaIiEEET_N9__gnu_cxx17__normal_iteratorIS4_T0_EE(i32* %30) #2, !llfi_index !1462
  %32 = call i32* @_ZSt22__copy_move_backward_aILb1EPiS0_ET1_T0_S2_S1_(i32* %21, i32* %26, i32* %31), !llfi_index !1463
  %33 = getelementptr inbounds %"class.__gnu_cxx::__normal_iterator", %"class.__gnu_cxx::__normal_iterator"* %8, i32 0, i32 0, !llfi_index !1464
  %34 = load i32*, i32** %33, align 8, !llfi_index !1465
  %35 = call i32* @_ZSt12__niter_wrapIN9__gnu_cxx17__normal_iteratorIPiSt6vectorIiSaIiEEEES2_ET_S7_T0_(i32* %34, i32* %32), !llfi_index !1466
  %36 = getelementptr inbounds %"class.__gnu_cxx::__normal_iterator", %"class.__gnu_cxx::__normal_iterator"* %4, i32 0, i32 0, !llfi_index !1467
  store i32* %35, i32** %36, align 8, !llfi_index !1468
  %37 = getelementptr inbounds %"class.__gnu_cxx::__normal_iterator", %"class.__gnu_cxx::__normal_iterator"* %4, i32 0, i32 0, !llfi_index !1469
  %38 = load i32*, i32** %37, align 8, !llfi_index !1470
  ret i32* %38, !llfi_index !1471
}

; Function Attrs: mustprogress noinline nounwind uwtable
define linkonce_odr dso_local i32* @_ZSt12__niter_baseIPiSt6vectorIiSaIiEEET_N9__gnu_cxx17__normal_iteratorIS4_T0_EE(i32* %0) #3 comdat {
  %2 = alloca %"class.__gnu_cxx::__normal_iterator", align 8, !llfi_index !1472
  %3 = getelementptr inbounds %"class.__gnu_cxx::__normal_iterator", %"class.__gnu_cxx::__normal_iterator"* %2, i32 0, i32 0, !llfi_index !1473
  store i32* %0, i32** %3, align 8, !llfi_index !1474
  %4 = call nonnull align 8 dereferenceable(8) i32** @_ZNK9__gnu_cxx17__normal_iteratorIPiSt6vectorIiSaIiEEE4baseEv(%"class.__gnu_cxx::__normal_iterator"* nonnull align 8 dereferenceable(8) %2) #2, !llfi_index !1475
  %5 = load i32*, i32** %4, align 8, !llfi_index !1476
  ret i32* %5, !llfi_index !1477
}

; Function Attrs: mustprogress noinline uwtable
define linkonce_odr dso_local i32* @_ZSt22__copy_move_backward_aILb1EPiS0_ET1_T0_S2_S1_(i32* %0, i32* %1, i32* %2) #4 comdat {
  %4 = alloca i32*, align 8, !llfi_index !1478
  %5 = alloca i32*, align 8, !llfi_index !1479
  %6 = alloca i32*, align 8, !llfi_index !1480
  %7 = alloca i8, align 1, !llfi_index !1481
  store i32* %0, i32** %4, align 8, !llfi_index !1482
  store i32* %1, i32** %5, align 8, !llfi_index !1483
  store i32* %2, i32** %6, align 8, !llfi_index !1484
  store i8 1, i8* %7, align 1, !llfi_index !1485
  %8 = load i32*, i32** %4, align 8, !llfi_index !1486
  %9 = load i32*, i32** %5, align 8, !llfi_index !1487
  %10 = load i32*, i32** %6, align 8, !llfi_index !1488
  %11 = call i32* @_ZNSt20__copy_move_backwardILb1ELb1ESt26random_access_iterator_tagE13__copy_move_bIiEEPT_PKS3_S6_S4_(i32* %8, i32* %9, i32* %10), !llfi_index !1489
  ret i32* %11, !llfi_index !1490
}

; Function Attrs: mustprogress noinline nounwind uwtable
define linkonce_odr dso_local i32* @_ZSt12__niter_wrapIN9__gnu_cxx17__normal_iteratorIPiSt6vectorIiSaIiEEEES2_ET_S7_T0_(i32* %0, i32* %1) #3 comdat {
  %3 = alloca %"class.__gnu_cxx::__normal_iterator", align 8, !llfi_index !1491
  %4 = alloca %"class.__gnu_cxx::__normal_iterator", align 8, !llfi_index !1492
  %5 = alloca i32*, align 8, !llfi_index !1493
  %6 = alloca %"class.__gnu_cxx::__normal_iterator", align 8, !llfi_index !1494
  %7 = getelementptr inbounds %"class.__gnu_cxx::__normal_iterator", %"class.__gnu_cxx::__normal_iterator"* %4, i32 0, i32 0, !llfi_index !1495
  store i32* %0, i32** %7, align 8, !llfi_index !1496
  store i32* %1, i32** %5, align 8, !llfi_index !1497
  %8 = load i32*, i32** %5, align 8, !llfi_index !1498
  %9 = bitcast %"class.__gnu_cxx::__normal_iterator"* %6 to i8*, !llfi_index !1499
  %10 = bitcast %"class.__gnu_cxx::__normal_iterator"* %4 to i8*, !llfi_index !1500
  call void @llvm.memcpy.p0i8.p0i8.i64(i8* align 8 %9, i8* align 8 %10, i64 8, i1 false), !llfi_index !1501
  %11 = getelementptr inbounds %"class.__gnu_cxx::__normal_iterator", %"class.__gnu_cxx::__normal_iterator"* %6, i32 0, i32 0, !llfi_index !1502
  %12 = load i32*, i32** %11, align 8, !llfi_index !1503
  %13 = call i32* @_ZSt12__niter_baseIPiSt6vectorIiSaIiEEET_N9__gnu_cxx17__normal_iteratorIS4_T0_EE(i32* %12) #2, !llfi_index !1504
  %14 = ptrtoint i32* %8 to i64, !llfi_index !1505
  %15 = ptrtoint i32* %13 to i64, !llfi_index !1506
  %16 = sub i64 %14, %15, !llfi_index !1507
  %17 = sdiv exact i64 %16, 4, !llfi_index !1508
  %18 = call i32* @_ZNK9__gnu_cxx17__normal_iteratorIPiSt6vectorIiSaIiEEEplEl(%"class.__gnu_cxx::__normal_iterator"* nonnull align 8 dereferenceable(8) %4, i64 %17) #2, !llfi_index !1509
  %19 = getelementptr inbounds %"class.__gnu_cxx::__normal_iterator", %"class.__gnu_cxx::__normal_iterator"* %3, i32 0, i32 0, !llfi_index !1510
  store i32* %18, i32** %19, align 8, !llfi_index !1511
  %20 = getelementptr inbounds %"class.__gnu_cxx::__normal_iterator", %"class.__gnu_cxx::__normal_iterator"* %3, i32 0, i32 0, !llfi_index !1512
  %21 = load i32*, i32** %20, align 8, !llfi_index !1513
  ret i32* %21, !llfi_index !1514
}

; Function Attrs: mustprogress noinline nounwind uwtable
define linkonce_odr dso_local i32* @_ZNSt20__copy_move_backwardILb1ELb1ESt26random_access_iterator_tagE13__copy_move_bIiEEPT_PKS3_S6_S4_(i32* %0, i32* %1, i32* %2) #3 comdat align 2 {
  %4 = alloca i32*, align 8, !llfi_index !1515
  %5 = alloca i32*, align 8, !llfi_index !1516
  %6 = alloca i32*, align 8, !llfi_index !1517
  %7 = alloca i64, align 8, !llfi_index !1518
  store i32* %0, i32** %4, align 8, !llfi_index !1519
  store i32* %1, i32** %5, align 8, !llfi_index !1520
  store i32* %2, i32** %6, align 8, !llfi_index !1521
  %8 = load i32*, i32** %5, align 8, !llfi_index !1522
  %9 = load i32*, i32** %4, align 8, !llfi_index !1523
  %10 = ptrtoint i32* %8 to i64, !llfi_index !1524
  %11 = ptrtoint i32* %9 to i64, !llfi_index !1525
  %12 = sub i64 %10, %11, !llfi_index !1526
  %13 = sdiv exact i64 %12, 4, !llfi_index !1527
  store i64 %13, i64* %7, align 8, !llfi_index !1528
  %14 = load i64, i64* %7, align 8, !llfi_index !1529
  %15 = icmp ne i64 %14, 0, !llfi_index !1530
  br i1 %15, label %16, label %26, !llfi_index !1531

16:                                               ; preds = %3
  %17 = load i32*, i32** %6, align 8, !llfi_index !1532
  %18 = load i64, i64* %7, align 8, !llfi_index !1533
  %19 = sub i64 0, %18, !llfi_index !1534
  %20 = getelementptr inbounds i32, i32* %17, i64 %19, !llfi_index !1535
  %21 = bitcast i32* %20 to i8*, !llfi_index !1536
  %22 = load i32*, i32** %4, align 8, !llfi_index !1537
  %23 = bitcast i32* %22 to i8*, !llfi_index !1538
  %24 = load i64, i64* %7, align 8, !llfi_index !1539
  %25 = mul i64 4, %24, !llfi_index !1540
  call void @llvm.memmove.p0i8.p0i8.i64(i8* align 4 %21, i8* align 4 %23, i64 %25, i1 false), !llfi_index !1541
  br label %26, !llfi_index !1542

26:                                               ; preds = %16, %3
  %27 = load i32*, i32** %6, align 8, !llfi_index !1543
  %28 = load i64, i64* %7, align 8, !llfi_index !1544
  %29 = sub i64 0, %28, !llfi_index !1545
  %30 = getelementptr inbounds i32, i32* %27, i64 %29, !llfi_index !1546
  ret i32* %30, !llfi_index !1547
}

; Function Attrs: mustprogress noinline uwtable
define linkonce_odr dso_local void @_ZSt14__partial_sortIN9__gnu_cxx17__normal_iteratorIPiSt6vectorIiSaIiEEEENS0_5__ops15_Iter_less_iterEEvT_S9_S9_T0_(i32* %0, i32* %1, i32* %2) #4 comdat {
  %4 = alloca %"class.__gnu_cxx::__normal_iterator", align 8, !llfi_index !1548
  %5 = alloca %"class.__gnu_cxx::__normal_iterator", align 8, !llfi_index !1549
  %6 = alloca %"class.__gnu_cxx::__normal_iterator", align 8, !llfi_index !1550
  %7 = alloca %"class.std::allocator", align 1, !llfi_index !1551
  %8 = alloca %"class.__gnu_cxx::__normal_iterator", align 8, !llfi_index !1552
  %9 = alloca %"class.__gnu_cxx::__normal_iterator", align 8, !llfi_index !1553
  %10 = alloca %"class.__gnu_cxx::__normal_iterator", align 8, !llfi_index !1554
  %11 = alloca %"class.std::allocator", align 1, !llfi_index !1555
  %12 = alloca %"class.__gnu_cxx::__normal_iterator", align 8, !llfi_index !1556
  %13 = alloca %"class.__gnu_cxx::__normal_iterator", align 8, !llfi_index !1557
  %14 = getelementptr inbounds %"class.__gnu_cxx::__normal_iterator", %"class.__gnu_cxx::__normal_iterator"* %4, i32 0, i32 0, !llfi_index !1558
  store i32* %0, i32** %14, align 8, !llfi_index !1559
  %15 = getelementptr inbounds %"class.__gnu_cxx::__normal_iterator", %"class.__gnu_cxx::__normal_iterator"* %5, i32 0, i32 0, !llfi_index !1560
  store i32* %1, i32** %15, align 8, !llfi_index !1561
  %16 = getelementptr inbounds %"class.__gnu_cxx::__normal_iterator", %"class.__gnu_cxx::__normal_iterator"* %6, i32 0, i32 0, !llfi_index !1562
  store i32* %2, i32** %16, align 8, !llfi_index !1563
  %17 = bitcast %"class.__gnu_cxx::__normal_iterator"* %8 to i8*, !llfi_index !1564
  %18 = bitcast %"class.__gnu_cxx::__normal_iterator"* %4 to i8*, !llfi_index !1565
  call void @llvm.memcpy.p0i8.p0i8.i64(i8* align 8 %17, i8* align 8 %18, i64 8, i1 false), !llfi_index !1566
  %19 = bitcast %"class.__gnu_cxx::__normal_iterator"* %9 to i8*, !llfi_index !1567
  %20 = bitcast %"class.__gnu_cxx::__normal_iterator"* %5 to i8*, !llfi_index !1568
  call void @llvm.memcpy.p0i8.p0i8.i64(i8* align 8 %19, i8* align 8 %20, i64 8, i1 false), !llfi_index !1569
  %21 = bitcast %"class.__gnu_cxx::__normal_iterator"* %10 to i8*, !llfi_index !1570
  %22 = bitcast %"class.__gnu_cxx::__normal_iterator"* %6 to i8*, !llfi_index !1571
  call void @llvm.memcpy.p0i8.p0i8.i64(i8* align 8 %21, i8* align 8 %22, i64 8, i1 false), !llfi_index !1572
  %23 = getelementptr inbounds %"class.__gnu_cxx::__normal_iterator", %"class.__gnu_cxx::__normal_iterator"* %8, i32 0, i32 0, !llfi_index !1573
  %24 = load i32*, i32** %23, align 8, !llfi_index !1574
  %25 = getelementptr inbounds %"class.__gnu_cxx::__normal_iterator", %"class.__gnu_cxx::__normal_iterator"* %9, i32 0, i32 0, !llfi_index !1575
  %26 = load i32*, i32** %25, align 8, !llfi_index !1576
  %27 = getelementptr inbounds %"class.__gnu_cxx::__normal_iterator", %"class.__gnu_cxx::__normal_iterator"* %10, i32 0, i32 0, !llfi_index !1577
  %28 = load i32*, i32** %27, align 8, !llfi_index !1578
  call void @_ZSt13__heap_selectIN9__gnu_cxx17__normal_iteratorIPiSt6vectorIiSaIiEEEENS0_5__ops15_Iter_less_iterEEvT_S9_S9_T0_(i32* %24, i32* %26, i32* %28), !llfi_index !1579
  %29 = bitcast %"class.__gnu_cxx::__normal_iterator"* %12 to i8*, !llfi_index !1580
  %30 = bitcast %"class.__gnu_cxx::__normal_iterator"* %4 to i8*, !llfi_index !1581
  call void @llvm.memcpy.p0i8.p0i8.i64(i8* align 8 %29, i8* align 8 %30, i64 8, i1 false), !llfi_index !1582
  %31 = bitcast %"class.__gnu_cxx::__normal_iterator"* %13 to i8*, !llfi_index !1583
  %32 = bitcast %"class.__gnu_cxx::__normal_iterator"* %5 to i8*, !llfi_index !1584
  call void @llvm.memcpy.p0i8.p0i8.i64(i8* align 8 %31, i8* align 8 %32, i64 8, i1 false), !llfi_index !1585
  %33 = getelementptr inbounds %"class.__gnu_cxx::__normal_iterator", %"class.__gnu_cxx::__normal_iterator"* %12, i32 0, i32 0, !llfi_index !1586
  %34 = load i32*, i32** %33, align 8, !llfi_index !1587
  %35 = getelementptr inbounds %"class.__gnu_cxx::__normal_iterator", %"class.__gnu_cxx::__normal_iterator"* %13, i32 0, i32 0, !llfi_index !1588
  %36 = load i32*, i32** %35, align 8, !llfi_index !1589
  call void @_ZSt11__sort_heapIN9__gnu_cxx17__normal_iteratorIPiSt6vectorIiSaIiEEEENS0_5__ops15_Iter_less_iterEEvT_S9_RT0_(i32* %34, i32* %36, %"class.std::allocator"* nonnull align 1 dereferenceable(1) %7), !llfi_index !1590
  ret void, !llfi_index !1591
}

; Function Attrs: mustprogress noinline uwtable
define linkonce_odr dso_local i32* @_ZSt27__unguarded_partition_pivotIN9__gnu_cxx17__normal_iteratorIPiSt6vectorIiSaIiEEEENS0_5__ops15_Iter_less_iterEET_S9_S9_T0_(i32* %0, i32* %1) #4 comdat {
  %3 = alloca %"class.__gnu_cxx::__normal_iterator", align 8, !llfi_index !1592
  %4 = alloca %"class.__gnu_cxx::__normal_iterator", align 8, !llfi_index !1593
  %5 = alloca %"class.__gnu_cxx::__normal_iterator", align 8, !llfi_index !1594
  %6 = alloca %"class.std::allocator", align 1, !llfi_index !1595
  %7 = alloca %"class.__gnu_cxx::__normal_iterator", align 8, !llfi_index !1596
  %8 = alloca %"class.__gnu_cxx::__normal_iterator", align 8, !llfi_index !1597
  %9 = alloca %"class.__gnu_cxx::__normal_iterator", align 8, !llfi_index !1598
  %10 = alloca %"class.__gnu_cxx::__normal_iterator", align 8, !llfi_index !1599
  %11 = alloca %"class.__gnu_cxx::__normal_iterator", align 8, !llfi_index !1600
  %12 = alloca %"class.std::allocator", align 1, !llfi_index !1601
  %13 = alloca %"class.__gnu_cxx::__normal_iterator", align 8, !llfi_index !1602
  %14 = alloca %"class.__gnu_cxx::__normal_iterator", align 8, !llfi_index !1603
  %15 = alloca %"class.__gnu_cxx::__normal_iterator", align 8, !llfi_index !1604
  %16 = alloca %"class.std::allocator", align 1, !llfi_index !1605
  %17 = getelementptr inbounds %"class.__gnu_cxx::__normal_iterator", %"class.__gnu_cxx::__normal_iterator"* %4, i32 0, i32 0, !llfi_index !1606
  store i32* %0, i32** %17, align 8, !llfi_index !1607
  %18 = getelementptr inbounds %"class.__gnu_cxx::__normal_iterator", %"class.__gnu_cxx::__normal_iterator"* %5, i32 0, i32 0, !llfi_index !1608
  store i32* %1, i32** %18, align 8, !llfi_index !1609
  %19 = call i64 @_ZN9__gnu_cxxmiIPiSt6vectorIiSaIiEEEENS_17__normal_iteratorIT_T0_E15difference_typeERKS8_SB_(%"class.__gnu_cxx::__normal_iterator"* nonnull align 8 dereferenceable(8) %5, %"class.__gnu_cxx::__normal_iterator"* nonnull align 8 dereferenceable(8) %4) #2, !llfi_index !1610
  %20 = sdiv i64 %19, 2, !llfi_index !1611
  %21 = call i32* @_ZNK9__gnu_cxx17__normal_iteratorIPiSt6vectorIiSaIiEEEplEl(%"class.__gnu_cxx::__normal_iterator"* nonnull align 8 dereferenceable(8) %4, i64 %20) #2, !llfi_index !1612
  %22 = getelementptr inbounds %"class.__gnu_cxx::__normal_iterator", %"class.__gnu_cxx::__normal_iterator"* %7, i32 0, i32 0, !llfi_index !1613
  store i32* %21, i32** %22, align 8, !llfi_index !1614
  %23 = bitcast %"class.__gnu_cxx::__normal_iterator"* %8 to i8*, !llfi_index !1615
  %24 = bitcast %"class.__gnu_cxx::__normal_iterator"* %4 to i8*, !llfi_index !1616
  call void @llvm.memcpy.p0i8.p0i8.i64(i8* align 8 %23, i8* align 8 %24, i64 8, i1 false), !llfi_index !1617
  %25 = call i32* @_ZNK9__gnu_cxx17__normal_iteratorIPiSt6vectorIiSaIiEEEplEl(%"class.__gnu_cxx::__normal_iterator"* nonnull align 8 dereferenceable(8) %4, i64 1) #2, !llfi_index !1618
  %26 = getelementptr inbounds %"class.__gnu_cxx::__normal_iterator", %"class.__gnu_cxx::__normal_iterator"* %9, i32 0, i32 0, !llfi_index !1619
  store i32* %25, i32** %26, align 8, !llfi_index !1620
  %27 = bitcast %"class.__gnu_cxx::__normal_iterator"* %10 to i8*, !llfi_index !1621
  %28 = bitcast %"class.__gnu_cxx::__normal_iterator"* %7 to i8*, !llfi_index !1622
  call void @llvm.memcpy.p0i8.p0i8.i64(i8* align 8 %27, i8* align 8 %28, i64 8, i1 false), !llfi_index !1623
  %29 = call i32* @_ZNK9__gnu_cxx17__normal_iteratorIPiSt6vectorIiSaIiEEEmiEl(%"class.__gnu_cxx::__normal_iterator"* nonnull align 8 dereferenceable(8) %5, i64 1) #2, !llfi_index !1624
  %30 = getelementptr inbounds %"class.__gnu_cxx::__normal_iterator", %"class.__gnu_cxx::__normal_iterator"* %11, i32 0, i32 0, !llfi_index !1625
  store i32* %29, i32** %30, align 8, !llfi_index !1626
  %31 = getelementptr inbounds %"class.__gnu_cxx::__normal_iterator", %"class.__gnu_cxx::__normal_iterator"* %8, i32 0, i32 0, !llfi_index !1627
  %32 = load i32*, i32** %31, align 8, !llfi_index !1628
  %33 = getelementptr inbounds %"class.__gnu_cxx::__normal_iterator", %"class.__gnu_cxx::__normal_iterator"* %9, i32 0, i32 0, !llfi_index !1629
  %34 = load i32*, i32** %33, align 8, !llfi_index !1630
  %35 = getelementptr inbounds %"class.__gnu_cxx::__normal_iterator", %"class.__gnu_cxx::__normal_iterator"* %10, i32 0, i32 0, !llfi_index !1631
  %36 = load i32*, i32** %35, align 8, !llfi_index !1632
  %37 = getelementptr inbounds %"class.__gnu_cxx::__normal_iterator", %"class.__gnu_cxx::__normal_iterator"* %11, i32 0, i32 0, !llfi_index !1633
  %38 = load i32*, i32** %37, align 8, !llfi_index !1634
  call void @_ZSt22__move_median_to_firstIN9__gnu_cxx17__normal_iteratorIPiSt6vectorIiSaIiEEEENS0_5__ops15_Iter_less_iterEEvT_S9_S9_S9_T0_(i32* %32, i32* %34, i32* %36, i32* %38), !llfi_index !1635
  %39 = call i32* @_ZNK9__gnu_cxx17__normal_iteratorIPiSt6vectorIiSaIiEEEplEl(%"class.__gnu_cxx::__normal_iterator"* nonnull align 8 dereferenceable(8) %4, i64 1) #2, !llfi_index !1636
  %40 = getelementptr inbounds %"class.__gnu_cxx::__normal_iterator", %"class.__gnu_cxx::__normal_iterator"* %13, i32 0, i32 0, !llfi_index !1637
  store i32* %39, i32** %40, align 8, !llfi_index !1638
  %41 = bitcast %"class.__gnu_cxx::__normal_iterator"* %14 to i8*, !llfi_index !1639
  %42 = bitcast %"class.__gnu_cxx::__normal_iterator"* %5 to i8*, !llfi_index !1640
  call void @llvm.memcpy.p0i8.p0i8.i64(i8* align 8 %41, i8* align 8 %42, i64 8, i1 false), !llfi_index !1641
  %43 = bitcast %"class.__gnu_cxx::__normal_iterator"* %15 to i8*, !llfi_index !1642
  %44 = bitcast %"class.__gnu_cxx::__normal_iterator"* %4 to i8*, !llfi_index !1643
  call void @llvm.memcpy.p0i8.p0i8.i64(i8* align 8 %43, i8* align 8 %44, i64 8, i1 false), !llfi_index !1644
  %45 = getelementptr inbounds %"class.__gnu_cxx::__normal_iterator", %"class.__gnu_cxx::__normal_iterator"* %13, i32 0, i32 0, !llfi_index !1645
  %46 = load i32*, i32** %45, align 8, !llfi_index !1646
  %47 = getelementptr inbounds %"class.__gnu_cxx::__normal_iterator", %"class.__gnu_cxx::__normal_iterator"* %14, i32 0, i32 0, !llfi_index !1647
  %48 = load i32*, i32** %47, align 8, !llfi_index !1648
  %49 = getelementptr inbounds %"class.__gnu_cxx::__normal_iterator", %"class.__gnu_cxx::__normal_iterator"* %15, i32 0, i32 0, !llfi_index !1649
  %50 = load i32*, i32** %49, align 8, !llfi_index !1650
  %51 = call i32* @_ZSt21__unguarded_partitionIN9__gnu_cxx17__normal_iteratorIPiSt6vectorIiSaIiEEEENS0_5__ops15_Iter_less_iterEET_S9_S9_S9_T0_(i32* %46, i32* %48, i32* %50), !llfi_index !1651
  %52 = getelementptr inbounds %"class.__gnu_cxx::__normal_iterator", %"class.__gnu_cxx::__normal_iterator"* %3, i32 0, i32 0, !llfi_index !1652
  store i32* %51, i32** %52, align 8, !llfi_index !1653
  %53 = getelementptr inbounds %"class.__gnu_cxx::__normal_iterator", %"class.__gnu_cxx::__normal_iterator"* %3, i32 0, i32 0, !llfi_index !1654
  %54 = load i32*, i32** %53, align 8, !llfi_index !1655
  ret i32* %54, !llfi_index !1656
}

; Function Attrs: mustprogress noinline nounwind uwtable
define linkonce_odr dso_local i32* @_ZNK9__gnu_cxx17__normal_iteratorIPiSt6vectorIiSaIiEEEmiEl(%"class.__gnu_cxx::__normal_iterator"* nonnull align 8 dereferenceable(8) %0, i64 %1) #3 comdat align 2 {
  %3 = alloca %"class.__gnu_cxx::__normal_iterator", align 8, !llfi_index !1657
  %4 = alloca %"class.__gnu_cxx::__normal_iterator"*, align 8, !llfi_index !1658
  %5 = alloca i64, align 8, !llfi_index !1659
  %6 = alloca i32*, align 8, !llfi_index !1660
  store %"class.__gnu_cxx::__normal_iterator"* %0, %"class.__gnu_cxx::__normal_iterator"** %4, align 8, !llfi_index !1661
  store i64 %1, i64* %5, align 8, !llfi_index !1662
  %7 = load %"class.__gnu_cxx::__normal_iterator"*, %"class.__gnu_cxx::__normal_iterator"** %4, align 8, !llfi_index !1663
  %8 = getelementptr inbounds %"class.__gnu_cxx::__normal_iterator", %"class.__gnu_cxx::__normal_iterator"* %7, i32 0, i32 0, !llfi_index !1664
  %9 = load i32*, i32** %8, align 8, !llfi_index !1665
  %10 = load i64, i64* %5, align 8, !llfi_index !1666
  %11 = sub i64 0, %10, !llfi_index !1667
  %12 = getelementptr inbounds i32, i32* %9, i64 %11, !llfi_index !1668
  store i32* %12, i32** %6, align 8, !llfi_index !1669
  call void @_ZN9__gnu_cxx17__normal_iteratorIPiSt6vectorIiSaIiEEEC2ERKS1_(%"class.__gnu_cxx::__normal_iterator"* nonnull align 8 dereferenceable(8) %3, i32** nonnull align 8 dereferenceable(8) %6) #2, !llfi_index !1670
  %13 = getelementptr inbounds %"class.__gnu_cxx::__normal_iterator", %"class.__gnu_cxx::__normal_iterator"* %3, i32 0, i32 0, !llfi_index !1671
  %14 = load i32*, i32** %13, align 8, !llfi_index !1672
  ret i32* %14, !llfi_index !1673
}

; Function Attrs: mustprogress noinline uwtable
define linkonce_odr dso_local void @_ZSt22__move_median_to_firstIN9__gnu_cxx17__normal_iteratorIPiSt6vectorIiSaIiEEEENS0_5__ops15_Iter_less_iterEEvT_S9_S9_S9_T0_(i32* %0, i32* %1, i32* %2, i32* %3) #4 comdat {
  %5 = alloca %"class.__gnu_cxx::__normal_iterator", align 8, !llfi_index !1674
  %6 = alloca %"class.__gnu_cxx::__normal_iterator", align 8, !llfi_index !1675
  %7 = alloca %"class.__gnu_cxx::__normal_iterator", align 8, !llfi_index !1676
  %8 = alloca %"class.__gnu_cxx::__normal_iterator", align 8, !llfi_index !1677
  %9 = alloca %"class.std::allocator", align 1, !llfi_index !1678
  %10 = alloca %"class.__gnu_cxx::__normal_iterator", align 8, !llfi_index !1679
  %11 = alloca %"class.__gnu_cxx::__normal_iterator", align 8, !llfi_index !1680
  %12 = alloca %"class.__gnu_cxx::__normal_iterator", align 8, !llfi_index !1681
  %13 = alloca %"class.__gnu_cxx::__normal_iterator", align 8, !llfi_index !1682
  %14 = alloca %"class.__gnu_cxx::__normal_iterator", align 8, !llfi_index !1683
  %15 = alloca %"class.__gnu_cxx::__normal_iterator", align 8, !llfi_index !1684
  %16 = alloca %"class.__gnu_cxx::__normal_iterator", align 8, !llfi_index !1685
  %17 = alloca %"class.__gnu_cxx::__normal_iterator", align 8, !llfi_index !1686
  %18 = alloca %"class.__gnu_cxx::__normal_iterator", align 8, !llfi_index !1687
  %19 = alloca %"class.__gnu_cxx::__normal_iterator", align 8, !llfi_index !1688
  %20 = alloca %"class.__gnu_cxx::__normal_iterator", align 8, !llfi_index !1689
  %21 = alloca %"class.__gnu_cxx::__normal_iterator", align 8, !llfi_index !1690
  %22 = alloca %"class.__gnu_cxx::__normal_iterator", align 8, !llfi_index !1691
  %23 = alloca %"class.__gnu_cxx::__normal_iterator", align 8, !llfi_index !1692
  %24 = alloca %"class.__gnu_cxx::__normal_iterator", align 8, !llfi_index !1693
  %25 = alloca %"class.__gnu_cxx::__normal_iterator", align 8, !llfi_index !1694
  %26 = alloca %"class.__gnu_cxx::__normal_iterator", align 8, !llfi_index !1695
  %27 = alloca %"class.__gnu_cxx::__normal_iterator", align 8, !llfi_index !1696
  %28 = alloca %"class.__gnu_cxx::__normal_iterator", align 8, !llfi_index !1697
  %29 = alloca %"class.__gnu_cxx::__normal_iterator", align 8, !llfi_index !1698
  %30 = alloca %"class.__gnu_cxx::__normal_iterator", align 8, !llfi_index !1699
  %31 = alloca %"class.__gnu_cxx::__normal_iterator", align 8, !llfi_index !1700
  %32 = getelementptr inbounds %"class.__gnu_cxx::__normal_iterator", %"class.__gnu_cxx::__normal_iterator"* %5, i32 0, i32 0, !llfi_index !1701
  store i32* %0, i32** %32, align 8, !llfi_index !1702
  %33 = getelementptr inbounds %"class.__gnu_cxx::__normal_iterator", %"class.__gnu_cxx::__normal_iterator"* %6, i32 0, i32 0, !llfi_index !1703
  store i32* %1, i32** %33, align 8, !llfi_index !1704
  %34 = getelementptr inbounds %"class.__gnu_cxx::__normal_iterator", %"class.__gnu_cxx::__normal_iterator"* %7, i32 0, i32 0, !llfi_index !1705
  store i32* %2, i32** %34, align 8, !llfi_index !1706
  %35 = getelementptr inbounds %"class.__gnu_cxx::__normal_iterator", %"class.__gnu_cxx::__normal_iterator"* %8, i32 0, i32 0, !llfi_index !1707
  store i32* %3, i32** %35, align 8, !llfi_index !1708
  %36 = bitcast %"class.__gnu_cxx::__normal_iterator"* %10 to i8*, !llfi_index !1709
  %37 = bitcast %"class.__gnu_cxx::__normal_iterator"* %6 to i8*, !llfi_index !1710
  call void @llvm.memcpy.p0i8.p0i8.i64(i8* align 8 %36, i8* align 8 %37, i64 8, i1 false), !llfi_index !1711
  %38 = bitcast %"class.__gnu_cxx::__normal_iterator"* %11 to i8*, !llfi_index !1712
  %39 = bitcast %"class.__gnu_cxx::__normal_iterator"* %7 to i8*, !llfi_index !1713
  call void @llvm.memcpy.p0i8.p0i8.i64(i8* align 8 %38, i8* align 8 %39, i64 8, i1 false), !llfi_index !1714
  %40 = getelementptr inbounds %"class.__gnu_cxx::__normal_iterator", %"class.__gnu_cxx::__normal_iterator"* %10, i32 0, i32 0, !llfi_index !1715
  %41 = load i32*, i32** %40, align 8, !llfi_index !1716
  %42 = getelementptr inbounds %"class.__gnu_cxx::__normal_iterator", %"class.__gnu_cxx::__normal_iterator"* %11, i32 0, i32 0, !llfi_index !1717
  %43 = load i32*, i32** %42, align 8, !llfi_index !1718
  %44 = call zeroext i1 @_ZNK9__gnu_cxx5__ops15_Iter_less_iterclINS_17__normal_iteratorIPiSt6vectorIiSaIiEEEES8_EEbT_T0_(%"class.std::allocator"* nonnull align 1 dereferenceable(1) %9, i32* %41, i32* %43), !llfi_index !1719
  br i1 %44, label %45, label %94, !llfi_index !1720

45:                                               ; preds = %4
  %46 = bitcast %"class.__gnu_cxx::__normal_iterator"* %12 to i8*, !llfi_index !1721
  %47 = bitcast %"class.__gnu_cxx::__normal_iterator"* %7 to i8*, !llfi_index !1722
  call void @llvm.memcpy.p0i8.p0i8.i64(i8* align 8 %46, i8* align 8 %47, i64 8, i1 false), !llfi_index !1723
  %48 = bitcast %"class.__gnu_cxx::__normal_iterator"* %13 to i8*, !llfi_index !1724
  %49 = bitcast %"class.__gnu_cxx::__normal_iterator"* %8 to i8*, !llfi_index !1725
  call void @llvm.memcpy.p0i8.p0i8.i64(i8* align 8 %48, i8* align 8 %49, i64 8, i1 false), !llfi_index !1726
  %50 = getelementptr inbounds %"class.__gnu_cxx::__normal_iterator", %"class.__gnu_cxx::__normal_iterator"* %12, i32 0, i32 0, !llfi_index !1727
  %51 = load i32*, i32** %50, align 8, !llfi_index !1728
  %52 = getelementptr inbounds %"class.__gnu_cxx::__normal_iterator", %"class.__gnu_cxx::__normal_iterator"* %13, i32 0, i32 0, !llfi_index !1729
  %53 = load i32*, i32** %52, align 8, !llfi_index !1730
  %54 = call zeroext i1 @_ZNK9__gnu_cxx5__ops15_Iter_less_iterclINS_17__normal_iteratorIPiSt6vectorIiSaIiEEEES8_EEbT_T0_(%"class.std::allocator"* nonnull align 1 dereferenceable(1) %9, i32* %51, i32* %53), !llfi_index !1731
  br i1 %54, label %55, label %64, !llfi_index !1732

55:                                               ; preds = %45
  %56 = bitcast %"class.__gnu_cxx::__normal_iterator"* %14 to i8*, !llfi_index !1733
  %57 = bitcast %"class.__gnu_cxx::__normal_iterator"* %5 to i8*, !llfi_index !1734
  call void @llvm.memcpy.p0i8.p0i8.i64(i8* align 8 %56, i8* align 8 %57, i64 8, i1 false), !llfi_index !1735
  %58 = bitcast %"class.__gnu_cxx::__normal_iterator"* %15 to i8*, !llfi_index !1736
  %59 = bitcast %"class.__gnu_cxx::__normal_iterator"* %7 to i8*, !llfi_index !1737
  call void @llvm.memcpy.p0i8.p0i8.i64(i8* align 8 %58, i8* align 8 %59, i64 8, i1 false), !llfi_index !1738
  %60 = getelementptr inbounds %"class.__gnu_cxx::__normal_iterator", %"class.__gnu_cxx::__normal_iterator"* %14, i32 0, i32 0, !llfi_index !1739
  %61 = load i32*, i32** %60, align 8, !llfi_index !1740
  %62 = getelementptr inbounds %"class.__gnu_cxx::__normal_iterator", %"class.__gnu_cxx::__normal_iterator"* %15, i32 0, i32 0, !llfi_index !1741
  %63 = load i32*, i32** %62, align 8, !llfi_index !1742
  call void @_ZSt9iter_swapIN9__gnu_cxx17__normal_iteratorIPiSt6vectorIiSaIiEEEES6_EvT_T0_(i32* %61, i32* %63), !llfi_index !1743
  br label %93, !llfi_index !1744

64:                                               ; preds = %45
  %65 = bitcast %"class.__gnu_cxx::__normal_iterator"* %16 to i8*, !llfi_index !1745
  %66 = bitcast %"class.__gnu_cxx::__normal_iterator"* %6 to i8*, !llfi_index !1746
  call void @llvm.memcpy.p0i8.p0i8.i64(i8* align 8 %65, i8* align 8 %66, i64 8, i1 false), !llfi_index !1747
  %67 = bitcast %"class.__gnu_cxx::__normal_iterator"* %17 to i8*, !llfi_index !1748
  %68 = bitcast %"class.__gnu_cxx::__normal_iterator"* %8 to i8*, !llfi_index !1749
  call void @llvm.memcpy.p0i8.p0i8.i64(i8* align 8 %67, i8* align 8 %68, i64 8, i1 false), !llfi_index !1750
  %69 = getelementptr inbounds %"class.__gnu_cxx::__normal_iterator", %"class.__gnu_cxx::__normal_iterator"* %16, i32 0, i32 0, !llfi_index !1751
  %70 = load i32*, i32** %69, align 8, !llfi_index !1752
  %71 = getelementptr inbounds %"class.__gnu_cxx::__normal_iterator", %"class.__gnu_cxx::__normal_iterator"* %17, i32 0, i32 0, !llfi_index !1753
  %72 = load i32*, i32** %71, align 8, !llfi_index !1754
  %73 = call zeroext i1 @_ZNK9__gnu_cxx5__ops15_Iter_less_iterclINS_17__normal_iteratorIPiSt6vectorIiSaIiEEEES8_EEbT_T0_(%"class.std::allocator"* nonnull align 1 dereferenceable(1) %9, i32* %70, i32* %72), !llfi_index !1755
  br i1 %73, label %74, label %83, !llfi_index !1756

74:                                               ; preds = %64
  %75 = bitcast %"class.__gnu_cxx::__normal_iterator"* %18 to i8*, !llfi_index !1757
  %76 = bitcast %"class.__gnu_cxx::__normal_iterator"* %5 to i8*, !llfi_index !1758
  call void @llvm.memcpy.p0i8.p0i8.i64(i8* align 8 %75, i8* align 8 %76, i64 8, i1 false), !llfi_index !1759
  %77 = bitcast %"class.__gnu_cxx::__normal_iterator"* %19 to i8*, !llfi_index !1760
  %78 = bitcast %"class.__gnu_cxx::__normal_iterator"* %8 to i8*, !llfi_index !1761
  call void @llvm.memcpy.p0i8.p0i8.i64(i8* align 8 %77, i8* align 8 %78, i64 8, i1 false), !llfi_index !1762
  %79 = getelementptr inbounds %"class.__gnu_cxx::__normal_iterator", %"class.__gnu_cxx::__normal_iterator"* %18, i32 0, i32 0, !llfi_index !1763
  %80 = load i32*, i32** %79, align 8, !llfi_index !1764
  %81 = getelementptr inbounds %"class.__gnu_cxx::__normal_iterator", %"class.__gnu_cxx::__normal_iterator"* %19, i32 0, i32 0, !llfi_index !1765
  %82 = load i32*, i32** %81, align 8, !llfi_index !1766
  call void @_ZSt9iter_swapIN9__gnu_cxx17__normal_iteratorIPiSt6vectorIiSaIiEEEES6_EvT_T0_(i32* %80, i32* %82), !llfi_index !1767
  br label %92, !llfi_index !1768

83:                                               ; preds = %64
  %84 = bitcast %"class.__gnu_cxx::__normal_iterator"* %20 to i8*, !llfi_index !1769
  %85 = bitcast %"class.__gnu_cxx::__normal_iterator"* %5 to i8*, !llfi_index !1770
  call void @llvm.memcpy.p0i8.p0i8.i64(i8* align 8 %84, i8* align 8 %85, i64 8, i1 false), !llfi_index !1771
  %86 = bitcast %"class.__gnu_cxx::__normal_iterator"* %21 to i8*, !llfi_index !1772
  %87 = bitcast %"class.__gnu_cxx::__normal_iterator"* %6 to i8*, !llfi_index !1773
  call void @llvm.memcpy.p0i8.p0i8.i64(i8* align 8 %86, i8* align 8 %87, i64 8, i1 false), !llfi_index !1774
  %88 = getelementptr inbounds %"class.__gnu_cxx::__normal_iterator", %"class.__gnu_cxx::__normal_iterator"* %20, i32 0, i32 0, !llfi_index !1775
  %89 = load i32*, i32** %88, align 8, !llfi_index !1776
  %90 = getelementptr inbounds %"class.__gnu_cxx::__normal_iterator", %"class.__gnu_cxx::__normal_iterator"* %21, i32 0, i32 0, !llfi_index !1777
  %91 = load i32*, i32** %90, align 8, !llfi_index !1778
  call void @_ZSt9iter_swapIN9__gnu_cxx17__normal_iteratorIPiSt6vectorIiSaIiEEEES6_EvT_T0_(i32* %89, i32* %91), !llfi_index !1779
  br label %92, !llfi_index !1780

92:                                               ; preds = %83, %74
  br label %93, !llfi_index !1781

93:                                               ; preds = %92, %55
  br label %143, !llfi_index !1782

94:                                               ; preds = %4
  %95 = bitcast %"class.__gnu_cxx::__normal_iterator"* %22 to i8*, !llfi_index !1783
  %96 = bitcast %"class.__gnu_cxx::__normal_iterator"* %6 to i8*, !llfi_index !1784
  call void @llvm.memcpy.p0i8.p0i8.i64(i8* align 8 %95, i8* align 8 %96, i64 8, i1 false), !llfi_index !1785
  %97 = bitcast %"class.__gnu_cxx::__normal_iterator"* %23 to i8*, !llfi_index !1786
  %98 = bitcast %"class.__gnu_cxx::__normal_iterator"* %8 to i8*, !llfi_index !1787
  call void @llvm.memcpy.p0i8.p0i8.i64(i8* align 8 %97, i8* align 8 %98, i64 8, i1 false), !llfi_index !1788
  %99 = getelementptr inbounds %"class.__gnu_cxx::__normal_iterator", %"class.__gnu_cxx::__normal_iterator"* %22, i32 0, i32 0, !llfi_index !1789
  %100 = load i32*, i32** %99, align 8, !llfi_index !1790
  %101 = getelementptr inbounds %"class.__gnu_cxx::__normal_iterator", %"class.__gnu_cxx::__normal_iterator"* %23, i32 0, i32 0, !llfi_index !1791
  %102 = load i32*, i32** %101, align 8, !llfi_index !1792
  %103 = call zeroext i1 @_ZNK9__gnu_cxx5__ops15_Iter_less_iterclINS_17__normal_iteratorIPiSt6vectorIiSaIiEEEES8_EEbT_T0_(%"class.std::allocator"* nonnull align 1 dereferenceable(1) %9, i32* %100, i32* %102), !llfi_index !1793
  br i1 %103, label %104, label %113, !llfi_index !1794

104:                                              ; preds = %94
  %105 = bitcast %"class.__gnu_cxx::__normal_iterator"* %24 to i8*, !llfi_index !1795
  %106 = bitcast %"class.__gnu_cxx::__normal_iterator"* %5 to i8*, !llfi_index !1796
  call void @llvm.memcpy.p0i8.p0i8.i64(i8* align 8 %105, i8* align 8 %106, i64 8, i1 false), !llfi_index !1797
  %107 = bitcast %"class.__gnu_cxx::__normal_iterator"* %25 to i8*, !llfi_index !1798
  %108 = bitcast %"class.__gnu_cxx::__normal_iterator"* %6 to i8*, !llfi_index !1799
  call void @llvm.memcpy.p0i8.p0i8.i64(i8* align 8 %107, i8* align 8 %108, i64 8, i1 false), !llfi_index !1800
  %109 = getelementptr inbounds %"class.__gnu_cxx::__normal_iterator", %"class.__gnu_cxx::__normal_iterator"* %24, i32 0, i32 0, !llfi_index !1801
  %110 = load i32*, i32** %109, align 8, !llfi_index !1802
  %111 = getelementptr inbounds %"class.__gnu_cxx::__normal_iterator", %"class.__gnu_cxx::__normal_iterator"* %25, i32 0, i32 0, !llfi_index !1803
  %112 = load i32*, i32** %111, align 8, !llfi_index !1804
  call void @_ZSt9iter_swapIN9__gnu_cxx17__normal_iteratorIPiSt6vectorIiSaIiEEEES6_EvT_T0_(i32* %110, i32* %112), !llfi_index !1805
  br label %142, !llfi_index !1806

113:                                              ; preds = %94
  %114 = bitcast %"class.__gnu_cxx::__normal_iterator"* %26 to i8*, !llfi_index !1807
  %115 = bitcast %"class.__gnu_cxx::__normal_iterator"* %7 to i8*, !llfi_index !1808
  call void @llvm.memcpy.p0i8.p0i8.i64(i8* align 8 %114, i8* align 8 %115, i64 8, i1 false), !llfi_index !1809
  %116 = bitcast %"class.__gnu_cxx::__normal_iterator"* %27 to i8*, !llfi_index !1810
  %117 = bitcast %"class.__gnu_cxx::__normal_iterator"* %8 to i8*, !llfi_index !1811
  call void @llvm.memcpy.p0i8.p0i8.i64(i8* align 8 %116, i8* align 8 %117, i64 8, i1 false), !llfi_index !1812
  %118 = getelementptr inbounds %"class.__gnu_cxx::__normal_iterator", %"class.__gnu_cxx::__normal_iterator"* %26, i32 0, i32 0, !llfi_index !1813
  %119 = load i32*, i32** %118, align 8, !llfi_index !1814
  %120 = getelementptr inbounds %"class.__gnu_cxx::__normal_iterator", %"class.__gnu_cxx::__normal_iterator"* %27, i32 0, i32 0, !llfi_index !1815
  %121 = load i32*, i32** %120, align 8, !llfi_index !1816
  %122 = call zeroext i1 @_ZNK9__gnu_cxx5__ops15_Iter_less_iterclINS_17__normal_iteratorIPiSt6vectorIiSaIiEEEES8_EEbT_T0_(%"class.std::allocator"* nonnull align 1 dereferenceable(1) %9, i32* %119, i32* %121), !llfi_index !1817
  br i1 %122, label %123, label %132, !llfi_index !1818

123:                                              ; preds = %113
  %124 = bitcast %"class.__gnu_cxx::__normal_iterator"* %28 to i8*, !llfi_index !1819
  %125 = bitcast %"class.__gnu_cxx::__normal_iterator"* %5 to i8*, !llfi_index !1820
  call void @llvm.memcpy.p0i8.p0i8.i64(i8* align 8 %124, i8* align 8 %125, i64 8, i1 false), !llfi_index !1821
  %126 = bitcast %"class.__gnu_cxx::__normal_iterator"* %29 to i8*, !llfi_index !1822
  %127 = bitcast %"class.__gnu_cxx::__normal_iterator"* %8 to i8*, !llfi_index !1823
  call void @llvm.memcpy.p0i8.p0i8.i64(i8* align 8 %126, i8* align 8 %127, i64 8, i1 false), !llfi_index !1824
  %128 = getelementptr inbounds %"class.__gnu_cxx::__normal_iterator", %"class.__gnu_cxx::__normal_iterator"* %28, i32 0, i32 0, !llfi_index !1825
  %129 = load i32*, i32** %128, align 8, !llfi_index !1826
  %130 = getelementptr inbounds %"class.__gnu_cxx::__normal_iterator", %"class.__gnu_cxx::__normal_iterator"* %29, i32 0, i32 0, !llfi_index !1827
  %131 = load i32*, i32** %130, align 8, !llfi_index !1828
  call void @_ZSt9iter_swapIN9__gnu_cxx17__normal_iteratorIPiSt6vectorIiSaIiEEEES6_EvT_T0_(i32* %129, i32* %131), !llfi_index !1829
  br label %141, !llfi_index !1830

132:                                              ; preds = %113
  %133 = bitcast %"class.__gnu_cxx::__normal_iterator"* %30 to i8*, !llfi_index !1831
  %134 = bitcast %"class.__gnu_cxx::__normal_iterator"* %5 to i8*, !llfi_index !1832
  call void @llvm.memcpy.p0i8.p0i8.i64(i8* align 8 %133, i8* align 8 %134, i64 8, i1 false), !llfi_index !1833
  %135 = bitcast %"class.__gnu_cxx::__normal_iterator"* %31 to i8*, !llfi_index !1834
  %136 = bitcast %"class.__gnu_cxx::__normal_iterator"* %7 to i8*, !llfi_index !1835
  call void @llvm.memcpy.p0i8.p0i8.i64(i8* align 8 %135, i8* align 8 %136, i64 8, i1 false), !llfi_index !1836
  %137 = getelementptr inbounds %"class.__gnu_cxx::__normal_iterator", %"class.__gnu_cxx::__normal_iterator"* %30, i32 0, i32 0, !llfi_index !1837
  %138 = load i32*, i32** %137, align 8, !llfi_index !1838
  %139 = getelementptr inbounds %"class.__gnu_cxx::__normal_iterator", %"class.__gnu_cxx::__normal_iterator"* %31, i32 0, i32 0, !llfi_index !1839
  %140 = load i32*, i32** %139, align 8, !llfi_index !1840
  call void @_ZSt9iter_swapIN9__gnu_cxx17__normal_iteratorIPiSt6vectorIiSaIiEEEES6_EvT_T0_(i32* %138, i32* %140), !llfi_index !1841
  br label %141, !llfi_index !1842

141:                                              ; preds = %132, %123
  br label %142, !llfi_index !1843

142:                                              ; preds = %141, %104
  br label %143, !llfi_index !1844

143:                                              ; preds = %142, %93
  ret void, !llfi_index !1845
}

; Function Attrs: mustprogress noinline nounwind uwtable
define linkonce_odr dso_local i32* @_ZSt21__unguarded_partitionIN9__gnu_cxx17__normal_iteratorIPiSt6vectorIiSaIiEEEENS0_5__ops15_Iter_less_iterEET_S9_S9_S9_T0_(i32* %0, i32* %1, i32* %2) #3 comdat {
  %4 = alloca %"class.__gnu_cxx::__normal_iterator", align 8, !llfi_index !1846
  %5 = alloca %"class.__gnu_cxx::__normal_iterator", align 8, !llfi_index !1847
  %6 = alloca %"class.__gnu_cxx::__normal_iterator", align 8, !llfi_index !1848
  %7 = alloca %"class.__gnu_cxx::__normal_iterator", align 8, !llfi_index !1849
  %8 = alloca %"class.std::allocator", align 1, !llfi_index !1850
  %9 = alloca %"class.__gnu_cxx::__normal_iterator", align 8, !llfi_index !1851
  %10 = alloca %"class.__gnu_cxx::__normal_iterator", align 8, !llfi_index !1852
  %11 = alloca %"class.__gnu_cxx::__normal_iterator", align 8, !llfi_index !1853
  %12 = alloca %"class.__gnu_cxx::__normal_iterator", align 8, !llfi_index !1854
  %13 = alloca %"class.__gnu_cxx::__normal_iterator", align 8, !llfi_index !1855
  %14 = alloca %"class.__gnu_cxx::__normal_iterator", align 8, !llfi_index !1856
  %15 = getelementptr inbounds %"class.__gnu_cxx::__normal_iterator", %"class.__gnu_cxx::__normal_iterator"* %5, i32 0, i32 0, !llfi_index !1857
  store i32* %0, i32** %15, align 8, !llfi_index !1858
  %16 = getelementptr inbounds %"class.__gnu_cxx::__normal_iterator", %"class.__gnu_cxx::__normal_iterator"* %6, i32 0, i32 0, !llfi_index !1859
  store i32* %1, i32** %16, align 8, !llfi_index !1860
  %17 = getelementptr inbounds %"class.__gnu_cxx::__normal_iterator", %"class.__gnu_cxx::__normal_iterator"* %7, i32 0, i32 0, !llfi_index !1861
  store i32* %2, i32** %17, align 8, !llfi_index !1862
  br label %18, !llfi_index !1863

18:                                               ; preds = %52, %3
  br label %19, !llfi_index !1864

19:                                               ; preds = %29, %18
  %20 = bitcast %"class.__gnu_cxx::__normal_iterator"* %9 to i8*, !llfi_index !1865
  %21 = bitcast %"class.__gnu_cxx::__normal_iterator"* %5 to i8*, !llfi_index !1866
  call void @llvm.memcpy.p0i8.p0i8.i64(i8* align 8 %20, i8* align 8 %21, i64 8, i1 false), !llfi_index !1867
  %22 = bitcast %"class.__gnu_cxx::__normal_iterator"* %10 to i8*, !llfi_index !1868
  %23 = bitcast %"class.__gnu_cxx::__normal_iterator"* %7 to i8*, !llfi_index !1869
  call void @llvm.memcpy.p0i8.p0i8.i64(i8* align 8 %22, i8* align 8 %23, i64 8, i1 false), !llfi_index !1870
  %24 = getelementptr inbounds %"class.__gnu_cxx::__normal_iterator", %"class.__gnu_cxx::__normal_iterator"* %9, i32 0, i32 0, !llfi_index !1871
  %25 = load i32*, i32** %24, align 8, !llfi_index !1872
  %26 = getelementptr inbounds %"class.__gnu_cxx::__normal_iterator", %"class.__gnu_cxx::__normal_iterator"* %10, i32 0, i32 0, !llfi_index !1873
  %27 = load i32*, i32** %26, align 8, !llfi_index !1874
  %28 = call zeroext i1 @_ZNK9__gnu_cxx5__ops15_Iter_less_iterclINS_17__normal_iteratorIPiSt6vectorIiSaIiEEEES8_EEbT_T0_(%"class.std::allocator"* nonnull align 1 dereferenceable(1) %8, i32* %25, i32* %27), !llfi_index !1875
  br i1 %28, label %29, label %31, !llfi_index !1876

29:                                               ; preds = %19
  %30 = call nonnull align 8 dereferenceable(8) %"class.__gnu_cxx::__normal_iterator"* @_ZN9__gnu_cxx17__normal_iteratorIPiSt6vectorIiSaIiEEEppEv(%"class.__gnu_cxx::__normal_iterator"* nonnull align 8 dereferenceable(8) %5) #2, !llfi_index !1877
  br label %19, !llvm.loop !1878, !llfi_index !1879

31:                                               ; preds = %19
  %32 = call nonnull align 8 dereferenceable(8) %"class.__gnu_cxx::__normal_iterator"* @_ZN9__gnu_cxx17__normal_iteratorIPiSt6vectorIiSaIiEEEmmEv(%"class.__gnu_cxx::__normal_iterator"* nonnull align 8 dereferenceable(8) %6) #2, !llfi_index !1880
  br label %33, !llfi_index !1881

33:                                               ; preds = %43, %31
  %34 = bitcast %"class.__gnu_cxx::__normal_iterator"* %11 to i8*, !llfi_index !1882
  %35 = bitcast %"class.__gnu_cxx::__normal_iterator"* %7 to i8*, !llfi_index !1883
  call void @llvm.memcpy.p0i8.p0i8.i64(i8* align 8 %34, i8* align 8 %35, i64 8, i1 false), !llfi_index !1884
  %36 = bitcast %"class.__gnu_cxx::__normal_iterator"* %12 to i8*, !llfi_index !1885
  %37 = bitcast %"class.__gnu_cxx::__normal_iterator"* %6 to i8*, !llfi_index !1886
  call void @llvm.memcpy.p0i8.p0i8.i64(i8* align 8 %36, i8* align 8 %37, i64 8, i1 false), !llfi_index !1887
  %38 = getelementptr inbounds %"class.__gnu_cxx::__normal_iterator", %"class.__gnu_cxx::__normal_iterator"* %11, i32 0, i32 0, !llfi_index !1888
  %39 = load i32*, i32** %38, align 8, !llfi_index !1889
  %40 = getelementptr inbounds %"class.__gnu_cxx::__normal_iterator", %"class.__gnu_cxx::__normal_iterator"* %12, i32 0, i32 0, !llfi_index !1890
  %41 = load i32*, i32** %40, align 8, !llfi_index !1891
  %42 = call zeroext i1 @_ZNK9__gnu_cxx5__ops15_Iter_less_iterclINS_17__normal_iteratorIPiSt6vectorIiSaIiEEEES8_EEbT_T0_(%"class.std::allocator"* nonnull align 1 dereferenceable(1) %8, i32* %39, i32* %41), !llfi_index !1892
  br i1 %42, label %43, label %45, !llfi_index !1893

43:                                               ; preds = %33
  %44 = call nonnull align 8 dereferenceable(8) %"class.__gnu_cxx::__normal_iterator"* @_ZN9__gnu_cxx17__normal_iteratorIPiSt6vectorIiSaIiEEEmmEv(%"class.__gnu_cxx::__normal_iterator"* nonnull align 8 dereferenceable(8) %6) #2, !llfi_index !1894
  br label %33, !llvm.loop !1895, !llfi_index !1896

45:                                               ; preds = %33
  %46 = call zeroext i1 @_ZN9__gnu_cxxltIPiSt6vectorIiSaIiEEEEbRKNS_17__normal_iteratorIT_T0_EESA_(%"class.__gnu_cxx::__normal_iterator"* nonnull align 8 dereferenceable(8) %5, %"class.__gnu_cxx::__normal_iterator"* nonnull align 8 dereferenceable(8) %6) #2, !llfi_index !1897
  br i1 %46, label %52, label %47, !llfi_index !1898

47:                                               ; preds = %45
  %48 = bitcast %"class.__gnu_cxx::__normal_iterator"* %4 to i8*, !llfi_index !1899
  %49 = bitcast %"class.__gnu_cxx::__normal_iterator"* %5 to i8*, !llfi_index !1900
  call void @llvm.memcpy.p0i8.p0i8.i64(i8* align 8 %48, i8* align 8 %49, i64 8, i1 false), !llfi_index !1901
  %50 = getelementptr inbounds %"class.__gnu_cxx::__normal_iterator", %"class.__gnu_cxx::__normal_iterator"* %4, i32 0, i32 0, !llfi_index !1902
  %51 = load i32*, i32** %50, align 8, !llfi_index !1903
  ret i32* %51, !llfi_index !1904

52:                                               ; preds = %45
  %53 = bitcast %"class.__gnu_cxx::__normal_iterator"* %13 to i8*, !llfi_index !1905
  %54 = bitcast %"class.__gnu_cxx::__normal_iterator"* %5 to i8*, !llfi_index !1906
  call void @llvm.memcpy.p0i8.p0i8.i64(i8* align 8 %53, i8* align 8 %54, i64 8, i1 false), !llfi_index !1907
  %55 = bitcast %"class.__gnu_cxx::__normal_iterator"* %14 to i8*, !llfi_index !1908
  %56 = bitcast %"class.__gnu_cxx::__normal_iterator"* %6 to i8*, !llfi_index !1909
  call void @llvm.memcpy.p0i8.p0i8.i64(i8* align 8 %55, i8* align 8 %56, i64 8, i1 false), !llfi_index !1910
  %57 = getelementptr inbounds %"class.__gnu_cxx::__normal_iterator", %"class.__gnu_cxx::__normal_iterator"* %13, i32 0, i32 0, !llfi_index !1911
  %58 = load i32*, i32** %57, align 8, !llfi_index !1912
  %59 = getelementptr inbounds %"class.__gnu_cxx::__normal_iterator", %"class.__gnu_cxx::__normal_iterator"* %14, i32 0, i32 0, !llfi_index !1913
  %60 = load i32*, i32** %59, align 8, !llfi_index !1914
  call void @_ZSt9iter_swapIN9__gnu_cxx17__normal_iteratorIPiSt6vectorIiSaIiEEEES6_EvT_T0_(i32* %58, i32* %60), !llfi_index !1915
  %61 = call nonnull align 8 dereferenceable(8) %"class.__gnu_cxx::__normal_iterator"* @_ZN9__gnu_cxx17__normal_iteratorIPiSt6vectorIiSaIiEEEppEv(%"class.__gnu_cxx::__normal_iterator"* nonnull align 8 dereferenceable(8) %5) #2, !llfi_index !1916
  br label %18, !llvm.loop !1917, !llfi_index !1918
}

; Function Attrs: mustprogress noinline nounwind uwtable
define linkonce_odr dso_local zeroext i1 @_ZN9__gnu_cxxltIPiSt6vectorIiSaIiEEEEbRKNS_17__normal_iteratorIT_T0_EESA_(%"class.__gnu_cxx::__normal_iterator"* nonnull align 8 dereferenceable(8) %0, %"class.__gnu_cxx::__normal_iterator"* nonnull align 8 dereferenceable(8) %1) #3 comdat {
  %3 = alloca %"class.__gnu_cxx::__normal_iterator"*, align 8, !llfi_index !1919
  %4 = alloca %"class.__gnu_cxx::__normal_iterator"*, align 8, !llfi_index !1920
  store %"class.__gnu_cxx::__normal_iterator"* %0, %"class.__gnu_cxx::__normal_iterator"** %3, align 8, !llfi_index !1921
  store %"class.__gnu_cxx::__normal_iterator"* %1, %"class.__gnu_cxx::__normal_iterator"** %4, align 8, !llfi_index !1922
  %5 = load %"class.__gnu_cxx::__normal_iterator"*, %"class.__gnu_cxx::__normal_iterator"** %3, align 8, !llfi_index !1923
  %6 = call nonnull align 8 dereferenceable(8) i32** @_ZNK9__gnu_cxx17__normal_iteratorIPiSt6vectorIiSaIiEEE4baseEv(%"class.__gnu_cxx::__normal_iterator"* nonnull align 8 dereferenceable(8) %5) #2, !llfi_index !1924
  %7 = load i32*, i32** %6, align 8, !llfi_index !1925
  %8 = load %"class.__gnu_cxx::__normal_iterator"*, %"class.__gnu_cxx::__normal_iterator"** %4, align 8, !llfi_index !1926
  %9 = call nonnull align 8 dereferenceable(8) i32** @_ZNK9__gnu_cxx17__normal_iteratorIPiSt6vectorIiSaIiEEE4baseEv(%"class.__gnu_cxx::__normal_iterator"* nonnull align 8 dereferenceable(8) %8) #2, !llfi_index !1927
  %10 = load i32*, i32** %9, align 8, !llfi_index !1928
  %11 = icmp ult i32* %7, %10, !llfi_index !1929
  ret i1 %11, !llfi_index !1930
}

; Function Attrs: mustprogress noinline nounwind uwtable
define linkonce_odr dso_local void @_ZSt9iter_swapIN9__gnu_cxx17__normal_iteratorIPiSt6vectorIiSaIiEEEES6_EvT_T0_(i32* %0, i32* %1) #3 comdat {
  %3 = alloca %"class.__gnu_cxx::__normal_iterator", align 8, !llfi_index !1931
  %4 = alloca %"class.__gnu_cxx::__normal_iterator", align 8, !llfi_index !1932
  %5 = getelementptr inbounds %"class.__gnu_cxx::__normal_iterator", %"class.__gnu_cxx::__normal_iterator"* %3, i32 0, i32 0, !llfi_index !1933
  store i32* %0, i32** %5, align 8, !llfi_index !1934
  %6 = getelementptr inbounds %"class.__gnu_cxx::__normal_iterator", %"class.__gnu_cxx::__normal_iterator"* %4, i32 0, i32 0, !llfi_index !1935
  store i32* %1, i32** %6, align 8, !llfi_index !1936
  %7 = call nonnull align 4 dereferenceable(4) i32* @_ZNK9__gnu_cxx17__normal_iteratorIPiSt6vectorIiSaIiEEEdeEv(%"class.__gnu_cxx::__normal_iterator"* nonnull align 8 dereferenceable(8) %3) #2, !llfi_index !1937
  %8 = call nonnull align 4 dereferenceable(4) i32* @_ZNK9__gnu_cxx17__normal_iteratorIPiSt6vectorIiSaIiEEEdeEv(%"class.__gnu_cxx::__normal_iterator"* nonnull align 8 dereferenceable(8) %4) #2, !llfi_index !1938
  call void @_ZSt4swapIiENSt9enable_ifIXsr6__and_ISt6__not_ISt15__is_tuple_likeIT_EESt21is_move_constructibleIS3_ESt18is_move_assignableIS3_EEE5valueEvE4typeERS3_SC_(i32* nonnull align 4 dereferenceable(4) %7, i32* nonnull align 4 dereferenceable(4) %8) #2, !llfi_index !1939
  ret void, !llfi_index !1940
}

; Function Attrs: mustprogress noinline nounwind uwtable
define linkonce_odr dso_local void @_ZSt4swapIiENSt9enable_ifIXsr6__and_ISt6__not_ISt15__is_tuple_likeIT_EESt21is_move_constructibleIS3_ESt18is_move_assignableIS3_EEE5valueEvE4typeERS3_SC_(i32* nonnull align 4 dereferenceable(4) %0, i32* nonnull align 4 dereferenceable(4) %1) #3 comdat {
  %3 = alloca i32*, align 8, !llfi_index !1941
  %4 = alloca i32*, align 8, !llfi_index !1942
  %5 = alloca i32, align 4, !llfi_index !1943
  store i32* %0, i32** %3, align 8, !llfi_index !1944
  store i32* %1, i32** %4, align 8, !llfi_index !1945
  %6 = load i32*, i32** %3, align 8, !llfi_index !1946
  %7 = call nonnull align 4 dereferenceable(4) i32* @_ZSt4moveIRiEONSt16remove_referenceIT_E4typeEOS2_(i32* nonnull align 4 dereferenceable(4) %6) #2, !llfi_index !1947
  %8 = load i32, i32* %7, align 4, !llfi_index !1948
  store i32 %8, i32* %5, align 4, !llfi_index !1949
  %9 = load i32*, i32** %4, align 8, !llfi_index !1950
  %10 = call nonnull align 4 dereferenceable(4) i32* @_ZSt4moveIRiEONSt16remove_referenceIT_E4typeEOS2_(i32* nonnull align 4 dereferenceable(4) %9) #2, !llfi_index !1951
  %11 = load i32, i32* %10, align 4, !llfi_index !1952
  %12 = load i32*, i32** %3, align 8, !llfi_index !1953
  store i32 %11, i32* %12, align 4, !llfi_index !1954
  %13 = call nonnull align 4 dereferenceable(4) i32* @_ZSt4moveIRiEONSt16remove_referenceIT_E4typeEOS2_(i32* nonnull align 4 dereferenceable(4) %5) #2, !llfi_index !1955
  %14 = load i32, i32* %13, align 4, !llfi_index !1956
  %15 = load i32*, i32** %4, align 8, !llfi_index !1957
  store i32 %14, i32* %15, align 4, !llfi_index !1958
  ret void, !llfi_index !1959
}

; Function Attrs: mustprogress noinline uwtable
define linkonce_odr dso_local void @_ZSt13__heap_selectIN9__gnu_cxx17__normal_iteratorIPiSt6vectorIiSaIiEEEENS0_5__ops15_Iter_less_iterEEvT_S9_S9_T0_(i32* %0, i32* %1, i32* %2) #4 comdat {
  %4 = alloca %"class.__gnu_cxx::__normal_iterator", align 8, !llfi_index !1960
  %5 = alloca %"class.__gnu_cxx::__normal_iterator", align 8, !llfi_index !1961
  %6 = alloca %"class.__gnu_cxx::__normal_iterator", align 8, !llfi_index !1962
  %7 = alloca %"class.std::allocator", align 1, !llfi_index !1963
  %8 = alloca %"class.__gnu_cxx::__normal_iterator", align 8, !llfi_index !1964
  %9 = alloca %"class.__gnu_cxx::__normal_iterator", align 8, !llfi_index !1965
  %10 = alloca %"class.__gnu_cxx::__normal_iterator", align 8, !llfi_index !1966
  %11 = alloca %"class.__gnu_cxx::__normal_iterator", align 8, !llfi_index !1967
  %12 = alloca %"class.__gnu_cxx::__normal_iterator", align 8, !llfi_index !1968
  %13 = alloca %"class.__gnu_cxx::__normal_iterator", align 8, !llfi_index !1969
  %14 = alloca %"class.__gnu_cxx::__normal_iterator", align 8, !llfi_index !1970
  %15 = alloca %"class.__gnu_cxx::__normal_iterator", align 8, !llfi_index !1971
  %16 = getelementptr inbounds %"class.__gnu_cxx::__normal_iterator", %"class.__gnu_cxx::__normal_iterator"* %4, i32 0, i32 0, !llfi_index !1972
  store i32* %0, i32** %16, align 8, !llfi_index !1973
  %17 = getelementptr inbounds %"class.__gnu_cxx::__normal_iterator", %"class.__gnu_cxx::__normal_iterator"* %5, i32 0, i32 0, !llfi_index !1974
  store i32* %1, i32** %17, align 8, !llfi_index !1975
  %18 = getelementptr inbounds %"class.__gnu_cxx::__normal_iterator", %"class.__gnu_cxx::__normal_iterator"* %6, i32 0, i32 0, !llfi_index !1976
  store i32* %2, i32** %18, align 8, !llfi_index !1977
  %19 = bitcast %"class.__gnu_cxx::__normal_iterator"* %8 to i8*, !llfi_index !1978
  %20 = bitcast %"class.__gnu_cxx::__normal_iterator"* %4 to i8*, !llfi_index !1979
  call void @llvm.memcpy.p0i8.p0i8.i64(i8* align 8 %19, i8* align 8 %20, i64 8, i1 false), !llfi_index !1980
  %21 = bitcast %"class.__gnu_cxx::__normal_iterator"* %9 to i8*, !llfi_index !1981
  %22 = bitcast %"class.__gnu_cxx::__normal_iterator"* %5 to i8*, !llfi_index !1982
  call void @llvm.memcpy.p0i8.p0i8.i64(i8* align 8 %21, i8* align 8 %22, i64 8, i1 false), !llfi_index !1983
  %23 = getelementptr inbounds %"class.__gnu_cxx::__normal_iterator", %"class.__gnu_cxx::__normal_iterator"* %8, i32 0, i32 0, !llfi_index !1984
  %24 = load i32*, i32** %23, align 8, !llfi_index !1985
  %25 = getelementptr inbounds %"class.__gnu_cxx::__normal_iterator", %"class.__gnu_cxx::__normal_iterator"* %9, i32 0, i32 0, !llfi_index !1986
  %26 = load i32*, i32** %25, align 8, !llfi_index !1987
  call void @_ZSt11__make_heapIN9__gnu_cxx17__normal_iteratorIPiSt6vectorIiSaIiEEEENS0_5__ops15_Iter_less_iterEEvT_S9_RT0_(i32* %24, i32* %26, %"class.std::allocator"* nonnull align 1 dereferenceable(1) %7), !llfi_index !1988
  %27 = bitcast %"class.__gnu_cxx::__normal_iterator"* %10 to i8*, !llfi_index !1989
  %28 = bitcast %"class.__gnu_cxx::__normal_iterator"* %5 to i8*, !llfi_index !1990
  call void @llvm.memcpy.p0i8.p0i8.i64(i8* align 8 %27, i8* align 8 %28, i64 8, i1 false), !llfi_index !1991
  br label %29, !llfi_index !1992

29:                                               ; preds = %55, %3
  %30 = call zeroext i1 @_ZN9__gnu_cxxltIPiSt6vectorIiSaIiEEEEbRKNS_17__normal_iteratorIT_T0_EESA_(%"class.__gnu_cxx::__normal_iterator"* nonnull align 8 dereferenceable(8) %10, %"class.__gnu_cxx::__normal_iterator"* nonnull align 8 dereferenceable(8) %6) #2, !llfi_index !1993
  br i1 %30, label %31, label %57, !llfi_index !1994

31:                                               ; preds = %29
  %32 = bitcast %"class.__gnu_cxx::__normal_iterator"* %11 to i8*, !llfi_index !1995
  %33 = bitcast %"class.__gnu_cxx::__normal_iterator"* %10 to i8*, !llfi_index !1996
  call void @llvm.memcpy.p0i8.p0i8.i64(i8* align 8 %32, i8* align 8 %33, i64 8, i1 false), !llfi_index !1997
  %34 = bitcast %"class.__gnu_cxx::__normal_iterator"* %12 to i8*, !llfi_index !1998
  %35 = bitcast %"class.__gnu_cxx::__normal_iterator"* %4 to i8*, !llfi_index !1999
  call void @llvm.memcpy.p0i8.p0i8.i64(i8* align 8 %34, i8* align 8 %35, i64 8, i1 false), !llfi_index !2000
  %36 = getelementptr inbounds %"class.__gnu_cxx::__normal_iterator", %"class.__gnu_cxx::__normal_iterator"* %11, i32 0, i32 0, !llfi_index !2001
  %37 = load i32*, i32** %36, align 8, !llfi_index !2002
  %38 = getelementptr inbounds %"class.__gnu_cxx::__normal_iterator", %"class.__gnu_cxx::__normal_iterator"* %12, i32 0, i32 0, !llfi_index !2003
  %39 = load i32*, i32** %38, align 8, !llfi_index !2004
  %40 = call zeroext i1 @_ZNK9__gnu_cxx5__ops15_Iter_less_iterclINS_17__normal_iteratorIPiSt6vectorIiSaIiEEEES8_EEbT_T0_(%"class.std::allocator"* nonnull align 1 dereferenceable(1) %7, i32* %37, i32* %39), !llfi_index !2005
  br i1 %40, label %41, label %54, !llfi_index !2006

41:                                               ; preds = %31
  %42 = bitcast %"class.__gnu_cxx::__normal_iterator"* %13 to i8*, !llfi_index !2007
  %43 = bitcast %"class.__gnu_cxx::__normal_iterator"* %4 to i8*, !llfi_index !2008
  call void @llvm.memcpy.p0i8.p0i8.i64(i8* align 8 %42, i8* align 8 %43, i64 8, i1 false), !llfi_index !2009
  %44 = bitcast %"class.__gnu_cxx::__normal_iterator"* %14 to i8*, !llfi_index !2010
  %45 = bitcast %"class.__gnu_cxx::__normal_iterator"* %5 to i8*, !llfi_index !2011
  call void @llvm.memcpy.p0i8.p0i8.i64(i8* align 8 %44, i8* align 8 %45, i64 8, i1 false), !llfi_index !2012
  %46 = bitcast %"class.__gnu_cxx::__normal_iterator"* %15 to i8*, !llfi_index !2013
  %47 = bitcast %"class.__gnu_cxx::__normal_iterator"* %10 to i8*, !llfi_index !2014
  call void @llvm.memcpy.p0i8.p0i8.i64(i8* align 8 %46, i8* align 8 %47, i64 8, i1 false), !llfi_index !2015
  %48 = getelementptr inbounds %"class.__gnu_cxx::__normal_iterator", %"class.__gnu_cxx::__normal_iterator"* %13, i32 0, i32 0, !llfi_index !2016
  %49 = load i32*, i32** %48, align 8, !llfi_index !2017
  %50 = getelementptr inbounds %"class.__gnu_cxx::__normal_iterator", %"class.__gnu_cxx::__normal_iterator"* %14, i32 0, i32 0, !llfi_index !2018
  %51 = load i32*, i32** %50, align 8, !llfi_index !2019
  %52 = getelementptr inbounds %"class.__gnu_cxx::__normal_iterator", %"class.__gnu_cxx::__normal_iterator"* %15, i32 0, i32 0, !llfi_index !2020
  %53 = load i32*, i32** %52, align 8, !llfi_index !2021
  call void @_ZSt10__pop_heapIN9__gnu_cxx17__normal_iteratorIPiSt6vectorIiSaIiEEEENS0_5__ops15_Iter_less_iterEEvT_S9_S9_RT0_(i32* %49, i32* %51, i32* %53, %"class.std::allocator"* nonnull align 1 dereferenceable(1) %7), !llfi_index !2022
  br label %54, !llfi_index !2023

54:                                               ; preds = %41, %31
  br label %55, !llfi_index !2024

55:                                               ; preds = %54
  %56 = call nonnull align 8 dereferenceable(8) %"class.__gnu_cxx::__normal_iterator"* @_ZN9__gnu_cxx17__normal_iteratorIPiSt6vectorIiSaIiEEEppEv(%"class.__gnu_cxx::__normal_iterator"* nonnull align 8 dereferenceable(8) %10) #2, !llfi_index !2025
  br label %29, !llvm.loop !2026, !llfi_index !2027

57:                                               ; preds = %29
  ret void, !llfi_index !2028
}

; Function Attrs: mustprogress noinline uwtable
define linkonce_odr dso_local void @_ZSt11__sort_heapIN9__gnu_cxx17__normal_iteratorIPiSt6vectorIiSaIiEEEENS0_5__ops15_Iter_less_iterEEvT_S9_RT0_(i32* %0, i32* %1, %"class.std::allocator"* nonnull align 1 dereferenceable(1) %2) #4 comdat {
  %4 = alloca %"class.__gnu_cxx::__normal_iterator", align 8, !llfi_index !2029
  %5 = alloca %"class.__gnu_cxx::__normal_iterator", align 8, !llfi_index !2030
  %6 = alloca %"class.std::allocator"*, align 8, !llfi_index !2031
  %7 = alloca %"class.__gnu_cxx::__normal_iterator", align 8, !llfi_index !2032
  %8 = alloca %"class.__gnu_cxx::__normal_iterator", align 8, !llfi_index !2033
  %9 = alloca %"class.__gnu_cxx::__normal_iterator", align 8, !llfi_index !2034
  %10 = getelementptr inbounds %"class.__gnu_cxx::__normal_iterator", %"class.__gnu_cxx::__normal_iterator"* %4, i32 0, i32 0, !llfi_index !2035
  store i32* %0, i32** %10, align 8, !llfi_index !2036
  %11 = getelementptr inbounds %"class.__gnu_cxx::__normal_iterator", %"class.__gnu_cxx::__normal_iterator"* %5, i32 0, i32 0, !llfi_index !2037
  store i32* %1, i32** %11, align 8, !llfi_index !2038
  store %"class.std::allocator"* %2, %"class.std::allocator"** %6, align 8, !llfi_index !2039
  br label %12, !llfi_index !2040

12:                                               ; preds = %15, %3
  %13 = call i64 @_ZN9__gnu_cxxmiIPiSt6vectorIiSaIiEEEENS_17__normal_iteratorIT_T0_E15difference_typeERKS8_SB_(%"class.__gnu_cxx::__normal_iterator"* nonnull align 8 dereferenceable(8) %5, %"class.__gnu_cxx::__normal_iterator"* nonnull align 8 dereferenceable(8) %4) #2, !llfi_index !2041
  %14 = icmp sgt i64 %13, 1, !llfi_index !2042
  br i1 %14, label %15, label %30, !llfi_index !2043

15:                                               ; preds = %12
  %16 = call nonnull align 8 dereferenceable(8) %"class.__gnu_cxx::__normal_iterator"* @_ZN9__gnu_cxx17__normal_iteratorIPiSt6vectorIiSaIiEEEmmEv(%"class.__gnu_cxx::__normal_iterator"* nonnull align 8 dereferenceable(8) %5) #2, !llfi_index !2044
  %17 = bitcast %"class.__gnu_cxx::__normal_iterator"* %7 to i8*, !llfi_index !2045
  %18 = bitcast %"class.__gnu_cxx::__normal_iterator"* %4 to i8*, !llfi_index !2046
  call void @llvm.memcpy.p0i8.p0i8.i64(i8* align 8 %17, i8* align 8 %18, i64 8, i1 false), !llfi_index !2047
  %19 = bitcast %"class.__gnu_cxx::__normal_iterator"* %8 to i8*, !llfi_index !2048
  %20 = bitcast %"class.__gnu_cxx::__normal_iterator"* %5 to i8*, !llfi_index !2049
  call void @llvm.memcpy.p0i8.p0i8.i64(i8* align 8 %19, i8* align 8 %20, i64 8, i1 false), !llfi_index !2050
  %21 = bitcast %"class.__gnu_cxx::__normal_iterator"* %9 to i8*, !llfi_index !2051
  %22 = bitcast %"class.__gnu_cxx::__normal_iterator"* %5 to i8*, !llfi_index !2052
  call void @llvm.memcpy.p0i8.p0i8.i64(i8* align 8 %21, i8* align 8 %22, i64 8, i1 false), !llfi_index !2053
  %23 = load %"class.std::allocator"*, %"class.std::allocator"** %6, align 8, !llfi_index !2054
  %24 = getelementptr inbounds %"class.__gnu_cxx::__normal_iterator", %"class.__gnu_cxx::__normal_iterator"* %7, i32 0, i32 0, !llfi_index !2055
  %25 = load i32*, i32** %24, align 8, !llfi_index !2056
  %26 = getelementptr inbounds %"class.__gnu_cxx::__normal_iterator", %"class.__gnu_cxx::__normal_iterator"* %8, i32 0, i32 0, !llfi_index !2057
  %27 = load i32*, i32** %26, align 8, !llfi_index !2058
  %28 = getelementptr inbounds %"class.__gnu_cxx::__normal_iterator", %"class.__gnu_cxx::__normal_iterator"* %9, i32 0, i32 0, !llfi_index !2059
  %29 = load i32*, i32** %28, align 8, !llfi_index !2060
  call void @_ZSt10__pop_heapIN9__gnu_cxx17__normal_iteratorIPiSt6vectorIiSaIiEEEENS0_5__ops15_Iter_less_iterEEvT_S9_S9_RT0_(i32* %25, i32* %27, i32* %29, %"class.std::allocator"* nonnull align 1 dereferenceable(1) %23), !llfi_index !2061
  br label %12, !llvm.loop !2062, !llfi_index !2063

30:                                               ; preds = %12
  ret void, !llfi_index !2064
}

; Function Attrs: mustprogress noinline uwtable
define linkonce_odr dso_local void @_ZSt10__pop_heapIN9__gnu_cxx17__normal_iteratorIPiSt6vectorIiSaIiEEEENS0_5__ops15_Iter_less_iterEEvT_S9_S9_RT0_(i32* %0, i32* %1, i32* %2, %"class.std::allocator"* nonnull align 1 dereferenceable(1) %3) #4 comdat {
  %5 = alloca %"class.__gnu_cxx::__normal_iterator", align 8, !llfi_index !2065
  %6 = alloca %"class.__gnu_cxx::__normal_iterator", align 8, !llfi_index !2066
  %7 = alloca %"class.__gnu_cxx::__normal_iterator", align 8, !llfi_index !2067
  %8 = alloca %"class.std::allocator"*, align 8, !llfi_index !2068
  %9 = alloca i32, align 4, !llfi_index !2069
  %10 = alloca %"class.__gnu_cxx::__normal_iterator", align 8, !llfi_index !2070
  %11 = alloca %"class.std::allocator", align 1, !llfi_index !2071
  %12 = getelementptr inbounds %"class.__gnu_cxx::__normal_iterator", %"class.__gnu_cxx::__normal_iterator"* %5, i32 0, i32 0, !llfi_index !2072
  store i32* %0, i32** %12, align 8, !llfi_index !2073
  %13 = getelementptr inbounds %"class.__gnu_cxx::__normal_iterator", %"class.__gnu_cxx::__normal_iterator"* %6, i32 0, i32 0, !llfi_index !2074
  store i32* %1, i32** %13, align 8, !llfi_index !2075
  %14 = getelementptr inbounds %"class.__gnu_cxx::__normal_iterator", %"class.__gnu_cxx::__normal_iterator"* %7, i32 0, i32 0, !llfi_index !2076
  store i32* %2, i32** %14, align 8, !llfi_index !2077
  store %"class.std::allocator"* %3, %"class.std::allocator"** %8, align 8, !llfi_index !2078
  %15 = call nonnull align 4 dereferenceable(4) i32* @_ZNK9__gnu_cxx17__normal_iteratorIPiSt6vectorIiSaIiEEEdeEv(%"class.__gnu_cxx::__normal_iterator"* nonnull align 8 dereferenceable(8) %7) #2, !llfi_index !2079
  %16 = call nonnull align 4 dereferenceable(4) i32* @_ZSt4moveIRiEONSt16remove_referenceIT_E4typeEOS2_(i32* nonnull align 4 dereferenceable(4) %15) #2, !llfi_index !2080
  %17 = load i32, i32* %16, align 4, !llfi_index !2081
  store i32 %17, i32* %9, align 4, !llfi_index !2082
  %18 = call nonnull align 4 dereferenceable(4) i32* @_ZNK9__gnu_cxx17__normal_iteratorIPiSt6vectorIiSaIiEEEdeEv(%"class.__gnu_cxx::__normal_iterator"* nonnull align 8 dereferenceable(8) %5) #2, !llfi_index !2083
  %19 = call nonnull align 4 dereferenceable(4) i32* @_ZSt4moveIRiEONSt16remove_referenceIT_E4typeEOS2_(i32* nonnull align 4 dereferenceable(4) %18) #2, !llfi_index !2084
  %20 = load i32, i32* %19, align 4, !llfi_index !2085
  %21 = call nonnull align 4 dereferenceable(4) i32* @_ZNK9__gnu_cxx17__normal_iteratorIPiSt6vectorIiSaIiEEEdeEv(%"class.__gnu_cxx::__normal_iterator"* nonnull align 8 dereferenceable(8) %7) #2, !llfi_index !2086
  store i32 %20, i32* %21, align 4, !llfi_index !2087
  %22 = bitcast %"class.__gnu_cxx::__normal_iterator"* %10 to i8*, !llfi_index !2088
  %23 = bitcast %"class.__gnu_cxx::__normal_iterator"* %5 to i8*, !llfi_index !2089
  call void @llvm.memcpy.p0i8.p0i8.i64(i8* align 8 %22, i8* align 8 %23, i64 8, i1 false), !llfi_index !2090
  %24 = call i64 @_ZN9__gnu_cxxmiIPiSt6vectorIiSaIiEEEENS_17__normal_iteratorIT_T0_E15difference_typeERKS8_SB_(%"class.__gnu_cxx::__normal_iterator"* nonnull align 8 dereferenceable(8) %6, %"class.__gnu_cxx::__normal_iterator"* nonnull align 8 dereferenceable(8) %5) #2, !llfi_index !2091
  %25 = call nonnull align 4 dereferenceable(4) i32* @_ZSt4moveIRiEONSt16remove_referenceIT_E4typeEOS2_(i32* nonnull align 4 dereferenceable(4) %9) #2, !llfi_index !2092
  %26 = load i32, i32* %25, align 4, !llfi_index !2093
  %27 = load %"class.std::allocator"*, %"class.std::allocator"** %8, align 8, !llfi_index !2094
  %28 = getelementptr inbounds %"class.__gnu_cxx::__normal_iterator", %"class.__gnu_cxx::__normal_iterator"* %10, i32 0, i32 0, !llfi_index !2095
  %29 = load i32*, i32** %28, align 8, !llfi_index !2096
  call void @_ZSt13__adjust_heapIN9__gnu_cxx17__normal_iteratorIPiSt6vectorIiSaIiEEEEliNS0_5__ops15_Iter_less_iterEEvT_T0_SA_T1_T2_(i32* %29, i64 0, i64 %24, i32 %26), !llfi_index !2097
  ret void, !llfi_index !2098
}

; Function Attrs: mustprogress noinline uwtable
define linkonce_odr dso_local void @_ZSt13__adjust_heapIN9__gnu_cxx17__normal_iteratorIPiSt6vectorIiSaIiEEEEliNS0_5__ops15_Iter_less_iterEEvT_T0_SA_T1_T2_(i32* %0, i64 %1, i64 %2, i32 %3) #4 comdat {
  %5 = alloca %"class.__gnu_cxx::__normal_iterator", align 8, !llfi_index !2099
  %6 = alloca %"class.std::allocator", align 1, !llfi_index !2100
  %7 = alloca i64, align 8, !llfi_index !2101
  %8 = alloca i64, align 8, !llfi_index !2102
  %9 = alloca i32, align 4, !llfi_index !2103
  %10 = alloca i64, align 8, !llfi_index !2104
  %11 = alloca i64, align 8, !llfi_index !2105
  %12 = alloca %"class.__gnu_cxx::__normal_iterator", align 8, !llfi_index !2106
  %13 = alloca %"class.__gnu_cxx::__normal_iterator", align 8, !llfi_index !2107
  %14 = alloca %"class.__gnu_cxx::__normal_iterator", align 8, !llfi_index !2108
  %15 = alloca %"class.__gnu_cxx::__normal_iterator", align 8, !llfi_index !2109
  %16 = alloca %"class.__gnu_cxx::__normal_iterator", align 8, !llfi_index !2110
  %17 = alloca %"class.__gnu_cxx::__normal_iterator", align 8, !llfi_index !2111
  %18 = alloca %"class.std::allocator", align 1, !llfi_index !2112
  %19 = alloca %"class.std::allocator", align 1, !llfi_index !2113
  %20 = alloca %"class.__gnu_cxx::__normal_iterator", align 8, !llfi_index !2114
  %21 = getelementptr inbounds %"class.__gnu_cxx::__normal_iterator", %"class.__gnu_cxx::__normal_iterator"* %5, i32 0, i32 0, !llfi_index !2115
  store i32* %0, i32** %21, align 8, !llfi_index !2116
  store i64 %1, i64* %7, align 8, !llfi_index !2117
  store i64 %2, i64* %8, align 8, !llfi_index !2118
  store i32 %3, i32* %9, align 4, !llfi_index !2119
  %22 = load i64, i64* %7, align 8, !llfi_index !2120
  store i64 %22, i64* %10, align 8, !llfi_index !2121
  %23 = load i64, i64* %7, align 8, !llfi_index !2122
  store i64 %23, i64* %11, align 8, !llfi_index !2123
  br label %24, !llfi_index !2124

24:                                               ; preds = %49, %4
  %25 = load i64, i64* %11, align 8, !llfi_index !2125
  %26 = load i64, i64* %8, align 8, !llfi_index !2126
  %27 = sub nsw i64 %26, 1, !llfi_index !2127
  %28 = sdiv i64 %27, 2, !llfi_index !2128
  %29 = icmp slt i64 %25, %28, !llfi_index !2129
  br i1 %29, label %30, label %61, !llfi_index !2130

30:                                               ; preds = %24
  %31 = load i64, i64* %11, align 8, !llfi_index !2131
  %32 = add nsw i64 %31, 1, !llfi_index !2132
  %33 = mul nsw i64 2, %32, !llfi_index !2133
  store i64 %33, i64* %11, align 8, !llfi_index !2134
  %34 = load i64, i64* %11, align 8, !llfi_index !2135
  %35 = call i32* @_ZNK9__gnu_cxx17__normal_iteratorIPiSt6vectorIiSaIiEEEplEl(%"class.__gnu_cxx::__normal_iterator"* nonnull align 8 dereferenceable(8) %5, i64 %34) #2, !llfi_index !2136
  %36 = getelementptr inbounds %"class.__gnu_cxx::__normal_iterator", %"class.__gnu_cxx::__normal_iterator"* %12, i32 0, i32 0, !llfi_index !2137
  store i32* %35, i32** %36, align 8, !llfi_index !2138
  %37 = load i64, i64* %11, align 8, !llfi_index !2139
  %38 = sub nsw i64 %37, 1, !llfi_index !2140
  %39 = call i32* @_ZNK9__gnu_cxx17__normal_iteratorIPiSt6vectorIiSaIiEEEplEl(%"class.__gnu_cxx::__normal_iterator"* nonnull align 8 dereferenceable(8) %5, i64 %38) #2, !llfi_index !2141
  %40 = getelementptr inbounds %"class.__gnu_cxx::__normal_iterator", %"class.__gnu_cxx::__normal_iterator"* %13, i32 0, i32 0, !llfi_index !2142
  store i32* %39, i32** %40, align 8, !llfi_index !2143
  %41 = getelementptr inbounds %"class.__gnu_cxx::__normal_iterator", %"class.__gnu_cxx::__normal_iterator"* %12, i32 0, i32 0, !llfi_index !2144
  %42 = load i32*, i32** %41, align 8, !llfi_index !2145
  %43 = getelementptr inbounds %"class.__gnu_cxx::__normal_iterator", %"class.__gnu_cxx::__normal_iterator"* %13, i32 0, i32 0, !llfi_index !2146
  %44 = load i32*, i32** %43, align 8, !llfi_index !2147
  %45 = call zeroext i1 @_ZNK9__gnu_cxx5__ops15_Iter_less_iterclINS_17__normal_iteratorIPiSt6vectorIiSaIiEEEES8_EEbT_T0_(%"class.std::allocator"* nonnull align 1 dereferenceable(1) %6, i32* %42, i32* %44), !llfi_index !2148
  br i1 %45, label %46, label %49, !llfi_index !2149

46:                                               ; preds = %30
  %47 = load i64, i64* %11, align 8, !llfi_index !2150
  %48 = add nsw i64 %47, -1, !llfi_index !2151
  store i64 %48, i64* %11, align 8, !llfi_index !2152
  br label %49, !llfi_index !2153

49:                                               ; preds = %46, %30
  %50 = load i64, i64* %11, align 8, !llfi_index !2154
  %51 = call i32* @_ZNK9__gnu_cxx17__normal_iteratorIPiSt6vectorIiSaIiEEEplEl(%"class.__gnu_cxx::__normal_iterator"* nonnull align 8 dereferenceable(8) %5, i64 %50) #2, !llfi_index !2155
  %52 = getelementptr inbounds %"class.__gnu_cxx::__normal_iterator", %"class.__gnu_cxx::__normal_iterator"* %14, i32 0, i32 0, !llfi_index !2156
  store i32* %51, i32** %52, align 8, !llfi_index !2157
  %53 = call nonnull align 4 dereferenceable(4) i32* @_ZNK9__gnu_cxx17__normal_iteratorIPiSt6vectorIiSaIiEEEdeEv(%"class.__gnu_cxx::__normal_iterator"* nonnull align 8 dereferenceable(8) %14) #2, !llfi_index !2158
  %54 = call nonnull align 4 dereferenceable(4) i32* @_ZSt4moveIRiEONSt16remove_referenceIT_E4typeEOS2_(i32* nonnull align 4 dereferenceable(4) %53) #2, !llfi_index !2159
  %55 = load i32, i32* %54, align 4, !llfi_index !2160
  %56 = load i64, i64* %7, align 8, !llfi_index !2161
  %57 = call i32* @_ZNK9__gnu_cxx17__normal_iteratorIPiSt6vectorIiSaIiEEEplEl(%"class.__gnu_cxx::__normal_iterator"* nonnull align 8 dereferenceable(8) %5, i64 %56) #2, !llfi_index !2162
  %58 = getelementptr inbounds %"class.__gnu_cxx::__normal_iterator", %"class.__gnu_cxx::__normal_iterator"* %15, i32 0, i32 0, !llfi_index !2163
  store i32* %57, i32** %58, align 8, !llfi_index !2164
  %59 = call nonnull align 4 dereferenceable(4) i32* @_ZNK9__gnu_cxx17__normal_iteratorIPiSt6vectorIiSaIiEEEdeEv(%"class.__gnu_cxx::__normal_iterator"* nonnull align 8 dereferenceable(8) %15) #2, !llfi_index !2165
  store i32 %55, i32* %59, align 4, !llfi_index !2166
  %60 = load i64, i64* %11, align 8, !llfi_index !2167
  store i64 %60, i64* %7, align 8, !llfi_index !2168
  br label %24, !llvm.loop !2169, !llfi_index !2170

61:                                               ; preds = %24
  %62 = load i64, i64* %8, align 8, !llfi_index !2171
  %63 = and i64 %62, 1, !llfi_index !2172
  %64 = icmp eq i64 %63, 0, !llfi_index !2173
  br i1 %64, label %65, label %88, !llfi_index !2174

65:                                               ; preds = %61
  %66 = load i64, i64* %11, align 8, !llfi_index !2175
  %67 = load i64, i64* %8, align 8, !llfi_index !2176
  %68 = sub nsw i64 %67, 2, !llfi_index !2177
  %69 = sdiv i64 %68, 2, !llfi_index !2178
  %70 = icmp eq i64 %66, %69, !llfi_index !2179
  br i1 %70, label %71, label %88, !llfi_index !2180

71:                                               ; preds = %65
  %72 = load i64, i64* %11, align 8, !llfi_index !2181
  %73 = add nsw i64 %72, 1, !llfi_index !2182
  %74 = mul nsw i64 2, %73, !llfi_index !2183
  store i64 %74, i64* %11, align 8, !llfi_index !2184
  %75 = load i64, i64* %11, align 8, !llfi_index !2185
  %76 = sub nsw i64 %75, 1, !llfi_index !2186
  %77 = call i32* @_ZNK9__gnu_cxx17__normal_iteratorIPiSt6vectorIiSaIiEEEplEl(%"class.__gnu_cxx::__normal_iterator"* nonnull align 8 dereferenceable(8) %5, i64 %76) #2, !llfi_index !2187
  %78 = getelementptr inbounds %"class.__gnu_cxx::__normal_iterator", %"class.__gnu_cxx::__normal_iterator"* %16, i32 0, i32 0, !llfi_index !2188
  store i32* %77, i32** %78, align 8, !llfi_index !2189
  %79 = call nonnull align 4 dereferenceable(4) i32* @_ZNK9__gnu_cxx17__normal_iteratorIPiSt6vectorIiSaIiEEEdeEv(%"class.__gnu_cxx::__normal_iterator"* nonnull align 8 dereferenceable(8) %16) #2, !llfi_index !2190
  %80 = call nonnull align 4 dereferenceable(4) i32* @_ZSt4moveIRiEONSt16remove_referenceIT_E4typeEOS2_(i32* nonnull align 4 dereferenceable(4) %79) #2, !llfi_index !2191
  %81 = load i32, i32* %80, align 4, !llfi_index !2192
  %82 = load i64, i64* %7, align 8, !llfi_index !2193
  %83 = call i32* @_ZNK9__gnu_cxx17__normal_iteratorIPiSt6vectorIiSaIiEEEplEl(%"class.__gnu_cxx::__normal_iterator"* nonnull align 8 dereferenceable(8) %5, i64 %82) #2, !llfi_index !2194
  %84 = getelementptr inbounds %"class.__gnu_cxx::__normal_iterator", %"class.__gnu_cxx::__normal_iterator"* %17, i32 0, i32 0, !llfi_index !2195
  store i32* %83, i32** %84, align 8, !llfi_index !2196
  %85 = call nonnull align 4 dereferenceable(4) i32* @_ZNK9__gnu_cxx17__normal_iteratorIPiSt6vectorIiSaIiEEEdeEv(%"class.__gnu_cxx::__normal_iterator"* nonnull align 8 dereferenceable(8) %17) #2, !llfi_index !2197
  store i32 %81, i32* %85, align 4, !llfi_index !2198
  %86 = load i64, i64* %11, align 8, !llfi_index !2199
  %87 = sub nsw i64 %86, 1, !llfi_index !2200
  store i64 %87, i64* %7, align 8, !llfi_index !2201
  br label %88, !llfi_index !2202

88:                                               ; preds = %71, %65, %61
  %89 = call nonnull align 1 dereferenceable(1) %"class.std::allocator"* @_ZSt4moveIRN9__gnu_cxx5__ops15_Iter_less_iterEEONSt16remove_referenceIT_E4typeEOS5_(%"class.std::allocator"* nonnull align 1 dereferenceable(1) %6) #2, !llfi_index !2203
  call void @_ZN9__gnu_cxx5__ops14_Iter_less_valC2ENS0_15_Iter_less_iterE(%"class.std::allocator"* nonnull align 1 dereferenceable(1) %18), !llfi_index !2204
  %90 = bitcast %"class.__gnu_cxx::__normal_iterator"* %20 to i8*, !llfi_index !2205
  %91 = bitcast %"class.__gnu_cxx::__normal_iterator"* %5 to i8*, !llfi_index !2206
  call void @llvm.memcpy.p0i8.p0i8.i64(i8* align 8 %90, i8* align 8 %91, i64 8, i1 false), !llfi_index !2207
  %92 = load i64, i64* %7, align 8, !llfi_index !2208
  %93 = load i64, i64* %10, align 8, !llfi_index !2209
  %94 = call nonnull align 4 dereferenceable(4) i32* @_ZSt4moveIRiEONSt16remove_referenceIT_E4typeEOS2_(i32* nonnull align 4 dereferenceable(4) %9) #2, !llfi_index !2210
  %95 = load i32, i32* %94, align 4, !llfi_index !2211
  %96 = getelementptr inbounds %"class.__gnu_cxx::__normal_iterator", %"class.__gnu_cxx::__normal_iterator"* %20, i32 0, i32 0, !llfi_index !2212
  %97 = load i32*, i32** %96, align 8, !llfi_index !2213
  call void @_ZSt11__push_heapIN9__gnu_cxx17__normal_iteratorIPiSt6vectorIiSaIiEEEEliNS0_5__ops14_Iter_less_valEEvT_T0_SA_T1_RT2_(i32* %97, i64 %92, i64 %93, i32 %95, %"class.std::allocator"* nonnull align 1 dereferenceable(1) %18), !llfi_index !2214
  ret void, !llfi_index !2215
}

; Function Attrs: mustprogress noinline nounwind uwtable
define linkonce_odr dso_local nonnull align 1 dereferenceable(1) %"class.std::allocator"* @_ZSt4moveIRN9__gnu_cxx5__ops15_Iter_less_iterEEONSt16remove_referenceIT_E4typeEOS5_(%"class.std::allocator"* nonnull align 1 dereferenceable(1) %0) #3 comdat {
  %2 = alloca %"class.std::allocator"*, align 8, !llfi_index !2216
  store %"class.std::allocator"* %0, %"class.std::allocator"** %2, align 8, !llfi_index !2217
  %3 = load %"class.std::allocator"*, %"class.std::allocator"** %2, align 8, !llfi_index !2218
  ret %"class.std::allocator"* %3, !llfi_index !2219
}

; Function Attrs: noinline nounwind uwtable
define linkonce_odr dso_local void @_ZN9__gnu_cxx5__ops14_Iter_less_valC2ENS0_15_Iter_less_iterE(%"class.std::allocator"* nonnull align 1 dereferenceable(1) %0) unnamed_addr #1 comdat align 2 {
  %2 = alloca %"class.std::allocator", align 1, !llfi_index !2220
  %3 = alloca %"class.std::allocator"*, align 8, !llfi_index !2221
  store %"class.std::allocator"* %0, %"class.std::allocator"** %3, align 8, !llfi_index !2222
  %4 = load %"class.std::allocator"*, %"class.std::allocator"** %3, align 8, !llfi_index !2223
  ret void, !llfi_index !2224
}

; Function Attrs: mustprogress noinline uwtable
define linkonce_odr dso_local void @_ZSt11__push_heapIN9__gnu_cxx17__normal_iteratorIPiSt6vectorIiSaIiEEEEliNS0_5__ops14_Iter_less_valEEvT_T0_SA_T1_RT2_(i32* %0, i64 %1, i64 %2, i32 %3, %"class.std::allocator"* nonnull align 1 dereferenceable(1) %4) #4 comdat {
  %6 = alloca %"class.__gnu_cxx::__normal_iterator", align 8, !llfi_index !2225
  %7 = alloca i64, align 8, !llfi_index !2226
  %8 = alloca i64, align 8, !llfi_index !2227
  %9 = alloca i32, align 4, !llfi_index !2228
  %10 = alloca %"class.std::allocator"*, align 8, !llfi_index !2229
  %11 = alloca i64, align 8, !llfi_index !2230
  %12 = alloca %"class.__gnu_cxx::__normal_iterator", align 8, !llfi_index !2231
  %13 = alloca %"class.__gnu_cxx::__normal_iterator", align 8, !llfi_index !2232
  %14 = alloca %"class.__gnu_cxx::__normal_iterator", align 8, !llfi_index !2233
  %15 = alloca %"class.__gnu_cxx::__normal_iterator", align 8, !llfi_index !2234
  %16 = getelementptr inbounds %"class.__gnu_cxx::__normal_iterator", %"class.__gnu_cxx::__normal_iterator"* %6, i32 0, i32 0, !llfi_index !2235
  store i32* %0, i32** %16, align 8, !llfi_index !2236
  store i64 %1, i64* %7, align 8, !llfi_index !2237
  store i64 %2, i64* %8, align 8, !llfi_index !2238
  store i32 %3, i32* %9, align 4, !llfi_index !2239
  store %"class.std::allocator"* %4, %"class.std::allocator"** %10, align 8, !llfi_index !2240
  %17 = load i64, i64* %7, align 8, !llfi_index !2241
  %18 = sub nsw i64 %17, 1, !llfi_index !2242
  %19 = sdiv i64 %18, 2, !llfi_index !2243
  store i64 %19, i64* %11, align 8, !llfi_index !2244
  br label %20, !llfi_index !2245

20:                                               ; preds = %34, %5
  %21 = load i64, i64* %7, align 8, !llfi_index !2246
  %22 = load i64, i64* %8, align 8, !llfi_index !2247
  %23 = icmp sgt i64 %21, %22, !llfi_index !2248
  br i1 %23, label %24, label %32, !llfi_index !2249

24:                                               ; preds = %20
  %25 = load %"class.std::allocator"*, %"class.std::allocator"** %10, align 8, !llfi_index !2250
  %26 = load i64, i64* %11, align 8, !llfi_index !2251
  %27 = call i32* @_ZNK9__gnu_cxx17__normal_iteratorIPiSt6vectorIiSaIiEEEplEl(%"class.__gnu_cxx::__normal_iterator"* nonnull align 8 dereferenceable(8) %6, i64 %26) #2, !llfi_index !2252
  %28 = getelementptr inbounds %"class.__gnu_cxx::__normal_iterator", %"class.__gnu_cxx::__normal_iterator"* %12, i32 0, i32 0, !llfi_index !2253
  store i32* %27, i32** %28, align 8, !llfi_index !2254
  %29 = getelementptr inbounds %"class.__gnu_cxx::__normal_iterator", %"class.__gnu_cxx::__normal_iterator"* %12, i32 0, i32 0, !llfi_index !2255
  %30 = load i32*, i32** %29, align 8, !llfi_index !2256
  %31 = call zeroext i1 @_ZNK9__gnu_cxx5__ops14_Iter_less_valclINS_17__normal_iteratorIPiSt6vectorIiSaIiEEEEiEEbT_RT0_(%"class.std::allocator"* nonnull align 1 dereferenceable(1) %25, i32* %30, i32* nonnull align 4 dereferenceable(4) %9), !llfi_index !2257
  br label %32, !llfi_index !2258

32:                                               ; preds = %24, %20
  %33 = phi i1 [ false, %20 ], [ %31, %24 ], !llfi_index !2259
  br i1 %33, label %34, label %49, !llfi_index !2260

34:                                               ; preds = %32
  %35 = load i64, i64* %11, align 8, !llfi_index !2261
  %36 = call i32* @_ZNK9__gnu_cxx17__normal_iteratorIPiSt6vectorIiSaIiEEEplEl(%"class.__gnu_cxx::__normal_iterator"* nonnull align 8 dereferenceable(8) %6, i64 %35) #2, !llfi_index !2262
  %37 = getelementptr inbounds %"class.__gnu_cxx::__normal_iterator", %"class.__gnu_cxx::__normal_iterator"* %13, i32 0, i32 0, !llfi_index !2263
  store i32* %36, i32** %37, align 8, !llfi_index !2264
  %38 = call nonnull align 4 dereferenceable(4) i32* @_ZNK9__gnu_cxx17__normal_iteratorIPiSt6vectorIiSaIiEEEdeEv(%"class.__gnu_cxx::__normal_iterator"* nonnull align 8 dereferenceable(8) %13) #2, !llfi_index !2265
  %39 = call nonnull align 4 dereferenceable(4) i32* @_ZSt4moveIRiEONSt16remove_referenceIT_E4typeEOS2_(i32* nonnull align 4 dereferenceable(4) %38) #2, !llfi_index !2266
  %40 = load i32, i32* %39, align 4, !llfi_index !2267
  %41 = load i64, i64* %7, align 8, !llfi_index !2268
  %42 = call i32* @_ZNK9__gnu_cxx17__normal_iteratorIPiSt6vectorIiSaIiEEEplEl(%"class.__gnu_cxx::__normal_iterator"* nonnull align 8 dereferenceable(8) %6, i64 %41) #2, !llfi_index !2269
  %43 = getelementptr inbounds %"class.__gnu_cxx::__normal_iterator", %"class.__gnu_cxx::__normal_iterator"* %14, i32 0, i32 0, !llfi_index !2270
  store i32* %42, i32** %43, align 8, !llfi_index !2271
  %44 = call nonnull align 4 dereferenceable(4) i32* @_ZNK9__gnu_cxx17__normal_iteratorIPiSt6vectorIiSaIiEEEdeEv(%"class.__gnu_cxx::__normal_iterator"* nonnull align 8 dereferenceable(8) %14) #2, !llfi_index !2272
  store i32 %40, i32* %44, align 4, !llfi_index !2273
  %45 = load i64, i64* %11, align 8, !llfi_index !2274
  store i64 %45, i64* %7, align 8, !llfi_index !2275
  %46 = load i64, i64* %7, align 8, !llfi_index !2276
  %47 = sub nsw i64 %46, 1, !llfi_index !2277
  %48 = sdiv i64 %47, 2, !llfi_index !2278
  store i64 %48, i64* %11, align 8, !llfi_index !2279
  br label %20, !llvm.loop !2280, !llfi_index !2281

49:                                               ; preds = %32
  %50 = call nonnull align 4 dereferenceable(4) i32* @_ZSt4moveIRiEONSt16remove_referenceIT_E4typeEOS2_(i32* nonnull align 4 dereferenceable(4) %9) #2, !llfi_index !2282
  %51 = load i32, i32* %50, align 4, !llfi_index !2283
  %52 = load i64, i64* %7, align 8, !llfi_index !2284
  %53 = call i32* @_ZNK9__gnu_cxx17__normal_iteratorIPiSt6vectorIiSaIiEEEplEl(%"class.__gnu_cxx::__normal_iterator"* nonnull align 8 dereferenceable(8) %6, i64 %52) #2, !llfi_index !2285
  %54 = getelementptr inbounds %"class.__gnu_cxx::__normal_iterator", %"class.__gnu_cxx::__normal_iterator"* %15, i32 0, i32 0, !llfi_index !2286
  store i32* %53, i32** %54, align 8, !llfi_index !2287
  %55 = call nonnull align 4 dereferenceable(4) i32* @_ZNK9__gnu_cxx17__normal_iteratorIPiSt6vectorIiSaIiEEEdeEv(%"class.__gnu_cxx::__normal_iterator"* nonnull align 8 dereferenceable(8) %15) #2, !llfi_index !2288
  store i32 %51, i32* %55, align 4, !llfi_index !2289
  ret void, !llfi_index !2290
}

; Function Attrs: mustprogress noinline nounwind uwtable
define linkonce_odr dso_local zeroext i1 @_ZNK9__gnu_cxx5__ops14_Iter_less_valclINS_17__normal_iteratorIPiSt6vectorIiSaIiEEEEiEEbT_RT0_(%"class.std::allocator"* nonnull align 1 dereferenceable(1) %0, i32* %1, i32* nonnull align 4 dereferenceable(4) %2) #3 comdat align 2 {
  %4 = alloca %"class.__gnu_cxx::__normal_iterator", align 8, !llfi_index !2291
  %5 = alloca %"class.std::allocator"*, align 8, !llfi_index !2292
  %6 = alloca i32*, align 8, !llfi_index !2293
  %7 = getelementptr inbounds %"class.__gnu_cxx::__normal_iterator", %"class.__gnu_cxx::__normal_iterator"* %4, i32 0, i32 0, !llfi_index !2294
  store i32* %1, i32** %7, align 8, !llfi_index !2295
  store %"class.std::allocator"* %0, %"class.std::allocator"** %5, align 8, !llfi_index !2296
  store i32* %2, i32** %6, align 8, !llfi_index !2297
  %8 = load %"class.std::allocator"*, %"class.std::allocator"** %5, align 8, !llfi_index !2298
  %9 = call nonnull align 4 dereferenceable(4) i32* @_ZNK9__gnu_cxx17__normal_iteratorIPiSt6vectorIiSaIiEEEdeEv(%"class.__gnu_cxx::__normal_iterator"* nonnull align 8 dereferenceable(8) %4) #2, !llfi_index !2299
  %10 = load i32, i32* %9, align 4, !llfi_index !2300
  %11 = load i32*, i32** %6, align 8, !llfi_index !2301
  %12 = load i32, i32* %11, align 4, !llfi_index !2302
  %13 = icmp slt i32 %10, %12, !llfi_index !2303
  ret i1 %13, !llfi_index !2304
}

; Function Attrs: mustprogress noinline uwtable
define linkonce_odr dso_local void @_ZSt11__make_heapIN9__gnu_cxx17__normal_iteratorIPiSt6vectorIiSaIiEEEENS0_5__ops15_Iter_less_iterEEvT_S9_RT0_(i32* %0, i32* %1, %"class.std::allocator"* nonnull align 1 dereferenceable(1) %2) #4 comdat {
  %4 = alloca %"class.__gnu_cxx::__normal_iterator", align 8, !llfi_index !2305
  %5 = alloca %"class.__gnu_cxx::__normal_iterator", align 8, !llfi_index !2306
  %6 = alloca %"class.std::allocator"*, align 8, !llfi_index !2307
  %7 = alloca i64, align 8, !llfi_index !2308
  %8 = alloca i64, align 8, !llfi_index !2309
  %9 = alloca i32, align 4, !llfi_index !2310
  %10 = alloca %"class.__gnu_cxx::__normal_iterator", align 8, !llfi_index !2311
  %11 = alloca %"class.__gnu_cxx::__normal_iterator", align 8, !llfi_index !2312
  %12 = alloca %"class.std::allocator", align 1, !llfi_index !2313
  %13 = getelementptr inbounds %"class.__gnu_cxx::__normal_iterator", %"class.__gnu_cxx::__normal_iterator"* %4, i32 0, i32 0, !llfi_index !2314
  store i32* %0, i32** %13, align 8, !llfi_index !2315
  %14 = getelementptr inbounds %"class.__gnu_cxx::__normal_iterator", %"class.__gnu_cxx::__normal_iterator"* %5, i32 0, i32 0, !llfi_index !2316
  store i32* %1, i32** %14, align 8, !llfi_index !2317
  store %"class.std::allocator"* %2, %"class.std::allocator"** %6, align 8, !llfi_index !2318
  %15 = call i64 @_ZN9__gnu_cxxmiIPiSt6vectorIiSaIiEEEENS_17__normal_iteratorIT_T0_E15difference_typeERKS8_SB_(%"class.__gnu_cxx::__normal_iterator"* nonnull align 8 dereferenceable(8) %5, %"class.__gnu_cxx::__normal_iterator"* nonnull align 8 dereferenceable(8) %4) #2, !llfi_index !2319
  %16 = icmp slt i64 %15, 2, !llfi_index !2320
  br i1 %16, label %17, label %18, !llfi_index !2321

17:                                               ; preds = %3
  br label %45, !llfi_index !2322

18:                                               ; preds = %3
  %19 = call i64 @_ZN9__gnu_cxxmiIPiSt6vectorIiSaIiEEEENS_17__normal_iteratorIT_T0_E15difference_typeERKS8_SB_(%"class.__gnu_cxx::__normal_iterator"* nonnull align 8 dereferenceable(8) %5, %"class.__gnu_cxx::__normal_iterator"* nonnull align 8 dereferenceable(8) %4) #2, !llfi_index !2323
  store i64 %19, i64* %7, align 8, !llfi_index !2324
  %20 = load i64, i64* %7, align 8, !llfi_index !2325
  %21 = sub nsw i64 %20, 2, !llfi_index !2326
  %22 = sdiv i64 %21, 2, !llfi_index !2327
  store i64 %22, i64* %8, align 8, !llfi_index !2328
  br label %23, !llfi_index !2329

23:                                               ; preds = %42, %18
  %24 = load i64, i64* %8, align 8, !llfi_index !2330
  %25 = call i32* @_ZNK9__gnu_cxx17__normal_iteratorIPiSt6vectorIiSaIiEEEplEl(%"class.__gnu_cxx::__normal_iterator"* nonnull align 8 dereferenceable(8) %4, i64 %24) #2, !llfi_index !2331
  %26 = getelementptr inbounds %"class.__gnu_cxx::__normal_iterator", %"class.__gnu_cxx::__normal_iterator"* %10, i32 0, i32 0, !llfi_index !2332
  store i32* %25, i32** %26, align 8, !llfi_index !2333
