; ModuleID = '/home/hjiang/Computation-Kernel-Dataset/experiments/Fault_injection_0308_parall/O0/CardsPermutation/CardsPermutation.ll'
source_filename = "llvm-link"
target datalayout = "e-m:e-p270:32:32-p271:32:32-p272:64:64-i64:64-f80:128-n8:16:32:64-S128"
target triple = "x86_64-unknown-linux-gnu"

%"class.std::ios_base::Init" = type { i8 }
%struct._IO_FILE = type { i32, i8*, i8*, i8*, i8*, i8*, i8*, i8*, i8*, i8*, i8*, i8*, %struct._IO_marker*, %struct._IO_FILE*, i32, i32, i64, i16, i8, [1 x i8], i8*, i64, %struct._IO_codecvt*, %struct._IO_wide_data*, %struct._IO_FILE*, i8*, i64, i32, [20 x i8] }
%struct._IO_marker = type opaque
%struct._IO_codecvt = type opaque
%struct._IO_wide_data = type opaque
%"class.std::basic_ostream" = type { i32 (...)**, %"class.std::basic_ios" }
%"class.std::basic_ios" = type { %"class.std::ios_base", %"class.std::basic_ostream"*, i8, i8, %"class.std::basic_streambuf"*, %"class.std::ctype"*, %"class.std::num_put"*, %"class.std::num_put"* }
%"class.std::ios_base" = type { i32 (...)**, i64, i64, i32, i32, i32, %"struct.std::ios_base::_Callback_list"*, %"struct.std::ios_base::_Words", [8 x %"struct.std::ios_base::_Words"], i32, %"struct.std::ios_base::_Words"*, %"class.std::locale" }
%"struct.std::ios_base::_Callback_list" = type { %"struct.std::ios_base::_Callback_list"*, void (i32, %"class.std::ios_base"*, i32)*, i32, i32 }
%"struct.std::ios_base::_Words" = type { i8*, i64 }
%"class.std::locale" = type { %"class.std::locale::_Impl"* }
%"class.std::locale::_Impl" = type { i32, %"class.std::locale::facet"**, i64, %"class.std::locale::facet"**, i8** }
%"class.std::locale::facet" = type <{ i32 (...)**, i32, [4 x i8] }>
%"class.std::basic_streambuf" = type { i32 (...)**, i8*, i8*, i8*, i8*, i8*, i8*, %"class.std::locale" }
%"class.std::ctype" = type <{ %"class.std::locale::facet.base", [4 x i8], %struct.__locale_struct*, i8, [7 x i8], i32*, i32*, i16*, i8, [256 x i8], [256 x i8], i8, [6 x i8] }>
%"class.std::locale::facet.base" = type <{ i32 (...)**, i32 }>
%struct.__locale_struct = type { [13 x %struct.__locale_data*], i16*, i32*, i32*, [13 x i8*] }
%struct.__locale_data = type opaque
%"class.std::num_put" = type { %"class.std::locale::facet.base", [4 x i8] }
%"class.std::vector" = type { %"struct.std::_Vector_base" }
%"struct.std::_Vector_base" = type { %"struct.std::_Vector_base<int, std::allocator<int>>::_Vector_impl" }
%"struct.std::_Vector_base<int, std::allocator<int>>::_Vector_impl" = type { %"struct.std::_Vector_base<int, std::allocator<int>>::_Vector_impl_data" }
%"struct.std::_Vector_base<int, std::allocator<int>>::_Vector_impl_data" = type { i32*, i32*, i32* }
%"class.__gnu_cxx::__normal_iterator" = type { i32* }

$_ZNSaIiEC2Ev = comdat any

$_ZNSt6vectorIiSaIiEEC2EmRKS0_ = comdat any

$_ZNSaIiED2Ev = comdat any

$_ZNSt6vectorIiSaIiEEixEm = comdat any

$_ZNSt6vectorIiSaIiEEC2Ev = comdat any

$_ZNSt6vectorIiSaIiEE9push_backERKi = comdat any

$_ZNSt6vectorIiSaIiEED2Ev = comdat any

$_ZNKSt6vectorIiSaIiEE4sizeEv = comdat any

$_ZNSt6vectorIiSaIiEE5beginEv = comdat any

$_ZNSt6vectorIiSaIiEE3endEv = comdat any

$_ZSt11upper_boundIN9__gnu_cxx17__normal_iteratorIPiSt6vectorIiSaIiEEEEiET_S7_S7_RKT0_ = comdat any

$_ZN9__gnu_cxxmiIPiSt6vectorIiSaIiEEEENS_17__normal_iteratorIT_T0_E15difference_typeERKS8_SB_ = comdat any

$_ZNK9__gnu_cxx17__normal_iteratorIPiSt6vectorIiSaIiEEE4baseEv = comdat any

$_ZN9__gnu_cxx5__ops15__val_less_iterEv = comdat any

$_ZSt13__upper_boundIN9__gnu_cxx17__normal_iteratorIPiSt6vectorIiSaIiEEEEiNS0_5__ops14_Val_less_iterEET_S9_S9_RKT0_T1_ = comdat any

$_ZSt8distanceIN9__gnu_cxx17__normal_iteratorIPiSt6vectorIiSaIiEEEEENSt15iterator_traitsIT_E15difference_typeES8_S8_ = comdat any

$_ZSt7advanceIN9__gnu_cxx17__normal_iteratorIPiSt6vectorIiSaIiEEEElEvRT_T0_ = comdat any

$_ZNK9__gnu_cxx5__ops14_Val_less_iterclIKiNS_17__normal_iteratorIPiSt6vectorIiSaIiEEEEEEbRT_T0_ = comdat any

$_ZN9__gnu_cxx17__normal_iteratorIPiSt6vectorIiSaIiEEEppEv = comdat any

$_ZNK9__gnu_cxx17__normal_iteratorIPiSt6vectorIiSaIiEEEdeEv = comdat any

$_ZSt19__iterator_categoryIN9__gnu_cxx17__normal_iteratorIPiSt6vectorIiSaIiEEEEENSt15iterator_traitsIT_E17iterator_categoryERKS8_ = comdat any

$_ZSt9__advanceIN9__gnu_cxx17__normal_iteratorIPiSt6vectorIiSaIiEEEElEvRT_T0_St26random_access_iterator_tag = comdat any

$_ZN9__gnu_cxx17__normal_iteratorIPiSt6vectorIiSaIiEEEmmEv = comdat any

$_ZN9__gnu_cxx17__normal_iteratorIPiSt6vectorIiSaIiEEEpLEl = comdat any

$_ZSt10__distanceIN9__gnu_cxx17__normal_iteratorIPiSt6vectorIiSaIiEEEEENSt15iterator_traitsIT_E15difference_typeES8_S8_St26random_access_iterator_tag = comdat any

$_ZN9__gnu_cxx17__normal_iteratorIPiSt6vectorIiSaIiEEEC2ERKS1_ = comdat any

$_ZNSt12_Vector_baseIiSaIiEE19_M_get_Tp_allocatorEv = comdat any

$_ZSt8_DestroyIPiiEvT_S1_RSaIT0_E = comdat any

$_ZNSt12_Vector_baseIiSaIiEED2Ev = comdat any

$__clang_call_terminate = comdat any

$_ZNSt12_Vector_baseIiSaIiEE13_M_deallocateEPim = comdat any

$_ZNSt12_Vector_baseIiSaIiEE12_Vector_implD2Ev = comdat any

$_ZNSt16allocator_traitsISaIiEE10deallocateERS0_Pim = comdat any

$_ZN9__gnu_cxx13new_allocatorIiE10deallocateEPim = comdat any

$_ZSt8_DestroyIPiEvT_S1_ = comdat any

$_ZNSt12_Destroy_auxILb1EE9__destroyIPiEEvT_S3_ = comdat any

$_ZNSt16allocator_traitsISaIiEE9constructIiJRKiEEEvRS0_PT_DpOT0_ = comdat any

$_ZNSt6vectorIiSaIiEE17_M_realloc_insertIJRKiEEEvN9__gnu_cxx17__normal_iteratorIPiS1_EEDpOT_ = comdat any

$_ZNKSt6vectorIiSaIiEE12_M_check_lenEmPKc = comdat any

$_ZNSt12_Vector_baseIiSaIiEE11_M_allocateEm = comdat any

$_ZSt7forwardIRKiEOT_RNSt16remove_referenceIS2_E4typeE = comdat any

$_ZNSt6vectorIiSaIiEE11_S_relocateEPiS2_S2_RS0_ = comdat any

$_ZNSt6vectorIiSaIiEE14_S_do_relocateEPiS2_S2_RS0_St17integral_constantIbLb1EE = comdat any

$_ZSt12__relocate_aIPiS0_SaIiEET0_T_S3_S2_RT1_ = comdat any

$_ZSt12__niter_baseIPiET_S1_ = comdat any

$_ZSt14__relocate_a_1IiiENSt9enable_ifIXsr3std24__is_bitwise_relocatableIT_EE5valueEPS1_E4typeES2_S2_S2_RSaIT0_E = comdat any

$_ZNSt16allocator_traitsISaIiEE8allocateERS0_m = comdat any

$_ZN9__gnu_cxx13new_allocatorIiE8allocateEmPKv = comdat any

$_ZNK9__gnu_cxx13new_allocatorIiE8max_sizeEv = comdat any

$_ZNKSt6vectorIiSaIiEE8max_sizeEv = comdat any

$_ZSt3maxImERKT_S2_S2_ = comdat any

$_ZNKSt12_Vector_baseIiSaIiEE19_M_get_Tp_allocatorEv = comdat any

$_ZNSt6vectorIiSaIiEE11_S_max_sizeERKS0_ = comdat any

$_ZNSt16allocator_traitsISaIiEE8max_sizeERKS0_ = comdat any

$_ZSt3minImERKT_S2_S2_ = comdat any

$_ZN9__gnu_cxx13new_allocatorIiE9constructIiJRKiEEEvPT_DpOT0_ = comdat any

$_ZNSt12_Vector_baseIiSaIiEEC2Ev = comdat any

$_ZNSt12_Vector_baseIiSaIiEE12_Vector_implC2Ev = comdat any

$_ZNSt12_Vector_baseIiSaIiEE17_Vector_impl_dataC2Ev = comdat any

$_ZN9__gnu_cxx13new_allocatorIiED2Ev = comdat any

$_ZNSt6vectorIiSaIiEE17_S_check_init_lenEmRKS0_ = comdat any

$_ZNSt12_Vector_baseIiSaIiEEC2EmRKS0_ = comdat any

$_ZNSt6vectorIiSaIiEE21_M_default_initializeEm = comdat any

$_ZSt27__uninitialized_default_n_aIPimiET_S1_T0_RSaIT1_E = comdat any

$_ZSt25__uninitialized_default_nIPimET_S1_T0_ = comdat any

$_ZNSt27__uninitialized_default_n_1ILb1EE18__uninit_default_nIPimEET_S3_T0_ = comdat any

$_ZSt6fill_nIPimiET_S1_T0_RKT1_ = comdat any

$_ZSt10__fill_n_aIPimiEN9__gnu_cxx11__enable_ifIXsr11__is_scalarIT1_EE7__valueET_E6__typeES4_T0_RKS3_ = comdat any

$_ZSt12__niter_wrapIPiET_RKS1_S1_ = comdat any

$_ZNSt12_Vector_baseIiSaIiEE12_Vector_implC2ERKS0_ = comdat any

$_ZNSt12_Vector_baseIiSaIiEE17_M_create_storageEm = comdat any

$_ZNSaIiEC2ERKS_ = comdat any

$_ZN9__gnu_cxx13new_allocatorIiEC2ERKS1_ = comdat any

$_ZN9__gnu_cxx13new_allocatorIiEC2Ev = comdat any

@llvm.global_ctors = appending global [1 x { i32, void ()*, i8* }] [{ i32, void ()*, i8* } { i32 65535, void ()* @_GLOBAL__sub_I_CardsPermutation.cpp, i8* null }]
@_ZStL8__ioinit = internal global %"class.std::ios_base::Init" zeroinitializer, align 1
@f = dso_local global [310000 x i64] zeroinitializer, align 16
@a = dso_local global [310000 x i32] zeroinitializer, align 16
@n = dso_local global i32 0, align 4
@s = dso_local global [310000 x i32] zeroinitializer, align 16
@used = dso_local global [310000 x i8] zeroinitializer, align 16
@t = dso_local global [310000 x i32] zeroinitializer, align 16
@.str = private unnamed_addr constant [32 x i8] c"../input_files/CardsPermutation\00", align 1
@.str.1 = private unnamed_addr constant [2 x i8] c"r\00", align 1
@stdin = external dso_local global %struct._IO_FILE*, align 8
@.str.2 = private unnamed_addr constant [3 x i8] c"%d\00", align 1
@_ZSt4cout = external dso_local global %"class.std::basic_ostream", align 8
@.str.3 = private unnamed_addr constant [49 x i8] c"cannot create std::vector larger than max_size()\00", align 1
@.str.4 = private unnamed_addr constant [26 x i8] c"vector::_M_realloc_insert\00", align 1

; Function Attrs: noinline uwtable
define internal void @_GLOBAL__sub_I_CardsPermutation.cpp() #0 section ".text.startup" {
  call void @__cxx_global_var_init(), !llfi_index !4
  ret void, !llfi_index !5
}

; Function Attrs: noinline uwtable
define internal void @__cxx_global_var_init() #0 section ".text.startup" {
  call void @_ZNSt8ios_base4InitC1Ev(%"class.std::ios_base::Init"* nonnull align 1 dereferenceable(1) @_ZStL8__ioinit), !llfi_index !6
  %1 = call i32 @atexit(void ()* @__dtor__ZStL8__ioinit) #2, !llfi_index !7
  ret void, !llfi_index !8
}

declare dso_local void @_ZNSt8ios_base4InitC1Ev(%"class.std::ios_base::Init"* nonnull align 1 dereferenceable(1)) unnamed_addr #1

; Function Attrs: noinline uwtable
define internal void @__dtor__ZStL8__ioinit() #0 section ".text.startup" {
  call void @_ZNSt8ios_base4InitD1Ev(%"class.std::ios_base::Init"* @_ZStL8__ioinit), !llfi_index !9
  ret void, !llfi_index !10
}

; Function Attrs: nounwind
declare dso_local i32 @atexit(void ()*) #2

; Function Attrs: nounwind
declare dso_local void @_ZNSt8ios_base4InitD1Ev(%"class.std::ios_base::Init"* nonnull align 1 dereferenceable(1)) unnamed_addr #3

; Function Attrs: mustprogress noinline nounwind uwtable
define dso_local void @_Z6updateii(i32 %0, i32 %1) #4 {
  %3 = alloca i32, align 4, !llfi_index !11
  %4 = alloca i32, align 4, !llfi_index !12
  %5 = alloca i32, align 4, !llfi_index !13
  store i32 %0, i32* %3, align 4, !llfi_index !14
  store i32 %1, i32* %4, align 4, !llfi_index !15
  %6 = load i32, i32* %3, align 4, !llfi_index !16
  store i32 %6, i32* %5, align 4, !llfi_index !17
  br label %7, !llfi_index !18

7:                                                ; preds = %17, %2
  %8 = load i32, i32* %5, align 4, !llfi_index !19
  %9 = icmp slt i32 %8, 310000, !llfi_index !20
  br i1 %9, label %10, label %22, !llfi_index !21

10:                                               ; preds = %7
  %11 = load i32, i32* %4, align 4, !llfi_index !22
  %12 = load i32, i32* %5, align 4, !llfi_index !23
  %13 = sext i32 %12 to i64, !llfi_index !24
  %14 = getelementptr inbounds [310000 x i32], [310000 x i32]* @t, i64 0, i64 %13, !llfi_index !25
  %15 = load i32, i32* %14, align 4, !llfi_index !26
  %16 = add nsw i32 %15, %11, !llfi_index !27
  store i32 %16, i32* %14, align 4, !llfi_index !28
  br label %17, !llfi_index !29

17:                                               ; preds = %10
  %18 = load i32, i32* %5, align 4, !llfi_index !30
  %19 = add nsw i32 %18, 1, !llfi_index !31
  %20 = load i32, i32* %5, align 4, !llfi_index !32
  %21 = or i32 %20, %19, !llfi_index !33
  store i32 %21, i32* %5, align 4, !llfi_index !34
  br label %7, !llvm.loop !35, !llfi_index !37

22:                                               ; preds = %7
  ret void, !llfi_index !38
}

; Function Attrs: mustprogress noinline nounwind uwtable
define dso_local i32 @_Z3geti(i32 %0) #4 {
  %2 = alloca i32, align 4, !llfi_index !39
  %3 = alloca i32, align 4, !llfi_index !40
  %4 = alloca i32, align 4, !llfi_index !41
  store i32 %0, i32* %2, align 4, !llfi_index !42
  store i32 0, i32* %3, align 4, !llfi_index !43
  %5 = load i32, i32* %2, align 4, !llfi_index !44
  store i32 %5, i32* %4, align 4, !llfi_index !45
  br label %6, !llfi_index !46

6:                                                ; preds = %16, %1
  %7 = load i32, i32* %4, align 4, !llfi_index !47
  %8 = icmp sge i32 %7, 0, !llfi_index !48
  br i1 %8, label %9, label %22, !llfi_index !49

9:                                                ; preds = %6
  %10 = load i32, i32* %4, align 4, !llfi_index !50
  %11 = sext i32 %10 to i64, !llfi_index !51
  %12 = getelementptr inbounds [310000 x i32], [310000 x i32]* @t, i64 0, i64 %11, !llfi_index !52
  %13 = load i32, i32* %12, align 4, !llfi_index !53
  %14 = load i32, i32* %3, align 4, !llfi_index !54
  %15 = add nsw i32 %14, %13, !llfi_index !55
  store i32 %15, i32* %3, align 4, !llfi_index !56
  br label %16, !llfi_index !57

16:                                               ; preds = %9
  %17 = load i32, i32* %4, align 4, !llfi_index !58
  %18 = load i32, i32* %4, align 4, !llfi_index !59
  %19 = add nsw i32 %18, 1, !llfi_index !60
  %20 = and i32 %17, %19, !llfi_index !61
  %21 = sub nsw i32 %20, 1, !llfi_index !62
  store i32 %21, i32* %4, align 4, !llfi_index !63
  br label %6, !llvm.loop !64, !llfi_index !65

22:                                               ; preds = %6
  %23 = load i32, i32* %3, align 4, !llfi_index !66
  ret i32 %23, !llfi_index !67
}

; Function Attrs: mustprogress noinline norecurse uwtable
define dso_local i32 @main() #5 personality i8* bitcast (i32 (...)* @__gxx_personality_v0 to i8*) {
  %1 = alloca i32, align 4, !llfi_index !68
  %2 = alloca i32, align 4, !llfi_index !69
  %3 = alloca i32, align 4, !llfi_index !70
  %4 = alloca i32, align 4, !llfi_index !71
  %5 = alloca %"class.std::vector", align 8, !llfi_index !72
  %6 = alloca %"class.std::ios_base::Init", align 1, !llfi_index !73
  %7 = alloca i8*, align 8, !llfi_index !74
  %8 = alloca i32, align 4, !llfi_index !75
  %9 = alloca i32, align 4, !llfi_index !76
  %10 = alloca %"class.std::vector", align 8, !llfi_index !77
  %11 = alloca i64, align 8, !llfi_index !78
  %12 = alloca i32, align 4, !llfi_index !79
  %13 = alloca i64, align 8, !llfi_index !80
  %14 = alloca i64, align 8, !llfi_index !81
  %15 = alloca i64, align 8, !llfi_index !82
  %16 = alloca i64, align 8, !llfi_index !83
  %17 = alloca i32, align 4, !llfi_index !84
  %18 = alloca i64, align 8, !llfi_index !85
  %19 = alloca i64, align 8, !llfi_index !86
  %20 = alloca i64, align 8, !llfi_index !87
  %21 = alloca %"class.__gnu_cxx::__normal_iterator", align 8, !llfi_index !88
  %22 = alloca %"class.__gnu_cxx::__normal_iterator", align 8, !llfi_index !89
  %23 = alloca %"class.__gnu_cxx::__normal_iterator", align 8, !llfi_index !90
  %24 = alloca %"class.__gnu_cxx::__normal_iterator", align 8, !llfi_index !91
  %25 = alloca i64, align 8, !llfi_index !92
  %26 = alloca i64, align 8, !llfi_index !93
  store i32 0, i32* %1, align 4, !llfi_index !94
  %27 = load %struct._IO_FILE*, %struct._IO_FILE** @stdin, align 8, !llfi_index !95
  %28 = call %struct._IO_FILE* @freopen(i8* getelementptr inbounds ([32 x i8], [32 x i8]* @.str, i64 0, i64 0), i8* getelementptr inbounds ([2 x i8], [2 x i8]* @.str.1, i64 0, i64 0), %struct._IO_FILE* %27), !llfi_index !96
  store i64 1, i64* getelementptr inbounds ([310000 x i64], [310000 x i64]* @f, i64 0, i64 0), align 16, !llfi_index !97
  store i32 89, i32* %2, align 4, !llfi_index !98
  store i32 1, i32* %3, align 4, !llfi_index !99
  br label %29, !llfi_index !100

29:                                               ; preds = %49, %0
  %30 = load i32, i32* %3, align 4, !llfi_index !101
  %31 = icmp slt i32 %30, 310000, !llfi_index !102
  br i1 %31, label %32, label %52, !llfi_index !103

32:                                               ; preds = %29
  %33 = load i32, i32* %3, align 4, !llfi_index !104
  %34 = sext i32 %33 to i64, !llfi_index !105
  %35 = load i32, i32* %3, align 4, !llfi_index !106
  %36 = sub nsw i32 %35, 1, !llfi_index !107
  %37 = sext i32 %36 to i64, !llfi_index !108
  %38 = getelementptr inbounds [310000 x i64], [310000 x i64]* @f, i64 0, i64 %37, !llfi_index !109
  %39 = load i64, i64* %38, align 8, !llfi_index !110
  %40 = mul nsw i64 %34, %39, !llfi_index !111
  %41 = load i32, i32* %3, align 4, !llfi_index !112
  %42 = sext i32 %41 to i64, !llfi_index !113
  %43 = getelementptr inbounds [310000 x i64], [310000 x i64]* @f, i64 0, i64 %42, !llfi_index !114
  store i64 %40, i64* %43, align 8, !llfi_index !115
  %44 = load i32, i32* %3, align 4, !llfi_index !116
  %45 = sext i32 %44 to i64, !llfi_index !117
  %46 = getelementptr inbounds [310000 x i64], [310000 x i64]* @f, i64 0, i64 %45, !llfi_index !118
  %47 = load i64, i64* %46, align 8, !llfi_index !119
  %48 = srem i64 %47, 1000000007, !llfi_index !120
  store i64 %48, i64* %46, align 8, !llfi_index !121
  br label %49, !llfi_index !122

49:                                               ; preds = %32
  %50 = load i32, i32* %3, align 4, !llfi_index !123
  %51 = add nsw i32 %50, 1, !llfi_index !124
  store i32 %51, i32* %3, align 4, !llfi_index !125
  br label %29, !llvm.loop !126, !llfi_index !127

52:                                               ; preds = %29
  %53 = call i32 (i8*, ...) @__isoc99_scanf(i8* getelementptr inbounds ([3 x i8], [3 x i8]* @.str.2, i64 0, i64 0), i32* @n), !llfi_index !128
  store i32 89, i32* %2, align 4, !llfi_index !129
  store i32 0, i32* %4, align 4, !llfi_index !130
  br label %54, !llfi_index !131

54:                                               ; preds = %92, %52
  %55 = load i32, i32* %4, align 4, !llfi_index !132
  %56 = load i32, i32* @n, align 4, !llfi_index !133
  %57 = icmp slt i32 %55, %56, !llfi_index !134
  br i1 %57, label %58, label %95, !llfi_index !135

58:                                               ; preds = %54
  %59 = load i32, i32* %4, align 4, !llfi_index !136
  %60 = sext i32 %59 to i64, !llfi_index !137
  %61 = getelementptr inbounds [310000 x i32], [310000 x i32]* @a, i64 0, i64 %60, !llfi_index !138
  %62 = call i32 (i8*, ...) @__isoc99_scanf(i8* getelementptr inbounds ([3 x i8], [3 x i8]* @.str.2, i64 0, i64 0), i32* %61), !llfi_index !139
  %63 = load i32, i32* %4, align 4, !llfi_index !140
  %64 = sext i32 %63 to i64, !llfi_index !141
  %65 = getelementptr inbounds [310000 x i32], [310000 x i32]* @a, i64 0, i64 %64, !llfi_index !142
  %66 = load i32, i32* %65, align 4, !llfi_index !143
  %67 = sext i32 %66 to i64, !llfi_index !144
  %68 = getelementptr inbounds [310000 x i8], [310000 x i8]* @used, i64 0, i64 %67, !llfi_index !145
  store i8 1, i8* %68, align 1, !llfi_index !146
  %69 = load i32, i32* %4, align 4, !llfi_index !147
  %70 = sext i32 %69 to i64, !llfi_index !148
  %71 = getelementptr inbounds [310000 x i32], [310000 x i32]* @a, i64 0, i64 %70, !llfi_index !149
  %72 = load i32, i32* %71, align 4, !llfi_index !150
  %73 = icmp eq i32 %72, 0, !llfi_index !151
  %74 = zext i1 %73 to i32, !llfi_index !152
  %75 = load i32, i32* %4, align 4, !llfi_index !153
  %76 = sext i32 %75 to i64, !llfi_index !154
  %77 = getelementptr inbounds [310000 x i32], [310000 x i32]* @s, i64 0, i64 %76, !llfi_index !155
  store i32 %74, i32* %77, align 4, !llfi_index !156
  %78 = load i32, i32* %4, align 4, !llfi_index !157
  %79 = icmp sgt i32 %78, 0, !llfi_index !158
  br i1 %79, label %80, label %91, !llfi_index !159

80:                                               ; preds = %58
  %81 = load i32, i32* %4, align 4, !llfi_index !160
  %82 = sub nsw i32 %81, 1, !llfi_index !161
  %83 = sext i32 %82 to i64, !llfi_index !162
  %84 = getelementptr inbounds [310000 x i32], [310000 x i32]* @s, i64 0, i64 %83, !llfi_index !163
  %85 = load i32, i32* %84, align 4, !llfi_index !164
  %86 = load i32, i32* %4, align 4, !llfi_index !165
  %87 = sext i32 %86 to i64, !llfi_index !166
  %88 = getelementptr inbounds [310000 x i32], [310000 x i32]* @s, i64 0, i64 %87, !llfi_index !167
  %89 = load i32, i32* %88, align 4, !llfi_index !168
  %90 = add nsw i32 %89, %85, !llfi_index !169
  store i32 %90, i32* %88, align 4, !llfi_index !170
  br label %91, !llfi_index !171

91:                                               ; preds = %80, %58
  br label %92, !llfi_index !172

92:                                               ; preds = %91
  %93 = load i32, i32* %4, align 4, !llfi_index !173
  %94 = add nsw i32 %93, 1, !llfi_index !174
  store i32 %94, i32* %4, align 4, !llfi_index !175
  br label %54, !llvm.loop !176, !llfi_index !177

95:                                               ; preds = %54
  %96 = load i32, i32* @n, align 4, !llfi_index !178
  %97 = sext i32 %96 to i64, !llfi_index !179
  call void @_ZNSaIiEC2Ev(%"class.std::ios_base::Init"* nonnull align 1 dereferenceable(1) %6) #2, !llfi_index !180
  invoke void @_ZNSt6vectorIiSaIiEEC2EmRKS0_(%"class.std::vector"* nonnull align 8 dereferenceable(24) %5, i64 %97, %"class.std::ios_base::Init"* nonnull align 1 dereferenceable(1) %6)
          to label %98 unwind label %112, !llfi_index !181

98:                                               ; preds = %95
  call void @_ZNSaIiED2Ev(%"class.std::ios_base::Init"* nonnull align 1 dereferenceable(1) %6) #2, !llfi_index !182
  store i32 89, i32* %2, align 4, !llfi_index !183
  store i32 0, i32* %9, align 4, !llfi_index !184
  br label %99, !llfi_index !185

99:                                               ; preds = %109, %98
  %100 = load i32, i32* %9, align 4, !llfi_index !186
  %101 = load i32, i32* @n, align 4, !llfi_index !187
  %102 = icmp slt i32 %100, %101, !llfi_index !188
  br i1 %102, label %103, label %116, !llfi_index !189

103:                                              ; preds = %99
  %104 = load i32, i32* %9, align 4, !llfi_index !190
  %105 = add nsw i32 %104, 1, !llfi_index !191
  %106 = load i32, i32* %9, align 4, !llfi_index !192
  %107 = sext i32 %106 to i64, !llfi_index !193
  %108 = call nonnull align 4 dereferenceable(4) i32* @_ZNSt6vectorIiSaIiEEixEm(%"class.std::vector"* nonnull align 8 dereferenceable(24) %5, i64 %107) #2, !llfi_index !194
  store i32 %105, i32* %108, align 4, !llfi_index !195
  br label %109, !llfi_index !196

109:                                              ; preds = %103
  %110 = load i32, i32* %9, align 4, !llfi_index !197
  %111 = add nsw i32 %110, 1, !llfi_index !198
  store i32 %111, i32* %9, align 4, !llfi_index !199
  br label %99, !llvm.loop !200, !llfi_index !201

112:                                              ; preds = %95
  %113 = landingpad { i8*, i32 }
          cleanup, !llfi_index !202
  %114 = extractvalue { i8*, i32 } %113, 0, !llfi_index !203
  store i8* %114, i8** %7, align 8, !llfi_index !204
  %115 = extractvalue { i8*, i32 } %113, 1, !llfi_index !205
  store i32 %115, i32* %8, align 4, !llfi_index !206
  call void @_ZNSaIiED2Ev(%"class.std::ios_base::Init"* nonnull align 1 dereferenceable(1) %6) #2, !llfi_index !207
  br label %313, !llfi_index !208

116:                                              ; preds = %99
  call void @_ZNSt6vectorIiSaIiEEC2Ev(%"class.std::vector"* nonnull align 8 dereferenceable(24) %10) #2, !llfi_index !209
  store i64 0, i64* %11, align 8, !llfi_index !210
  store i32 89, i32* %2, align 4, !llfi_index !211
  store i32 1, i32* %12, align 4, !llfi_index !212
  br label %117, !llfi_index !213

117:                                              ; preds = %139, %116
  %118 = load i32, i32* %12, align 4, !llfi_index !214
  %119 = load i32, i32* @n, align 4, !llfi_index !215
  %120 = icmp sle i32 %118, %119, !llfi_index !216
  br i1 %120, label %121, label %142, !llfi_index !217

121:                                              ; preds = %117
  %122 = load i32, i32* %12, align 4, !llfi_index !218
  %123 = sext i32 %122 to i64, !llfi_index !219
  %124 = getelementptr inbounds [310000 x i8], [310000 x i8]* @used, i64 0, i64 %123, !llfi_index !220
  %125 = load i8, i8* %124, align 1, !llfi_index !221
  %126 = trunc i8 %125 to i1, !llfi_index !222
  br i1 %126, label %138, label %127, !llfi_index !223

127:                                              ; preds = %121
  invoke void @_ZNSt6vectorIiSaIiEE9push_backERKi(%"class.std::vector"* nonnull align 8 dereferenceable(24) %10, i32* nonnull align 4 dereferenceable(4) %12)
          to label %128 unwind label %134, !llfi_index !224

128:                                              ; preds = %127
  %129 = load i32, i32* %12, align 4, !llfi_index !225
  %130 = sub nsw i32 %129, 1, !llfi_index !226
  %131 = sext i32 %130 to i64, !llfi_index !227
  %132 = load i64, i64* %11, align 8, !llfi_index !228
  %133 = add nsw i64 %132, %131, !llfi_index !229
  store i64 %133, i64* %11, align 8, !llfi_index !230
  br label %138, !llfi_index !231

134:                                              ; preds = %309, %302, %165, %127
  %135 = landingpad { i8*, i32 }
          cleanup, !llfi_index !232
  %136 = extractvalue { i8*, i32 } %135, 0, !llfi_index !233
  store i8* %136, i8** %7, align 8, !llfi_index !234
  %137 = extractvalue { i8*, i32 } %135, 1, !llfi_index !235
  store i32 %137, i32* %8, align 4, !llfi_index !236
  call void @_ZNSt6vectorIiSaIiEED2Ev(%"class.std::vector"* nonnull align 8 dereferenceable(24) %10) #2, !llfi_index !237
  call void @_ZNSt6vectorIiSaIiEED2Ev(%"class.std::vector"* nonnull align 8 dereferenceable(24) %5) #2, !llfi_index !238
  br label %313, !llfi_index !239

138:                                              ; preds = %128, %121
  br label %139, !llfi_index !240

139:                                              ; preds = %138
  %140 = load i32, i32* %12, align 4, !llfi_index !241
  %141 = add nsw i32 %140, 1, !llfi_index !242
  store i32 %141, i32* %12, align 4, !llfi_index !243
  br label %117, !llvm.loop !244, !llfi_index !245

142:                                              ; preds = %117
  %143 = load i64, i64* %11, align 8, !llfi_index !246
  %144 = srem i64 %143, 1000000007, !llfi_index !247
  store i64 %144, i64* %11, align 8, !llfi_index !248
  %145 = call i64 @_ZNKSt6vectorIiSaIiEE4sizeEv(%"class.std::vector"* nonnull align 8 dereferenceable(24) %10) #2, !llfi_index !249
  store i64 %145, i64* %13, align 8, !llfi_index !250
  %146 = load i64, i64* %13, align 8, !llfi_index !251
  %147 = load i64, i64* %13, align 8, !llfi_index !252
  %148 = sub nsw i64 %147, 1, !llfi_index !253
  %149 = mul nsw i64 %146, %148, !llfi_index !254
  %150 = sdiv i64 %149, 2, !llfi_index !255
  %151 = srem i64 %150, 1000000007, !llfi_index !256
  store i64 %151, i64* %14, align 8, !llfi_index !257
  %152 = load i64, i64* %13, align 8, !llfi_index !258
  %153 = getelementptr inbounds [310000 x i64], [310000 x i64]* @f, i64 0, i64 %152, !llfi_index !259
  %154 = load i64, i64* %153, align 8, !llfi_index !260
  store i64 %154, i64* %15, align 8, !llfi_index !261
  store i64 0, i64* %16, align 8, !llfi_index !262
  store i32 89, i32* %2, align 4, !llfi_index !263
  store i32 0, i32* %17, align 4, !llfi_index !264
  br label %155, !llfi_index !265

155:                                              ; preds = %299, %142
  %156 = load i32, i32* %17, align 4, !llfi_index !266
  %157 = load i32, i32* @n, align 4, !llfi_index !267
  %158 = icmp slt i32 %156, %157, !llfi_index !268
  br i1 %158, label %159, label %302, !llfi_index !269

159:                                              ; preds = %155
  %160 = load i32, i32* %17, align 4, !llfi_index !270
  %161 = sext i32 %160 to i64, !llfi_index !271
  %162 = getelementptr inbounds [310000 x i32], [310000 x i32]* @a, i64 0, i64 %161, !llfi_index !272
  %163 = load i32, i32* %162, align 4, !llfi_index !273
  %164 = icmp ne i32 %163, 0, !llfi_index !274
  br i1 %164, label %165, label %250, !llfi_index !275

165:                                              ; preds = %159
  %166 = load i32, i32* %17, align 4, !llfi_index !276
  %167 = sext i32 %166 to i64, !llfi_index !277
  %168 = getelementptr inbounds [310000 x i32], [310000 x i32]* @a, i64 0, i64 %167, !llfi_index !278
  %169 = load i32, i32* %168, align 4, !llfi_index !279
  %170 = call i32 @_Z3geti(i32 %169), !llfi_index !280
  %171 = sext i32 %170 to i64, !llfi_index !281
  store i64 %171, i64* %18, align 8, !llfi_index !282
  %172 = load i32, i32* %17, align 4, !llfi_index !283
  %173 = sext i32 %172 to i64, !llfi_index !284
  %174 = getelementptr inbounds [310000 x i32], [310000 x i32]* @s, i64 0, i64 %173, !llfi_index !285
  %175 = load i32, i32* %174, align 4, !llfi_index !286
  %176 = sext i32 %175 to i64, !llfi_index !287
  store i64 %176, i64* %19, align 8, !llfi_index !288
  %177 = call i32* @_ZNSt6vectorIiSaIiEE5beginEv(%"class.std::vector"* nonnull align 8 dereferenceable(24) %10) #2, !llfi_index !289
  %178 = getelementptr inbounds %"class.__gnu_cxx::__normal_iterator", %"class.__gnu_cxx::__normal_iterator"* %22, i32 0, i32 0, !llfi_index !290
  store i32* %177, i32** %178, align 8, !llfi_index !291
  %179 = call i32* @_ZNSt6vectorIiSaIiEE3endEv(%"class.std::vector"* nonnull align 8 dereferenceable(24) %10) #2, !llfi_index !292
  %180 = getelementptr inbounds %"class.__gnu_cxx::__normal_iterator", %"class.__gnu_cxx::__normal_iterator"* %23, i32 0, i32 0, !llfi_index !293
  store i32* %179, i32** %180, align 8, !llfi_index !294
  %181 = load i32, i32* %17, align 4, !llfi_index !295
  %182 = sext i32 %181 to i64, !llfi_index !296
  %183 = getelementptr inbounds [310000 x i32], [310000 x i32]* @a, i64 0, i64 %182, !llfi_index !297
  %184 = getelementptr inbounds %"class.__gnu_cxx::__normal_iterator", %"class.__gnu_cxx::__normal_iterator"* %22, i32 0, i32 0, !llfi_index !298
  %185 = load i32*, i32** %184, align 8, !llfi_index !299
  %186 = getelementptr inbounds %"class.__gnu_cxx::__normal_iterator", %"class.__gnu_cxx::__normal_iterator"* %23, i32 0, i32 0, !llfi_index !300
  %187 = load i32*, i32** %186, align 8, !llfi_index !301
  %188 = invoke i32* @_ZSt11upper_boundIN9__gnu_cxx17__normal_iteratorIPiSt6vectorIiSaIiEEEEiET_S7_S7_RKT0_(i32* %185, i32* %187, i32* nonnull align 4 dereferenceable(4) %183)
          to label %189 unwind label %134, !llfi_index !302

189:                                              ; preds = %165
  %190 = getelementptr inbounds %"class.__gnu_cxx::__normal_iterator", %"class.__gnu_cxx::__normal_iterator"* %21, i32 0, i32 0, !llfi_index !303
  store i32* %188, i32** %190, align 8, !llfi_index !304
  %191 = call i32* @_ZNSt6vectorIiSaIiEE5beginEv(%"class.std::vector"* nonnull align 8 dereferenceable(24) %10) #2, !llfi_index !305
  %192 = getelementptr inbounds %"class.__gnu_cxx::__normal_iterator", %"class.__gnu_cxx::__normal_iterator"* %24, i32 0, i32 0, !llfi_index !306
  store i32* %191, i32** %192, align 8, !llfi_index !307
  %193 = call i64 @_ZN9__gnu_cxxmiIPiSt6vectorIiSaIiEEEENS_17__normal_iteratorIT_T0_E15difference_typeERKS8_SB_(%"class.__gnu_cxx::__normal_iterator"* nonnull align 8 dereferenceable(8) %21, %"class.__gnu_cxx::__normal_iterator"* nonnull align 8 dereferenceable(8) %24) #2, !llfi_index !308
  store i64 %193, i64* %20, align 8, !llfi_index !309
  %194 = load i64, i64* %13, align 8, !llfi_index !310
  %195 = getelementptr inbounds [310000 x i64], [310000 x i64]* @f, i64 0, i64 %194, !llfi_index !311
  %196 = load i64, i64* %195, align 8, !llfi_index !312
  %197 = load i32, i32* %17, align 4, !llfi_index !313
  %198 = sext i32 %197 to i64, !llfi_index !314
  %199 = getelementptr inbounds [310000 x i32], [310000 x i32]* @a, i64 0, i64 %198, !llfi_index !315
  %200 = load i32, i32* %199, align 4, !llfi_index !316
  %201 = sext i32 %200 to i64, !llfi_index !317
  %202 = load i64, i64* %18, align 8, !llfi_index !318
  %203 = sub nsw i64 %201, %202, !llfi_index !319
  %204 = sub nsw i64 %203, 1, !llfi_index !320
  %205 = mul nsw i64 %196, %204, !llfi_index !321
  %206 = srem i64 %205, 1000000007, !llfi_index !322
  store i64 %206, i64* %25, align 8, !llfi_index !323
  %207 = load i64, i64* %13, align 8, !llfi_index !324
  %208 = icmp sgt i64 %207, 0, !llfi_index !325
  br i1 %208, label %209, label %221, !llfi_index !326

209:                                              ; preds = %189
  %210 = load i64, i64* %13, align 8, !llfi_index !327
  %211 = sub nsw i64 %210, 1, !llfi_index !328
  %212 = getelementptr inbounds [310000 x i64], [310000 x i64]* @f, i64 0, i64 %211, !llfi_index !329
  %213 = load i64, i64* %212, align 8, !llfi_index !330
  %214 = load i64, i64* %20, align 8, !llfi_index !331
  %215 = load i64, i64* %19, align 8, !llfi_index !332
  %216 = mul nsw i64 %214, %215, !llfi_index !333
  %217 = srem i64 %216, 1000000007, !llfi_index !334
  %218 = mul nsw i64 %213, %217, !llfi_index !335
  %219 = load i64, i64* %25, align 8, !llfi_index !336
  %220 = sub nsw i64 %219, %218, !llfi_index !337
  store i64 %220, i64* %25, align 8, !llfi_index !338
  br label %221, !llfi_index !339

221:                                              ; preds = %209, %189
  %222 = load i64, i64* %25, align 8, !llfi_index !340
  %223 = srem i64 %222, 1000000007, !llfi_index !341
  %224 = add nsw i64 %223, 1000000007, !llfi_index !342
  %225 = srem i64 %224, 1000000007, !llfi_index !343
  store i64 %225, i64* %25, align 8, !llfi_index !344
  %226 = load i64, i64* %25, align 8, !llfi_index !345
  %227 = load i32, i32* @n, align 4, !llfi_index !346
  %228 = load i32, i32* %17, align 4, !llfi_index !347
  %229 = sub nsw i32 %227, %228, !llfi_index !348
  %230 = sub nsw i32 %229, 1, !llfi_index !349
  %231 = sext i32 %230 to i64, !llfi_index !350
  %232 = getelementptr inbounds [310000 x i64], [310000 x i64]* @f, i64 0, i64 %231, !llfi_index !351
  %233 = load i64, i64* %232, align 8, !llfi_index !352
  %234 = mul nsw i64 %226, %233, !llfi_index !353
  %235 = srem i64 %234, 1000000007, !llfi_index !354
  store i64 %235, i64* %25, align 8, !llfi_index !355
  %236 = load i64, i64* %15, align 8, !llfi_index !356
  %237 = load i64, i64* %25, align 8, !llfi_index !357
  %238 = add nsw i64 %236, %237, !llfi_index !358
  %239 = srem i64 %238, 1000000007, !llfi_index !359
  store i64 %239, i64* %15, align 8, !llfi_index !360
  %240 = load i64, i64* %16, align 8, !llfi_index !361
  %241 = load i64, i64* %13, align 8, !llfi_index !362
  %242 = add nsw i64 %240, %241, !llfi_index !363
  %243 = load i64, i64* %20, align 8, !llfi_index !364
  %244 = sub nsw i64 %242, %243, !llfi_index !365
  %245 = srem i64 %244, 1000000007, !llfi_index !366
  store i64 %245, i64* %16, align 8, !llfi_index !367
  %246 = load i32, i32* %17, align 4, !llfi_index !368
  %247 = sext i32 %246 to i64, !llfi_index !369
  %248 = getelementptr inbounds [310000 x i32], [310000 x i32]* @a, i64 0, i64 %247, !llfi_index !370
  %249 = load i32, i32* %248, align 4, !llfi_index !371
  call void @_Z6updateii(i32 %249, i32 1), !llfi_index !372
  br label %298, !llfi_index !373

250:                                              ; preds = %159
  %251 = load i64, i64* %13, align 8, !llfi_index !374
  %252 = sub nsw i64 %251, 1, !llfi_index !375
  %253 = getelementptr inbounds [310000 x i64], [310000 x i64]* @f, i64 0, i64 %252, !llfi_index !376
  %254 = load i64, i64* %253, align 8, !llfi_index !377
  %255 = load i64, i64* %11, align 8, !llfi_index !378
  %256 = load i64, i64* %16, align 8, !llfi_index !379
  %257 = sub nsw i64 %255, %256, !llfi_index !380
  %258 = mul nsw i64 %254, %257, !llfi_index !381
  %259 = srem i64 %258, 1000000007, !llfi_index !382
  store i64 %259, i64* %26, align 8, !llfi_index !383
  %260 = load i64, i64* %13, align 8, !llfi_index !384
  %261 = icmp sge i64 %260, 2, !llfi_index !385
  br i1 %261, label %262, label %279, !llfi_index !386

262:                                              ; preds = %250
  %263 = load i64, i64* %13, align 8, !llfi_index !387
  %264 = sub nsw i64 %263, 2, !llfi_index !388
  %265 = getelementptr inbounds [310000 x i64], [310000 x i64]* @f, i64 0, i64 %264, !llfi_index !389
  %266 = load i64, i64* %265, align 8, !llfi_index !390
  %267 = load i64, i64* %14, align 8, !llfi_index !391
  %268 = mul nsw i64 %266, %267, !llfi_index !392
  %269 = srem i64 %268, 1000000007, !llfi_index !393
  %270 = load i32, i32* %17, align 4, !llfi_index !394
  %271 = sext i32 %270 to i64, !llfi_index !395
  %272 = getelementptr inbounds [310000 x i32], [310000 x i32]* @s, i64 0, i64 %271, !llfi_index !396
  %273 = load i32, i32* %272, align 4, !llfi_index !397
  %274 = sub nsw i32 %273, 1, !llfi_index !398
  %275 = sext i32 %274 to i64, !llfi_index !399
  %276 = mul nsw i64 %269, %275, !llfi_index !400
  %277 = load i64, i64* %26, align 8, !llfi_index !401
  %278 = sub nsw i64 %277, %276, !llfi_index !402
  store i64 %278, i64* %26, align 8, !llfi_index !403
  br label %279, !llfi_index !404

279:                                              ; preds = %262, %250
  %280 = load i64, i64* %26, align 8, !llfi_index !405
  %281 = srem i64 %280, 1000000007, !llfi_index !406
  %282 = add nsw i64 %281, 1000000007, !llfi_index !407
  %283 = srem i64 %282, 1000000007, !llfi_index !408
  store i64 %283, i64* %26, align 8, !llfi_index !409
  %284 = load i64, i64* %26, align 8, !llfi_index !410
  %285 = load i32, i32* @n, align 4, !llfi_index !411
  %286 = load i32, i32* %17, align 4, !llfi_index !412
  %287 = sub nsw i32 %285, %286, !llfi_index !413
  %288 = sub nsw i32 %287, 1, !llfi_index !414
  %289 = sext i32 %288 to i64, !llfi_index !415
  %290 = getelementptr inbounds [310000 x i64], [310000 x i64]* @f, i64 0, i64 %289, !llfi_index !416
  %291 = load i64, i64* %290, align 8, !llfi_index !417
  %292 = mul nsw i64 %284, %291, !llfi_index !418
  %293 = srem i64 %292, 1000000007, !llfi_index !419
  store i64 %293, i64* %26, align 8, !llfi_index !420
  %294 = load i64, i64* %15, align 8, !llfi_index !421
  %295 = load i64, i64* %26, align 8, !llfi_index !422
  %296 = add nsw i64 %294, %295, !llfi_index !423
  %297 = srem i64 %296, 1000000007, !llfi_index !424
  store i64 %297, i64* %15, align 8, !llfi_index !425
  br label %298, !llfi_index !426

298:                                              ; preds = %279, %221
  br label %299, !llfi_index !427

299:                                              ; preds = %298
  %300 = load i32, i32* %17, align 4, !llfi_index !428
  %301 = add nsw i32 %300, 1, !llfi_index !429
  store i32 %301, i32* %17, align 4, !llfi_index !430
  br label %155, !llvm.loop !431, !llfi_index !432

302:                                              ; preds = %155
  %303 = load i64, i64* %15, align 8, !llfi_index !433
  %304 = srem i64 %303, 1000000007, !llfi_index !434
  %305 = add nsw i64 %304, 1000000007, !llfi_index !435
  %306 = srem i64 %305, 1000000007, !llfi_index !436
  store i64 %306, i64* %15, align 8, !llfi_index !437
  %307 = load i64, i64* %15, align 8, !llfi_index !438
  %308 = invoke nonnull align 8 dereferenceable(8) %"class.std::basic_ostream"* @_ZNSolsEx(%"class.std::basic_ostream"* nonnull align 8 dereferenceable(8) @_ZSt4cout, i64 %307)
          to label %309 unwind label %134, !llfi_index !439

309:                                              ; preds = %302
  %310 = invoke nonnull align 8 dereferenceable(8) %"class.std::basic_ostream"* @_ZNSolsEPFRSoS_E(%"class.std::basic_ostream"* nonnull align 8 dereferenceable(8) %308, %"class.std::basic_ostream"* (%"class.std::basic_ostream"*)* @_ZSt4endlIcSt11char_traitsIcEERSt13basic_ostreamIT_T0_ES6_)
          to label %311 unwind label %134, !llfi_index !440

311:                                              ; preds = %309
  store i32 0, i32* %1, align 4, !llfi_index !441
  call void @_ZNSt6vectorIiSaIiEED2Ev(%"class.std::vector"* nonnull align 8 dereferenceable(24) %10) #2, !llfi_index !442
  call void @_ZNSt6vectorIiSaIiEED2Ev(%"class.std::vector"* nonnull align 8 dereferenceable(24) %5) #2, !llfi_index !443
  %312 = load i32, i32* %1, align 4, !llfi_index !444
  ret i32 %312, !llfi_index !445

313:                                              ; preds = %134, %112
  %314 = load i8*, i8** %7, align 8, !llfi_index !446
  %315 = load i32, i32* %8, align 4, !llfi_index !447
  %316 = insertvalue { i8*, i32 } undef, i8* %314, 0, !llfi_index !448
  %317 = insertvalue { i8*, i32 } %316, i32 %315, 1, !llfi_index !449
  resume { i8*, i32 } %317, !llfi_index !450
}

declare dso_local i32 @__gxx_personality_v0(...)

declare dso_local %struct._IO_FILE* @freopen(i8*, i8*, %struct._IO_FILE*) #1

declare dso_local i32 @__isoc99_scanf(i8*, ...) #1

; Function Attrs: noinline nounwind uwtable
define linkonce_odr dso_local void @_ZNSaIiEC2Ev(%"class.std::ios_base::Init"* nonnull align 1 dereferenceable(1) %0) unnamed_addr #6 comdat align 2 {
  %2 = alloca %"class.std::ios_base::Init"*, align 8, !llfi_index !451
  store %"class.std::ios_base::Init"* %0, %"class.std::ios_base::Init"** %2, align 8, !llfi_index !452
  %3 = load %"class.std::ios_base::Init"*, %"class.std::ios_base::Init"** %2, align 8, !llfi_index !453
  %4 = bitcast %"class.std::ios_base::Init"* %3 to %"class.std::ios_base::Init"*, !llfi_index !454
  call void @_ZN9__gnu_cxx13new_allocatorIiEC2Ev(%"class.std::ios_base::Init"* nonnull align 1 dereferenceable(1) %4) #2, !llfi_index !455
  ret void, !llfi_index !456
}

; Function Attrs: noinline uwtable
define linkonce_odr dso_local void @_ZNSt6vectorIiSaIiEEC2EmRKS0_(%"class.std::vector"* nonnull align 8 dereferenceable(24) %0, i64 %1, %"class.std::ios_base::Init"* nonnull align 1 dereferenceable(1) %2) unnamed_addr #0 comdat align 2 personality i8* bitcast (i32 (...)* @__gxx_personality_v0 to i8*) {
  %4 = alloca %"class.std::vector"*, align 8, !llfi_index !457
  %5 = alloca i64, align 8, !llfi_index !458
  %6 = alloca %"class.std::ios_base::Init"*, align 8, !llfi_index !459
  %7 = alloca i8*, align 8, !llfi_index !460
  %8 = alloca i32, align 4, !llfi_index !461
  store %"class.std::vector"* %0, %"class.std::vector"** %4, align 8, !llfi_index !462
  store i64 %1, i64* %5, align 8, !llfi_index !463
  store %"class.std::ios_base::Init"* %2, %"class.std::ios_base::Init"** %6, align 8, !llfi_index !464
  %9 = load %"class.std::vector"*, %"class.std::vector"** %4, align 8, !llfi_index !465
  %10 = bitcast %"class.std::vector"* %9 to %"struct.std::_Vector_base"*, !llfi_index !466
  %11 = load i64, i64* %5, align 8, !llfi_index !467
  %12 = load %"class.std::ios_base::Init"*, %"class.std::ios_base::Init"** %6, align 8, !llfi_index !468
  %13 = call i64 @_ZNSt6vectorIiSaIiEE17_S_check_init_lenEmRKS0_(i64 %11, %"class.std::ios_base::Init"* nonnull align 1 dereferenceable(1) %12), !llfi_index !469
  %14 = load %"class.std::ios_base::Init"*, %"class.std::ios_base::Init"** %6, align 8, !llfi_index !470
  call void @_ZNSt12_Vector_baseIiSaIiEEC2EmRKS0_(%"struct.std::_Vector_base"* nonnull align 8 dereferenceable(24) %10, i64 %13, %"class.std::ios_base::Init"* nonnull align 1 dereferenceable(1) %14), !llfi_index !471
  %15 = load i64, i64* %5, align 8, !llfi_index !472
  invoke void @_ZNSt6vectorIiSaIiEE21_M_default_initializeEm(%"class.std::vector"* nonnull align 8 dereferenceable(24) %9, i64 %15)
          to label %16 unwind label %17, !llfi_index !473

16:                                               ; preds = %3
  ret void, !llfi_index !474

17:                                               ; preds = %3
  %18 = landingpad { i8*, i32 }
          cleanup, !llfi_index !475
  %19 = extractvalue { i8*, i32 } %18, 0, !llfi_index !476
  store i8* %19, i8** %7, align 8, !llfi_index !477
  %20 = extractvalue { i8*, i32 } %18, 1, !llfi_index !478
  store i32 %20, i32* %8, align 4, !llfi_index !479
  %21 = bitcast %"class.std::vector"* %9 to %"struct.std::_Vector_base"*, !llfi_index !480
  call void @_ZNSt12_Vector_baseIiSaIiEED2Ev(%"struct.std::_Vector_base"* nonnull align 8 dereferenceable(24) %21) #2, !llfi_index !481
  br label %22, !llfi_index !482

22:                                               ; preds = %17
  %23 = load i8*, i8** %7, align 8, !llfi_index !483
  %24 = load i32, i32* %8, align 4, !llfi_index !484
  %25 = insertvalue { i8*, i32 } undef, i8* %23, 0, !llfi_index !485
  %26 = insertvalue { i8*, i32 } %25, i32 %24, 1, !llfi_index !486
  resume { i8*, i32 } %26, !llfi_index !487
}

; Function Attrs: noinline nounwind uwtable
define linkonce_odr dso_local void @_ZNSaIiED2Ev(%"class.std::ios_base::Init"* nonnull align 1 dereferenceable(1) %0) unnamed_addr #6 comdat align 2 {
  %2 = alloca %"class.std::ios_base::Init"*, align 8, !llfi_index !488
  store %"class.std::ios_base::Init"* %0, %"class.std::ios_base::Init"** %2, align 8, !llfi_index !489
  %3 = load %"class.std::ios_base::Init"*, %"class.std::ios_base::Init"** %2, align 8, !llfi_index !490
  %4 = bitcast %"class.std::ios_base::Init"* %3 to %"class.std::ios_base::Init"*, !llfi_index !491
  call void @_ZN9__gnu_cxx13new_allocatorIiED2Ev(%"class.std::ios_base::Init"* nonnull align 1 dereferenceable(1) %4) #2, !llfi_index !492
  ret void, !llfi_index !493
}

; Function Attrs: mustprogress noinline nounwind uwtable
define linkonce_odr dso_local nonnull align 4 dereferenceable(4) i32* @_ZNSt6vectorIiSaIiEEixEm(%"class.std::vector"* nonnull align 8 dereferenceable(24) %0, i64 %1) #4 comdat align 2 {
  %3 = alloca %"class.std::vector"*, align 8, !llfi_index !494
  %4 = alloca i64, align 8, !llfi_index !495
  store %"class.std::vector"* %0, %"class.std::vector"** %3, align 8, !llfi_index !496
  store i64 %1, i64* %4, align 8, !llfi_index !497
  %5 = load %"class.std::vector"*, %"class.std::vector"** %3, align 8, !llfi_index !498
  %6 = bitcast %"class.std::vector"* %5 to %"struct.std::_Vector_base"*, !llfi_index !499
  %7 = getelementptr inbounds %"struct.std::_Vector_base", %"struct.std::_Vector_base"* %6, i32 0, i32 0, !llfi_index !500
  %8 = bitcast %"struct.std::_Vector_base<int, std::allocator<int>>::_Vector_impl"* %7 to %"struct.std::_Vector_base<int, std::allocator<int>>::_Vector_impl_data"*, !llfi_index !501
  %9 = getelementptr inbounds %"struct.std::_Vector_base<int, std::allocator<int>>::_Vector_impl_data", %"struct.std::_Vector_base<int, std::allocator<int>>::_Vector_impl_data"* %8, i32 0, i32 0, !llfi_index !502
  %10 = load i32*, i32** %9, align 8, !llfi_index !503
  %11 = load i64, i64* %4, align 8, !llfi_index !504
  %12 = getelementptr inbounds i32, i32* %10, i64 %11, !llfi_index !505
  ret i32* %12, !llfi_index !506
}

; Function Attrs: noinline nounwind uwtable
define linkonce_odr dso_local void @_ZNSt6vectorIiSaIiEEC2Ev(%"class.std::vector"* nonnull align 8 dereferenceable(24) %0) unnamed_addr #6 comdat align 2 {
  %2 = alloca %"class.std::vector"*, align 8, !llfi_index !507
  store %"class.std::vector"* %0, %"class.std::vector"** %2, align 8, !llfi_index !508
  %3 = load %"class.std::vector"*, %"class.std::vector"** %2, align 8, !llfi_index !509
  %4 = bitcast %"class.std::vector"* %3 to %"struct.std::_Vector_base"*, !llfi_index !510
  call void @_ZNSt12_Vector_baseIiSaIiEEC2Ev(%"struct.std::_Vector_base"* nonnull align 8 dereferenceable(24) %4) #2, !llfi_index !511
  ret void, !llfi_index !512
}

; Function Attrs: mustprogress noinline uwtable
define linkonce_odr dso_local void @_ZNSt6vectorIiSaIiEE9push_backERKi(%"class.std::vector"* nonnull align 8 dereferenceable(24) %0, i32* nonnull align 4 dereferenceable(4) %1) #7 comdat align 2 {
  %3 = alloca %"class.std::vector"*, align 8, !llfi_index !513
  %4 = alloca i32*, align 8, !llfi_index !514
  %5 = alloca %"class.__gnu_cxx::__normal_iterator", align 8, !llfi_index !515
  store %"class.std::vector"* %0, %"class.std::vector"** %3, align 8, !llfi_index !516
  store i32* %1, i32** %4, align 8, !llfi_index !517
  %6 = load %"class.std::vector"*, %"class.std::vector"** %3, align 8, !llfi_index !518
  %7 = bitcast %"class.std::vector"* %6 to %"struct.std::_Vector_base"*, !llfi_index !519
  %8 = getelementptr inbounds %"struct.std::_Vector_base", %"struct.std::_Vector_base"* %7, i32 0, i32 0, !llfi_index !520
  %9 = bitcast %"struct.std::_Vector_base<int, std::allocator<int>>::_Vector_impl"* %8 to %"struct.std::_Vector_base<int, std::allocator<int>>::_Vector_impl_data"*, !llfi_index !521
  %10 = getelementptr inbounds %"struct.std::_Vector_base<int, std::allocator<int>>::_Vector_impl_data", %"struct.std::_Vector_base<int, std::allocator<int>>::_Vector_impl_data"* %9, i32 0, i32 1, !llfi_index !522
  %11 = load i32*, i32** %10, align 8, !llfi_index !523
  %12 = bitcast %"class.std::vector"* %6 to %"struct.std::_Vector_base"*, !llfi_index !524
  %13 = getelementptr inbounds %"struct.std::_Vector_base", %"struct.std::_Vector_base"* %12, i32 0, i32 0, !llfi_index !525
  %14 = bitcast %"struct.std::_Vector_base<int, std::allocator<int>>::_Vector_impl"* %13 to %"struct.std::_Vector_base<int, std::allocator<int>>::_Vector_impl_data"*, !llfi_index !526
  %15 = getelementptr inbounds %"struct.std::_Vector_base<int, std::allocator<int>>::_Vector_impl_data", %"struct.std::_Vector_base<int, std::allocator<int>>::_Vector_impl_data"* %14, i32 0, i32 2, !llfi_index !527
  %16 = load i32*, i32** %15, align 8, !llfi_index !528
  %17 = icmp ne i32* %11, %16, !llfi_index !529
  br i1 %17, label %18, label %34, !llfi_index !530

18:                                               ; preds = %2
  %19 = bitcast %"class.std::vector"* %6 to %"struct.std::_Vector_base"*, !llfi_index !531
  %20 = getelementptr inbounds %"struct.std::_Vector_base", %"struct.std::_Vector_base"* %19, i32 0, i32 0, !llfi_index !532
  %21 = bitcast %"struct.std::_Vector_base<int, std::allocator<int>>::_Vector_impl"* %20 to %"class.std::ios_base::Init"*, !llfi_index !533
  %22 = bitcast %"class.std::vector"* %6 to %"struct.std::_Vector_base"*, !llfi_index !534
  %23 = getelementptr inbounds %"struct.std::_Vector_base", %"struct.std::_Vector_base"* %22, i32 0, i32 0, !llfi_index !535
  %24 = bitcast %"struct.std::_Vector_base<int, std::allocator<int>>::_Vector_impl"* %23 to %"struct.std::_Vector_base<int, std::allocator<int>>::_Vector_impl_data"*, !llfi_index !536
  %25 = getelementptr inbounds %"struct.std::_Vector_base<int, std::allocator<int>>::_Vector_impl_data", %"struct.std::_Vector_base<int, std::allocator<int>>::_Vector_impl_data"* %24, i32 0, i32 1, !llfi_index !537
  %26 = load i32*, i32** %25, align 8, !llfi_index !538
  %27 = load i32*, i32** %4, align 8, !llfi_index !539
  call void @_ZNSt16allocator_traitsISaIiEE9constructIiJRKiEEEvRS0_PT_DpOT0_(%"class.std::ios_base::Init"* nonnull align 1 dereferenceable(1) %21, i32* %26, i32* nonnull align 4 dereferenceable(4) %27) #2, !llfi_index !540
  %28 = bitcast %"class.std::vector"* %6 to %"struct.std::_Vector_base"*, !llfi_index !541
  %29 = getelementptr inbounds %"struct.std::_Vector_base", %"struct.std::_Vector_base"* %28, i32 0, i32 0, !llfi_index !542
  %30 = bitcast %"struct.std::_Vector_base<int, std::allocator<int>>::_Vector_impl"* %29 to %"struct.std::_Vector_base<int, std::allocator<int>>::_Vector_impl_data"*, !llfi_index !543
  %31 = getelementptr inbounds %"struct.std::_Vector_base<int, std::allocator<int>>::_Vector_impl_data", %"struct.std::_Vector_base<int, std::allocator<int>>::_Vector_impl_data"* %30, i32 0, i32 1, !llfi_index !544
  %32 = load i32*, i32** %31, align 8, !llfi_index !545
  %33 = getelementptr inbounds i32, i32* %32, i32 1, !llfi_index !546
  store i32* %33, i32** %31, align 8, !llfi_index !547
  br label %40, !llfi_index !548

34:                                               ; preds = %2
  %35 = call i32* @_ZNSt6vectorIiSaIiEE3endEv(%"class.std::vector"* nonnull align 8 dereferenceable(24) %6) #2, !llfi_index !549
  %36 = getelementptr inbounds %"class.__gnu_cxx::__normal_iterator", %"class.__gnu_cxx::__normal_iterator"* %5, i32 0, i32 0, !llfi_index !550
  store i32* %35, i32** %36, align 8, !llfi_index !551
  %37 = load i32*, i32** %4, align 8, !llfi_index !552
  %38 = getelementptr inbounds %"class.__gnu_cxx::__normal_iterator", %"class.__gnu_cxx::__normal_iterator"* %5, i32 0, i32 0, !llfi_index !553
  %39 = load i32*, i32** %38, align 8, !llfi_index !554
  call void @_ZNSt6vectorIiSaIiEE17_M_realloc_insertIJRKiEEEvN9__gnu_cxx17__normal_iteratorIPiS1_EEDpOT_(%"class.std::vector"* nonnull align 8 dereferenceable(24) %6, i32* %39, i32* nonnull align 4 dereferenceable(4) %37), !llfi_index !555
  br label %40, !llfi_index !556

40:                                               ; preds = %34, %18
  ret void, !llfi_index !557
}

; Function Attrs: noinline nounwind uwtable
define linkonce_odr dso_local void @_ZNSt6vectorIiSaIiEED2Ev(%"class.std::vector"* nonnull align 8 dereferenceable(24) %0) unnamed_addr #6 comdat align 2 personality i8* bitcast (i32 (...)* @__gxx_personality_v0 to i8*) {
  %2 = alloca %"class.std::vector"*, align 8, !llfi_index !558
  %3 = alloca i8*, align 8, !llfi_index !559
  %4 = alloca i32, align 4, !llfi_index !560
  store %"class.std::vector"* %0, %"class.std::vector"** %2, align 8, !llfi_index !561
  %5 = load %"class.std::vector"*, %"class.std::vector"** %2, align 8, !llfi_index !562
  %6 = bitcast %"class.std::vector"* %5 to %"struct.std::_Vector_base"*, !llfi_index !563
  %7 = getelementptr inbounds %"struct.std::_Vector_base", %"struct.std::_Vector_base"* %6, i32 0, i32 0, !llfi_index !564
  %8 = bitcast %"struct.std::_Vector_base<int, std::allocator<int>>::_Vector_impl"* %7 to %"struct.std::_Vector_base<int, std::allocator<int>>::_Vector_impl_data"*, !llfi_index !565
  %9 = getelementptr inbounds %"struct.std::_Vector_base<int, std::allocator<int>>::_Vector_impl_data", %"struct.std::_Vector_base<int, std::allocator<int>>::_Vector_impl_data"* %8, i32 0, i32 0, !llfi_index !566
  %10 = load i32*, i32** %9, align 8, !llfi_index !567
  %11 = bitcast %"class.std::vector"* %5 to %"struct.std::_Vector_base"*, !llfi_index !568
  %12 = getelementptr inbounds %"struct.std::_Vector_base", %"struct.std::_Vector_base"* %11, i32 0, i32 0, !llfi_index !569
  %13 = bitcast %"struct.std::_Vector_base<int, std::allocator<int>>::_Vector_impl"* %12 to %"struct.std::_Vector_base<int, std::allocator<int>>::_Vector_impl_data"*, !llfi_index !570
  %14 = getelementptr inbounds %"struct.std::_Vector_base<int, std::allocator<int>>::_Vector_impl_data", %"struct.std::_Vector_base<int, std::allocator<int>>::_Vector_impl_data"* %13, i32 0, i32 1, !llfi_index !571
  %15 = load i32*, i32** %14, align 8, !llfi_index !572
  %16 = bitcast %"class.std::vector"* %5 to %"struct.std::_Vector_base"*, !llfi_index !573
  %17 = call nonnull align 1 dereferenceable(1) %"class.std::ios_base::Init"* @_ZNSt12_Vector_baseIiSaIiEE19_M_get_Tp_allocatorEv(%"struct.std::_Vector_base"* nonnull align 8 dereferenceable(24) %16) #2, !llfi_index !574
  invoke void @_ZSt8_DestroyIPiiEvT_S1_RSaIT0_E(i32* %10, i32* %15, %"class.std::ios_base::Init"* nonnull align 1 dereferenceable(1) %17)
          to label %18 unwind label %20, !llfi_index !575

18:                                               ; preds = %1
  %19 = bitcast %"class.std::vector"* %5 to %"struct.std::_Vector_base"*, !llfi_index !576
  call void @_ZNSt12_Vector_baseIiSaIiEED2Ev(%"struct.std::_Vector_base"* nonnull align 8 dereferenceable(24) %19) #2, !llfi_index !577
  ret void, !llfi_index !578

20:                                               ; preds = %1
  %21 = landingpad { i8*, i32 }
          catch i8* null, !llfi_index !579
  %22 = extractvalue { i8*, i32 } %21, 0, !llfi_index !580
  store i8* %22, i8** %3, align 8, !llfi_index !581
  %23 = extractvalue { i8*, i32 } %21, 1, !llfi_index !582
  store i32 %23, i32* %4, align 4, !llfi_index !583
  %24 = bitcast %"class.std::vector"* %5 to %"struct.std::_Vector_base"*, !llfi_index !584
  call void @_ZNSt12_Vector_baseIiSaIiEED2Ev(%"struct.std::_Vector_base"* nonnull align 8 dereferenceable(24) %24) #2, !llfi_index !585
  br label %25, !llfi_index !586

25:                                               ; preds = %20
  %26 = load i8*, i8** %3, align 8, !llfi_index !587
  call void @__clang_call_terminate(i8* %26) #14, !llfi_index !588
  unreachable, !llfi_index !589
}

; Function Attrs: mustprogress noinline nounwind uwtable
define linkonce_odr dso_local i64 @_ZNKSt6vectorIiSaIiEE4sizeEv(%"class.std::vector"* nonnull align 8 dereferenceable(24) %0) #4 comdat align 2 {
  %2 = alloca %"class.std::vector"*, align 8, !llfi_index !590
  store %"class.std::vector"* %0, %"class.std::vector"** %2, align 8, !llfi_index !591
  %3 = load %"class.std::vector"*, %"class.std::vector"** %2, align 8, !llfi_index !592
  %4 = bitcast %"class.std::vector"* %3 to %"struct.std::_Vector_base"*, !llfi_index !593
  %5 = getelementptr inbounds %"struct.std::_Vector_base", %"struct.std::_Vector_base"* %4, i32 0, i32 0, !llfi_index !594
  %6 = bitcast %"struct.std::_Vector_base<int, std::allocator<int>>::_Vector_impl"* %5 to %"struct.std::_Vector_base<int, std::allocator<int>>::_Vector_impl_data"*, !llfi_index !595
  %7 = getelementptr inbounds %"struct.std::_Vector_base<int, std::allocator<int>>::_Vector_impl_data", %"struct.std::_Vector_base<int, std::allocator<int>>::_Vector_impl_data"* %6, i32 0, i32 1, !llfi_index !596
  %8 = load i32*, i32** %7, align 8, !llfi_index !597
  %9 = bitcast %"class.std::vector"* %3 to %"struct.std::_Vector_base"*, !llfi_index !598
  %10 = getelementptr inbounds %"struct.std::_Vector_base", %"struct.std::_Vector_base"* %9, i32 0, i32 0, !llfi_index !599
  %11 = bitcast %"struct.std::_Vector_base<int, std::allocator<int>>::_Vector_impl"* %10 to %"struct.std::_Vector_base<int, std::allocator<int>>::_Vector_impl_data"*, !llfi_index !600
  %12 = getelementptr inbounds %"struct.std::_Vector_base<int, std::allocator<int>>::_Vector_impl_data", %"struct.std::_Vector_base<int, std::allocator<int>>::_Vector_impl_data"* %11, i32 0, i32 0, !llfi_index !601
  %13 = load i32*, i32** %12, align 8, !llfi_index !602
  %14 = ptrtoint i32* %8 to i64, !llfi_index !603
  %15 = ptrtoint i32* %13 to i64, !llfi_index !604
  %16 = sub i64 %14, %15, !llfi_index !605
  %17 = sdiv exact i64 %16, 4, !llfi_index !606
  ret i64 %17, !llfi_index !607
}

; Function Attrs: mustprogress noinline nounwind uwtable
define linkonce_odr dso_local i32* @_ZNSt6vectorIiSaIiEE5beginEv(%"class.std::vector"* nonnull align 8 dereferenceable(24) %0) #4 comdat align 2 {
  %2 = alloca %"class.__gnu_cxx::__normal_iterator", align 8, !llfi_index !608
  %3 = alloca %"class.std::vector"*, align 8, !llfi_index !609
  store %"class.std::vector"* %0, %"class.std::vector"** %3, align 8, !llfi_index !610
  %4 = load %"class.std::vector"*, %"class.std::vector"** %3, align 8, !llfi_index !611
  %5 = bitcast %"class.std::vector"* %4 to %"struct.std::_Vector_base"*, !llfi_index !612
  %6 = getelementptr inbounds %"struct.std::_Vector_base", %"struct.std::_Vector_base"* %5, i32 0, i32 0, !llfi_index !613
  %7 = bitcast %"struct.std::_Vector_base<int, std::allocator<int>>::_Vector_impl"* %6 to %"struct.std::_Vector_base<int, std::allocator<int>>::_Vector_impl_data"*, !llfi_index !614
  %8 = getelementptr inbounds %"struct.std::_Vector_base<int, std::allocator<int>>::_Vector_impl_data", %"struct.std::_Vector_base<int, std::allocator<int>>::_Vector_impl_data"* %7, i32 0, i32 0, !llfi_index !615
  call void @_ZN9__gnu_cxx17__normal_iteratorIPiSt6vectorIiSaIiEEEC2ERKS1_(%"class.__gnu_cxx::__normal_iterator"* nonnull align 8 dereferenceable(8) %2, i32** nonnull align 8 dereferenceable(8) %8) #2, !llfi_index !616
  %9 = getelementptr inbounds %"class.__gnu_cxx::__normal_iterator", %"class.__gnu_cxx::__normal_iterator"* %2, i32 0, i32 0, !llfi_index !617
  %10 = load i32*, i32** %9, align 8, !llfi_index !618
  ret i32* %10, !llfi_index !619
}

; Function Attrs: mustprogress noinline nounwind uwtable
define linkonce_odr dso_local i32* @_ZNSt6vectorIiSaIiEE3endEv(%"class.std::vector"* nonnull align 8 dereferenceable(24) %0) #4 comdat align 2 {
  %2 = alloca %"class.__gnu_cxx::__normal_iterator", align 8, !llfi_index !620
  %3 = alloca %"class.std::vector"*, align 8, !llfi_index !621
  store %"class.std::vector"* %0, %"class.std::vector"** %3, align 8, !llfi_index !622
  %4 = load %"class.std::vector"*, %"class.std::vector"** %3, align 8, !llfi_index !623
  %5 = bitcast %"class.std::vector"* %4 to %"struct.std::_Vector_base"*, !llfi_index !624
  %6 = getelementptr inbounds %"struct.std::_Vector_base", %"struct.std::_Vector_base"* %5, i32 0, i32 0, !llfi_index !625
  %7 = bitcast %"struct.std::_Vector_base<int, std::allocator<int>>::_Vector_impl"* %6 to %"struct.std::_Vector_base<int, std::allocator<int>>::_Vector_impl_data"*, !llfi_index !626
  %8 = getelementptr inbounds %"struct.std::_Vector_base<int, std::allocator<int>>::_Vector_impl_data", %"struct.std::_Vector_base<int, std::allocator<int>>::_Vector_impl_data"* %7, i32 0, i32 1, !llfi_index !627
  call void @_ZN9__gnu_cxx17__normal_iteratorIPiSt6vectorIiSaIiEEEC2ERKS1_(%"class.__gnu_cxx::__normal_iterator"* nonnull align 8 dereferenceable(8) %2, i32** nonnull align 8 dereferenceable(8) %8) #2, !llfi_index !628
  %9 = getelementptr inbounds %"class.__gnu_cxx::__normal_iterator", %"class.__gnu_cxx::__normal_iterator"* %2, i32 0, i32 0, !llfi_index !629
  %10 = load i32*, i32** %9, align 8, !llfi_index !630
  ret i32* %10, !llfi_index !631
}

; Function Attrs: mustprogress noinline uwtable
define linkonce_odr dso_local i32* @_ZSt11upper_boundIN9__gnu_cxx17__normal_iteratorIPiSt6vectorIiSaIiEEEEiET_S7_S7_RKT0_(i32* %0, i32* %1, i32* nonnull align 4 dereferenceable(4) %2) #7 comdat {
  %4 = alloca %"class.__gnu_cxx::__normal_iterator", align 8, !llfi_index !632
  %5 = alloca %"class.__gnu_cxx::__normal_iterator", align 8, !llfi_index !633
  %6 = alloca %"class.__gnu_cxx::__normal_iterator", align 8, !llfi_index !634
  %7 = alloca i32*, align 8, !llfi_index !635
  %8 = alloca %"class.__gnu_cxx::__normal_iterator", align 8, !llfi_index !636
  %9 = alloca %"class.__gnu_cxx::__normal_iterator", align 8, !llfi_index !637
  %10 = alloca %"class.std::ios_base::Init", align 1, !llfi_index !638
  %11 = alloca %"class.std::ios_base::Init", align 1, !llfi_index !639
  %12 = getelementptr inbounds %"class.__gnu_cxx::__normal_iterator", %"class.__gnu_cxx::__normal_iterator"* %5, i32 0, i32 0, !llfi_index !640
  store i32* %0, i32** %12, align 8, !llfi_index !641
  %13 = getelementptr inbounds %"class.__gnu_cxx::__normal_iterator", %"class.__gnu_cxx::__normal_iterator"* %6, i32 0, i32 0, !llfi_index !642
  store i32* %1, i32** %13, align 8, !llfi_index !643
  store i32* %2, i32** %7, align 8, !llfi_index !644
  %14 = bitcast %"class.__gnu_cxx::__normal_iterator"* %8 to i8*, !llfi_index !645
  %15 = bitcast %"class.__gnu_cxx::__normal_iterator"* %5 to i8*, !llfi_index !646
  call void @llvm.memcpy.p0i8.p0i8.i64(i8* align 8 %14, i8* align 8 %15, i64 8, i1 false), !llfi_index !647
  %16 = bitcast %"class.__gnu_cxx::__normal_iterator"* %9 to i8*, !llfi_index !648
  %17 = bitcast %"class.__gnu_cxx::__normal_iterator"* %6 to i8*, !llfi_index !649
  call void @llvm.memcpy.p0i8.p0i8.i64(i8* align 8 %16, i8* align 8 %17, i64 8, i1 false), !llfi_index !650
  %18 = load i32*, i32** %7, align 8, !llfi_index !651
  call void @_ZN9__gnu_cxx5__ops15__val_less_iterEv(), !llfi_index !652
  %19 = getelementptr inbounds %"class.__gnu_cxx::__normal_iterator", %"class.__gnu_cxx::__normal_iterator"* %8, i32 0, i32 0, !llfi_index !653
  %20 = load i32*, i32** %19, align 8, !llfi_index !654
  %21 = getelementptr inbounds %"class.__gnu_cxx::__normal_iterator", %"class.__gnu_cxx::__normal_iterator"* %9, i32 0, i32 0, !llfi_index !655
  %22 = load i32*, i32** %21, align 8, !llfi_index !656
  %23 = call i32* @_ZSt13__upper_boundIN9__gnu_cxx17__normal_iteratorIPiSt6vectorIiSaIiEEEEiNS0_5__ops14_Val_less_iterEET_S9_S9_RKT0_T1_(i32* %20, i32* %22, i32* nonnull align 4 dereferenceable(4) %18), !llfi_index !657
  %24 = getelementptr inbounds %"class.__gnu_cxx::__normal_iterator", %"class.__gnu_cxx::__normal_iterator"* %4, i32 0, i32 0, !llfi_index !658
  store i32* %23, i32** %24, align 8, !llfi_index !659
  %25 = getelementptr inbounds %"class.__gnu_cxx::__normal_iterator", %"class.__gnu_cxx::__normal_iterator"* %4, i32 0, i32 0, !llfi_index !660
  %26 = load i32*, i32** %25, align 8, !llfi_index !661
  ret i32* %26, !llfi_index !662
}

; Function Attrs: mustprogress noinline nounwind uwtable
define linkonce_odr dso_local i64 @_ZN9__gnu_cxxmiIPiSt6vectorIiSaIiEEEENS_17__normal_iteratorIT_T0_E15difference_typeERKS8_SB_(%"class.__gnu_cxx::__normal_iterator"* nonnull align 8 dereferenceable(8) %0, %"class.__gnu_cxx::__normal_iterator"* nonnull align 8 dereferenceable(8) %1) #4 comdat {
  %3 = alloca %"class.__gnu_cxx::__normal_iterator"*, align 8, !llfi_index !663
  %4 = alloca %"class.__gnu_cxx::__normal_iterator"*, align 8, !llfi_index !664
  store %"class.__gnu_cxx::__normal_iterator"* %0, %"class.__gnu_cxx::__normal_iterator"** %3, align 8, !llfi_index !665
  store %"class.__gnu_cxx::__normal_iterator"* %1, %"class.__gnu_cxx::__normal_iterator"** %4, align 8, !llfi_index !666
  %5 = load %"class.__gnu_cxx::__normal_iterator"*, %"class.__gnu_cxx::__normal_iterator"** %3, align 8, !llfi_index !667
  %6 = call nonnull align 8 dereferenceable(8) i32** @_ZNK9__gnu_cxx17__normal_iteratorIPiSt6vectorIiSaIiEEE4baseEv(%"class.__gnu_cxx::__normal_iterator"* nonnull align 8 dereferenceable(8) %5) #2, !llfi_index !668
  %7 = load i32*, i32** %6, align 8, !llfi_index !669
  %8 = load %"class.__gnu_cxx::__normal_iterator"*, %"class.__gnu_cxx::__normal_iterator"** %4, align 8, !llfi_index !670
  %9 = call nonnull align 8 dereferenceable(8) i32** @_ZNK9__gnu_cxx17__normal_iteratorIPiSt6vectorIiSaIiEEE4baseEv(%"class.__gnu_cxx::__normal_iterator"* nonnull align 8 dereferenceable(8) %8) #2, !llfi_index !671
  %10 = load i32*, i32** %9, align 8, !llfi_index !672
  %11 = ptrtoint i32* %7 to i64, !llfi_index !673
  %12 = ptrtoint i32* %10 to i64, !llfi_index !674
  %13 = sub i64 %11, %12, !llfi_index !675
  %14 = sdiv exact i64 %13, 4, !llfi_index !676
  ret i64 %14, !llfi_index !677
}

declare dso_local nonnull align 8 dereferenceable(8) %"class.std::basic_ostream"* @_ZNSolsEx(%"class.std::basic_ostream"* nonnull align 8 dereferenceable(8), i64) #1

declare dso_local nonnull align 8 dereferenceable(8) %"class.std::basic_ostream"* @_ZSt4endlIcSt11char_traitsIcEERSt13basic_ostreamIT_T0_ES6_(%"class.std::basic_ostream"* nonnull align 8 dereferenceable(8)) #1

declare dso_local nonnull align 8 dereferenceable(8) %"class.std::basic_ostream"* @_ZNSolsEPFRSoS_E(%"class.std::basic_ostream"* nonnull align 8 dereferenceable(8), %"class.std::basic_ostream"* (%"class.std::basic_ostream"*)*) #1

; Function Attrs: mustprogress noinline nounwind uwtable
define linkonce_odr dso_local nonnull align 8 dereferenceable(8) i32** @_ZNK9__gnu_cxx17__normal_iteratorIPiSt6vectorIiSaIiEEE4baseEv(%"class.__gnu_cxx::__normal_iterator"* nonnull align 8 dereferenceable(8) %0) #4 comdat align 2 {
  %2 = alloca %"class.__gnu_cxx::__normal_iterator"*, align 8, !llfi_index !678
  store %"class.__gnu_cxx::__normal_iterator"* %0, %"class.__gnu_cxx::__normal_iterator"** %2, align 8, !llfi_index !679
  %3 = load %"class.__gnu_cxx::__normal_iterator"*, %"class.__gnu_cxx::__normal_iterator"** %2, align 8, !llfi_index !680
  %4 = getelementptr inbounds %"class.__gnu_cxx::__normal_iterator", %"class.__gnu_cxx::__normal_iterator"* %3, i32 0, i32 0, !llfi_index !681
  ret i32** %4, !llfi_index !682
}

; Function Attrs: argmemonly nofree nounwind willreturn
declare void @llvm.memcpy.p0i8.p0i8.i64(i8* noalias nocapture writeonly, i8* noalias nocapture readonly, i64, i1 immarg) #8

; Function Attrs: mustprogress noinline nounwind uwtable
define linkonce_odr dso_local void @_ZN9__gnu_cxx5__ops15__val_less_iterEv() #4 comdat {
  ret void, !llfi_index !683
}

; Function Attrs: mustprogress noinline uwtable
define linkonce_odr dso_local i32* @_ZSt13__upper_boundIN9__gnu_cxx17__normal_iteratorIPiSt6vectorIiSaIiEEEEiNS0_5__ops14_Val_less_iterEET_S9_S9_RKT0_T1_(i32* %0, i32* %1, i32* nonnull align 4 dereferenceable(4) %2) #7 comdat {
  %4 = alloca %"class.__gnu_cxx::__normal_iterator", align 8, !llfi_index !684
  %5 = alloca %"class.__gnu_cxx::__normal_iterator", align 8, !llfi_index !685
  %6 = alloca %"class.__gnu_cxx::__normal_iterator", align 8, !llfi_index !686
  %7 = alloca %"class.std::ios_base::Init", align 1, !llfi_index !687
  %8 = alloca i32*, align 8, !llfi_index !688
  %9 = alloca i64, align 8, !llfi_index !689
  %10 = alloca %"class.__gnu_cxx::__normal_iterator", align 8, !llfi_index !690
  %11 = alloca %"class.__gnu_cxx::__normal_iterator", align 8, !llfi_index !691
  %12 = alloca i64, align 8, !llfi_index !692
  %13 = alloca %"class.__gnu_cxx::__normal_iterator", align 8, !llfi_index !693
  %14 = alloca %"class.__gnu_cxx::__normal_iterator", align 8, !llfi_index !694
  %15 = getelementptr inbounds %"class.__gnu_cxx::__normal_iterator", %"class.__gnu_cxx::__normal_iterator"* %5, i32 0, i32 0, !llfi_index !695
  store i32* %0, i32** %15, align 8, !llfi_index !696
  %16 = getelementptr inbounds %"class.__gnu_cxx::__normal_iterator", %"class.__gnu_cxx::__normal_iterator"* %6, i32 0, i32 0, !llfi_index !697
  store i32* %1, i32** %16, align 8, !llfi_index !698
  store i32* %2, i32** %8, align 8, !llfi_index !699
  %17 = bitcast %"class.__gnu_cxx::__normal_iterator"* %10 to i8*, !llfi_index !700
  %18 = bitcast %"class.__gnu_cxx::__normal_iterator"* %5 to i8*, !llfi_index !701
  call void @llvm.memcpy.p0i8.p0i8.i64(i8* align 8 %17, i8* align 8 %18, i64 8, i1 false), !llfi_index !702
  %19 = bitcast %"class.__gnu_cxx::__normal_iterator"* %11 to i8*, !llfi_index !703
  %20 = bitcast %"class.__gnu_cxx::__normal_iterator"* %6 to i8*, !llfi_index !704
  call void @llvm.memcpy.p0i8.p0i8.i64(i8* align 8 %19, i8* align 8 %20, i64 8, i1 false), !llfi_index !705
  %21 = getelementptr inbounds %"class.__gnu_cxx::__normal_iterator", %"class.__gnu_cxx::__normal_iterator"* %10, i32 0, i32 0, !llfi_index !706
  %22 = load i32*, i32** %21, align 8, !llfi_index !707
  %23 = getelementptr inbounds %"class.__gnu_cxx::__normal_iterator", %"class.__gnu_cxx::__normal_iterator"* %11, i32 0, i32 0, !llfi_index !708
  %24 = load i32*, i32** %23, align 8, !llfi_index !709
  %25 = call i64 @_ZSt8distanceIN9__gnu_cxx17__normal_iteratorIPiSt6vectorIiSaIiEEEEENSt15iterator_traitsIT_E15difference_typeES8_S8_(i32* %22, i32* %24), !llfi_index !710
  store i64 %25, i64* %9, align 8, !llfi_index !711
  br label %26, !llfi_index !712

26:                                               ; preds = %51, %3
  %27 = load i64, i64* %9, align 8, !llfi_index !713
  %28 = icmp sgt i64 %27, 0, !llfi_index !714
  br i1 %28, label %29, label %52, !llfi_index !715

29:                                               ; preds = %26
  %30 = load i64, i64* %9, align 8, !llfi_index !716
  %31 = ashr i64 %30, 1, !llfi_index !717
  store i64 %31, i64* %12, align 8, !llfi_index !718
  %32 = bitcast %"class.__gnu_cxx::__normal_iterator"* %13 to i8*, !llfi_index !719
  %33 = bitcast %"class.__gnu_cxx::__normal_iterator"* %5 to i8*, !llfi_index !720
  call void @llvm.memcpy.p0i8.p0i8.i64(i8* align 8 %32, i8* align 8 %33, i64 8, i1 false), !llfi_index !721
  %34 = load i64, i64* %12, align 8, !llfi_index !722
  call void @_ZSt7advanceIN9__gnu_cxx17__normal_iteratorIPiSt6vectorIiSaIiEEEElEvRT_T0_(%"class.__gnu_cxx::__normal_iterator"* nonnull align 8 dereferenceable(8) %13, i64 %34), !llfi_index !723
  %35 = load i32*, i32** %8, align 8, !llfi_index !724
  %36 = bitcast %"class.__gnu_cxx::__normal_iterator"* %14 to i8*, !llfi_index !725
  %37 = bitcast %"class.__gnu_cxx::__normal_iterator"* %13 to i8*, !llfi_index !726
  call void @llvm.memcpy.p0i8.p0i8.i64(i8* align 8 %36, i8* align 8 %37, i64 8, i1 false), !llfi_index !727
  %38 = getelementptr inbounds %"class.__gnu_cxx::__normal_iterator", %"class.__gnu_cxx::__normal_iterator"* %14, i32 0, i32 0, !llfi_index !728
  %39 = load i32*, i32** %38, align 8, !llfi_index !729
  %40 = call zeroext i1 @_ZNK9__gnu_cxx5__ops14_Val_less_iterclIKiNS_17__normal_iteratorIPiSt6vectorIiSaIiEEEEEEbRT_T0_(%"class.std::ios_base::Init"* nonnull align 1 dereferenceable(1) %7, i32* nonnull align 4 dereferenceable(4) %35, i32* %39), !llfi_index !730
  br i1 %40, label %41, label %43, !llfi_index !731

41:                                               ; preds = %29
  %42 = load i64, i64* %12, align 8, !llfi_index !732
  store i64 %42, i64* %9, align 8, !llfi_index !733
  br label %51, !llfi_index !734

43:                                               ; preds = %29
  %44 = bitcast %"class.__gnu_cxx::__normal_iterator"* %5 to i8*, !llfi_index !735
  %45 = bitcast %"class.__gnu_cxx::__normal_iterator"* %13 to i8*, !llfi_index !736
  call void @llvm.memcpy.p0i8.p0i8.i64(i8* align 8 %44, i8* align 8 %45, i64 8, i1 false), !llfi_index !737
  %46 = call nonnull align 8 dereferenceable(8) %"class.__gnu_cxx::__normal_iterator"* @_ZN9__gnu_cxx17__normal_iteratorIPiSt6vectorIiSaIiEEEppEv(%"class.__gnu_cxx::__normal_iterator"* nonnull align 8 dereferenceable(8) %5) #2, !llfi_index !738
  %47 = load i64, i64* %9, align 8, !llfi_index !739
  %48 = load i64, i64* %12, align 8, !llfi_index !740
  %49 = sub nsw i64 %47, %48, !llfi_index !741
  %50 = sub nsw i64 %49, 1, !llfi_index !742
  store i64 %50, i64* %9, align 8, !llfi_index !743
  br label %51, !llfi_index !744

51:                                               ; preds = %43, %41
  br label %26, !llvm.loop !745, !llfi_index !746

52:                                               ; preds = %26
  %53 = bitcast %"class.__gnu_cxx::__normal_iterator"* %4 to i8*, !llfi_index !747
  %54 = bitcast %"class.__gnu_cxx::__normal_iterator"* %5 to i8*, !llfi_index !748
  call void @llvm.memcpy.p0i8.p0i8.i64(i8* align 8 %53, i8* align 8 %54, i64 8, i1 false), !llfi_index !749
  %55 = getelementptr inbounds %"class.__gnu_cxx::__normal_iterator", %"class.__gnu_cxx::__normal_iterator"* %4, i32 0, i32 0, !llfi_index !750
  %56 = load i32*, i32** %55, align 8, !llfi_index !751
  ret i32* %56, !llfi_index !752
}

; Function Attrs: mustprogress noinline uwtable
define linkonce_odr dso_local i64 @_ZSt8distanceIN9__gnu_cxx17__normal_iteratorIPiSt6vectorIiSaIiEEEEENSt15iterator_traitsIT_E15difference_typeES8_S8_(i32* %0, i32* %1) #7 comdat {
  %3 = alloca %"class.__gnu_cxx::__normal_iterator", align 8, !llfi_index !753
  %4 = alloca %"class.__gnu_cxx::__normal_iterator", align 8, !llfi_index !754
  %5 = alloca %"class.__gnu_cxx::__normal_iterator", align 8, !llfi_index !755
  %6 = alloca %"class.__gnu_cxx::__normal_iterator", align 8, !llfi_index !756
  %7 = alloca %"class.std::ios_base::Init", align 1, !llfi_index !757
  %8 = alloca %"class.std::ios_base::Init", align 1, !llfi_index !758
  %9 = getelementptr inbounds %"class.__gnu_cxx::__normal_iterator", %"class.__gnu_cxx::__normal_iterator"* %3, i32 0, i32 0, !llfi_index !759
  store i32* %0, i32** %9, align 8, !llfi_index !760
  %10 = getelementptr inbounds %"class.__gnu_cxx::__normal_iterator", %"class.__gnu_cxx::__normal_iterator"* %4, i32 0, i32 0, !llfi_index !761
  store i32* %1, i32** %10, align 8, !llfi_index !762
  %11 = bitcast %"class.__gnu_cxx::__normal_iterator"* %5 to i8*, !llfi_index !763
  %12 = bitcast %"class.__gnu_cxx::__normal_iterator"* %3 to i8*, !llfi_index !764
  call void @llvm.memcpy.p0i8.p0i8.i64(i8* align 8 %11, i8* align 8 %12, i64 8, i1 false), !llfi_index !765
  %13 = bitcast %"class.__gnu_cxx::__normal_iterator"* %6 to i8*, !llfi_index !766
  %14 = bitcast %"class.__gnu_cxx::__normal_iterator"* %4 to i8*, !llfi_index !767
  call void @llvm.memcpy.p0i8.p0i8.i64(i8* align 8 %13, i8* align 8 %14, i64 8, i1 false), !llfi_index !768
  call void @_ZSt19__iterator_categoryIN9__gnu_cxx17__normal_iteratorIPiSt6vectorIiSaIiEEEEENSt15iterator_traitsIT_E17iterator_categoryERKS8_(%"class.__gnu_cxx::__normal_iterator"* nonnull align 8 dereferenceable(8) %3), !llfi_index !769
  %15 = getelementptr inbounds %"class.__gnu_cxx::__normal_iterator", %"class.__gnu_cxx::__normal_iterator"* %5, i32 0, i32 0, !llfi_index !770
  %16 = load i32*, i32** %15, align 8, !llfi_index !771
  %17 = getelementptr inbounds %"class.__gnu_cxx::__normal_iterator", %"class.__gnu_cxx::__normal_iterator"* %6, i32 0, i32 0, !llfi_index !772
  %18 = load i32*, i32** %17, align 8, !llfi_index !773
  %19 = call i64 @_ZSt10__distanceIN9__gnu_cxx17__normal_iteratorIPiSt6vectorIiSaIiEEEEENSt15iterator_traitsIT_E15difference_typeES8_S8_St26random_access_iterator_tag(i32* %16, i32* %18), !llfi_index !774
  ret i64 %19, !llfi_index !775
}

; Function Attrs: mustprogress noinline uwtable
define linkonce_odr dso_local void @_ZSt7advanceIN9__gnu_cxx17__normal_iteratorIPiSt6vectorIiSaIiEEEElEvRT_T0_(%"class.__gnu_cxx::__normal_iterator"* nonnull align 8 dereferenceable(8) %0, i64 %1) #7 comdat {
  %3 = alloca %"class.__gnu_cxx::__normal_iterator"*, align 8, !llfi_index !776
  %4 = alloca i64, align 8, !llfi_index !777
  %5 = alloca i64, align 8, !llfi_index !778
  %6 = alloca %"class.std::ios_base::Init", align 1, !llfi_index !779
  %7 = alloca %"class.std::ios_base::Init", align 1, !llfi_index !780
  store %"class.__gnu_cxx::__normal_iterator"* %0, %"class.__gnu_cxx::__normal_iterator"** %3, align 8, !llfi_index !781
  store i64 %1, i64* %4, align 8, !llfi_index !782
  %8 = load i64, i64* %4, align 8, !llfi_index !783
  store i64 %8, i64* %5, align 8, !llfi_index !784
  %9 = load %"class.__gnu_cxx::__normal_iterator"*, %"class.__gnu_cxx::__normal_iterator"** %3, align 8, !llfi_index !785
  %10 = load i64, i64* %5, align 8, !llfi_index !786
  %11 = load %"class.__gnu_cxx::__normal_iterator"*, %"class.__gnu_cxx::__normal_iterator"** %3, align 8, !llfi_index !787
  call void @_ZSt19__iterator_categoryIN9__gnu_cxx17__normal_iteratorIPiSt6vectorIiSaIiEEEEENSt15iterator_traitsIT_E17iterator_categoryERKS8_(%"class.__gnu_cxx::__normal_iterator"* nonnull align 8 dereferenceable(8) %11), !llfi_index !788
  call void @_ZSt9__advanceIN9__gnu_cxx17__normal_iteratorIPiSt6vectorIiSaIiEEEElEvRT_T0_St26random_access_iterator_tag(%"class.__gnu_cxx::__normal_iterator"* nonnull align 8 dereferenceable(8) %9, i64 %10), !llfi_index !789
  ret void, !llfi_index !790
}

; Function Attrs: mustprogress noinline nounwind uwtable
define linkonce_odr dso_local zeroext i1 @_ZNK9__gnu_cxx5__ops14_Val_less_iterclIKiNS_17__normal_iteratorIPiSt6vectorIiSaIiEEEEEEbRT_T0_(%"class.std::ios_base::Init"* nonnull align 1 dereferenceable(1) %0, i32* nonnull align 4 dereferenceable(4) %1, i32* %2) #4 comdat align 2 {
  %4 = alloca %"class.__gnu_cxx::__normal_iterator", align 8, !llfi_index !791
  %5 = alloca %"class.std::ios_base::Init"*, align 8, !llfi_index !792
  %6 = alloca i32*, align 8, !llfi_index !793
  %7 = getelementptr inbounds %"class.__gnu_cxx::__normal_iterator", %"class.__gnu_cxx::__normal_iterator"* %4, i32 0, i32 0, !llfi_index !794
  store i32* %2, i32** %7, align 8, !llfi_index !795
  store %"class.std::ios_base::Init"* %0, %"class.std::ios_base::Init"** %5, align 8, !llfi_index !796
  store i32* %1, i32** %6, align 8, !llfi_index !797
  %8 = load %"class.std::ios_base::Init"*, %"class.std::ios_base::Init"** %5, align 8, !llfi_index !798
  %9 = load i32*, i32** %6, align 8, !llfi_index !799
  %10 = load i32, i32* %9, align 4, !llfi_index !800
  %11 = call nonnull align 4 dereferenceable(4) i32* @_ZNK9__gnu_cxx17__normal_iteratorIPiSt6vectorIiSaIiEEEdeEv(%"class.__gnu_cxx::__normal_iterator"* nonnull align 8 dereferenceable(8) %4) #2, !llfi_index !801
  %12 = load i32, i32* %11, align 4, !llfi_index !802
  %13 = icmp slt i32 %10, %12, !llfi_index !803
  ret i1 %13, !llfi_index !804
}

; Function Attrs: mustprogress noinline nounwind uwtable
define linkonce_odr dso_local nonnull align 8 dereferenceable(8) %"class.__gnu_cxx::__normal_iterator"* @_ZN9__gnu_cxx17__normal_iteratorIPiSt6vectorIiSaIiEEEppEv(%"class.__gnu_cxx::__normal_iterator"* nonnull align 8 dereferenceable(8) %0) #4 comdat align 2 {
  %2 = alloca %"class.__gnu_cxx::__normal_iterator"*, align 8, !llfi_index !805
  store %"class.__gnu_cxx::__normal_iterator"* %0, %"class.__gnu_cxx::__normal_iterator"** %2, align 8, !llfi_index !806
  %3 = load %"class.__gnu_cxx::__normal_iterator"*, %"class.__gnu_cxx::__normal_iterator"** %2, align 8, !llfi_index !807
  %4 = getelementptr inbounds %"class.__gnu_cxx::__normal_iterator", %"class.__gnu_cxx::__normal_iterator"* %3, i32 0, i32 0, !llfi_index !808
  %5 = load i32*, i32** %4, align 8, !llfi_index !809
  %6 = getelementptr inbounds i32, i32* %5, i32 1, !llfi_index !810
  store i32* %6, i32** %4, align 8, !llfi_index !811
  ret %"class.__gnu_cxx::__normal_iterator"* %3, !llfi_index !812
}

; Function Attrs: mustprogress noinline nounwind uwtable
define linkonce_odr dso_local nonnull align 4 dereferenceable(4) i32* @_ZNK9__gnu_cxx17__normal_iteratorIPiSt6vectorIiSaIiEEEdeEv(%"class.__gnu_cxx::__normal_iterator"* nonnull align 8 dereferenceable(8) %0) #4 comdat align 2 {
  %2 = alloca %"class.__gnu_cxx::__normal_iterator"*, align 8, !llfi_index !813
  store %"class.__gnu_cxx::__normal_iterator"* %0, %"class.__gnu_cxx::__normal_iterator"** %2, align 8, !llfi_index !814
  %3 = load %"class.__gnu_cxx::__normal_iterator"*, %"class.__gnu_cxx::__normal_iterator"** %2, align 8, !llfi_index !815
  %4 = getelementptr inbounds %"class.__gnu_cxx::__normal_iterator", %"class.__gnu_cxx::__normal_iterator"* %3, i32 0, i32 0, !llfi_index !816
  %5 = load i32*, i32** %4, align 8, !llfi_index !817
  ret i32* %5, !llfi_index !818
}

; Function Attrs: mustprogress noinline nounwind uwtable
define linkonce_odr dso_local void @_ZSt19__iterator_categoryIN9__gnu_cxx17__normal_iteratorIPiSt6vectorIiSaIiEEEEENSt15iterator_traitsIT_E17iterator_categoryERKS8_(%"class.__gnu_cxx::__normal_iterator"* nonnull align 8 dereferenceable(8) %0) #4 comdat {
  %2 = alloca %"class.__gnu_cxx::__normal_iterator"*, align 8, !llfi_index !819
  store %"class.__gnu_cxx::__normal_iterator"* %0, %"class.__gnu_cxx::__normal_iterator"** %2, align 8, !llfi_index !820
  ret void, !llfi_index !821
}

; Function Attrs: mustprogress noinline nounwind uwtable
define linkonce_odr dso_local void @_ZSt9__advanceIN9__gnu_cxx17__normal_iteratorIPiSt6vectorIiSaIiEEEElEvRT_T0_St26random_access_iterator_tag(%"class.__gnu_cxx::__normal_iterator"* nonnull align 8 dereferenceable(8) %0, i64 %1) #4 comdat {
  %3 = alloca %"class.std::ios_base::Init", align 1, !llfi_index !822
  %4 = alloca %"class.__gnu_cxx::__normal_iterator"*, align 8, !llfi_index !823
  %5 = alloca i64, align 8, !llfi_index !824
  store %"class.__gnu_cxx::__normal_iterator"* %0, %"class.__gnu_cxx::__normal_iterator"** %4, align 8, !llfi_index !825
  store i64 %1, i64* %5, align 8, !llfi_index !826
  %6 = load i64, i64* %5, align 8, !llfi_index !827
  %7 = call i1 @llvm.is.constant.i64(i64 %6), !llfi_index !828
  br i1 %7, label %8, label %14, !llfi_index !829

8:                                                ; preds = %2
  %9 = load i64, i64* %5, align 8, !llfi_index !830
  %10 = icmp eq i64 %9, 1, !llfi_index !831
  br i1 %10, label %11, label %14, !llfi_index !832

11:                                               ; preds = %8
  %12 = load %"class.__gnu_cxx::__normal_iterator"*, %"class.__gnu_cxx::__normal_iterator"** %4, align 8, !llfi_index !833
  %13 = call nonnull align 8 dereferenceable(8) %"class.__gnu_cxx::__normal_iterator"* @_ZN9__gnu_cxx17__normal_iteratorIPiSt6vectorIiSaIiEEEppEv(%"class.__gnu_cxx::__normal_iterator"* nonnull align 8 dereferenceable(8) %12) #2, !llfi_index !834
  br label %28, !llfi_index !835

14:                                               ; preds = %8, %2
  %15 = load i64, i64* %5, align 8, !llfi_index !836
  %16 = call i1 @llvm.is.constant.i64(i64 %15), !llfi_index !837
  br i1 %16, label %17, label %23, !llfi_index !838

17:                                               ; preds = %14
  %18 = load i64, i64* %5, align 8, !llfi_index !839
  %19 = icmp eq i64 %18, -1, !llfi_index !840
  br i1 %19, label %20, label %23, !llfi_index !841

20:                                               ; preds = %17
  %21 = load %"class.__gnu_cxx::__normal_iterator"*, %"class.__gnu_cxx::__normal_iterator"** %4, align 8, !llfi_index !842
  %22 = call nonnull align 8 dereferenceable(8) %"class.__gnu_cxx::__normal_iterator"* @_ZN9__gnu_cxx17__normal_iteratorIPiSt6vectorIiSaIiEEEmmEv(%"class.__gnu_cxx::__normal_iterator"* nonnull align 8 dereferenceable(8) %21) #2, !llfi_index !843
  br label %27, !llfi_index !844

23:                                               ; preds = %17, %14
  %24 = load i64, i64* %5, align 8, !llfi_index !845
  %25 = load %"class.__gnu_cxx::__normal_iterator"*, %"class.__gnu_cxx::__normal_iterator"** %4, align 8, !llfi_index !846
  %26 = call nonnull align 8 dereferenceable(8) %"class.__gnu_cxx::__normal_iterator"* @_ZN9__gnu_cxx17__normal_iteratorIPiSt6vectorIiSaIiEEEpLEl(%"class.__gnu_cxx::__normal_iterator"* nonnull align 8 dereferenceable(8) %25, i64 %24) #2, !llfi_index !847
  br label %27, !llfi_index !848

27:                                               ; preds = %23, %20
  br label %28, !llfi_index !849

28:                                               ; preds = %27, %11
  ret void, !llfi_index !850
}

; Function Attrs: convergent nofree nosync nounwind readnone willreturn
declare i1 @llvm.is.constant.i64(i64) #9

; Function Attrs: mustprogress noinline nounwind uwtable
define linkonce_odr dso_local nonnull align 8 dereferenceable(8) %"class.__gnu_cxx::__normal_iterator"* @_ZN9__gnu_cxx17__normal_iteratorIPiSt6vectorIiSaIiEEEmmEv(%"class.__gnu_cxx::__normal_iterator"* nonnull align 8 dereferenceable(8) %0) #4 comdat align 2 {
  %2 = alloca %"class.__gnu_cxx::__normal_iterator"*, align 8, !llfi_index !851
  store %"class.__gnu_cxx::__normal_iterator"* %0, %"class.__gnu_cxx::__normal_iterator"** %2, align 8, !llfi_index !852
  %3 = load %"class.__gnu_cxx::__normal_iterator"*, %"class.__gnu_cxx::__normal_iterator"** %2, align 8, !llfi_index !853
  %4 = getelementptr inbounds %"class.__gnu_cxx::__normal_iterator", %"class.__gnu_cxx::__normal_iterator"* %3, i32 0, i32 0, !llfi_index !854
  %5 = load i32*, i32** %4, align 8, !llfi_index !855
  %6 = getelementptr inbounds i32, i32* %5, i32 -1, !llfi_index !856
  store i32* %6, i32** %4, align 8, !llfi_index !857
  ret %"class.__gnu_cxx::__normal_iterator"* %3, !llfi_index !858
}

; Function Attrs: mustprogress noinline nounwind uwtable
define linkonce_odr dso_local nonnull align 8 dereferenceable(8) %"class.__gnu_cxx::__normal_iterator"* @_ZN9__gnu_cxx17__normal_iteratorIPiSt6vectorIiSaIiEEEpLEl(%"class.__gnu_cxx::__normal_iterator"* nonnull align 8 dereferenceable(8) %0, i64 %1) #4 comdat align 2 {
  %3 = alloca %"class.__gnu_cxx::__normal_iterator"*, align 8, !llfi_index !859
  %4 = alloca i64, align 8, !llfi_index !860
  store %"class.__gnu_cxx::__normal_iterator"* %0, %"class.__gnu_cxx::__normal_iterator"** %3, align 8, !llfi_index !861
  store i64 %1, i64* %4, align 8, !llfi_index !862
  %5 = load %"class.__gnu_cxx::__normal_iterator"*, %"class.__gnu_cxx::__normal_iterator"** %3, align 8, !llfi_index !863
  %6 = load i64, i64* %4, align 8, !llfi_index !864
  %7 = getelementptr inbounds %"class.__gnu_cxx::__normal_iterator", %"class.__gnu_cxx::__normal_iterator"* %5, i32 0, i32 0, !llfi_index !865
  %8 = load i32*, i32** %7, align 8, !llfi_index !866
  %9 = getelementptr inbounds i32, i32* %8, i64 %6, !llfi_index !867
  store i32* %9, i32** %7, align 8, !llfi_index !868
  ret %"class.__gnu_cxx::__normal_iterator"* %5, !llfi_index !869
}

; Function Attrs: mustprogress noinline nounwind uwtable
define linkonce_odr dso_local i64 @_ZSt10__distanceIN9__gnu_cxx17__normal_iteratorIPiSt6vectorIiSaIiEEEEENSt15iterator_traitsIT_E15difference_typeES8_S8_St26random_access_iterator_tag(i32* %0, i32* %1) #4 comdat {
  %3 = alloca %"class.__gnu_cxx::__normal_iterator", align 8, !llfi_index !870
  %4 = alloca %"class.__gnu_cxx::__normal_iterator", align 8, !llfi_index !871
  %5 = alloca %"class.std::ios_base::Init", align 1, !llfi_index !872
  %6 = getelementptr inbounds %"class.__gnu_cxx::__normal_iterator", %"class.__gnu_cxx::__normal_iterator"* %3, i32 0, i32 0, !llfi_index !873
  store i32* %0, i32** %6, align 8, !llfi_index !874
  %7 = getelementptr inbounds %"class.__gnu_cxx::__normal_iterator", %"class.__gnu_cxx::__normal_iterator"* %4, i32 0, i32 0, !llfi_index !875
  store i32* %1, i32** %7, align 8, !llfi_index !876
  %8 = call i64 @_ZN9__gnu_cxxmiIPiSt6vectorIiSaIiEEEENS_17__normal_iteratorIT_T0_E15difference_typeERKS8_SB_(%"class.__gnu_cxx::__normal_iterator"* nonnull align 8 dereferenceable(8) %4, %"class.__gnu_cxx::__normal_iterator"* nonnull align 8 dereferenceable(8) %3) #2, !llfi_index !877
  ret i64 %8, !llfi_index !878
}

; Function Attrs: noinline nounwind uwtable
define linkonce_odr dso_local void @_ZN9__gnu_cxx17__normal_iteratorIPiSt6vectorIiSaIiEEEC2ERKS1_(%"class.__gnu_cxx::__normal_iterator"* nonnull align 8 dereferenceable(8) %0, i32** nonnull align 8 dereferenceable(8) %1) unnamed_addr #6 comdat align 2 {
  %3 = alloca %"class.__gnu_cxx::__normal_iterator"*, align 8, !llfi_index !879
  %4 = alloca i32**, align 8, !llfi_index !880
  store %"class.__gnu_cxx::__normal_iterator"* %0, %"class.__gnu_cxx::__normal_iterator"** %3, align 8, !llfi_index !881
  store i32** %1, i32*** %4, align 8, !llfi_index !882
  %5 = load %"class.__gnu_cxx::__normal_iterator"*, %"class.__gnu_cxx::__normal_iterator"** %3, align 8, !llfi_index !883
  %6 = getelementptr inbounds %"class.__gnu_cxx::__normal_iterator", %"class.__gnu_cxx::__normal_iterator"* %5, i32 0, i32 0, !llfi_index !884
  %7 = load i32**, i32*** %4, align 8, !llfi_index !885
  %8 = load i32*, i32** %7, align 8, !llfi_index !886
  store i32* %8, i32** %6, align 8, !llfi_index !887
  ret void, !llfi_index !888
}

; Function Attrs: mustprogress noinline nounwind uwtable
define linkonce_odr dso_local nonnull align 1 dereferenceable(1) %"class.std::ios_base::Init"* @_ZNSt12_Vector_baseIiSaIiEE19_M_get_Tp_allocatorEv(%"struct.std::_Vector_base"* nonnull align 8 dereferenceable(24) %0) #4 comdat align 2 {
  %2 = alloca %"struct.std::_Vector_base"*, align 8, !llfi_index !889
  store %"struct.std::_Vector_base"* %0, %"struct.std::_Vector_base"** %2, align 8, !llfi_index !890
  %3 = load %"struct.std::_Vector_base"*, %"struct.std::_Vector_base"** %2, align 8, !llfi_index !891
  %4 = getelementptr inbounds %"struct.std::_Vector_base", %"struct.std::_Vector_base"* %3, i32 0, i32 0, !llfi_index !892
  %5 = bitcast %"struct.std::_Vector_base<int, std::allocator<int>>::_Vector_impl"* %4 to %"class.std::ios_base::Init"*, !llfi_index !893
  ret %"class.std::ios_base::Init"* %5, !llfi_index !894
}

; Function Attrs: mustprogress noinline uwtable
define linkonce_odr dso_local void @_ZSt8_DestroyIPiiEvT_S1_RSaIT0_E(i32* %0, i32* %1, %"class.std::ios_base::Init"* nonnull align 1 dereferenceable(1) %2) #7 comdat {
  %4 = alloca i32*, align 8, !llfi_index !895
  %5 = alloca i32*, align 8, !llfi_index !896
  %6 = alloca %"class.std::ios_base::Init"*, align 8, !llfi_index !897
  store i32* %0, i32** %4, align 8, !llfi_index !898
  store i32* %1, i32** %5, align 8, !llfi_index !899
  store %"class.std::ios_base::Init"* %2, %"class.std::ios_base::Init"** %6, align 8, !llfi_index !900
  %7 = load i32*, i32** %4, align 8, !llfi_index !901
  %8 = load i32*, i32** %5, align 8, !llfi_index !902
  call void @_ZSt8_DestroyIPiEvT_S1_(i32* %7, i32* %8), !llfi_index !903
  ret void, !llfi_index !904
}

; Function Attrs: noinline nounwind uwtable
define linkonce_odr dso_local void @_ZNSt12_Vector_baseIiSaIiEED2Ev(%"struct.std::_Vector_base"* nonnull align 8 dereferenceable(24) %0) unnamed_addr #6 comdat align 2 personality i8* bitcast (i32 (...)* @__gxx_personality_v0 to i8*) {
  %2 = alloca %"struct.std::_Vector_base"*, align 8, !llfi_index !905
  %3 = alloca i8*, align 8, !llfi_index !906
  %4 = alloca i32, align 4, !llfi_index !907
  store %"struct.std::_Vector_base"* %0, %"struct.std::_Vector_base"** %2, align 8, !llfi_index !908
  %5 = load %"struct.std::_Vector_base"*, %"struct.std::_Vector_base"** %2, align 8, !llfi_index !909
  %6 = getelementptr inbounds %"struct.std::_Vector_base", %"struct.std::_Vector_base"* %5, i32 0, i32 0, !llfi_index !910
  %7 = bitcast %"struct.std::_Vector_base<int, std::allocator<int>>::_Vector_impl"* %6 to %"struct.std::_Vector_base<int, std::allocator<int>>::_Vector_impl_data"*, !llfi_index !911
  %8 = getelementptr inbounds %"struct.std::_Vector_base<int, std::allocator<int>>::_Vector_impl_data", %"struct.std::_Vector_base<int, std::allocator<int>>::_Vector_impl_data"* %7, i32 0, i32 0, !llfi_index !912
  %9 = load i32*, i32** %8, align 8, !llfi_index !913
  %10 = getelementptr inbounds %"struct.std::_Vector_base", %"struct.std::_Vector_base"* %5, i32 0, i32 0, !llfi_index !914
  %11 = bitcast %"struct.std::_Vector_base<int, std::allocator<int>>::_Vector_impl"* %10 to %"struct.std::_Vector_base<int, std::allocator<int>>::_Vector_impl_data"*, !llfi_index !915
  %12 = getelementptr inbounds %"struct.std::_Vector_base<int, std::allocator<int>>::_Vector_impl_data", %"struct.std::_Vector_base<int, std::allocator<int>>::_Vector_impl_data"* %11, i32 0, i32 2, !llfi_index !916
  %13 = load i32*, i32** %12, align 8, !llfi_index !917
  %14 = getelementptr inbounds %"struct.std::_Vector_base", %"struct.std::_Vector_base"* %5, i32 0, i32 0, !llfi_index !918
  %15 = bitcast %"struct.std::_Vector_base<int, std::allocator<int>>::_Vector_impl"* %14 to %"struct.std::_Vector_base<int, std::allocator<int>>::_Vector_impl_data"*, !llfi_index !919
  %16 = getelementptr inbounds %"struct.std::_Vector_base<int, std::allocator<int>>::_Vector_impl_data", %"struct.std::_Vector_base<int, std::allocator<int>>::_Vector_impl_data"* %15, i32 0, i32 0, !llfi_index !920
  %17 = load i32*, i32** %16, align 8, !llfi_index !921
  %18 = ptrtoint i32* %13 to i64, !llfi_index !922
  %19 = ptrtoint i32* %17 to i64, !llfi_index !923
  %20 = sub i64 %18, %19, !llfi_index !924
  %21 = sdiv exact i64 %20, 4, !llfi_index !925
  invoke void @_ZNSt12_Vector_baseIiSaIiEE13_M_deallocateEPim(%"struct.std::_Vector_base"* nonnull align 8 dereferenceable(24) %5, i32* %9, i64 %21)
          to label %22 unwind label %24, !llfi_index !926

22:                                               ; preds = %1
  %23 = getelementptr inbounds %"struct.std::_Vector_base", %"struct.std::_Vector_base"* %5, i32 0, i32 0, !llfi_index !927
  call void @_ZNSt12_Vector_baseIiSaIiEE12_Vector_implD2Ev(%"struct.std::_Vector_base<int, std::allocator<int>>::_Vector_impl"* nonnull align 8 dereferenceable(24) %23) #2, !llfi_index !928
  ret void, !llfi_index !929

24:                                               ; preds = %1
  %25 = landingpad { i8*, i32 }
          catch i8* null, !llfi_index !930
  %26 = extractvalue { i8*, i32 } %25, 0, !llfi_index !931
  store i8* %26, i8** %3, align 8, !llfi_index !932
  %27 = extractvalue { i8*, i32 } %25, 1, !llfi_index !933
  store i32 %27, i32* %4, align 4, !llfi_index !934
  %28 = getelementptr inbounds %"struct.std::_Vector_base", %"struct.std::_Vector_base"* %5, i32 0, i32 0, !llfi_index !935
  call void @_ZNSt12_Vector_baseIiSaIiEE12_Vector_implD2Ev(%"struct.std::_Vector_base<int, std::allocator<int>>::_Vector_impl"* nonnull align 8 dereferenceable(24) %28) #2, !llfi_index !936
  br label %29, !llfi_index !937

29:                                               ; preds = %24
  %30 = load i8*, i8** %3, align 8, !llfi_index !938
  call void @__clang_call_terminate(i8* %30) #14, !llfi_index !939
  unreachable, !llfi_index !940
}

; Function Attrs: noinline noreturn nounwind
define linkonce_odr hidden void @__clang_call_terminate(i8* %0) #10 comdat {
  %2 = call i8* @__cxa_begin_catch(i8* %0) #2, !llfi_index !941
  call void @_ZSt9terminatev() #14, !llfi_index !942
  unreachable, !llfi_index !943
}

declare dso_local i8* @__cxa_begin_catch(i8*)

declare dso_local void @_ZSt9terminatev()

; Function Attrs: mustprogress noinline uwtable
define linkonce_odr dso_local void @_ZNSt12_Vector_baseIiSaIiEE13_M_deallocateEPim(%"struct.std::_Vector_base"* nonnull align 8 dereferenceable(24) %0, i32* %1, i64 %2) #7 comdat align 2 {
  %4 = alloca %"struct.std::_Vector_base"*, align 8, !llfi_index !944
  %5 = alloca i32*, align 8, !llfi_index !945
  %6 = alloca i64, align 8, !llfi_index !946
  store %"struct.std::_Vector_base"* %0, %"struct.std::_Vector_base"** %4, align 8, !llfi_index !947
  store i32* %1, i32** %5, align 8, !llfi_index !948
  store i64 %2, i64* %6, align 8, !llfi_index !949
  %7 = load %"struct.std::_Vector_base"*, %"struct.std::_Vector_base"** %4, align 8, !llfi_index !950
  %8 = load i32*, i32** %5, align 8, !llfi_index !951
  %9 = icmp ne i32* %8, null, !llfi_index !952
  br i1 %9, label %10, label %15, !llfi_index !953

10:                                               ; preds = %3
  %11 = getelementptr inbounds %"struct.std::_Vector_base", %"struct.std::_Vector_base"* %7, i32 0, i32 0, !llfi_index !954
  %12 = bitcast %"struct.std::_Vector_base<int, std::allocator<int>>::_Vector_impl"* %11 to %"class.std::ios_base::Init"*, !llfi_index !955
  %13 = load i32*, i32** %5, align 8, !llfi_index !956
  %14 = load i64, i64* %6, align 8, !llfi_index !957
  call void @_ZNSt16allocator_traitsISaIiEE10deallocateERS0_Pim(%"class.std::ios_base::Init"* nonnull align 1 dereferenceable(1) %12, i32* %13, i64 %14), !llfi_index !958
  br label %15, !llfi_index !959

15:                                               ; preds = %10, %3
  ret void, !llfi_index !960
}

; Function Attrs: noinline nounwind uwtable
define linkonce_odr dso_local void @_ZNSt12_Vector_baseIiSaIiEE12_Vector_implD2Ev(%"struct.std::_Vector_base<int, std::allocator<int>>::_Vector_impl"* nonnull align 8 dereferenceable(24) %0) unnamed_addr #6 comdat align 2 {
  %2 = alloca %"struct.std::_Vector_base<int, std::allocator<int>>::_Vector_impl"*, align 8, !llfi_index !961
  store %"struct.std::_Vector_base<int, std::allocator<int>>::_Vector_impl"* %0, %"struct.std::_Vector_base<int, std::allocator<int>>::_Vector_impl"** %2, align 8, !llfi_index !962
  %3 = load %"struct.std::_Vector_base<int, std::allocator<int>>::_Vector_impl"*, %"struct.std::_Vector_base<int, std::allocator<int>>::_Vector_impl"** %2, align 8, !llfi_index !963
  %4 = bitcast %"struct.std::_Vector_base<int, std::allocator<int>>::_Vector_impl"* %3 to %"class.std::ios_base::Init"*, !llfi_index !964
  call void @_ZNSaIiED2Ev(%"class.std::ios_base::Init"* nonnull align 1 dereferenceable(1) %4) #2, !llfi_index !965
  ret void, !llfi_index !966
}

; Function Attrs: mustprogress noinline uwtable
define linkonce_odr dso_local void @_ZNSt16allocator_traitsISaIiEE10deallocateERS0_Pim(%"class.std::ios_base::Init"* nonnull align 1 dereferenceable(1) %0, i32* %1, i64 %2) #7 comdat align 2 {
  %4 = alloca %"class.std::ios_base::Init"*, align 8, !llfi_index !967
  %5 = alloca i32*, align 8, !llfi_index !968
  %6 = alloca i64, align 8, !llfi_index !969
  store %"class.std::ios_base::Init"* %0, %"class.std::ios_base::Init"** %4, align 8, !llfi_index !970
  store i32* %1, i32** %5, align 8, !llfi_index !971
  store i64 %2, i64* %6, align 8, !llfi_index !972
  %7 = load %"class.std::ios_base::Init"*, %"class.std::ios_base::Init"** %4, align 8, !llfi_index !973
  %8 = bitcast %"class.std::ios_base::Init"* %7 to %"class.std::ios_base::Init"*, !llfi_index !974
  %9 = load i32*, i32** %5, align 8, !llfi_index !975
  %10 = load i64, i64* %6, align 8, !llfi_index !976
  call void @_ZN9__gnu_cxx13new_allocatorIiE10deallocateEPim(%"class.std::ios_base::Init"* nonnull align 1 dereferenceable(1) %8, i32* %9, i64 %10), !llfi_index !977
  ret void, !llfi_index !978
}

; Function Attrs: mustprogress noinline nounwind uwtable
define linkonce_odr dso_local void @_ZN9__gnu_cxx13new_allocatorIiE10deallocateEPim(%"class.std::ios_base::Init"* nonnull align 1 dereferenceable(1) %0, i32* %1, i64 %2) #4 comdat align 2 {
  %4 = alloca %"class.std::ios_base::Init"*, align 8, !llfi_index !979
  %5 = alloca i32*, align 8, !llfi_index !980
  %6 = alloca i64, align 8, !llfi_index !981
  store %"class.std::ios_base::Init"* %0, %"class.std::ios_base::Init"** %4, align 8, !llfi_index !982
  store i32* %1, i32** %5, align 8, !llfi_index !983
  store i64 %2, i64* %6, align 8, !llfi_index !984
  %7 = load %"class.std::ios_base::Init"*, %"class.std::ios_base::Init"** %4, align 8, !llfi_index !985
  %8 = load i32*, i32** %5, align 8, !llfi_index !986
  %9 = bitcast i32* %8 to i8*, !llfi_index !987
  call void @_ZdlPv(i8* %9) #2, !llfi_index !988
  ret void, !llfi_index !989
}

; Function Attrs: nobuiltin nounwind
declare dso_local void @_ZdlPv(i8*) #11

; Function Attrs: mustprogress noinline uwtable
define linkonce_odr dso_local void @_ZSt8_DestroyIPiEvT_S1_(i32* %0, i32* %1) #7 comdat {
  %3 = alloca i32*, align 8, !llfi_index !990
  %4 = alloca i32*, align 8, !llfi_index !991
  store i32* %0, i32** %3, align 8, !llfi_index !992
  store i32* %1, i32** %4, align 8, !llfi_index !993
  %5 = load i32*, i32** %3, align 8, !llfi_index !994
  %6 = load i32*, i32** %4, align 8, !llfi_index !995
  call void @_ZNSt12_Destroy_auxILb1EE9__destroyIPiEEvT_S3_(i32* %5, i32* %6), !llfi_index !996
  ret void, !llfi_index !997
}

; Function Attrs: mustprogress noinline nounwind uwtable
define linkonce_odr dso_local void @_ZNSt12_Destroy_auxILb1EE9__destroyIPiEEvT_S3_(i32* %0, i32* %1) #4 comdat align 2 {
  %3 = alloca i32*, align 8, !llfi_index !998
  %4 = alloca i32*, align 8, !llfi_index !999
  store i32* %0, i32** %3, align 8, !llfi_index !1000
  store i32* %1, i32** %4, align 8, !llfi_index !1001
  ret void, !llfi_index !1002
}

; Function Attrs: mustprogress noinline nounwind uwtable
define linkonce_odr dso_local void @_ZNSt16allocator_traitsISaIiEE9constructIiJRKiEEEvRS0_PT_DpOT0_(%"class.std::ios_base::Init"* nonnull align 1 dereferenceable(1) %0, i32* %1, i32* nonnull align 4 dereferenceable(4) %2) #4 comdat align 2 {
  %4 = alloca %"class.std::ios_base::Init"*, align 8, !llfi_index !1003
  %5 = alloca i32*, align 8, !llfi_index !1004
  %6 = alloca i32*, align 8, !llfi_index !1005
  store %"class.std::ios_base::Init"* %0, %"class.std::ios_base::Init"** %4, align 8, !llfi_index !1006
  store i32* %1, i32** %5, align 8, !llfi_index !1007
  store i32* %2, i32** %6, align 8, !llfi_index !1008
  %7 = load %"class.std::ios_base::Init"*, %"class.std::ios_base::Init"** %4, align 8, !llfi_index !1009
  %8 = bitcast %"class.std::ios_base::Init"* %7 to %"class.std::ios_base::Init"*, !llfi_index !1010
  %9 = load i32*, i32** %5, align 8, !llfi_index !1011
  %10 = load i32*, i32** %6, align 8, !llfi_index !1012
  %11 = call nonnull align 4 dereferenceable(4) i32* @_ZSt7forwardIRKiEOT_RNSt16remove_referenceIS2_E4typeE(i32* nonnull align 4 dereferenceable(4) %10) #2, !llfi_index !1013
  call void @_ZN9__gnu_cxx13new_allocatorIiE9constructIiJRKiEEEvPT_DpOT0_(%"class.std::ios_base::Init"* nonnull align 1 dereferenceable(1) %8, i32* %9, i32* nonnull align 4 dereferenceable(4) %11) #2, !llfi_index !1014
  ret void, !llfi_index !1015
}

; Function Attrs: mustprogress noinline uwtable
define linkonce_odr dso_local void @_ZNSt6vectorIiSaIiEE17_M_realloc_insertIJRKiEEEvN9__gnu_cxx17__normal_iteratorIPiS1_EEDpOT_(%"class.std::vector"* nonnull align 8 dereferenceable(24) %0, i32* %1, i32* nonnull align 4 dereferenceable(4) %2) #7 comdat align 2 {
  %4 = alloca %"class.__gnu_cxx::__normal_iterator", align 8, !llfi_index !1016
  %5 = alloca %"class.std::vector"*, align 8, !llfi_index !1017
  %6 = alloca i32*, align 8, !llfi_index !1018
  %7 = alloca i64, align 8, !llfi_index !1019
  %8 = alloca i32*, align 8, !llfi_index !1020
  %9 = alloca i32*, align 8, !llfi_index !1021
  %10 = alloca i64, align 8, !llfi_index !1022
  %11 = alloca %"class.__gnu_cxx::__normal_iterator", align 8, !llfi_index !1023
  %12 = alloca i32*, align 8, !llfi_index !1024
  %13 = alloca i32*, align 8, !llfi_index !1025
  %14 = getelementptr inbounds %"class.__gnu_cxx::__normal_iterator", %"class.__gnu_cxx::__normal_iterator"* %4, i32 0, i32 0, !llfi_index !1026
  store i32* %1, i32** %14, align 8, !llfi_index !1027
  store %"class.std::vector"* %0, %"class.std::vector"** %5, align 8, !llfi_index !1028
  store i32* %2, i32** %6, align 8, !llfi_index !1029
  %15 = load %"class.std::vector"*, %"class.std::vector"** %5, align 8, !llfi_index !1030
  %16 = call i64 @_ZNKSt6vectorIiSaIiEE12_M_check_lenEmPKc(%"class.std::vector"* nonnull align 8 dereferenceable(24) %15, i64 1, i8* getelementptr inbounds ([26 x i8], [26 x i8]* @.str.4, i64 0, i64 0)), !llfi_index !1031
  store i64 %16, i64* %7, align 8, !llfi_index !1032
  %17 = bitcast %"class.std::vector"* %15 to %"struct.std::_Vector_base"*, !llfi_index !1033
  %18 = getelementptr inbounds %"struct.std::_Vector_base", %"struct.std::_Vector_base"* %17, i32 0, i32 0, !llfi_index !1034
  %19 = bitcast %"struct.std::_Vector_base<int, std::allocator<int>>::_Vector_impl"* %18 to %"struct.std::_Vector_base<int, std::allocator<int>>::_Vector_impl_data"*, !llfi_index !1035
  %20 = getelementptr inbounds %"struct.std::_Vector_base<int, std::allocator<int>>::_Vector_impl_data", %"struct.std::_Vector_base<int, std::allocator<int>>::_Vector_impl_data"* %19, i32 0, i32 0, !llfi_index !1036
  %21 = load i32*, i32** %20, align 8, !llfi_index !1037
  store i32* %21, i32** %8, align 8, !llfi_index !1038
  %22 = bitcast %"class.std::vector"* %15 to %"struct.std::_Vector_base"*, !llfi_index !1039
  %23 = getelementptr inbounds %"struct.std::_Vector_base", %"struct.std::_Vector_base"* %22, i32 0, i32 0, !llfi_index !1040
  %24 = bitcast %"struct.std::_Vector_base<int, std::allocator<int>>::_Vector_impl"* %23 to %"struct.std::_Vector_base<int, std::allocator<int>>::_Vector_impl_data"*, !llfi_index !1041
  %25 = getelementptr inbounds %"struct.std::_Vector_base<int, std::allocator<int>>::_Vector_impl_data", %"struct.std::_Vector_base<int, std::allocator<int>>::_Vector_impl_data"* %24, i32 0, i32 1, !llfi_index !1042
  %26 = load i32*, i32** %25, align 8, !llfi_index !1043
  store i32* %26, i32** %9, align 8, !llfi_index !1044
  %27 = call i32* @_ZNSt6vectorIiSaIiEE5beginEv(%"class.std::vector"* nonnull align 8 dereferenceable(24) %15) #2, !llfi_index !1045
  %28 = getelementptr inbounds %"class.__gnu_cxx::__normal_iterator", %"class.__gnu_cxx::__normal_iterator"* %11, i32 0, i32 0, !llfi_index !1046
  store i32* %27, i32** %28, align 8, !llfi_index !1047
  %29 = call i64 @_ZN9__gnu_cxxmiIPiSt6vectorIiSaIiEEEENS_17__normal_iteratorIT_T0_E15difference_typeERKS8_SB_(%"class.__gnu_cxx::__normal_iterator"* nonnull align 8 dereferenceable(8) %4, %"class.__gnu_cxx::__normal_iterator"* nonnull align 8 dereferenceable(8) %11) #2, !llfi_index !1048
  store i64 %29, i64* %10, align 8, !llfi_index !1049
  %30 = bitcast %"class.std::vector"* %15 to %"struct.std::_Vector_base"*, !llfi_index !1050
  %31 = load i64, i64* %7, align 8, !llfi_index !1051
  %32 = call i32* @_ZNSt12_Vector_baseIiSaIiEE11_M_allocateEm(%"struct.std::_Vector_base"* nonnull align 8 dereferenceable(24) %30, i64 %31), !llfi_index !1052
  store i32* %32, i32** %12, align 8, !llfi_index !1053
  %33 = load i32*, i32** %12, align 8, !llfi_index !1054
  store i32* %33, i32** %13, align 8, !llfi_index !1055
  %34 = bitcast %"class.std::vector"* %15 to %"struct.std::_Vector_base"*, !llfi_index !1056
  %35 = getelementptr inbounds %"struct.std::_Vector_base", %"struct.std::_Vector_base"* %34, i32 0, i32 0, !llfi_index !1057
  %36 = bitcast %"struct.std::_Vector_base<int, std::allocator<int>>::_Vector_impl"* %35 to %"class.std::ios_base::Init"*, !llfi_index !1058
  %37 = load i32*, i32** %12, align 8, !llfi_index !1059
  %38 = load i64, i64* %10, align 8, !llfi_index !1060
  %39 = getelementptr inbounds i32, i32* %37, i64 %38, !llfi_index !1061
  %40 = load i32*, i32** %6, align 8, !llfi_index !1062
  %41 = call nonnull align 4 dereferenceable(4) i32* @_ZSt7forwardIRKiEOT_RNSt16remove_referenceIS2_E4typeE(i32* nonnull align 4 dereferenceable(4) %40) #2, !llfi_index !1063
  call void @_ZNSt16allocator_traitsISaIiEE9constructIiJRKiEEEvRS0_PT_DpOT0_(%"class.std::ios_base::Init"* nonnull align 1 dereferenceable(1) %36, i32* %39, i32* nonnull align 4 dereferenceable(4) %41) #2, !llfi_index !1064
  store i32* null, i32** %13, align 8, !llfi_index !1065
  %42 = load i32*, i32** %8, align 8, !llfi_index !1066
  %43 = call nonnull align 8 dereferenceable(8) i32** @_ZNK9__gnu_cxx17__normal_iteratorIPiSt6vectorIiSaIiEEE4baseEv(%"class.__gnu_cxx::__normal_iterator"* nonnull align 8 dereferenceable(8) %4) #2, !llfi_index !1067
  %44 = load i32*, i32** %43, align 8, !llfi_index !1068
  %45 = load i32*, i32** %12, align 8, !llfi_index !1069
  %46 = bitcast %"class.std::vector"* %15 to %"struct.std::_Vector_base"*, !llfi_index !1070
  %47 = call nonnull align 1 dereferenceable(1) %"class.std::ios_base::Init"* @_ZNSt12_Vector_baseIiSaIiEE19_M_get_Tp_allocatorEv(%"struct.std::_Vector_base"* nonnull align 8 dereferenceable(24) %46) #2, !llfi_index !1071
  %48 = call i32* @_ZNSt6vectorIiSaIiEE11_S_relocateEPiS2_S2_RS0_(i32* %42, i32* %44, i32* %45, %"class.std::ios_base::Init"* nonnull align 1 dereferenceable(1) %47) #2, !llfi_index !1072
  store i32* %48, i32** %13, align 8, !llfi_index !1073
  %49 = load i32*, i32** %13, align 8, !llfi_index !1074
  %50 = getelementptr inbounds i32, i32* %49, i32 1, !llfi_index !1075
  store i32* %50, i32** %13, align 8, !llfi_index !1076
  %51 = call nonnull align 8 dereferenceable(8) i32** @_ZNK9__gnu_cxx17__normal_iteratorIPiSt6vectorIiSaIiEEE4baseEv(%"class.__gnu_cxx::__normal_iterator"* nonnull align 8 dereferenceable(8) %4) #2, !llfi_index !1077
  %52 = load i32*, i32** %51, align 8, !llfi_index !1078
  %53 = load i32*, i32** %9, align 8, !llfi_index !1079
  %54 = load i32*, i32** %13, align 8, !llfi_index !1080
  %55 = bitcast %"class.std::vector"* %15 to %"struct.std::_Vector_base"*, !llfi_index !1081
  %56 = call nonnull align 1 dereferenceable(1) %"class.std::ios_base::Init"* @_ZNSt12_Vector_baseIiSaIiEE19_M_get_Tp_allocatorEv(%"struct.std::_Vector_base"* nonnull align 8 dereferenceable(24) %55) #2, !llfi_index !1082
  %57 = call i32* @_ZNSt6vectorIiSaIiEE11_S_relocateEPiS2_S2_RS0_(i32* %52, i32* %53, i32* %54, %"class.std::ios_base::Init"* nonnull align 1 dereferenceable(1) %56) #2, !llfi_index !1083
  store i32* %57, i32** %13, align 8, !llfi_index !1084
  %58 = bitcast %"class.std::vector"* %15 to %"struct.std::_Vector_base"*, !llfi_index !1085
  %59 = load i32*, i32** %8, align 8, !llfi_index !1086
  %60 = bitcast %"class.std::vector"* %15 to %"struct.std::_Vector_base"*, !llfi_index !1087
  %61 = getelementptr inbounds %"struct.std::_Vector_base", %"struct.std::_Vector_base"* %60, i32 0, i32 0, !llfi_index !1088
  %62 = bitcast %"struct.std::_Vector_base<int, std::allocator<int>>::_Vector_impl"* %61 to %"struct.std::_Vector_base<int, std::allocator<int>>::_Vector_impl_data"*, !llfi_index !1089
  %63 = getelementptr inbounds %"struct.std::_Vector_base<int, std::allocator<int>>::_Vector_impl_data", %"struct.std::_Vector_base<int, std::allocator<int>>::_Vector_impl_data"* %62, i32 0, i32 2, !llfi_index !1090
  %64 = load i32*, i32** %63, align 8, !llfi_index !1091
  %65 = load i32*, i32** %8, align 8, !llfi_index !1092
  %66 = ptrtoint i32* %64 to i64, !llfi_index !1093
  %67 = ptrtoint i32* %65 to i64, !llfi_index !1094
  %68 = sub i64 %66, %67, !llfi_index !1095
  %69 = sdiv exact i64 %68, 4, !llfi_index !1096
  call void @_ZNSt12_Vector_baseIiSaIiEE13_M_deallocateEPim(%"struct.std::_Vector_base"* nonnull align 8 dereferenceable(24) %58, i32* %59, i64 %69), !llfi_index !1097
  %70 = load i32*, i32** %12, align 8, !llfi_index !1098
  %71 = bitcast %"class.std::vector"* %15 to %"struct.std::_Vector_base"*, !llfi_index !1099
  %72 = getelementptr inbounds %"struct.std::_Vector_base", %"struct.std::_Vector_base"* %71, i32 0, i32 0, !llfi_index !1100
  %73 = bitcast %"struct.std::_Vector_base<int, std::allocator<int>>::_Vector_impl"* %72 to %"struct.std::_Vector_base<int, std::allocator<int>>::_Vector_impl_data"*, !llfi_index !1101
  %74 = getelementptr inbounds %"struct.std::_Vector_base<int, std::allocator<int>>::_Vector_impl_data", %"struct.std::_Vector_base<int, std::allocator<int>>::_Vector_impl_data"* %73, i32 0, i32 0, !llfi_index !1102
  store i32* %70, i32** %74, align 8, !llfi_index !1103
  %75 = load i32*, i32** %13, align 8, !llfi_index !1104
  %76 = bitcast %"class.std::vector"* %15 to %"struct.std::_Vector_base"*, !llfi_index !1105
  %77 = getelementptr inbounds %"struct.std::_Vector_base", %"struct.std::_Vector_base"* %76, i32 0, i32 0, !llfi_index !1106
  %78 = bitcast %"struct.std::_Vector_base<int, std::allocator<int>>::_Vector_impl"* %77 to %"struct.std::_Vector_base<int, std::allocator<int>>::_Vector_impl_data"*, !llfi_index !1107
  %79 = getelementptr inbounds %"struct.std::_Vector_base<int, std::allocator<int>>::_Vector_impl_data", %"struct.std::_Vector_base<int, std::allocator<int>>::_Vector_impl_data"* %78, i32 0, i32 1, !llfi_index !1108
  store i32* %75, i32** %79, align 8, !llfi_index !1109
  %80 = load i32*, i32** %12, align 8, !llfi_index !1110
  %81 = load i64, i64* %7, align 8, !llfi_index !1111
  %82 = getelementptr inbounds i32, i32* %80, i64 %81, !llfi_index !1112
  %83 = bitcast %"class.std::vector"* %15 to %"struct.std::_Vector_base"*, !llfi_index !1113
  %84 = getelementptr inbounds %"struct.std::_Vector_base", %"struct.std::_Vector_base"* %83, i32 0, i32 0, !llfi_index !1114
  %85 = bitcast %"struct.std::_Vector_base<int, std::allocator<int>>::_Vector_impl"* %84 to %"struct.std::_Vector_base<int, std::allocator<int>>::_Vector_impl_data"*, !llfi_index !1115
  %86 = getelementptr inbounds %"struct.std::_Vector_base<int, std::allocator<int>>::_Vector_impl_data", %"struct.std::_Vector_base<int, std::allocator<int>>::_Vector_impl_data"* %85, i32 0, i32 2, !llfi_index !1116
  store i32* %82, i32** %86, align 8, !llfi_index !1117
  ret void, !llfi_index !1118
}

; Function Attrs: mustprogress noinline uwtable
define linkonce_odr dso_local i64 @_ZNKSt6vectorIiSaIiEE12_M_check_lenEmPKc(%"class.std::vector"* nonnull align 8 dereferenceable(24) %0, i64 %1, i8* %2) #7 comdat align 2 {
  %4 = alloca %"class.std::vector"*, align 8, !llfi_index !1119
  %5 = alloca i64, align 8, !llfi_index !1120
  %6 = alloca i8*, align 8, !llfi_index !1121
  %7 = alloca i64, align 8, !llfi_index !1122
  %8 = alloca i64, align 8, !llfi_index !1123
  store %"class.std::vector"* %0, %"class.std::vector"** %4, align 8, !llfi_index !1124
  store i64 %1, i64* %5, align 8, !llfi_index !1125
  store i8* %2, i8** %6, align 8, !llfi_index !1126
  %9 = load %"class.std::vector"*, %"class.std::vector"** %4, align 8, !llfi_index !1127
  %10 = call i64 @_ZNKSt6vectorIiSaIiEE8max_sizeEv(%"class.std::vector"* nonnull align 8 dereferenceable(24) %9) #2, !llfi_index !1128
  %11 = call i64 @_ZNKSt6vectorIiSaIiEE4sizeEv(%"class.std::vector"* nonnull align 8 dereferenceable(24) %9) #2, !llfi_index !1129
  %12 = sub i64 %10, %11, !llfi_index !1130
  %13 = load i64, i64* %5, align 8, !llfi_index !1131
  %14 = icmp ult i64 %12, %13, !llfi_index !1132
  br i1 %14, label %15, label %17, !llfi_index !1133

15:                                               ; preds = %3
  %16 = load i8*, i8** %6, align 8, !llfi_index !1134
  call void @_ZSt20__throw_length_errorPKc(i8* %16) #15, !llfi_index !1135
  unreachable, !llfi_index !1136

17:                                               ; preds = %3
  %18 = call i64 @_ZNKSt6vectorIiSaIiEE4sizeEv(%"class.std::vector"* nonnull align 8 dereferenceable(24) %9) #2, !llfi_index !1137
  %19 = call i64 @_ZNKSt6vectorIiSaIiEE4sizeEv(%"class.std::vector"* nonnull align 8 dereferenceable(24) %9) #2, !llfi_index !1138
  store i64 %19, i64* %8, align 8, !llfi_index !1139
  %20 = call nonnull align 8 dereferenceable(8) i64* @_ZSt3maxImERKT_S2_S2_(i64* nonnull align 8 dereferenceable(8) %8, i64* nonnull align 8 dereferenceable(8) %5), !llfi_index !1140
  %21 = load i64, i64* %20, align 8, !llfi_index !1141
  %22 = add i64 %18, %21, !llfi_index !1142
  store i64 %22, i64* %7, align 8, !llfi_index !1143
  %23 = load i64, i64* %7, align 8, !llfi_index !1144
  %24 = call i64 @_ZNKSt6vectorIiSaIiEE4sizeEv(%"class.std::vector"* nonnull align 8 dereferenceable(24) %9) #2, !llfi_index !1145
  %25 = icmp ult i64 %23, %24, !llfi_index !1146
  br i1 %25, label %30, label %26, !llfi_index !1147

26:                                               ; preds = %17
  %27 = load i64, i64* %7, align 8, !llfi_index !1148
  %28 = call i64 @_ZNKSt6vectorIiSaIiEE8max_sizeEv(%"class.std::vector"* nonnull align 8 dereferenceable(24) %9) #2, !llfi_index !1149
  %29 = icmp ugt i64 %27, %28, !llfi_index !1150
  br i1 %29, label %30, label %32, !llfi_index !1151

30:                                               ; preds = %26, %17
  %31 = call i64 @_ZNKSt6vectorIiSaIiEE8max_sizeEv(%"class.std::vector"* nonnull align 8 dereferenceable(24) %9) #2, !llfi_index !1152
  br label %34, !llfi_index !1153

32:                                               ; preds = %26
  %33 = load i64, i64* %7, align 8, !llfi_index !1154
  br label %34, !llfi_index !1155

34:                                               ; preds = %32, %30
  %35 = phi i64 [ %31, %30 ], [ %33, %32 ], !llfi_index !1156
  ret i64 %35, !llfi_index !1157
}

; Function Attrs: mustprogress noinline uwtable
define linkonce_odr dso_local i32* @_ZNSt12_Vector_baseIiSaIiEE11_M_allocateEm(%"struct.std::_Vector_base"* nonnull align 8 dereferenceable(24) %0, i64 %1) #7 comdat align 2 {
  %3 = alloca %"struct.std::_Vector_base"*, align 8, !llfi_index !1158
  %4 = alloca i64, align 8, !llfi_index !1159
  store %"struct.std::_Vector_base"* %0, %"struct.std::_Vector_base"** %3, align 8, !llfi_index !1160
  store i64 %1, i64* %4, align 8, !llfi_index !1161
  %5 = load %"struct.std::_Vector_base"*, %"struct.std::_Vector_base"** %3, align 8, !llfi_index !1162
  %6 = load i64, i64* %4, align 8, !llfi_index !1163
  %7 = icmp ne i64 %6, 0, !llfi_index !1164
  br i1 %7, label %8, label %13, !llfi_index !1165

8:                                                ; preds = %2
  %9 = getelementptr inbounds %"struct.std::_Vector_base", %"struct.std::_Vector_base"* %5, i32 0, i32 0, !llfi_index !1166
  %10 = bitcast %"struct.std::_Vector_base<int, std::allocator<int>>::_Vector_impl"* %9 to %"class.std::ios_base::Init"*, !llfi_index !1167
  %11 = load i64, i64* %4, align 8, !llfi_index !1168
  %12 = call i32* @_ZNSt16allocator_traitsISaIiEE8allocateERS0_m(%"class.std::ios_base::Init"* nonnull align 1 dereferenceable(1) %10, i64 %11), !llfi_index !1169
  br label %14, !llfi_index !1170

13:                                               ; preds = %2
  br label %14, !llfi_index !1171

14:                                               ; preds = %13, %8
  %15 = phi i32* [ %12, %8 ], [ null, %13 ], !llfi_index !1172
  ret i32* %15, !llfi_index !1173
}

; Function Attrs: mustprogress noinline nounwind uwtable
define linkonce_odr dso_local nonnull align 4 dereferenceable(4) i32* @_ZSt7forwardIRKiEOT_RNSt16remove_referenceIS2_E4typeE(i32* nonnull align 4 dereferenceable(4) %0) #4 comdat {
  %2 = alloca i32*, align 8, !llfi_index !1174
  store i32* %0, i32** %2, align 8, !llfi_index !1175
  %3 = load i32*, i32** %2, align 8, !llfi_index !1176
  ret i32* %3, !llfi_index !1177
}

; Function Attrs: mustprogress noinline nounwind uwtable
define linkonce_odr dso_local i32* @_ZNSt6vectorIiSaIiEE11_S_relocateEPiS2_S2_RS0_(i32* %0, i32* %1, i32* %2, %"class.std::ios_base::Init"* nonnull align 1 dereferenceable(1) %3) #4 comdat align 2 {
  %5 = alloca i32*, align 8, !llfi_index !1178
  %6 = alloca i32*, align 8, !llfi_index !1179
  %7 = alloca i32*, align 8, !llfi_index !1180
  %8 = alloca %"class.std::ios_base::Init"*, align 8, !llfi_index !1181
  %9 = alloca %"class.std::ios_base::Init", align 1, !llfi_index !1182
  store i32* %0, i32** %5, align 8, !llfi_index !1183
  store i32* %1, i32** %6, align 8, !llfi_index !1184
  store i32* %2, i32** %7, align 8, !llfi_index !1185
  store %"class.std::ios_base::Init"* %3, %"class.std::ios_base::Init"** %8, align 8, !llfi_index !1186
  %10 = load i32*, i32** %5, align 8, !llfi_index !1187
  %11 = load i32*, i32** %6, align 8, !llfi_index !1188
  %12 = load i32*, i32** %7, align 8, !llfi_index !1189
  %13 = load %"class.std::ios_base::Init"*, %"class.std::ios_base::Init"** %8, align 8, !llfi_index !1190
  %14 = call i32* @_ZNSt6vectorIiSaIiEE14_S_do_relocateEPiS2_S2_RS0_St17integral_constantIbLb1EE(i32* %10, i32* %11, i32* %12, %"class.std::ios_base::Init"* nonnull align 1 dereferenceable(1) %13) #2, !llfi_index !1191
  ret i32* %14, !llfi_index !1192
}

; Function Attrs: mustprogress noinline nounwind uwtable
define linkonce_odr dso_local i32* @_ZNSt6vectorIiSaIiEE14_S_do_relocateEPiS2_S2_RS0_St17integral_constantIbLb1EE(i32* %0, i32* %1, i32* %2, %"class.std::ios_base::Init"* nonnull align 1 dereferenceable(1) %3) #4 comdat align 2 {
  %5 = alloca %"class.std::ios_base::Init", align 1, !llfi_index !1193
  %6 = alloca i32*, align 8, !llfi_index !1194
  %7 = alloca i32*, align 8, !llfi_index !1195
  %8 = alloca i32*, align 8, !llfi_index !1196
  %9 = alloca %"class.std::ios_base::Init"*, align 8, !llfi_index !1197
  store i32* %0, i32** %6, align 8, !llfi_index !1198
  store i32* %1, i32** %7, align 8, !llfi_index !1199
  store i32* %2, i32** %8, align 8, !llfi_index !1200
  store %"class.std::ios_base::Init"* %3, %"class.std::ios_base::Init"** %9, align 8, !llfi_index !1201
  %10 = load i32*, i32** %6, align 8, !llfi_index !1202
  %11 = load i32*, i32** %7, align 8, !llfi_index !1203
  %12 = load i32*, i32** %8, align 8, !llfi_index !1204
  %13 = load %"class.std::ios_base::Init"*, %"class.std::ios_base::Init"** %9, align 8, !llfi_index !1205
  %14 = call i32* @_ZSt12__relocate_aIPiS0_SaIiEET0_T_S3_S2_RT1_(i32* %10, i32* %11, i32* %12, %"class.std::ios_base::Init"* nonnull align 1 dereferenceable(1) %13) #2, !llfi_index !1206
  ret i32* %14, !llfi_index !1207
}

; Function Attrs: mustprogress noinline nounwind uwtable
define linkonce_odr dso_local i32* @_ZSt12__relocate_aIPiS0_SaIiEET0_T_S3_S2_RT1_(i32* %0, i32* %1, i32* %2, %"class.std::ios_base::Init"* nonnull align 1 dereferenceable(1) %3) #4 comdat {
  %5 = alloca i32*, align 8, !llfi_index !1208
  %6 = alloca i32*, align 8, !llfi_index !1209
  %7 = alloca i32*, align 8, !llfi_index !1210
  %8 = alloca %"class.std::ios_base::Init"*, align 8, !llfi_index !1211
  store i32* %0, i32** %5, align 8, !llfi_index !1212
  store i32* %1, i32** %6, align 8, !llfi_index !1213
  store i32* %2, i32** %7, align 8, !llfi_index !1214
  store %"class.std::ios_base::Init"* %3, %"class.std::ios_base::Init"** %8, align 8, !llfi_index !1215
  %9 = load i32*, i32** %5, align 8, !llfi_index !1216
  %10 = call i32* @_ZSt12__niter_baseIPiET_S1_(i32* %9) #2, !llfi_index !1217
  %11 = load i32*, i32** %6, align 8, !llfi_index !1218
  %12 = call i32* @_ZSt12__niter_baseIPiET_S1_(i32* %11) #2, !llfi_index !1219
  %13 = load i32*, i32** %7, align 8, !llfi_index !1220
  %14 = call i32* @_ZSt12__niter_baseIPiET_S1_(i32* %13) #2, !llfi_index !1221
  %15 = load %"class.std::ios_base::Init"*, %"class.std::ios_base::Init"** %8, align 8, !llfi_index !1222
  %16 = call i32* @_ZSt14__relocate_a_1IiiENSt9enable_ifIXsr3std24__is_bitwise_relocatableIT_EE5valueEPS1_E4typeES2_S2_S2_RSaIT0_E(i32* %10, i32* %12, i32* %14, %"class.std::ios_base::Init"* nonnull align 1 dereferenceable(1) %15) #2, !llfi_index !1223
  ret i32* %16, !llfi_index !1224
}

; Function Attrs: mustprogress noinline nounwind uwtable
define linkonce_odr dso_local i32* @_ZSt12__niter_baseIPiET_S1_(i32* %0) #4 comdat {
  %2 = alloca i32*, align 8, !llfi_index !1225
  store i32* %0, i32** %2, align 8, !llfi_index !1226
  %3 = load i32*, i32** %2, align 8, !llfi_index !1227
  ret i32* %3, !llfi_index !1228
}

; Function Attrs: mustprogress noinline nounwind uwtable
define linkonce_odr dso_local i32* @_ZSt14__relocate_a_1IiiENSt9enable_ifIXsr3std24__is_bitwise_relocatableIT_EE5valueEPS1_E4typeES2_S2_S2_RSaIT0_E(i32* %0, i32* %1, i32* %2, %"class.std::ios_base::Init"* nonnull align 1 dereferenceable(1) %3) #4 comdat {
  %5 = alloca i32*, align 8, !llfi_index !1229
  %6 = alloca i32*, align 8, !llfi_index !1230
  %7 = alloca i32*, align 8, !llfi_index !1231
  %8 = alloca %"class.std::ios_base::Init"*, align 8, !llfi_index !1232
  %9 = alloca i64, align 8, !llfi_index !1233
  store i32* %0, i32** %5, align 8, !llfi_index !1234
  store i32* %1, i32** %6, align 8, !llfi_index !1235
  store i32* %2, i32** %7, align 8, !llfi_index !1236
  store %"class.std::ios_base::Init"* %3, %"class.std::ios_base::Init"** %8, align 8, !llfi_index !1237
  %10 = load i32*, i32** %6, align 8, !llfi_index !1238
  %11 = load i32*, i32** %5, align 8, !llfi_index !1239
  %12 = ptrtoint i32* %10 to i64, !llfi_index !1240
  %13 = ptrtoint i32* %11 to i64, !llfi_index !1241
  %14 = sub i64 %12, %13, !llfi_index !1242
  %15 = sdiv exact i64 %14, 4, !llfi_index !1243
  store i64 %15, i64* %9, align 8, !llfi_index !1244
  %16 = load i64, i64* %9, align 8, !llfi_index !1245
  %17 = icmp sgt i64 %16, 0, !llfi_index !1246
  br i1 %17, label %18, label %25, !llfi_index !1247

18:                                               ; preds = %4
  %19 = load i32*, i32** %7, align 8, !llfi_index !1248
  %20 = bitcast i32* %19 to i8*, !llfi_index !1249
  %21 = load i32*, i32** %5, align 8, !llfi_index !1250
  %22 = bitcast i32* %21 to i8*, !llfi_index !1251
  %23 = load i64, i64* %9, align 8, !llfi_index !1252
  %24 = mul i64 %23, 4, !llfi_index !1253
  call void @llvm.memmove.p0i8.p0i8.i64(i8* align 4 %20, i8* align 4 %22, i64 %24, i1 false), !llfi_index !1254
  br label %25, !llfi_index !1255

25:                                               ; preds = %18, %4
  %26 = load i32*, i32** %7, align 8, !llfi_index !1256
  %27 = load i64, i64* %9, align 8, !llfi_index !1257
  %28 = getelementptr inbounds i32, i32* %26, i64 %27, !llfi_index !1258
  ret i32* %28, !llfi_index !1259
}

; Function Attrs: argmemonly nofree nounwind willreturn
declare void @llvm.memmove.p0i8.p0i8.i64(i8* nocapture writeonly, i8* nocapture readonly, i64, i1 immarg) #8

; Function Attrs: mustprogress noinline uwtable
define linkonce_odr dso_local i32* @_ZNSt16allocator_traitsISaIiEE8allocateERS0_m(%"class.std::ios_base::Init"* nonnull align 1 dereferenceable(1) %0, i64 %1) #7 comdat align 2 {
  %3 = alloca %"class.std::ios_base::Init"*, align 8, !llfi_index !1260
  %4 = alloca i64, align 8, !llfi_index !1261
  store %"class.std::ios_base::Init"* %0, %"class.std::ios_base::Init"** %3, align 8, !llfi_index !1262
  store i64 %1, i64* %4, align 8, !llfi_index !1263
  %5 = load %"class.std::ios_base::Init"*, %"class.std::ios_base::Init"** %3, align 8, !llfi_index !1264
  %6 = bitcast %"class.std::ios_base::Init"* %5 to %"class.std::ios_base::Init"*, !llfi_index !1265
  %7 = load i64, i64* %4, align 8, !llfi_index !1266
  %8 = call i32* @_ZN9__gnu_cxx13new_allocatorIiE8allocateEmPKv(%"class.std::ios_base::Init"* nonnull align 1 dereferenceable(1) %6, i64 %7, i8* null), !llfi_index !1267
  ret i32* %8, !llfi_index !1268
}

; Function Attrs: mustprogress noinline uwtable
define linkonce_odr dso_local i32* @_ZN9__gnu_cxx13new_allocatorIiE8allocateEmPKv(%"class.std::ios_base::Init"* nonnull align 1 dereferenceable(1) %0, i64 %1, i8* %2) #7 comdat align 2 {
  %4 = alloca %"class.std::ios_base::Init"*, align 8, !llfi_index !1269
  %5 = alloca i64, align 8, !llfi_index !1270
  %6 = alloca i8*, align 8, !llfi_index !1271
  store %"class.std::ios_base::Init"* %0, %"class.std::ios_base::Init"** %4, align 8, !llfi_index !1272
  store i64 %1, i64* %5, align 8, !llfi_index !1273
  store i8* %2, i8** %6, align 8, !llfi_index !1274
  %7 = load %"class.std::ios_base::Init"*, %"class.std::ios_base::Init"** %4, align 8, !llfi_index !1275
  %8 = load i64, i64* %5, align 8, !llfi_index !1276
  %9 = call i64 @_ZNK9__gnu_cxx13new_allocatorIiE8max_sizeEv(%"class.std::ios_base::Init"* nonnull align 1 dereferenceable(1) %7) #2, !llfi_index !1277
  %10 = icmp ugt i64 %8, %9, !llfi_index !1278
  br i1 %10, label %11, label %12, !llfi_index !1279

11:                                               ; preds = %3
  call void @_ZSt17__throw_bad_allocv() #15, !llfi_index !1280
  unreachable, !llfi_index !1281

12:                                               ; preds = %3
  %13 = load i64, i64* %5, align 8, !llfi_index !1282
  %14 = mul i64 %13, 4, !llfi_index !1283
  %15 = call noalias nonnull i8* @_Znwm(i64 %14) #16, !llfi_index !1284
  %16 = bitcast i8* %15 to i32*, !llfi_index !1285
  ret i32* %16, !llfi_index !1286
}

; Function Attrs: mustprogress noinline nounwind uwtable
define linkonce_odr dso_local i64 @_ZNK9__gnu_cxx13new_allocatorIiE8max_sizeEv(%"class.std::ios_base::Init"* nonnull align 1 dereferenceable(1) %0) #4 comdat align 2 {
  %2 = alloca %"class.std::ios_base::Init"*, align 8, !llfi_index !1287
  store %"class.std::ios_base::Init"* %0, %"class.std::ios_base::Init"** %2, align 8, !llfi_index !1288
  %3 = load %"class.std::ios_base::Init"*, %"class.std::ios_base::Init"** %2, align 8, !llfi_index !1289
  ret i64 2305843009213693951, !llfi_index !1290
}

; Function Attrs: noreturn
declare dso_local void @_ZSt17__throw_bad_allocv() #12

; Function Attrs: nobuiltin allocsize(0)
declare dso_local nonnull i8* @_Znwm(i64) #13

; Function Attrs: mustprogress noinline nounwind uwtable
define linkonce_odr dso_local i64 @_ZNKSt6vectorIiSaIiEE8max_sizeEv(%"class.std::vector"* nonnull align 8 dereferenceable(24) %0) #4 comdat align 2 {
  %2 = alloca %"class.std::vector"*, align 8, !llfi_index !1291
  store %"class.std::vector"* %0, %"class.std::vector"** %2, align 8, !llfi_index !1292
  %3 = load %"class.std::vector"*, %"class.std::vector"** %2, align 8, !llfi_index !1293
  %4 = bitcast %"class.std::vector"* %3 to %"struct.std::_Vector_base"*, !llfi_index !1294
  %5 = call nonnull align 1 dereferenceable(1) %"class.std::ios_base::Init"* @_ZNKSt12_Vector_baseIiSaIiEE19_M_get_Tp_allocatorEv(%"struct.std::_Vector_base"* nonnull align 8 dereferenceable(24) %4) #2, !llfi_index !1295
  %6 = call i64 @_ZNSt6vectorIiSaIiEE11_S_max_sizeERKS0_(%"class.std::ios_base::Init"* nonnull align 1 dereferenceable(1) %5) #2, !llfi_index !1296
  ret i64 %6, !llfi_index !1297
}

; Function Attrs: noreturn
declare dso_local void @_ZSt20__throw_length_errorPKc(i8*) #12

; Function Attrs: mustprogress noinline nounwind uwtable
define linkonce_odr dso_local nonnull align 8 dereferenceable(8) i64* @_ZSt3maxImERKT_S2_S2_(i64* nonnull align 8 dereferenceable(8) %0, i64* nonnull align 8 dereferenceable(8) %1) #4 comdat {
  %3 = alloca i64*, align 8, !llfi_index !1298
  %4 = alloca i64*, align 8, !llfi_index !1299
  %5 = alloca i64*, align 8, !llfi_index !1300
  store i64* %0, i64** %4, align 8, !llfi_index !1301
  store i64* %1, i64** %5, align 8, !llfi_index !1302
  %6 = load i64*, i64** %4, align 8, !llfi_index !1303
  %7 = load i64, i64* %6, align 8, !llfi_index !1304
  %8 = load i64*, i64** %5, align 8, !llfi_index !1305
  %9 = load i64, i64* %8, align 8, !llfi_index !1306
  %10 = icmp ult i64 %7, %9, !llfi_index !1307
  br i1 %10, label %11, label %13, !llfi_index !1308

11:                                               ; preds = %2
  %12 = load i64*, i64** %5, align 8, !llfi_index !1309
  store i64* %12, i64** %3, align 8, !llfi_index !1310
  br label %15, !llfi_index !1311

13:                                               ; preds = %2
  %14 = load i64*, i64** %4, align 8, !llfi_index !1312
  store i64* %14, i64** %3, align 8, !llfi_index !1313
  br label %15, !llfi_index !1314

15:                                               ; preds = %13, %11
  %16 = load i64*, i64** %3, align 8, !llfi_index !1315
  ret i64* %16, !llfi_index !1316
}

; Function Attrs: mustprogress noinline nounwind uwtable
define linkonce_odr dso_local nonnull align 1 dereferenceable(1) %"class.std::ios_base::Init"* @_ZNKSt12_Vector_baseIiSaIiEE19_M_get_Tp_allocatorEv(%"struct.std::_Vector_base"* nonnull align 8 dereferenceable(24) %0) #4 comdat align 2 {
  %2 = alloca %"struct.std::_Vector_base"*, align 8, !llfi_index !1317
  store %"struct.std::_Vector_base"* %0, %"struct.std::_Vector_base"** %2, align 8, !llfi_index !1318
  %3 = load %"struct.std::_Vector_base"*, %"struct.std::_Vector_base"** %2, align 8, !llfi_index !1319
  %4 = getelementptr inbounds %"struct.std::_Vector_base", %"struct.std::_Vector_base"* %3, i32 0, i32 0, !llfi_index !1320
  %5 = bitcast %"struct.std::_Vector_base<int, std::allocator<int>>::_Vector_impl"* %4 to %"class.std::ios_base::Init"*, !llfi_index !1321
  ret %"class.std::ios_base::Init"* %5, !llfi_index !1322
}

; Function Attrs: mustprogress noinline nounwind uwtable
define linkonce_odr dso_local i64 @_ZNSt6vectorIiSaIiEE11_S_max_sizeERKS0_(%"class.std::ios_base::Init"* nonnull align 1 dereferenceable(1) %0) #4 comdat align 2 personality i8* bitcast (i32 (...)* @__gxx_personality_v0 to i8*) {
  %2 = alloca %"class.std::ios_base::Init"*, align 8, !llfi_index !1323
  %3 = alloca i64, align 8, !llfi_index !1324
  %4 = alloca i64, align 8, !llfi_index !1325
  store %"class.std::ios_base::Init"* %0, %"class.std::ios_base::Init"** %2, align 8, !llfi_index !1326
  store i64 2305843009213693951, i64* %3, align 8, !llfi_index !1327
  %5 = load %"class.std::ios_base::Init"*, %"class.std::ios_base::Init"** %2, align 8, !llfi_index !1328
  %6 = call i64 @_ZNSt16allocator_traitsISaIiEE8max_sizeERKS0_(%"class.std::ios_base::Init"* nonnull align 1 dereferenceable(1) %5) #2, !llfi_index !1329
  store i64 %6, i64* %4, align 8, !llfi_index !1330
  %7 = invoke nonnull align 8 dereferenceable(8) i64* @_ZSt3minImERKT_S2_S2_(i64* nonnull align 8 dereferenceable(8) %3, i64* nonnull align 8 dereferenceable(8) %4)
          to label %8 unwind label %10, !llfi_index !1331

8:                                                ; preds = %1
  %9 = load i64, i64* %7, align 8, !llfi_index !1332
  ret i64 %9, !llfi_index !1333

10:                                               ; preds = %1
  %11 = landingpad { i8*, i32 }
          catch i8* null, !llfi_index !1334
  %12 = extractvalue { i8*, i32 } %11, 0, !llfi_index !1335
  call void @__clang_call_terminate(i8* %12) #14, !llfi_index !1336
  unreachable, !llfi_index !1337
}

; Function Attrs: mustprogress noinline nounwind uwtable
define linkonce_odr dso_local i64 @_ZNSt16allocator_traitsISaIiEE8max_sizeERKS0_(%"class.std::ios_base::Init"* nonnull align 1 dereferenceable(1) %0) #4 comdat align 2 {
  %2 = alloca %"class.std::ios_base::Init"*, align 8, !llfi_index !1338
  store %"class.std::ios_base::Init"* %0, %"class.std::ios_base::Init"** %2, align 8, !llfi_index !1339
  %3 = load %"class.std::ios_base::Init"*, %"class.std::ios_base::Init"** %2, align 8, !llfi_index !1340
  %4 = bitcast %"class.std::ios_base::Init"* %3 to %"class.std::ios_base::Init"*, !llfi_index !1341
  %5 = call i64 @_ZNK9__gnu_cxx13new_allocatorIiE8max_sizeEv(%"class.std::ios_base::Init"* nonnull align 1 dereferenceable(1) %4) #2, !llfi_index !1342
  ret i64 %5, !llfi_index !1343
}

; Function Attrs: mustprogress noinline nounwind uwtable
define linkonce_odr dso_local nonnull align 8 dereferenceable(8) i64* @_ZSt3minImERKT_S2_S2_(i64* nonnull align 8 dereferenceable(8) %0, i64* nonnull align 8 dereferenceable(8) %1) #4 comdat {
  %3 = alloca i64*, align 8, !llfi_index !1344
  %4 = alloca i64*, align 8, !llfi_index !1345
  %5 = alloca i64*, align 8, !llfi_index !1346
  store i64* %0, i64** %4, align 8, !llfi_index !1347
  store i64* %1, i64** %5, align 8, !llfi_index !1348
  %6 = load i64*, i64** %5, align 8, !llfi_index !1349
  %7 = load i64, i64* %6, align 8, !llfi_index !1350
  %8 = load i64*, i64** %4, align 8, !llfi_index !1351
  %9 = load i64, i64* %8, align 8, !llfi_index !1352
  %10 = icmp ult i64 %7, %9, !llfi_index !1353
  br i1 %10, label %11, label %13, !llfi_index !1354

11:                                               ; preds = %2
  %12 = load i64*, i64** %5, align 8, !llfi_index !1355
  store i64* %12, i64** %3, align 8, !llfi_index !1356
  br label %15, !llfi_index !1357

13:                                               ; preds = %2
  %14 = load i64*, i64** %4, align 8, !llfi_index !1358
  store i64* %14, i64** %3, align 8, !llfi_index !1359
  br label %15, !llfi_index !1360

15:                                               ; preds = %13, %11
  %16 = load i64*, i64** %3, align 8, !llfi_index !1361
  ret i64* %16, !llfi_index !1362
}

; Function Attrs: mustprogress noinline nounwind uwtable
define linkonce_odr dso_local void @_ZN9__gnu_cxx13new_allocatorIiE9constructIiJRKiEEEvPT_DpOT0_(%"class.std::ios_base::Init"* nonnull align 1 dereferenceable(1) %0, i32* %1, i32* nonnull align 4 dereferenceable(4) %2) #4 comdat align 2 {
  %4 = alloca %"class.std::ios_base::Init"*, align 8, !llfi_index !1363
  %5 = alloca i32*, align 8, !llfi_index !1364
  %6 = alloca i32*, align 8, !llfi_index !1365
  store %"class.std::ios_base::Init"* %0, %"class.std::ios_base::Init"** %4, align 8, !llfi_index !1366
  store i32* %1, i32** %5, align 8, !llfi_index !1367
  store i32* %2, i32** %6, align 8, !llfi_index !1368
  %7 = load %"class.std::ios_base::Init"*, %"class.std::ios_base::Init"** %4, align 8, !llfi_index !1369
  %8 = load i32*, i32** %5, align 8, !llfi_index !1370
  %9 = bitcast i32* %8 to i8*, !llfi_index !1371
  %10 = bitcast i8* %9 to i32*, !llfi_index !1372
  %11 = load i32*, i32** %6, align 8, !llfi_index !1373
  %12 = call nonnull align 4 dereferenceable(4) i32* @_ZSt7forwardIRKiEOT_RNSt16remove_referenceIS2_E4typeE(i32* nonnull align 4 dereferenceable(4) %11) #2, !llfi_index !1374
  %13 = load i32, i32* %12, align 4, !llfi_index !1375
  store i32 %13, i32* %10, align 4, !llfi_index !1376
  ret void, !llfi_index !1377
}

; Function Attrs: noinline nounwind uwtable
define linkonce_odr dso_local void @_ZNSt12_Vector_baseIiSaIiEEC2Ev(%"struct.std::_Vector_base"* nonnull align 8 dereferenceable(24) %0) unnamed_addr #6 comdat align 2 {
  %2 = alloca %"struct.std::_Vector_base"*, align 8, !llfi_index !1378
  store %"struct.std::_Vector_base"* %0, %"struct.std::_Vector_base"** %2, align 8, !llfi_index !1379
  %3 = load %"struct.std::_Vector_base"*, %"struct.std::_Vector_base"** %2, align 8, !llfi_index !1380
  %4 = getelementptr inbounds %"struct.std::_Vector_base", %"struct.std::_Vector_base"* %3, i32 0, i32 0, !llfi_index !1381
  call void @_ZNSt12_Vector_baseIiSaIiEE12_Vector_implC2Ev(%"struct.std::_Vector_base<int, std::allocator<int>>::_Vector_impl"* nonnull align 8 dereferenceable(24) %4) #2, !llfi_index !1382
  ret void, !llfi_index !1383
}

; Function Attrs: noinline nounwind uwtable
define linkonce_odr dso_local void @_ZNSt12_Vector_baseIiSaIiEE12_Vector_implC2Ev(%"struct.std::_Vector_base<int, std::allocator<int>>::_Vector_impl"* nonnull align 8 dereferenceable(24) %0) unnamed_addr #6 comdat align 2 {
  %2 = alloca %"struct.std::_Vector_base<int, std::allocator<int>>::_Vector_impl"*, align 8, !llfi_index !1384
  store %"struct.std::_Vector_base<int, std::allocator<int>>::_Vector_impl"* %0, %"struct.std::_Vector_base<int, std::allocator<int>>::_Vector_impl"** %2, align 8, !llfi_index !1385
  %3 = load %"struct.std::_Vector_base<int, std::allocator<int>>::_Vector_impl"*, %"struct.std::_Vector_base<int, std::allocator<int>>::_Vector_impl"** %2, align 8, !llfi_index !1386
  %4 = bitcast %"struct.std::_Vector_base<int, std::allocator<int>>::_Vector_impl"* %3 to %"class.std::ios_base::Init"*, !llfi_index !1387
  call void @_ZNSaIiEC2Ev(%"class.std::ios_base::Init"* nonnull align 1 dereferenceable(1) %4) #2, !llfi_index !1388
  %5 = bitcast %"struct.std::_Vector_base<int, std::allocator<int>>::_Vector_impl"* %3 to %"struct.std::_Vector_base<int, std::allocator<int>>::_Vector_impl_data"*, !llfi_index !1389
  call void @_ZNSt12_Vector_baseIiSaIiEE17_Vector_impl_dataC2Ev(%"struct.std::_Vector_base<int, std::allocator<int>>::_Vector_impl_data"* nonnull align 8 dereferenceable(24) %5) #2, !llfi_index !1390
  ret void, !llfi_index !1391
}

; Function Attrs: noinline nounwind uwtable
define linkonce_odr dso_local void @_ZNSt12_Vector_baseIiSaIiEE17_Vector_impl_dataC2Ev(%"struct.std::_Vector_base<int, std::allocator<int>>::_Vector_impl_data"* nonnull align 8 dereferenceable(24) %0) unnamed_addr #6 comdat align 2 {
  %2 = alloca %"struct.std::_Vector_base<int, std::allocator<int>>::_Vector_impl_data"*, align 8, !llfi_index !1392
  store %"struct.std::_Vector_base<int, std::allocator<int>>::_Vector_impl_data"* %0, %"struct.std::_Vector_base<int, std::allocator<int>>::_Vector_impl_data"** %2, align 8, !llfi_index !1393
  %3 = load %"struct.std::_Vector_base<int, std::allocator<int>>::_Vector_impl_data"*, %"struct.std::_Vector_base<int, std::allocator<int>>::_Vector_impl_data"** %2, align 8, !llfi_index !1394
  %4 = getelementptr inbounds %"struct.std::_Vector_base<int, std::allocator<int>>::_Vector_impl_data", %"struct.std::_Vector_base<int, std::allocator<int>>::_Vector_impl_data"* %3, i32 0, i32 0, !llfi_index !1395
  store i32* null, i32** %4, align 8, !llfi_index !1396
  %5 = getelementptr inbounds %"struct.std::_Vector_base<int, std::allocator<int>>::_Vector_impl_data", %"struct.std::_Vector_base<int, std::allocator<int>>::_Vector_impl_data"* %3, i32 0, i32 1, !llfi_index !1397
  store i32* null, i32** %5, align 8, !llfi_index !1398
  %6 = getelementptr inbounds %"struct.std::_Vector_base<int, std::allocator<int>>::_Vector_impl_data", %"struct.std::_Vector_base<int, std::allocator<int>>::_Vector_impl_data"* %3, i32 0, i32 2, !llfi_index !1399
  store i32* null, i32** %6, align 8, !llfi_index !1400
  ret void, !llfi_index !1401
}

; Function Attrs: noinline nounwind uwtable
define linkonce_odr dso_local void @_ZN9__gnu_cxx13new_allocatorIiED2Ev(%"class.std::ios_base::Init"* nonnull align 1 dereferenceable(1) %0) unnamed_addr #6 comdat align 2 {
  %2 = alloca %"class.std::ios_base::Init"*, align 8, !llfi_index !1402
  store %"class.std::ios_base::Init"* %0, %"class.std::ios_base::Init"** %2, align 8, !llfi_index !1403
  %3 = load %"class.std::ios_base::Init"*, %"class.std::ios_base::Init"** %2, align 8, !llfi_index !1404
  ret void, !llfi_index !1405
}

; Function Attrs: mustprogress noinline uwtable
define linkonce_odr dso_local i64 @_ZNSt6vectorIiSaIiEE17_S_check_init_lenEmRKS0_(i64 %0, %"class.std::ios_base::Init"* nonnull align 1 dereferenceable(1) %1) #7 comdat align 2 {
  %3 = alloca i64, align 8, !llfi_index !1406
  %4 = alloca %"class.std::ios_base::Init"*, align 8, !llfi_index !1407
  %5 = alloca %"class.std::ios_base::Init", align 1, !llfi_index !1408
  store i64 %0, i64* %3, align 8, !llfi_index !1409
  store %"class.std::ios_base::Init"* %1, %"class.std::ios_base::Init"** %4, align 8, !llfi_index !1410
  %6 = load i64, i64* %3, align 8, !llfi_index !1411
  %7 = load %"class.std::ios_base::Init"*, %"class.std::ios_base::Init"** %4, align 8, !llfi_index !1412
  call void @_ZNSaIiEC2ERKS_(%"class.std::ios_base::Init"* nonnull align 1 dereferenceable(1) %5, %"class.std::ios_base::Init"* nonnull align 1 dereferenceable(1) %7) #2, !llfi_index !1413
  %8 = call i64 @_ZNSt6vectorIiSaIiEE11_S_max_sizeERKS0_(%"class.std::ios_base::Init"* nonnull align 1 dereferenceable(1) %5) #2, !llfi_index !1414
  %9 = icmp ugt i64 %6, %8, !llfi_index !1415
  call void @_ZNSaIiED2Ev(%"class.std::ios_base::Init"* nonnull align 1 dereferenceable(1) %5) #2, !llfi_index !1416
  br i1 %9, label %10, label %11, !llfi_index !1417

10:                                               ; preds = %2
  call void @_ZSt20__throw_length_errorPKc(i8* getelementptr inbounds ([49 x i8], [49 x i8]* @.str.3, i64 0, i64 0)) #15, !llfi_index !1418
  unreachable, !llfi_index !1419

11:                                               ; preds = %2
  %12 = load i64, i64* %3, align 8, !llfi_index !1420
  ret i64 %12, !llfi_index !1421
}

; Function Attrs: noinline uwtable
define linkonce_odr dso_local void @_ZNSt12_Vector_baseIiSaIiEEC2EmRKS0_(%"struct.std::_Vector_base"* nonnull align 8 dereferenceable(24) %0, i64 %1, %"class.std::ios_base::Init"* nonnull align 1 dereferenceable(1) %2) unnamed_addr #0 comdat align 2 personality i8* bitcast (i32 (...)* @__gxx_personality_v0 to i8*) {
  %4 = alloca %"struct.std::_Vector_base"*, align 8, !llfi_index !1422
  %5 = alloca i64, align 8, !llfi_index !1423
  %6 = alloca %"class.std::ios_base::Init"*, align 8, !llfi_index !1424
  %7 = alloca i8*, align 8, !llfi_index !1425
  %8 = alloca i32, align 4, !llfi_index !1426
  store %"struct.std::_Vector_base"* %0, %"struct.std::_Vector_base"** %4, align 8, !llfi_index !1427
  store i64 %1, i64* %5, align 8, !llfi_index !1428
  store %"class.std::ios_base::Init"* %2, %"class.std::ios_base::Init"** %6, align 8, !llfi_index !1429
  %9 = load %"struct.std::_Vector_base"*, %"struct.std::_Vector_base"** %4, align 8, !llfi_index !1430
  %10 = getelementptr inbounds %"struct.std::_Vector_base", %"struct.std::_Vector_base"* %9, i32 0, i32 0, !llfi_index !1431
  %11 = load %"class.std::ios_base::Init"*, %"class.std::ios_base::Init"** %6, align 8, !llfi_index !1432
  call void @_ZNSt12_Vector_baseIiSaIiEE12_Vector_implC2ERKS0_(%"struct.std::_Vector_base<int, std::allocator<int>>::_Vector_impl"* nonnull align 8 dereferenceable(24) %10, %"class.std::ios_base::Init"* nonnull align 1 dereferenceable(1) %11) #2, !llfi_index !1433
  %12 = load i64, i64* %5, align 8, !llfi_index !1434
  invoke void @_ZNSt12_Vector_baseIiSaIiEE17_M_create_storageEm(%"struct.std::_Vector_base"* nonnull align 8 dereferenceable(24) %9, i64 %12)
          to label %13 unwind label %14, !llfi_index !1435

13:                                               ; preds = %3
  ret void, !llfi_index !1436

14:                                               ; preds = %3
  %15 = landingpad { i8*, i32 }
          cleanup, !llfi_index !1437
  %16 = extractvalue { i8*, i32 } %15, 0, !llfi_index !1438
  store i8* %16, i8** %7, align 8, !llfi_index !1439
  %17 = extractvalue { i8*, i32 } %15, 1, !llfi_index !1440
  store i32 %17, i32* %8, align 4, !llfi_index !1441
  call void @_ZNSt12_Vector_baseIiSaIiEE12_Vector_implD2Ev(%"struct.std::_Vector_base<int, std::allocator<int>>::_Vector_impl"* nonnull align 8 dereferenceable(24) %10) #2, !llfi_index !1442
  br label %18, !llfi_index !1443

18:                                               ; preds = %14
  %19 = load i8*, i8** %7, align 8, !llfi_index !1444
  %20 = load i32, i32* %8, align 4, !llfi_index !1445
  %21 = insertvalue { i8*, i32 } undef, i8* %19, 0, !llfi_index !1446
  %22 = insertvalue { i8*, i32 } %21, i32 %20, 1, !llfi_index !1447
  resume { i8*, i32 } %22, !llfi_index !1448
}

; Function Attrs: mustprogress noinline uwtable
define linkonce_odr dso_local void @_ZNSt6vectorIiSaIiEE21_M_default_initializeEm(%"class.std::vector"* nonnull align 8 dereferenceable(24) %0, i64 %1) #7 comdat align 2 {
  %3 = alloca %"class.std::vector"*, align 8, !llfi_index !1449
  %4 = alloca i64, align 8, !llfi_index !1450
  store %"class.std::vector"* %0, %"class.std::vector"** %3, align 8, !llfi_index !1451
  store i64 %1, i64* %4, align 8, !llfi_index !1452
  %5 = load %"class.std::vector"*, %"class.std::vector"** %3, align 8, !llfi_index !1453
  %6 = bitcast %"class.std::vector"* %5 to %"struct.std::_Vector_base"*, !llfi_index !1454
  %7 = getelementptr inbounds %"struct.std::_Vector_base", %"struct.std::_Vector_base"* %6, i32 0, i32 0, !llfi_index !1455
  %8 = bitcast %"struct.std::_Vector_base<int, std::allocator<int>>::_Vector_impl"* %7 to %"struct.std::_Vector_base<int, std::allocator<int>>::_Vector_impl_data"*, !llfi_index !1456
  %9 = getelementptr inbounds %"struct.std::_Vector_base<int, std::allocator<int>>::_Vector_impl_data", %"struct.std::_Vector_base<int, std::allocator<int>>::_Vector_impl_data"* %8, i32 0, i32 0, !llfi_index !1457
  %10 = load i32*, i32** %9, align 8, !llfi_index !1458
  %11 = load i64, i64* %4, align 8, !llfi_index !1459
  %12 = bitcast %"class.std::vector"* %5 to %"struct.std::_Vector_base"*, !llfi_index !1460
  %13 = call nonnull align 1 dereferenceable(1) %"class.std::ios_base::Init"* @_ZNSt12_Vector_baseIiSaIiEE19_M_get_Tp_allocatorEv(%"struct.std::_Vector_base"* nonnull align 8 dereferenceable(24) %12) #2, !llfi_index !1461
  %14 = call i32* @_ZSt27__uninitialized_default_n_aIPimiET_S1_T0_RSaIT1_E(i32* %10, i64 %11, %"class.std::ios_base::Init"* nonnull align 1 dereferenceable(1) %13), !llfi_index !1462
  %15 = bitcast %"class.std::vector"* %5 to %"struct.std::_Vector_base"*, !llfi_index !1463
  %16 = getelementptr inbounds %"struct.std::_Vector_base", %"struct.std::_Vector_base"* %15, i32 0, i32 0, !llfi_index !1464
  %17 = bitcast %"struct.std::_Vector_base<int, std::allocator<int>>::_Vector_impl"* %16 to %"struct.std::_Vector_base<int, std::allocator<int>>::_Vector_impl_data"*, !llfi_index !1465
  %18 = getelementptr inbounds %"struct.std::_Vector_base<int, std::allocator<int>>::_Vector_impl_data", %"struct.std::_Vector_base<int, std::allocator<int>>::_Vector_impl_data"* %17, i32 0, i32 1, !llfi_index !1466
  store i32* %14, i32** %18, align 8, !llfi_index !1467
  ret void, !llfi_index !1468
}

; Function Attrs: mustprogress noinline uwtable
define linkonce_odr dso_local i32* @_ZSt27__uninitialized_default_n_aIPimiET_S1_T0_RSaIT1_E(i32* %0, i64 %1, %"class.std::ios_base::Init"* nonnull align 1 dereferenceable(1) %2) #7 comdat {
  %4 = alloca i32*, align 8, !llfi_index !1469
  %5 = alloca i64, align 8, !llfi_index !1470
  %6 = alloca %"class.std::ios_base::Init"*, align 8, !llfi_index !1471
  store i32* %0, i32** %4, align 8, !llfi_index !1472
  store i64 %1, i64* %5, align 8, !llfi_index !1473
  store %"class.std::ios_base::Init"* %2, %"class.std::ios_base::Init"** %6, align 8, !llfi_index !1474
  %7 = load i32*, i32** %4, align 8, !llfi_index !1475
  %8 = load i64, i64* %5, align 8, !llfi_index !1476
  %9 = call i32* @_ZSt25__uninitialized_default_nIPimET_S1_T0_(i32* %7, i64 %8), !llfi_index !1477
  ret i32* %9, !llfi_index !1478
}

; Function Attrs: mustprogress noinline uwtable
define linkonce_odr dso_local i32* @_ZSt25__uninitialized_default_nIPimET_S1_T0_(i32* %0, i64 %1) #7 comdat {
  %3 = alloca i32*, align 8, !llfi_index !1479
  %4 = alloca i64, align 8, !llfi_index !1480
  %5 = alloca i8, align 1, !llfi_index !1481
  store i32* %0, i32** %3, align 8, !llfi_index !1482
  store i64 %1, i64* %4, align 8, !llfi_index !1483
  store i8 1, i8* %5, align 1, !llfi_index !1484
  %6 = load i32*, i32** %3, align 8, !llfi_index !1485
  %7 = load i64, i64* %4, align 8, !llfi_index !1486
  %8 = call i32* @_ZNSt27__uninitialized_default_n_1ILb1EE18__uninit_default_nIPimEET_S3_T0_(i32* %6, i64 %7), !llfi_index !1487
  ret i32* %8, !llfi_index !1488
}

; Function Attrs: mustprogress noinline uwtable
define linkonce_odr dso_local i32* @_ZNSt27__uninitialized_default_n_1ILb1EE18__uninit_default_nIPimEET_S3_T0_(i32* %0, i64 %1) #7 comdat align 2 {
  %3 = alloca i32*, align 8, !llfi_index !1489
  %4 = alloca i64, align 8, !llfi_index !1490
  %5 = alloca i32, align 4, !llfi_index !1491
  store i32* %0, i32** %3, align 8, !llfi_index !1492
  store i64 %1, i64* %4, align 8, !llfi_index !1493
  %6 = load i32*, i32** %3, align 8, !llfi_index !1494
  %7 = load i64, i64* %4, align 8, !llfi_index !1495
  store i32 0, i32* %5, align 4, !llfi_index !1496
  %8 = call i32* @_ZSt6fill_nIPimiET_S1_T0_RKT1_(i32* %6, i64 %7, i32* nonnull align 4 dereferenceable(4) %5), !llfi_index !1497
  ret i32* %8, !llfi_index !1498
}

; Function Attrs: mustprogress noinline uwtable
define linkonce_odr dso_local i32* @_ZSt6fill_nIPimiET_S1_T0_RKT1_(i32* %0, i64 %1, i32* nonnull align 4 dereferenceable(4) %2) #7 comdat {
  %4 = alloca i32*, align 8, !llfi_index !1499
  %5 = alloca i64, align 8, !llfi_index !1500
  %6 = alloca i32*, align 8, !llfi_index !1501
  store i32* %0, i32** %4, align 8, !llfi_index !1502
  store i64 %1, i64* %5, align 8, !llfi_index !1503
  store i32* %2, i32** %6, align 8, !llfi_index !1504
  %7 = load i32*, i32** %4, align 8, !llfi_index !1505
  %8 = call i32* @_ZSt12__niter_baseIPiET_S1_(i32* %7) #2, !llfi_index !1506
  %9 = load i64, i64* %5, align 8, !llfi_index !1507
  %10 = load i32*, i32** %6, align 8, !llfi_index !1508
  %11 = call i32* @_ZSt10__fill_n_aIPimiEN9__gnu_cxx11__enable_ifIXsr11__is_scalarIT1_EE7__valueET_E6__typeES4_T0_RKS3_(i32* %8, i64 %9, i32* nonnull align 4 dereferenceable(4) %10), !llfi_index !1509
  %12 = call i32* @_ZSt12__niter_wrapIPiET_RKS1_S1_(i32** nonnull align 8 dereferenceable(8) %4, i32* %11), !llfi_index !1510
  ret i32* %12, !llfi_index !1511
}

; Function Attrs: mustprogress noinline nounwind uwtable
define linkonce_odr dso_local i32* @_ZSt10__fill_n_aIPimiEN9__gnu_cxx11__enable_ifIXsr11__is_scalarIT1_EE7__valueET_E6__typeES4_T0_RKS3_(i32* %0, i64 %1, i32* nonnull align 4 dereferenceable(4) %2) #4 comdat {
  %4 = alloca i32*, align 8, !llfi_index !1512
  %5 = alloca i64, align 8, !llfi_index !1513
  %6 = alloca i32*, align 8, !llfi_index !1514
  %7 = alloca i32, align 4, !llfi_index !1515
  %8 = alloca i64, align 8, !llfi_index !1516
  store i32* %0, i32** %4, align 8, !llfi_index !1517
  store i64 %1, i64* %5, align 8, !llfi_index !1518
  store i32* %2, i32** %6, align 8, !llfi_index !1519
  %9 = load i32*, i32** %6, align 8, !llfi_index !1520
  %10 = load i32, i32* %9, align 4, !llfi_index !1521
  store i32 %10, i32* %7, align 4, !llfi_index !1522
  %11 = load i64, i64* %5, align 8, !llfi_index !1523
  store i64 %11, i64* %8, align 8, !llfi_index !1524
  br label %12, !llfi_index !1525

12:                                               ; preds = %18, %3
  %13 = load i64, i64* %8, align 8, !llfi_index !1526
  %14 = icmp ugt i64 %13, 0, !llfi_index !1527
  br i1 %14, label %15, label %23, !llfi_index !1528

15:                                               ; preds = %12
  %16 = load i32, i32* %7, align 4, !llfi_index !1529
  %17 = load i32*, i32** %4, align 8, !llfi_index !1530
  store i32 %16, i32* %17, align 4, !llfi_index !1531
  br label %18, !llfi_index !1532

18:                                               ; preds = %15
  %19 = load i64, i64* %8, align 8, !llfi_index !1533
  %20 = add i64 %19, -1, !llfi_index !1534
  store i64 %20, i64* %8, align 8, !llfi_index !1535
  %21 = load i32*, i32** %4, align 8, !llfi_index !1536
  %22 = getelementptr inbounds i32, i32* %21, i32 1, !llfi_index !1537
  store i32* %22, i32** %4, align 8, !llfi_index !1538
  br label %12, !llvm.loop !1539, !llfi_index !1540

23:                                               ; preds = %12
  %24 = load i32*, i32** %4, align 8, !llfi_index !1541
  ret i32* %24, !llfi_index !1542
}

; Function Attrs: mustprogress noinline nounwind uwtable
define linkonce_odr dso_local i32* @_ZSt12__niter_wrapIPiET_RKS1_S1_(i32** nonnull align 8 dereferenceable(8) %0, i32* %1) #4 comdat {
  %3 = alloca i32**, align 8, !llfi_index !1543
  %4 = alloca i32*, align 8, !llfi_index !1544
  store i32** %0, i32*** %3, align 8, !llfi_index !1545
  store i32* %1, i32** %4, align 8, !llfi_index !1546
  %5 = load i32*, i32** %4, align 8, !llfi_index !1547
  ret i32* %5, !llfi_index !1548
}

; Function Attrs: noinline nounwind uwtable
define linkonce_odr dso_local void @_ZNSt12_Vector_baseIiSaIiEE12_Vector_implC2ERKS0_(%"struct.std::_Vector_base<int, std::allocator<int>>::_Vector_impl"* nonnull align 8 dereferenceable(24) %0, %"class.std::ios_base::Init"* nonnull align 1 dereferenceable(1) %1) unnamed_addr #6 comdat align 2 {
  %3 = alloca %"struct.std::_Vector_base<int, std::allocator<int>>::_Vector_impl"*, align 8, !llfi_index !1549
  %4 = alloca %"class.std::ios_base::Init"*, align 8, !llfi_index !1550
  store %"struct.std::_Vector_base<int, std::allocator<int>>::_Vector_impl"* %0, %"struct.std::_Vector_base<int, std::allocator<int>>::_Vector_impl"** %3, align 8, !llfi_index !1551
  store %"class.std::ios_base::Init"* %1, %"class.std::ios_base::Init"** %4, align 8, !llfi_index !1552
  %5 = load %"struct.std::_Vector_base<int, std::allocator<int>>::_Vector_impl"*, %"struct.std::_Vector_base<int, std::allocator<int>>::_Vector_impl"** %3, align 8, !llfi_index !1553
  %6 = bitcast %"struct.std::_Vector_base<int, std::allocator<int>>::_Vector_impl"* %5 to %"class.std::ios_base::Init"*, !llfi_index !1554
  %7 = load %"class.std::ios_base::Init"*, %"class.std::ios_base::Init"** %4, align 8, !llfi_index !1555
  call void @_ZNSaIiEC2ERKS_(%"class.std::ios_base::Init"* nonnull align 1 dereferenceable(1) %6, %"class.std::ios_base::Init"* nonnull align 1 dereferenceable(1) %7) #2, !llfi_index !1556
  %8 = bitcast %"struct.std::_Vector_base<int, std::allocator<int>>::_Vector_impl"* %5 to %"struct.std::_Vector_base<int, std::allocator<int>>::_Vector_impl_data"*, !llfi_index !1557
  call void @_ZNSt12_Vector_baseIiSaIiEE17_Vector_impl_dataC2Ev(%"struct.std::_Vector_base<int, std::allocator<int>>::_Vector_impl_data"* nonnull align 8 dereferenceable(24) %8) #2, !llfi_index !1558
  ret void, !llfi_index !1559
}

; Function Attrs: mustprogress noinline uwtable
define linkonce_odr dso_local void @_ZNSt12_Vector_baseIiSaIiEE17_M_create_storageEm(%"struct.std::_Vector_base"* nonnull align 8 dereferenceable(24) %0, i64 %1) #7 comdat align 2 {
  %3 = alloca %"struct.std::_Vector_base"*, align 8, !llfi_index !1560
  %4 = alloca i64, align 8, !llfi_index !1561
  store %"struct.std::_Vector_base"* %0, %"struct.std::_Vector_base"** %3, align 8, !llfi_index !1562
  store i64 %1, i64* %4, align 8, !llfi_index !1563
  %5 = load %"struct.std::_Vector_base"*, %"struct.std::_Vector_base"** %3, align 8, !llfi_index !1564
  %6 = load i64, i64* %4, align 8, !llfi_index !1565
  %7 = call i32* @_ZNSt12_Vector_baseIiSaIiEE11_M_allocateEm(%"struct.std::_Vector_base"* nonnull align 8 dereferenceable(24) %5, i64 %6), !llfi_index !1566
  %8 = getelementptr inbounds %"struct.std::_Vector_base", %"struct.std::_Vector_base"* %5, i32 0, i32 0, !llfi_index !1567
  %9 = bitcast %"struct.std::_Vector_base<int, std::allocator<int>>::_Vector_impl"* %8 to %"struct.std::_Vector_base<int, std::allocator<int>>::_Vector_impl_data"*, !llfi_index !1568
  %10 = getelementptr inbounds %"struct.std::_Vector_base<int, std::allocator<int>>::_Vector_impl_data", %"struct.std::_Vector_base<int, std::allocator<int>>::_Vector_impl_data"* %9, i32 0, i32 0, !llfi_index !1569
  store i32* %7, i32** %10, align 8, !llfi_index !1570
  %11 = getelementptr inbounds %"struct.std::_Vector_base", %"struct.std::_Vector_base"* %5, i32 0, i32 0, !llfi_index !1571
  %12 = bitcast %"struct.std::_Vector_base<int, std::allocator<int>>::_Vector_impl"* %11 to %"struct.std::_Vector_base<int, std::allocator<int>>::_Vector_impl_data"*, !llfi_index !1572
  %13 = getelementptr inbounds %"struct.std::_Vector_base<int, std::allocator<int>>::_Vector_impl_data", %"struct.std::_Vector_base<int, std::allocator<int>>::_Vector_impl_data"* %12, i32 0, i32 0, !llfi_index !1573
  %14 = load i32*, i32** %13, align 8, !llfi_index !1574
  %15 = getelementptr inbounds %"struct.std::_Vector_base", %"struct.std::_Vector_base"* %5, i32 0, i32 0, !llfi_index !1575
  %16 = bitcast %"struct.std::_Vector_base<int, std::allocator<int>>::_Vector_impl"* %15 to %"struct.std::_Vector_base<int, std::allocator<int>>::_Vector_impl_data"*, !llfi_index !1576
  %17 = getelementptr inbounds %"struct.std::_Vector_base<int, std::allocator<int>>::_Vector_impl_data", %"struct.std::_Vector_base<int, std::allocator<int>>::_Vector_impl_data"* %16, i32 0, i32 1, !llfi_index !1577
  store i32* %14, i32** %17, align 8, !llfi_index !1578
  %18 = getelementptr inbounds %"struct.std::_Vector_base", %"struct.std::_Vector_base"* %5, i32 0, i32 0, !llfi_index !1579
  %19 = bitcast %"struct.std::_Vector_base<int, std::allocator<int>>::_Vector_impl"* %18 to %"struct.std::_Vector_base<int, std::allocator<int>>::_Vector_impl_data"*, !llfi_index !1580
  %20 = getelementptr inbounds %"struct.std::_Vector_base<int, std::allocator<int>>::_Vector_impl_data", %"struct.std::_Vector_base<int, std::allocator<int>>::_Vector_impl_data"* %19, i32 0, i32 0, !llfi_index !1581
  %21 = load i32*, i32** %20, align 8, !llfi_index !1582
  %22 = load i64, i64* %4, align 8, !llfi_index !1583
  %23 = getelementptr inbounds i32, i32* %21, i64 %22, !llfi_index !1584
  %24 = getelementptr inbounds %"struct.std::_Vector_base", %"struct.std::_Vector_base"* %5, i32 0, i32 0, !llfi_index !1585
  %25 = bitcast %"struct.std::_Vector_base<int, std::allocator<int>>::_Vector_impl"* %24 to %"struct.std::_Vector_base<int, std::allocator<int>>::_Vector_impl_data"*, !llfi_index !1586
  %26 = getelementptr inbounds %"struct.std::_Vector_base<int, std::allocator<int>>::_Vector_impl_data", %"struct.std::_Vector_base<int, std::allocator<int>>::_Vector_impl_data"* %25, i32 0, i32 2, !llfi_index !1587
  store i32* %23, i32** %26, align 8, !llfi_index !1588
  ret void, !llfi_index !1589
}

; Function Attrs: noinline nounwind uwtable
define linkonce_odr dso_local void @_ZNSaIiEC2ERKS_(%"class.std::ios_base::Init"* nonnull align 1 dereferenceable(1) %0, %"class.std::ios_base::Init"* nonnull align 1 dereferenceable(1) %1) unnamed_addr #6 comdat align 2 {
  %3 = alloca %"class.std::ios_base::Init"*, align 8, !llfi_index !1590
  %4 = alloca %"class.std::ios_base::Init"*, align 8, !llfi_index !1591
  store %"class.std::ios_base::Init"* %0, %"class.std::ios_base::Init"** %3, align 8, !llfi_index !1592
  store %"class.std::ios_base::Init"* %1, %"class.std::ios_base::Init"** %4, align 8, !llfi_index !1593
  %5 = load %"class.std::ios_base::Init"*, %"class.std::ios_base::Init"** %3, align 8, !llfi_index !1594
  %6 = bitcast %"class.std::ios_base::Init"* %5 to %"class.std::ios_base::Init"*, !llfi_index !1595
  %7 = load %"class.std::ios_base::Init"*, %"class.std::ios_base::Init"** %4, align 8, !llfi_index !1596
  %8 = bitcast %"class.std::ios_base::Init"* %7 to %"class.std::ios_base::Init"*, !llfi_index !1597
  call void @_ZN9__gnu_cxx13new_allocatorIiEC2ERKS1_(%"class.std::ios_base::Init"* nonnull align 1 dereferenceable(1) %6, %"class.std::ios_base::Init"* nonnull align 1 dereferenceable(1) %8) #2, !llfi_index !1598
  ret void, !llfi_index !1599
}

; Function Attrs: noinline nounwind uwtable
define linkonce_odr dso_local void @_ZN9__gnu_cxx13new_allocatorIiEC2ERKS1_(%"class.std::ios_base::Init"* nonnull align 1 dereferenceable(1) %0, %"class.std::ios_base::Init"* nonnull align 1 dereferenceable(1) %1) unnamed_addr #6 comdat align 2 {
  %3 = alloca %"class.std::ios_base::Init"*, align 8, !llfi_index !1600
  %4 = alloca %"class.std::ios_base::Init"*, align 8, !llfi_index !1601
  store %"class.std::ios_base::Init"* %0, %"class.std::ios_base::Init"** %3, align 8, !llfi_index !1602
  store %"class.std::ios_base::Init"* %1, %"class.std::ios_base::Init"** %4, align 8, !llfi_index !1603
  %5 = load %"class.std::ios_base::Init"*, %"class.std::ios_base::Init"** %3, align 8, !llfi_index !1604
  ret void, !llfi_index !1605
}

; Function Attrs: noinline nounwind uwtable
define linkonce_odr dso_local void @_ZN9__gnu_cxx13new_allocatorIiEC2Ev(%"class.std::ios_base::Init"* nonnull align 1 dereferenceable(1) %0) unnamed_addr #6 comdat align 2 {
  %2 = alloca %"class.std::ios_base::Init"*, align 8, !llfi_index !1606
  store %"class.std::ios_base::Init"* %0, %"class.std::ios_base::Init"** %2, align 8, !llfi_index !1607
  %3 = load %"class.std::ios_base::Init"*, %"class.std::ios_base::Init"** %2, align 8, !llfi_index !1608
  ret void, !llfi_index !1609
}

attributes #0 = { noinline uwtable "frame-pointer"="all" "min-legal-vector-width"="0" "no-trapping-math"="true" "stack-protector-buffer-size"="8" "target-cpu"="x86-64" "target-features"="+cx8,+fxsr,+mmx,+sse,+sse2,+x87" "tune-cpu"="generic" }
attributes #1 = { "frame-pointer"="all" "no-trapping-math"="true" "stack-protector-buffer-size"="8" "target-cpu"="x86-64" "target-features"="+cx8,+fxsr,+mmx,+sse,+sse2,+x87" "tune-cpu"="generic" }
attributes #2 = { nounwind }
attributes #3 = { nounwind "frame-pointer"="all" "no-trapping-math"="true" "stack-protector-buffer-size"="8" "target-cpu"="x86-64" "target-features"="+cx8,+fxsr,+mmx,+sse,+sse2,+x87" "tune-cpu"="generic" }
attributes #4 = { mustprogress noinline nounwind uwtable "frame-pointer"="all" "min-legal-vector-width"="0" "no-trapping-math"="true" "stack-protector-buffer-size"="8" "target-cpu"="x86-64" "target-features"="+cx8,+fxsr,+mmx,+sse,+sse2,+x87" "tune-cpu"="generic" }
attributes #5 = { mustprogress noinline norecurse uwtable "frame-pointer"="all" "min-legal-vector-width"="0" "no-trapping-math"="true" "stack-protector-buffer-size"="8" "target-cpu"="x86-64" "target-features"="+cx8,+fxsr,+mmx,+sse,+sse2,+x87" "tune-cpu"="generic" }
attributes #6 = { noinline nounwind uwtable "frame-pointer"="all" "min-legal-vector-width"="0" "no-trapping-math"="true" "stack-protector-buffer-size"="8" "target-cpu"="x86-64" "target-features"="+cx8,+fxsr,+mmx,+sse,+sse2,+x87" "tune-cpu"="generic" }
attributes #7 = { mustprogress noinline uwtable "frame-pointer"="all" "min-legal-vector-width"="0" "no-trapping-math"="true" "stack-protector-buffer-size"="8" "target-cpu"="x86-64" "target-features"="+cx8,+fxsr,+mmx,+sse,+sse2,+x87" "tune-cpu"="generic" }
attributes #8 = { argmemonly nofree nounwind willreturn }
attributes #9 = { convergent nofree nosync nounwind readnone willreturn }
attributes #10 = { noinline noreturn nounwind }
attributes #11 = { nobuiltin nounwind "frame-pointer"="all" "no-trapping-math"="true" "stack-protector-buffer-size"="8" "target-cpu"="x86-64" "target-features"="+cx8,+fxsr,+mmx,+sse,+sse2,+x87" "tune-cpu"="generic" }
attributes #12 = { noreturn "frame-pointer"="all" "no-trapping-math"="true" "stack-protector-buffer-size"="8" "target-cpu"="x86-64" "target-features"="+cx8,+fxsr,+mmx,+sse,+sse2,+x87" "tune-cpu"="generic" }
attributes #13 = { nobuiltin allocsize(0) "frame-pointer"="all" "no-trapping-math"="true" "stack-protector-buffer-size"="8" "target-cpu"="x86-64" "target-features"="+cx8,+fxsr,+mmx,+sse,+sse2,+x87" "tune-cpu"="generic" }
attributes #14 = { noreturn nounwind }
attributes #15 = { noreturn }
attributes #16 = { allocsize(0) }

!llvm.ident = !{!0}
!llvm.module.flags = !{!1, !2, !3}

!0 = !{!"clang version 13.0.0 (https://github.com/llvm/llvm-project.git d7b669b3a30345cfcdb2fde2af6f48aa4b94845d)"}
!1 = !{i32 1, !"wchar_size", i32 4}
!2 = !{i32 7, !"uwtable", i32 1}
!3 = !{i32 7, !"frame-pointer", i32 2}
!4 = !{i64 1}
!5 = !{i64 2}
!6 = !{i64 3}
!7 = !{i64 4}
!8 = !{i64 5}
!9 = !{i64 6}
!10 = !{i64 7}
!11 = !{i64 8}
!12 = !{i64 9}
!13 = !{i64 10}
!14 = !{i64 11}
!15 = !{i64 12}
!16 = !{i64 13}
!17 = !{i64 14}
!18 = !{i64 15}
!19 = !{i64 16}
!20 = !{i64 17}
!21 = !{i64 18}
!22 = !{i64 19}
!23 = !{i64 20}
!24 = !{i64 21}
!25 = !{i64 22}
!26 = !{i64 23}
!27 = !{i64 24}
!28 = !{i64 25}
!29 = !{i64 26}
!30 = !{i64 27}
!31 = !{i64 28}
!32 = !{i64 29}
!33 = !{i64 30}
!34 = !{i64 31}
!35 = distinct !{!35, !36}
!36 = !{!"llvm.loop.mustprogress"}
!37 = !{i64 32}
!38 = !{i64 33}
!39 = !{i64 34}
!40 = !{i64 35}
!41 = !{i64 36}
!42 = !{i64 37}
!43 = !{i64 38}
!44 = !{i64 39}
!45 = !{i64 40}
!46 = !{i64 41}
!47 = !{i64 42}
!48 = !{i64 43}
!49 = !{i64 44}
!50 = !{i64 45}
!51 = !{i64 46}
!52 = !{i64 47}
!53 = !{i64 48}
!54 = !{i64 49}
!55 = !{i64 50}
!56 = !{i64 51}
!57 = !{i64 52}
!58 = !{i64 53}
!59 = !{i64 54}
!60 = !{i64 55}
!61 = !{i64 56}
!62 = !{i64 57}
!63 = !{i64 58}
!64 = distinct !{!64, !36}
!65 = !{i64 59}
!66 = !{i64 60}
!67 = !{i64 61}
!68 = !{i64 62}
!69 = !{i64 63}
!70 = !{i64 64}
!71 = !{i64 65}
!72 = !{i64 66}
!73 = !{i64 67}
!74 = !{i64 68}
!75 = !{i64 69}
!76 = !{i64 70}
!77 = !{i64 71}
!78 = !{i64 72}
!79 = !{i64 73}
!80 = !{i64 74}
!81 = !{i64 75}
!82 = !{i64 76}
!83 = !{i64 77}
!84 = !{i64 78}
!85 = !{i64 79}
!86 = !{i64 80}
!87 = !{i64 81}
!88 = !{i64 82}
!89 = !{i64 83}
!90 = !{i64 84}
!91 = !{i64 85}
!92 = !{i64 86}
!93 = !{i64 87}
!94 = !{i64 88}
!95 = !{i64 89}
!96 = !{i64 90}
!97 = !{i64 91}
!98 = !{i64 92}
!99 = !{i64 93}
!100 = !{i64 94}
!101 = !{i64 95}
!102 = !{i64 96}
!103 = !{i64 97}
!104 = !{i64 98}
!105 = !{i64 99}
!106 = !{i64 100}
!107 = !{i64 101}
!108 = !{i64 102}
!109 = !{i64 103}
!110 = !{i64 104}
!111 = !{i64 105}
!112 = !{i64 106}
!113 = !{i64 107}
!114 = !{i64 108}
!115 = !{i64 109}
!116 = !{i64 110}
!117 = !{i64 111}
!118 = !{i64 112}
!119 = !{i64 113}
!120 = !{i64 114}
!121 = !{i64 115}
!122 = !{i64 116}
!123 = !{i64 117}
!124 = !{i64 118}
!125 = !{i64 119}
!126 = distinct !{!126, !36}
!127 = !{i64 120}
!128 = !{i64 121}
!129 = !{i64 122}
!130 = !{i64 123}
!131 = !{i64 124}
!132 = !{i64 125}
!133 = !{i64 126}
!134 = !{i64 127}
!135 = !{i64 128}
!136 = !{i64 129}
!137 = !{i64 130}
!138 = !{i64 131}
!139 = !{i64 132}
!140 = !{i64 133}
!141 = !{i64 134}
!142 = !{i64 135}
!143 = !{i64 136}
!144 = !{i64 137}
!145 = !{i64 138}
!146 = !{i64 139}
!147 = !{i64 140}
!148 = !{i64 141}
!149 = !{i64 142}
!150 = !{i64 143}
!151 = !{i64 144}
!152 = !{i64 145}
!153 = !{i64 146}
!154 = !{i64 147}
!155 = !{i64 148}
!156 = !{i64 149}
!157 = !{i64 150}
!158 = !{i64 151}
!159 = !{i64 152}
!160 = !{i64 153}
!161 = !{i64 154}
!162 = !{i64 155}
!163 = !{i64 156}
!164 = !{i64 157}
!165 = !{i64 158}
!166 = !{i64 159}
!167 = !{i64 160}
!168 = !{i64 161}
!169 = !{i64 162}
!170 = !{i64 163}
!171 = !{i64 164}
!172 = !{i64 165}
!173 = !{i64 166}
!174 = !{i64 167}
!175 = !{i64 168}
!176 = distinct !{!176, !36}
!177 = !{i64 169}
!178 = !{i64 170}
!179 = !{i64 171}
!180 = !{i64 172}
!181 = !{i64 173}
!182 = !{i64 174}
!183 = !{i64 175}
!184 = !{i64 176}
!185 = !{i64 177}
!186 = !{i64 178}
!187 = !{i64 179}
!188 = !{i64 180}
!189 = !{i64 181}
!190 = !{i64 182}
!191 = !{i64 183}
!192 = !{i64 184}
!193 = !{i64 185}
!194 = !{i64 186}
!195 = !{i64 187}
!196 = !{i64 188}
!197 = !{i64 189}
!198 = !{i64 190}
!199 = !{i64 191}
!200 = distinct !{!200, !36}
!201 = !{i64 192}
!202 = !{i64 193}
!203 = !{i64 194}
!204 = !{i64 195}
!205 = !{i64 196}
!206 = !{i64 197}
!207 = !{i64 198}
!208 = !{i64 199}
!209 = !{i64 200}
!210 = !{i64 201}
!211 = !{i64 202}
!212 = !{i64 203}
!213 = !{i64 204}
!214 = !{i64 205}
!215 = !{i64 206}
!216 = !{i64 207}
!217 = !{i64 208}
!218 = !{i64 209}
!219 = !{i64 210}
!220 = !{i64 211}
!221 = !{i64 212}
!222 = !{i64 213}
!223 = !{i64 214}
!224 = !{i64 215}
!225 = !{i64 216}
!226 = !{i64 217}
!227 = !{i64 218}
!228 = !{i64 219}
!229 = !{i64 220}
!230 = !{i64 221}
!231 = !{i64 222}
!232 = !{i64 223}
!233 = !{i64 224}
!234 = !{i64 225}
!235 = !{i64 226}
!236 = !{i64 227}
!237 = !{i64 228}
!238 = !{i64 229}
!239 = !{i64 230}
!240 = !{i64 231}
!241 = !{i64 232}
!242 = !{i64 233}
!243 = !{i64 234}
!244 = distinct !{!244, !36}
!245 = !{i64 235}
!246 = !{i64 236}
!247 = !{i64 237}
!248 = !{i64 238}
!249 = !{i64 239}
!250 = !{i64 240}
!251 = !{i64 241}
!252 = !{i64 242}
!253 = !{i64 243}
!254 = !{i64 244}
!255 = !{i64 245}
!256 = !{i64 246}
!257 = !{i64 247}
!258 = !{i64 248}
!259 = !{i64 249}
!260 = !{i64 250}
!261 = !{i64 251}
!262 = !{i64 252}
!263 = !{i64 253}
!264 = !{i64 254}
!265 = !{i64 255}
!266 = !{i64 256}
!267 = !{i64 257}
!268 = !{i64 258}
!269 = !{i64 259}
!270 = !{i64 260}
!271 = !{i64 261}
!272 = !{i64 262}
!273 = !{i64 263}
!274 = !{i64 264}
!275 = !{i64 265}
!276 = !{i64 266}
!277 = !{i64 267}
!278 = !{i64 268}
!279 = !{i64 269}
!280 = !{i64 270}
!281 = !{i64 271}
!282 = !{i64 272}
!283 = !{i64 273}
!284 = !{i64 274}
!285 = !{i64 275}
!286 = !{i64 276}
!287 = !{i64 277}
!288 = !{i64 278}
!289 = !{i64 279}
!290 = !{i64 280}
!291 = !{i64 281}
!292 = !{i64 282}
!293 = !{i64 283}
!294 = !{i64 284}
!295 = !{i64 285}
!296 = !{i64 286}
!297 = !{i64 287}
!298 = !{i64 288}
!299 = !{i64 289}
!300 = !{i64 290}
!301 = !{i64 291}
!302 = !{i64 292}
!303 = !{i64 293}
!304 = !{i64 294}
!305 = !{i64 295}
!306 = !{i64 296}
!307 = !{i64 297}
!308 = !{i64 298}
!309 = !{i64 299}
!310 = !{i64 300}
!311 = !{i64 301}
!312 = !{i64 302}
!313 = !{i64 303}
!314 = !{i64 304}
!315 = !{i64 305}
!316 = !{i64 306}
!317 = !{i64 307}
!318 = !{i64 308}
!319 = !{i64 309}
!320 = !{i64 310}
!321 = !{i64 311}
!322 = !{i64 312}
!323 = !{i64 313}
!324 = !{i64 314}
!325 = !{i64 315}
!326 = !{i64 316}
!327 = !{i64 317}
!328 = !{i64 318}
!329 = !{i64 319}
!330 = !{i64 320}
!331 = !{i64 321}
!332 = !{i64 322}
!333 = !{i64 323}
!334 = !{i64 324}
!335 = !{i64 325}
!336 = !{i64 326}
!337 = !{i64 327}
!338 = !{i64 328}
!339 = !{i64 329}
!340 = !{i64 330}
!341 = !{i64 331}
!342 = !{i64 332}
!343 = !{i64 333}
!344 = !{i64 334}
!345 = !{i64 335}
!346 = !{i64 336}
!347 = !{i64 337}
!348 = !{i64 338}
!349 = !{i64 339}
!350 = !{i64 340}
!351 = !{i64 341}
!352 = !{i64 342}
!353 = !{i64 343}
!354 = !{i64 344}
!355 = !{i64 345}
!356 = !{i64 346}
!357 = !{i64 347}
!358 = !{i64 348}
!359 = !{i64 349}
!360 = !{i64 350}
!361 = !{i64 351}
!362 = !{i64 352}
!363 = !{i64 353}
!364 = !{i64 354}
!365 = !{i64 355}
!366 = !{i64 356}
!367 = !{i64 357}
!368 = !{i64 358}
!369 = !{i64 359}
!370 = !{i64 360}
!371 = !{i64 361}
!372 = !{i64 362}
!373 = !{i64 363}
!374 = !{i64 364}
!375 = !{i64 365}
!376 = !{i64 366}
!377 = !{i64 367}
!378 = !{i64 368}
!379 = !{i64 369}
!380 = !{i64 370}
!381 = !{i64 371}
!382 = !{i64 372}
!383 = !{i64 373}
!384 = !{i64 374}
!385 = !{i64 375}
!386 = !{i64 376}
!387 = !{i64 377}
!388 = !{i64 378}
!389 = !{i64 379}
!390 = !{i64 380}
!391 = !{i64 381}
!392 = !{i64 382}
!393 = !{i64 383}
!394 = !{i64 384}
!395 = !{i64 385}
!396 = !{i64 386}
!397 = !{i64 387}
!398 = !{i64 388}
!399 = !{i64 389}
!400 = !{i64 390}
!401 = !{i64 391}
!402 = !{i64 392}
!403 = !{i64 393}
!404 = !{i64 394}
!405 = !{i64 395}
!406 = !{i64 396}
!407 = !{i64 397}
!408 = !{i64 398}
!409 = !{i64 399}
!410 = !{i64 400}
!411 = !{i64 401}
!412 = !{i64 402}
!413 = !{i64 403}
!414 = !{i64 404}
!415 = !{i64 405}
!416 = !{i64 406}
!417 = !{i64 407}
!418 = !{i64 408}
!419 = !{i64 409}
!420 = !{i64 410}
!421 = !{i64 411}
!422 = !{i64 412}
!423 = !{i64 413}
!424 = !{i64 414}
!425 = !{i64 415}
!426 = !{i64 416}
!427 = !{i64 417}
!428 = !{i64 418}
!429 = !{i64 419}
!430 = !{i64 420}
!431 = distinct !{!431, !36}
!432 = !{i64 421}
!433 = !{i64 422}
!434 = !{i64 423}
!435 = !{i64 424}
!436 = !{i64 425}
!437 = !{i64 426}
!438 = !{i64 427}
!439 = !{i64 428}
!440 = !{i64 429}
!441 = !{i64 430}
!442 = !{i64 431}
!443 = !{i64 432}
!444 = !{i64 433}
!445 = !{i64 434}
!446 = !{i64 435}
!447 = !{i64 436}
!448 = !{i64 437}
!449 = !{i64 438}
!450 = !{i64 439}
!451 = !{i64 440}
!452 = !{i64 441}
!453 = !{i64 442}
!454 = !{i64 443}
!455 = !{i64 444}
!456 = !{i64 445}
!457 = !{i64 446}
!458 = !{i64 447}
!459 = !{i64 448}
!460 = !{i64 449}
!461 = !{i64 450}
!462 = !{i64 451}
!463 = !{i64 452}
!464 = !{i64 453}
!465 = !{i64 454}
!466 = !{i64 455}
!467 = !{i64 456}
!468 = !{i64 457}
!469 = !{i64 458}
!470 = !{i64 459}
!471 = !{i64 460}
!472 = !{i64 461}
!473 = !{i64 462}
!474 = !{i64 463}
!475 = !{i64 464}
!476 = !{i64 465}
!477 = !{i64 466}
!478 = !{i64 467}
!479 = !{i64 468}
!480 = !{i64 469}
!481 = !{i64 470}
!482 = !{i64 471}
!483 = !{i64 472}
!484 = !{i64 473}
!485 = !{i64 474}
!486 = !{i64 475}
!487 = !{i64 476}
!488 = !{i64 477}
!489 = !{i64 478}
!490 = !{i64 479}
!491 = !{i64 480}
!492 = !{i64 481}
!493 = !{i64 482}
!494 = !{i64 483}
!495 = !{i64 484}
!496 = !{i64 485}
!497 = !{i64 486}
!498 = !{i64 487}
!499 = !{i64 488}
!500 = !{i64 489}
!501 = !{i64 490}
!502 = !{i64 491}
!503 = !{i64 492}
!504 = !{i64 493}
!505 = !{i64 494}
!506 = !{i64 495}
!507 = !{i64 496}
!508 = !{i64 497}
!509 = !{i64 498}
!510 = !{i64 499}
!511 = !{i64 500}
!512 = !{i64 501}
!513 = !{i64 502}
!514 = !{i64 503}
!515 = !{i64 504}
!516 = !{i64 505}
!517 = !{i64 506}
!518 = !{i64 507}
!519 = !{i64 508}
!520 = !{i64 509}
!521 = !{i64 510}
!522 = !{i64 511}
!523 = !{i64 512}
!524 = !{i64 513}
!525 = !{i64 514}
!526 = !{i64 515}
!527 = !{i64 516}
!528 = !{i64 517}
!529 = !{i64 518}
!530 = !{i64 519}
!531 = !{i64 520}
!532 = !{i64 521}
!533 = !{i64 522}
!534 = !{i64 523}
!535 = !{i64 524}
!536 = !{i64 525}
!537 = !{i64 526}
!538 = !{i64 527}
!539 = !{i64 528}
!540 = !{i64 529}
!541 = !{i64 530}
!542 = !{i64 531}
!543 = !{i64 532}
!544 = !{i64 533}
!545 = !{i64 534}
!546 = !{i64 535}
!547 = !{i64 536}
!548 = !{i64 537}
!549 = !{i64 538}
!550 = !{i64 539}
!551 = !{i64 540}
!552 = !{i64 541}
!553 = !{i64 542}
!554 = !{i64 543}
!555 = !{i64 544}
!556 = !{i64 545}
!557 = !{i64 546}
!558 = !{i64 547}
!559 = !{i64 548}
!560 = !{i64 549}
!561 = !{i64 550}
!562 = !{i64 551}
!563 = !{i64 552}
!564 = !{i64 553}
!565 = !{i64 554}
!566 = !{i64 555}
!567 = !{i64 556}
!568 = !{i64 557}
!569 = !{i64 558}
!570 = !{i64 559}
!571 = !{i64 560}
!572 = !{i64 561}
!573 = !{i64 562}
!574 = !{i64 563}
!575 = !{i64 564}
!576 = !{i64 565}
!577 = !{i64 566}
!578 = !{i64 567}
!579 = !{i64 568}
!580 = !{i64 569}
!581 = !{i64 570}
!582 = !{i64 571}
!583 = !{i64 572}
!584 = !{i64 573}
!585 = !{i64 574}
!586 = !{i64 575}
!587 = !{i64 576}
!588 = !{i64 577}
!589 = !{i64 578}
!590 = !{i64 579}
!591 = !{i64 580}
!592 = !{i64 581}
!593 = !{i64 582}
!594 = !{i64 583}
!595 = !{i64 584}
!596 = !{i64 585}
!597 = !{i64 586}
!598 = !{i64 587}
!599 = !{i64 588}
!600 = !{i64 589}
!601 = !{i64 590}
!602 = !{i64 591}
!603 = !{i64 592}
!604 = !{i64 593}
!605 = !{i64 594}
!606 = !{i64 595}
!607 = !{i64 596}
!608 = !{i64 597}
!609 = !{i64 598}
!610 = !{i64 599}
!611 = !{i64 600}
!612 = !{i64 601}
!613 = !{i64 602}
!614 = !{i64 603}
!615 = !{i64 604}
!616 = !{i64 605}
!617 = !{i64 606}
!618 = !{i64 607}
!619 = !{i64 608}
!620 = !{i64 609}
!621 = !{i64 610}
!622 = !{i64 611}
!623 = !{i64 612}
!624 = !{i64 613}
!625 = !{i64 614}
!626 = !{i64 615}
!627 = !{i64 616}
!628 = !{i64 617}
!629 = !{i64 618}
!630 = !{i64 619}
!631 = !{i64 620}
!632 = !{i64 621}
!633 = !{i64 622}
!634 = !{i64 623}
!635 = !{i64 624}
!636 = !{i64 625}
!637 = !{i64 626}
!638 = !{i64 627}
!639 = !{i64 628}
!640 = !{i64 629}
!641 = !{i64 630}
!642 = !{i64 631}
!643 = !{i64 632}
!644 = !{i64 633}
!645 = !{i64 634}
!646 = !{i64 635}
!647 = !{i64 636}
!648 = !{i64 637}
!649 = !{i64 638}
!650 = !{i64 639}
!651 = !{i64 640}
!652 = !{i64 641}
!653 = !{i64 642}
!654 = !{i64 643}
!655 = !{i64 644}
!656 = !{i64 645}
!657 = !{i64 646}
!658 = !{i64 647}
!659 = !{i64 648}
!660 = !{i64 649}
!661 = !{i64 650}
!662 = !{i64 651}
!663 = !{i64 652}
!664 = !{i64 653}
!665 = !{i64 654}
!666 = !{i64 655}
!667 = !{i64 656}
!668 = !{i64 657}
!669 = !{i64 658}
!670 = !{i64 659}
!671 = !{i64 660}
!672 = !{i64 661}
!673 = !{i64 662}
!674 = !{i64 663}
!675 = !{i64 664}
!676 = !{i64 665}
!677 = !{i64 666}
!678 = !{i64 667}
!679 = !{i64 668}
!680 = !{i64 669}
!681 = !{i64 670}
!682 = !{i64 671}
!683 = !{i64 672}
!684 = !{i64 673}
!685 = !{i64 674}
!686 = !{i64 675}
!687 = !{i64 676}
!688 = !{i64 677}
!689 = !{i64 678}
!690 = !{i64 679}
!691 = !{i64 680}
!692 = !{i64 681}
!693 = !{i64 682}
!694 = !{i64 683}
!695 = !{i64 684}
!696 = !{i64 685}
!697 = !{i64 686}
!698 = !{i64 687}
!699 = !{i64 688}
!700 = !{i64 689}
!701 = !{i64 690}
!702 = !{i64 691}
!703 = !{i64 692}
!704 = !{i64 693}
!705 = !{i64 694}
!706 = !{i64 695}
!707 = !{i64 696}
!708 = !{i64 697}
!709 = !{i64 698}
!710 = !{i64 699}
!711 = !{i64 700}
!712 = !{i64 701}
!713 = !{i64 702}
!714 = !{i64 703}
!715 = !{i64 704}
!716 = !{i64 705}
!717 = !{i64 706}
!718 = !{i64 707}
!719 = !{i64 708}
!720 = !{i64 709}
!721 = !{i64 710}
!722 = !{i64 711}
!723 = !{i64 712}
!724 = !{i64 713}
!725 = !{i64 714}
!726 = !{i64 715}
!727 = !{i64 716}
!728 = !{i64 717}
!729 = !{i64 718}
!730 = !{i64 719}
!731 = !{i64 720}
!732 = !{i64 721}
!733 = !{i64 722}
!734 = !{i64 723}
!735 = !{i64 724}
!736 = !{i64 725}
!737 = !{i64 726}
!738 = !{i64 727}
!739 = !{i64 728}
!740 = !{i64 729}
!741 = !{i64 730}
!742 = !{i64 731}
!743 = !{i64 732}
!744 = !{i64 733}
!745 = distinct !{!745, !36}
!746 = !{i64 734}
!747 = !{i64 735}
!748 = !{i64 736}
!749 = !{i64 737}
!750 = !{i64 738}
!751 = !{i64 739}
!752 = !{i64 740}
!753 = !{i64 741}
!754 = !{i64 742}
!755 = !{i64 743}
!756 = !{i64 744}
!757 = !{i64 745}
!758 = !{i64 746}
!759 = !{i64 747}
!760 = !{i64 748}
!761 = !{i64 749}
!762 = !{i64 750}
!763 = !{i64 751}
!764 = !{i64 752}
!765 = !{i64 753}
!766 = !{i64 754}
!767 = !{i64 755}
!768 = !{i64 756}
!769 = !{i64 757}
!770 = !{i64 758}
!771 = !{i64 759}
!772 = !{i64 760}
!773 = !{i64 761}
!774 = !{i64 762}
!775 = !{i64 763}
!776 = !{i64 764}
!777 = !{i64 765}
!778 = !{i64 766}
!779 = !{i64 767}
!780 = !{i64 768}
!781 = !{i64 769}
!782 = !{i64 770}
!783 = !{i64 771}
!784 = !{i64 772}
!785 = !{i64 773}
!786 = !{i64 774}
!787 = !{i64 775}
!788 = !{i64 776}
!789 = !{i64 777}
!790 = !{i64 778}
!791 = !{i64 779}
!792 = !{i64 780}
!793 = !{i64 781}
!794 = !{i64 782}
!795 = !{i64 783}
!796 = !{i64 784}
!797 = !{i64 785}
!798 = !{i64 786}
!799 = !{i64 787}
!800 = !{i64 788}
!801 = !{i64 789}
!802 = !{i64 790}
!803 = !{i64 791}
!804 = !{i64 792}
!805 = !{i64 793}
!806 = !{i64 794}
!807 = !{i64 795}
!808 = !{i64 796}
!809 = !{i64 797}
!810 = !{i64 798}
!811 = !{i64 799}
!812 = !{i64 800}
!813 = !{i64 801}
!814 = !{i64 802}
!815 = !{i64 803}
!816 = !{i64 804}
!817 = !{i64 805}
!818 = !{i64 806}
!819 = !{i64 807}
!820 = !{i64 808}
!821 = !{i64 809}
!822 = !{i64 810}
!823 = !{i64 811}
!824 = !{i64 812}
!825 = !{i64 813}
!826 = !{i64 814}
!827 = !{i64 815}
!828 = !{i64 816}
!829 = !{i64 817}
!830 = !{i64 818}
!831 = !{i64 819}
!832 = !{i64 820}
!833 = !{i64 821}
!834 = !{i64 822}
!835 = !{i64 823}
!836 = !{i64 824}
!837 = !{i64 825}
!838 = !{i64 826}
!839 = !{i64 827}
!840 = !{i64 828}
!841 = !{i64 829}
!842 = !{i64 830}
!843 = !{i64 831}
!844 = !{i64 832}
!845 = !{i64 833}
!846 = !{i64 834}
!847 = !{i64 835}
!848 = !{i64 836}
!849 = !{i64 837}
!850 = !{i64 838}
!851 = !{i64 839}
!852 = !{i64 840}
!853 = !{i64 841}
!854 = !{i64 842}
!855 = !{i64 843}
!856 = !{i64 844}
!857 = !{i64 845}
!858 = !{i64 846}
!859 = !{i64 847}
!860 = !{i64 848}
!861 = !{i64 849}
!862 = !{i64 850}
!863 = !{i64 851}
!864 = !{i64 852}
!865 = !{i64 853}
!866 = !{i64 854}
!867 = !{i64 855}
!868 = !{i64 856}
!869 = !{i64 857}
!870 = !{i64 858}
!871 = !{i64 859}
!872 = !{i64 860}
!873 = !{i64 861}
!874 = !{i64 862}
!875 = !{i64 863}
!876 = !{i64 864}
!877 = !{i64 865}
!878 = !{i64 866}
!879 = !{i64 867}
!880 = !{i64 868}
!881 = !{i64 869}
!882 = !{i64 870}
!883 = !{i64 871}
!884 = !{i64 872}
!885 = !{i64 873}
!886 = !{i64 874}
!887 = !{i64 875}
!888 = !{i64 876}
!889 = !{i64 877}
!890 = !{i64 878}
!891 = !{i64 879}
!892 = !{i64 880}
!893 = !{i64 881}
!894 = !{i64 882}
!895 = !{i64 883}
!896 = !{i64 884}
!897 = !{i64 885}
!898 = !{i64 886}
!899 = !{i64 887}
!900 = !{i64 888}
!901 = !{i64 889}
!902 = !{i64 890}
!903 = !{i64 891}
!904 = !{i64 892}
!905 = !{i64 893}
!906 = !{i64 894}
!907 = !{i64 895}
!908 = !{i64 896}
!909 = !{i64 897}
!910 = !{i64 898}
!911 = !{i64 899}
!912 = !{i64 900}
!913 = !{i64 901}
!914 = !{i64 902}
!915 = !{i64 903}
!916 = !{i64 904}
!917 = !{i64 905}
!918 = !{i64 906}
!919 = !{i64 907}
!920 = !{i64 908}
!921 = !{i64 909}
!922 = !{i64 910}
!923 = !{i64 911}
!924 = !{i64 912}
!925 = !{i64 913}
!926 = !{i64 914}
!927 = !{i64 915}
!928 = !{i64 916}
!929 = !{i64 917}
!930 = !{i64 918}
!931 = !{i64 919}
!932 = !{i64 920}
!933 = !{i64 921}
!934 = !{i64 922}
!935 = !{i64 923}
!936 = !{i64 924}
!937 = !{i64 925}
!938 = !{i64 926}
!939 = !{i64 927}
!940 = !{i64 928}
!941 = !{i64 929}
!942 = !{i64 930}
!943 = !{i64 931}
!944 = !{i64 932}
!945 = !{i64 933}
!946 = !{i64 934}
!947 = !{i64 935}
!948 = !{i64 936}
!949 = !{i64 937}
!950 = !{i64 938}
!951 = !{i64 939}
!952 = !{i64 940}
!953 = !{i64 941}
!954 = !{i64 942}
!955 = !{i64 943}
!956 = !{i64 944}
!957 = !{i64 945}
!958 = !{i64 946}
!959 = !{i64 947}
!960 = !{i64 948}
!961 = !{i64 949}
!962 = !{i64 950}
!963 = !{i64 951}
!964 = !{i64 952}
!965 = !{i64 953}
!966 = !{i64 954}
!967 = !{i64 955}
!968 = !{i64 956}
!969 = !{i64 957}
!970 = !{i64 958}
!971 = !{i64 959}
!972 = !{i64 960}
!973 = !{i64 961}
!974 = !{i64 962}
!975 = !{i64 963}
!976 = !{i64 964}
!977 = !{i64 965}
!978 = !{i64 966}
!979 = !{i64 967}
!980 = !{i64 968}
!981 = !{i64 969}
!982 = !{i64 970}
!983 = !{i64 971}
!984 = !{i64 972}
!985 = !{i64 973}
!986 = !{i64 974}
!987 = !{i64 975}
!988 = !{i64 976}
!989 = !{i64 977}
!990 = !{i64 978}
!991 = !{i64 979}
!992 = !{i64 980}
!993 = !{i64 981}
!994 = !{i64 982}
!995 = !{i64 983}
!996 = !{i64 984}
!997 = !{i64 985}
!998 = !{i64 986}
!999 = !{i64 987}
!1000 = !{i64 988}
!1001 = !{i64 989}
!1002 = !{i64 990}
!1003 = !{i64 991}
!1004 = !{i64 992}
!1005 = !{i64 993}
!1006 = !{i64 994}
!1007 = !{i64 995}
!1008 = !{i64 996}
!1009 = !{i64 997}
!1010 = !{i64 998}
!1011 = !{i64 999}
!1012 = !{i64 1000}
!1013 = !{i64 1001}
!1014 = !{i64 1002}
!1015 = !{i64 1003}
!1016 = !{i64 1004}
!1017 = !{i64 1005}
!1018 = !{i64 1006}
!1019 = !{i64 1007}
!1020 = !{i64 1008}
!1021 = !{i64 1009}
!1022 = !{i64 1010}
!1023 = !{i64 1011}
!1024 = !{i64 1012}
!1025 = !{i64 1013}
!1026 = !{i64 1014}
!1027 = !{i64 1015}
!1028 = !{i64 1016}
!1029 = !{i64 1017}
!1030 = !{i64 1018}
!1031 = !{i64 1019}
!1032 = !{i64 1020}
!1033 = !{i64 1021}
!1034 = !{i64 1022}
!1035 = !{i64 1023}
!1036 = !{i64 1024}
!1037 = !{i64 1025}
!1038 = !{i64 1026}
!1039 = !{i64 1027}
!1040 = !{i64 1028}
!1041 = !{i64 1029}
!1042 = !{i64 1030}
!1043 = !{i64 1031}
!1044 = !{i64 1032}
!1045 = !{i64 1033}
!1046 = !{i64 1034}
!1047 = !{i64 1035}
!1048 = !{i64 1036}
!1049 = !{i64 1037}
!1050 = !{i64 1038}
!1051 = !{i64 1039}
!1052 = !{i64 1040}
!1053 = !{i64 1041}
!1054 = !{i64 1042}
!1055 = !{i64 1043}
!1056 = !{i64 1044}
!1057 = !{i64 1045}
!1058 = !{i64 1046}
!1059 = !{i64 1047}
!1060 = !{i64 1048}
!1061 = !{i64 1049}
!1062 = !{i64 1050}
!1063 = !{i64 1051}
!1064 = !{i64 1052}
!1065 = !{i64 1053}
!1066 = !{i64 1054}
!1067 = !{i64 1055}
!1068 = !{i64 1056}
!1069 = !{i64 1057}
!1070 = !{i64 1058}
!1071 = !{i64 1059}
!1072 = !{i64 1060}
!1073 = !{i64 1061}
!1074 = !{i64 1062}
!1075 = !{i64 1063}
!1076 = !{i64 1064}
!1077 = !{i64 1065}
!1078 = !{i64 1066}
!1079 = !{i64 1067}
!1080 = !{i64 1068}
!1081 = !{i64 1069}
!1082 = !{i64 1070}
!1083 = !{i64 1071}
!1084 = !{i64 1072}
!1085 = !{i64 1073}
!1086 = !{i64 1074}
!1087 = !{i64 1075}
!1088 = !{i64 1076}
!1089 = !{i64 1077}
!1090 = !{i64 1078}
!1091 = !{i64 1079}
!1092 = !{i64 1080}
!1093 = !{i64 1081}
!1094 = !{i64 1082}
!1095 = !{i64 1083}
!1096 = !{i64 1084}
!1097 = !{i64 1085}
!1098 = !{i64 1086}
!1099 = !{i64 1087}
!1100 = !{i64 1088}
!1101 = !{i64 1089}
!1102 = !{i64 1090}
!1103 = !{i64 1091}
!1104 = !{i64 1092}
!1105 = !{i64 1093}
!1106 = !{i64 1094}
!1107 = !{i64 1095}
!1108 = !{i64 1096}
!1109 = !{i64 1097}
!1110 = !{i64 1098}
!1111 = !{i64 1099}
!1112 = !{i64 1100}
!1113 = !{i64 1101}
!1114 = !{i64 1102}
!1115 = !{i64 1103}
!1116 = !{i64 1104}
!1117 = !{i64 1105}
!1118 = !{i64 1106}
!1119 = !{i64 1107}
!1120 = !{i64 1108}
!1121 = !{i64 1109}
!1122 = !{i64 1110}
!1123 = !{i64 1111}
!1124 = !{i64 1112}
!1125 = !{i64 1113}
!1126 = !{i64 1114}
!1127 = !{i64 1115}
!1128 = !{i64 1116}
!1129 = !{i64 1117}
!1130 = !{i64 1118}
!1131 = !{i64 1119}
!1132 = !{i64 1120}
!1133 = !{i64 1121}
!1134 = !{i64 1122}
!1135 = !{i64 1123}
!1136 = !{i64 1124}
!1137 = !{i64 1125}
!1138 = !{i64 1126}
!1139 = !{i64 1127}
!1140 = !{i64 1128}
!1141 = !{i64 1129}
!1142 = !{i64 1130}
!1143 = !{i64 1131}
!1144 = !{i64 1132}
!1145 = !{i64 1133}
!1146 = !{i64 1134}
!1147 = !{i64 1135}
!1148 = !{i64 1136}
!1149 = !{i64 1137}
!1150 = !{i64 1138}
!1151 = !{i64 1139}
!1152 = !{i64 1140}
!1153 = !{i64 1141}
!1154 = !{i64 1142}
!1155 = !{i64 1143}
!1156 = !{i64 1144}
!1157 = !{i64 1145}
!1158 = !{i64 1146}
!1159 = !{i64 1147}
!1160 = !{i64 1148}
!1161 = !{i64 1149}
!1162 = !{i64 1150}
!1163 = !{i64 1151}
!1164 = !{i64 1152}
!1165 = !{i64 1153}
!1166 = !{i64 1154}
!1167 = !{i64 1155}
!1168 = !{i64 1156}
!1169 = !{i64 1157}
!1170 = !{i64 1158}
!1171 = !{i64 1159}
!1172 = !{i64 1160}
!1173 = !{i64 1161}
!1174 = !{i64 1162}
!1175 = !{i64 1163}
!1176 = !{i64 1164}
!1177 = !{i64 1165}
!1178 = !{i64 1166}
!1179 = !{i64 1167}
!1180 = !{i64 1168}
!1181 = !{i64 1169}
!1182 = !{i64 1170}
!1183 = !{i64 1171}
!1184 = !{i64 1172}
!1185 = !{i64 1173}
!1186 = !{i64 1174}
!1187 = !{i64 1175}
!1188 = !{i64 1176}
!1189 = !{i64 1177}
!1190 = !{i64 1178}
!1191 = !{i64 1179}
!1192 = !{i64 1180}
!1193 = !{i64 1181}
!1194 = !{i64 1182}
!1195 = !{i64 1183}
!1196 = !{i64 1184}
!1197 = !{i64 1185}
!1198 = !{i64 1186}
!1199 = !{i64 1187}
!1200 = !{i64 1188}
!1201 = !{i64 1189}
!1202 = !{i64 1190}
!1203 = !{i64 1191}
!1204 = !{i64 1192}
!1205 = !{i64 1193}
!1206 = !{i64 1194}
!1207 = !{i64 1195}
!1208 = !{i64 1196}
!1209 = !{i64 1197}
!1210 = !{i64 1198}
!1211 = !{i64 1199}
!1212 = !{i64 1200}
!1213 = !{i64 1201}
!1214 = !{i64 1202}
!1215 = !{i64 1203}
!1216 = !{i64 1204}
!1217 = !{i64 1205}
!1218 = !{i64 1206}
!1219 = !{i64 1207}
!1220 = !{i64 1208}
!1221 = !{i64 1209}
!1222 = !{i64 1210}
!1223 = !{i64 1211}
!1224 = !{i64 1212}
!1225 = !{i64 1213}
!1226 = !{i64 1214}
!1227 = !{i64 1215}
!1228 = !{i64 1216}
!1229 = !{i64 1217}
!1230 = !{i64 1218}
!1231 = !{i64 1219}
!1232 = !{i64 1220}
!1233 = !{i64 1221}
!1234 = !{i64 1222}
!1235 = !{i64 1223}
!1236 = !{i64 1224}
!1237 = !{i64 1225}
!1238 = !{i64 1226}
!1239 = !{i64 1227}
!1240 = !{i64 1228}
!1241 = !{i64 1229}
!1242 = !{i64 1230}
!1243 = !{i64 1231}
!1244 = !{i64 1232}
!1245 = !{i64 1233}
!1246 = !{i64 1234}
!1247 = !{i64 1235}
!1248 = !{i64 1236}
!1249 = !{i64 1237}
!1250 = !{i64 1238}
!1251 = !{i64 1239}
!1252 = !{i64 1240}
!1253 = !{i64 1241}
!1254 = !{i64 1242}
!1255 = !{i64 1243}
!1256 = !{i64 1244}
!1257 = !{i64 1245}
!1258 = !{i64 1246}
!1259 = !{i64 1247}
!1260 = !{i64 1248}
!1261 = !{i64 1249}
!1262 = !{i64 1250}
!1263 = !{i64 1251}
!1264 = !{i64 1252}
!1265 = !{i64 1253}
!1266 = !{i64 1254}
!1267 = !{i64 1255}
!1268 = !{i64 1256}
!1269 = !{i64 1257}
!1270 = !{i64 1258}
!1271 = !{i64 1259}
!1272 = !{i64 1260}
!1273 = !{i64 1261}
!1274 = !{i64 1262}
!1275 = !{i64 1263}
!1276 = !{i64 1264}
!1277 = !{i64 1265}
!1278 = !{i64 1266}
!1279 = !{i64 1267}
!1280 = !{i64 1268}
!1281 = !{i64 1269}
!1282 = !{i64 1270}
!1283 = !{i64 1271}
!1284 = !{i64 1272}
!1285 = !{i64 1273}
!1286 = !{i64 1274}
!1287 = !{i64 1275}
!1288 = !{i64 1276}
!1289 = !{i64 1277}
!1290 = !{i64 1278}
!1291 = !{i64 1279}
!1292 = !{i64 1280}
!1293 = !{i64 1281}
!1294 = !{i64 1282}
!1295 = !{i64 1283}
!1296 = !{i64 1284}
!1297 = !{i64 1285}
!1298 = !{i64 1286}
!1299 = !{i64 1287}
!1300 = !{i64 1288}
!1301 = !{i64 1289}
!1302 = !{i64 1290}
!1303 = !{i64 1291}
!1304 = !{i64 1292}
!1305 = !{i64 1293}
!1306 = !{i64 1294}
!1307 = !{i64 1295}
!1308 = !{i64 1296}
!1309 = !{i64 1297}
!1310 = !{i64 1298}
!1311 = !{i64 1299}
!1312 = !{i64 1300}
!1313 = !{i64 1301}
!1314 = !{i64 1302}
!1315 = !{i64 1303}
!1316 = !{i64 1304}
!1317 = !{i64 1305}
!1318 = !{i64 1306}
!1319 = !{i64 1307}
!1320 = !{i64 1308}
!1321 = !{i64 1309}
!1322 = !{i64 1310}
!1323 = !{i64 1311}
!1324 = !{i64 1312}
!1325 = !{i64 1313}
!1326 = !{i64 1314}
!1327 = !{i64 1315}
!1328 = !{i64 1316}
!1329 = !{i64 1317}
!1330 = !{i64 1318}
!1331 = !{i64 1319}
!1332 = !{i64 1320}
!1333 = !{i64 1321}
!1334 = !{i64 1322}
!1335 = !{i64 1323}
!1336 = !{i64 1324}
!1337 = !{i64 1325}
!1338 = !{i64 1326}
!1339 = !{i64 1327}
!1340 = !{i64 1328}
!1341 = !{i64 1329}
!1342 = !{i64 1330}
!1343 = !{i64 1331}
!1344 = !{i64 1332}
!1345 = !{i64 1333}
!1346 = !{i64 1334}
!1347 = !{i64 1335}
!1348 = !{i64 1336}
!1349 = !{i64 1337}
!1350 = !{i64 1338}
!1351 = !{i64 1339}
!1352 = !{i64 1340}
!1353 = !{i64 1341}
!1354 = !{i64 1342}
!1355 = !{i64 1343}
!1356 = !{i64 1344}
!1357 = !{i64 1345}
!1358 = !{i64 1346}
!1359 = !{i64 1347}
!1360 = !{i64 1348}
!1361 = !{i64 1349}
!1362 = !{i64 1350}
!1363 = !{i64 1351}
!1364 = !{i64 1352}
!1365 = !{i64 1353}
!1366 = !{i64 1354}
!1367 = !{i64 1355}
!1368 = !{i64 1356}
!1369 = !{i64 1357}
!1370 = !{i64 1358}
!1371 = !{i64 1359}
!1372 = !{i64 1360}
!1373 = !{i64 1361}
!1374 = !{i64 1362}
!1375 = !{i64 1363}
!1376 = !{i64 1364}
!1377 = !{i64 1365}
!1378 = !{i64 1366}
!1379 = !{i64 1367}
!1380 = !{i64 1368}
!1381 = !{i64 1369}
!1382 = !{i64 1370}
!1383 = !{i64 1371}
!1384 = !{i64 1372}
!1385 = !{i64 1373}
!1386 = !{i64 1374}
!1387 = !{i64 1375}
!1388 = !{i64 1376}
!1389 = !{i64 1377}
!1390 = !{i64 1378}
!1391 = !{i64 1379}
!1392 = !{i64 1380}
!1393 = !{i64 1381}
!1394 = !{i64 1382}
!1395 = !{i64 1383}
!1396 = !{i64 1384}
!1397 = !{i64 1385}
!1398 = !{i64 1386}
!1399 = !{i64 1387}
!1400 = !{i64 1388}
!1401 = !{i64 1389}
!1402 = !{i64 1390}
!1403 = !{i64 1391}
!1404 = !{i64 1392}
!1405 = !{i64 1393}
!1406 = !{i64 1394}
!1407 = !{i64 1395}
!1408 = !{i64 1396}
!1409 = !{i64 1397}
!1410 = !{i64 1398}
!1411 = !{i64 1399}
!1412 = !{i64 1400}
!1413 = !{i64 1401}
!1414 = !{i64 1402}
!1415 = !{i64 1403}
!1416 = !{i64 1404}
!1417 = !{i64 1405}
!1418 = !{i64 1406}
!1419 = !{i64 1407}
!1420 = !{i64 1408}
!1421 = !{i64 1409}
!1422 = !{i64 1410}
!1423 = !{i64 1411}
!1424 = !{i64 1412}
!1425 = !{i64 1413}
!1426 = !{i64 1414}
!1427 = !{i64 1415}
!1428 = !{i64 1416}
!1429 = !{i64 1417}
!1430 = !{i64 1418}
!1431 = !{i64 1419}
!1432 = !{i64 1420}
!1433 = !{i64 1421}
!1434 = !{i64 1422}
!1435 = !{i64 1423}
!1436 = !{i64 1424}
!1437 = !{i64 1425}
!1438 = !{i64 1426}
!1439 = !{i64 1427}
!1440 = !{i64 1428}
!1441 = !{i64 1429}
!1442 = !{i64 1430}
!1443 = !{i64 1431}
!1444 = !{i64 1432}
!1445 = !{i64 1433}
!1446 = !{i64 1434}
!1447 = !{i64 1435}
!1448 = !{i64 1436}
!1449 = !{i64 1437}
!1450 = !{i64 1438}
!1451 = !{i64 1439}
!1452 = !{i64 1440}
!1453 = !{i64 1441}
!1454 = !{i64 1442}
!1455 = !{i64 1443}
!1456 = !{i64 1444}
!1457 = !{i64 1445}
!1458 = !{i64 1446}
!1459 = !{i64 1447}
!1460 = !{i64 1448}
!1461 = !{i64 1449}
!1462 = !{i64 1450}
!1463 = !{i64 1451}
!1464 = !{i64 1452}
!1465 = !{i64 1453}
!1466 = !{i64 1454}
!1467 = !{i64 1455}
!1468 = !{i64 1456}
!1469 = !{i64 1457}
!1470 = !{i64 1458}
!1471 = !{i64 1459}
!1472 = !{i64 1460}
!1473 = !{i64 1461}
!1474 = !{i64 1462}
!1475 = !{i64 1463}
!1476 = !{i64 1464}
!1477 = !{i64 1465}
!1478 = !{i64 1466}
!1479 = !{i64 1467}
!1480 = !{i64 1468}
!1481 = !{i64 1469}
!1482 = !{i64 1470}
!1483 = !{i64 1471}
!1484 = !{i64 1472}
!1485 = !{i64 1473}
!1486 = !{i64 1474}
!1487 = !{i64 1475}
!1488 = !{i64 1476}
!1489 = !{i64 1477}
!1490 = !{i64 1478}
!1491 = !{i64 1479}
!1492 = !{i64 1480}
!1493 = !{i64 1481}
!1494 = !{i64 1482}
!1495 = !{i64 1483}
!1496 = !{i64 1484}
!1497 = !{i64 1485}
!1498 = !{i64 1486}
!1499 = !{i64 1487}
!1500 = !{i64 1488}
!1501 = !{i64 1489}
!1502 = !{i64 1490}
!1503 = !{i64 1491}
!1504 = !{i64 1492}
!1505 = !{i64 1493}
!1506 = !{i64 1494}
!1507 = !{i64 1495}
!1508 = !{i64 1496}
!1509 = !{i64 1497}
!1510 = !{i64 1498}
!1511 = !{i64 1499}
!1512 = !{i64 1500}
!1513 = !{i64 1501}
!1514 = !{i64 1502}
!1515 = !{i64 1503}
!1516 = !{i64 1504}
!1517 = !{i64 1505}
!1518 = !{i64 1506}
!1519 = !{i64 1507}
!1520 = !{i64 1508}
!1521 = !{i64 1509}
!1522 = !{i64 1510}
!1523 = !{i64 1511}
!1524 = !{i64 1512}
!1525 = !{i64 1513}
!1526 = !{i64 1514}
!1527 = !{i64 1515}
!1528 = !{i64 1516}
!1529 = !{i64 1517}
!1530 = !{i64 1518}
!1531 = !{i64 1519}
!1532 = !{i64 1520}
!1533 = !{i64 1521}
!1534 = !{i64 1522}
!1535 = !{i64 1523}
!1536 = !{i64 1524}
!1537 = !{i64 1525}
!1538 = !{i64 1526}
!1539 = distinct !{!1539, !36}
!1540 = !{i64 1527}
!1541 = !{i64 1528}
!1542 = !{i64 1529}
!1543 = !{i64 1530}
!1544 = !{i64 1531}
!1545 = !{i64 1532}
!1546 = !{i64 1533}
!1547 = !{i64 1534}
!1548 = !{i64 1535}
!1549 = !{i64 1536}
!1550 = !{i64 1537}
!1551 = !{i64 1538}
!1552 = !{i64 1539}
!1553 = !{i64 1540}
!1554 = !{i64 1541}
!1555 = !{i64 1542}
!1556 = !{i64 1543}
!1557 = !{i64 1544}
!1558 = !{i64 1545}
!1559 = !{i64 1546}
!1560 = !{i64 1547}
!1561 = !{i64 1548}
!1562 = !{i64 1549}
!1563 = !{i64 1550}
!1564 = !{i64 1551}
!1565 = !{i64 1552}
!1566 = !{i64 1553}
!1567 = !{i64 1554}
!1568 = !{i64 1555}
!1569 = !{i64 1556}
!1570 = !{i64 1557}
!1571 = !{i64 1558}
!1572 = !{i64 1559}
!1573 = !{i64 1560}
!1574 = !{i64 1561}
!1575 = !{i64 1562}
!1576 = !{i64 1563}
!1577 = !{i64 1564}
!1578 = !{i64 1565}
!1579 = !{i64 1566}
!1580 = !{i64 1567}
!1581 = !{i64 1568}
!1582 = !{i64 1569}
!1583 = !{i64 1570}
!1584 = !{i64 1571}
!1585 = !{i64 1572}
!1586 = !{i64 1573}
!1587 = !{i64 1574}
!1588 = !{i64 1575}
!1589 = !{i64 1576}
!1590 = !{i64 1577}
!1591 = !{i64 1578}
!1592 = !{i64 1579}
!1593 = !{i64 1580}
!1594 = !{i64 1581}
!1595 = !{i64 1582}
!1596 = !{i64 1583}
!1597 = !{i64 1584}
!1598 = !{i64 1585}
!1599 = !{i64 1586}
!1600 = !{i64 1587}
!1601 = !{i64 1588}
!1602 = !{i64 1589}
!1603 = !{i64 1590}
!1604 = !{i64 1591}
!1605 = !{i64 1592}
!1606 = !{i64 1593}
!1607 = !{i64 1594}
!1608 = !{i64 1595}
!1609 = !{i64 1596}
