; ModuleID = '/home/hjiang/Computation-Kernel-Dataset/experiments/Fault_injection_0308_parall/O0/CarShow/CarShow.ll'
source_filename = "llvm-link"
target datalayout = "e-m:e-p270:32:32-p271:32:32-p272:64:64-i64:64-f80:128-n8:16:32:64-S128"
target triple = "x86_64-unknown-linux-gnu"

%"class.std::allocator" = type { i8 }
%"class.std::vector" = type { %"struct.std::_Vector_base" }
%"struct.std::_Vector_base" = type { %"struct.std::_Vector_base<std::pair<int, int>, std::allocator<std::pair<int, int>>>::_Vector_impl" }
%"struct.std::_Vector_base<std::pair<int, int>, std::allocator<std::pair<int, int>>>::_Vector_impl" = type { %"struct.std::_Vector_base<std::pair<int, int>, std::allocator<std::pair<int, int>>>::_Vector_impl_data" }
%"struct.std::_Vector_base<std::pair<int, int>, std::allocator<std::pair<int, int>>>::_Vector_impl_data" = type { %"struct.std::pair"*, %"struct.std::pair"*, %"struct.std::pair"* }
%"struct.std::pair" = type { i32, i32 }
%struct._IO_FILE = type { i32, i8*, i8*, i8*, i8*, i8*, i8*, i8*, i8*, i8*, i8*, i8*, %struct._IO_marker*, %struct._IO_FILE*, i32, i32, i64, i16, i8, [1 x i8], i8*, i64, %struct._IO_codecvt*, %struct._IO_wide_data*, %struct._IO_FILE*, i8*, i64, i32, [20 x i8] }
%struct._IO_marker = type opaque
%struct._IO_codecvt = type opaque
%struct._IO_wide_data = type opaque
%"class.__gnu_cxx::__normal_iterator" = type { %"struct.std::pair"* }

$_ZNSt6vectorISt4pairIiiESaIS1_EEC2Ev = comdat any

$_ZNSt6vectorISt4pairIiiESaIS1_EED2Ev = comdat any

$_ZNSt12_Vector_baseISt4pairIiiESaIS1_EE19_M_get_Tp_allocatorEv = comdat any

$_ZSt8_DestroyIPSt4pairIiiES1_EvT_S3_RSaIT0_E = comdat any

$_ZNSt12_Vector_baseISt4pairIiiESaIS1_EED2Ev = comdat any

$__clang_call_terminate = comdat any

$_ZNSt12_Vector_baseISt4pairIiiESaIS1_EE13_M_deallocateEPS1_m = comdat any

$_ZNSt12_Vector_baseISt4pairIiiESaIS1_EE12_Vector_implD2Ev = comdat any

$_ZNSaISt4pairIiiEED2Ev = comdat any

$_ZN9__gnu_cxx13new_allocatorISt4pairIiiEED2Ev = comdat any

$_ZNSt16allocator_traitsISaISt4pairIiiEEE10deallocateERS2_PS1_m = comdat any

$_ZN9__gnu_cxx13new_allocatorISt4pairIiiEE10deallocateEPS2_m = comdat any

$_ZSt8_DestroyIPSt4pairIiiEEvT_S3_ = comdat any

$_ZNSt12_Destroy_auxILb1EE9__destroyIPSt4pairIiiEEEvT_S5_ = comdat any

$_ZNSt12_Vector_baseISt4pairIiiESaIS1_EEC2Ev = comdat any

$_ZNSt12_Vector_baseISt4pairIiiESaIS1_EE12_Vector_implC2Ev = comdat any

$_ZNSaISt4pairIiiEEC2Ev = comdat any

$_ZNSt12_Vector_baseISt4pairIiiESaIS1_EE17_Vector_impl_dataC2Ev = comdat any

$_ZN9__gnu_cxx13new_allocatorISt4pairIiiEEC2Ev = comdat any

$_ZSt3minIiERKT_S2_S2_ = comdat any

$_ZSt3maxIiERKT_S2_S2_ = comdat any

$_ZNSt4pairIiiEC2IRiS2_Lb1EEEOT_OT0_ = comdat any

$_ZNSt6vectorISt4pairIiiESaIS1_EE9push_backEOS1_ = comdat any

$_ZNSt6vectorISt4pairIiiESaIS1_EE5beginEv = comdat any

$_ZNSt6vectorISt4pairIiiESaIS1_EE3endEv = comdat any

$_ZSt4sortIN9__gnu_cxx17__normal_iteratorIPSt4pairIiiESt6vectorIS3_SaIS3_EEEEEvT_S9_ = comdat any

$_ZNKSt6vectorISt4pairIiiESaIS1_EE4sizeEv = comdat any

$_ZNSt6vectorISt4pairIiiESaIS1_EEixEm = comdat any

$_ZN9__gnu_cxx5__ops16__iter_less_iterEv = comdat any

$_ZSt6__sortIN9__gnu_cxx17__normal_iteratorIPSt4pairIiiESt6vectorIS3_SaIS3_EEEENS0_5__ops15_Iter_less_iterEEvT_SB_T0_ = comdat any

$_ZN9__gnu_cxxneIPSt4pairIiiESt6vectorIS2_SaIS2_EEEEbRKNS_17__normal_iteratorIT_T0_EESC_ = comdat any

$_ZN9__gnu_cxxmiIPSt4pairIiiESt6vectorIS2_SaIS2_EEEENS_17__normal_iteratorIT_T0_E15difference_typeERKSA_SD_ = comdat any

$_ZSt4__lgl = comdat any

$_ZSt16__introsort_loopIN9__gnu_cxx17__normal_iteratorIPSt4pairIiiESt6vectorIS3_SaIS3_EEEElNS0_5__ops15_Iter_less_iterEEvT_SB_T0_T1_ = comdat any

$_ZSt22__final_insertion_sortIN9__gnu_cxx17__normal_iteratorIPSt4pairIiiESt6vectorIS3_SaIS3_EEEENS0_5__ops15_Iter_less_iterEEvT_SB_T0_ = comdat any

$_ZNK9__gnu_cxx17__normal_iteratorIPSt4pairIiiESt6vectorIS2_SaIS2_EEEplEl = comdat any

$_ZSt16__insertion_sortIN9__gnu_cxx17__normal_iteratorIPSt4pairIiiESt6vectorIS3_SaIS3_EEEENS0_5__ops15_Iter_less_iterEEvT_SB_T0_ = comdat any

$_ZSt26__unguarded_insertion_sortIN9__gnu_cxx17__normal_iteratorIPSt4pairIiiESt6vectorIS3_SaIS3_EEEENS0_5__ops15_Iter_less_iterEEvT_SB_T0_ = comdat any

$_ZN9__gnu_cxx5__ops15__val_comp_iterENS0_15_Iter_less_iterE = comdat any

$_ZSt25__unguarded_linear_insertIN9__gnu_cxx17__normal_iteratorIPSt4pairIiiESt6vectorIS3_SaIS3_EEEENS0_5__ops14_Val_less_iterEEvT_T0_ = comdat any

$_ZN9__gnu_cxx17__normal_iteratorIPSt4pairIiiESt6vectorIS2_SaIS2_EEEppEv = comdat any

$_ZNK9__gnu_cxx17__normal_iteratorIPSt4pairIiiESt6vectorIS2_SaIS2_EEEdeEv = comdat any

$_ZSt4moveIRSt4pairIiiEEONSt16remove_referenceIT_E4typeEOS4_ = comdat any

$_ZN9__gnu_cxx17__normal_iteratorIPSt4pairIiiESt6vectorIS2_SaIS2_EEEmmEv = comdat any

$_ZNK9__gnu_cxx5__ops14_Val_less_iterclISt4pairIiiENS_17__normal_iteratorIPS4_St6vectorIS4_SaIS4_EEEEEEbRT_T0_ = comdat any

$_ZNSt4pairIiiEaSEOS0_ = comdat any

$_ZSt7forwardIiEOT_RNSt16remove_referenceIS0_E4typeE = comdat any

$_ZStltIiiEbRKSt4pairIT_T0_ES5_ = comdat any

$_ZN9__gnu_cxxeqIPSt4pairIiiESt6vectorIS2_SaIS2_EEEEbRKNS_17__normal_iteratorIT_T0_EESC_ = comdat any

$_ZNK9__gnu_cxx5__ops15_Iter_less_iterclINS_17__normal_iteratorIPSt4pairIiiESt6vectorIS5_SaIS5_EEEESA_EEbT_T0_ = comdat any

$_ZSt13move_backwardIN9__gnu_cxx17__normal_iteratorIPSt4pairIiiESt6vectorIS3_SaIS3_EEEES8_ET0_T_SA_S9_ = comdat any

$_ZSt12__miter_baseIN9__gnu_cxx17__normal_iteratorIPSt4pairIiiESt6vectorIS3_SaIS3_EEEEET_S9_ = comdat any

$_ZSt23__copy_move_backward_a2ILb1EN9__gnu_cxx17__normal_iteratorIPSt4pairIiiESt6vectorIS3_SaIS3_EEEES8_ET1_T0_SA_S9_ = comdat any

$_ZSt12__niter_baseIPSt4pairIiiESt6vectorIS1_SaIS1_EEET_N9__gnu_cxx17__normal_iteratorIS6_T0_EE = comdat any

$_ZSt22__copy_move_backward_aILb1EPSt4pairIiiES2_ET1_T0_S4_S3_ = comdat any

$_ZSt12__niter_wrapIN9__gnu_cxx17__normal_iteratorIPSt4pairIiiESt6vectorIS3_SaIS3_EEEES4_ET_S9_T0_ = comdat any

$_ZNSt20__copy_move_backwardILb1ELb0ESt26random_access_iterator_tagE13__copy_move_bIPSt4pairIiiES5_EET0_T_S7_S6_ = comdat any

$_ZNK9__gnu_cxx17__normal_iteratorIPSt4pairIiiESt6vectorIS2_SaIS2_EEE4baseEv = comdat any

$_ZN9__gnu_cxx17__normal_iteratorIPSt4pairIiiESt6vectorIS2_SaIS2_EEEC2ERKS3_ = comdat any

$_ZSt14__partial_sortIN9__gnu_cxx17__normal_iteratorIPSt4pairIiiESt6vectorIS3_SaIS3_EEEENS0_5__ops15_Iter_less_iterEEvT_SB_SB_T0_ = comdat any

$_ZSt27__unguarded_partition_pivotIN9__gnu_cxx17__normal_iteratorIPSt4pairIiiESt6vectorIS3_SaIS3_EEEENS0_5__ops15_Iter_less_iterEET_SB_SB_T0_ = comdat any

$_ZNK9__gnu_cxx17__normal_iteratorIPSt4pairIiiESt6vectorIS2_SaIS2_EEEmiEl = comdat any

$_ZSt22__move_median_to_firstIN9__gnu_cxx17__normal_iteratorIPSt4pairIiiESt6vectorIS3_SaIS3_EEEENS0_5__ops15_Iter_less_iterEEvT_SB_SB_SB_T0_ = comdat any

$_ZSt21__unguarded_partitionIN9__gnu_cxx17__normal_iteratorIPSt4pairIiiESt6vectorIS3_SaIS3_EEEENS0_5__ops15_Iter_less_iterEET_SB_SB_SB_T0_ = comdat any

$_ZN9__gnu_cxxltIPSt4pairIiiESt6vectorIS2_SaIS2_EEEEbRKNS_17__normal_iteratorIT_T0_EESC_ = comdat any

$_ZSt9iter_swapIN9__gnu_cxx17__normal_iteratorIPSt4pairIiiESt6vectorIS3_SaIS3_EEEES8_EvT_T0_ = comdat any

$_ZSt4swapIiiENSt9enable_ifIXsr6__and_ISt14__is_swappableIT_ES1_IT0_EEE5valueEvE4typeERSt4pairIS2_S4_ESA_ = comdat any

$_ZNSt4pairIiiE4swapERS0_ = comdat any

$_ZSt4swapIiENSt9enable_ifIXsr6__and_ISt6__not_ISt15__is_tuple_likeIT_EESt21is_move_constructibleIS3_ESt18is_move_assignableIS3_EEE5valueEvE4typeERS3_SC_ = comdat any

$_ZSt4moveIRiEONSt16remove_referenceIT_E4typeEOS2_ = comdat any

$_ZSt13__heap_selectIN9__gnu_cxx17__normal_iteratorIPSt4pairIiiESt6vectorIS3_SaIS3_EEEENS0_5__ops15_Iter_less_iterEEvT_SB_SB_T0_ = comdat any

$_ZSt11__sort_heapIN9__gnu_cxx17__normal_iteratorIPSt4pairIiiESt6vectorIS3_SaIS3_EEEENS0_5__ops15_Iter_less_iterEEvT_SB_RT0_ = comdat any

$_ZSt10__pop_heapIN9__gnu_cxx17__normal_iteratorIPSt4pairIiiESt6vectorIS3_SaIS3_EEEENS0_5__ops15_Iter_less_iterEEvT_SB_SB_RT0_ = comdat any

$_ZSt13__adjust_heapIN9__gnu_cxx17__normal_iteratorIPSt4pairIiiESt6vectorIS3_SaIS3_EEEElS3_NS0_5__ops15_Iter_less_iterEEvT_T0_SC_T1_T2_ = comdat any

$_ZSt4moveIRN9__gnu_cxx5__ops15_Iter_less_iterEEONSt16remove_referenceIT_E4typeEOS5_ = comdat any

$_ZN9__gnu_cxx5__ops14_Iter_less_valC2ENS0_15_Iter_less_iterE = comdat any

$_ZSt11__push_heapIN9__gnu_cxx17__normal_iteratorIPSt4pairIiiESt6vectorIS3_SaIS3_EEEElS3_NS0_5__ops14_Iter_less_valEEvT_T0_SC_T1_RT2_ = comdat any

$_ZNK9__gnu_cxx5__ops14_Iter_less_valclINS_17__normal_iteratorIPSt4pairIiiESt6vectorIS5_SaIS5_EEEES5_EEbT_RT0_ = comdat any

$_ZSt11__make_heapIN9__gnu_cxx17__normal_iteratorIPSt4pairIiiESt6vectorIS3_SaIS3_EEEENS0_5__ops15_Iter_less_iterEEvT_SB_RT0_ = comdat any

$_ZNSt6vectorISt4pairIiiESaIS1_EE12emplace_backIJS1_EEEvDpOT_ = comdat any

$_ZSt7forwardISt4pairIiiEEOT_RNSt16remove_referenceIS2_E4typeE = comdat any

$_ZNSt16allocator_traitsISaISt4pairIiiEEE9constructIS1_JS1_EEEvRS2_PT_DpOT0_ = comdat any

$_ZNSt6vectorISt4pairIiiESaIS1_EE17_M_realloc_insertIJS1_EEEvN9__gnu_cxx17__normal_iteratorIPS1_S3_EEDpOT_ = comdat any

$_ZNKSt6vectorISt4pairIiiESaIS1_EE12_M_check_lenEmPKc = comdat any

$_ZNSt12_Vector_baseISt4pairIiiESaIS1_EE11_M_allocateEm = comdat any

$_ZNSt6vectorISt4pairIiiESaIS1_EE11_S_relocateEPS1_S4_S4_RS2_ = comdat any

$_ZNSt6vectorISt4pairIiiESaIS1_EE14_S_do_relocateEPS1_S4_S4_RS2_St17integral_constantIbLb1EE = comdat any

$_ZSt12__relocate_aIPSt4pairIiiES2_SaIS1_EET0_T_S5_S4_RT1_ = comdat any

$_ZSt12__niter_baseIPSt4pairIiiEET_S3_ = comdat any

$_ZSt14__relocate_a_1IPSt4pairIiiES2_SaIS1_EET0_T_S5_S4_RT1_ = comdat any

$_ZSt11__addressofISt4pairIiiEEPT_RS2_ = comdat any

$_ZSt19__relocate_object_aISt4pairIiiES1_SaIS1_EEvPT_PT0_RT1_ = comdat any

$_ZNSt16allocator_traitsISaISt4pairIiiEEE7destroyIS1_EEvRS2_PT_ = comdat any

$_ZN9__gnu_cxx13new_allocatorISt4pairIiiEE7destroyIS2_EEvPT_ = comdat any

$_ZNSt16allocator_traitsISaISt4pairIiiEEE8allocateERS2_m = comdat any

$_ZN9__gnu_cxx13new_allocatorISt4pairIiiEE8allocateEmPKv = comdat any

$_ZNK9__gnu_cxx13new_allocatorISt4pairIiiEE8max_sizeEv = comdat any

$_ZNKSt6vectorISt4pairIiiESaIS1_EE8max_sizeEv = comdat any

$_ZSt3maxImERKT_S2_S2_ = comdat any

$_ZNKSt12_Vector_baseISt4pairIiiESaIS1_EE19_M_get_Tp_allocatorEv = comdat any

$_ZNSt6vectorISt4pairIiiESaIS1_EE11_S_max_sizeERKS2_ = comdat any

$_ZNSt16allocator_traitsISaISt4pairIiiEEE8max_sizeERKS2_ = comdat any

$_ZSt3minImERKT_S2_S2_ = comdat any

$_ZN9__gnu_cxx13new_allocatorISt4pairIiiEE9constructIS2_JS2_EEEvPT_DpOT0_ = comdat any

$_ZSt7forwardIRiEOT_RNSt16remove_referenceIS1_E4typeE = comdat any

@llvm.global_ctors = appending global [1 x { i32, void ()*, i8* }] [{ i32, void ()*, i8* } { i32 65535, void ()* @_GLOBAL__sub_I_CarShow.cpp, i8* null }]
@_ZStL8__ioinit = internal global %"class.std::allocator" zeroinitializer, align 1
@n = dso_local global i32 0, align 4
@q = dso_local global i32 0, align 4
@A = dso_local global [100005 x i32] zeroinitializer, align 16
@lst = dso_local global [1000005 x i32] zeroinitializer, align 16
@L = dso_local global [100005 x i32] zeroinitializer, align 16
@R = dso_local global [100005 x i32] zeroinitializer, align 16
@ql = dso_local global [100005 x i32] zeroinitializer, align 16
@qr = dso_local global [100005 x i32] zeroinitializer, align 16
@quer = dso_local global [320 x %"class.std::vector"] zeroinitializer, align 16
@lef = dso_local global i32 100005, align 4
@rig = dso_local global i32 0, align 4
@cur = dso_local global i64 0, align 8
@res = dso_local global [100005 x i64] zeroinitializer, align 16
@.str = private unnamed_addr constant [23 x i8] c"../input_files/CarShow\00", align 1
@.str.2 = private unnamed_addr constant [2 x i8] c"r\00", align 1
@stdin = external dso_local global %struct._IO_FILE*, align 8
@.str.3 = private unnamed_addr constant [6 x i8] c"%d %d\00", align 1
@.str.4 = private unnamed_addr constant [3 x i8] c"%d\00", align 1
@.str.5 = private unnamed_addr constant [6 x i8] c"%lld\0A\00", align 1
@.str.6 = private unnamed_addr constant [26 x i8] c"vector::_M_realloc_insert\00", align 1

; Function Attrs: noinline uwtable
define internal void @_GLOBAL__sub_I_CarShow.cpp() #0 section ".text.startup" {
  call void @__cxx_global_var_init(), !llfi_index !4
  call void @__cxx_global_var_init.1(), !llfi_index !5
  ret void, !llfi_index !6
}

; Function Attrs: noinline uwtable
define internal void @__cxx_global_var_init() #0 section ".text.startup" {
  call void @_ZNSt8ios_base4InitC1Ev(%"class.std::allocator"* nonnull align 1 dereferenceable(1) @_ZStL8__ioinit), !llfi_index !7
  %1 = call i32 @atexit(void ()* @__dtor__ZStL8__ioinit) #2, !llfi_index !8
  ret void, !llfi_index !9
}

; Function Attrs: noinline uwtable
define internal void @__cxx_global_var_init.1() #0 section ".text.startup" {
  br label %1, !llfi_index !10

1:                                                ; preds = %1, %0
  %2 = phi %"class.std::vector"* [ getelementptr inbounds ([320 x %"class.std::vector"], [320 x %"class.std::vector"]* @quer, i32 0, i32 0), %0 ], [ %3, %1 ], !llfi_index !11
  call void @_ZNSt6vectorISt4pairIiiESaIS1_EEC2Ev(%"class.std::vector"* nonnull align 8 dereferenceable(24) %2) #2, !llfi_index !12
  %3 = getelementptr inbounds %"class.std::vector", %"class.std::vector"* %2, i64 1, !llfi_index !13
  %4 = icmp eq %"class.std::vector"* %3, getelementptr inbounds (%"class.std::vector", %"class.std::vector"* getelementptr inbounds ([320 x %"class.std::vector"], [320 x %"class.std::vector"]* @quer, i32 0, i32 0), i64 320), !llfi_index !14
  br i1 %4, label %5, label %1, !llfi_index !15

5:                                                ; preds = %1
  %6 = call i32 @atexit(void ()* @__dtor_quer) #2, !llfi_index !16
  ret void, !llfi_index !17
}

; Function Attrs: noinline nounwind uwtable
define linkonce_odr dso_local void @_ZNSt6vectorISt4pairIiiESaIS1_EEC2Ev(%"class.std::vector"* nonnull align 8 dereferenceable(24) %0) unnamed_addr #1 comdat align 2 {
  %2 = alloca %"class.std::vector"*, align 8, !llfi_index !18
  store %"class.std::vector"* %0, %"class.std::vector"** %2, align 8, !llfi_index !19
  %3 = load %"class.std::vector"*, %"class.std::vector"** %2, align 8, !llfi_index !20
  %4 = bitcast %"class.std::vector"* %3 to %"struct.std::_Vector_base"*, !llfi_index !21
  call void @_ZNSt12_Vector_baseISt4pairIiiESaIS1_EEC2Ev(%"struct.std::_Vector_base"* nonnull align 8 dereferenceable(24) %4) #2, !llfi_index !22
  ret void, !llfi_index !23
}

; Function Attrs: noinline uwtable
define internal void @__dtor_quer() #0 section ".text.startup" {
  call void @__cxx_global_array_dtor(i8* null), !llfi_index !24
  ret void, !llfi_index !25
}

; Function Attrs: nounwind
declare dso_local i32 @atexit(void ()*) #2

; Function Attrs: noinline uwtable
define internal void @__cxx_global_array_dtor(i8* %0) #0 section ".text.startup" {
  %2 = alloca i8*, align 8, !llfi_index !26
  store i8* %0, i8** %2, align 8, !llfi_index !27
  br label %3, !llfi_index !28

3:                                                ; preds = %3, %1
  %4 = phi %"class.std::vector"* [ getelementptr inbounds (%"class.std::vector", %"class.std::vector"* getelementptr inbounds ([320 x %"class.std::vector"], [320 x %"class.std::vector"]* @quer, i32 0, i32 0), i64 320), %1 ], [ %5, %3 ], !llfi_index !29
  %5 = getelementptr inbounds %"class.std::vector", %"class.std::vector"* %4, i64 -1, !llfi_index !30
  call void @_ZNSt6vectorISt4pairIiiESaIS1_EED2Ev(%"class.std::vector"* nonnull align 8 dereferenceable(24) %5) #2, !llfi_index !31
  %6 = icmp eq %"class.std::vector"* %5, getelementptr inbounds ([320 x %"class.std::vector"], [320 x %"class.std::vector"]* @quer, i32 0, i32 0), !llfi_index !32
  br i1 %6, label %7, label %3, !llfi_index !33

7:                                                ; preds = %3
  ret void, !llfi_index !34
}

; Function Attrs: noinline nounwind uwtable
define linkonce_odr dso_local void @_ZNSt6vectorISt4pairIiiESaIS1_EED2Ev(%"class.std::vector"* nonnull align 8 dereferenceable(24) %0) unnamed_addr #1 comdat align 2 personality i8* bitcast (i32 (...)* @__gxx_personality_v0 to i8*) {
  %2 = alloca %"class.std::vector"*, align 8, !llfi_index !35
  %3 = alloca i8*, align 8, !llfi_index !36
  %4 = alloca i32, align 4, !llfi_index !37
  store %"class.std::vector"* %0, %"class.std::vector"** %2, align 8, !llfi_index !38
  %5 = load %"class.std::vector"*, %"class.std::vector"** %2, align 8, !llfi_index !39
  %6 = bitcast %"class.std::vector"* %5 to %"struct.std::_Vector_base"*, !llfi_index !40
  %7 = getelementptr inbounds %"struct.std::_Vector_base", %"struct.std::_Vector_base"* %6, i32 0, i32 0, !llfi_index !41
  %8 = bitcast %"struct.std::_Vector_base<std::pair<int, int>, std::allocator<std::pair<int, int>>>::_Vector_impl"* %7 to %"struct.std::_Vector_base<std::pair<int, int>, std::allocator<std::pair<int, int>>>::_Vector_impl_data"*, !llfi_index !42
  %9 = getelementptr inbounds %"struct.std::_Vector_base<std::pair<int, int>, std::allocator<std::pair<int, int>>>::_Vector_impl_data", %"struct.std::_Vector_base<std::pair<int, int>, std::allocator<std::pair<int, int>>>::_Vector_impl_data"* %8, i32 0, i32 0, !llfi_index !43
  %10 = load %"struct.std::pair"*, %"struct.std::pair"** %9, align 8, !llfi_index !44
  %11 = bitcast %"class.std::vector"* %5 to %"struct.std::_Vector_base"*, !llfi_index !45
  %12 = getelementptr inbounds %"struct.std::_Vector_base", %"struct.std::_Vector_base"* %11, i32 0, i32 0, !llfi_index !46
  %13 = bitcast %"struct.std::_Vector_base<std::pair<int, int>, std::allocator<std::pair<int, int>>>::_Vector_impl"* %12 to %"struct.std::_Vector_base<std::pair<int, int>, std::allocator<std::pair<int, int>>>::_Vector_impl_data"*, !llfi_index !47
  %14 = getelementptr inbounds %"struct.std::_Vector_base<std::pair<int, int>, std::allocator<std::pair<int, int>>>::_Vector_impl_data", %"struct.std::_Vector_base<std::pair<int, int>, std::allocator<std::pair<int, int>>>::_Vector_impl_data"* %13, i32 0, i32 1, !llfi_index !48
  %15 = load %"struct.std::pair"*, %"struct.std::pair"** %14, align 8, !llfi_index !49
  %16 = bitcast %"class.std::vector"* %5 to %"struct.std::_Vector_base"*, !llfi_index !50
  %17 = call nonnull align 1 dereferenceable(1) %"class.std::allocator"* @_ZNSt12_Vector_baseISt4pairIiiESaIS1_EE19_M_get_Tp_allocatorEv(%"struct.std::_Vector_base"* nonnull align 8 dereferenceable(24) %16) #2, !llfi_index !51
  invoke void @_ZSt8_DestroyIPSt4pairIiiES1_EvT_S3_RSaIT0_E(%"struct.std::pair"* %10, %"struct.std::pair"* %15, %"class.std::allocator"* nonnull align 1 dereferenceable(1) %17)
          to label %18 unwind label %20, !llfi_index !52

18:                                               ; preds = %1
  %19 = bitcast %"class.std::vector"* %5 to %"struct.std::_Vector_base"*, !llfi_index !53
  call void @_ZNSt12_Vector_baseISt4pairIiiESaIS1_EED2Ev(%"struct.std::_Vector_base"* nonnull align 8 dereferenceable(24) %19) #2, !llfi_index !54
  ret void, !llfi_index !55

20:                                               ; preds = %1
  %21 = landingpad { i8*, i32 }
          catch i8* null, !llfi_index !56
  %22 = extractvalue { i8*, i32 } %21, 0, !llfi_index !57
  store i8* %22, i8** %3, align 8, !llfi_index !58
  %23 = extractvalue { i8*, i32 } %21, 1, !llfi_index !59
  store i32 %23, i32* %4, align 4, !llfi_index !60
  %24 = bitcast %"class.std::vector"* %5 to %"struct.std::_Vector_base"*, !llfi_index !61
  call void @_ZNSt12_Vector_baseISt4pairIiiESaIS1_EED2Ev(%"struct.std::_Vector_base"* nonnull align 8 dereferenceable(24) %24) #2, !llfi_index !62
  br label %25, !llfi_index !63

25:                                               ; preds = %20
  %26 = load i8*, i8** %3, align 8, !llfi_index !64
  call void @__clang_call_terminate(i8* %26) #14, !llfi_index !65
  unreachable, !llfi_index !66
}

declare dso_local i32 @__gxx_personality_v0(...)

; Function Attrs: mustprogress noinline nounwind uwtable
define linkonce_odr dso_local nonnull align 1 dereferenceable(1) %"class.std::allocator"* @_ZNSt12_Vector_baseISt4pairIiiESaIS1_EE19_M_get_Tp_allocatorEv(%"struct.std::_Vector_base"* nonnull align 8 dereferenceable(24) %0) #3 comdat align 2 {
  %2 = alloca %"struct.std::_Vector_base"*, align 8, !llfi_index !67
  store %"struct.std::_Vector_base"* %0, %"struct.std::_Vector_base"** %2, align 8, !llfi_index !68
  %3 = load %"struct.std::_Vector_base"*, %"struct.std::_Vector_base"** %2, align 8, !llfi_index !69
  %4 = getelementptr inbounds %"struct.std::_Vector_base", %"struct.std::_Vector_base"* %3, i32 0, i32 0, !llfi_index !70
  %5 = bitcast %"struct.std::_Vector_base<std::pair<int, int>, std::allocator<std::pair<int, int>>>::_Vector_impl"* %4 to %"class.std::allocator"*, !llfi_index !71
  ret %"class.std::allocator"* %5, !llfi_index !72
}

; Function Attrs: mustprogress noinline uwtable
define linkonce_odr dso_local void @_ZSt8_DestroyIPSt4pairIiiES1_EvT_S3_RSaIT0_E(%"struct.std::pair"* %0, %"struct.std::pair"* %1, %"class.std::allocator"* nonnull align 1 dereferenceable(1) %2) #4 comdat {
  %4 = alloca %"struct.std::pair"*, align 8, !llfi_index !73
  %5 = alloca %"struct.std::pair"*, align 8, !llfi_index !74
  %6 = alloca %"class.std::allocator"*, align 8, !llfi_index !75
  store %"struct.std::pair"* %0, %"struct.std::pair"** %4, align 8, !llfi_index !76
  store %"struct.std::pair"* %1, %"struct.std::pair"** %5, align 8, !llfi_index !77
  store %"class.std::allocator"* %2, %"class.std::allocator"** %6, align 8, !llfi_index !78
  %7 = load %"struct.std::pair"*, %"struct.std::pair"** %4, align 8, !llfi_index !79
  %8 = load %"struct.std::pair"*, %"struct.std::pair"** %5, align 8, !llfi_index !80
  call void @_ZSt8_DestroyIPSt4pairIiiEEvT_S3_(%"struct.std::pair"* %7, %"struct.std::pair"* %8), !llfi_index !81
  ret void, !llfi_index !82
}

; Function Attrs: noinline nounwind uwtable
define linkonce_odr dso_local void @_ZNSt12_Vector_baseISt4pairIiiESaIS1_EED2Ev(%"struct.std::_Vector_base"* nonnull align 8 dereferenceable(24) %0) unnamed_addr #1 comdat align 2 personality i8* bitcast (i32 (...)* @__gxx_personality_v0 to i8*) {
  %2 = alloca %"struct.std::_Vector_base"*, align 8, !llfi_index !83
  %3 = alloca i8*, align 8, !llfi_index !84
  %4 = alloca i32, align 4, !llfi_index !85
  store %"struct.std::_Vector_base"* %0, %"struct.std::_Vector_base"** %2, align 8, !llfi_index !86
  %5 = load %"struct.std::_Vector_base"*, %"struct.std::_Vector_base"** %2, align 8, !llfi_index !87
  %6 = getelementptr inbounds %"struct.std::_Vector_base", %"struct.std::_Vector_base"* %5, i32 0, i32 0, !llfi_index !88
  %7 = bitcast %"struct.std::_Vector_base<std::pair<int, int>, std::allocator<std::pair<int, int>>>::_Vector_impl"* %6 to %"struct.std::_Vector_base<std::pair<int, int>, std::allocator<std::pair<int, int>>>::_Vector_impl_data"*, !llfi_index !89
  %8 = getelementptr inbounds %"struct.std::_Vector_base<std::pair<int, int>, std::allocator<std::pair<int, int>>>::_Vector_impl_data", %"struct.std::_Vector_base<std::pair<int, int>, std::allocator<std::pair<int, int>>>::_Vector_impl_data"* %7, i32 0, i32 0, !llfi_index !90
  %9 = load %"struct.std::pair"*, %"struct.std::pair"** %8, align 8, !llfi_index !91
  %10 = getelementptr inbounds %"struct.std::_Vector_base", %"struct.std::_Vector_base"* %5, i32 0, i32 0, !llfi_index !92
  %11 = bitcast %"struct.std::_Vector_base<std::pair<int, int>, std::allocator<std::pair<int, int>>>::_Vector_impl"* %10 to %"struct.std::_Vector_base<std::pair<int, int>, std::allocator<std::pair<int, int>>>::_Vector_impl_data"*, !llfi_index !93
  %12 = getelementptr inbounds %"struct.std::_Vector_base<std::pair<int, int>, std::allocator<std::pair<int, int>>>::_Vector_impl_data", %"struct.std::_Vector_base<std::pair<int, int>, std::allocator<std::pair<int, int>>>::_Vector_impl_data"* %11, i32 0, i32 2, !llfi_index !94
  %13 = load %"struct.std::pair"*, %"struct.std::pair"** %12, align 8, !llfi_index !95
  %14 = getelementptr inbounds %"struct.std::_Vector_base", %"struct.std::_Vector_base"* %5, i32 0, i32 0, !llfi_index !96
  %15 = bitcast %"struct.std::_Vector_base<std::pair<int, int>, std::allocator<std::pair<int, int>>>::_Vector_impl"* %14 to %"struct.std::_Vector_base<std::pair<int, int>, std::allocator<std::pair<int, int>>>::_Vector_impl_data"*, !llfi_index !97
  %16 = getelementptr inbounds %"struct.std::_Vector_base<std::pair<int, int>, std::allocator<std::pair<int, int>>>::_Vector_impl_data", %"struct.std::_Vector_base<std::pair<int, int>, std::allocator<std::pair<int, int>>>::_Vector_impl_data"* %15, i32 0, i32 0, !llfi_index !98
  %17 = load %"struct.std::pair"*, %"struct.std::pair"** %16, align 8, !llfi_index !99
  %18 = ptrtoint %"struct.std::pair"* %13 to i64, !llfi_index !100
  %19 = ptrtoint %"struct.std::pair"* %17 to i64, !llfi_index !101
  %20 = sub i64 %18, %19, !llfi_index !102
  %21 = sdiv exact i64 %20, 8, !llfi_index !103
  invoke void @_ZNSt12_Vector_baseISt4pairIiiESaIS1_EE13_M_deallocateEPS1_m(%"struct.std::_Vector_base"* nonnull align 8 dereferenceable(24) %5, %"struct.std::pair"* %9, i64 %21)
          to label %22 unwind label %24, !llfi_index !104

22:                                               ; preds = %1
  %23 = getelementptr inbounds %"struct.std::_Vector_base", %"struct.std::_Vector_base"* %5, i32 0, i32 0, !llfi_index !105
  call void @_ZNSt12_Vector_baseISt4pairIiiESaIS1_EE12_Vector_implD2Ev(%"struct.std::_Vector_base<std::pair<int, int>, std::allocator<std::pair<int, int>>>::_Vector_impl"* nonnull align 8 dereferenceable(24) %23) #2, !llfi_index !106
  ret void, !llfi_index !107

24:                                               ; preds = %1
  %25 = landingpad { i8*, i32 }
          catch i8* null, !llfi_index !108
  %26 = extractvalue { i8*, i32 } %25, 0, !llfi_index !109
  store i8* %26, i8** %3, align 8, !llfi_index !110
  %27 = extractvalue { i8*, i32 } %25, 1, !llfi_index !111
  store i32 %27, i32* %4, align 4, !llfi_index !112
  %28 = getelementptr inbounds %"struct.std::_Vector_base", %"struct.std::_Vector_base"* %5, i32 0, i32 0, !llfi_index !113
  call void @_ZNSt12_Vector_baseISt4pairIiiESaIS1_EE12_Vector_implD2Ev(%"struct.std::_Vector_base<std::pair<int, int>, std::allocator<std::pair<int, int>>>::_Vector_impl"* nonnull align 8 dereferenceable(24) %28) #2, !llfi_index !114
  br label %29, !llfi_index !115

29:                                               ; preds = %24
  %30 = load i8*, i8** %3, align 8, !llfi_index !116
  call void @__clang_call_terminate(i8* %30) #14, !llfi_index !117
  unreachable, !llfi_index !118
}

; Function Attrs: noinline noreturn nounwind
define linkonce_odr hidden void @__clang_call_terminate(i8* %0) #5 comdat {
  %2 = call i8* @__cxa_begin_catch(i8* %0) #2, !llfi_index !119
  call void @_ZSt9terminatev() #14, !llfi_index !120
  unreachable, !llfi_index !121
}

declare dso_local i8* @__cxa_begin_catch(i8*)

declare dso_local void @_ZSt9terminatev()

; Function Attrs: mustprogress noinline uwtable
define linkonce_odr dso_local void @_ZNSt12_Vector_baseISt4pairIiiESaIS1_EE13_M_deallocateEPS1_m(%"struct.std::_Vector_base"* nonnull align 8 dereferenceable(24) %0, %"struct.std::pair"* %1, i64 %2) #4 comdat align 2 {
  %4 = alloca %"struct.std::_Vector_base"*, align 8, !llfi_index !122
  %5 = alloca %"struct.std::pair"*, align 8, !llfi_index !123
  %6 = alloca i64, align 8, !llfi_index !124
  store %"struct.std::_Vector_base"* %0, %"struct.std::_Vector_base"** %4, align 8, !llfi_index !125
  store %"struct.std::pair"* %1, %"struct.std::pair"** %5, align 8, !llfi_index !126
  store i64 %2, i64* %6, align 8, !llfi_index !127
  %7 = load %"struct.std::_Vector_base"*, %"struct.std::_Vector_base"** %4, align 8, !llfi_index !128
  %8 = load %"struct.std::pair"*, %"struct.std::pair"** %5, align 8, !llfi_index !129
  %9 = icmp ne %"struct.std::pair"* %8, null, !llfi_index !130
  br i1 %9, label %10, label %15, !llfi_index !131

10:                                               ; preds = %3
  %11 = getelementptr inbounds %"struct.std::_Vector_base", %"struct.std::_Vector_base"* %7, i32 0, i32 0, !llfi_index !132
  %12 = bitcast %"struct.std::_Vector_base<std::pair<int, int>, std::allocator<std::pair<int, int>>>::_Vector_impl"* %11 to %"class.std::allocator"*, !llfi_index !133
  %13 = load %"struct.std::pair"*, %"struct.std::pair"** %5, align 8, !llfi_index !134
  %14 = load i64, i64* %6, align 8, !llfi_index !135
  call void @_ZNSt16allocator_traitsISaISt4pairIiiEEE10deallocateERS2_PS1_m(%"class.std::allocator"* nonnull align 1 dereferenceable(1) %12, %"struct.std::pair"* %13, i64 %14), !llfi_index !136
  br label %15, !llfi_index !137

15:                                               ; preds = %10, %3
  ret void, !llfi_index !138
}

; Function Attrs: noinline nounwind uwtable
define linkonce_odr dso_local void @_ZNSt12_Vector_baseISt4pairIiiESaIS1_EE12_Vector_implD2Ev(%"struct.std::_Vector_base<std::pair<int, int>, std::allocator<std::pair<int, int>>>::_Vector_impl"* nonnull align 8 dereferenceable(24) %0) unnamed_addr #1 comdat align 2 {
  %2 = alloca %"struct.std::_Vector_base<std::pair<int, int>, std::allocator<std::pair<int, int>>>::_Vector_impl"*, align 8, !llfi_index !139
  store %"struct.std::_Vector_base<std::pair<int, int>, std::allocator<std::pair<int, int>>>::_Vector_impl"* %0, %"struct.std::_Vector_base<std::pair<int, int>, std::allocator<std::pair<int, int>>>::_Vector_impl"** %2, align 8, !llfi_index !140
  %3 = load %"struct.std::_Vector_base<std::pair<int, int>, std::allocator<std::pair<int, int>>>::_Vector_impl"*, %"struct.std::_Vector_base<std::pair<int, int>, std::allocator<std::pair<int, int>>>::_Vector_impl"** %2, align 8, !llfi_index !141
  %4 = bitcast %"struct.std::_Vector_base<std::pair<int, int>, std::allocator<std::pair<int, int>>>::_Vector_impl"* %3 to %"class.std::allocator"*, !llfi_index !142
  call void @_ZNSaISt4pairIiiEED2Ev(%"class.std::allocator"* nonnull align 1 dereferenceable(1) %4) #2, !llfi_index !143
  ret void, !llfi_index !144
}

; Function Attrs: noinline nounwind uwtable
define linkonce_odr dso_local void @_ZNSaISt4pairIiiEED2Ev(%"class.std::allocator"* nonnull align 1 dereferenceable(1) %0) unnamed_addr #1 comdat align 2 {
  %2 = alloca %"class.std::allocator"*, align 8, !llfi_index !145
  store %"class.std::allocator"* %0, %"class.std::allocator"** %2, align 8, !llfi_index !146
  %3 = load %"class.std::allocator"*, %"class.std::allocator"** %2, align 8, !llfi_index !147
  %4 = bitcast %"class.std::allocator"* %3 to %"class.std::allocator"*, !llfi_index !148
  call void @_ZN9__gnu_cxx13new_allocatorISt4pairIiiEED2Ev(%"class.std::allocator"* nonnull align 1 dereferenceable(1) %4) #2, !llfi_index !149
  ret void, !llfi_index !150
}

; Function Attrs: noinline nounwind uwtable
define linkonce_odr dso_local void @_ZN9__gnu_cxx13new_allocatorISt4pairIiiEED2Ev(%"class.std::allocator"* nonnull align 1 dereferenceable(1) %0) unnamed_addr #1 comdat align 2 {
  %2 = alloca %"class.std::allocator"*, align 8, !llfi_index !151
  store %"class.std::allocator"* %0, %"class.std::allocator"** %2, align 8, !llfi_index !152
  %3 = load %"class.std::allocator"*, %"class.std::allocator"** %2, align 8, !llfi_index !153
  ret void, !llfi_index !154
}

; Function Attrs: mustprogress noinline uwtable
define linkonce_odr dso_local void @_ZNSt16allocator_traitsISaISt4pairIiiEEE10deallocateERS2_PS1_m(%"class.std::allocator"* nonnull align 1 dereferenceable(1) %0, %"struct.std::pair"* %1, i64 %2) #4 comdat align 2 {
  %4 = alloca %"class.std::allocator"*, align 8, !llfi_index !155
  %5 = alloca %"struct.std::pair"*, align 8, !llfi_index !156
  %6 = alloca i64, align 8, !llfi_index !157
  store %"class.std::allocator"* %0, %"class.std::allocator"** %4, align 8, !llfi_index !158
  store %"struct.std::pair"* %1, %"struct.std::pair"** %5, align 8, !llfi_index !159
  store i64 %2, i64* %6, align 8, !llfi_index !160
  %7 = load %"class.std::allocator"*, %"class.std::allocator"** %4, align 8, !llfi_index !161
  %8 = bitcast %"class.std::allocator"* %7 to %"class.std::allocator"*, !llfi_index !162
  %9 = load %"struct.std::pair"*, %"struct.std::pair"** %5, align 8, !llfi_index !163
  %10 = load i64, i64* %6, align 8, !llfi_index !164
  call void @_ZN9__gnu_cxx13new_allocatorISt4pairIiiEE10deallocateEPS2_m(%"class.std::allocator"* nonnull align 1 dereferenceable(1) %8, %"struct.std::pair"* %9, i64 %10), !llfi_index !165
  ret void, !llfi_index !166
}

; Function Attrs: mustprogress noinline nounwind uwtable
define linkonce_odr dso_local void @_ZN9__gnu_cxx13new_allocatorISt4pairIiiEE10deallocateEPS2_m(%"class.std::allocator"* nonnull align 1 dereferenceable(1) %0, %"struct.std::pair"* %1, i64 %2) #3 comdat align 2 {
  %4 = alloca %"class.std::allocator"*, align 8, !llfi_index !167
  %5 = alloca %"struct.std::pair"*, align 8, !llfi_index !168
  %6 = alloca i64, align 8, !llfi_index !169
  store %"class.std::allocator"* %0, %"class.std::allocator"** %4, align 8, !llfi_index !170
  store %"struct.std::pair"* %1, %"struct.std::pair"** %5, align 8, !llfi_index !171
  store i64 %2, i64* %6, align 8, !llfi_index !172
  %7 = load %"class.std::allocator"*, %"class.std::allocator"** %4, align 8, !llfi_index !173
  %8 = load %"struct.std::pair"*, %"struct.std::pair"** %5, align 8, !llfi_index !174
  %9 = bitcast %"struct.std::pair"* %8 to i8*, !llfi_index !175
  call void @_ZdlPv(i8* %9) #2, !llfi_index !176
  ret void, !llfi_index !177
}

; Function Attrs: nobuiltin nounwind
declare dso_local void @_ZdlPv(i8*) #6

; Function Attrs: mustprogress noinline uwtable
define linkonce_odr dso_local void @_ZSt8_DestroyIPSt4pairIiiEEvT_S3_(%"struct.std::pair"* %0, %"struct.std::pair"* %1) #4 comdat {
  %3 = alloca %"struct.std::pair"*, align 8, !llfi_index !178
  %4 = alloca %"struct.std::pair"*, align 8, !llfi_index !179
  store %"struct.std::pair"* %0, %"struct.std::pair"** %3, align 8, !llfi_index !180
  store %"struct.std::pair"* %1, %"struct.std::pair"** %4, align 8, !llfi_index !181
  %5 = load %"struct.std::pair"*, %"struct.std::pair"** %3, align 8, !llfi_index !182
  %6 = load %"struct.std::pair"*, %"struct.std::pair"** %4, align 8, !llfi_index !183
  call void @_ZNSt12_Destroy_auxILb1EE9__destroyIPSt4pairIiiEEEvT_S5_(%"struct.std::pair"* %5, %"struct.std::pair"* %6), !llfi_index !184
  ret void, !llfi_index !185
}

; Function Attrs: mustprogress noinline nounwind uwtable
define linkonce_odr dso_local void @_ZNSt12_Destroy_auxILb1EE9__destroyIPSt4pairIiiEEEvT_S5_(%"struct.std::pair"* %0, %"struct.std::pair"* %1) #3 comdat align 2 {
  %3 = alloca %"struct.std::pair"*, align 8, !llfi_index !186
  %4 = alloca %"struct.std::pair"*, align 8, !llfi_index !187
  store %"struct.std::pair"* %0, %"struct.std::pair"** %3, align 8, !llfi_index !188
  store %"struct.std::pair"* %1, %"struct.std::pair"** %4, align 8, !llfi_index !189
  ret void, !llfi_index !190
}

; Function Attrs: noinline nounwind uwtable
define linkonce_odr dso_local void @_ZNSt12_Vector_baseISt4pairIiiESaIS1_EEC2Ev(%"struct.std::_Vector_base"* nonnull align 8 dereferenceable(24) %0) unnamed_addr #1 comdat align 2 {
  %2 = alloca %"struct.std::_Vector_base"*, align 8, !llfi_index !191
  store %"struct.std::_Vector_base"* %0, %"struct.std::_Vector_base"** %2, align 8, !llfi_index !192
  %3 = load %"struct.std::_Vector_base"*, %"struct.std::_Vector_base"** %2, align 8, !llfi_index !193
  %4 = getelementptr inbounds %"struct.std::_Vector_base", %"struct.std::_Vector_base"* %3, i32 0, i32 0, !llfi_index !194
  call void @_ZNSt12_Vector_baseISt4pairIiiESaIS1_EE12_Vector_implC2Ev(%"struct.std::_Vector_base<std::pair<int, int>, std::allocator<std::pair<int, int>>>::_Vector_impl"* nonnull align 8 dereferenceable(24) %4) #2, !llfi_index !195
  ret void, !llfi_index !196
}

; Function Attrs: noinline nounwind uwtable
define linkonce_odr dso_local void @_ZNSt12_Vector_baseISt4pairIiiESaIS1_EE12_Vector_implC2Ev(%"struct.std::_Vector_base<std::pair<int, int>, std::allocator<std::pair<int, int>>>::_Vector_impl"* nonnull align 8 dereferenceable(24) %0) unnamed_addr #1 comdat align 2 {
  %2 = alloca %"struct.std::_Vector_base<std::pair<int, int>, std::allocator<std::pair<int, int>>>::_Vector_impl"*, align 8, !llfi_index !197
  store %"struct.std::_Vector_base<std::pair<int, int>, std::allocator<std::pair<int, int>>>::_Vector_impl"* %0, %"struct.std::_Vector_base<std::pair<int, int>, std::allocator<std::pair<int, int>>>::_Vector_impl"** %2, align 8, !llfi_index !198
  %3 = load %"struct.std::_Vector_base<std::pair<int, int>, std::allocator<std::pair<int, int>>>::_Vector_impl"*, %"struct.std::_Vector_base<std::pair<int, int>, std::allocator<std::pair<int, int>>>::_Vector_impl"** %2, align 8, !llfi_index !199
  %4 = bitcast %"struct.std::_Vector_base<std::pair<int, int>, std::allocator<std::pair<int, int>>>::_Vector_impl"* %3 to %"class.std::allocator"*, !llfi_index !200
  call void @_ZNSaISt4pairIiiEEC2Ev(%"class.std::allocator"* nonnull align 1 dereferenceable(1) %4) #2, !llfi_index !201
  %5 = bitcast %"struct.std::_Vector_base<std::pair<int, int>, std::allocator<std::pair<int, int>>>::_Vector_impl"* %3 to %"struct.std::_Vector_base<std::pair<int, int>, std::allocator<std::pair<int, int>>>::_Vector_impl_data"*, !llfi_index !202
  call void @_ZNSt12_Vector_baseISt4pairIiiESaIS1_EE17_Vector_impl_dataC2Ev(%"struct.std::_Vector_base<std::pair<int, int>, std::allocator<std::pair<int, int>>>::_Vector_impl_data"* nonnull align 8 dereferenceable(24) %5) #2, !llfi_index !203
  ret void, !llfi_index !204
}

; Function Attrs: noinline nounwind uwtable
define linkonce_odr dso_local void @_ZNSaISt4pairIiiEEC2Ev(%"class.std::allocator"* nonnull align 1 dereferenceable(1) %0) unnamed_addr #1 comdat align 2 {
  %2 = alloca %"class.std::allocator"*, align 8, !llfi_index !205
  store %"class.std::allocator"* %0, %"class.std::allocator"** %2, align 8, !llfi_index !206
  %3 = load %"class.std::allocator"*, %"class.std::allocator"** %2, align 8, !llfi_index !207
  %4 = bitcast %"class.std::allocator"* %3 to %"class.std::allocator"*, !llfi_index !208
  call void @_ZN9__gnu_cxx13new_allocatorISt4pairIiiEEC2Ev(%"class.std::allocator"* nonnull align 1 dereferenceable(1) %4) #2, !llfi_index !209
  ret void, !llfi_index !210
}

; Function Attrs: noinline nounwind uwtable
define linkonce_odr dso_local void @_ZNSt12_Vector_baseISt4pairIiiESaIS1_EE17_Vector_impl_dataC2Ev(%"struct.std::_Vector_base<std::pair<int, int>, std::allocator<std::pair<int, int>>>::_Vector_impl_data"* nonnull align 8 dereferenceable(24) %0) unnamed_addr #1 comdat align 2 {
  %2 = alloca %"struct.std::_Vector_base<std::pair<int, int>, std::allocator<std::pair<int, int>>>::_Vector_impl_data"*, align 8, !llfi_index !211
  store %"struct.std::_Vector_base<std::pair<int, int>, std::allocator<std::pair<int, int>>>::_Vector_impl_data"* %0, %"struct.std::_Vector_base<std::pair<int, int>, std::allocator<std::pair<int, int>>>::_Vector_impl_data"** %2, align 8, !llfi_index !212
  %3 = load %"struct.std::_Vector_base<std::pair<int, int>, std::allocator<std::pair<int, int>>>::_Vector_impl_data"*, %"struct.std::_Vector_base<std::pair<int, int>, std::allocator<std::pair<int, int>>>::_Vector_impl_data"** %2, align 8, !llfi_index !213
  %4 = getelementptr inbounds %"struct.std::_Vector_base<std::pair<int, int>, std::allocator<std::pair<int, int>>>::_Vector_impl_data", %"struct.std::_Vector_base<std::pair<int, int>, std::allocator<std::pair<int, int>>>::_Vector_impl_data"* %3, i32 0, i32 0, !llfi_index !214
  store %"struct.std::pair"* null, %"struct.std::pair"** %4, align 8, !llfi_index !215
  %5 = getelementptr inbounds %"struct.std::_Vector_base<std::pair<int, int>, std::allocator<std::pair<int, int>>>::_Vector_impl_data", %"struct.std::_Vector_base<std::pair<int, int>, std::allocator<std::pair<int, int>>>::_Vector_impl_data"* %3, i32 0, i32 1, !llfi_index !216
  store %"struct.std::pair"* null, %"struct.std::pair"** %5, align 8, !llfi_index !217
  %6 = getelementptr inbounds %"struct.std::_Vector_base<std::pair<int, int>, std::allocator<std::pair<int, int>>>::_Vector_impl_data", %"struct.std::_Vector_base<std::pair<int, int>, std::allocator<std::pair<int, int>>>::_Vector_impl_data"* %3, i32 0, i32 2, !llfi_index !218
  store %"struct.std::pair"* null, %"struct.std::pair"** %6, align 8, !llfi_index !219
  ret void, !llfi_index !220
}

; Function Attrs: noinline nounwind uwtable
define linkonce_odr dso_local void @_ZN9__gnu_cxx13new_allocatorISt4pairIiiEEC2Ev(%"class.std::allocator"* nonnull align 1 dereferenceable(1) %0) unnamed_addr #1 comdat align 2 {
  %2 = alloca %"class.std::allocator"*, align 8, !llfi_index !221
  store %"class.std::allocator"* %0, %"class.std::allocator"** %2, align 8, !llfi_index !222
  %3 = load %"class.std::allocator"*, %"class.std::allocator"** %2, align 8, !llfi_index !223
  ret void, !llfi_index !224
}

declare dso_local void @_ZNSt8ios_base4InitC1Ev(%"class.std::allocator"* nonnull align 1 dereferenceable(1)) unnamed_addr #7

; Function Attrs: noinline uwtable
define internal void @__dtor__ZStL8__ioinit() #0 section ".text.startup" {
  call void @_ZNSt8ios_base4InitD1Ev(%"class.std::allocator"* @_ZStL8__ioinit), !llfi_index !225
  ret void, !llfi_index !226
}

; Function Attrs: nounwind
declare dso_local void @_ZNSt8ios_base4InitD1Ev(%"class.std::allocator"* nonnull align 1 dereferenceable(1)) unnamed_addr #8

; Function Attrs: mustprogress noinline uwtable
define dso_local void @_Z3Addi(i32 %0) #4 {
  %2 = alloca i32, align 4, !llfi_index !227
  %3 = alloca i32, align 4, !llfi_index !228
  %4 = alloca i32, align 4, !llfi_index !229
  store i32 %0, i32* %2, align 4, !llfi_index !230
  %5 = load i32, i32* @lef, align 4, !llfi_index !231
  %6 = icmp eq i32 %5, 100005, !llfi_index !232
  br i1 %6, label %7, label %11, !llfi_index !233

7:                                                ; preds = %1
  %8 = load i64, i64* @cur, align 8, !llfi_index !234
  %9 = add nsw i64 %8, 1, !llfi_index !235
  store i64 %9, i64* @cur, align 8, !llfi_index !236
  %10 = load i32, i32* %2, align 4, !llfi_index !237
  store i32 %10, i32* @rig, align 4, !llfi_index !238
  store i32 %10, i32* @lef, align 4, !llfi_index !239
  br label %47, !llfi_index !240

11:                                               ; preds = %1
  %12 = load i32, i32* %2, align 4, !llfi_index !241
  %13 = add nsw i32 %12, 1, !llfi_index !242
  %14 = load i32, i32* @lef, align 4, !llfi_index !243
  %15 = icmp eq i32 %13, %14, !llfi_index !244
  br i1 %15, label %16, label %31, !llfi_index !245

16:                                               ; preds = %11
  %17 = load i32, i32* @lef, align 4, !llfi_index !246
  %18 = add nsw i32 %17, -1, !llfi_index !247
  store i32 %18, i32* @lef, align 4, !llfi_index !248
  %19 = load i32, i32* @rig, align 4, !llfi_index !249
  %20 = add nsw i32 %19, 1, !llfi_index !250
  store i32 %20, i32* %3, align 4, !llfi_index !251
  %21 = load i32, i32* %2, align 4, !llfi_index !252
  %22 = sext i32 %21 to i64, !llfi_index !253
  %23 = getelementptr inbounds [100005 x i32], [100005 x i32]* @R, i64 0, i64 %22, !llfi_index !254
  %24 = call nonnull align 4 dereferenceable(4) i32* @_ZSt3minIiERKT_S2_S2_(i32* nonnull align 4 dereferenceable(4) %3, i32* nonnull align 4 dereferenceable(4) %23), !llfi_index !255
  %25 = load i32, i32* %24, align 4, !llfi_index !256
  %26 = load i32, i32* %2, align 4, !llfi_index !257
  %27 = sub nsw i32 %25, %26, !llfi_index !258
  %28 = sext i32 %27 to i64, !llfi_index !259
  %29 = load i64, i64* @cur, align 8, !llfi_index !260
  %30 = add nsw i64 %29, %28, !llfi_index !261
  store i64 %30, i64* @cur, align 8, !llfi_index !262
  br label %46, !llfi_index !263

31:                                               ; preds = %11
  %32 = load i32, i32* @rig, align 4, !llfi_index !264
  %33 = add nsw i32 %32, 1, !llfi_index !265
  store i32 %33, i32* @rig, align 4, !llfi_index !266
  %34 = load i32, i32* %2, align 4, !llfi_index !267
  %35 = load i32, i32* @lef, align 4, !llfi_index !268
  %36 = sub nsw i32 %35, 1, !llfi_index !269
  store i32 %36, i32* %4, align 4, !llfi_index !270
  %37 = load i32, i32* %2, align 4, !llfi_index !271
  %38 = sext i32 %37 to i64, !llfi_index !272
  %39 = getelementptr inbounds [100005 x i32], [100005 x i32]* @L, i64 0, i64 %38, !llfi_index !273
  %40 = call nonnull align 4 dereferenceable(4) i32* @_ZSt3maxIiERKT_S2_S2_(i32* nonnull align 4 dereferenceable(4) %4, i32* nonnull align 4 dereferenceable(4) %39), !llfi_index !274
  %41 = load i32, i32* %40, align 4, !llfi_index !275
  %42 = sub nsw i32 %34, %41, !llfi_index !276
  %43 = sext i32 %42 to i64, !llfi_index !277
  %44 = load i64, i64* @cur, align 8, !llfi_index !278
  %45 = add nsw i64 %44, %43, !llfi_index !279
  store i64 %45, i64* @cur, align 8, !llfi_index !280
  br label %46, !llfi_index !281

46:                                               ; preds = %31, %16
  br label %47, !llfi_index !282

47:                                               ; preds = %46, %7
  ret void, !llfi_index !283
}

; Function Attrs: mustprogress noinline nounwind uwtable
define linkonce_odr dso_local nonnull align 4 dereferenceable(4) i32* @_ZSt3minIiERKT_S2_S2_(i32* nonnull align 4 dereferenceable(4) %0, i32* nonnull align 4 dereferenceable(4) %1) #3 comdat {
  %3 = alloca i32*, align 8, !llfi_index !284
  %4 = alloca i32*, align 8, !llfi_index !285
  %5 = alloca i32*, align 8, !llfi_index !286
  store i32* %0, i32** %4, align 8, !llfi_index !287
  store i32* %1, i32** %5, align 8, !llfi_index !288
  %6 = load i32*, i32** %5, align 8, !llfi_index !289
  %7 = load i32, i32* %6, align 4, !llfi_index !290
  %8 = load i32*, i32** %4, align 8, !llfi_index !291
  %9 = load i32, i32* %8, align 4, !llfi_index !292
  %10 = icmp slt i32 %7, %9, !llfi_index !293
  br i1 %10, label %11, label %13, !llfi_index !294

11:                                               ; preds = %2
  %12 = load i32*, i32** %5, align 8, !llfi_index !295
  store i32* %12, i32** %3, align 8, !llfi_index !296
  br label %15, !llfi_index !297

13:                                               ; preds = %2
  %14 = load i32*, i32** %4, align 8, !llfi_index !298
  store i32* %14, i32** %3, align 8, !llfi_index !299
  br label %15, !llfi_index !300

15:                                               ; preds = %13, %11
  %16 = load i32*, i32** %3, align 8, !llfi_index !301
  ret i32* %16, !llfi_index !302
}

; Function Attrs: mustprogress noinline nounwind uwtable
define linkonce_odr dso_local nonnull align 4 dereferenceable(4) i32* @_ZSt3maxIiERKT_S2_S2_(i32* nonnull align 4 dereferenceable(4) %0, i32* nonnull align 4 dereferenceable(4) %1) #3 comdat {
  %3 = alloca i32*, align 8, !llfi_index !303
  %4 = alloca i32*, align 8, !llfi_index !304
  %5 = alloca i32*, align 8, !llfi_index !305
  store i32* %0, i32** %4, align 8, !llfi_index !306
  store i32* %1, i32** %5, align 8, !llfi_index !307
  %6 = load i32*, i32** %4, align 8, !llfi_index !308
  %7 = load i32, i32* %6, align 4, !llfi_index !309
  %8 = load i32*, i32** %5, align 8, !llfi_index !310
  %9 = load i32, i32* %8, align 4, !llfi_index !311
  %10 = icmp slt i32 %7, %9, !llfi_index !312
  br i1 %10, label %11, label %13, !llfi_index !313

11:                                               ; preds = %2
  %12 = load i32*, i32** %5, align 8, !llfi_index !314
  store i32* %12, i32** %3, align 8, !llfi_index !315
  br label %15, !llfi_index !316

13:                                               ; preds = %2
  %14 = load i32*, i32** %4, align 8, !llfi_index !317
  store i32* %14, i32** %3, align 8, !llfi_index !318
  br label %15, !llfi_index !319

15:                                               ; preds = %13, %11
  %16 = load i32*, i32** %3, align 8, !llfi_index !320
  ret i32* %16, !llfi_index !321
}

; Function Attrs: mustprogress noinline uwtable
define dso_local void @_Z3Remi(i32 %0) #4 {
  %2 = alloca i32, align 4, !llfi_index !322
  %3 = alloca i32, align 4, !llfi_index !323
  %4 = alloca i32, align 4, !llfi_index !324
  store i32 %0, i32* %2, align 4, !llfi_index !325
  %5 = load i32, i32* @lef, align 4, !llfi_index !326
  %6 = load i32, i32* @rig, align 4, !llfi_index !327
  %7 = icmp eq i32 %5, %6, !llfi_index !328
  br i1 %7, label %8, label %11, !llfi_index !329

8:                                                ; preds = %1
  %9 = load i64, i64* @cur, align 8, !llfi_index !330
  %10 = add nsw i64 %9, -1, !llfi_index !331
  store i64 %10, i64* @cur, align 8, !llfi_index !332
  store i32 100005, i32* @lef, align 4, !llfi_index !333
  br label %46, !llfi_index !334

11:                                               ; preds = %1
  %12 = load i32, i32* @lef, align 4, !llfi_index !335
  %13 = load i32, i32* %2, align 4, !llfi_index !336
  %14 = icmp eq i32 %12, %13, !llfi_index !337
  br i1 %14, label %15, label %30, !llfi_index !338

15:                                               ; preds = %11
  %16 = load i32, i32* @lef, align 4, !llfi_index !339
  %17 = add nsw i32 %16, 1, !llfi_index !340
  store i32 %17, i32* @lef, align 4, !llfi_index !341
  %18 = load i32, i32* @rig, align 4, !llfi_index !342
  %19 = add nsw i32 %18, 1, !llfi_index !343
  store i32 %19, i32* %3, align 4, !llfi_index !344
  %20 = load i32, i32* %2, align 4, !llfi_index !345
  %21 = sext i32 %20 to i64, !llfi_index !346
  %22 = getelementptr inbounds [100005 x i32], [100005 x i32]* @R, i64 0, i64 %21, !llfi_index !347
  %23 = call nonnull align 4 dereferenceable(4) i32* @_ZSt3minIiERKT_S2_S2_(i32* nonnull align 4 dereferenceable(4) %3, i32* nonnull align 4 dereferenceable(4) %22), !llfi_index !348
  %24 = load i32, i32* %23, align 4, !llfi_index !349
  %25 = load i32, i32* %2, align 4, !llfi_index !350
  %26 = sub nsw i32 %24, %25, !llfi_index !351
  %27 = sext i32 %26 to i64, !llfi_index !352
  %28 = load i64, i64* @cur, align 8, !llfi_index !353
  %29 = sub nsw i64 %28, %27, !llfi_index !354
  store i64 %29, i64* @cur, align 8, !llfi_index !355
  br label %45, !llfi_index !356

30:                                               ; preds = %11
  %31 = load i32, i32* @rig, align 4, !llfi_index !357
  %32 = add nsw i32 %31, -1, !llfi_index !358
  store i32 %32, i32* @rig, align 4, !llfi_index !359
  %33 = load i32, i32* %2, align 4, !llfi_index !360
  %34 = load i32, i32* @lef, align 4, !llfi_index !361
  %35 = sub nsw i32 %34, 1, !llfi_index !362
  store i32 %35, i32* %4, align 4, !llfi_index !363
  %36 = load i32, i32* %2, align 4, !llfi_index !364
  %37 = sext i32 %36 to i64, !llfi_index !365
  %38 = getelementptr inbounds [100005 x i32], [100005 x i32]* @L, i64 0, i64 %37, !llfi_index !366
  %39 = call nonnull align 4 dereferenceable(4) i32* @_ZSt3maxIiERKT_S2_S2_(i32* nonnull align 4 dereferenceable(4) %4, i32* nonnull align 4 dereferenceable(4) %38), !llfi_index !367
  %40 = load i32, i32* %39, align 4, !llfi_index !368
  %41 = sub nsw i32 %33, %40, !llfi_index !369
  %42 = sext i32 %41 to i64, !llfi_index !370
  %43 = load i64, i64* @cur, align 8, !llfi_index !371
  %44 = sub nsw i64 %43, %42, !llfi_index !372
  store i64 %44, i64* @cur, align 8, !llfi_index !373
  br label %45, !llfi_index !374

45:                                               ; preds = %30, %15
  br label %46, !llfi_index !375

46:                                               ; preds = %45, %8
  ret void, !llfi_index !376
}

; Function Attrs: mustprogress noinline norecurse uwtable
define dso_local i32 @main() #9 {
  %1 = alloca i32, align 4, !llfi_index !377
  %2 = alloca i32, align 4, !llfi_index !378
  %3 = alloca i32, align 4, !llfi_index !379
  %4 = alloca i32, align 4, !llfi_index !380
  %5 = alloca i32, align 4, !llfi_index !381
  %6 = alloca i32, align 4, !llfi_index !382
  %7 = alloca i32, align 4, !llfi_index !383
  %8 = alloca i32, align 4, !llfi_index !384
  %9 = alloca i32, align 4, !llfi_index !385
  %10 = alloca %"struct.std::pair", align 4, !llfi_index !386
  %11 = alloca i32, align 4, !llfi_index !387
  %12 = alloca %"class.__gnu_cxx::__normal_iterator", align 8, !llfi_index !388
  %13 = alloca %"class.__gnu_cxx::__normal_iterator", align 8, !llfi_index !389
  %14 = alloca i32, align 4, !llfi_index !390
  %15 = alloca i32, align 4, !llfi_index !391
  %16 = alloca i32, align 4, !llfi_index !392
  %17 = alloca i32, align 4, !llfi_index !393
  %18 = alloca i32, align 4, !llfi_index !394
  store i32 0, i32* %1, align 4, !llfi_index !395
  %19 = load %struct._IO_FILE*, %struct._IO_FILE** @stdin, align 8, !llfi_index !396
  %20 = call %struct._IO_FILE* @freopen(i8* getelementptr inbounds ([23 x i8], [23 x i8]* @.str, i64 0, i64 0), i8* getelementptr inbounds ([2 x i8], [2 x i8]* @.str.2, i64 0, i64 0), %struct._IO_FILE* %19), !llfi_index !397
  %21 = call i32 (i8*, ...) @__isoc99_scanf(i8* getelementptr inbounds ([6 x i8], [6 x i8]* @.str.3, i64 0, i64 0), i32* @n, i32* @q), !llfi_index !398
  %22 = load i32, i32* @n, align 4, !llfi_index !399
  %23 = add nsw i32 %22, 1, !llfi_index !400
  %24 = sext i32 %23 to i64, !llfi_index !401
  %25 = getelementptr inbounds [100005 x i32], [100005 x i32]* @L, i64 0, i64 %24, !llfi_index !402
  store i32 0, i32* %25, align 4, !llfi_index !403
  store i32 0, i32* getelementptr inbounds ([100005 x i32], [100005 x i32]* @L, i64 0, i64 0), align 16, !llfi_index !404
  %26 = load i32, i32* @n, align 4, !llfi_index !405
  %27 = add nsw i32 %26, 1, !llfi_index !406
  %28 = load i32, i32* @n, align 4, !llfi_index !407
  %29 = add nsw i32 %28, 1, !llfi_index !408
  %30 = sext i32 %29 to i64, !llfi_index !409
  %31 = getelementptr inbounds [100005 x i32], [100005 x i32]* @R, i64 0, i64 %30, !llfi_index !410
  store i32 %27, i32* %31, align 4, !llfi_index !411
  store i32 %27, i32* getelementptr inbounds ([100005 x i32], [100005 x i32]* @R, i64 0, i64 0), align 16, !llfi_index !412
  store i32 89, i32* %2, align 4, !llfi_index !413
  store i32 1, i32* %3, align 4, !llfi_index !414
  br label %32, !llfi_index !415

32:                                               ; preds = %82, %0
  %33 = load i32, i32* %3, align 4, !llfi_index !416
  %34 = load i32, i32* @n, align 4, !llfi_index !417
  %35 = icmp sle i32 %33, %34, !llfi_index !418
  br i1 %35, label %36, label %85, !llfi_index !419

36:                                               ; preds = %32
  %37 = load i32, i32* %3, align 4, !llfi_index !420
  %38 = sext i32 %37 to i64, !llfi_index !421
  %39 = getelementptr inbounds [100005 x i32], [100005 x i32]* @A, i64 0, i64 %38, !llfi_index !422
  %40 = call i32 (i8*, ...) @__isoc99_scanf(i8* getelementptr inbounds ([3 x i8], [3 x i8]* @.str.4, i64 0, i64 0), i32* %39), !llfi_index !423
  %41 = load i32, i32* %3, align 4, !llfi_index !424
  %42 = sext i32 %41 to i64, !llfi_index !425
  %43 = getelementptr inbounds [100005 x i32], [100005 x i32]* @A, i64 0, i64 %42, !llfi_index !426
  %44 = load i32, i32* %43, align 4, !llfi_index !427
  %45 = sext i32 %44 to i64, !llfi_index !428
  %46 = getelementptr inbounds [1000005 x i32], [1000005 x i32]* @lst, i64 0, i64 %45, !llfi_index !429
  %47 = load i32, i32* %46, align 4, !llfi_index !430
  %48 = icmp ne i32 %47, 0, !llfi_index !431
  br i1 %48, label %49, label %70, !llfi_index !432

49:                                               ; preds = %36
  %50 = load i32, i32* %3, align 4, !llfi_index !433
  %51 = load i32, i32* %3, align 4, !llfi_index !434
  %52 = sext i32 %51 to i64, !llfi_index !435
  %53 = getelementptr inbounds [100005 x i32], [100005 x i32]* @A, i64 0, i64 %52, !llfi_index !436
  %54 = load i32, i32* %53, align 4, !llfi_index !437
  %55 = sext i32 %54 to i64, !llfi_index !438
  %56 = getelementptr inbounds [1000005 x i32], [1000005 x i32]* @lst, i64 0, i64 %55, !llfi_index !439
  %57 = load i32, i32* %56, align 4, !llfi_index !440
  %58 = sext i32 %57 to i64, !llfi_index !441
  %59 = getelementptr inbounds [100005 x i32], [100005 x i32]* @R, i64 0, i64 %58, !llfi_index !442
  store i32 %50, i32* %59, align 4, !llfi_index !443
  %60 = load i32, i32* %3, align 4, !llfi_index !444
  %61 = sext i32 %60 to i64, !llfi_index !445
  %62 = getelementptr inbounds [100005 x i32], [100005 x i32]* @A, i64 0, i64 %61, !llfi_index !446
  %63 = load i32, i32* %62, align 4, !llfi_index !447
  %64 = sext i32 %63 to i64, !llfi_index !448
  %65 = getelementptr inbounds [1000005 x i32], [1000005 x i32]* @lst, i64 0, i64 %64, !llfi_index !449
  %66 = load i32, i32* %65, align 4, !llfi_index !450
  %67 = load i32, i32* %3, align 4, !llfi_index !451
  %68 = sext i32 %67 to i64, !llfi_index !452
  %69 = getelementptr inbounds [100005 x i32], [100005 x i32]* @L, i64 0, i64 %68, !llfi_index !453
  store i32 %66, i32* %69, align 4, !llfi_index !454
  br label %74, !llfi_index !455

70:                                               ; preds = %36
  %71 = load i32, i32* %3, align 4, !llfi_index !456
  %72 = sext i32 %71 to i64, !llfi_index !457
  %73 = getelementptr inbounds [100005 x i32], [100005 x i32]* @L, i64 0, i64 %72, !llfi_index !458
  store i32 0, i32* %73, align 4, !llfi_index !459
  br label %74, !llfi_index !460

74:                                               ; preds = %70, %49
  %75 = load i32, i32* %3, align 4, !llfi_index !461
  %76 = load i32, i32* %3, align 4, !llfi_index !462
  %77 = sext i32 %76 to i64, !llfi_index !463
  %78 = getelementptr inbounds [100005 x i32], [100005 x i32]* @A, i64 0, i64 %77, !llfi_index !464
  %79 = load i32, i32* %78, align 4, !llfi_index !465
  %80 = sext i32 %79 to i64, !llfi_index !466
  %81 = getelementptr inbounds [1000005 x i32], [1000005 x i32]* @lst, i64 0, i64 %80, !llfi_index !467
  store i32 %75, i32* %81, align 4, !llfi_index !468
  br label %82, !llfi_index !469

82:                                               ; preds = %74
  %83 = load i32, i32* %3, align 4, !llfi_index !470
  %84 = add nsw i32 %83, 1, !llfi_index !471
  store i32 %84, i32* %3, align 4, !llfi_index !472
  br label %32, !llvm.loop !473, !llfi_index !475

85:                                               ; preds = %32
  store i32 89, i32* %2, align 4, !llfi_index !476
  store i32 0, i32* %4, align 4, !llfi_index !477
  br label %86, !llfi_index !478

86:                                               ; preds = %98, %85
  %87 = load i32, i32* %4, align 4, !llfi_index !479
  %88 = icmp slt i32 %87, 1000005, !llfi_index !480
  br i1 %88, label %89, label %101, !llfi_index !481

89:                                               ; preds = %86
  %90 = load i32, i32* @n, align 4, !llfi_index !482
  %91 = add nsw i32 %90, 1, !llfi_index !483
  %92 = load i32, i32* %4, align 4, !llfi_index !484
  %93 = sext i32 %92 to i64, !llfi_index !485
  %94 = getelementptr inbounds [1000005 x i32], [1000005 x i32]* @lst, i64 0, i64 %93, !llfi_index !486
  %95 = load i32, i32* %94, align 4, !llfi_index !487
  %96 = sext i32 %95 to i64, !llfi_index !488
  %97 = getelementptr inbounds [100005 x i32], [100005 x i32]* @R, i64 0, i64 %96, !llfi_index !489
  store i32 %91, i32* %97, align 4, !llfi_index !490
  br label %98, !llfi_index !491

98:                                               ; preds = %89
  %99 = load i32, i32* %4, align 4, !llfi_index !492
  %100 = add nsw i32 %99, 1, !llfi_index !493
  store i32 %100, i32* %4, align 4, !llfi_index !494
  br label %86, !llvm.loop !495, !llfi_index !496

101:                                              ; preds = %86
  store i32 89, i32* %2, align 4, !llfi_index !497
  store i32 1, i32* %5, align 4, !llfi_index !498
  br label %102, !llfi_index !499

102:                                              ; preds = %120, %101
  %103 = load i32, i32* %5, align 4, !llfi_index !500
  %104 = load i32, i32* @n, align 4, !llfi_index !501
  %105 = add nsw i32 %104, 1, !llfi_index !502
  %106 = icmp sle i32 %103, %105, !llfi_index !503
  br i1 %106, label %107, label %123, !llfi_index !504

107:                                              ; preds = %102
  %108 = load i32, i32* %5, align 4, !llfi_index !505
  %109 = sext i32 %108 to i64, !llfi_index !506
  %110 = getelementptr inbounds [100005 x i32], [100005 x i32]* @L, i64 0, i64 %109, !llfi_index !507
  %111 = load i32, i32* %5, align 4, !llfi_index !508
  %112 = sub nsw i32 %111, 1, !llfi_index !509
  %113 = sext i32 %112 to i64, !llfi_index !510
  %114 = getelementptr inbounds [100005 x i32], [100005 x i32]* @L, i64 0, i64 %113, !llfi_index !511
  %115 = call nonnull align 4 dereferenceable(4) i32* @_ZSt3maxIiERKT_S2_S2_(i32* nonnull align 4 dereferenceable(4) %110, i32* nonnull align 4 dereferenceable(4) %114), !llfi_index !512
  %116 = load i32, i32* %115, align 4, !llfi_index !513
  %117 = load i32, i32* %5, align 4, !llfi_index !514
  %118 = sext i32 %117 to i64, !llfi_index !515
  %119 = getelementptr inbounds [100005 x i32], [100005 x i32]* @L, i64 0, i64 %118, !llfi_index !516
  store i32 %116, i32* %119, align 4, !llfi_index !517
  br label %120, !llfi_index !518

120:                                              ; preds = %107
  %121 = load i32, i32* %5, align 4, !llfi_index !519
  %122 = add nsw i32 %121, 1, !llfi_index !520
  store i32 %122, i32* %5, align 4, !llfi_index !521
  br label %102, !llvm.loop !522, !llfi_index !523

123:                                              ; preds = %102
  store i32 89, i32* %2, align 4, !llfi_index !524
  %124 = load i32, i32* @n, align 4, !llfi_index !525
  store i32 %124, i32* %6, align 4, !llfi_index !526
  br label %125, !llfi_index !527

125:                                              ; preds = %141, %123
  %126 = load i32, i32* %6, align 4, !llfi_index !528
  %127 = icmp sge i32 %126, 0, !llfi_index !529
  br i1 %127, label %128, label %144, !llfi_index !530

128:                                              ; preds = %125
  %129 = load i32, i32* %6, align 4, !llfi_index !531
  %130 = sext i32 %129 to i64, !llfi_index !532
  %131 = getelementptr inbounds [100005 x i32], [100005 x i32]* @R, i64 0, i64 %130, !llfi_index !533
  %132 = load i32, i32* %6, align 4, !llfi_index !534
  %133 = add nsw i32 %132, 1, !llfi_index !535
  %134 = sext i32 %133 to i64, !llfi_index !536
  %135 = getelementptr inbounds [100005 x i32], [100005 x i32]* @R, i64 0, i64 %134, !llfi_index !537
  %136 = call nonnull align 4 dereferenceable(4) i32* @_ZSt3minIiERKT_S2_S2_(i32* nonnull align 4 dereferenceable(4) %131, i32* nonnull align 4 dereferenceable(4) %135), !llfi_index !538
  %137 = load i32, i32* %136, align 4, !llfi_index !539
  %138 = load i32, i32* %6, align 4, !llfi_index !540
  %139 = sext i32 %138 to i64, !llfi_index !541
  %140 = getelementptr inbounds [100005 x i32], [100005 x i32]* @R, i64 0, i64 %139, !llfi_index !542
  store i32 %137, i32* %140, align 4, !llfi_index !543
  br label %141, !llfi_index !544

141:                                              ; preds = %128
  %142 = load i32, i32* %6, align 4, !llfi_index !545
  %143 = add nsw i32 %142, -1, !llfi_index !546
  store i32 %143, i32* %6, align 4, !llfi_index !547
  br label %125, !llvm.loop !548, !llfi_index !549

144:                                              ; preds = %125
  store i32 89, i32* %2, align 4, !llfi_index !550
  store i32 0, i32* %7, align 4, !llfi_index !551
  br label %145, !llfi_index !552

145:                                              ; preds = %220, %144
  %146 = load i32, i32* %7, align 4, !llfi_index !553
  %147 = load i32, i32* @q, align 4, !llfi_index !554
  %148 = icmp slt i32 %146, %147, !llfi_index !555
  br i1 %148, label %149, label %223, !llfi_index !556

149:                                              ; preds = %145
  %150 = load i32, i32* %7, align 4, !llfi_index !557
  %151 = sext i32 %150 to i64, !llfi_index !558
  %152 = getelementptr inbounds [100005 x i32], [100005 x i32]* @ql, i64 0, i64 %151, !llfi_index !559
  %153 = load i32, i32* %7, align 4, !llfi_index !560
  %154 = sext i32 %153 to i64, !llfi_index !561
  %155 = getelementptr inbounds [100005 x i32], [100005 x i32]* @qr, i64 0, i64 %154, !llfi_index !562
  %156 = call i32 (i8*, ...) @__isoc99_scanf(i8* getelementptr inbounds ([6 x i8], [6 x i8]* @.str.3, i64 0, i64 0), i32* %152, i32* %155), !llfi_index !563
  %157 = load i32, i32* %7, align 4, !llfi_index !564
  %158 = sext i32 %157 to i64, !llfi_index !565
  %159 = getelementptr inbounds [100005 x i32], [100005 x i32]* @qr, i64 0, i64 %158, !llfi_index !566
  %160 = load i32, i32* %159, align 4, !llfi_index !567
  %161 = load i32, i32* %7, align 4, !llfi_index !568
  %162 = sext i32 %161 to i64, !llfi_index !569
  %163 = getelementptr inbounds [100005 x i32], [100005 x i32]* @ql, i64 0, i64 %162, !llfi_index !570
  %164 = load i32, i32* %163, align 4, !llfi_index !571
  %165 = sub nsw i32 %160, %164, !llfi_index !572
  %166 = add nsw i32 %165, 1, !llfi_index !573
  %167 = icmp sle i32 %166, 320, !llfi_index !574
  br i1 %167, label %168, label %207, !llfi_index !575

168:                                              ; preds = %149
  store i32 89, i32* %2, align 4, !llfi_index !576
  %169 = load i32, i32* %7, align 4, !llfi_index !577
  %170 = sext i32 %169 to i64, !llfi_index !578
  %171 = getelementptr inbounds [100005 x i32], [100005 x i32]* @ql, i64 0, i64 %170, !llfi_index !579
  %172 = load i32, i32* %171, align 4, !llfi_index !580
  store i32 %172, i32* %8, align 4, !llfi_index !581
  br label %173, !llfi_index !582

173:                                              ; preds = %182, %168
  %174 = load i32, i32* %8, align 4, !llfi_index !583
  %175 = load i32, i32* %7, align 4, !llfi_index !584
  %176 = sext i32 %175 to i64, !llfi_index !585
  %177 = getelementptr inbounds [100005 x i32], [100005 x i32]* @qr, i64 0, i64 %176, !llfi_index !586
  %178 = load i32, i32* %177, align 4, !llfi_index !587
  %179 = icmp sle i32 %174, %178, !llfi_index !588
  br i1 %179, label %180, label %185, !llfi_index !589

180:                                              ; preds = %173
  %181 = load i32, i32* %8, align 4, !llfi_index !590
  call void @_Z3Addi(i32 %181), !llfi_index !591
  br label %182, !llfi_index !592

182:                                              ; preds = %180
  %183 = load i32, i32* %8, align 4, !llfi_index !593
  %184 = add nsw i32 %183, 1, !llfi_index !594
  store i32 %184, i32* %8, align 4, !llfi_index !595
  br label %173, !llvm.loop !596, !llfi_index !597

185:                                              ; preds = %173
  %186 = load i64, i64* @cur, align 8, !llfi_index !598
  %187 = load i32, i32* %7, align 4, !llfi_index !599
  %188 = sext i32 %187 to i64, !llfi_index !600
  %189 = getelementptr inbounds [100005 x i64], [100005 x i64]* @res, i64 0, i64 %188, !llfi_index !601
  store i64 %186, i64* %189, align 8, !llfi_index !602
  %190 = load i32, i32* %7, align 4, !llfi_index !603
  %191 = sext i32 %190 to i64, !llfi_index !604
  %192 = getelementptr inbounds [100005 x i32], [100005 x i32]* @ql, i64 0, i64 %191, !llfi_index !605
  %193 = load i32, i32* %192, align 4, !llfi_index !606
  store i32 %193, i32* %9, align 4, !llfi_index !607
  br label %194, !llfi_index !608

194:                                              ; preds = %203, %185
  %195 = load i32, i32* %9, align 4, !llfi_index !609
  %196 = load i32, i32* %7, align 4, !llfi_index !610
  %197 = sext i32 %196 to i64, !llfi_index !611
  %198 = getelementptr inbounds [100005 x i32], [100005 x i32]* @qr, i64 0, i64 %197, !llfi_index !612
  %199 = load i32, i32* %198, align 4, !llfi_index !613
  %200 = icmp sle i32 %195, %199, !llfi_index !614
  br i1 %200, label %201, label %206, !llfi_index !615

201:                                              ; preds = %194
  %202 = load i32, i32* %9, align 4, !llfi_index !616
  call void @_Z3Remi(i32 %202), !llfi_index !617
  br label %203, !llfi_index !618

203:                                              ; preds = %201
  %204 = load i32, i32* %9, align 4, !llfi_index !619
  %205 = add nsw i32 %204, 1, !llfi_index !620
  store i32 %205, i32* %9, align 4, !llfi_index !621
  br label %194, !llvm.loop !622, !llfi_index !623

206:                                              ; preds = %194
  br label %219, !llfi_index !624

207:                                              ; preds = %149
  %208 = load i32, i32* %7, align 4, !llfi_index !625
  %209 = sext i32 %208 to i64, !llfi_index !626
  %210 = getelementptr inbounds [100005 x i32], [100005 x i32]* @ql, i64 0, i64 %209, !llfi_index !627
  %211 = load i32, i32* %210, align 4, !llfi_index !628
  %212 = sdiv i32 %211, 320, !llfi_index !629
  %213 = add nsw i32 %212, 1, !llfi_index !630
  %214 = sext i32 %213 to i64, !llfi_index !631
  %215 = getelementptr inbounds [320 x %"class.std::vector"], [320 x %"class.std::vector"]* @quer, i64 0, i64 %214, !llfi_index !632
  %216 = load i32, i32* %7, align 4, !llfi_index !633
  %217 = sext i32 %216 to i64, !llfi_index !634
  %218 = getelementptr inbounds [100005 x i32], [100005 x i32]* @qr, i64 0, i64 %217, !llfi_index !635
  call void @_ZNSt4pairIiiEC2IRiS2_Lb1EEEOT_OT0_(%"struct.std::pair"* nonnull align 4 dereferenceable(8) %10, i32* nonnull align 4 dereferenceable(4) %218, i32* nonnull align 4 dereferenceable(4) %7), !llfi_index !636
  call void @_ZNSt6vectorISt4pairIiiESaIS1_EE9push_backEOS1_(%"class.std::vector"* nonnull align 8 dereferenceable(24) %215, %"struct.std::pair"* nonnull align 4 dereferenceable(8) %10), !llfi_index !637
  br label %219, !llfi_index !638

219:                                              ; preds = %207, %206
  br label %220, !llfi_index !639

220:                                              ; preds = %219
  %221 = load i32, i32* %7, align 4, !llfi_index !640
  %222 = add nsw i32 %221, 1, !llfi_index !641
  store i32 %222, i32* %7, align 4, !llfi_index !642
  br label %145, !llvm.loop !643, !llfi_index !644

223:                                              ; preds = %145
  store i32 89, i32* %2, align 4, !llfi_index !645
  store i32 0, i32* %11, align 4, !llfi_index !646
  br label %224, !llfi_index !647

224:                                              ; preds = %324, %223
  %225 = load i32, i32* %11, align 4, !llfi_index !648
  %226 = mul nsw i32 %225, 320, !llfi_index !649
  %227 = load i32, i32* @n, align 4, !llfi_index !650
  %228 = icmp sle i32 %226, %227, !llfi_index !651
  br i1 %228, label %229, label %327, !llfi_index !652

229:                                              ; preds = %224
  %230 = load i32, i32* %11, align 4, !llfi_index !653
  %231 = sext i32 %230 to i64, !llfi_index !654
  %232 = getelementptr inbounds [320 x %"class.std::vector"], [320 x %"class.std::vector"]* @quer, i64 0, i64 %231, !llfi_index !655
  %233 = call %"struct.std::pair"* @_ZNSt6vectorISt4pairIiiESaIS1_EE5beginEv(%"class.std::vector"* nonnull align 8 dereferenceable(24) %232) #2, !llfi_index !656
  %234 = getelementptr inbounds %"class.__gnu_cxx::__normal_iterator", %"class.__gnu_cxx::__normal_iterator"* %12, i32 0, i32 0, !llfi_index !657
  store %"struct.std::pair"* %233, %"struct.std::pair"** %234, align 8, !llfi_index !658
  %235 = load i32, i32* %11, align 4, !llfi_index !659
  %236 = sext i32 %235 to i64, !llfi_index !660
  %237 = getelementptr inbounds [320 x %"class.std::vector"], [320 x %"class.std::vector"]* @quer, i64 0, i64 %236, !llfi_index !661
  %238 = call %"struct.std::pair"* @_ZNSt6vectorISt4pairIiiESaIS1_EE3endEv(%"class.std::vector"* nonnull align 8 dereferenceable(24) %237) #2, !llfi_index !662
  %239 = getelementptr inbounds %"class.__gnu_cxx::__normal_iterator", %"class.__gnu_cxx::__normal_iterator"* %13, i32 0, i32 0, !llfi_index !663
  store %"struct.std::pair"* %238, %"struct.std::pair"** %239, align 8, !llfi_index !664
  %240 = getelementptr inbounds %"class.__gnu_cxx::__normal_iterator", %"class.__gnu_cxx::__normal_iterator"* %12, i32 0, i32 0, !llfi_index !665
  %241 = load %"struct.std::pair"*, %"struct.std::pair"** %240, align 8, !llfi_index !666
  %242 = getelementptr inbounds %"class.__gnu_cxx::__normal_iterator", %"class.__gnu_cxx::__normal_iterator"* %13, i32 0, i32 0, !llfi_index !667
  %243 = load %"struct.std::pair"*, %"struct.std::pair"** %242, align 8, !llfi_index !668
  call void @_ZSt4sortIN9__gnu_cxx17__normal_iteratorIPSt4pairIiiESt6vectorIS3_SaIS3_EEEEEvT_S9_(%"struct.std::pair"* %241, %"struct.std::pair"* %243), !llfi_index !669
  %244 = load i32, i32* %11, align 4, !llfi_index !670
  %245 = mul nsw i32 %244, 320, !llfi_index !671
  store i32 %245, i32* %14, align 4, !llfi_index !672
  %246 = load i32, i32* %11, align 4, !llfi_index !673
  %247 = mul nsw i32 %246, 320, !llfi_index !674
  store i32 %247, i32* %15, align 4, !llfi_index !675
  store i32 89, i32* %2, align 4, !llfi_index !676
  store i32 0, i32* %16, align 4, !llfi_index !677
  br label %248, !llfi_index !678

248:                                              ; preds = %302, %229
  %249 = load i32, i32* %16, align 4, !llfi_index !679
  %250 = sext i32 %249 to i64, !llfi_index !680
  %251 = load i32, i32* %11, align 4, !llfi_index !681
  %252 = sext i32 %251 to i64, !llfi_index !682
  %253 = getelementptr inbounds [320 x %"class.std::vector"], [320 x %"class.std::vector"]* @quer, i64 0, i64 %252, !llfi_index !683
  %254 = call i64 @_ZNKSt6vectorISt4pairIiiESaIS1_EE4sizeEv(%"class.std::vector"* nonnull align 8 dereferenceable(24) %253) #2, !llfi_index !684
  %255 = icmp ult i64 %250, %254, !llfi_index !685
  br i1 %255, label %256, label %305, !llfi_index !686

256:                                              ; preds = %248
  %257 = load i32, i32* %11, align 4, !llfi_index !687
  %258 = sext i32 %257 to i64, !llfi_index !688
  %259 = getelementptr inbounds [320 x %"class.std::vector"], [320 x %"class.std::vector"]* @quer, i64 0, i64 %258, !llfi_index !689
  %260 = load i32, i32* %16, align 4, !llfi_index !690
  %261 = sext i32 %260 to i64, !llfi_index !691
  %262 = call nonnull align 4 dereferenceable(8) %"struct.std::pair"* @_ZNSt6vectorISt4pairIiiESaIS1_EEixEm(%"class.std::vector"* nonnull align 8 dereferenceable(24) %259, i64 %261) #2, !llfi_index !692
  %263 = getelementptr inbounds %"struct.std::pair", %"struct.std::pair"* %262, i32 0, i32 1, !llfi_index !693
  %264 = load i32, i32* %263, align 4, !llfi_index !694
  store i32 %264, i32* %17, align 4, !llfi_index !695
  br label %265, !llfi_index !696

265:                                              ; preds = %272, %256
  %266 = load i32, i32* %15, align 4, !llfi_index !697
  %267 = load i32, i32* %17, align 4, !llfi_index !698
  %268 = sext i32 %267 to i64, !llfi_index !699
  %269 = getelementptr inbounds [100005 x i32], [100005 x i32]* @qr, i64 0, i64 %268, !llfi_index !700
  %270 = load i32, i32* %269, align 4, !llfi_index !701
  %271 = icmp sle i32 %266, %270, !llfi_index !702
  br i1 %271, label %272, label %275, !llfi_index !703

272:                                              ; preds = %265
  %273 = load i32, i32* %15, align 4, !llfi_index !704
  %274 = add nsw i32 %273, 1, !llfi_index !705
  store i32 %274, i32* %15, align 4, !llfi_index !706
  call void @_Z3Addi(i32 %273), !llfi_index !707
  br label %265, !llvm.loop !708, !llfi_index !709

275:                                              ; preds = %265
  br label %276, !llfi_index !710

276:                                              ; preds = %283, %275
  %277 = load i32, i32* %17, align 4, !llfi_index !711
  %278 = sext i32 %277 to i64, !llfi_index !712
  %279 = getelementptr inbounds [100005 x i32], [100005 x i32]* @ql, i64 0, i64 %278, !llfi_index !713
  %280 = load i32, i32* %279, align 4, !llfi_index !714
  %281 = load i32, i32* %14, align 4, !llfi_index !715
  %282 = icmp slt i32 %280, %281, !llfi_index !716
  br i1 %282, label %283, label %286, !llfi_index !717

283:                                              ; preds = %276
  %284 = load i32, i32* %14, align 4, !llfi_index !718
  %285 = add nsw i32 %284, -1, !llfi_index !719
  store i32 %285, i32* %14, align 4, !llfi_index !720
  call void @_Z3Addi(i32 %285), !llfi_index !721
  br label %276, !llvm.loop !722, !llfi_index !723

286:                                              ; preds = %276
  br label %287, !llfi_index !724

287:                                              ; preds = %294, %286
  %288 = load i32, i32* %14, align 4, !llfi_index !725
  %289 = load i32, i32* %17, align 4, !llfi_index !726
  %290 = sext i32 %289 to i64, !llfi_index !727
  %291 = getelementptr inbounds [100005 x i32], [100005 x i32]* @ql, i64 0, i64 %290, !llfi_index !728
  %292 = load i32, i32* %291, align 4, !llfi_index !729
  %293 = icmp slt i32 %288, %292, !llfi_index !730
  br i1 %293, label %294, label %297, !llfi_index !731

294:                                              ; preds = %287
  %295 = load i32, i32* %14, align 4, !llfi_index !732
  %296 = add nsw i32 %295, 1, !llfi_index !733
  store i32 %296, i32* %14, align 4, !llfi_index !734
  call void @_Z3Remi(i32 %295), !llfi_index !735
  br label %287, !llvm.loop !736, !llfi_index !737

297:                                              ; preds = %287
  %298 = load i64, i64* @cur, align 8, !llfi_index !738
  %299 = load i32, i32* %17, align 4, !llfi_index !739
  %300 = sext i32 %299 to i64, !llfi_index !740
  %301 = getelementptr inbounds [100005 x i64], [100005 x i64]* @res, i64 0, i64 %300, !llfi_index !741
  store i64 %298, i64* %301, align 8, !llfi_index !742
  br label %302, !llfi_index !743

302:                                              ; preds = %297
  %303 = load i32, i32* %16, align 4, !llfi_index !744
  %304 = add nsw i32 %303, 1, !llfi_index !745
  store i32 %304, i32* %16, align 4, !llfi_index !746
  br label %248, !llvm.loop !747, !llfi_index !748

305:                                              ; preds = %248
  br label %306, !llfi_index !749

306:                                              ; preds = %311, %305
  %307 = load i32, i32* %14, align 4, !llfi_index !750
  %308 = load i32, i32* %11, align 4, !llfi_index !751
  %309 = mul nsw i32 %308, 320, !llfi_index !752
  %310 = icmp slt i32 %307, %309, !llfi_index !753
  br i1 %310, label %311, label %314, !llfi_index !754

311:                                              ; preds = %306
  %312 = load i32, i32* %14, align 4, !llfi_index !755
  %313 = add nsw i32 %312, 1, !llfi_index !756
  store i32 %313, i32* %14, align 4, !llfi_index !757
  call void @_Z3Remi(i32 %312), !llfi_index !758
  br label %306, !llvm.loop !759, !llfi_index !760

314:                                              ; preds = %306
  br label %315, !llfi_index !761

315:                                              ; preds = %320, %314
  %316 = load i32, i32* %11, align 4, !llfi_index !762
  %317 = mul nsw i32 %316, 320, !llfi_index !763
  %318 = load i32, i32* %15, align 4, !llfi_index !764
  %319 = icmp slt i32 %317, %318, !llfi_index !765
  br i1 %319, label %320, label %323, !llfi_index !766

320:                                              ; preds = %315
  %321 = load i32, i32* %15, align 4, !llfi_index !767
  %322 = add nsw i32 %321, -1, !llfi_index !768
  store i32 %322, i32* %15, align 4, !llfi_index !769
  call void @_Z3Remi(i32 %322), !llfi_index !770
  br label %315, !llvm.loop !771, !llfi_index !772

323:                                              ; preds = %315
  br label %324, !llfi_index !773

324:                                              ; preds = %323
  %325 = load i32, i32* %11, align 4, !llfi_index !774
  %326 = add nsw i32 %325, 1, !llfi_index !775
  store i32 %326, i32* %11, align 4, !llfi_index !776
  br label %224, !llvm.loop !777, !llfi_index !778

327:                                              ; preds = %224
  store i32 89, i32* %2, align 4, !llfi_index !779
  store i32 0, i32* %18, align 4, !llfi_index !780
  br label %328, !llfi_index !781

328:                                              ; preds = %338, %327
  %329 = load i32, i32* %18, align 4, !llfi_index !782
  %330 = load i32, i32* @q, align 4, !llfi_index !783
  %331 = icmp slt i32 %329, %330, !llfi_index !784
  br i1 %331, label %332, label %341, !llfi_index !785

332:                                              ; preds = %328
  %333 = load i32, i32* %18, align 4, !llfi_index !786
  %334 = sext i32 %333 to i64, !llfi_index !787
  %335 = getelementptr inbounds [100005 x i64], [100005 x i64]* @res, i64 0, i64 %334, !llfi_index !788
  %336 = load i64, i64* %335, align 8, !llfi_index !789
  %337 = call i32 (i8*, ...) @printf(i8* getelementptr inbounds ([6 x i8], [6 x i8]* @.str.5, i64 0, i64 0), i64 %336), !llfi_index !790
  br label %338, !llfi_index !791

338:                                              ; preds = %332
  %339 = load i32, i32* %18, align 4, !llfi_index !792
  %340 = add nsw i32 %339, 1, !llfi_index !793
  store i32 %340, i32* %18, align 4, !llfi_index !794
  br label %328, !llvm.loop !795, !llfi_index !796

341:                                              ; preds = %328
  ret i32 0, !llfi_index !797
}

declare dso_local %struct._IO_FILE* @freopen(i8*, i8*, %struct._IO_FILE*) #7

declare dso_local i32 @__isoc99_scanf(i8*, ...) #7

; Function Attrs: noinline nounwind uwtable
define linkonce_odr dso_local void @_ZNSt4pairIiiEC2IRiS2_Lb1EEEOT_OT0_(%"struct.std::pair"* nonnull align 4 dereferenceable(8) %0, i32* nonnull align 4 dereferenceable(4) %1, i32* nonnull align 4 dereferenceable(4) %2) unnamed_addr #1 comdat align 2 {
  %4 = alloca %"struct.std::pair"*, align 8, !llfi_index !798
  %5 = alloca i32*, align 8, !llfi_index !799
  %6 = alloca i32*, align 8, !llfi_index !800
  store %"struct.std::pair"* %0, %"struct.std::pair"** %4, align 8, !llfi_index !801
  store i32* %1, i32** %5, align 8, !llfi_index !802
  store i32* %2, i32** %6, align 8, !llfi_index !803
  %7 = load %"struct.std::pair"*, %"struct.std::pair"** %4, align 8, !llfi_index !804
  %8 = bitcast %"struct.std::pair"* %7 to %"class.std::allocator"*, !llfi_index !805
  %9 = getelementptr inbounds %"struct.std::pair", %"struct.std::pair"* %7, i32 0, i32 0, !llfi_index !806
  %10 = load i32*, i32** %5, align 8, !llfi_index !807
  %11 = call nonnull align 4 dereferenceable(4) i32* @_ZSt7forwardIRiEOT_RNSt16remove_referenceIS1_E4typeE(i32* nonnull align 4 dereferenceable(4) %10) #2, !llfi_index !808
  %12 = load i32, i32* %11, align 4, !llfi_index !809
  store i32 %12, i32* %9, align 4, !llfi_index !810
  %13 = getelementptr inbounds %"struct.std::pair", %"struct.std::pair"* %7, i32 0, i32 1, !llfi_index !811
  %14 = load i32*, i32** %6, align 8, !llfi_index !812
  %15 = call nonnull align 4 dereferenceable(4) i32* @_ZSt7forwardIRiEOT_RNSt16remove_referenceIS1_E4typeE(i32* nonnull align 4 dereferenceable(4) %14) #2, !llfi_index !813
  %16 = load i32, i32* %15, align 4, !llfi_index !814
  store i32 %16, i32* %13, align 4, !llfi_index !815
  ret void, !llfi_index !816
}

; Function Attrs: mustprogress noinline uwtable
define linkonce_odr dso_local void @_ZNSt6vectorISt4pairIiiESaIS1_EE9push_backEOS1_(%"class.std::vector"* nonnull align 8 dereferenceable(24) %0, %"struct.std::pair"* nonnull align 4 dereferenceable(8) %1) #4 comdat align 2 {
  %3 = alloca %"class.std::vector"*, align 8, !llfi_index !817
  %4 = alloca %"struct.std::pair"*, align 8, !llfi_index !818
  store %"class.std::vector"* %0, %"class.std::vector"** %3, align 8, !llfi_index !819
  store %"struct.std::pair"* %1, %"struct.std::pair"** %4, align 8, !llfi_index !820
  %5 = load %"class.std::vector"*, %"class.std::vector"** %3, align 8, !llfi_index !821
  %6 = load %"struct.std::pair"*, %"struct.std::pair"** %4, align 8, !llfi_index !822
  %7 = call nonnull align 4 dereferenceable(8) %"struct.std::pair"* @_ZSt4moveIRSt4pairIiiEEONSt16remove_referenceIT_E4typeEOS4_(%"struct.std::pair"* nonnull align 4 dereferenceable(8) %6) #2, !llfi_index !823
  call void @_ZNSt6vectorISt4pairIiiESaIS1_EE12emplace_backIJS1_EEEvDpOT_(%"class.std::vector"* nonnull align 8 dereferenceable(24) %5, %"struct.std::pair"* nonnull align 4 dereferenceable(8) %7), !llfi_index !824
  ret void, !llfi_index !825
}

; Function Attrs: mustprogress noinline nounwind uwtable
define linkonce_odr dso_local %"struct.std::pair"* @_ZNSt6vectorISt4pairIiiESaIS1_EE5beginEv(%"class.std::vector"* nonnull align 8 dereferenceable(24) %0) #3 comdat align 2 {
  %2 = alloca %"class.__gnu_cxx::__normal_iterator", align 8, !llfi_index !826
  %3 = alloca %"class.std::vector"*, align 8, !llfi_index !827
  store %"class.std::vector"* %0, %"class.std::vector"** %3, align 8, !llfi_index !828
  %4 = load %"class.std::vector"*, %"class.std::vector"** %3, align 8, !llfi_index !829
  %5 = bitcast %"class.std::vector"* %4 to %"struct.std::_Vector_base"*, !llfi_index !830
  %6 = getelementptr inbounds %"struct.std::_Vector_base", %"struct.std::_Vector_base"* %5, i32 0, i32 0, !llfi_index !831
  %7 = bitcast %"struct.std::_Vector_base<std::pair<int, int>, std::allocator<std::pair<int, int>>>::_Vector_impl"* %6 to %"struct.std::_Vector_base<std::pair<int, int>, std::allocator<std::pair<int, int>>>::_Vector_impl_data"*, !llfi_index !832
  %8 = getelementptr inbounds %"struct.std::_Vector_base<std::pair<int, int>, std::allocator<std::pair<int, int>>>::_Vector_impl_data", %"struct.std::_Vector_base<std::pair<int, int>, std::allocator<std::pair<int, int>>>::_Vector_impl_data"* %7, i32 0, i32 0, !llfi_index !833
  call void @_ZN9__gnu_cxx17__normal_iteratorIPSt4pairIiiESt6vectorIS2_SaIS2_EEEC2ERKS3_(%"class.__gnu_cxx::__normal_iterator"* nonnull align 8 dereferenceable(8) %2, %"struct.std::pair"** nonnull align 8 dereferenceable(8) %8) #2, !llfi_index !834
  %9 = getelementptr inbounds %"class.__gnu_cxx::__normal_iterator", %"class.__gnu_cxx::__normal_iterator"* %2, i32 0, i32 0, !llfi_index !835
  %10 = load %"struct.std::pair"*, %"struct.std::pair"** %9, align 8, !llfi_index !836
  ret %"struct.std::pair"* %10, !llfi_index !837
}

; Function Attrs: mustprogress noinline nounwind uwtable
define linkonce_odr dso_local %"struct.std::pair"* @_ZNSt6vectorISt4pairIiiESaIS1_EE3endEv(%"class.std::vector"* nonnull align 8 dereferenceable(24) %0) #3 comdat align 2 {
  %2 = alloca %"class.__gnu_cxx::__normal_iterator", align 8, !llfi_index !838
  %3 = alloca %"class.std::vector"*, align 8, !llfi_index !839
  store %"class.std::vector"* %0, %"class.std::vector"** %3, align 8, !llfi_index !840
  %4 = load %"class.std::vector"*, %"class.std::vector"** %3, align 8, !llfi_index !841
  %5 = bitcast %"class.std::vector"* %4 to %"struct.std::_Vector_base"*, !llfi_index !842
  %6 = getelementptr inbounds %"struct.std::_Vector_base", %"struct.std::_Vector_base"* %5, i32 0, i32 0, !llfi_index !843
  %7 = bitcast %"struct.std::_Vector_base<std::pair<int, int>, std::allocator<std::pair<int, int>>>::_Vector_impl"* %6 to %"struct.std::_Vector_base<std::pair<int, int>, std::allocator<std::pair<int, int>>>::_Vector_impl_data"*, !llfi_index !844
  %8 = getelementptr inbounds %"struct.std::_Vector_base<std::pair<int, int>, std::allocator<std::pair<int, int>>>::_Vector_impl_data", %"struct.std::_Vector_base<std::pair<int, int>, std::allocator<std::pair<int, int>>>::_Vector_impl_data"* %7, i32 0, i32 1, !llfi_index !845
  call void @_ZN9__gnu_cxx17__normal_iteratorIPSt4pairIiiESt6vectorIS2_SaIS2_EEEC2ERKS3_(%"class.__gnu_cxx::__normal_iterator"* nonnull align 8 dereferenceable(8) %2, %"struct.std::pair"** nonnull align 8 dereferenceable(8) %8) #2, !llfi_index !846
  %9 = getelementptr inbounds %"class.__gnu_cxx::__normal_iterator", %"class.__gnu_cxx::__normal_iterator"* %2, i32 0, i32 0, !llfi_index !847
  %10 = load %"struct.std::pair"*, %"struct.std::pair"** %9, align 8, !llfi_index !848
  ret %"struct.std::pair"* %10, !llfi_index !849
}

; Function Attrs: mustprogress noinline uwtable
define linkonce_odr dso_local void @_ZSt4sortIN9__gnu_cxx17__normal_iteratorIPSt4pairIiiESt6vectorIS3_SaIS3_EEEEEvT_S9_(%"struct.std::pair"* %0, %"struct.std::pair"* %1) #4 comdat {
  %3 = alloca %"class.__gnu_cxx::__normal_iterator", align 8, !llfi_index !850
  %4 = alloca %"class.__gnu_cxx::__normal_iterator", align 8, !llfi_index !851
  %5 = alloca %"class.__gnu_cxx::__normal_iterator", align 8, !llfi_index !852
  %6 = alloca %"class.__gnu_cxx::__normal_iterator", align 8, !llfi_index !853
  %7 = alloca %"class.std::allocator", align 1, !llfi_index !854
  %8 = alloca %"class.std::allocator", align 1, !llfi_index !855
  %9 = getelementptr inbounds %"class.__gnu_cxx::__normal_iterator", %"class.__gnu_cxx::__normal_iterator"* %3, i32 0, i32 0, !llfi_index !856
  store %"struct.std::pair"* %0, %"struct.std::pair"** %9, align 8, !llfi_index !857
  %10 = getelementptr inbounds %"class.__gnu_cxx::__normal_iterator", %"class.__gnu_cxx::__normal_iterator"* %4, i32 0, i32 0, !llfi_index !858
  store %"struct.std::pair"* %1, %"struct.std::pair"** %10, align 8, !llfi_index !859
  %11 = bitcast %"class.__gnu_cxx::__normal_iterator"* %5 to i8*, !llfi_index !860
  %12 = bitcast %"class.__gnu_cxx::__normal_iterator"* %3 to i8*, !llfi_index !861
  call void @llvm.memcpy.p0i8.p0i8.i64(i8* align 8 %11, i8* align 8 %12, i64 8, i1 false), !llfi_index !862
  %13 = bitcast %"class.__gnu_cxx::__normal_iterator"* %6 to i8*, !llfi_index !863
  %14 = bitcast %"class.__gnu_cxx::__normal_iterator"* %4 to i8*, !llfi_index !864
  call void @llvm.memcpy.p0i8.p0i8.i64(i8* align 8 %13, i8* align 8 %14, i64 8, i1 false), !llfi_index !865
  call void @_ZN9__gnu_cxx5__ops16__iter_less_iterEv(), !llfi_index !866
  %15 = getelementptr inbounds %"class.__gnu_cxx::__normal_iterator", %"class.__gnu_cxx::__normal_iterator"* %5, i32 0, i32 0, !llfi_index !867
  %16 = load %"struct.std::pair"*, %"struct.std::pair"** %15, align 8, !llfi_index !868
  %17 = getelementptr inbounds %"class.__gnu_cxx::__normal_iterator", %"class.__gnu_cxx::__normal_iterator"* %6, i32 0, i32 0, !llfi_index !869
  %18 = load %"struct.std::pair"*, %"struct.std::pair"** %17, align 8, !llfi_index !870
  call void @_ZSt6__sortIN9__gnu_cxx17__normal_iteratorIPSt4pairIiiESt6vectorIS3_SaIS3_EEEENS0_5__ops15_Iter_less_iterEEvT_SB_T0_(%"struct.std::pair"* %16, %"struct.std::pair"* %18), !llfi_index !871
  ret void, !llfi_index !872
}

; Function Attrs: mustprogress noinline nounwind uwtable
define linkonce_odr dso_local i64 @_ZNKSt6vectorISt4pairIiiESaIS1_EE4sizeEv(%"class.std::vector"* nonnull align 8 dereferenceable(24) %0) #3 comdat align 2 {
  %2 = alloca %"class.std::vector"*, align 8, !llfi_index !873
  store %"class.std::vector"* %0, %"class.std::vector"** %2, align 8, !llfi_index !874
  %3 = load %"class.std::vector"*, %"class.std::vector"** %2, align 8, !llfi_index !875
  %4 = bitcast %"class.std::vector"* %3 to %"struct.std::_Vector_base"*, !llfi_index !876
  %5 = getelementptr inbounds %"struct.std::_Vector_base", %"struct.std::_Vector_base"* %4, i32 0, i32 0, !llfi_index !877
  %6 = bitcast %"struct.std::_Vector_base<std::pair<int, int>, std::allocator<std::pair<int, int>>>::_Vector_impl"* %5 to %"struct.std::_Vector_base<std::pair<int, int>, std::allocator<std::pair<int, int>>>::_Vector_impl_data"*, !llfi_index !878
  %7 = getelementptr inbounds %"struct.std::_Vector_base<std::pair<int, int>, std::allocator<std::pair<int, int>>>::_Vector_impl_data", %"struct.std::_Vector_base<std::pair<int, int>, std::allocator<std::pair<int, int>>>::_Vector_impl_data"* %6, i32 0, i32 1, !llfi_index !879
  %8 = load %"struct.std::pair"*, %"struct.std::pair"** %7, align 8, !llfi_index !880
  %9 = bitcast %"class.std::vector"* %3 to %"struct.std::_Vector_base"*, !llfi_index !881
  %10 = getelementptr inbounds %"struct.std::_Vector_base", %"struct.std::_Vector_base"* %9, i32 0, i32 0, !llfi_index !882
  %11 = bitcast %"struct.std::_Vector_base<std::pair<int, int>, std::allocator<std::pair<int, int>>>::_Vector_impl"* %10 to %"struct.std::_Vector_base<std::pair<int, int>, std::allocator<std::pair<int, int>>>::_Vector_impl_data"*, !llfi_index !883
  %12 = getelementptr inbounds %"struct.std::_Vector_base<std::pair<int, int>, std::allocator<std::pair<int, int>>>::_Vector_impl_data", %"struct.std::_Vector_base<std::pair<int, int>, std::allocator<std::pair<int, int>>>::_Vector_impl_data"* %11, i32 0, i32 0, !llfi_index !884
  %13 = load %"struct.std::pair"*, %"struct.std::pair"** %12, align 8, !llfi_index !885
  %14 = ptrtoint %"struct.std::pair"* %8 to i64, !llfi_index !886
  %15 = ptrtoint %"struct.std::pair"* %13 to i64, !llfi_index !887
  %16 = sub i64 %14, %15, !llfi_index !888
  %17 = sdiv exact i64 %16, 8, !llfi_index !889
  ret i64 %17, !llfi_index !890
}

; Function Attrs: mustprogress noinline nounwind uwtable
define linkonce_odr dso_local nonnull align 4 dereferenceable(8) %"struct.std::pair"* @_ZNSt6vectorISt4pairIiiESaIS1_EEixEm(%"class.std::vector"* nonnull align 8 dereferenceable(24) %0, i64 %1) #3 comdat align 2 {
  %3 = alloca %"class.std::vector"*, align 8, !llfi_index !891
  %4 = alloca i64, align 8, !llfi_index !892
  store %"class.std::vector"* %0, %"class.std::vector"** %3, align 8, !llfi_index !893
  store i64 %1, i64* %4, align 8, !llfi_index !894
  %5 = load %"class.std::vector"*, %"class.std::vector"** %3, align 8, !llfi_index !895
  %6 = bitcast %"class.std::vector"* %5 to %"struct.std::_Vector_base"*, !llfi_index !896
  %7 = getelementptr inbounds %"struct.std::_Vector_base", %"struct.std::_Vector_base"* %6, i32 0, i32 0, !llfi_index !897
  %8 = bitcast %"struct.std::_Vector_base<std::pair<int, int>, std::allocator<std::pair<int, int>>>::_Vector_impl"* %7 to %"struct.std::_Vector_base<std::pair<int, int>, std::allocator<std::pair<int, int>>>::_Vector_impl_data"*, !llfi_index !898
  %9 = getelementptr inbounds %"struct.std::_Vector_base<std::pair<int, int>, std::allocator<std::pair<int, int>>>::_Vector_impl_data", %"struct.std::_Vector_base<std::pair<int, int>, std::allocator<std::pair<int, int>>>::_Vector_impl_data"* %8, i32 0, i32 0, !llfi_index !899
  %10 = load %"struct.std::pair"*, %"struct.std::pair"** %9, align 8, !llfi_index !900
  %11 = load i64, i64* %4, align 8, !llfi_index !901
  %12 = getelementptr inbounds %"struct.std::pair", %"struct.std::pair"* %10, i64 %11, !llfi_index !902
  ret %"struct.std::pair"* %12, !llfi_index !903
}

declare dso_local i32 @printf(i8*, ...) #7

; Function Attrs: argmemonly nofree nounwind willreturn
declare void @llvm.memcpy.p0i8.p0i8.i64(i8* noalias nocapture writeonly, i8* noalias nocapture readonly, i64, i1 immarg) #10

; Function Attrs: mustprogress noinline nounwind uwtable
define linkonce_odr dso_local void @_ZN9__gnu_cxx5__ops16__iter_less_iterEv() #3 comdat {
  ret void, !llfi_index !904
}

; Function Attrs: mustprogress noinline uwtable
define linkonce_odr dso_local void @_ZSt6__sortIN9__gnu_cxx17__normal_iteratorIPSt4pairIiiESt6vectorIS3_SaIS3_EEEENS0_5__ops15_Iter_less_iterEEvT_SB_T0_(%"struct.std::pair"* %0, %"struct.std::pair"* %1) #4 comdat {
  %3 = alloca %"class.__gnu_cxx::__normal_iterator", align 8, !llfi_index !905
  %4 = alloca %"class.__gnu_cxx::__normal_iterator", align 8, !llfi_index !906
  %5 = alloca %"class.std::allocator", align 1, !llfi_index !907
  %6 = alloca %"class.__gnu_cxx::__normal_iterator", align 8, !llfi_index !908
  %7 = alloca %"class.__gnu_cxx::__normal_iterator", align 8, !llfi_index !909
  %8 = alloca %"class.std::allocator", align 1, !llfi_index !910
  %9 = alloca %"class.__gnu_cxx::__normal_iterator", align 8, !llfi_index !911
  %10 = alloca %"class.__gnu_cxx::__normal_iterator", align 8, !llfi_index !912
  %11 = alloca %"class.std::allocator", align 1, !llfi_index !913
  %12 = getelementptr inbounds %"class.__gnu_cxx::__normal_iterator", %"class.__gnu_cxx::__normal_iterator"* %3, i32 0, i32 0, !llfi_index !914
  store %"struct.std::pair"* %0, %"struct.std::pair"** %12, align 8, !llfi_index !915
  %13 = getelementptr inbounds %"class.__gnu_cxx::__normal_iterator", %"class.__gnu_cxx::__normal_iterator"* %4, i32 0, i32 0, !llfi_index !916
  store %"struct.std::pair"* %1, %"struct.std::pair"** %13, align 8, !llfi_index !917
  %14 = call zeroext i1 @_ZN9__gnu_cxxneIPSt4pairIiiESt6vectorIS2_SaIS2_EEEEbRKNS_17__normal_iteratorIT_T0_EESC_(%"class.__gnu_cxx::__normal_iterator"* nonnull align 8 dereferenceable(8) %3, %"class.__gnu_cxx::__normal_iterator"* nonnull align 8 dereferenceable(8) %4) #2, !llfi_index !918
  br i1 %14, label %15, label %35, !llfi_index !919

15:                                               ; preds = %2
  %16 = bitcast %"class.__gnu_cxx::__normal_iterator"* %6 to i8*, !llfi_index !920
  %17 = bitcast %"class.__gnu_cxx::__normal_iterator"* %3 to i8*, !llfi_index !921
  call void @llvm.memcpy.p0i8.p0i8.i64(i8* align 8 %16, i8* align 8 %17, i64 8, i1 false), !llfi_index !922
  %18 = bitcast %"class.__gnu_cxx::__normal_iterator"* %7 to i8*, !llfi_index !923
  %19 = bitcast %"class.__gnu_cxx::__normal_iterator"* %4 to i8*, !llfi_index !924
  call void @llvm.memcpy.p0i8.p0i8.i64(i8* align 8 %18, i8* align 8 %19, i64 8, i1 false), !llfi_index !925
  %20 = call i64 @_ZN9__gnu_cxxmiIPSt4pairIiiESt6vectorIS2_SaIS2_EEEENS_17__normal_iteratorIT_T0_E15difference_typeERKSA_SD_(%"class.__gnu_cxx::__normal_iterator"* nonnull align 8 dereferenceable(8) %4, %"class.__gnu_cxx::__normal_iterator"* nonnull align 8 dereferenceable(8) %3) #2, !llfi_index !926
  %21 = call i64 @_ZSt4__lgl(i64 %20), !llfi_index !927
  %22 = mul nsw i64 %21, 2, !llfi_index !928
  %23 = getelementptr inbounds %"class.__gnu_cxx::__normal_iterator", %"class.__gnu_cxx::__normal_iterator"* %6, i32 0, i32 0, !llfi_index !929
  %24 = load %"struct.std::pair"*, %"struct.std::pair"** %23, align 8, !llfi_index !930
  %25 = getelementptr inbounds %"class.__gnu_cxx::__normal_iterator", %"class.__gnu_cxx::__normal_iterator"* %7, i32 0, i32 0, !llfi_index !931
  %26 = load %"struct.std::pair"*, %"struct.std::pair"** %25, align 8, !llfi_index !932
  call void @_ZSt16__introsort_loopIN9__gnu_cxx17__normal_iteratorIPSt4pairIiiESt6vectorIS3_SaIS3_EEEElNS0_5__ops15_Iter_less_iterEEvT_SB_T0_T1_(%"struct.std::pair"* %24, %"struct.std::pair"* %26, i64 %22), !llfi_index !933
  %27 = bitcast %"class.__gnu_cxx::__normal_iterator"* %9 to i8*, !llfi_index !934
  %28 = bitcast %"class.__gnu_cxx::__normal_iterator"* %3 to i8*, !llfi_index !935
  call void @llvm.memcpy.p0i8.p0i8.i64(i8* align 8 %27, i8* align 8 %28, i64 8, i1 false), !llfi_index !936
  %29 = bitcast %"class.__gnu_cxx::__normal_iterator"* %10 to i8*, !llfi_index !937
  %30 = bitcast %"class.__gnu_cxx::__normal_iterator"* %4 to i8*, !llfi_index !938
  call void @llvm.memcpy.p0i8.p0i8.i64(i8* align 8 %29, i8* align 8 %30, i64 8, i1 false), !llfi_index !939
  %31 = getelementptr inbounds %"class.__gnu_cxx::__normal_iterator", %"class.__gnu_cxx::__normal_iterator"* %9, i32 0, i32 0, !llfi_index !940
  %32 = load %"struct.std::pair"*, %"struct.std::pair"** %31, align 8, !llfi_index !941
  %33 = getelementptr inbounds %"class.__gnu_cxx::__normal_iterator", %"class.__gnu_cxx::__normal_iterator"* %10, i32 0, i32 0, !llfi_index !942
  %34 = load %"struct.std::pair"*, %"struct.std::pair"** %33, align 8, !llfi_index !943
  call void @_ZSt22__final_insertion_sortIN9__gnu_cxx17__normal_iteratorIPSt4pairIiiESt6vectorIS3_SaIS3_EEEENS0_5__ops15_Iter_less_iterEEvT_SB_T0_(%"struct.std::pair"* %32, %"struct.std::pair"* %34), !llfi_index !944
  br label %35, !llfi_index !945

35:                                               ; preds = %15, %2
  ret void, !llfi_index !946
}

; Function Attrs: mustprogress noinline nounwind uwtable
define linkonce_odr dso_local zeroext i1 @_ZN9__gnu_cxxneIPSt4pairIiiESt6vectorIS2_SaIS2_EEEEbRKNS_17__normal_iteratorIT_T0_EESC_(%"class.__gnu_cxx::__normal_iterator"* nonnull align 8 dereferenceable(8) %0, %"class.__gnu_cxx::__normal_iterator"* nonnull align 8 dereferenceable(8) %1) #3 comdat {
  %3 = alloca %"class.__gnu_cxx::__normal_iterator"*, align 8, !llfi_index !947
  %4 = alloca %"class.__gnu_cxx::__normal_iterator"*, align 8, !llfi_index !948
  store %"class.__gnu_cxx::__normal_iterator"* %0, %"class.__gnu_cxx::__normal_iterator"** %3, align 8, !llfi_index !949
  store %"class.__gnu_cxx::__normal_iterator"* %1, %"class.__gnu_cxx::__normal_iterator"** %4, align 8, !llfi_index !950
  %5 = load %"class.__gnu_cxx::__normal_iterator"*, %"class.__gnu_cxx::__normal_iterator"** %3, align 8, !llfi_index !951
  %6 = call nonnull align 8 dereferenceable(8) %"struct.std::pair"** @_ZNK9__gnu_cxx17__normal_iteratorIPSt4pairIiiESt6vectorIS2_SaIS2_EEE4baseEv(%"class.__gnu_cxx::__normal_iterator"* nonnull align 8 dereferenceable(8) %5) #2, !llfi_index !952
  %7 = load %"struct.std::pair"*, %"struct.std::pair"** %6, align 8, !llfi_index !953
  %8 = load %"class.__gnu_cxx::__normal_iterator"*, %"class.__gnu_cxx::__normal_iterator"** %4, align 8, !llfi_index !954
  %9 = call nonnull align 8 dereferenceable(8) %"struct.std::pair"** @_ZNK9__gnu_cxx17__normal_iteratorIPSt4pairIiiESt6vectorIS2_SaIS2_EEE4baseEv(%"class.__gnu_cxx::__normal_iterator"* nonnull align 8 dereferenceable(8) %8) #2, !llfi_index !955
  %10 = load %"struct.std::pair"*, %"struct.std::pair"** %9, align 8, !llfi_index !956
  %11 = icmp ne %"struct.std::pair"* %7, %10, !llfi_index !957
  ret i1 %11, !llfi_index !958
}

; Function Attrs: mustprogress noinline nounwind uwtable
define linkonce_odr dso_local i64 @_ZN9__gnu_cxxmiIPSt4pairIiiESt6vectorIS2_SaIS2_EEEENS_17__normal_iteratorIT_T0_E15difference_typeERKSA_SD_(%"class.__gnu_cxx::__normal_iterator"* nonnull align 8 dereferenceable(8) %0, %"class.__gnu_cxx::__normal_iterator"* nonnull align 8 dereferenceable(8) %1) #3 comdat {
  %3 = alloca %"class.__gnu_cxx::__normal_iterator"*, align 8, !llfi_index !959
  %4 = alloca %"class.__gnu_cxx::__normal_iterator"*, align 8, !llfi_index !960
  store %"class.__gnu_cxx::__normal_iterator"* %0, %"class.__gnu_cxx::__normal_iterator"** %3, align 8, !llfi_index !961
  store %"class.__gnu_cxx::__normal_iterator"* %1, %"class.__gnu_cxx::__normal_iterator"** %4, align 8, !llfi_index !962
  %5 = load %"class.__gnu_cxx::__normal_iterator"*, %"class.__gnu_cxx::__normal_iterator"** %3, align 8, !llfi_index !963
  %6 = call nonnull align 8 dereferenceable(8) %"struct.std::pair"** @_ZNK9__gnu_cxx17__normal_iteratorIPSt4pairIiiESt6vectorIS2_SaIS2_EEE4baseEv(%"class.__gnu_cxx::__normal_iterator"* nonnull align 8 dereferenceable(8) %5) #2, !llfi_index !964
  %7 = load %"struct.std::pair"*, %"struct.std::pair"** %6, align 8, !llfi_index !965
  %8 = load %"class.__gnu_cxx::__normal_iterator"*, %"class.__gnu_cxx::__normal_iterator"** %4, align 8, !llfi_index !966
  %9 = call nonnull align 8 dereferenceable(8) %"struct.std::pair"** @_ZNK9__gnu_cxx17__normal_iteratorIPSt4pairIiiESt6vectorIS2_SaIS2_EEE4baseEv(%"class.__gnu_cxx::__normal_iterator"* nonnull align 8 dereferenceable(8) %8) #2, !llfi_index !967
  %10 = load %"struct.std::pair"*, %"struct.std::pair"** %9, align 8, !llfi_index !968
  %11 = ptrtoint %"struct.std::pair"* %7 to i64, !llfi_index !969
  %12 = ptrtoint %"struct.std::pair"* %10 to i64, !llfi_index !970
  %13 = sub i64 %11, %12, !llfi_index !971
  %14 = sdiv exact i64 %13, 8, !llfi_index !972
  ret i64 %14, !llfi_index !973
}

; Function Attrs: mustprogress noinline nounwind uwtable
define linkonce_odr dso_local i64 @_ZSt4__lgl(i64 %0) #3 comdat {
  %2 = alloca i64, align 8, !llfi_index !974
  store i64 %0, i64* %2, align 8, !llfi_index !975
  %3 = load i64, i64* %2, align 8, !llfi_index !976
  %4 = call i64 @llvm.ctlz.i64(i64 %3, i1 true), !llfi_index !977
  %5 = trunc i64 %4 to i32, !llfi_index !978
  %6 = sub nsw i32 63, %5, !llfi_index !979
  %7 = sext i32 %6 to i64, !llfi_index !980
  ret i64 %7, !llfi_index !981
}

; Function Attrs: mustprogress noinline uwtable
define linkonce_odr dso_local void @_ZSt16__introsort_loopIN9__gnu_cxx17__normal_iteratorIPSt4pairIiiESt6vectorIS3_SaIS3_EEEElNS0_5__ops15_Iter_less_iterEEvT_SB_T0_T1_(%"struct.std::pair"* %0, %"struct.std::pair"* %1, i64 %2) #4 comdat {
  %4 = alloca %"class.__gnu_cxx::__normal_iterator", align 8, !llfi_index !982
  %5 = alloca %"class.__gnu_cxx::__normal_iterator", align 8, !llfi_index !983
  %6 = alloca %"class.std::allocator", align 1, !llfi_index !984
  %7 = alloca i64, align 8, !llfi_index !985
  %8 = alloca %"class.__gnu_cxx::__normal_iterator", align 8, !llfi_index !986
  %9 = alloca %"class.__gnu_cxx::__normal_iterator", align 8, !llfi_index !987
  %10 = alloca %"class.__gnu_cxx::__normal_iterator", align 8, !llfi_index !988
  %11 = alloca %"class.std::allocator", align 1, !llfi_index !989
  %12 = alloca %"class.__gnu_cxx::__normal_iterator", align 8, !llfi_index !990
  %13 = alloca %"class.__gnu_cxx::__normal_iterator", align 8, !llfi_index !991
  %14 = alloca %"class.__gnu_cxx::__normal_iterator", align 8, !llfi_index !992
  %15 = alloca %"class.std::allocator", align 1, !llfi_index !993
  %16 = alloca %"class.__gnu_cxx::__normal_iterator", align 8, !llfi_index !994
  %17 = alloca %"class.__gnu_cxx::__normal_iterator", align 8, !llfi_index !995
  %18 = alloca %"class.std::allocator", align 1, !llfi_index !996
  %19 = getelementptr inbounds %"class.__gnu_cxx::__normal_iterator", %"class.__gnu_cxx::__normal_iterator"* %4, i32 0, i32 0, !llfi_index !997
  store %"struct.std::pair"* %0, %"struct.std::pair"** %19, align 8, !llfi_index !998
  %20 = getelementptr inbounds %"class.__gnu_cxx::__normal_iterator", %"class.__gnu_cxx::__normal_iterator"* %5, i32 0, i32 0, !llfi_index !999
  store %"struct.std::pair"* %1, %"struct.std::pair"** %20, align 8, !llfi_index !1000
  store i64 %2, i64* %7, align 8, !llfi_index !1001
  br label %21, !llfi_index !1002

21:                                               ; preds = %40, %3
  %22 = call i64 @_ZN9__gnu_cxxmiIPSt4pairIiiESt6vectorIS2_SaIS2_EEEENS_17__normal_iteratorIT_T0_E15difference_typeERKSA_SD_(%"class.__gnu_cxx::__normal_iterator"* nonnull align 8 dereferenceable(8) %5, %"class.__gnu_cxx::__normal_iterator"* nonnull align 8 dereferenceable(8) %4) #2, !llfi_index !1003
  %23 = icmp sgt i64 %22, 16, !llfi_index !1004
  br i1 %23, label %24, label %64, !llfi_index !1005

24:                                               ; preds = %21
  %25 = load i64, i64* %7, align 8, !llfi_index !1006
  %26 = icmp eq i64 %25, 0, !llfi_index !1007
  br i1 %26, label %27, label %40, !llfi_index !1008

27:                                               ; preds = %24
  %28 = bitcast %"class.__gnu_cxx::__normal_iterator"* %8 to i8*, !llfi_index !1009
  %29 = bitcast %"class.__gnu_cxx::__normal_iterator"* %4 to i8*, !llfi_index !1010
  call void @llvm.memcpy.p0i8.p0i8.i64(i8* align 8 %28, i8* align 8 %29, i64 8, i1 false), !llfi_index !1011
  %30 = bitcast %"class.__gnu_cxx::__normal_iterator"* %9 to i8*, !llfi_index !1012
  %31 = bitcast %"class.__gnu_cxx::__normal_iterator"* %5 to i8*, !llfi_index !1013
  call void @llvm.memcpy.p0i8.p0i8.i64(i8* align 8 %30, i8* align 8 %31, i64 8, i1 false), !llfi_index !1014
  %32 = bitcast %"class.__gnu_cxx::__normal_iterator"* %10 to i8*, !llfi_index !1015
  %33 = bitcast %"class.__gnu_cxx::__normal_iterator"* %5 to i8*, !llfi_index !1016
  call void @llvm.memcpy.p0i8.p0i8.i64(i8* align 8 %32, i8* align 8 %33, i64 8, i1 false), !llfi_index !1017
  %34 = getelementptr inbounds %"class.__gnu_cxx::__normal_iterator", %"class.__gnu_cxx::__normal_iterator"* %8, i32 0, i32 0, !llfi_index !1018
  %35 = load %"struct.std::pair"*, %"struct.std::pair"** %34, align 8, !llfi_index !1019
  %36 = getelementptr inbounds %"class.__gnu_cxx::__normal_iterator", %"class.__gnu_cxx::__normal_iterator"* %9, i32 0, i32 0, !llfi_index !1020
  %37 = load %"struct.std::pair"*, %"struct.std::pair"** %36, align 8, !llfi_index !1021
  %38 = getelementptr inbounds %"class.__gnu_cxx::__normal_iterator", %"class.__gnu_cxx::__normal_iterator"* %10, i32 0, i32 0, !llfi_index !1022
  %39 = load %"struct.std::pair"*, %"struct.std::pair"** %38, align 8, !llfi_index !1023
  call void @_ZSt14__partial_sortIN9__gnu_cxx17__normal_iteratorIPSt4pairIiiESt6vectorIS3_SaIS3_EEEENS0_5__ops15_Iter_less_iterEEvT_SB_SB_T0_(%"struct.std::pair"* %35, %"struct.std::pair"* %37, %"struct.std::pair"* %39), !llfi_index !1024
  br label %64, !llfi_index !1025

40:                                               ; preds = %24
  %41 = load i64, i64* %7, align 8, !llfi_index !1026
  %42 = add nsw i64 %41, -1, !llfi_index !1027
  store i64 %42, i64* %7, align 8, !llfi_index !1028
  %43 = bitcast %"class.__gnu_cxx::__normal_iterator"* %13 to i8*, !llfi_index !1029
  %44 = bitcast %"class.__gnu_cxx::__normal_iterator"* %4 to i8*, !llfi_index !1030
  call void @llvm.memcpy.p0i8.p0i8.i64(i8* align 8 %43, i8* align 8 %44, i64 8, i1 false), !llfi_index !1031
  %45 = bitcast %"class.__gnu_cxx::__normal_iterator"* %14 to i8*, !llfi_index !1032
  %46 = bitcast %"class.__gnu_cxx::__normal_iterator"* %5 to i8*, !llfi_index !1033
  call void @llvm.memcpy.p0i8.p0i8.i64(i8* align 8 %45, i8* align 8 %46, i64 8, i1 false), !llfi_index !1034
  %47 = getelementptr inbounds %"class.__gnu_cxx::__normal_iterator", %"class.__gnu_cxx::__normal_iterator"* %13, i32 0, i32 0, !llfi_index !1035
  %48 = load %"struct.std::pair"*, %"struct.std::pair"** %47, align 8, !llfi_index !1036
  %49 = getelementptr inbounds %"class.__gnu_cxx::__normal_iterator", %"class.__gnu_cxx::__normal_iterator"* %14, i32 0, i32 0, !llfi_index !1037
  %50 = load %"struct.std::pair"*, %"struct.std::pair"** %49, align 8, !llfi_index !1038
  %51 = call %"struct.std::pair"* @_ZSt27__unguarded_partition_pivotIN9__gnu_cxx17__normal_iteratorIPSt4pairIiiESt6vectorIS3_SaIS3_EEEENS0_5__ops15_Iter_less_iterEET_SB_SB_T0_(%"struct.std::pair"* %48, %"struct.std::pair"* %50), !llfi_index !1039
  %52 = getelementptr inbounds %"class.__gnu_cxx::__normal_iterator", %"class.__gnu_cxx::__normal_iterator"* %12, i32 0, i32 0, !llfi_index !1040
  store %"struct.std::pair"* %51, %"struct.std::pair"** %52, align 8, !llfi_index !1041
  %53 = bitcast %"class.__gnu_cxx::__normal_iterator"* %16 to i8*, !llfi_index !1042
  %54 = bitcast %"class.__gnu_cxx::__normal_iterator"* %12 to i8*, !llfi_index !1043
  call void @llvm.memcpy.p0i8.p0i8.i64(i8* align 8 %53, i8* align 8 %54, i64 8, i1 false), !llfi_index !1044
  %55 = bitcast %"class.__gnu_cxx::__normal_iterator"* %17 to i8*, !llfi_index !1045
  %56 = bitcast %"class.__gnu_cxx::__normal_iterator"* %5 to i8*, !llfi_index !1046
  call void @llvm.memcpy.p0i8.p0i8.i64(i8* align 8 %55, i8* align 8 %56, i64 8, i1 false), !llfi_index !1047
  %57 = load i64, i64* %7, align 8, !llfi_index !1048
  %58 = getelementptr inbounds %"class.__gnu_cxx::__normal_iterator", %"class.__gnu_cxx::__normal_iterator"* %16, i32 0, i32 0, !llfi_index !1049
  %59 = load %"struct.std::pair"*, %"struct.std::pair"** %58, align 8, !llfi_index !1050
  %60 = getelementptr inbounds %"class.__gnu_cxx::__normal_iterator", %"class.__gnu_cxx::__normal_iterator"* %17, i32 0, i32 0, !llfi_index !1051
  %61 = load %"struct.std::pair"*, %"struct.std::pair"** %60, align 8, !llfi_index !1052
  call void @_ZSt16__introsort_loopIN9__gnu_cxx17__normal_iteratorIPSt4pairIiiESt6vectorIS3_SaIS3_EEEElNS0_5__ops15_Iter_less_iterEEvT_SB_T0_T1_(%"struct.std::pair"* %59, %"struct.std::pair"* %61, i64 %57), !llfi_index !1053
  %62 = bitcast %"class.__gnu_cxx::__normal_iterator"* %5 to i8*, !llfi_index !1054
  %63 = bitcast %"class.__gnu_cxx::__normal_iterator"* %12 to i8*, !llfi_index !1055
  call void @llvm.memcpy.p0i8.p0i8.i64(i8* align 8 %62, i8* align 8 %63, i64 8, i1 false), !llfi_index !1056
  br label %21, !llvm.loop !1057, !llfi_index !1058

64:                                               ; preds = %27, %21
  ret void, !llfi_index !1059
}

; Function Attrs: mustprogress noinline uwtable
define linkonce_odr dso_local void @_ZSt22__final_insertion_sortIN9__gnu_cxx17__normal_iteratorIPSt4pairIiiESt6vectorIS3_SaIS3_EEEENS0_5__ops15_Iter_less_iterEEvT_SB_T0_(%"struct.std::pair"* %0, %"struct.std::pair"* %1) #4 comdat {
  %3 = alloca %"class.__gnu_cxx::__normal_iterator", align 8, !llfi_index !1060
  %4 = alloca %"class.__gnu_cxx::__normal_iterator", align 8, !llfi_index !1061
  %5 = alloca %"class.std::allocator", align 1, !llfi_index !1062
  %6 = alloca %"class.__gnu_cxx::__normal_iterator", align 8, !llfi_index !1063
  %7 = alloca %"class.__gnu_cxx::__normal_iterator", align 8, !llfi_index !1064
  %8 = alloca %"class.std::allocator", align 1, !llfi_index !1065
  %9 = alloca %"class.__gnu_cxx::__normal_iterator", align 8, !llfi_index !1066
  %10 = alloca %"class.__gnu_cxx::__normal_iterator", align 8, !llfi_index !1067
  %11 = alloca %"class.std::allocator", align 1, !llfi_index !1068
  %12 = alloca %"class.__gnu_cxx::__normal_iterator", align 8, !llfi_index !1069
  %13 = alloca %"class.__gnu_cxx::__normal_iterator", align 8, !llfi_index !1070
  %14 = alloca %"class.std::allocator", align 1, !llfi_index !1071
  %15 = getelementptr inbounds %"class.__gnu_cxx::__normal_iterator", %"class.__gnu_cxx::__normal_iterator"* %3, i32 0, i32 0, !llfi_index !1072
  store %"struct.std::pair"* %0, %"struct.std::pair"** %15, align 8, !llfi_index !1073
  %16 = getelementptr inbounds %"class.__gnu_cxx::__normal_iterator", %"class.__gnu_cxx::__normal_iterator"* %4, i32 0, i32 0, !llfi_index !1074
  store %"struct.std::pair"* %1, %"struct.std::pair"** %16, align 8, !llfi_index !1075
  %17 = call i64 @_ZN9__gnu_cxxmiIPSt4pairIiiESt6vectorIS2_SaIS2_EEEENS_17__normal_iteratorIT_T0_E15difference_typeERKSA_SD_(%"class.__gnu_cxx::__normal_iterator"* nonnull align 8 dereferenceable(8) %4, %"class.__gnu_cxx::__normal_iterator"* nonnull align 8 dereferenceable(8) %3) #2, !llfi_index !1076
  %18 = icmp sgt i64 %17, 16, !llfi_index !1077
  br i1 %18, label %19, label %36, !llfi_index !1078

19:                                               ; preds = %2
  %20 = bitcast %"class.__gnu_cxx::__normal_iterator"* %6 to i8*, !llfi_index !1079
  %21 = bitcast %"class.__gnu_cxx::__normal_iterator"* %3 to i8*, !llfi_index !1080
  call void @llvm.memcpy.p0i8.p0i8.i64(i8* align 8 %20, i8* align 8 %21, i64 8, i1 false), !llfi_index !1081
  %22 = call %"struct.std::pair"* @_ZNK9__gnu_cxx17__normal_iteratorIPSt4pairIiiESt6vectorIS2_SaIS2_EEEplEl(%"class.__gnu_cxx::__normal_iterator"* nonnull align 8 dereferenceable(8) %3, i64 16) #2, !llfi_index !1082
  %23 = getelementptr inbounds %"class.__gnu_cxx::__normal_iterator", %"class.__gnu_cxx::__normal_iterator"* %7, i32 0, i32 0, !llfi_index !1083
  store %"struct.std::pair"* %22, %"struct.std::pair"** %23, align 8, !llfi_index !1084
  %24 = getelementptr inbounds %"class.__gnu_cxx::__normal_iterator", %"class.__gnu_cxx::__normal_iterator"* %6, i32 0, i32 0, !llfi_index !1085
  %25 = load %"struct.std::pair"*, %"struct.std::pair"** %24, align 8, !llfi_index !1086
  %26 = getelementptr inbounds %"class.__gnu_cxx::__normal_iterator", %"class.__gnu_cxx::__normal_iterator"* %7, i32 0, i32 0, !llfi_index !1087
  %27 = load %"struct.std::pair"*, %"struct.std::pair"** %26, align 8, !llfi_index !1088
  call void @_ZSt16__insertion_sortIN9__gnu_cxx17__normal_iteratorIPSt4pairIiiESt6vectorIS3_SaIS3_EEEENS0_5__ops15_Iter_less_iterEEvT_SB_T0_(%"struct.std::pair"* %25, %"struct.std::pair"* %27), !llfi_index !1089
  %28 = call %"struct.std::pair"* @_ZNK9__gnu_cxx17__normal_iteratorIPSt4pairIiiESt6vectorIS2_SaIS2_EEEplEl(%"class.__gnu_cxx::__normal_iterator"* nonnull align 8 dereferenceable(8) %3, i64 16) #2, !llfi_index !1090
  %29 = getelementptr inbounds %"class.__gnu_cxx::__normal_iterator", %"class.__gnu_cxx::__normal_iterator"* %9, i32 0, i32 0, !llfi_index !1091
  store %"struct.std::pair"* %28, %"struct.std::pair"** %29, align 8, !llfi_index !1092
  %30 = bitcast %"class.__gnu_cxx::__normal_iterator"* %10 to i8*, !llfi_index !1093
  %31 = bitcast %"class.__gnu_cxx::__normal_iterator"* %4 to i8*, !llfi_index !1094
  call void @llvm.memcpy.p0i8.p0i8.i64(i8* align 8 %30, i8* align 8 %31, i64 8, i1 false), !llfi_index !1095
  %32 = getelementptr inbounds %"class.__gnu_cxx::__normal_iterator", %"class.__gnu_cxx::__normal_iterator"* %9, i32 0, i32 0, !llfi_index !1096
  %33 = load %"struct.std::pair"*, %"struct.std::pair"** %32, align 8, !llfi_index !1097
  %34 = getelementptr inbounds %"class.__gnu_cxx::__normal_iterator", %"class.__gnu_cxx::__normal_iterator"* %10, i32 0, i32 0, !llfi_index !1098
  %35 = load %"struct.std::pair"*, %"struct.std::pair"** %34, align 8, !llfi_index !1099
  call void @_ZSt26__unguarded_insertion_sortIN9__gnu_cxx17__normal_iteratorIPSt4pairIiiESt6vectorIS3_SaIS3_EEEENS0_5__ops15_Iter_less_iterEEvT_SB_T0_(%"struct.std::pair"* %33, %"struct.std::pair"* %35), !llfi_index !1100
  br label %45, !llfi_index !1101

36:                                               ; preds = %2
  %37 = bitcast %"class.__gnu_cxx::__normal_iterator"* %12 to i8*, !llfi_index !1102
  %38 = bitcast %"class.__gnu_cxx::__normal_iterator"* %3 to i8*, !llfi_index !1103
  call void @llvm.memcpy.p0i8.p0i8.i64(i8* align 8 %37, i8* align 8 %38, i64 8, i1 false), !llfi_index !1104
  %39 = bitcast %"class.__gnu_cxx::__normal_iterator"* %13 to i8*, !llfi_index !1105
  %40 = bitcast %"class.__gnu_cxx::__normal_iterator"* %4 to i8*, !llfi_index !1106
  call void @llvm.memcpy.p0i8.p0i8.i64(i8* align 8 %39, i8* align 8 %40, i64 8, i1 false), !llfi_index !1107
  %41 = getelementptr inbounds %"class.__gnu_cxx::__normal_iterator", %"class.__gnu_cxx::__normal_iterator"* %12, i32 0, i32 0, !llfi_index !1108
  %42 = load %"struct.std::pair"*, %"struct.std::pair"** %41, align 8, !llfi_index !1109
  %43 = getelementptr inbounds %"class.__gnu_cxx::__normal_iterator", %"class.__gnu_cxx::__normal_iterator"* %13, i32 0, i32 0, !llfi_index !1110
  %44 = load %"struct.std::pair"*, %"struct.std::pair"** %43, align 8, !llfi_index !1111
  call void @_ZSt16__insertion_sortIN9__gnu_cxx17__normal_iteratorIPSt4pairIiiESt6vectorIS3_SaIS3_EEEENS0_5__ops15_Iter_less_iterEEvT_SB_T0_(%"struct.std::pair"* %42, %"struct.std::pair"* %44), !llfi_index !1112
  br label %45, !llfi_index !1113

45:                                               ; preds = %36, %19
  ret void, !llfi_index !1114
}

; Function Attrs: mustprogress noinline nounwind uwtable
define linkonce_odr dso_local %"struct.std::pair"* @_ZNK9__gnu_cxx17__normal_iteratorIPSt4pairIiiESt6vectorIS2_SaIS2_EEEplEl(%"class.__gnu_cxx::__normal_iterator"* nonnull align 8 dereferenceable(8) %0, i64 %1) #3 comdat align 2 {
  %3 = alloca %"class.__gnu_cxx::__normal_iterator", align 8, !llfi_index !1115
  %4 = alloca %"class.__gnu_cxx::__normal_iterator"*, align 8, !llfi_index !1116
  %5 = alloca i64, align 8, !llfi_index !1117
  %6 = alloca %"struct.std::pair"*, align 8, !llfi_index !1118
  store %"class.__gnu_cxx::__normal_iterator"* %0, %"class.__gnu_cxx::__normal_iterator"** %4, align 8, !llfi_index !1119
  store i64 %1, i64* %5, align 8, !llfi_index !1120
  %7 = load %"class.__gnu_cxx::__normal_iterator"*, %"class.__gnu_cxx::__normal_iterator"** %4, align 8, !llfi_index !1121
  %8 = getelementptr inbounds %"class.__gnu_cxx::__normal_iterator", %"class.__gnu_cxx::__normal_iterator"* %7, i32 0, i32 0, !llfi_index !1122
  %9 = load %"struct.std::pair"*, %"struct.std::pair"** %8, align 8, !llfi_index !1123
  %10 = load i64, i64* %5, align 8, !llfi_index !1124
  %11 = getelementptr inbounds %"struct.std::pair", %"struct.std::pair"* %9, i64 %10, !llfi_index !1125
  store %"struct.std::pair"* %11, %"struct.std::pair"** %6, align 8, !llfi_index !1126
  call void @_ZN9__gnu_cxx17__normal_iteratorIPSt4pairIiiESt6vectorIS2_SaIS2_EEEC2ERKS3_(%"class.__gnu_cxx::__normal_iterator"* nonnull align 8 dereferenceable(8) %3, %"struct.std::pair"** nonnull align 8 dereferenceable(8) %6) #2, !llfi_index !1127
  %12 = getelementptr inbounds %"class.__gnu_cxx::__normal_iterator", %"class.__gnu_cxx::__normal_iterator"* %3, i32 0, i32 0, !llfi_index !1128
  %13 = load %"struct.std::pair"*, %"struct.std::pair"** %12, align 8, !llfi_index !1129
  ret %"struct.std::pair"* %13, !llfi_index !1130
}

; Function Attrs: mustprogress noinline uwtable
define linkonce_odr dso_local void @_ZSt16__insertion_sortIN9__gnu_cxx17__normal_iteratorIPSt4pairIiiESt6vectorIS3_SaIS3_EEEENS0_5__ops15_Iter_less_iterEEvT_SB_T0_(%"struct.std::pair"* %0, %"struct.std::pair"* %1) #4 comdat {
  %3 = alloca %"class.__gnu_cxx::__normal_iterator", align 8, !llfi_index !1131
  %4 = alloca %"class.__gnu_cxx::__normal_iterator", align 8, !llfi_index !1132
  %5 = alloca %"class.std::allocator", align 1, !llfi_index !1133
  %6 = alloca %"class.__gnu_cxx::__normal_iterator", align 8, !llfi_index !1134
  %7 = alloca %"class.__gnu_cxx::__normal_iterator", align 8, !llfi_index !1135
  %8 = alloca %"class.__gnu_cxx::__normal_iterator", align 8, !llfi_index !1136
  %9 = alloca %"struct.std::pair", align 4, !llfi_index !1137
  %10 = alloca %"class.__gnu_cxx::__normal_iterator", align 8, !llfi_index !1138
  %11 = alloca %"class.__gnu_cxx::__normal_iterator", align 8, !llfi_index !1139
  %12 = alloca %"class.__gnu_cxx::__normal_iterator", align 8, !llfi_index !1140
  %13 = alloca %"class.__gnu_cxx::__normal_iterator", align 8, !llfi_index !1141
  %14 = alloca %"class.__gnu_cxx::__normal_iterator", align 8, !llfi_index !1142
  %15 = alloca %"class.std::allocator", align 1, !llfi_index !1143
  %16 = alloca %"class.std::allocator", align 1, !llfi_index !1144
  %17 = alloca %"class.std::allocator", align 1, !llfi_index !1145
  %18 = getelementptr inbounds %"class.__gnu_cxx::__normal_iterator", %"class.__gnu_cxx::__normal_iterator"* %3, i32 0, i32 0, !llfi_index !1146
  store %"struct.std::pair"* %0, %"struct.std::pair"** %18, align 8, !llfi_index !1147
  %19 = getelementptr inbounds %"class.__gnu_cxx::__normal_iterator", %"class.__gnu_cxx::__normal_iterator"* %4, i32 0, i32 0, !llfi_index !1148
  store %"struct.std::pair"* %1, %"struct.std::pair"** %19, align 8, !llfi_index !1149
  %20 = call zeroext i1 @_ZN9__gnu_cxxeqIPSt4pairIiiESt6vectorIS2_SaIS2_EEEEbRKNS_17__normal_iteratorIT_T0_EESC_(%"class.__gnu_cxx::__normal_iterator"* nonnull align 8 dereferenceable(8) %3, %"class.__gnu_cxx::__normal_iterator"* nonnull align 8 dereferenceable(8) %4) #2, !llfi_index !1150
  br i1 %20, label %21, label %22, !llfi_index !1151

21:                                               ; preds = %2
  br label %67, !llfi_index !1152

22:                                               ; preds = %2
  %23 = call %"struct.std::pair"* @_ZNK9__gnu_cxx17__normal_iteratorIPSt4pairIiiESt6vectorIS2_SaIS2_EEEplEl(%"class.__gnu_cxx::__normal_iterator"* nonnull align 8 dereferenceable(8) %3, i64 1) #2, !llfi_index !1153
  %24 = getelementptr inbounds %"class.__gnu_cxx::__normal_iterator", %"class.__gnu_cxx::__normal_iterator"* %6, i32 0, i32 0, !llfi_index !1154
  store %"struct.std::pair"* %23, %"struct.std::pair"** %24, align 8, !llfi_index !1155
  br label %25, !llfi_index !1156

25:                                               ; preds = %65, %22
  %26 = call zeroext i1 @_ZN9__gnu_cxxneIPSt4pairIiiESt6vectorIS2_SaIS2_EEEEbRKNS_17__normal_iteratorIT_T0_EESC_(%"class.__gnu_cxx::__normal_iterator"* nonnull align 8 dereferenceable(8) %6, %"class.__gnu_cxx::__normal_iterator"* nonnull align 8 dereferenceable(8) %4) #2, !llfi_index !1157
  br i1 %26, label %27, label %67, !llfi_index !1158

27:                                               ; preds = %25
  %28 = bitcast %"class.__gnu_cxx::__normal_iterator"* %7 to i8*, !llfi_index !1159
  %29 = bitcast %"class.__gnu_cxx::__normal_iterator"* %6 to i8*, !llfi_index !1160
  call void @llvm.memcpy.p0i8.p0i8.i64(i8* align 8 %28, i8* align 8 %29, i64 8, i1 false), !llfi_index !1161
  %30 = bitcast %"class.__gnu_cxx::__normal_iterator"* %8 to i8*, !llfi_index !1162
  %31 = bitcast %"class.__gnu_cxx::__normal_iterator"* %3 to i8*, !llfi_index !1163
  call void @llvm.memcpy.p0i8.p0i8.i64(i8* align 8 %30, i8* align 8 %31, i64 8, i1 false), !llfi_index !1164
  %32 = getelementptr inbounds %"class.__gnu_cxx::__normal_iterator", %"class.__gnu_cxx::__normal_iterator"* %7, i32 0, i32 0, !llfi_index !1165
  %33 = load %"struct.std::pair"*, %"struct.std::pair"** %32, align 8, !llfi_index !1166
  %34 = getelementptr inbounds %"class.__gnu_cxx::__normal_iterator", %"class.__gnu_cxx::__normal_iterator"* %8, i32 0, i32 0, !llfi_index !1167
  %35 = load %"struct.std::pair"*, %"struct.std::pair"** %34, align 8, !llfi_index !1168
  %36 = call zeroext i1 @_ZNK9__gnu_cxx5__ops15_Iter_less_iterclINS_17__normal_iteratorIPSt4pairIiiESt6vectorIS5_SaIS5_EEEESA_EEbT_T0_(%"class.std::allocator"* nonnull align 1 dereferenceable(1) %5, %"struct.std::pair"* %33, %"struct.std::pair"* %35), !llfi_index !1169
  br i1 %36, label %37, label %59, !llfi_index !1170

37:                                               ; preds = %27
  %38 = call nonnull align 4 dereferenceable(8) %"struct.std::pair"* @_ZNK9__gnu_cxx17__normal_iteratorIPSt4pairIiiESt6vectorIS2_SaIS2_EEEdeEv(%"class.__gnu_cxx::__normal_iterator"* nonnull align 8 dereferenceable(8) %6) #2, !llfi_index !1171
  %39 = call nonnull align 4 dereferenceable(8) %"struct.std::pair"* @_ZSt4moveIRSt4pairIiiEEONSt16remove_referenceIT_E4typeEOS4_(%"struct.std::pair"* nonnull align 4 dereferenceable(8) %38) #2, !llfi_index !1172
  %40 = bitcast %"struct.std::pair"* %9 to i8*, !llfi_index !1173
  %41 = bitcast %"struct.std::pair"* %39 to i8*, !llfi_index !1174
  call void @llvm.memcpy.p0i8.p0i8.i64(i8* align 4 %40, i8* align 4 %41, i64 8, i1 false), !llfi_index !1175
  %42 = bitcast %"class.__gnu_cxx::__normal_iterator"* %10 to i8*, !llfi_index !1176
  %43 = bitcast %"class.__gnu_cxx::__normal_iterator"* %3 to i8*, !llfi_index !1177
  call void @llvm.memcpy.p0i8.p0i8.i64(i8* align 8 %42, i8* align 8 %43, i64 8, i1 false), !llfi_index !1178
  %44 = bitcast %"class.__gnu_cxx::__normal_iterator"* %11 to i8*, !llfi_index !1179
  %45 = bitcast %"class.__gnu_cxx::__normal_iterator"* %6 to i8*, !llfi_index !1180
  call void @llvm.memcpy.p0i8.p0i8.i64(i8* align 8 %44, i8* align 8 %45, i64 8, i1 false), !llfi_index !1181
  %46 = call %"struct.std::pair"* @_ZNK9__gnu_cxx17__normal_iteratorIPSt4pairIiiESt6vectorIS2_SaIS2_EEEplEl(%"class.__gnu_cxx::__normal_iterator"* nonnull align 8 dereferenceable(8) %6, i64 1) #2, !llfi_index !1182
  %47 = getelementptr inbounds %"class.__gnu_cxx::__normal_iterator", %"class.__gnu_cxx::__normal_iterator"* %12, i32 0, i32 0, !llfi_index !1183
  store %"struct.std::pair"* %46, %"struct.std::pair"** %47, align 8, !llfi_index !1184
  %48 = getelementptr inbounds %"class.__gnu_cxx::__normal_iterator", %"class.__gnu_cxx::__normal_iterator"* %10, i32 0, i32 0, !llfi_index !1185
  %49 = load %"struct.std::pair"*, %"struct.std::pair"** %48, align 8, !llfi_index !1186
  %50 = getelementptr inbounds %"class.__gnu_cxx::__normal_iterator", %"class.__gnu_cxx::__normal_iterator"* %11, i32 0, i32 0, !llfi_index !1187
  %51 = load %"struct.std::pair"*, %"struct.std::pair"** %50, align 8, !llfi_index !1188
  %52 = getelementptr inbounds %"class.__gnu_cxx::__normal_iterator", %"class.__gnu_cxx::__normal_iterator"* %12, i32 0, i32 0, !llfi_index !1189
  %53 = load %"struct.std::pair"*, %"struct.std::pair"** %52, align 8, !llfi_index !1190
  %54 = call %"struct.std::pair"* @_ZSt13move_backwardIN9__gnu_cxx17__normal_iteratorIPSt4pairIiiESt6vectorIS3_SaIS3_EEEES8_ET0_T_SA_S9_(%"struct.std::pair"* %49, %"struct.std::pair"* %51, %"struct.std::pair"* %53), !llfi_index !1191
  %55 = getelementptr inbounds %"class.__gnu_cxx::__normal_iterator", %"class.__gnu_cxx::__normal_iterator"* %13, i32 0, i32 0, !llfi_index !1192
  store %"struct.std::pair"* %54, %"struct.std::pair"** %55, align 8, !llfi_index !1193
  %56 = call nonnull align 4 dereferenceable(8) %"struct.std::pair"* @_ZSt4moveIRSt4pairIiiEEONSt16remove_referenceIT_E4typeEOS4_(%"struct.std::pair"* nonnull align 4 dereferenceable(8) %9) #2, !llfi_index !1194
  %57 = call nonnull align 4 dereferenceable(8) %"struct.std::pair"* @_ZNK9__gnu_cxx17__normal_iteratorIPSt4pairIiiESt6vectorIS2_SaIS2_EEEdeEv(%"class.__gnu_cxx::__normal_iterator"* nonnull align 8 dereferenceable(8) %3) #2, !llfi_index !1195
  %58 = call nonnull align 4 dereferenceable(8) %"struct.std::pair"* @_ZNSt4pairIiiEaSEOS0_(%"struct.std::pair"* nonnull align 4 dereferenceable(8) %57, %"struct.std::pair"* nonnull align 4 dereferenceable(8) %56) #2, !llfi_index !1196
  br label %64, !llfi_index !1197

59:                                               ; preds = %27
  %60 = bitcast %"class.__gnu_cxx::__normal_iterator"* %14 to i8*, !llfi_index !1198
  %61 = bitcast %"class.__gnu_cxx::__normal_iterator"* %6 to i8*, !llfi_index !1199
  call void @llvm.memcpy.p0i8.p0i8.i64(i8* align 8 %60, i8* align 8 %61, i64 8, i1 false), !llfi_index !1200
  call void @_ZN9__gnu_cxx5__ops15__val_comp_iterENS0_15_Iter_less_iterE(), !llfi_index !1201
  %62 = getelementptr inbounds %"class.__gnu_cxx::__normal_iterator", %"class.__gnu_cxx::__normal_iterator"* %14, i32 0, i32 0, !llfi_index !1202
  %63 = load %"struct.std::pair"*, %"struct.std::pair"** %62, align 8, !llfi_index !1203
  call void @_ZSt25__unguarded_linear_insertIN9__gnu_cxx17__normal_iteratorIPSt4pairIiiESt6vectorIS3_SaIS3_EEEENS0_5__ops14_Val_less_iterEEvT_T0_(%"struct.std::pair"* %63), !llfi_index !1204
  br label %64, !llfi_index !1205

64:                                               ; preds = %59, %37
  br label %65, !llfi_index !1206

65:                                               ; preds = %64
  %66 = call nonnull align 8 dereferenceable(8) %"class.__gnu_cxx::__normal_iterator"* @_ZN9__gnu_cxx17__normal_iteratorIPSt4pairIiiESt6vectorIS2_SaIS2_EEEppEv(%"class.__gnu_cxx::__normal_iterator"* nonnull align 8 dereferenceable(8) %6) #2, !llfi_index !1207
  br label %25, !llvm.loop !1208, !llfi_index !1209

67:                                               ; preds = %25, %21
  ret void, !llfi_index !1210
}

; Function Attrs: mustprogress noinline uwtable
define linkonce_odr dso_local void @_ZSt26__unguarded_insertion_sortIN9__gnu_cxx17__normal_iteratorIPSt4pairIiiESt6vectorIS3_SaIS3_EEEENS0_5__ops15_Iter_less_iterEEvT_SB_T0_(%"struct.std::pair"* %0, %"struct.std::pair"* %1) #4 comdat {
  %3 = alloca %"class.__gnu_cxx::__normal_iterator", align 8, !llfi_index !1211
  %4 = alloca %"class.__gnu_cxx::__normal_iterator", align 8, !llfi_index !1212
  %5 = alloca %"class.std::allocator", align 1, !llfi_index !1213
  %6 = alloca %"class.__gnu_cxx::__normal_iterator", align 8, !llfi_index !1214
  %7 = alloca %"class.__gnu_cxx::__normal_iterator", align 8, !llfi_index !1215
  %8 = alloca %"class.std::allocator", align 1, !llfi_index !1216
  %9 = alloca %"class.std::allocator", align 1, !llfi_index !1217
  %10 = alloca %"class.std::allocator", align 1, !llfi_index !1218
  %11 = getelementptr inbounds %"class.__gnu_cxx::__normal_iterator", %"class.__gnu_cxx::__normal_iterator"* %3, i32 0, i32 0, !llfi_index !1219
  store %"struct.std::pair"* %0, %"struct.std::pair"** %11, align 8, !llfi_index !1220
  %12 = getelementptr inbounds %"class.__gnu_cxx::__normal_iterator", %"class.__gnu_cxx::__normal_iterator"* %4, i32 0, i32 0, !llfi_index !1221
  store %"struct.std::pair"* %1, %"struct.std::pair"** %12, align 8, !llfi_index !1222
  %13 = bitcast %"class.__gnu_cxx::__normal_iterator"* %6 to i8*, !llfi_index !1223
  %14 = bitcast %"class.__gnu_cxx::__normal_iterator"* %3 to i8*, !llfi_index !1224
  call void @llvm.memcpy.p0i8.p0i8.i64(i8* align 8 %13, i8* align 8 %14, i64 8, i1 false), !llfi_index !1225
  br label %15, !llfi_index !1226

15:                                               ; preds = %22, %2
  %16 = call zeroext i1 @_ZN9__gnu_cxxneIPSt4pairIiiESt6vectorIS2_SaIS2_EEEEbRKNS_17__normal_iteratorIT_T0_EESC_(%"class.__gnu_cxx::__normal_iterator"* nonnull align 8 dereferenceable(8) %6, %"class.__gnu_cxx::__normal_iterator"* nonnull align 8 dereferenceable(8) %4) #2, !llfi_index !1227
  br i1 %16, label %17, label %24, !llfi_index !1228

17:                                               ; preds = %15
  %18 = bitcast %"class.__gnu_cxx::__normal_iterator"* %7 to i8*, !llfi_index !1229
  %19 = bitcast %"class.__gnu_cxx::__normal_iterator"* %6 to i8*, !llfi_index !1230
  call void @llvm.memcpy.p0i8.p0i8.i64(i8* align 8 %18, i8* align 8 %19, i64 8, i1 false), !llfi_index !1231
  call void @_ZN9__gnu_cxx5__ops15__val_comp_iterENS0_15_Iter_less_iterE(), !llfi_index !1232
  %20 = getelementptr inbounds %"class.__gnu_cxx::__normal_iterator", %"class.__gnu_cxx::__normal_iterator"* %7, i32 0, i32 0, !llfi_index !1233
  %21 = load %"struct.std::pair"*, %"struct.std::pair"** %20, align 8, !llfi_index !1234
  call void @_ZSt25__unguarded_linear_insertIN9__gnu_cxx17__normal_iteratorIPSt4pairIiiESt6vectorIS3_SaIS3_EEEENS0_5__ops14_Val_less_iterEEvT_T0_(%"struct.std::pair"* %21), !llfi_index !1235
  br label %22, !llfi_index !1236

22:                                               ; preds = %17
  %23 = call nonnull align 8 dereferenceable(8) %"class.__gnu_cxx::__normal_iterator"* @_ZN9__gnu_cxx17__normal_iteratorIPSt4pairIiiESt6vectorIS2_SaIS2_EEEppEv(%"class.__gnu_cxx::__normal_iterator"* nonnull align 8 dereferenceable(8) %6) #2, !llfi_index !1237
  br label %15, !llvm.loop !1238, !llfi_index !1239

24:                                               ; preds = %15
  ret void, !llfi_index !1240
}

; Function Attrs: mustprogress noinline nounwind uwtable
define linkonce_odr dso_local void @_ZN9__gnu_cxx5__ops15__val_comp_iterENS0_15_Iter_less_iterE() #3 comdat {
  %1 = alloca %"class.std::allocator", align 1, !llfi_index !1241
  ret void, !llfi_index !1242
}

; Function Attrs: mustprogress noinline uwtable
define linkonce_odr dso_local void @_ZSt25__unguarded_linear_insertIN9__gnu_cxx17__normal_iteratorIPSt4pairIiiESt6vectorIS3_SaIS3_EEEENS0_5__ops14_Val_less_iterEEvT_T0_(%"struct.std::pair"* %0) #4 comdat {
  %2 = alloca %"class.__gnu_cxx::__normal_iterator", align 8, !llfi_index !1243
  %3 = alloca %"class.std::allocator", align 1, !llfi_index !1244
  %4 = alloca %"struct.std::pair", align 4, !llfi_index !1245
  %5 = alloca %"class.__gnu_cxx::__normal_iterator", align 8, !llfi_index !1246
  %6 = alloca %"class.__gnu_cxx::__normal_iterator", align 8, !llfi_index !1247
  %7 = getelementptr inbounds %"class.__gnu_cxx::__normal_iterator", %"class.__gnu_cxx::__normal_iterator"* %2, i32 0, i32 0, !llfi_index !1248
  store %"struct.std::pair"* %0, %"struct.std::pair"** %7, align 8, !llfi_index !1249
  %8 = call nonnull align 4 dereferenceable(8) %"struct.std::pair"* @_ZNK9__gnu_cxx17__normal_iteratorIPSt4pairIiiESt6vectorIS2_SaIS2_EEEdeEv(%"class.__gnu_cxx::__normal_iterator"* nonnull align 8 dereferenceable(8) %2) #2, !llfi_index !1250
  %9 = call nonnull align 4 dereferenceable(8) %"struct.std::pair"* @_ZSt4moveIRSt4pairIiiEEONSt16remove_referenceIT_E4typeEOS4_(%"struct.std::pair"* nonnull align 4 dereferenceable(8) %8) #2, !llfi_index !1251
  %10 = bitcast %"struct.std::pair"* %4 to i8*, !llfi_index !1252
  %11 = bitcast %"struct.std::pair"* %9 to i8*, !llfi_index !1253
  call void @llvm.memcpy.p0i8.p0i8.i64(i8* align 4 %10, i8* align 4 %11, i64 8, i1 false), !llfi_index !1254
  %12 = bitcast %"class.__gnu_cxx::__normal_iterator"* %5 to i8*, !llfi_index !1255
  %13 = bitcast %"class.__gnu_cxx::__normal_iterator"* %2 to i8*, !llfi_index !1256
  call void @llvm.memcpy.p0i8.p0i8.i64(i8* align 8 %12, i8* align 8 %13, i64 8, i1 false), !llfi_index !1257
  %14 = call nonnull align 8 dereferenceable(8) %"class.__gnu_cxx::__normal_iterator"* @_ZN9__gnu_cxx17__normal_iteratorIPSt4pairIiiESt6vectorIS2_SaIS2_EEEmmEv(%"class.__gnu_cxx::__normal_iterator"* nonnull align 8 dereferenceable(8) %5) #2, !llfi_index !1258
  br label %15, !llfi_index !1259

15:                                               ; preds = %21, %1
  %16 = bitcast %"class.__gnu_cxx::__normal_iterator"* %6 to i8*, !llfi_index !1260
  %17 = bitcast %"class.__gnu_cxx::__normal_iterator"* %5 to i8*, !llfi_index !1261
  call void @llvm.memcpy.p0i8.p0i8.i64(i8* align 8 %16, i8* align 8 %17, i64 8, i1 false), !llfi_index !1262
  %18 = getelementptr inbounds %"class.__gnu_cxx::__normal_iterator", %"class.__gnu_cxx::__normal_iterator"* %6, i32 0, i32 0, !llfi_index !1263
  %19 = load %"struct.std::pair"*, %"struct.std::pair"** %18, align 8, !llfi_index !1264
  %20 = call zeroext i1 @_ZNK9__gnu_cxx5__ops14_Val_less_iterclISt4pairIiiENS_17__normal_iteratorIPS4_St6vectorIS4_SaIS4_EEEEEEbRT_T0_(%"class.std::allocator"* nonnull align 1 dereferenceable(1) %3, %"struct.std::pair"* nonnull align 4 dereferenceable(8) %4, %"struct.std::pair"* %19), !llfi_index !1265
  br i1 %20, label %21, label %29, !llfi_index !1266

21:                                               ; preds = %15
  %22 = call nonnull align 4 dereferenceable(8) %"struct.std::pair"* @_ZNK9__gnu_cxx17__normal_iteratorIPSt4pairIiiESt6vectorIS2_SaIS2_EEEdeEv(%"class.__gnu_cxx::__normal_iterator"* nonnull align 8 dereferenceable(8) %5) #2, !llfi_index !1267
  %23 = call nonnull align 4 dereferenceable(8) %"struct.std::pair"* @_ZSt4moveIRSt4pairIiiEEONSt16remove_referenceIT_E4typeEOS4_(%"struct.std::pair"* nonnull align 4 dereferenceable(8) %22) #2, !llfi_index !1268
  %24 = call nonnull align 4 dereferenceable(8) %"struct.std::pair"* @_ZNK9__gnu_cxx17__normal_iteratorIPSt4pairIiiESt6vectorIS2_SaIS2_EEEdeEv(%"class.__gnu_cxx::__normal_iterator"* nonnull align 8 dereferenceable(8) %2) #2, !llfi_index !1269
  %25 = call nonnull align 4 dereferenceable(8) %"struct.std::pair"* @_ZNSt4pairIiiEaSEOS0_(%"struct.std::pair"* nonnull align 4 dereferenceable(8) %24, %"struct.std::pair"* nonnull align 4 dereferenceable(8) %23) #2, !llfi_index !1270
  %26 = bitcast %"class.__gnu_cxx::__normal_iterator"* %2 to i8*, !llfi_index !1271
  %27 = bitcast %"class.__gnu_cxx::__normal_iterator"* %5 to i8*, !llfi_index !1272
  call void @llvm.memcpy.p0i8.p0i8.i64(i8* align 8 %26, i8* align 8 %27, i64 8, i1 false), !llfi_index !1273
  %28 = call nonnull align 8 dereferenceable(8) %"class.__gnu_cxx::__normal_iterator"* @_ZN9__gnu_cxx17__normal_iteratorIPSt4pairIiiESt6vectorIS2_SaIS2_EEEmmEv(%"class.__gnu_cxx::__normal_iterator"* nonnull align 8 dereferenceable(8) %5) #2, !llfi_index !1274
  br label %15, !llvm.loop !1275, !llfi_index !1276

29:                                               ; preds = %15
  %30 = call nonnull align 4 dereferenceable(8) %"struct.std::pair"* @_ZSt4moveIRSt4pairIiiEEONSt16remove_referenceIT_E4typeEOS4_(%"struct.std::pair"* nonnull align 4 dereferenceable(8) %4) #2, !llfi_index !1277
  %31 = call nonnull align 4 dereferenceable(8) %"struct.std::pair"* @_ZNK9__gnu_cxx17__normal_iteratorIPSt4pairIiiESt6vectorIS2_SaIS2_EEEdeEv(%"class.__gnu_cxx::__normal_iterator"* nonnull align 8 dereferenceable(8) %2) #2, !llfi_index !1278
  %32 = call nonnull align 4 dereferenceable(8) %"struct.std::pair"* @_ZNSt4pairIiiEaSEOS0_(%"struct.std::pair"* nonnull align 4 dereferenceable(8) %31, %"struct.std::pair"* nonnull align 4 dereferenceable(8) %30) #2, !llfi_index !1279
  ret void, !llfi_index !1280
}

; Function Attrs: mustprogress noinline nounwind uwtable
define linkonce_odr dso_local nonnull align 8 dereferenceable(8) %"class.__gnu_cxx::__normal_iterator"* @_ZN9__gnu_cxx17__normal_iteratorIPSt4pairIiiESt6vectorIS2_SaIS2_EEEppEv(%"class.__gnu_cxx::__normal_iterator"* nonnull align 8 dereferenceable(8) %0) #3 comdat align 2 {
  %2 = alloca %"class.__gnu_cxx::__normal_iterator"*, align 8, !llfi_index !1281
  store %"class.__gnu_cxx::__normal_iterator"* %0, %"class.__gnu_cxx::__normal_iterator"** %2, align 8, !llfi_index !1282
  %3 = load %"class.__gnu_cxx::__normal_iterator"*, %"class.__gnu_cxx::__normal_iterator"** %2, align 8, !llfi_index !1283
  %4 = getelementptr inbounds %"class.__gnu_cxx::__normal_iterator", %"class.__gnu_cxx::__normal_iterator"* %3, i32 0, i32 0, !llfi_index !1284
  %5 = load %"struct.std::pair"*, %"struct.std::pair"** %4, align 8, !llfi_index !1285
  %6 = getelementptr inbounds %"struct.std::pair", %"struct.std::pair"* %5, i32 1, !llfi_index !1286
  store %"struct.std::pair"* %6, %"struct.std::pair"** %4, align 8, !llfi_index !1287
  ret %"class.__gnu_cxx::__normal_iterator"* %3, !llfi_index !1288
}

; Function Attrs: mustprogress noinline nounwind uwtable
define linkonce_odr dso_local nonnull align 4 dereferenceable(8) %"struct.std::pair"* @_ZNK9__gnu_cxx17__normal_iteratorIPSt4pairIiiESt6vectorIS2_SaIS2_EEEdeEv(%"class.__gnu_cxx::__normal_iterator"* nonnull align 8 dereferenceable(8) %0) #3 comdat align 2 {
  %2 = alloca %"class.__gnu_cxx::__normal_iterator"*, align 8, !llfi_index !1289
  store %"class.__gnu_cxx::__normal_iterator"* %0, %"class.__gnu_cxx::__normal_iterator"** %2, align 8, !llfi_index !1290
  %3 = load %"class.__gnu_cxx::__normal_iterator"*, %"class.__gnu_cxx::__normal_iterator"** %2, align 8, !llfi_index !1291
  %4 = getelementptr inbounds %"class.__gnu_cxx::__normal_iterator", %"class.__gnu_cxx::__normal_iterator"* %3, i32 0, i32 0, !llfi_index !1292
  %5 = load %"struct.std::pair"*, %"struct.std::pair"** %4, align 8, !llfi_index !1293
  ret %"struct.std::pair"* %5, !llfi_index !1294
}

; Function Attrs: mustprogress noinline nounwind uwtable
define linkonce_odr dso_local nonnull align 4 dereferenceable(8) %"struct.std::pair"* @_ZSt4moveIRSt4pairIiiEEONSt16remove_referenceIT_E4typeEOS4_(%"struct.std::pair"* nonnull align 4 dereferenceable(8) %0) #3 comdat {
  %2 = alloca %"struct.std::pair"*, align 8, !llfi_index !1295
  store %"struct.std::pair"* %0, %"struct.std::pair"** %2, align 8, !llfi_index !1296
  %3 = load %"struct.std::pair"*, %"struct.std::pair"** %2, align 8, !llfi_index !1297
  ret %"struct.std::pair"* %3, !llfi_index !1298
}

; Function Attrs: mustprogress noinline nounwind uwtable
define linkonce_odr dso_local nonnull align 8 dereferenceable(8) %"class.__gnu_cxx::__normal_iterator"* @_ZN9__gnu_cxx17__normal_iteratorIPSt4pairIiiESt6vectorIS2_SaIS2_EEEmmEv(%"class.__gnu_cxx::__normal_iterator"* nonnull align 8 dereferenceable(8) %0) #3 comdat align 2 {
  %2 = alloca %"class.__gnu_cxx::__normal_iterator"*, align 8, !llfi_index !1299
  store %"class.__gnu_cxx::__normal_iterator"* %0, %"class.__gnu_cxx::__normal_iterator"** %2, align 8, !llfi_index !1300
  %3 = load %"class.__gnu_cxx::__normal_iterator"*, %"class.__gnu_cxx::__normal_iterator"** %2, align 8, !llfi_index !1301
  %4 = getelementptr inbounds %"class.__gnu_cxx::__normal_iterator", %"class.__gnu_cxx::__normal_iterator"* %3, i32 0, i32 0, !llfi_index !1302
  %5 = load %"struct.std::pair"*, %"struct.std::pair"** %4, align 8, !llfi_index !1303
  %6 = getelementptr inbounds %"struct.std::pair", %"struct.std::pair"* %5, i32 -1, !llfi_index !1304
  store %"struct.std::pair"* %6, %"struct.std::pair"** %4, align 8, !llfi_index !1305
  ret %"class.__gnu_cxx::__normal_iterator"* %3, !llfi_index !1306
}

; Function Attrs: mustprogress noinline nounwind uwtable
define linkonce_odr dso_local zeroext i1 @_ZNK9__gnu_cxx5__ops14_Val_less_iterclISt4pairIiiENS_17__normal_iteratorIPS4_St6vectorIS4_SaIS4_EEEEEEbRT_T0_(%"class.std::allocator"* nonnull align 1 dereferenceable(1) %0, %"struct.std::pair"* nonnull align 4 dereferenceable(8) %1, %"struct.std::pair"* %2) #3 comdat align 2 {
  %4 = alloca %"class.__gnu_cxx::__normal_iterator", align 8, !llfi_index !1307
  %5 = alloca %"class.std::allocator"*, align 8, !llfi_index !1308
  %6 = alloca %"struct.std::pair"*, align 8, !llfi_index !1309
  %7 = getelementptr inbounds %"class.__gnu_cxx::__normal_iterator", %"class.__gnu_cxx::__normal_iterator"* %4, i32 0, i32 0, !llfi_index !1310
  store %"struct.std::pair"* %2, %"struct.std::pair"** %7, align 8, !llfi_index !1311
  store %"class.std::allocator"* %0, %"class.std::allocator"** %5, align 8, !llfi_index !1312
  store %"struct.std::pair"* %1, %"struct.std::pair"** %6, align 8, !llfi_index !1313
  %8 = load %"class.std::allocator"*, %"class.std::allocator"** %5, align 8, !llfi_index !1314
  %9 = load %"struct.std::pair"*, %"struct.std::pair"** %6, align 8, !llfi_index !1315
  %10 = call nonnull align 4 dereferenceable(8) %"struct.std::pair"* @_ZNK9__gnu_cxx17__normal_iteratorIPSt4pairIiiESt6vectorIS2_SaIS2_EEEdeEv(%"class.__gnu_cxx::__normal_iterator"* nonnull align 8 dereferenceable(8) %4) #2, !llfi_index !1316
  %11 = call zeroext i1 @_ZStltIiiEbRKSt4pairIT_T0_ES5_(%"struct.std::pair"* nonnull align 4 dereferenceable(8) %9, %"struct.std::pair"* nonnull align 4 dereferenceable(8) %10), !llfi_index !1317
  ret i1 %11, !llfi_index !1318
}

; Function Attrs: mustprogress noinline nounwind uwtable
define linkonce_odr dso_local nonnull align 4 dereferenceable(8) %"struct.std::pair"* @_ZNSt4pairIiiEaSEOS0_(%"struct.std::pair"* nonnull align 4 dereferenceable(8) %0, %"struct.std::pair"* nonnull align 4 dereferenceable(8) %1) #3 comdat align 2 {
  %3 = alloca %"struct.std::pair"*, align 8, !llfi_index !1319
  %4 = alloca %"struct.std::pair"*, align 8, !llfi_index !1320
  store %"struct.std::pair"* %0, %"struct.std::pair"** %3, align 8, !llfi_index !1321
  store %"struct.std::pair"* %1, %"struct.std::pair"** %4, align 8, !llfi_index !1322
  %5 = load %"struct.std::pair"*, %"struct.std::pair"** %3, align 8, !llfi_index !1323
  %6 = load %"struct.std::pair"*, %"struct.std::pair"** %4, align 8, !llfi_index !1324
  %7 = getelementptr inbounds %"struct.std::pair", %"struct.std::pair"* %6, i32 0, i32 0, !llfi_index !1325
  %8 = call nonnull align 4 dereferenceable(4) i32* @_ZSt7forwardIiEOT_RNSt16remove_referenceIS0_E4typeE(i32* nonnull align 4 dereferenceable(4) %7) #2, !llfi_index !1326
  %9 = load i32, i32* %8, align 4, !llfi_index !1327
  %10 = getelementptr inbounds %"struct.std::pair", %"struct.std::pair"* %5, i32 0, i32 0, !llfi_index !1328
  store i32 %9, i32* %10, align 4, !llfi_index !1329
  %11 = load %"struct.std::pair"*, %"struct.std::pair"** %4, align 8, !llfi_index !1330
  %12 = getelementptr inbounds %"struct.std::pair", %"struct.std::pair"* %11, i32 0, i32 1, !llfi_index !1331
  %13 = call nonnull align 4 dereferenceable(4) i32* @_ZSt7forwardIiEOT_RNSt16remove_referenceIS0_E4typeE(i32* nonnull align 4 dereferenceable(4) %12) #2, !llfi_index !1332
  %14 = load i32, i32* %13, align 4, !llfi_index !1333
  %15 = getelementptr inbounds %"struct.std::pair", %"struct.std::pair"* %5, i32 0, i32 1, !llfi_index !1334
  store i32 %14, i32* %15, align 4, !llfi_index !1335
  ret %"struct.std::pair"* %5, !llfi_index !1336
}

; Function Attrs: mustprogress noinline nounwind uwtable
define linkonce_odr dso_local nonnull align 4 dereferenceable(4) i32* @_ZSt7forwardIiEOT_RNSt16remove_referenceIS0_E4typeE(i32* nonnull align 4 dereferenceable(4) %0) #3 comdat {
  %2 = alloca i32*, align 8, !llfi_index !1337
  store i32* %0, i32** %2, align 8, !llfi_index !1338
  %3 = load i32*, i32** %2, align 8, !llfi_index !1339
  ret i32* %3, !llfi_index !1340
}

; Function Attrs: mustprogress noinline nounwind uwtable
define linkonce_odr dso_local zeroext i1 @_ZStltIiiEbRKSt4pairIT_T0_ES5_(%"struct.std::pair"* nonnull align 4 dereferenceable(8) %0, %"struct.std::pair"* nonnull align 4 dereferenceable(8) %1) #3 comdat {
  %3 = alloca %"struct.std::pair"*, align 8, !llfi_index !1341
  %4 = alloca %"struct.std::pair"*, align 8, !llfi_index !1342
  store %"struct.std::pair"* %0, %"struct.std::pair"** %3, align 8, !llfi_index !1343
  store %"struct.std::pair"* %1, %"struct.std::pair"** %4, align 8, !llfi_index !1344
  %5 = load %"struct.std::pair"*, %"struct.std::pair"** %3, align 8, !llfi_index !1345
  %6 = getelementptr inbounds %"struct.std::pair", %"struct.std::pair"* %5, i32 0, i32 0, !llfi_index !1346
  %7 = load i32, i32* %6, align 4, !llfi_index !1347
  %8 = load %"struct.std::pair"*, %"struct.std::pair"** %4, align 8, !llfi_index !1348
  %9 = getelementptr inbounds %"struct.std::pair", %"struct.std::pair"* %8, i32 0, i32 0, !llfi_index !1349
  %10 = load i32, i32* %9, align 4, !llfi_index !1350
  %11 = icmp slt i32 %7, %10, !llfi_index !1351
  br i1 %11, label %30, label %12, !llfi_index !1352

12:                                               ; preds = %2
  %13 = load %"struct.std::pair"*, %"struct.std::pair"** %4, align 8, !llfi_index !1353
  %14 = getelementptr inbounds %"struct.std::pair", %"struct.std::pair"* %13, i32 0, i32 0, !llfi_index !1354
  %15 = load i32, i32* %14, align 4, !llfi_index !1355
  %16 = load %"struct.std::pair"*, %"struct.std::pair"** %3, align 8, !llfi_index !1356
  %17 = getelementptr inbounds %"struct.std::pair", %"struct.std::pair"* %16, i32 0, i32 0, !llfi_index !1357
  %18 = load i32, i32* %17, align 4, !llfi_index !1358
  %19 = icmp slt i32 %15, %18, !llfi_index !1359
  br i1 %19, label %28, label %20, !llfi_index !1360

20:                                               ; preds = %12
  %21 = load %"struct.std::pair"*, %"struct.std::pair"** %3, align 8, !llfi_index !1361
  %22 = getelementptr inbounds %"struct.std::pair", %"struct.std::pair"* %21, i32 0, i32 1, !llfi_index !1362
  %23 = load i32, i32* %22, align 4, !llfi_index !1363
  %24 = load %"struct.std::pair"*, %"struct.std::pair"** %4, align 8, !llfi_index !1364
  %25 = getelementptr inbounds %"struct.std::pair", %"struct.std::pair"* %24, i32 0, i32 1, !llfi_index !1365
  %26 = load i32, i32* %25, align 4, !llfi_index !1366
  %27 = icmp slt i32 %23, %26, !llfi_index !1367
  br label %28, !llfi_index !1368

28:                                               ; preds = %20, %12
  %29 = phi i1 [ false, %12 ], [ %27, %20 ], !llfi_index !1369
  br label %30, !llfi_index !1370

30:                                               ; preds = %28, %2
  %31 = phi i1 [ true, %2 ], [ %29, %28 ], !llfi_index !1371
  ret i1 %31, !llfi_index !1372
}

; Function Attrs: mustprogress noinline nounwind uwtable
define linkonce_odr dso_local zeroext i1 @_ZN9__gnu_cxxeqIPSt4pairIiiESt6vectorIS2_SaIS2_EEEEbRKNS_17__normal_iteratorIT_T0_EESC_(%"class.__gnu_cxx::__normal_iterator"* nonnull align 8 dereferenceable(8) %0, %"class.__gnu_cxx::__normal_iterator"* nonnull align 8 dereferenceable(8) %1) #3 comdat {
  %3 = alloca %"class.__gnu_cxx::__normal_iterator"*, align 8, !llfi_index !1373
  %4 = alloca %"class.__gnu_cxx::__normal_iterator"*, align 8, !llfi_index !1374
  store %"class.__gnu_cxx::__normal_iterator"* %0, %"class.__gnu_cxx::__normal_iterator"** %3, align 8, !llfi_index !1375
  store %"class.__gnu_cxx::__normal_iterator"* %1, %"class.__gnu_cxx::__normal_iterator"** %4, align 8, !llfi_index !1376
  %5 = load %"class.__gnu_cxx::__normal_iterator"*, %"class.__gnu_cxx::__normal_iterator"** %3, align 8, !llfi_index !1377
  %6 = call nonnull align 8 dereferenceable(8) %"struct.std::pair"** @_ZNK9__gnu_cxx17__normal_iteratorIPSt4pairIiiESt6vectorIS2_SaIS2_EEE4baseEv(%"class.__gnu_cxx::__normal_iterator"* nonnull align 8 dereferenceable(8) %5) #2, !llfi_index !1378
  %7 = load %"struct.std::pair"*, %"struct.std::pair"** %6, align 8, !llfi_index !1379
  %8 = load %"class.__gnu_cxx::__normal_iterator"*, %"class.__gnu_cxx::__normal_iterator"** %4, align 8, !llfi_index !1380
  %9 = call nonnull align 8 dereferenceable(8) %"struct.std::pair"** @_ZNK9__gnu_cxx17__normal_iteratorIPSt4pairIiiESt6vectorIS2_SaIS2_EEE4baseEv(%"class.__gnu_cxx::__normal_iterator"* nonnull align 8 dereferenceable(8) %8) #2, !llfi_index !1381
  %10 = load %"struct.std::pair"*, %"struct.std::pair"** %9, align 8, !llfi_index !1382
  %11 = icmp eq %"struct.std::pair"* %7, %10, !llfi_index !1383
  ret i1 %11, !llfi_index !1384
}

; Function Attrs: mustprogress noinline nounwind uwtable
define linkonce_odr dso_local zeroext i1 @_ZNK9__gnu_cxx5__ops15_Iter_less_iterclINS_17__normal_iteratorIPSt4pairIiiESt6vectorIS5_SaIS5_EEEESA_EEbT_T0_(%"class.std::allocator"* nonnull align 1 dereferenceable(1) %0, %"struct.std::pair"* %1, %"struct.std::pair"* %2) #3 comdat align 2 {
  %4 = alloca %"class.__gnu_cxx::__normal_iterator", align 8, !llfi_index !1385
  %5 = alloca %"class.__gnu_cxx::__normal_iterator", align 8, !llfi_index !1386
  %6 = alloca %"class.std::allocator"*, align 8, !llfi_index !1387
  %7 = getelementptr inbounds %"class.__gnu_cxx::__normal_iterator", %"class.__gnu_cxx::__normal_iterator"* %4, i32 0, i32 0, !llfi_index !1388
  store %"struct.std::pair"* %1, %"struct.std::pair"** %7, align 8, !llfi_index !1389
  %8 = getelementptr inbounds %"class.__gnu_cxx::__normal_iterator", %"class.__gnu_cxx::__normal_iterator"* %5, i32 0, i32 0, !llfi_index !1390
  store %"struct.std::pair"* %2, %"struct.std::pair"** %8, align 8, !llfi_index !1391
  store %"class.std::allocator"* %0, %"class.std::allocator"** %6, align 8, !llfi_index !1392
  %9 = load %"class.std::allocator"*, %"class.std::allocator"** %6, align 8, !llfi_index !1393
  %10 = call nonnull align 4 dereferenceable(8) %"struct.std::pair"* @_ZNK9__gnu_cxx17__normal_iteratorIPSt4pairIiiESt6vectorIS2_SaIS2_EEEdeEv(%"class.__gnu_cxx::__normal_iterator"* nonnull align 8 dereferenceable(8) %4) #2, !llfi_index !1394
  %11 = call nonnull align 4 dereferenceable(8) %"struct.std::pair"* @_ZNK9__gnu_cxx17__normal_iteratorIPSt4pairIiiESt6vectorIS2_SaIS2_EEEdeEv(%"class.__gnu_cxx::__normal_iterator"* nonnull align 8 dereferenceable(8) %5) #2, !llfi_index !1395
  %12 = call zeroext i1 @_ZStltIiiEbRKSt4pairIT_T0_ES5_(%"struct.std::pair"* nonnull align 4 dereferenceable(8) %10, %"struct.std::pair"* nonnull align 4 dereferenceable(8) %11), !llfi_index !1396
  ret i1 %12, !llfi_index !1397
}

; Function Attrs: mustprogress noinline uwtable
define linkonce_odr dso_local %"struct.std::pair"* @_ZSt13move_backwardIN9__gnu_cxx17__normal_iteratorIPSt4pairIiiESt6vectorIS3_SaIS3_EEEES8_ET0_T_SA_S9_(%"struct.std::pair"* %0, %"struct.std::pair"* %1, %"struct.std::pair"* %2) #4 comdat {
  %4 = alloca %"class.__gnu_cxx::__normal_iterator", align 8, !llfi_index !1398
  %5 = alloca %"class.__gnu_cxx::__normal_iterator", align 8, !llfi_index !1399
  %6 = alloca %"class.__gnu_cxx::__normal_iterator", align 8, !llfi_index !1400
  %7 = alloca %"class.__gnu_cxx::__normal_iterator", align 8, !llfi_index !1401
  %8 = alloca %"class.__gnu_cxx::__normal_iterator", align 8, !llfi_index !1402
  %9 = alloca %"class.__gnu_cxx::__normal_iterator", align 8, !llfi_index !1403
  %10 = alloca %"class.__gnu_cxx::__normal_iterator", align 8, !llfi_index !1404
  %11 = alloca %"class.__gnu_cxx::__normal_iterator", align 8, !llfi_index !1405
  %12 = alloca %"class.__gnu_cxx::__normal_iterator", align 8, !llfi_index !1406
  %13 = getelementptr inbounds %"class.__gnu_cxx::__normal_iterator", %"class.__gnu_cxx::__normal_iterator"* %5, i32 0, i32 0, !llfi_index !1407
  store %"struct.std::pair"* %0, %"struct.std::pair"** %13, align 8, !llfi_index !1408
  %14 = getelementptr inbounds %"class.__gnu_cxx::__normal_iterator", %"class.__gnu_cxx::__normal_iterator"* %6, i32 0, i32 0, !llfi_index !1409
  store %"struct.std::pair"* %1, %"struct.std::pair"** %14, align 8, !llfi_index !1410
  %15 = getelementptr inbounds %"class.__gnu_cxx::__normal_iterator", %"class.__gnu_cxx::__normal_iterator"* %7, i32 0, i32 0, !llfi_index !1411
  store %"struct.std::pair"* %2, %"struct.std::pair"** %15, align 8, !llfi_index !1412
  %16 = bitcast %"class.__gnu_cxx::__normal_iterator"* %9 to i8*, !llfi_index !1413
  %17 = bitcast %"class.__gnu_cxx::__normal_iterator"* %5 to i8*, !llfi_index !1414
  call void @llvm.memcpy.p0i8.p0i8.i64(i8* align 8 %16, i8* align 8 %17, i64 8, i1 false), !llfi_index !1415
  %18 = getelementptr inbounds %"class.__gnu_cxx::__normal_iterator", %"class.__gnu_cxx::__normal_iterator"* %9, i32 0, i32 0, !llfi_index !1416
  %19 = load %"struct.std::pair"*, %"struct.std::pair"** %18, align 8, !llfi_index !1417
  %20 = call %"struct.std::pair"* @_ZSt12__miter_baseIN9__gnu_cxx17__normal_iteratorIPSt4pairIiiESt6vectorIS3_SaIS3_EEEEET_S9_(%"struct.std::pair"* %19), !llfi_index !1418
  %21 = getelementptr inbounds %"class.__gnu_cxx::__normal_iterator", %"class.__gnu_cxx::__normal_iterator"* %8, i32 0, i32 0, !llfi_index !1419
  store %"struct.std::pair"* %20, %"struct.std::pair"** %21, align 8, !llfi_index !1420
  %22 = bitcast %"class.__gnu_cxx::__normal_iterator"* %11 to i8*, !llfi_index !1421
  %23 = bitcast %"class.__gnu_cxx::__normal_iterator"* %6 to i8*, !llfi_index !1422
  call void @llvm.memcpy.p0i8.p0i8.i64(i8* align 8 %22, i8* align 8 %23, i64 8, i1 false), !llfi_index !1423
  %24 = getelementptr inbounds %"class.__gnu_cxx::__normal_iterator", %"class.__gnu_cxx::__normal_iterator"* %11, i32 0, i32 0, !llfi_index !1424
  %25 = load %"struct.std::pair"*, %"struct.std::pair"** %24, align 8, !llfi_index !1425
  %26 = call %"struct.std::pair"* @_ZSt12__miter_baseIN9__gnu_cxx17__normal_iteratorIPSt4pairIiiESt6vectorIS3_SaIS3_EEEEET_S9_(%"struct.std::pair"* %25), !llfi_index !1426
  %27 = getelementptr inbounds %"class.__gnu_cxx::__normal_iterator", %"class.__gnu_cxx::__normal_iterator"* %10, i32 0, i32 0, !llfi_index !1427
  store %"struct.std::pair"* %26, %"struct.std::pair"** %27, align 8, !llfi_index !1428
  %28 = bitcast %"class.__gnu_cxx::__normal_iterator"* %12 to i8*, !llfi_index !1429
  %29 = bitcast %"class.__gnu_cxx::__normal_iterator"* %7 to i8*, !llfi_index !1430
  call void @llvm.memcpy.p0i8.p0i8.i64(i8* align 8 %28, i8* align 8 %29, i64 8, i1 false), !llfi_index !1431
  %30 = getelementptr inbounds %"class.__gnu_cxx::__normal_iterator", %"class.__gnu_cxx::__normal_iterator"* %8, i32 0, i32 0, !llfi_index !1432
  %31 = load %"struct.std::pair"*, %"struct.std::pair"** %30, align 8, !llfi_index !1433
  %32 = getelementptr inbounds %"class.__gnu_cxx::__normal_iterator", %"class.__gnu_cxx::__normal_iterator"* %10, i32 0, i32 0, !llfi_index !1434
  %33 = load %"struct.std::pair"*, %"struct.std::pair"** %32, align 8, !llfi_index !1435
  %34 = getelementptr inbounds %"class.__gnu_cxx::__normal_iterator", %"class.__gnu_cxx::__normal_iterator"* %12, i32 0, i32 0, !llfi_index !1436
  %35 = load %"struct.std::pair"*, %"struct.std::pair"** %34, align 8, !llfi_index !1437
  %36 = call %"struct.std::pair"* @_ZSt23__copy_move_backward_a2ILb1EN9__gnu_cxx17__normal_iteratorIPSt4pairIiiESt6vectorIS3_SaIS3_EEEES8_ET1_T0_SA_S9_(%"struct.std::pair"* %31, %"struct.std::pair"* %33, %"struct.std::pair"* %35), !llfi_index !1438
  %37 = getelementptr inbounds %"class.__gnu_cxx::__normal_iterator", %"class.__gnu_cxx::__normal_iterator"* %4, i32 0, i32 0, !llfi_index !1439
  store %"struct.std::pair"* %36, %"struct.std::pair"** %37, align 8, !llfi_index !1440
  %38 = getelementptr inbounds %"class.__gnu_cxx::__normal_iterator", %"class.__gnu_cxx::__normal_iterator"* %4, i32 0, i32 0, !llfi_index !1441
  %39 = load %"struct.std::pair"*, %"struct.std::pair"** %38, align 8, !llfi_index !1442
  ret %"struct.std::pair"* %39, !llfi_index !1443
}

; Function Attrs: mustprogress noinline nounwind uwtable
define linkonce_odr dso_local %"struct.std::pair"* @_ZSt12__miter_baseIN9__gnu_cxx17__normal_iteratorIPSt4pairIiiESt6vectorIS3_SaIS3_EEEEET_S9_(%"struct.std::pair"* %0) #3 comdat {
  %2 = alloca %"class.__gnu_cxx::__normal_iterator", align 8, !llfi_index !1444
  %3 = alloca %"class.__gnu_cxx::__normal_iterator", align 8, !llfi_index !1445
  %4 = getelementptr inbounds %"class.__gnu_cxx::__normal_iterator", %"class.__gnu_cxx::__normal_iterator"* %3, i32 0, i32 0, !llfi_index !1446
  store %"struct.std::pair"* %0, %"struct.std::pair"** %4, align 8, !llfi_index !1447
  %5 = bitcast %"class.__gnu_cxx::__normal_iterator"* %2 to i8*, !llfi_index !1448
  %6 = bitcast %"class.__gnu_cxx::__normal_iterator"* %3 to i8*, !llfi_index !1449
  call void @llvm.memcpy.p0i8.p0i8.i64(i8* align 8 %5, i8* align 8 %6, i64 8, i1 false), !llfi_index !1450
  %7 = getelementptr inbounds %"class.__gnu_cxx::__normal_iterator", %"class.__gnu_cxx::__normal_iterator"* %2, i32 0, i32 0, !llfi_index !1451
  %8 = load %"struct.std::pair"*, %"struct.std::pair"** %7, align 8, !llfi_index !1452
  ret %"struct.std::pair"* %8, !llfi_index !1453
}

; Function Attrs: mustprogress noinline uwtable
define linkonce_odr dso_local %"struct.std::pair"* @_ZSt23__copy_move_backward_a2ILb1EN9__gnu_cxx17__normal_iteratorIPSt4pairIiiESt6vectorIS3_SaIS3_EEEES8_ET1_T0_SA_S9_(%"struct.std::pair"* %0, %"struct.std::pair"* %1, %"struct.std::pair"* %2) #4 comdat {
  %4 = alloca %"class.__gnu_cxx::__normal_iterator", align 8, !llfi_index !1454
  %5 = alloca %"class.__gnu_cxx::__normal_iterator", align 8, !llfi_index !1455
  %6 = alloca %"class.__gnu_cxx::__normal_iterator", align 8, !llfi_index !1456
  %7 = alloca %"class.__gnu_cxx::__normal_iterator", align 8, !llfi_index !1457
  %8 = alloca %"class.__gnu_cxx::__normal_iterator", align 8, !llfi_index !1458
  %9 = alloca %"class.__gnu_cxx::__normal_iterator", align 8, !llfi_index !1459
  %10 = alloca %"class.__gnu_cxx::__normal_iterator", align 8, !llfi_index !1460
  %11 = alloca %"class.__gnu_cxx::__normal_iterator", align 8, !llfi_index !1461
  %12 = getelementptr inbounds %"class.__gnu_cxx::__normal_iterator", %"class.__gnu_cxx::__normal_iterator"* %5, i32 0, i32 0, !llfi_index !1462
  store %"struct.std::pair"* %0, %"struct.std::pair"** %12, align 8, !llfi_index !1463
  %13 = getelementptr inbounds %"class.__gnu_cxx::__normal_iterator", %"class.__gnu_cxx::__normal_iterator"* %6, i32 0, i32 0, !llfi_index !1464
  store %"struct.std::pair"* %1, %"struct.std::pair"** %13, align 8, !llfi_index !1465
  %14 = getelementptr inbounds %"class.__gnu_cxx::__normal_iterator", %"class.__gnu_cxx::__normal_iterator"* %7, i32 0, i32 0, !llfi_index !1466
  store %"struct.std::pair"* %2, %"struct.std::pair"** %14, align 8, !llfi_index !1467
  %15 = bitcast %"class.__gnu_cxx::__normal_iterator"* %8 to i8*, !llfi_index !1468
  %16 = bitcast %"class.__gnu_cxx::__normal_iterator"* %7 to i8*, !llfi_index !1469
  call void @llvm.memcpy.p0i8.p0i8.i64(i8* align 8 %15, i8* align 8 %16, i64 8, i1 false), !llfi_index !1470
  %17 = bitcast %"class.__gnu_cxx::__normal_iterator"* %9 to i8*, !llfi_index !1471
  %18 = bitcast %"class.__gnu_cxx::__normal_iterator"* %5 to i8*, !llfi_index !1472
  call void @llvm.memcpy.p0i8.p0i8.i64(i8* align 8 %17, i8* align 8 %18, i64 8, i1 false), !llfi_index !1473
  %19 = getelementptr inbounds %"class.__gnu_cxx::__normal_iterator", %"class.__gnu_cxx::__normal_iterator"* %9, i32 0, i32 0, !llfi_index !1474
  %20 = load %"struct.std::pair"*, %"struct.std::pair"** %19, align 8, !llfi_index !1475
  %21 = call %"struct.std::pair"* @_ZSt12__niter_baseIPSt4pairIiiESt6vectorIS1_SaIS1_EEET_N9__gnu_cxx17__normal_iteratorIS6_T0_EE(%"struct.std::pair"* %20) #2, !llfi_index !1476
  %22 = bitcast %"class.__gnu_cxx::__normal_iterator"* %10 to i8*, !llfi_index !1477
  %23 = bitcast %"class.__gnu_cxx::__normal_iterator"* %6 to i8*, !llfi_index !1478
  call void @llvm.memcpy.p0i8.p0i8.i64(i8* align 8 %22, i8* align 8 %23, i64 8, i1 false), !llfi_index !1479
  %24 = getelementptr inbounds %"class.__gnu_cxx::__normal_iterator", %"class.__gnu_cxx::__normal_iterator"* %10, i32 0, i32 0, !llfi_index !1480
  %25 = load %"struct.std::pair"*, %"struct.std::pair"** %24, align 8, !llfi_index !1481
  %26 = call %"struct.std::pair"* @_ZSt12__niter_baseIPSt4pairIiiESt6vectorIS1_SaIS1_EEET_N9__gnu_cxx17__normal_iteratorIS6_T0_EE(%"struct.std::pair"* %25) #2, !llfi_index !1482
  %27 = bitcast %"class.__gnu_cxx::__normal_iterator"* %11 to i8*, !llfi_index !1483
  %28 = bitcast %"class.__gnu_cxx::__normal_iterator"* %7 to i8*, !llfi_index !1484
  call void @llvm.memcpy.p0i8.p0i8.i64(i8* align 8 %27, i8* align 8 %28, i64 8, i1 false), !llfi_index !1485
  %29 = getelementptr inbounds %"class.__gnu_cxx::__normal_iterator", %"class.__gnu_cxx::__normal_iterator"* %11, i32 0, i32 0, !llfi_index !1486
  %30 = load %"struct.std::pair"*, %"struct.std::pair"** %29, align 8, !llfi_index !1487
  %31 = call %"struct.std::pair"* @_ZSt12__niter_baseIPSt4pairIiiESt6vectorIS1_SaIS1_EEET_N9__gnu_cxx17__normal_iteratorIS6_T0_EE(%"struct.std::pair"* %30) #2, !llfi_index !1488
  %32 = call %"struct.std::pair"* @_ZSt22__copy_move_backward_aILb1EPSt4pairIiiES2_ET1_T0_S4_S3_(%"struct.std::pair"* %21, %"struct.std::pair"* %26, %"struct.std::pair"* %31), !llfi_index !1489
  %33 = getelementptr inbounds %"class.__gnu_cxx::__normal_iterator", %"class.__gnu_cxx::__normal_iterator"* %8, i32 0, i32 0, !llfi_index !1490
  %34 = load %"struct.std::pair"*, %"struct.std::pair"** %33, align 8, !llfi_index !1491
  %35 = call %"struct.std::pair"* @_ZSt12__niter_wrapIN9__gnu_cxx17__normal_iteratorIPSt4pairIiiESt6vectorIS3_SaIS3_EEEES4_ET_S9_T0_(%"struct.std::pair"* %34, %"struct.std::pair"* %32), !llfi_index !1492
  %36 = getelementptr inbounds %"class.__gnu_cxx::__normal_iterator", %"class.__gnu_cxx::__normal_iterator"* %4, i32 0, i32 0, !llfi_index !1493
  store %"struct.std::pair"* %35, %"struct.std::pair"** %36, align 8, !llfi_index !1494
  %37 = getelementptr inbounds %"class.__gnu_cxx::__normal_iterator", %"class.__gnu_cxx::__normal_iterator"* %4, i32 0, i32 0, !llfi_index !1495
  %38 = load %"struct.std::pair"*, %"struct.std::pair"** %37, align 8, !llfi_index !1496
  ret %"struct.std::pair"* %38, !llfi_index !1497
}

; Function Attrs: mustprogress noinline nounwind uwtable
define linkonce_odr dso_local %"struct.std::pair"* @_ZSt12__niter_baseIPSt4pairIiiESt6vectorIS1_SaIS1_EEET_N9__gnu_cxx17__normal_iteratorIS6_T0_EE(%"struct.std::pair"* %0) #3 comdat {
  %2 = alloca %"class.__gnu_cxx::__normal_iterator", align 8, !llfi_index !1498
  %3 = getelementptr inbounds %"class.__gnu_cxx::__normal_iterator", %"class.__gnu_cxx::__normal_iterator"* %2, i32 0, i32 0, !llfi_index !1499
  store %"struct.std::pair"* %0, %"struct.std::pair"** %3, align 8, !llfi_index !1500
  %4 = call nonnull align 8 dereferenceable(8) %"struct.std::pair"** @_ZNK9__gnu_cxx17__normal_iteratorIPSt4pairIiiESt6vectorIS2_SaIS2_EEE4baseEv(%"class.__gnu_cxx::__normal_iterator"* nonnull align 8 dereferenceable(8) %2) #2, !llfi_index !1501
  %5 = load %"struct.std::pair"*, %"struct.std::pair"** %4, align 8, !llfi_index !1502
  ret %"struct.std::pair"* %5, !llfi_index !1503
}

; Function Attrs: mustprogress noinline uwtable
define linkonce_odr dso_local %"struct.std::pair"* @_ZSt22__copy_move_backward_aILb1EPSt4pairIiiES2_ET1_T0_S4_S3_(%"struct.std::pair"* %0, %"struct.std::pair"* %1, %"struct.std::pair"* %2) #4 comdat {
  %4 = alloca %"struct.std::pair"*, align 8, !llfi_index !1504
  %5 = alloca %"struct.std::pair"*, align 8, !llfi_index !1505
  %6 = alloca %"struct.std::pair"*, align 8, !llfi_index !1506
  %7 = alloca i8, align 1, !llfi_index !1507
  store %"struct.std::pair"* %0, %"struct.std::pair"** %4, align 8, !llfi_index !1508
  store %"struct.std::pair"* %1, %"struct.std::pair"** %5, align 8, !llfi_index !1509
  store %"struct.std::pair"* %2, %"struct.std::pair"** %6, align 8, !llfi_index !1510
  store i8 0, i8* %7, align 1, !llfi_index !1511
  %8 = load %"struct.std::pair"*, %"struct.std::pair"** %4, align 8, !llfi_index !1512
  %9 = load %"struct.std::pair"*, %"struct.std::pair"** %5, align 8, !llfi_index !1513
  %10 = load %"struct.std::pair"*, %"struct.std::pair"** %6, align 8, !llfi_index !1514
  %11 = call %"struct.std::pair"* @_ZNSt20__copy_move_backwardILb1ELb0ESt26random_access_iterator_tagE13__copy_move_bIPSt4pairIiiES5_EET0_T_S7_S6_(%"struct.std::pair"* %8, %"struct.std::pair"* %9, %"struct.std::pair"* %10), !llfi_index !1515
  ret %"struct.std::pair"* %11, !llfi_index !1516
}

; Function Attrs: mustprogress noinline nounwind uwtable
define linkonce_odr dso_local %"struct.std::pair"* @_ZSt12__niter_wrapIN9__gnu_cxx17__normal_iteratorIPSt4pairIiiESt6vectorIS3_SaIS3_EEEES4_ET_S9_T0_(%"struct.std::pair"* %0, %"struct.std::pair"* %1) #3 comdat {
  %3 = alloca %"class.__gnu_cxx::__normal_iterator", align 8, !llfi_index !1517
  %4 = alloca %"class.__gnu_cxx::__normal_iterator", align 8, !llfi_index !1518
  %5 = alloca %"struct.std::pair"*, align 8, !llfi_index !1519
  %6 = alloca %"class.__gnu_cxx::__normal_iterator", align 8, !llfi_index !1520
  %7 = getelementptr inbounds %"class.__gnu_cxx::__normal_iterator", %"class.__gnu_cxx::__normal_iterator"* %4, i32 0, i32 0, !llfi_index !1521
  store %"struct.std::pair"* %0, %"struct.std::pair"** %7, align 8, !llfi_index !1522
  store %"struct.std::pair"* %1, %"struct.std::pair"** %5, align 8, !llfi_index !1523
  %8 = load %"struct.std::pair"*, %"struct.std::pair"** %5, align 8, !llfi_index !1524
  %9 = bitcast %"class.__gnu_cxx::__normal_iterator"* %6 to i8*, !llfi_index !1525
  %10 = bitcast %"class.__gnu_cxx::__normal_iterator"* %4 to i8*, !llfi_index !1526
  call void @llvm.memcpy.p0i8.p0i8.i64(i8* align 8 %9, i8* align 8 %10, i64 8, i1 false), !llfi_index !1527
  %11 = getelementptr inbounds %"class.__gnu_cxx::__normal_iterator", %"class.__gnu_cxx::__normal_iterator"* %6, i32 0, i32 0, !llfi_index !1528
  %12 = load %"struct.std::pair"*, %"struct.std::pair"** %11, align 8, !llfi_index !1529
  %13 = call %"struct.std::pair"* @_ZSt12__niter_baseIPSt4pairIiiESt6vectorIS1_SaIS1_EEET_N9__gnu_cxx17__normal_iteratorIS6_T0_EE(%"struct.std::pair"* %12) #2, !llfi_index !1530
  %14 = ptrtoint %"struct.std::pair"* %8 to i64, !llfi_index !1531
  %15 = ptrtoint %"struct.std::pair"* %13 to i64, !llfi_index !1532
  %16 = sub i64 %14, %15, !llfi_index !1533
  %17 = sdiv exact i64 %16, 8, !llfi_index !1534
  %18 = call %"struct.std::pair"* @_ZNK9__gnu_cxx17__normal_iteratorIPSt4pairIiiESt6vectorIS2_SaIS2_EEEplEl(%"class.__gnu_cxx::__normal_iterator"* nonnull align 8 dereferenceable(8) %4, i64 %17) #2, !llfi_index !1535
  %19 = getelementptr inbounds %"class.__gnu_cxx::__normal_iterator", %"class.__gnu_cxx::__normal_iterator"* %3, i32 0, i32 0, !llfi_index !1536
  store %"struct.std::pair"* %18, %"struct.std::pair"** %19, align 8, !llfi_index !1537
  %20 = getelementptr inbounds %"class.__gnu_cxx::__normal_iterator", %"class.__gnu_cxx::__normal_iterator"* %3, i32 0, i32 0, !llfi_index !1538
  %21 = load %"struct.std::pair"*, %"struct.std::pair"** %20, align 8, !llfi_index !1539
  ret %"struct.std::pair"* %21, !llfi_index !1540
}

; Function Attrs: mustprogress noinline nounwind uwtable
define linkonce_odr dso_local %"struct.std::pair"* @_ZNSt20__copy_move_backwardILb1ELb0ESt26random_access_iterator_tagE13__copy_move_bIPSt4pairIiiES5_EET0_T_S7_S6_(%"struct.std::pair"* %0, %"struct.std::pair"* %1, %"struct.std::pair"* %2) #3 comdat align 2 {
  %4 = alloca %"struct.std::pair"*, align 8, !llfi_index !1541
  %5 = alloca %"struct.std::pair"*, align 8, !llfi_index !1542
  %6 = alloca %"struct.std::pair"*, align 8, !llfi_index !1543
  %7 = alloca i64, align 8, !llfi_index !1544
  store %"struct.std::pair"* %0, %"struct.std::pair"** %4, align 8, !llfi_index !1545
  store %"struct.std::pair"* %1, %"struct.std::pair"** %5, align 8, !llfi_index !1546
  store %"struct.std::pair"* %2, %"struct.std::pair"** %6, align 8, !llfi_index !1547
  %8 = load %"struct.std::pair"*, %"struct.std::pair"** %5, align 8, !llfi_index !1548
  %9 = load %"struct.std::pair"*, %"struct.std::pair"** %4, align 8, !llfi_index !1549
  %10 = ptrtoint %"struct.std::pair"* %8 to i64, !llfi_index !1550
  %11 = ptrtoint %"struct.std::pair"* %9 to i64, !llfi_index !1551
  %12 = sub i64 %10, %11, !llfi_index !1552
  %13 = sdiv exact i64 %12, 8, !llfi_index !1553
  store i64 %13, i64* %7, align 8, !llfi_index !1554
  br label %14, !llfi_index !1555

14:                                               ; preds = %24, %3
  %15 = load i64, i64* %7, align 8, !llfi_index !1556
  %16 = icmp sgt i64 %15, 0, !llfi_index !1557
  br i1 %16, label %17, label %27, !llfi_index !1558

17:                                               ; preds = %14
  %18 = load %"struct.std::pair"*, %"struct.std::pair"** %5, align 8, !llfi_index !1559
  %19 = getelementptr inbounds %"struct.std::pair", %"struct.std::pair"* %18, i32 -1, !llfi_index !1560
  store %"struct.std::pair"* %19, %"struct.std::pair"** %5, align 8, !llfi_index !1561
  %20 = call nonnull align 4 dereferenceable(8) %"struct.std::pair"* @_ZSt4moveIRSt4pairIiiEEONSt16remove_referenceIT_E4typeEOS4_(%"struct.std::pair"* nonnull align 4 dereferenceable(8) %19) #2, !llfi_index !1562
  %21 = load %"struct.std::pair"*, %"struct.std::pair"** %6, align 8, !llfi_index !1563
  %22 = getelementptr inbounds %"struct.std::pair", %"struct.std::pair"* %21, i32 -1, !llfi_index !1564
  store %"struct.std::pair"* %22, %"struct.std::pair"** %6, align 8, !llfi_index !1565
  %23 = call nonnull align 4 dereferenceable(8) %"struct.std::pair"* @_ZNSt4pairIiiEaSEOS0_(%"struct.std::pair"* nonnull align 4 dereferenceable(8) %22, %"struct.std::pair"* nonnull align 4 dereferenceable(8) %20) #2, !llfi_index !1566
  br label %24, !llfi_index !1567

24:                                               ; preds = %17
  %25 = load i64, i64* %7, align 8, !llfi_index !1568
  %26 = add nsw i64 %25, -1, !llfi_index !1569
  store i64 %26, i64* %7, align 8, !llfi_index !1570
  br label %14, !llvm.loop !1571, !llfi_index !1572

27:                                               ; preds = %14
  %28 = load %"struct.std::pair"*, %"struct.std::pair"** %6, align 8, !llfi_index !1573
  ret %"struct.std::pair"* %28, !llfi_index !1574
}

; Function Attrs: mustprogress noinline nounwind uwtable
define linkonce_odr dso_local nonnull align 8 dereferenceable(8) %"struct.std::pair"** @_ZNK9__gnu_cxx17__normal_iteratorIPSt4pairIiiESt6vectorIS2_SaIS2_EEE4baseEv(%"class.__gnu_cxx::__normal_iterator"* nonnull align 8 dereferenceable(8) %0) #3 comdat align 2 {
  %2 = alloca %"class.__gnu_cxx::__normal_iterator"*, align 8, !llfi_index !1575
  store %"class.__gnu_cxx::__normal_iterator"* %0, %"class.__gnu_cxx::__normal_iterator"** %2, align 8, !llfi_index !1576
  %3 = load %"class.__gnu_cxx::__normal_iterator"*, %"class.__gnu_cxx::__normal_iterator"** %2, align 8, !llfi_index !1577
  %4 = getelementptr inbounds %"class.__gnu_cxx::__normal_iterator", %"class.__gnu_cxx::__normal_iterator"* %3, i32 0, i32 0, !llfi_index !1578
  ret %"struct.std::pair"** %4, !llfi_index !1579
}

; Function Attrs: noinline nounwind uwtable
define linkonce_odr dso_local void @_ZN9__gnu_cxx17__normal_iteratorIPSt4pairIiiESt6vectorIS2_SaIS2_EEEC2ERKS3_(%"class.__gnu_cxx::__normal_iterator"* nonnull align 8 dereferenceable(8) %0, %"struct.std::pair"** nonnull align 8 dereferenceable(8) %1) unnamed_addr #1 comdat align 2 {
  %3 = alloca %"class.__gnu_cxx::__normal_iterator"*, align 8, !llfi_index !1580
  %4 = alloca %"struct.std::pair"**, align 8, !llfi_index !1581
  store %"class.__gnu_cxx::__normal_iterator"* %0, %"class.__gnu_cxx::__normal_iterator"** %3, align 8, !llfi_index !1582
  store %"struct.std::pair"** %1, %"struct.std::pair"*** %4, align 8, !llfi_index !1583
  %5 = load %"class.__gnu_cxx::__normal_iterator"*, %"class.__gnu_cxx::__normal_iterator"** %3, align 8, !llfi_index !1584
  %6 = getelementptr inbounds %"class.__gnu_cxx::__normal_iterator", %"class.__gnu_cxx::__normal_iterator"* %5, i32 0, i32 0, !llfi_index !1585
  %7 = load %"struct.std::pair"**, %"struct.std::pair"*** %4, align 8, !llfi_index !1586
  %8 = load %"struct.std::pair"*, %"struct.std::pair"** %7, align 8, !llfi_index !1587
  store %"struct.std::pair"* %8, %"struct.std::pair"** %6, align 8, !llfi_index !1588
  ret void, !llfi_index !1589
}

; Function Attrs: mustprogress noinline uwtable
define linkonce_odr dso_local void @_ZSt14__partial_sortIN9__gnu_cxx17__normal_iteratorIPSt4pairIiiESt6vectorIS3_SaIS3_EEEENS0_5__ops15_Iter_less_iterEEvT_SB_SB_T0_(%"struct.std::pair"* %0, %"struct.std::pair"* %1, %"struct.std::pair"* %2) #4 comdat {
  %4 = alloca %"class.__gnu_cxx::__normal_iterator", align 8, !llfi_index !1590
  %5 = alloca %"class.__gnu_cxx::__normal_iterator", align 8, !llfi_index !1591
  %6 = alloca %"class.__gnu_cxx::__normal_iterator", align 8, !llfi_index !1592
  %7 = alloca %"class.std::allocator", align 1, !llfi_index !1593
  %8 = alloca %"class.__gnu_cxx::__normal_iterator", align 8, !llfi_index !1594
  %9 = alloca %"class.__gnu_cxx::__normal_iterator", align 8, !llfi_index !1595
  %10 = alloca %"class.__gnu_cxx::__normal_iterator", align 8, !llfi_index !1596
  %11 = alloca %"class.std::allocator", align 1, !llfi_index !1597
  %12 = alloca %"class.__gnu_cxx::__normal_iterator", align 8, !llfi_index !1598
  %13 = alloca %"class.__gnu_cxx::__normal_iterator", align 8, !llfi_index !1599
  %14 = getelementptr inbounds %"class.__gnu_cxx::__normal_iterator", %"class.__gnu_cxx::__normal_iterator"* %4, i32 0, i32 0, !llfi_index !1600
  store %"struct.std::pair"* %0, %"struct.std::pair"** %14, align 8, !llfi_index !1601
  %15 = getelementptr inbounds %"class.__gnu_cxx::__normal_iterator", %"class.__gnu_cxx::__normal_iterator"* %5, i32 0, i32 0, !llfi_index !1602
  store %"struct.std::pair"* %1, %"struct.std::pair"** %15, align 8, !llfi_index !1603
  %16 = getelementptr inbounds %"class.__gnu_cxx::__normal_iterator", %"class.__gnu_cxx::__normal_iterator"* %6, i32 0, i32 0, !llfi_index !1604
  store %"struct.std::pair"* %2, %"struct.std::pair"** %16, align 8, !llfi_index !1605
  %17 = bitcast %"class.__gnu_cxx::__normal_iterator"* %8 to i8*, !llfi_index !1606
  %18 = bitcast %"class.__gnu_cxx::__normal_iterator"* %4 to i8*, !llfi_index !1607
  call void @llvm.memcpy.p0i8.p0i8.i64(i8* align 8 %17, i8* align 8 %18, i64 8, i1 false), !llfi_index !1608
  %19 = bitcast %"class.__gnu_cxx::__normal_iterator"* %9 to i8*, !llfi_index !1609
  %20 = bitcast %"class.__gnu_cxx::__normal_iterator"* %5 to i8*, !llfi_index !1610
  call void @llvm.memcpy.p0i8.p0i8.i64(i8* align 8 %19, i8* align 8 %20, i64 8, i1 false), !llfi_index !1611
  %21 = bitcast %"class.__gnu_cxx::__normal_iterator"* %10 to i8*, !llfi_index !1612
  %22 = bitcast %"class.__gnu_cxx::__normal_iterator"* %6 to i8*, !llfi_index !1613
  call void @llvm.memcpy.p0i8.p0i8.i64(i8* align 8 %21, i8* align 8 %22, i64 8, i1 false), !llfi_index !1614
  %23 = getelementptr inbounds %"class.__gnu_cxx::__normal_iterator", %"class.__gnu_cxx::__normal_iterator"* %8, i32 0, i32 0, !llfi_index !1615
  %24 = load %"struct.std::pair"*, %"struct.std::pair"** %23, align 8, !llfi_index !1616
  %25 = getelementptr inbounds %"class.__gnu_cxx::__normal_iterator", %"class.__gnu_cxx::__normal_iterator"* %9, i32 0, i32 0, !llfi_index !1617
  %26 = load %"struct.std::pair"*, %"struct.std::pair"** %25, align 8, !llfi_index !1618
  %27 = getelementptr inbounds %"class.__gnu_cxx::__normal_iterator", %"class.__gnu_cxx::__normal_iterator"* %10, i32 0, i32 0, !llfi_index !1619
  %28 = load %"struct.std::pair"*, %"struct.std::pair"** %27, align 8, !llfi_index !1620
  call void @_ZSt13__heap_selectIN9__gnu_cxx17__normal_iteratorIPSt4pairIiiESt6vectorIS3_SaIS3_EEEENS0_5__ops15_Iter_less_iterEEvT_SB_SB_T0_(%"struct.std::pair"* %24, %"struct.std::pair"* %26, %"struct.std::pair"* %28), !llfi_index !1621
  %29 = bitcast %"class.__gnu_cxx::__normal_iterator"* %12 to i8*, !llfi_index !1622
  %30 = bitcast %"class.__gnu_cxx::__normal_iterator"* %4 to i8*, !llfi_index !1623
  call void @llvm.memcpy.p0i8.p0i8.i64(i8* align 8 %29, i8* align 8 %30, i64 8, i1 false), !llfi_index !1624
  %31 = bitcast %"class.__gnu_cxx::__normal_iterator"* %13 to i8*, !llfi_index !1625
  %32 = bitcast %"class.__gnu_cxx::__normal_iterator"* %5 to i8*, !llfi_index !1626
  call void @llvm.memcpy.p0i8.p0i8.i64(i8* align 8 %31, i8* align 8 %32, i64 8, i1 false), !llfi_index !1627
  %33 = getelementptr inbounds %"class.__gnu_cxx::__normal_iterator", %"class.__gnu_cxx::__normal_iterator"* %12, i32 0, i32 0, !llfi_index !1628
  %34 = load %"struct.std::pair"*, %"struct.std::pair"** %33, align 8, !llfi_index !1629
  %35 = getelementptr inbounds %"class.__gnu_cxx::__normal_iterator", %"class.__gnu_cxx::__normal_iterator"* %13, i32 0, i32 0, !llfi_index !1630
  %36 = load %"struct.std::pair"*, %"struct.std::pair"** %35, align 8, !llfi_index !1631
  call void @_ZSt11__sort_heapIN9__gnu_cxx17__normal_iteratorIPSt4pairIiiESt6vectorIS3_SaIS3_EEEENS0_5__ops15_Iter_less_iterEEvT_SB_RT0_(%"struct.std::pair"* %34, %"struct.std::pair"* %36, %"class.std::allocator"* nonnull align 1 dereferenceable(1) %7), !llfi_index !1632
  ret void, !llfi_index !1633
}

; Function Attrs: mustprogress noinline uwtable
define linkonce_odr dso_local %"struct.std::pair"* @_ZSt27__unguarded_partition_pivotIN9__gnu_cxx17__normal_iteratorIPSt4pairIiiESt6vectorIS3_SaIS3_EEEENS0_5__ops15_Iter_less_iterEET_SB_SB_T0_(%"struct.std::pair"* %0, %"struct.std::pair"* %1) #4 comdat {
  %3 = alloca %"class.__gnu_cxx::__normal_iterator", align 8, !llfi_index !1634
  %4 = alloca %"class.__gnu_cxx::__normal_iterator", align 8, !llfi_index !1635
  %5 = alloca %"class.__gnu_cxx::__normal_iterator", align 8, !llfi_index !1636
  %6 = alloca %"class.std::allocator", align 1, !llfi_index !1637
  %7 = alloca %"class.__gnu_cxx::__normal_iterator", align 8, !llfi_index !1638
  %8 = alloca %"class.__gnu_cxx::__normal_iterator", align 8, !llfi_index !1639
  %9 = alloca %"class.__gnu_cxx::__normal_iterator", align 8, !llfi_index !1640
  %10 = alloca %"class.__gnu_cxx::__normal_iterator", align 8, !llfi_index !1641
  %11 = alloca %"class.__gnu_cxx::__normal_iterator", align 8, !llfi_index !1642
  %12 = alloca %"class.std::allocator", align 1, !llfi_index !1643
  %13 = alloca %"class.__gnu_cxx::__normal_iterator", align 8, !llfi_index !1644
  %14 = alloca %"class.__gnu_cxx::__normal_iterator", align 8, !llfi_index !1645
  %15 = alloca %"class.__gnu_cxx::__normal_iterator", align 8, !llfi_index !1646
  %16 = alloca %"class.std::allocator", align 1, !llfi_index !1647
  %17 = getelementptr inbounds %"class.__gnu_cxx::__normal_iterator", %"class.__gnu_cxx::__normal_iterator"* %4, i32 0, i32 0, !llfi_index !1648
  store %"struct.std::pair"* %0, %"struct.std::pair"** %17, align 8, !llfi_index !1649
  %18 = getelementptr inbounds %"class.__gnu_cxx::__normal_iterator", %"class.__gnu_cxx::__normal_iterator"* %5, i32 0, i32 0, !llfi_index !1650
  store %"struct.std::pair"* %1, %"struct.std::pair"** %18, align 8, !llfi_index !1651
  %19 = call i64 @_ZN9__gnu_cxxmiIPSt4pairIiiESt6vectorIS2_SaIS2_EEEENS_17__normal_iteratorIT_T0_E15difference_typeERKSA_SD_(%"class.__gnu_cxx::__normal_iterator"* nonnull align 8 dereferenceable(8) %5, %"class.__gnu_cxx::__normal_iterator"* nonnull align 8 dereferenceable(8) %4) #2, !llfi_index !1652
  %20 = sdiv i64 %19, 2, !llfi_index !1653
  %21 = call %"struct.std::pair"* @_ZNK9__gnu_cxx17__normal_iteratorIPSt4pairIiiESt6vectorIS2_SaIS2_EEEplEl(%"class.__gnu_cxx::__normal_iterator"* nonnull align 8 dereferenceable(8) %4, i64 %20) #2, !llfi_index !1654
  %22 = getelementptr inbounds %"class.__gnu_cxx::__normal_iterator", %"class.__gnu_cxx::__normal_iterator"* %7, i32 0, i32 0, !llfi_index !1655
  store %"struct.std::pair"* %21, %"struct.std::pair"** %22, align 8, !llfi_index !1656
  %23 = bitcast %"class.__gnu_cxx::__normal_iterator"* %8 to i8*, !llfi_index !1657
  %24 = bitcast %"class.__gnu_cxx::__normal_iterator"* %4 to i8*, !llfi_index !1658
  call void @llvm.memcpy.p0i8.p0i8.i64(i8* align 8 %23, i8* align 8 %24, i64 8, i1 false), !llfi_index !1659
  %25 = call %"struct.std::pair"* @_ZNK9__gnu_cxx17__normal_iteratorIPSt4pairIiiESt6vectorIS2_SaIS2_EEEplEl(%"class.__gnu_cxx::__normal_iterator"* nonnull align 8 dereferenceable(8) %4, i64 1) #2, !llfi_index !1660
  %26 = getelementptr inbounds %"class.__gnu_cxx::__normal_iterator", %"class.__gnu_cxx::__normal_iterator"* %9, i32 0, i32 0, !llfi_index !1661
  store %"struct.std::pair"* %25, %"struct.std::pair"** %26, align 8, !llfi_index !1662
  %27 = bitcast %"class.__gnu_cxx::__normal_iterator"* %10 to i8*, !llfi_index !1663
  %28 = bitcast %"class.__gnu_cxx::__normal_iterator"* %7 to i8*, !llfi_index !1664
  call void @llvm.memcpy.p0i8.p0i8.i64(i8* align 8 %27, i8* align 8 %28, i64 8, i1 false), !llfi_index !1665
  %29 = call %"struct.std::pair"* @_ZNK9__gnu_cxx17__normal_iteratorIPSt4pairIiiESt6vectorIS2_SaIS2_EEEmiEl(%"class.__gnu_cxx::__normal_iterator"* nonnull align 8 dereferenceable(8) %5, i64 1) #2, !llfi_index !1666
  %30 = getelementptr inbounds %"class.__gnu_cxx::__normal_iterator", %"class.__gnu_cxx::__normal_iterator"* %11, i32 0, i32 0, !llfi_index !1667
  store %"struct.std::pair"* %29, %"struct.std::pair"** %30, align 8, !llfi_index !1668
  %31 = getelementptr inbounds %"class.__gnu_cxx::__normal_iterator", %"class.__gnu_cxx::__normal_iterator"* %8, i32 0, i32 0, !llfi_index !1669
  %32 = load %"struct.std::pair"*, %"struct.std::pair"** %31, align 8, !llfi_index !1670
  %33 = getelementptr inbounds %"class.__gnu_cxx::__normal_iterator", %"class.__gnu_cxx::__normal_iterator"* %9, i32 0, i32 0, !llfi_index !1671
  %34 = load %"struct.std::pair"*, %"struct.std::pair"** %33, align 8, !llfi_index !1672
  %35 = getelementptr inbounds %"class.__gnu_cxx::__normal_iterator", %"class.__gnu_cxx::__normal_iterator"* %10, i32 0, i32 0, !llfi_index !1673
  %36 = load %"struct.std::pair"*, %"struct.std::pair"** %35, align 8, !llfi_index !1674
  %37 = getelementptr inbounds %"class.__gnu_cxx::__normal_iterator", %"class.__gnu_cxx::__normal_iterator"* %11, i32 0, i32 0, !llfi_index !1675
  %38 = load %"struct.std::pair"*, %"struct.std::pair"** %37, align 8, !llfi_index !1676
  call void @_ZSt22__move_median_to_firstIN9__gnu_cxx17__normal_iteratorIPSt4pairIiiESt6vectorIS3_SaIS3_EEEENS0_5__ops15_Iter_less_iterEEvT_SB_SB_SB_T0_(%"struct.std::pair"* %32, %"struct.std::pair"* %34, %"struct.std::pair"* %36, %"struct.std::pair"* %38), !llfi_index !1677
  %39 = call %"struct.std::pair"* @_ZNK9__gnu_cxx17__normal_iteratorIPSt4pairIiiESt6vectorIS2_SaIS2_EEEplEl(%"class.__gnu_cxx::__normal_iterator"* nonnull align 8 dereferenceable(8) %4, i64 1) #2, !llfi_index !1678
  %40 = getelementptr inbounds %"class.__gnu_cxx::__normal_iterator", %"class.__gnu_cxx::__normal_iterator"* %13, i32 0, i32 0, !llfi_index !1679
  store %"struct.std::pair"* %39, %"struct.std::pair"** %40, align 8, !llfi_index !1680
  %41 = bitcast %"class.__gnu_cxx::__normal_iterator"* %14 to i8*, !llfi_index !1681
  %42 = bitcast %"class.__gnu_cxx::__normal_iterator"* %5 to i8*, !llfi_index !1682
  call void @llvm.memcpy.p0i8.p0i8.i64(i8* align 8 %41, i8* align 8 %42, i64 8, i1 false), !llfi_index !1683
  %43 = bitcast %"class.__gnu_cxx::__normal_iterator"* %15 to i8*, !llfi_index !1684
  %44 = bitcast %"class.__gnu_cxx::__normal_iterator"* %4 to i8*, !llfi_index !1685
  call void @llvm.memcpy.p0i8.p0i8.i64(i8* align 8 %43, i8* align 8 %44, i64 8, i1 false), !llfi_index !1686
  %45 = getelementptr inbounds %"class.__gnu_cxx::__normal_iterator", %"class.__gnu_cxx::__normal_iterator"* %13, i32 0, i32 0, !llfi_index !1687
  %46 = load %"struct.std::pair"*, %"struct.std::pair"** %45, align 8, !llfi_index !1688
  %47 = getelementptr inbounds %"class.__gnu_cxx::__normal_iterator", %"class.__gnu_cxx::__normal_iterator"* %14, i32 0, i32 0, !llfi_index !1689
  %48 = load %"struct.std::pair"*, %"struct.std::pair"** %47, align 8, !llfi_index !1690
  %49 = getelementptr inbounds %"class.__gnu_cxx::__normal_iterator", %"class.__gnu_cxx::__normal_iterator"* %15, i32 0, i32 0, !llfi_index !1691
  %50 = load %"struct.std::pair"*, %"struct.std::pair"** %49, align 8, !llfi_index !1692
  %51 = call %"struct.std::pair"* @_ZSt21__unguarded_partitionIN9__gnu_cxx17__normal_iteratorIPSt4pairIiiESt6vectorIS3_SaIS3_EEEENS0_5__ops15_Iter_less_iterEET_SB_SB_SB_T0_(%"struct.std::pair"* %46, %"struct.std::pair"* %48, %"struct.std::pair"* %50), !llfi_index !1693
  %52 = getelementptr inbounds %"class.__gnu_cxx::__normal_iterator", %"class.__gnu_cxx::__normal_iterator"* %3, i32 0, i32 0, !llfi_index !1694
  store %"struct.std::pair"* %51, %"struct.std::pair"** %52, align 8, !llfi_index !1695
  %53 = getelementptr inbounds %"class.__gnu_cxx::__normal_iterator", %"class.__gnu_cxx::__normal_iterator"* %3, i32 0, i32 0, !llfi_index !1696
  %54 = load %"struct.std::pair"*, %"struct.std::pair"** %53, align 8, !llfi_index !1697
  ret %"struct.std::pair"* %54, !llfi_index !1698
}

; Function Attrs: mustprogress noinline nounwind uwtable
define linkonce_odr dso_local %"struct.std::pair"* @_ZNK9__gnu_cxx17__normal_iteratorIPSt4pairIiiESt6vectorIS2_SaIS2_EEEmiEl(%"class.__gnu_cxx::__normal_iterator"* nonnull align 8 dereferenceable(8) %0, i64 %1) #3 comdat align 2 {
  %3 = alloca %"class.__gnu_cxx::__normal_iterator", align 8, !llfi_index !1699
  %4 = alloca %"class.__gnu_cxx::__normal_iterator"*, align 8, !llfi_index !1700
  %5 = alloca i64, align 8, !llfi_index !1701
  %6 = alloca %"struct.std::pair"*, align 8, !llfi_index !1702
  store %"class.__gnu_cxx::__normal_iterator"* %0, %"class.__gnu_cxx::__normal_iterator"** %4, align 8, !llfi_index !1703
  store i64 %1, i64* %5, align 8, !llfi_index !1704
  %7 = load %"class.__gnu_cxx::__normal_iterator"*, %"class.__gnu_cxx::__normal_iterator"** %4, align 8, !llfi_index !1705
  %8 = getelementptr inbounds %"class.__gnu_cxx::__normal_iterator", %"class.__gnu_cxx::__normal_iterator"* %7, i32 0, i32 0, !llfi_index !1706
  %9 = load %"struct.std::pair"*, %"struct.std::pair"** %8, align 8, !llfi_index !1707
  %10 = load i64, i64* %5, align 8, !llfi_index !1708
  %11 = sub i64 0, %10, !llfi_index !1709
  %12 = getelementptr inbounds %"struct.std::pair", %"struct.std::pair"* %9, i64 %11, !llfi_index !1710
  store %"struct.std::pair"* %12, %"struct.std::pair"** %6, align 8, !llfi_index !1711
  call void @_ZN9__gnu_cxx17__normal_iteratorIPSt4pairIiiESt6vectorIS2_SaIS2_EEEC2ERKS3_(%"class.__gnu_cxx::__normal_iterator"* nonnull align 8 dereferenceable(8) %3, %"struct.std::pair"** nonnull align 8 dereferenceable(8) %6) #2, !llfi_index !1712
  %13 = getelementptr inbounds %"class.__gnu_cxx::__normal_iterator", %"class.__gnu_cxx::__normal_iterator"* %3, i32 0, i32 0, !llfi_index !1713
  %14 = load %"struct.std::pair"*, %"struct.std::pair"** %13, align 8, !llfi_index !1714
  ret %"struct.std::pair"* %14, !llfi_index !1715
}

; Function Attrs: mustprogress noinline uwtable
define linkonce_odr dso_local void @_ZSt22__move_median_to_firstIN9__gnu_cxx17__normal_iteratorIPSt4pairIiiESt6vectorIS3_SaIS3_EEEENS0_5__ops15_Iter_less_iterEEvT_SB_SB_SB_T0_(%"struct.std::pair"* %0, %"struct.std::pair"* %1, %"struct.std::pair"* %2, %"struct.std::pair"* %3) #4 comdat {
  %5 = alloca %"class.__gnu_cxx::__normal_iterator", align 8, !llfi_index !1716
  %6 = alloca %"class.__gnu_cxx::__normal_iterator", align 8, !llfi_index !1717
  %7 = alloca %"class.__gnu_cxx::__normal_iterator", align 8, !llfi_index !1718
  %8 = alloca %"class.__gnu_cxx::__normal_iterator", align 8, !llfi_index !1719
  %9 = alloca %"class.std::allocator", align 1, !llfi_index !1720
  %10 = alloca %"class.__gnu_cxx::__normal_iterator", align 8, !llfi_index !1721
  %11 = alloca %"class.__gnu_cxx::__normal_iterator", align 8, !llfi_index !1722
  %12 = alloca %"class.__gnu_cxx::__normal_iterator", align 8, !llfi_index !1723
  %13 = alloca %"class.__gnu_cxx::__normal_iterator", align 8, !llfi_index !1724
  %14 = alloca %"class.__gnu_cxx::__normal_iterator", align 8, !llfi_index !1725
  %15 = alloca %"class.__gnu_cxx::__normal_iterator", align 8, !llfi_index !1726
  %16 = alloca %"class.__gnu_cxx::__normal_iterator", align 8, !llfi_index !1727
  %17 = alloca %"class.__gnu_cxx::__normal_iterator", align 8, !llfi_index !1728
  %18 = alloca %"class.__gnu_cxx::__normal_iterator", align 8, !llfi_index !1729
  %19 = alloca %"class.__gnu_cxx::__normal_iterator", align 8, !llfi_index !1730
  %20 = alloca %"class.__gnu_cxx::__normal_iterator", align 8, !llfi_index !1731
  %21 = alloca %"class.__gnu_cxx::__normal_iterator", align 8, !llfi_index !1732
  %22 = alloca %"class.__gnu_cxx::__normal_iterator", align 8, !llfi_index !1733
  %23 = alloca %"class.__gnu_cxx::__normal_iterator", align 8, !llfi_index !1734
  %24 = alloca %"class.__gnu_cxx::__normal_iterator", align 8, !llfi_index !1735
  %25 = alloca %"class.__gnu_cxx::__normal_iterator", align 8, !llfi_index !1736
  %26 = alloca %"class.__gnu_cxx::__normal_iterator", align 8, !llfi_index !1737
  %27 = alloca %"class.__gnu_cxx::__normal_iterator", align 8, !llfi_index !1738
  %28 = alloca %"class.__gnu_cxx::__normal_iterator", align 8, !llfi_index !1739
  %29 = alloca %"class.__gnu_cxx::__normal_iterator", align 8, !llfi_index !1740
  %30 = alloca %"class.__gnu_cxx::__normal_iterator", align 8, !llfi_index !1741
  %31 = alloca %"class.__gnu_cxx::__normal_iterator", align 8, !llfi_index !1742
  %32 = getelementptr inbounds %"class.__gnu_cxx::__normal_iterator", %"class.__gnu_cxx::__normal_iterator"* %5, i32 0, i32 0, !llfi_index !1743
  store %"struct.std::pair"* %0, %"struct.std::pair"** %32, align 8, !llfi_index !1744
  %33 = getelementptr inbounds %"class.__gnu_cxx::__normal_iterator", %"class.__gnu_cxx::__normal_iterator"* %6, i32 0, i32 0, !llfi_index !1745
  store %"struct.std::pair"* %1, %"struct.std::pair"** %33, align 8, !llfi_index !1746
  %34 = getelementptr inbounds %"class.__gnu_cxx::__normal_iterator", %"class.__gnu_cxx::__normal_iterator"* %7, i32 0, i32 0, !llfi_index !1747
  store %"struct.std::pair"* %2, %"struct.std::pair"** %34, align 8, !llfi_index !1748
  %35 = getelementptr inbounds %"class.__gnu_cxx::__normal_iterator", %"class.__gnu_cxx::__normal_iterator"* %8, i32 0, i32 0, !llfi_index !1749
  store %"struct.std::pair"* %3, %"struct.std::pair"** %35, align 8, !llfi_index !1750
  %36 = bitcast %"class.__gnu_cxx::__normal_iterator"* %10 to i8*, !llfi_index !1751
  %37 = bitcast %"class.__gnu_cxx::__normal_iterator"* %6 to i8*, !llfi_index !1752
  call void @llvm.memcpy.p0i8.p0i8.i64(i8* align 8 %36, i8* align 8 %37, i64 8, i1 false), !llfi_index !1753
  %38 = bitcast %"class.__gnu_cxx::__normal_iterator"* %11 to i8*, !llfi_index !1754
  %39 = bitcast %"class.__gnu_cxx::__normal_iterator"* %7 to i8*, !llfi_index !1755
  call void @llvm.memcpy.p0i8.p0i8.i64(i8* align 8 %38, i8* align 8 %39, i64 8, i1 false), !llfi_index !1756
  %40 = getelementptr inbounds %"class.__gnu_cxx::__normal_iterator", %"class.__gnu_cxx::__normal_iterator"* %10, i32 0, i32 0, !llfi_index !1757
  %41 = load %"struct.std::pair"*, %"struct.std::pair"** %40, align 8, !llfi_index !1758
  %42 = getelementptr inbounds %"class.__gnu_cxx::__normal_iterator", %"class.__gnu_cxx::__normal_iterator"* %11, i32 0, i32 0, !llfi_index !1759
  %43 = load %"struct.std::pair"*, %"struct.std::pair"** %42, align 8, !llfi_index !1760
  %44 = call zeroext i1 @_ZNK9__gnu_cxx5__ops15_Iter_less_iterclINS_17__normal_iteratorIPSt4pairIiiESt6vectorIS5_SaIS5_EEEESA_EEbT_T0_(%"class.std::allocator"* nonnull align 1 dereferenceable(1) %9, %"struct.std::pair"* %41, %"struct.std::pair"* %43), !llfi_index !1761
  br i1 %44, label %45, label %94, !llfi_index !1762

45:                                               ; preds = %4
  %46 = bitcast %"class.__gnu_cxx::__normal_iterator"* %12 to i8*, !llfi_index !1763
  %47 = bitcast %"class.__gnu_cxx::__normal_iterator"* %7 to i8*, !llfi_index !1764
  call void @llvm.memcpy.p0i8.p0i8.i64(i8* align 8 %46, i8* align 8 %47, i64 8, i1 false), !llfi_index !1765
  %48 = bitcast %"class.__gnu_cxx::__normal_iterator"* %13 to i8*, !llfi_index !1766
  %49 = bitcast %"class.__gnu_cxx::__normal_iterator"* %8 to i8*, !llfi_index !1767
  call void @llvm.memcpy.p0i8.p0i8.i64(i8* align 8 %48, i8* align 8 %49, i64 8, i1 false), !llfi_index !1768
  %50 = getelementptr inbounds %"class.__gnu_cxx::__normal_iterator", %"class.__gnu_cxx::__normal_iterator"* %12, i32 0, i32 0, !llfi_index !1769
  %51 = load %"struct.std::pair"*, %"struct.std::pair"** %50, align 8, !llfi_index !1770
  %52 = getelementptr inbounds %"class.__gnu_cxx::__normal_iterator", %"class.__gnu_cxx::__normal_iterator"* %13, i32 0, i32 0, !llfi_index !1771
  %53 = load %"struct.std::pair"*, %"struct.std::pair"** %52, align 8, !llfi_index !1772
  %54 = call zeroext i1 @_ZNK9__gnu_cxx5__ops15_Iter_less_iterclINS_17__normal_iteratorIPSt4pairIiiESt6vectorIS5_SaIS5_EEEESA_EEbT_T0_(%"class.std::allocator"* nonnull align 1 dereferenceable(1) %9, %"struct.std::pair"* %51, %"struct.std::pair"* %53), !llfi_index !1773
  br i1 %54, label %55, label %64, !llfi_index !1774

55:                                               ; preds = %45
  %56 = bitcast %"class.__gnu_cxx::__normal_iterator"* %14 to i8*, !llfi_index !1775
  %57 = bitcast %"class.__gnu_cxx::__normal_iterator"* %5 to i8*, !llfi_index !1776
  call void @llvm.memcpy.p0i8.p0i8.i64(i8* align 8 %56, i8* align 8 %57, i64 8, i1 false), !llfi_index !1777
  %58 = bitcast %"class.__gnu_cxx::__normal_iterator"* %15 to i8*, !llfi_index !1778
  %59 = bitcast %"class.__gnu_cxx::__normal_iterator"* %7 to i8*, !llfi_index !1779
  call void @llvm.memcpy.p0i8.p0i8.i64(i8* align 8 %58, i8* align 8 %59, i64 8, i1 false), !llfi_index !1780
  %60 = getelementptr inbounds %"class.__gnu_cxx::__normal_iterator", %"class.__gnu_cxx::__normal_iterator"* %14, i32 0, i32 0, !llfi_index !1781
  %61 = load %"struct.std::pair"*, %"struct.std::pair"** %60, align 8, !llfi_index !1782
  %62 = getelementptr inbounds %"class.__gnu_cxx::__normal_iterator", %"class.__gnu_cxx::__normal_iterator"* %15, i32 0, i32 0, !llfi_index !1783
  %63 = load %"struct.std::pair"*, %"struct.std::pair"** %62, align 8, !llfi_index !1784
  call void @_ZSt9iter_swapIN9__gnu_cxx17__normal_iteratorIPSt4pairIiiESt6vectorIS3_SaIS3_EEEES8_EvT_T0_(%"struct.std::pair"* %61, %"struct.std::pair"* %63), !llfi_index !1785
  br label %93, !llfi_index !1786

64:                                               ; preds = %45
  %65 = bitcast %"class.__gnu_cxx::__normal_iterator"* %16 to i8*, !llfi_index !1787
  %66 = bitcast %"class.__gnu_cxx::__normal_iterator"* %6 to i8*, !llfi_index !1788
  call void @llvm.memcpy.p0i8.p0i8.i64(i8* align 8 %65, i8* align 8 %66, i64 8, i1 false), !llfi_index !1789
  %67 = bitcast %"class.__gnu_cxx::__normal_iterator"* %17 to i8*, !llfi_index !1790
  %68 = bitcast %"class.__gnu_cxx::__normal_iterator"* %8 to i8*, !llfi_index !1791
  call void @llvm.memcpy.p0i8.p0i8.i64(i8* align 8 %67, i8* align 8 %68, i64 8, i1 false), !llfi_index !1792
  %69 = getelementptr inbounds %"class.__gnu_cxx::__normal_iterator", %"class.__gnu_cxx::__normal_iterator"* %16, i32 0, i32 0, !llfi_index !1793
  %70 = load %"struct.std::pair"*, %"struct.std::pair"** %69, align 8, !llfi_index !1794
  %71 = getelementptr inbounds %"class.__gnu_cxx::__normal_iterator", %"class.__gnu_cxx::__normal_iterator"* %17, i32 0, i32 0, !llfi_index !1795
  %72 = load %"struct.std::pair"*, %"struct.std::pair"** %71, align 8, !llfi_index !1796
  %73 = call zeroext i1 @_ZNK9__gnu_cxx5__ops15_Iter_less_iterclINS_17__normal_iteratorIPSt4pairIiiESt6vectorIS5_SaIS5_EEEESA_EEbT_T0_(%"class.std::allocator"* nonnull align 1 dereferenceable(1) %9, %"struct.std::pair"* %70, %"struct.std::pair"* %72), !llfi_index !1797
  br i1 %73, label %74, label %83, !llfi_index !1798

74:                                               ; preds = %64
  %75 = bitcast %"class.__gnu_cxx::__normal_iterator"* %18 to i8*, !llfi_index !1799
  %76 = bitcast %"class.__gnu_cxx::__normal_iterator"* %5 to i8*, !llfi_index !1800
  call void @llvm.memcpy.p0i8.p0i8.i64(i8* align 8 %75, i8* align 8 %76, i64 8, i1 false), !llfi_index !1801
  %77 = bitcast %"class.__gnu_cxx::__normal_iterator"* %19 to i8*, !llfi_index !1802
  %78 = bitcast %"class.__gnu_cxx::__normal_iterator"* %8 to i8*, !llfi_index !1803
  call void @llvm.memcpy.p0i8.p0i8.i64(i8* align 8 %77, i8* align 8 %78, i64 8, i1 false), !llfi_index !1804
  %79 = getelementptr inbounds %"class.__gnu_cxx::__normal_iterator", %"class.__gnu_cxx::__normal_iterator"* %18, i32 0, i32 0, !llfi_index !1805
  %80 = load %"struct.std::pair"*, %"struct.std::pair"** %79, align 8, !llfi_index !1806
  %81 = getelementptr inbounds %"class.__gnu_cxx::__normal_iterator", %"class.__gnu_cxx::__normal_iterator"* %19, i32 0, i32 0, !llfi_index !1807
  %82 = load %"struct.std::pair"*, %"struct.std::pair"** %81, align 8, !llfi_index !1808
  call void @_ZSt9iter_swapIN9__gnu_cxx17__normal_iteratorIPSt4pairIiiESt6vectorIS3_SaIS3_EEEES8_EvT_T0_(%"struct.std::pair"* %80, %"struct.std::pair"* %82), !llfi_index !1809
  br label %92, !llfi_index !1810

83:                                               ; preds = %64
  %84 = bitcast %"class.__gnu_cxx::__normal_iterator"* %20 to i8*, !llfi_index !1811
  %85 = bitcast %"class.__gnu_cxx::__normal_iterator"* %5 to i8*, !llfi_index !1812
  call void @llvm.memcpy.p0i8.p0i8.i64(i8* align 8 %84, i8* align 8 %85, i64 8, i1 false), !llfi_index !1813
  %86 = bitcast %"class.__gnu_cxx::__normal_iterator"* %21 to i8*, !llfi_index !1814
  %87 = bitcast %"class.__gnu_cxx::__normal_iterator"* %6 to i8*, !llfi_index !1815
  call void @llvm.memcpy.p0i8.p0i8.i64(i8* align 8 %86, i8* align 8 %87, i64 8, i1 false), !llfi_index !1816
  %88 = getelementptr inbounds %"class.__gnu_cxx::__normal_iterator", %"class.__gnu_cxx::__normal_iterator"* %20, i32 0, i32 0, !llfi_index !1817
  %89 = load %"struct.std::pair"*, %"struct.std::pair"** %88, align 8, !llfi_index !1818
  %90 = getelementptr inbounds %"class.__gnu_cxx::__normal_iterator", %"class.__gnu_cxx::__normal_iterator"* %21, i32 0, i32 0, !llfi_index !1819
  %91 = load %"struct.std::pair"*, %"struct.std::pair"** %90, align 8, !llfi_index !1820
  call void @_ZSt9iter_swapIN9__gnu_cxx17__normal_iteratorIPSt4pairIiiESt6vectorIS3_SaIS3_EEEES8_EvT_T0_(%"struct.std::pair"* %89, %"struct.std::pair"* %91), !llfi_index !1821
  br label %92, !llfi_index !1822

92:                                               ; preds = %83, %74
  br label %93, !llfi_index !1823

93:                                               ; preds = %92, %55
  br label %143, !llfi_index !1824

94:                                               ; preds = %4
  %95 = bitcast %"class.__gnu_cxx::__normal_iterator"* %22 to i8*, !llfi_index !1825
  %96 = bitcast %"class.__gnu_cxx::__normal_iterator"* %6 to i8*, !llfi_index !1826
  call void @llvm.memcpy.p0i8.p0i8.i64(i8* align 8 %95, i8* align 8 %96, i64 8, i1 false), !llfi_index !1827
  %97 = bitcast %"class.__gnu_cxx::__normal_iterator"* %23 to i8*, !llfi_index !1828
  %98 = bitcast %"class.__gnu_cxx::__normal_iterator"* %8 to i8*, !llfi_index !1829
  call void @llvm.memcpy.p0i8.p0i8.i64(i8* align 8 %97, i8* align 8 %98, i64 8, i1 false), !llfi_index !1830
  %99 = getelementptr inbounds %"class.__gnu_cxx::__normal_iterator", %"class.__gnu_cxx::__normal_iterator"* %22, i32 0, i32 0, !llfi_index !1831
  %100 = load %"struct.std::pair"*, %"struct.std::pair"** %99, align 8, !llfi_index !1832
  %101 = getelementptr inbounds %"class.__gnu_cxx::__normal_iterator", %"class.__gnu_cxx::__normal_iterator"* %23, i32 0, i32 0, !llfi_index !1833
  %102 = load %"struct.std::pair"*, %"struct.std::pair"** %101, align 8, !llfi_index !1834
  %103 = call zeroext i1 @_ZNK9__gnu_cxx5__ops15_Iter_less_iterclINS_17__normal_iteratorIPSt4pairIiiESt6vectorIS5_SaIS5_EEEESA_EEbT_T0_(%"class.std::allocator"* nonnull align 1 dereferenceable(1) %9, %"struct.std::pair"* %100, %"struct.std::pair"* %102), !llfi_index !1835
  br i1 %103, label %104, label %113, !llfi_index !1836

104:                                              ; preds = %94
  %105 = bitcast %"class.__gnu_cxx::__normal_iterator"* %24 to i8*, !llfi_index !1837
  %106 = bitcast %"class.__gnu_cxx::__normal_iterator"* %5 to i8*, !llfi_index !1838
  call void @llvm.memcpy.p0i8.p0i8.i64(i8* align 8 %105, i8* align 8 %106, i64 8, i1 false), !llfi_index !1839
  %107 = bitcast %"class.__gnu_cxx::__normal_iterator"* %25 to i8*, !llfi_index !1840
  %108 = bitcast %"class.__gnu_cxx::__normal_iterator"* %6 to i8*, !llfi_index !1841
  call void @llvm.memcpy.p0i8.p0i8.i64(i8* align 8 %107, i8* align 8 %108, i64 8, i1 false), !llfi_index !1842
  %109 = getelementptr inbounds %"class.__gnu_cxx::__normal_iterator", %"class.__gnu_cxx::__normal_iterator"* %24, i32 0, i32 0, !llfi_index !1843
  %110 = load %"struct.std::pair"*, %"struct.std::pair"** %109, align 8, !llfi_index !1844
  %111 = getelementptr inbounds %"class.__gnu_cxx::__normal_iterator", %"class.__gnu_cxx::__normal_iterator"* %25, i32 0, i32 0, !llfi_index !1845
  %112 = load %"struct.std::pair"*, %"struct.std::pair"** %111, align 8, !llfi_index !1846
  call void @_ZSt9iter_swapIN9__gnu_cxx17__normal_iteratorIPSt4pairIiiESt6vectorIS3_SaIS3_EEEES8_EvT_T0_(%"struct.std::pair"* %110, %"struct.std::pair"* %112), !llfi_index !1847
  br label %142, !llfi_index !1848

113:                                              ; preds = %94
  %114 = bitcast %"class.__gnu_cxx::__normal_iterator"* %26 to i8*, !llfi_index !1849
  %115 = bitcast %"class.__gnu_cxx::__normal_iterator"* %7 to i8*, !llfi_index !1850
  call void @llvm.memcpy.p0i8.p0i8.i64(i8* align 8 %114, i8* align 8 %115, i64 8, i1 false), !llfi_index !1851
  %116 = bitcast %"class.__gnu_cxx::__normal_iterator"* %27 to i8*, !llfi_index !1852
  %117 = bitcast %"class.__gnu_cxx::__normal_iterator"* %8 to i8*, !llfi_index !1853
  call void @llvm.memcpy.p0i8.p0i8.i64(i8* align 8 %116, i8* align 8 %117, i64 8, i1 false), !llfi_index !1854
  %118 = getelementptr inbounds %"class.__gnu_cxx::__normal_iterator", %"class.__gnu_cxx::__normal_iterator"* %26, i32 0, i32 0, !llfi_index !1855
  %119 = load %"struct.std::pair"*, %"struct.std::pair"** %118, align 8, !llfi_index !1856
  %120 = getelementptr inbounds %"class.__gnu_cxx::__normal_iterator", %"class.__gnu_cxx::__normal_iterator"* %27, i32 0, i32 0, !llfi_index !1857
  %121 = load %"struct.std::pair"*, %"struct.std::pair"** %120, align 8, !llfi_index !1858
  %122 = call zeroext i1 @_ZNK9__gnu_cxx5__ops15_Iter_less_iterclINS_17__normal_iteratorIPSt4pairIiiESt6vectorIS5_SaIS5_EEEESA_EEbT_T0_(%"class.std::allocator"* nonnull align 1 dereferenceable(1) %9, %"struct.std::pair"* %119, %"struct.std::pair"* %121), !llfi_index !1859
  br i1 %122, label %123, label %132, !llfi_index !1860

123:                                              ; preds = %113
  %124 = bitcast %"class.__gnu_cxx::__normal_iterator"* %28 to i8*, !llfi_index !1861
  %125 = bitcast %"class.__gnu_cxx::__normal_iterator"* %5 to i8*, !llfi_index !1862
  call void @llvm.memcpy.p0i8.p0i8.i64(i8* align 8 %124, i8* align 8 %125, i64 8, i1 false), !llfi_index !1863
  %126 = bitcast %"class.__gnu_cxx::__normal_iterator"* %29 to i8*, !llfi_index !1864
  %127 = bitcast %"class.__gnu_cxx::__normal_iterator"* %8 to i8*, !llfi_index !1865
  call void @llvm.memcpy.p0i8.p0i8.i64(i8* align 8 %126, i8* align 8 %127, i64 8, i1 false), !llfi_index !1866
  %128 = getelementptr inbounds %"class.__gnu_cxx::__normal_iterator", %"class.__gnu_cxx::__normal_iterator"* %28, i32 0, i32 0, !llfi_index !1867
  %129 = load %"struct.std::pair"*, %"struct.std::pair"** %128, align 8, !llfi_index !1868
  %130 = getelementptr inbounds %"class.__gnu_cxx::__normal_iterator", %"class.__gnu_cxx::__normal_iterator"* %29, i32 0, i32 0, !llfi_index !1869
  %131 = load %"struct.std::pair"*, %"struct.std::pair"** %130, align 8, !llfi_index !1870
  call void @_ZSt9iter_swapIN9__gnu_cxx17__normal_iteratorIPSt4pairIiiESt6vectorIS3_SaIS3_EEEES8_EvT_T0_(%"struct.std::pair"* %129, %"struct.std::pair"* %131), !llfi_index !1871
  br label %141, !llfi_index !1872

132:                                              ; preds = %113
  %133 = bitcast %"class.__gnu_cxx::__normal_iterator"* %30 to i8*, !llfi_index !1873
  %134 = bitcast %"class.__gnu_cxx::__normal_iterator"* %5 to i8*, !llfi_index !1874
  call void @llvm.memcpy.p0i8.p0i8.i64(i8* align 8 %133, i8* align 8 %134, i64 8, i1 false), !llfi_index !1875
  %135 = bitcast %"class.__gnu_cxx::__normal_iterator"* %31 to i8*, !llfi_index !1876
  %136 = bitcast %"class.__gnu_cxx::__normal_iterator"* %7 to i8*, !llfi_index !1877
  call void @llvm.memcpy.p0i8.p0i8.i64(i8* align 8 %135, i8* align 8 %136, i64 8, i1 false), !llfi_index !1878
  %137 = getelementptr inbounds %"class.__gnu_cxx::__normal_iterator", %"class.__gnu_cxx::__normal_iterator"* %30, i32 0, i32 0, !llfi_index !1879
  %138 = load %"struct.std::pair"*, %"struct.std::pair"** %137, align 8, !llfi_index !1880
  %139 = getelementptr inbounds %"class.__gnu_cxx::__normal_iterator", %"class.__gnu_cxx::__normal_iterator"* %31, i32 0, i32 0, !llfi_index !1881
  %140 = load %"struct.std::pair"*, %"struct.std::pair"** %139, align 8, !llfi_index !1882
  call void @_ZSt9iter_swapIN9__gnu_cxx17__normal_iteratorIPSt4pairIiiESt6vectorIS3_SaIS3_EEEES8_EvT_T0_(%"struct.std::pair"* %138, %"struct.std::pair"* %140), !llfi_index !1883
  br label %141, !llfi_index !1884

141:                                              ; preds = %132, %123
  br label %142, !llfi_index !1885

142:                                              ; preds = %141, %104
  br label %143, !llfi_index !1886

143:                                              ; preds = %142, %93
  ret void, !llfi_index !1887
}

; Function Attrs: mustprogress noinline nounwind uwtable
define linkonce_odr dso_local %"struct.std::pair"* @_ZSt21__unguarded_partitionIN9__gnu_cxx17__normal_iteratorIPSt4pairIiiESt6vectorIS3_SaIS3_EEEENS0_5__ops15_Iter_less_iterEET_SB_SB_SB_T0_(%"struct.std::pair"* %0, %"struct.std::pair"* %1, %"struct.std::pair"* %2) #3 comdat {
  %4 = alloca %"class.__gnu_cxx::__normal_iterator", align 8, !llfi_index !1888
  %5 = alloca %"class.__gnu_cxx::__normal_iterator", align 8, !llfi_index !1889
  %6 = alloca %"class.__gnu_cxx::__normal_iterator", align 8, !llfi_index !1890
  %7 = alloca %"class.__gnu_cxx::__normal_iterator", align 8, !llfi_index !1891
  %8 = alloca %"class.std::allocator", align 1, !llfi_index !1892
  %9 = alloca %"class.__gnu_cxx::__normal_iterator", align 8, !llfi_index !1893
  %10 = alloca %"class.__gnu_cxx::__normal_iterator", align 8, !llfi_index !1894
  %11 = alloca %"class.__gnu_cxx::__normal_iterator", align 8, !llfi_index !1895
  %12 = alloca %"class.__gnu_cxx::__normal_iterator", align 8, !llfi_index !1896
  %13 = alloca %"class.__gnu_cxx::__normal_iterator", align 8, !llfi_index !1897
  %14 = alloca %"class.__gnu_cxx::__normal_iterator", align 8, !llfi_index !1898
  %15 = getelementptr inbounds %"class.__gnu_cxx::__normal_iterator", %"class.__gnu_cxx::__normal_iterator"* %5, i32 0, i32 0, !llfi_index !1899
  store %"struct.std::pair"* %0, %"struct.std::pair"** %15, align 8, !llfi_index !1900
  %16 = getelementptr inbounds %"class.__gnu_cxx::__normal_iterator", %"class.__gnu_cxx::__normal_iterator"* %6, i32 0, i32 0, !llfi_index !1901
  store %"struct.std::pair"* %1, %"struct.std::pair"** %16, align 8, !llfi_index !1902
  %17 = getelementptr inbounds %"class.__gnu_cxx::__normal_iterator", %"class.__gnu_cxx::__normal_iterator"* %7, i32 0, i32 0, !llfi_index !1903
  store %"struct.std::pair"* %2, %"struct.std::pair"** %17, align 8, !llfi_index !1904
  br label %18, !llfi_index !1905

18:                                               ; preds = %52, %3
  br label %19, !llfi_index !1906

19:                                               ; preds = %29, %18
  %20 = bitcast %"class.__gnu_cxx::__normal_iterator"* %9 to i8*, !llfi_index !1907
  %21 = bitcast %"class.__gnu_cxx::__normal_iterator"* %5 to i8*, !llfi_index !1908
  call void @llvm.memcpy.p0i8.p0i8.i64(i8* align 8 %20, i8* align 8 %21, i64 8, i1 false), !llfi_index !1909
  %22 = bitcast %"class.__gnu_cxx::__normal_iterator"* %10 to i8*, !llfi_index !1910
  %23 = bitcast %"class.__gnu_cxx::__normal_iterator"* %7 to i8*, !llfi_index !1911
  call void @llvm.memcpy.p0i8.p0i8.i64(i8* align 8 %22, i8* align 8 %23, i64 8, i1 false), !llfi_index !1912
  %24 = getelementptr inbounds %"class.__gnu_cxx::__normal_iterator", %"class.__gnu_cxx::__normal_iterator"* %9, i32 0, i32 0, !llfi_index !1913
  %25 = load %"struct.std::pair"*, %"struct.std::pair"** %24, align 8, !llfi_index !1914
  %26 = getelementptr inbounds %"class.__gnu_cxx::__normal_iterator", %"class.__gnu_cxx::__normal_iterator"* %10, i32 0, i32 0, !llfi_index !1915
  %27 = load %"struct.std::pair"*, %"struct.std::pair"** %26, align 8, !llfi_index !1916
  %28 = call zeroext i1 @_ZNK9__gnu_cxx5__ops15_Iter_less_iterclINS_17__normal_iteratorIPSt4pairIiiESt6vectorIS5_SaIS5_EEEESA_EEbT_T0_(%"class.std::allocator"* nonnull align 1 dereferenceable(1) %8, %"struct.std::pair"* %25, %"struct.std::pair"* %27), !llfi_index !1917
  br i1 %28, label %29, label %31, !llfi_index !1918

29:                                               ; preds = %19
  %30 = call nonnull align 8 dereferenceable(8) %"class.__gnu_cxx::__normal_iterator"* @_ZN9__gnu_cxx17__normal_iteratorIPSt4pairIiiESt6vectorIS2_SaIS2_EEEppEv(%"class.__gnu_cxx::__normal_iterator"* nonnull align 8 dereferenceable(8) %5) #2, !llfi_index !1919
  br label %19, !llvm.loop !1920, !llfi_index !1921

31:                                               ; preds = %19
  %32 = call nonnull align 8 dereferenceable(8) %"class.__gnu_cxx::__normal_iterator"* @_ZN9__gnu_cxx17__normal_iteratorIPSt4pairIiiESt6vectorIS2_SaIS2_EEEmmEv(%"class.__gnu_cxx::__normal_iterator"* nonnull align 8 dereferenceable(8) %6) #2, !llfi_index !1922
  br label %33, !llfi_index !1923

33:                                               ; preds = %43, %31
  %34 = bitcast %"class.__gnu_cxx::__normal_iterator"* %11 to i8*, !llfi_index !1924
  %35 = bitcast %"class.__gnu_cxx::__normal_iterator"* %7 to i8*, !llfi_index !1925
  call void @llvm.memcpy.p0i8.p0i8.i64(i8* align 8 %34, i8* align 8 %35, i64 8, i1 false), !llfi_index !1926
  %36 = bitcast %"class.__gnu_cxx::__normal_iterator"* %12 to i8*, !llfi_index !1927
  %37 = bitcast %"class.__gnu_cxx::__normal_iterator"* %6 to i8*, !llfi_index !1928
  call void @llvm.memcpy.p0i8.p0i8.i64(i8* align 8 %36, i8* align 8 %37, i64 8, i1 false), !llfi_index !1929
  %38 = getelementptr inbounds %"class.__gnu_cxx::__normal_iterator", %"class.__gnu_cxx::__normal_iterator"* %11, i32 0, i32 0, !llfi_index !1930
  %39 = load %"struct.std::pair"*, %"struct.std::pair"** %38, align 8, !llfi_index !1931
  %40 = getelementptr inbounds %"class.__gnu_cxx::__normal_iterator", %"class.__gnu_cxx::__normal_iterator"* %12, i32 0, i32 0, !llfi_index !1932
  %41 = load %"struct.std::pair"*, %"struct.std::pair"** %40, align 8, !llfi_index !1933
  %42 = call zeroext i1 @_ZNK9__gnu_cxx5__ops15_Iter_less_iterclINS_17__normal_iteratorIPSt4pairIiiESt6vectorIS5_SaIS5_EEEESA_EEbT_T0_(%"class.std::allocator"* nonnull align 1 dereferenceable(1) %8, %"struct.std::pair"* %39, %"struct.std::pair"* %41), !llfi_index !1934
  br i1 %42, label %43, label %45, !llfi_index !1935

43:                                               ; preds = %33
  %44 = call nonnull align 8 dereferenceable(8) %"class.__gnu_cxx::__normal_iterator"* @_ZN9__gnu_cxx17__normal_iteratorIPSt4pairIiiESt6vectorIS2_SaIS2_EEEmmEv(%"class.__gnu_cxx::__normal_iterator"* nonnull align 8 dereferenceable(8) %6) #2, !llfi_index !1936
  br label %33, !llvm.loop !1937, !llfi_index !1938

45:                                               ; preds = %33
  %46 = call zeroext i1 @_ZN9__gnu_cxxltIPSt4pairIiiESt6vectorIS2_SaIS2_EEEEbRKNS_17__normal_iteratorIT_T0_EESC_(%"class.__gnu_cxx::__normal_iterator"* nonnull align 8 dereferenceable(8) %5, %"class.__gnu_cxx::__normal_iterator"* nonnull align 8 dereferenceable(8) %6) #2, !llfi_index !1939
  br i1 %46, label %52, label %47, !llfi_index !1940

47:                                               ; preds = %45
  %48 = bitcast %"class.__gnu_cxx::__normal_iterator"* %4 to i8*, !llfi_index !1941
  %49 = bitcast %"class.__gnu_cxx::__normal_iterator"* %5 to i8*, !llfi_index !1942
  call void @llvm.memcpy.p0i8.p0i8.i64(i8* align 8 %48, i8* align 8 %49, i64 8, i1 false), !llfi_index !1943
  %50 = getelementptr inbounds %"class.__gnu_cxx::__normal_iterator", %"class.__gnu_cxx::__normal_iterator"* %4, i32 0, i32 0, !llfi_index !1944
  %51 = load %"struct.std::pair"*, %"struct.std::pair"** %50, align 8, !llfi_index !1945
  ret %"struct.std::pair"* %51, !llfi_index !1946

52:                                               ; preds = %45
  %53 = bitcast %"class.__gnu_cxx::__normal_iterator"* %13 to i8*, !llfi_index !1947
  %54 = bitcast %"class.__gnu_cxx::__normal_iterator"* %5 to i8*, !llfi_index !1948
  call void @llvm.memcpy.p0i8.p0i8.i64(i8* align 8 %53, i8* align 8 %54, i64 8, i1 false), !llfi_index !1949
  %55 = bitcast %"class.__gnu_cxx::__normal_iterator"* %14 to i8*, !llfi_index !1950
  %56 = bitcast %"class.__gnu_cxx::__normal_iterator"* %6 to i8*, !llfi_index !1951
  call void @llvm.memcpy.p0i8.p0i8.i64(i8* align 8 %55, i8* align 8 %56, i64 8, i1 false), !llfi_index !1952
  %57 = getelementptr inbounds %"class.__gnu_cxx::__normal_iterator", %"class.__gnu_cxx::__normal_iterator"* %13, i32 0, i32 0, !llfi_index !1953
  %58 = load %"struct.std::pair"*, %"struct.std::pair"** %57, align 8, !llfi_index !1954
  %59 = getelementptr inbounds %"class.__gnu_cxx::__normal_iterator", %"class.__gnu_cxx::__normal_iterator"* %14, i32 0, i32 0, !llfi_index !1955
  %60 = load %"struct.std::pair"*, %"struct.std::pair"** %59, align 8, !llfi_index !1956
  call void @_ZSt9iter_swapIN9__gnu_cxx17__normal_iteratorIPSt4pairIiiESt6vectorIS3_SaIS3_EEEES8_EvT_T0_(%"struct.std::pair"* %58, %"struct.std::pair"* %60), !llfi_index !1957
  %61 = call nonnull align 8 dereferenceable(8) %"class.__gnu_cxx::__normal_iterator"* @_ZN9__gnu_cxx17__normal_iteratorIPSt4pairIiiESt6vectorIS2_SaIS2_EEEppEv(%"class.__gnu_cxx::__normal_iterator"* nonnull align 8 dereferenceable(8) %5) #2, !llfi_index !1958
  br label %18, !llvm.loop !1959, !llfi_index !1960
}

; Function Attrs: mustprogress noinline nounwind uwtable
define linkonce_odr dso_local zeroext i1 @_ZN9__gnu_cxxltIPSt4pairIiiESt6vectorIS2_SaIS2_EEEEbRKNS_17__normal_iteratorIT_T0_EESC_(%"class.__gnu_cxx::__normal_iterator"* nonnull align 8 dereferenceable(8) %0, %"class.__gnu_cxx::__normal_iterator"* nonnull align 8 dereferenceable(8) %1) #3 comdat {
  %3 = alloca %"class.__gnu_cxx::__normal_iterator"*, align 8, !llfi_index !1961
  %4 = alloca %"class.__gnu_cxx::__normal_iterator"*, align 8, !llfi_index !1962
  store %"class.__gnu_cxx::__normal_iterator"* %0, %"class.__gnu_cxx::__normal_iterator"** %3, align 8, !llfi_index !1963
  store %"class.__gnu_cxx::__normal_iterator"* %1, %"class.__gnu_cxx::__normal_iterator"** %4, align 8, !llfi_index !1964
  %5 = load %"class.__gnu_cxx::__normal_iterator"*, %"class.__gnu_cxx::__normal_iterator"** %3, align 8, !llfi_index !1965
  %6 = call nonnull align 8 dereferenceable(8) %"struct.std::pair"** @_ZNK9__gnu_cxx17__normal_iteratorIPSt4pairIiiESt6vectorIS2_SaIS2_EEE4baseEv(%"class.__gnu_cxx::__normal_iterator"* nonnull align 8 dereferenceable(8) %5) #2, !llfi_index !1966
  %7 = load %"struct.std::pair"*, %"struct.std::pair"** %6, align 8, !llfi_index !1967
  %8 = load %"class.__gnu_cxx::__normal_iterator"*, %"class.__gnu_cxx::__normal_iterator"** %4, align 8, !llfi_index !1968
  %9 = call nonnull align 8 dereferenceable(8) %"struct.std::pair"** @_ZNK9__gnu_cxx17__normal_iteratorIPSt4pairIiiESt6vectorIS2_SaIS2_EEE4baseEv(%"class.__gnu_cxx::__normal_iterator"* nonnull align 8 dereferenceable(8) %8) #2, !llfi_index !1969
  %10 = load %"struct.std::pair"*, %"struct.std::pair"** %9, align 8, !llfi_index !1970
  %11 = icmp ult %"struct.std::pair"* %7, %10, !llfi_index !1971
  ret i1 %11, !llfi_index !1972
}

; Function Attrs: mustprogress noinline nounwind uwtable
define linkonce_odr dso_local void @_ZSt9iter_swapIN9__gnu_cxx17__normal_iteratorIPSt4pairIiiESt6vectorIS3_SaIS3_EEEES8_EvT_T0_(%"struct.std::pair"* %0, %"struct.std::pair"* %1) #3 comdat {
  %3 = alloca %"class.__gnu_cxx::__normal_iterator", align 8, !llfi_index !1973
  %4 = alloca %"class.__gnu_cxx::__normal_iterator", align 8, !llfi_index !1974
  %5 = getelementptr inbounds %"class.__gnu_cxx::__normal_iterator", %"class.__gnu_cxx::__normal_iterator"* %3, i32 0, i32 0, !llfi_index !1975
  store %"struct.std::pair"* %0, %"struct.std::pair"** %5, align 8, !llfi_index !1976
  %6 = getelementptr inbounds %"class.__gnu_cxx::__normal_iterator", %"class.__gnu_cxx::__normal_iterator"* %4, i32 0, i32 0, !llfi_index !1977
  store %"struct.std::pair"* %1, %"struct.std::pair"** %6, align 8, !llfi_index !1978
  %7 = call nonnull align 4 dereferenceable(8) %"struct.std::pair"* @_ZNK9__gnu_cxx17__normal_iteratorIPSt4pairIiiESt6vectorIS2_SaIS2_EEEdeEv(%"class.__gnu_cxx::__normal_iterator"* nonnull align 8 dereferenceable(8) %3) #2, !llfi_index !1979
  %8 = call nonnull align 4 dereferenceable(8) %"struct.std::pair"* @_ZNK9__gnu_cxx17__normal_iteratorIPSt4pairIiiESt6vectorIS2_SaIS2_EEEdeEv(%"class.__gnu_cxx::__normal_iterator"* nonnull align 8 dereferenceable(8) %4) #2, !llfi_index !1980
  call void @_ZSt4swapIiiENSt9enable_ifIXsr6__and_ISt14__is_swappableIT_ES1_IT0_EEE5valueEvE4typeERSt4pairIS2_S4_ESA_(%"struct.std::pair"* nonnull align 4 dereferenceable(8) %7, %"struct.std::pair"* nonnull align 4 dereferenceable(8) %8) #2, !llfi_index !1981
  ret void, !llfi_index !1982
}

; Function Attrs: mustprogress noinline nounwind uwtable
define linkonce_odr dso_local void @_ZSt4swapIiiENSt9enable_ifIXsr6__and_ISt14__is_swappableIT_ES1_IT0_EEE5valueEvE4typeERSt4pairIS2_S4_ESA_(%"struct.std::pair"* nonnull align 4 dereferenceable(8) %0, %"struct.std::pair"* nonnull align 4 dereferenceable(8) %1) #3 comdat {
  %3 = alloca %"struct.std::pair"*, align 8, !llfi_index !1983
  %4 = alloca %"struct.std::pair"*, align 8, !llfi_index !1984
  store %"struct.std::pair"* %0, %"struct.std::pair"** %3, align 8, !llfi_index !1985
  store %"struct.std::pair"* %1, %"struct.std::pair"** %4, align 8, !llfi_index !1986
  %5 = load %"struct.std::pair"*, %"struct.std::pair"** %3, align 8, !llfi_index !1987
  %6 = load %"struct.std::pair"*, %"struct.std::pair"** %4, align 8, !llfi_index !1988
  call void @_ZNSt4pairIiiE4swapERS0_(%"struct.std::pair"* nonnull align 4 dereferenceable(8) %5, %"struct.std::pair"* nonnull align 4 dereferenceable(8) %6) #2, !llfi_index !1989
  ret void, !llfi_index !1990
}

; Function Attrs: mustprogress noinline nounwind uwtable
define linkonce_odr dso_local void @_ZNSt4pairIiiE4swapERS0_(%"struct.std::pair"* nonnull align 4 dereferenceable(8) %0, %"struct.std::pair"* nonnull align 4 dereferenceable(8) %1) #3 comdat align 2 {
  %3 = alloca %"struct.std::pair"*, align 8, !llfi_index !1991
  %4 = alloca %"struct.std::pair"*, align 8, !llfi_index !1992
  store %"struct.std::pair"* %0, %"struct.std::pair"** %3, align 8, !llfi_index !1993
  store %"struct.std::pair"* %1, %"struct.std::pair"** %4, align 8, !llfi_index !1994
  %5 = load %"struct.std::pair"*, %"struct.std::pair"** %3, align 8, !llfi_index !1995
  %6 = getelementptr inbounds %"struct.std::pair", %"struct.std::pair"* %5, i32 0, i32 0, !llfi_index !1996
  %7 = load %"struct.std::pair"*, %"struct.std::pair"** %4, align 8, !llfi_index !1997
  %8 = getelementptr inbounds %"struct.std::pair", %"struct.std::pair"* %7, i32 0, i32 0, !llfi_index !1998
  call void @_ZSt4swapIiENSt9enable_ifIXsr6__and_ISt6__not_ISt15__is_tuple_likeIT_EESt21is_move_constructibleIS3_ESt18is_move_assignableIS3_EEE5valueEvE4typeERS3_SC_(i32* nonnull align 4 dereferenceable(4) %6, i32* nonnull align 4 dereferenceable(4) %8) #2, !llfi_index !1999
  %9 = getelementptr inbounds %"struct.std::pair", %"struct.std::pair"* %5, i32 0, i32 1, !llfi_index !2000
  %10 = load %"struct.std::pair"*, %"struct.std::pair"** %4, align 8, !llfi_index !2001
  %11 = getelementptr inbounds %"struct.std::pair", %"struct.std::pair"* %10, i32 0, i32 1, !llfi_index !2002
  call void @_ZSt4swapIiENSt9enable_ifIXsr6__and_ISt6__not_ISt15__is_tuple_likeIT_EESt21is_move_constructibleIS3_ESt18is_move_assignableIS3_EEE5valueEvE4typeERS3_SC_(i32* nonnull align 4 dereferenceable(4) %9, i32* nonnull align 4 dereferenceable(4) %11) #2, !llfi_index !2003
  ret void, !llfi_index !2004
}

; Function Attrs: mustprogress noinline nounwind uwtable
define linkonce_odr dso_local void @_ZSt4swapIiENSt9enable_ifIXsr6__and_ISt6__not_ISt15__is_tuple_likeIT_EESt21is_move_constructibleIS3_ESt18is_move_assignableIS3_EEE5valueEvE4typeERS3_SC_(i32* nonnull align 4 dereferenceable(4) %0, i32* nonnull align 4 dereferenceable(4) %1) #3 comdat {
  %3 = alloca i32*, align 8, !llfi_index !2005
  %4 = alloca i32*, align 8, !llfi_index !2006
  %5 = alloca i32, align 4, !llfi_index !2007
  store i32* %0, i32** %3, align 8, !llfi_index !2008
  store i32* %1, i32** %4, align 8, !llfi_index !2009
  %6 = load i32*, i32** %3, align 8, !llfi_index !2010
  %7 = call nonnull align 4 dereferenceable(4) i32* @_ZSt4moveIRiEONSt16remove_referenceIT_E4typeEOS2_(i32* nonnull align 4 dereferenceable(4) %6) #2, !llfi_index !2011
  %8 = load i32, i32* %7, align 4, !llfi_index !2012
  store i32 %8, i32* %5, align 4, !llfi_index !2013
  %9 = load i32*, i32** %4, align 8, !llfi_index !2014
  %10 = call nonnull align 4 dereferenceable(4) i32* @_ZSt4moveIRiEONSt16remove_referenceIT_E4typeEOS2_(i32* nonnull align 4 dereferenceable(4) %9) #2, !llfi_index !2015
  %11 = load i32, i32* %10, align 4, !llfi_index !2016
  %12 = load i32*, i32** %3, align 8, !llfi_index !2017
  store i32 %11, i32* %12, align 4, !llfi_index !2018
  %13 = call nonnull align 4 dereferenceable(4) i32* @_ZSt4moveIRiEONSt16remove_referenceIT_E4typeEOS2_(i32* nonnull align 4 dereferenceable(4) %5) #2, !llfi_index !2019
  %14 = load i32, i32* %13, align 4, !llfi_index !2020
  %15 = load i32*, i32** %4, align 8, !llfi_index !2021
  store i32 %14, i32* %15, align 4, !llfi_index !2022
  ret void, !llfi_index !2023
}

; Function Attrs: mustprogress noinline nounwind uwtable
define linkonce_odr dso_local nonnull align 4 dereferenceable(4) i32* @_ZSt4moveIRiEONSt16remove_referenceIT_E4typeEOS2_(i32* nonnull align 4 dereferenceable(4) %0) #3 comdat {
  %2 = alloca i32*, align 8, !llfi_index !2024
  store i32* %0, i32** %2, align 8, !llfi_index !2025
  %3 = load i32*, i32** %2, align 8, !llfi_index !2026
  ret i32* %3, !llfi_index !2027
}

; Function Attrs: mustprogress noinline uwtable
define linkonce_odr dso_local void @_ZSt13__heap_selectIN9__gnu_cxx17__normal_iteratorIPSt4pairIiiESt6vectorIS3_SaIS3_EEEENS0_5__ops15_Iter_less_iterEEvT_SB_SB_T0_(%"struct.std::pair"* %0, %"struct.std::pair"* %1, %"struct.std::pair"* %2) #4 comdat {
  %4 = alloca %"class.__gnu_cxx::__normal_iterator", align 8, !llfi_index !2028
  %5 = alloca %"class.__gnu_cxx::__normal_iterator", align 8, !llfi_index !2029
  %6 = alloca %"class.__gnu_cxx::__normal_iterator", align 8, !llfi_index !2030
  %7 = alloca %"class.std::allocator", align 1, !llfi_index !2031
  %8 = alloca %"class.__gnu_cxx::__normal_iterator", align 8, !llfi_index !2032
  %9 = alloca %"class.__gnu_cxx::__normal_iterator", align 8, !llfi_index !2033
  %10 = alloca %"class.__gnu_cxx::__normal_iterator", align 8, !llfi_index !2034
  %11 = alloca %"class.__gnu_cxx::__normal_iterator", align 8, !llfi_index !2035
  %12 = alloca %"class.__gnu_cxx::__normal_iterator", align 8, !llfi_index !2036
  %13 = alloca %"class.__gnu_cxx::__normal_iterator", align 8, !llfi_index !2037
  %14 = alloca %"class.__gnu_cxx::__normal_iterator", align 8, !llfi_index !2038
  %15 = alloca %"class.__gnu_cxx::__normal_iterator", align 8, !llfi_index !2039
  %16 = getelementptr inbounds %"class.__gnu_cxx::__normal_iterator", %"class.__gnu_cxx::__normal_iterator"* %4, i32 0, i32 0, !llfi_index !2040
  store %"struct.std::pair"* %0, %"struct.std::pair"** %16, align 8, !llfi_index !2041
  %17 = getelementptr inbounds %"class.__gnu_cxx::__normal_iterator", %"class.__gnu_cxx::__normal_iterator"* %5, i32 0, i32 0, !llfi_index !2042
  store %"struct.std::pair"* %1, %"struct.std::pair"** %17, align 8, !llfi_index !2043
  %18 = getelementptr inbounds %"class.__gnu_cxx::__normal_iterator", %"class.__gnu_cxx::__normal_iterator"* %6, i32 0, i32 0, !llfi_index !2044
  store %"struct.std::pair"* %2, %"struct.std::pair"** %18, align 8, !llfi_index !2045
  %19 = bitcast %"class.__gnu_cxx::__normal_iterator"* %8 to i8*, !llfi_index !2046
  %20 = bitcast %"class.__gnu_cxx::__normal_iterator"* %4 to i8*, !llfi_index !2047
  call void @llvm.memcpy.p0i8.p0i8.i64(i8* align 8 %19, i8* align 8 %20, i64 8, i1 false), !llfi_index !2048
  %21 = bitcast %"class.__gnu_cxx::__normal_iterator"* %9 to i8*, !llfi_index !2049
  %22 = bitcast %"class.__gnu_cxx::__normal_iterator"* %5 to i8*, !llfi_index !2050
  call void @llvm.memcpy.p0i8.p0i8.i64(i8* align 8 %21, i8* align 8 %22, i64 8, i1 false), !llfi_index !2051
  %23 = getelementptr inbounds %"class.__gnu_cxx::__normal_iterator", %"class.__gnu_cxx::__normal_iterator"* %8, i32 0, i32 0, !llfi_index !2052
  %24 = load %"struct.std::pair"*, %"struct.std::pair"** %23, align 8, !llfi_index !2053
  %25 = getelementptr inbounds %"class.__gnu_cxx::__normal_iterator", %"class.__gnu_cxx::__normal_iterator"* %9, i32 0, i32 0, !llfi_index !2054
  %26 = load %"struct.std::pair"*, %"struct.std::pair"** %25, align 8, !llfi_index !2055
  call void @_ZSt11__make_heapIN9__gnu_cxx17__normal_iteratorIPSt4pairIiiESt6vectorIS3_SaIS3_EEEENS0_5__ops15_Iter_less_iterEEvT_SB_RT0_(%"struct.std::pair"* %24, %"struct.std::pair"* %26, %"class.std::allocator"* nonnull align 1 dereferenceable(1) %7), !llfi_index !2056
  %27 = bitcast %"class.__gnu_cxx::__normal_iterator"* %10 to i8*, !llfi_index !2057
  %28 = bitcast %"class.__gnu_cxx::__normal_iterator"* %5 to i8*, !llfi_index !2058
  call void @llvm.memcpy.p0i8.p0i8.i64(i8* align 8 %27, i8* align 8 %28, i64 8, i1 false), !llfi_index !2059
  br label %29, !llfi_index !2060

29:                                               ; preds = %55, %3
  %30 = call zeroext i1 @_ZN9__gnu_cxxltIPSt4pairIiiESt6vectorIS2_SaIS2_EEEEbRKNS_17__normal_iteratorIT_T0_EESC_(%"class.__gnu_cxx::__normal_iterator"* nonnull align 8 dereferenceable(8) %10, %"class.__gnu_cxx::__normal_iterator"* nonnull align 8 dereferenceable(8) %6) #2, !llfi_index !2061
  br i1 %30, label %31, label %57, !llfi_index !2062

31:                                               ; preds = %29
  %32 = bitcast %"class.__gnu_cxx::__normal_iterator"* %11 to i8*, !llfi_index !2063
  %33 = bitcast %"class.__gnu_cxx::__normal_iterator"* %10 to i8*, !llfi_index !2064
  call void @llvm.memcpy.p0i8.p0i8.i64(i8* align 8 %32, i8* align 8 %33, i64 8, i1 false), !llfi_index !2065
  %34 = bitcast %"class.__gnu_cxx::__normal_iterator"* %12 to i8*, !llfi_index !2066
  %35 = bitcast %"class.__gnu_cxx::__normal_iterator"* %4 to i8*, !llfi_index !2067
  call void @llvm.memcpy.p0i8.p0i8.i64(i8* align 8 %34, i8* align 8 %35, i64 8, i1 false), !llfi_index !2068
  %36 = getelementptr inbounds %"class.__gnu_cxx::__normal_iterator", %"class.__gnu_cxx::__normal_iterator"* %11, i32 0, i32 0, !llfi_index !2069
  %37 = load %"struct.std::pair"*, %"struct.std::pair"** %36, align 8, !llfi_index !2070
  %38 = getelementptr inbounds %"class.__gnu_cxx::__normal_iterator", %"class.__gnu_cxx::__normal_iterator"* %12, i32 0, i32 0, !llfi_index !2071
  %39 = load %"struct.std::pair"*, %"struct.std::pair"** %38, align 8, !llfi_index !2072
  %40 = call zeroext i1 @_ZNK9__gnu_cxx5__ops15_Iter_less_iterclINS_17__normal_iteratorIPSt4pairIiiESt6vectorIS5_SaIS5_EEEESA_EEbT_T0_(%"class.std::allocator"* nonnull align 1 dereferenceable(1) %7, %"struct.std::pair"* %37, %"struct.std::pair"* %39), !llfi_index !2073
  br i1 %40, label %41, label %54, !llfi_index !2074

41:                                               ; preds = %31
  %42 = bitcast %"class.__gnu_cxx::__normal_iterator"* %13 to i8*, !llfi_index !2075
  %43 = bitcast %"class.__gnu_cxx::__normal_iterator"* %4 to i8*, !llfi_index !2076
  call void @llvm.memcpy.p0i8.p0i8.i64(i8* align 8 %42, i8* align 8 %43, i64 8, i1 false), !llfi_index !2077
  %44 = bitcast %"class.__gnu_cxx::__normal_iterator"* %14 to i8*, !llfi_index !2078
  %45 = bitcast %"class.__gnu_cxx::__normal_iterator"* %5 to i8*, !llfi_index !2079
  call void @llvm.memcpy.p0i8.p0i8.i64(i8* align 8 %44, i8* align 8 %45, i64 8, i1 false), !llfi_index !2080
  %46 = bitcast %"class.__gnu_cxx::__normal_iterator"* %15 to i8*, !llfi_index !2081
  %47 = bitcast %"class.__gnu_cxx::__normal_iterator"* %10 to i8*, !llfi_index !2082
  call void @llvm.memcpy.p0i8.p0i8.i64(i8* align 8 %46, i8* align 8 %47, i64 8, i1 false), !llfi_index !2083
  %48 = getelementptr inbounds %"class.__gnu_cxx::__normal_iterator", %"class.__gnu_cxx::__normal_iterator"* %13, i32 0, i32 0, !llfi_index !2084
  %49 = load %"struct.std::pair"*, %"struct.std::pair"** %48, align 8, !llfi_index !2085
  %50 = getelementptr inbounds %"class.__gnu_cxx::__normal_iterator", %"class.__gnu_cxx::__normal_iterator"* %14, i32 0, i32 0, !llfi_index !2086
  %51 = load %"struct.std::pair"*, %"struct.std::pair"** %50, align 8, !llfi_index !2087
  %52 = getelementptr inbounds %"class.__gnu_cxx::__normal_iterator", %"class.__gnu_cxx::__normal_iterator"* %15, i32 0, i32 0, !llfi_index !2088
  %53 = load %"struct.std::pair"*, %"struct.std::pair"** %52, align 8, !llfi_index !2089
  call void @_ZSt10__pop_heapIN9__gnu_cxx17__normal_iteratorIPSt4pairIiiESt6vectorIS3_SaIS3_EEEENS0_5__ops15_Iter_less_iterEEvT_SB_SB_RT0_(%"struct.std::pair"* %49, %"struct.std::pair"* %51, %"struct.std::pair"* %53, %"class.std::allocator"* nonnull align 1 dereferenceable(1) %7), !llfi_index !2090
  br label %54, !llfi_index !2091

54:                                               ; preds = %41, %31
  br label %55, !llfi_index !2092

55:                                               ; preds = %54
  %56 = call nonnull align 8 dereferenceable(8) %"class.__gnu_cxx::__normal_iterator"* @_ZN9__gnu_cxx17__normal_iteratorIPSt4pairIiiESt6vectorIS2_SaIS2_EEEppEv(%"class.__gnu_cxx::__normal_iterator"* nonnull align 8 dereferenceable(8) %10) #2, !llfi_index !2093
  br label %29, !llvm.loop !2094, !llfi_index !2095

57:                                               ; preds = %29
  ret void, !llfi_index !2096
}

; Function Attrs: mustprogress noinline uwtable
define linkonce_odr dso_local void @_ZSt11__sort_heapIN9__gnu_cxx17__normal_iteratorIPSt4pairIiiESt6vectorIS3_SaIS3_EEEENS0_5__ops15_Iter_less_iterEEvT_SB_RT0_(%"struct.std::pair"* %0, %"struct.std::pair"* %1, %"class.std::allocator"* nonnull align 1 dereferenceable(1) %2) #4 comdat {
  %4 = alloca %"class.__gnu_cxx::__normal_iterator", align 8, !llfi_index !2097
  %5 = alloca %"class.__gnu_cxx::__normal_iterator", align 8, !llfi_index !2098
  %6 = alloca %"class.std::allocator"*, align 8, !llfi_index !2099
  %7 = alloca %"class.__gnu_cxx::__normal_iterator", align 8, !llfi_index !2100
  %8 = alloca %"class.__gnu_cxx::__normal_iterator", align 8, !llfi_index !2101
  %9 = alloca %"class.__gnu_cxx::__normal_iterator", align 8, !llfi_index !2102
  %10 = getelementptr inbounds %"class.__gnu_cxx::__normal_iterator", %"class.__gnu_cxx::__normal_iterator"* %4, i32 0, i32 0, !llfi_index !2103
  store %"struct.std::pair"* %0, %"struct.std::pair"** %10, align 8, !llfi_index !2104
  %11 = getelementptr inbounds %"class.__gnu_cxx::__normal_iterator", %"class.__gnu_cxx::__normal_iterator"* %5, i32 0, i32 0, !llfi_index !2105
  store %"struct.std::pair"* %1, %"struct.std::pair"** %11, align 8, !llfi_index !2106
  store %"class.std::allocator"* %2, %"class.std::allocator"** %6, align 8, !llfi_index !2107
  br label %12, !llfi_index !2108

12:                                               ; preds = %15, %3
  %13 = call i64 @_ZN9__gnu_cxxmiIPSt4pairIiiESt6vectorIS2_SaIS2_EEEENS_17__normal_iteratorIT_T0_E15difference_typeERKSA_SD_(%"class.__gnu_cxx::__normal_iterator"* nonnull align 8 dereferenceable(8) %5, %"class.__gnu_cxx::__normal_iterator"* nonnull align 8 dereferenceable(8) %4) #2, !llfi_index !2109
  %14 = icmp sgt i64 %13, 1, !llfi_index !2110
  br i1 %14, label %15, label %30, !llfi_index !2111

15:                                               ; preds = %12
  %16 = call nonnull align 8 dereferenceable(8) %"class.__gnu_cxx::__normal_iterator"* @_ZN9__gnu_cxx17__normal_iteratorIPSt4pairIiiESt6vectorIS2_SaIS2_EEEmmEv(%"class.__gnu_cxx::__normal_iterator"* nonnull align 8 dereferenceable(8) %5) #2, !llfi_index !2112
  %17 = bitcast %"class.__gnu_cxx::__normal_iterator"* %7 to i8*, !llfi_index !2113
  %18 = bitcast %"class.__gnu_cxx::__normal_iterator"* %4 to i8*, !llfi_index !2114
  call void @llvm.memcpy.p0i8.p0i8.i64(i8* align 8 %17, i8* align 8 %18, i64 8, i1 false), !llfi_index !2115
  %19 = bitcast %"class.__gnu_cxx::__normal_iterator"* %8 to i8*, !llfi_index !2116
  %20 = bitcast %"class.__gnu_cxx::__normal_iterator"* %5 to i8*, !llfi_index !2117
  call void @llvm.memcpy.p0i8.p0i8.i64(i8* align 8 %19, i8* align 8 %20, i64 8, i1 false), !llfi_index !2118
  %21 = bitcast %"class.__gnu_cxx::__normal_iterator"* %9 to i8*, !llfi_index !2119
  %22 = bitcast %"class.__gnu_cxx::__normal_iterator"* %5 to i8*, !llfi_index !2120
  call void @llvm.memcpy.p0i8.p0i8.i64(i8* align 8 %21, i8* align 8 %22, i64 8, i1 false), !llfi_index !2121
  %23 = load %"class.std::allocator"*, %"class.std::allocator"** %6, align 8, !llfi_index !2122
  %24 = getelementptr inbounds %"class.__gnu_cxx::__normal_iterator", %"class.__gnu_cxx::__normal_iterator"* %7, i32 0, i32 0, !llfi_index !2123
  %25 = load %"struct.std::pair"*, %"struct.std::pair"** %24, align 8, !llfi_index !2124
  %26 = getelementptr inbounds %"class.__gnu_cxx::__normal_iterator", %"class.__gnu_cxx::__normal_iterator"* %8, i32 0, i32 0, !llfi_index !2125
  %27 = load %"struct.std::pair"*, %"struct.std::pair"** %26, align 8, !llfi_index !2126
  %28 = getelementptr inbounds %"class.__gnu_cxx::__normal_iterator", %"class.__gnu_cxx::__normal_iterator"* %9, i32 0, i32 0, !llfi_index !2127
  %29 = load %"struct.std::pair"*, %"struct.std::pair"** %28, align 8, !llfi_index !2128
  call void @_ZSt10__pop_heapIN9__gnu_cxx17__normal_iteratorIPSt4pairIiiESt6vectorIS3_SaIS3_EEEENS0_5__ops15_Iter_less_iterEEvT_SB_SB_RT0_(%"struct.std::pair"* %25, %"struct.std::pair"* %27, %"struct.std::pair"* %29, %"class.std::allocator"* nonnull align 1 dereferenceable(1) %23), !llfi_index !2129
  br label %12, !llvm.loop !2130, !llfi_index !2131

30:                                               ; preds = %12
  ret void, !llfi_index !2132
}

; Function Attrs: mustprogress noinline uwtable
define linkonce_odr dso_local void @_ZSt10__pop_heapIN9__gnu_cxx17__normal_iteratorIPSt4pairIiiESt6vectorIS3_SaIS3_EEEENS0_5__ops15_Iter_less_iterEEvT_SB_SB_RT0_(%"struct.std::pair"* %0, %"struct.std::pair"* %1, %"struct.std::pair"* %2, %"class.std::allocator"* nonnull align 1 dereferenceable(1) %3) #4 comdat {
  %5 = alloca %"class.__gnu_cxx::__normal_iterator", align 8, !llfi_index !2133
  %6 = alloca %"class.__gnu_cxx::__normal_iterator", align 8, !llfi_index !2134
  %7 = alloca %"class.__gnu_cxx::__normal_iterator", align 8, !llfi_index !2135
  %8 = alloca %"class.std::allocator"*, align 8, !llfi_index !2136
  %9 = alloca %"struct.std::pair", align 4, !llfi_index !2137
  %10 = alloca %"class.__gnu_cxx::__normal_iterator", align 8, !llfi_index !2138
  %11 = alloca %"struct.std::pair", align 4, !llfi_index !2139
  %12 = alloca %"class.std::allocator", align 1, !llfi_index !2140
  %13 = getelementptr inbounds %"class.__gnu_cxx::__normal_iterator", %"class.__gnu_cxx::__normal_iterator"* %5, i32 0, i32 0, !llfi_index !2141
  store %"struct.std::pair"* %0, %"struct.std::pair"** %13, align 8, !llfi_index !2142
  %14 = getelementptr inbounds %"class.__gnu_cxx::__normal_iterator", %"class.__gnu_cxx::__normal_iterator"* %6, i32 0, i32 0, !llfi_index !2143
  store %"struct.std::pair"* %1, %"struct.std::pair"** %14, align 8, !llfi_index !2144
  %15 = getelementptr inbounds %"class.__gnu_cxx::__normal_iterator", %"class.__gnu_cxx::__normal_iterator"* %7, i32 0, i32 0, !llfi_index !2145
  store %"struct.std::pair"* %2, %"struct.std::pair"** %15, align 8, !llfi_index !2146
  store %"class.std::allocator"* %3, %"class.std::allocator"** %8, align 8, !llfi_index !2147
  %16 = call nonnull align 4 dereferenceable(8) %"struct.std::pair"* @_ZNK9__gnu_cxx17__normal_iteratorIPSt4pairIiiESt6vectorIS2_SaIS2_EEEdeEv(%"class.__gnu_cxx::__normal_iterator"* nonnull align 8 dereferenceable(8) %7) #2, !llfi_index !2148
  %17 = call nonnull align 4 dereferenceable(8) %"struct.std::pair"* @_ZSt4moveIRSt4pairIiiEEONSt16remove_referenceIT_E4typeEOS4_(%"struct.std::pair"* nonnull align 4 dereferenceable(8) %16) #2, !llfi_index !2149
  %18 = bitcast %"struct.std::pair"* %9 to i8*, !llfi_index !2150
  %19 = bitcast %"struct.std::pair"* %17 to i8*, !llfi_index !2151
  call void @llvm.memcpy.p0i8.p0i8.i64(i8* align 4 %18, i8* align 4 %19, i64 8, i1 false), !llfi_index !2152
  %20 = call nonnull align 4 dereferenceable(8) %"struct.std::pair"* @_ZNK9__gnu_cxx17__normal_iteratorIPSt4pairIiiESt6vectorIS2_SaIS2_EEEdeEv(%"class.__gnu_cxx::__normal_iterator"* nonnull align 8 dereferenceable(8) %5) #2, !llfi_index !2153
  %21 = call nonnull align 4 dereferenceable(8) %"struct.std::pair"* @_ZSt4moveIRSt4pairIiiEEONSt16remove_referenceIT_E4typeEOS4_(%"struct.std::pair"* nonnull align 4 dereferenceable(8) %20) #2, !llfi_index !2154
  %22 = call nonnull align 4 dereferenceable(8) %"struct.std::pair"* @_ZNK9__gnu_cxx17__normal_iteratorIPSt4pairIiiESt6vectorIS2_SaIS2_EEEdeEv(%"class.__gnu_cxx::__normal_iterator"* nonnull align 8 dereferenceable(8) %7) #2, !llfi_index !2155
  %23 = call nonnull align 4 dereferenceable(8) %"struct.std::pair"* @_ZNSt4pairIiiEaSEOS0_(%"struct.std::pair"* nonnull align 4 dereferenceable(8) %22, %"struct.std::pair"* nonnull align 4 dereferenceable(8) %21) #2, !llfi_index !2156
  %24 = bitcast %"class.__gnu_cxx::__normal_iterator"* %10 to i8*, !llfi_index !2157
  %25 = bitcast %"class.__gnu_cxx::__normal_iterator"* %5 to i8*, !llfi_index !2158
  call void @llvm.memcpy.p0i8.p0i8.i64(i8* align 8 %24, i8* align 8 %25, i64 8, i1 false), !llfi_index !2159
  %26 = call i64 @_ZN9__gnu_cxxmiIPSt4pairIiiESt6vectorIS2_SaIS2_EEEENS_17__normal_iteratorIT_T0_E15difference_typeERKSA_SD_(%"class.__gnu_cxx::__normal_iterator"* nonnull align 8 dereferenceable(8) %6, %"class.__gnu_cxx::__normal_iterator"* nonnull align 8 dereferenceable(8) %5) #2, !llfi_index !2160
  %27 = call nonnull align 4 dereferenceable(8) %"struct.std::pair"* @_ZSt4moveIRSt4pairIiiEEONSt16remove_referenceIT_E4typeEOS4_(%"struct.std::pair"* nonnull align 4 dereferenceable(8) %9) #2, !llfi_index !2161
  %28 = bitcast %"struct.std::pair"* %11 to i8*, !llfi_index !2162
  %29 = bitcast %"struct.std::pair"* %27 to i8*, !llfi_index !2163
  call void @llvm.memcpy.p0i8.p0i8.i64(i8* align 4 %28, i8* align 4 %29, i64 8, i1 false), !llfi_index !2164
  %30 = load %"class.std::allocator"*, %"class.std::allocator"** %8, align 8, !llfi_index !2165
  %31 = getelementptr inbounds %"class.__gnu_cxx::__normal_iterator", %"class.__gnu_cxx::__normal_iterator"* %10, i32 0, i32 0, !llfi_index !2166
  %32 = load %"struct.std::pair"*, %"struct.std::pair"** %31, align 8, !llfi_index !2167
  %33 = bitcast %"struct.std::pair"* %11 to i64*, !llfi_index !2168
  %34 = load i64, i64* %33, align 4, !llfi_index !2169
  call void @_ZSt13__adjust_heapIN9__gnu_cxx17__normal_iteratorIPSt4pairIiiESt6vectorIS3_SaIS3_EEEElS3_NS0_5__ops15_Iter_less_iterEEvT_T0_SC_T1_T2_(%"struct.std::pair"* %32, i64 0, i64 %26, i64 %34), !llfi_index !2170
  ret void, !llfi_index !2171
}

; Function Attrs: mustprogress noinline uwtable
define linkonce_odr dso_local void @_ZSt13__adjust_heapIN9__gnu_cxx17__normal_iteratorIPSt4pairIiiESt6vectorIS3_SaIS3_EEEElS3_NS0_5__ops15_Iter_less_iterEEvT_T0_SC_T1_T2_(%"struct.std::pair"* %0, i64 %1, i64 %2, i64 %3) #4 comdat {
  %5 = alloca %"class.__gnu_cxx::__normal_iterator", align 8, !llfi_index !2172
  %6 = alloca %"struct.std::pair", align 4, !llfi_index !2173
  %7 = alloca %"class.std::allocator", align 1, !llfi_index !2174
  %8 = alloca i64, align 8, !llfi_index !2175
  %9 = alloca i64, align 8, !llfi_index !2176
  %10 = alloca i64, align 8, !llfi_index !2177
  %11 = alloca i64, align 8, !llfi_index !2178
  %12 = alloca %"class.__gnu_cxx::__normal_iterator", align 8, !llfi_index !2179
  %13 = alloca %"class.__gnu_cxx::__normal_iterator", align 8, !llfi_index !2180
  %14 = alloca %"class.__gnu_cxx::__normal_iterator", align 8, !llfi_index !2181
  %15 = alloca %"class.__gnu_cxx::__normal_iterator", align 8, !llfi_index !2182
  %16 = alloca %"class.__gnu_cxx::__normal_iterator", align 8, !llfi_index !2183
  %17 = alloca %"class.__gnu_cxx::__normal_iterator", align 8, !llfi_index !2184
  %18 = alloca %"class.std::allocator", align 1, !llfi_index !2185
  %19 = alloca %"class.std::allocator", align 1, !llfi_index !2186
  %20 = alloca %"class.__gnu_cxx::__normal_iterator", align 8, !llfi_index !2187
  %21 = alloca %"struct.std::pair", align 4, !llfi_index !2188
  %22 = getelementptr inbounds %"class.__gnu_cxx::__normal_iterator", %"class.__gnu_cxx::__normal_iterator"* %5, i32 0, i32 0, !llfi_index !2189
  store %"struct.std::pair"* %0, %"struct.std::pair"** %22, align 8, !llfi_index !2190
  %23 = bitcast %"struct.std::pair"* %6 to i64*, !llfi_index !2191
  store i64 %3, i64* %23, align 4, !llfi_index !2192
  store i64 %1, i64* %8, align 8, !llfi_index !2193
  store i64 %2, i64* %9, align 8, !llfi_index !2194
  %24 = load i64, i64* %8, align 8, !llfi_index !2195
  store i64 %24, i64* %10, align 8, !llfi_index !2196
  %25 = load i64, i64* %8, align 8, !llfi_index !2197
  store i64 %25, i64* %11, align 8, !llfi_index !2198
  br label %26, !llfi_index !2199

26:                                               ; preds = %51, %4
  %27 = load i64, i64* %11, align 8, !llfi_index !2200
  %28 = load i64, i64* %9, align 8, !llfi_index !2201
  %29 = sub nsw i64 %28, 1, !llfi_index !2202
  %30 = sdiv i64 %29, 2, !llfi_index !2203
  %31 = icmp slt i64 %27, %30, !llfi_index !2204
  br i1 %31, label %32, label %63, !llfi_index !2205

32:                                               ; preds = %26
  %33 = load i64, i64* %11, align 8, !llfi_index !2206
  %34 = add nsw i64 %33, 1, !llfi_index !2207
  %35 = mul nsw i64 2, %34, !llfi_index !2208
  store i64 %35, i64* %11, align 8, !llfi_index !2209
  %36 = load i64, i64* %11, align 8, !llfi_index !2210
  %37 = call %"struct.std::pair"* @_ZNK9__gnu_cxx17__normal_iteratorIPSt4pairIiiESt6vectorIS2_SaIS2_EEEplEl(%"class.__gnu_cxx::__normal_iterator"* nonnull align 8 dereferenceable(8) %5, i64 %36) #2, !llfi_index !2211
  %38 = getelementptr inbounds %"class.__gnu_cxx::__normal_iterator", %"class.__gnu_cxx::__normal_iterator"* %12, i32 0, i32 0, !llfi_index !2212
  store %"struct.std::pair"* %37, %"struct.std::pair"** %38, align 8, !llfi_index !2213
  %39 = load i64, i64* %11, align 8, !llfi_index !2214
  %40 = sub nsw i64 %39, 1, !llfi_index !2215
  %41 = call %"struct.std::pair"* @_ZNK9__gnu_cxx17__normal_iteratorIPSt4pairIiiESt6vectorIS2_SaIS2_EEEplEl(%"class.__gnu_cxx::__normal_iterator"* nonnull align 8 dereferenceable(8) %5, i64 %40) #2, !llfi_index !2216
  %42 = getelementptr inbounds %"class.__gnu_cxx::__normal_iterator", %"class.__gnu_cxx::__normal_iterator"* %13, i32 0, i32 0, !llfi_index !2217
  store %"struct.std::pair"* %41, %"struct.std::pair"** %42, align 8, !llfi_index !2218
  %43 = getelementptr inbounds %"class.__gnu_cxx::__normal_iterator", %"class.__gnu_cxx::__normal_iterator"* %12, i32 0, i32 0, !llfi_index !2219
  %44 = load %"struct.std::pair"*, %"struct.std::pair"** %43, align 8, !llfi_index !2220
  %45 = getelementptr inbounds %"class.__gnu_cxx::__normal_iterator", %"class.__gnu_cxx::__normal_iterator"* %13, i32 0, i32 0, !llfi_index !2221
  %46 = load %"struct.std::pair"*, %"struct.std::pair"** %45, align 8, !llfi_index !2222
  %47 = call zeroext i1 @_ZNK9__gnu_cxx5__ops15_Iter_less_iterclINS_17__normal_iteratorIPSt4pairIiiESt6vectorIS5_SaIS5_EEEESA_EEbT_T0_(%"class.std::allocator"* nonnull align 1 dereferenceable(1) %7, %"struct.std::pair"* %44, %"struct.std::pair"* %46), !llfi_index !2223
  br i1 %47, label %48, label %51, !llfi_index !2224

48:                                               ; preds = %32
  %49 = load i64, i64* %11, align 8, !llfi_index !2225
  %50 = add nsw i64 %49, -1, !llfi_index !2226
  store i64 %50, i64* %11, align 8, !llfi_index !2227
  br label %51, !llfi_index !2228

51:                                               ; preds = %48, %32
  %52 = load i64, i64* %11, align 8, !llfi_index !2229
  %53 = call %"struct.std::pair"* @_ZNK9__gnu_cxx17__normal_iteratorIPSt4pairIiiESt6vectorIS2_SaIS2_EEEplEl(%"class.__gnu_cxx::__normal_iterator"* nonnull align 8 dereferenceable(8) %5, i64 %52) #2, !llfi_index !2230
  %54 = getelementptr inbounds %"class.__gnu_cxx::__normal_iterator", %"class.__gnu_cxx::__normal_iterator"* %14, i32 0, i32 0, !llfi_index !2231
  store %"struct.std::pair"* %53, %"struct.std::pair"** %54, align 8, !llfi_index !2232
  %55 = call nonnull align 4 dereferenceable(8) %"struct.std::pair"* @_ZNK9__gnu_cxx17__normal_iteratorIPSt4pairIiiESt6vectorIS2_SaIS2_EEEdeEv(%"class.__gnu_cxx::__normal_iterator"* nonnull align 8 dereferenceable(8) %14) #2, !llfi_index !2233
  %56 = call nonnull align 4 dereferenceable(8) %"struct.std::pair"* @_ZSt4moveIRSt4pairIiiEEONSt16remove_referenceIT_E4typeEOS4_(%"struct.std::pair"* nonnull align 4 dereferenceable(8) %55) #2, !llfi_index !2234
  %57 = load i64, i64* %8, align 8, !llfi_index !2235
  %58 = call %"struct.std::pair"* @_ZNK9__gnu_cxx17__normal_iteratorIPSt4pairIiiESt6vectorIS2_SaIS2_EEEplEl(%"class.__gnu_cxx::__normal_iterator"* nonnull align 8 dereferenceable(8) %5, i64 %57) #2, !llfi_index !2236
  %59 = getelementptr inbounds %"class.__gnu_cxx::__normal_iterator", %"class.__gnu_cxx::__normal_iterator"* %15, i32 0, i32 0, !llfi_index !2237
  store %"struct.std::pair"* %58, %"struct.std::pair"** %59, align 8, !llfi_index !2238
  %60 = call nonnull align 4 dereferenceable(8) %"struct.std::pair"* @_ZNK9__gnu_cxx17__normal_iteratorIPSt4pairIiiESt6vectorIS2_SaIS2_EEEdeEv(%"class.__gnu_cxx::__normal_iterator"* nonnull align 8 dereferenceable(8) %15) #2, !llfi_index !2239
  %61 = call nonnull align 4 dereferenceable(8) %"struct.std::pair"* @_ZNSt4pairIiiEaSEOS0_(%"struct.std::pair"* nonnull align 4 dereferenceable(8) %60, %"struct.std::pair"* nonnull align 4 dereferenceable(8) %56) #2, !llfi_index !2240
  %62 = load i64, i64* %11, align 8, !llfi_index !2241
  store i64 %62, i64* %8, align 8, !llfi_index !2242
  br label %26, !llvm.loop !2243, !llfi_index !2244

63:                                               ; preds = %26
  %64 = load i64, i64* %9, align 8, !llfi_index !2245
  %65 = and i64 %64, 1, !llfi_index !2246
  %66 = icmp eq i64 %65, 0, !llfi_index !2247
  br i1 %66, label %67, label %90, !llfi_index !2248

67:                                               ; preds = %63
  %68 = load i64, i64* %11, align 8, !llfi_index !2249
  %69 = load i64, i64* %9, align 8, !llfi_index !2250
  %70 = sub nsw i64 %69, 2, !llfi_index !2251
  %71 = sdiv i64 %70, 2, !llfi_index !2252
  %72 = icmp eq i64 %68, %71, !llfi_index !2253
  br i1 %72, label %73, label %90, !llfi_index !2254

73:                                               ; preds = %67
  %74 = load i64, i64* %11, align 8, !llfi_index !2255
  %75 = add nsw i64 %74, 1, !llfi_index !2256
  %76 = mul nsw i64 2, %75, !llfi_index !2257
