; ModuleID = '/home/hjiang/Computation-Kernel-Dataset/experiments/Fault_injection_0308_parall/O0/CavityMap/CavityMap.ll'
source_filename = "llvm-link"
target datalayout = "e-m:e-p270:32:32-p271:32:32-p272:64:64-i64:64-f80:128-n8:16:32:64-S128"
target triple = "x86_64-unknown-linux-gnu"

%"class.std::ios_base::Init" = type { i8 }
%struct._IO_FILE = type { i32, i8*, i8*, i8*, i8*, i8*, i8*, i8*, i8*, i8*, i8*, i8*, %struct._IO_marker*, %struct._IO_FILE*, i32, i32, i64, i16, i8, [1 x i8], i8*, i64, %struct._IO_codecvt*, %struct._IO_wide_data*, %struct._IO_FILE*, i8*, i64, i32, [20 x i8] }
%struct._IO_marker = type opaque
%struct._IO_codecvt = type opaque
%struct._IO_wide_data = type opaque
%"class.std::basic_istream" = type { i32 (...)**, i64, %"class.std::basic_ios" }
%"class.std::basic_ios" = type { %"class.std::ios_base", %"class.std::basic_ostream"*, i8, i8, %"class.std::basic_streambuf"*, %"class.std::ctype"*, %"class.std::num_put"*, %"class.std::num_put"* }
%"class.std::ios_base" = type { i32 (...)**, i64, i64, i32, i32, i32, %"struct.std::ios_base::_Callback_list"*, %"struct.std::ios_base::_Words", [8 x %"struct.std::ios_base::_Words"], i32, %"struct.std::ios_base::_Words"*, %"class.std::locale" }
%"struct.std::ios_base::_Callback_list" = type { %"struct.std::ios_base::_Callback_list"*, void (i32, %"class.std::ios_base"*, i32)*, i32, i32 }
%"struct.std::ios_base::_Words" = type { i8*, i64 }
%"class.std::locale" = type { %"class.std::locale::_Impl"* }
%"class.std::locale::_Impl" = type { i32, %"class.std::locale::facet"**, i64, %"class.std::locale::facet"**, i8** }
%"class.std::locale::facet" = type <{ i32 (...)**, i32, [4 x i8] }>
%"class.std::basic_ostream" = type { i32 (...)**, %"class.std::basic_ios" }
%"class.std::basic_streambuf" = type { i32 (...)**, i8*, i8*, i8*, i8*, i8*, i8*, %"class.std::locale" }
%"class.std::ctype" = type <{ %"class.std::locale::facet.base", [4 x i8], %struct.__locale_struct*, i8, [7 x i8], i32*, i32*, i16*, i8, [256 x i8], [256 x i8], i8, [6 x i8] }>
%"class.std::locale::facet.base" = type <{ i32 (...)**, i32 }>
%struct.__locale_struct = type { [13 x %struct.__locale_data*], i16*, i32*, i32*, [13 x i8*] }
%struct.__locale_data = type opaque
%"class.std::num_put" = type { %"class.std::locale::facet.base", [4 x i8] }
%"class.std::vector" = type { %"struct.std::_Vector_base" }
%"struct.std::_Vector_base" = type { %"struct.std::_Vector_base<char, std::allocator<char>>::_Vector_impl" }
%"struct.std::_Vector_base<char, std::allocator<char>>::_Vector_impl" = type { %"struct.std::_Vector_base<char, std::allocator<char>>::_Vector_impl_data" }
%"struct.std::_Vector_base<char, std::allocator<char>>::_Vector_impl_data" = type { i8*, i8*, i8* }
%"class.std::vector.0" = type { %"struct.std::_Vector_base.1" }
%"struct.std::_Vector_base.1" = type { %"struct.std::_Vector_base<int, std::allocator<int>>::_Vector_impl" }
%"struct.std::_Vector_base<int, std::allocator<int>>::_Vector_impl" = type { %"struct.std::_Vector_base<int, std::allocator<int>>::_Vector_impl_data" }
%"struct.std::_Vector_base<int, std::allocator<int>>::_Vector_impl_data" = type { i32*, i32*, i32* }
%"class.__gnu_cxx::__normal_iterator" = type { i32* }
%"class.__gnu_cxx::__normal_iterator.5" = type { i8* }

$_ZNSt6vectorIcSaIcEEC2Ev = comdat any

$_ZNSt6vectorIiSaIiEEC2Ev = comdat any

$_ZNSt6vectorIcSaIcEE9push_backERKc = comdat any

$_ZNSt6vectorIiSaIiEED2Ev = comdat any

$_ZNSt6vectorIcSaIcEED2Ev = comdat any

$_ZNSt6vectorIcSaIcEEixEm = comdat any

$_ZNSt6vectorIiSaIiEE9push_backERKi = comdat any

$_ZNSt6vectorIiSaIiEE5beginEv = comdat any

$_ZNSt6vectorIiSaIiEE3endEv = comdat any

$_ZN9__gnu_cxxneIPiSt6vectorIiSaIiEEEEbRKNS_17__normal_iteratorIT_T0_EESA_ = comdat any

$_ZNK9__gnu_cxx17__normal_iteratorIPiSt6vectorIiSaIiEEEdeEv = comdat any

$_ZN9__gnu_cxx17__normal_iteratorIPiSt6vectorIiSaIiEEEppEv = comdat any

$_ZNK9__gnu_cxx17__normal_iteratorIPiSt6vectorIiSaIiEEE4baseEv = comdat any

$_ZN9__gnu_cxx17__normal_iteratorIPiSt6vectorIiSaIiEEEC2ERKS1_ = comdat any

$_ZNSt16allocator_traitsISaIiEE9constructIiJRKiEEEvRS0_PT_DpOT0_ = comdat any

$_ZNSt6vectorIiSaIiEE17_M_realloc_insertIJRKiEEEvN9__gnu_cxx17__normal_iteratorIPiS1_EEDpOT_ = comdat any

$_ZNKSt6vectorIiSaIiEE12_M_check_lenEmPKc = comdat any

$_ZN9__gnu_cxxmiIPiSt6vectorIiSaIiEEEENS_17__normal_iteratorIT_T0_E15difference_typeERKS8_SB_ = comdat any

$_ZNSt12_Vector_baseIiSaIiEE11_M_allocateEm = comdat any

$_ZSt7forwardIRKiEOT_RNSt16remove_referenceIS2_E4typeE = comdat any

$_ZNSt12_Vector_baseIiSaIiEE19_M_get_Tp_allocatorEv = comdat any

$_ZNSt6vectorIiSaIiEE11_S_relocateEPiS2_S2_RS0_ = comdat any

$_ZNSt12_Vector_baseIiSaIiEE13_M_deallocateEPim = comdat any

$_ZNSt16allocator_traitsISaIiEE10deallocateERS0_Pim = comdat any

$_ZN9__gnu_cxx13new_allocatorIiE10deallocateEPim = comdat any

$_ZNSt6vectorIiSaIiEE14_S_do_relocateEPiS2_S2_RS0_St17integral_constantIbLb1EE = comdat any

$_ZSt12__relocate_aIPiS0_SaIiEET0_T_S3_S2_RT1_ = comdat any

$_ZSt12__niter_baseIPiET_S1_ = comdat any

$_ZSt14__relocate_a_1IiiENSt9enable_ifIXsr3std24__is_bitwise_relocatableIT_EE5valueEPS1_E4typeES2_S2_S2_RSaIT0_E = comdat any

$_ZNSt16allocator_traitsISaIiEE8allocateERS0_m = comdat any

$_ZN9__gnu_cxx13new_allocatorIiE8allocateEmPKv = comdat any

$_ZNK9__gnu_cxx13new_allocatorIiE8max_sizeEv = comdat any

$_ZNKSt6vectorIiSaIiEE8max_sizeEv = comdat any

$_ZNKSt6vectorIiSaIiEE4sizeEv = comdat any

$_ZSt3maxImERKT_S2_S2_ = comdat any

$_ZNKSt12_Vector_baseIiSaIiEE19_M_get_Tp_allocatorEv = comdat any

$_ZNSt6vectorIiSaIiEE11_S_max_sizeERKS0_ = comdat any

$_ZNSt16allocator_traitsISaIiEE8max_sizeERKS0_ = comdat any

$_ZSt3minImERKT_S2_S2_ = comdat any

$_ZN9__gnu_cxx13new_allocatorIiE9constructIiJRKiEEEvPT_DpOT0_ = comdat any

$_ZNSt12_Vector_baseIcSaIcEE19_M_get_Tp_allocatorEv = comdat any

$_ZSt8_DestroyIPccEvT_S1_RSaIT0_E = comdat any

$_ZNSt12_Vector_baseIcSaIcEED2Ev = comdat any

$__clang_call_terminate = comdat any

$_ZNSt12_Vector_baseIcSaIcEE13_M_deallocateEPcm = comdat any

$_ZNSt12_Vector_baseIcSaIcEE12_Vector_implD2Ev = comdat any

$_ZNSt16allocator_traitsISaIcEE10deallocateERS0_Pcm = comdat any

$_ZN9__gnu_cxx13new_allocatorIcE10deallocateEPcm = comdat any

$_ZSt8_DestroyIPcEvT_S1_ = comdat any

$_ZNSt12_Destroy_auxILb1EE9__destroyIPcEEvT_S3_ = comdat any

$_ZSt8_DestroyIPiiEvT_S1_RSaIT0_E = comdat any

$_ZNSt12_Vector_baseIiSaIiEED2Ev = comdat any

$_ZNSt12_Vector_baseIiSaIiEE12_Vector_implD2Ev = comdat any

$_ZNSaIiED2Ev = comdat any

$_ZN9__gnu_cxx13new_allocatorIiED2Ev = comdat any

$_ZSt8_DestroyIPiEvT_S1_ = comdat any

$_ZNSt12_Destroy_auxILb1EE9__destroyIPiEEvT_S3_ = comdat any

$_ZNSt16allocator_traitsISaIcEE9constructIcJRKcEEEvRS0_PT_DpOT0_ = comdat any

$_ZNSt6vectorIcSaIcEE3endEv = comdat any

$_ZNSt6vectorIcSaIcEE17_M_realloc_insertIJRKcEEEvN9__gnu_cxx17__normal_iteratorIPcS1_EEDpOT_ = comdat any

$_ZNKSt6vectorIcSaIcEE12_M_check_lenEmPKc = comdat any

$_ZNSt6vectorIcSaIcEE5beginEv = comdat any

$_ZN9__gnu_cxxmiIPcSt6vectorIcSaIcEEEENS_17__normal_iteratorIT_T0_E15difference_typeERKS8_SB_ = comdat any

$_ZNSt12_Vector_baseIcSaIcEE11_M_allocateEm = comdat any

$_ZSt7forwardIRKcEOT_RNSt16remove_referenceIS2_E4typeE = comdat any

$_ZNK9__gnu_cxx17__normal_iteratorIPcSt6vectorIcSaIcEEE4baseEv = comdat any

$_ZNSt6vectorIcSaIcEE11_S_relocateEPcS2_S2_RS0_ = comdat any

$_ZNSt6vectorIcSaIcEE14_S_do_relocateEPcS2_S2_RS0_St17integral_constantIbLb1EE = comdat any

$_ZSt12__relocate_aIPcS0_SaIcEET0_T_S3_S2_RT1_ = comdat any

$_ZSt12__niter_baseIPcET_S1_ = comdat any

$_ZSt14__relocate_a_1IccENSt9enable_ifIXsr3std24__is_bitwise_relocatableIT_EE5valueEPS1_E4typeES2_S2_S2_RSaIT0_E = comdat any

$_ZNSt16allocator_traitsISaIcEE8allocateERS0_m = comdat any

$_ZN9__gnu_cxx13new_allocatorIcE8allocateEmPKv = comdat any

$_ZNK9__gnu_cxx13new_allocatorIcE8max_sizeEv = comdat any

$_ZN9__gnu_cxx17__normal_iteratorIPcSt6vectorIcSaIcEEEC2ERKS1_ = comdat any

$_ZNKSt6vectorIcSaIcEE8max_sizeEv = comdat any

$_ZNKSt6vectorIcSaIcEE4sizeEv = comdat any

$_ZNKSt12_Vector_baseIcSaIcEE19_M_get_Tp_allocatorEv = comdat any

$_ZNSt6vectorIcSaIcEE11_S_max_sizeERKS0_ = comdat any

$_ZNSt16allocator_traitsISaIcEE8max_sizeERKS0_ = comdat any

$_ZN9__gnu_cxx13new_allocatorIcE9constructIcJRKcEEEvPT_DpOT0_ = comdat any

$_ZNSt12_Vector_baseIiSaIiEEC2Ev = comdat any

$_ZNSt12_Vector_baseIiSaIiEE12_Vector_implC2Ev = comdat any

$_ZNSaIiEC2Ev = comdat any

$_ZNSt12_Vector_baseIiSaIiEE17_Vector_impl_dataC2Ev = comdat any

$_ZN9__gnu_cxx13new_allocatorIiEC2Ev = comdat any

$_ZNSt12_Vector_baseIcSaIcEEC2Ev = comdat any

$_ZNSt12_Vector_baseIcSaIcEE12_Vector_implC2Ev = comdat any

$_ZNSt12_Vector_baseIcSaIcEE17_Vector_impl_dataC2Ev = comdat any

@llvm.global_ctors = appending global [1 x { i32, void ()*, i8* }] [{ i32, void ()*, i8* } { i32 65535, void ()* @_GLOBAL__sub_I_CavityMap.cpp, i8* null }]
@_ZStL8__ioinit = internal global %"class.std::ios_base::Init" zeroinitializer, align 1
@.str = private unnamed_addr constant [25 x i8] c"../input_files/CavityMap\00", align 1
@.str.1 = private unnamed_addr constant [2 x i8] c"r\00", align 1
@stdin = external dso_local global %struct._IO_FILE*, align 8
@_ZSt3cin = external dso_local global %"class.std::basic_istream", align 8
@_ZSt4cout = external dso_local global %"class.std::basic_ostream", align 8
@.str.2 = private unnamed_addr constant [26 x i8] c"vector::_M_realloc_insert\00", align 1

; Function Attrs: noinline uwtable
define internal void @_GLOBAL__sub_I_CavityMap.cpp() #0 section ".text.startup" {
  call void @__cxx_global_var_init(), !llfi_index !4
  ret void, !llfi_index !5
}

; Function Attrs: noinline uwtable
define internal void @__cxx_global_var_init() #0 section ".text.startup" {
  call void @_ZNSt8ios_base4InitC1Ev(%"class.std::ios_base::Init"* nonnull align 1 dereferenceable(1) @_ZStL8__ioinit), !llfi_index !6
  %1 = call i32 @atexit(void ()* @__dtor__ZStL8__ioinit) #2, !llfi_index !7
  ret void, !llfi_index !8
}

declare dso_local void @_ZNSt8ios_base4InitC1Ev(%"class.std::ios_base::Init"* nonnull align 1 dereferenceable(1)) unnamed_addr #1

; Function Attrs: noinline uwtable
define internal void @__dtor__ZStL8__ioinit() #0 section ".text.startup" {
  call void @_ZNSt8ios_base4InitD1Ev(%"class.std::ios_base::Init"* @_ZStL8__ioinit), !llfi_index !9
  ret void, !llfi_index !10
}

; Function Attrs: nounwind
declare dso_local i32 @atexit(void ()*) #2

; Function Attrs: nounwind
declare dso_local void @_ZNSt8ios_base4InitD1Ev(%"class.std::ios_base::Init"* nonnull align 1 dereferenceable(1)) unnamed_addr #3

; Function Attrs: mustprogress noinline norecurse uwtable
define dso_local i32 @main() #4 personality i8* bitcast (i32 (...)* @__gxx_personality_v0 to i8*) {
  %1 = alloca i32, align 4, !llfi_index !11
  %2 = alloca i32, align 4, !llfi_index !12
  %3 = alloca %"class.std::vector", align 8, !llfi_index !13
  %4 = alloca %"class.std::vector.0", align 8, !llfi_index !14
  %5 = alloca i32, align 4, !llfi_index !15
  %6 = alloca i32, align 4, !llfi_index !16
  %7 = alloca i8, align 1, !llfi_index !17
  %8 = alloca i8*, align 8, !llfi_index !18
  %9 = alloca i32, align 4, !llfi_index !19
  %10 = alloca i32, align 4, !llfi_index !20
  %11 = alloca %"class.__gnu_cxx::__normal_iterator", align 8, !llfi_index !21
  %12 = alloca %"class.__gnu_cxx::__normal_iterator", align 8, !llfi_index !22
  %13 = alloca i32, align 4, !llfi_index !23
  store i32 0, i32* %1, align 4, !llfi_index !24
  %14 = load %struct._IO_FILE*, %struct._IO_FILE** @stdin, align 8, !llfi_index !25
  %15 = call %struct._IO_FILE* @freopen(i8* getelementptr inbounds ([25 x i8], [25 x i8]* @.str, i64 0, i64 0), i8* getelementptr inbounds ([2 x i8], [2 x i8]* @.str.1, i64 0, i64 0), %struct._IO_FILE* %14), !llfi_index !26
  %16 = call nonnull align 8 dereferenceable(16) %"class.std::basic_istream"* @_ZNSirsERi(%"class.std::basic_istream"* nonnull align 8 dereferenceable(16) @_ZSt3cin, i32* nonnull align 4 dereferenceable(4) %2), !llfi_index !27
  call void @_ZNSt6vectorIcSaIcEEC2Ev(%"class.std::vector"* nonnull align 8 dereferenceable(24) %3) #2, !llfi_index !28
  call void @_ZNSt6vectorIiSaIiEEC2Ev(%"class.std::vector.0"* nonnull align 8 dereferenceable(24) %4) #2, !llfi_index !29
  store i32 89, i32* %5, align 4, !llfi_index !30
  store i32 0, i32* %6, align 4, !llfi_index !31
  br label %17, !llfi_index !32

17:                                               ; preds = %27, %0
  %18 = load i32, i32* %6, align 4, !llfi_index !33
  %19 = load i32, i32* %2, align 4, !llfi_index !34
  %20 = load i32, i32* %2, align 4, !llfi_index !35
  %21 = mul nsw i32 %19, %20, !llfi_index !36
  %22 = icmp slt i32 %18, %21, !llfi_index !37
  br i1 %22, label %23, label %34, !llfi_index !38

23:                                               ; preds = %17
  %24 = invoke nonnull align 8 dereferenceable(16) %"class.std::basic_istream"* @_ZStrsIcSt11char_traitsIcEERSt13basic_istreamIT_T0_ES6_RS3_(%"class.std::basic_istream"* nonnull align 8 dereferenceable(16) @_ZSt3cin, i8* nonnull align 1 dereferenceable(1) %7)
          to label %25 unwind label %30, !llfi_index !39

25:                                               ; preds = %23
  invoke void @_ZNSt6vectorIcSaIcEE9push_backERKc(%"class.std::vector"* nonnull align 8 dereferenceable(24) %3, i8* nonnull align 1 dereferenceable(1) %7)
          to label %26 unwind label %30, !llfi_index !40

26:                                               ; preds = %25
  br label %27, !llfi_index !41

27:                                               ; preds = %26
  %28 = load i32, i32* %6, align 4, !llfi_index !42
  %29 = add nsw i32 %28, 1, !llfi_index !43
  store i32 %29, i32* %6, align 4, !llfi_index !44
  br label %17, !llvm.loop !45, !llfi_index !47

30:                                               ; preds = %150, %138, %111, %25, %23
  %31 = landingpad { i8*, i32 }
          cleanup, !llfi_index !48
  %32 = extractvalue { i8*, i32 } %31, 0, !llfi_index !49
  store i8* %32, i8** %8, align 8, !llfi_index !50
  %33 = extractvalue { i8*, i32 } %31, 1, !llfi_index !51
  store i32 %33, i32* %9, align 4, !llfi_index !52
  call void @_ZNSt6vectorIiSaIiEED2Ev(%"class.std::vector.0"* nonnull align 8 dereferenceable(24) %4) #2, !llfi_index !53
  call void @_ZNSt6vectorIcSaIcEED2Ev(%"class.std::vector"* nonnull align 8 dereferenceable(24) %3) #2, !llfi_index !54
  br label %159, !llfi_index !55

34:                                               ; preds = %17
  store i32 89, i32* %5, align 4, !llfi_index !56
  %35 = load i32, i32* %2, align 4, !llfi_index !57
  %36 = add nsw i32 %35, 1, !llfi_index !58
  store i32 %36, i32* %10, align 4, !llfi_index !59
  br label %37, !llfi_index !60

37:                                               ; preds = %114, %34
  %38 = load i32, i32* %10, align 4, !llfi_index !61
  %39 = load i32, i32* %2, align 4, !llfi_index !62
  %40 = load i32, i32* %2, align 4, !llfi_index !63
  %41 = sub nsw i32 %40, 1, !llfi_index !64
  %42 = mul nsw i32 %39, %41, !llfi_index !65
  %43 = sub nsw i32 %42, 1, !llfi_index !66
  %44 = icmp slt i32 %38, %43, !llfi_index !67
  br i1 %44, label %45, label %117, !llfi_index !68

45:                                               ; preds = %37
  %46 = load i32, i32* %10, align 4, !llfi_index !69
  %47 = load i32, i32* %2, align 4, !llfi_index !70
  %48 = srem i32 %46, %47, !llfi_index !71
  %49 = icmp eq i32 %48, 0, !llfi_index !72
  br i1 %49, label %56, label %50, !llfi_index !73

50:                                               ; preds = %45
  %51 = load i32, i32* %10, align 4, !llfi_index !74
  %52 = add nsw i32 %51, 1, !llfi_index !75
  %53 = load i32, i32* %2, align 4, !llfi_index !76
  %54 = srem i32 %52, %53, !llfi_index !77
  %55 = icmp eq i32 %54, 0, !llfi_index !78
  br i1 %55, label %56, label %57, !llfi_index !79

56:                                               ; preds = %50, %45
  br label %114, !llfi_index !80

57:                                               ; preds = %50
  %58 = load i32, i32* %10, align 4, !llfi_index !81
  %59 = sext i32 %58 to i64, !llfi_index !82
  %60 = call nonnull align 1 dereferenceable(1) i8* @_ZNSt6vectorIcSaIcEEixEm(%"class.std::vector"* nonnull align 8 dereferenceable(24) %3, i64 %59) #2, !llfi_index !83
  %61 = load i8, i8* %60, align 1, !llfi_index !84
  %62 = sext i8 %61 to i32, !llfi_index !85
  %63 = load i32, i32* %10, align 4, !llfi_index !86
  %64 = sub nsw i32 %63, 1, !llfi_index !87
  %65 = sext i32 %64 to i64, !llfi_index !88
  %66 = call nonnull align 1 dereferenceable(1) i8* @_ZNSt6vectorIcSaIcEEixEm(%"class.std::vector"* nonnull align 8 dereferenceable(24) %3, i64 %65) #2, !llfi_index !89
  %67 = load i8, i8* %66, align 1, !llfi_index !90
  %68 = sext i8 %67 to i32, !llfi_index !91
  %69 = icmp sgt i32 %62, %68, !llfi_index !92
  br i1 %69, label %70, label %113, !llfi_index !93

70:                                               ; preds = %57
  %71 = load i32, i32* %10, align 4, !llfi_index !94
  %72 = sext i32 %71 to i64, !llfi_index !95
  %73 = call nonnull align 1 dereferenceable(1) i8* @_ZNSt6vectorIcSaIcEEixEm(%"class.std::vector"* nonnull align 8 dereferenceable(24) %3, i64 %72) #2, !llfi_index !96
  %74 = load i8, i8* %73, align 1, !llfi_index !97
  %75 = sext i8 %74 to i32, !llfi_index !98
  %76 = load i32, i32* %10, align 4, !llfi_index !99
  %77 = add nsw i32 %76, 1, !llfi_index !100
  %78 = sext i32 %77 to i64, !llfi_index !101
  %79 = call nonnull align 1 dereferenceable(1) i8* @_ZNSt6vectorIcSaIcEEixEm(%"class.std::vector"* nonnull align 8 dereferenceable(24) %3, i64 %78) #2, !llfi_index !102
  %80 = load i8, i8* %79, align 1, !llfi_index !103
  %81 = sext i8 %80 to i32, !llfi_index !104
  %82 = icmp sgt i32 %75, %81, !llfi_index !105
  br i1 %82, label %83, label %113, !llfi_index !106

83:                                               ; preds = %70
  %84 = load i32, i32* %10, align 4, !llfi_index !107
  %85 = sext i32 %84 to i64, !llfi_index !108
  %86 = call nonnull align 1 dereferenceable(1) i8* @_ZNSt6vectorIcSaIcEEixEm(%"class.std::vector"* nonnull align 8 dereferenceable(24) %3, i64 %85) #2, !llfi_index !109
  %87 = load i8, i8* %86, align 1, !llfi_index !110
  %88 = sext i8 %87 to i32, !llfi_index !111
  %89 = load i32, i32* %10, align 4, !llfi_index !112
  %90 = load i32, i32* %2, align 4, !llfi_index !113
  %91 = sub nsw i32 %89, %90, !llfi_index !114
  %92 = sext i32 %91 to i64, !llfi_index !115
  %93 = call nonnull align 1 dereferenceable(1) i8* @_ZNSt6vectorIcSaIcEEixEm(%"class.std::vector"* nonnull align 8 dereferenceable(24) %3, i64 %92) #2, !llfi_index !116
  %94 = load i8, i8* %93, align 1, !llfi_index !117
  %95 = sext i8 %94 to i32, !llfi_index !118
  %96 = icmp sgt i32 %88, %95, !llfi_index !119
  br i1 %96, label %97, label %113, !llfi_index !120

97:                                               ; preds = %83
  %98 = load i32, i32* %10, align 4, !llfi_index !121
  %99 = sext i32 %98 to i64, !llfi_index !122
  %100 = call nonnull align 1 dereferenceable(1) i8* @_ZNSt6vectorIcSaIcEEixEm(%"class.std::vector"* nonnull align 8 dereferenceable(24) %3, i64 %99) #2, !llfi_index !123
  %101 = load i8, i8* %100, align 1, !llfi_index !124
  %102 = sext i8 %101 to i32, !llfi_index !125
  %103 = load i32, i32* %10, align 4, !llfi_index !126
  %104 = load i32, i32* %2, align 4, !llfi_index !127
  %105 = add nsw i32 %103, %104, !llfi_index !128
  %106 = sext i32 %105 to i64, !llfi_index !129
  %107 = call nonnull align 1 dereferenceable(1) i8* @_ZNSt6vectorIcSaIcEEixEm(%"class.std::vector"* nonnull align 8 dereferenceable(24) %3, i64 %106) #2, !llfi_index !130
  %108 = load i8, i8* %107, align 1, !llfi_index !131
  %109 = sext i8 %108 to i32, !llfi_index !132
  %110 = icmp sgt i32 %102, %109, !llfi_index !133
  br i1 %110, label %111, label %113, !llfi_index !134

111:                                              ; preds = %97
  invoke void @_ZNSt6vectorIiSaIiEE9push_backERKi(%"class.std::vector.0"* nonnull align 8 dereferenceable(24) %4, i32* nonnull align 4 dereferenceable(4) %10)
          to label %112 unwind label %30, !llfi_index !135

112:                                              ; preds = %111
  br label %113, !llfi_index !136

113:                                              ; preds = %112, %97, %83, %70, %57
  br label %114, !llfi_index !137

114:                                              ; preds = %113, %56
  %115 = load i32, i32* %10, align 4, !llfi_index !138
  %116 = add nsw i32 %115, 1, !llfi_index !139
  store i32 %116, i32* %10, align 4, !llfi_index !140
  br label %37, !llvm.loop !141, !llfi_index !142

117:                                              ; preds = %37
  store i32 89, i32* %5, align 4, !llfi_index !143
  %118 = call i32* @_ZNSt6vectorIiSaIiEE5beginEv(%"class.std::vector.0"* nonnull align 8 dereferenceable(24) %4) #2, !llfi_index !144
  %119 = getelementptr inbounds %"class.__gnu_cxx::__normal_iterator", %"class.__gnu_cxx::__normal_iterator"* %11, i32 0, i32 0, !llfi_index !145
  store i32* %118, i32** %119, align 8, !llfi_index !146
  br label %120, !llfi_index !147

120:                                              ; preds = %129, %117
  %121 = call i32* @_ZNSt6vectorIiSaIiEE3endEv(%"class.std::vector.0"* nonnull align 8 dereferenceable(24) %4) #2, !llfi_index !148
  %122 = getelementptr inbounds %"class.__gnu_cxx::__normal_iterator", %"class.__gnu_cxx::__normal_iterator"* %12, i32 0, i32 0, !llfi_index !149
  store i32* %121, i32** %122, align 8, !llfi_index !150
  %123 = call zeroext i1 @_ZN9__gnu_cxxneIPiSt6vectorIiSaIiEEEEbRKNS_17__normal_iteratorIT_T0_EESA_(%"class.__gnu_cxx::__normal_iterator"* nonnull align 8 dereferenceable(8) %11, %"class.__gnu_cxx::__normal_iterator"* nonnull align 8 dereferenceable(8) %12) #2, !llfi_index !151
  br i1 %123, label %124, label %131, !llfi_index !152

124:                                              ; preds = %120
  %125 = call nonnull align 4 dereferenceable(4) i32* @_ZNK9__gnu_cxx17__normal_iteratorIPiSt6vectorIiSaIiEEEdeEv(%"class.__gnu_cxx::__normal_iterator"* nonnull align 8 dereferenceable(8) %11) #2, !llfi_index !153
  %126 = load i32, i32* %125, align 4, !llfi_index !154
  %127 = sext i32 %126 to i64, !llfi_index !155
  %128 = call nonnull align 1 dereferenceable(1) i8* @_ZNSt6vectorIcSaIcEEixEm(%"class.std::vector"* nonnull align 8 dereferenceable(24) %3, i64 %127) #2, !llfi_index !156
  store i8 88, i8* %128, align 1, !llfi_index !157
  br label %129, !llfi_index !158

129:                                              ; preds = %124
  %130 = call nonnull align 8 dereferenceable(8) %"class.__gnu_cxx::__normal_iterator"* @_ZN9__gnu_cxx17__normal_iteratorIPiSt6vectorIiSaIiEEEppEv(%"class.__gnu_cxx::__normal_iterator"* nonnull align 8 dereferenceable(8) %11) #2, !llfi_index !159
  br label %120, !llvm.loop !160, !llfi_index !161

131:                                              ; preds = %120
  store i32 89, i32* %5, align 4, !llfi_index !162
  store i32 0, i32* %13, align 4, !llfi_index !163
  br label %132, !llfi_index !164

132:                                              ; preds = %154, %131
  %133 = load i32, i32* %13, align 4, !llfi_index !165
  %134 = load i32, i32* %2, align 4, !llfi_index !166
  %135 = load i32, i32* %2, align 4, !llfi_index !167
  %136 = mul nsw i32 %134, %135, !llfi_index !168
  %137 = icmp slt i32 %133, %136, !llfi_index !169
  br i1 %137, label %138, label %157, !llfi_index !170

138:                                              ; preds = %132
  %139 = load i32, i32* %13, align 4, !llfi_index !171
  %140 = sext i32 %139 to i64, !llfi_index !172
  %141 = call nonnull align 1 dereferenceable(1) i8* @_ZNSt6vectorIcSaIcEEixEm(%"class.std::vector"* nonnull align 8 dereferenceable(24) %3, i64 %140) #2, !llfi_index !173
  %142 = load i8, i8* %141, align 1, !llfi_index !174
  %143 = invoke nonnull align 8 dereferenceable(8) %"class.std::basic_ostream"* @_ZStlsISt11char_traitsIcEERSt13basic_ostreamIcT_ES5_c(%"class.std::basic_ostream"* nonnull align 8 dereferenceable(8) @_ZSt4cout, i8 signext %142)
          to label %144 unwind label %30, !llfi_index !175

144:                                              ; preds = %138
  %145 = load i32, i32* %13, align 4, !llfi_index !176
  %146 = add nsw i32 %145, 1, !llfi_index !177
  %147 = load i32, i32* %2, align 4, !llfi_index !178
  %148 = srem i32 %146, %147, !llfi_index !179
  %149 = icmp eq i32 %148, 0, !llfi_index !180
  br i1 %149, label %150, label %153, !llfi_index !181

150:                                              ; preds = %144
  %151 = invoke nonnull align 8 dereferenceable(8) %"class.std::basic_ostream"* @_ZNSolsEPFRSoS_E(%"class.std::basic_ostream"* nonnull align 8 dereferenceable(8) @_ZSt4cout, %"class.std::basic_ostream"* (%"class.std::basic_ostream"*)* @_ZSt4endlIcSt11char_traitsIcEERSt13basic_ostreamIT_T0_ES6_)
          to label %152 unwind label %30, !llfi_index !182

152:                                              ; preds = %150
  br label %153, !llfi_index !183

153:                                              ; preds = %152, %144
  br label %154, !llfi_index !184

154:                                              ; preds = %153
  %155 = load i32, i32* %13, align 4, !llfi_index !185
  %156 = add nsw i32 %155, 1, !llfi_index !186
  store i32 %156, i32* %13, align 4, !llfi_index !187
  br label %132, !llvm.loop !188, !llfi_index !189

157:                                              ; preds = %132
  call void @_ZNSt6vectorIiSaIiEED2Ev(%"class.std::vector.0"* nonnull align 8 dereferenceable(24) %4) #2, !llfi_index !190
  call void @_ZNSt6vectorIcSaIcEED2Ev(%"class.std::vector"* nonnull align 8 dereferenceable(24) %3) #2, !llfi_index !191
  %158 = load i32, i32* %1, align 4, !llfi_index !192
  ret i32 %158, !llfi_index !193

159:                                              ; preds = %30
  %160 = load i8*, i8** %8, align 8, !llfi_index !194
  %161 = load i32, i32* %9, align 4, !llfi_index !195
  %162 = insertvalue { i8*, i32 } undef, i8* %160, 0, !llfi_index !196
  %163 = insertvalue { i8*, i32 } %162, i32 %161, 1, !llfi_index !197
  resume { i8*, i32 } %163, !llfi_index !198
}

declare dso_local i32 @__gxx_personality_v0(...)

declare dso_local %struct._IO_FILE* @freopen(i8*, i8*, %struct._IO_FILE*) #1

declare dso_local nonnull align 8 dereferenceable(16) %"class.std::basic_istream"* @_ZNSirsERi(%"class.std::basic_istream"* nonnull align 8 dereferenceable(16), i32* nonnull align 4 dereferenceable(4)) #1

; Function Attrs: noinline nounwind uwtable
define linkonce_odr dso_local void @_ZNSt6vectorIcSaIcEEC2Ev(%"class.std::vector"* nonnull align 8 dereferenceable(24) %0) unnamed_addr #5 comdat align 2 {
  %2 = alloca %"class.std::vector"*, align 8, !llfi_index !199
  store %"class.std::vector"* %0, %"class.std::vector"** %2, align 8, !llfi_index !200
  %3 = load %"class.std::vector"*, %"class.std::vector"** %2, align 8, !llfi_index !201
  %4 = bitcast %"class.std::vector"* %3 to %"struct.std::_Vector_base"*, !llfi_index !202
  call void @_ZNSt12_Vector_baseIcSaIcEEC2Ev(%"struct.std::_Vector_base"* nonnull align 8 dereferenceable(24) %4) #2, !llfi_index !203
  ret void, !llfi_index !204
}

; Function Attrs: noinline nounwind uwtable
define linkonce_odr dso_local void @_ZNSt6vectorIiSaIiEEC2Ev(%"class.std::vector.0"* nonnull align 8 dereferenceable(24) %0) unnamed_addr #5 comdat align 2 {
  %2 = alloca %"class.std::vector.0"*, align 8, !llfi_index !205
  store %"class.std::vector.0"* %0, %"class.std::vector.0"** %2, align 8, !llfi_index !206
  %3 = load %"class.std::vector.0"*, %"class.std::vector.0"** %2, align 8, !llfi_index !207
  %4 = bitcast %"class.std::vector.0"* %3 to %"struct.std::_Vector_base.1"*, !llfi_index !208
  call void @_ZNSt12_Vector_baseIiSaIiEEC2Ev(%"struct.std::_Vector_base.1"* nonnull align 8 dereferenceable(24) %4) #2, !llfi_index !209
  ret void, !llfi_index !210
}

declare dso_local nonnull align 8 dereferenceable(16) %"class.std::basic_istream"* @_ZStrsIcSt11char_traitsIcEERSt13basic_istreamIT_T0_ES6_RS3_(%"class.std::basic_istream"* nonnull align 8 dereferenceable(16), i8* nonnull align 1 dereferenceable(1)) #1

; Function Attrs: mustprogress noinline uwtable
define linkonce_odr dso_local void @_ZNSt6vectorIcSaIcEE9push_backERKc(%"class.std::vector"* nonnull align 8 dereferenceable(24) %0, i8* nonnull align 1 dereferenceable(1) %1) #6 comdat align 2 {
  %3 = alloca %"class.std::vector"*, align 8, !llfi_index !211
  %4 = alloca i8*, align 8, !llfi_index !212
  %5 = alloca %"class.__gnu_cxx::__normal_iterator.5", align 8, !llfi_index !213
  store %"class.std::vector"* %0, %"class.std::vector"** %3, align 8, !llfi_index !214
  store i8* %1, i8** %4, align 8, !llfi_index !215
  %6 = load %"class.std::vector"*, %"class.std::vector"** %3, align 8, !llfi_index !216
  %7 = bitcast %"class.std::vector"* %6 to %"struct.std::_Vector_base"*, !llfi_index !217
  %8 = getelementptr inbounds %"struct.std::_Vector_base", %"struct.std::_Vector_base"* %7, i32 0, i32 0, !llfi_index !218
  %9 = bitcast %"struct.std::_Vector_base<char, std::allocator<char>>::_Vector_impl"* %8 to %"struct.std::_Vector_base<char, std::allocator<char>>::_Vector_impl_data"*, !llfi_index !219
  %10 = getelementptr inbounds %"struct.std::_Vector_base<char, std::allocator<char>>::_Vector_impl_data", %"struct.std::_Vector_base<char, std::allocator<char>>::_Vector_impl_data"* %9, i32 0, i32 1, !llfi_index !220
  %11 = load i8*, i8** %10, align 8, !llfi_index !221
  %12 = bitcast %"class.std::vector"* %6 to %"struct.std::_Vector_base"*, !llfi_index !222
  %13 = getelementptr inbounds %"struct.std::_Vector_base", %"struct.std::_Vector_base"* %12, i32 0, i32 0, !llfi_index !223
  %14 = bitcast %"struct.std::_Vector_base<char, std::allocator<char>>::_Vector_impl"* %13 to %"struct.std::_Vector_base<char, std::allocator<char>>::_Vector_impl_data"*, !llfi_index !224
  %15 = getelementptr inbounds %"struct.std::_Vector_base<char, std::allocator<char>>::_Vector_impl_data", %"struct.std::_Vector_base<char, std::allocator<char>>::_Vector_impl_data"* %14, i32 0, i32 2, !llfi_index !225
  %16 = load i8*, i8** %15, align 8, !llfi_index !226
  %17 = icmp ne i8* %11, %16, !llfi_index !227
  br i1 %17, label %18, label %34, !llfi_index !228

18:                                               ; preds = %2
  %19 = bitcast %"class.std::vector"* %6 to %"struct.std::_Vector_base"*, !llfi_index !229
  %20 = getelementptr inbounds %"struct.std::_Vector_base", %"struct.std::_Vector_base"* %19, i32 0, i32 0, !llfi_index !230
  %21 = bitcast %"struct.std::_Vector_base<char, std::allocator<char>>::_Vector_impl"* %20 to %"class.std::ios_base::Init"*, !llfi_index !231
  %22 = bitcast %"class.std::vector"* %6 to %"struct.std::_Vector_base"*, !llfi_index !232
  %23 = getelementptr inbounds %"struct.std::_Vector_base", %"struct.std::_Vector_base"* %22, i32 0, i32 0, !llfi_index !233
  %24 = bitcast %"struct.std::_Vector_base<char, std::allocator<char>>::_Vector_impl"* %23 to %"struct.std::_Vector_base<char, std::allocator<char>>::_Vector_impl_data"*, !llfi_index !234
  %25 = getelementptr inbounds %"struct.std::_Vector_base<char, std::allocator<char>>::_Vector_impl_data", %"struct.std::_Vector_base<char, std::allocator<char>>::_Vector_impl_data"* %24, i32 0, i32 1, !llfi_index !235
  %26 = load i8*, i8** %25, align 8, !llfi_index !236
  %27 = load i8*, i8** %4, align 8, !llfi_index !237
  call void @_ZNSt16allocator_traitsISaIcEE9constructIcJRKcEEEvRS0_PT_DpOT0_(%"class.std::ios_base::Init"* nonnull align 1 dereferenceable(1) %21, i8* %26, i8* nonnull align 1 dereferenceable(1) %27) #2, !llfi_index !238
  %28 = bitcast %"class.std::vector"* %6 to %"struct.std::_Vector_base"*, !llfi_index !239
  %29 = getelementptr inbounds %"struct.std::_Vector_base", %"struct.std::_Vector_base"* %28, i32 0, i32 0, !llfi_index !240
  %30 = bitcast %"struct.std::_Vector_base<char, std::allocator<char>>::_Vector_impl"* %29 to %"struct.std::_Vector_base<char, std::allocator<char>>::_Vector_impl_data"*, !llfi_index !241
  %31 = getelementptr inbounds %"struct.std::_Vector_base<char, std::allocator<char>>::_Vector_impl_data", %"struct.std::_Vector_base<char, std::allocator<char>>::_Vector_impl_data"* %30, i32 0, i32 1, !llfi_index !242
  %32 = load i8*, i8** %31, align 8, !llfi_index !243
  %33 = getelementptr inbounds i8, i8* %32, i32 1, !llfi_index !244
  store i8* %33, i8** %31, align 8, !llfi_index !245
  br label %40, !llfi_index !246

34:                                               ; preds = %2
  %35 = call i8* @_ZNSt6vectorIcSaIcEE3endEv(%"class.std::vector"* nonnull align 8 dereferenceable(24) %6) #2, !llfi_index !247
  %36 = getelementptr inbounds %"class.__gnu_cxx::__normal_iterator.5", %"class.__gnu_cxx::__normal_iterator.5"* %5, i32 0, i32 0, !llfi_index !248
  store i8* %35, i8** %36, align 8, !llfi_index !249
  %37 = load i8*, i8** %4, align 8, !llfi_index !250
  %38 = getelementptr inbounds %"class.__gnu_cxx::__normal_iterator.5", %"class.__gnu_cxx::__normal_iterator.5"* %5, i32 0, i32 0, !llfi_index !251
  %39 = load i8*, i8** %38, align 8, !llfi_index !252
  call void @_ZNSt6vectorIcSaIcEE17_M_realloc_insertIJRKcEEEvN9__gnu_cxx17__normal_iteratorIPcS1_EEDpOT_(%"class.std::vector"* nonnull align 8 dereferenceable(24) %6, i8* %39, i8* nonnull align 1 dereferenceable(1) %37), !llfi_index !253
  br label %40, !llfi_index !254

40:                                               ; preds = %34, %18
  ret void, !llfi_index !255
}

; Function Attrs: noinline nounwind uwtable
define linkonce_odr dso_local void @_ZNSt6vectorIiSaIiEED2Ev(%"class.std::vector.0"* nonnull align 8 dereferenceable(24) %0) unnamed_addr #5 comdat align 2 personality i8* bitcast (i32 (...)* @__gxx_personality_v0 to i8*) {
  %2 = alloca %"class.std::vector.0"*, align 8, !llfi_index !256
  %3 = alloca i8*, align 8, !llfi_index !257
  %4 = alloca i32, align 4, !llfi_index !258
  store %"class.std::vector.0"* %0, %"class.std::vector.0"** %2, align 8, !llfi_index !259
  %5 = load %"class.std::vector.0"*, %"class.std::vector.0"** %2, align 8, !llfi_index !260
  %6 = bitcast %"class.std::vector.0"* %5 to %"struct.std::_Vector_base.1"*, !llfi_index !261
  %7 = getelementptr inbounds %"struct.std::_Vector_base.1", %"struct.std::_Vector_base.1"* %6, i32 0, i32 0, !llfi_index !262
  %8 = bitcast %"struct.std::_Vector_base<int, std::allocator<int>>::_Vector_impl"* %7 to %"struct.std::_Vector_base<int, std::allocator<int>>::_Vector_impl_data"*, !llfi_index !263
  %9 = getelementptr inbounds %"struct.std::_Vector_base<int, std::allocator<int>>::_Vector_impl_data", %"struct.std::_Vector_base<int, std::allocator<int>>::_Vector_impl_data"* %8, i32 0, i32 0, !llfi_index !264
  %10 = load i32*, i32** %9, align 8, !llfi_index !265
  %11 = bitcast %"class.std::vector.0"* %5 to %"struct.std::_Vector_base.1"*, !llfi_index !266
  %12 = getelementptr inbounds %"struct.std::_Vector_base.1", %"struct.std::_Vector_base.1"* %11, i32 0, i32 0, !llfi_index !267
  %13 = bitcast %"struct.std::_Vector_base<int, std::allocator<int>>::_Vector_impl"* %12 to %"struct.std::_Vector_base<int, std::allocator<int>>::_Vector_impl_data"*, !llfi_index !268
  %14 = getelementptr inbounds %"struct.std::_Vector_base<int, std::allocator<int>>::_Vector_impl_data", %"struct.std::_Vector_base<int, std::allocator<int>>::_Vector_impl_data"* %13, i32 0, i32 1, !llfi_index !269
  %15 = load i32*, i32** %14, align 8, !llfi_index !270
  %16 = bitcast %"class.std::vector.0"* %5 to %"struct.std::_Vector_base.1"*, !llfi_index !271
  %17 = call nonnull align 1 dereferenceable(1) %"class.std::ios_base::Init"* @_ZNSt12_Vector_baseIiSaIiEE19_M_get_Tp_allocatorEv(%"struct.std::_Vector_base.1"* nonnull align 8 dereferenceable(24) %16) #2, !llfi_index !272
  invoke void @_ZSt8_DestroyIPiiEvT_S1_RSaIT0_E(i32* %10, i32* %15, %"class.std::ios_base::Init"* nonnull align 1 dereferenceable(1) %17)
          to label %18 unwind label %20, !llfi_index !273

18:                                               ; preds = %1
  %19 = bitcast %"class.std::vector.0"* %5 to %"struct.std::_Vector_base.1"*, !llfi_index !274
  call void @_ZNSt12_Vector_baseIiSaIiEED2Ev(%"struct.std::_Vector_base.1"* nonnull align 8 dereferenceable(24) %19) #2, !llfi_index !275
  ret void, !llfi_index !276

20:                                               ; preds = %1
  %21 = landingpad { i8*, i32 }
          catch i8* null, !llfi_index !277
  %22 = extractvalue { i8*, i32 } %21, 0, !llfi_index !278
  store i8* %22, i8** %3, align 8, !llfi_index !279
  %23 = extractvalue { i8*, i32 } %21, 1, !llfi_index !280
  store i32 %23, i32* %4, align 4, !llfi_index !281
  %24 = bitcast %"class.std::vector.0"* %5 to %"struct.std::_Vector_base.1"*, !llfi_index !282
  call void @_ZNSt12_Vector_baseIiSaIiEED2Ev(%"struct.std::_Vector_base.1"* nonnull align 8 dereferenceable(24) %24) #2, !llfi_index !283
  br label %25, !llfi_index !284

25:                                               ; preds = %20
  %26 = load i8*, i8** %3, align 8, !llfi_index !285
  call void @__clang_call_terminate(i8* %26) #13, !llfi_index !286
  unreachable, !llfi_index !287
}

; Function Attrs: noinline nounwind uwtable
define linkonce_odr dso_local void @_ZNSt6vectorIcSaIcEED2Ev(%"class.std::vector"* nonnull align 8 dereferenceable(24) %0) unnamed_addr #5 comdat align 2 personality i8* bitcast (i32 (...)* @__gxx_personality_v0 to i8*) {
  %2 = alloca %"class.std::vector"*, align 8, !llfi_index !288
  %3 = alloca i8*, align 8, !llfi_index !289
  %4 = alloca i32, align 4, !llfi_index !290
  store %"class.std::vector"* %0, %"class.std::vector"** %2, align 8, !llfi_index !291
  %5 = load %"class.std::vector"*, %"class.std::vector"** %2, align 8, !llfi_index !292
  %6 = bitcast %"class.std::vector"* %5 to %"struct.std::_Vector_base"*, !llfi_index !293
  %7 = getelementptr inbounds %"struct.std::_Vector_base", %"struct.std::_Vector_base"* %6, i32 0, i32 0, !llfi_index !294
  %8 = bitcast %"struct.std::_Vector_base<char, std::allocator<char>>::_Vector_impl"* %7 to %"struct.std::_Vector_base<char, std::allocator<char>>::_Vector_impl_data"*, !llfi_index !295
  %9 = getelementptr inbounds %"struct.std::_Vector_base<char, std::allocator<char>>::_Vector_impl_data", %"struct.std::_Vector_base<char, std::allocator<char>>::_Vector_impl_data"* %8, i32 0, i32 0, !llfi_index !296
  %10 = load i8*, i8** %9, align 8, !llfi_index !297
  %11 = bitcast %"class.std::vector"* %5 to %"struct.std::_Vector_base"*, !llfi_index !298
  %12 = getelementptr inbounds %"struct.std::_Vector_base", %"struct.std::_Vector_base"* %11, i32 0, i32 0, !llfi_index !299
  %13 = bitcast %"struct.std::_Vector_base<char, std::allocator<char>>::_Vector_impl"* %12 to %"struct.std::_Vector_base<char, std::allocator<char>>::_Vector_impl_data"*, !llfi_index !300
  %14 = getelementptr inbounds %"struct.std::_Vector_base<char, std::allocator<char>>::_Vector_impl_data", %"struct.std::_Vector_base<char, std::allocator<char>>::_Vector_impl_data"* %13, i32 0, i32 1, !llfi_index !301
  %15 = load i8*, i8** %14, align 8, !llfi_index !302
  %16 = bitcast %"class.std::vector"* %5 to %"struct.std::_Vector_base"*, !llfi_index !303
  %17 = call nonnull align 1 dereferenceable(1) %"class.std::ios_base::Init"* @_ZNSt12_Vector_baseIcSaIcEE19_M_get_Tp_allocatorEv(%"struct.std::_Vector_base"* nonnull align 8 dereferenceable(24) %16) #2, !llfi_index !304
  invoke void @_ZSt8_DestroyIPccEvT_S1_RSaIT0_E(i8* %10, i8* %15, %"class.std::ios_base::Init"* nonnull align 1 dereferenceable(1) %17)
          to label %18 unwind label %20, !llfi_index !305

18:                                               ; preds = %1
  %19 = bitcast %"class.std::vector"* %5 to %"struct.std::_Vector_base"*, !llfi_index !306
  call void @_ZNSt12_Vector_baseIcSaIcEED2Ev(%"struct.std::_Vector_base"* nonnull align 8 dereferenceable(24) %19) #2, !llfi_index !307
  ret void, !llfi_index !308

20:                                               ; preds = %1
  %21 = landingpad { i8*, i32 }
          catch i8* null, !llfi_index !309
  %22 = extractvalue { i8*, i32 } %21, 0, !llfi_index !310
  store i8* %22, i8** %3, align 8, !llfi_index !311
  %23 = extractvalue { i8*, i32 } %21, 1, !llfi_index !312
  store i32 %23, i32* %4, align 4, !llfi_index !313
  %24 = bitcast %"class.std::vector"* %5 to %"struct.std::_Vector_base"*, !llfi_index !314
  call void @_ZNSt12_Vector_baseIcSaIcEED2Ev(%"struct.std::_Vector_base"* nonnull align 8 dereferenceable(24) %24) #2, !llfi_index !315
  br label %25, !llfi_index !316

25:                                               ; preds = %20
  %26 = load i8*, i8** %3, align 8, !llfi_index !317
  call void @__clang_call_terminate(i8* %26) #13, !llfi_index !318
  unreachable, !llfi_index !319
}

; Function Attrs: mustprogress noinline nounwind uwtable
define linkonce_odr dso_local nonnull align 1 dereferenceable(1) i8* @_ZNSt6vectorIcSaIcEEixEm(%"class.std::vector"* nonnull align 8 dereferenceable(24) %0, i64 %1) #7 comdat align 2 {
  %3 = alloca %"class.std::vector"*, align 8, !llfi_index !320
  %4 = alloca i64, align 8, !llfi_index !321
  store %"class.std::vector"* %0, %"class.std::vector"** %3, align 8, !llfi_index !322
  store i64 %1, i64* %4, align 8, !llfi_index !323
  %5 = load %"class.std::vector"*, %"class.std::vector"** %3, align 8, !llfi_index !324
  %6 = bitcast %"class.std::vector"* %5 to %"struct.std::_Vector_base"*, !llfi_index !325
  %7 = getelementptr inbounds %"struct.std::_Vector_base", %"struct.std::_Vector_base"* %6, i32 0, i32 0, !llfi_index !326
  %8 = bitcast %"struct.std::_Vector_base<char, std::allocator<char>>::_Vector_impl"* %7 to %"struct.std::_Vector_base<char, std::allocator<char>>::_Vector_impl_data"*, !llfi_index !327
  %9 = getelementptr inbounds %"struct.std::_Vector_base<char, std::allocator<char>>::_Vector_impl_data", %"struct.std::_Vector_base<char, std::allocator<char>>::_Vector_impl_data"* %8, i32 0, i32 0, !llfi_index !328
  %10 = load i8*, i8** %9, align 8, !llfi_index !329
  %11 = load i64, i64* %4, align 8, !llfi_index !330
  %12 = getelementptr inbounds i8, i8* %10, i64 %11, !llfi_index !331
  ret i8* %12, !llfi_index !332
}

; Function Attrs: mustprogress noinline uwtable
define linkonce_odr dso_local void @_ZNSt6vectorIiSaIiEE9push_backERKi(%"class.std::vector.0"* nonnull align 8 dereferenceable(24) %0, i32* nonnull align 4 dereferenceable(4) %1) #6 comdat align 2 {
  %3 = alloca %"class.std::vector.0"*, align 8, !llfi_index !333
  %4 = alloca i32*, align 8, !llfi_index !334
  %5 = alloca %"class.__gnu_cxx::__normal_iterator", align 8, !llfi_index !335
  store %"class.std::vector.0"* %0, %"class.std::vector.0"** %3, align 8, !llfi_index !336
  store i32* %1, i32** %4, align 8, !llfi_index !337
  %6 = load %"class.std::vector.0"*, %"class.std::vector.0"** %3, align 8, !llfi_index !338
  %7 = bitcast %"class.std::vector.0"* %6 to %"struct.std::_Vector_base.1"*, !llfi_index !339
  %8 = getelementptr inbounds %"struct.std::_Vector_base.1", %"struct.std::_Vector_base.1"* %7, i32 0, i32 0, !llfi_index !340
  %9 = bitcast %"struct.std::_Vector_base<int, std::allocator<int>>::_Vector_impl"* %8 to %"struct.std::_Vector_base<int, std::allocator<int>>::_Vector_impl_data"*, !llfi_index !341
  %10 = getelementptr inbounds %"struct.std::_Vector_base<int, std::allocator<int>>::_Vector_impl_data", %"struct.std::_Vector_base<int, std::allocator<int>>::_Vector_impl_data"* %9, i32 0, i32 1, !llfi_index !342
  %11 = load i32*, i32** %10, align 8, !llfi_index !343
  %12 = bitcast %"class.std::vector.0"* %6 to %"struct.std::_Vector_base.1"*, !llfi_index !344
  %13 = getelementptr inbounds %"struct.std::_Vector_base.1", %"struct.std::_Vector_base.1"* %12, i32 0, i32 0, !llfi_index !345
  %14 = bitcast %"struct.std::_Vector_base<int, std::allocator<int>>::_Vector_impl"* %13 to %"struct.std::_Vector_base<int, std::allocator<int>>::_Vector_impl_data"*, !llfi_index !346
  %15 = getelementptr inbounds %"struct.std::_Vector_base<int, std::allocator<int>>::_Vector_impl_data", %"struct.std::_Vector_base<int, std::allocator<int>>::_Vector_impl_data"* %14, i32 0, i32 2, !llfi_index !347
  %16 = load i32*, i32** %15, align 8, !llfi_index !348
  %17 = icmp ne i32* %11, %16, !llfi_index !349
  br i1 %17, label %18, label %34, !llfi_index !350

18:                                               ; preds = %2
  %19 = bitcast %"class.std::vector.0"* %6 to %"struct.std::_Vector_base.1"*, !llfi_index !351
  %20 = getelementptr inbounds %"struct.std::_Vector_base.1", %"struct.std::_Vector_base.1"* %19, i32 0, i32 0, !llfi_index !352
  %21 = bitcast %"struct.std::_Vector_base<int, std::allocator<int>>::_Vector_impl"* %20 to %"class.std::ios_base::Init"*, !llfi_index !353
  %22 = bitcast %"class.std::vector.0"* %6 to %"struct.std::_Vector_base.1"*, !llfi_index !354
  %23 = getelementptr inbounds %"struct.std::_Vector_base.1", %"struct.std::_Vector_base.1"* %22, i32 0, i32 0, !llfi_index !355
  %24 = bitcast %"struct.std::_Vector_base<int, std::allocator<int>>::_Vector_impl"* %23 to %"struct.std::_Vector_base<int, std::allocator<int>>::_Vector_impl_data"*, !llfi_index !356
  %25 = getelementptr inbounds %"struct.std::_Vector_base<int, std::allocator<int>>::_Vector_impl_data", %"struct.std::_Vector_base<int, std::allocator<int>>::_Vector_impl_data"* %24, i32 0, i32 1, !llfi_index !357
  %26 = load i32*, i32** %25, align 8, !llfi_index !358
  %27 = load i32*, i32** %4, align 8, !llfi_index !359
  call void @_ZNSt16allocator_traitsISaIiEE9constructIiJRKiEEEvRS0_PT_DpOT0_(%"class.std::ios_base::Init"* nonnull align 1 dereferenceable(1) %21, i32* %26, i32* nonnull align 4 dereferenceable(4) %27) #2, !llfi_index !360
  %28 = bitcast %"class.std::vector.0"* %6 to %"struct.std::_Vector_base.1"*, !llfi_index !361
  %29 = getelementptr inbounds %"struct.std::_Vector_base.1", %"struct.std::_Vector_base.1"* %28, i32 0, i32 0, !llfi_index !362
  %30 = bitcast %"struct.std::_Vector_base<int, std::allocator<int>>::_Vector_impl"* %29 to %"struct.std::_Vector_base<int, std::allocator<int>>::_Vector_impl_data"*, !llfi_index !363
  %31 = getelementptr inbounds %"struct.std::_Vector_base<int, std::allocator<int>>::_Vector_impl_data", %"struct.std::_Vector_base<int, std::allocator<int>>::_Vector_impl_data"* %30, i32 0, i32 1, !llfi_index !364
  %32 = load i32*, i32** %31, align 8, !llfi_index !365
  %33 = getelementptr inbounds i32, i32* %32, i32 1, !llfi_index !366
  store i32* %33, i32** %31, align 8, !llfi_index !367
  br label %40, !llfi_index !368

34:                                               ; preds = %2
  %35 = call i32* @_ZNSt6vectorIiSaIiEE3endEv(%"class.std::vector.0"* nonnull align 8 dereferenceable(24) %6) #2, !llfi_index !369
  %36 = getelementptr inbounds %"class.__gnu_cxx::__normal_iterator", %"class.__gnu_cxx::__normal_iterator"* %5, i32 0, i32 0, !llfi_index !370
  store i32* %35, i32** %36, align 8, !llfi_index !371
  %37 = load i32*, i32** %4, align 8, !llfi_index !372
  %38 = getelementptr inbounds %"class.__gnu_cxx::__normal_iterator", %"class.__gnu_cxx::__normal_iterator"* %5, i32 0, i32 0, !llfi_index !373
  %39 = load i32*, i32** %38, align 8, !llfi_index !374
  call void @_ZNSt6vectorIiSaIiEE17_M_realloc_insertIJRKiEEEvN9__gnu_cxx17__normal_iteratorIPiS1_EEDpOT_(%"class.std::vector.0"* nonnull align 8 dereferenceable(24) %6, i32* %39, i32* nonnull align 4 dereferenceable(4) %37), !llfi_index !375
  br label %40, !llfi_index !376

40:                                               ; preds = %34, %18
  ret void, !llfi_index !377
}

; Function Attrs: mustprogress noinline nounwind uwtable
define linkonce_odr dso_local i32* @_ZNSt6vectorIiSaIiEE5beginEv(%"class.std::vector.0"* nonnull align 8 dereferenceable(24) %0) #7 comdat align 2 {
  %2 = alloca %"class.__gnu_cxx::__normal_iterator", align 8, !llfi_index !378
  %3 = alloca %"class.std::vector.0"*, align 8, !llfi_index !379
  store %"class.std::vector.0"* %0, %"class.std::vector.0"** %3, align 8, !llfi_index !380
  %4 = load %"class.std::vector.0"*, %"class.std::vector.0"** %3, align 8, !llfi_index !381
  %5 = bitcast %"class.std::vector.0"* %4 to %"struct.std::_Vector_base.1"*, !llfi_index !382
  %6 = getelementptr inbounds %"struct.std::_Vector_base.1", %"struct.std::_Vector_base.1"* %5, i32 0, i32 0, !llfi_index !383
  %7 = bitcast %"struct.std::_Vector_base<int, std::allocator<int>>::_Vector_impl"* %6 to %"struct.std::_Vector_base<int, std::allocator<int>>::_Vector_impl_data"*, !llfi_index !384
  %8 = getelementptr inbounds %"struct.std::_Vector_base<int, std::allocator<int>>::_Vector_impl_data", %"struct.std::_Vector_base<int, std::allocator<int>>::_Vector_impl_data"* %7, i32 0, i32 0, !llfi_index !385
  call void @_ZN9__gnu_cxx17__normal_iteratorIPiSt6vectorIiSaIiEEEC2ERKS1_(%"class.__gnu_cxx::__normal_iterator"* nonnull align 8 dereferenceable(8) %2, i32** nonnull align 8 dereferenceable(8) %8) #2, !llfi_index !386
  %9 = getelementptr inbounds %"class.__gnu_cxx::__normal_iterator", %"class.__gnu_cxx::__normal_iterator"* %2, i32 0, i32 0, !llfi_index !387
  %10 = load i32*, i32** %9, align 8, !llfi_index !388
  ret i32* %10, !llfi_index !389
}

; Function Attrs: mustprogress noinline nounwind uwtable
define linkonce_odr dso_local i32* @_ZNSt6vectorIiSaIiEE3endEv(%"class.std::vector.0"* nonnull align 8 dereferenceable(24) %0) #7 comdat align 2 {
  %2 = alloca %"class.__gnu_cxx::__normal_iterator", align 8, !llfi_index !390
  %3 = alloca %"class.std::vector.0"*, align 8, !llfi_index !391
  store %"class.std::vector.0"* %0, %"class.std::vector.0"** %3, align 8, !llfi_index !392
  %4 = load %"class.std::vector.0"*, %"class.std::vector.0"** %3, align 8, !llfi_index !393
  %5 = bitcast %"class.std::vector.0"* %4 to %"struct.std::_Vector_base.1"*, !llfi_index !394
  %6 = getelementptr inbounds %"struct.std::_Vector_base.1", %"struct.std::_Vector_base.1"* %5, i32 0, i32 0, !llfi_index !395
  %7 = bitcast %"struct.std::_Vector_base<int, std::allocator<int>>::_Vector_impl"* %6 to %"struct.std::_Vector_base<int, std::allocator<int>>::_Vector_impl_data"*, !llfi_index !396
  %8 = getelementptr inbounds %"struct.std::_Vector_base<int, std::allocator<int>>::_Vector_impl_data", %"struct.std::_Vector_base<int, std::allocator<int>>::_Vector_impl_data"* %7, i32 0, i32 1, !llfi_index !397
  call void @_ZN9__gnu_cxx17__normal_iteratorIPiSt6vectorIiSaIiEEEC2ERKS1_(%"class.__gnu_cxx::__normal_iterator"* nonnull align 8 dereferenceable(8) %2, i32** nonnull align 8 dereferenceable(8) %8) #2, !llfi_index !398
  %9 = getelementptr inbounds %"class.__gnu_cxx::__normal_iterator", %"class.__gnu_cxx::__normal_iterator"* %2, i32 0, i32 0, !llfi_index !399
  %10 = load i32*, i32** %9, align 8, !llfi_index !400
  ret i32* %10, !llfi_index !401
}

; Function Attrs: mustprogress noinline nounwind uwtable
define linkonce_odr dso_local zeroext i1 @_ZN9__gnu_cxxneIPiSt6vectorIiSaIiEEEEbRKNS_17__normal_iteratorIT_T0_EESA_(%"class.__gnu_cxx::__normal_iterator"* nonnull align 8 dereferenceable(8) %0, %"class.__gnu_cxx::__normal_iterator"* nonnull align 8 dereferenceable(8) %1) #7 comdat {
  %3 = alloca %"class.__gnu_cxx::__normal_iterator"*, align 8, !llfi_index !402
  %4 = alloca %"class.__gnu_cxx::__normal_iterator"*, align 8, !llfi_index !403
  store %"class.__gnu_cxx::__normal_iterator"* %0, %"class.__gnu_cxx::__normal_iterator"** %3, align 8, !llfi_index !404
  store %"class.__gnu_cxx::__normal_iterator"* %1, %"class.__gnu_cxx::__normal_iterator"** %4, align 8, !llfi_index !405
  %5 = load %"class.__gnu_cxx::__normal_iterator"*, %"class.__gnu_cxx::__normal_iterator"** %3, align 8, !llfi_index !406
  %6 = call nonnull align 8 dereferenceable(8) i32** @_ZNK9__gnu_cxx17__normal_iteratorIPiSt6vectorIiSaIiEEE4baseEv(%"class.__gnu_cxx::__normal_iterator"* nonnull align 8 dereferenceable(8) %5) #2, !llfi_index !407
  %7 = load i32*, i32** %6, align 8, !llfi_index !408
  %8 = load %"class.__gnu_cxx::__normal_iterator"*, %"class.__gnu_cxx::__normal_iterator"** %4, align 8, !llfi_index !409
  %9 = call nonnull align 8 dereferenceable(8) i32** @_ZNK9__gnu_cxx17__normal_iteratorIPiSt6vectorIiSaIiEEE4baseEv(%"class.__gnu_cxx::__normal_iterator"* nonnull align 8 dereferenceable(8) %8) #2, !llfi_index !410
  %10 = load i32*, i32** %9, align 8, !llfi_index !411
  %11 = icmp ne i32* %7, %10, !llfi_index !412
  ret i1 %11, !llfi_index !413
}

; Function Attrs: mustprogress noinline nounwind uwtable
define linkonce_odr dso_local nonnull align 4 dereferenceable(4) i32* @_ZNK9__gnu_cxx17__normal_iteratorIPiSt6vectorIiSaIiEEEdeEv(%"class.__gnu_cxx::__normal_iterator"* nonnull align 8 dereferenceable(8) %0) #7 comdat align 2 {
  %2 = alloca %"class.__gnu_cxx::__normal_iterator"*, align 8, !llfi_index !414
  store %"class.__gnu_cxx::__normal_iterator"* %0, %"class.__gnu_cxx::__normal_iterator"** %2, align 8, !llfi_index !415
  %3 = load %"class.__gnu_cxx::__normal_iterator"*, %"class.__gnu_cxx::__normal_iterator"** %2, align 8, !llfi_index !416
  %4 = getelementptr inbounds %"class.__gnu_cxx::__normal_iterator", %"class.__gnu_cxx::__normal_iterator"* %3, i32 0, i32 0, !llfi_index !417
  %5 = load i32*, i32** %4, align 8, !llfi_index !418
  ret i32* %5, !llfi_index !419
}

; Function Attrs: mustprogress noinline nounwind uwtable
define linkonce_odr dso_local nonnull align 8 dereferenceable(8) %"class.__gnu_cxx::__normal_iterator"* @_ZN9__gnu_cxx17__normal_iteratorIPiSt6vectorIiSaIiEEEppEv(%"class.__gnu_cxx::__normal_iterator"* nonnull align 8 dereferenceable(8) %0) #7 comdat align 2 {
  %2 = alloca %"class.__gnu_cxx::__normal_iterator"*, align 8, !llfi_index !420
  store %"class.__gnu_cxx::__normal_iterator"* %0, %"class.__gnu_cxx::__normal_iterator"** %2, align 8, !llfi_index !421
  %3 = load %"class.__gnu_cxx::__normal_iterator"*, %"class.__gnu_cxx::__normal_iterator"** %2, align 8, !llfi_index !422
  %4 = getelementptr inbounds %"class.__gnu_cxx::__normal_iterator", %"class.__gnu_cxx::__normal_iterator"* %3, i32 0, i32 0, !llfi_index !423
  %5 = load i32*, i32** %4, align 8, !llfi_index !424
  %6 = getelementptr inbounds i32, i32* %5, i32 1, !llfi_index !425
  store i32* %6, i32** %4, align 8, !llfi_index !426
  ret %"class.__gnu_cxx::__normal_iterator"* %3, !llfi_index !427
}

declare dso_local nonnull align 8 dereferenceable(8) %"class.std::basic_ostream"* @_ZStlsISt11char_traitsIcEERSt13basic_ostreamIcT_ES5_c(%"class.std::basic_ostream"* nonnull align 8 dereferenceable(8), i8 signext) #1

declare dso_local nonnull align 8 dereferenceable(8) %"class.std::basic_ostream"* @_ZSt4endlIcSt11char_traitsIcEERSt13basic_ostreamIT_T0_ES6_(%"class.std::basic_ostream"* nonnull align 8 dereferenceable(8)) #1

declare dso_local nonnull align 8 dereferenceable(8) %"class.std::basic_ostream"* @_ZNSolsEPFRSoS_E(%"class.std::basic_ostream"* nonnull align 8 dereferenceable(8), %"class.std::basic_ostream"* (%"class.std::basic_ostream"*)*) #1

; Function Attrs: mustprogress noinline nounwind uwtable
define linkonce_odr dso_local nonnull align 8 dereferenceable(8) i32** @_ZNK9__gnu_cxx17__normal_iteratorIPiSt6vectorIiSaIiEEE4baseEv(%"class.__gnu_cxx::__normal_iterator"* nonnull align 8 dereferenceable(8) %0) #7 comdat align 2 {
  %2 = alloca %"class.__gnu_cxx::__normal_iterator"*, align 8, !llfi_index !428
  store %"class.__gnu_cxx::__normal_iterator"* %0, %"class.__gnu_cxx::__normal_iterator"** %2, align 8, !llfi_index !429
  %3 = load %"class.__gnu_cxx::__normal_iterator"*, %"class.__gnu_cxx::__normal_iterator"** %2, align 8, !llfi_index !430
  %4 = getelementptr inbounds %"class.__gnu_cxx::__normal_iterator", %"class.__gnu_cxx::__normal_iterator"* %3, i32 0, i32 0, !llfi_index !431
  ret i32** %4, !llfi_index !432
}

; Function Attrs: noinline nounwind uwtable
define linkonce_odr dso_local void @_ZN9__gnu_cxx17__normal_iteratorIPiSt6vectorIiSaIiEEEC2ERKS1_(%"class.__gnu_cxx::__normal_iterator"* nonnull align 8 dereferenceable(8) %0, i32** nonnull align 8 dereferenceable(8) %1) unnamed_addr #5 comdat align 2 {
  %3 = alloca %"class.__gnu_cxx::__normal_iterator"*, align 8, !llfi_index !433
  %4 = alloca i32**, align 8, !llfi_index !434
  store %"class.__gnu_cxx::__normal_iterator"* %0, %"class.__gnu_cxx::__normal_iterator"** %3, align 8, !llfi_index !435
  store i32** %1, i32*** %4, align 8, !llfi_index !436
  %5 = load %"class.__gnu_cxx::__normal_iterator"*, %"class.__gnu_cxx::__normal_iterator"** %3, align 8, !llfi_index !437
  %6 = getelementptr inbounds %"class.__gnu_cxx::__normal_iterator", %"class.__gnu_cxx::__normal_iterator"* %5, i32 0, i32 0, !llfi_index !438
  %7 = load i32**, i32*** %4, align 8, !llfi_index !439
  %8 = load i32*, i32** %7, align 8, !llfi_index !440
  store i32* %8, i32** %6, align 8, !llfi_index !441
  ret void, !llfi_index !442
}

; Function Attrs: mustprogress noinline nounwind uwtable
define linkonce_odr dso_local void @_ZNSt16allocator_traitsISaIiEE9constructIiJRKiEEEvRS0_PT_DpOT0_(%"class.std::ios_base::Init"* nonnull align 1 dereferenceable(1) %0, i32* %1, i32* nonnull align 4 dereferenceable(4) %2) #7 comdat align 2 {
  %4 = alloca %"class.std::ios_base::Init"*, align 8, !llfi_index !443
  %5 = alloca i32*, align 8, !llfi_index !444
  %6 = alloca i32*, align 8, !llfi_index !445
  store %"class.std::ios_base::Init"* %0, %"class.std::ios_base::Init"** %4, align 8, !llfi_index !446
  store i32* %1, i32** %5, align 8, !llfi_index !447
  store i32* %2, i32** %6, align 8, !llfi_index !448
  %7 = load %"class.std::ios_base::Init"*, %"class.std::ios_base::Init"** %4, align 8, !llfi_index !449
  %8 = bitcast %"class.std::ios_base::Init"* %7 to %"class.std::ios_base::Init"*, !llfi_index !450
  %9 = load i32*, i32** %5, align 8, !llfi_index !451
  %10 = load i32*, i32** %6, align 8, !llfi_index !452
  %11 = call nonnull align 4 dereferenceable(4) i32* @_ZSt7forwardIRKiEOT_RNSt16remove_referenceIS2_E4typeE(i32* nonnull align 4 dereferenceable(4) %10) #2, !llfi_index !453
  call void @_ZN9__gnu_cxx13new_allocatorIiE9constructIiJRKiEEEvPT_DpOT0_(%"class.std::ios_base::Init"* nonnull align 1 dereferenceable(1) %8, i32* %9, i32* nonnull align 4 dereferenceable(4) %11) #2, !llfi_index !454
  ret void, !llfi_index !455
}

; Function Attrs: mustprogress noinline uwtable
define linkonce_odr dso_local void @_ZNSt6vectorIiSaIiEE17_M_realloc_insertIJRKiEEEvN9__gnu_cxx17__normal_iteratorIPiS1_EEDpOT_(%"class.std::vector.0"* nonnull align 8 dereferenceable(24) %0, i32* %1, i32* nonnull align 4 dereferenceable(4) %2) #6 comdat align 2 {
  %4 = alloca %"class.__gnu_cxx::__normal_iterator", align 8, !llfi_index !456
  %5 = alloca %"class.std::vector.0"*, align 8, !llfi_index !457
  %6 = alloca i32*, align 8, !llfi_index !458
  %7 = alloca i64, align 8, !llfi_index !459
  %8 = alloca i32*, align 8, !llfi_index !460
  %9 = alloca i32*, align 8, !llfi_index !461
  %10 = alloca i64, align 8, !llfi_index !462
  %11 = alloca %"class.__gnu_cxx::__normal_iterator", align 8, !llfi_index !463
  %12 = alloca i32*, align 8, !llfi_index !464
  %13 = alloca i32*, align 8, !llfi_index !465
  %14 = getelementptr inbounds %"class.__gnu_cxx::__normal_iterator", %"class.__gnu_cxx::__normal_iterator"* %4, i32 0, i32 0, !llfi_index !466
  store i32* %1, i32** %14, align 8, !llfi_index !467
  store %"class.std::vector.0"* %0, %"class.std::vector.0"** %5, align 8, !llfi_index !468
  store i32* %2, i32** %6, align 8, !llfi_index !469
  %15 = load %"class.std::vector.0"*, %"class.std::vector.0"** %5, align 8, !llfi_index !470
  %16 = call i64 @_ZNKSt6vectorIiSaIiEE12_M_check_lenEmPKc(%"class.std::vector.0"* nonnull align 8 dereferenceable(24) %15, i64 1, i8* getelementptr inbounds ([26 x i8], [26 x i8]* @.str.2, i64 0, i64 0)), !llfi_index !471
  store i64 %16, i64* %7, align 8, !llfi_index !472
  %17 = bitcast %"class.std::vector.0"* %15 to %"struct.std::_Vector_base.1"*, !llfi_index !473
  %18 = getelementptr inbounds %"struct.std::_Vector_base.1", %"struct.std::_Vector_base.1"* %17, i32 0, i32 0, !llfi_index !474
  %19 = bitcast %"struct.std::_Vector_base<int, std::allocator<int>>::_Vector_impl"* %18 to %"struct.std::_Vector_base<int, std::allocator<int>>::_Vector_impl_data"*, !llfi_index !475
  %20 = getelementptr inbounds %"struct.std::_Vector_base<int, std::allocator<int>>::_Vector_impl_data", %"struct.std::_Vector_base<int, std::allocator<int>>::_Vector_impl_data"* %19, i32 0, i32 0, !llfi_index !476
  %21 = load i32*, i32** %20, align 8, !llfi_index !477
  store i32* %21, i32** %8, align 8, !llfi_index !478
  %22 = bitcast %"class.std::vector.0"* %15 to %"struct.std::_Vector_base.1"*, !llfi_index !479
  %23 = getelementptr inbounds %"struct.std::_Vector_base.1", %"struct.std::_Vector_base.1"* %22, i32 0, i32 0, !llfi_index !480
  %24 = bitcast %"struct.std::_Vector_base<int, std::allocator<int>>::_Vector_impl"* %23 to %"struct.std::_Vector_base<int, std::allocator<int>>::_Vector_impl_data"*, !llfi_index !481
  %25 = getelementptr inbounds %"struct.std::_Vector_base<int, std::allocator<int>>::_Vector_impl_data", %"struct.std::_Vector_base<int, std::allocator<int>>::_Vector_impl_data"* %24, i32 0, i32 1, !llfi_index !482
  %26 = load i32*, i32** %25, align 8, !llfi_index !483
  store i32* %26, i32** %9, align 8, !llfi_index !484
  %27 = call i32* @_ZNSt6vectorIiSaIiEE5beginEv(%"class.std::vector.0"* nonnull align 8 dereferenceable(24) %15) #2, !llfi_index !485
  %28 = getelementptr inbounds %"class.__gnu_cxx::__normal_iterator", %"class.__gnu_cxx::__normal_iterator"* %11, i32 0, i32 0, !llfi_index !486
  store i32* %27, i32** %28, align 8, !llfi_index !487
  %29 = call i64 @_ZN9__gnu_cxxmiIPiSt6vectorIiSaIiEEEENS_17__normal_iteratorIT_T0_E15difference_typeERKS8_SB_(%"class.__gnu_cxx::__normal_iterator"* nonnull align 8 dereferenceable(8) %4, %"class.__gnu_cxx::__normal_iterator"* nonnull align 8 dereferenceable(8) %11) #2, !llfi_index !488
  store i64 %29, i64* %10, align 8, !llfi_index !489
  %30 = bitcast %"class.std::vector.0"* %15 to %"struct.std::_Vector_base.1"*, !llfi_index !490
  %31 = load i64, i64* %7, align 8, !llfi_index !491
  %32 = call i32* @_ZNSt12_Vector_baseIiSaIiEE11_M_allocateEm(%"struct.std::_Vector_base.1"* nonnull align 8 dereferenceable(24) %30, i64 %31), !llfi_index !492
  store i32* %32, i32** %12, align 8, !llfi_index !493
  %33 = load i32*, i32** %12, align 8, !llfi_index !494
  store i32* %33, i32** %13, align 8, !llfi_index !495
  %34 = bitcast %"class.std::vector.0"* %15 to %"struct.std::_Vector_base.1"*, !llfi_index !496
  %35 = getelementptr inbounds %"struct.std::_Vector_base.1", %"struct.std::_Vector_base.1"* %34, i32 0, i32 0, !llfi_index !497
  %36 = bitcast %"struct.std::_Vector_base<int, std::allocator<int>>::_Vector_impl"* %35 to %"class.std::ios_base::Init"*, !llfi_index !498
  %37 = load i32*, i32** %12, align 8, !llfi_index !499
  %38 = load i64, i64* %10, align 8, !llfi_index !500
  %39 = getelementptr inbounds i32, i32* %37, i64 %38, !llfi_index !501
  %40 = load i32*, i32** %6, align 8, !llfi_index !502
  %41 = call nonnull align 4 dereferenceable(4) i32* @_ZSt7forwardIRKiEOT_RNSt16remove_referenceIS2_E4typeE(i32* nonnull align 4 dereferenceable(4) %40) #2, !llfi_index !503
  call void @_ZNSt16allocator_traitsISaIiEE9constructIiJRKiEEEvRS0_PT_DpOT0_(%"class.std::ios_base::Init"* nonnull align 1 dereferenceable(1) %36, i32* %39, i32* nonnull align 4 dereferenceable(4) %41) #2, !llfi_index !504
  store i32* null, i32** %13, align 8, !llfi_index !505
  %42 = load i32*, i32** %8, align 8, !llfi_index !506
  %43 = call nonnull align 8 dereferenceable(8) i32** @_ZNK9__gnu_cxx17__normal_iteratorIPiSt6vectorIiSaIiEEE4baseEv(%"class.__gnu_cxx::__normal_iterator"* nonnull align 8 dereferenceable(8) %4) #2, !llfi_index !507
  %44 = load i32*, i32** %43, align 8, !llfi_index !508
  %45 = load i32*, i32** %12, align 8, !llfi_index !509
  %46 = bitcast %"class.std::vector.0"* %15 to %"struct.std::_Vector_base.1"*, !llfi_index !510
  %47 = call nonnull align 1 dereferenceable(1) %"class.std::ios_base::Init"* @_ZNSt12_Vector_baseIiSaIiEE19_M_get_Tp_allocatorEv(%"struct.std::_Vector_base.1"* nonnull align 8 dereferenceable(24) %46) #2, !llfi_index !511
  %48 = call i32* @_ZNSt6vectorIiSaIiEE11_S_relocateEPiS2_S2_RS0_(i32* %42, i32* %44, i32* %45, %"class.std::ios_base::Init"* nonnull align 1 dereferenceable(1) %47) #2, !llfi_index !512
  store i32* %48, i32** %13, align 8, !llfi_index !513
  %49 = load i32*, i32** %13, align 8, !llfi_index !514
  %50 = getelementptr inbounds i32, i32* %49, i32 1, !llfi_index !515
  store i32* %50, i32** %13, align 8, !llfi_index !516
  %51 = call nonnull align 8 dereferenceable(8) i32** @_ZNK9__gnu_cxx17__normal_iteratorIPiSt6vectorIiSaIiEEE4baseEv(%"class.__gnu_cxx::__normal_iterator"* nonnull align 8 dereferenceable(8) %4) #2, !llfi_index !517
  %52 = load i32*, i32** %51, align 8, !llfi_index !518
  %53 = load i32*, i32** %9, align 8, !llfi_index !519
  %54 = load i32*, i32** %13, align 8, !llfi_index !520
  %55 = bitcast %"class.std::vector.0"* %15 to %"struct.std::_Vector_base.1"*, !llfi_index !521
  %56 = call nonnull align 1 dereferenceable(1) %"class.std::ios_base::Init"* @_ZNSt12_Vector_baseIiSaIiEE19_M_get_Tp_allocatorEv(%"struct.std::_Vector_base.1"* nonnull align 8 dereferenceable(24) %55) #2, !llfi_index !522
  %57 = call i32* @_ZNSt6vectorIiSaIiEE11_S_relocateEPiS2_S2_RS0_(i32* %52, i32* %53, i32* %54, %"class.std::ios_base::Init"* nonnull align 1 dereferenceable(1) %56) #2, !llfi_index !523
  store i32* %57, i32** %13, align 8, !llfi_index !524
  %58 = bitcast %"class.std::vector.0"* %15 to %"struct.std::_Vector_base.1"*, !llfi_index !525
  %59 = load i32*, i32** %8, align 8, !llfi_index !526
  %60 = bitcast %"class.std::vector.0"* %15 to %"struct.std::_Vector_base.1"*, !llfi_index !527
  %61 = getelementptr inbounds %"struct.std::_Vector_base.1", %"struct.std::_Vector_base.1"* %60, i32 0, i32 0, !llfi_index !528
  %62 = bitcast %"struct.std::_Vector_base<int, std::allocator<int>>::_Vector_impl"* %61 to %"struct.std::_Vector_base<int, std::allocator<int>>::_Vector_impl_data"*, !llfi_index !529
  %63 = getelementptr inbounds %"struct.std::_Vector_base<int, std::allocator<int>>::_Vector_impl_data", %"struct.std::_Vector_base<int, std::allocator<int>>::_Vector_impl_data"* %62, i32 0, i32 2, !llfi_index !530
  %64 = load i32*, i32** %63, align 8, !llfi_index !531
  %65 = load i32*, i32** %8, align 8, !llfi_index !532
  %66 = ptrtoint i32* %64 to i64, !llfi_index !533
  %67 = ptrtoint i32* %65 to i64, !llfi_index !534
  %68 = sub i64 %66, %67, !llfi_index !535
  %69 = sdiv exact i64 %68, 4, !llfi_index !536
  call void @_ZNSt12_Vector_baseIiSaIiEE13_M_deallocateEPim(%"struct.std::_Vector_base.1"* nonnull align 8 dereferenceable(24) %58, i32* %59, i64 %69), !llfi_index !537
  %70 = load i32*, i32** %12, align 8, !llfi_index !538
  %71 = bitcast %"class.std::vector.0"* %15 to %"struct.std::_Vector_base.1"*, !llfi_index !539
  %72 = getelementptr inbounds %"struct.std::_Vector_base.1", %"struct.std::_Vector_base.1"* %71, i32 0, i32 0, !llfi_index !540
  %73 = bitcast %"struct.std::_Vector_base<int, std::allocator<int>>::_Vector_impl"* %72 to %"struct.std::_Vector_base<int, std::allocator<int>>::_Vector_impl_data"*, !llfi_index !541
  %74 = getelementptr inbounds %"struct.std::_Vector_base<int, std::allocator<int>>::_Vector_impl_data", %"struct.std::_Vector_base<int, std::allocator<int>>::_Vector_impl_data"* %73, i32 0, i32 0, !llfi_index !542
  store i32* %70, i32** %74, align 8, !llfi_index !543
  %75 = load i32*, i32** %13, align 8, !llfi_index !544
  %76 = bitcast %"class.std::vector.0"* %15 to %"struct.std::_Vector_base.1"*, !llfi_index !545
  %77 = getelementptr inbounds %"struct.std::_Vector_base.1", %"struct.std::_Vector_base.1"* %76, i32 0, i32 0, !llfi_index !546
  %78 = bitcast %"struct.std::_Vector_base<int, std::allocator<int>>::_Vector_impl"* %77 to %"struct.std::_Vector_base<int, std::allocator<int>>::_Vector_impl_data"*, !llfi_index !547
  %79 = getelementptr inbounds %"struct.std::_Vector_base<int, std::allocator<int>>::_Vector_impl_data", %"struct.std::_Vector_base<int, std::allocator<int>>::_Vector_impl_data"* %78, i32 0, i32 1, !llfi_index !548
  store i32* %75, i32** %79, align 8, !llfi_index !549
  %80 = load i32*, i32** %12, align 8, !llfi_index !550
  %81 = load i64, i64* %7, align 8, !llfi_index !551
  %82 = getelementptr inbounds i32, i32* %80, i64 %81, !llfi_index !552
  %83 = bitcast %"class.std::vector.0"* %15 to %"struct.std::_Vector_base.1"*, !llfi_index !553
  %84 = getelementptr inbounds %"struct.std::_Vector_base.1", %"struct.std::_Vector_base.1"* %83, i32 0, i32 0, !llfi_index !554
  %85 = bitcast %"struct.std::_Vector_base<int, std::allocator<int>>::_Vector_impl"* %84 to %"struct.std::_Vector_base<int, std::allocator<int>>::_Vector_impl_data"*, !llfi_index !555
  %86 = getelementptr inbounds %"struct.std::_Vector_base<int, std::allocator<int>>::_Vector_impl_data", %"struct.std::_Vector_base<int, std::allocator<int>>::_Vector_impl_data"* %85, i32 0, i32 2, !llfi_index !556
  store i32* %82, i32** %86, align 8, !llfi_index !557
  ret void, !llfi_index !558
}

; Function Attrs: mustprogress noinline uwtable
define linkonce_odr dso_local i64 @_ZNKSt6vectorIiSaIiEE12_M_check_lenEmPKc(%"class.std::vector.0"* nonnull align 8 dereferenceable(24) %0, i64 %1, i8* %2) #6 comdat align 2 {
  %4 = alloca %"class.std::vector.0"*, align 8, !llfi_index !559
  %5 = alloca i64, align 8, !llfi_index !560
  %6 = alloca i8*, align 8, !llfi_index !561
  %7 = alloca i64, align 8, !llfi_index !562
  %8 = alloca i64, align 8, !llfi_index !563
  store %"class.std::vector.0"* %0, %"class.std::vector.0"** %4, align 8, !llfi_index !564
  store i64 %1, i64* %5, align 8, !llfi_index !565
  store i8* %2, i8** %6, align 8, !llfi_index !566
  %9 = load %"class.std::vector.0"*, %"class.std::vector.0"** %4, align 8, !llfi_index !567
  %10 = call i64 @_ZNKSt6vectorIiSaIiEE8max_sizeEv(%"class.std::vector.0"* nonnull align 8 dereferenceable(24) %9) #2, !llfi_index !568
  %11 = call i64 @_ZNKSt6vectorIiSaIiEE4sizeEv(%"class.std::vector.0"* nonnull align 8 dereferenceable(24) %9) #2, !llfi_index !569
  %12 = sub i64 %10, %11, !llfi_index !570
  %13 = load i64, i64* %5, align 8, !llfi_index !571
  %14 = icmp ult i64 %12, %13, !llfi_index !572
  br i1 %14, label %15, label %17, !llfi_index !573

15:                                               ; preds = %3
  %16 = load i8*, i8** %6, align 8, !llfi_index !574
  call void @_ZSt20__throw_length_errorPKc(i8* %16) #14, !llfi_index !575
  unreachable, !llfi_index !576

17:                                               ; preds = %3
  %18 = call i64 @_ZNKSt6vectorIiSaIiEE4sizeEv(%"class.std::vector.0"* nonnull align 8 dereferenceable(24) %9) #2, !llfi_index !577
  %19 = call i64 @_ZNKSt6vectorIiSaIiEE4sizeEv(%"class.std::vector.0"* nonnull align 8 dereferenceable(24) %9) #2, !llfi_index !578
  store i64 %19, i64* %8, align 8, !llfi_index !579
  %20 = call nonnull align 8 dereferenceable(8) i64* @_ZSt3maxImERKT_S2_S2_(i64* nonnull align 8 dereferenceable(8) %8, i64* nonnull align 8 dereferenceable(8) %5), !llfi_index !580
  %21 = load i64, i64* %20, align 8, !llfi_index !581
  %22 = add i64 %18, %21, !llfi_index !582
  store i64 %22, i64* %7, align 8, !llfi_index !583
  %23 = load i64, i64* %7, align 8, !llfi_index !584
  %24 = call i64 @_ZNKSt6vectorIiSaIiEE4sizeEv(%"class.std::vector.0"* nonnull align 8 dereferenceable(24) %9) #2, !llfi_index !585
  %25 = icmp ult i64 %23, %24, !llfi_index !586
  br i1 %25, label %30, label %26, !llfi_index !587

26:                                               ; preds = %17
  %27 = load i64, i64* %7, align 8, !llfi_index !588
  %28 = call i64 @_ZNKSt6vectorIiSaIiEE8max_sizeEv(%"class.std::vector.0"* nonnull align 8 dereferenceable(24) %9) #2, !llfi_index !589
  %29 = icmp ugt i64 %27, %28, !llfi_index !590
  br i1 %29, label %30, label %32, !llfi_index !591

30:                                               ; preds = %26, %17
  %31 = call i64 @_ZNKSt6vectorIiSaIiEE8max_sizeEv(%"class.std::vector.0"* nonnull align 8 dereferenceable(24) %9) #2, !llfi_index !592
  br label %34, !llfi_index !593

32:                                               ; preds = %26
  %33 = load i64, i64* %7, align 8, !llfi_index !594
  br label %34, !llfi_index !595

34:                                               ; preds = %32, %30
  %35 = phi i64 [ %31, %30 ], [ %33, %32 ], !llfi_index !596
  ret i64 %35, !llfi_index !597
}

; Function Attrs: mustprogress noinline nounwind uwtable
define linkonce_odr dso_local i64 @_ZN9__gnu_cxxmiIPiSt6vectorIiSaIiEEEENS_17__normal_iteratorIT_T0_E15difference_typeERKS8_SB_(%"class.__gnu_cxx::__normal_iterator"* nonnull align 8 dereferenceable(8) %0, %"class.__gnu_cxx::__normal_iterator"* nonnull align 8 dereferenceable(8) %1) #7 comdat {
  %3 = alloca %"class.__gnu_cxx::__normal_iterator"*, align 8, !llfi_index !598
  %4 = alloca %"class.__gnu_cxx::__normal_iterator"*, align 8, !llfi_index !599
  store %"class.__gnu_cxx::__normal_iterator"* %0, %"class.__gnu_cxx::__normal_iterator"** %3, align 8, !llfi_index !600
  store %"class.__gnu_cxx::__normal_iterator"* %1, %"class.__gnu_cxx::__normal_iterator"** %4, align 8, !llfi_index !601
  %5 = load %"class.__gnu_cxx::__normal_iterator"*, %"class.__gnu_cxx::__normal_iterator"** %3, align 8, !llfi_index !602
  %6 = call nonnull align 8 dereferenceable(8) i32** @_ZNK9__gnu_cxx17__normal_iteratorIPiSt6vectorIiSaIiEEE4baseEv(%"class.__gnu_cxx::__normal_iterator"* nonnull align 8 dereferenceable(8) %5) #2, !llfi_index !603
  %7 = load i32*, i32** %6, align 8, !llfi_index !604
  %8 = load %"class.__gnu_cxx::__normal_iterator"*, %"class.__gnu_cxx::__normal_iterator"** %4, align 8, !llfi_index !605
  %9 = call nonnull align 8 dereferenceable(8) i32** @_ZNK9__gnu_cxx17__normal_iteratorIPiSt6vectorIiSaIiEEE4baseEv(%"class.__gnu_cxx::__normal_iterator"* nonnull align 8 dereferenceable(8) %8) #2, !llfi_index !606
  %10 = load i32*, i32** %9, align 8, !llfi_index !607
  %11 = ptrtoint i32* %7 to i64, !llfi_index !608
  %12 = ptrtoint i32* %10 to i64, !llfi_index !609
  %13 = sub i64 %11, %12, !llfi_index !610
  %14 = sdiv exact i64 %13, 4, !llfi_index !611
  ret i64 %14, !llfi_index !612
}

; Function Attrs: mustprogress noinline uwtable
define linkonce_odr dso_local i32* @_ZNSt12_Vector_baseIiSaIiEE11_M_allocateEm(%"struct.std::_Vector_base.1"* nonnull align 8 dereferenceable(24) %0, i64 %1) #6 comdat align 2 {
  %3 = alloca %"struct.std::_Vector_base.1"*, align 8, !llfi_index !613
  %4 = alloca i64, align 8, !llfi_index !614
  store %"struct.std::_Vector_base.1"* %0, %"struct.std::_Vector_base.1"** %3, align 8, !llfi_index !615
  store i64 %1, i64* %4, align 8, !llfi_index !616
  %5 = load %"struct.std::_Vector_base.1"*, %"struct.std::_Vector_base.1"** %3, align 8, !llfi_index !617
  %6 = load i64, i64* %4, align 8, !llfi_index !618
  %7 = icmp ne i64 %6, 0, !llfi_index !619
  br i1 %7, label %8, label %13, !llfi_index !620

8:                                                ; preds = %2
  %9 = getelementptr inbounds %"struct.std::_Vector_base.1", %"struct.std::_Vector_base.1"* %5, i32 0, i32 0, !llfi_index !621
  %10 = bitcast %"struct.std::_Vector_base<int, std::allocator<int>>::_Vector_impl"* %9 to %"class.std::ios_base::Init"*, !llfi_index !622
  %11 = load i64, i64* %4, align 8, !llfi_index !623
  %12 = call i32* @_ZNSt16allocator_traitsISaIiEE8allocateERS0_m(%"class.std::ios_base::Init"* nonnull align 1 dereferenceable(1) %10, i64 %11), !llfi_index !624
  br label %14, !llfi_index !625

13:                                               ; preds = %2
  br label %14, !llfi_index !626

14:                                               ; preds = %13, %8
  %15 = phi i32* [ %12, %8 ], [ null, %13 ], !llfi_index !627
  ret i32* %15, !llfi_index !628
}

; Function Attrs: mustprogress noinline nounwind uwtable
define linkonce_odr dso_local nonnull align 4 dereferenceable(4) i32* @_ZSt7forwardIRKiEOT_RNSt16remove_referenceIS2_E4typeE(i32* nonnull align 4 dereferenceable(4) %0) #7 comdat {
  %2 = alloca i32*, align 8, !llfi_index !629
  store i32* %0, i32** %2, align 8, !llfi_index !630
  %3 = load i32*, i32** %2, align 8, !llfi_index !631
  ret i32* %3, !llfi_index !632
}

; Function Attrs: mustprogress noinline nounwind uwtable
define linkonce_odr dso_local nonnull align 1 dereferenceable(1) %"class.std::ios_base::Init"* @_ZNSt12_Vector_baseIiSaIiEE19_M_get_Tp_allocatorEv(%"struct.std::_Vector_base.1"* nonnull align 8 dereferenceable(24) %0) #7 comdat align 2 {
  %2 = alloca %"struct.std::_Vector_base.1"*, align 8, !llfi_index !633
  store %"struct.std::_Vector_base.1"* %0, %"struct.std::_Vector_base.1"** %2, align 8, !llfi_index !634
  %3 = load %"struct.std::_Vector_base.1"*, %"struct.std::_Vector_base.1"** %2, align 8, !llfi_index !635
  %4 = getelementptr inbounds %"struct.std::_Vector_base.1", %"struct.std::_Vector_base.1"* %3, i32 0, i32 0, !llfi_index !636
  %5 = bitcast %"struct.std::_Vector_base<int, std::allocator<int>>::_Vector_impl"* %4 to %"class.std::ios_base::Init"*, !llfi_index !637
  ret %"class.std::ios_base::Init"* %5, !llfi_index !638
}

; Function Attrs: mustprogress noinline nounwind uwtable
define linkonce_odr dso_local i32* @_ZNSt6vectorIiSaIiEE11_S_relocateEPiS2_S2_RS0_(i32* %0, i32* %1, i32* %2, %"class.std::ios_base::Init"* nonnull align 1 dereferenceable(1) %3) #7 comdat align 2 {
  %5 = alloca i32*, align 8, !llfi_index !639
  %6 = alloca i32*, align 8, !llfi_index !640
  %7 = alloca i32*, align 8, !llfi_index !641
  %8 = alloca %"class.std::ios_base::Init"*, align 8, !llfi_index !642
  %9 = alloca %"class.std::ios_base::Init", align 1, !llfi_index !643
  store i32* %0, i32** %5, align 8, !llfi_index !644
  store i32* %1, i32** %6, align 8, !llfi_index !645
  store i32* %2, i32** %7, align 8, !llfi_index !646
  store %"class.std::ios_base::Init"* %3, %"class.std::ios_base::Init"** %8, align 8, !llfi_index !647
  %10 = load i32*, i32** %5, align 8, !llfi_index !648
  %11 = load i32*, i32** %6, align 8, !llfi_index !649
  %12 = load i32*, i32** %7, align 8, !llfi_index !650
  %13 = load %"class.std::ios_base::Init"*, %"class.std::ios_base::Init"** %8, align 8, !llfi_index !651
  %14 = call i32* @_ZNSt6vectorIiSaIiEE14_S_do_relocateEPiS2_S2_RS0_St17integral_constantIbLb1EE(i32* %10, i32* %11, i32* %12, %"class.std::ios_base::Init"* nonnull align 1 dereferenceable(1) %13) #2, !llfi_index !652
  ret i32* %14, !llfi_index !653
}

; Function Attrs: mustprogress noinline uwtable
define linkonce_odr dso_local void @_ZNSt12_Vector_baseIiSaIiEE13_M_deallocateEPim(%"struct.std::_Vector_base.1"* nonnull align 8 dereferenceable(24) %0, i32* %1, i64 %2) #6 comdat align 2 {
  %4 = alloca %"struct.std::_Vector_base.1"*, align 8, !llfi_index !654
  %5 = alloca i32*, align 8, !llfi_index !655
  %6 = alloca i64, align 8, !llfi_index !656
  store %"struct.std::_Vector_base.1"* %0, %"struct.std::_Vector_base.1"** %4, align 8, !llfi_index !657
  store i32* %1, i32** %5, align 8, !llfi_index !658
  store i64 %2, i64* %6, align 8, !llfi_index !659
  %7 = load %"struct.std::_Vector_base.1"*, %"struct.std::_Vector_base.1"** %4, align 8, !llfi_index !660
  %8 = load i32*, i32** %5, align 8, !llfi_index !661
  %9 = icmp ne i32* %8, null, !llfi_index !662
  br i1 %9, label %10, label %15, !llfi_index !663

10:                                               ; preds = %3
  %11 = getelementptr inbounds %"struct.std::_Vector_base.1", %"struct.std::_Vector_base.1"* %7, i32 0, i32 0, !llfi_index !664
  %12 = bitcast %"struct.std::_Vector_base<int, std::allocator<int>>::_Vector_impl"* %11 to %"class.std::ios_base::Init"*, !llfi_index !665
  %13 = load i32*, i32** %5, align 8, !llfi_index !666
  %14 = load i64, i64* %6, align 8, !llfi_index !667
  call void @_ZNSt16allocator_traitsISaIiEE10deallocateERS0_Pim(%"class.std::ios_base::Init"* nonnull align 1 dereferenceable(1) %12, i32* %13, i64 %14), !llfi_index !668
  br label %15, !llfi_index !669

15:                                               ; preds = %10, %3
  ret void, !llfi_index !670
}

; Function Attrs: mustprogress noinline uwtable
define linkonce_odr dso_local void @_ZNSt16allocator_traitsISaIiEE10deallocateERS0_Pim(%"class.std::ios_base::Init"* nonnull align 1 dereferenceable(1) %0, i32* %1, i64 %2) #6 comdat align 2 {
  %4 = alloca %"class.std::ios_base::Init"*, align 8, !llfi_index !671
  %5 = alloca i32*, align 8, !llfi_index !672
  %6 = alloca i64, align 8, !llfi_index !673
  store %"class.std::ios_base::Init"* %0, %"class.std::ios_base::Init"** %4, align 8, !llfi_index !674
  store i32* %1, i32** %5, align 8, !llfi_index !675
  store i64 %2, i64* %6, align 8, !llfi_index !676
  %7 = load %"class.std::ios_base::Init"*, %"class.std::ios_base::Init"** %4, align 8, !llfi_index !677
  %8 = bitcast %"class.std::ios_base::Init"* %7 to %"class.std::ios_base::Init"*, !llfi_index !678
  %9 = load i32*, i32** %5, align 8, !llfi_index !679
  %10 = load i64, i64* %6, align 8, !llfi_index !680
  call void @_ZN9__gnu_cxx13new_allocatorIiE10deallocateEPim(%"class.std::ios_base::Init"* nonnull align 1 dereferenceable(1) %8, i32* %9, i64 %10), !llfi_index !681
  ret void, !llfi_index !682
}

; Function Attrs: mustprogress noinline nounwind uwtable
define linkonce_odr dso_local void @_ZN9__gnu_cxx13new_allocatorIiE10deallocateEPim(%"class.std::ios_base::Init"* nonnull align 1 dereferenceable(1) %0, i32* %1, i64 %2) #7 comdat align 2 {
  %4 = alloca %"class.std::ios_base::Init"*, align 8, !llfi_index !683
  %5 = alloca i32*, align 8, !llfi_index !684
  %6 = alloca i64, align 8, !llfi_index !685
  store %"class.std::ios_base::Init"* %0, %"class.std::ios_base::Init"** %4, align 8, !llfi_index !686
  store i32* %1, i32** %5, align 8, !llfi_index !687
  store i64 %2, i64* %6, align 8, !llfi_index !688
  %7 = load %"class.std::ios_base::Init"*, %"class.std::ios_base::Init"** %4, align 8, !llfi_index !689
  %8 = load i32*, i32** %5, align 8, !llfi_index !690
  %9 = bitcast i32* %8 to i8*, !llfi_index !691
  call void @_ZdlPv(i8* %9) #2, !llfi_index !692
  ret void, !llfi_index !693
}

; Function Attrs: nobuiltin nounwind
declare dso_local void @_ZdlPv(i8*) #8

; Function Attrs: mustprogress noinline nounwind uwtable
define linkonce_odr dso_local i32* @_ZNSt6vectorIiSaIiEE14_S_do_relocateEPiS2_S2_RS0_St17integral_constantIbLb1EE(i32* %0, i32* %1, i32* %2, %"class.std::ios_base::Init"* nonnull align 1 dereferenceable(1) %3) #7 comdat align 2 {
  %5 = alloca %"class.std::ios_base::Init", align 1, !llfi_index !694
  %6 = alloca i32*, align 8, !llfi_index !695
  %7 = alloca i32*, align 8, !llfi_index !696
  %8 = alloca i32*, align 8, !llfi_index !697
  %9 = alloca %"class.std::ios_base::Init"*, align 8, !llfi_index !698
  store i32* %0, i32** %6, align 8, !llfi_index !699
  store i32* %1, i32** %7, align 8, !llfi_index !700
  store i32* %2, i32** %8, align 8, !llfi_index !701
  store %"class.std::ios_base::Init"* %3, %"class.std::ios_base::Init"** %9, align 8, !llfi_index !702
  %10 = load i32*, i32** %6, align 8, !llfi_index !703
  %11 = load i32*, i32** %7, align 8, !llfi_index !704
  %12 = load i32*, i32** %8, align 8, !llfi_index !705
  %13 = load %"class.std::ios_base::Init"*, %"class.std::ios_base::Init"** %9, align 8, !llfi_index !706
  %14 = call i32* @_ZSt12__relocate_aIPiS0_SaIiEET0_T_S3_S2_RT1_(i32* %10, i32* %11, i32* %12, %"class.std::ios_base::Init"* nonnull align 1 dereferenceable(1) %13) #2, !llfi_index !707
  ret i32* %14, !llfi_index !708
}

; Function Attrs: mustprogress noinline nounwind uwtable
define linkonce_odr dso_local i32* @_ZSt12__relocate_aIPiS0_SaIiEET0_T_S3_S2_RT1_(i32* %0, i32* %1, i32* %2, %"class.std::ios_base::Init"* nonnull align 1 dereferenceable(1) %3) #7 comdat {
  %5 = alloca i32*, align 8, !llfi_index !709
  %6 = alloca i32*, align 8, !llfi_index !710
  %7 = alloca i32*, align 8, !llfi_index !711
  %8 = alloca %"class.std::ios_base::Init"*, align 8, !llfi_index !712
  store i32* %0, i32** %5, align 8, !llfi_index !713
  store i32* %1, i32** %6, align 8, !llfi_index !714
  store i32* %2, i32** %7, align 8, !llfi_index !715
  store %"class.std::ios_base::Init"* %3, %"class.std::ios_base::Init"** %8, align 8, !llfi_index !716
  %9 = load i32*, i32** %5, align 8, !llfi_index !717
  %10 = call i32* @_ZSt12__niter_baseIPiET_S1_(i32* %9) #2, !llfi_index !718
  %11 = load i32*, i32** %6, align 8, !llfi_index !719
  %12 = call i32* @_ZSt12__niter_baseIPiET_S1_(i32* %11) #2, !llfi_index !720
  %13 = load i32*, i32** %7, align 8, !llfi_index !721
  %14 = call i32* @_ZSt12__niter_baseIPiET_S1_(i32* %13) #2, !llfi_index !722
  %15 = load %"class.std::ios_base::Init"*, %"class.std::ios_base::Init"** %8, align 8, !llfi_index !723
  %16 = call i32* @_ZSt14__relocate_a_1IiiENSt9enable_ifIXsr3std24__is_bitwise_relocatableIT_EE5valueEPS1_E4typeES2_S2_S2_RSaIT0_E(i32* %10, i32* %12, i32* %14, %"class.std::ios_base::Init"* nonnull align 1 dereferenceable(1) %15) #2, !llfi_index !724
  ret i32* %16, !llfi_index !725
}

; Function Attrs: mustprogress noinline nounwind uwtable
define linkonce_odr dso_local i32* @_ZSt12__niter_baseIPiET_S1_(i32* %0) #7 comdat {
  %2 = alloca i32*, align 8, !llfi_index !726
  store i32* %0, i32** %2, align 8, !llfi_index !727
  %3 = load i32*, i32** %2, align 8, !llfi_index !728
  ret i32* %3, !llfi_index !729
}

; Function Attrs: mustprogress noinline nounwind uwtable
define linkonce_odr dso_local i32* @_ZSt14__relocate_a_1IiiENSt9enable_ifIXsr3std24__is_bitwise_relocatableIT_EE5valueEPS1_E4typeES2_S2_S2_RSaIT0_E(i32* %0, i32* %1, i32* %2, %"class.std::ios_base::Init"* nonnull align 1 dereferenceable(1) %3) #7 comdat {
  %5 = alloca i32*, align 8, !llfi_index !730
  %6 = alloca i32*, align 8, !llfi_index !731
  %7 = alloca i32*, align 8, !llfi_index !732
  %8 = alloca %"class.std::ios_base::Init"*, align 8, !llfi_index !733
  %9 = alloca i64, align 8, !llfi_index !734
  store i32* %0, i32** %5, align 8, !llfi_index !735
  store i32* %1, i32** %6, align 8, !llfi_index !736
  store i32* %2, i32** %7, align 8, !llfi_index !737
  store %"class.std::ios_base::Init"* %3, %"class.std::ios_base::Init"** %8, align 8, !llfi_index !738
  %10 = load i32*, i32** %6, align 8, !llfi_index !739
  %11 = load i32*, i32** %5, align 8, !llfi_index !740
  %12 = ptrtoint i32* %10 to i64, !llfi_index !741
  %13 = ptrtoint i32* %11 to i64, !llfi_index !742
  %14 = sub i64 %12, %13, !llfi_index !743
  %15 = sdiv exact i64 %14, 4, !llfi_index !744
  store i64 %15, i64* %9, align 8, !llfi_index !745
  %16 = load i64, i64* %9, align 8, !llfi_index !746
  %17 = icmp sgt i64 %16, 0, !llfi_index !747
  br i1 %17, label %18, label %25, !llfi_index !748

18:                                               ; preds = %4
  %19 = load i32*, i32** %7, align 8, !llfi_index !749
  %20 = bitcast i32* %19 to i8*, !llfi_index !750
  %21 = load i32*, i32** %5, align 8, !llfi_index !751
  %22 = bitcast i32* %21 to i8*, !llfi_index !752
  %23 = load i64, i64* %9, align 8, !llfi_index !753
  %24 = mul i64 %23, 4, !llfi_index !754
  call void @llvm.memmove.p0i8.p0i8.i64(i8* align 4 %20, i8* align 4 %22, i64 %24, i1 false), !llfi_index !755
  br label %25, !llfi_index !756

25:                                               ; preds = %18, %4
  %26 = load i32*, i32** %7, align 8, !llfi_index !757
  %27 = load i64, i64* %9, align 8, !llfi_index !758
  %28 = getelementptr inbounds i32, i32* %26, i64 %27, !llfi_index !759
  ret i32* %28, !llfi_index !760
}

; Function Attrs: argmemonly nofree nounwind willreturn
declare void @llvm.memmove.p0i8.p0i8.i64(i8* nocapture writeonly, i8* nocapture readonly, i64, i1 immarg) #9

; Function Attrs: mustprogress noinline uwtable
define linkonce_odr dso_local i32* @_ZNSt16allocator_traitsISaIiEE8allocateERS0_m(%"class.std::ios_base::Init"* nonnull align 1 dereferenceable(1) %0, i64 %1) #6 comdat align 2 {
  %3 = alloca %"class.std::ios_base::Init"*, align 8, !llfi_index !761
  %4 = alloca i64, align 8, !llfi_index !762
  store %"class.std::ios_base::Init"* %0, %"class.std::ios_base::Init"** %3, align 8, !llfi_index !763
  store i64 %1, i64* %4, align 8, !llfi_index !764
  %5 = load %"class.std::ios_base::Init"*, %"class.std::ios_base::Init"** %3, align 8, !llfi_index !765
  %6 = bitcast %"class.std::ios_base::Init"* %5 to %"class.std::ios_base::Init"*, !llfi_index !766
  %7 = load i64, i64* %4, align 8, !llfi_index !767
  %8 = call i32* @_ZN9__gnu_cxx13new_allocatorIiE8allocateEmPKv(%"class.std::ios_base::Init"* nonnull align 1 dereferenceable(1) %6, i64 %7, i8* null), !llfi_index !768
  ret i32* %8, !llfi_index !769
}

; Function Attrs: mustprogress noinline uwtable
define linkonce_odr dso_local i32* @_ZN9__gnu_cxx13new_allocatorIiE8allocateEmPKv(%"class.std::ios_base::Init"* nonnull align 1 dereferenceable(1) %0, i64 %1, i8* %2) #6 comdat align 2 {
  %4 = alloca %"class.std::ios_base::Init"*, align 8, !llfi_index !770
  %5 = alloca i64, align 8, !llfi_index !771
  %6 = alloca i8*, align 8, !llfi_index !772
  store %"class.std::ios_base::Init"* %0, %"class.std::ios_base::Init"** %4, align 8, !llfi_index !773
  store i64 %1, i64* %5, align 8, !llfi_index !774
  store i8* %2, i8** %6, align 8, !llfi_index !775
  %7 = load %"class.std::ios_base::Init"*, %"class.std::ios_base::Init"** %4, align 8, !llfi_index !776
  %8 = load i64, i64* %5, align 8, !llfi_index !777
  %9 = call i64 @_ZNK9__gnu_cxx13new_allocatorIiE8max_sizeEv(%"class.std::ios_base::Init"* nonnull align 1 dereferenceable(1) %7) #2, !llfi_index !778
  %10 = icmp ugt i64 %8, %9, !llfi_index !779
  br i1 %10, label %11, label %12, !llfi_index !780

11:                                               ; preds = %3
  call void @_ZSt17__throw_bad_allocv() #14, !llfi_index !781
  unreachable, !llfi_index !782

12:                                               ; preds = %3
  %13 = load i64, i64* %5, align 8, !llfi_index !783
  %14 = mul i64 %13, 4, !llfi_index !784
  %15 = call noalias nonnull i8* @_Znwm(i64 %14) #15, !llfi_index !785
  %16 = bitcast i8* %15 to i32*, !llfi_index !786
  ret i32* %16, !llfi_index !787
}

; Function Attrs: mustprogress noinline nounwind uwtable
define linkonce_odr dso_local i64 @_ZNK9__gnu_cxx13new_allocatorIiE8max_sizeEv(%"class.std::ios_base::Init"* nonnull align 1 dereferenceable(1) %0) #7 comdat align 2 {
  %2 = alloca %"class.std::ios_base::Init"*, align 8, !llfi_index !788
  store %"class.std::ios_base::Init"* %0, %"class.std::ios_base::Init"** %2, align 8, !llfi_index !789
  %3 = load %"class.std::ios_base::Init"*, %"class.std::ios_base::Init"** %2, align 8, !llfi_index !790
  ret i64 2305843009213693951, !llfi_index !791
}

; Function Attrs: noreturn
declare dso_local void @_ZSt17__throw_bad_allocv() #10

; Function Attrs: nobuiltin allocsize(0)
declare dso_local nonnull i8* @_Znwm(i64) #11

; Function Attrs: mustprogress noinline nounwind uwtable
define linkonce_odr dso_local i64 @_ZNKSt6vectorIiSaIiEE8max_sizeEv(%"class.std::vector.0"* nonnull align 8 dereferenceable(24) %0) #7 comdat align 2 {
  %2 = alloca %"class.std::vector.0"*, align 8, !llfi_index !792
  store %"class.std::vector.0"* %0, %"class.std::vector.0"** %2, align 8, !llfi_index !793
  %3 = load %"class.std::vector.0"*, %"class.std::vector.0"** %2, align 8, !llfi_index !794
  %4 = bitcast %"class.std::vector.0"* %3 to %"struct.std::_Vector_base.1"*, !llfi_index !795
  %5 = call nonnull align 1 dereferenceable(1) %"class.std::ios_base::Init"* @_ZNKSt12_Vector_baseIiSaIiEE19_M_get_Tp_allocatorEv(%"struct.std::_Vector_base.1"* nonnull align 8 dereferenceable(24) %4) #2, !llfi_index !796
  %6 = call i64 @_ZNSt6vectorIiSaIiEE11_S_max_sizeERKS0_(%"class.std::ios_base::Init"* nonnull align 1 dereferenceable(1) %5) #2, !llfi_index !797
  ret i64 %6, !llfi_index !798
}

; Function Attrs: mustprogress noinline nounwind uwtable
define linkonce_odr dso_local i64 @_ZNKSt6vectorIiSaIiEE4sizeEv(%"class.std::vector.0"* nonnull align 8 dereferenceable(24) %0) #7 comdat align 2 {
  %2 = alloca %"class.std::vector.0"*, align 8, !llfi_index !799
  store %"class.std::vector.0"* %0, %"class.std::vector.0"** %2, align 8, !llfi_index !800
  %3 = load %"class.std::vector.0"*, %"class.std::vector.0"** %2, align 8, !llfi_index !801
  %4 = bitcast %"class.std::vector.0"* %3 to %"struct.std::_Vector_base.1"*, !llfi_index !802
  %5 = getelementptr inbounds %"struct.std::_Vector_base.1", %"struct.std::_Vector_base.1"* %4, i32 0, i32 0, !llfi_index !803
  %6 = bitcast %"struct.std::_Vector_base<int, std::allocator<int>>::_Vector_impl"* %5 to %"struct.std::_Vector_base<int, std::allocator<int>>::_Vector_impl_data"*, !llfi_index !804
  %7 = getelementptr inbounds %"struct.std::_Vector_base<int, std::allocator<int>>::_Vector_impl_data", %"struct.std::_Vector_base<int, std::allocator<int>>::_Vector_impl_data"* %6, i32 0, i32 1, !llfi_index !805
  %8 = load i32*, i32** %7, align 8, !llfi_index !806
  %9 = bitcast %"class.std::vector.0"* %3 to %"struct.std::_Vector_base.1"*, !llfi_index !807
  %10 = getelementptr inbounds %"struct.std::_Vector_base.1", %"struct.std::_Vector_base.1"* %9, i32 0, i32 0, !llfi_index !808
  %11 = bitcast %"struct.std::_Vector_base<int, std::allocator<int>>::_Vector_impl"* %10 to %"struct.std::_Vector_base<int, std::allocator<int>>::_Vector_impl_data"*, !llfi_index !809
  %12 = getelementptr inbounds %"struct.std::_Vector_base<int, std::allocator<int>>::_Vector_impl_data", %"struct.std::_Vector_base<int, std::allocator<int>>::_Vector_impl_data"* %11, i32 0, i32 0, !llfi_index !810
  %13 = load i32*, i32** %12, align 8, !llfi_index !811
  %14 = ptrtoint i32* %8 to i64, !llfi_index !812
  %15 = ptrtoint i32* %13 to i64, !llfi_index !813
  %16 = sub i64 %14, %15, !llfi_index !814
  %17 = sdiv exact i64 %16, 4, !llfi_index !815
  ret i64 %17, !llfi_index !816
}

; Function Attrs: noreturn
declare dso_local void @_ZSt20__throw_length_errorPKc(i8*) #10

; Function Attrs: mustprogress noinline nounwind uwtable
define linkonce_odr dso_local nonnull align 8 dereferenceable(8) i64* @_ZSt3maxImERKT_S2_S2_(i64* nonnull align 8 dereferenceable(8) %0, i64* nonnull align 8 dereferenceable(8) %1) #7 comdat {
  %3 = alloca i64*, align 8, !llfi_index !817
  %4 = alloca i64*, align 8, !llfi_index !818
  %5 = alloca i64*, align 8, !llfi_index !819
  store i64* %0, i64** %4, align 8, !llfi_index !820
  store i64* %1, i64** %5, align 8, !llfi_index !821
  %6 = load i64*, i64** %4, align 8, !llfi_index !822
  %7 = load i64, i64* %6, align 8, !llfi_index !823
  %8 = load i64*, i64** %5, align 8, !llfi_index !824
  %9 = load i64, i64* %8, align 8, !llfi_index !825
  %10 = icmp ult i64 %7, %9, !llfi_index !826
  br i1 %10, label %11, label %13, !llfi_index !827

11:                                               ; preds = %2
  %12 = load i64*, i64** %5, align 8, !llfi_index !828
  store i64* %12, i64** %3, align 8, !llfi_index !829
  br label %15, !llfi_index !830

13:                                               ; preds = %2
  %14 = load i64*, i64** %4, align 8, !llfi_index !831
  store i64* %14, i64** %3, align 8, !llfi_index !832
  br label %15, !llfi_index !833

15:                                               ; preds = %13, %11
  %16 = load i64*, i64** %3, align 8, !llfi_index !834
  ret i64* %16, !llfi_index !835
}

; Function Attrs: mustprogress noinline nounwind uwtable
define linkonce_odr dso_local nonnull align 1 dereferenceable(1) %"class.std::ios_base::Init"* @_ZNKSt12_Vector_baseIiSaIiEE19_M_get_Tp_allocatorEv(%"struct.std::_Vector_base.1"* nonnull align 8 dereferenceable(24) %0) #7 comdat align 2 {
  %2 = alloca %"struct.std::_Vector_base.1"*, align 8, !llfi_index !836
  store %"struct.std::_Vector_base.1"* %0, %"struct.std::_Vector_base.1"** %2, align 8, !llfi_index !837
  %3 = load %"struct.std::_Vector_base.1"*, %"struct.std::_Vector_base.1"** %2, align 8, !llfi_index !838
  %4 = getelementptr inbounds %"struct.std::_Vector_base.1", %"struct.std::_Vector_base.1"* %3, i32 0, i32 0, !llfi_index !839
  %5 = bitcast %"struct.std::_Vector_base<int, std::allocator<int>>::_Vector_impl"* %4 to %"class.std::ios_base::Init"*, !llfi_index !840
  ret %"class.std::ios_base::Init"* %5, !llfi_index !841
}

; Function Attrs: mustprogress noinline nounwind uwtable
define linkonce_odr dso_local i64 @_ZNSt6vectorIiSaIiEE11_S_max_sizeERKS0_(%"class.std::ios_base::Init"* nonnull align 1 dereferenceable(1) %0) #7 comdat align 2 {
  %2 = alloca %"class.std::ios_base::Init"*, align 8, !llfi_index !842
  %3 = alloca i64, align 8, !llfi_index !843
  %4 = alloca i64, align 8, !llfi_index !844
  store %"class.std::ios_base::Init"* %0, %"class.std::ios_base::Init"** %2, align 8, !llfi_index !845
  store i64 2305843009213693951, i64* %3, align 8, !llfi_index !846
  %5 = load %"class.std::ios_base::Init"*, %"class.std::ios_base::Init"** %2, align 8, !llfi_index !847
  %6 = call i64 @_ZNSt16allocator_traitsISaIiEE8max_sizeERKS0_(%"class.std::ios_base::Init"* nonnull align 1 dereferenceable(1) %5) #2, !llfi_index !848
  store i64 %6, i64* %4, align 8, !llfi_index !849
  %7 = call nonnull align 8 dereferenceable(8) i64* @_ZSt3minImERKT_S2_S2_(i64* nonnull align 8 dereferenceable(8) %3, i64* nonnull align 8 dereferenceable(8) %4), !llfi_index !850
  %8 = load i64, i64* %7, align 8, !llfi_index !851
  ret i64 %8, !llfi_index !852
}

; Function Attrs: mustprogress noinline nounwind uwtable
define linkonce_odr dso_local i64 @_ZNSt16allocator_traitsISaIiEE8max_sizeERKS0_(%"class.std::ios_base::Init"* nonnull align 1 dereferenceable(1) %0) #7 comdat align 2 {
  %2 = alloca %"class.std::ios_base::Init"*, align 8, !llfi_index !853
  store %"class.std::ios_base::Init"* %0, %"class.std::ios_base::Init"** %2, align 8, !llfi_index !854
  %3 = load %"class.std::ios_base::Init"*, %"class.std::ios_base::Init"** %2, align 8, !llfi_index !855
  %4 = bitcast %"class.std::ios_base::Init"* %3 to %"class.std::ios_base::Init"*, !llfi_index !856
  %5 = call i64 @_ZNK9__gnu_cxx13new_allocatorIiE8max_sizeEv(%"class.std::ios_base::Init"* nonnull align 1 dereferenceable(1) %4) #2, !llfi_index !857
  ret i64 %5, !llfi_index !858
}

; Function Attrs: mustprogress noinline nounwind uwtable
define linkonce_odr dso_local nonnull align 8 dereferenceable(8) i64* @_ZSt3minImERKT_S2_S2_(i64* nonnull align 8 dereferenceable(8) %0, i64* nonnull align 8 dereferenceable(8) %1) #7 comdat {
  %3 = alloca i64*, align 8, !llfi_index !859
  %4 = alloca i64*, align 8, !llfi_index !860
  %5 = alloca i64*, align 8, !llfi_index !861
  store i64* %0, i64** %4, align 8, !llfi_index !862
  store i64* %1, i64** %5, align 8, !llfi_index !863
  %6 = load i64*, i64** %5, align 8, !llfi_index !864
  %7 = load i64, i64* %6, align 8, !llfi_index !865
  %8 = load i64*, i64** %4, align 8, !llfi_index !866
  %9 = load i64, i64* %8, align 8, !llfi_index !867
  %10 = icmp ult i64 %7, %9, !llfi_index !868
  br i1 %10, label %11, label %13, !llfi_index !869

11:                                               ; preds = %2
  %12 = load i64*, i64** %5, align 8, !llfi_index !870
  store i64* %12, i64** %3, align 8, !llfi_index !871
  br label %15, !llfi_index !872

13:                                               ; preds = %2
  %14 = load i64*, i64** %4, align 8, !llfi_index !873
  store i64* %14, i64** %3, align 8, !llfi_index !874
  br label %15, !llfi_index !875

15:                                               ; preds = %13, %11
  %16 = load i64*, i64** %3, align 8, !llfi_index !876
  ret i64* %16, !llfi_index !877
}

; Function Attrs: mustprogress noinline nounwind uwtable
define linkonce_odr dso_local void @_ZN9__gnu_cxx13new_allocatorIiE9constructIiJRKiEEEvPT_DpOT0_(%"class.std::ios_base::Init"* nonnull align 1 dereferenceable(1) %0, i32* %1, i32* nonnull align 4 dereferenceable(4) %2) #7 comdat align 2 {
  %4 = alloca %"class.std::ios_base::Init"*, align 8, !llfi_index !878
  %5 = alloca i32*, align 8, !llfi_index !879
  %6 = alloca i32*, align 8, !llfi_index !880
  store %"class.std::ios_base::Init"* %0, %"class.std::ios_base::Init"** %4, align 8, !llfi_index !881
  store i32* %1, i32** %5, align 8, !llfi_index !882
  store i32* %2, i32** %6, align 8, !llfi_index !883
  %7 = load %"class.std::ios_base::Init"*, %"class.std::ios_base::Init"** %4, align 8, !llfi_index !884
  %8 = load i32*, i32** %5, align 8, !llfi_index !885
  %9 = bitcast i32* %8 to i8*, !llfi_index !886
  %10 = bitcast i8* %9 to i32*, !llfi_index !887
  %11 = load i32*, i32** %6, align 8, !llfi_index !888
  %12 = call nonnull align 4 dereferenceable(4) i32* @_ZSt7forwardIRKiEOT_RNSt16remove_referenceIS2_E4typeE(i32* nonnull align 4 dereferenceable(4) %11) #2, !llfi_index !889
  %13 = load i32, i32* %12, align 4, !llfi_index !890
  store i32 %13, i32* %10, align 4, !llfi_index !891
  ret void, !llfi_index !892
}

; Function Attrs: mustprogress noinline nounwind uwtable
define linkonce_odr dso_local nonnull align 1 dereferenceable(1) %"class.std::ios_base::Init"* @_ZNSt12_Vector_baseIcSaIcEE19_M_get_Tp_allocatorEv(%"struct.std::_Vector_base"* nonnull align 8 dereferenceable(24) %0) #7 comdat align 2 {
  %2 = alloca %"struct.std::_Vector_base"*, align 8, !llfi_index !893
  store %"struct.std::_Vector_base"* %0, %"struct.std::_Vector_base"** %2, align 8, !llfi_index !894
  %3 = load %"struct.std::_Vector_base"*, %"struct.std::_Vector_base"** %2, align 8, !llfi_index !895
  %4 = getelementptr inbounds %"struct.std::_Vector_base", %"struct.std::_Vector_base"* %3, i32 0, i32 0, !llfi_index !896
  %5 = bitcast %"struct.std::_Vector_base<char, std::allocator<char>>::_Vector_impl"* %4 to %"class.std::ios_base::Init"*, !llfi_index !897
  ret %"class.std::ios_base::Init"* %5, !llfi_index !898
}

; Function Attrs: mustprogress noinline uwtable
define linkonce_odr dso_local void @_ZSt8_DestroyIPccEvT_S1_RSaIT0_E(i8* %0, i8* %1, %"class.std::ios_base::Init"* nonnull align 1 dereferenceable(1) %2) #6 comdat {
  %4 = alloca i8*, align 8, !llfi_index !899
  %5 = alloca i8*, align 8, !llfi_index !900
  %6 = alloca %"class.std::ios_base::Init"*, align 8, !llfi_index !901
  store i8* %0, i8** %4, align 8, !llfi_index !902
  store i8* %1, i8** %5, align 8, !llfi_index !903
  store %"class.std::ios_base::Init"* %2, %"class.std::ios_base::Init"** %6, align 8, !llfi_index !904
  %7 = load i8*, i8** %4, align 8, !llfi_index !905
  %8 = load i8*, i8** %5, align 8, !llfi_index !906
  call void @_ZSt8_DestroyIPcEvT_S1_(i8* %7, i8* %8), !llfi_index !907
  ret void, !llfi_index !908
}

; Function Attrs: noinline nounwind uwtable
define linkonce_odr dso_local void @_ZNSt12_Vector_baseIcSaIcEED2Ev(%"struct.std::_Vector_base"* nonnull align 8 dereferenceable(24) %0) unnamed_addr #5 comdat align 2 personality i8* bitcast (i32 (...)* @__gxx_personality_v0 to i8*) {
  %2 = alloca %"struct.std::_Vector_base"*, align 8, !llfi_index !909
  %3 = alloca i8*, align 8, !llfi_index !910
  %4 = alloca i32, align 4, !llfi_index !911
  store %"struct.std::_Vector_base"* %0, %"struct.std::_Vector_base"** %2, align 8, !llfi_index !912
  %5 = load %"struct.std::_Vector_base"*, %"struct.std::_Vector_base"** %2, align 8, !llfi_index !913
  %6 = getelementptr inbounds %"struct.std::_Vector_base", %"struct.std::_Vector_base"* %5, i32 0, i32 0, !llfi_index !914
  %7 = bitcast %"struct.std::_Vector_base<char, std::allocator<char>>::_Vector_impl"* %6 to %"struct.std::_Vector_base<char, std::allocator<char>>::_Vector_impl_data"*, !llfi_index !915
  %8 = getelementptr inbounds %"struct.std::_Vector_base<char, std::allocator<char>>::_Vector_impl_data", %"struct.std::_Vector_base<char, std::allocator<char>>::_Vector_impl_data"* %7, i32 0, i32 0, !llfi_index !916
  %9 = load i8*, i8** %8, align 8, !llfi_index !917
  %10 = getelementptr inbounds %"struct.std::_Vector_base", %"struct.std::_Vector_base"* %5, i32 0, i32 0, !llfi_index !918
  %11 = bitcast %"struct.std::_Vector_base<char, std::allocator<char>>::_Vector_impl"* %10 to %"struct.std::_Vector_base<char, std::allocator<char>>::_Vector_impl_data"*, !llfi_index !919
  %12 = getelementptr inbounds %"struct.std::_Vector_base<char, std::allocator<char>>::_Vector_impl_data", %"struct.std::_Vector_base<char, std::allocator<char>>::_Vector_impl_data"* %11, i32 0, i32 2, !llfi_index !920
  %13 = load i8*, i8** %12, align 8, !llfi_index !921
  %14 = getelementptr inbounds %"struct.std::_Vector_base", %"struct.std::_Vector_base"* %5, i32 0, i32 0, !llfi_index !922
  %15 = bitcast %"struct.std::_Vector_base<char, std::allocator<char>>::_Vector_impl"* %14 to %"struct.std::_Vector_base<char, std::allocator<char>>::_Vector_impl_data"*, !llfi_index !923
  %16 = getelementptr inbounds %"struct.std::_Vector_base<char, std::allocator<char>>::_Vector_impl_data", %"struct.std::_Vector_base<char, std::allocator<char>>::_Vector_impl_data"* %15, i32 0, i32 0, !llfi_index !924
  %17 = load i8*, i8** %16, align 8, !llfi_index !925
  %18 = ptrtoint i8* %13 to i64, !llfi_index !926
  %19 = ptrtoint i8* %17 to i64, !llfi_index !927
  %20 = sub i64 %18, %19, !llfi_index !928
  invoke void @_ZNSt12_Vector_baseIcSaIcEE13_M_deallocateEPcm(%"struct.std::_Vector_base"* nonnull align 8 dereferenceable(24) %5, i8* %9, i64 %20)
          to label %21 unwind label %23, !llfi_index !929

21:                                               ; preds = %1
  %22 = getelementptr inbounds %"struct.std::_Vector_base", %"struct.std::_Vector_base"* %5, i32 0, i32 0, !llfi_index !930
  call void @_ZNSt12_Vector_baseIcSaIcEE12_Vector_implD2Ev(%"struct.std::_Vector_base<char, std::allocator<char>>::_Vector_impl"* nonnull align 8 dereferenceable(24) %22) #2, !llfi_index !931
  ret void, !llfi_index !932

23:                                               ; preds = %1
  %24 = landingpad { i8*, i32 }
          catch i8* null, !llfi_index !933
  %25 = extractvalue { i8*, i32 } %24, 0, !llfi_index !934
  store i8* %25, i8** %3, align 8, !llfi_index !935
  %26 = extractvalue { i8*, i32 } %24, 1, !llfi_index !936
  store i32 %26, i32* %4, align 4, !llfi_index !937
  %27 = getelementptr inbounds %"struct.std::_Vector_base", %"struct.std::_Vector_base"* %5, i32 0, i32 0, !llfi_index !938
  call void @_ZNSt12_Vector_baseIcSaIcEE12_Vector_implD2Ev(%"struct.std::_Vector_base<char, std::allocator<char>>::_Vector_impl"* nonnull align 8 dereferenceable(24) %27) #2, !llfi_index !939
  br label %28, !llfi_index !940

28:                                               ; preds = %23
  %29 = load i8*, i8** %3, align 8, !llfi_index !941
  call void @__clang_call_terminate(i8* %29) #13, !llfi_index !942
  unreachable, !llfi_index !943
}

; Function Attrs: noinline noreturn nounwind
define linkonce_odr hidden void @__clang_call_terminate(i8* %0) #12 comdat {
  %2 = call i8* @__cxa_begin_catch(i8* %0) #2, !llfi_index !944
  call void @_ZSt9terminatev() #13, !llfi_index !945
  unreachable, !llfi_index !946
}

declare dso_local i8* @__cxa_begin_catch(i8*)

declare dso_local void @_ZSt9terminatev()

; Function Attrs: mustprogress noinline uwtable
define linkonce_odr dso_local void @_ZNSt12_Vector_baseIcSaIcEE13_M_deallocateEPcm(%"struct.std::_Vector_base"* nonnull align 8 dereferenceable(24) %0, i8* %1, i64 %2) #6 comdat align 2 {
  %4 = alloca %"struct.std::_Vector_base"*, align 8, !llfi_index !947
  %5 = alloca i8*, align 8, !llfi_index !948
  %6 = alloca i64, align 8, !llfi_index !949
  store %"struct.std::_Vector_base"* %0, %"struct.std::_Vector_base"** %4, align 8, !llfi_index !950
  store i8* %1, i8** %5, align 8, !llfi_index !951
  store i64 %2, i64* %6, align 8, !llfi_index !952
  %7 = load %"struct.std::_Vector_base"*, %"struct.std::_Vector_base"** %4, align 8, !llfi_index !953
  %8 = load i8*, i8** %5, align 8, !llfi_index !954
  %9 = icmp ne i8* %8, null, !llfi_index !955
  br i1 %9, label %10, label %15, !llfi_index !956

10:                                               ; preds = %3
  %11 = getelementptr inbounds %"struct.std::_Vector_base", %"struct.std::_Vector_base"* %7, i32 0, i32 0, !llfi_index !957
  %12 = bitcast %"struct.std::_Vector_base<char, std::allocator<char>>::_Vector_impl"* %11 to %"class.std::ios_base::Init"*, !llfi_index !958
  %13 = load i8*, i8** %5, align 8, !llfi_index !959
  %14 = load i64, i64* %6, align 8, !llfi_index !960
  call void @_ZNSt16allocator_traitsISaIcEE10deallocateERS0_Pcm(%"class.std::ios_base::Init"* nonnull align 1 dereferenceable(1) %12, i8* %13, i64 %14), !llfi_index !961
  br label %15, !llfi_index !962

15:                                               ; preds = %10, %3
  ret void, !llfi_index !963
}

; Function Attrs: noinline nounwind uwtable
define linkonce_odr dso_local void @_ZNSt12_Vector_baseIcSaIcEE12_Vector_implD2Ev(%"struct.std::_Vector_base<char, std::allocator<char>>::_Vector_impl"* nonnull align 8 dereferenceable(24) %0) unnamed_addr #5 comdat align 2 {
  %2 = alloca %"struct.std::_Vector_base<char, std::allocator<char>>::_Vector_impl"*, align 8, !llfi_index !964
  store %"struct.std::_Vector_base<char, std::allocator<char>>::_Vector_impl"* %0, %"struct.std::_Vector_base<char, std::allocator<char>>::_Vector_impl"** %2, align 8, !llfi_index !965
  %3 = load %"struct.std::_Vector_base<char, std::allocator<char>>::_Vector_impl"*, %"struct.std::_Vector_base<char, std::allocator<char>>::_Vector_impl"** %2, align 8, !llfi_index !966
  %4 = bitcast %"struct.std::_Vector_base<char, std::allocator<char>>::_Vector_impl"* %3 to %"class.std::ios_base::Init"*, !llfi_index !967
  call void @_ZNSaIcED2Ev(%"class.std::ios_base::Init"* nonnull align 1 dereferenceable(1) %4) #2, !llfi_index !968
  ret void, !llfi_index !969
}

; Function Attrs: nounwind
declare dso_local void @_ZNSaIcED2Ev(%"class.std::ios_base::Init"* nonnull align 1 dereferenceable(1)) unnamed_addr #3

; Function Attrs: mustprogress noinline uwtable
define linkonce_odr dso_local void @_ZNSt16allocator_traitsISaIcEE10deallocateERS0_Pcm(%"class.std::ios_base::Init"* nonnull align 1 dereferenceable(1) %0, i8* %1, i64 %2) #6 comdat align 2 {
  %4 = alloca %"class.std::ios_base::Init"*, align 8, !llfi_index !970
  %5 = alloca i8*, align 8, !llfi_index !971
  %6 = alloca i64, align 8, !llfi_index !972
  store %"class.std::ios_base::Init"* %0, %"class.std::ios_base::Init"** %4, align 8, !llfi_index !973
  store i8* %1, i8** %5, align 8, !llfi_index !974
  store i64 %2, i64* %6, align 8, !llfi_index !975
  %7 = load %"class.std::ios_base::Init"*, %"class.std::ios_base::Init"** %4, align 8, !llfi_index !976
  %8 = bitcast %"class.std::ios_base::Init"* %7 to %"class.std::ios_base::Init"*, !llfi_index !977
  %9 = load i8*, i8** %5, align 8, !llfi_index !978
  %10 = load i64, i64* %6, align 8, !llfi_index !979
  call void @_ZN9__gnu_cxx13new_allocatorIcE10deallocateEPcm(%"class.std::ios_base::Init"* nonnull align 1 dereferenceable(1) %8, i8* %9, i64 %10), !llfi_index !980
  ret void, !llfi_index !981
}

; Function Attrs: mustprogress noinline nounwind uwtable
define linkonce_odr dso_local void @_ZN9__gnu_cxx13new_allocatorIcE10deallocateEPcm(%"class.std::ios_base::Init"* nonnull align 1 dereferenceable(1) %0, i8* %1, i64 %2) #7 comdat align 2 {
  %4 = alloca %"class.std::ios_base::Init"*, align 8, !llfi_index !982
  %5 = alloca i8*, align 8, !llfi_index !983
  %6 = alloca i64, align 8, !llfi_index !984
  store %"class.std::ios_base::Init"* %0, %"class.std::ios_base::Init"** %4, align 8, !llfi_index !985
  store i8* %1, i8** %5, align 8, !llfi_index !986
  store i64 %2, i64* %6, align 8, !llfi_index !987
  %7 = load %"class.std::ios_base::Init"*, %"class.std::ios_base::Init"** %4, align 8, !llfi_index !988
  %8 = load i8*, i8** %5, align 8, !llfi_index !989
  call void @_ZdlPv(i8* %8) #2, !llfi_index !990
  ret void, !llfi_index !991
}

; Function Attrs: mustprogress noinline uwtable
define linkonce_odr dso_local void @_ZSt8_DestroyIPcEvT_S1_(i8* %0, i8* %1) #6 comdat {
  %3 = alloca i8*, align 8, !llfi_index !992
  %4 = alloca i8*, align 8, !llfi_index !993
  store i8* %0, i8** %3, align 8, !llfi_index !994
  store i8* %1, i8** %4, align 8, !llfi_index !995
  %5 = load i8*, i8** %3, align 8, !llfi_index !996
  %6 = load i8*, i8** %4, align 8, !llfi_index !997
  call void @_ZNSt12_Destroy_auxILb1EE9__destroyIPcEEvT_S3_(i8* %5, i8* %6), !llfi_index !998
  ret void, !llfi_index !999
}

; Function Attrs: mustprogress noinline nounwind uwtable
define linkonce_odr dso_local void @_ZNSt12_Destroy_auxILb1EE9__destroyIPcEEvT_S3_(i8* %0, i8* %1) #7 comdat align 2 {
  %3 = alloca i8*, align 8, !llfi_index !1000
  %4 = alloca i8*, align 8, !llfi_index !1001
  store i8* %0, i8** %3, align 8, !llfi_index !1002
  store i8* %1, i8** %4, align 8, !llfi_index !1003
  ret void, !llfi_index !1004
}

; Function Attrs: mustprogress noinline uwtable
define linkonce_odr dso_local void @_ZSt8_DestroyIPiiEvT_S1_RSaIT0_E(i32* %0, i32* %1, %"class.std::ios_base::Init"* nonnull align 1 dereferenceable(1) %2) #6 comdat {
  %4 = alloca i32*, align 8, !llfi_index !1005
  %5 = alloca i32*, align 8, !llfi_index !1006
  %6 = alloca %"class.std::ios_base::Init"*, align 8, !llfi_index !1007
  store i32* %0, i32** %4, align 8, !llfi_index !1008
  store i32* %1, i32** %5, align 8, !llfi_index !1009
  store %"class.std::ios_base::Init"* %2, %"class.std::ios_base::Init"** %6, align 8, !llfi_index !1010
  %7 = load i32*, i32** %4, align 8, !llfi_index !1011
  %8 = load i32*, i32** %5, align 8, !llfi_index !1012
  call void @_ZSt8_DestroyIPiEvT_S1_(i32* %7, i32* %8), !llfi_index !1013
  ret void, !llfi_index !1014
}

; Function Attrs: noinline nounwind uwtable
define linkonce_odr dso_local void @_ZNSt12_Vector_baseIiSaIiEED2Ev(%"struct.std::_Vector_base.1"* nonnull align 8 dereferenceable(24) %0) unnamed_addr #5 comdat align 2 personality i8* bitcast (i32 (...)* @__gxx_personality_v0 to i8*) {
  %2 = alloca %"struct.std::_Vector_base.1"*, align 8, !llfi_index !1015
  %3 = alloca i8*, align 8, !llfi_index !1016
  %4 = alloca i32, align 4, !llfi_index !1017
  store %"struct.std::_Vector_base.1"* %0, %"struct.std::_Vector_base.1"** %2, align 8, !llfi_index !1018
  %5 = load %"struct.std::_Vector_base.1"*, %"struct.std::_Vector_base.1"** %2, align 8, !llfi_index !1019
  %6 = getelementptr inbounds %"struct.std::_Vector_base.1", %"struct.std::_Vector_base.1"* %5, i32 0, i32 0, !llfi_index !1020
  %7 = bitcast %"struct.std::_Vector_base<int, std::allocator<int>>::_Vector_impl"* %6 to %"struct.std::_Vector_base<int, std::allocator<int>>::_Vector_impl_data"*, !llfi_index !1021
  %8 = getelementptr inbounds %"struct.std::_Vector_base<int, std::allocator<int>>::_Vector_impl_data", %"struct.std::_Vector_base<int, std::allocator<int>>::_Vector_impl_data"* %7, i32 0, i32 0, !llfi_index !1022
  %9 = load i32*, i32** %8, align 8, !llfi_index !1023
  %10 = getelementptr inbounds %"struct.std::_Vector_base.1", %"struct.std::_Vector_base.1"* %5, i32 0, i32 0, !llfi_index !1024
  %11 = bitcast %"struct.std::_Vector_base<int, std::allocator<int>>::_Vector_impl"* %10 to %"struct.std::_Vector_base<int, std::allocator<int>>::_Vector_impl_data"*, !llfi_index !1025
  %12 = getelementptr inbounds %"struct.std::_Vector_base<int, std::allocator<int>>::_Vector_impl_data", %"struct.std::_Vector_base<int, std::allocator<int>>::_Vector_impl_data"* %11, i32 0, i32 2, !llfi_index !1026
  %13 = load i32*, i32** %12, align 8, !llfi_index !1027
  %14 = getelementptr inbounds %"struct.std::_Vector_base.1", %"struct.std::_Vector_base.1"* %5, i32 0, i32 0, !llfi_index !1028
  %15 = bitcast %"struct.std::_Vector_base<int, std::allocator<int>>::_Vector_impl"* %14 to %"struct.std::_Vector_base<int, std::allocator<int>>::_Vector_impl_data"*, !llfi_index !1029
  %16 = getelementptr inbounds %"struct.std::_Vector_base<int, std::allocator<int>>::_Vector_impl_data", %"struct.std::_Vector_base<int, std::allocator<int>>::_Vector_impl_data"* %15, i32 0, i32 0, !llfi_index !1030
  %17 = load i32*, i32** %16, align 8, !llfi_index !1031
  %18 = ptrtoint i32* %13 to i64, !llfi_index !1032
  %19 = ptrtoint i32* %17 to i64, !llfi_index !1033
  %20 = sub i64 %18, %19, !llfi_index !1034
  %21 = sdiv exact i64 %20, 4, !llfi_index !1035
  invoke void @_ZNSt12_Vector_baseIiSaIiEE13_M_deallocateEPim(%"struct.std::_Vector_base.1"* nonnull align 8 dereferenceable(24) %5, i32* %9, i64 %21)
          to label %22 unwind label %24, !llfi_index !1036

22:                                               ; preds = %1
  %23 = getelementptr inbounds %"struct.std::_Vector_base.1", %"struct.std::_Vector_base.1"* %5, i32 0, i32 0, !llfi_index !1037
  call void @_ZNSt12_Vector_baseIiSaIiEE12_Vector_implD2Ev(%"struct.std::_Vector_base<int, std::allocator<int>>::_Vector_impl"* nonnull align 8 dereferenceable(24) %23) #2, !llfi_index !1038
  ret void, !llfi_index !1039

24:                                               ; preds = %1
  %25 = landingpad { i8*, i32 }
          catch i8* null, !llfi_index !1040
  %26 = extractvalue { i8*, i32 } %25, 0, !llfi_index !1041
  store i8* %26, i8** %3, align 8, !llfi_index !1042
  %27 = extractvalue { i8*, i32 } %25, 1, !llfi_index !1043
  store i32 %27, i32* %4, align 4, !llfi_index !1044
  %28 = getelementptr inbounds %"struct.std::_Vector_base.1", %"struct.std::_Vector_base.1"* %5, i32 0, i32 0, !llfi_index !1045
  call void @_ZNSt12_Vector_baseIiSaIiEE12_Vector_implD2Ev(%"struct.std::_Vector_base<int, std::allocator<int>>::_Vector_impl"* nonnull align 8 dereferenceable(24) %28) #2, !llfi_index !1046
  br label %29, !llfi_index !1047

29:                                               ; preds = %24
  %30 = load i8*, i8** %3, align 8, !llfi_index !1048
  call void @__clang_call_terminate(i8* %30) #13, !llfi_index !1049
  unreachable, !llfi_index !1050
}

; Function Attrs: noinline nounwind uwtable
define linkonce_odr dso_local void @_ZNSt12_Vector_baseIiSaIiEE12_Vector_implD2Ev(%"struct.std::_Vector_base<int, std::allocator<int>>::_Vector_impl"* nonnull align 8 dereferenceable(24) %0) unnamed_addr #5 comdat align 2 {
  %2 = alloca %"struct.std::_Vector_base<int, std::allocator<int>>::_Vector_impl"*, align 8, !llfi_index !1051
  store %"struct.std::_Vector_base<int, std::allocator<int>>::_Vector_impl"* %0, %"struct.std::_Vector_base<int, std::allocator<int>>::_Vector_impl"** %2, align 8, !llfi_index !1052
  %3 = load %"struct.std::_Vector_base<int, std::allocator<int>>::_Vector_impl"*, %"struct.std::_Vector_base<int, std::allocator<int>>::_Vector_impl"** %2, align 8, !llfi_index !1053
  %4 = bitcast %"struct.std::_Vector_base<int, std::allocator<int>>::_Vector_impl"* %3 to %"class.std::ios_base::Init"*, !llfi_index !1054
  call void @_ZNSaIiED2Ev(%"class.std::ios_base::Init"* nonnull align 1 dereferenceable(1) %4) #2, !llfi_index !1055
  ret void, !llfi_index !1056
}

; Function Attrs: noinline nounwind uwtable
define linkonce_odr dso_local void @_ZNSaIiED2Ev(%"class.std::ios_base::Init"* nonnull align 1 dereferenceable(1) %0) unnamed_addr #5 comdat align 2 {
  %2 = alloca %"class.std::ios_base::Init"*, align 8, !llfi_index !1057
  store %"class.std::ios_base::Init"* %0, %"class.std::ios_base::Init"** %2, align 8, !llfi_index !1058
  %3 = load %"class.std::ios_base::Init"*, %"class.std::ios_base::Init"** %2, align 8, !llfi_index !1059
  %4 = bitcast %"class.std::ios_base::Init"* %3 to %"class.std::ios_base::Init"*, !llfi_index !1060
  call void @_ZN9__gnu_cxx13new_allocatorIiED2Ev(%"class.std::ios_base::Init"* nonnull align 1 dereferenceable(1) %4) #2, !llfi_index !1061
  ret void, !llfi_index !1062
}

; Function Attrs: noinline nounwind uwtable
define linkonce_odr dso_local void @_ZN9__gnu_cxx13new_allocatorIiED2Ev(%"class.std::ios_base::Init"* nonnull align 1 dereferenceable(1) %0) unnamed_addr #5 comdat align 2 {
  %2 = alloca %"class.std::ios_base::Init"*, align 8, !llfi_index !1063
  store %"class.std::ios_base::Init"* %0, %"class.std::ios_base::Init"** %2, align 8, !llfi_index !1064
  %3 = load %"class.std::ios_base::Init"*, %"class.std::ios_base::Init"** %2, align 8, !llfi_index !1065
  ret void, !llfi_index !1066
}

; Function Attrs: mustprogress noinline uwtable
define linkonce_odr dso_local void @_ZSt8_DestroyIPiEvT_S1_(i32* %0, i32* %1) #6 comdat {
  %3 = alloca i32*, align 8, !llfi_index !1067
  %4 = alloca i32*, align 8, !llfi_index !1068
  store i32* %0, i32** %3, align 8, !llfi_index !1069
  store i32* %1, i32** %4, align 8, !llfi_index !1070
  %5 = load i32*, i32** %3, align 8, !llfi_index !1071
  %6 = load i32*, i32** %4, align 8, !llfi_index !1072
  call void @_ZNSt12_Destroy_auxILb1EE9__destroyIPiEEvT_S3_(i32* %5, i32* %6), !llfi_index !1073
  ret void, !llfi_index !1074
}

; Function Attrs: mustprogress noinline nounwind uwtable
define linkonce_odr dso_local void @_ZNSt12_Destroy_auxILb1EE9__destroyIPiEEvT_S3_(i32* %0, i32* %1) #7 comdat align 2 {
  %3 = alloca i32*, align 8, !llfi_index !1075
  %4 = alloca i32*, align 8, !llfi_index !1076
  store i32* %0, i32** %3, align 8, !llfi_index !1077
  store i32* %1, i32** %4, align 8, !llfi_index !1078
  ret void, !llfi_index !1079
}

; Function Attrs: mustprogress noinline nounwind uwtable
define linkonce_odr dso_local void @_ZNSt16allocator_traitsISaIcEE9constructIcJRKcEEEvRS0_PT_DpOT0_(%"class.std::ios_base::Init"* nonnull align 1 dereferenceable(1) %0, i8* %1, i8* nonnull align 1 dereferenceable(1) %2) #7 comdat align 2 {
  %4 = alloca %"class.std::ios_base::Init"*, align 8, !llfi_index !1080
  %5 = alloca i8*, align 8, !llfi_index !1081
  %6 = alloca i8*, align 8, !llfi_index !1082
  store %"class.std::ios_base::Init"* %0, %"class.std::ios_base::Init"** %4, align 8, !llfi_index !1083
  store i8* %1, i8** %5, align 8, !llfi_index !1084
  store i8* %2, i8** %6, align 8, !llfi_index !1085
  %7 = load %"class.std::ios_base::Init"*, %"class.std::ios_base::Init"** %4, align 8, !llfi_index !1086
  %8 = bitcast %"class.std::ios_base::Init"* %7 to %"class.std::ios_base::Init"*, !llfi_index !1087
  %9 = load i8*, i8** %5, align 8, !llfi_index !1088
  %10 = load i8*, i8** %6, align 8, !llfi_index !1089
  %11 = call nonnull align 1 dereferenceable(1) i8* @_ZSt7forwardIRKcEOT_RNSt16remove_referenceIS2_E4typeE(i8* nonnull align 1 dereferenceable(1) %10) #2, !llfi_index !1090
  call void @_ZN9__gnu_cxx13new_allocatorIcE9constructIcJRKcEEEvPT_DpOT0_(%"class.std::ios_base::Init"* nonnull align 1 dereferenceable(1) %8, i8* %9, i8* nonnull align 1 dereferenceable(1) %11) #2, !llfi_index !1091
  ret void, !llfi_index !1092
}

; Function Attrs: mustprogress noinline nounwind uwtable
define linkonce_odr dso_local i8* @_ZNSt6vectorIcSaIcEE3endEv(%"class.std::vector"* nonnull align 8 dereferenceable(24) %0) #7 comdat align 2 {
  %2 = alloca %"class.__gnu_cxx::__normal_iterator.5", align 8, !llfi_index !1093
  %3 = alloca %"class.std::vector"*, align 8, !llfi_index !1094
  store %"class.std::vector"* %0, %"class.std::vector"** %3, align 8, !llfi_index !1095
  %4 = load %"class.std::vector"*, %"class.std::vector"** %3, align 8, !llfi_index !1096
  %5 = bitcast %"class.std::vector"* %4 to %"struct.std::_Vector_base"*, !llfi_index !1097
  %6 = getelementptr inbounds %"struct.std::_Vector_base", %"struct.std::_Vector_base"* %5, i32 0, i32 0, !llfi_index !1098
  %7 = bitcast %"struct.std::_Vector_base<char, std::allocator<char>>::_Vector_impl"* %6 to %"struct.std::_Vector_base<char, std::allocator<char>>::_Vector_impl_data"*, !llfi_index !1099
  %8 = getelementptr inbounds %"struct.std::_Vector_base<char, std::allocator<char>>::_Vector_impl_data", %"struct.std::_Vector_base<char, std::allocator<char>>::_Vector_impl_data"* %7, i32 0, i32 1, !llfi_index !1100
  call void @_ZN9__gnu_cxx17__normal_iteratorIPcSt6vectorIcSaIcEEEC2ERKS1_(%"class.__gnu_cxx::__normal_iterator.5"* nonnull align 8 dereferenceable(8) %2, i8** nonnull align 8 dereferenceable(8) %8) #2, !llfi_index !1101
  %9 = getelementptr inbounds %"class.__gnu_cxx::__normal_iterator.5", %"class.__gnu_cxx::__normal_iterator.5"* %2, i32 0, i32 0, !llfi_index !1102
  %10 = load i8*, i8** %9, align 8, !llfi_index !1103
  ret i8* %10, !llfi_index !1104
}

; Function Attrs: mustprogress noinline uwtable
define linkonce_odr dso_local void @_ZNSt6vectorIcSaIcEE17_M_realloc_insertIJRKcEEEvN9__gnu_cxx17__normal_iteratorIPcS1_EEDpOT_(%"class.std::vector"* nonnull align 8 dereferenceable(24) %0, i8* %1, i8* nonnull align 1 dereferenceable(1) %2) #6 comdat align 2 {
  %4 = alloca %"class.__gnu_cxx::__normal_iterator.5", align 8, !llfi_index !1105
  %5 = alloca %"class.std::vector"*, align 8, !llfi_index !1106
  %6 = alloca i8*, align 8, !llfi_index !1107
  %7 = alloca i64, align 8, !llfi_index !1108
  %8 = alloca i8*, align 8, !llfi_index !1109
  %9 = alloca i8*, align 8, !llfi_index !1110
  %10 = alloca i64, align 8, !llfi_index !1111
  %11 = alloca %"class.__gnu_cxx::__normal_iterator.5", align 8, !llfi_index !1112
  %12 = alloca i8*, align 8, !llfi_index !1113
  %13 = alloca i8*, align 8, !llfi_index !1114
  %14 = getelementptr inbounds %"class.__gnu_cxx::__normal_iterator.5", %"class.__gnu_cxx::__normal_iterator.5"* %4, i32 0, i32 0, !llfi_index !1115
  store i8* %1, i8** %14, align 8, !llfi_index !1116
  store %"class.std::vector"* %0, %"class.std::vector"** %5, align 8, !llfi_index !1117
  store i8* %2, i8** %6, align 8, !llfi_index !1118
  %15 = load %"class.std::vector"*, %"class.std::vector"** %5, align 8, !llfi_index !1119
  %16 = call i64 @_ZNKSt6vectorIcSaIcEE12_M_check_lenEmPKc(%"class.std::vector"* nonnull align 8 dereferenceable(24) %15, i64 1, i8* getelementptr inbounds ([26 x i8], [26 x i8]* @.str.2, i64 0, i64 0)), !llfi_index !1120
  store i64 %16, i64* %7, align 8, !llfi_index !1121
  %17 = bitcast %"class.std::vector"* %15 to %"struct.std::_Vector_base"*, !llfi_index !1122
  %18 = getelementptr inbounds %"struct.std::_Vector_base", %"struct.std::_Vector_base"* %17, i32 0, i32 0, !llfi_index !1123
  %19 = bitcast %"struct.std::_Vector_base<char, std::allocator<char>>::_Vector_impl"* %18 to %"struct.std::_Vector_base<char, std::allocator<char>>::_Vector_impl_data"*, !llfi_index !1124
  %20 = getelementptr inbounds %"struct.std::_Vector_base<char, std::allocator<char>>::_Vector_impl_data", %"struct.std::_Vector_base<char, std::allocator<char>>::_Vector_impl_data"* %19, i32 0, i32 0, !llfi_index !1125
  %21 = load i8*, i8** %20, align 8, !llfi_index !1126
  store i8* %21, i8** %8, align 8, !llfi_index !1127
  %22 = bitcast %"class.std::vector"* %15 to %"struct.std::_Vector_base"*, !llfi_index !1128
  %23 = getelementptr inbounds %"struct.std::_Vector_base", %"struct.std::_Vector_base"* %22, i32 0, i32 0, !llfi_index !1129
  %24 = bitcast %"struct.std::_Vector_base<char, std::allocator<char>>::_Vector_impl"* %23 to %"struct.std::_Vector_base<char, std::allocator<char>>::_Vector_impl_data"*, !llfi_index !1130
  %25 = getelementptr inbounds %"struct.std::_Vector_base<char, std::allocator<char>>::_Vector_impl_data", %"struct.std::_Vector_base<char, std::allocator<char>>::_Vector_impl_data"* %24, i32 0, i32 1, !llfi_index !1131
  %26 = load i8*, i8** %25, align 8, !llfi_index !1132
  store i8* %26, i8** %9, align 8, !llfi_index !1133
  %27 = call i8* @_ZNSt6vectorIcSaIcEE5beginEv(%"class.std::vector"* nonnull align 8 dereferenceable(24) %15) #2, !llfi_index !1134
  %28 = getelementptr inbounds %"class.__gnu_cxx::__normal_iterator.5", %"class.__gnu_cxx::__normal_iterator.5"* %11, i32 0, i32 0, !llfi_index !1135
  store i8* %27, i8** %28, align 8, !llfi_index !1136
  %29 = call i64 @_ZN9__gnu_cxxmiIPcSt6vectorIcSaIcEEEENS_17__normal_iteratorIT_T0_E15difference_typeERKS8_SB_(%"class.__gnu_cxx::__normal_iterator.5"* nonnull align 8 dereferenceable(8) %4, %"class.__gnu_cxx::__normal_iterator.5"* nonnull align 8 dereferenceable(8) %11) #2, !llfi_index !1137
  store i64 %29, i64* %10, align 8, !llfi_index !1138
  %30 = bitcast %"class.std::vector"* %15 to %"struct.std::_Vector_base"*, !llfi_index !1139
  %31 = load i64, i64* %7, align 8, !llfi_index !1140
  %32 = call i8* @_ZNSt12_Vector_baseIcSaIcEE11_M_allocateEm(%"struct.std::_Vector_base"* nonnull align 8 dereferenceable(24) %30, i64 %31), !llfi_index !1141
  store i8* %32, i8** %12, align 8, !llfi_index !1142
  %33 = load i8*, i8** %12, align 8, !llfi_index !1143
  store i8* %33, i8** %13, align 8, !llfi_index !1144
  %34 = bitcast %"class.std::vector"* %15 to %"struct.std::_Vector_base"*, !llfi_index !1145
  %35 = getelementptr inbounds %"struct.std::_Vector_base", %"struct.std::_Vector_base"* %34, i32 0, i32 0, !llfi_index !1146
  %36 = bitcast %"struct.std::_Vector_base<char, std::allocator<char>>::_Vector_impl"* %35 to %"class.std::ios_base::Init"*, !llfi_index !1147
  %37 = load i8*, i8** %12, align 8, !llfi_index !1148
  %38 = load i64, i64* %10, align 8, !llfi_index !1149
  %39 = getelementptr inbounds i8, i8* %37, i64 %38, !llfi_index !1150
  %40 = load i8*, i8** %6, align 8, !llfi_index !1151
  %41 = call nonnull align 1 dereferenceable(1) i8* @_ZSt7forwardIRKcEOT_RNSt16remove_referenceIS2_E4typeE(i8* nonnull align 1 dereferenceable(1) %40) #2, !llfi_index !1152
  call void @_ZNSt16allocator_traitsISaIcEE9constructIcJRKcEEEvRS0_PT_DpOT0_(%"class.std::ios_base::Init"* nonnull align 1 dereferenceable(1) %36, i8* %39, i8* nonnull align 1 dereferenceable(1) %41) #2, !llfi_index !1153
  store i8* null, i8** %13, align 8, !llfi_index !1154
  %42 = load i8*, i8** %8, align 8, !llfi_index !1155
  %43 = call nonnull align 8 dereferenceable(8) i8** @_ZNK9__gnu_cxx17__normal_iteratorIPcSt6vectorIcSaIcEEE4baseEv(%"class.__gnu_cxx::__normal_iterator.5"* nonnull align 8 dereferenceable(8) %4) #2, !llfi_index !1156
  %44 = load i8*, i8** %43, align 8, !llfi_index !1157
  %45 = load i8*, i8** %12, align 8, !llfi_index !1158
  %46 = bitcast %"class.std::vector"* %15 to %"struct.std::_Vector_base"*, !llfi_index !1159
  %47 = call nonnull align 1 dereferenceable(1) %"class.std::ios_base::Init"* @_ZNSt12_Vector_baseIcSaIcEE19_M_get_Tp_allocatorEv(%"struct.std::_Vector_base"* nonnull align 8 dereferenceable(24) %46) #2, !llfi_index !1160
  %48 = call i8* @_ZNSt6vectorIcSaIcEE11_S_relocateEPcS2_S2_RS0_(i8* %42, i8* %44, i8* %45, %"class.std::ios_base::Init"* nonnull align 1 dereferenceable(1) %47) #2, !llfi_index !1161
  store i8* %48, i8** %13, align 8, !llfi_index !1162
  %49 = load i8*, i8** %13, align 8, !llfi_index !1163
  %50 = getelementptr inbounds i8, i8* %49, i32 1, !llfi_index !1164
  store i8* %50, i8** %13, align 8, !llfi_index !1165
  %51 = call nonnull align 8 dereferenceable(8) i8** @_ZNK9__gnu_cxx17__normal_iteratorIPcSt6vectorIcSaIcEEE4baseEv(%"class.__gnu_cxx::__normal_iterator.5"* nonnull align 8 dereferenceable(8) %4) #2, !llfi_index !1166
  %52 = load i8*, i8** %51, align 8, !llfi_index !1167
  %53 = load i8*, i8** %9, align 8, !llfi_index !1168
  %54 = load i8*, i8** %13, align 8, !llfi_index !1169
  %55 = bitcast %"class.std::vector"* %15 to %"struct.std::_Vector_base"*, !llfi_index !1170
  %56 = call nonnull align 1 dereferenceable(1) %"class.std::ios_base::Init"* @_ZNSt12_Vector_baseIcSaIcEE19_M_get_Tp_allocatorEv(%"struct.std::_Vector_base"* nonnull align 8 dereferenceable(24) %55) #2, !llfi_index !1171
  %57 = call i8* @_ZNSt6vectorIcSaIcEE11_S_relocateEPcS2_S2_RS0_(i8* %52, i8* %53, i8* %54, %"class.std::ios_base::Init"* nonnull align 1 dereferenceable(1) %56) #2, !llfi_index !1172
  store i8* %57, i8** %13, align 8, !llfi_index !1173
  %58 = bitcast %"class.std::vector"* %15 to %"struct.std::_Vector_base"*, !llfi_index !1174
  %59 = load i8*, i8** %8, align 8, !llfi_index !1175
  %60 = bitcast %"class.std::vector"* %15 to %"struct.std::_Vector_base"*, !llfi_index !1176
  %61 = getelementptr inbounds %"struct.std::_Vector_base", %"struct.std::_Vector_base"* %60, i32 0, i32 0, !llfi_index !1177
  %62 = bitcast %"struct.std::_Vector_base<char, std::allocator<char>>::_Vector_impl"* %61 to %"struct.std::_Vector_base<char, std::allocator<char>>::_Vector_impl_data"*, !llfi_index !1178
  %63 = getelementptr inbounds %"struct.std::_Vector_base<char, std::allocator<char>>::_Vector_impl_data", %"struct.std::_Vector_base<char, std::allocator<char>>::_Vector_impl_data"* %62, i32 0, i32 2, !llfi_index !1179
  %64 = load i8*, i8** %63, align 8, !llfi_index !1180
  %65 = load i8*, i8** %8, align 8, !llfi_index !1181
  %66 = ptrtoint i8* %64 to i64, !llfi_index !1182
  %67 = ptrtoint i8* %65 to i64, !llfi_index !1183
  %68 = sub i64 %66, %67, !llfi_index !1184
  call void @_ZNSt12_Vector_baseIcSaIcEE13_M_deallocateEPcm(%"struct.std::_Vector_base"* nonnull align 8 dereferenceable(24) %58, i8* %59, i64 %68), !llfi_index !1185
  %69 = load i8*, i8** %12, align 8, !llfi_index !1186
  %70 = bitcast %"class.std::vector"* %15 to %"struct.std::_Vector_base"*, !llfi_index !1187
  %71 = getelementptr inbounds %"struct.std::_Vector_base", %"struct.std::_Vector_base"* %70, i32 0, i32 0, !llfi_index !1188
  %72 = bitcast %"struct.std::_Vector_base<char, std::allocator<char>>::_Vector_impl"* %71 to %"struct.std::_Vector_base<char, std::allocator<char>>::_Vector_impl_data"*, !llfi_index !1189
  %73 = getelementptr inbounds %"struct.std::_Vector_base<char, std::allocator<char>>::_Vector_impl_data", %"struct.std::_Vector_base<char, std::allocator<char>>::_Vector_impl_data"* %72, i32 0, i32 0, !llfi_index !1190
  store i8* %69, i8** %73, align 8, !llfi_index !1191
  %74 = load i8*, i8** %13, align 8, !llfi_index !1192
  %75 = bitcast %"class.std::vector"* %15 to %"struct.std::_Vector_base"*, !llfi_index !1193
  %76 = getelementptr inbounds %"struct.std::_Vector_base", %"struct.std::_Vector_base"* %75, i32 0, i32 0, !llfi_index !1194
  %77 = bitcast %"struct.std::_Vector_base<char, std::allocator<char>>::_Vector_impl"* %76 to %"struct.std::_Vector_base<char, std::allocator<char>>::_Vector_impl_data"*, !llfi_index !1195
  %78 = getelementptr inbounds %"struct.std::_Vector_base<char, std::allocator<char>>::_Vector_impl_data", %"struct.std::_Vector_base<char, std::allocator<char>>::_Vector_impl_data"* %77, i32 0, i32 1, !llfi_index !1196
  store i8* %74, i8** %78, align 8, !llfi_index !1197
  %79 = load i8*, i8** %12, align 8, !llfi_index !1198
  %80 = load i64, i64* %7, align 8, !llfi_index !1199
  %81 = getelementptr inbounds i8, i8* %79, i64 %80, !llfi_index !1200
  %82 = bitcast %"class.std::vector"* %15 to %"struct.std::_Vector_base"*, !llfi_index !1201
  %83 = getelementptr inbounds %"struct.std::_Vector_base", %"struct.std::_Vector_base"* %82, i32 0, i32 0, !llfi_index !1202
  %84 = bitcast %"struct.std::_Vector_base<char, std::allocator<char>>::_Vector_impl"* %83 to %"struct.std::_Vector_base<char, std::allocator<char>>::_Vector_impl_data"*, !llfi_index !1203
  %85 = getelementptr inbounds %"struct.std::_Vector_base<char, std::allocator<char>>::_Vector_impl_data", %"struct.std::_Vector_base<char, std::allocator<char>>::_Vector_impl_data"* %84, i32 0, i32 2, !llfi_index !1204
  store i8* %81, i8** %85, align 8, !llfi_index !1205
  ret void, !llfi_index !1206
}

; Function Attrs: mustprogress noinline uwtable
define linkonce_odr dso_local i64 @_ZNKSt6vectorIcSaIcEE12_M_check_lenEmPKc(%"class.std::vector"* nonnull align 8 dereferenceable(24) %0, i64 %1, i8* %2) #6 comdat align 2 {
  %4 = alloca %"class.std::vector"*, align 8, !llfi_index !1207
  %5 = alloca i64, align 8, !llfi_index !1208
  %6 = alloca i8*, align 8, !llfi_index !1209
  %7 = alloca i64, align 8, !llfi_index !1210
  %8 = alloca i64, align 8, !llfi_index !1211
  store %"class.std::vector"* %0, %"class.std::vector"** %4, align 8, !llfi_index !1212
  store i64 %1, i64* %5, align 8, !llfi_index !1213
  store i8* %2, i8** %6, align 8, !llfi_index !1214
  %9 = load %"class.std::vector"*, %"class.std::vector"** %4, align 8, !llfi_index !1215
  %10 = call i64 @_ZNKSt6vectorIcSaIcEE8max_sizeEv(%"class.std::vector"* nonnull align 8 dereferenceable(24) %9) #2, !llfi_index !1216
  %11 = call i64 @_ZNKSt6vectorIcSaIcEE4sizeEv(%"class.std::vector"* nonnull align 8 dereferenceable(24) %9) #2, !llfi_index !1217
  %12 = sub i64 %10, %11, !llfi_index !1218
  %13 = load i64, i64* %5, align 8, !llfi_index !1219
  %14 = icmp ult i64 %12, %13, !llfi_index !1220
  br i1 %14, label %15, label %17, !llfi_index !1221

15:                                               ; preds = %3
  %16 = load i8*, i8** %6, align 8, !llfi_index !1222
  call void @_ZSt20__throw_length_errorPKc(i8* %16) #14, !llfi_index !1223
  unreachable, !llfi_index !1224

17:                                               ; preds = %3
  %18 = call i64 @_ZNKSt6vectorIcSaIcEE4sizeEv(%"class.std::vector"* nonnull align 8 dereferenceable(24) %9) #2, !llfi_index !1225
  %19 = call i64 @_ZNKSt6vectorIcSaIcEE4sizeEv(%"class.std::vector"* nonnull align 8 dereferenceable(24) %9) #2, !llfi_index !1226
  store i64 %19, i64* %8, align 8, !llfi_index !1227
  %20 = call nonnull align 8 dereferenceable(8) i64* @_ZSt3maxImERKT_S2_S2_(i64* nonnull align 8 dereferenceable(8) %8, i64* nonnull align 8 dereferenceable(8) %5), !llfi_index !1228
  %21 = load i64, i64* %20, align 8, !llfi_index !1229
  %22 = add i64 %18, %21, !llfi_index !1230
  store i64 %22, i64* %7, align 8, !llfi_index !1231
  %23 = load i64, i64* %7, align 8, !llfi_index !1232
  %24 = call i64 @_ZNKSt6vectorIcSaIcEE4sizeEv(%"class.std::vector"* nonnull align 8 dereferenceable(24) %9) #2, !llfi_index !1233
  %25 = icmp ult i64 %23, %24, !llfi_index !1234
  br i1 %25, label %30, label %26, !llfi_index !1235

26:                                               ; preds = %17
  %27 = load i64, i64* %7, align 8, !llfi_index !1236
  %28 = call i64 @_ZNKSt6vectorIcSaIcEE8max_sizeEv(%"class.std::vector"* nonnull align 8 dereferenceable(24) %9) #2, !llfi_index !1237
  %29 = icmp ugt i64 %27, %28, !llfi_index !1238
  br i1 %29, label %30, label %32, !llfi_index !1239

30:                                               ; preds = %26, %17
  %31 = call i64 @_ZNKSt6vectorIcSaIcEE8max_sizeEv(%"class.std::vector"* nonnull align 8 dereferenceable(24) %9) #2, !llfi_index !1240
  br label %34, !llfi_index !1241

32:                                               ; preds = %26
  %33 = load i64, i64* %7, align 8, !llfi_index !1242
  br label %34, !llfi_index !1243

34:                                               ; preds = %32, %30
  %35 = phi i64 [ %31, %30 ], [ %33, %32 ], !llfi_index !1244
  ret i64 %35, !llfi_index !1245
}

; Function Attrs: mustprogress noinline nounwind uwtable
define linkonce_odr dso_local i8* @_ZNSt6vectorIcSaIcEE5beginEv(%"class.std::vector"* nonnull align 8 dereferenceable(24) %0) #7 comdat align 2 {
  %2 = alloca %"class.__gnu_cxx::__normal_iterator.5", align 8, !llfi_index !1246
  %3 = alloca %"class.std::vector"*, align 8, !llfi_index !1247
  store %"class.std::vector"* %0, %"class.std::vector"** %3, align 8, !llfi_index !1248
  %4 = load %"class.std::vector"*, %"class.std::vector"** %3, align 8, !llfi_index !1249
  %5 = bitcast %"class.std::vector"* %4 to %"struct.std::_Vector_base"*, !llfi_index !1250
  %6 = getelementptr inbounds %"struct.std::_Vector_base", %"struct.std::_Vector_base"* %5, i32 0, i32 0, !llfi_index !1251
  %7 = bitcast %"struct.std::_Vector_base<char, std::allocator<char>>::_Vector_impl"* %6 to %"struct.std::_Vector_base<char, std::allocator<char>>::_Vector_impl_data"*, !llfi_index !1252
  %8 = getelementptr inbounds %"struct.std::_Vector_base<char, std::allocator<char>>::_Vector_impl_data", %"struct.std::_Vector_base<char, std::allocator<char>>::_Vector_impl_data"* %7, i32 0, i32 0, !llfi_index !1253
  call void @_ZN9__gnu_cxx17__normal_iteratorIPcSt6vectorIcSaIcEEEC2ERKS1_(%"class.__gnu_cxx::__normal_iterator.5"* nonnull align 8 dereferenceable(8) %2, i8** nonnull align 8 dereferenceable(8) %8) #2, !llfi_index !1254
  %9 = getelementptr inbounds %"class.__gnu_cxx::__normal_iterator.5", %"class.__gnu_cxx::__normal_iterator.5"* %2, i32 0, i32 0, !llfi_index !1255
  %10 = load i8*, i8** %9, align 8, !llfi_index !1256
  ret i8* %10, !llfi_index !1257
}

; Function Attrs: mustprogress noinline nounwind uwtable
define linkonce_odr dso_local i64 @_ZN9__gnu_cxxmiIPcSt6vectorIcSaIcEEEENS_17__normal_iteratorIT_T0_E15difference_typeERKS8_SB_(%"class.__gnu_cxx::__normal_iterator.5"* nonnull align 8 dereferenceable(8) %0, %"class.__gnu_cxx::__normal_iterator.5"* nonnull align 8 dereferenceable(8) %1) #7 comdat {
  %3 = alloca %"class.__gnu_cxx::__normal_iterator.5"*, align 8, !llfi_index !1258
  %4 = alloca %"class.__gnu_cxx::__normal_iterator.5"*, align 8, !llfi_index !1259
  store %"class.__gnu_cxx::__normal_iterator.5"* %0, %"class.__gnu_cxx::__normal_iterator.5"** %3, align 8, !llfi_index !1260
  store %"class.__gnu_cxx::__normal_iterator.5"* %1, %"class.__gnu_cxx::__normal_iterator.5"** %4, align 8, !llfi_index !1261
  %5 = load %"class.__gnu_cxx::__normal_iterator.5"*, %"class.__gnu_cxx::__normal_iterator.5"** %3, align 8, !llfi_index !1262
  %6 = call nonnull align 8 dereferenceable(8) i8** @_ZNK9__gnu_cxx17__normal_iteratorIPcSt6vectorIcSaIcEEE4baseEv(%"class.__gnu_cxx::__normal_iterator.5"* nonnull align 8 dereferenceable(8) %5) #2, !llfi_index !1263
  %7 = load i8*, i8** %6, align 8, !llfi_index !1264
  %8 = load %"class.__gnu_cxx::__normal_iterator.5"*, %"class.__gnu_cxx::__normal_iterator.5"** %4, align 8, !llfi_index !1265
  %9 = call nonnull align 8 dereferenceable(8) i8** @_ZNK9__gnu_cxx17__normal_iteratorIPcSt6vectorIcSaIcEEE4baseEv(%"class.__gnu_cxx::__normal_iterator.5"* nonnull align 8 dereferenceable(8) %8) #2, !llfi_index !1266
  %10 = load i8*, i8** %9, align 8, !llfi_index !1267
  %11 = ptrtoint i8* %7 to i64, !llfi_index !1268
  %12 = ptrtoint i8* %10 to i64, !llfi_index !1269
  %13 = sub i64 %11, %12, !llfi_index !1270
  ret i64 %13, !llfi_index !1271
}

; Function Attrs: mustprogress noinline uwtable
define linkonce_odr dso_local i8* @_ZNSt12_Vector_baseIcSaIcEE11_M_allocateEm(%"struct.std::_Vector_base"* nonnull align 8 dereferenceable(24) %0, i64 %1) #6 comdat align 2 {
  %3 = alloca %"struct.std::_Vector_base"*, align 8, !llfi_index !1272
  %4 = alloca i64, align 8, !llfi_index !1273
  store %"struct.std::_Vector_base"* %0, %"struct.std::_Vector_base"** %3, align 8, !llfi_index !1274
  store i64 %1, i64* %4, align 8, !llfi_index !1275
  %5 = load %"struct.std::_Vector_base"*, %"struct.std::_Vector_base"** %3, align 8, !llfi_index !1276
  %6 = load i64, i64* %4, align 8, !llfi_index !1277
  %7 = icmp ne i64 %6, 0, !llfi_index !1278
  br i1 %7, label %8, label %13, !llfi_index !1279

8:                                                ; preds = %2
  %9 = getelementptr inbounds %"struct.std::_Vector_base", %"struct.std::_Vector_base"* %5, i32 0, i32 0, !llfi_index !1280
  %10 = bitcast %"struct.std::_Vector_base<char, std::allocator<char>>::_Vector_impl"* %9 to %"class.std::ios_base::Init"*, !llfi_index !1281
  %11 = load i64, i64* %4, align 8, !llfi_index !1282
  %12 = call i8* @_ZNSt16allocator_traitsISaIcEE8allocateERS0_m(%"class.std::ios_base::Init"* nonnull align 1 dereferenceable(1) %10, i64 %11), !llfi_index !1283
  br label %14, !llfi_index !1284

13:                                               ; preds = %2
  br label %14, !llfi_index !1285

14:                                               ; preds = %13, %8
  %15 = phi i8* [ %12, %8 ], [ null, %13 ], !llfi_index !1286
  ret i8* %15, !llfi_index !1287
}

; Function Attrs: mustprogress noinline nounwind uwtable
define linkonce_odr dso_local nonnull align 1 dereferenceable(1) i8* @_ZSt7forwardIRKcEOT_RNSt16remove_referenceIS2_E4typeE(i8* nonnull align 1 dereferenceable(1) %0) #7 comdat {
  %2 = alloca i8*, align 8, !llfi_index !1288
  store i8* %0, i8** %2, align 8, !llfi_index !1289
  %3 = load i8*, i8** %2, align 8, !llfi_index !1290
  ret i8* %3, !llfi_index !1291
}

; Function Attrs: mustprogress noinline nounwind uwtable
define linkonce_odr dso_local nonnull align 8 dereferenceable(8) i8** @_ZNK9__gnu_cxx17__normal_iteratorIPcSt6vectorIcSaIcEEE4baseEv(%"class.__gnu_cxx::__normal_iterator.5"* nonnull align 8 dereferenceable(8) %0) #7 comdat align 2 {
  %2 = alloca %"class.__gnu_cxx::__normal_iterator.5"*, align 8, !llfi_index !1292
  store %"class.__gnu_cxx::__normal_iterator.5"* %0, %"class.__gnu_cxx::__normal_iterator.5"** %2, align 8, !llfi_index !1293
  %3 = load %"class.__gnu_cxx::__normal_iterator.5"*, %"class.__gnu_cxx::__normal_iterator.5"** %2, align 8, !llfi_index !1294
  %4 = getelementptr inbounds %"class.__gnu_cxx::__normal_iterator.5", %"class.__gnu_cxx::__normal_iterator.5"* %3, i32 0, i32 0, !llfi_index !1295
  ret i8** %4, !llfi_index !1296
}

; Function Attrs: mustprogress noinline nounwind uwtable
define linkonce_odr dso_local i8* @_ZNSt6vectorIcSaIcEE11_S_relocateEPcS2_S2_RS0_(i8* %0, i8* %1, i8* %2, %"class.std::ios_base::Init"* nonnull align 1 dereferenceable(1) %3) #7 comdat align 2 {
  %5 = alloca i8*, align 8, !llfi_index !1297
  %6 = alloca i8*, align 8, !llfi_index !1298
  %7 = alloca i8*, align 8, !llfi_index !1299
  %8 = alloca %"class.std::ios_base::Init"*, align 8, !llfi_index !1300
  %9 = alloca %"class.std::ios_base::Init", align 1, !llfi_index !1301
  store i8* %0, i8** %5, align 8, !llfi_index !1302
  store i8* %1, i8** %6, align 8, !llfi_index !1303
  store i8* %2, i8** %7, align 8, !llfi_index !1304
  store %"class.std::ios_base::Init"* %3, %"class.std::ios_base::Init"** %8, align 8, !llfi_index !1305
  %10 = load i8*, i8** %5, align 8, !llfi_index !1306
  %11 = load i8*, i8** %6, align 8, !llfi_index !1307
  %12 = load i8*, i8** %7, align 8, !llfi_index !1308
  %13 = load %"class.std::ios_base::Init"*, %"class.std::ios_base::Init"** %8, align 8, !llfi_index !1309
  %14 = call i8* @_ZNSt6vectorIcSaIcEE14_S_do_relocateEPcS2_S2_RS0_St17integral_constantIbLb1EE(i8* %10, i8* %11, i8* %12, %"class.std::ios_base::Init"* nonnull align 1 dereferenceable(1) %13) #2, !llfi_index !1310
  ret i8* %14, !llfi_index !1311
}

; Function Attrs: mustprogress noinline nounwind uwtable
define linkonce_odr dso_local i8* @_ZNSt6vectorIcSaIcEE14_S_do_relocateEPcS2_S2_RS0_St17integral_constantIbLb1EE(i8* %0, i8* %1, i8* %2, %"class.std::ios_base::Init"* nonnull align 1 dereferenceable(1) %3) #7 comdat align 2 {
  %5 = alloca %"class.std::ios_base::Init", align 1, !llfi_index !1312
  %6 = alloca i8*, align 8, !llfi_index !1313
  %7 = alloca i8*, align 8, !llfi_index !1314
  %8 = alloca i8*, align 8, !llfi_index !1315
  %9 = alloca %"class.std::ios_base::Init"*, align 8, !llfi_index !1316
  store i8* %0, i8** %6, align 8, !llfi_index !1317
  store i8* %1, i8** %7, align 8, !llfi_index !1318
  store i8* %2, i8** %8, align 8, !llfi_index !1319
  store %"class.std::ios_base::Init"* %3, %"class.std::ios_base::Init"** %9, align 8, !llfi_index !1320
  %10 = load i8*, i8** %6, align 8, !llfi_index !1321
  %11 = load i8*, i8** %7, align 8, !llfi_index !1322
  %12 = load i8*, i8** %8, align 8, !llfi_index !1323
  %13 = load %"class.std::ios_base::Init"*, %"class.std::ios_base::Init"** %9, align 8, !llfi_index !1324
  %14 = call i8* @_ZSt12__relocate_aIPcS0_SaIcEET0_T_S3_S2_RT1_(i8* %10, i8* %11, i8* %12, %"class.std::ios_base::Init"* nonnull align 1 dereferenceable(1) %13) #2, !llfi_index !1325
  ret i8* %14, !llfi_index !1326
}

; Function Attrs: mustprogress noinline nounwind uwtable
define linkonce_odr dso_local i8* @_ZSt12__relocate_aIPcS0_SaIcEET0_T_S3_S2_RT1_(i8* %0, i8* %1, i8* %2, %"class.std::ios_base::Init"* nonnull align 1 dereferenceable(1) %3) #7 comdat {
  %5 = alloca i8*, align 8, !llfi_index !1327
  %6 = alloca i8*, align 8, !llfi_index !1328
  %7 = alloca i8*, align 8, !llfi_index !1329
  %8 = alloca %"class.std::ios_base::Init"*, align 8, !llfi_index !1330
  store i8* %0, i8** %5, align 8, !llfi_index !1331
  store i8* %1, i8** %6, align 8, !llfi_index !1332
  store i8* %2, i8** %7, align 8, !llfi_index !1333
  store %"class.std::ios_base::Init"* %3, %"class.std::ios_base::Init"** %8, align 8, !llfi_index !1334
  %9 = load i8*, i8** %5, align 8, !llfi_index !1335
  %10 = call i8* @_ZSt12__niter_baseIPcET_S1_(i8* %9) #2, !llfi_index !1336
  %11 = load i8*, i8** %6, align 8, !llfi_index !1337
  %12 = call i8* @_ZSt12__niter_baseIPcET_S1_(i8* %11) #2, !llfi_index !1338
  %13 = load i8*, i8** %7, align 8, !llfi_index !1339
  %14 = call i8* @_ZSt12__niter_baseIPcET_S1_(i8* %13) #2, !llfi_index !1340
  %15 = load %"class.std::ios_base::Init"*, %"class.std::ios_base::Init"** %8, align 8, !llfi_index !1341
  %16 = call i8* @_ZSt14__relocate_a_1IccENSt9enable_ifIXsr3std24__is_bitwise_relocatableIT_EE5valueEPS1_E4typeES2_S2_S2_RSaIT0_E(i8* %10, i8* %12, i8* %14, %"class.std::ios_base::Init"* nonnull align 1 dereferenceable(1) %15) #2, !llfi_index !1342
  ret i8* %16, !llfi_index !1343
}

; Function Attrs: mustprogress noinline nounwind uwtable
define linkonce_odr dso_local i8* @_ZSt12__niter_baseIPcET_S1_(i8* %0) #7 comdat {
  %2 = alloca i8*, align 8, !llfi_index !1344
  store i8* %0, i8** %2, align 8, !llfi_index !1345
  %3 = load i8*, i8** %2, align 8, !llfi_index !1346
  ret i8* %3, !llfi_index !1347
}

; Function Attrs: mustprogress noinline nounwind uwtable
define linkonce_odr dso_local i8* @_ZSt14__relocate_a_1IccENSt9enable_ifIXsr3std24__is_bitwise_relocatableIT_EE5valueEPS1_E4typeES2_S2_S2_RSaIT0_E(i8* %0, i8* %1, i8* %2, %"class.std::ios_base::Init"* nonnull align 1 dereferenceable(1) %3) #7 comdat {
  %5 = alloca i8*, align 8, !llfi_index !1348
  %6 = alloca i8*, align 8, !llfi_index !1349
  %7 = alloca i8*, align 8, !llfi_index !1350
  %8 = alloca %"class.std::ios_base::Init"*, align 8, !llfi_index !1351
  %9 = alloca i64, align 8, !llfi_index !1352
  store i8* %0, i8** %5, align 8, !llfi_index !1353
  store i8* %1, i8** %6, align 8, !llfi_index !1354
  store i8* %2, i8** %7, align 8, !llfi_index !1355
  store %"class.std::ios_base::Init"* %3, %"class.std::ios_base::Init"** %8, align 8, !llfi_index !1356
  %10 = load i8*, i8** %6, align 8, !llfi_index !1357
  %11 = load i8*, i8** %5, align 8, !llfi_index !1358
  %12 = ptrtoint i8* %10 to i64, !llfi_index !1359
  %13 = ptrtoint i8* %11 to i64, !llfi_index !1360
  %14 = sub i64 %12, %13, !llfi_index !1361
  store i64 %14, i64* %9, align 8, !llfi_index !1362
  %15 = load i64, i64* %9, align 8, !llfi_index !1363
  %16 = icmp sgt i64 %15, 0, !llfi_index !1364
  br i1 %16, label %17, label %22, !llfi_index !1365

17:                                               ; preds = %4
  %18 = load i8*, i8** %7, align 8, !llfi_index !1366
  %19 = load i8*, i8** %5, align 8, !llfi_index !1367
  %20 = load i64, i64* %9, align 8, !llfi_index !1368
  %21 = mul i64 %20, 1, !llfi_index !1369
  call void @llvm.memmove.p0i8.p0i8.i64(i8* align 1 %18, i8* align 1 %19, i64 %21, i1 false), !llfi_index !1370
  br label %22, !llfi_index !1371

22:                                               ; preds = %17, %4
  %23 = load i8*, i8** %7, align 8, !llfi_index !1372
  %24 = load i64, i64* %9, align 8, !llfi_index !1373
  %25 = getelementptr inbounds i8, i8* %23, i64 %24, !llfi_index !1374
  ret i8* %25, !llfi_index !1375
}

; Function Attrs: mustprogress noinline uwtable
define linkonce_odr dso_local i8* @_ZNSt16allocator_traitsISaIcEE8allocateERS0_m(%"class.std::ios_base::Init"* nonnull align 1 dereferenceable(1) %0, i64 %1) #6 comdat align 2 {
  %3 = alloca %"class.std::ios_base::Init"*, align 8, !llfi_index !1376
  %4 = alloca i64, align 8, !llfi_index !1377
  store %"class.std::ios_base::Init"* %0, %"class.std::ios_base::Init"** %3, align 8, !llfi_index !1378
  store i64 %1, i64* %4, align 8, !llfi_index !1379
  %5 = load %"class.std::ios_base::Init"*, %"class.std::ios_base::Init"** %3, align 8, !llfi_index !1380
  %6 = bitcast %"class.std::ios_base::Init"* %5 to %"class.std::ios_base::Init"*, !llfi_index !1381
  %7 = load i64, i64* %4, align 8, !llfi_index !1382
  %8 = call i8* @_ZN9__gnu_cxx13new_allocatorIcE8allocateEmPKv(%"class.std::ios_base::Init"* nonnull align 1 dereferenceable(1) %6, i64 %7, i8* null), !llfi_index !1383
  ret i8* %8, !llfi_index !1384
}

; Function Attrs: mustprogress noinline uwtable
define linkonce_odr dso_local i8* @_ZN9__gnu_cxx13new_allocatorIcE8allocateEmPKv(%"class.std::ios_base::Init"* nonnull align 1 dereferenceable(1) %0, i64 %1, i8* %2) #6 comdat align 2 {
  %4 = alloca %"class.std::ios_base::Init"*, align 8, !llfi_index !1385
  %5 = alloca i64, align 8, !llfi_index !1386
  %6 = alloca i8*, align 8, !llfi_index !1387
  store %"class.std::ios_base::Init"* %0, %"class.std::ios_base::Init"** %4, align 8, !llfi_index !1388
  store i64 %1, i64* %5, align 8, !llfi_index !1389
  store i8* %2, i8** %6, align 8, !llfi_index !1390
  %7 = load %"class.std::ios_base::Init"*, %"class.std::ios_base::Init"** %4, align 8, !llfi_index !1391
  %8 = load i64, i64* %5, align 8, !llfi_index !1392
  %9 = call i64 @_ZNK9__gnu_cxx13new_allocatorIcE8max_sizeEv(%"class.std::ios_base::Init"* nonnull align 1 dereferenceable(1) %7) #2, !llfi_index !1393
  %10 = icmp ugt i64 %8, %9, !llfi_index !1394
  br i1 %10, label %11, label %12, !llfi_index !1395

11:                                               ; preds = %3
  call void @_ZSt17__throw_bad_allocv() #14, !llfi_index !1396
  unreachable, !llfi_index !1397

12:                                               ; preds = %3
  %13 = load i64, i64* %5, align 8, !llfi_index !1398
  %14 = mul i64 %13, 1, !llfi_index !1399
  %15 = call noalias nonnull i8* @_Znwm(i64 %14) #15, !llfi_index !1400
  ret i8* %15, !llfi_index !1401
}

; Function Attrs: mustprogress noinline nounwind uwtable
define linkonce_odr dso_local i64 @_ZNK9__gnu_cxx13new_allocatorIcE8max_sizeEv(%"class.std::ios_base::Init"* nonnull align 1 dereferenceable(1) %0) #7 comdat align 2 {
  %2 = alloca %"class.std::ios_base::Init"*, align 8, !llfi_index !1402
  store %"class.std::ios_base::Init"* %0, %"class.std::ios_base::Init"** %2, align 8, !llfi_index !1403
  %3 = load %"class.std::ios_base::Init"*, %"class.std::ios_base::Init"** %2, align 8, !llfi_index !1404
  ret i64 9223372036854775807, !llfi_index !1405
}

; Function Attrs: noinline nounwind uwtable
define linkonce_odr dso_local void @_ZN9__gnu_cxx17__normal_iteratorIPcSt6vectorIcSaIcEEEC2ERKS1_(%"class.__gnu_cxx::__normal_iterator.5"* nonnull align 8 dereferenceable(8) %0, i8** nonnull align 8 dereferenceable(8) %1) unnamed_addr #5 comdat align 2 {
  %3 = alloca %"class.__gnu_cxx::__normal_iterator.5"*, align 8, !llfi_index !1406
  %4 = alloca i8**, align 8, !llfi_index !1407
  store %"class.__gnu_cxx::__normal_iterator.5"* %0, %"class.__gnu_cxx::__normal_iterator.5"** %3, align 8, !llfi_index !1408
  store i8** %1, i8*** %4, align 8, !llfi_index !1409
  %5 = load %"class.__gnu_cxx::__normal_iterator.5"*, %"class.__gnu_cxx::__normal_iterator.5"** %3, align 8, !llfi_index !1410
  %6 = getelementptr inbounds %"class.__gnu_cxx::__normal_iterator.5", %"class.__gnu_cxx::__normal_iterator.5"* %5, i32 0, i32 0, !llfi_index !1411
  %7 = load i8**, i8*** %4, align 8, !llfi_index !1412
  %8 = load i8*, i8** %7, align 8, !llfi_index !1413
  store i8* %8, i8** %6, align 8, !llfi_index !1414
  ret void, !llfi_index !1415
}

; Function Attrs: mustprogress noinline nounwind uwtable
define linkonce_odr dso_local i64 @_ZNKSt6vectorIcSaIcEE8max_sizeEv(%"class.std::vector"* nonnull align 8 dereferenceable(24) %0) #7 comdat align 2 {
  %2 = alloca %"class.std::vector"*, align 8, !llfi_index !1416
  store %"class.std::vector"* %0, %"class.std::vector"** %2, align 8, !llfi_index !1417
  %3 = load %"class.std::vector"*, %"class.std::vector"** %2, align 8, !llfi_index !1418
  %4 = bitcast %"class.std::vector"* %3 to %"struct.std::_Vector_base"*, !llfi_index !1419
  %5 = call nonnull align 1 dereferenceable(1) %"class.std::ios_base::Init"* @_ZNKSt12_Vector_baseIcSaIcEE19_M_get_Tp_allocatorEv(%"struct.std::_Vector_base"* nonnull align 8 dereferenceable(24) %4) #2, !llfi_index !1420
  %6 = call i64 @_ZNSt6vectorIcSaIcEE11_S_max_sizeERKS0_(%"class.std::ios_base::Init"* nonnull align 1 dereferenceable(1) %5) #2, !llfi_index !1421
  ret i64 %6, !llfi_index !1422
}

; Function Attrs: mustprogress noinline nounwind uwtable
define linkonce_odr dso_local i64 @_ZNKSt6vectorIcSaIcEE4sizeEv(%"class.std::vector"* nonnull align 8 dereferenceable(24) %0) #7 comdat align 2 {
  %2 = alloca %"class.std::vector"*, align 8, !llfi_index !1423
  store %"class.std::vector"* %0, %"class.std::vector"** %2, align 8, !llfi_index !1424
  %3 = load %"class.std::vector"*, %"class.std::vector"** %2, align 8, !llfi_index !1425
  %4 = bitcast %"class.std::vector"* %3 to %"struct.std::_Vector_base"*, !llfi_index !1426
  %5 = getelementptr inbounds %"struct.std::_Vector_base", %"struct.std::_Vector_base"* %4, i32 0, i32 0, !llfi_index !1427
  %6 = bitcast %"struct.std::_Vector_base<char, std::allocator<char>>::_Vector_impl"* %5 to %"struct.std::_Vector_base<char, std::allocator<char>>::_Vector_impl_data"*, !llfi_index !1428
  %7 = getelementptr inbounds %"struct.std::_Vector_base<char, std::allocator<char>>::_Vector_impl_data", %"struct.std::_Vector_base<char, std::allocator<char>>::_Vector_impl_data"* %6, i32 0, i32 1, !llfi_index !1429
  %8 = load i8*, i8** %7, align 8, !llfi_index !1430
  %9 = bitcast %"class.std::vector"* %3 to %"struct.std::_Vector_base"*, !llfi_index !1431
  %10 = getelementptr inbounds %"struct.std::_Vector_base", %"struct.std::_Vector_base"* %9, i32 0, i32 0, !llfi_index !1432
  %11 = bitcast %"struct.std::_Vector_base<char, std::allocator<char>>::_Vector_impl"* %10 to %"struct.std::_Vector_base<char, std::allocator<char>>::_Vector_impl_data"*, !llfi_index !1433
  %12 = getelementptr inbounds %"struct.std::_Vector_base<char, std::allocator<char>>::_Vector_impl_data", %"struct.std::_Vector_base<char, std::allocator<char>>::_Vector_impl_data"* %11, i32 0, i32 0, !llfi_index !1434
  %13 = load i8*, i8** %12, align 8, !llfi_index !1435
  %14 = ptrtoint i8* %8 to i64, !llfi_index !1436
  %15 = ptrtoint i8* %13 to i64, !llfi_index !1437
  %16 = sub i64 %14, %15, !llfi_index !1438
  ret i64 %16, !llfi_index !1439
}

; Function Attrs: mustprogress noinline nounwind uwtable
define linkonce_odr dso_local nonnull align 1 dereferenceable(1) %"class.std::ios_base::Init"* @_ZNKSt12_Vector_baseIcSaIcEE19_M_get_Tp_allocatorEv(%"struct.std::_Vector_base"* nonnull align 8 dereferenceable(24) %0) #7 comdat align 2 {
  %2 = alloca %"struct.std::_Vector_base"*, align 8, !llfi_index !1440
  store %"struct.std::_Vector_base"* %0, %"struct.std::_Vector_base"** %2, align 8, !llfi_index !1441
  %3 = load %"struct.std::_Vector_base"*, %"struct.std::_Vector_base"** %2, align 8, !llfi_index !1442
  %4 = getelementptr inbounds %"struct.std::_Vector_base", %"struct.std::_Vector_base"* %3, i32 0, i32 0, !llfi_index !1443
  %5 = bitcast %"struct.std::_Vector_base<char, std::allocator<char>>::_Vector_impl"* %4 to %"class.std::ios_base::Init"*, !llfi_index !1444
  ret %"class.std::ios_base::Init"* %5, !llfi_index !1445
}

; Function Attrs: mustprogress noinline nounwind uwtable
define linkonce_odr dso_local i64 @_ZNSt6vectorIcSaIcEE11_S_max_sizeERKS0_(%"class.std::ios_base::Init"* nonnull align 1 dereferenceable(1) %0) #7 comdat align 2 personality i8* bitcast (i32 (...)* @__gxx_personality_v0 to i8*) {
  %2 = alloca %"class.std::ios_base::Init"*, align 8, !llfi_index !1446
  %3 = alloca i64, align 8, !llfi_index !1447
  %4 = alloca i64, align 8, !llfi_index !1448
  store %"class.std::ios_base::Init"* %0, %"class.std::ios_base::Init"** %2, align 8, !llfi_index !1449
  store i64 9223372036854775807, i64* %3, align 8, !llfi_index !1450
  %5 = load %"class.std::ios_base::Init"*, %"class.std::ios_base::Init"** %2, align 8, !llfi_index !1451
  %6 = call i64 @_ZNSt16allocator_traitsISaIcEE8max_sizeERKS0_(%"class.std::ios_base::Init"* nonnull align 1 dereferenceable(1) %5) #2, !llfi_index !1452
  store i64 %6, i64* %4, align 8, !llfi_index !1453
  %7 = invoke nonnull align 8 dereferenceable(8) i64* @_ZSt3minImERKT_S2_S2_(i64* nonnull align 8 dereferenceable(8) %3, i64* nonnull align 8 dereferenceable(8) %4)
          to label %8 unwind label %10, !llfi_index !1454

8:                                                ; preds = %1
  %9 = load i64, i64* %7, align 8, !llfi_index !1455
  ret i64 %9, !llfi_index !1456

10:                                               ; preds = %1
  %11 = landingpad { i8*, i32 }
          catch i8* null, !llfi_index !1457
  %12 = extractvalue { i8*, i32 } %11, 0, !llfi_index !1458
  call void @__clang_call_terminate(i8* %12) #13, !llfi_index !1459
  unreachable, !llfi_index !1460
}

; Function Attrs: mustprogress noinline nounwind uwtable
define linkonce_odr dso_local i64 @_ZNSt16allocator_traitsISaIcEE8max_sizeERKS0_(%"class.std::ios_base::Init"* nonnull align 1 dereferenceable(1) %0) #7 comdat align 2 {
  %2 = alloca %"class.std::ios_base::Init"*, align 8, !llfi_index !1461
  store %"class.std::ios_base::Init"* %0, %"class.std::ios_base::Init"** %2, align 8, !llfi_index !1462
  %3 = load %"class.std::ios_base::Init"*, %"class.std::ios_base::Init"** %2, align 8, !llfi_index !1463
  %4 = bitcast %"class.std::ios_base::Init"* %3 to %"class.std::ios_base::Init"*, !llfi_index !1464
  %5 = call i64 @_ZNK9__gnu_cxx13new_allocatorIcE8max_sizeEv(%"class.std::ios_base::Init"* nonnull align 1 dereferenceable(1) %4) #2, !llfi_index !1465
  ret i64 %5, !llfi_index !1466
}

; Function Attrs: mustprogress noinline nounwind uwtable
define linkonce_odr dso_local void @_ZN9__gnu_cxx13new_allocatorIcE9constructIcJRKcEEEvPT_DpOT0_(%"class.std::ios_base::Init"* nonnull align 1 dereferenceable(1) %0, i8* %1, i8* nonnull align 1 dereferenceable(1) %2) #7 comdat align 2 {
  %4 = alloca %"class.std::ios_base::Init"*, align 8, !llfi_index !1467
  %5 = alloca i8*, align 8, !llfi_index !1468
  %6 = alloca i8*, align 8, !llfi_index !1469
  store %"class.std::ios_base::Init"* %0, %"class.std::ios_base::Init"** %4, align 8, !llfi_index !1470
  store i8* %1, i8** %5, align 8, !llfi_index !1471
  store i8* %2, i8** %6, align 8, !llfi_index !1472
  %7 = load %"class.std::ios_base::Init"*, %"class.std::ios_base::Init"** %4, align 8, !llfi_index !1473
  %8 = load i8*, i8** %5, align 8, !llfi_index !1474
  %9 = load i8*, i8** %6, align 8, !llfi_index !1475
  %10 = call nonnull align 1 dereferenceable(1) i8* @_ZSt7forwardIRKcEOT_RNSt16remove_referenceIS2_E4typeE(i8* nonnull align 1 dereferenceable(1) %9) #2, !llfi_index !1476
  %11 = load i8, i8* %10, align 1, !llfi_index !1477
  store i8 %11, i8* %8, align 1, !llfi_index !1478
  ret void, !llfi_index !1479
}

; Function Attrs: noinline nounwind uwtable
define linkonce_odr dso_local void @_ZNSt12_Vector_baseIiSaIiEEC2Ev(%"struct.std::_Vector_base.1"* nonnull align 8 dereferenceable(24) %0) unnamed_addr #5 comdat align 2 {
  %2 = alloca %"struct.std::_Vector_base.1"*, align 8, !llfi_index !1480
  store %"struct.std::_Vector_base.1"* %0, %"struct.std::_Vector_base.1"** %2, align 8, !llfi_index !1481
  %3 = load %"struct.std::_Vector_base.1"*, %"struct.std::_Vector_base.1"** %2, align 8, !llfi_index !1482
  %4 = getelementptr inbounds %"struct.std::_Vector_base.1", %"struct.std::_Vector_base.1"* %3, i32 0, i32 0, !llfi_index !1483
  call void @_ZNSt12_Vector_baseIiSaIiEE12_Vector_implC2Ev(%"struct.std::_Vector_base<int, std::allocator<int>>::_Vector_impl"* nonnull align 8 dereferenceable(24) %4) #2, !llfi_index !1484
  ret void, !llfi_index !1485
}

; Function Attrs: noinline nounwind uwtable
define linkonce_odr dso_local void @_ZNSt12_Vector_baseIiSaIiEE12_Vector_implC2Ev(%"struct.std::_Vector_base<int, std::allocator<int>>::_Vector_impl"* nonnull align 8 dereferenceable(24) %0) unnamed_addr #5 comdat align 2 {
  %2 = alloca %"struct.std::_Vector_base<int, std::allocator<int>>::_Vector_impl"*, align 8, !llfi_index !1486
  store %"struct.std::_Vector_base<int, std::allocator<int>>::_Vector_impl"* %0, %"struct.std::_Vector_base<int, std::allocator<int>>::_Vector_impl"** %2, align 8, !llfi_index !1487
  %3 = load %"struct.std::_Vector_base<int, std::allocator<int>>::_Vector_impl"*, %"struct.std::_Vector_base<int, std::allocator<int>>::_Vector_impl"** %2, align 8, !llfi_index !1488
  %4 = bitcast %"struct.std::_Vector_base<int, std::allocator<int>>::_Vector_impl"* %3 to %"class.std::ios_base::Init"*, !llfi_index !1489
  call void @_ZNSaIiEC2Ev(%"class.std::ios_base::Init"* nonnull align 1 dereferenceable(1) %4) #2, !llfi_index !1490
  %5 = bitcast %"struct.std::_Vector_base<int, std::allocator<int>>::_Vector_impl"* %3 to %"struct.std::_Vector_base<int, std::allocator<int>>::_Vector_impl_data"*, !llfi_index !1491
  call void @_ZNSt12_Vector_baseIiSaIiEE17_Vector_impl_dataC2Ev(%"struct.std::_Vector_base<int, std::allocator<int>>::_Vector_impl_data"* nonnull align 8 dereferenceable(24) %5) #2, !llfi_index !1492
  ret void, !llfi_index !1493
}

; Function Attrs: noinline nounwind uwtable
define linkonce_odr dso_local void @_ZNSaIiEC2Ev(%"class.std::ios_base::Init"* nonnull align 1 dereferenceable(1) %0) unnamed_addr #5 comdat align 2 {
  %2 = alloca %"class.std::ios_base::Init"*, align 8, !llfi_index !1494
  store %"class.std::ios_base::Init"* %0, %"class.std::ios_base::Init"** %2, align 8, !llfi_index !1495
  %3 = load %"class.std::ios_base::Init"*, %"class.std::ios_base::Init"** %2, align 8, !llfi_index !1496
  %4 = bitcast %"class.std::ios_base::Init"* %3 to %"class.std::ios_base::Init"*, !llfi_index !1497
  call void @_ZN9__gnu_cxx13new_allocatorIiEC2Ev(%"class.std::ios_base::Init"* nonnull align 1 dereferenceable(1) %4) #2, !llfi_index !1498
  ret void, !llfi_index !1499
}

; Function Attrs: noinline nounwind uwtable
define linkonce_odr dso_local void @_ZNSt12_Vector_baseIiSaIiEE17_Vector_impl_dataC2Ev(%"struct.std::_Vector_base<int, std::allocator<int>>::_Vector_impl_data"* nonnull align 8 dereferenceable(24) %0) unnamed_addr #5 comdat align 2 {
  %2 = alloca %"struct.std::_Vector_base<int, std::allocator<int>>::_Vector_impl_data"*, align 8, !llfi_index !1500
  store %"struct.std::_Vector_base<int, std::allocator<int>>::_Vector_impl_data"* %0, %"struct.std::_Vector_base<int, std::allocator<int>>::_Vector_impl_data"** %2, align 8, !llfi_index !1501
  %3 = load %"struct.std::_Vector_base<int, std::allocator<int>>::_Vector_impl_data"*, %"struct.std::_Vector_base<int, std::allocator<int>>::_Vector_impl_data"** %2, align 8, !llfi_index !1502
  %4 = getelementptr inbounds %"struct.std::_Vector_base<int, std::allocator<int>>::_Vector_impl_data", %"struct.std::_Vector_base<int, std::allocator<int>>::_Vector_impl_data"* %3, i32 0, i32 0, !llfi_index !1503
  store i32* null, i32** %4, align 8, !llfi_index !1504
  %5 = getelementptr inbounds %"struct.std::_Vector_base<int, std::allocator<int>>::_Vector_impl_data", %"struct.std::_Vector_base<int, std::allocator<int>>::_Vector_impl_data"* %3, i32 0, i32 1, !llfi_index !1505
  store i32* null, i32** %5, align 8, !llfi_index !1506
  %6 = getelementptr inbounds %"struct.std::_Vector_base<int, std::allocator<int>>::_Vector_impl_data", %"struct.std::_Vector_base<int, std::allocator<int>>::_Vector_impl_data"* %3, i32 0, i32 2, !llfi_index !1507
  store i32* null, i32** %6, align 8, !llfi_index !1508
  ret void, !llfi_index !1509
}

; Function Attrs: noinline nounwind uwtable
define linkonce_odr dso_local void @_ZN9__gnu_cxx13new_allocatorIiEC2Ev(%"class.std::ios_base::Init"* nonnull align 1 dereferenceable(1) %0) unnamed_addr #5 comdat align 2 {
  %2 = alloca %"class.std::ios_base::Init"*, align 8, !llfi_index !1510
  store %"class.std::ios_base::Init"* %0, %"class.std::ios_base::Init"** %2, align 8, !llfi_index !1511
  %3 = load %"class.std::ios_base::Init"*, %"class.std::ios_base::Init"** %2, align 8, !llfi_index !1512
  ret void, !llfi_index !1513
}

; Function Attrs: noinline nounwind uwtable
define linkonce_odr dso_local void @_ZNSt12_Vector_baseIcSaIcEEC2Ev(%"struct.std::_Vector_base"* nonnull align 8 dereferenceable(24) %0) unnamed_addr #5 comdat align 2 {
  %2 = alloca %"struct.std::_Vector_base"*, align 8, !llfi_index !1514
  store %"struct.std::_Vector_base"* %0, %"struct.std::_Vector_base"** %2, align 8, !llfi_index !1515
  %3 = load %"struct.std::_Vector_base"*, %"struct.std::_Vector_base"** %2, align 8, !llfi_index !1516
  %4 = getelementptr inbounds %"struct.std::_Vector_base", %"struct.std::_Vector_base"* %3, i32 0, i32 0, !llfi_index !1517
  call void @_ZNSt12_Vector_baseIcSaIcEE12_Vector_implC2Ev(%"struct.std::_Vector_base<char, std::allocator<char>>::_Vector_impl"* nonnull align 8 dereferenceable(24) %4) #2, !llfi_index !1518
  ret void, !llfi_index !1519
}

; Function Attrs: noinline nounwind uwtable
define linkonce_odr dso_local void @_ZNSt12_Vector_baseIcSaIcEE12_Vector_implC2Ev(%"struct.std::_Vector_base<char, std::allocator<char>>::_Vector_impl"* nonnull align 8 dereferenceable(24) %0) unnamed_addr #5 comdat align 2 {
  %2 = alloca %"struct.std::_Vector_base<char, std::allocator<char>>::_Vector_impl"*, align 8, !llfi_index !1520
  store %"struct.std::_Vector_base<char, std::allocator<char>>::_Vector_impl"* %0, %"struct.std::_Vector_base<char, std::allocator<char>>::_Vector_impl"** %2, align 8, !llfi_index !1521
  %3 = load %"struct.std::_Vector_base<char, std::allocator<char>>::_Vector_impl"*, %"struct.std::_Vector_base<char, std::allocator<char>>::_Vector_impl"** %2, align 8, !llfi_index !1522
  %4 = bitcast %"struct.std::_Vector_base<char, std::allocator<char>>::_Vector_impl"* %3 to %"class.std::ios_base::Init"*, !llfi_index !1523
  call void @_ZNSaIcEC2Ev(%"class.std::ios_base::Init"* nonnull align 1 dereferenceable(1) %4) #2, !llfi_index !1524
  %5 = bitcast %"struct.std::_Vector_base<char, std::allocator<char>>::_Vector_impl"* %3 to %"struct.std::_Vector_base<char, std::allocator<char>>::_Vector_impl_data"*, !llfi_index !1525
  call void @_ZNSt12_Vector_baseIcSaIcEE17_Vector_impl_dataC2Ev(%"struct.std::_Vector_base<char, std::allocator<char>>::_Vector_impl_data"* nonnull align 8 dereferenceable(24) %5) #2, !llfi_index !1526
  ret void, !llfi_index !1527
}

; Function Attrs: nounwind
declare dso_local void @_ZNSaIcEC2Ev(%"class.std::ios_base::Init"* nonnull align 1 dereferenceable(1)) unnamed_addr #3

; Function Attrs: noinline nounwind uwtable
define linkonce_odr dso_local void @_ZNSt12_Vector_baseIcSaIcEE17_Vector_impl_dataC2Ev(%"struct.std::_Vector_base<char, std::allocator<char>>::_Vector_impl_data"* nonnull align 8 dereferenceable(24) %0) unnamed_addr #5 comdat align 2 {
  %2 = alloca %"struct.std::_Vector_base<char, std::allocator<char>>::_Vector_impl_data"*, align 8, !llfi_index !1528
  store %"struct.std::_Vector_base<char, std::allocator<char>>::_Vector_impl_data"* %0, %"struct.std::_Vector_base<char, std::allocator<char>>::_Vector_impl_data"** %2, align 8, !llfi_index !1529
  %3 = load %"struct.std::_Vector_base<char, std::allocator<char>>::_Vector_impl_data"*, %"struct.std::_Vector_base<char, std::allocator<char>>::_Vector_impl_data"** %2, align 8, !llfi_index !1530
  %4 = getelementptr inbounds %"struct.std::_Vector_base<char, std::allocator<char>>::_Vector_impl_data", %"struct.std::_Vector_base<char, std::allocator<char>>::_Vector_impl_data"* %3, i32 0, i32 0, !llfi_index !1531
  store i8* null, i8** %4, align 8, !llfi_index !1532
  %5 = getelementptr inbounds %"struct.std::_Vector_base<char, std::allocator<char>>::_Vector_impl_data", %"struct.std::_Vector_base<char, std::allocator<char>>::_Vector_impl_data"* %3, i32 0, i32 1, !llfi_index !1533
  store i8* null, i8** %5, align 8, !llfi_index !1534
  %6 = getelementptr inbounds %"struct.std::_Vector_base<char, std::allocator<char>>::_Vector_impl_data", %"struct.std::_Vector_base<char, std::allocator<char>>::_Vector_impl_data"* %3, i32 0, i32 2, !llfi_index !1535
  store i8* null, i8** %6, align 8, !llfi_index !1536
  ret void, !llfi_index !1537
}

attributes #0 = { noinline uwtable "frame-pointer"="all" "min-legal-vector-width"="0" "no-trapping-math"="true" "stack-protector-buffer-size"="8" "target-cpu"="x86-64" "target-features"="+cx8,+fxsr,+mmx,+sse,+sse2,+x87" "tune-cpu"="generic" }
attributes #1 = { "frame-pointer"="all" "no-trapping-math"="true" "stack-protector-buffer-size"="8" "target-cpu"="x86-64" "target-features"="+cx8,+fxsr,+mmx,+sse,+sse2,+x87" "tune-cpu"="generic" }
attributes #2 = { nounwind }
attributes #3 = { nounwind "frame-pointer"="all" "no-trapping-math"="true" "stack-protector-buffer-size"="8" "target-cpu"="x86-64" "target-features"="+cx8,+fxsr,+mmx,+sse,+sse2,+x87" "tune-cpu"="generic" }
attributes #4 = { mustprogress noinline norecurse uwtable "frame-pointer"="all" "min-legal-vector-width"="0" "no-trapping-math"="true" "stack-protector-buffer-size"="8" "target-cpu"="x86-64" "target-features"="+cx8,+fxsr,+mmx,+sse,+sse2,+x87" "tune-cpu"="generic" }
attributes #5 = { noinline nounwind uwtable "frame-pointer"="all" "min-legal-vector-width"="0" "no-trapping-math"="true" "stack-protector-buffer-size"="8" "target-cpu"="x86-64" "target-features"="+cx8,+fxsr,+mmx,+sse,+sse2,+x87" "tune-cpu"="generic" }
attributes #6 = { mustprogress noinline uwtable "frame-pointer"="all" "min-legal-vector-width"="0" "no-trapping-math"="true" "stack-protector-buffer-size"="8" "target-cpu"="x86-64" "target-features"="+cx8,+fxsr,+mmx,+sse,+sse2,+x87" "tune-cpu"="generic" }
attributes #7 = { mustprogress noinline nounwind uwtable "frame-pointer"="all" "min-legal-vector-width"="0" "no-trapping-math"="true" "stack-protector-buffer-size"="8" "target-cpu"="x86-64" "target-features"="+cx8,+fxsr,+mmx,+sse,+sse2,+x87" "tune-cpu"="generic" }
attributes #8 = { nobuiltin nounwind "frame-pointer"="all" "no-trapping-math"="true" "stack-protector-buffer-size"="8" "target-cpu"="x86-64" "target-features"="+cx8,+fxsr,+mmx,+sse,+sse2,+x87" "tune-cpu"="generic" }
attributes #9 = { argmemonly nofree nounwind willreturn }
attributes #10 = { noreturn "frame-pointer"="all" "no-trapping-math"="true" "stack-protector-buffer-size"="8" "target-cpu"="x86-64" "target-features"="+cx8,+fxsr,+mmx,+sse,+sse2,+x87" "tune-cpu"="generic" }
attributes #11 = { nobuiltin allocsize(0) "frame-pointer"="all" "no-trapping-math"="true" "stack-protector-buffer-size"="8" "target-cpu"="x86-64" "target-features"="+cx8,+fxsr,+mmx,+sse,+sse2,+x87" "tune-cpu"="generic" }
attributes #12 = { noinline noreturn nounwind }
attributes #13 = { noreturn nounwind }
attributes #14 = { noreturn }
attributes #15 = { allocsize(0) }

!llvm.ident = !{!0}
!llvm.module.flags = !{!1, !2, !3}

!0 = !{!"clang version 13.0.0 (https://github.com/llvm/llvm-project.git d7b669b3a30345cfcdb2fde2af6f48aa4b94845d)"}
!1 = !{i32 1, !"wchar_size", i32 4}
!2 = !{i32 7, !"uwtable", i32 1}
!3 = !{i32 7, !"frame-pointer", i32 2}
!4 = !{i64 1}
!5 = !{i64 2}
!6 = !{i64 3}
!7 = !{i64 4}
!8 = !{i64 5}
!9 = !{i64 6}
!10 = !{i64 7}
!11 = !{i64 8}
!12 = !{i64 9}
!13 = !{i64 10}
!14 = !{i64 11}
!15 = !{i64 12}
!16 = !{i64 13}
!17 = !{i64 14}
!18 = !{i64 15}
!19 = !{i64 16}
!20 = !{i64 17}
!21 = !{i64 18}
!22 = !{i64 19}
!23 = !{i64 20}
!24 = !{i64 21}
!25 = !{i64 22}
!26 = !{i64 23}
!27 = !{i64 24}
!28 = !{i64 25}
!29 = !{i64 26}
!30 = !{i64 27}
!31 = !{i64 28}
!32 = !{i64 29}
!33 = !{i64 30}
!34 = !{i64 31}
!35 = !{i64 32}
!36 = !{i64 33}
!37 = !{i64 34}
!38 = !{i64 35}
!39 = !{i64 36}
!40 = !{i64 37}
!41 = !{i64 38}
!42 = !{i64 39}
!43 = !{i64 40}
!44 = !{i64 41}
!45 = distinct !{!45, !46}
!46 = !{!"llvm.loop.mustprogress"}
!47 = !{i64 42}
!48 = !{i64 43}
!49 = !{i64 44}
!50 = !{i64 45}
!51 = !{i64 46}
!52 = !{i64 47}
!53 = !{i64 48}
!54 = !{i64 49}
!55 = !{i64 50}
!56 = !{i64 51}
!57 = !{i64 52}
!58 = !{i64 53}
!59 = !{i64 54}
!60 = !{i64 55}
!61 = !{i64 56}
!62 = !{i64 57}
!63 = !{i64 58}
!64 = !{i64 59}
!65 = !{i64 60}
!66 = !{i64 61}
!67 = !{i64 62}
!68 = !{i64 63}
!69 = !{i64 64}
!70 = !{i64 65}
!71 = !{i64 66}
!72 = !{i64 67}
!73 = !{i64 68}
!74 = !{i64 69}
!75 = !{i64 70}
!76 = !{i64 71}
!77 = !{i64 72}
!78 = !{i64 73}
!79 = !{i64 74}
!80 = !{i64 75}
!81 = !{i64 76}
!82 = !{i64 77}
!83 = !{i64 78}
!84 = !{i64 79}
!85 = !{i64 80}
!86 = !{i64 81}
!87 = !{i64 82}
!88 = !{i64 83}
!89 = !{i64 84}
!90 = !{i64 85}
!91 = !{i64 86}
!92 = !{i64 87}
!93 = !{i64 88}
!94 = !{i64 89}
!95 = !{i64 90}
!96 = !{i64 91}
!97 = !{i64 92}
!98 = !{i64 93}
!99 = !{i64 94}
!100 = !{i64 95}
!101 = !{i64 96}
!102 = !{i64 97}
!103 = !{i64 98}
!104 = !{i64 99}
!105 = !{i64 100}
!106 = !{i64 101}
!107 = !{i64 102}
!108 = !{i64 103}
!109 = !{i64 104}
!110 = !{i64 105}
!111 = !{i64 106}
!112 = !{i64 107}
!113 = !{i64 108}
!114 = !{i64 109}
!115 = !{i64 110}
!116 = !{i64 111}
!117 = !{i64 112}
!118 = !{i64 113}
!119 = !{i64 114}
!120 = !{i64 115}
!121 = !{i64 116}
!122 = !{i64 117}
!123 = !{i64 118}
!124 = !{i64 119}
!125 = !{i64 120}
!126 = !{i64 121}
!127 = !{i64 122}
!128 = !{i64 123}
!129 = !{i64 124}
!130 = !{i64 125}
!131 = !{i64 126}
!132 = !{i64 127}
!133 = !{i64 128}
!134 = !{i64 129}
!135 = !{i64 130}
!136 = !{i64 131}
!137 = !{i64 132}
!138 = !{i64 133}
!139 = !{i64 134}
!140 = !{i64 135}
!141 = distinct !{!141, !46}
!142 = !{i64 136}
!143 = !{i64 137}
!144 = !{i64 138}
!145 = !{i64 139}
!146 = !{i64 140}
!147 = !{i64 141}
!148 = !{i64 142}
!149 = !{i64 143}
!150 = !{i64 144}
!151 = !{i64 145}
!152 = !{i64 146}
!153 = !{i64 147}
!154 = !{i64 148}
!155 = !{i64 149}
!156 = !{i64 150}
!157 = !{i64 151}
!158 = !{i64 152}
!159 = !{i64 153}
!160 = distinct !{!160, !46}
!161 = !{i64 154}
!162 = !{i64 155}
!163 = !{i64 156}
!164 = !{i64 157}
!165 = !{i64 158}
!166 = !{i64 159}
!167 = !{i64 160}
!168 = !{i64 161}
!169 = !{i64 162}
!170 = !{i64 163}
!171 = !{i64 164}
!172 = !{i64 165}
!173 = !{i64 166}
!174 = !{i64 167}
!175 = !{i64 168}
!176 = !{i64 169}
!177 = !{i64 170}
!178 = !{i64 171}
!179 = !{i64 172}
!180 = !{i64 173}
!181 = !{i64 174}
!182 = !{i64 175}
!183 = !{i64 176}
!184 = !{i64 177}
!185 = !{i64 178}
!186 = !{i64 179}
!187 = !{i64 180}
!188 = distinct !{!188, !46}
!189 = !{i64 181}
!190 = !{i64 182}
!191 = !{i64 183}
!192 = !{i64 184}
!193 = !{i64 185}
!194 = !{i64 186}
!195 = !{i64 187}
!196 = !{i64 188}
!197 = !{i64 189}
!198 = !{i64 190}
!199 = !{i64 191}
!200 = !{i64 192}
!201 = !{i64 193}
!202 = !{i64 194}
!203 = !{i64 195}
!204 = !{i64 196}
!205 = !{i64 197}
!206 = !{i64 198}
!207 = !{i64 199}
!208 = !{i64 200}
!209 = !{i64 201}
!210 = !{i64 202}
!211 = !{i64 203}
!212 = !{i64 204}
!213 = !{i64 205}
!214 = !{i64 206}
!215 = !{i64 207}
!216 = !{i64 208}
!217 = !{i64 209}
!218 = !{i64 210}
!219 = !{i64 211}
!220 = !{i64 212}
!221 = !{i64 213}
!222 = !{i64 214}
!223 = !{i64 215}
!224 = !{i64 216}
!225 = !{i64 217}
!226 = !{i64 218}
!227 = !{i64 219}
!228 = !{i64 220}
!229 = !{i64 221}
!230 = !{i64 222}
!231 = !{i64 223}
!232 = !{i64 224}
!233 = !{i64 225}
!234 = !{i64 226}
!235 = !{i64 227}
!236 = !{i64 228}
!237 = !{i64 229}
!238 = !{i64 230}
!239 = !{i64 231}
!240 = !{i64 232}
!241 = !{i64 233}
!242 = !{i64 234}
!243 = !{i64 235}
!244 = !{i64 236}
!245 = !{i64 237}
!246 = !{i64 238}
!247 = !{i64 239}
!248 = !{i64 240}
!249 = !{i64 241}
!250 = !{i64 242}
!251 = !{i64 243}
!252 = !{i64 244}
!253 = !{i64 245}
!254 = !{i64 246}
!255 = !{i64 247}
!256 = !{i64 248}
!257 = !{i64 249}
!258 = !{i64 250}
!259 = !{i64 251}
!260 = !{i64 252}
!261 = !{i64 253}
!262 = !{i64 254}
!263 = !{i64 255}
!264 = !{i64 256}
!265 = !{i64 257}
!266 = !{i64 258}
!267 = !{i64 259}
!268 = !{i64 260}
!269 = !{i64 261}
!270 = !{i64 262}
!271 = !{i64 263}
!272 = !{i64 264}
!273 = !{i64 265}
!274 = !{i64 266}
!275 = !{i64 267}
!276 = !{i64 268}
!277 = !{i64 269}
!278 = !{i64 270}
!279 = !{i64 271}
!280 = !{i64 272}
!281 = !{i64 273}
!282 = !{i64 274}
!283 = !{i64 275}
!284 = !{i64 276}
!285 = !{i64 277}
!286 = !{i64 278}
!287 = !{i64 279}
!288 = !{i64 280}
!289 = !{i64 281}
!290 = !{i64 282}
!291 = !{i64 283}
!292 = !{i64 284}
!293 = !{i64 285}
!294 = !{i64 286}
!295 = !{i64 287}
!296 = !{i64 288}
!297 = !{i64 289}
!298 = !{i64 290}
!299 = !{i64 291}
!300 = !{i64 292}
!301 = !{i64 293}
!302 = !{i64 294}
!303 = !{i64 295}
!304 = !{i64 296}
!305 = !{i64 297}
!306 = !{i64 298}
!307 = !{i64 299}
!308 = !{i64 300}
!309 = !{i64 301}
!310 = !{i64 302}
!311 = !{i64 303}
!312 = !{i64 304}
!313 = !{i64 305}
!314 = !{i64 306}
!315 = !{i64 307}
!316 = !{i64 308}
!317 = !{i64 309}
!318 = !{i64 310}
!319 = !{i64 311}
!320 = !{i64 312}
!321 = !{i64 313}
!322 = !{i64 314}
!323 = !{i64 315}
!324 = !{i64 316}
!325 = !{i64 317}
!326 = !{i64 318}
!327 = !{i64 319}
!328 = !{i64 320}
!329 = !{i64 321}
!330 = !{i64 322}
!331 = !{i64 323}
!332 = !{i64 324}
!333 = !{i64 325}
!334 = !{i64 326}
!335 = !{i64 327}
!336 = !{i64 328}
!337 = !{i64 329}
!338 = !{i64 330}
!339 = !{i64 331}
!340 = !{i64 332}
!341 = !{i64 333}
!342 = !{i64 334}
!343 = !{i64 335}
!344 = !{i64 336}
!345 = !{i64 337}
!346 = !{i64 338}
!347 = !{i64 339}
!348 = !{i64 340}
!349 = !{i64 341}
!350 = !{i64 342}
!351 = !{i64 343}
!352 = !{i64 344}
!353 = !{i64 345}
!354 = !{i64 346}
!355 = !{i64 347}
!356 = !{i64 348}
!357 = !{i64 349}
!358 = !{i64 350}
!359 = !{i64 351}
!360 = !{i64 352}
!361 = !{i64 353}
!362 = !{i64 354}
!363 = !{i64 355}
!364 = !{i64 356}
!365 = !{i64 357}
!366 = !{i64 358}
!367 = !{i64 359}
!368 = !{i64 360}
!369 = !{i64 361}
!370 = !{i64 362}
!371 = !{i64 363}
!372 = !{i64 364}
!373 = !{i64 365}
!374 = !{i64 366}
!375 = !{i64 367}
!376 = !{i64 368}
!377 = !{i64 369}
!378 = !{i64 370}
!379 = !{i64 371}
!380 = !{i64 372}
!381 = !{i64 373}
!382 = !{i64 374}
!383 = !{i64 375}
!384 = !{i64 376}
!385 = !{i64 377}
!386 = !{i64 378}
!387 = !{i64 379}
!388 = !{i64 380}
!389 = !{i64 381}
!390 = !{i64 382}
!391 = !{i64 383}
!392 = !{i64 384}
!393 = !{i64 385}
!394 = !{i64 386}
!395 = !{i64 387}
!396 = !{i64 388}
!397 = !{i64 389}
!398 = !{i64 390}
!399 = !{i64 391}
!400 = !{i64 392}
!401 = !{i64 393}
!402 = !{i64 394}
!403 = !{i64 395}
!404 = !{i64 396}
!405 = !{i64 397}
!406 = !{i64 398}
!407 = !{i64 399}
!408 = !{i64 400}
!409 = !{i64 401}
!410 = !{i64 402}
!411 = !{i64 403}
!412 = !{i64 404}
!413 = !{i64 405}
!414 = !{i64 406}
!415 = !{i64 407}
!416 = !{i64 408}
!417 = !{i64 409}
!418 = !{i64 410}
!419 = !{i64 411}
!420 = !{i64 412}
!421 = !{i64 413}
!422 = !{i64 414}
!423 = !{i64 415}
!424 = !{i64 416}
!425 = !{i64 417}
!426 = !{i64 418}
!427 = !{i64 419}
!428 = !{i64 420}
!429 = !{i64 421}
!430 = !{i64 422}
!431 = !{i64 423}
!432 = !{i64 424}
!433 = !{i64 425}
!434 = !{i64 426}
!435 = !{i64 427}
!436 = !{i64 428}
!437 = !{i64 429}
!438 = !{i64 430}
!439 = !{i64 431}
!440 = !{i64 432}
!441 = !{i64 433}
!442 = !{i64 434}
!443 = !{i64 435}
!444 = !{i64 436}
!445 = !{i64 437}
!446 = !{i64 438}
!447 = !{i64 439}
!448 = !{i64 440}
!449 = !{i64 441}
!450 = !{i64 442}
!451 = !{i64 443}
!452 = !{i64 444}
!453 = !{i64 445}
!454 = !{i64 446}
!455 = !{i64 447}
!456 = !{i64 448}
!457 = !{i64 449}
!458 = !{i64 450}
!459 = !{i64 451}
!460 = !{i64 452}
!461 = !{i64 453}
!462 = !{i64 454}
!463 = !{i64 455}
!464 = !{i64 456}
!465 = !{i64 457}
!466 = !{i64 458}
!467 = !{i64 459}
!468 = !{i64 460}
!469 = !{i64 461}
!470 = !{i64 462}
!471 = !{i64 463}
!472 = !{i64 464}
!473 = !{i64 465}
!474 = !{i64 466}
!475 = !{i64 467}
!476 = !{i64 468}
!477 = !{i64 469}
!478 = !{i64 470}
!479 = !{i64 471}
!480 = !{i64 472}
!481 = !{i64 473}
!482 = !{i64 474}
!483 = !{i64 475}
!484 = !{i64 476}
!485 = !{i64 477}
!486 = !{i64 478}
!487 = !{i64 479}
!488 = !{i64 480}
!489 = !{i64 481}
!490 = !{i64 482}
!491 = !{i64 483}
!492 = !{i64 484}
!493 = !{i64 485}
!494 = !{i64 486}
!495 = !{i64 487}
!496 = !{i64 488}
!497 = !{i64 489}
!498 = !{i64 490}
!499 = !{i64 491}
!500 = !{i64 492}
!501 = !{i64 493}
!502 = !{i64 494}
!503 = !{i64 495}
!504 = !{i64 496}
!505 = !{i64 497}
!506 = !{i64 498}
!507 = !{i64 499}
!508 = !{i64 500}
!509 = !{i64 501}
!510 = !{i64 502}
!511 = !{i64 503}
!512 = !{i64 504}
!513 = !{i64 505}
!514 = !{i64 506}
!515 = !{i64 507}
!516 = !{i64 508}
!517 = !{i64 509}
!518 = !{i64 510}
!519 = !{i64 511}
!520 = !{i64 512}
!521 = !{i64 513}
!522 = !{i64 514}
!523 = !{i64 515}
!524 = !{i64 516}
!525 = !{i64 517}
!526 = !{i64 518}
!527 = !{i64 519}
!528 = !{i64 520}
!529 = !{i64 521}
!530 = !{i64 522}
!531 = !{i64 523}
!532 = !{i64 524}
!533 = !{i64 525}
!534 = !{i64 526}
!535 = !{i64 527}
!536 = !{i64 528}
!537 = !{i64 529}
!538 = !{i64 530}
!539 = !{i64 531}
!540 = !{i64 532}
!541 = !{i64 533}
!542 = !{i64 534}
!543 = !{i64 535}
!544 = !{i64 536}
!545 = !{i64 537}
!546 = !{i64 538}
!547 = !{i64 539}
!548 = !{i64 540}
!549 = !{i64 541}
!550 = !{i64 542}
!551 = !{i64 543}
!552 = !{i64 544}
!553 = !{i64 545}
!554 = !{i64 546}
!555 = !{i64 547}
!556 = !{i64 548}
!557 = !{i64 549}
!558 = !{i64 550}
!559 = !{i64 551}
!560 = !{i64 552}
!561 = !{i64 553}
!562 = !{i64 554}
!563 = !{i64 555}
!564 = !{i64 556}
!565 = !{i64 557}
!566 = !{i64 558}
!567 = !{i64 559}
!568 = !{i64 560}
!569 = !{i64 561}
!570 = !{i64 562}
!571 = !{i64 563}
!572 = !{i64 564}
!573 = !{i64 565}
!574 = !{i64 566}
!575 = !{i64 567}
!576 = !{i64 568}
!577 = !{i64 569}
!578 = !{i64 570}
!579 = !{i64 571}
!580 = !{i64 572}
!581 = !{i64 573}
!582 = !{i64 574}
!583 = !{i64 575}
!584 = !{i64 576}
!585 = !{i64 577}
!586 = !{i64 578}
!587 = !{i64 579}
!588 = !{i64 580}
!589 = !{i64 581}
!590 = !{i64 582}
!591 = !{i64 583}
!592 = !{i64 584}
!593 = !{i64 585}
!594 = !{i64 586}
!595 = !{i64 587}
!596 = !{i64 588}
!597 = !{i64 589}
!598 = !{i64 590}
!599 = !{i64 591}
!600 = !{i64 592}
!601 = !{i64 593}
!602 = !{i64 594}
!603 = !{i64 595}
!604 = !{i64 596}
!605 = !{i64 597}
!606 = !{i64 598}
!607 = !{i64 599}
!608 = !{i64 600}
!609 = !{i64 601}
!610 = !{i64 602}
!611 = !{i64 603}
!612 = !{i64 604}
!613 = !{i64 605}
!614 = !{i64 606}
!615 = !{i64 607}
!616 = !{i64 608}
!617 = !{i64 609}
!618 = !{i64 610}
!619 = !{i64 611}
!620 = !{i64 612}
!621 = !{i64 613}
!622 = !{i64 614}
!623 = !{i64 615}
!624 = !{i64 616}
!625 = !{i64 617}
!626 = !{i64 618}
!627 = !{i64 619}
!628 = !{i64 620}
!629 = !{i64 621}
!630 = !{i64 622}
!631 = !{i64 623}
!632 = !{i64 624}
!633 = !{i64 625}
!634 = !{i64 626}
!635 = !{i64 627}
!636 = !{i64 628}
!637 = !{i64 629}
!638 = !{i64 630}
!639 = !{i64 631}
!640 = !{i64 632}
!641 = !{i64 633}
!642 = !{i64 634}
!643 = !{i64 635}
!644 = !{i64 636}
!645 = !{i64 637}
!646 = !{i64 638}
!647 = !{i64 639}
!648 = !{i64 640}
!649 = !{i64 641}
!650 = !{i64 642}
!651 = !{i64 643}
!652 = !{i64 644}
!653 = !{i64 645}
!654 = !{i64 646}
!655 = !{i64 647}
!656 = !{i64 648}
!657 = !{i64 649}
!658 = !{i64 650}
!659 = !{i64 651}
!660 = !{i64 652}
!661 = !{i64 653}
!662 = !{i64 654}
!663 = !{i64 655}
!664 = !{i64 656}
!665 = !{i64 657}
!666 = !{i64 658}
!667 = !{i64 659}
!668 = !{i64 660}
!669 = !{i64 661}
!670 = !{i64 662}
!671 = !{i64 663}
!672 = !{i64 664}
!673 = !{i64 665}
!674 = !{i64 666}
!675 = !{i64 667}
!676 = !{i64 668}
!677 = !{i64 669}
!678 = !{i64 670}
!679 = !{i64 671}
!680 = !{i64 672}
!681 = !{i64 673}
!682 = !{i64 674}
!683 = !{i64 675}
!684 = !{i64 676}
!685 = !{i64 677}
!686 = !{i64 678}
!687 = !{i64 679}
!688 = !{i64 680}
!689 = !{i64 681}
!690 = !{i64 682}
!691 = !{i64 683}
!692 = !{i64 684}
!693 = !{i64 685}
!694 = !{i64 686}
!695 = !{i64 687}
!696 = !{i64 688}
!697 = !{i64 689}
!698 = !{i64 690}
!699 = !{i64 691}
!700 = !{i64 692}
!701 = !{i64 693}
!702 = !{i64 694}
!703 = !{i64 695}
!704 = !{i64 696}
!705 = !{i64 697}
!706 = !{i64 698}
!707 = !{i64 699}
!708 = !{i64 700}
!709 = !{i64 701}
!710 = !{i64 702}
!711 = !{i64 703}
!712 = !{i64 704}
!713 = !{i64 705}
!714 = !{i64 706}
!715 = !{i64 707}
!716 = !{i64 708}
!717 = !{i64 709}
!718 = !{i64 710}
!719 = !{i64 711}
!720 = !{i64 712}
!721 = !{i64 713}
!722 = !{i64 714}
!723 = !{i64 715}
!724 = !{i64 716}
!725 = !{i64 717}
!726 = !{i64 718}
!727 = !{i64 719}
!728 = !{i64 720}
!729 = !{i64 721}
!730 = !{i64 722}
!731 = !{i64 723}
!732 = !{i64 724}
!733 = !{i64 725}
!734 = !{i64 726}
!735 = !{i64 727}
!736 = !{i64 728}
!737 = !{i64 729}
!738 = !{i64 730}
!739 = !{i64 731}
!740 = !{i64 732}
!741 = !{i64 733}
!742 = !{i64 734}
!743 = !{i64 735}
!744 = !{i64 736}
!745 = !{i64 737}
!746 = !{i64 738}
!747 = !{i64 739}
!748 = !{i64 740}
!749 = !{i64 741}
!750 = !{i64 742}
!751 = !{i64 743}
!752 = !{i64 744}
!753 = !{i64 745}
!754 = !{i64 746}
!755 = !{i64 747}
!756 = !{i64 748}
!757 = !{i64 749}
!758 = !{i64 750}
!759 = !{i64 751}
!760 = !{i64 752}
!761 = !{i64 753}
!762 = !{i64 754}
!763 = !{i64 755}
!764 = !{i64 756}
!765 = !{i64 757}
!766 = !{i64 758}
!767 = !{i64 759}
!768 = !{i64 760}
!769 = !{i64 761}
!770 = !{i64 762}
!771 = !{i64 763}
!772 = !{i64 764}
!773 = !{i64 765}
!774 = !{i64 766}
!775 = !{i64 767}
!776 = !{i64 768}
!777 = !{i64 769}
!778 = !{i64 770}
!779 = !{i64 771}
!780 = !{i64 772}
!781 = !{i64 773}
!782 = !{i64 774}
!783 = !{i64 775}
!784 = !{i64 776}
!785 = !{i64 777}
!786 = !{i64 778}
!787 = !{i64 779}
!788 = !{i64 780}
!789 = !{i64 781}
!790 = !{i64 782}
!791 = !{i64 783}
!792 = !{i64 784}
!793 = !{i64 785}
!794 = !{i64 786}
!795 = !{i64 787}
!796 = !{i64 788}
!797 = !{i64 789}
!798 = !{i64 790}
!799 = !{i64 791}
!800 = !{i64 792}
!801 = !{i64 793}
!802 = !{i64 794}
!803 = !{i64 795}
!804 = !{i64 796}
!805 = !{i64 797}
!806 = !{i64 798}
!807 = !{i64 799}
!808 = !{i64 800}
!809 = !{i64 801}
!810 = !{i64 802}
!811 = !{i64 803}
!812 = !{i64 804}
!813 = !{i64 805}
!814 = !{i64 806}
!815 = !{i64 807}
!816 = !{i64 808}
!817 = !{i64 809}
!818 = !{i64 810}
!819 = !{i64 811}
!820 = !{i64 812}
!821 = !{i64 813}
!822 = !{i64 814}
!823 = !{i64 815}
!824 = !{i64 816}
!825 = !{i64 817}
!826 = !{i64 818}
!827 = !{i64 819}
!828 = !{i64 820}
!829 = !{i64 821}
!830 = !{i64 822}
!831 = !{i64 823}
!832 = !{i64 824}
!833 = !{i64 825}
!834 = !{i64 826}
!835 = !{i64 827}
!836 = !{i64 828}
!837 = !{i64 829}
!838 = !{i64 830}
!839 = !{i64 831}
!840 = !{i64 832}
!841 = !{i64 833}
!842 = !{i64 834}
!843 = !{i64 835}
!844 = !{i64 836}
!845 = !{i64 837}
!846 = !{i64 838}
!847 = !{i64 839}
!848 = !{i64 840}
!849 = !{i64 841}
!850 = !{i64 842}
!851 = !{i64 843}
!852 = !{i64 844}
!853 = !{i64 845}
!854 = !{i64 846}
!855 = !{i64 847}
!856 = !{i64 848}
!857 = !{i64 849}
!858 = !{i64 850}
!859 = !{i64 851}
!860 = !{i64 852}
!861 = !{i64 853}
!862 = !{i64 854}
!863 = !{i64 855}
!864 = !{i64 856}
!865 = !{i64 857}
!866 = !{i64 858}
!867 = !{i64 859}
!868 = !{i64 860}
!869 = !{i64 861}
!870 = !{i64 862}
!871 = !{i64 863}
!872 = !{i64 864}
!873 = !{i64 865}
!874 = !{i64 866}
!875 = !{i64 867}
!876 = !{i64 868}
!877 = !{i64 869}
!878 = !{i64 870}
!879 = !{i64 871}
!880 = !{i64 872}
!881 = !{i64 873}
!882 = !{i64 874}
!883 = !{i64 875}
!884 = !{i64 876}
!885 = !{i64 877}
!886 = !{i64 878}
!887 = !{i64 879}
!888 = !{i64 880}
!889 = !{i64 881}
!890 = !{i64 882}
!891 = !{i64 883}
!892 = !{i64 884}
!893 = !{i64 885}
!894 = !{i64 886}
!895 = !{i64 887}
!896 = !{i64 888}
!897 = !{i64 889}
!898 = !{i64 890}
!899 = !{i64 891}
!900 = !{i64 892}
!901 = !{i64 893}
!902 = !{i64 894}
!903 = !{i64 895}
!904 = !{i64 896}
!905 = !{i64 897}
!906 = !{i64 898}
!907 = !{i64 899}
!908 = !{i64 900}
!909 = !{i64 901}
!910 = !{i64 902}
!911 = !{i64 903}
!912 = !{i64 904}
!913 = !{i64 905}
!914 = !{i64 906}
!915 = !{i64 907}
!916 = !{i64 908}
!917 = !{i64 909}
!918 = !{i64 910}
!919 = !{i64 911}
!920 = !{i64 912}
!921 = !{i64 913}
!922 = !{i64 914}
!923 = !{i64 915}
!924 = !{i64 916}
!925 = !{i64 917}
!926 = !{i64 918}
!927 = !{i64 919}
!928 = !{i64 920}
!929 = !{i64 921}
!930 = !{i64 922}
!931 = !{i64 923}
!932 = !{i64 924}
!933 = !{i64 925}
!934 = !{i64 926}
!935 = !{i64 927}
!936 = !{i64 928}
!937 = !{i64 929}
!938 = !{i64 930}
!939 = !{i64 931}
!940 = !{i64 932}
!941 = !{i64 933}
!942 = !{i64 934}
!943 = !{i64 935}
!944 = !{i64 936}
!945 = !{i64 937}
!946 = !{i64 938}
!947 = !{i64 939}
!948 = !{i64 940}
!949 = !{i64 941}
!950 = !{i64 942}
!951 = !{i64 943}
!952 = !{i64 944}
!953 = !{i64 945}
!954 = !{i64 946}
!955 = !{i64 947}
!956 = !{i64 948}
!957 = !{i64 949}
!958 = !{i64 950}
!959 = !{i64 951}
!960 = !{i64 952}
!961 = !{i64 953}
!962 = !{i64 954}
!963 = !{i64 955}
!964 = !{i64 956}
!965 = !{i64 957}
!966 = !{i64 958}
!967 = !{i64 959}
!968 = !{i64 960}
!969 = !{i64 961}
!970 = !{i64 962}
!971 = !{i64 963}
!972 = !{i64 964}
!973 = !{i64 965}
!974 = !{i64 966}
!975 = !{i64 967}
!976 = !{i64 968}
!977 = !{i64 969}
!978 = !{i64 970}
!979 = !{i64 971}
!980 = !{i64 972}
!981 = !{i64 973}
!982 = !{i64 974}
!983 = !{i64 975}
!984 = !{i64 976}
!985 = !{i64 977}
!986 = !{i64 978}
!987 = !{i64 979}
!988 = !{i64 980}
!989 = !{i64 981}
!990 = !{i64 982}
!991 = !{i64 983}
!992 = !{i64 984}
!993 = !{i64 985}
!994 = !{i64 986}
!995 = !{i64 987}
!996 = !{i64 988}
!997 = !{i64 989}
!998 = !{i64 990}
!999 = !{i64 991}
!1000 = !{i64 992}
!1001 = !{i64 993}
!1002 = !{i64 994}
!1003 = !{i64 995}
!1004 = !{i64 996}
!1005 = !{i64 997}
!1006 = !{i64 998}
!1007 = !{i64 999}
!1008 = !{i64 1000}
!1009 = !{i64 1001}
!1010 = !{i64 1002}
!1011 = !{i64 1003}
!1012 = !{i64 1004}
!1013 = !{i64 1005}
!1014 = !{i64 1006}
!1015 = !{i64 1007}
!1016 = !{i64 1008}
!1017 = !{i64 1009}
!1018 = !{i64 1010}
!1019 = !{i64 1011}
!1020 = !{i64 1012}
!1021 = !{i64 1013}
!1022 = !{i64 1014}
!1023 = !{i64 1015}
!1024 = !{i64 1016}
!1025 = !{i64 1017}
!1026 = !{i64 1018}
!1027 = !{i64 1019}
!1028 = !{i64 1020}
!1029 = !{i64 1021}
!1030 = !{i64 1022}
!1031 = !{i64 1023}
!1032 = !{i64 1024}
!1033 = !{i64 1025}
!1034 = !{i64 1026}
!1035 = !{i64 1027}
!1036 = !{i64 1028}
!1037 = !{i64 1029}
!1038 = !{i64 1030}
!1039 = !{i64 1031}
!1040 = !{i64 1032}
!1041 = !{i64 1033}
!1042 = !{i64 1034}
!1043 = !{i64 1035}
!1044 = !{i64 1036}
!1045 = !{i64 1037}
!1046 = !{i64 1038}
!1047 = !{i64 1039}
!1048 = !{i64 1040}
!1049 = !{i64 1041}
!1050 = !{i64 1042}
!1051 = !{i64 1043}
!1052 = !{i64 1044}
!1053 = !{i64 1045}
!1054 = !{i64 1046}
!1055 = !{i64 1047}
!1056 = !{i64 1048}
!1057 = !{i64 1049}
!1058 = !{i64 1050}
!1059 = !{i64 1051}
!1060 = !{i64 1052}
!1061 = !{i64 1053}
!1062 = !{i64 1054}
!1063 = !{i64 1055}
!1064 = !{i64 1056}
!1065 = !{i64 1057}
!1066 = !{i64 1058}
!1067 = !{i64 1059}
!1068 = !{i64 1060}
!1069 = !{i64 1061}
!1070 = !{i64 1062}
!1071 = !{i64 1063}
!1072 = !{i64 1064}
!1073 = !{i64 1065}
!1074 = !{i64 1066}
!1075 = !{i64 1067}
!1076 = !{i64 1068}
!1077 = !{i64 1069}
!1078 = !{i64 1070}
!1079 = !{i64 1071}
!1080 = !{i64 1072}
!1081 = !{i64 1073}
!1082 = !{i64 1074}
!1083 = !{i64 1075}
!1084 = !{i64 1076}
!1085 = !{i64 1077}
!1086 = !{i64 1078}
!1087 = !{i64 1079}
!1088 = !{i64 1080}
!1089 = !{i64 1081}
!1090 = !{i64 1082}
!1091 = !{i64 1083}
!1092 = !{i64 1084}
!1093 = !{i64 1085}
!1094 = !{i64 1086}
!1095 = !{i64 1087}
!1096 = !{i64 1088}
!1097 = !{i64 1089}
!1098 = !{i64 1090}
!1099 = !{i64 1091}
!1100 = !{i64 1092}
!1101 = !{i64 1093}
!1102 = !{i64 1094}
!1103 = !{i64 1095}
!1104 = !{i64 1096}
!1105 = !{i64 1097}
!1106 = !{i64 1098}
!1107 = !{i64 1099}
!1108 = !{i64 1100}
!1109 = !{i64 1101}
!1110 = !{i64 1102}
!1111 = !{i64 1103}
!1112 = !{i64 1104}
!1113 = !{i64 1105}
!1114 = !{i64 1106}
!1115 = !{i64 1107}
!1116 = !{i64 1108}
!1117 = !{i64 1109}
!1118 = !{i64 1110}
!1119 = !{i64 1111}
!1120 = !{i64 1112}
!1121 = !{i64 1113}
!1122 = !{i64 1114}
!1123 = !{i64 1115}
!1124 = !{i64 1116}
!1125 = !{i64 1117}
!1126 = !{i64 1118}
!1127 = !{i64 1119}
!1128 = !{i64 1120}
!1129 = !{i64 1121}
!1130 = !{i64 1122}
!1131 = !{i64 1123}
!1132 = !{i64 1124}
!1133 = !{i64 1125}
!1134 = !{i64 1126}
!1135 = !{i64 1127}
!1136 = !{i64 1128}
!1137 = !{i64 1129}
!1138 = !{i64 1130}
!1139 = !{i64 1131}
!1140 = !{i64 1132}
!1141 = !{i64 1133}
!1142 = !{i64 1134}
!1143 = !{i64 1135}
!1144 = !{i64 1136}
!1145 = !{i64 1137}
!1146 = !{i64 1138}
!1147 = !{i64 1139}
!1148 = !{i64 1140}
!1149 = !{i64 1141}
!1150 = !{i64 1142}
!1151 = !{i64 1143}
!1152 = !{i64 1144}
!1153 = !{i64 1145}
!1154 = !{i64 1146}
!1155 = !{i64 1147}
!1156 = !{i64 1148}
!1157 = !{i64 1149}
!1158 = !{i64 1150}
!1159 = !{i64 1151}
!1160 = !{i64 1152}
!1161 = !{i64 1153}
!1162 = !{i64 1154}
!1163 = !{i64 1155}
!1164 = !{i64 1156}
!1165 = !{i64 1157}
!1166 = !{i64 1158}
!1167 = !{i64 1159}
!1168 = !{i64 1160}
!1169 = !{i64 1161}
!1170 = !{i64 1162}
!1171 = !{i64 1163}
!1172 = !{i64 1164}
!1173 = !{i64 1165}
!1174 = !{i64 1166}
!1175 = !{i64 1167}
!1176 = !{i64 1168}
!1177 = !{i64 1169}
!1178 = !{i64 1170}
!1179 = !{i64 1171}
!1180 = !{i64 1172}
!1181 = !{i64 1173}
!1182 = !{i64 1174}
!1183 = !{i64 1175}
!1184 = !{i64 1176}
!1185 = !{i64 1177}
!1186 = !{i64 1178}
!1187 = !{i64 1179}
!1188 = !{i64 1180}
!1189 = !{i64 1181}
!1190 = !{i64 1182}
!1191 = !{i64 1183}
!1192 = !{i64 1184}
!1193 = !{i64 1185}
!1194 = !{i64 1186}
!1195 = !{i64 1187}
!1196 = !{i64 1188}
!1197 = !{i64 1189}
!1198 = !{i64 1190}
!1199 = !{i64 1191}
!1200 = !{i64 1192}
!1201 = !{i64 1193}
!1202 = !{i64 1194}
!1203 = !{i64 1195}
!1204 = !{i64 1196}
!1205 = !{i64 1197}
!1206 = !{i64 1198}
!1207 = !{i64 1199}
!1208 = !{i64 1200}
!1209 = !{i64 1201}
!1210 = !{i64 1202}
!1211 = !{i64 1203}
!1212 = !{i64 1204}
!1213 = !{i64 1205}
!1214 = !{i64 1206}
!1215 = !{i64 1207}
!1216 = !{i64 1208}
!1217 = !{i64 1209}
!1218 = !{i64 1210}
!1219 = !{i64 1211}
!1220 = !{i64 1212}
!1221 = !{i64 1213}
!1222 = !{i64 1214}
!1223 = !{i64 1215}
!1224 = !{i64 1216}
!1225 = !{i64 1217}
!1226 = !{i64 1218}
!1227 = !{i64 1219}
!1228 = !{i64 1220}
!1229 = !{i64 1221}
!1230 = !{i64 1222}
!1231 = !{i64 1223}
!1232 = !{i64 1224}
!1233 = !{i64 1225}
!1234 = !{i64 1226}
!1235 = !{i64 1227}
!1236 = !{i64 1228}
!1237 = !{i64 1229}
!1238 = !{i64 1230}
!1239 = !{i64 1231}
!1240 = !{i64 1232}
!1241 = !{i64 1233}
!1242 = !{i64 1234}
!1243 = !{i64 1235}
!1244 = !{i64 1236}
!1245 = !{i64 1237}
!1246 = !{i64 1238}
!1247 = !{i64 1239}
!1248 = !{i64 1240}
!1249 = !{i64 1241}
!1250 = !{i64 1242}
!1251 = !{i64 1243}
!1252 = !{i64 1244}
!1253 = !{i64 1245}
!1254 = !{i64 1246}
!1255 = !{i64 1247}
!1256 = !{i64 1248}
!1257 = !{i64 1249}
!1258 = !{i64 1250}
!1259 = !{i64 1251}
!1260 = !{i64 1252}
!1261 = !{i64 1253}
!1262 = !{i64 1254}
!1263 = !{i64 1255}
!1264 = !{i64 1256}
!1265 = !{i64 1257}
!1266 = !{i64 1258}
!1267 = !{i64 1259}
!1268 = !{i64 1260}
!1269 = !{i64 1261}
!1270 = !{i64 1262}
!1271 = !{i64 1263}
!1272 = !{i64 1264}
!1273 = !{i64 1265}
!1274 = !{i64 1266}
!1275 = !{i64 1267}
!1276 = !{i64 1268}
!1277 = !{i64 1269}
!1278 = !{i64 1270}
!1279 = !{i64 1271}
!1280 = !{i64 1272}
!1281 = !{i64 1273}
!1282 = !{i64 1274}
!1283 = !{i64 1275}
!1284 = !{i64 1276}
!1285 = !{i64 1277}
!1286 = !{i64 1278}
!1287 = !{i64 1279}
!1288 = !{i64 1280}
!1289 = !{i64 1281}
!1290 = !{i64 1282}
!1291 = !{i64 1283}
!1292 = !{i64 1284}
!1293 = !{i64 1285}
!1294 = !{i64 1286}
!1295 = !{i64 1287}
!1296 = !{i64 1288}
!1297 = !{i64 1289}
!1298 = !{i64 1290}
!1299 = !{i64 1291}
!1300 = !{i64 1292}
!1301 = !{i64 1293}
!1302 = !{i64 1294}
!1303 = !{i64 1295}
!1304 = !{i64 1296}
!1305 = !{i64 1297}
!1306 = !{i64 1298}
!1307 = !{i64 1299}
!1308 = !{i64 1300}
!1309 = !{i64 1301}
!1310 = !{i64 1302}
!1311 = !{i64 1303}
!1312 = !{i64 1304}
!1313 = !{i64 1305}
!1314 = !{i64 1306}
!1315 = !{i64 1307}
!1316 = !{i64 1308}
!1317 = !{i64 1309}
!1318 = !{i64 1310}
!1319 = !{i64 1311}
!1320 = !{i64 1312}
!1321 = !{i64 1313}
!1322 = !{i64 1314}
!1323 = !{i64 1315}
!1324 = !{i64 1316}
!1325 = !{i64 1317}
!1326 = !{i64 1318}
!1327 = !{i64 1319}
!1328 = !{i64 1320}
!1329 = !{i64 1321}
!1330 = !{i64 1322}
!1331 = !{i64 1323}
!1332 = !{i64 1324}
!1333 = !{i64 1325}
!1334 = !{i64 1326}
!1335 = !{i64 1327}
!1336 = !{i64 1328}
!1337 = !{i64 1329}
!1338 = !{i64 1330}
!1339 = !{i64 1331}
!1340 = !{i64 1332}
!1341 = !{i64 1333}
!1342 = !{i64 1334}
!1343 = !{i64 1335}
!1344 = !{i64 1336}
!1345 = !{i64 1337}
!1346 = !{i64 1338}
!1347 = !{i64 1339}
!1348 = !{i64 1340}
!1349 = !{i64 1341}
!1350 = !{i64 1342}
!1351 = !{i64 1343}
!1352 = !{i64 1344}
!1353 = !{i64 1345}
!1354 = !{i64 1346}
!1355 = !{i64 1347}
!1356 = !{i64 1348}
!1357 = !{i64 1349}
!1358 = !{i64 1350}
!1359 = !{i64 1351}
!1360 = !{i64 1352}
!1361 = !{i64 1353}
!1362 = !{i64 1354}
!1363 = !{i64 1355}
!1364 = !{i64 1356}
!1365 = !{i64 1357}
!1366 = !{i64 1358}
!1367 = !{i64 1359}
!1368 = !{i64 1360}
!1369 = !{i64 1361}
!1370 = !{i64 1362}
!1371 = !{i64 1363}
!1372 = !{i64 1364}
!1373 = !{i64 1365}
!1374 = !{i64 1366}
!1375 = !{i64 1367}
!1376 = !{i64 1368}
!1377 = !{i64 1369}
!1378 = !{i64 1370}
!1379 = !{i64 1371}
!1380 = !{i64 1372}
!1381 = !{i64 1373}
!1382 = !{i64 1374}
!1383 = !{i64 1375}
!1384 = !{i64 1376}
!1385 = !{i64 1377}
!1386 = !{i64 1378}
!1387 = !{i64 1379}
!1388 = !{i64 1380}
!1389 = !{i64 1381}
!1390 = !{i64 1382}
!1391 = !{i64 1383}
!1392 = !{i64 1384}
!1393 = !{i64 1385}
!1394 = !{i64 1386}
!1395 = !{i64 1387}
!1396 = !{i64 1388}
!1397 = !{i64 1389}
!1398 = !{i64 1390}
!1399 = !{i64 1391}
!1400 = !{i64 1392}
!1401 = !{i64 1393}
!1402 = !{i64 1394}
!1403 = !{i64 1395}
!1404 = !{i64 1396}
!1405 = !{i64 1397}
!1406 = !{i64 1398}
!1407 = !{i64 1399}
!1408 = !{i64 1400}
!1409 = !{i64 1401}
!1410 = !{i64 1402}
!1411 = !{i64 1403}
!1412 = !{i64 1404}
!1413 = !{i64 1405}
!1414 = !{i64 1406}
!1415 = !{i64 1407}
!1416 = !{i64 1408}
!1417 = !{i64 1409}
!1418 = !{i64 1410}
!1419 = !{i64 1411}
!1420 = !{i64 1412}
!1421 = !{i64 1413}
!1422 = !{i64 1414}
!1423 = !{i64 1415}
!1424 = !{i64 1416}
!1425 = !{i64 1417}
!1426 = !{i64 1418}
!1427 = !{i64 1419}
!1428 = !{i64 1420}
!1429 = !{i64 1421}
!1430 = !{i64 1422}
!1431 = !{i64 1423}
!1432 = !{i64 1424}
!1433 = !{i64 1425}
!1434 = !{i64 1426}
!1435 = !{i64 1427}
!1436 = !{i64 1428}
!1437 = !{i64 1429}
!1438 = !{i64 1430}
!1439 = !{i64 1431}
!1440 = !{i64 1432}
!1441 = !{i64 1433}
!1442 = !{i64 1434}
!1443 = !{i64 1435}
!1444 = !{i64 1436}
!1445 = !{i64 1437}
!1446 = !{i64 1438}
!1447 = !{i64 1439}
!1448 = !{i64 1440}
!1449 = !{i64 1441}
!1450 = !{i64 1442}
!1451 = !{i64 1443}
!1452 = !{i64 1444}
!1453 = !{i64 1445}
!1454 = !{i64 1446}
!1455 = !{i64 1447}
!1456 = !{i64 1448}
!1457 = !{i64 1449}
!1458 = !{i64 1450}
!1459 = !{i64 1451}
!1460 = !{i64 1452}
!1461 = !{i64 1453}
!1462 = !{i64 1454}
!1463 = !{i64 1455}
!1464 = !{i64 1456}
!1465 = !{i64 1457}
!1466 = !{i64 1458}
!1467 = !{i64 1459}
!1468 = !{i64 1460}
!1469 = !{i64 1461}
!1470 = !{i64 1462}
!1471 = !{i64 1463}
!1472 = !{i64 1464}
!1473 = !{i64 1465}
!1474 = !{i64 1466}
!1475 = !{i64 1467}
!1476 = !{i64 1468}
!1477 = !{i64 1469}
!1478 = !{i64 1470}
!1479 = !{i64 1471}
!1480 = !{i64 1472}
!1481 = !{i64 1473}
!1482 = !{i64 1474}
!1483 = !{i64 1475}
!1484 = !{i64 1476}
!1485 = !{i64 1477}
!1486 = !{i64 1478}
!1487 = !{i64 1479}
!1488 = !{i64 1480}
!1489 = !{i64 1481}
!1490 = !{i64 1482}
!1491 = !{i64 1483}
!1492 = !{i64 1484}
!1493 = !{i64 1485}
!1494 = !{i64 1486}
!1495 = !{i64 1487}
!1496 = !{i64 1488}
!1497 = !{i64 1489}
!1498 = !{i64 1490}
!1499 = !{i64 1491}
!1500 = !{i64 1492}
!1501 = !{i64 1493}
!1502 = !{i64 1494}
!1503 = !{i64 1495}
!1504 = !{i64 1496}
!1505 = !{i64 1497}
!1506 = !{i64 1498}
!1507 = !{i64 1499}
!1508 = !{i64 1500}
!1509 = !{i64 1501}
!1510 = !{i64 1502}
!1511 = !{i64 1503}
!1512 = !{i64 1504}
!1513 = !{i64 1505}
!1514 = !{i64 1506}
!1515 = !{i64 1507}
!1516 = !{i64 1508}
!1517 = !{i64 1509}
!1518 = !{i64 1510}
!1519 = !{i64 1511}
!1520 = !{i64 1512}
!1521 = !{i64 1513}
!1522 = !{i64 1514}
!1523 = !{i64 1515}
!1524 = !{i64 1516}
!1525 = !{i64 1517}
!1526 = !{i64 1518}
!1527 = !{i64 1519}
!1528 = !{i64 1520}
!1529 = !{i64 1521}
!1530 = !{i64 1522}
!1531 = !{i64 1523}
!1532 = !{i64 1524}
!1533 = !{i64 1525}
!1534 = !{i64 1526}
!1535 = !{i64 1527}
!1536 = !{i64 1528}
!1537 = !{i64 1529}
