; ModuleID = '/home/hjiang/Computation-Kernel-Dataset/experiments/Fault_injection_0308_parall/O0/closest/closest.ll'
source_filename = "llvm-link"
target datalayout = "e-m:e-p270:32:32-p271:32:32-p272:64:64-i64:64-f80:128-n8:16:32:64-S128"
target triple = "x86_64-unknown-linux-gnu"

%"class.std::ios_base::Init" = type { i8 }
%"class.std::basic_istream" = type { i32 (...)**, i64, %"class.std::basic_ios" }
%"class.std::basic_ios" = type { %"class.std::ios_base", %"class.std::basic_ostream"*, i8, i8, %"class.std::basic_streambuf"*, %"class.std::ctype"*, %"class.std::num_put"*, %"class.std::num_put"* }
%"class.std::ios_base" = type { i32 (...)**, i64, i64, i32, i32, i32, %"struct.std::ios_base::_Callback_list"*, %"struct.std::ios_base::_Words", [8 x %"struct.std::ios_base::_Words"], i32, %"struct.std::ios_base::_Words"*, %"class.std::locale" }
%"struct.std::ios_base::_Callback_list" = type { %"struct.std::ios_base::_Callback_list"*, void (i32, %"class.std::ios_base"*, i32)*, i32, i32 }
%"struct.std::ios_base::_Words" = type { i8*, i64 }
%"class.std::locale" = type { %"class.std::locale::_Impl"* }
%"class.std::locale::_Impl" = type { i32, %"class.std::locale::facet"**, i64, %"class.std::locale::facet"**, i8** }
%"class.std::locale::facet" = type <{ i32 (...)**, i32, [4 x i8] }>
%"class.std::basic_ostream" = type { i32 (...)**, %"class.std::basic_ios" }
%"class.std::basic_streambuf" = type { i32 (...)**, i8*, i8*, i8*, i8*, i8*, i8*, %"class.std::locale" }
%"class.std::ctype" = type <{ %"class.std::locale::facet.base", [4 x i8], %struct.__locale_struct*, i8, [7 x i8], i32*, i32*, i16*, i8, [256 x i8], [256 x i8], i8, [6 x i8] }>
%"class.std::locale::facet.base" = type <{ i32 (...)**, i32 }>
%struct.__locale_struct = type { [13 x %struct.__locale_data*], i16*, i32*, i32*, [13 x i8*] }
%struct.__locale_data = type opaque
%"class.std::num_put" = type { %"class.std::locale::facet.base", [4 x i8] }

$_ZSt4sortIPlEvT_S1_ = comdat any

$_ZN9__gnu_cxx5__ops16__iter_less_iterEv = comdat any

$_ZSt6__sortIPlN9__gnu_cxx5__ops15_Iter_less_iterEEvT_S4_T0_ = comdat any

$_ZSt4__lgl = comdat any

$_ZSt16__introsort_loopIPllN9__gnu_cxx5__ops15_Iter_less_iterEEvT_S4_T0_T1_ = comdat any

$_ZSt22__final_insertion_sortIPlN9__gnu_cxx5__ops15_Iter_less_iterEEvT_S4_T0_ = comdat any

$_ZSt16__insertion_sortIPlN9__gnu_cxx5__ops15_Iter_less_iterEEvT_S4_T0_ = comdat any

$_ZSt26__unguarded_insertion_sortIPlN9__gnu_cxx5__ops15_Iter_less_iterEEvT_S4_T0_ = comdat any

$_ZN9__gnu_cxx5__ops15__val_comp_iterENS0_15_Iter_less_iterE = comdat any

$_ZSt25__unguarded_linear_insertIPlN9__gnu_cxx5__ops14_Val_less_iterEEvT_T0_ = comdat any

$_ZSt4moveIRlEONSt16remove_referenceIT_E4typeEOS2_ = comdat any

$_ZNK9__gnu_cxx5__ops14_Val_less_iterclIlPlEEbRT_T0_ = comdat any

$_ZNK9__gnu_cxx5__ops15_Iter_less_iterclIPlS3_EEbT_T0_ = comdat any

$_ZSt13move_backwardIPlS0_ET0_T_S2_S1_ = comdat any

$_ZSt12__miter_baseIPlET_S1_ = comdat any

$_ZSt23__copy_move_backward_a2ILb1EPlS0_ET1_T0_S2_S1_ = comdat any

$_ZSt12__niter_baseIPlET_S1_ = comdat any

$_ZSt22__copy_move_backward_aILb1EPlS0_ET1_T0_S2_S1_ = comdat any

$_ZSt12__niter_wrapIPlET_RKS1_S1_ = comdat any

$_ZNSt20__copy_move_backwardILb1ELb1ESt26random_access_iterator_tagE13__copy_move_bIlEEPT_PKS3_S6_S4_ = comdat any

$_ZSt14__partial_sortIPlN9__gnu_cxx5__ops15_Iter_less_iterEEvT_S4_S4_T0_ = comdat any

$_ZSt27__unguarded_partition_pivotIPlN9__gnu_cxx5__ops15_Iter_less_iterEET_S4_S4_T0_ = comdat any

$_ZSt22__move_median_to_firstIPlN9__gnu_cxx5__ops15_Iter_less_iterEEvT_S4_S4_S4_T0_ = comdat any

$_ZSt21__unguarded_partitionIPlN9__gnu_cxx5__ops15_Iter_less_iterEET_S4_S4_S4_T0_ = comdat any

$_ZSt9iter_swapIPlS0_EvT_T0_ = comdat any

$_ZSt4swapIlENSt9enable_ifIXsr6__and_ISt6__not_ISt15__is_tuple_likeIT_EESt21is_move_constructibleIS3_ESt18is_move_assignableIS3_EEE5valueEvE4typeERS3_SC_ = comdat any

$_ZSt13__heap_selectIPlN9__gnu_cxx5__ops15_Iter_less_iterEEvT_S4_S4_T0_ = comdat any

$_ZSt11__sort_heapIPlN9__gnu_cxx5__ops15_Iter_less_iterEEvT_S4_RT0_ = comdat any

$_ZSt10__pop_heapIPlN9__gnu_cxx5__ops15_Iter_less_iterEEvT_S4_S4_RT0_ = comdat any

$_ZSt13__adjust_heapIPlllN9__gnu_cxx5__ops15_Iter_less_iterEEvT_T0_S5_T1_T2_ = comdat any

$_ZSt4moveIRN9__gnu_cxx5__ops15_Iter_less_iterEEONSt16remove_referenceIT_E4typeEOS5_ = comdat any

$_ZN9__gnu_cxx5__ops14_Iter_less_valC2ENS0_15_Iter_less_iterE = comdat any

$_ZSt11__push_heapIPlllN9__gnu_cxx5__ops14_Iter_less_valEEvT_T0_S5_T1_RT2_ = comdat any

$_ZNK9__gnu_cxx5__ops14_Iter_less_valclIPllEEbT_RT0_ = comdat any

$_ZSt11__make_heapIPlN9__gnu_cxx5__ops15_Iter_less_iterEEvT_S4_RT0_ = comdat any

@llvm.global_ctors = appending global [1 x { i32, void ()*, i8* }] [{ i32, void ()*, i8* } { i32 65535, void ()* @_GLOBAL__sub_I_closest.cpp, i8* null }]
@_ZStL8__ioinit = internal global %"class.std::ios_base::Init" zeroinitializer, align 1
@_ZSt3cin = external dso_local global %"class.std::basic_istream", align 8
@_ZSt4cout = external dso_local global %"class.std::basic_ostream", align 8
@.str = private unnamed_addr constant [2 x i8] c" \00", align 1

; Function Attrs: noinline uwtable
define internal void @_GLOBAL__sub_I_closest.cpp() #0 section ".text.startup" {
  call void @__cxx_global_var_init(), !llfi_index !4
  ret void, !llfi_index !5
}

; Function Attrs: noinline uwtable
define internal void @__cxx_global_var_init() #0 section ".text.startup" {
  call void @_ZNSt8ios_base4InitC1Ev(%"class.std::ios_base::Init"* nonnull align 1 dereferenceable(1) @_ZStL8__ioinit), !llfi_index !6
  %1 = call i32 @atexit(void ()* @__dtor__ZStL8__ioinit) #2, !llfi_index !7
  ret void, !llfi_index !8
}

declare dso_local void @_ZNSt8ios_base4InitC1Ev(%"class.std::ios_base::Init"* nonnull align 1 dereferenceable(1)) unnamed_addr #1

; Function Attrs: noinline uwtable
define internal void @__dtor__ZStL8__ioinit() #0 section ".text.startup" {
  call void @_ZNSt8ios_base4InitD1Ev(%"class.std::ios_base::Init"* @_ZStL8__ioinit), !llfi_index !9
  ret void, !llfi_index !10
}

; Function Attrs: nounwind
declare dso_local i32 @atexit(void ()*) #2

; Function Attrs: nounwind
declare dso_local void @_ZNSt8ios_base4InitD1Ev(%"class.std::ios_base::Init"* nonnull align 1 dereferenceable(1)) unnamed_addr #3

; Function Attrs: mustprogress noinline norecurse uwtable
define dso_local i32 @main(i32 %0, i8** %1) #4 {
  %3 = alloca i32, align 4, !llfi_index !11
  %4 = alloca i32, align 4, !llfi_index !12
  %5 = alloca i8**, align 8, !llfi_index !13
  %6 = alloca i32, align 4, !llfi_index !14
  %7 = alloca i64*, align 8, !llfi_index !15
  %8 = alloca i32, align 4, !llfi_index !16
  %9 = alloca i32, align 4, !llfi_index !17
  %10 = alloca i64, align 8, !llfi_index !18
  %11 = alloca i32, align 4, !llfi_index !19
  %12 = alloca i64, align 8, !llfi_index !20
  %13 = alloca i32, align 4, !llfi_index !21
  store i32 0, i32* %3, align 4, !llfi_index !22
  store i32 %0, i32* %4, align 4, !llfi_index !23
  store i8** %1, i8*** %5, align 8, !llfi_index !24
  %14 = call nonnull align 8 dereferenceable(16) %"class.std::basic_istream"* @_ZNSirsERj(%"class.std::basic_istream"* nonnull align 8 dereferenceable(16) @_ZSt3cin, i32* nonnull align 4 dereferenceable(4) %6), !llfi_index !25
  %15 = load i32, i32* %6, align 4, !llfi_index !26
  %16 = icmp eq i32 %15, 0, !llfi_index !27
  br i1 %16, label %17, label %18, !llfi_index !28

17:                                               ; preds = %2
  store i32 0, i32* %3, align 4, !llfi_index !29
  br label %147, !llfi_index !30

18:                                               ; preds = %2
  %19 = load i32, i32* %6, align 4, !llfi_index !31
  %20 = zext i32 %19 to i64, !llfi_index !32
  %21 = call { i64, i1 } @llvm.umul.with.overflow.i64(i64 %20, i64 8), !llfi_index !33
  %22 = extractvalue { i64, i1 } %21, 1, !llfi_index !34
  %23 = extractvalue { i64, i1 } %21, 0, !llfi_index !35
  %24 = select i1 %22, i64 -1, i64 %23, !llfi_index !36
  %25 = call noalias nonnull i8* @_Znam(i64 %24) #13, !llfi_index !37
  %26 = bitcast i8* %25 to i64*, !llfi_index !38
  store i64* %26, i64** %7, align 8, !llfi_index !39
  %27 = load i32, i32* %6, align 4, !llfi_index !40
  %28 = icmp eq i32 %27, 1, !llfi_index !41
  br i1 %28, label %29, label %39, !llfi_index !42

29:                                               ; preds = %18
  %30 = load i64*, i64** %7, align 8, !llfi_index !43
  %31 = icmp eq i64* %30, null, !llfi_index !44
  br i1 %31, label %34, label %32, !llfi_index !45

32:                                               ; preds = %29
  %33 = bitcast i64* %30 to i8*, !llfi_index !46
  call void @_ZdaPv(i8* %33) #14, !llfi_index !47
  br label %34, !llfi_index !48

34:                                               ; preds = %32, %29
  %35 = load i64*, i64** %7, align 8, !llfi_index !49
  %36 = getelementptr inbounds i64, i64* %35, i64 0, !llfi_index !50
  %37 = load i64, i64* %36, align 8, !llfi_index !51
  %38 = call nonnull align 8 dereferenceable(8) %"class.std::basic_ostream"* @_ZNSolsEl(%"class.std::basic_ostream"* nonnull align 8 dereferenceable(8) @_ZSt4cout, i64 %37), !llfi_index !52
  store i32 0, i32* %3, align 4, !llfi_index !53
  br label %147, !llfi_index !54

39:                                               ; preds = %18
  store i32 89, i32* %8, align 4, !llfi_index !55
  store i32 0, i32* %9, align 4, !llfi_index !56
  br label %40, !llfi_index !57

40:                                               ; preds = %50, %39
  %41 = load i32, i32* %9, align 4, !llfi_index !58
  %42 = load i32, i32* %6, align 4, !llfi_index !59
  %43 = icmp ult i32 %41, %42, !llfi_index !60
  br i1 %43, label %44, label %53, !llfi_index !61

44:                                               ; preds = %40
  %45 = load i64*, i64** %7, align 8, !llfi_index !62
  %46 = load i32, i32* %9, align 4, !llfi_index !63
  %47 = zext i32 %46 to i64, !llfi_index !64
  %48 = getelementptr inbounds i64, i64* %45, i64 %47, !llfi_index !65
  %49 = call nonnull align 8 dereferenceable(16) %"class.std::basic_istream"* @_ZNSirsERl(%"class.std::basic_istream"* nonnull align 8 dereferenceable(16) @_ZSt3cin, i64* nonnull align 8 dereferenceable(8) %48), !llfi_index !66
  br label %50, !llfi_index !67

50:                                               ; preds = %44
  %51 = load i32, i32* %9, align 4, !llfi_index !68
  %52 = add i32 %51, 1, !llfi_index !69
  store i32 %52, i32* %9, align 4, !llfi_index !70
  br label %40, !llvm.loop !71, !llfi_index !73

53:                                               ; preds = %40
  %54 = load i64*, i64** %7, align 8, !llfi_index !74
  %55 = load i64*, i64** %7, align 8, !llfi_index !75
  %56 = load i32, i32* %6, align 4, !llfi_index !76
  %57 = zext i32 %56 to i64, !llfi_index !77
  %58 = getelementptr inbounds i64, i64* %55, i64 %57, !llfi_index !78
  call void @_ZSt4sortIPlEvT_S1_(i64* %54, i64* %58), !llfi_index !79
  %59 = load i64*, i64** %7, align 8, !llfi_index !80
  %60 = getelementptr inbounds i64, i64* %59, i64 1, !llfi_index !81
  %61 = load i64, i64* %60, align 8, !llfi_index !82
  %62 = load i64*, i64** %7, align 8, !llfi_index !83
  %63 = getelementptr inbounds i64, i64* %62, i64 0, !llfi_index !84
  %64 = load i64, i64* %63, align 8, !llfi_index !85
  %65 = sub nsw i64 %61, %64, !llfi_index !86
  %66 = trunc i64 %65 to i32, !llfi_index !87
  %67 = call i32 @abs(i32 %66) #15, !llfi_index !88
  %68 = sext i32 %67 to i64, !llfi_index !89
  store i64 %68, i64* %10, align 8, !llfi_index !90
  store i32 89, i32* %8, align 4, !llfi_index !91
  store i32 1, i32* %11, align 4, !llfi_index !92
  br label %69, !llfi_index !93

69:                                               ; preds = %95, %53
  %70 = load i32, i32* %11, align 4, !llfi_index !94
  %71 = load i32, i32* %6, align 4, !llfi_index !95
  %72 = icmp ult i32 %70, %71, !llfi_index !96
  br i1 %72, label %73, label %98, !llfi_index !97

73:                                               ; preds = %69
  %74 = load i64*, i64** %7, align 8, !llfi_index !98
  %75 = load i32, i32* %11, align 4, !llfi_index !99
  %76 = sub i32 %75, 1, !llfi_index !100
  %77 = zext i32 %76 to i64, !llfi_index !101
  %78 = getelementptr inbounds i64, i64* %74, i64 %77, !llfi_index !102
  %79 = load i64, i64* %78, align 8, !llfi_index !103
  %80 = load i64*, i64** %7, align 8, !llfi_index !104
  %81 = load i32, i32* %11, align 4, !llfi_index !105
  %82 = zext i32 %81 to i64, !llfi_index !106
  %83 = getelementptr inbounds i64, i64* %80, i64 %82, !llfi_index !107
  %84 = load i64, i64* %83, align 8, !llfi_index !108
  %85 = sub nsw i64 %79, %84, !llfi_index !109
  %86 = trunc i64 %85 to i32, !llfi_index !110
  %87 = call i32 @abs(i32 %86) #15, !llfi_index !111
  %88 = sext i32 %87 to i64, !llfi_index !112
  store i64 %88, i64* %12, align 8, !llfi_index !113
  %89 = load i64, i64* %12, align 8, !llfi_index !114
  %90 = load i64, i64* %10, align 8, !llfi_index !115
  %91 = icmp slt i64 %89, %90, !llfi_index !116
  br i1 %91, label %92, label %94, !llfi_index !117

92:                                               ; preds = %73
  %93 = load i64, i64* %12, align 8, !llfi_index !118
  store i64 %93, i64* %10, align 8, !llfi_index !119
  br label %94, !llfi_index !120

94:                                               ; preds = %92, %73
  br label %95, !llfi_index !121

95:                                               ; preds = %94
  %96 = load i32, i32* %11, align 4, !llfi_index !122
  %97 = add i32 %96, 1, !llfi_index !123
  store i32 %97, i32* %11, align 4, !llfi_index !124
  br label %69, !llvm.loop !125, !llfi_index !126

98:                                               ; preds = %69
  store i32 89, i32* %8, align 4, !llfi_index !127
  store i32 1, i32* %13, align 4, !llfi_index !128
  br label %99, !llfi_index !129

99:                                               ; preds = %138, %98
  %100 = load i32, i32* %13, align 4, !llfi_index !130
  %101 = load i32, i32* %6, align 4, !llfi_index !131
  %102 = icmp ult i32 %100, %101, !llfi_index !132
  br i1 %102, label %103, label %141, !llfi_index !133

103:                                              ; preds = %99
  %104 = load i64*, i64** %7, align 8, !llfi_index !134
  %105 = load i32, i32* %13, align 4, !llfi_index !135
  %106 = sub i32 %105, 1, !llfi_index !136
  %107 = zext i32 %106 to i64, !llfi_index !137
  %108 = getelementptr inbounds i64, i64* %104, i64 %107, !llfi_index !138
  %109 = load i64, i64* %108, align 8, !llfi_index !139
  %110 = load i64*, i64** %7, align 8, !llfi_index !140
  %111 = load i32, i32* %13, align 4, !llfi_index !141
  %112 = zext i32 %111 to i64, !llfi_index !142
  %113 = getelementptr inbounds i64, i64* %110, i64 %112, !llfi_index !143
  %114 = load i64, i64* %113, align 8, !llfi_index !144
  %115 = sub nsw i64 %109, %114, !llfi_index !145
  %116 = trunc i64 %115 to i32, !llfi_index !146
  %117 = call i32 @abs(i32 %116) #15, !llfi_index !147
  %118 = sext i32 %117 to i64, !llfi_index !148
  %119 = load i64, i64* %10, align 8, !llfi_index !149
  %120 = icmp eq i64 %118, %119, !llfi_index !150
  br i1 %120, label %121, label %137, !llfi_index !151

121:                                              ; preds = %103
  %122 = load i64*, i64** %7, align 8, !llfi_index !152
  %123 = load i32, i32* %13, align 4, !llfi_index !153
  %124 = sub i32 %123, 1, !llfi_index !154
  %125 = zext i32 %124 to i64, !llfi_index !155
  %126 = getelementptr inbounds i64, i64* %122, i64 %125, !llfi_index !156
  %127 = load i64, i64* %126, align 8, !llfi_index !157
  %128 = call nonnull align 8 dereferenceable(8) %"class.std::basic_ostream"* @_ZNSolsEl(%"class.std::basic_ostream"* nonnull align 8 dereferenceable(8) @_ZSt4cout, i64 %127), !llfi_index !158
  %129 = call nonnull align 8 dereferenceable(8) %"class.std::basic_ostream"* @_ZStlsISt11char_traitsIcEERSt13basic_ostreamIcT_ES5_PKc(%"class.std::basic_ostream"* nonnull align 8 dereferenceable(8) %128, i8* getelementptr inbounds ([2 x i8], [2 x i8]* @.str, i64 0, i64 0)), !llfi_index !159
  %130 = load i64*, i64** %7, align 8, !llfi_index !160
  %131 = load i32, i32* %13, align 4, !llfi_index !161
  %132 = zext i32 %131 to i64, !llfi_index !162
  %133 = getelementptr inbounds i64, i64* %130, i64 %132, !llfi_index !163
  %134 = load i64, i64* %133, align 8, !llfi_index !164
  %135 = call nonnull align 8 dereferenceable(8) %"class.std::basic_ostream"* @_ZNSolsEl(%"class.std::basic_ostream"* nonnull align 8 dereferenceable(8) %129, i64 %134), !llfi_index !165
  %136 = call nonnull align 8 dereferenceable(8) %"class.std::basic_ostream"* @_ZStlsISt11char_traitsIcEERSt13basic_ostreamIcT_ES5_PKc(%"class.std::basic_ostream"* nonnull align 8 dereferenceable(8) %135, i8* getelementptr inbounds ([2 x i8], [2 x i8]* @.str, i64 0, i64 0)), !llfi_index !166
  br label %137, !llfi_index !167

137:                                              ; preds = %121, %103
  br label %138, !llfi_index !168

138:                                              ; preds = %137
  %139 = load i32, i32* %13, align 4, !llfi_index !169
  %140 = add i32 %139, 1, !llfi_index !170
  store i32 %140, i32* %13, align 4, !llfi_index !171
  br label %99, !llvm.loop !172, !llfi_index !173

141:                                              ; preds = %99
  %142 = load i64*, i64** %7, align 8, !llfi_index !174
  %143 = icmp eq i64* %142, null, !llfi_index !175
  br i1 %143, label %146, label %144, !llfi_index !176

144:                                              ; preds = %141
  %145 = bitcast i64* %142 to i8*, !llfi_index !177
  call void @_ZdaPv(i8* %145) #14, !llfi_index !178
  br label %146, !llfi_index !179

146:                                              ; preds = %144, %141
  store i32 0, i32* %3, align 4, !llfi_index !180
  br label %147, !llfi_index !181

147:                                              ; preds = %146, %34, %17
  %148 = load i32, i32* %3, align 4, !llfi_index !182
  ret i32 %148, !llfi_index !183
}

declare dso_local nonnull align 8 dereferenceable(16) %"class.std::basic_istream"* @_ZNSirsERj(%"class.std::basic_istream"* nonnull align 8 dereferenceable(16), i32* nonnull align 4 dereferenceable(4)) #1

; Function Attrs: nofree nosync nounwind readnone speculatable willreturn
declare { i64, i1 } @llvm.umul.with.overflow.i64(i64, i64) #5

; Function Attrs: nobuiltin allocsize(0)
declare dso_local nonnull i8* @_Znam(i64) #6

; Function Attrs: nobuiltin nounwind
declare dso_local void @_ZdaPv(i8*) #7

declare dso_local nonnull align 8 dereferenceable(8) %"class.std::basic_ostream"* @_ZNSolsEl(%"class.std::basic_ostream"* nonnull align 8 dereferenceable(8), i64) #1

declare dso_local nonnull align 8 dereferenceable(16) %"class.std::basic_istream"* @_ZNSirsERl(%"class.std::basic_istream"* nonnull align 8 dereferenceable(16), i64* nonnull align 8 dereferenceable(8)) #1

; Function Attrs: mustprogress noinline uwtable
define linkonce_odr dso_local void @_ZSt4sortIPlEvT_S1_(i64* %0, i64* %1) #8 comdat {
  %3 = alloca i64*, align 8, !llfi_index !184
  %4 = alloca i64*, align 8, !llfi_index !185
  %5 = alloca %"class.std::ios_base::Init", align 1, !llfi_index !186
  %6 = alloca %"class.std::ios_base::Init", align 1, !llfi_index !187
  store i64* %0, i64** %3, align 8, !llfi_index !188
  store i64* %1, i64** %4, align 8, !llfi_index !189
  %7 = load i64*, i64** %3, align 8, !llfi_index !190
  %8 = load i64*, i64** %4, align 8, !llfi_index !191
  call void @_ZN9__gnu_cxx5__ops16__iter_less_iterEv(), !llfi_index !192
  call void @_ZSt6__sortIPlN9__gnu_cxx5__ops15_Iter_less_iterEEvT_S4_T0_(i64* %7, i64* %8), !llfi_index !193
  ret void, !llfi_index !194
}

; Function Attrs: nounwind readnone willreturn
declare dso_local i32 @abs(i32) #9

declare dso_local nonnull align 8 dereferenceable(8) %"class.std::basic_ostream"* @_ZStlsISt11char_traitsIcEERSt13basic_ostreamIcT_ES5_PKc(%"class.std::basic_ostream"* nonnull align 8 dereferenceable(8), i8*) #1

; Function Attrs: mustprogress noinline nounwind uwtable
define linkonce_odr dso_local void @_ZN9__gnu_cxx5__ops16__iter_less_iterEv() #10 comdat {
  ret void, !llfi_index !195
}

; Function Attrs: mustprogress noinline uwtable
define linkonce_odr dso_local void @_ZSt6__sortIPlN9__gnu_cxx5__ops15_Iter_less_iterEEvT_S4_T0_(i64* %0, i64* %1) #8 comdat {
  %3 = alloca %"class.std::ios_base::Init", align 1, !llfi_index !196
  %4 = alloca i64*, align 8, !llfi_index !197
  %5 = alloca i64*, align 8, !llfi_index !198
  %6 = alloca %"class.std::ios_base::Init", align 1, !llfi_index !199
  %7 = alloca %"class.std::ios_base::Init", align 1, !llfi_index !200
  store i64* %0, i64** %4, align 8, !llfi_index !201
  store i64* %1, i64** %5, align 8, !llfi_index !202
  %8 = load i64*, i64** %4, align 8, !llfi_index !203
  %9 = load i64*, i64** %5, align 8, !llfi_index !204
  %10 = icmp ne i64* %8, %9, !llfi_index !205
  br i1 %10, label %11, label %24, !llfi_index !206

11:                                               ; preds = %2
  %12 = load i64*, i64** %4, align 8, !llfi_index !207
  %13 = load i64*, i64** %5, align 8, !llfi_index !208
  %14 = load i64*, i64** %5, align 8, !llfi_index !209
  %15 = load i64*, i64** %4, align 8, !llfi_index !210
  %16 = ptrtoint i64* %14 to i64, !llfi_index !211
  %17 = ptrtoint i64* %15 to i64, !llfi_index !212
  %18 = sub i64 %16, %17, !llfi_index !213
  %19 = sdiv exact i64 %18, 8, !llfi_index !214
  %20 = call i64 @_ZSt4__lgl(i64 %19), !llfi_index !215
  %21 = mul nsw i64 %20, 2, !llfi_index !216
  call void @_ZSt16__introsort_loopIPllN9__gnu_cxx5__ops15_Iter_less_iterEEvT_S4_T0_T1_(i64* %12, i64* %13, i64 %21), !llfi_index !217
  %22 = load i64*, i64** %4, align 8, !llfi_index !218
  %23 = load i64*, i64** %5, align 8, !llfi_index !219
  call void @_ZSt22__final_insertion_sortIPlN9__gnu_cxx5__ops15_Iter_less_iterEEvT_S4_T0_(i64* %22, i64* %23), !llfi_index !220
  br label %24, !llfi_index !221

24:                                               ; preds = %11, %2
  ret void, !llfi_index !222
}

; Function Attrs: mustprogress noinline nounwind uwtable
define linkonce_odr dso_local i64 @_ZSt4__lgl(i64 %0) #10 comdat {
  %2 = alloca i64, align 8, !llfi_index !223
  store i64 %0, i64* %2, align 8, !llfi_index !224
  %3 = load i64, i64* %2, align 8, !llfi_index !225
  %4 = call i64 @llvm.ctlz.i64(i64 %3, i1 true), !llfi_index !226
  %5 = trunc i64 %4 to i32, !llfi_index !227
  %6 = sub nsw i32 63, %5, !llfi_index !228
  %7 = sext i32 %6 to i64, !llfi_index !229
  ret i64 %7, !llfi_index !230
}

; Function Attrs: mustprogress noinline uwtable
define linkonce_odr dso_local void @_ZSt16__introsort_loopIPllN9__gnu_cxx5__ops15_Iter_less_iterEEvT_S4_T0_T1_(i64* %0, i64* %1, i64 %2) #8 comdat {
  %4 = alloca %"class.std::ios_base::Init", align 1, !llfi_index !231
  %5 = alloca i64*, align 8, !llfi_index !232
  %6 = alloca i64*, align 8, !llfi_index !233
  %7 = alloca i64, align 8, !llfi_index !234
  %8 = alloca %"class.std::ios_base::Init", align 1, !llfi_index !235
  %9 = alloca i64*, align 8, !llfi_index !236
  %10 = alloca %"class.std::ios_base::Init", align 1, !llfi_index !237
  %11 = alloca %"class.std::ios_base::Init", align 1, !llfi_index !238
  store i64* %0, i64** %5, align 8, !llfi_index !239
  store i64* %1, i64** %6, align 8, !llfi_index !240
  store i64 %2, i64* %7, align 8, !llfi_index !241
  br label %12, !llfi_index !242

12:                                               ; preds = %27, %3
  %13 = load i64*, i64** %6, align 8, !llfi_index !243
  %14 = load i64*, i64** %5, align 8, !llfi_index !244
  %15 = ptrtoint i64* %13 to i64, !llfi_index !245
  %16 = ptrtoint i64* %14 to i64, !llfi_index !246
  %17 = sub i64 %15, %16, !llfi_index !247
  %18 = sdiv exact i64 %17, 8, !llfi_index !248
  %19 = icmp sgt i64 %18, 16, !llfi_index !249
  br i1 %19, label %20, label %37, !llfi_index !250

20:                                               ; preds = %12
  %21 = load i64, i64* %7, align 8, !llfi_index !251
  %22 = icmp eq i64 %21, 0, !llfi_index !252
  br i1 %22, label %23, label %27, !llfi_index !253

23:                                               ; preds = %20
  %24 = load i64*, i64** %5, align 8, !llfi_index !254
  %25 = load i64*, i64** %6, align 8, !llfi_index !255
  %26 = load i64*, i64** %6, align 8, !llfi_index !256
  call void @_ZSt14__partial_sortIPlN9__gnu_cxx5__ops15_Iter_less_iterEEvT_S4_S4_T0_(i64* %24, i64* %25, i64* %26), !llfi_index !257
  br label %37, !llfi_index !258

27:                                               ; preds = %20
  %28 = load i64, i64* %7, align 8, !llfi_index !259
  %29 = add nsw i64 %28, -1, !llfi_index !260
  store i64 %29, i64* %7, align 8, !llfi_index !261
  %30 = load i64*, i64** %5, align 8, !llfi_index !262
  %31 = load i64*, i64** %6, align 8, !llfi_index !263
  %32 = call i64* @_ZSt27__unguarded_partition_pivotIPlN9__gnu_cxx5__ops15_Iter_less_iterEET_S4_S4_T0_(i64* %30, i64* %31), !llfi_index !264
  store i64* %32, i64** %9, align 8, !llfi_index !265
  %33 = load i64*, i64** %9, align 8, !llfi_index !266
  %34 = load i64*, i64** %6, align 8, !llfi_index !267
  %35 = load i64, i64* %7, align 8, !llfi_index !268
  call void @_ZSt16__introsort_loopIPllN9__gnu_cxx5__ops15_Iter_less_iterEEvT_S4_T0_T1_(i64* %33, i64* %34, i64 %35), !llfi_index !269
  %36 = load i64*, i64** %9, align 8, !llfi_index !270
  store i64* %36, i64** %6, align 8, !llfi_index !271
  br label %12, !llvm.loop !272, !llfi_index !273

37:                                               ; preds = %23, %12
  ret void, !llfi_index !274
}

; Function Attrs: mustprogress noinline uwtable
define linkonce_odr dso_local void @_ZSt22__final_insertion_sortIPlN9__gnu_cxx5__ops15_Iter_less_iterEEvT_S4_T0_(i64* %0, i64* %1) #8 comdat {
  %3 = alloca %"class.std::ios_base::Init", align 1, !llfi_index !275
  %4 = alloca i64*, align 8, !llfi_index !276
  %5 = alloca i64*, align 8, !llfi_index !277
  %6 = alloca %"class.std::ios_base::Init", align 1, !llfi_index !278
  %7 = alloca %"class.std::ios_base::Init", align 1, !llfi_index !279
  %8 = alloca %"class.std::ios_base::Init", align 1, !llfi_index !280
  store i64* %0, i64** %4, align 8, !llfi_index !281
  store i64* %1, i64** %5, align 8, !llfi_index !282
  %9 = load i64*, i64** %5, align 8, !llfi_index !283
  %10 = load i64*, i64** %4, align 8, !llfi_index !284
  %11 = ptrtoint i64* %9 to i64, !llfi_index !285
  %12 = ptrtoint i64* %10 to i64, !llfi_index !286
  %13 = sub i64 %11, %12, !llfi_index !287
  %14 = sdiv exact i64 %13, 8, !llfi_index !288
  %15 = icmp sgt i64 %14, 16, !llfi_index !289
  br i1 %15, label %16, label %23, !llfi_index !290

16:                                               ; preds = %2
  %17 = load i64*, i64** %4, align 8, !llfi_index !291
  %18 = load i64*, i64** %4, align 8, !llfi_index !292
  %19 = getelementptr inbounds i64, i64* %18, i64 16, !llfi_index !293
  call void @_ZSt16__insertion_sortIPlN9__gnu_cxx5__ops15_Iter_less_iterEEvT_S4_T0_(i64* %17, i64* %19), !llfi_index !294
  %20 = load i64*, i64** %4, align 8, !llfi_index !295
  %21 = getelementptr inbounds i64, i64* %20, i64 16, !llfi_index !296
  %22 = load i64*, i64** %5, align 8, !llfi_index !297
  call void @_ZSt26__unguarded_insertion_sortIPlN9__gnu_cxx5__ops15_Iter_less_iterEEvT_S4_T0_(i64* %21, i64* %22), !llfi_index !298
  br label %26, !llfi_index !299

23:                                               ; preds = %2
  %24 = load i64*, i64** %4, align 8, !llfi_index !300
  %25 = load i64*, i64** %5, align 8, !llfi_index !301
  call void @_ZSt16__insertion_sortIPlN9__gnu_cxx5__ops15_Iter_less_iterEEvT_S4_T0_(i64* %24, i64* %25), !llfi_index !302
  br label %26, !llfi_index !303

26:                                               ; preds = %23, %16
  ret void, !llfi_index !304
}

; Function Attrs: mustprogress noinline uwtable
define linkonce_odr dso_local void @_ZSt16__insertion_sortIPlN9__gnu_cxx5__ops15_Iter_less_iterEEvT_S4_T0_(i64* %0, i64* %1) #8 comdat {
  %3 = alloca %"class.std::ios_base::Init", align 1, !llfi_index !305
  %4 = alloca i64*, align 8, !llfi_index !306
  %5 = alloca i64*, align 8, !llfi_index !307
  %6 = alloca i64*, align 8, !llfi_index !308
  %7 = alloca i64, align 8, !llfi_index !309
  %8 = alloca %"class.std::ios_base::Init", align 1, !llfi_index !310
  %9 = alloca %"class.std::ios_base::Init", align 1, !llfi_index !311
  %10 = alloca %"class.std::ios_base::Init", align 1, !llfi_index !312
  store i64* %0, i64** %4, align 8, !llfi_index !313
  store i64* %1, i64** %5, align 8, !llfi_index !314
  %11 = load i64*, i64** %4, align 8, !llfi_index !315
  %12 = load i64*, i64** %5, align 8, !llfi_index !316
  %13 = icmp eq i64* %11, %12, !llfi_index !317
  br i1 %13, label %14, label %15, !llfi_index !318

14:                                               ; preds = %2
  br label %44, !llfi_index !319

15:                                               ; preds = %2
  %16 = load i64*, i64** %4, align 8, !llfi_index !320
  %17 = getelementptr inbounds i64, i64* %16, i64 1, !llfi_index !321
  store i64* %17, i64** %6, align 8, !llfi_index !322
  br label %18, !llfi_index !323

18:                                               ; preds = %41, %15
  %19 = load i64*, i64** %6, align 8, !llfi_index !324
  %20 = load i64*, i64** %5, align 8, !llfi_index !325
  %21 = icmp ne i64* %19, %20, !llfi_index !326
  br i1 %21, label %22, label %44, !llfi_index !327

22:                                               ; preds = %18
  %23 = load i64*, i64** %6, align 8, !llfi_index !328
  %24 = load i64*, i64** %4, align 8, !llfi_index !329
  %25 = call zeroext i1 @_ZNK9__gnu_cxx5__ops15_Iter_less_iterclIPlS3_EEbT_T0_(%"class.std::ios_base::Init"* nonnull align 1 dereferenceable(1) %3, i64* %23, i64* %24), !llfi_index !330
  br i1 %25, label %26, label %38, !llfi_index !331

26:                                               ; preds = %22
  %27 = load i64*, i64** %6, align 8, !llfi_index !332
  %28 = call nonnull align 8 dereferenceable(8) i64* @_ZSt4moveIRlEONSt16remove_referenceIT_E4typeEOS2_(i64* nonnull align 8 dereferenceable(8) %27) #2, !llfi_index !333
  %29 = load i64, i64* %28, align 8, !llfi_index !334
  store i64 %29, i64* %7, align 8, !llfi_index !335
  %30 = load i64*, i64** %4, align 8, !llfi_index !336
  %31 = load i64*, i64** %6, align 8, !llfi_index !337
  %32 = load i64*, i64** %6, align 8, !llfi_index !338
  %33 = getelementptr inbounds i64, i64* %32, i64 1, !llfi_index !339
  %34 = call i64* @_ZSt13move_backwardIPlS0_ET0_T_S2_S1_(i64* %30, i64* %31, i64* %33), !llfi_index !340
  %35 = call nonnull align 8 dereferenceable(8) i64* @_ZSt4moveIRlEONSt16remove_referenceIT_E4typeEOS2_(i64* nonnull align 8 dereferenceable(8) %7) #2, !llfi_index !341
  %36 = load i64, i64* %35, align 8, !llfi_index !342
  %37 = load i64*, i64** %4, align 8, !llfi_index !343
  store i64 %36, i64* %37, align 8, !llfi_index !344
  br label %40, !llfi_index !345

38:                                               ; preds = %22
  %39 = load i64*, i64** %6, align 8, !llfi_index !346
  call void @_ZN9__gnu_cxx5__ops15__val_comp_iterENS0_15_Iter_less_iterE(), !llfi_index !347
  call void @_ZSt25__unguarded_linear_insertIPlN9__gnu_cxx5__ops14_Val_less_iterEEvT_T0_(i64* %39), !llfi_index !348
  br label %40, !llfi_index !349

40:                                               ; preds = %38, %26
  br label %41, !llfi_index !350

41:                                               ; preds = %40
  %42 = load i64*, i64** %6, align 8, !llfi_index !351
  %43 = getelementptr inbounds i64, i64* %42, i32 1, !llfi_index !352
  store i64* %43, i64** %6, align 8, !llfi_index !353
  br label %18, !llvm.loop !354, !llfi_index !355

44:                                               ; preds = %18, %14
  ret void, !llfi_index !356
}

; Function Attrs: mustprogress noinline uwtable
define linkonce_odr dso_local void @_ZSt26__unguarded_insertion_sortIPlN9__gnu_cxx5__ops15_Iter_less_iterEEvT_S4_T0_(i64* %0, i64* %1) #8 comdat {
  %3 = alloca %"class.std::ios_base::Init", align 1, !llfi_index !357
  %4 = alloca i64*, align 8, !llfi_index !358
  %5 = alloca i64*, align 8, !llfi_index !359
  %6 = alloca i64*, align 8, !llfi_index !360
  %7 = alloca %"class.std::ios_base::Init", align 1, !llfi_index !361
  %8 = alloca %"class.std::ios_base::Init", align 1, !llfi_index !362
  %9 = alloca %"class.std::ios_base::Init", align 1, !llfi_index !363
  store i64* %0, i64** %4, align 8, !llfi_index !364
  store i64* %1, i64** %5, align 8, !llfi_index !365
  %10 = load i64*, i64** %4, align 8, !llfi_index !366
  store i64* %10, i64** %6, align 8, !llfi_index !367
  br label %11, !llfi_index !368

11:                                               ; preds = %17, %2
  %12 = load i64*, i64** %6, align 8, !llfi_index !369
  %13 = load i64*, i64** %5, align 8, !llfi_index !370
  %14 = icmp ne i64* %12, %13, !llfi_index !371
  br i1 %14, label %15, label %20, !llfi_index !372

15:                                               ; preds = %11
  %16 = load i64*, i64** %6, align 8, !llfi_index !373
  call void @_ZN9__gnu_cxx5__ops15__val_comp_iterENS0_15_Iter_less_iterE(), !llfi_index !374
  call void @_ZSt25__unguarded_linear_insertIPlN9__gnu_cxx5__ops14_Val_less_iterEEvT_T0_(i64* %16), !llfi_index !375
  br label %17, !llfi_index !376

17:                                               ; preds = %15
  %18 = load i64*, i64** %6, align 8, !llfi_index !377
  %19 = getelementptr inbounds i64, i64* %18, i32 1, !llfi_index !378
  store i64* %19, i64** %6, align 8, !llfi_index !379
  br label %11, !llvm.loop !380, !llfi_index !381

20:                                               ; preds = %11
  ret void, !llfi_index !382
}

; Function Attrs: mustprogress noinline nounwind uwtable
define linkonce_odr dso_local void @_ZN9__gnu_cxx5__ops15__val_comp_iterENS0_15_Iter_less_iterE() #10 comdat {
  %1 = alloca %"class.std::ios_base::Init", align 1, !llfi_index !383
  ret void, !llfi_index !384
}

; Function Attrs: mustprogress noinline uwtable
define linkonce_odr dso_local void @_ZSt25__unguarded_linear_insertIPlN9__gnu_cxx5__ops14_Val_less_iterEEvT_T0_(i64* %0) #8 comdat {
  %2 = alloca %"class.std::ios_base::Init", align 1, !llfi_index !385
  %3 = alloca i64*, align 8, !llfi_index !386
  %4 = alloca i64, align 8, !llfi_index !387
  %5 = alloca i64*, align 8, !llfi_index !388
  store i64* %0, i64** %3, align 8, !llfi_index !389
  %6 = load i64*, i64** %3, align 8, !llfi_index !390
  %7 = call nonnull align 8 dereferenceable(8) i64* @_ZSt4moveIRlEONSt16remove_referenceIT_E4typeEOS2_(i64* nonnull align 8 dereferenceable(8) %6) #2, !llfi_index !391
  %8 = load i64, i64* %7, align 8, !llfi_index !392
  store i64 %8, i64* %4, align 8, !llfi_index !393
  %9 = load i64*, i64** %3, align 8, !llfi_index !394
  store i64* %9, i64** %5, align 8, !llfi_index !395
  %10 = load i64*, i64** %5, align 8, !llfi_index !396
  %11 = getelementptr inbounds i64, i64* %10, i32 -1, !llfi_index !397
  store i64* %11, i64** %5, align 8, !llfi_index !398
  br label %12, !llfi_index !399

12:                                               ; preds = %15, %1
  %13 = load i64*, i64** %5, align 8, !llfi_index !400
  %14 = call zeroext i1 @_ZNK9__gnu_cxx5__ops14_Val_less_iterclIlPlEEbRT_T0_(%"class.std::ios_base::Init"* nonnull align 1 dereferenceable(1) %2, i64* nonnull align 8 dereferenceable(8) %4, i64* %13), !llfi_index !401
  br i1 %14, label %15, label %23, !llfi_index !402

15:                                               ; preds = %12
  %16 = load i64*, i64** %5, align 8, !llfi_index !403
  %17 = call nonnull align 8 dereferenceable(8) i64* @_ZSt4moveIRlEONSt16remove_referenceIT_E4typeEOS2_(i64* nonnull align 8 dereferenceable(8) %16) #2, !llfi_index !404
  %18 = load i64, i64* %17, align 8, !llfi_index !405
  %19 = load i64*, i64** %3, align 8, !llfi_index !406
  store i64 %18, i64* %19, align 8, !llfi_index !407
  %20 = load i64*, i64** %5, align 8, !llfi_index !408
  store i64* %20, i64** %3, align 8, !llfi_index !409
  %21 = load i64*, i64** %5, align 8, !llfi_index !410
  %22 = getelementptr inbounds i64, i64* %21, i32 -1, !llfi_index !411
  store i64* %22, i64** %5, align 8, !llfi_index !412
  br label %12, !llvm.loop !413, !llfi_index !414

23:                                               ; preds = %12
  %24 = call nonnull align 8 dereferenceable(8) i64* @_ZSt4moveIRlEONSt16remove_referenceIT_E4typeEOS2_(i64* nonnull align 8 dereferenceable(8) %4) #2, !llfi_index !415
  %25 = load i64, i64* %24, align 8, !llfi_index !416
  %26 = load i64*, i64** %3, align 8, !llfi_index !417
  store i64 %25, i64* %26, align 8, !llfi_index !418
  ret void, !llfi_index !419
}

; Function Attrs: mustprogress noinline nounwind uwtable
define linkonce_odr dso_local nonnull align 8 dereferenceable(8) i64* @_ZSt4moveIRlEONSt16remove_referenceIT_E4typeEOS2_(i64* nonnull align 8 dereferenceable(8) %0) #10 comdat {
  %2 = alloca i64*, align 8, !llfi_index !420
  store i64* %0, i64** %2, align 8, !llfi_index !421
  %3 = load i64*, i64** %2, align 8, !llfi_index !422
  ret i64* %3, !llfi_index !423
}

; Function Attrs: mustprogress noinline nounwind uwtable
define linkonce_odr dso_local zeroext i1 @_ZNK9__gnu_cxx5__ops14_Val_less_iterclIlPlEEbRT_T0_(%"class.std::ios_base::Init"* nonnull align 1 dereferenceable(1) %0, i64* nonnull align 8 dereferenceable(8) %1, i64* %2) #10 comdat align 2 {
  %4 = alloca %"class.std::ios_base::Init"*, align 8, !llfi_index !424
  %5 = alloca i64*, align 8, !llfi_index !425
  %6 = alloca i64*, align 8, !llfi_index !426
  store %"class.std::ios_base::Init"* %0, %"class.std::ios_base::Init"** %4, align 8, !llfi_index !427
  store i64* %1, i64** %5, align 8, !llfi_index !428
  store i64* %2, i64** %6, align 8, !llfi_index !429
  %7 = load %"class.std::ios_base::Init"*, %"class.std::ios_base::Init"** %4, align 8, !llfi_index !430
  %8 = load i64*, i64** %5, align 8, !llfi_index !431
  %9 = load i64, i64* %8, align 8, !llfi_index !432
  %10 = load i64*, i64** %6, align 8, !llfi_index !433
  %11 = load i64, i64* %10, align 8, !llfi_index !434
  %12 = icmp slt i64 %9, %11, !llfi_index !435
  ret i1 %12, !llfi_index !436
}

; Function Attrs: mustprogress noinline nounwind uwtable
define linkonce_odr dso_local zeroext i1 @_ZNK9__gnu_cxx5__ops15_Iter_less_iterclIPlS3_EEbT_T0_(%"class.std::ios_base::Init"* nonnull align 1 dereferenceable(1) %0, i64* %1, i64* %2) #10 comdat align 2 {
  %4 = alloca %"class.std::ios_base::Init"*, align 8, !llfi_index !437
  %5 = alloca i64*, align 8, !llfi_index !438
  %6 = alloca i64*, align 8, !llfi_index !439
  store %"class.std::ios_base::Init"* %0, %"class.std::ios_base::Init"** %4, align 8, !llfi_index !440
  store i64* %1, i64** %5, align 8, !llfi_index !441
  store i64* %2, i64** %6, align 8, !llfi_index !442
  %7 = load %"class.std::ios_base::Init"*, %"class.std::ios_base::Init"** %4, align 8, !llfi_index !443
  %8 = load i64*, i64** %5, align 8, !llfi_index !444
  %9 = load i64, i64* %8, align 8, !llfi_index !445
  %10 = load i64*, i64** %6, align 8, !llfi_index !446
  %11 = load i64, i64* %10, align 8, !llfi_index !447
  %12 = icmp slt i64 %9, %11, !llfi_index !448
  ret i1 %12, !llfi_index !449
}

; Function Attrs: mustprogress noinline uwtable
define linkonce_odr dso_local i64* @_ZSt13move_backwardIPlS0_ET0_T_S2_S1_(i64* %0, i64* %1, i64* %2) #8 comdat {
  %4 = alloca i64*, align 8, !llfi_index !450
  %5 = alloca i64*, align 8, !llfi_index !451
  %6 = alloca i64*, align 8, !llfi_index !452
  store i64* %0, i64** %4, align 8, !llfi_index !453
  store i64* %1, i64** %5, align 8, !llfi_index !454
  store i64* %2, i64** %6, align 8, !llfi_index !455
  %7 = load i64*, i64** %4, align 8, !llfi_index !456
  %8 = call i64* @_ZSt12__miter_baseIPlET_S1_(i64* %7), !llfi_index !457
  %9 = load i64*, i64** %5, align 8, !llfi_index !458
  %10 = call i64* @_ZSt12__miter_baseIPlET_S1_(i64* %9), !llfi_index !459
  %11 = load i64*, i64** %6, align 8, !llfi_index !460
  %12 = call i64* @_ZSt23__copy_move_backward_a2ILb1EPlS0_ET1_T0_S2_S1_(i64* %8, i64* %10, i64* %11), !llfi_index !461
  ret i64* %12, !llfi_index !462
}

; Function Attrs: mustprogress noinline nounwind uwtable
define linkonce_odr dso_local i64* @_ZSt12__miter_baseIPlET_S1_(i64* %0) #10 comdat {
  %2 = alloca i64*, align 8, !llfi_index !463
  store i64* %0, i64** %2, align 8, !llfi_index !464
  %3 = load i64*, i64** %2, align 8, !llfi_index !465
  ret i64* %3, !llfi_index !466
}

; Function Attrs: mustprogress noinline uwtable
define linkonce_odr dso_local i64* @_ZSt23__copy_move_backward_a2ILb1EPlS0_ET1_T0_S2_S1_(i64* %0, i64* %1, i64* %2) #8 comdat {
  %4 = alloca i64*, align 8, !llfi_index !467
  %5 = alloca i64*, align 8, !llfi_index !468
  %6 = alloca i64*, align 8, !llfi_index !469
  store i64* %0, i64** %4, align 8, !llfi_index !470
  store i64* %1, i64** %5, align 8, !llfi_index !471
  store i64* %2, i64** %6, align 8, !llfi_index !472
  %7 = load i64*, i64** %4, align 8, !llfi_index !473
  %8 = call i64* @_ZSt12__niter_baseIPlET_S1_(i64* %7) #2, !llfi_index !474
  %9 = load i64*, i64** %5, align 8, !llfi_index !475
  %10 = call i64* @_ZSt12__niter_baseIPlET_S1_(i64* %9) #2, !llfi_index !476
  %11 = load i64*, i64** %6, align 8, !llfi_index !477
  %12 = call i64* @_ZSt12__niter_baseIPlET_S1_(i64* %11) #2, !llfi_index !478
  %13 = call i64* @_ZSt22__copy_move_backward_aILb1EPlS0_ET1_T0_S2_S1_(i64* %8, i64* %10, i64* %12), !llfi_index !479
  %14 = call i64* @_ZSt12__niter_wrapIPlET_RKS1_S1_(i64** nonnull align 8 dereferenceable(8) %6, i64* %13), !llfi_index !480
  ret i64* %14, !llfi_index !481
}

; Function Attrs: mustprogress noinline nounwind uwtable
define linkonce_odr dso_local i64* @_ZSt12__niter_baseIPlET_S1_(i64* %0) #10 comdat {
  %2 = alloca i64*, align 8, !llfi_index !482
  store i64* %0, i64** %2, align 8, !llfi_index !483
  %3 = load i64*, i64** %2, align 8, !llfi_index !484
  ret i64* %3, !llfi_index !485
}

; Function Attrs: mustprogress noinline uwtable
define linkonce_odr dso_local i64* @_ZSt22__copy_move_backward_aILb1EPlS0_ET1_T0_S2_S1_(i64* %0, i64* %1, i64* %2) #8 comdat {
  %4 = alloca i64*, align 8, !llfi_index !486
  %5 = alloca i64*, align 8, !llfi_index !487
  %6 = alloca i64*, align 8, !llfi_index !488
  %7 = alloca i8, align 1, !llfi_index !489
  store i64* %0, i64** %4, align 8, !llfi_index !490
  store i64* %1, i64** %5, align 8, !llfi_index !491
  store i64* %2, i64** %6, align 8, !llfi_index !492
  store i8 1, i8* %7, align 1, !llfi_index !493
  %8 = load i64*, i64** %4, align 8, !llfi_index !494
  %9 = load i64*, i64** %5, align 8, !llfi_index !495
  %10 = load i64*, i64** %6, align 8, !llfi_index !496
  %11 = call i64* @_ZNSt20__copy_move_backwardILb1ELb1ESt26random_access_iterator_tagE13__copy_move_bIlEEPT_PKS3_S6_S4_(i64* %8, i64* %9, i64* %10), !llfi_index !497
  ret i64* %11, !llfi_index !498
}

; Function Attrs: mustprogress noinline nounwind uwtable
define linkonce_odr dso_local i64* @_ZSt12__niter_wrapIPlET_RKS1_S1_(i64** nonnull align 8 dereferenceable(8) %0, i64* %1) #10 comdat {
  %3 = alloca i64**, align 8, !llfi_index !499
  %4 = alloca i64*, align 8, !llfi_index !500
  store i64** %0, i64*** %3, align 8, !llfi_index !501
  store i64* %1, i64** %4, align 8, !llfi_index !502
  %5 = load i64*, i64** %4, align 8, !llfi_index !503
  ret i64* %5, !llfi_index !504
}

; Function Attrs: mustprogress noinline nounwind uwtable
define linkonce_odr dso_local i64* @_ZNSt20__copy_move_backwardILb1ELb1ESt26random_access_iterator_tagE13__copy_move_bIlEEPT_PKS3_S6_S4_(i64* %0, i64* %1, i64* %2) #10 comdat align 2 {
  %4 = alloca i64*, align 8, !llfi_index !505
  %5 = alloca i64*, align 8, !llfi_index !506
  %6 = alloca i64*, align 8, !llfi_index !507
  %7 = alloca i64, align 8, !llfi_index !508
  store i64* %0, i64** %4, align 8, !llfi_index !509
  store i64* %1, i64** %5, align 8, !llfi_index !510
  store i64* %2, i64** %6, align 8, !llfi_index !511
  %8 = load i64*, i64** %5, align 8, !llfi_index !512
  %9 = load i64*, i64** %4, align 8, !llfi_index !513
  %10 = ptrtoint i64* %8 to i64, !llfi_index !514
  %11 = ptrtoint i64* %9 to i64, !llfi_index !515
  %12 = sub i64 %10, %11, !llfi_index !516
  %13 = sdiv exact i64 %12, 8, !llfi_index !517
  store i64 %13, i64* %7, align 8, !llfi_index !518
  %14 = load i64, i64* %7, align 8, !llfi_index !519
  %15 = icmp ne i64 %14, 0, !llfi_index !520
  br i1 %15, label %16, label %26, !llfi_index !521

16:                                               ; preds = %3
  %17 = load i64*, i64** %6, align 8, !llfi_index !522
  %18 = load i64, i64* %7, align 8, !llfi_index !523
  %19 = sub i64 0, %18, !llfi_index !524
  %20 = getelementptr inbounds i64, i64* %17, i64 %19, !llfi_index !525
  %21 = bitcast i64* %20 to i8*, !llfi_index !526
  %22 = load i64*, i64** %4, align 8, !llfi_index !527
  %23 = bitcast i64* %22 to i8*, !llfi_index !528
  %24 = load i64, i64* %7, align 8, !llfi_index !529
  %25 = mul i64 8, %24, !llfi_index !530
  call void @llvm.memmove.p0i8.p0i8.i64(i8* align 8 %21, i8* align 8 %23, i64 %25, i1 false), !llfi_index !531
  br label %26, !llfi_index !532

26:                                               ; preds = %16, %3
  %27 = load i64*, i64** %6, align 8, !llfi_index !533
  %28 = load i64, i64* %7, align 8, !llfi_index !534
  %29 = sub i64 0, %28, !llfi_index !535
  %30 = getelementptr inbounds i64, i64* %27, i64 %29, !llfi_index !536
  ret i64* %30, !llfi_index !537
}

; Function Attrs: argmemonly nofree nounwind willreturn
declare void @llvm.memmove.p0i8.p0i8.i64(i8* nocapture writeonly, i8* nocapture readonly, i64, i1 immarg) #11

; Function Attrs: mustprogress noinline uwtable
define linkonce_odr dso_local void @_ZSt14__partial_sortIPlN9__gnu_cxx5__ops15_Iter_less_iterEEvT_S4_S4_T0_(i64* %0, i64* %1, i64* %2) #8 comdat {
  %4 = alloca %"class.std::ios_base::Init", align 1, !llfi_index !538
  %5 = alloca i64*, align 8, !llfi_index !539
  %6 = alloca i64*, align 8, !llfi_index !540
  %7 = alloca i64*, align 8, !llfi_index !541
  %8 = alloca %"class.std::ios_base::Init", align 1, !llfi_index !542
  store i64* %0, i64** %5, align 8, !llfi_index !543
  store i64* %1, i64** %6, align 8, !llfi_index !544
  store i64* %2, i64** %7, align 8, !llfi_index !545
  %9 = load i64*, i64** %5, align 8, !llfi_index !546
  %10 = load i64*, i64** %6, align 8, !llfi_index !547
  %11 = load i64*, i64** %7, align 8, !llfi_index !548
  call void @_ZSt13__heap_selectIPlN9__gnu_cxx5__ops15_Iter_less_iterEEvT_S4_S4_T0_(i64* %9, i64* %10, i64* %11), !llfi_index !549
  %12 = load i64*, i64** %5, align 8, !llfi_index !550
  %13 = load i64*, i64** %6, align 8, !llfi_index !551
  call void @_ZSt11__sort_heapIPlN9__gnu_cxx5__ops15_Iter_less_iterEEvT_S4_RT0_(i64* %12, i64* %13, %"class.std::ios_base::Init"* nonnull align 1 dereferenceable(1) %4), !llfi_index !552
  ret void, !llfi_index !553
}

; Function Attrs: mustprogress noinline uwtable
define linkonce_odr dso_local i64* @_ZSt27__unguarded_partition_pivotIPlN9__gnu_cxx5__ops15_Iter_less_iterEET_S4_S4_T0_(i64* %0, i64* %1) #8 comdat {
  %3 = alloca %"class.std::ios_base::Init", align 1, !llfi_index !554
  %4 = alloca i64*, align 8, !llfi_index !555
  %5 = alloca i64*, align 8, !llfi_index !556
  %6 = alloca i64*, align 8, !llfi_index !557
  %7 = alloca %"class.std::ios_base::Init", align 1, !llfi_index !558
  %8 = alloca %"class.std::ios_base::Init", align 1, !llfi_index !559
  store i64* %0, i64** %4, align 8, !llfi_index !560
  store i64* %1, i64** %5, align 8, !llfi_index !561
  %9 = load i64*, i64** %4, align 8, !llfi_index !562
  %10 = load i64*, i64** %5, align 8, !llfi_index !563
  %11 = load i64*, i64** %4, align 8, !llfi_index !564
  %12 = ptrtoint i64* %10 to i64, !llfi_index !565
  %13 = ptrtoint i64* %11 to i64, !llfi_index !566
  %14 = sub i64 %12, %13, !llfi_index !567
  %15 = sdiv exact i64 %14, 8, !llfi_index !568
  %16 = sdiv i64 %15, 2, !llfi_index !569
  %17 = getelementptr inbounds i64, i64* %9, i64 %16, !llfi_index !570
  store i64* %17, i64** %6, align 8, !llfi_index !571
  %18 = load i64*, i64** %4, align 8, !llfi_index !572
  %19 = load i64*, i64** %4, align 8, !llfi_index !573
  %20 = getelementptr inbounds i64, i64* %19, i64 1, !llfi_index !574
  %21 = load i64*, i64** %6, align 8, !llfi_index !575
  %22 = load i64*, i64** %5, align 8, !llfi_index !576
  %23 = getelementptr inbounds i64, i64* %22, i64 -1, !llfi_index !577
  call void @_ZSt22__move_median_to_firstIPlN9__gnu_cxx5__ops15_Iter_less_iterEEvT_S4_S4_S4_T0_(i64* %18, i64* %20, i64* %21, i64* %23), !llfi_index !578
  %24 = load i64*, i64** %4, align 8, !llfi_index !579
  %25 = getelementptr inbounds i64, i64* %24, i64 1, !llfi_index !580
  %26 = load i64*, i64** %5, align 8, !llfi_index !581
  %27 = load i64*, i64** %4, align 8, !llfi_index !582
  %28 = call i64* @_ZSt21__unguarded_partitionIPlN9__gnu_cxx5__ops15_Iter_less_iterEET_S4_S4_S4_T0_(i64* %25, i64* %26, i64* %27), !llfi_index !583
  ret i64* %28, !llfi_index !584
}

; Function Attrs: mustprogress noinline uwtable
define linkonce_odr dso_local void @_ZSt22__move_median_to_firstIPlN9__gnu_cxx5__ops15_Iter_less_iterEEvT_S4_S4_S4_T0_(i64* %0, i64* %1, i64* %2, i64* %3) #8 comdat {
  %5 = alloca %"class.std::ios_base::Init", align 1, !llfi_index !585
  %6 = alloca i64*, align 8, !llfi_index !586
  %7 = alloca i64*, align 8, !llfi_index !587
  %8 = alloca i64*, align 8, !llfi_index !588
  %9 = alloca i64*, align 8, !llfi_index !589
  store i64* %0, i64** %6, align 8, !llfi_index !590
  store i64* %1, i64** %7, align 8, !llfi_index !591
  store i64* %2, i64** %8, align 8, !llfi_index !592
  store i64* %3, i64** %9, align 8, !llfi_index !593
  %10 = load i64*, i64** %7, align 8, !llfi_index !594
  %11 = load i64*, i64** %8, align 8, !llfi_index !595
  %12 = call zeroext i1 @_ZNK9__gnu_cxx5__ops15_Iter_less_iterclIPlS3_EEbT_T0_(%"class.std::ios_base::Init"* nonnull align 1 dereferenceable(1) %5, i64* %10, i64* %11), !llfi_index !596
  br i1 %12, label %13, label %32, !llfi_index !597

13:                                               ; preds = %4
  %14 = load i64*, i64** %8, align 8, !llfi_index !598
  %15 = load i64*, i64** %9, align 8, !llfi_index !599
  %16 = call zeroext i1 @_ZNK9__gnu_cxx5__ops15_Iter_less_iterclIPlS3_EEbT_T0_(%"class.std::ios_base::Init"* nonnull align 1 dereferenceable(1) %5, i64* %14, i64* %15), !llfi_index !600
  br i1 %16, label %17, label %20, !llfi_index !601

17:                                               ; preds = %13
  %18 = load i64*, i64** %6, align 8, !llfi_index !602
  %19 = load i64*, i64** %8, align 8, !llfi_index !603
  call void @_ZSt9iter_swapIPlS0_EvT_T0_(i64* %18, i64* %19), !llfi_index !604
  br label %31, !llfi_index !605

20:                                               ; preds = %13
  %21 = load i64*, i64** %7, align 8, !llfi_index !606
  %22 = load i64*, i64** %9, align 8, !llfi_index !607
  %23 = call zeroext i1 @_ZNK9__gnu_cxx5__ops15_Iter_less_iterclIPlS3_EEbT_T0_(%"class.std::ios_base::Init"* nonnull align 1 dereferenceable(1) %5, i64* %21, i64* %22), !llfi_index !608
  br i1 %23, label %24, label %27, !llfi_index !609

24:                                               ; preds = %20
  %25 = load i64*, i64** %6, align 8, !llfi_index !610
  %26 = load i64*, i64** %9, align 8, !llfi_index !611
  call void @_ZSt9iter_swapIPlS0_EvT_T0_(i64* %25, i64* %26), !llfi_index !612
  br label %30, !llfi_index !613

27:                                               ; preds = %20
  %28 = load i64*, i64** %6, align 8, !llfi_index !614
  %29 = load i64*, i64** %7, align 8, !llfi_index !615
  call void @_ZSt9iter_swapIPlS0_EvT_T0_(i64* %28, i64* %29), !llfi_index !616
  br label %30, !llfi_index !617

30:                                               ; preds = %27, %24
  br label %31, !llfi_index !618

31:                                               ; preds = %30, %17
  br label %51, !llfi_index !619

32:                                               ; preds = %4
  %33 = load i64*, i64** %7, align 8, !llfi_index !620
  %34 = load i64*, i64** %9, align 8, !llfi_index !621
  %35 = call zeroext i1 @_ZNK9__gnu_cxx5__ops15_Iter_less_iterclIPlS3_EEbT_T0_(%"class.std::ios_base::Init"* nonnull align 1 dereferenceable(1) %5, i64* %33, i64* %34), !llfi_index !622
  br i1 %35, label %36, label %39, !llfi_index !623

36:                                               ; preds = %32
  %37 = load i64*, i64** %6, align 8, !llfi_index !624
  %38 = load i64*, i64** %7, align 8, !llfi_index !625
  call void @_ZSt9iter_swapIPlS0_EvT_T0_(i64* %37, i64* %38), !llfi_index !626
  br label %50, !llfi_index !627

39:                                               ; preds = %32
  %40 = load i64*, i64** %8, align 8, !llfi_index !628
  %41 = load i64*, i64** %9, align 8, !llfi_index !629
  %42 = call zeroext i1 @_ZNK9__gnu_cxx5__ops15_Iter_less_iterclIPlS3_EEbT_T0_(%"class.std::ios_base::Init"* nonnull align 1 dereferenceable(1) %5, i64* %40, i64* %41), !llfi_index !630
  br i1 %42, label %43, label %46, !llfi_index !631

43:                                               ; preds = %39
  %44 = load i64*, i64** %6, align 8, !llfi_index !632
  %45 = load i64*, i64** %9, align 8, !llfi_index !633
  call void @_ZSt9iter_swapIPlS0_EvT_T0_(i64* %44, i64* %45), !llfi_index !634
  br label %49, !llfi_index !635

46:                                               ; preds = %39
  %47 = load i64*, i64** %6, align 8, !llfi_index !636
  %48 = load i64*, i64** %8, align 8, !llfi_index !637
  call void @_ZSt9iter_swapIPlS0_EvT_T0_(i64* %47, i64* %48), !llfi_index !638
  br label %49, !llfi_index !639

49:                                               ; preds = %46, %43
  br label %50, !llfi_index !640

50:                                               ; preds = %49, %36
  br label %51, !llfi_index !641

51:                                               ; preds = %50, %31
  ret void, !llfi_index !642
}

; Function Attrs: mustprogress noinline nounwind uwtable
define linkonce_odr dso_local i64* @_ZSt21__unguarded_partitionIPlN9__gnu_cxx5__ops15_Iter_less_iterEET_S4_S4_S4_T0_(i64* %0, i64* %1, i64* %2) #10 comdat {
  %4 = alloca %"class.std::ios_base::Init", align 1, !llfi_index !643
  %5 = alloca i64*, align 8, !llfi_index !644
  %6 = alloca i64*, align 8, !llfi_index !645
  %7 = alloca i64*, align 8, !llfi_index !646
  store i64* %0, i64** %5, align 8, !llfi_index !647
  store i64* %1, i64** %6, align 8, !llfi_index !648
  store i64* %2, i64** %7, align 8, !llfi_index !649
  br label %8, !llfi_index !650

8:                                                ; preds = %32, %3
  br label %9, !llfi_index !651

9:                                                ; preds = %13, %8
  %10 = load i64*, i64** %5, align 8, !llfi_index !652
  %11 = load i64*, i64** %7, align 8, !llfi_index !653
  %12 = call zeroext i1 @_ZNK9__gnu_cxx5__ops15_Iter_less_iterclIPlS3_EEbT_T0_(%"class.std::ios_base::Init"* nonnull align 1 dereferenceable(1) %4, i64* %10, i64* %11), !llfi_index !654
  br i1 %12, label %13, label %16, !llfi_index !655

13:                                               ; preds = %9
  %14 = load i64*, i64** %5, align 8, !llfi_index !656
  %15 = getelementptr inbounds i64, i64* %14, i32 1, !llfi_index !657
  store i64* %15, i64** %5, align 8, !llfi_index !658
  br label %9, !llvm.loop !659, !llfi_index !660

16:                                               ; preds = %9
  %17 = load i64*, i64** %6, align 8, !llfi_index !661
  %18 = getelementptr inbounds i64, i64* %17, i32 -1, !llfi_index !662
  store i64* %18, i64** %6, align 8, !llfi_index !663
  br label %19, !llfi_index !664

19:                                               ; preds = %23, %16
  %20 = load i64*, i64** %7, align 8, !llfi_index !665
  %21 = load i64*, i64** %6, align 8, !llfi_index !666
  %22 = call zeroext i1 @_ZNK9__gnu_cxx5__ops15_Iter_less_iterclIPlS3_EEbT_T0_(%"class.std::ios_base::Init"* nonnull align 1 dereferenceable(1) %4, i64* %20, i64* %21), !llfi_index !667
  br i1 %22, label %23, label %26, !llfi_index !668

23:                                               ; preds = %19
  %24 = load i64*, i64** %6, align 8, !llfi_index !669
  %25 = getelementptr inbounds i64, i64* %24, i32 -1, !llfi_index !670
  store i64* %25, i64** %6, align 8, !llfi_index !671
  br label %19, !llvm.loop !672, !llfi_index !673

26:                                               ; preds = %19
  %27 = load i64*, i64** %5, align 8, !llfi_index !674
  %28 = load i64*, i64** %6, align 8, !llfi_index !675
  %29 = icmp ult i64* %27, %28, !llfi_index !676
  br i1 %29, label %32, label %30, !llfi_index !677

30:                                               ; preds = %26
  %31 = load i64*, i64** %5, align 8, !llfi_index !678
  ret i64* %31, !llfi_index !679

32:                                               ; preds = %26
  %33 = load i64*, i64** %5, align 8, !llfi_index !680
  %34 = load i64*, i64** %6, align 8, !llfi_index !681
  call void @_ZSt9iter_swapIPlS0_EvT_T0_(i64* %33, i64* %34), !llfi_index !682
  %35 = load i64*, i64** %5, align 8, !llfi_index !683
  %36 = getelementptr inbounds i64, i64* %35, i32 1, !llfi_index !684
  store i64* %36, i64** %5, align 8, !llfi_index !685
  br label %8, !llvm.loop !686, !llfi_index !687
}

; Function Attrs: mustprogress noinline nounwind uwtable
define linkonce_odr dso_local void @_ZSt9iter_swapIPlS0_EvT_T0_(i64* %0, i64* %1) #10 comdat {
  %3 = alloca i64*, align 8, !llfi_index !688
  %4 = alloca i64*, align 8, !llfi_index !689
  store i64* %0, i64** %3, align 8, !llfi_index !690
  store i64* %1, i64** %4, align 8, !llfi_index !691
  %5 = load i64*, i64** %3, align 8, !llfi_index !692
  %6 = load i64*, i64** %4, align 8, !llfi_index !693
  call void @_ZSt4swapIlENSt9enable_ifIXsr6__and_ISt6__not_ISt15__is_tuple_likeIT_EESt21is_move_constructibleIS3_ESt18is_move_assignableIS3_EEE5valueEvE4typeERS3_SC_(i64* nonnull align 8 dereferenceable(8) %5, i64* nonnull align 8 dereferenceable(8) %6) #2, !llfi_index !694
  ret void, !llfi_index !695
}

; Function Attrs: mustprogress noinline nounwind uwtable
define linkonce_odr dso_local void @_ZSt4swapIlENSt9enable_ifIXsr6__and_ISt6__not_ISt15__is_tuple_likeIT_EESt21is_move_constructibleIS3_ESt18is_move_assignableIS3_EEE5valueEvE4typeERS3_SC_(i64* nonnull align 8 dereferenceable(8) %0, i64* nonnull align 8 dereferenceable(8) %1) #10 comdat {
  %3 = alloca i64*, align 8, !llfi_index !696
  %4 = alloca i64*, align 8, !llfi_index !697
  %5 = alloca i64, align 8, !llfi_index !698
  store i64* %0, i64** %3, align 8, !llfi_index !699
  store i64* %1, i64** %4, align 8, !llfi_index !700
  %6 = load i64*, i64** %3, align 8, !llfi_index !701
  %7 = call nonnull align 8 dereferenceable(8) i64* @_ZSt4moveIRlEONSt16remove_referenceIT_E4typeEOS2_(i64* nonnull align 8 dereferenceable(8) %6) #2, !llfi_index !702
  %8 = load i64, i64* %7, align 8, !llfi_index !703
  store i64 %8, i64* %5, align 8, !llfi_index !704
  %9 = load i64*, i64** %4, align 8, !llfi_index !705
  %10 = call nonnull align 8 dereferenceable(8) i64* @_ZSt4moveIRlEONSt16remove_referenceIT_E4typeEOS2_(i64* nonnull align 8 dereferenceable(8) %9) #2, !llfi_index !706
  %11 = load i64, i64* %10, align 8, !llfi_index !707
  %12 = load i64*, i64** %3, align 8, !llfi_index !708
  store i64 %11, i64* %12, align 8, !llfi_index !709
  %13 = call nonnull align 8 dereferenceable(8) i64* @_ZSt4moveIRlEONSt16remove_referenceIT_E4typeEOS2_(i64* nonnull align 8 dereferenceable(8) %5) #2, !llfi_index !710
  %14 = load i64, i64* %13, align 8, !llfi_index !711
  %15 = load i64*, i64** %4, align 8, !llfi_index !712
  store i64 %14, i64* %15, align 8, !llfi_index !713
  ret void, !llfi_index !714
}

; Function Attrs: mustprogress noinline uwtable
define linkonce_odr dso_local void @_ZSt13__heap_selectIPlN9__gnu_cxx5__ops15_Iter_less_iterEEvT_S4_S4_T0_(i64* %0, i64* %1, i64* %2) #8 comdat {
  %4 = alloca %"class.std::ios_base::Init", align 1, !llfi_index !715
  %5 = alloca i64*, align 8, !llfi_index !716
  %6 = alloca i64*, align 8, !llfi_index !717
  %7 = alloca i64*, align 8, !llfi_index !718
  %8 = alloca i64*, align 8, !llfi_index !719
  store i64* %0, i64** %5, align 8, !llfi_index !720
  store i64* %1, i64** %6, align 8, !llfi_index !721
  store i64* %2, i64** %7, align 8, !llfi_index !722
  %9 = load i64*, i64** %5, align 8, !llfi_index !723
  %10 = load i64*, i64** %6, align 8, !llfi_index !724
  call void @_ZSt11__make_heapIPlN9__gnu_cxx5__ops15_Iter_less_iterEEvT_S4_RT0_(i64* %9, i64* %10, %"class.std::ios_base::Init"* nonnull align 1 dereferenceable(1) %4), !llfi_index !725
  %11 = load i64*, i64** %6, align 8, !llfi_index !726
  store i64* %11, i64** %8, align 8, !llfi_index !727
  br label %12, !llfi_index !728

12:                                               ; preds = %25, %3
  %13 = load i64*, i64** %8, align 8, !llfi_index !729
  %14 = load i64*, i64** %7, align 8, !llfi_index !730
  %15 = icmp ult i64* %13, %14, !llfi_index !731
  br i1 %15, label %16, label %28, !llfi_index !732

16:                                               ; preds = %12
  %17 = load i64*, i64** %8, align 8, !llfi_index !733
  %18 = load i64*, i64** %5, align 8, !llfi_index !734
  %19 = call zeroext i1 @_ZNK9__gnu_cxx5__ops15_Iter_less_iterclIPlS3_EEbT_T0_(%"class.std::ios_base::Init"* nonnull align 1 dereferenceable(1) %4, i64* %17, i64* %18), !llfi_index !735
  br i1 %19, label %20, label %24, !llfi_index !736

20:                                               ; preds = %16
  %21 = load i64*, i64** %5, align 8, !llfi_index !737
  %22 = load i64*, i64** %6, align 8, !llfi_index !738
  %23 = load i64*, i64** %8, align 8, !llfi_index !739
  call void @_ZSt10__pop_heapIPlN9__gnu_cxx5__ops15_Iter_less_iterEEvT_S4_S4_RT0_(i64* %21, i64* %22, i64* %23, %"class.std::ios_base::Init"* nonnull align 1 dereferenceable(1) %4), !llfi_index !740
  br label %24, !llfi_index !741

24:                                               ; preds = %20, %16
  br label %25, !llfi_index !742

25:                                               ; preds = %24
  %26 = load i64*, i64** %8, align 8, !llfi_index !743
  %27 = getelementptr inbounds i64, i64* %26, i32 1, !llfi_index !744
  store i64* %27, i64** %8, align 8, !llfi_index !745
  br label %12, !llvm.loop !746, !llfi_index !747

28:                                               ; preds = %12
  ret void, !llfi_index !748
}

; Function Attrs: mustprogress noinline uwtable
define linkonce_odr dso_local void @_ZSt11__sort_heapIPlN9__gnu_cxx5__ops15_Iter_less_iterEEvT_S4_RT0_(i64* %0, i64* %1, %"class.std::ios_base::Init"* nonnull align 1 dereferenceable(1) %2) #8 comdat {
  %4 = alloca i64*, align 8, !llfi_index !749
  %5 = alloca i64*, align 8, !llfi_index !750
  %6 = alloca %"class.std::ios_base::Init"*, align 8, !llfi_index !751
  store i64* %0, i64** %4, align 8, !llfi_index !752
  store i64* %1, i64** %5, align 8, !llfi_index !753
  store %"class.std::ios_base::Init"* %2, %"class.std::ios_base::Init"** %6, align 8, !llfi_index !754
  br label %7, !llfi_index !755

7:                                                ; preds = %15, %3
  %8 = load i64*, i64** %5, align 8, !llfi_index !756
  %9 = load i64*, i64** %4, align 8, !llfi_index !757
  %10 = ptrtoint i64* %8 to i64, !llfi_index !758
  %11 = ptrtoint i64* %9 to i64, !llfi_index !759
  %12 = sub i64 %10, %11, !llfi_index !760
  %13 = sdiv exact i64 %12, 8, !llfi_index !761
  %14 = icmp sgt i64 %13, 1, !llfi_index !762
  br i1 %14, label %15, label %22, !llfi_index !763

15:                                               ; preds = %7
  %16 = load i64*, i64** %5, align 8, !llfi_index !764
  %17 = getelementptr inbounds i64, i64* %16, i32 -1, !llfi_index !765
  store i64* %17, i64** %5, align 8, !llfi_index !766
  %18 = load i64*, i64** %4, align 8, !llfi_index !767
  %19 = load i64*, i64** %5, align 8, !llfi_index !768
  %20 = load i64*, i64** %5, align 8, !llfi_index !769
  %21 = load %"class.std::ios_base::Init"*, %"class.std::ios_base::Init"** %6, align 8, !llfi_index !770
  call void @_ZSt10__pop_heapIPlN9__gnu_cxx5__ops15_Iter_less_iterEEvT_S4_S4_RT0_(i64* %18, i64* %19, i64* %20, %"class.std::ios_base::Init"* nonnull align 1 dereferenceable(1) %21), !llfi_index !771
  br label %7, !llvm.loop !772, !llfi_index !773

22:                                               ; preds = %7
  ret void, !llfi_index !774
}

; Function Attrs: mustprogress noinline uwtable
define linkonce_odr dso_local void @_ZSt10__pop_heapIPlN9__gnu_cxx5__ops15_Iter_less_iterEEvT_S4_S4_RT0_(i64* %0, i64* %1, i64* %2, %"class.std::ios_base::Init"* nonnull align 1 dereferenceable(1) %3) #8 comdat {
  %5 = alloca i64*, align 8, !llfi_index !775
  %6 = alloca i64*, align 8, !llfi_index !776
  %7 = alloca i64*, align 8, !llfi_index !777
  %8 = alloca %"class.std::ios_base::Init"*, align 8, !llfi_index !778
  %9 = alloca i64, align 8, !llfi_index !779
  %10 = alloca %"class.std::ios_base::Init", align 1, !llfi_index !780
  store i64* %0, i64** %5, align 8, !llfi_index !781
  store i64* %1, i64** %6, align 8, !llfi_index !782
  store i64* %2, i64** %7, align 8, !llfi_index !783
  store %"class.std::ios_base::Init"* %3, %"class.std::ios_base::Init"** %8, align 8, !llfi_index !784
  %11 = load i64*, i64** %7, align 8, !llfi_index !785
  %12 = call nonnull align 8 dereferenceable(8) i64* @_ZSt4moveIRlEONSt16remove_referenceIT_E4typeEOS2_(i64* nonnull align 8 dereferenceable(8) %11) #2, !llfi_index !786
  %13 = load i64, i64* %12, align 8, !llfi_index !787
  store i64 %13, i64* %9, align 8, !llfi_index !788
  %14 = load i64*, i64** %5, align 8, !llfi_index !789
  %15 = call nonnull align 8 dereferenceable(8) i64* @_ZSt4moveIRlEONSt16remove_referenceIT_E4typeEOS2_(i64* nonnull align 8 dereferenceable(8) %14) #2, !llfi_index !790
  %16 = load i64, i64* %15, align 8, !llfi_index !791
  %17 = load i64*, i64** %7, align 8, !llfi_index !792
  store i64 %16, i64* %17, align 8, !llfi_index !793
  %18 = load i64*, i64** %5, align 8, !llfi_index !794
  %19 = load i64*, i64** %6, align 8, !llfi_index !795
  %20 = load i64*, i64** %5, align 8, !llfi_index !796
  %21 = ptrtoint i64* %19 to i64, !llfi_index !797
  %22 = ptrtoint i64* %20 to i64, !llfi_index !798
  %23 = sub i64 %21, %22, !llfi_index !799
  %24 = sdiv exact i64 %23, 8, !llfi_index !800
  %25 = call nonnull align 8 dereferenceable(8) i64* @_ZSt4moveIRlEONSt16remove_referenceIT_E4typeEOS2_(i64* nonnull align 8 dereferenceable(8) %9) #2, !llfi_index !801
  %26 = load i64, i64* %25, align 8, !llfi_index !802
  %27 = load %"class.std::ios_base::Init"*, %"class.std::ios_base::Init"** %8, align 8, !llfi_index !803
  call void @_ZSt13__adjust_heapIPlllN9__gnu_cxx5__ops15_Iter_less_iterEEvT_T0_S5_T1_T2_(i64* %18, i64 0, i64 %24, i64 %26), !llfi_index !804
  ret void, !llfi_index !805
}

; Function Attrs: mustprogress noinline uwtable
define linkonce_odr dso_local void @_ZSt13__adjust_heapIPlllN9__gnu_cxx5__ops15_Iter_less_iterEEvT_T0_S5_T1_T2_(i64* %0, i64 %1, i64 %2, i64 %3) #8 comdat {
  %5 = alloca %"class.std::ios_base::Init", align 1, !llfi_index !806
  %6 = alloca i64*, align 8, !llfi_index !807
  %7 = alloca i64, align 8, !llfi_index !808
  %8 = alloca i64, align 8, !llfi_index !809
  %9 = alloca i64, align 8, !llfi_index !810
  %10 = alloca i64, align 8, !llfi_index !811
  %11 = alloca i64, align 8, !llfi_index !812
  %12 = alloca %"class.std::ios_base::Init", align 1, !llfi_index !813
  %13 = alloca %"class.std::ios_base::Init", align 1, !llfi_index !814
  store i64* %0, i64** %6, align 8, !llfi_index !815
  store i64 %1, i64* %7, align 8, !llfi_index !816
  store i64 %2, i64* %8, align 8, !llfi_index !817
  store i64 %3, i64* %9, align 8, !llfi_index !818
  %14 = load i64, i64* %7, align 8, !llfi_index !819
  store i64 %14, i64* %10, align 8, !llfi_index !820
  %15 = load i64, i64* %7, align 8, !llfi_index !821
  store i64 %15, i64* %11, align 8, !llfi_index !822
  br label %16, !llfi_index !823

16:                                               ; preds = %37, %4
  %17 = load i64, i64* %11, align 8, !llfi_index !824
  %18 = load i64, i64* %8, align 8, !llfi_index !825
  %19 = sub nsw i64 %18, 1, !llfi_index !826
  %20 = sdiv i64 %19, 2, !llfi_index !827
  %21 = icmp slt i64 %17, %20, !llfi_index !828
  br i1 %21, label %22, label %47, !llfi_index !829

22:                                               ; preds = %16
  %23 = load i64, i64* %11, align 8, !llfi_index !830
  %24 = add nsw i64 %23, 1, !llfi_index !831
  %25 = mul nsw i64 2, %24, !llfi_index !832
  store i64 %25, i64* %11, align 8, !llfi_index !833
  %26 = load i64*, i64** %6, align 8, !llfi_index !834
  %27 = load i64, i64* %11, align 8, !llfi_index !835
  %28 = getelementptr inbounds i64, i64* %26, i64 %27, !llfi_index !836
  %29 = load i64*, i64** %6, align 8, !llfi_index !837
  %30 = load i64, i64* %11, align 8, !llfi_index !838
  %31 = sub nsw i64 %30, 1, !llfi_index !839
  %32 = getelementptr inbounds i64, i64* %29, i64 %31, !llfi_index !840
  %33 = call zeroext i1 @_ZNK9__gnu_cxx5__ops15_Iter_less_iterclIPlS3_EEbT_T0_(%"class.std::ios_base::Init"* nonnull align 1 dereferenceable(1) %5, i64* %28, i64* %32), !llfi_index !841
  br i1 %33, label %34, label %37, !llfi_index !842

34:                                               ; preds = %22
  %35 = load i64, i64* %11, align 8, !llfi_index !843
  %36 = add nsw i64 %35, -1, !llfi_index !844
  store i64 %36, i64* %11, align 8, !llfi_index !845
  br label %37, !llfi_index !846

37:                                               ; preds = %34, %22
  %38 = load i64*, i64** %6, align 8, !llfi_index !847
  %39 = load i64, i64* %11, align 8, !llfi_index !848
  %40 = getelementptr inbounds i64, i64* %38, i64 %39, !llfi_index !849
  %41 = call nonnull align 8 dereferenceable(8) i64* @_ZSt4moveIRlEONSt16remove_referenceIT_E4typeEOS2_(i64* nonnull align 8 dereferenceable(8) %40) #2, !llfi_index !850
  %42 = load i64, i64* %41, align 8, !llfi_index !851
  %43 = load i64*, i64** %6, align 8, !llfi_index !852
  %44 = load i64, i64* %7, align 8, !llfi_index !853
  %45 = getelementptr inbounds i64, i64* %43, i64 %44, !llfi_index !854
  store i64 %42, i64* %45, align 8, !llfi_index !855
  %46 = load i64, i64* %11, align 8, !llfi_index !856
  store i64 %46, i64* %7, align 8, !llfi_index !857
  br label %16, !llvm.loop !858, !llfi_index !859

47:                                               ; preds = %16
  %48 = load i64, i64* %8, align 8, !llfi_index !860
  %49 = and i64 %48, 1, !llfi_index !861
  %50 = icmp eq i64 %49, 0, !llfi_index !862
  br i1 %50, label %51, label %72, !llfi_index !863

51:                                               ; preds = %47
  %52 = load i64, i64* %11, align 8, !llfi_index !864
  %53 = load i64, i64* %8, align 8, !llfi_index !865
  %54 = sub nsw i64 %53, 2, !llfi_index !866
  %55 = sdiv i64 %54, 2, !llfi_index !867
  %56 = icmp eq i64 %52, %55, !llfi_index !868
  br i1 %56, label %57, label %72, !llfi_index !869

57:                                               ; preds = %51
  %58 = load i64, i64* %11, align 8, !llfi_index !870
  %59 = add nsw i64 %58, 1, !llfi_index !871
  %60 = mul nsw i64 2, %59, !llfi_index !872
  store i64 %60, i64* %11, align 8, !llfi_index !873
  %61 = load i64*, i64** %6, align 8, !llfi_index !874
  %62 = load i64, i64* %11, align 8, !llfi_index !875
  %63 = sub nsw i64 %62, 1, !llfi_index !876
  %64 = getelementptr inbounds i64, i64* %61, i64 %63, !llfi_index !877
  %65 = call nonnull align 8 dereferenceable(8) i64* @_ZSt4moveIRlEONSt16remove_referenceIT_E4typeEOS2_(i64* nonnull align 8 dereferenceable(8) %64) #2, !llfi_index !878
  %66 = load i64, i64* %65, align 8, !llfi_index !879
  %67 = load i64*, i64** %6, align 8, !llfi_index !880
  %68 = load i64, i64* %7, align 8, !llfi_index !881
  %69 = getelementptr inbounds i64, i64* %67, i64 %68, !llfi_index !882
  store i64 %66, i64* %69, align 8, !llfi_index !883
  %70 = load i64, i64* %11, align 8, !llfi_index !884
  %71 = sub nsw i64 %70, 1, !llfi_index !885
  store i64 %71, i64* %7, align 8, !llfi_index !886
  br label %72, !llfi_index !887

72:                                               ; preds = %57, %51, %47
  %73 = call nonnull align 1 dereferenceable(1) %"class.std::ios_base::Init"* @_ZSt4moveIRN9__gnu_cxx5__ops15_Iter_less_iterEEONSt16remove_referenceIT_E4typeEOS5_(%"class.std::ios_base::Init"* nonnull align 1 dereferenceable(1) %5) #2, !llfi_index !888
  call void @_ZN9__gnu_cxx5__ops14_Iter_less_valC2ENS0_15_Iter_less_iterE(%"class.std::ios_base::Init"* nonnull align 1 dereferenceable(1) %12), !llfi_index !889
  %74 = load i64*, i64** %6, align 8, !llfi_index !890
  %75 = load i64, i64* %7, align 8, !llfi_index !891
  %76 = load i64, i64* %10, align 8, !llfi_index !892
  %77 = call nonnull align 8 dereferenceable(8) i64* @_ZSt4moveIRlEONSt16remove_referenceIT_E4typeEOS2_(i64* nonnull align 8 dereferenceable(8) %9) #2, !llfi_index !893
  %78 = load i64, i64* %77, align 8, !llfi_index !894
  call void @_ZSt11__push_heapIPlllN9__gnu_cxx5__ops14_Iter_less_valEEvT_T0_S5_T1_RT2_(i64* %74, i64 %75, i64 %76, i64 %78, %"class.std::ios_base::Init"* nonnull align 1 dereferenceable(1) %12), !llfi_index !895
  ret void, !llfi_index !896
}

; Function Attrs: mustprogress noinline nounwind uwtable
define linkonce_odr dso_local nonnull align 1 dereferenceable(1) %"class.std::ios_base::Init"* @_ZSt4moveIRN9__gnu_cxx5__ops15_Iter_less_iterEEONSt16remove_referenceIT_E4typeEOS5_(%"class.std::ios_base::Init"* nonnull align 1 dereferenceable(1) %0) #10 comdat {
  %2 = alloca %"class.std::ios_base::Init"*, align 8, !llfi_index !897
  store %"class.std::ios_base::Init"* %0, %"class.std::ios_base::Init"** %2, align 8, !llfi_index !898
  %3 = load %"class.std::ios_base::Init"*, %"class.std::ios_base::Init"** %2, align 8, !llfi_index !899
  ret %"class.std::ios_base::Init"* %3, !llfi_index !900
}

; Function Attrs: noinline nounwind uwtable
define linkonce_odr dso_local void @_ZN9__gnu_cxx5__ops14_Iter_less_valC2ENS0_15_Iter_less_iterE(%"class.std::ios_base::Init"* nonnull align 1 dereferenceable(1) %0) unnamed_addr #12 comdat align 2 {
  %2 = alloca %"class.std::ios_base::Init", align 1, !llfi_index !901
  %3 = alloca %"class.std::ios_base::Init"*, align 8, !llfi_index !902
  store %"class.std::ios_base::Init"* %0, %"class.std::ios_base::Init"** %3, align 8, !llfi_index !903
  %4 = load %"class.std::ios_base::Init"*, %"class.std::ios_base::Init"** %3, align 8, !llfi_index !904
  ret void, !llfi_index !905
}

; Function Attrs: mustprogress noinline uwtable
define linkonce_odr dso_local void @_ZSt11__push_heapIPlllN9__gnu_cxx5__ops14_Iter_less_valEEvT_T0_S5_T1_RT2_(i64* %0, i64 %1, i64 %2, i64 %3, %"class.std::ios_base::Init"* nonnull align 1 dereferenceable(1) %4) #8 comdat {
  %6 = alloca i64*, align 8, !llfi_index !906
  %7 = alloca i64, align 8, !llfi_index !907
  %8 = alloca i64, align 8, !llfi_index !908
  %9 = alloca i64, align 8, !llfi_index !909
  %10 = alloca %"class.std::ios_base::Init"*, align 8, !llfi_index !910
  %11 = alloca i64, align 8, !llfi_index !911
  store i64* %0, i64** %6, align 8, !llfi_index !912
  store i64 %1, i64* %7, align 8, !llfi_index !913
  store i64 %2, i64* %8, align 8, !llfi_index !914
  store i64 %3, i64* %9, align 8, !llfi_index !915
  store %"class.std::ios_base::Init"* %4, %"class.std::ios_base::Init"** %10, align 8, !llfi_index !916
  %12 = load i64, i64* %7, align 8, !llfi_index !917
  %13 = sub nsw i64 %12, 1, !llfi_index !918
  %14 = sdiv i64 %13, 2, !llfi_index !919
  store i64 %14, i64* %11, align 8, !llfi_index !920
  br label %15, !llfi_index !921

15:                                               ; preds = %27, %5
  %16 = load i64, i64* %7, align 8, !llfi_index !922
  %17 = load i64, i64* %8, align 8, !llfi_index !923
  %18 = icmp sgt i64 %16, %17, !llfi_index !924
  br i1 %18, label %19, label %25, !llfi_index !925

19:                                               ; preds = %15
  %20 = load %"class.std::ios_base::Init"*, %"class.std::ios_base::Init"** %10, align 8, !llfi_index !926
  %21 = load i64*, i64** %6, align 8, !llfi_index !927
  %22 = load i64, i64* %11, align 8, !llfi_index !928
  %23 = getelementptr inbounds i64, i64* %21, i64 %22, !llfi_index !929
  %24 = call zeroext i1 @_ZNK9__gnu_cxx5__ops14_Iter_less_valclIPllEEbT_RT0_(%"class.std::ios_base::Init"* nonnull align 1 dereferenceable(1) %20, i64* %23, i64* nonnull align 8 dereferenceable(8) %9), !llfi_index !930
  br label %25, !llfi_index !931

25:                                               ; preds = %19, %15
  %26 = phi i1 [ false, %15 ], [ %24, %19 ], !llfi_index !932
  br i1 %26, label %27, label %40, !llfi_index !933

27:                                               ; preds = %25
  %28 = load i64*, i64** %6, align 8, !llfi_index !934
  %29 = load i64, i64* %11, align 8, !llfi_index !935
  %30 = getelementptr inbounds i64, i64* %28, i64 %29, !llfi_index !936
  %31 = call nonnull align 8 dereferenceable(8) i64* @_ZSt4moveIRlEONSt16remove_referenceIT_E4typeEOS2_(i64* nonnull align 8 dereferenceable(8) %30) #2, !llfi_index !937
  %32 = load i64, i64* %31, align 8, !llfi_index !938
  %33 = load i64*, i64** %6, align 8, !llfi_index !939
  %34 = load i64, i64* %7, align 8, !llfi_index !940
  %35 = getelementptr inbounds i64, i64* %33, i64 %34, !llfi_index !941
  store i64 %32, i64* %35, align 8, !llfi_index !942
  %36 = load i64, i64* %11, align 8, !llfi_index !943
  store i64 %36, i64* %7, align 8, !llfi_index !944
  %37 = load i64, i64* %7, align 8, !llfi_index !945
  %38 = sub nsw i64 %37, 1, !llfi_index !946
  %39 = sdiv i64 %38, 2, !llfi_index !947
  store i64 %39, i64* %11, align 8, !llfi_index !948
  br label %15, !llvm.loop !949, !llfi_index !950

40:                                               ; preds = %25
  %41 = call nonnull align 8 dereferenceable(8) i64* @_ZSt4moveIRlEONSt16remove_referenceIT_E4typeEOS2_(i64* nonnull align 8 dereferenceable(8) %9) #2, !llfi_index !951
  %42 = load i64, i64* %41, align 8, !llfi_index !952
  %43 = load i64*, i64** %6, align 8, !llfi_index !953
  %44 = load i64, i64* %7, align 8, !llfi_index !954
  %45 = getelementptr inbounds i64, i64* %43, i64 %44, !llfi_index !955
  store i64 %42, i64* %45, align 8, !llfi_index !956
  ret void, !llfi_index !957
}

; Function Attrs: mustprogress noinline nounwind uwtable
define linkonce_odr dso_local zeroext i1 @_ZNK9__gnu_cxx5__ops14_Iter_less_valclIPllEEbT_RT0_(%"class.std::ios_base::Init"* nonnull align 1 dereferenceable(1) %0, i64* %1, i64* nonnull align 8 dereferenceable(8) %2) #10 comdat align 2 {
  %4 = alloca %"class.std::ios_base::Init"*, align 8, !llfi_index !958
  %5 = alloca i64*, align 8, !llfi_index !959
  %6 = alloca i64*, align 8, !llfi_index !960
  store %"class.std::ios_base::Init"* %0, %"class.std::ios_base::Init"** %4, align 8, !llfi_index !961
  store i64* %1, i64** %5, align 8, !llfi_index !962
  store i64* %2, i64** %6, align 8, !llfi_index !963
  %7 = load %"class.std::ios_base::Init"*, %"class.std::ios_base::Init"** %4, align 8, !llfi_index !964
  %8 = load i64*, i64** %5, align 8, !llfi_index !965
  %9 = load i64, i64* %8, align 8, !llfi_index !966
  %10 = load i64*, i64** %6, align 8, !llfi_index !967
  %11 = load i64, i64* %10, align 8, !llfi_index !968
  %12 = icmp slt i64 %9, %11, !llfi_index !969
  ret i1 %12, !llfi_index !970
}

; Function Attrs: mustprogress noinline uwtable
define linkonce_odr dso_local void @_ZSt11__make_heapIPlN9__gnu_cxx5__ops15_Iter_less_iterEEvT_S4_RT0_(i64* %0, i64* %1, %"class.std::ios_base::Init"* nonnull align 1 dereferenceable(1) %2) #8 comdat {
  %4 = alloca i64*, align 8, !llfi_index !971
  %5 = alloca i64*, align 8, !llfi_index !972
  %6 = alloca %"class.std::ios_base::Init"*, align 8, !llfi_index !973
  %7 = alloca i64, align 8, !llfi_index !974
  %8 = alloca i64, align 8, !llfi_index !975
  %9 = alloca i64, align 8, !llfi_index !976
  %10 = alloca %"class.std::ios_base::Init", align 1, !llfi_index !977
  store i64* %0, i64** %4, align 8, !llfi_index !978
  store i64* %1, i64** %5, align 8, !llfi_index !979
  store %"class.std::ios_base::Init"* %2, %"class.std::ios_base::Init"** %6, align 8, !llfi_index !980
  %11 = load i64*, i64** %5, align 8, !llfi_index !981
  %12 = load i64*, i64** %4, align 8, !llfi_index !982
  %13 = ptrtoint i64* %11 to i64, !llfi_index !983
  %14 = ptrtoint i64* %12 to i64, !llfi_index !984
  %15 = sub i64 %13, %14, !llfi_index !985
  %16 = sdiv exact i64 %15, 8, !llfi_index !986
  %17 = icmp slt i64 %16, 2, !llfi_index !987
  br i1 %17, label %18, label %19, !llfi_index !988

18:                                               ; preds = %3
  br label %47, !llfi_index !989

19:                                               ; preds = %3
  %20 = load i64*, i64** %5, align 8, !llfi_index !990
  %21 = load i64*, i64** %4, align 8, !llfi_index !991
  %22 = ptrtoint i64* %20 to i64, !llfi_index !992
  %23 = ptrtoint i64* %21 to i64, !llfi_index !993
  %24 = sub i64 %22, %23, !llfi_index !994
  %25 = sdiv exact i64 %24, 8, !llfi_index !995
  store i64 %25, i64* %7, align 8, !llfi_index !996
  %26 = load i64, i64* %7, align 8, !llfi_index !997
  %27 = sub nsw i64 %26, 2, !llfi_index !998
  %28 = sdiv i64 %27, 2, !llfi_index !999
  store i64 %28, i64* %8, align 8, !llfi_index !1000
  br label %29, !llfi_index !1001

29:                                               ; preds = %44, %19
  %30 = load i64*, i64** %4, align 8, !llfi_index !1002
  %31 = load i64, i64* %8, align 8, !llfi_index !1003
  %32 = getelementptr inbounds i64, i64* %30, i64 %31, !llfi_index !1004
  %33 = call nonnull align 8 dereferenceable(8) i64* @_ZSt4moveIRlEONSt16remove_referenceIT_E4typeEOS2_(i64* nonnull align 8 dereferenceable(8) %32) #2, !llfi_index !1005
  %34 = load i64, i64* %33, align 8, !llfi_index !1006
  store i64 %34, i64* %9, align 8, !llfi_index !1007
  %35 = load i64*, i64** %4, align 8, !llfi_index !1008
  %36 = load i64, i64* %8, align 8, !llfi_index !1009
  %37 = load i64, i64* %7, align 8, !llfi_index !1010
  %38 = call nonnull align 8 dereferenceable(8) i64* @_ZSt4moveIRlEONSt16remove_referenceIT_E4typeEOS2_(i64* nonnull align 8 dereferenceable(8) %9) #2, !llfi_index !1011
  %39 = load i64, i64* %38, align 8, !llfi_index !1012
  %40 = load %"class.std::ios_base::Init"*, %"class.std::ios_base::Init"** %6, align 8, !llfi_index !1013
  call void @_ZSt13__adjust_heapIPlllN9__gnu_cxx5__ops15_Iter_less_iterEEvT_T0_S5_T1_T2_(i64* %35, i64 %36, i64 %37, i64 %39), !llfi_index !1014
  %41 = load i64, i64* %8, align 8, !llfi_index !1015
  %42 = icmp eq i64 %41, 0, !llfi_index !1016
  br i1 %42, label %43, label %44, !llfi_index !1017

43:                                               ; preds = %29
  br label %47, !llfi_index !1018

44:                                               ; preds = %29
  %45 = load i64, i64* %8, align 8, !llfi_index !1019
  %46 = add nsw i64 %45, -1, !llfi_index !1020
  store i64 %46, i64* %8, align 8, !llfi_index !1021
  br label %29, !llvm.loop !1022, !llfi_index !1023

47:                                               ; preds = %43, %18
  ret void, !llfi_index !1024
}

; Function Attrs: nofree nosync nounwind readnone speculatable willreturn
declare i64 @llvm.ctlz.i64(i64, i1 immarg) #5

attributes #0 = { noinline uwtable "frame-pointer"="all" "min-legal-vector-width"="0" "no-trapping-math"="true" "stack-protector-buffer-size"="8" "target-cpu"="x86-64" "target-features"="+cx8,+fxsr,+mmx,+sse,+sse2,+x87" "tune-cpu"="generic" }
attributes #1 = { "frame-pointer"="all" "no-trapping-math"="true" "stack-protector-buffer-size"="8" "target-cpu"="x86-64" "target-features"="+cx8,+fxsr,+mmx,+sse,+sse2,+x87" "tune-cpu"="generic" }
attributes #2 = { nounwind }
attributes #3 = { nounwind "frame-pointer"="all" "no-trapping-math"="true" "stack-protector-buffer-size"="8" "target-cpu"="x86-64" "target-features"="+cx8,+fxsr,+mmx,+sse,+sse2,+x87" "tune-cpu"="generic" }
attributes #4 = { mustprogress noinline norecurse uwtable "frame-pointer"="all" "min-legal-vector-width"="0" "no-trapping-math"="true" "stack-protector-buffer-size"="8" "target-cpu"="x86-64" "target-features"="+cx8,+fxsr,+mmx,+sse,+sse2,+x87" "tune-cpu"="generic" }
attributes #5 = { nofree nosync nounwind readnone speculatable willreturn }
attributes #6 = { nobuiltin allocsize(0) "frame-pointer"="all" "no-trapping-math"="true" "stack-protector-buffer-size"="8" "target-cpu"="x86-64" "target-features"="+cx8,+fxsr,+mmx,+sse,+sse2,+x87" "tune-cpu"="generic" }
attributes #7 = { nobuiltin nounwind "frame-pointer"="all" "no-trapping-math"="true" "stack-protector-buffer-size"="8" "target-cpu"="x86-64" "target-features"="+cx8,+fxsr,+mmx,+sse,+sse2,+x87" "tune-cpu"="generic" }
attributes #8 = { mustprogress noinline uwtable "frame-pointer"="all" "min-legal-vector-width"="0" "no-trapping-math"="true" "stack-protector-buffer-size"="8" "target-cpu"="x86-64" "target-features"="+cx8,+fxsr,+mmx,+sse,+sse2,+x87" "tune-cpu"="generic" }
attributes #9 = { nounwind readnone willreturn "frame-pointer"="all" "no-trapping-math"="true" "stack-protector-buffer-size"="8" "target-cpu"="x86-64" "target-features"="+cx8,+fxsr,+mmx,+sse,+sse2,+x87" "tune-cpu"="generic" }
attributes #10 = { mustprogress noinline nounwind uwtable "frame-pointer"="all" "min-legal-vector-width"="0" "no-trapping-math"="true" "stack-protector-buffer-size"="8" "target-cpu"="x86-64" "target-features"="+cx8,+fxsr,+mmx,+sse,+sse2,+x87" "tune-cpu"="generic" }
attributes #11 = { argmemonly nofree nounwind willreturn }
attributes #12 = { noinline nounwind uwtable "frame-pointer"="all" "min-legal-vector-width"="0" "no-trapping-math"="true" "stack-protector-buffer-size"="8" "target-cpu"="x86-64" "target-features"="+cx8,+fxsr,+mmx,+sse,+sse2,+x87" "tune-cpu"="generic" }
attributes #13 = { builtin allocsize(0) }
attributes #14 = { builtin nounwind }
attributes #15 = { nounwind readnone willreturn }

!llvm.ident = !{!0}
!llvm.module.flags = !{!1, !2, !3}

!0 = !{!"clang version 13.0.0 (https://github.com/llvm/llvm-project.git d7b669b3a30345cfcdb2fde2af6f48aa4b94845d)"}
!1 = !{i32 1, !"wchar_size", i32 4}
!2 = !{i32 7, !"uwtable", i32 1}
!3 = !{i32 7, !"frame-pointer", i32 2}
!4 = !{i64 1}
!5 = !{i64 2}
!6 = !{i64 3}
!7 = !{i64 4}
!8 = !{i64 5}
!9 = !{i64 6}
!10 = !{i64 7}
!11 = !{i64 8}
!12 = !{i64 9}
!13 = !{i64 10}
!14 = !{i64 11}
!15 = !{i64 12}
!16 = !{i64 13}
!17 = !{i64 14}
!18 = !{i64 15}
!19 = !{i64 16}
!20 = !{i64 17}
!21 = !{i64 18}
!22 = !{i64 19}
!23 = !{i64 20}
!24 = !{i64 21}
!25 = !{i64 22}
!26 = !{i64 23}
!27 = !{i64 24}
!28 = !{i64 25}
!29 = !{i64 26}
!30 = !{i64 27}
!31 = !{i64 28}
!32 = !{i64 29}
!33 = !{i64 30}
!34 = !{i64 31}
!35 = !{i64 32}
!36 = !{i64 33}
!37 = !{i64 34}
!38 = !{i64 35}
!39 = !{i64 36}
!40 = !{i64 37}
!41 = !{i64 38}
!42 = !{i64 39}
!43 = !{i64 40}
!44 = !{i64 41}
!45 = !{i64 42}
!46 = !{i64 43}
!47 = !{i64 44}
!48 = !{i64 45}
!49 = !{i64 46}
!50 = !{i64 47}
!51 = !{i64 48}
!52 = !{i64 49}
!53 = !{i64 50}
!54 = !{i64 51}
!55 = !{i64 52}
!56 = !{i64 53}
!57 = !{i64 54}
!58 = !{i64 55}
!59 = !{i64 56}
!60 = !{i64 57}
!61 = !{i64 58}
!62 = !{i64 59}
!63 = !{i64 60}
!64 = !{i64 61}
!65 = !{i64 62}
!66 = !{i64 63}
!67 = !{i64 64}
!68 = !{i64 65}
!69 = !{i64 66}
!70 = !{i64 67}
!71 = distinct !{!71, !72}
!72 = !{!"llvm.loop.mustprogress"}
!73 = !{i64 68}
!74 = !{i64 69}
!75 = !{i64 70}
!76 = !{i64 71}
!77 = !{i64 72}
!78 = !{i64 73}
!79 = !{i64 74}
!80 = !{i64 75}
!81 = !{i64 76}
!82 = !{i64 77}
!83 = !{i64 78}
!84 = !{i64 79}
!85 = !{i64 80}
!86 = !{i64 81}
!87 = !{i64 82}
!88 = !{i64 83}
!89 = !{i64 84}
!90 = !{i64 85}
!91 = !{i64 86}
!92 = !{i64 87}
!93 = !{i64 88}
!94 = !{i64 89}
!95 = !{i64 90}
!96 = !{i64 91}
!97 = !{i64 92}
!98 = !{i64 93}
!99 = !{i64 94}
!100 = !{i64 95}
!101 = !{i64 96}
!102 = !{i64 97}
!103 = !{i64 98}
!104 = !{i64 99}
!105 = !{i64 100}
!106 = !{i64 101}
!107 = !{i64 102}
!108 = !{i64 103}
!109 = !{i64 104}
!110 = !{i64 105}
!111 = !{i64 106}
!112 = !{i64 107}
!113 = !{i64 108}
!114 = !{i64 109}
!115 = !{i64 110}
!116 = !{i64 111}
!117 = !{i64 112}
!118 = !{i64 113}
!119 = !{i64 114}
!120 = !{i64 115}
!121 = !{i64 116}
!122 = !{i64 117}
!123 = !{i64 118}
!124 = !{i64 119}
!125 = distinct !{!125, !72}
!126 = !{i64 120}
!127 = !{i64 121}
!128 = !{i64 122}
!129 = !{i64 123}
!130 = !{i64 124}
!131 = !{i64 125}
!132 = !{i64 126}
!133 = !{i64 127}
!134 = !{i64 128}
!135 = !{i64 129}
!136 = !{i64 130}
!137 = !{i64 131}
!138 = !{i64 132}
!139 = !{i64 133}
!140 = !{i64 134}
!141 = !{i64 135}
!142 = !{i64 136}
!143 = !{i64 137}
!144 = !{i64 138}
!145 = !{i64 139}
!146 = !{i64 140}
!147 = !{i64 141}
!148 = !{i64 142}
!149 = !{i64 143}
!150 = !{i64 144}
!151 = !{i64 145}
!152 = !{i64 146}
!153 = !{i64 147}
!154 = !{i64 148}
!155 = !{i64 149}
!156 = !{i64 150}
!157 = !{i64 151}
!158 = !{i64 152}
!159 = !{i64 153}
!160 = !{i64 154}
!161 = !{i64 155}
!162 = !{i64 156}
!163 = !{i64 157}
!164 = !{i64 158}
!165 = !{i64 159}
!166 = !{i64 160}
!167 = !{i64 161}
!168 = !{i64 162}
!169 = !{i64 163}
!170 = !{i64 164}
!171 = !{i64 165}
!172 = distinct !{!172, !72}
!173 = !{i64 166}
!174 = !{i64 167}
!175 = !{i64 168}
!176 = !{i64 169}
!177 = !{i64 170}
!178 = !{i64 171}
!179 = !{i64 172}
!180 = !{i64 173}
!181 = !{i64 174}
!182 = !{i64 175}
!183 = !{i64 176}
!184 = !{i64 177}
!185 = !{i64 178}
!186 = !{i64 179}
!187 = !{i64 180}
!188 = !{i64 181}
!189 = !{i64 182}
!190 = !{i64 183}
!191 = !{i64 184}
!192 = !{i64 185}
!193 = !{i64 186}
!194 = !{i64 187}
!195 = !{i64 188}
!196 = !{i64 189}
!197 = !{i64 190}
!198 = !{i64 191}
!199 = !{i64 192}
!200 = !{i64 193}
!201 = !{i64 194}
!202 = !{i64 195}
!203 = !{i64 196}
!204 = !{i64 197}
!205 = !{i64 198}
!206 = !{i64 199}
!207 = !{i64 200}
!208 = !{i64 201}
!209 = !{i64 202}
!210 = !{i64 203}
!211 = !{i64 204}
!212 = !{i64 205}
!213 = !{i64 206}
!214 = !{i64 207}
!215 = !{i64 208}
!216 = !{i64 209}
!217 = !{i64 210}
!218 = !{i64 211}
!219 = !{i64 212}
!220 = !{i64 213}
!221 = !{i64 214}
!222 = !{i64 215}
!223 = !{i64 216}
!224 = !{i64 217}
!225 = !{i64 218}
!226 = !{i64 219}
!227 = !{i64 220}
!228 = !{i64 221}
!229 = !{i64 222}
!230 = !{i64 223}
!231 = !{i64 224}
!232 = !{i64 225}
!233 = !{i64 226}
!234 = !{i64 227}
!235 = !{i64 228}
!236 = !{i64 229}
!237 = !{i64 230}
!238 = !{i64 231}
!239 = !{i64 232}
!240 = !{i64 233}
!241 = !{i64 234}
!242 = !{i64 235}
!243 = !{i64 236}
!244 = !{i64 237}
!245 = !{i64 238}
!246 = !{i64 239}
!247 = !{i64 240}
!248 = !{i64 241}
!249 = !{i64 242}
!250 = !{i64 243}
!251 = !{i64 244}
!252 = !{i64 245}
!253 = !{i64 246}
!254 = !{i64 247}
!255 = !{i64 248}
!256 = !{i64 249}
!257 = !{i64 250}
!258 = !{i64 251}
!259 = !{i64 252}
!260 = !{i64 253}
!261 = !{i64 254}
!262 = !{i64 255}
!263 = !{i64 256}
!264 = !{i64 257}
!265 = !{i64 258}
!266 = !{i64 259}
!267 = !{i64 260}
!268 = !{i64 261}
!269 = !{i64 262}
!270 = !{i64 263}
!271 = !{i64 264}
!272 = distinct !{!272, !72}
!273 = !{i64 265}
!274 = !{i64 266}
!275 = !{i64 267}
!276 = !{i64 268}
!277 = !{i64 269}
!278 = !{i64 270}
!279 = !{i64 271}
!280 = !{i64 272}
!281 = !{i64 273}
!282 = !{i64 274}
!283 = !{i64 275}
!284 = !{i64 276}
!285 = !{i64 277}
!286 = !{i64 278}
!287 = !{i64 279}
!288 = !{i64 280}
!289 = !{i64 281}
!290 = !{i64 282}
!291 = !{i64 283}
!292 = !{i64 284}
!293 = !{i64 285}
!294 = !{i64 286}
!295 = !{i64 287}
!296 = !{i64 288}
!297 = !{i64 289}
!298 = !{i64 290}
!299 = !{i64 291}
!300 = !{i64 292}
!301 = !{i64 293}
!302 = !{i64 294}
!303 = !{i64 295}
!304 = !{i64 296}
!305 = !{i64 297}
!306 = !{i64 298}
!307 = !{i64 299}
!308 = !{i64 300}
!309 = !{i64 301}
!310 = !{i64 302}
!311 = !{i64 303}
!312 = !{i64 304}
!313 = !{i64 305}
!314 = !{i64 306}
!315 = !{i64 307}
!316 = !{i64 308}
!317 = !{i64 309}
!318 = !{i64 310}
!319 = !{i64 311}
!320 = !{i64 312}
!321 = !{i64 313}
!322 = !{i64 314}
!323 = !{i64 315}
!324 = !{i64 316}
!325 = !{i64 317}
!326 = !{i64 318}
!327 = !{i64 319}
!328 = !{i64 320}
!329 = !{i64 321}
!330 = !{i64 322}
!331 = !{i64 323}
!332 = !{i64 324}
!333 = !{i64 325}
!334 = !{i64 326}
!335 = !{i64 327}
!336 = !{i64 328}
!337 = !{i64 329}
!338 = !{i64 330}
!339 = !{i64 331}
!340 = !{i64 332}
!341 = !{i64 333}
!342 = !{i64 334}
!343 = !{i64 335}
!344 = !{i64 336}
!345 = !{i64 337}
!346 = !{i64 338}
!347 = !{i64 339}
!348 = !{i64 340}
!349 = !{i64 341}
!350 = !{i64 342}
!351 = !{i64 343}
!352 = !{i64 344}
!353 = !{i64 345}
!354 = distinct !{!354, !72}
!355 = !{i64 346}
!356 = !{i64 347}
!357 = !{i64 348}
!358 = !{i64 349}
!359 = !{i64 350}
!360 = !{i64 351}
!361 = !{i64 352}
!362 = !{i64 353}
!363 = !{i64 354}
!364 = !{i64 355}
!365 = !{i64 356}
!366 = !{i64 357}
!367 = !{i64 358}
!368 = !{i64 359}
!369 = !{i64 360}
!370 = !{i64 361}
!371 = !{i64 362}
!372 = !{i64 363}
!373 = !{i64 364}
!374 = !{i64 365}
!375 = !{i64 366}
!376 = !{i64 367}
!377 = !{i64 368}
!378 = !{i64 369}
!379 = !{i64 370}
!380 = distinct !{!380, !72}
!381 = !{i64 371}
!382 = !{i64 372}
!383 = !{i64 373}
!384 = !{i64 374}
!385 = !{i64 375}
!386 = !{i64 376}
!387 = !{i64 377}
!388 = !{i64 378}
!389 = !{i64 379}
!390 = !{i64 380}
!391 = !{i64 381}
!392 = !{i64 382}
!393 = !{i64 383}
!394 = !{i64 384}
!395 = !{i64 385}
!396 = !{i64 386}
!397 = !{i64 387}
!398 = !{i64 388}
!399 = !{i64 389}
!400 = !{i64 390}
!401 = !{i64 391}
!402 = !{i64 392}
!403 = !{i64 393}
!404 = !{i64 394}
!405 = !{i64 395}
!406 = !{i64 396}
!407 = !{i64 397}
!408 = !{i64 398}
!409 = !{i64 399}
!410 = !{i64 400}
!411 = !{i64 401}
!412 = !{i64 402}
!413 = distinct !{!413, !72}
!414 = !{i64 403}
!415 = !{i64 404}
!416 = !{i64 405}
!417 = !{i64 406}
!418 = !{i64 407}
!419 = !{i64 408}
!420 = !{i64 409}
!421 = !{i64 410}
!422 = !{i64 411}
!423 = !{i64 412}
!424 = !{i64 413}
!425 = !{i64 414}
!426 = !{i64 415}
!427 = !{i64 416}
!428 = !{i64 417}
!429 = !{i64 418}
!430 = !{i64 419}
!431 = !{i64 420}
!432 = !{i64 421}
!433 = !{i64 422}
!434 = !{i64 423}
!435 = !{i64 424}
!436 = !{i64 425}
!437 = !{i64 426}
!438 = !{i64 427}
!439 = !{i64 428}
!440 = !{i64 429}
!441 = !{i64 430}
!442 = !{i64 431}
!443 = !{i64 432}
!444 = !{i64 433}
!445 = !{i64 434}
!446 = !{i64 435}
!447 = !{i64 436}
!448 = !{i64 437}
!449 = !{i64 438}
!450 = !{i64 439}
!451 = !{i64 440}
!452 = !{i64 441}
!453 = !{i64 442}
!454 = !{i64 443}
!455 = !{i64 444}
!456 = !{i64 445}
!457 = !{i64 446}
!458 = !{i64 447}
!459 = !{i64 448}
!460 = !{i64 449}
!461 = !{i64 450}
!462 = !{i64 451}
!463 = !{i64 452}
!464 = !{i64 453}
!465 = !{i64 454}
!466 = !{i64 455}
!467 = !{i64 456}
!468 = !{i64 457}
!469 = !{i64 458}
!470 = !{i64 459}
!471 = !{i64 460}
!472 = !{i64 461}
!473 = !{i64 462}
!474 = !{i64 463}
!475 = !{i64 464}
!476 = !{i64 465}
!477 = !{i64 466}
!478 = !{i64 467}
!479 = !{i64 468}
!480 = !{i64 469}
!481 = !{i64 470}
!482 = !{i64 471}
!483 = !{i64 472}
!484 = !{i64 473}
!485 = !{i64 474}
!486 = !{i64 475}
!487 = !{i64 476}
!488 = !{i64 477}
!489 = !{i64 478}
!490 = !{i64 479}
!491 = !{i64 480}
!492 = !{i64 481}
!493 = !{i64 482}
!494 = !{i64 483}
!495 = !{i64 484}
!496 = !{i64 485}
!497 = !{i64 486}
!498 = !{i64 487}
!499 = !{i64 488}
!500 = !{i64 489}
!501 = !{i64 490}
!502 = !{i64 491}
!503 = !{i64 492}
!504 = !{i64 493}
!505 = !{i64 494}
!506 = !{i64 495}
!507 = !{i64 496}
!508 = !{i64 497}
!509 = !{i64 498}
!510 = !{i64 499}
!511 = !{i64 500}
!512 = !{i64 501}
!513 = !{i64 502}
!514 = !{i64 503}
!515 = !{i64 504}
!516 = !{i64 505}
!517 = !{i64 506}
!518 = !{i64 507}
!519 = !{i64 508}
!520 = !{i64 509}
!521 = !{i64 510}
!522 = !{i64 511}
!523 = !{i64 512}
!524 = !{i64 513}
!525 = !{i64 514}
!526 = !{i64 515}
!527 = !{i64 516}
!528 = !{i64 517}
!529 = !{i64 518}
!530 = !{i64 519}
!531 = !{i64 520}
!532 = !{i64 521}
!533 = !{i64 522}
!534 = !{i64 523}
!535 = !{i64 524}
!536 = !{i64 525}
!537 = !{i64 526}
!538 = !{i64 527}
!539 = !{i64 528}
!540 = !{i64 529}
!541 = !{i64 530}
!542 = !{i64 531}
!543 = !{i64 532}
!544 = !{i64 533}
!545 = !{i64 534}
!546 = !{i64 535}
!547 = !{i64 536}
!548 = !{i64 537}
!549 = !{i64 538}
!550 = !{i64 539}
!551 = !{i64 540}
!552 = !{i64 541}
!553 = !{i64 542}
!554 = !{i64 543}
!555 = !{i64 544}
!556 = !{i64 545}
!557 = !{i64 546}
!558 = !{i64 547}
!559 = !{i64 548}
!560 = !{i64 549}
!561 = !{i64 550}
!562 = !{i64 551}
!563 = !{i64 552}
!564 = !{i64 553}
!565 = !{i64 554}
!566 = !{i64 555}
!567 = !{i64 556}
!568 = !{i64 557}
!569 = !{i64 558}
!570 = !{i64 559}
!571 = !{i64 560}
!572 = !{i64 561}
!573 = !{i64 562}
!574 = !{i64 563}
!575 = !{i64 564}
!576 = !{i64 565}
!577 = !{i64 566}
!578 = !{i64 567}
!579 = !{i64 568}
!580 = !{i64 569}
!581 = !{i64 570}
!582 = !{i64 571}
!583 = !{i64 572}
!584 = !{i64 573}
!585 = !{i64 574}
!586 = !{i64 575}
!587 = !{i64 576}
!588 = !{i64 577}
!589 = !{i64 578}
!590 = !{i64 579}
!591 = !{i64 580}
!592 = !{i64 581}
!593 = !{i64 582}
!594 = !{i64 583}
!595 = !{i64 584}
!596 = !{i64 585}
!597 = !{i64 586}
!598 = !{i64 587}
!599 = !{i64 588}
!600 = !{i64 589}
!601 = !{i64 590}
!602 = !{i64 591}
!603 = !{i64 592}
!604 = !{i64 593}
!605 = !{i64 594}
!606 = !{i64 595}
!607 = !{i64 596}
!608 = !{i64 597}
!609 = !{i64 598}
!610 = !{i64 599}
!611 = !{i64 600}
!612 = !{i64 601}
!613 = !{i64 602}
!614 = !{i64 603}
!615 = !{i64 604}
!616 = !{i64 605}
!617 = !{i64 606}
!618 = !{i64 607}
!619 = !{i64 608}
!620 = !{i64 609}
!621 = !{i64 610}
!622 = !{i64 611}
!623 = !{i64 612}
!624 = !{i64 613}
!625 = !{i64 614}
!626 = !{i64 615}
!627 = !{i64 616}
!628 = !{i64 617}
!629 = !{i64 618}
!630 = !{i64 619}
!631 = !{i64 620}
!632 = !{i64 621}
!633 = !{i64 622}
!634 = !{i64 623}
!635 = !{i64 624}
!636 = !{i64 625}
!637 = !{i64 626}
!638 = !{i64 627}
!639 = !{i64 628}
!640 = !{i64 629}
!641 = !{i64 630}
!642 = !{i64 631}
!643 = !{i64 632}
!644 = !{i64 633}
!645 = !{i64 634}
!646 = !{i64 635}
!647 = !{i64 636}
!648 = !{i64 637}
!649 = !{i64 638}
!650 = !{i64 639}
!651 = !{i64 640}
!652 = !{i64 641}
!653 = !{i64 642}
!654 = !{i64 643}
!655 = !{i64 644}
!656 = !{i64 645}
!657 = !{i64 646}
!658 = !{i64 647}
!659 = distinct !{!659, !72}
!660 = !{i64 648}
!661 = !{i64 649}
!662 = !{i64 650}
!663 = !{i64 651}
!664 = !{i64 652}
!665 = !{i64 653}
!666 = !{i64 654}
!667 = !{i64 655}
!668 = !{i64 656}
!669 = !{i64 657}
!670 = !{i64 658}
!671 = !{i64 659}
!672 = distinct !{!672, !72}
!673 = !{i64 660}
!674 = !{i64 661}
!675 = !{i64 662}
!676 = !{i64 663}
!677 = !{i64 664}
!678 = !{i64 665}
!679 = !{i64 666}
!680 = !{i64 667}
!681 = !{i64 668}
!682 = !{i64 669}
!683 = !{i64 670}
!684 = !{i64 671}
!685 = !{i64 672}
!686 = distinct !{!686, !72}
!687 = !{i64 673}
!688 = !{i64 674}
!689 = !{i64 675}
!690 = !{i64 676}
!691 = !{i64 677}
!692 = !{i64 678}
!693 = !{i64 679}
!694 = !{i64 680}
!695 = !{i64 681}
!696 = !{i64 682}
!697 = !{i64 683}
!698 = !{i64 684}
!699 = !{i64 685}
!700 = !{i64 686}
!701 = !{i64 687}
!702 = !{i64 688}
!703 = !{i64 689}
!704 = !{i64 690}
!705 = !{i64 691}
!706 = !{i64 692}
!707 = !{i64 693}
!708 = !{i64 694}
!709 = !{i64 695}
!710 = !{i64 696}
!711 = !{i64 697}
!712 = !{i64 698}
!713 = !{i64 699}
!714 = !{i64 700}
!715 = !{i64 701}
!716 = !{i64 702}
!717 = !{i64 703}
!718 = !{i64 704}
!719 = !{i64 705}
!720 = !{i64 706}
!721 = !{i64 707}
!722 = !{i64 708}
!723 = !{i64 709}
!724 = !{i64 710}
!725 = !{i64 711}
!726 = !{i64 712}
!727 = !{i64 713}
!728 = !{i64 714}
!729 = !{i64 715}
!730 = !{i64 716}
!731 = !{i64 717}
!732 = !{i64 718}
!733 = !{i64 719}
!734 = !{i64 720}
!735 = !{i64 721}
!736 = !{i64 722}
!737 = !{i64 723}
!738 = !{i64 724}
!739 = !{i64 725}
!740 = !{i64 726}
!741 = !{i64 727}
!742 = !{i64 728}
!743 = !{i64 729}
!744 = !{i64 730}
!745 = !{i64 731}
!746 = distinct !{!746, !72}
!747 = !{i64 732}
!748 = !{i64 733}
!749 = !{i64 734}
!750 = !{i64 735}
!751 = !{i64 736}
!752 = !{i64 737}
!753 = !{i64 738}
!754 = !{i64 739}
!755 = !{i64 740}
!756 = !{i64 741}
!757 = !{i64 742}
!758 = !{i64 743}
!759 = !{i64 744}
!760 = !{i64 745}
!761 = !{i64 746}
!762 = !{i64 747}
!763 = !{i64 748}
!764 = !{i64 749}
!765 = !{i64 750}
!766 = !{i64 751}
!767 = !{i64 752}
!768 = !{i64 753}
!769 = !{i64 754}
!770 = !{i64 755}
!771 = !{i64 756}
!772 = distinct !{!772, !72}
!773 = !{i64 757}
!774 = !{i64 758}
!775 = !{i64 759}
!776 = !{i64 760}
!777 = !{i64 761}
!778 = !{i64 762}
!779 = !{i64 763}
!780 = !{i64 764}
!781 = !{i64 765}
!782 = !{i64 766}
!783 = !{i64 767}
!784 = !{i64 768}
!785 = !{i64 769}
!786 = !{i64 770}
!787 = !{i64 771}
!788 = !{i64 772}
!789 = !{i64 773}
!790 = !{i64 774}
!791 = !{i64 775}
!792 = !{i64 776}
!793 = !{i64 777}
!794 = !{i64 778}
!795 = !{i64 779}
!796 = !{i64 780}
!797 = !{i64 781}
!798 = !{i64 782}
!799 = !{i64 783}
!800 = !{i64 784}
!801 = !{i64 785}
!802 = !{i64 786}
!803 = !{i64 787}
!804 = !{i64 788}
!805 = !{i64 789}
!806 = !{i64 790}
!807 = !{i64 791}
!808 = !{i64 792}
!809 = !{i64 793}
!810 = !{i64 794}
!811 = !{i64 795}
!812 = !{i64 796}
!813 = !{i64 797}
!814 = !{i64 798}
!815 = !{i64 799}
!816 = !{i64 800}
!817 = !{i64 801}
!818 = !{i64 802}
!819 = !{i64 803}
!820 = !{i64 804}
!821 = !{i64 805}
!822 = !{i64 806}
!823 = !{i64 807}
!824 = !{i64 808}
!825 = !{i64 809}
!826 = !{i64 810}
!827 = !{i64 811}
!828 = !{i64 812}
!829 = !{i64 813}
!830 = !{i64 814}
!831 = !{i64 815}
!832 = !{i64 816}
!833 = !{i64 817}
!834 = !{i64 818}
!835 = !{i64 819}
!836 = !{i64 820}
!837 = !{i64 821}
!838 = !{i64 822}
!839 = !{i64 823}
!840 = !{i64 824}
!841 = !{i64 825}
!842 = !{i64 826}
!843 = !{i64 827}
!844 = !{i64 828}
!845 = !{i64 829}
!846 = !{i64 830}
!847 = !{i64 831}
!848 = !{i64 832}
!849 = !{i64 833}
!850 = !{i64 834}
!851 = !{i64 835}
!852 = !{i64 836}
!853 = !{i64 837}
!854 = !{i64 838}
!855 = !{i64 839}
!856 = !{i64 840}
!857 = !{i64 841}
!858 = distinct !{!858, !72}
!859 = !{i64 842}
!860 = !{i64 843}
!861 = !{i64 844}
!862 = !{i64 845}
!863 = !{i64 846}
!864 = !{i64 847}
!865 = !{i64 848}
!866 = !{i64 849}
!867 = !{i64 850}
!868 = !{i64 851}
!869 = !{i64 852}
!870 = !{i64 853}
!871 = !{i64 854}
!872 = !{i64 855}
!873 = !{i64 856}
!874 = !{i64 857}
!875 = !{i64 858}
!876 = !{i64 859}
!877 = !{i64 860}
!878 = !{i64 861}
!879 = !{i64 862}
!880 = !{i64 863}
!881 = !{i64 864}
!882 = !{i64 865}
!883 = !{i64 866}
!884 = !{i64 867}
!885 = !{i64 868}
!886 = !{i64 869}
!887 = !{i64 870}
!888 = !{i64 871}
!889 = !{i64 872}
!890 = !{i64 873}
!891 = !{i64 874}
!892 = !{i64 875}
!893 = !{i64 876}
!894 = !{i64 877}
!895 = !{i64 878}
!896 = !{i64 879}
!897 = !{i64 880}
!898 = !{i64 881}
!899 = !{i64 882}
!900 = !{i64 883}
!901 = !{i64 884}
!902 = !{i64 885}
!903 = !{i64 886}
!904 = !{i64 887}
!905 = !{i64 888}
!906 = !{i64 889}
!907 = !{i64 890}
!908 = !{i64 891}
!909 = !{i64 892}
!910 = !{i64 893}
!911 = !{i64 894}
!912 = !{i64 895}
!913 = !{i64 896}
!914 = !{i64 897}
!915 = !{i64 898}
!916 = !{i64 899}
!917 = !{i64 900}
!918 = !{i64 901}
!919 = !{i64 902}
!920 = !{i64 903}
!921 = !{i64 904}
!922 = !{i64 905}
!923 = !{i64 906}
!924 = !{i64 907}
!925 = !{i64 908}
!926 = !{i64 909}
!927 = !{i64 910}
!928 = !{i64 911}
!929 = !{i64 912}
!930 = !{i64 913}
!931 = !{i64 914}
!932 = !{i64 915}
!933 = !{i64 916}
!934 = !{i64 917}
!935 = !{i64 918}
!936 = !{i64 919}
!937 = !{i64 920}
!938 = !{i64 921}
!939 = !{i64 922}
!940 = !{i64 923}
!941 = !{i64 924}
!942 = !{i64 925}
!943 = !{i64 926}
!944 = !{i64 927}
!945 = !{i64 928}
!946 = !{i64 929}
!947 = !{i64 930}
!948 = !{i64 931}
!949 = distinct !{!949, !72}
!950 = !{i64 932}
!951 = !{i64 933}
!952 = !{i64 934}
!953 = !{i64 935}
!954 = !{i64 936}
!955 = !{i64 937}
!956 = !{i64 938}
!957 = !{i64 939}
!958 = !{i64 940}
!959 = !{i64 941}
!960 = !{i64 942}
!961 = !{i64 943}
!962 = !{i64 944}
!963 = !{i64 945}
!964 = !{i64 946}
!965 = !{i64 947}
!966 = !{i64 948}
!967 = !{i64 949}
!968 = !{i64 950}
!969 = !{i64 951}
!970 = !{i64 952}
!971 = !{i64 953}
!972 = !{i64 954}
!973 = !{i64 955}
!974 = !{i64 956}
!975 = !{i64 957}
!976 = !{i64 958}
!977 = !{i64 959}
!978 = !{i64 960}
!979 = !{i64 961}
!980 = !{i64 962}
!981 = !{i64 963}
!982 = !{i64 964}
!983 = !{i64 965}
!984 = !{i64 966}
!985 = !{i64 967}
!986 = !{i64 968}
!987 = !{i64 969}
!988 = !{i64 970}
!989 = !{i64 971}
!990 = !{i64 972}
!991 = !{i64 973}
!992 = !{i64 974}
!993 = !{i64 975}
!994 = !{i64 976}
!995 = !{i64 977}
!996 = !{i64 978}
!997 = !{i64 979}
!998 = !{i64 980}
!999 = !{i64 981}
!1000 = !{i64 982}
!1001 = !{i64 983}
!1002 = !{i64 984}
!1003 = !{i64 985}
!1004 = !{i64 986}
!1005 = !{i64 987}
!1006 = !{i64 988}
!1007 = !{i64 989}
!1008 = !{i64 990}
!1009 = !{i64 991}
!1010 = !{i64 992}
!1011 = !{i64 993}
!1012 = !{i64 994}
!1013 = !{i64 995}
!1014 = !{i64 996}
!1015 = !{i64 997}
!1016 = !{i64 998}
!1017 = !{i64 999}
!1018 = !{i64 1000}
!1019 = !{i64 1001}
!1020 = !{i64 1002}
!1021 = !{i64 1003}
!1022 = distinct !{!1022, !72}
!1023 = !{i64 1004}
!1024 = !{i64 1005}
