; ModuleID = '/home/hjiang/Computation-Kernel-Dataset/experiments/Fault_injection_0308_parall/O0/ConstructtheArray/ConstructtheArray.ll'
source_filename = "llvm-link"
target datalayout = "e-m:e-p270:32:32-p271:32:32-p272:64:64-i64:64-f80:128-n8:16:32:64-S128"
target triple = "x86_64-unknown-linux-gnu"

%"class.std::ios_base::Init" = type { i8 }
%struct._IO_FILE = type { i32, i8*, i8*, i8*, i8*, i8*, i8*, i8*, i8*, i8*, i8*, i8*, %struct._IO_marker*, %struct._IO_FILE*, i32, i32, i64, i16, i8, [1 x i8], i8*, i64, %struct._IO_codecvt*, %struct._IO_wide_data*, %struct._IO_FILE*, i8*, i64, i32, [20 x i8] }
%struct._IO_marker = type opaque
%struct._IO_codecvt = type opaque
%struct._IO_wide_data = type opaque
%"class.std::basic_istream" = type { i32 (...)**, i64, %"class.std::basic_ios" }
%"class.std::basic_ios" = type { %"class.std::ios_base", %"class.std::basic_ostream"*, i8, i8, %"class.std::basic_streambuf"*, %"class.std::ctype"*, %"class.std::num_put"*, %"class.std::num_put"* }
%"class.std::ios_base" = type { i32 (...)**, i64, i64, i32, i32, i32, %"struct.std::ios_base::_Callback_list"*, %"struct.std::ios_base::_Words", [8 x %"struct.std::ios_base::_Words"], i32, %"struct.std::ios_base::_Words"*, %"class.std::locale" }
%"struct.std::ios_base::_Callback_list" = type { %"struct.std::ios_base::_Callback_list"*, void (i32, %"class.std::ios_base"*, i32)*, i32, i32 }
%"struct.std::ios_base::_Words" = type { i8*, i64 }
%"class.std::locale" = type { %"class.std::locale::_Impl"* }
%"class.std::locale::_Impl" = type { i32, %"class.std::locale::facet"**, i64, %"class.std::locale::facet"**, i8** }
%"class.std::locale::facet" = type <{ i32 (...)**, i32, [4 x i8] }>
%"class.std::basic_ostream" = type { i32 (...)**, %"class.std::basic_ios" }
%"class.std::basic_streambuf" = type { i32 (...)**, i8*, i8*, i8*, i8*, i8*, i8*, %"class.std::locale" }
%"class.std::ctype" = type <{ %"class.std::locale::facet.base", [4 x i8], %struct.__locale_struct*, i8, [7 x i8], i32*, i32*, i16*, i8, [256 x i8], [256 x i8], i8, [6 x i8] }>
%"class.std::locale::facet.base" = type <{ i32 (...)**, i32 }>
%struct.__locale_struct = type { [13 x %struct.__locale_data*], i16*, i32*, i32*, [13 x i8*] }
%struct.__locale_data = type opaque
%"class.std::num_put" = type { %"class.std::locale::facet.base", [4 x i8] }

$_ZSt3maxIxERKT_S2_S2_ = comdat any

@llvm.global_ctors = appending global [1 x { i32, void ()*, i8* }] [{ i32, void ()*, i8* } { i32 65535, void ()* @_GLOBAL__sub_I_ConstructtheArray.cpp, i8* null }]
@_ZStL8__ioinit = internal global %"class.std::ios_base::Init" zeroinitializer, align 1
@n = dso_local global i64 0, align 8
@k = dso_local global i64 0, align 8
@x = dso_local global i64 0, align 8
@dp = dso_local global [510031 x [3 x i64]] zeroinitializer, align 16
@.str = private unnamed_addr constant [33 x i8] c"../input_files/ConstructtheArray\00", align 1
@.str.1 = private unnamed_addr constant [2 x i8] c"r\00", align 1
@stdin = external dso_local global %struct._IO_FILE*, align 8
@_ZSt3cin = external dso_local global %"class.std::basic_istream", align 8
@_ZSt4cout = external dso_local global %"class.std::basic_ostream", align 8

; Function Attrs: noinline uwtable
define internal void @_GLOBAL__sub_I_ConstructtheArray.cpp() #0 section ".text.startup" {
  call void @__cxx_global_var_init(), !llfi_index !4
  ret void, !llfi_index !5
}

; Function Attrs: noinline uwtable
define internal void @__cxx_global_var_init() #0 section ".text.startup" {
  call void @_ZNSt8ios_base4InitC1Ev(%"class.std::ios_base::Init"* nonnull align 1 dereferenceable(1) @_ZStL8__ioinit), !llfi_index !6
  %1 = call i32 @atexit(void ()* @__dtor__ZStL8__ioinit) #2, !llfi_index !7
  ret void, !llfi_index !8
}

declare dso_local void @_ZNSt8ios_base4InitC1Ev(%"class.std::ios_base::Init"* nonnull align 1 dereferenceable(1)) unnamed_addr #1

; Function Attrs: noinline uwtable
define internal void @__dtor__ZStL8__ioinit() #0 section ".text.startup" {
  call void @_ZNSt8ios_base4InitD1Ev(%"class.std::ios_base::Init"* @_ZStL8__ioinit), !llfi_index !9
  ret void, !llfi_index !10
}

; Function Attrs: nounwind
declare dso_local i32 @atexit(void ()*) #2

; Function Attrs: nounwind
declare dso_local void @_ZNSt8ios_base4InitD1Ev(%"class.std::ios_base::Init"* nonnull align 1 dereferenceable(1)) unnamed_addr #3

; Function Attrs: mustprogress noinline norecurse uwtable
define dso_local i32 @main() #4 {
  %1 = alloca i32, align 4, !llfi_index !11
  %2 = alloca i32, align 4, !llfi_index !12
  %3 = alloca i32, align 4, !llfi_index !13
  %4 = alloca i32, align 4, !llfi_index !14
  %5 = alloca i32, align 4, !llfi_index !15
  %6 = alloca i64, align 8, !llfi_index !16
  %7 = alloca i64, align 8, !llfi_index !17
  %8 = alloca i64, align 8, !llfi_index !18
  store i32 0, i32* %1, align 4, !llfi_index !19
  %9 = load %struct._IO_FILE*, %struct._IO_FILE** @stdin, align 8, !llfi_index !20
  %10 = call %struct._IO_FILE* @freopen(i8* getelementptr inbounds ([33 x i8], [33 x i8]* @.str, i64 0, i64 0), i8* getelementptr inbounds ([2 x i8], [2 x i8]* @.str.1, i64 0, i64 0), %struct._IO_FILE* %9), !llfi_index !21
  %11 = call zeroext i1 @_ZNSt8ios_base15sync_with_stdioEb(i1 zeroext false), !llfi_index !22
  %12 = call nonnull align 8 dereferenceable(16) %"class.std::basic_istream"* @_ZNSirsERx(%"class.std::basic_istream"* nonnull align 8 dereferenceable(16) @_ZSt3cin, i64* nonnull align 8 dereferenceable(8) @n), !llfi_index !23
  %13 = call nonnull align 8 dereferenceable(16) %"class.std::basic_istream"* @_ZNSirsERx(%"class.std::basic_istream"* nonnull align 8 dereferenceable(16) %12, i64* nonnull align 8 dereferenceable(8) @k), !llfi_index !24
  %14 = call nonnull align 8 dereferenceable(16) %"class.std::basic_istream"* @_ZNSirsERx(%"class.std::basic_istream"* nonnull align 8 dereferenceable(16) %13, i64* nonnull align 8 dereferenceable(8) @x), !llfi_index !25
  %15 = load i64, i64* @x, align 8, !llfi_index !26
  %16 = icmp eq i64 %15, 1, !llfi_index !27
  %17 = zext i1 %16 to i64, !llfi_index !28
  %18 = getelementptr inbounds [3 x i64], [3 x i64]* getelementptr inbounds ([510031 x [3 x i64]], [510031 x [3 x i64]]* @dp, i64 0, i64 1), i64 0, i64 %17, !llfi_index !29
  store i64 1, i64* %18, align 8, !llfi_index !30
  store i32 89, i32* %2, align 4, !llfi_index !31
  store i32 2, i32* %3, align 4, !llfi_index !32
  br label %19, !llfi_index !33

19:                                               ; preds = %100, %0
  %20 = load i32, i32* %3, align 4, !llfi_index !34
  %21 = sext i32 %20 to i64, !llfi_index !35
  %22 = load i64, i64* @n, align 8, !llfi_index !36
  %23 = icmp sle i64 %21, %22, !llfi_index !37
  br i1 %23, label %24, label %103, !llfi_index !38

24:                                               ; preds = %19
  store i32 89, i32* %2, align 4, !llfi_index !39
  store i32 0, i32* %4, align 4, !llfi_index !40
  br label %25, !llfi_index !41

25:                                               ; preds = %96, %24
  %26 = load i32, i32* %4, align 4, !llfi_index !42
  %27 = icmp sle i32 %26, 1, !llfi_index !43
  br i1 %27, label %28, label %99, !llfi_index !44

28:                                               ; preds = %25
  store i32 0, i32* %5, align 4, !llfi_index !45
  br label %29, !llfi_index !46

29:                                               ; preds = %92, %28
  %30 = load i32, i32* %5, align 4, !llfi_index !47
  %31 = icmp sle i32 %30, 1, !llfi_index !48
  br i1 %31, label %32, label %95, !llfi_index !49

32:                                               ; preds = %29
  %33 = load i32, i32* %4, align 4, !llfi_index !50
  %34 = icmp eq i32 %33, 1, !llfi_index !51
  br i1 %34, label %35, label %39, !llfi_index !52

35:                                               ; preds = %32
  %36 = load i32, i32* %5, align 4, !llfi_index !53
  %37 = icmp eq i32 %36, 1, !llfi_index !54
  br i1 %37, label %38, label %39, !llfi_index !55

38:                                               ; preds = %35
  store i64 0, i64* %6, align 8, !llfi_index !56
  br label %39, !llfi_index !57

39:                                               ; preds = %38, %35, %32
  %40 = load i32, i32* %4, align 4, !llfi_index !58
  %41 = icmp eq i32 %40, 1, !llfi_index !59
  br i1 %41, label %42, label %48, !llfi_index !60

42:                                               ; preds = %39
  %43 = load i32, i32* %5, align 4, !llfi_index !61
  %44 = icmp eq i32 %43, 0, !llfi_index !62
  br i1 %44, label %45, label %48, !llfi_index !63

45:                                               ; preds = %42
  %46 = load i64, i64* @k, align 8, !llfi_index !64
  %47 = sub nsw i64 %46, 1, !llfi_index !65
  store i64 %47, i64* %6, align 8, !llfi_index !66
  br label %48, !llfi_index !67

48:                                               ; preds = %45, %42, %39
  %49 = load i32, i32* %4, align 4, !llfi_index !68
  %50 = icmp eq i32 %49, 0, !llfi_index !69
  br i1 %50, label %51, label %55, !llfi_index !70

51:                                               ; preds = %48
  %52 = load i32, i32* %5, align 4, !llfi_index !71
  %53 = icmp eq i32 %52, 1, !llfi_index !72
  br i1 %53, label %54, label %55, !llfi_index !73

54:                                               ; preds = %51
  store i64 1, i64* %6, align 8, !llfi_index !74
  br label %55, !llfi_index !75

55:                                               ; preds = %54, %51, %48
  %56 = load i32, i32* %4, align 4, !llfi_index !76
  %57 = icmp eq i32 %56, 0, !llfi_index !77
  br i1 %57, label %58, label %66, !llfi_index !78

58:                                               ; preds = %55
  %59 = load i32, i32* %5, align 4, !llfi_index !79
  %60 = icmp eq i32 %59, 0, !llfi_index !80
  br i1 %60, label %61, label %66, !llfi_index !81

61:                                               ; preds = %58
  store i64 0, i64* %7, align 8, !llfi_index !82
  %62 = load i64, i64* @k, align 8, !llfi_index !83
  %63 = sub nsw i64 %62, 2, !llfi_index !84
  store i64 %63, i64* %8, align 8, !llfi_index !85
  %64 = call nonnull align 8 dereferenceable(8) i64* @_ZSt3maxIxERKT_S2_S2_(i64* nonnull align 8 dereferenceable(8) %7, i64* nonnull align 8 dereferenceable(8) %8), !llfi_index !86
  %65 = load i64, i64* %64, align 8, !llfi_index !87
  store i64 %65, i64* %6, align 8, !llfi_index !88
  br label %66, !llfi_index !89

66:                                               ; preds = %61, %58, %55
  %67 = load i32, i32* %3, align 4, !llfi_index !90
  %68 = sext i32 %67 to i64, !llfi_index !91
  %69 = getelementptr inbounds [510031 x [3 x i64]], [510031 x [3 x i64]]* @dp, i64 0, i64 %68, !llfi_index !92
  %70 = load i32, i32* %5, align 4, !llfi_index !93
  %71 = sext i32 %70 to i64, !llfi_index !94
  %72 = getelementptr inbounds [3 x i64], [3 x i64]* %69, i64 0, i64 %71, !llfi_index !95
  %73 = load i64, i64* %72, align 8, !llfi_index !96
  %74 = load i32, i32* %3, align 4, !llfi_index !97
  %75 = sub nsw i32 %74, 1, !llfi_index !98
  %76 = sext i32 %75 to i64, !llfi_index !99
  %77 = getelementptr inbounds [510031 x [3 x i64]], [510031 x [3 x i64]]* @dp, i64 0, i64 %76, !llfi_index !100
  %78 = load i32, i32* %4, align 4, !llfi_index !101
  %79 = sext i32 %78 to i64, !llfi_index !102
  %80 = getelementptr inbounds [3 x i64], [3 x i64]* %77, i64 0, i64 %79, !llfi_index !103
  %81 = load i64, i64* %80, align 8, !llfi_index !104
  %82 = load i64, i64* %6, align 8, !llfi_index !105
  %83 = mul nsw i64 %81, %82, !llfi_index !106
  %84 = add nsw i64 %73, %83, !llfi_index !107
  %85 = srem i64 %84, 1000000007, !llfi_index !108
  %86 = load i32, i32* %3, align 4, !llfi_index !109
  %87 = sext i32 %86 to i64, !llfi_index !110
  %88 = getelementptr inbounds [510031 x [3 x i64]], [510031 x [3 x i64]]* @dp, i64 0, i64 %87, !llfi_index !111
  %89 = load i32, i32* %5, align 4, !llfi_index !112
  %90 = sext i32 %89 to i64, !llfi_index !113
  %91 = getelementptr inbounds [3 x i64], [3 x i64]* %88, i64 0, i64 %90, !llfi_index !114
  store i64 %85, i64* %91, align 8, !llfi_index !115
  br label %92, !llfi_index !116

92:                                               ; preds = %66
  %93 = load i32, i32* %5, align 4, !llfi_index !117
  %94 = add nsw i32 %93, 1, !llfi_index !118
  store i32 %94, i32* %5, align 4, !llfi_index !119
  br label %29, !llvm.loop !120, !llfi_index !122

95:                                               ; preds = %29
  br label %96, !llfi_index !123

96:                                               ; preds = %95
  %97 = load i32, i32* %4, align 4, !llfi_index !124
  %98 = add nsw i32 %97, 1, !llfi_index !125
  store i32 %98, i32* %4, align 4, !llfi_index !126
  br label %25, !llvm.loop !127, !llfi_index !128

99:                                               ; preds = %25
  br label %100, !llfi_index !129

100:                                              ; preds = %99
  %101 = load i32, i32* %3, align 4, !llfi_index !130
  %102 = add nsw i32 %101, 1, !llfi_index !131
  store i32 %102, i32* %3, align 4, !llfi_index !132
  br label %19, !llvm.loop !133, !llfi_index !134

103:                                              ; preds = %19
  %104 = load i64, i64* @n, align 8, !llfi_index !135
  %105 = getelementptr inbounds [510031 x [3 x i64]], [510031 x [3 x i64]]* @dp, i64 0, i64 %104, !llfi_index !136
  %106 = getelementptr inbounds [3 x i64], [3 x i64]* %105, i64 0, i64 1, !llfi_index !137
  %107 = load i64, i64* %106, align 8, !llfi_index !138
  %108 = call nonnull align 8 dereferenceable(8) %"class.std::basic_ostream"* @_ZNSolsEx(%"class.std::basic_ostream"* nonnull align 8 dereferenceable(8) @_ZSt4cout, i64 %107), !llfi_index !139
  %109 = call nonnull align 8 dereferenceable(8) %"class.std::basic_ostream"* @_ZNSolsEPFRSoS_E(%"class.std::basic_ostream"* nonnull align 8 dereferenceable(8) %108, %"class.std::basic_ostream"* (%"class.std::basic_ostream"*)* @_ZSt4endlIcSt11char_traitsIcEERSt13basic_ostreamIT_T0_ES6_), !llfi_index !140
  ret i32 0, !llfi_index !141
}

declare dso_local %struct._IO_FILE* @freopen(i8*, i8*, %struct._IO_FILE*) #1

declare dso_local zeroext i1 @_ZNSt8ios_base15sync_with_stdioEb(i1 zeroext) #1

declare dso_local nonnull align 8 dereferenceable(16) %"class.std::basic_istream"* @_ZNSirsERx(%"class.std::basic_istream"* nonnull align 8 dereferenceable(16), i64* nonnull align 8 dereferenceable(8)) #1

; Function Attrs: mustprogress noinline nounwind uwtable
define linkonce_odr dso_local nonnull align 8 dereferenceable(8) i64* @_ZSt3maxIxERKT_S2_S2_(i64* nonnull align 8 dereferenceable(8) %0, i64* nonnull align 8 dereferenceable(8) %1) #5 comdat {
  %3 = alloca i64*, align 8, !llfi_index !142
  %4 = alloca i64*, align 8, !llfi_index !143
  %5 = alloca i64*, align 8, !llfi_index !144
  store i64* %0, i64** %4, align 8, !llfi_index !145
  store i64* %1, i64** %5, align 8, !llfi_index !146
  %6 = load i64*, i64** %4, align 8, !llfi_index !147
  %7 = load i64, i64* %6, align 8, !llfi_index !148
  %8 = load i64*, i64** %5, align 8, !llfi_index !149
  %9 = load i64, i64* %8, align 8, !llfi_index !150
  %10 = icmp slt i64 %7, %9, !llfi_index !151
  br i1 %10, label %11, label %13, !llfi_index !152

11:                                               ; preds = %2
  %12 = load i64*, i64** %5, align 8, !llfi_index !153
  store i64* %12, i64** %3, align 8, !llfi_index !154
  br label %15, !llfi_index !155

13:                                               ; preds = %2
  %14 = load i64*, i64** %4, align 8, !llfi_index !156
  store i64* %14, i64** %3, align 8, !llfi_index !157
  br label %15, !llfi_index !158

15:                                               ; preds = %13, %11
  %16 = load i64*, i64** %3, align 8, !llfi_index !159
  ret i64* %16, !llfi_index !160
}

declare dso_local nonnull align 8 dereferenceable(8) %"class.std::basic_ostream"* @_ZNSolsEx(%"class.std::basic_ostream"* nonnull align 8 dereferenceable(8), i64) #1

declare dso_local nonnull align 8 dereferenceable(8) %"class.std::basic_ostream"* @_ZSt4endlIcSt11char_traitsIcEERSt13basic_ostreamIT_T0_ES6_(%"class.std::basic_ostream"* nonnull align 8 dereferenceable(8)) #1

declare dso_local nonnull align 8 dereferenceable(8) %"class.std::basic_ostream"* @_ZNSolsEPFRSoS_E(%"class.std::basic_ostream"* nonnull align 8 dereferenceable(8), %"class.std::basic_ostream"* (%"class.std::basic_ostream"*)*) #1

attributes #0 = { noinline uwtable "frame-pointer"="all" "min-legal-vector-width"="0" "no-trapping-math"="true" "stack-protector-buffer-size"="8" "target-cpu"="x86-64" "target-features"="+cx8,+fxsr,+mmx,+sse,+sse2,+x87" "tune-cpu"="generic" }
attributes #1 = { "frame-pointer"="all" "no-trapping-math"="true" "stack-protector-buffer-size"="8" "target-cpu"="x86-64" "target-features"="+cx8,+fxsr,+mmx,+sse,+sse2,+x87" "tune-cpu"="generic" }
attributes #2 = { nounwind }
attributes #3 = { nounwind "frame-pointer"="all" "no-trapping-math"="true" "stack-protector-buffer-size"="8" "target-cpu"="x86-64" "target-features"="+cx8,+fxsr,+mmx,+sse,+sse2,+x87" "tune-cpu"="generic" }
attributes #4 = { mustprogress noinline norecurse uwtable "frame-pointer"="all" "min-legal-vector-width"="0" "no-trapping-math"="true" "stack-protector-buffer-size"="8" "target-cpu"="x86-64" "target-features"="+cx8,+fxsr,+mmx,+sse,+sse2,+x87" "tune-cpu"="generic" }
attributes #5 = { mustprogress noinline nounwind uwtable "frame-pointer"="all" "min-legal-vector-width"="0" "no-trapping-math"="true" "stack-protector-buffer-size"="8" "target-cpu"="x86-64" "target-features"="+cx8,+fxsr,+mmx,+sse,+sse2,+x87" "tune-cpu"="generic" }

!llvm.ident = !{!0}
!llvm.module.flags = !{!1, !2, !3}

!0 = !{!"clang version 13.0.0 (https://github.com/llvm/llvm-project.git d7b669b3a30345cfcdb2fde2af6f48aa4b94845d)"}
!1 = !{i32 1, !"wchar_size", i32 4}
!2 = !{i32 7, !"uwtable", i32 1}
!3 = !{i32 7, !"frame-pointer", i32 2}
!4 = !{i64 1}
!5 = !{i64 2}
!6 = !{i64 3}
!7 = !{i64 4}
!8 = !{i64 5}
!9 = !{i64 6}
!10 = !{i64 7}
!11 = !{i64 8}
!12 = !{i64 9}
!13 = !{i64 10}
!14 = !{i64 11}
!15 = !{i64 12}
!16 = !{i64 13}
!17 = !{i64 14}
!18 = !{i64 15}
!19 = !{i64 16}
!20 = !{i64 17}
!21 = !{i64 18}
!22 = !{i64 19}
!23 = !{i64 20}
!24 = !{i64 21}
!25 = !{i64 22}
!26 = !{i64 23}
!27 = !{i64 24}
!28 = !{i64 25}
!29 = !{i64 26}
!30 = !{i64 27}
!31 = !{i64 28}
!32 = !{i64 29}
!33 = !{i64 30}
!34 = !{i64 31}
!35 = !{i64 32}
!36 = !{i64 33}
!37 = !{i64 34}
!38 = !{i64 35}
!39 = !{i64 36}
!40 = !{i64 37}
!41 = !{i64 38}
!42 = !{i64 39}
!43 = !{i64 40}
!44 = !{i64 41}
!45 = !{i64 42}
!46 = !{i64 43}
!47 = !{i64 44}
!48 = !{i64 45}
!49 = !{i64 46}
!50 = !{i64 47}
!51 = !{i64 48}
!52 = !{i64 49}
!53 = !{i64 50}
!54 = !{i64 51}
!55 = !{i64 52}
!56 = !{i64 53}
!57 = !{i64 54}
!58 = !{i64 55}
!59 = !{i64 56}
!60 = !{i64 57}
!61 = !{i64 58}
!62 = !{i64 59}
!63 = !{i64 60}
!64 = !{i64 61}
!65 = !{i64 62}
!66 = !{i64 63}
!67 = !{i64 64}
!68 = !{i64 65}
!69 = !{i64 66}
!70 = !{i64 67}
!71 = !{i64 68}
!72 = !{i64 69}
!73 = !{i64 70}
!74 = !{i64 71}
!75 = !{i64 72}
!76 = !{i64 73}
!77 = !{i64 74}
!78 = !{i64 75}
!79 = !{i64 76}
!80 = !{i64 77}
!81 = !{i64 78}
!82 = !{i64 79}
!83 = !{i64 80}
!84 = !{i64 81}
!85 = !{i64 82}
!86 = !{i64 83}
!87 = !{i64 84}
!88 = !{i64 85}
!89 = !{i64 86}
!90 = !{i64 87}
!91 = !{i64 88}
!92 = !{i64 89}
!93 = !{i64 90}
!94 = !{i64 91}
!95 = !{i64 92}
!96 = !{i64 93}
!97 = !{i64 94}
!98 = !{i64 95}
!99 = !{i64 96}
!100 = !{i64 97}
!101 = !{i64 98}
!102 = !{i64 99}
!103 = !{i64 100}
!104 = !{i64 101}
!105 = !{i64 102}
!106 = !{i64 103}
!107 = !{i64 104}
!108 = !{i64 105}
!109 = !{i64 106}
!110 = !{i64 107}
!111 = !{i64 108}
!112 = !{i64 109}
!113 = !{i64 110}
!114 = !{i64 111}
!115 = !{i64 112}
!116 = !{i64 113}
!117 = !{i64 114}
!118 = !{i64 115}
!119 = !{i64 116}
!120 = distinct !{!120, !121}
!121 = !{!"llvm.loop.mustprogress"}
!122 = !{i64 117}
!123 = !{i64 118}
!124 = !{i64 119}
!125 = !{i64 120}
!126 = !{i64 121}
!127 = distinct !{!127, !121}
!128 = !{i64 122}
!129 = !{i64 123}
!130 = !{i64 124}
!131 = !{i64 125}
!132 = !{i64 126}
!133 = distinct !{!133, !121}
!134 = !{i64 127}
!135 = !{i64 128}
!136 = !{i64 129}
!137 = !{i64 130}
!138 = !{i64 131}
!139 = !{i64 132}
!140 = !{i64 133}
!141 = !{i64 134}
!142 = !{i64 135}
!143 = !{i64 136}
!144 = !{i64 137}
!145 = !{i64 138}
!146 = !{i64 139}
!147 = !{i64 140}
!148 = !{i64 141}
!149 = !{i64 142}
!150 = !{i64 143}
!151 = !{i64 144}
!152 = !{i64 145}
!153 = !{i64 146}
!154 = !{i64 147}
!155 = !{i64 148}
!156 = !{i64 149}
!157 = !{i64 150}
!158 = !{i64 151}
!159 = !{i64 152}
!160 = !{i64 153}
