; ModuleID = '/home/hjiang/Computation-Kernel-Dataset/experiments/Fault_injection_0308_parall/O0/CostlyIntervals/CostlyIntervals.ll'
source_filename = "llvm-link"
target datalayout = "e-m:e-p270:32:32-p271:32:32-p272:64:64-i64:64-f80:128-n8:16:32:64-S128"
target triple = "x86_64-unknown-linux-gnu"

%"struct.std::less" = type { i8 }
%class.SegTree_max = type { %"class.std::vector" }
%"class.std::vector" = type { %"struct.std::_Vector_base" }
%"struct.std::_Vector_base" = type { %"struct.std::_Vector_base<int, std::allocator<int>>::_Vector_impl" }
%"struct.std::_Vector_base<int, std::allocator<int>>::_Vector_impl" = type { %"struct.std::_Vector_base<int, std::allocator<int>>::_Vector_impl_data" }
%"struct.std::_Vector_base<int, std::allocator<int>>::_Vector_impl_data" = type { i32*, i32*, i32* }
%"class.std::set" = type { %"class.std::_Rb_tree" }
%"class.std::_Rb_tree" = type { %"struct.std::_Rb_tree<int, int, std::_Identity<int>, std::less<int>>::_Rb_tree_impl" }
%"struct.std::_Rb_tree<int, int, std::_Identity<int>, std::less<int>>::_Rb_tree_impl" = type { %"struct.std::_Rb_tree_key_compare", %"struct.std::_Rb_tree_header" }
%"struct.std::_Rb_tree_key_compare" = type { %"struct.std::less" }
%"struct.std::_Rb_tree_header" = type { %"struct.std::_Rb_tree_node_base", i64 }
%"struct.std::_Rb_tree_node_base" = type { i32, %"struct.std::_Rb_tree_node_base"*, %"struct.std::_Rb_tree_node_base"*, %"struct.std::_Rb_tree_node_base"* }
%"class.std::basic_istream" = type { i32 (...)**, i64, %"class.std::basic_ios" }
%"class.std::basic_ios" = type { %"class.std::ios_base", %"class.std::basic_ostream"*, i8, i8, %"class.std::basic_streambuf"*, %"class.std::ctype"*, %"class.std::num_put"*, %"class.std::num_put"* }
%"class.std::ios_base" = type { i32 (...)**, i64, i64, i32, i32, i32, %"struct.std::ios_base::_Callback_list"*, %"struct.std::ios_base::_Words", [8 x %"struct.std::ios_base::_Words"], i32, %"struct.std::ios_base::_Words"*, %"class.std::locale" }
%"struct.std::ios_base::_Callback_list" = type { %"struct.std::ios_base::_Callback_list"*, void (i32, %"class.std::ios_base"*, i32)*, i32, i32 }
%"struct.std::ios_base::_Words" = type { i8*, i64 }
%"class.std::locale" = type { %"class.std::locale::_Impl"* }
%"class.std::locale::_Impl" = type { i32, %"class.std::locale::facet"**, i64, %"class.std::locale::facet"**, i8** }
%"class.std::locale::facet" = type <{ i32 (...)**, i32, [4 x i8] }>
%"class.std::basic_ostream" = type { i32 (...)**, %"class.std::basic_ios" }
%"class.std::basic_streambuf" = type { i32 (...)**, i8*, i8*, i8*, i8*, i8*, i8*, %"class.std::locale" }
%"class.std::ctype" = type <{ %"class.std::locale::facet.base", [4 x i8], %struct.__locale_struct*, i8, [7 x i8], i32*, i32*, i16*, i8, [256 x i8], [256 x i8], i8, [6 x i8] }>
%"class.std::locale::facet.base" = type <{ i32 (...)**, i32 }>
%struct.__locale_struct = type { [13 x %struct.__locale_data*], i16*, i32*, i32*, [13 x i8*] }
%struct.__locale_data = type opaque
%"class.std::num_put" = type { %"class.std::locale::facet.base", [4 x i8] }
%struct._IO_FILE = type { i32, i8*, i8*, i8*, i8*, i8*, i8*, i8*, i8*, i8*, i8*, i8*, %struct._IO_marker*, %struct._IO_FILE*, i32, i32, i64, i16, i8, [1 x i8], i8*, i64, %struct._IO_codecvt*, %struct._IO_wide_data*, %struct._IO_FILE*, i8*, i64, i32, [20 x i8] }
%struct._IO_marker = type opaque
%struct._IO_codecvt = type opaque
%struct._IO_wide_data = type opaque
%"struct.std::_Rb_tree_node" = type <{ %"struct.std::_Rb_tree_node_base", %"struct.__gnu_cxx::__aligned_membuf", [4 x i8] }>
%"struct.__gnu_cxx::__aligned_membuf" = type { [4 x i8] }
%"class.std::__cxx11::basic_string" = type { %"struct.std::__cxx11::basic_string<char>::_Alloc_hider", i64, %union.anon }
%"struct.std::__cxx11::basic_string<char>::_Alloc_hider" = type { i8* }
%union.anon = type { i64, [8 x i8] }
%"struct.std::pair" = type <{ %"struct.std::_Rb_tree_const_iterator", i8, [7 x i8] }>
%"struct.std::_Rb_tree_const_iterator" = type { %"struct.std::_Rb_tree_node_base"* }
%"class.__gnu_cxx::__normal_iterator" = type { i32* }
%"class.std::reverse_iterator" = type { %"struct.std::_Rb_tree_const_iterator" }
%"struct.std::pair.10" = type { i32, i32 }
%"class.std::tuple.30" = type { %"struct.std::_Tuple_impl.31" }
%"struct.std::_Tuple_impl.31" = type { %"class.__gnu_cxx::__normal_iterator" }
%"struct.std::_Rb_tree_node.13" = type { %"struct.std::_Rb_tree_node_base", %"struct.__gnu_cxx::__aligned_membuf.14" }
%"struct.__gnu_cxx::__aligned_membuf.14" = type { [8 x i8] }
%"struct.std::pair.33" = type { %"struct.std::_Rb_tree_const_iterator", %"struct.std::_Rb_tree_const_iterator" }
%"struct.std::pair.20" = type { %"struct.std::_Rb_tree_node_base"*, %"struct.std::_Rb_tree_node_base"* }
%"struct.std::_Rb_tree<int, int, std::_Identity<int>, std::less<int>>::_Alloc_node" = type { %"class.std::_Rb_tree"* }

$_ZNSt3setIiSt4lessIiESaIiEEC2Ev = comdat any

$_ZNSt3setIiSt4lessIiESaIiEED2Ev = comdat any

$_ZNSt8_Rb_treeIiiSt9_IdentityIiESt4lessIiESaIiEED2Ev = comdat any

$_ZNSt8_Rb_treeIiiSt9_IdentityIiESt4lessIiESaIiEE8_M_beginEv = comdat any

$_ZNSt8_Rb_treeIiiSt9_IdentityIiESt4lessIiESaIiEE8_M_eraseEPSt13_Rb_tree_nodeIiE = comdat any

$_ZNSt8_Rb_treeIiiSt9_IdentityIiESt4lessIiESaIiEE13_Rb_tree_implIS3_Lb1EED2Ev = comdat any

$__clang_call_terminate = comdat any

$_ZNSaISt13_Rb_tree_nodeIiEED2Ev = comdat any

$_ZN9__gnu_cxx13new_allocatorISt13_Rb_tree_nodeIiEED2Ev = comdat any

$_ZNSt8_Rb_treeIiiSt9_IdentityIiESt4lessIiESaIiEE8_S_rightEPSt18_Rb_tree_node_base = comdat any

$_ZNSt8_Rb_treeIiiSt9_IdentityIiESt4lessIiESaIiEE7_S_leftEPSt18_Rb_tree_node_base = comdat any

$_ZNSt8_Rb_treeIiiSt9_IdentityIiESt4lessIiESaIiEE12_M_drop_nodeEPSt13_Rb_tree_nodeIiE = comdat any

$_ZNSt8_Rb_treeIiiSt9_IdentityIiESt4lessIiESaIiEE15_M_destroy_nodeEPSt13_Rb_tree_nodeIiE = comdat any

$_ZNSt8_Rb_treeIiiSt9_IdentityIiESt4lessIiESaIiEE11_M_put_nodeEPSt13_Rb_tree_nodeIiE = comdat any

$_ZNSt8_Rb_treeIiiSt9_IdentityIiESt4lessIiESaIiEE21_M_get_Node_allocatorEv = comdat any

$_ZNSt16allocator_traitsISaISt13_Rb_tree_nodeIiEEE10deallocateERS2_PS1_m = comdat any

$_ZN9__gnu_cxx13new_allocatorISt13_Rb_tree_nodeIiEE10deallocateEPS2_m = comdat any

$_ZNSt13_Rb_tree_nodeIiE9_M_valptrEv = comdat any

$_ZNSt16allocator_traitsISaISt13_Rb_tree_nodeIiEEE7destroyIiEEvRS2_PT_ = comdat any

$_ZN9__gnu_cxx13new_allocatorISt13_Rb_tree_nodeIiEE7destroyIiEEvPT_ = comdat any

$_ZN9__gnu_cxx16__aligned_membufIiE6_M_ptrEv = comdat any

$_ZN9__gnu_cxx16__aligned_membufIiE7_M_addrEv = comdat any

$_ZNSt8_Rb_treeIiiSt9_IdentityIiESt4lessIiESaIiEEC2Ev = comdat any

$_ZNSt8_Rb_treeIiiSt9_IdentityIiESt4lessIiESaIiEE13_Rb_tree_implIS3_Lb1EEC2Ev = comdat any

$_ZNSaISt13_Rb_tree_nodeIiEEC2Ev = comdat any

$_ZNSt20_Rb_tree_key_compareISt4lessIiEEC2Ev = comdat any

$_ZNSt15_Rb_tree_headerC2Ev = comdat any

$_ZNSt15_Rb_tree_header8_M_resetEv = comdat any

$_ZN9__gnu_cxx13new_allocatorISt13_Rb_tree_nodeIiEEC2Ev = comdat any

$_ZNSt6vectorIiSaIiEEC2Ev = comdat any

$_ZNSt6vectorIiSaIiEED2Ev = comdat any

$_ZNSt12_Vector_baseIiSaIiEE19_M_get_Tp_allocatorEv = comdat any

$_ZSt8_DestroyIPiiEvT_S1_RSaIT0_E = comdat any

$_ZNSt12_Vector_baseIiSaIiEED2Ev = comdat any

$_ZNSt12_Vector_baseIiSaIiEE13_M_deallocateEPim = comdat any

$_ZNSt12_Vector_baseIiSaIiEE12_Vector_implD2Ev = comdat any

$_ZNSaIiED2Ev = comdat any

$_ZN9__gnu_cxx13new_allocatorIiED2Ev = comdat any

$_ZNSt16allocator_traitsISaIiEE10deallocateERS0_Pim = comdat any

$_ZN9__gnu_cxx13new_allocatorIiE10deallocateEPim = comdat any

$_ZSt8_DestroyIPiEvT_S1_ = comdat any

$_ZNSt12_Destroy_auxILb1EE9__destroyIPiEEvT_S3_ = comdat any

$_ZNSt12_Vector_baseIiSaIiEEC2Ev = comdat any

$_ZNSt12_Vector_baseIiSaIiEE12_Vector_implC2Ev = comdat any

$_ZNSaIiEC2Ev = comdat any

$_ZNSt12_Vector_baseIiSaIiEE17_Vector_impl_dataC2Ev = comdat any

$_ZN9__gnu_cxx13new_allocatorIiEC2Ev = comdat any

$_ZN11SegTree_andIiLi262144EEC2Ev = comdat any

$_ZN11SegTree_andIiLi262144EED2Ev = comdat any

$_ZNSt6vectorIiSaIiEEC2EmRKiRKS0_ = comdat any

$_ZNSt6vectorIiSaIiEEaSEOS1_ = comdat any

$_ZSt4moveIRSt6vectorIiSaIiEEEONSt16remove_referenceIT_E4typeEOS5_ = comdat any

$_ZNSt6vectorIiSaIiEE14_M_move_assignEOS1_St17integral_constantIbLb1EE = comdat any

$_ZNKSt12_Vector_baseIiSaIiEE13get_allocatorEv = comdat any

$_ZNSt6vectorIiSaIiEEC2ERKS0_ = comdat any

$_ZNSt12_Vector_baseIiSaIiEE17_Vector_impl_data12_M_swap_dataERS2_ = comdat any

$_ZSt15__alloc_on_moveISaIiEEvRT_S2_ = comdat any

$_ZSt18__do_alloc_on_moveISaIiEEvRT_S2_St17integral_constantIbLb1EE = comdat any

$_ZSt4moveIRSaIiEEONSt16remove_referenceIT_E4typeEOS3_ = comdat any

$_ZNSt12_Vector_baseIiSaIiEE17_Vector_impl_data12_M_copy_dataERKS2_ = comdat any

$_ZNSt12_Vector_baseIiSaIiEEC2ERKS0_ = comdat any

$_ZNSt12_Vector_baseIiSaIiEE12_Vector_implC2ERKS0_ = comdat any

$_ZNSaIiEC2ERKS_ = comdat any

$_ZN9__gnu_cxx13new_allocatorIiEC2ERKS1_ = comdat any

$_ZNKSt12_Vector_baseIiSaIiEE19_M_get_Tp_allocatorEv = comdat any

$_ZNSt6vectorIiSaIiEE17_S_check_init_lenEmRKS0_ = comdat any

$_ZNSt12_Vector_baseIiSaIiEEC2EmRKS0_ = comdat any

$_ZNSt6vectorIiSaIiEE18_M_fill_initializeEmRKi = comdat any

$_ZSt24__uninitialized_fill_n_aIPimiiET_S1_T0_RKT1_RSaIT2_E = comdat any

$_ZSt20uninitialized_fill_nIPimiET_S1_T0_RKT1_ = comdat any

$_ZNSt22__uninitialized_fill_nILb1EE15__uninit_fill_nIPimiEET_S3_T0_RKT1_ = comdat any

$_ZSt6fill_nIPimiET_S1_T0_RKT1_ = comdat any

$_ZSt12__niter_baseIPiET_S1_ = comdat any

$_ZSt10__fill_n_aIPimiEN9__gnu_cxx11__enable_ifIXsr11__is_scalarIT1_EE7__valueET_E6__typeES4_T0_RKS3_ = comdat any

$_ZSt12__niter_wrapIPiET_RKS1_S1_ = comdat any

$_ZNSt12_Vector_baseIiSaIiEE17_M_create_storageEm = comdat any

$_ZNSt12_Vector_baseIiSaIiEE11_M_allocateEm = comdat any

$_ZNSt16allocator_traitsISaIiEE8allocateERS0_m = comdat any

$_ZN9__gnu_cxx13new_allocatorIiE8allocateEmPKv = comdat any

$_ZNK9__gnu_cxx13new_allocatorIiE8max_sizeEv = comdat any

$_ZNSt6vectorIiSaIiEE11_S_max_sizeERKS0_ = comdat any

$_ZNSt16allocator_traitsISaIiEE8max_sizeERKS0_ = comdat any

$_ZSt3minImERKT_S2_S2_ = comdat any

$_ZN10SegTree_orIiLi262144EEC2Ev = comdat any

$_ZN10SegTree_orIiLi262144EED2Ev = comdat any

$_ZN11SegTree_minIiLi262144EEC2Ev = comdat any

$_ZN11SegTree_minIiLi262144EED2Ev = comdat any

$_ZN11SegTree_maxIiLi262144EEC2Ev = comdat any

$_ZN11SegTree_maxIiLi262144EED2Ev = comdat any

$_ZN11SegTree_maxIiLi262144EE6updateEii = comdat any

$_ZN11SegTree_minIiLi262144EE6updateEii = comdat any

$_ZN10SegTree_orIiLi262144EE6updateEii = comdat any

$_ZN11SegTree_andIiLi262144EE6updateEii = comdat any

$_ZNSt3setIiSt4lessIiESaIiEE6insertERKi = comdat any

$_ZNSt3setIiSt4lessIiESaIiEE5eraseERKi = comdat any

$_ZNKSt3setIiSt4lessIiESaIiEE5beginEv = comdat any

$_ZNKSt3setIiSt4lessIiESaIiEE3endEv = comdat any

$_ZStneRKSt23_Rb_tree_const_iteratorIiES2_ = comdat any

$_ZNKSt23_Rb_tree_const_iteratorIiEdeEv = comdat any

$_ZN11SegTree_maxIiLi262144EE6getvalEiiiii = comdat any

$_ZN11SegTree_minIiLi262144EE6getvalEiiiii = comdat any

$_ZN10SegTree_orIiLi262144EE6getvalEiiiii = comdat any

$_ZN11SegTree_andIiLi262144EE6getvalEiiiii = comdat any

$_ZNSt23_Rb_tree_const_iteratorIiEppEv = comdat any

$_ZNSt6vectorIiSaIiEE9push_backEOi = comdat any

$_ZNSt3mapIiiSt4lessIiESaISt4pairIKiiEEEC2Ev = comdat any

$_ZNSt3mapIiiSt4lessIiESaISt4pairIKiiEEEixEOi = comdat any

$_ZNSt6vectorIiSaIiEE5beginEv = comdat any

$_ZNSt6vectorIiSaIiEE3endEv = comdat any

$_ZN9__gnu_cxxneIPiSt6vectorIiSaIiEEEEbRKNS_17__normal_iteratorIT_T0_EESA_ = comdat any

$_ZNK9__gnu_cxx17__normal_iteratorIPiSt6vectorIiSaIiEEEdeEv = comdat any

$_ZNSt3mapIiiSt4lessIiESaISt4pairIKiiEEEixERS3_ = comdat any

$_ZN9__gnu_cxx17__normal_iteratorIPiSt6vectorIiSaIiEEEppEv = comdat any

$_ZNSt3mapIiiSt4lessIiESaISt4pairIKiiEEED2Ev = comdat any

$_ZNSt3mapIiiSt4lessIiESaISt4pairIKiiEEE5eraseERS3_ = comdat any

$_ZNSt3mapIiiSt4lessIiESaISt4pairIKiiEEE6rbeginEv = comdat any

$_ZNKSt16reverse_iteratorISt17_Rb_tree_iteratorISt4pairIKiiEEEptEv = comdat any

$_ZNSt17_Rb_tree_iteratorISt4pairIKiiEEmmEv = comdat any

$_ZNSt16reverse_iteratorISt17_Rb_tree_iteratorISt4pairIKiiEEE13_S_to_pointerIS4_EEPS3_T_ = comdat any

$_ZNKSt17_Rb_tree_iteratorISt4pairIKiiEEptEv = comdat any

$_ZNSt13_Rb_tree_nodeISt4pairIKiiEE9_M_valptrEv = comdat any

$_ZN9__gnu_cxx16__aligned_membufISt4pairIKiiEE6_M_ptrEv = comdat any

$_ZN9__gnu_cxx16__aligned_membufISt4pairIKiiEE7_M_addrEv = comdat any

$_ZNSt8_Rb_treeIiSt4pairIKiiESt10_Select1stIS2_ESt4lessIiESaIS2_EE6rbeginEv = comdat any

$_ZNSt8_Rb_treeIiSt4pairIKiiESt10_Select1stIS2_ESt4lessIiESaIS2_EE3endEv = comdat any

$_ZNSt16reverse_iteratorISt17_Rb_tree_iteratorISt4pairIKiiEEEC2ES4_ = comdat any

$_ZNSt17_Rb_tree_iteratorISt4pairIKiiEEC2EPSt18_Rb_tree_node_base = comdat any

$_ZNSt8_Rb_treeIiSt4pairIKiiESt10_Select1stIS2_ESt4lessIiESaIS2_EE5eraseERS1_ = comdat any

$_ZNSt8_Rb_treeIiSt4pairIKiiESt10_Select1stIS2_ESt4lessIiESaIS2_EE11equal_rangeERS1_ = comdat any

$_ZNKSt8_Rb_treeIiSt4pairIKiiESt10_Select1stIS2_ESt4lessIiESaIS2_EE4sizeEv = comdat any

$_ZNSt23_Rb_tree_const_iteratorISt4pairIKiiEEC2ERKSt17_Rb_tree_iteratorIS2_E = comdat any

$_ZNSt8_Rb_treeIiSt4pairIKiiESt10_Select1stIS2_ESt4lessIiESaIS2_EE12_M_erase_auxESt23_Rb_tree_const_iteratorIS2_ESA_ = comdat any

$_ZNSt8_Rb_treeIiSt4pairIKiiESt10_Select1stIS2_ESt4lessIiESaIS2_EE5beginEv = comdat any

$_ZSteqRKSt23_Rb_tree_const_iteratorISt4pairIKiiEES5_ = comdat any

$_ZNSt8_Rb_treeIiSt4pairIKiiESt10_Select1stIS2_ESt4lessIiESaIS2_EE5clearEv = comdat any

$_ZStneRKSt23_Rb_tree_const_iteratorISt4pairIKiiEES5_ = comdat any

$_ZNSt23_Rb_tree_const_iteratorISt4pairIKiiEEppEi = comdat any

$_ZNSt8_Rb_treeIiSt4pairIKiiESt10_Select1stIS2_ESt4lessIiESaIS2_EE12_M_erase_auxESt23_Rb_tree_const_iteratorIS2_E = comdat any

$_ZNSt8_Rb_treeIiSt4pairIKiiESt10_Select1stIS2_ESt4lessIiESaIS2_EE12_M_drop_nodeEPSt13_Rb_tree_nodeIS2_E = comdat any

$_ZNSt8_Rb_treeIiSt4pairIKiiESt10_Select1stIS2_ESt4lessIiESaIS2_EE15_M_destroy_nodeEPSt13_Rb_tree_nodeIS2_E = comdat any

$_ZNSt8_Rb_treeIiSt4pairIKiiESt10_Select1stIS2_ESt4lessIiESaIS2_EE11_M_put_nodeEPSt13_Rb_tree_nodeIS2_E = comdat any

$_ZNSt8_Rb_treeIiSt4pairIKiiESt10_Select1stIS2_ESt4lessIiESaIS2_EE21_M_get_Node_allocatorEv = comdat any

$_ZNSt16allocator_traitsISaISt13_Rb_tree_nodeISt4pairIKiiEEEE10deallocateERS5_PS4_m = comdat any

$_ZN9__gnu_cxx13new_allocatorISt13_Rb_tree_nodeISt4pairIKiiEEE10deallocateEPS5_m = comdat any

$_ZNSt16allocator_traitsISaISt13_Rb_tree_nodeISt4pairIKiiEEEE7destroyIS3_EEvRS5_PT_ = comdat any

$_ZN9__gnu_cxx13new_allocatorISt13_Rb_tree_nodeISt4pairIKiiEEE7destroyIS4_EEvPT_ = comdat any

$_ZNSt8_Rb_treeIiSt4pairIKiiESt10_Select1stIS2_ESt4lessIiESaIS2_EE8_M_beginEv = comdat any

$_ZNSt8_Rb_treeIiSt4pairIKiiESt10_Select1stIS2_ESt4lessIiESaIS2_EE8_M_eraseEPSt13_Rb_tree_nodeIS2_E = comdat any

$_ZNSt8_Rb_treeIiSt4pairIKiiESt10_Select1stIS2_ESt4lessIiESaIS2_EE8_S_rightEPSt18_Rb_tree_node_base = comdat any

$_ZNSt8_Rb_treeIiSt4pairIKiiESt10_Select1stIS2_ESt4lessIiESaIS2_EE7_S_leftEPSt18_Rb_tree_node_base = comdat any

$_ZNSt8_Rb_treeIiSt4pairIKiiESt10_Select1stIS2_ESt4lessIiESaIS2_EE6_M_endEv = comdat any

$_ZNSt8_Rb_treeIiSt4pairIKiiESt10_Select1stIS2_ESt4lessIiESaIS2_EE6_S_keyEPKSt13_Rb_tree_nodeIS2_E = comdat any

$_ZNKSt4lessIiEclERKiS2_ = comdat any

$_ZNSt8_Rb_treeIiSt4pairIKiiESt10_Select1stIS2_ESt4lessIiESaIS2_EE14_M_lower_boundEPSt13_Rb_tree_nodeIS2_EPSt18_Rb_tree_node_baseRS1_ = comdat any

$_ZNSt8_Rb_treeIiSt4pairIKiiESt10_Select1stIS2_ESt4lessIiESaIS2_EE14_M_upper_boundEPSt13_Rb_tree_nodeIS2_EPSt18_Rb_tree_node_baseRS1_ = comdat any

$_ZNSt4pairISt17_Rb_tree_iteratorIS_IKiiEES3_EC2IS3_S3_Lb1EEEOT_OT0_ = comdat any

$_ZSt7forwardISt17_Rb_tree_iteratorISt4pairIKiiEEEOT_RNSt16remove_referenceIS5_E4typeE = comdat any

$_ZNKSt13_Rb_tree_nodeISt4pairIKiiEE9_M_valptrEv = comdat any

$_ZNKSt10_Select1stISt4pairIKiiEEclERKS2_ = comdat any

$_ZNK9__gnu_cxx16__aligned_membufISt4pairIKiiEE6_M_ptrEv = comdat any

$_ZNK9__gnu_cxx16__aligned_membufISt4pairIKiiEE7_M_addrEv = comdat any

$_ZNSt8_Rb_treeIiSt4pairIKiiESt10_Select1stIS2_ESt4lessIiESaIS2_EED2Ev = comdat any

$_ZNSt8_Rb_treeIiSt4pairIKiiESt10_Select1stIS2_ESt4lessIiESaIS2_EE13_Rb_tree_implIS6_Lb1EED2Ev = comdat any

$_ZNSaISt13_Rb_tree_nodeISt4pairIKiiEEED2Ev = comdat any

$_ZN9__gnu_cxx13new_allocatorISt13_Rb_tree_nodeISt4pairIKiiEEED2Ev = comdat any

$_ZNSt3mapIiiSt4lessIiESaISt4pairIKiiEEE11lower_boundERS3_ = comdat any

$_ZNSt3mapIiiSt4lessIiESaISt4pairIKiiEEE3endEv = comdat any

$_ZSteqRKSt17_Rb_tree_iteratorISt4pairIKiiEES5_ = comdat any

$_ZNKSt3mapIiiSt4lessIiESaISt4pairIKiiEEE8key_compEv = comdat any

$_ZNKSt17_Rb_tree_iteratorISt4pairIKiiEEdeEv = comdat any

$_ZNSt5tupleIJRKiEEC2IvLb1EEES1_ = comdat any

$_ZNSt8_Rb_treeIiSt4pairIKiiESt10_Select1stIS2_ESt4lessIiESaIS2_EE22_M_emplace_hint_uniqueIJRKSt21piecewise_construct_tSt5tupleIJRS1_EESD_IJEEEEESt17_Rb_tree_iteratorIS2_ESt23_Rb_tree_const_iteratorIS2_EDpOT_ = comdat any

$_ZSt7forwardIRKSt21piecewise_construct_tEOT_RNSt16remove_referenceIS3_E4typeE = comdat any

$_ZSt7forwardISt5tupleIJRKiEEEOT_RNSt16remove_referenceIS4_E4typeE = comdat any

$_ZSt7forwardISt5tupleIJEEEOT_RNSt16remove_referenceIS2_E4typeE = comdat any

$_ZNSt8_Rb_treeIiSt4pairIKiiESt10_Select1stIS2_ESt4lessIiESaIS2_EE14_M_create_nodeIJRKSt21piecewise_construct_tSt5tupleIJRS1_EESD_IJEEEEEPSt13_Rb_tree_nodeIS2_EDpOT_ = comdat any

$_ZNSt8_Rb_treeIiSt4pairIKiiESt10_Select1stIS2_ESt4lessIiESaIS2_EE29_M_get_insert_hint_unique_posESt23_Rb_tree_const_iteratorIS2_ERS1_ = comdat any

$_ZNSt8_Rb_treeIiSt4pairIKiiESt10_Select1stIS2_ESt4lessIiESaIS2_EE14_M_insert_nodeEPSt18_Rb_tree_node_baseSA_PSt13_Rb_tree_nodeIS2_E = comdat any

$_ZNSt8_Rb_treeIiSt4pairIKiiESt10_Select1stIS2_ESt4lessIiESaIS2_EE6_S_keyEPKSt18_Rb_tree_node_base = comdat any

$_ZNKSt23_Rb_tree_const_iteratorISt4pairIKiiEE13_M_const_castEv = comdat any

$_ZNSt8_Rb_treeIiSt4pairIKiiESt10_Select1stIS2_ESt4lessIiESaIS2_EE12_M_rightmostEv = comdat any

$_ZNSt4pairIPSt18_Rb_tree_node_baseS1_EC2IRS1_Lb1EEERKS1_OT_ = comdat any

$_ZNSt8_Rb_treeIiSt4pairIKiiESt10_Select1stIS2_ESt4lessIiESaIS2_EE24_M_get_insert_unique_posERS1_ = comdat any

$_ZNSt8_Rb_treeIiSt4pairIKiiESt10_Select1stIS2_ESt4lessIiESaIS2_EE11_M_leftmostEv = comdat any

$_ZNSt4pairIPSt18_Rb_tree_node_baseS1_EC2IRS1_S4_Lb1EEEOT_OT0_ = comdat any

$_ZNSt17_Rb_tree_iteratorISt4pairIKiiEEppEv = comdat any

$_ZNSt4pairIPSt18_Rb_tree_node_baseS1_EC2IRS1_Lb1EEEOT_RKS1_ = comdat any

$_ZSt7forwardIRPSt18_Rb_tree_node_baseEOT_RNSt16remove_referenceIS3_E4typeE = comdat any

$_ZNSt4pairIPSt18_Rb_tree_node_baseS1_EC2IRPSt13_Rb_tree_nodeIS_IKiiEERS1_Lb1EEEOT_OT0_ = comdat any

$_ZSt7forwardIRPSt13_Rb_tree_nodeISt4pairIKiiEEEOT_RNSt16remove_referenceIS7_E4typeE = comdat any

$_ZNSt8_Rb_treeIiSt4pairIKiiESt10_Select1stIS2_ESt4lessIiESaIS2_EE11_M_get_nodeEv = comdat any

$_ZNSt8_Rb_treeIiSt4pairIKiiESt10_Select1stIS2_ESt4lessIiESaIS2_EE17_M_construct_nodeIJRKSt21piecewise_construct_tSt5tupleIJRS1_EESD_IJEEEEEvPSt13_Rb_tree_nodeIS2_EDpOT_ = comdat any

$_ZNSt16allocator_traitsISaISt13_Rb_tree_nodeISt4pairIKiiEEEE9constructIS3_JRKSt21piecewise_construct_tSt5tupleIJRS2_EESB_IJEEEEEvRS5_PT_DpOT0_ = comdat any

$_ZN9__gnu_cxx13new_allocatorISt13_Rb_tree_nodeISt4pairIKiiEEE9constructIS4_JRKSt21piecewise_construct_tSt5tupleIJRS3_EESB_IJEEEEEvPT_DpOT0_ = comdat any

$_ZNSt5tupleIJRKiEEC2EOS2_ = comdat any

$_ZNSt4pairIKiiEC2IJRS0_EJEEESt21piecewise_construct_tSt5tupleIJDpT_EES5_IJDpT0_EE = comdat any

$_ZNSt4pairIKiiEC2IJRS0_EJLm0EEJEJEEERSt5tupleIJDpT_EERS4_IJDpT1_EESt12_Index_tupleIJXspT0_EEESD_IJXspT2_EEE = comdat any

$_ZSt3getILm0EJRKiEERNSt13tuple_elementIXT_ESt5tupleIJDpT0_EEE4typeERS6_ = comdat any

$_ZSt7forwardIRKiEOT_RNSt16remove_referenceIS2_E4typeE = comdat any

$_ZSt12__get_helperILm0ERKiJEERT0_RSt11_Tuple_implIXT_EJS2_DpT1_EE = comdat any

$_ZNSt11_Tuple_implILm0EJRKiEE7_M_headERS2_ = comdat any

$_ZNSt10_Head_baseILm0ERKiLb0EE7_M_headERS2_ = comdat any

$_ZNSt11_Tuple_implILm0EJRKiEEC2EOS2_ = comdat any

$_ZNSt10_Head_baseILm0ERKiLb0EEC2ES1_ = comdat any

$_ZNSt16allocator_traitsISaISt13_Rb_tree_nodeISt4pairIKiiEEEE8allocateERS5_m = comdat any

$_ZN9__gnu_cxx13new_allocatorISt13_Rb_tree_nodeISt4pairIKiiEEE8allocateEmPKv = comdat any

$_ZNK9__gnu_cxx13new_allocatorISt13_Rb_tree_nodeISt4pairIKiiEEE8max_sizeEv = comdat any

$_ZNSt11_Tuple_implILm0EJRKiEEC2ES1_ = comdat any

$_ZNKSt8_Rb_treeIiSt4pairIKiiESt10_Select1stIS2_ESt4lessIiESaIS2_EE8key_compEv = comdat any

$_ZNSt8_Rb_treeIiSt4pairIKiiESt10_Select1stIS2_ESt4lessIiESaIS2_EE11lower_boundERS1_ = comdat any

$_ZNK9__gnu_cxx17__normal_iteratorIPiSt6vectorIiSaIiEEE4baseEv = comdat any

$_ZN9__gnu_cxx17__normal_iteratorIPiSt6vectorIiSaIiEEEC2ERKS1_ = comdat any

$_ZSt4moveIRiEONSt16remove_referenceIT_E4typeEOS2_ = comdat any

$_ZSt16forward_as_tupleIJiEESt5tupleIJDpOT_EES3_ = comdat any

$_ZNSt8_Rb_treeIiSt4pairIKiiESt10_Select1stIS2_ESt4lessIiESaIS2_EE22_M_emplace_hint_uniqueIJRKSt21piecewise_construct_tSt5tupleIJOiEESD_IJEEEEESt17_Rb_tree_iteratorIS2_ESt23_Rb_tree_const_iteratorIS2_EDpOT_ = comdat any

$_ZSt7forwardISt5tupleIJOiEEEOT_RNSt16remove_referenceIS3_E4typeE = comdat any

$_ZNSt8_Rb_treeIiSt4pairIKiiESt10_Select1stIS2_ESt4lessIiESaIS2_EE14_M_create_nodeIJRKSt21piecewise_construct_tSt5tupleIJOiEESD_IJEEEEEPSt13_Rb_tree_nodeIS2_EDpOT_ = comdat any

$_ZNSt8_Rb_treeIiSt4pairIKiiESt10_Select1stIS2_ESt4lessIiESaIS2_EE17_M_construct_nodeIJRKSt21piecewise_construct_tSt5tupleIJOiEESD_IJEEEEEvPSt13_Rb_tree_nodeIS2_EDpOT_ = comdat any

$_ZNSt16allocator_traitsISaISt13_Rb_tree_nodeISt4pairIKiiEEEE9constructIS3_JRKSt21piecewise_construct_tSt5tupleIJOiEESB_IJEEEEEvRS5_PT_DpOT0_ = comdat any

$_ZN9__gnu_cxx13new_allocatorISt13_Rb_tree_nodeISt4pairIKiiEEE9constructIS4_JRKSt21piecewise_construct_tSt5tupleIJOiEESB_IJEEEEEvPT_DpOT0_ = comdat any

$_ZNSt5tupleIJOiEEC2EOS1_ = comdat any

$_ZNSt4pairIKiiEC2IJOiEJEEESt21piecewise_construct_tSt5tupleIJDpT_EES5_IJDpT0_EE = comdat any

$_ZNSt4pairIKiiEC2IJOiEJLm0EEJEJEEERSt5tupleIJDpT_EERS4_IJDpT1_EESt12_Index_tupleIJXspT0_EEESD_IJXspT2_EEE = comdat any

$_ZSt3getILm0EJOiEERNSt13tuple_elementIXT_ESt5tupleIJDpT0_EEE4typeERS5_ = comdat any

$_ZSt7forwardIOiEOT_RNSt16remove_referenceIS1_E4typeE = comdat any

$_ZSt12__get_helperILm0EOiJEERT0_RSt11_Tuple_implIXT_EJS1_DpT1_EE = comdat any

$_ZNSt11_Tuple_implILm0EJOiEE7_M_headERS1_ = comdat any

$_ZNSt10_Head_baseILm0EOiLb0EE7_M_headERS1_ = comdat any

$_ZNSt11_Tuple_implILm0EJOiEEC2EOS1_ = comdat any

$_ZNSt10_Head_baseILm0EOiLb0EEC2IiEEOT_ = comdat any

$_ZSt7forwardIiEOT_RNSt16remove_referenceIS0_E4typeE = comdat any

$_ZNSt5tupleIJOiEEC2IJiELb1EEEDpOT_ = comdat any

$_ZNSt11_Tuple_implILm0EJOiEEC2IiEEOT_ = comdat any

$_ZNSt8_Rb_treeIiSt4pairIKiiESt10_Select1stIS2_ESt4lessIiESaIS2_EEC2Ev = comdat any

$_ZNSt8_Rb_treeIiSt4pairIKiiESt10_Select1stIS2_ESt4lessIiESaIS2_EE13_Rb_tree_implIS6_Lb1EEC2Ev = comdat any

$_ZNSaISt13_Rb_tree_nodeISt4pairIKiiEEEC2Ev = comdat any

$_ZN9__gnu_cxx13new_allocatorISt13_Rb_tree_nodeISt4pairIKiiEEEC2Ev = comdat any

$_ZNSt6vectorIiSaIiEE12emplace_backIJiEEEvDpOT_ = comdat any

$_ZNSt16allocator_traitsISaIiEE9constructIiJiEEEvRS0_PT_DpOT0_ = comdat any

$_ZNSt6vectorIiSaIiEE17_M_realloc_insertIJiEEEvN9__gnu_cxx17__normal_iteratorIPiS1_EEDpOT_ = comdat any

$_ZNKSt6vectorIiSaIiEE12_M_check_lenEmPKc = comdat any

$_ZN9__gnu_cxxmiIPiSt6vectorIiSaIiEEEENS_17__normal_iteratorIT_T0_E15difference_typeERKS8_SB_ = comdat any

$_ZNSt6vectorIiSaIiEE11_S_relocateEPiS2_S2_RS0_ = comdat any

$_ZNSt6vectorIiSaIiEE14_S_do_relocateEPiS2_S2_RS0_St17integral_constantIbLb1EE = comdat any

$_ZSt12__relocate_aIPiS0_SaIiEET0_T_S3_S2_RT1_ = comdat any

$_ZSt14__relocate_a_1IiiENSt9enable_ifIXsr3std24__is_bitwise_relocatableIT_EE5valueEPS1_E4typeES2_S2_S2_RSaIT0_E = comdat any

$_ZNKSt6vectorIiSaIiEE8max_sizeEv = comdat any

$_ZNKSt6vectorIiSaIiEE4sizeEv = comdat any

$_ZSt3maxImERKT_S2_S2_ = comdat any

$_ZN9__gnu_cxx13new_allocatorIiE9constructIiJiEEEvPT_DpOT0_ = comdat any

$_ZNSt6vectorIiSaIiEEixEm = comdat any

$_ZN11SegTree_andIiLi262144EE4compEii = comdat any

$_ZN10SegTree_orIiLi262144EE4compEii = comdat any

$_ZN11SegTree_minIiLi262144EE4compEii = comdat any

$_ZSt3minIiERKT_S2_S2_ = comdat any

$_ZN11SegTree_maxIiLi262144EE4compEii = comdat any

$_ZSt3maxIiERKT_S2_S2_ = comdat any

$_ZNKSt13_Rb_tree_nodeIiE9_M_valptrEv = comdat any

$_ZNK9__gnu_cxx16__aligned_membufIiE6_M_ptrEv = comdat any

$_ZNK9__gnu_cxx16__aligned_membufIiE7_M_addrEv = comdat any

$_ZNKSt8_Rb_treeIiiSt9_IdentityIiESt4lessIiESaIiEE3endEv = comdat any

$_ZNSt23_Rb_tree_const_iteratorIiEC2EPKSt18_Rb_tree_node_base = comdat any

$_ZNKSt8_Rb_treeIiiSt9_IdentityIiESt4lessIiESaIiEE5beginEv = comdat any

$_ZNSt8_Rb_treeIiiSt9_IdentityIiESt4lessIiESaIiEE5eraseERKi = comdat any

$_ZNSt8_Rb_treeIiiSt9_IdentityIiESt4lessIiESaIiEE11equal_rangeERKi = comdat any

$_ZNKSt8_Rb_treeIiiSt9_IdentityIiESt4lessIiESaIiEE4sizeEv = comdat any

$_ZNSt23_Rb_tree_const_iteratorIiEC2ERKSt17_Rb_tree_iteratorIiE = comdat any

$_ZNSt8_Rb_treeIiiSt9_IdentityIiESt4lessIiESaIiEE12_M_erase_auxESt23_Rb_tree_const_iteratorIiES7_ = comdat any

$_ZNSt8_Rb_treeIiiSt9_IdentityIiESt4lessIiESaIiEE5beginEv = comdat any

$_ZSteqRKSt23_Rb_tree_const_iteratorIiES2_ = comdat any

$_ZNSt8_Rb_treeIiiSt9_IdentityIiESt4lessIiESaIiEE3endEv = comdat any

$_ZNSt8_Rb_treeIiiSt9_IdentityIiESt4lessIiESaIiEE5clearEv = comdat any

$_ZNSt23_Rb_tree_const_iteratorIiEppEi = comdat any

$_ZNSt8_Rb_treeIiiSt9_IdentityIiESt4lessIiESaIiEE12_M_erase_auxESt23_Rb_tree_const_iteratorIiE = comdat any

$_ZNSt17_Rb_tree_iteratorIiEC2EPSt18_Rb_tree_node_base = comdat any

$_ZNSt8_Rb_treeIiiSt9_IdentityIiESt4lessIiESaIiEE6_M_endEv = comdat any

$_ZNSt8_Rb_treeIiiSt9_IdentityIiESt4lessIiESaIiEE6_S_keyEPKSt13_Rb_tree_nodeIiE = comdat any

$_ZNSt8_Rb_treeIiiSt9_IdentityIiESt4lessIiESaIiEE14_M_lower_boundEPSt13_Rb_tree_nodeIiEPSt18_Rb_tree_node_baseRKi = comdat any

$_ZNSt8_Rb_treeIiiSt9_IdentityIiESt4lessIiESaIiEE14_M_upper_boundEPSt13_Rb_tree_nodeIiEPSt18_Rb_tree_node_baseRKi = comdat any

$_ZNSt4pairISt17_Rb_tree_iteratorIiES1_EC2IS1_S1_Lb1EEEOT_OT0_ = comdat any

$_ZSt7forwardISt17_Rb_tree_iteratorIiEEOT_RNSt16remove_referenceIS2_E4typeE = comdat any

$_ZNKSt9_IdentityIiEclERKi = comdat any

$_ZNSt8_Rb_treeIiiSt9_IdentityIiESt4lessIiESaIiEE16_M_insert_uniqueIRKiEESt4pairISt17_Rb_tree_iteratorIiEbEOT_ = comdat any

$_ZNSt4pairISt23_Rb_tree_const_iteratorIiEbEC2IRSt17_Rb_tree_iteratorIiERbLb1EEEOT_OT0_ = comdat any

$_ZSt7forwardIRSt17_Rb_tree_iteratorIiEEOT_RNSt16remove_referenceIS3_E4typeE = comdat any

$_ZSt7forwardIRbEOT_RNSt16remove_referenceIS1_E4typeE = comdat any

$_ZNSt8_Rb_treeIiiSt9_IdentityIiESt4lessIiESaIiEE24_M_get_insert_unique_posERKi = comdat any

$_ZNSt8_Rb_treeIiiSt9_IdentityIiESt4lessIiESaIiEE11_Alloc_nodeC2ERS5_ = comdat any

$_ZNSt8_Rb_treeIiiSt9_IdentityIiESt4lessIiESaIiEE10_M_insert_IRKiNS5_11_Alloc_nodeEEESt17_Rb_tree_iteratorIiEPSt18_Rb_tree_node_baseSD_OT_RT0_ = comdat any

$_ZNSt4pairISt17_Rb_tree_iteratorIiEbEC2IS1_bLb1EEEOT_OT0_ = comdat any

$_ZSt7forwardIbEOT_RNSt16remove_referenceIS0_E4typeE = comdat any

$_ZNSt8_Rb_treeIiiSt9_IdentityIiESt4lessIiESaIiEE6_S_keyEPKSt18_Rb_tree_node_base = comdat any

$_ZNKSt8_Rb_treeIiiSt9_IdentityIiESt4lessIiESaIiEE11_Alloc_nodeclIRKiEEPSt13_Rb_tree_nodeIiEOT_ = comdat any

$_ZNSt8_Rb_treeIiiSt9_IdentityIiESt4lessIiESaIiEE14_M_create_nodeIJRKiEEEPSt13_Rb_tree_nodeIiEDpOT_ = comdat any

$_ZNSt8_Rb_treeIiiSt9_IdentityIiESt4lessIiESaIiEE11_M_get_nodeEv = comdat any

$_ZNSt8_Rb_treeIiiSt9_IdentityIiESt4lessIiESaIiEE17_M_construct_nodeIJRKiEEEvPSt13_Rb_tree_nodeIiEDpOT_ = comdat any

$_ZNSt16allocator_traitsISaISt13_Rb_tree_nodeIiEEE9constructIiJRKiEEEvRS2_PT_DpOT0_ = comdat any

$_ZN9__gnu_cxx13new_allocatorISt13_Rb_tree_nodeIiEE9constructIiJRKiEEEvPT_DpOT0_ = comdat any

$_ZNSt16allocator_traitsISaISt13_Rb_tree_nodeIiEEE8allocateERS2_m = comdat any

$_ZN9__gnu_cxx13new_allocatorISt13_Rb_tree_nodeIiEE8allocateEmPKv = comdat any

$_ZNK9__gnu_cxx13new_allocatorISt13_Rb_tree_nodeIiEE8max_sizeEv = comdat any

$_ZSteqRKSt17_Rb_tree_iteratorIiES2_ = comdat any

$_ZNSt4pairIPSt18_Rb_tree_node_baseS1_EC2IRPSt13_Rb_tree_nodeIiERS1_Lb1EEEOT_OT0_ = comdat any

$_ZNSt17_Rb_tree_iteratorIiEmmEv = comdat any

$_ZSt7forwardIRPSt13_Rb_tree_nodeIiEEOT_RNSt16remove_referenceIS4_E4typeE = comdat any

@llvm.global_ctors = appending global [1 x { i32, void ()*, i8* }] [{ i32, void ()*, i8* } { i32 65535, void ()* @_GLOBAL__sub_I_CostlyIntervals.cpp, i8* null }]
@_ZStL8__ioinit = internal global %"struct.std::less" zeroinitializer, align 1
@N = dso_local global i32 0, align 4
@K = dso_local global i32 0, align 4
@A = dso_local global [101010 x i32] zeroinitializer, align 16
@stma = dso_local global %class.SegTree_max zeroinitializer, align 8
@stmi = dso_local global %class.SegTree_max zeroinitializer, align 8
@stor = dso_local global %class.SegTree_max zeroinitializer, align 8
@stand = dso_local global %class.SegTree_max zeroinitializer, align 8
@nex = dso_local global [31 x [2 x i32]] zeroinitializer, align 16
@ret = dso_local global [101010 x i32] zeroinitializer, align 16
@add = dso_local global [101010 x %"class.std::vector"] zeroinitializer, align 16
@del = dso_local global [101010 x %"class.std::vector"] zeroinitializer, align 16
@cand = dso_local global [101010 x %"class.std::set"] zeroinitializer, align 16
@_ZSt3cin = external dso_local global %"class.std::basic_istream", align 8
@_ZSt4cout = external dso_local global %"class.std::basic_ostream", align 8
@stdin = external dso_local global %struct._IO_FILE*, align 8
@_ZN11SegTree_maxIiLi262144EE3defE = available_externally dso_local constant i32 0, align 4
@.str = private unnamed_addr constant [49 x i8] c"cannot create std::vector larger than max_size()\00", align 1
@_ZN11SegTree_minIiLi262144EE3defE = available_externally dso_local constant i32 1073741824, align 4
@_ZN10SegTree_orIiLi262144EE3defE = available_externally dso_local constant i32 0, align 4
@_ZN11SegTree_andIiLi262144EE3defE = available_externally dso_local constant i32 2147483647, align 4
@.str.10 = private unnamed_addr constant [26 x i8] c"vector::_M_realloc_insert\00", align 1
@_ZStL19piecewise_construct = internal constant %"struct.std::less" undef, align 1

; Function Attrs: noinline uwtable
define internal void @_GLOBAL__sub_I_CostlyIntervals.cpp() #0 section ".text.startup" {
  call void @__cxx_global_var_init(), !llfi_index !4
  call void @__cxx_global_var_init.1(), !llfi_index !5
  call void @__cxx_global_var_init.2(), !llfi_index !6
  call void @__cxx_global_var_init.3(), !llfi_index !7
  call void @__cxx_global_var_init.4(), !llfi_index !8
  call void @__cxx_global_var_init.5(), !llfi_index !9
  call void @__cxx_global_var_init.6(), !llfi_index !10
  call void @__cxx_global_var_init.8(), !llfi_index !11
  ret void, !llfi_index !12
}

; Function Attrs: noinline uwtable
define internal void @__cxx_global_var_init() #0 section ".text.startup" {
  call void @_ZNSt8ios_base4InitC1Ev(%"struct.std::less"* nonnull align 1 dereferenceable(1) @_ZStL8__ioinit), !llfi_index !13
  %1 = call i32 @atexit(void ()* @__dtor__ZStL8__ioinit) #2, !llfi_index !14
  ret void, !llfi_index !15
}

; Function Attrs: noinline uwtable
define internal void @__cxx_global_var_init.1() #0 section ".text.startup" {
  call void @_ZN11SegTree_maxIiLi262144EEC2Ev(%class.SegTree_max* nonnull align 8 dereferenceable(24) @stma), !llfi_index !16
  %1 = call i32 @atexit(void ()* @__dtor_stma) #2, !llfi_index !17
  ret void, !llfi_index !18
}

; Function Attrs: noinline uwtable
define internal void @__cxx_global_var_init.2() #0 section ".text.startup" {
  call void @_ZN11SegTree_minIiLi262144EEC2Ev(%class.SegTree_max* nonnull align 8 dereferenceable(24) @stmi), !llfi_index !19
  %1 = call i32 @atexit(void ()* @__dtor_stmi) #2, !llfi_index !20
  ret void, !llfi_index !21
}

; Function Attrs: noinline uwtable
define internal void @__cxx_global_var_init.3() #0 section ".text.startup" {
  call void @_ZN10SegTree_orIiLi262144EEC2Ev(%class.SegTree_max* nonnull align 8 dereferenceable(24) @stor), !llfi_index !22
  %1 = call i32 @atexit(void ()* @__dtor_stor) #2, !llfi_index !23
  ret void, !llfi_index !24
}

; Function Attrs: noinline uwtable
define internal void @__cxx_global_var_init.4() #0 section ".text.startup" {
  call void @_ZN11SegTree_andIiLi262144EEC2Ev(%class.SegTree_max* nonnull align 8 dereferenceable(24) @stand), !llfi_index !25
  %1 = call i32 @atexit(void ()* @__dtor_stand) #2, !llfi_index !26
  ret void, !llfi_index !27
}

; Function Attrs: noinline uwtable
define internal void @__cxx_global_var_init.5() #0 section ".text.startup" {
  br label %1, !llfi_index !28

1:                                                ; preds = %1, %0
  %2 = phi %"class.std::vector"* [ getelementptr inbounds ([101010 x %"class.std::vector"], [101010 x %"class.std::vector"]* @add, i32 0, i32 0), %0 ], [ %3, %1 ], !llfi_index !29
  call void @_ZNSt6vectorIiSaIiEEC2Ev(%"class.std::vector"* nonnull align 8 dereferenceable(24) %2) #2, !llfi_index !30
  %3 = getelementptr inbounds %"class.std::vector", %"class.std::vector"* %2, i64 1, !llfi_index !31
  %4 = icmp eq %"class.std::vector"* %3, getelementptr inbounds (%"class.std::vector", %"class.std::vector"* getelementptr inbounds ([101010 x %"class.std::vector"], [101010 x %"class.std::vector"]* @add, i32 0, i32 0), i64 101010), !llfi_index !32
  br i1 %4, label %5, label %1, !llfi_index !33

5:                                                ; preds = %1
  %6 = call i32 @atexit(void ()* @__dtor_add) #2, !llfi_index !34
  ret void, !llfi_index !35
}

; Function Attrs: noinline uwtable
define internal void @__cxx_global_var_init.6() #0 section ".text.startup" {
  br label %1, !llfi_index !36

1:                                                ; preds = %1, %0
  %2 = phi %"class.std::vector"* [ getelementptr inbounds ([101010 x %"class.std::vector"], [101010 x %"class.std::vector"]* @del, i32 0, i32 0), %0 ], [ %3, %1 ], !llfi_index !37
  call void @_ZNSt6vectorIiSaIiEEC2Ev(%"class.std::vector"* nonnull align 8 dereferenceable(24) %2) #2, !llfi_index !38
  %3 = getelementptr inbounds %"class.std::vector", %"class.std::vector"* %2, i64 1, !llfi_index !39
  %4 = icmp eq %"class.std::vector"* %3, getelementptr inbounds (%"class.std::vector", %"class.std::vector"* getelementptr inbounds ([101010 x %"class.std::vector"], [101010 x %"class.std::vector"]* @del, i32 0, i32 0), i64 101010), !llfi_index !40
  br i1 %4, label %5, label %1, !llfi_index !41

5:                                                ; preds = %1
  %6 = call i32 @atexit(void ()* @__dtor_del) #2, !llfi_index !42
  ret void, !llfi_index !43
}

; Function Attrs: noinline uwtable
define internal void @__cxx_global_var_init.8() #0 section ".text.startup" {
  br label %1, !llfi_index !44

1:                                                ; preds = %1, %0
  %2 = phi %"class.std::set"* [ getelementptr inbounds ([101010 x %"class.std::set"], [101010 x %"class.std::set"]* @cand, i32 0, i32 0), %0 ], [ %3, %1 ], !llfi_index !45
  call void @_ZNSt3setIiSt4lessIiESaIiEEC2Ev(%"class.std::set"* nonnull align 8 dereferenceable(48) %2) #2, !llfi_index !46
  %3 = getelementptr inbounds %"class.std::set", %"class.std::set"* %2, i64 1, !llfi_index !47
  %4 = icmp eq %"class.std::set"* %3, getelementptr inbounds (%"class.std::set", %"class.std::set"* getelementptr inbounds ([101010 x %"class.std::set"], [101010 x %"class.std::set"]* @cand, i32 0, i32 0), i64 101010), !llfi_index !48
  br i1 %4, label %5, label %1, !llfi_index !49

5:                                                ; preds = %1
  %6 = call i32 @atexit(void ()* @__dtor_cand) #2, !llfi_index !50
  ret void, !llfi_index !51
}

; Function Attrs: noinline nounwind uwtable
define linkonce_odr dso_local void @_ZNSt3setIiSt4lessIiESaIiEEC2Ev(%"class.std::set"* nonnull align 8 dereferenceable(48) %0) unnamed_addr #1 comdat align 2 {
  %2 = alloca %"class.std::set"*, align 8, !llfi_index !52
  store %"class.std::set"* %0, %"class.std::set"** %2, align 8, !llfi_index !53
  %3 = load %"class.std::set"*, %"class.std::set"** %2, align 8, !llfi_index !54
  %4 = getelementptr inbounds %"class.std::set", %"class.std::set"* %3, i32 0, i32 0, !llfi_index !55
  call void @_ZNSt8_Rb_treeIiiSt9_IdentityIiESt4lessIiESaIiEEC2Ev(%"class.std::_Rb_tree"* nonnull align 8 dereferenceable(48) %4) #2, !llfi_index !56
  ret void, !llfi_index !57
}

; Function Attrs: noinline uwtable
define internal void @__dtor_cand() #0 section ".text.startup" {
  call void @__cxx_global_array_dtor.9(i8* null), !llfi_index !58
  ret void, !llfi_index !59
}

; Function Attrs: nounwind
declare dso_local i32 @atexit(void ()*) #2

; Function Attrs: noinline uwtable
define internal void @__cxx_global_array_dtor.9(i8* %0) #0 section ".text.startup" {
  %2 = alloca i8*, align 8, !llfi_index !60
  store i8* %0, i8** %2, align 8, !llfi_index !61
  br label %3, !llfi_index !62

3:                                                ; preds = %3, %1
  %4 = phi %"class.std::set"* [ getelementptr inbounds (%"class.std::set", %"class.std::set"* getelementptr inbounds ([101010 x %"class.std::set"], [101010 x %"class.std::set"]* @cand, i32 0, i32 0), i64 101010), %1 ], [ %5, %3 ], !llfi_index !63
  %5 = getelementptr inbounds %"class.std::set", %"class.std::set"* %4, i64 -1, !llfi_index !64
  call void @_ZNSt3setIiSt4lessIiESaIiEED2Ev(%"class.std::set"* nonnull align 8 dereferenceable(48) %5) #2, !llfi_index !65
  %6 = icmp eq %"class.std::set"* %5, getelementptr inbounds ([101010 x %"class.std::set"], [101010 x %"class.std::set"]* @cand, i32 0, i32 0), !llfi_index !66
  br i1 %6, label %7, label %3, !llfi_index !67

7:                                                ; preds = %3
  ret void, !llfi_index !68
}

; Function Attrs: noinline nounwind uwtable
define linkonce_odr dso_local void @_ZNSt3setIiSt4lessIiESaIiEED2Ev(%"class.std::set"* nonnull align 8 dereferenceable(48) %0) unnamed_addr #1 comdat align 2 {
  %2 = alloca %"class.std::set"*, align 8, !llfi_index !69
  store %"class.std::set"* %0, %"class.std::set"** %2, align 8, !llfi_index !70
  %3 = load %"class.std::set"*, %"class.std::set"** %2, align 8, !llfi_index !71
  %4 = getelementptr inbounds %"class.std::set", %"class.std::set"* %3, i32 0, i32 0, !llfi_index !72
  call void @_ZNSt8_Rb_treeIiiSt9_IdentityIiESt4lessIiESaIiEED2Ev(%"class.std::_Rb_tree"* nonnull align 8 dereferenceable(48) %4) #2, !llfi_index !73
  ret void, !llfi_index !74
}

; Function Attrs: noinline nounwind uwtable
define linkonce_odr dso_local void @_ZNSt8_Rb_treeIiiSt9_IdentityIiESt4lessIiESaIiEED2Ev(%"class.std::_Rb_tree"* nonnull align 8 dereferenceable(48) %0) unnamed_addr #1 comdat align 2 personality i8* bitcast (i32 (...)* @__gxx_personality_v0 to i8*) {
  %2 = alloca %"class.std::_Rb_tree"*, align 8, !llfi_index !75
  %3 = alloca i8*, align 8, !llfi_index !76
  %4 = alloca i32, align 4, !llfi_index !77
  store %"class.std::_Rb_tree"* %0, %"class.std::_Rb_tree"** %2, align 8, !llfi_index !78
  %5 = load %"class.std::_Rb_tree"*, %"class.std::_Rb_tree"** %2, align 8, !llfi_index !79
  %6 = call %"struct.std::_Rb_tree_node"* @_ZNSt8_Rb_treeIiiSt9_IdentityIiESt4lessIiESaIiEE8_M_beginEv(%"class.std::_Rb_tree"* nonnull align 8 dereferenceable(48) %5) #2, !llfi_index !80
  invoke void @_ZNSt8_Rb_treeIiiSt9_IdentityIiESt4lessIiESaIiEE8_M_eraseEPSt13_Rb_tree_nodeIiE(%"class.std::_Rb_tree"* nonnull align 8 dereferenceable(48) %5, %"struct.std::_Rb_tree_node"* %6)
          to label %7 unwind label %9, !llfi_index !81

7:                                                ; preds = %1
  %8 = getelementptr inbounds %"class.std::_Rb_tree", %"class.std::_Rb_tree"* %5, i32 0, i32 0, !llfi_index !82
  call void @_ZNSt8_Rb_treeIiiSt9_IdentityIiESt4lessIiESaIiEE13_Rb_tree_implIS3_Lb1EED2Ev(%"struct.std::_Rb_tree<int, int, std::_Identity<int>, std::less<int>>::_Rb_tree_impl"* nonnull align 8 dereferenceable(48) %8) #2, !llfi_index !83
  ret void, !llfi_index !84

9:                                                ; preds = %1
  %10 = landingpad { i8*, i32 }
          catch i8* null, !llfi_index !85
  %11 = extractvalue { i8*, i32 } %10, 0, !llfi_index !86
  store i8* %11, i8** %3, align 8, !llfi_index !87
  %12 = extractvalue { i8*, i32 } %10, 1, !llfi_index !88
  store i32 %12, i32* %4, align 4, !llfi_index !89
  %13 = getelementptr inbounds %"class.std::_Rb_tree", %"class.std::_Rb_tree"* %5, i32 0, i32 0, !llfi_index !90
  call void @_ZNSt8_Rb_treeIiiSt9_IdentityIiESt4lessIiESaIiEE13_Rb_tree_implIS3_Lb1EED2Ev(%"struct.std::_Rb_tree<int, int, std::_Identity<int>, std::less<int>>::_Rb_tree_impl"* nonnull align 8 dereferenceable(48) %13) #2, !llfi_index !91
  br label %14, !llfi_index !92

14:                                               ; preds = %9
  %15 = load i8*, i8** %3, align 8, !llfi_index !93
  call void @__clang_call_terminate(i8* %15) #16, !llfi_index !94
  unreachable, !llfi_index !95
}

declare dso_local i32 @__gxx_personality_v0(...)

; Function Attrs: mustprogress noinline nounwind uwtable
define linkonce_odr dso_local %"struct.std::_Rb_tree_node"* @_ZNSt8_Rb_treeIiiSt9_IdentityIiESt4lessIiESaIiEE8_M_beginEv(%"class.std::_Rb_tree"* nonnull align 8 dereferenceable(48) %0) #3 comdat align 2 {
  %2 = alloca %"class.std::_Rb_tree"*, align 8, !llfi_index !96
  store %"class.std::_Rb_tree"* %0, %"class.std::_Rb_tree"** %2, align 8, !llfi_index !97
  %3 = load %"class.std::_Rb_tree"*, %"class.std::_Rb_tree"** %2, align 8, !llfi_index !98
  %4 = getelementptr inbounds %"class.std::_Rb_tree", %"class.std::_Rb_tree"* %3, i32 0, i32 0, !llfi_index !99
  %5 = bitcast %"struct.std::_Rb_tree<int, int, std::_Identity<int>, std::less<int>>::_Rb_tree_impl"* %4 to i8*, !llfi_index !100
  %6 = getelementptr inbounds i8, i8* %5, i64 8, !llfi_index !101
  %7 = bitcast i8* %6 to %"struct.std::_Rb_tree_header"*, !llfi_index !102
  %8 = getelementptr inbounds %"struct.std::_Rb_tree_header", %"struct.std::_Rb_tree_header"* %7, i32 0, i32 0, !llfi_index !103
  %9 = getelementptr inbounds %"struct.std::_Rb_tree_node_base", %"struct.std::_Rb_tree_node_base"* %8, i32 0, i32 1, !llfi_index !104
  %10 = load %"struct.std::_Rb_tree_node_base"*, %"struct.std::_Rb_tree_node_base"** %9, align 8, !llfi_index !105
  %11 = bitcast %"struct.std::_Rb_tree_node_base"* %10 to %"struct.std::_Rb_tree_node"*, !llfi_index !106
  ret %"struct.std::_Rb_tree_node"* %11, !llfi_index !107
}

; Function Attrs: mustprogress noinline uwtable
define linkonce_odr dso_local void @_ZNSt8_Rb_treeIiiSt9_IdentityIiESt4lessIiESaIiEE8_M_eraseEPSt13_Rb_tree_nodeIiE(%"class.std::_Rb_tree"* nonnull align 8 dereferenceable(48) %0, %"struct.std::_Rb_tree_node"* %1) #4 comdat align 2 {
  %3 = alloca %"class.std::_Rb_tree"*, align 8, !llfi_index !108
  %4 = alloca %"struct.std::_Rb_tree_node"*, align 8, !llfi_index !109
  %5 = alloca %"struct.std::_Rb_tree_node"*, align 8, !llfi_index !110
  store %"class.std::_Rb_tree"* %0, %"class.std::_Rb_tree"** %3, align 8, !llfi_index !111
  store %"struct.std::_Rb_tree_node"* %1, %"struct.std::_Rb_tree_node"** %4, align 8, !llfi_index !112
  %6 = load %"class.std::_Rb_tree"*, %"class.std::_Rb_tree"** %3, align 8, !llfi_index !113
  br label %7, !llfi_index !114

7:                                                ; preds = %10, %2
  %8 = load %"struct.std::_Rb_tree_node"*, %"struct.std::_Rb_tree_node"** %4, align 8, !llfi_index !115
  %9 = icmp ne %"struct.std::_Rb_tree_node"* %8, null, !llfi_index !116
  br i1 %9, label %10, label %19, !llfi_index !117

10:                                               ; preds = %7
  %11 = load %"struct.std::_Rb_tree_node"*, %"struct.std::_Rb_tree_node"** %4, align 8, !llfi_index !118
  %12 = bitcast %"struct.std::_Rb_tree_node"* %11 to %"struct.std::_Rb_tree_node_base"*, !llfi_index !119
  %13 = call %"struct.std::_Rb_tree_node"* @_ZNSt8_Rb_treeIiiSt9_IdentityIiESt4lessIiESaIiEE8_S_rightEPSt18_Rb_tree_node_base(%"struct.std::_Rb_tree_node_base"* %12) #2, !llfi_index !120
  call void @_ZNSt8_Rb_treeIiiSt9_IdentityIiESt4lessIiESaIiEE8_M_eraseEPSt13_Rb_tree_nodeIiE(%"class.std::_Rb_tree"* nonnull align 8 dereferenceable(48) %6, %"struct.std::_Rb_tree_node"* %13), !llfi_index !121
  %14 = load %"struct.std::_Rb_tree_node"*, %"struct.std::_Rb_tree_node"** %4, align 8, !llfi_index !122
  %15 = bitcast %"struct.std::_Rb_tree_node"* %14 to %"struct.std::_Rb_tree_node_base"*, !llfi_index !123
  %16 = call %"struct.std::_Rb_tree_node"* @_ZNSt8_Rb_treeIiiSt9_IdentityIiESt4lessIiESaIiEE7_S_leftEPSt18_Rb_tree_node_base(%"struct.std::_Rb_tree_node_base"* %15) #2, !llfi_index !124
  store %"struct.std::_Rb_tree_node"* %16, %"struct.std::_Rb_tree_node"** %5, align 8, !llfi_index !125
  %17 = load %"struct.std::_Rb_tree_node"*, %"struct.std::_Rb_tree_node"** %4, align 8, !llfi_index !126
  call void @_ZNSt8_Rb_treeIiiSt9_IdentityIiESt4lessIiESaIiEE12_M_drop_nodeEPSt13_Rb_tree_nodeIiE(%"class.std::_Rb_tree"* nonnull align 8 dereferenceable(48) %6, %"struct.std::_Rb_tree_node"* %17) #2, !llfi_index !127
  %18 = load %"struct.std::_Rb_tree_node"*, %"struct.std::_Rb_tree_node"** %5, align 8, !llfi_index !128
  store %"struct.std::_Rb_tree_node"* %18, %"struct.std::_Rb_tree_node"** %4, align 8, !llfi_index !129
  br label %7, !llvm.loop !130, !llfi_index !132

19:                                               ; preds = %7
  ret void, !llfi_index !133
}

; Function Attrs: noinline nounwind uwtable
define linkonce_odr dso_local void @_ZNSt8_Rb_treeIiiSt9_IdentityIiESt4lessIiESaIiEE13_Rb_tree_implIS3_Lb1EED2Ev(%"struct.std::_Rb_tree<int, int, std::_Identity<int>, std::less<int>>::_Rb_tree_impl"* nonnull align 8 dereferenceable(48) %0) unnamed_addr #1 comdat align 2 {
  %2 = alloca %"struct.std::_Rb_tree<int, int, std::_Identity<int>, std::less<int>>::_Rb_tree_impl"*, align 8, !llfi_index !134
  store %"struct.std::_Rb_tree<int, int, std::_Identity<int>, std::less<int>>::_Rb_tree_impl"* %0, %"struct.std::_Rb_tree<int, int, std::_Identity<int>, std::less<int>>::_Rb_tree_impl"** %2, align 8, !llfi_index !135
  %3 = load %"struct.std::_Rb_tree<int, int, std::_Identity<int>, std::less<int>>::_Rb_tree_impl"*, %"struct.std::_Rb_tree<int, int, std::_Identity<int>, std::less<int>>::_Rb_tree_impl"** %2, align 8, !llfi_index !136
  %4 = bitcast %"struct.std::_Rb_tree<int, int, std::_Identity<int>, std::less<int>>::_Rb_tree_impl"* %3 to %"struct.std::less"*, !llfi_index !137
  call void @_ZNSaISt13_Rb_tree_nodeIiEED2Ev(%"struct.std::less"* nonnull align 1 dereferenceable(1) %4) #2, !llfi_index !138
  ret void, !llfi_index !139
}

; Function Attrs: noinline noreturn nounwind
define linkonce_odr hidden void @__clang_call_terminate(i8* %0) #5 comdat {
  %2 = call i8* @__cxa_begin_catch(i8* %0) #2, !llfi_index !140
  call void @_ZSt9terminatev() #16, !llfi_index !141
  unreachable, !llfi_index !142
}

declare dso_local i8* @__cxa_begin_catch(i8*)

declare dso_local void @_ZSt9terminatev()

; Function Attrs: noinline nounwind uwtable
define linkonce_odr dso_local void @_ZNSaISt13_Rb_tree_nodeIiEED2Ev(%"struct.std::less"* nonnull align 1 dereferenceable(1) %0) unnamed_addr #1 comdat align 2 {
  %2 = alloca %"struct.std::less"*, align 8, !llfi_index !143
  store %"struct.std::less"* %0, %"struct.std::less"** %2, align 8, !llfi_index !144
  %3 = load %"struct.std::less"*, %"struct.std::less"** %2, align 8, !llfi_index !145
  %4 = bitcast %"struct.std::less"* %3 to %"struct.std::less"*, !llfi_index !146
  call void @_ZN9__gnu_cxx13new_allocatorISt13_Rb_tree_nodeIiEED2Ev(%"struct.std::less"* nonnull align 1 dereferenceable(1) %4) #2, !llfi_index !147
  ret void, !llfi_index !148
}

; Function Attrs: noinline nounwind uwtable
define linkonce_odr dso_local void @_ZN9__gnu_cxx13new_allocatorISt13_Rb_tree_nodeIiEED2Ev(%"struct.std::less"* nonnull align 1 dereferenceable(1) %0) unnamed_addr #1 comdat align 2 {
  %2 = alloca %"struct.std::less"*, align 8, !llfi_index !149
  store %"struct.std::less"* %0, %"struct.std::less"** %2, align 8, !llfi_index !150
  %3 = load %"struct.std::less"*, %"struct.std::less"** %2, align 8, !llfi_index !151
  ret void, !llfi_index !152
}

; Function Attrs: mustprogress noinline nounwind uwtable
define linkonce_odr dso_local %"struct.std::_Rb_tree_node"* @_ZNSt8_Rb_treeIiiSt9_IdentityIiESt4lessIiESaIiEE8_S_rightEPSt18_Rb_tree_node_base(%"struct.std::_Rb_tree_node_base"* %0) #3 comdat align 2 {
  %2 = alloca %"struct.std::_Rb_tree_node_base"*, align 8, !llfi_index !153
  store %"struct.std::_Rb_tree_node_base"* %0, %"struct.std::_Rb_tree_node_base"** %2, align 8, !llfi_index !154
  %3 = load %"struct.std::_Rb_tree_node_base"*, %"struct.std::_Rb_tree_node_base"** %2, align 8, !llfi_index !155
  %4 = getelementptr inbounds %"struct.std::_Rb_tree_node_base", %"struct.std::_Rb_tree_node_base"* %3, i32 0, i32 3, !llfi_index !156
  %5 = load %"struct.std::_Rb_tree_node_base"*, %"struct.std::_Rb_tree_node_base"** %4, align 8, !llfi_index !157
  %6 = bitcast %"struct.std::_Rb_tree_node_base"* %5 to %"struct.std::_Rb_tree_node"*, !llfi_index !158
  ret %"struct.std::_Rb_tree_node"* %6, !llfi_index !159
}

; Function Attrs: mustprogress noinline nounwind uwtable
define linkonce_odr dso_local %"struct.std::_Rb_tree_node"* @_ZNSt8_Rb_treeIiiSt9_IdentityIiESt4lessIiESaIiEE7_S_leftEPSt18_Rb_tree_node_base(%"struct.std::_Rb_tree_node_base"* %0) #3 comdat align 2 {
  %2 = alloca %"struct.std::_Rb_tree_node_base"*, align 8, !llfi_index !160
  store %"struct.std::_Rb_tree_node_base"* %0, %"struct.std::_Rb_tree_node_base"** %2, align 8, !llfi_index !161
  %3 = load %"struct.std::_Rb_tree_node_base"*, %"struct.std::_Rb_tree_node_base"** %2, align 8, !llfi_index !162
  %4 = getelementptr inbounds %"struct.std::_Rb_tree_node_base", %"struct.std::_Rb_tree_node_base"* %3, i32 0, i32 2, !llfi_index !163
  %5 = load %"struct.std::_Rb_tree_node_base"*, %"struct.std::_Rb_tree_node_base"** %4, align 8, !llfi_index !164
  %6 = bitcast %"struct.std::_Rb_tree_node_base"* %5 to %"struct.std::_Rb_tree_node"*, !llfi_index !165
  ret %"struct.std::_Rb_tree_node"* %6, !llfi_index !166
}

; Function Attrs: mustprogress noinline nounwind uwtable
define linkonce_odr dso_local void @_ZNSt8_Rb_treeIiiSt9_IdentityIiESt4lessIiESaIiEE12_M_drop_nodeEPSt13_Rb_tree_nodeIiE(%"class.std::_Rb_tree"* nonnull align 8 dereferenceable(48) %0, %"struct.std::_Rb_tree_node"* %1) #3 comdat align 2 {
  %3 = alloca %"class.std::_Rb_tree"*, align 8, !llfi_index !167
  %4 = alloca %"struct.std::_Rb_tree_node"*, align 8, !llfi_index !168
  store %"class.std::_Rb_tree"* %0, %"class.std::_Rb_tree"** %3, align 8, !llfi_index !169
  store %"struct.std::_Rb_tree_node"* %1, %"struct.std::_Rb_tree_node"** %4, align 8, !llfi_index !170
  %5 = load %"class.std::_Rb_tree"*, %"class.std::_Rb_tree"** %3, align 8, !llfi_index !171
  %6 = load %"struct.std::_Rb_tree_node"*, %"struct.std::_Rb_tree_node"** %4, align 8, !llfi_index !172
  call void @_ZNSt8_Rb_treeIiiSt9_IdentityIiESt4lessIiESaIiEE15_M_destroy_nodeEPSt13_Rb_tree_nodeIiE(%"class.std::_Rb_tree"* nonnull align 8 dereferenceable(48) %5, %"struct.std::_Rb_tree_node"* %6) #2, !llfi_index !173
  %7 = load %"struct.std::_Rb_tree_node"*, %"struct.std::_Rb_tree_node"** %4, align 8, !llfi_index !174
  call void @_ZNSt8_Rb_treeIiiSt9_IdentityIiESt4lessIiESaIiEE11_M_put_nodeEPSt13_Rb_tree_nodeIiE(%"class.std::_Rb_tree"* nonnull align 8 dereferenceable(48) %5, %"struct.std::_Rb_tree_node"* %7) #2, !llfi_index !175
  ret void, !llfi_index !176
}

; Function Attrs: mustprogress noinline nounwind uwtable
define linkonce_odr dso_local void @_ZNSt8_Rb_treeIiiSt9_IdentityIiESt4lessIiESaIiEE15_M_destroy_nodeEPSt13_Rb_tree_nodeIiE(%"class.std::_Rb_tree"* nonnull align 8 dereferenceable(48) %0, %"struct.std::_Rb_tree_node"* %1) #3 comdat align 2 personality i8* bitcast (i32 (...)* @__gxx_personality_v0 to i8*) {
  %3 = alloca %"class.std::_Rb_tree"*, align 8, !llfi_index !177
  %4 = alloca %"struct.std::_Rb_tree_node"*, align 8, !llfi_index !178
  store %"class.std::_Rb_tree"* %0, %"class.std::_Rb_tree"** %3, align 8, !llfi_index !179
  store %"struct.std::_Rb_tree_node"* %1, %"struct.std::_Rb_tree_node"** %4, align 8, !llfi_index !180
  %5 = load %"class.std::_Rb_tree"*, %"class.std::_Rb_tree"** %3, align 8, !llfi_index !181
  %6 = call nonnull align 1 dereferenceable(1) %"struct.std::less"* @_ZNSt8_Rb_treeIiiSt9_IdentityIiESt4lessIiESaIiEE21_M_get_Node_allocatorEv(%"class.std::_Rb_tree"* nonnull align 8 dereferenceable(48) %5) #2, !llfi_index !182
  %7 = load %"struct.std::_Rb_tree_node"*, %"struct.std::_Rb_tree_node"** %4, align 8, !llfi_index !183
  %8 = invoke i32* @_ZNSt13_Rb_tree_nodeIiE9_M_valptrEv(%"struct.std::_Rb_tree_node"* nonnull align 8 dereferenceable(36) %7)
          to label %9 unwind label %11, !llfi_index !184

9:                                                ; preds = %2
  call void @_ZNSt16allocator_traitsISaISt13_Rb_tree_nodeIiEEE7destroyIiEEvRS2_PT_(%"struct.std::less"* nonnull align 1 dereferenceable(1) %6, i32* %8) #2, !llfi_index !185
  %10 = load %"struct.std::_Rb_tree_node"*, %"struct.std::_Rb_tree_node"** %4, align 8, !llfi_index !186
  ret void, !llfi_index !187

11:                                               ; preds = %2
  %12 = landingpad { i8*, i32 }
          catch i8* null, !llfi_index !188
  %13 = extractvalue { i8*, i32 } %12, 0, !llfi_index !189
  call void @__clang_call_terminate(i8* %13) #16, !llfi_index !190
  unreachable, !llfi_index !191
}

; Function Attrs: mustprogress noinline nounwind uwtable
define linkonce_odr dso_local void @_ZNSt8_Rb_treeIiiSt9_IdentityIiESt4lessIiESaIiEE11_M_put_nodeEPSt13_Rb_tree_nodeIiE(%"class.std::_Rb_tree"* nonnull align 8 dereferenceable(48) %0, %"struct.std::_Rb_tree_node"* %1) #3 comdat align 2 personality i8* bitcast (i32 (...)* @__gxx_personality_v0 to i8*) {
  %3 = alloca %"class.std::_Rb_tree"*, align 8, !llfi_index !192
  %4 = alloca %"struct.std::_Rb_tree_node"*, align 8, !llfi_index !193
  store %"class.std::_Rb_tree"* %0, %"class.std::_Rb_tree"** %3, align 8, !llfi_index !194
  store %"struct.std::_Rb_tree_node"* %1, %"struct.std::_Rb_tree_node"** %4, align 8, !llfi_index !195
  %5 = load %"class.std::_Rb_tree"*, %"class.std::_Rb_tree"** %3, align 8, !llfi_index !196
  %6 = call nonnull align 1 dereferenceable(1) %"struct.std::less"* @_ZNSt8_Rb_treeIiiSt9_IdentityIiESt4lessIiESaIiEE21_M_get_Node_allocatorEv(%"class.std::_Rb_tree"* nonnull align 8 dereferenceable(48) %5) #2, !llfi_index !197
  %7 = load %"struct.std::_Rb_tree_node"*, %"struct.std::_Rb_tree_node"** %4, align 8, !llfi_index !198
  invoke void @_ZNSt16allocator_traitsISaISt13_Rb_tree_nodeIiEEE10deallocateERS2_PS1_m(%"struct.std::less"* nonnull align 1 dereferenceable(1) %6, %"struct.std::_Rb_tree_node"* %7, i64 1)
          to label %8 unwind label %9, !llfi_index !199

8:                                                ; preds = %2
  ret void, !llfi_index !200

9:                                                ; preds = %2
  %10 = landingpad { i8*, i32 }
          catch i8* null, !llfi_index !201
  %11 = extractvalue { i8*, i32 } %10, 0, !llfi_index !202
  call void @__clang_call_terminate(i8* %11) #16, !llfi_index !203
  unreachable, !llfi_index !204
}

; Function Attrs: mustprogress noinline nounwind uwtable
define linkonce_odr dso_local nonnull align 1 dereferenceable(1) %"struct.std::less"* @_ZNSt8_Rb_treeIiiSt9_IdentityIiESt4lessIiESaIiEE21_M_get_Node_allocatorEv(%"class.std::_Rb_tree"* nonnull align 8 dereferenceable(48) %0) #3 comdat align 2 {
  %2 = alloca %"class.std::_Rb_tree"*, align 8, !llfi_index !205
  store %"class.std::_Rb_tree"* %0, %"class.std::_Rb_tree"** %2, align 8, !llfi_index !206
  %3 = load %"class.std::_Rb_tree"*, %"class.std::_Rb_tree"** %2, align 8, !llfi_index !207
  %4 = getelementptr inbounds %"class.std::_Rb_tree", %"class.std::_Rb_tree"* %3, i32 0, i32 0, !llfi_index !208
  %5 = bitcast %"struct.std::_Rb_tree<int, int, std::_Identity<int>, std::less<int>>::_Rb_tree_impl"* %4 to %"struct.std::less"*, !llfi_index !209
  ret %"struct.std::less"* %5, !llfi_index !210
}

; Function Attrs: mustprogress noinline uwtable
define linkonce_odr dso_local void @_ZNSt16allocator_traitsISaISt13_Rb_tree_nodeIiEEE10deallocateERS2_PS1_m(%"struct.std::less"* nonnull align 1 dereferenceable(1) %0, %"struct.std::_Rb_tree_node"* %1, i64 %2) #4 comdat align 2 {
  %4 = alloca %"struct.std::less"*, align 8, !llfi_index !211
  %5 = alloca %"struct.std::_Rb_tree_node"*, align 8, !llfi_index !212
  %6 = alloca i64, align 8, !llfi_index !213
  store %"struct.std::less"* %0, %"struct.std::less"** %4, align 8, !llfi_index !214
  store %"struct.std::_Rb_tree_node"* %1, %"struct.std::_Rb_tree_node"** %5, align 8, !llfi_index !215
  store i64 %2, i64* %6, align 8, !llfi_index !216
  %7 = load %"struct.std::less"*, %"struct.std::less"** %4, align 8, !llfi_index !217
  %8 = bitcast %"struct.std::less"* %7 to %"struct.std::less"*, !llfi_index !218
  %9 = load %"struct.std::_Rb_tree_node"*, %"struct.std::_Rb_tree_node"** %5, align 8, !llfi_index !219
  %10 = load i64, i64* %6, align 8, !llfi_index !220
  call void @_ZN9__gnu_cxx13new_allocatorISt13_Rb_tree_nodeIiEE10deallocateEPS2_m(%"struct.std::less"* nonnull align 1 dereferenceable(1) %8, %"struct.std::_Rb_tree_node"* %9, i64 %10), !llfi_index !221
  ret void, !llfi_index !222
}

; Function Attrs: mustprogress noinline nounwind uwtable
define linkonce_odr dso_local void @_ZN9__gnu_cxx13new_allocatorISt13_Rb_tree_nodeIiEE10deallocateEPS2_m(%"struct.std::less"* nonnull align 1 dereferenceable(1) %0, %"struct.std::_Rb_tree_node"* %1, i64 %2) #3 comdat align 2 {
  %4 = alloca %"struct.std::less"*, align 8, !llfi_index !223
  %5 = alloca %"struct.std::_Rb_tree_node"*, align 8, !llfi_index !224
  %6 = alloca i64, align 8, !llfi_index !225
  store %"struct.std::less"* %0, %"struct.std::less"** %4, align 8, !llfi_index !226
  store %"struct.std::_Rb_tree_node"* %1, %"struct.std::_Rb_tree_node"** %5, align 8, !llfi_index !227
  store i64 %2, i64* %6, align 8, !llfi_index !228
  %7 = load %"struct.std::less"*, %"struct.std::less"** %4, align 8, !llfi_index !229
  %8 = load %"struct.std::_Rb_tree_node"*, %"struct.std::_Rb_tree_node"** %5, align 8, !llfi_index !230
  %9 = bitcast %"struct.std::_Rb_tree_node"* %8 to i8*, !llfi_index !231
  call void @_ZdlPv(i8* %9) #2, !llfi_index !232
  ret void, !llfi_index !233
}

; Function Attrs: nobuiltin nounwind
declare dso_local void @_ZdlPv(i8*) #6

; Function Attrs: mustprogress noinline nounwind uwtable
define linkonce_odr dso_local i32* @_ZNSt13_Rb_tree_nodeIiE9_M_valptrEv(%"struct.std::_Rb_tree_node"* nonnull align 8 dereferenceable(36) %0) #3 comdat align 2 {
  %2 = alloca %"struct.std::_Rb_tree_node"*, align 8, !llfi_index !234
  store %"struct.std::_Rb_tree_node"* %0, %"struct.std::_Rb_tree_node"** %2, align 8, !llfi_index !235
  %3 = load %"struct.std::_Rb_tree_node"*, %"struct.std::_Rb_tree_node"** %2, align 8, !llfi_index !236
  %4 = getelementptr inbounds %"struct.std::_Rb_tree_node", %"struct.std::_Rb_tree_node"* %3, i32 0, i32 1, !llfi_index !237
  %5 = call i32* @_ZN9__gnu_cxx16__aligned_membufIiE6_M_ptrEv(%"struct.__gnu_cxx::__aligned_membuf"* nonnull align 4 dereferenceable(4) %4) #2, !llfi_index !238
  ret i32* %5, !llfi_index !239
}

; Function Attrs: mustprogress noinline nounwind uwtable
define linkonce_odr dso_local void @_ZNSt16allocator_traitsISaISt13_Rb_tree_nodeIiEEE7destroyIiEEvRS2_PT_(%"struct.std::less"* nonnull align 1 dereferenceable(1) %0, i32* %1) #3 comdat align 2 {
  %3 = alloca %"struct.std::less"*, align 8, !llfi_index !240
  %4 = alloca i32*, align 8, !llfi_index !241
  store %"struct.std::less"* %0, %"struct.std::less"** %3, align 8, !llfi_index !242
  store i32* %1, i32** %4, align 8, !llfi_index !243
  %5 = load %"struct.std::less"*, %"struct.std::less"** %3, align 8, !llfi_index !244
  %6 = bitcast %"struct.std::less"* %5 to %"struct.std::less"*, !llfi_index !245
  %7 = load i32*, i32** %4, align 8, !llfi_index !246
  call void @_ZN9__gnu_cxx13new_allocatorISt13_Rb_tree_nodeIiEE7destroyIiEEvPT_(%"struct.std::less"* nonnull align 1 dereferenceable(1) %6, i32* %7) #2, !llfi_index !247
  ret void, !llfi_index !248
}

; Function Attrs: mustprogress noinline nounwind uwtable
define linkonce_odr dso_local void @_ZN9__gnu_cxx13new_allocatorISt13_Rb_tree_nodeIiEE7destroyIiEEvPT_(%"struct.std::less"* nonnull align 1 dereferenceable(1) %0, i32* %1) #3 comdat align 2 {
  %3 = alloca %"struct.std::less"*, align 8, !llfi_index !249
  %4 = alloca i32*, align 8, !llfi_index !250
  store %"struct.std::less"* %0, %"struct.std::less"** %3, align 8, !llfi_index !251
  store i32* %1, i32** %4, align 8, !llfi_index !252
  %5 = load %"struct.std::less"*, %"struct.std::less"** %3, align 8, !llfi_index !253
  %6 = load i32*, i32** %4, align 8, !llfi_index !254
  ret void, !llfi_index !255
}

; Function Attrs: mustprogress noinline nounwind uwtable
define linkonce_odr dso_local i32* @_ZN9__gnu_cxx16__aligned_membufIiE6_M_ptrEv(%"struct.__gnu_cxx::__aligned_membuf"* nonnull align 4 dereferenceable(4) %0) #3 comdat align 2 {
  %2 = alloca %"struct.__gnu_cxx::__aligned_membuf"*, align 8, !llfi_index !256
  store %"struct.__gnu_cxx::__aligned_membuf"* %0, %"struct.__gnu_cxx::__aligned_membuf"** %2, align 8, !llfi_index !257
  %3 = load %"struct.__gnu_cxx::__aligned_membuf"*, %"struct.__gnu_cxx::__aligned_membuf"** %2, align 8, !llfi_index !258
  %4 = call i8* @_ZN9__gnu_cxx16__aligned_membufIiE7_M_addrEv(%"struct.__gnu_cxx::__aligned_membuf"* nonnull align 4 dereferenceable(4) %3) #2, !llfi_index !259
  %5 = bitcast i8* %4 to i32*, !llfi_index !260
  ret i32* %5, !llfi_index !261
}

; Function Attrs: mustprogress noinline nounwind uwtable
define linkonce_odr dso_local i8* @_ZN9__gnu_cxx16__aligned_membufIiE7_M_addrEv(%"struct.__gnu_cxx::__aligned_membuf"* nonnull align 4 dereferenceable(4) %0) #3 comdat align 2 {
  %2 = alloca %"struct.__gnu_cxx::__aligned_membuf"*, align 8, !llfi_index !262
  store %"struct.__gnu_cxx::__aligned_membuf"* %0, %"struct.__gnu_cxx::__aligned_membuf"** %2, align 8, !llfi_index !263
  %3 = load %"struct.__gnu_cxx::__aligned_membuf"*, %"struct.__gnu_cxx::__aligned_membuf"** %2, align 8, !llfi_index !264
  %4 = getelementptr inbounds %"struct.__gnu_cxx::__aligned_membuf", %"struct.__gnu_cxx::__aligned_membuf"* %3, i32 0, i32 0, !llfi_index !265
  %5 = bitcast [4 x i8]* %4 to i8*, !llfi_index !266
  ret i8* %5, !llfi_index !267
}

; Function Attrs: noinline nounwind uwtable
define linkonce_odr dso_local void @_ZNSt8_Rb_treeIiiSt9_IdentityIiESt4lessIiESaIiEEC2Ev(%"class.std::_Rb_tree"* nonnull align 8 dereferenceable(48) %0) unnamed_addr #1 comdat align 2 {
  %2 = alloca %"class.std::_Rb_tree"*, align 8, !llfi_index !268
  store %"class.std::_Rb_tree"* %0, %"class.std::_Rb_tree"** %2, align 8, !llfi_index !269
  %3 = load %"class.std::_Rb_tree"*, %"class.std::_Rb_tree"** %2, align 8, !llfi_index !270
  %4 = getelementptr inbounds %"class.std::_Rb_tree", %"class.std::_Rb_tree"* %3, i32 0, i32 0, !llfi_index !271
  call void @_ZNSt8_Rb_treeIiiSt9_IdentityIiESt4lessIiESaIiEE13_Rb_tree_implIS3_Lb1EEC2Ev(%"struct.std::_Rb_tree<int, int, std::_Identity<int>, std::less<int>>::_Rb_tree_impl"* nonnull align 8 dereferenceable(48) %4) #2, !llfi_index !272
  ret void, !llfi_index !273
}

; Function Attrs: noinline nounwind uwtable
define linkonce_odr dso_local void @_ZNSt8_Rb_treeIiiSt9_IdentityIiESt4lessIiESaIiEE13_Rb_tree_implIS3_Lb1EEC2Ev(%"struct.std::_Rb_tree<int, int, std::_Identity<int>, std::less<int>>::_Rb_tree_impl"* nonnull align 8 dereferenceable(48) %0) unnamed_addr #1 comdat align 2 {
  %2 = alloca %"struct.std::_Rb_tree<int, int, std::_Identity<int>, std::less<int>>::_Rb_tree_impl"*, align 8, !llfi_index !274
  store %"struct.std::_Rb_tree<int, int, std::_Identity<int>, std::less<int>>::_Rb_tree_impl"* %0, %"struct.std::_Rb_tree<int, int, std::_Identity<int>, std::less<int>>::_Rb_tree_impl"** %2, align 8, !llfi_index !275
  %3 = load %"struct.std::_Rb_tree<int, int, std::_Identity<int>, std::less<int>>::_Rb_tree_impl"*, %"struct.std::_Rb_tree<int, int, std::_Identity<int>, std::less<int>>::_Rb_tree_impl"** %2, align 8, !llfi_index !276
  %4 = bitcast %"struct.std::_Rb_tree<int, int, std::_Identity<int>, std::less<int>>::_Rb_tree_impl"* %3 to %"struct.std::less"*, !llfi_index !277
  call void @_ZNSaISt13_Rb_tree_nodeIiEEC2Ev(%"struct.std::less"* nonnull align 1 dereferenceable(1) %4) #2, !llfi_index !278
  %5 = bitcast %"struct.std::_Rb_tree<int, int, std::_Identity<int>, std::less<int>>::_Rb_tree_impl"* %3 to %"struct.std::_Rb_tree_key_compare"*, !llfi_index !279
  call void @_ZNSt20_Rb_tree_key_compareISt4lessIiEEC2Ev(%"struct.std::_Rb_tree_key_compare"* nonnull align 1 dereferenceable(1) %5) #2, !llfi_index !280
  %6 = bitcast %"struct.std::_Rb_tree<int, int, std::_Identity<int>, std::less<int>>::_Rb_tree_impl"* %3 to i8*, !llfi_index !281
  %7 = getelementptr inbounds i8, i8* %6, i64 8, !llfi_index !282
  %8 = bitcast i8* %7 to %"struct.std::_Rb_tree_header"*, !llfi_index !283
  call void @_ZNSt15_Rb_tree_headerC2Ev(%"struct.std::_Rb_tree_header"* nonnull align 8 dereferenceable(40) %8) #2, !llfi_index !284
  ret void, !llfi_index !285
}

; Function Attrs: noinline nounwind uwtable
define linkonce_odr dso_local void @_ZNSaISt13_Rb_tree_nodeIiEEC2Ev(%"struct.std::less"* nonnull align 1 dereferenceable(1) %0) unnamed_addr #1 comdat align 2 {
  %2 = alloca %"struct.std::less"*, align 8, !llfi_index !286
  store %"struct.std::less"* %0, %"struct.std::less"** %2, align 8, !llfi_index !287
  %3 = load %"struct.std::less"*, %"struct.std::less"** %2, align 8, !llfi_index !288
  %4 = bitcast %"struct.std::less"* %3 to %"struct.std::less"*, !llfi_index !289
  call void @_ZN9__gnu_cxx13new_allocatorISt13_Rb_tree_nodeIiEEC2Ev(%"struct.std::less"* nonnull align 1 dereferenceable(1) %4) #2, !llfi_index !290
  ret void, !llfi_index !291
}

; Function Attrs: noinline nounwind uwtable
define linkonce_odr dso_local void @_ZNSt20_Rb_tree_key_compareISt4lessIiEEC2Ev(%"struct.std::_Rb_tree_key_compare"* nonnull align 1 dereferenceable(1) %0) unnamed_addr #1 comdat align 2 {
  %2 = alloca %"struct.std::_Rb_tree_key_compare"*, align 8, !llfi_index !292
  store %"struct.std::_Rb_tree_key_compare"* %0, %"struct.std::_Rb_tree_key_compare"** %2, align 8, !llfi_index !293
  %3 = load %"struct.std::_Rb_tree_key_compare"*, %"struct.std::_Rb_tree_key_compare"** %2, align 8, !llfi_index !294
  %4 = getelementptr inbounds %"struct.std::_Rb_tree_key_compare", %"struct.std::_Rb_tree_key_compare"* %3, i32 0, i32 0, !llfi_index !295
  ret void, !llfi_index !296
}

; Function Attrs: noinline nounwind uwtable
define linkonce_odr dso_local void @_ZNSt15_Rb_tree_headerC2Ev(%"struct.std::_Rb_tree_header"* nonnull align 8 dereferenceable(40) %0) unnamed_addr #1 comdat align 2 personality i8* bitcast (i32 (...)* @__gxx_personality_v0 to i8*) {
  %2 = alloca %"struct.std::_Rb_tree_header"*, align 8, !llfi_index !297
  store %"struct.std::_Rb_tree_header"* %0, %"struct.std::_Rb_tree_header"** %2, align 8, !llfi_index !298
  %3 = load %"struct.std::_Rb_tree_header"*, %"struct.std::_Rb_tree_header"** %2, align 8, !llfi_index !299
  %4 = getelementptr inbounds %"struct.std::_Rb_tree_header", %"struct.std::_Rb_tree_header"* %3, i32 0, i32 0, !llfi_index !300
  %5 = getelementptr inbounds %"struct.std::_Rb_tree_header", %"struct.std::_Rb_tree_header"* %3, i32 0, i32 0, !llfi_index !301
  %6 = getelementptr inbounds %"struct.std::_Rb_tree_node_base", %"struct.std::_Rb_tree_node_base"* %5, i32 0, i32 0, !llfi_index !302
  store i32 0, i32* %6, align 8, !llfi_index !303
  invoke void @_ZNSt15_Rb_tree_header8_M_resetEv(%"struct.std::_Rb_tree_header"* nonnull align 8 dereferenceable(40) %3)
          to label %7 unwind label %8, !llfi_index !304

7:                                                ; preds = %1
  ret void, !llfi_index !305

8:                                                ; preds = %1
  %9 = landingpad { i8*, i32 }
          catch i8* null, !llfi_index !306
  %10 = extractvalue { i8*, i32 } %9, 0, !llfi_index !307
  call void @__clang_call_terminate(i8* %10) #16, !llfi_index !308
  unreachable, !llfi_index !309
}

; Function Attrs: mustprogress noinline nounwind uwtable
define linkonce_odr dso_local void @_ZNSt15_Rb_tree_header8_M_resetEv(%"struct.std::_Rb_tree_header"* nonnull align 8 dereferenceable(40) %0) #3 comdat align 2 {
  %2 = alloca %"struct.std::_Rb_tree_header"*, align 8, !llfi_index !310
  store %"struct.std::_Rb_tree_header"* %0, %"struct.std::_Rb_tree_header"** %2, align 8, !llfi_index !311
  %3 = load %"struct.std::_Rb_tree_header"*, %"struct.std::_Rb_tree_header"** %2, align 8, !llfi_index !312
  %4 = getelementptr inbounds %"struct.std::_Rb_tree_header", %"struct.std::_Rb_tree_header"* %3, i32 0, i32 0, !llfi_index !313
  %5 = getelementptr inbounds %"struct.std::_Rb_tree_node_base", %"struct.std::_Rb_tree_node_base"* %4, i32 0, i32 1, !llfi_index !314
  store %"struct.std::_Rb_tree_node_base"* null, %"struct.std::_Rb_tree_node_base"** %5, align 8, !llfi_index !315
  %6 = getelementptr inbounds %"struct.std::_Rb_tree_header", %"struct.std::_Rb_tree_header"* %3, i32 0, i32 0, !llfi_index !316
  %7 = getelementptr inbounds %"struct.std::_Rb_tree_header", %"struct.std::_Rb_tree_header"* %3, i32 0, i32 0, !llfi_index !317
  %8 = getelementptr inbounds %"struct.std::_Rb_tree_node_base", %"struct.std::_Rb_tree_node_base"* %7, i32 0, i32 2, !llfi_index !318
  store %"struct.std::_Rb_tree_node_base"* %6, %"struct.std::_Rb_tree_node_base"** %8, align 8, !llfi_index !319
  %9 = getelementptr inbounds %"struct.std::_Rb_tree_header", %"struct.std::_Rb_tree_header"* %3, i32 0, i32 0, !llfi_index !320
  %10 = getelementptr inbounds %"struct.std::_Rb_tree_header", %"struct.std::_Rb_tree_header"* %3, i32 0, i32 0, !llfi_index !321
  %11 = getelementptr inbounds %"struct.std::_Rb_tree_node_base", %"struct.std::_Rb_tree_node_base"* %10, i32 0, i32 3, !llfi_index !322
  store %"struct.std::_Rb_tree_node_base"* %9, %"struct.std::_Rb_tree_node_base"** %11, align 8, !llfi_index !323
  %12 = getelementptr inbounds %"struct.std::_Rb_tree_header", %"struct.std::_Rb_tree_header"* %3, i32 0, i32 1, !llfi_index !324
  store i64 0, i64* %12, align 8, !llfi_index !325
  ret void, !llfi_index !326
}

; Function Attrs: noinline nounwind uwtable
define linkonce_odr dso_local void @_ZN9__gnu_cxx13new_allocatorISt13_Rb_tree_nodeIiEEC2Ev(%"struct.std::less"* nonnull align 1 dereferenceable(1) %0) unnamed_addr #1 comdat align 2 {
  %2 = alloca %"struct.std::less"*, align 8, !llfi_index !327
  store %"struct.std::less"* %0, %"struct.std::less"** %2, align 8, !llfi_index !328
  %3 = load %"struct.std::less"*, %"struct.std::less"** %2, align 8, !llfi_index !329
  ret void, !llfi_index !330
}

; Function Attrs: noinline nounwind uwtable
define linkonce_odr dso_local void @_ZNSt6vectorIiSaIiEEC2Ev(%"class.std::vector"* nonnull align 8 dereferenceable(24) %0) unnamed_addr #1 comdat align 2 {
  %2 = alloca %"class.std::vector"*, align 8, !llfi_index !331
  store %"class.std::vector"* %0, %"class.std::vector"** %2, align 8, !llfi_index !332
  %3 = load %"class.std::vector"*, %"class.std::vector"** %2, align 8, !llfi_index !333
  %4 = bitcast %"class.std::vector"* %3 to %"struct.std::_Vector_base"*, !llfi_index !334
  call void @_ZNSt12_Vector_baseIiSaIiEEC2Ev(%"struct.std::_Vector_base"* nonnull align 8 dereferenceable(24) %4) #2, !llfi_index !335
  ret void, !llfi_index !336
}

; Function Attrs: noinline uwtable
define internal void @__dtor_del() #0 section ".text.startup" {
  call void @__cxx_global_array_dtor.7(i8* null), !llfi_index !337
  ret void, !llfi_index !338
}

; Function Attrs: noinline uwtable
define internal void @__cxx_global_array_dtor.7(i8* %0) #0 section ".text.startup" {
  %2 = alloca i8*, align 8, !llfi_index !339
  store i8* %0, i8** %2, align 8, !llfi_index !340
  br label %3, !llfi_index !341

3:                                                ; preds = %3, %1
  %4 = phi %"class.std::vector"* [ getelementptr inbounds (%"class.std::vector", %"class.std::vector"* getelementptr inbounds ([101010 x %"class.std::vector"], [101010 x %"class.std::vector"]* @del, i32 0, i32 0), i64 101010), %1 ], [ %5, %3 ], !llfi_index !342
  %5 = getelementptr inbounds %"class.std::vector", %"class.std::vector"* %4, i64 -1, !llfi_index !343
  call void @_ZNSt6vectorIiSaIiEED2Ev(%"class.std::vector"* nonnull align 8 dereferenceable(24) %5) #2, !llfi_index !344
  %6 = icmp eq %"class.std::vector"* %5, getelementptr inbounds ([101010 x %"class.std::vector"], [101010 x %"class.std::vector"]* @del, i32 0, i32 0), !llfi_index !345
  br i1 %6, label %7, label %3, !llfi_index !346

7:                                                ; preds = %3
  ret void, !llfi_index !347
}

; Function Attrs: noinline nounwind uwtable
define linkonce_odr dso_local void @_ZNSt6vectorIiSaIiEED2Ev(%"class.std::vector"* nonnull align 8 dereferenceable(24) %0) unnamed_addr #1 comdat align 2 personality i8* bitcast (i32 (...)* @__gxx_personality_v0 to i8*) {
  %2 = alloca %"class.std::vector"*, align 8, !llfi_index !348
  %3 = alloca i8*, align 8, !llfi_index !349
  %4 = alloca i32, align 4, !llfi_index !350
  store %"class.std::vector"* %0, %"class.std::vector"** %2, align 8, !llfi_index !351
  %5 = load %"class.std::vector"*, %"class.std::vector"** %2, align 8, !llfi_index !352
  %6 = bitcast %"class.std::vector"* %5 to %"struct.std::_Vector_base"*, !llfi_index !353
  %7 = getelementptr inbounds %"struct.std::_Vector_base", %"struct.std::_Vector_base"* %6, i32 0, i32 0, !llfi_index !354
  %8 = bitcast %"struct.std::_Vector_base<int, std::allocator<int>>::_Vector_impl"* %7 to %"struct.std::_Vector_base<int, std::allocator<int>>::_Vector_impl_data"*, !llfi_index !355
  %9 = getelementptr inbounds %"struct.std::_Vector_base<int, std::allocator<int>>::_Vector_impl_data", %"struct.std::_Vector_base<int, std::allocator<int>>::_Vector_impl_data"* %8, i32 0, i32 0, !llfi_index !356
  %10 = load i32*, i32** %9, align 8, !llfi_index !357
  %11 = bitcast %"class.std::vector"* %5 to %"struct.std::_Vector_base"*, !llfi_index !358
  %12 = getelementptr inbounds %"struct.std::_Vector_base", %"struct.std::_Vector_base"* %11, i32 0, i32 0, !llfi_index !359
  %13 = bitcast %"struct.std::_Vector_base<int, std::allocator<int>>::_Vector_impl"* %12 to %"struct.std::_Vector_base<int, std::allocator<int>>::_Vector_impl_data"*, !llfi_index !360
  %14 = getelementptr inbounds %"struct.std::_Vector_base<int, std::allocator<int>>::_Vector_impl_data", %"struct.std::_Vector_base<int, std::allocator<int>>::_Vector_impl_data"* %13, i32 0, i32 1, !llfi_index !361
  %15 = load i32*, i32** %14, align 8, !llfi_index !362
  %16 = bitcast %"class.std::vector"* %5 to %"struct.std::_Vector_base"*, !llfi_index !363
  %17 = call nonnull align 1 dereferenceable(1) %"struct.std::less"* @_ZNSt12_Vector_baseIiSaIiEE19_M_get_Tp_allocatorEv(%"struct.std::_Vector_base"* nonnull align 8 dereferenceable(24) %16) #2, !llfi_index !364
  invoke void @_ZSt8_DestroyIPiiEvT_S1_RSaIT0_E(i32* %10, i32* %15, %"struct.std::less"* nonnull align 1 dereferenceable(1) %17)
          to label %18 unwind label %20, !llfi_index !365

18:                                               ; preds = %1
  %19 = bitcast %"class.std::vector"* %5 to %"struct.std::_Vector_base"*, !llfi_index !366
  call void @_ZNSt12_Vector_baseIiSaIiEED2Ev(%"struct.std::_Vector_base"* nonnull align 8 dereferenceable(24) %19) #2, !llfi_index !367
  ret void, !llfi_index !368

20:                                               ; preds = %1
  %21 = landingpad { i8*, i32 }
          catch i8* null, !llfi_index !369
  %22 = extractvalue { i8*, i32 } %21, 0, !llfi_index !370
  store i8* %22, i8** %3, align 8, !llfi_index !371
  %23 = extractvalue { i8*, i32 } %21, 1, !llfi_index !372
  store i32 %23, i32* %4, align 4, !llfi_index !373
  %24 = bitcast %"class.std::vector"* %5 to %"struct.std::_Vector_base"*, !llfi_index !374
  call void @_ZNSt12_Vector_baseIiSaIiEED2Ev(%"struct.std::_Vector_base"* nonnull align 8 dereferenceable(24) %24) #2, !llfi_index !375
  br label %25, !llfi_index !376

25:                                               ; preds = %20
  %26 = load i8*, i8** %3, align 8, !llfi_index !377
  call void @__clang_call_terminate(i8* %26) #16, !llfi_index !378
  unreachable, !llfi_index !379
}

; Function Attrs: mustprogress noinline nounwind uwtable
define linkonce_odr dso_local nonnull align 1 dereferenceable(1) %"struct.std::less"* @_ZNSt12_Vector_baseIiSaIiEE19_M_get_Tp_allocatorEv(%"struct.std::_Vector_base"* nonnull align 8 dereferenceable(24) %0) #3 comdat align 2 {
  %2 = alloca %"struct.std::_Vector_base"*, align 8, !llfi_index !380
  store %"struct.std::_Vector_base"* %0, %"struct.std::_Vector_base"** %2, align 8, !llfi_index !381
  %3 = load %"struct.std::_Vector_base"*, %"struct.std::_Vector_base"** %2, align 8, !llfi_index !382
  %4 = getelementptr inbounds %"struct.std::_Vector_base", %"struct.std::_Vector_base"* %3, i32 0, i32 0, !llfi_index !383
  %5 = bitcast %"struct.std::_Vector_base<int, std::allocator<int>>::_Vector_impl"* %4 to %"struct.std::less"*, !llfi_index !384
  ret %"struct.std::less"* %5, !llfi_index !385
}

; Function Attrs: mustprogress noinline uwtable
define linkonce_odr dso_local void @_ZSt8_DestroyIPiiEvT_S1_RSaIT0_E(i32* %0, i32* %1, %"struct.std::less"* nonnull align 1 dereferenceable(1) %2) #4 comdat {
  %4 = alloca i32*, align 8, !llfi_index !386
  %5 = alloca i32*, align 8, !llfi_index !387
  %6 = alloca %"struct.std::less"*, align 8, !llfi_index !388
  store i32* %0, i32** %4, align 8, !llfi_index !389
  store i32* %1, i32** %5, align 8, !llfi_index !390
  store %"struct.std::less"* %2, %"struct.std::less"** %6, align 8, !llfi_index !391
  %7 = load i32*, i32** %4, align 8, !llfi_index !392
  %8 = load i32*, i32** %5, align 8, !llfi_index !393
  call void @_ZSt8_DestroyIPiEvT_S1_(i32* %7, i32* %8), !llfi_index !394
  ret void, !llfi_index !395
}

; Function Attrs: noinline nounwind uwtable
define linkonce_odr dso_local void @_ZNSt12_Vector_baseIiSaIiEED2Ev(%"struct.std::_Vector_base"* nonnull align 8 dereferenceable(24) %0) unnamed_addr #1 comdat align 2 personality i8* bitcast (i32 (...)* @__gxx_personality_v0 to i8*) {
  %2 = alloca %"struct.std::_Vector_base"*, align 8, !llfi_index !396
  %3 = alloca i8*, align 8, !llfi_index !397
  %4 = alloca i32, align 4, !llfi_index !398
  store %"struct.std::_Vector_base"* %0, %"struct.std::_Vector_base"** %2, align 8, !llfi_index !399
  %5 = load %"struct.std::_Vector_base"*, %"struct.std::_Vector_base"** %2, align 8, !llfi_index !400
  %6 = getelementptr inbounds %"struct.std::_Vector_base", %"struct.std::_Vector_base"* %5, i32 0, i32 0, !llfi_index !401
  %7 = bitcast %"struct.std::_Vector_base<int, std::allocator<int>>::_Vector_impl"* %6 to %"struct.std::_Vector_base<int, std::allocator<int>>::_Vector_impl_data"*, !llfi_index !402
  %8 = getelementptr inbounds %"struct.std::_Vector_base<int, std::allocator<int>>::_Vector_impl_data", %"struct.std::_Vector_base<int, std::allocator<int>>::_Vector_impl_data"* %7, i32 0, i32 0, !llfi_index !403
  %9 = load i32*, i32** %8, align 8, !llfi_index !404
  %10 = getelementptr inbounds %"struct.std::_Vector_base", %"struct.std::_Vector_base"* %5, i32 0, i32 0, !llfi_index !405
  %11 = bitcast %"struct.std::_Vector_base<int, std::allocator<int>>::_Vector_impl"* %10 to %"struct.std::_Vector_base<int, std::allocator<int>>::_Vector_impl_data"*, !llfi_index !406
  %12 = getelementptr inbounds %"struct.std::_Vector_base<int, std::allocator<int>>::_Vector_impl_data", %"struct.std::_Vector_base<int, std::allocator<int>>::_Vector_impl_data"* %11, i32 0, i32 2, !llfi_index !407
  %13 = load i32*, i32** %12, align 8, !llfi_index !408
  %14 = getelementptr inbounds %"struct.std::_Vector_base", %"struct.std::_Vector_base"* %5, i32 0, i32 0, !llfi_index !409
  %15 = bitcast %"struct.std::_Vector_base<int, std::allocator<int>>::_Vector_impl"* %14 to %"struct.std::_Vector_base<int, std::allocator<int>>::_Vector_impl_data"*, !llfi_index !410
  %16 = getelementptr inbounds %"struct.std::_Vector_base<int, std::allocator<int>>::_Vector_impl_data", %"struct.std::_Vector_base<int, std::allocator<int>>::_Vector_impl_data"* %15, i32 0, i32 0, !llfi_index !411
  %17 = load i32*, i32** %16, align 8, !llfi_index !412
  %18 = ptrtoint i32* %13 to i64, !llfi_index !413
  %19 = ptrtoint i32* %17 to i64, !llfi_index !414
  %20 = sub i64 %18, %19, !llfi_index !415
  %21 = sdiv exact i64 %20, 4, !llfi_index !416
  invoke void @_ZNSt12_Vector_baseIiSaIiEE13_M_deallocateEPim(%"struct.std::_Vector_base"* nonnull align 8 dereferenceable(24) %5, i32* %9, i64 %21)
          to label %22 unwind label %24, !llfi_index !417

22:                                               ; preds = %1
  %23 = getelementptr inbounds %"struct.std::_Vector_base", %"struct.std::_Vector_base"* %5, i32 0, i32 0, !llfi_index !418
  call void @_ZNSt12_Vector_baseIiSaIiEE12_Vector_implD2Ev(%"struct.std::_Vector_base<int, std::allocator<int>>::_Vector_impl"* nonnull align 8 dereferenceable(24) %23) #2, !llfi_index !419
  ret void, !llfi_index !420

24:                                               ; preds = %1
  %25 = landingpad { i8*, i32 }
          catch i8* null, !llfi_index !421
  %26 = extractvalue { i8*, i32 } %25, 0, !llfi_index !422
  store i8* %26, i8** %3, align 8, !llfi_index !423
  %27 = extractvalue { i8*, i32 } %25, 1, !llfi_index !424
  store i32 %27, i32* %4, align 4, !llfi_index !425
  %28 = getelementptr inbounds %"struct.std::_Vector_base", %"struct.std::_Vector_base"* %5, i32 0, i32 0, !llfi_index !426
  call void @_ZNSt12_Vector_baseIiSaIiEE12_Vector_implD2Ev(%"struct.std::_Vector_base<int, std::allocator<int>>::_Vector_impl"* nonnull align 8 dereferenceable(24) %28) #2, !llfi_index !427
  br label %29, !llfi_index !428

29:                                               ; preds = %24
  %30 = load i8*, i8** %3, align 8, !llfi_index !429
  call void @__clang_call_terminate(i8* %30) #16, !llfi_index !430
  unreachable, !llfi_index !431
}

; Function Attrs: mustprogress noinline uwtable
define linkonce_odr dso_local void @_ZNSt12_Vector_baseIiSaIiEE13_M_deallocateEPim(%"struct.std::_Vector_base"* nonnull align 8 dereferenceable(24) %0, i32* %1, i64 %2) #4 comdat align 2 {
  %4 = alloca %"struct.std::_Vector_base"*, align 8, !llfi_index !432
  %5 = alloca i32*, align 8, !llfi_index !433
  %6 = alloca i64, align 8, !llfi_index !434
  store %"struct.std::_Vector_base"* %0, %"struct.std::_Vector_base"** %4, align 8, !llfi_index !435
  store i32* %1, i32** %5, align 8, !llfi_index !436
  store i64 %2, i64* %6, align 8, !llfi_index !437
  %7 = load %"struct.std::_Vector_base"*, %"struct.std::_Vector_base"** %4, align 8, !llfi_index !438
  %8 = load i32*, i32** %5, align 8, !llfi_index !439
  %9 = icmp ne i32* %8, null, !llfi_index !440
  br i1 %9, label %10, label %15, !llfi_index !441

10:                                               ; preds = %3
  %11 = getelementptr inbounds %"struct.std::_Vector_base", %"struct.std::_Vector_base"* %7, i32 0, i32 0, !llfi_index !442
  %12 = bitcast %"struct.std::_Vector_base<int, std::allocator<int>>::_Vector_impl"* %11 to %"struct.std::less"*, !llfi_index !443
  %13 = load i32*, i32** %5, align 8, !llfi_index !444
  %14 = load i64, i64* %6, align 8, !llfi_index !445
  call void @_ZNSt16allocator_traitsISaIiEE10deallocateERS0_Pim(%"struct.std::less"* nonnull align 1 dereferenceable(1) %12, i32* %13, i64 %14), !llfi_index !446
  br label %15, !llfi_index !447

15:                                               ; preds = %10, %3
  ret void, !llfi_index !448
}

; Function Attrs: noinline nounwind uwtable
define linkonce_odr dso_local void @_ZNSt12_Vector_baseIiSaIiEE12_Vector_implD2Ev(%"struct.std::_Vector_base<int, std::allocator<int>>::_Vector_impl"* nonnull align 8 dereferenceable(24) %0) unnamed_addr #1 comdat align 2 {
  %2 = alloca %"struct.std::_Vector_base<int, std::allocator<int>>::_Vector_impl"*, align 8, !llfi_index !449
  store %"struct.std::_Vector_base<int, std::allocator<int>>::_Vector_impl"* %0, %"struct.std::_Vector_base<int, std::allocator<int>>::_Vector_impl"** %2, align 8, !llfi_index !450
  %3 = load %"struct.std::_Vector_base<int, std::allocator<int>>::_Vector_impl"*, %"struct.std::_Vector_base<int, std::allocator<int>>::_Vector_impl"** %2, align 8, !llfi_index !451
  %4 = bitcast %"struct.std::_Vector_base<int, std::allocator<int>>::_Vector_impl"* %3 to %"struct.std::less"*, !llfi_index !452
  call void @_ZNSaIiED2Ev(%"struct.std::less"* nonnull align 1 dereferenceable(1) %4) #2, !llfi_index !453
  ret void, !llfi_index !454
}

; Function Attrs: noinline nounwind uwtable
define linkonce_odr dso_local void @_ZNSaIiED2Ev(%"struct.std::less"* nonnull align 1 dereferenceable(1) %0) unnamed_addr #1 comdat align 2 {
  %2 = alloca %"struct.std::less"*, align 8, !llfi_index !455
  store %"struct.std::less"* %0, %"struct.std::less"** %2, align 8, !llfi_index !456
  %3 = load %"struct.std::less"*, %"struct.std::less"** %2, align 8, !llfi_index !457
  %4 = bitcast %"struct.std::less"* %3 to %"struct.std::less"*, !llfi_index !458
  call void @_ZN9__gnu_cxx13new_allocatorIiED2Ev(%"struct.std::less"* nonnull align 1 dereferenceable(1) %4) #2, !llfi_index !459
  ret void, !llfi_index !460
}

; Function Attrs: noinline nounwind uwtable
define linkonce_odr dso_local void @_ZN9__gnu_cxx13new_allocatorIiED2Ev(%"struct.std::less"* nonnull align 1 dereferenceable(1) %0) unnamed_addr #1 comdat align 2 {
  %2 = alloca %"struct.std::less"*, align 8, !llfi_index !461
  store %"struct.std::less"* %0, %"struct.std::less"** %2, align 8, !llfi_index !462
  %3 = load %"struct.std::less"*, %"struct.std::less"** %2, align 8, !llfi_index !463
  ret void, !llfi_index !464
}

; Function Attrs: mustprogress noinline uwtable
define linkonce_odr dso_local void @_ZNSt16allocator_traitsISaIiEE10deallocateERS0_Pim(%"struct.std::less"* nonnull align 1 dereferenceable(1) %0, i32* %1, i64 %2) #4 comdat align 2 {
  %4 = alloca %"struct.std::less"*, align 8, !llfi_index !465
  %5 = alloca i32*, align 8, !llfi_index !466
  %6 = alloca i64, align 8, !llfi_index !467
  store %"struct.std::less"* %0, %"struct.std::less"** %4, align 8, !llfi_index !468
  store i32* %1, i32** %5, align 8, !llfi_index !469
  store i64 %2, i64* %6, align 8, !llfi_index !470
  %7 = load %"struct.std::less"*, %"struct.std::less"** %4, align 8, !llfi_index !471
  %8 = bitcast %"struct.std::less"* %7 to %"struct.std::less"*, !llfi_index !472
  %9 = load i32*, i32** %5, align 8, !llfi_index !473
  %10 = load i64, i64* %6, align 8, !llfi_index !474
  call void @_ZN9__gnu_cxx13new_allocatorIiE10deallocateEPim(%"struct.std::less"* nonnull align 1 dereferenceable(1) %8, i32* %9, i64 %10), !llfi_index !475
  ret void, !llfi_index !476
}

; Function Attrs: mustprogress noinline nounwind uwtable
define linkonce_odr dso_local void @_ZN9__gnu_cxx13new_allocatorIiE10deallocateEPim(%"struct.std::less"* nonnull align 1 dereferenceable(1) %0, i32* %1, i64 %2) #3 comdat align 2 {
  %4 = alloca %"struct.std::less"*, align 8, !llfi_index !477
  %5 = alloca i32*, align 8, !llfi_index !478
  %6 = alloca i64, align 8, !llfi_index !479
  store %"struct.std::less"* %0, %"struct.std::less"** %4, align 8, !llfi_index !480
  store i32* %1, i32** %5, align 8, !llfi_index !481
  store i64 %2, i64* %6, align 8, !llfi_index !482
  %7 = load %"struct.std::less"*, %"struct.std::less"** %4, align 8, !llfi_index !483
  %8 = load i32*, i32** %5, align 8, !llfi_index !484
  %9 = bitcast i32* %8 to i8*, !llfi_index !485
  call void @_ZdlPv(i8* %9) #2, !llfi_index !486
  ret void, !llfi_index !487
}

; Function Attrs: mustprogress noinline uwtable
define linkonce_odr dso_local void @_ZSt8_DestroyIPiEvT_S1_(i32* %0, i32* %1) #4 comdat {
  %3 = alloca i32*, align 8, !llfi_index !488
  %4 = alloca i32*, align 8, !llfi_index !489
  store i32* %0, i32** %3, align 8, !llfi_index !490
  store i32* %1, i32** %4, align 8, !llfi_index !491
  %5 = load i32*, i32** %3, align 8, !llfi_index !492
  %6 = load i32*, i32** %4, align 8, !llfi_index !493
  call void @_ZNSt12_Destroy_auxILb1EE9__destroyIPiEEvT_S3_(i32* %5, i32* %6), !llfi_index !494
  ret void, !llfi_index !495
}

; Function Attrs: mustprogress noinline nounwind uwtable
define linkonce_odr dso_local void @_ZNSt12_Destroy_auxILb1EE9__destroyIPiEEvT_S3_(i32* %0, i32* %1) #3 comdat align 2 {
  %3 = alloca i32*, align 8, !llfi_index !496
  %4 = alloca i32*, align 8, !llfi_index !497
  store i32* %0, i32** %3, align 8, !llfi_index !498
  store i32* %1, i32** %4, align 8, !llfi_index !499
  ret void, !llfi_index !500
}

; Function Attrs: noinline nounwind uwtable
define linkonce_odr dso_local void @_ZNSt12_Vector_baseIiSaIiEEC2Ev(%"struct.std::_Vector_base"* nonnull align 8 dereferenceable(24) %0) unnamed_addr #1 comdat align 2 {
  %2 = alloca %"struct.std::_Vector_base"*, align 8, !llfi_index !501
  store %"struct.std::_Vector_base"* %0, %"struct.std::_Vector_base"** %2, align 8, !llfi_index !502
  %3 = load %"struct.std::_Vector_base"*, %"struct.std::_Vector_base"** %2, align 8, !llfi_index !503
  %4 = getelementptr inbounds %"struct.std::_Vector_base", %"struct.std::_Vector_base"* %3, i32 0, i32 0, !llfi_index !504
  call void @_ZNSt12_Vector_baseIiSaIiEE12_Vector_implC2Ev(%"struct.std::_Vector_base<int, std::allocator<int>>::_Vector_impl"* nonnull align 8 dereferenceable(24) %4) #2, !llfi_index !505
  ret void, !llfi_index !506
}

; Function Attrs: noinline nounwind uwtable
define linkonce_odr dso_local void @_ZNSt12_Vector_baseIiSaIiEE12_Vector_implC2Ev(%"struct.std::_Vector_base<int, std::allocator<int>>::_Vector_impl"* nonnull align 8 dereferenceable(24) %0) unnamed_addr #1 comdat align 2 {
  %2 = alloca %"struct.std::_Vector_base<int, std::allocator<int>>::_Vector_impl"*, align 8, !llfi_index !507
  store %"struct.std::_Vector_base<int, std::allocator<int>>::_Vector_impl"* %0, %"struct.std::_Vector_base<int, std::allocator<int>>::_Vector_impl"** %2, align 8, !llfi_index !508
  %3 = load %"struct.std::_Vector_base<int, std::allocator<int>>::_Vector_impl"*, %"struct.std::_Vector_base<int, std::allocator<int>>::_Vector_impl"** %2, align 8, !llfi_index !509
  %4 = bitcast %"struct.std::_Vector_base<int, std::allocator<int>>::_Vector_impl"* %3 to %"struct.std::less"*, !llfi_index !510
  call void @_ZNSaIiEC2Ev(%"struct.std::less"* nonnull align 1 dereferenceable(1) %4) #2, !llfi_index !511
  %5 = bitcast %"struct.std::_Vector_base<int, std::allocator<int>>::_Vector_impl"* %3 to %"struct.std::_Vector_base<int, std::allocator<int>>::_Vector_impl_data"*, !llfi_index !512
  call void @_ZNSt12_Vector_baseIiSaIiEE17_Vector_impl_dataC2Ev(%"struct.std::_Vector_base<int, std::allocator<int>>::_Vector_impl_data"* nonnull align 8 dereferenceable(24) %5) #2, !llfi_index !513
  ret void, !llfi_index !514
}

; Function Attrs: noinline nounwind uwtable
define linkonce_odr dso_local void @_ZNSaIiEC2Ev(%"struct.std::less"* nonnull align 1 dereferenceable(1) %0) unnamed_addr #1 comdat align 2 {
  %2 = alloca %"struct.std::less"*, align 8, !llfi_index !515
  store %"struct.std::less"* %0, %"struct.std::less"** %2, align 8, !llfi_index !516
  %3 = load %"struct.std::less"*, %"struct.std::less"** %2, align 8, !llfi_index !517
  %4 = bitcast %"struct.std::less"* %3 to %"struct.std::less"*, !llfi_index !518
  call void @_ZN9__gnu_cxx13new_allocatorIiEC2Ev(%"struct.std::less"* nonnull align 1 dereferenceable(1) %4) #2, !llfi_index !519
  ret void, !llfi_index !520
}

; Function Attrs: noinline nounwind uwtable
define linkonce_odr dso_local void @_ZNSt12_Vector_baseIiSaIiEE17_Vector_impl_dataC2Ev(%"struct.std::_Vector_base<int, std::allocator<int>>::_Vector_impl_data"* nonnull align 8 dereferenceable(24) %0) unnamed_addr #1 comdat align 2 {
  %2 = alloca %"struct.std::_Vector_base<int, std::allocator<int>>::_Vector_impl_data"*, align 8, !llfi_index !521
  store %"struct.std::_Vector_base<int, std::allocator<int>>::_Vector_impl_data"* %0, %"struct.std::_Vector_base<int, std::allocator<int>>::_Vector_impl_data"** %2, align 8, !llfi_index !522
  %3 = load %"struct.std::_Vector_base<int, std::allocator<int>>::_Vector_impl_data"*, %"struct.std::_Vector_base<int, std::allocator<int>>::_Vector_impl_data"** %2, align 8, !llfi_index !523
  %4 = getelementptr inbounds %"struct.std::_Vector_base<int, std::allocator<int>>::_Vector_impl_data", %"struct.std::_Vector_base<int, std::allocator<int>>::_Vector_impl_data"* %3, i32 0, i32 0, !llfi_index !524
  store i32* null, i32** %4, align 8, !llfi_index !525
  %5 = getelementptr inbounds %"struct.std::_Vector_base<int, std::allocator<int>>::_Vector_impl_data", %"struct.std::_Vector_base<int, std::allocator<int>>::_Vector_impl_data"* %3, i32 0, i32 1, !llfi_index !526
  store i32* null, i32** %5, align 8, !llfi_index !527
  %6 = getelementptr inbounds %"struct.std::_Vector_base<int, std::allocator<int>>::_Vector_impl_data", %"struct.std::_Vector_base<int, std::allocator<int>>::_Vector_impl_data"* %3, i32 0, i32 2, !llfi_index !528
  store i32* null, i32** %6, align 8, !llfi_index !529
  ret void, !llfi_index !530
}

; Function Attrs: noinline nounwind uwtable
define linkonce_odr dso_local void @_ZN9__gnu_cxx13new_allocatorIiEC2Ev(%"struct.std::less"* nonnull align 1 dereferenceable(1) %0) unnamed_addr #1 comdat align 2 {
  %2 = alloca %"struct.std::less"*, align 8, !llfi_index !531
  store %"struct.std::less"* %0, %"struct.std::less"** %2, align 8, !llfi_index !532
  %3 = load %"struct.std::less"*, %"struct.std::less"** %2, align 8, !llfi_index !533
  ret void, !llfi_index !534
}

; Function Attrs: noinline uwtable
define internal void @__dtor_add() #0 section ".text.startup" {
  call void @__cxx_global_array_dtor(i8* null), !llfi_index !535
  ret void, !llfi_index !536
}

; Function Attrs: noinline uwtable
define internal void @__cxx_global_array_dtor(i8* %0) #0 section ".text.startup" {
  %2 = alloca i8*, align 8, !llfi_index !537
  store i8* %0, i8** %2, align 8, !llfi_index !538
  br label %3, !llfi_index !539

3:                                                ; preds = %3, %1
  %4 = phi %"class.std::vector"* [ getelementptr inbounds (%"class.std::vector", %"class.std::vector"* getelementptr inbounds ([101010 x %"class.std::vector"], [101010 x %"class.std::vector"]* @add, i32 0, i32 0), i64 101010), %1 ], [ %5, %3 ], !llfi_index !540
  %5 = getelementptr inbounds %"class.std::vector", %"class.std::vector"* %4, i64 -1, !llfi_index !541
  call void @_ZNSt6vectorIiSaIiEED2Ev(%"class.std::vector"* nonnull align 8 dereferenceable(24) %5) #2, !llfi_index !542
  %6 = icmp eq %"class.std::vector"* %5, getelementptr inbounds ([101010 x %"class.std::vector"], [101010 x %"class.std::vector"]* @add, i32 0, i32 0), !llfi_index !543
  br i1 %6, label %7, label %3, !llfi_index !544

7:                                                ; preds = %3
  ret void, !llfi_index !545
}

; Function Attrs: noinline uwtable
define linkonce_odr dso_local void @_ZN11SegTree_andIiLi262144EEC2Ev(%class.SegTree_max* nonnull align 8 dereferenceable(24) %0) unnamed_addr #0 comdat align 2 personality i8* bitcast (i32 (...)* @__gxx_personality_v0 to i8*) {
  %2 = alloca %class.SegTree_max*, align 8, !llfi_index !546
  %3 = alloca %"class.std::vector", align 8, !llfi_index !547
  %4 = alloca %"struct.std::less", align 1, !llfi_index !548
  %5 = alloca i8*, align 8, !llfi_index !549
  %6 = alloca i32, align 4, !llfi_index !550
  store %class.SegTree_max* %0, %class.SegTree_max** %2, align 8, !llfi_index !551
  %7 = load %class.SegTree_max*, %class.SegTree_max** %2, align 8, !llfi_index !552
  %8 = getelementptr inbounds %class.SegTree_max, %class.SegTree_max* %7, i32 0, i32 0, !llfi_index !553
  call void @_ZNSt6vectorIiSaIiEEC2Ev(%"class.std::vector"* nonnull align 8 dereferenceable(24) %8) #2, !llfi_index !554
  call void @_ZNSaIiEC2Ev(%"struct.std::less"* nonnull align 1 dereferenceable(1) %4) #2, !llfi_index !555
  invoke void @_ZNSt6vectorIiSaIiEEC2EmRKiRKS0_(%"class.std::vector"* nonnull align 8 dereferenceable(24) %3, i64 524288, i32* nonnull align 4 dereferenceable(4) @_ZN11SegTree_andIiLi262144EE3defE, %"struct.std::less"* nonnull align 1 dereferenceable(1) %4)
          to label %9 unwind label %12, !llfi_index !556

9:                                                ; preds = %1
  %10 = getelementptr inbounds %class.SegTree_max, %class.SegTree_max* %7, i32 0, i32 0, !llfi_index !557
  %11 = call nonnull align 8 dereferenceable(24) %"class.std::vector"* @_ZNSt6vectorIiSaIiEEaSEOS1_(%"class.std::vector"* nonnull align 8 dereferenceable(24) %10, %"class.std::vector"* nonnull align 8 dereferenceable(24) %3) #2, !llfi_index !558
  call void @_ZNSt6vectorIiSaIiEED2Ev(%"class.std::vector"* nonnull align 8 dereferenceable(24) %3) #2, !llfi_index !559
  call void @_ZNSaIiED2Ev(%"struct.std::less"* nonnull align 1 dereferenceable(1) %4) #2, !llfi_index !560
  ret void, !llfi_index !561

12:                                               ; preds = %1
  %13 = landingpad { i8*, i32 }
          cleanup, !llfi_index !562
  %14 = extractvalue { i8*, i32 } %13, 0, !llfi_index !563
  store i8* %14, i8** %5, align 8, !llfi_index !564
  %15 = extractvalue { i8*, i32 } %13, 1, !llfi_index !565
  store i32 %15, i32* %6, align 4, !llfi_index !566
  call void @_ZNSaIiED2Ev(%"struct.std::less"* nonnull align 1 dereferenceable(1) %4) #2, !llfi_index !567
  call void @_ZNSt6vectorIiSaIiEED2Ev(%"class.std::vector"* nonnull align 8 dereferenceable(24) %8) #2, !llfi_index !568
  br label %16, !llfi_index !569

16:                                               ; preds = %12
  %17 = load i8*, i8** %5, align 8, !llfi_index !570
  %18 = load i32, i32* %6, align 4, !llfi_index !571
  %19 = insertvalue { i8*, i32 } undef, i8* %17, 0, !llfi_index !572
  %20 = insertvalue { i8*, i32 } %19, i32 %18, 1, !llfi_index !573
  resume { i8*, i32 } %20, !llfi_index !574
}

; Function Attrs: noinline uwtable
define internal void @__dtor_stand() #0 section ".text.startup" {
  call void @_ZN11SegTree_andIiLi262144EED2Ev(%class.SegTree_max* @stand), !llfi_index !575
  ret void, !llfi_index !576
}

; Function Attrs: noinline nounwind uwtable
define linkonce_odr dso_local void @_ZN11SegTree_andIiLi262144EED2Ev(%class.SegTree_max* nonnull align 8 dereferenceable(24) %0) unnamed_addr #1 comdat align 2 {
  %2 = alloca %class.SegTree_max*, align 8, !llfi_index !577
  store %class.SegTree_max* %0, %class.SegTree_max** %2, align 8, !llfi_index !578
  %3 = load %class.SegTree_max*, %class.SegTree_max** %2, align 8, !llfi_index !579
  %4 = getelementptr inbounds %class.SegTree_max, %class.SegTree_max* %3, i32 0, i32 0, !llfi_index !580
  call void @_ZNSt6vectorIiSaIiEED2Ev(%"class.std::vector"* nonnull align 8 dereferenceable(24) %4) #2, !llfi_index !581
  ret void, !llfi_index !582
}

; Function Attrs: noinline uwtable
define linkonce_odr dso_local void @_ZNSt6vectorIiSaIiEEC2EmRKiRKS0_(%"class.std::vector"* nonnull align 8 dereferenceable(24) %0, i64 %1, i32* nonnull align 4 dereferenceable(4) %2, %"struct.std::less"* nonnull align 1 dereferenceable(1) %3) unnamed_addr #0 comdat align 2 personality i8* bitcast (i32 (...)* @__gxx_personality_v0 to i8*) {
  %5 = alloca %"class.std::vector"*, align 8, !llfi_index !583
  %6 = alloca i64, align 8, !llfi_index !584
  %7 = alloca i32*, align 8, !llfi_index !585
  %8 = alloca %"struct.std::less"*, align 8, !llfi_index !586
  %9 = alloca i8*, align 8, !llfi_index !587
  %10 = alloca i32, align 4, !llfi_index !588
  store %"class.std::vector"* %0, %"class.std::vector"** %5, align 8, !llfi_index !589
  store i64 %1, i64* %6, align 8, !llfi_index !590
  store i32* %2, i32** %7, align 8, !llfi_index !591
  store %"struct.std::less"* %3, %"struct.std::less"** %8, align 8, !llfi_index !592
  %11 = load %"class.std::vector"*, %"class.std::vector"** %5, align 8, !llfi_index !593
  %12 = bitcast %"class.std::vector"* %11 to %"struct.std::_Vector_base"*, !llfi_index !594
  %13 = load i64, i64* %6, align 8, !llfi_index !595
  %14 = load %"struct.std::less"*, %"struct.std::less"** %8, align 8, !llfi_index !596
  %15 = call i64 @_ZNSt6vectorIiSaIiEE17_S_check_init_lenEmRKS0_(i64 %13, %"struct.std::less"* nonnull align 1 dereferenceable(1) %14), !llfi_index !597
  %16 = load %"struct.std::less"*, %"struct.std::less"** %8, align 8, !llfi_index !598
  call void @_ZNSt12_Vector_baseIiSaIiEEC2EmRKS0_(%"struct.std::_Vector_base"* nonnull align 8 dereferenceable(24) %12, i64 %15, %"struct.std::less"* nonnull align 1 dereferenceable(1) %16), !llfi_index !599
  %17 = load i64, i64* %6, align 8, !llfi_index !600
  %18 = load i32*, i32** %7, align 8, !llfi_index !601
  invoke void @_ZNSt6vectorIiSaIiEE18_M_fill_initializeEmRKi(%"class.std::vector"* nonnull align 8 dereferenceable(24) %11, i64 %17, i32* nonnull align 4 dereferenceable(4) %18)
          to label %19 unwind label %20, !llfi_index !602

19:                                               ; preds = %4
  ret void, !llfi_index !603

20:                                               ; preds = %4
  %21 = landingpad { i8*, i32 }
          cleanup, !llfi_index !604
  %22 = extractvalue { i8*, i32 } %21, 0, !llfi_index !605
  store i8* %22, i8** %9, align 8, !llfi_index !606
  %23 = extractvalue { i8*, i32 } %21, 1, !llfi_index !607
  store i32 %23, i32* %10, align 4, !llfi_index !608
  %24 = bitcast %"class.std::vector"* %11 to %"struct.std::_Vector_base"*, !llfi_index !609
  call void @_ZNSt12_Vector_baseIiSaIiEED2Ev(%"struct.std::_Vector_base"* nonnull align 8 dereferenceable(24) %24) #2, !llfi_index !610
  br label %25, !llfi_index !611

25:                                               ; preds = %20
  %26 = load i8*, i8** %9, align 8, !llfi_index !612
  %27 = load i32, i32* %10, align 4, !llfi_index !613
  %28 = insertvalue { i8*, i32 } undef, i8* %26, 0, !llfi_index !614
  %29 = insertvalue { i8*, i32 } %28, i32 %27, 1, !llfi_index !615
  resume { i8*, i32 } %29, !llfi_index !616
}

; Function Attrs: mustprogress noinline nounwind uwtable
define linkonce_odr dso_local nonnull align 8 dereferenceable(24) %"class.std::vector"* @_ZNSt6vectorIiSaIiEEaSEOS1_(%"class.std::vector"* nonnull align 8 dereferenceable(24) %0, %"class.std::vector"* nonnull align 8 dereferenceable(24) %1) #3 comdat align 2 {
  %3 = alloca %"class.std::vector"*, align 8, !llfi_index !617
  %4 = alloca %"class.std::vector"*, align 8, !llfi_index !618
  %5 = alloca i8, align 1, !llfi_index !619
  %6 = alloca %"struct.std::less", align 1, !llfi_index !620
  store %"class.std::vector"* %0, %"class.std::vector"** %3, align 8, !llfi_index !621
  store %"class.std::vector"* %1, %"class.std::vector"** %4, align 8, !llfi_index !622
  %7 = load %"class.std::vector"*, %"class.std::vector"** %3, align 8, !llfi_index !623
  store i8 1, i8* %5, align 1, !llfi_index !624
  %8 = load %"class.std::vector"*, %"class.std::vector"** %4, align 8, !llfi_index !625
  %9 = call nonnull align 8 dereferenceable(24) %"class.std::vector"* @_ZSt4moveIRSt6vectorIiSaIiEEEONSt16remove_referenceIT_E4typeEOS5_(%"class.std::vector"* nonnull align 8 dereferenceable(24) %8) #2, !llfi_index !626
  call void @_ZNSt6vectorIiSaIiEE14_M_move_assignEOS1_St17integral_constantIbLb1EE(%"class.std::vector"* nonnull align 8 dereferenceable(24) %7, %"class.std::vector"* nonnull align 8 dereferenceable(24) %9) #2, !llfi_index !627
  ret %"class.std::vector"* %7, !llfi_index !628
}

; Function Attrs: mustprogress noinline nounwind uwtable
define linkonce_odr dso_local nonnull align 8 dereferenceable(24) %"class.std::vector"* @_ZSt4moveIRSt6vectorIiSaIiEEEONSt16remove_referenceIT_E4typeEOS5_(%"class.std::vector"* nonnull align 8 dereferenceable(24) %0) #3 comdat {
  %2 = alloca %"class.std::vector"*, align 8, !llfi_index !629
  store %"class.std::vector"* %0, %"class.std::vector"** %2, align 8, !llfi_index !630
  %3 = load %"class.std::vector"*, %"class.std::vector"** %2, align 8, !llfi_index !631
  ret %"class.std::vector"* %3, !llfi_index !632
}

; Function Attrs: mustprogress noinline nounwind uwtable
define linkonce_odr dso_local void @_ZNSt6vectorIiSaIiEE14_M_move_assignEOS1_St17integral_constantIbLb1EE(%"class.std::vector"* nonnull align 8 dereferenceable(24) %0, %"class.std::vector"* nonnull align 8 dereferenceable(24) %1) #3 comdat align 2 personality i8* bitcast (i32 (...)* @__gxx_personality_v0 to i8*) {
  %3 = alloca %"struct.std::less", align 1, !llfi_index !633
  %4 = alloca %"class.std::vector"*, align 8, !llfi_index !634
  %5 = alloca %"class.std::vector"*, align 8, !llfi_index !635
  %6 = alloca %"class.std::vector", align 8, !llfi_index !636
  %7 = alloca %"struct.std::less", align 1, !llfi_index !637
  %8 = alloca i8*, align 8, !llfi_index !638
  %9 = alloca i32, align 4, !llfi_index !639
  store %"class.std::vector"* %0, %"class.std::vector"** %4, align 8, !llfi_index !640
  store %"class.std::vector"* %1, %"class.std::vector"** %5, align 8, !llfi_index !641
  %10 = load %"class.std::vector"*, %"class.std::vector"** %4, align 8, !llfi_index !642
  %11 = bitcast %"class.std::vector"* %10 to %"struct.std::_Vector_base"*, !llfi_index !643
  call void @_ZNKSt12_Vector_baseIiSaIiEE13get_allocatorEv(%"struct.std::less"* sret(%"struct.std::less") align 1 %7, %"struct.std::_Vector_base"* nonnull align 8 dereferenceable(24) %11) #2, !llfi_index !644
  call void @_ZNSt6vectorIiSaIiEEC2ERKS0_(%"class.std::vector"* nonnull align 8 dereferenceable(24) %6, %"struct.std::less"* nonnull align 1 dereferenceable(1) %7) #2, !llfi_index !645
  call void @_ZNSaIiED2Ev(%"struct.std::less"* nonnull align 1 dereferenceable(1) %7) #2, !llfi_index !646
  %12 = bitcast %"class.std::vector"* %10 to %"struct.std::_Vector_base"*, !llfi_index !647
  %13 = getelementptr inbounds %"struct.std::_Vector_base", %"struct.std::_Vector_base"* %12, i32 0, i32 0, !llfi_index !648
  %14 = bitcast %"struct.std::_Vector_base<int, std::allocator<int>>::_Vector_impl"* %13 to %"struct.std::_Vector_base<int, std::allocator<int>>::_Vector_impl_data"*, !llfi_index !649
  %15 = load %"class.std::vector"*, %"class.std::vector"** %5, align 8, !llfi_index !650
  %16 = bitcast %"class.std::vector"* %15 to %"struct.std::_Vector_base"*, !llfi_index !651
  %17 = getelementptr inbounds %"struct.std::_Vector_base", %"struct.std::_Vector_base"* %16, i32 0, i32 0, !llfi_index !652
  %18 = bitcast %"struct.std::_Vector_base<int, std::allocator<int>>::_Vector_impl"* %17 to %"struct.std::_Vector_base<int, std::allocator<int>>::_Vector_impl_data"*, !llfi_index !653
  call void @_ZNSt12_Vector_baseIiSaIiEE17_Vector_impl_data12_M_swap_dataERS2_(%"struct.std::_Vector_base<int, std::allocator<int>>::_Vector_impl_data"* nonnull align 8 dereferenceable(24) %14, %"struct.std::_Vector_base<int, std::allocator<int>>::_Vector_impl_data"* nonnull align 8 dereferenceable(24) %18) #2, !llfi_index !654
  %19 = bitcast %"class.std::vector"* %6 to %"struct.std::_Vector_base"*, !llfi_index !655
  %20 = getelementptr inbounds %"struct.std::_Vector_base", %"struct.std::_Vector_base"* %19, i32 0, i32 0, !llfi_index !656
  %21 = bitcast %"struct.std::_Vector_base<int, std::allocator<int>>::_Vector_impl"* %20 to %"struct.std::_Vector_base<int, std::allocator<int>>::_Vector_impl_data"*, !llfi_index !657
  %22 = load %"class.std::vector"*, %"class.std::vector"** %5, align 8, !llfi_index !658
  %23 = bitcast %"class.std::vector"* %22 to %"struct.std::_Vector_base"*, !llfi_index !659
  %24 = getelementptr inbounds %"struct.std::_Vector_base", %"struct.std::_Vector_base"* %23, i32 0, i32 0, !llfi_index !660
  %25 = bitcast %"struct.std::_Vector_base<int, std::allocator<int>>::_Vector_impl"* %24 to %"struct.std::_Vector_base<int, std::allocator<int>>::_Vector_impl_data"*, !llfi_index !661
  call void @_ZNSt12_Vector_baseIiSaIiEE17_Vector_impl_data12_M_swap_dataERS2_(%"struct.std::_Vector_base<int, std::allocator<int>>::_Vector_impl_data"* nonnull align 8 dereferenceable(24) %21, %"struct.std::_Vector_base<int, std::allocator<int>>::_Vector_impl_data"* nonnull align 8 dereferenceable(24) %25) #2, !llfi_index !662
  %26 = bitcast %"class.std::vector"* %10 to %"struct.std::_Vector_base"*, !llfi_index !663
  %27 = call nonnull align 1 dereferenceable(1) %"struct.std::less"* @_ZNSt12_Vector_baseIiSaIiEE19_M_get_Tp_allocatorEv(%"struct.std::_Vector_base"* nonnull align 8 dereferenceable(24) %26) #2, !llfi_index !664
  %28 = load %"class.std::vector"*, %"class.std::vector"** %5, align 8, !llfi_index !665
  %29 = bitcast %"class.std::vector"* %28 to %"struct.std::_Vector_base"*, !llfi_index !666
  %30 = call nonnull align 1 dereferenceable(1) %"struct.std::less"* @_ZNSt12_Vector_baseIiSaIiEE19_M_get_Tp_allocatorEv(%"struct.std::_Vector_base"* nonnull align 8 dereferenceable(24) %29) #2, !llfi_index !667
  invoke void @_ZSt15__alloc_on_moveISaIiEEvRT_S2_(%"struct.std::less"* nonnull align 1 dereferenceable(1) %27, %"struct.std::less"* nonnull align 1 dereferenceable(1) %30)
          to label %31 unwind label %32, !llfi_index !668

31:                                               ; preds = %2
  call void @_ZNSt6vectorIiSaIiEED2Ev(%"class.std::vector"* nonnull align 8 dereferenceable(24) %6) #2, !llfi_index !669
  ret void, !llfi_index !670

32:                                               ; preds = %2
  %33 = landingpad { i8*, i32 }
          catch i8* null, !llfi_index !671
  %34 = extractvalue { i8*, i32 } %33, 0, !llfi_index !672
  store i8* %34, i8** %8, align 8, !llfi_index !673
  %35 = extractvalue { i8*, i32 } %33, 1, !llfi_index !674
  store i32 %35, i32* %9, align 4, !llfi_index !675
  call void @_ZNSt6vectorIiSaIiEED2Ev(%"class.std::vector"* nonnull align 8 dereferenceable(24) %6) #2, !llfi_index !676
  br label %36, !llfi_index !677

36:                                               ; preds = %32
  %37 = load i8*, i8** %8, align 8, !llfi_index !678
  call void @__clang_call_terminate(i8* %37) #16, !llfi_index !679
  unreachable, !llfi_index !680
}

; Function Attrs: mustprogress noinline nounwind uwtable
define linkonce_odr dso_local void @_ZNKSt12_Vector_baseIiSaIiEE13get_allocatorEv(%"struct.std::less"* noalias sret(%"struct.std::less") align 1 %0, %"struct.std::_Vector_base"* nonnull align 8 dereferenceable(24) %1) #3 comdat align 2 {
  %3 = alloca i8*, align 8, !llfi_index !681
  %4 = alloca %"struct.std::_Vector_base"*, align 8, !llfi_index !682
  %5 = bitcast %"struct.std::less"* %0 to i8*, !llfi_index !683
  store i8* %5, i8** %3, align 8, !llfi_index !684
  store %"struct.std::_Vector_base"* %1, %"struct.std::_Vector_base"** %4, align 8, !llfi_index !685
  %6 = load %"struct.std::_Vector_base"*, %"struct.std::_Vector_base"** %4, align 8, !llfi_index !686
  %7 = call nonnull align 1 dereferenceable(1) %"struct.std::less"* @_ZNKSt12_Vector_baseIiSaIiEE19_M_get_Tp_allocatorEv(%"struct.std::_Vector_base"* nonnull align 8 dereferenceable(24) %6) #2, !llfi_index !687
  call void @_ZNSaIiEC2ERKS_(%"struct.std::less"* nonnull align 1 dereferenceable(1) %0, %"struct.std::less"* nonnull align 1 dereferenceable(1) %7) #2, !llfi_index !688
  ret void, !llfi_index !689
}

; Function Attrs: noinline nounwind uwtable
define linkonce_odr dso_local void @_ZNSt6vectorIiSaIiEEC2ERKS0_(%"class.std::vector"* nonnull align 8 dereferenceable(24) %0, %"struct.std::less"* nonnull align 1 dereferenceable(1) %1) unnamed_addr #1 comdat align 2 {
  %3 = alloca %"class.std::vector"*, align 8, !llfi_index !690
  %4 = alloca %"struct.std::less"*, align 8, !llfi_index !691
  store %"class.std::vector"* %0, %"class.std::vector"** %3, align 8, !llfi_index !692
  store %"struct.std::less"* %1, %"struct.std::less"** %4, align 8, !llfi_index !693
  %5 = load %"class.std::vector"*, %"class.std::vector"** %3, align 8, !llfi_index !694
  %6 = bitcast %"class.std::vector"* %5 to %"struct.std::_Vector_base"*, !llfi_index !695
  %7 = load %"struct.std::less"*, %"struct.std::less"** %4, align 8, !llfi_index !696
  call void @_ZNSt12_Vector_baseIiSaIiEEC2ERKS0_(%"struct.std::_Vector_base"* nonnull align 8 dereferenceable(24) %6, %"struct.std::less"* nonnull align 1 dereferenceable(1) %7) #2, !llfi_index !697
  ret void, !llfi_index !698
}

; Function Attrs: mustprogress noinline nounwind uwtable
define linkonce_odr dso_local void @_ZNSt12_Vector_baseIiSaIiEE17_Vector_impl_data12_M_swap_dataERS2_(%"struct.std::_Vector_base<int, std::allocator<int>>::_Vector_impl_data"* nonnull align 8 dereferenceable(24) %0, %"struct.std::_Vector_base<int, std::allocator<int>>::_Vector_impl_data"* nonnull align 8 dereferenceable(24) %1) #3 comdat align 2 {
  %3 = alloca %"struct.std::_Vector_base<int, std::allocator<int>>::_Vector_impl_data"*, align 8, !llfi_index !699
  %4 = alloca %"struct.std::_Vector_base<int, std::allocator<int>>::_Vector_impl_data"*, align 8, !llfi_index !700
  %5 = alloca %"struct.std::_Vector_base<int, std::allocator<int>>::_Vector_impl_data", align 8, !llfi_index !701
  store %"struct.std::_Vector_base<int, std::allocator<int>>::_Vector_impl_data"* %0, %"struct.std::_Vector_base<int, std::allocator<int>>::_Vector_impl_data"** %3, align 8, !llfi_index !702
  store %"struct.std::_Vector_base<int, std::allocator<int>>::_Vector_impl_data"* %1, %"struct.std::_Vector_base<int, std::allocator<int>>::_Vector_impl_data"** %4, align 8, !llfi_index !703
  %6 = load %"struct.std::_Vector_base<int, std::allocator<int>>::_Vector_impl_data"*, %"struct.std::_Vector_base<int, std::allocator<int>>::_Vector_impl_data"** %3, align 8, !llfi_index !704
  call void @_ZNSt12_Vector_baseIiSaIiEE17_Vector_impl_dataC2Ev(%"struct.std::_Vector_base<int, std::allocator<int>>::_Vector_impl_data"* nonnull align 8 dereferenceable(24) %5) #2, !llfi_index !705
  call void @_ZNSt12_Vector_baseIiSaIiEE17_Vector_impl_data12_M_copy_dataERKS2_(%"struct.std::_Vector_base<int, std::allocator<int>>::_Vector_impl_data"* nonnull align 8 dereferenceable(24) %5, %"struct.std::_Vector_base<int, std::allocator<int>>::_Vector_impl_data"* nonnull align 8 dereferenceable(24) %6) #2, !llfi_index !706
  %7 = load %"struct.std::_Vector_base<int, std::allocator<int>>::_Vector_impl_data"*, %"struct.std::_Vector_base<int, std::allocator<int>>::_Vector_impl_data"** %4, align 8, !llfi_index !707
  call void @_ZNSt12_Vector_baseIiSaIiEE17_Vector_impl_data12_M_copy_dataERKS2_(%"struct.std::_Vector_base<int, std::allocator<int>>::_Vector_impl_data"* nonnull align 8 dereferenceable(24) %6, %"struct.std::_Vector_base<int, std::allocator<int>>::_Vector_impl_data"* nonnull align 8 dereferenceable(24) %7) #2, !llfi_index !708
  %8 = load %"struct.std::_Vector_base<int, std::allocator<int>>::_Vector_impl_data"*, %"struct.std::_Vector_base<int, std::allocator<int>>::_Vector_impl_data"** %4, align 8, !llfi_index !709
  call void @_ZNSt12_Vector_baseIiSaIiEE17_Vector_impl_data12_M_copy_dataERKS2_(%"struct.std::_Vector_base<int, std::allocator<int>>::_Vector_impl_data"* nonnull align 8 dereferenceable(24) %8, %"struct.std::_Vector_base<int, std::allocator<int>>::_Vector_impl_data"* nonnull align 8 dereferenceable(24) %5) #2, !llfi_index !710
  ret void, !llfi_index !711
}

; Function Attrs: mustprogress noinline uwtable
define linkonce_odr dso_local void @_ZSt15__alloc_on_moveISaIiEEvRT_S2_(%"struct.std::less"* nonnull align 1 dereferenceable(1) %0, %"struct.std::less"* nonnull align 1 dereferenceable(1) %1) #4 comdat {
  %3 = alloca %"struct.std::less"*, align 8, !llfi_index !712
  %4 = alloca %"struct.std::less"*, align 8, !llfi_index !713
  %5 = alloca %"struct.std::less", align 1, !llfi_index !714
  store %"struct.std::less"* %0, %"struct.std::less"** %3, align 8, !llfi_index !715
  store %"struct.std::less"* %1, %"struct.std::less"** %4, align 8, !llfi_index !716
  %6 = load %"struct.std::less"*, %"struct.std::less"** %3, align 8, !llfi_index !717
  %7 = load %"struct.std::less"*, %"struct.std::less"** %4, align 8, !llfi_index !718
  call void @_ZSt18__do_alloc_on_moveISaIiEEvRT_S2_St17integral_constantIbLb1EE(%"struct.std::less"* nonnull align 1 dereferenceable(1) %6, %"struct.std::less"* nonnull align 1 dereferenceable(1) %7), !llfi_index !719
  ret void, !llfi_index !720
}

; Function Attrs: mustprogress noinline nounwind uwtable
define linkonce_odr dso_local void @_ZSt18__do_alloc_on_moveISaIiEEvRT_S2_St17integral_constantIbLb1EE(%"struct.std::less"* nonnull align 1 dereferenceable(1) %0, %"struct.std::less"* nonnull align 1 dereferenceable(1) %1) #3 comdat {
  %3 = alloca %"struct.std::less", align 1, !llfi_index !721
  %4 = alloca %"struct.std::less"*, align 8, !llfi_index !722
  %5 = alloca %"struct.std::less"*, align 8, !llfi_index !723
  store %"struct.std::less"* %0, %"struct.std::less"** %4, align 8, !llfi_index !724
  store %"struct.std::less"* %1, %"struct.std::less"** %5, align 8, !llfi_index !725
  %6 = load %"struct.std::less"*, %"struct.std::less"** %5, align 8, !llfi_index !726
  %7 = call nonnull align 1 dereferenceable(1) %"struct.std::less"* @_ZSt4moveIRSaIiEEONSt16remove_referenceIT_E4typeEOS3_(%"struct.std::less"* nonnull align 1 dereferenceable(1) %6) #2, !llfi_index !727
  %8 = load %"struct.std::less"*, %"struct.std::less"** %4, align 8, !llfi_index !728
  ret void, !llfi_index !729
}

; Function Attrs: mustprogress noinline nounwind uwtable
define linkonce_odr dso_local nonnull align 1 dereferenceable(1) %"struct.std::less"* @_ZSt4moveIRSaIiEEONSt16remove_referenceIT_E4typeEOS3_(%"struct.std::less"* nonnull align 1 dereferenceable(1) %0) #3 comdat {
  %2 = alloca %"struct.std::less"*, align 8, !llfi_index !730
  store %"struct.std::less"* %0, %"struct.std::less"** %2, align 8, !llfi_index !731
  %3 = load %"struct.std::less"*, %"struct.std::less"** %2, align 8, !llfi_index !732
  ret %"struct.std::less"* %3, !llfi_index !733
}

; Function Attrs: mustprogress noinline nounwind uwtable
define linkonce_odr dso_local void @_ZNSt12_Vector_baseIiSaIiEE17_Vector_impl_data12_M_copy_dataERKS2_(%"struct.std::_Vector_base<int, std::allocator<int>>::_Vector_impl_data"* nonnull align 8 dereferenceable(24) %0, %"struct.std::_Vector_base<int, std::allocator<int>>::_Vector_impl_data"* nonnull align 8 dereferenceable(24) %1) #3 comdat align 2 {
  %3 = alloca %"struct.std::_Vector_base<int, std::allocator<int>>::_Vector_impl_data"*, align 8, !llfi_index !734
  %4 = alloca %"struct.std::_Vector_base<int, std::allocator<int>>::_Vector_impl_data"*, align 8, !llfi_index !735
  store %"struct.std::_Vector_base<int, std::allocator<int>>::_Vector_impl_data"* %0, %"struct.std::_Vector_base<int, std::allocator<int>>::_Vector_impl_data"** %3, align 8, !llfi_index !736
  store %"struct.std::_Vector_base<int, std::allocator<int>>::_Vector_impl_data"* %1, %"struct.std::_Vector_base<int, std::allocator<int>>::_Vector_impl_data"** %4, align 8, !llfi_index !737
  %5 = load %"struct.std::_Vector_base<int, std::allocator<int>>::_Vector_impl_data"*, %"struct.std::_Vector_base<int, std::allocator<int>>::_Vector_impl_data"** %3, align 8, !llfi_index !738
  %6 = load %"struct.std::_Vector_base<int, std::allocator<int>>::_Vector_impl_data"*, %"struct.std::_Vector_base<int, std::allocator<int>>::_Vector_impl_data"** %4, align 8, !llfi_index !739
  %7 = getelementptr inbounds %"struct.std::_Vector_base<int, std::allocator<int>>::_Vector_impl_data", %"struct.std::_Vector_base<int, std::allocator<int>>::_Vector_impl_data"* %6, i32 0, i32 0, !llfi_index !740
  %8 = load i32*, i32** %7, align 8, !llfi_index !741
  %9 = getelementptr inbounds %"struct.std::_Vector_base<int, std::allocator<int>>::_Vector_impl_data", %"struct.std::_Vector_base<int, std::allocator<int>>::_Vector_impl_data"* %5, i32 0, i32 0, !llfi_index !742
  store i32* %8, i32** %9, align 8, !llfi_index !743
  %10 = load %"struct.std::_Vector_base<int, std::allocator<int>>::_Vector_impl_data"*, %"struct.std::_Vector_base<int, std::allocator<int>>::_Vector_impl_data"** %4, align 8, !llfi_index !744
  %11 = getelementptr inbounds %"struct.std::_Vector_base<int, std::allocator<int>>::_Vector_impl_data", %"struct.std::_Vector_base<int, std::allocator<int>>::_Vector_impl_data"* %10, i32 0, i32 1, !llfi_index !745
  %12 = load i32*, i32** %11, align 8, !llfi_index !746
  %13 = getelementptr inbounds %"struct.std::_Vector_base<int, std::allocator<int>>::_Vector_impl_data", %"struct.std::_Vector_base<int, std::allocator<int>>::_Vector_impl_data"* %5, i32 0, i32 1, !llfi_index !747
  store i32* %12, i32** %13, align 8, !llfi_index !748
  %14 = load %"struct.std::_Vector_base<int, std::allocator<int>>::_Vector_impl_data"*, %"struct.std::_Vector_base<int, std::allocator<int>>::_Vector_impl_data"** %4, align 8, !llfi_index !749
  %15 = getelementptr inbounds %"struct.std::_Vector_base<int, std::allocator<int>>::_Vector_impl_data", %"struct.std::_Vector_base<int, std::allocator<int>>::_Vector_impl_data"* %14, i32 0, i32 2, !llfi_index !750
  %16 = load i32*, i32** %15, align 8, !llfi_index !751
  %17 = getelementptr inbounds %"struct.std::_Vector_base<int, std::allocator<int>>::_Vector_impl_data", %"struct.std::_Vector_base<int, std::allocator<int>>::_Vector_impl_data"* %5, i32 0, i32 2, !llfi_index !752
  store i32* %16, i32** %17, align 8, !llfi_index !753
  ret void, !llfi_index !754
}

; Function Attrs: noinline nounwind uwtable
define linkonce_odr dso_local void @_ZNSt12_Vector_baseIiSaIiEEC2ERKS0_(%"struct.std::_Vector_base"* nonnull align 8 dereferenceable(24) %0, %"struct.std::less"* nonnull align 1 dereferenceable(1) %1) unnamed_addr #1 comdat align 2 {
  %3 = alloca %"struct.std::_Vector_base"*, align 8, !llfi_index !755
  %4 = alloca %"struct.std::less"*, align 8, !llfi_index !756
  store %"struct.std::_Vector_base"* %0, %"struct.std::_Vector_base"** %3, align 8, !llfi_index !757
  store %"struct.std::less"* %1, %"struct.std::less"** %4, align 8, !llfi_index !758
  %5 = load %"struct.std::_Vector_base"*, %"struct.std::_Vector_base"** %3, align 8, !llfi_index !759
  %6 = getelementptr inbounds %"struct.std::_Vector_base", %"struct.std::_Vector_base"* %5, i32 0, i32 0, !llfi_index !760
  %7 = load %"struct.std::less"*, %"struct.std::less"** %4, align 8, !llfi_index !761
  call void @_ZNSt12_Vector_baseIiSaIiEE12_Vector_implC2ERKS0_(%"struct.std::_Vector_base<int, std::allocator<int>>::_Vector_impl"* nonnull align 8 dereferenceable(24) %6, %"struct.std::less"* nonnull align 1 dereferenceable(1) %7) #2, !llfi_index !762
  ret void, !llfi_index !763
}

; Function Attrs: noinline nounwind uwtable
define linkonce_odr dso_local void @_ZNSt12_Vector_baseIiSaIiEE12_Vector_implC2ERKS0_(%"struct.std::_Vector_base<int, std::allocator<int>>::_Vector_impl"* nonnull align 8 dereferenceable(24) %0, %"struct.std::less"* nonnull align 1 dereferenceable(1) %1) unnamed_addr #1 comdat align 2 {
  %3 = alloca %"struct.std::_Vector_base<int, std::allocator<int>>::_Vector_impl"*, align 8, !llfi_index !764
  %4 = alloca %"struct.std::less"*, align 8, !llfi_index !765
  store %"struct.std::_Vector_base<int, std::allocator<int>>::_Vector_impl"* %0, %"struct.std::_Vector_base<int, std::allocator<int>>::_Vector_impl"** %3, align 8, !llfi_index !766
  store %"struct.std::less"* %1, %"struct.std::less"** %4, align 8, !llfi_index !767
  %5 = load %"struct.std::_Vector_base<int, std::allocator<int>>::_Vector_impl"*, %"struct.std::_Vector_base<int, std::allocator<int>>::_Vector_impl"** %3, align 8, !llfi_index !768
  %6 = bitcast %"struct.std::_Vector_base<int, std::allocator<int>>::_Vector_impl"* %5 to %"struct.std::less"*, !llfi_index !769
  %7 = load %"struct.std::less"*, %"struct.std::less"** %4, align 8, !llfi_index !770
  call void @_ZNSaIiEC2ERKS_(%"struct.std::less"* nonnull align 1 dereferenceable(1) %6, %"struct.std::less"* nonnull align 1 dereferenceable(1) %7) #2, !llfi_index !771
  %8 = bitcast %"struct.std::_Vector_base<int, std::allocator<int>>::_Vector_impl"* %5 to %"struct.std::_Vector_base<int, std::allocator<int>>::_Vector_impl_data"*, !llfi_index !772
  call void @_ZNSt12_Vector_baseIiSaIiEE17_Vector_impl_dataC2Ev(%"struct.std::_Vector_base<int, std::allocator<int>>::_Vector_impl_data"* nonnull align 8 dereferenceable(24) %8) #2, !llfi_index !773
  ret void, !llfi_index !774
}

; Function Attrs: noinline nounwind uwtable
define linkonce_odr dso_local void @_ZNSaIiEC2ERKS_(%"struct.std::less"* nonnull align 1 dereferenceable(1) %0, %"struct.std::less"* nonnull align 1 dereferenceable(1) %1) unnamed_addr #1 comdat align 2 {
  %3 = alloca %"struct.std::less"*, align 8, !llfi_index !775
  %4 = alloca %"struct.std::less"*, align 8, !llfi_index !776
  store %"struct.std::less"* %0, %"struct.std::less"** %3, align 8, !llfi_index !777
  store %"struct.std::less"* %1, %"struct.std::less"** %4, align 8, !llfi_index !778
  %5 = load %"struct.std::less"*, %"struct.std::less"** %3, align 8, !llfi_index !779
  %6 = bitcast %"struct.std::less"* %5 to %"struct.std::less"*, !llfi_index !780
  %7 = load %"struct.std::less"*, %"struct.std::less"** %4, align 8, !llfi_index !781
  %8 = bitcast %"struct.std::less"* %7 to %"struct.std::less"*, !llfi_index !782
  call void @_ZN9__gnu_cxx13new_allocatorIiEC2ERKS1_(%"struct.std::less"* nonnull align 1 dereferenceable(1) %6, %"struct.std::less"* nonnull align 1 dereferenceable(1) %8) #2, !llfi_index !783
  ret void, !llfi_index !784
}

; Function Attrs: noinline nounwind uwtable
define linkonce_odr dso_local void @_ZN9__gnu_cxx13new_allocatorIiEC2ERKS1_(%"struct.std::less"* nonnull align 1 dereferenceable(1) %0, %"struct.std::less"* nonnull align 1 dereferenceable(1) %1) unnamed_addr #1 comdat align 2 {
  %3 = alloca %"struct.std::less"*, align 8, !llfi_index !785
  %4 = alloca %"struct.std::less"*, align 8, !llfi_index !786
  store %"struct.std::less"* %0, %"struct.std::less"** %3, align 8, !llfi_index !787
  store %"struct.std::less"* %1, %"struct.std::less"** %4, align 8, !llfi_index !788
  %5 = load %"struct.std::less"*, %"struct.std::less"** %3, align 8, !llfi_index !789
  ret void, !llfi_index !790
}

; Function Attrs: mustprogress noinline nounwind uwtable
define linkonce_odr dso_local nonnull align 1 dereferenceable(1) %"struct.std::less"* @_ZNKSt12_Vector_baseIiSaIiEE19_M_get_Tp_allocatorEv(%"struct.std::_Vector_base"* nonnull align 8 dereferenceable(24) %0) #3 comdat align 2 {
  %2 = alloca %"struct.std::_Vector_base"*, align 8, !llfi_index !791
  store %"struct.std::_Vector_base"* %0, %"struct.std::_Vector_base"** %2, align 8, !llfi_index !792
  %3 = load %"struct.std::_Vector_base"*, %"struct.std::_Vector_base"** %2, align 8, !llfi_index !793
  %4 = getelementptr inbounds %"struct.std::_Vector_base", %"struct.std::_Vector_base"* %3, i32 0, i32 0, !llfi_index !794
  %5 = bitcast %"struct.std::_Vector_base<int, std::allocator<int>>::_Vector_impl"* %4 to %"struct.std::less"*, !llfi_index !795
  ret %"struct.std::less"* %5, !llfi_index !796
}

; Function Attrs: mustprogress noinline uwtable
define linkonce_odr dso_local i64 @_ZNSt6vectorIiSaIiEE17_S_check_init_lenEmRKS0_(i64 %0, %"struct.std::less"* nonnull align 1 dereferenceable(1) %1) #4 comdat align 2 {
  %3 = alloca i64, align 8, !llfi_index !797
  %4 = alloca %"struct.std::less"*, align 8, !llfi_index !798
  %5 = alloca %"struct.std::less", align 1, !llfi_index !799
  store i64 %0, i64* %3, align 8, !llfi_index !800
  store %"struct.std::less"* %1, %"struct.std::less"** %4, align 8, !llfi_index !801
  %6 = load i64, i64* %3, align 8, !llfi_index !802
  %7 = load %"struct.std::less"*, %"struct.std::less"** %4, align 8, !llfi_index !803
  call void @_ZNSaIiEC2ERKS_(%"struct.std::less"* nonnull align 1 dereferenceable(1) %5, %"struct.std::less"* nonnull align 1 dereferenceable(1) %7) #2, !llfi_index !804
  %8 = call i64 @_ZNSt6vectorIiSaIiEE11_S_max_sizeERKS0_(%"struct.std::less"* nonnull align 1 dereferenceable(1) %5) #2, !llfi_index !805
  %9 = icmp ugt i64 %6, %8, !llfi_index !806
  call void @_ZNSaIiED2Ev(%"struct.std::less"* nonnull align 1 dereferenceable(1) %5) #2, !llfi_index !807
  br i1 %9, label %10, label %11, !llfi_index !808

10:                                               ; preds = %2
  call void @_ZSt20__throw_length_errorPKc(i8* getelementptr inbounds ([49 x i8], [49 x i8]* @.str, i64 0, i64 0)) #17, !llfi_index !809
  unreachable, !llfi_index !810

11:                                               ; preds = %2
  %12 = load i64, i64* %3, align 8, !llfi_index !811
  ret i64 %12, !llfi_index !812
}

; Function Attrs: noinline uwtable
define linkonce_odr dso_local void @_ZNSt12_Vector_baseIiSaIiEEC2EmRKS0_(%"struct.std::_Vector_base"* nonnull align 8 dereferenceable(24) %0, i64 %1, %"struct.std::less"* nonnull align 1 dereferenceable(1) %2) unnamed_addr #0 comdat align 2 personality i8* bitcast (i32 (...)* @__gxx_personality_v0 to i8*) {
  %4 = alloca %"struct.std::_Vector_base"*, align 8, !llfi_index !813
  %5 = alloca i64, align 8, !llfi_index !814
  %6 = alloca %"struct.std::less"*, align 8, !llfi_index !815
  %7 = alloca i8*, align 8, !llfi_index !816
  %8 = alloca i32, align 4, !llfi_index !817
  store %"struct.std::_Vector_base"* %0, %"struct.std::_Vector_base"** %4, align 8, !llfi_index !818
  store i64 %1, i64* %5, align 8, !llfi_index !819
  store %"struct.std::less"* %2, %"struct.std::less"** %6, align 8, !llfi_index !820
  %9 = load %"struct.std::_Vector_base"*, %"struct.std::_Vector_base"** %4, align 8, !llfi_index !821
  %10 = getelementptr inbounds %"struct.std::_Vector_base", %"struct.std::_Vector_base"* %9, i32 0, i32 0, !llfi_index !822
  %11 = load %"struct.std::less"*, %"struct.std::less"** %6, align 8, !llfi_index !823
  call void @_ZNSt12_Vector_baseIiSaIiEE12_Vector_implC2ERKS0_(%"struct.std::_Vector_base<int, std::allocator<int>>::_Vector_impl"* nonnull align 8 dereferenceable(24) %10, %"struct.std::less"* nonnull align 1 dereferenceable(1) %11) #2, !llfi_index !824
  %12 = load i64, i64* %5, align 8, !llfi_index !825
  invoke void @_ZNSt12_Vector_baseIiSaIiEE17_M_create_storageEm(%"struct.std::_Vector_base"* nonnull align 8 dereferenceable(24) %9, i64 %12)
          to label %13 unwind label %14, !llfi_index !826

13:                                               ; preds = %3
  ret void, !llfi_index !827

14:                                               ; preds = %3
  %15 = landingpad { i8*, i32 }
          cleanup, !llfi_index !828
  %16 = extractvalue { i8*, i32 } %15, 0, !llfi_index !829
  store i8* %16, i8** %7, align 8, !llfi_index !830
  %17 = extractvalue { i8*, i32 } %15, 1, !llfi_index !831
  store i32 %17, i32* %8, align 4, !llfi_index !832
  call void @_ZNSt12_Vector_baseIiSaIiEE12_Vector_implD2Ev(%"struct.std::_Vector_base<int, std::allocator<int>>::_Vector_impl"* nonnull align 8 dereferenceable(24) %10) #2, !llfi_index !833
  br label %18, !llfi_index !834

18:                                               ; preds = %14
  %19 = load i8*, i8** %7, align 8, !llfi_index !835
  %20 = load i32, i32* %8, align 4, !llfi_index !836
  %21 = insertvalue { i8*, i32 } undef, i8* %19, 0, !llfi_index !837
  %22 = insertvalue { i8*, i32 } %21, i32 %20, 1, !llfi_index !838
  resume { i8*, i32 } %22, !llfi_index !839
}

; Function Attrs: mustprogress noinline uwtable
define linkonce_odr dso_local void @_ZNSt6vectorIiSaIiEE18_M_fill_initializeEmRKi(%"class.std::vector"* nonnull align 8 dereferenceable(24) %0, i64 %1, i32* nonnull align 4 dereferenceable(4) %2) #4 comdat align 2 {
  %4 = alloca %"class.std::vector"*, align 8, !llfi_index !840
  %5 = alloca i64, align 8, !llfi_index !841
  %6 = alloca i32*, align 8, !llfi_index !842
  store %"class.std::vector"* %0, %"class.std::vector"** %4, align 8, !llfi_index !843
  store i64 %1, i64* %5, align 8, !llfi_index !844
  store i32* %2, i32** %6, align 8, !llfi_index !845
  %7 = load %"class.std::vector"*, %"class.std::vector"** %4, align 8, !llfi_index !846
  %8 = bitcast %"class.std::vector"* %7 to %"struct.std::_Vector_base"*, !llfi_index !847
  %9 = getelementptr inbounds %"struct.std::_Vector_base", %"struct.std::_Vector_base"* %8, i32 0, i32 0, !llfi_index !848
  %10 = bitcast %"struct.std::_Vector_base<int, std::allocator<int>>::_Vector_impl"* %9 to %"struct.std::_Vector_base<int, std::allocator<int>>::_Vector_impl_data"*, !llfi_index !849
  %11 = getelementptr inbounds %"struct.std::_Vector_base<int, std::allocator<int>>::_Vector_impl_data", %"struct.std::_Vector_base<int, std::allocator<int>>::_Vector_impl_data"* %10, i32 0, i32 0, !llfi_index !850
  %12 = load i32*, i32** %11, align 8, !llfi_index !851
  %13 = load i64, i64* %5, align 8, !llfi_index !852
  %14 = load i32*, i32** %6, align 8, !llfi_index !853
  %15 = bitcast %"class.std::vector"* %7 to %"struct.std::_Vector_base"*, !llfi_index !854
  %16 = call nonnull align 1 dereferenceable(1) %"struct.std::less"* @_ZNSt12_Vector_baseIiSaIiEE19_M_get_Tp_allocatorEv(%"struct.std::_Vector_base"* nonnull align 8 dereferenceable(24) %15) #2, !llfi_index !855
  %17 = call i32* @_ZSt24__uninitialized_fill_n_aIPimiiET_S1_T0_RKT1_RSaIT2_E(i32* %12, i64 %13, i32* nonnull align 4 dereferenceable(4) %14, %"struct.std::less"* nonnull align 1 dereferenceable(1) %16), !llfi_index !856
  %18 = bitcast %"class.std::vector"* %7 to %"struct.std::_Vector_base"*, !llfi_index !857
  %19 = getelementptr inbounds %"struct.std::_Vector_base", %"struct.std::_Vector_base"* %18, i32 0, i32 0, !llfi_index !858
  %20 = bitcast %"struct.std::_Vector_base<int, std::allocator<int>>::_Vector_impl"* %19 to %"struct.std::_Vector_base<int, std::allocator<int>>::_Vector_impl_data"*, !llfi_index !859
  %21 = getelementptr inbounds %"struct.std::_Vector_base<int, std::allocator<int>>::_Vector_impl_data", %"struct.std::_Vector_base<int, std::allocator<int>>::_Vector_impl_data"* %20, i32 0, i32 1, !llfi_index !860
  store i32* %17, i32** %21, align 8, !llfi_index !861
  ret void, !llfi_index !862
}

; Function Attrs: mustprogress noinline uwtable
define linkonce_odr dso_local i32* @_ZSt24__uninitialized_fill_n_aIPimiiET_S1_T0_RKT1_RSaIT2_E(i32* %0, i64 %1, i32* nonnull align 4 dereferenceable(4) %2, %"struct.std::less"* nonnull align 1 dereferenceable(1) %3) #4 comdat {
  %5 = alloca i32*, align 8, !llfi_index !863
  %6 = alloca i64, align 8, !llfi_index !864
  %7 = alloca i32*, align 8, !llfi_index !865
  %8 = alloca %"struct.std::less"*, align 8, !llfi_index !866
  store i32* %0, i32** %5, align 8, !llfi_index !867
  store i64 %1, i64* %6, align 8, !llfi_index !868
  store i32* %2, i32** %7, align 8, !llfi_index !869
  store %"struct.std::less"* %3, %"struct.std::less"** %8, align 8, !llfi_index !870
  %9 = load i32*, i32** %5, align 8, !llfi_index !871
  %10 = load i64, i64* %6, align 8, !llfi_index !872
  %11 = load i32*, i32** %7, align 8, !llfi_index !873
  %12 = call i32* @_ZSt20uninitialized_fill_nIPimiET_S1_T0_RKT1_(i32* %9, i64 %10, i32* nonnull align 4 dereferenceable(4) %11), !llfi_index !874
  ret i32* %12, !llfi_index !875
}

; Function Attrs: mustprogress noinline uwtable
define linkonce_odr dso_local i32* @_ZSt20uninitialized_fill_nIPimiET_S1_T0_RKT1_(i32* %0, i64 %1, i32* nonnull align 4 dereferenceable(4) %2) #4 comdat {
  %4 = alloca i32*, align 8, !llfi_index !876
  %5 = alloca i64, align 8, !llfi_index !877
  %6 = alloca i32*, align 8, !llfi_index !878
  %7 = alloca i8, align 1, !llfi_index !879
  store i32* %0, i32** %4, align 8, !llfi_index !880
  store i64 %1, i64* %5, align 8, !llfi_index !881
  store i32* %2, i32** %6, align 8, !llfi_index !882
  store i8 1, i8* %7, align 1, !llfi_index !883
  %8 = load i32*, i32** %4, align 8, !llfi_index !884
  %9 = load i64, i64* %5, align 8, !llfi_index !885
  %10 = load i32*, i32** %6, align 8, !llfi_index !886
  %11 = call i32* @_ZNSt22__uninitialized_fill_nILb1EE15__uninit_fill_nIPimiEET_S3_T0_RKT1_(i32* %8, i64 %9, i32* nonnull align 4 dereferenceable(4) %10), !llfi_index !887
  ret i32* %11, !llfi_index !888
}

; Function Attrs: mustprogress noinline uwtable
define linkonce_odr dso_local i32* @_ZNSt22__uninitialized_fill_nILb1EE15__uninit_fill_nIPimiEET_S3_T0_RKT1_(i32* %0, i64 %1, i32* nonnull align 4 dereferenceable(4) %2) #4 comdat align 2 {
  %4 = alloca i32*, align 8, !llfi_index !889
  %5 = alloca i64, align 8, !llfi_index !890
  %6 = alloca i32*, align 8, !llfi_index !891
  store i32* %0, i32** %4, align 8, !llfi_index !892
  store i64 %1, i64* %5, align 8, !llfi_index !893
  store i32* %2, i32** %6, align 8, !llfi_index !894
  %7 = load i32*, i32** %4, align 8, !llfi_index !895
  %8 = load i64, i64* %5, align 8, !llfi_index !896
  %9 = load i32*, i32** %6, align 8, !llfi_index !897
  %10 = call i32* @_ZSt6fill_nIPimiET_S1_T0_RKT1_(i32* %7, i64 %8, i32* nonnull align 4 dereferenceable(4) %9), !llfi_index !898
  ret i32* %10, !llfi_index !899
}

; Function Attrs: mustprogress noinline uwtable
define linkonce_odr dso_local i32* @_ZSt6fill_nIPimiET_S1_T0_RKT1_(i32* %0, i64 %1, i32* nonnull align 4 dereferenceable(4) %2) #4 comdat {
  %4 = alloca i32*, align 8, !llfi_index !900
  %5 = alloca i64, align 8, !llfi_index !901
  %6 = alloca i32*, align 8, !llfi_index !902
  store i32* %0, i32** %4, align 8, !llfi_index !903
  store i64 %1, i64* %5, align 8, !llfi_index !904
  store i32* %2, i32** %6, align 8, !llfi_index !905
  %7 = load i32*, i32** %4, align 8, !llfi_index !906
  %8 = call i32* @_ZSt12__niter_baseIPiET_S1_(i32* %7) #2, !llfi_index !907
  %9 = load i64, i64* %5, align 8, !llfi_index !908
  %10 = load i32*, i32** %6, align 8, !llfi_index !909
  %11 = call i32* @_ZSt10__fill_n_aIPimiEN9__gnu_cxx11__enable_ifIXsr11__is_scalarIT1_EE7__valueET_E6__typeES4_T0_RKS3_(i32* %8, i64 %9, i32* nonnull align 4 dereferenceable(4) %10), !llfi_index !910
  %12 = call i32* @_ZSt12__niter_wrapIPiET_RKS1_S1_(i32** nonnull align 8 dereferenceable(8) %4, i32* %11), !llfi_index !911
  ret i32* %12, !llfi_index !912
}

; Function Attrs: mustprogress noinline nounwind uwtable
define linkonce_odr dso_local i32* @_ZSt12__niter_baseIPiET_S1_(i32* %0) #3 comdat {
  %2 = alloca i32*, align 8, !llfi_index !913
  store i32* %0, i32** %2, align 8, !llfi_index !914
  %3 = load i32*, i32** %2, align 8, !llfi_index !915
  ret i32* %3, !llfi_index !916
}

; Function Attrs: mustprogress noinline nounwind uwtable
define linkonce_odr dso_local i32* @_ZSt10__fill_n_aIPimiEN9__gnu_cxx11__enable_ifIXsr11__is_scalarIT1_EE7__valueET_E6__typeES4_T0_RKS3_(i32* %0, i64 %1, i32* nonnull align 4 dereferenceable(4) %2) #3 comdat {
  %4 = alloca i32*, align 8, !llfi_index !917
  %5 = alloca i64, align 8, !llfi_index !918
  %6 = alloca i32*, align 8, !llfi_index !919
  %7 = alloca i32, align 4, !llfi_index !920
  %8 = alloca i64, align 8, !llfi_index !921
  store i32* %0, i32** %4, align 8, !llfi_index !922
  store i64 %1, i64* %5, align 8, !llfi_index !923
  store i32* %2, i32** %6, align 8, !llfi_index !924
  %9 = load i32*, i32** %6, align 8, !llfi_index !925
  %10 = load i32, i32* %9, align 4, !llfi_index !926
  store i32 %10, i32* %7, align 4, !llfi_index !927
  %11 = load i64, i64* %5, align 8, !llfi_index !928
  store i64 %11, i64* %8, align 8, !llfi_index !929
  br label %12, !llfi_index !930

12:                                               ; preds = %18, %3
  %13 = load i64, i64* %8, align 8, !llfi_index !931
  %14 = icmp ugt i64 %13, 0, !llfi_index !932
  br i1 %14, label %15, label %23, !llfi_index !933

15:                                               ; preds = %12
  %16 = load i32, i32* %7, align 4, !llfi_index !934
  %17 = load i32*, i32** %4, align 8, !llfi_index !935
  store i32 %16, i32* %17, align 4, !llfi_index !936
  br label %18, !llfi_index !937

18:                                               ; preds = %15
  %19 = load i64, i64* %8, align 8, !llfi_index !938
  %20 = add i64 %19, -1, !llfi_index !939
  store i64 %20, i64* %8, align 8, !llfi_index !940
  %21 = load i32*, i32** %4, align 8, !llfi_index !941
  %22 = getelementptr inbounds i32, i32* %21, i32 1, !llfi_index !942
  store i32* %22, i32** %4, align 8, !llfi_index !943
  br label %12, !llvm.loop !944, !llfi_index !945

23:                                               ; preds = %12
  %24 = load i32*, i32** %4, align 8, !llfi_index !946
  ret i32* %24, !llfi_index !947
}

; Function Attrs: mustprogress noinline nounwind uwtable
define linkonce_odr dso_local i32* @_ZSt12__niter_wrapIPiET_RKS1_S1_(i32** nonnull align 8 dereferenceable(8) %0, i32* %1) #3 comdat {
  %3 = alloca i32**, align 8, !llfi_index !948
  %4 = alloca i32*, align 8, !llfi_index !949
  store i32** %0, i32*** %3, align 8, !llfi_index !950
  store i32* %1, i32** %4, align 8, !llfi_index !951
  %5 = load i32*, i32** %4, align 8, !llfi_index !952
  ret i32* %5, !llfi_index !953
}

; Function Attrs: mustprogress noinline uwtable
define linkonce_odr dso_local void @_ZNSt12_Vector_baseIiSaIiEE17_M_create_storageEm(%"struct.std::_Vector_base"* nonnull align 8 dereferenceable(24) %0, i64 %1) #4 comdat align 2 {
  %3 = alloca %"struct.std::_Vector_base"*, align 8, !llfi_index !954
  %4 = alloca i64, align 8, !llfi_index !955
  store %"struct.std::_Vector_base"* %0, %"struct.std::_Vector_base"** %3, align 8, !llfi_index !956
  store i64 %1, i64* %4, align 8, !llfi_index !957
  %5 = load %"struct.std::_Vector_base"*, %"struct.std::_Vector_base"** %3, align 8, !llfi_index !958
  %6 = load i64, i64* %4, align 8, !llfi_index !959
  %7 = call i32* @_ZNSt12_Vector_baseIiSaIiEE11_M_allocateEm(%"struct.std::_Vector_base"* nonnull align 8 dereferenceable(24) %5, i64 %6), !llfi_index !960
  %8 = getelementptr inbounds %"struct.std::_Vector_base", %"struct.std::_Vector_base"* %5, i32 0, i32 0, !llfi_index !961
  %9 = bitcast %"struct.std::_Vector_base<int, std::allocator<int>>::_Vector_impl"* %8 to %"struct.std::_Vector_base<int, std::allocator<int>>::_Vector_impl_data"*, !llfi_index !962
  %10 = getelementptr inbounds %"struct.std::_Vector_base<int, std::allocator<int>>::_Vector_impl_data", %"struct.std::_Vector_base<int, std::allocator<int>>::_Vector_impl_data"* %9, i32 0, i32 0, !llfi_index !963
  store i32* %7, i32** %10, align 8, !llfi_index !964
  %11 = getelementptr inbounds %"struct.std::_Vector_base", %"struct.std::_Vector_base"* %5, i32 0, i32 0, !llfi_index !965
  %12 = bitcast %"struct.std::_Vector_base<int, std::allocator<int>>::_Vector_impl"* %11 to %"struct.std::_Vector_base<int, std::allocator<int>>::_Vector_impl_data"*, !llfi_index !966
  %13 = getelementptr inbounds %"struct.std::_Vector_base<int, std::allocator<int>>::_Vector_impl_data", %"struct.std::_Vector_base<int, std::allocator<int>>::_Vector_impl_data"* %12, i32 0, i32 0, !llfi_index !967
  %14 = load i32*, i32** %13, align 8, !llfi_index !968
  %15 = getelementptr inbounds %"struct.std::_Vector_base", %"struct.std::_Vector_base"* %5, i32 0, i32 0, !llfi_index !969
  %16 = bitcast %"struct.std::_Vector_base<int, std::allocator<int>>::_Vector_impl"* %15 to %"struct.std::_Vector_base<int, std::allocator<int>>::_Vector_impl_data"*, !llfi_index !970
  %17 = getelementptr inbounds %"struct.std::_Vector_base<int, std::allocator<int>>::_Vector_impl_data", %"struct.std::_Vector_base<int, std::allocator<int>>::_Vector_impl_data"* %16, i32 0, i32 1, !llfi_index !971
  store i32* %14, i32** %17, align 8, !llfi_index !972
  %18 = getelementptr inbounds %"struct.std::_Vector_base", %"struct.std::_Vector_base"* %5, i32 0, i32 0, !llfi_index !973
  %19 = bitcast %"struct.std::_Vector_base<int, std::allocator<int>>::_Vector_impl"* %18 to %"struct.std::_Vector_base<int, std::allocator<int>>::_Vector_impl_data"*, !llfi_index !974
  %20 = getelementptr inbounds %"struct.std::_Vector_base<int, std::allocator<int>>::_Vector_impl_data", %"struct.std::_Vector_base<int, std::allocator<int>>::_Vector_impl_data"* %19, i32 0, i32 0, !llfi_index !975
  %21 = load i32*, i32** %20, align 8, !llfi_index !976
  %22 = load i64, i64* %4, align 8, !llfi_index !977
  %23 = getelementptr inbounds i32, i32* %21, i64 %22, !llfi_index !978
  %24 = getelementptr inbounds %"struct.std::_Vector_base", %"struct.std::_Vector_base"* %5, i32 0, i32 0, !llfi_index !979
  %25 = bitcast %"struct.std::_Vector_base<int, std::allocator<int>>::_Vector_impl"* %24 to %"struct.std::_Vector_base<int, std::allocator<int>>::_Vector_impl_data"*, !llfi_index !980
  %26 = getelementptr inbounds %"struct.std::_Vector_base<int, std::allocator<int>>::_Vector_impl_data", %"struct.std::_Vector_base<int, std::allocator<int>>::_Vector_impl_data"* %25, i32 0, i32 2, !llfi_index !981
  store i32* %23, i32** %26, align 8, !llfi_index !982
  ret void, !llfi_index !983
}

; Function Attrs: mustprogress noinline uwtable
define linkonce_odr dso_local i32* @_ZNSt12_Vector_baseIiSaIiEE11_M_allocateEm(%"struct.std::_Vector_base"* nonnull align 8 dereferenceable(24) %0, i64 %1) #4 comdat align 2 {
  %3 = alloca %"struct.std::_Vector_base"*, align 8, !llfi_index !984
  %4 = alloca i64, align 8, !llfi_index !985
  store %"struct.std::_Vector_base"* %0, %"struct.std::_Vector_base"** %3, align 8, !llfi_index !986
  store i64 %1, i64* %4, align 8, !llfi_index !987
  %5 = load %"struct.std::_Vector_base"*, %"struct.std::_Vector_base"** %3, align 8, !llfi_index !988
  %6 = load i64, i64* %4, align 8, !llfi_index !989
  %7 = icmp ne i64 %6, 0, !llfi_index !990
  br i1 %7, label %8, label %13, !llfi_index !991

8:                                                ; preds = %2
  %9 = getelementptr inbounds %"struct.std::_Vector_base", %"struct.std::_Vector_base"* %5, i32 0, i32 0, !llfi_index !992
  %10 = bitcast %"struct.std::_Vector_base<int, std::allocator<int>>::_Vector_impl"* %9 to %"struct.std::less"*, !llfi_index !993
  %11 = load i64, i64* %4, align 8, !llfi_index !994
  %12 = call i32* @_ZNSt16allocator_traitsISaIiEE8allocateERS0_m(%"struct.std::less"* nonnull align 1 dereferenceable(1) %10, i64 %11), !llfi_index !995
  br label %14, !llfi_index !996

13:                                               ; preds = %2
  br label %14, !llfi_index !997

14:                                               ; preds = %13, %8
  %15 = phi i32* [ %12, %8 ], [ null, %13 ], !llfi_index !998
  ret i32* %15, !llfi_index !999
}

; Function Attrs: mustprogress noinline uwtable
define linkonce_odr dso_local i32* @_ZNSt16allocator_traitsISaIiEE8allocateERS0_m(%"struct.std::less"* nonnull align 1 dereferenceable(1) %0, i64 %1) #4 comdat align 2 {
  %3 = alloca %"struct.std::less"*, align 8, !llfi_index !1000
  %4 = alloca i64, align 8, !llfi_index !1001
  store %"struct.std::less"* %0, %"struct.std::less"** %3, align 8, !llfi_index !1002
  store i64 %1, i64* %4, align 8, !llfi_index !1003
  %5 = load %"struct.std::less"*, %"struct.std::less"** %3, align 8, !llfi_index !1004
  %6 = bitcast %"struct.std::less"* %5 to %"struct.std::less"*, !llfi_index !1005
  %7 = load i64, i64* %4, align 8, !llfi_index !1006
  %8 = call i32* @_ZN9__gnu_cxx13new_allocatorIiE8allocateEmPKv(%"struct.std::less"* nonnull align 1 dereferenceable(1) %6, i64 %7, i8* null), !llfi_index !1007
  ret i32* %8, !llfi_index !1008
}

; Function Attrs: mustprogress noinline uwtable
define linkonce_odr dso_local i32* @_ZN9__gnu_cxx13new_allocatorIiE8allocateEmPKv(%"struct.std::less"* nonnull align 1 dereferenceable(1) %0, i64 %1, i8* %2) #4 comdat align 2 {
  %4 = alloca %"struct.std::less"*, align 8, !llfi_index !1009
  %5 = alloca i64, align 8, !llfi_index !1010
  %6 = alloca i8*, align 8, !llfi_index !1011
  store %"struct.std::less"* %0, %"struct.std::less"** %4, align 8, !llfi_index !1012
  store i64 %1, i64* %5, align 8, !llfi_index !1013
  store i8* %2, i8** %6, align 8, !llfi_index !1014
  %7 = load %"struct.std::less"*, %"struct.std::less"** %4, align 8, !llfi_index !1015
  %8 = load i64, i64* %5, align 8, !llfi_index !1016
  %9 = call i64 @_ZNK9__gnu_cxx13new_allocatorIiE8max_sizeEv(%"struct.std::less"* nonnull align 1 dereferenceable(1) %7) #2, !llfi_index !1017
  %10 = icmp ugt i64 %8, %9, !llfi_index !1018
  br i1 %10, label %11, label %12, !llfi_index !1019

11:                                               ; preds = %3
  call void @_ZSt17__throw_bad_allocv() #17, !llfi_index !1020
  unreachable, !llfi_index !1021

12:                                               ; preds = %3
  %13 = load i64, i64* %5, align 8, !llfi_index !1022
  %14 = mul i64 %13, 4, !llfi_index !1023
  %15 = call noalias nonnull i8* @_Znwm(i64 %14) #18, !llfi_index !1024
  %16 = bitcast i8* %15 to i32*, !llfi_index !1025
  ret i32* %16, !llfi_index !1026
}

; Function Attrs: mustprogress noinline nounwind uwtable
define linkonce_odr dso_local i64 @_ZNK9__gnu_cxx13new_allocatorIiE8max_sizeEv(%"struct.std::less"* nonnull align 1 dereferenceable(1) %0) #3 comdat align 2 {
  %2 = alloca %"struct.std::less"*, align 8, !llfi_index !1027
  store %"struct.std::less"* %0, %"struct.std::less"** %2, align 8, !llfi_index !1028
  %3 = load %"struct.std::less"*, %"struct.std::less"** %2, align 8, !llfi_index !1029
  ret i64 2305843009213693951, !llfi_index !1030
}

; Function Attrs: noreturn
declare dso_local void @_ZSt17__throw_bad_allocv() #7

; Function Attrs: nobuiltin allocsize(0)
declare dso_local nonnull i8* @_Znwm(i64) #8

; Function Attrs: mustprogress noinline nounwind uwtable
define linkonce_odr dso_local i64 @_ZNSt6vectorIiSaIiEE11_S_max_sizeERKS0_(%"struct.std::less"* nonnull align 1 dereferenceable(1) %0) #3 comdat align 2 personality i8* bitcast (i32 (...)* @__gxx_personality_v0 to i8*) {
  %2 = alloca %"struct.std::less"*, align 8, !llfi_index !1031
  %3 = alloca i64, align 8, !llfi_index !1032
  %4 = alloca i64, align 8, !llfi_index !1033
  store %"struct.std::less"* %0, %"struct.std::less"** %2, align 8, !llfi_index !1034
  store i64 2305843009213693951, i64* %3, align 8, !llfi_index !1035
  %5 = load %"struct.std::less"*, %"struct.std::less"** %2, align 8, !llfi_index !1036
  %6 = call i64 @_ZNSt16allocator_traitsISaIiEE8max_sizeERKS0_(%"struct.std::less"* nonnull align 1 dereferenceable(1) %5) #2, !llfi_index !1037
  store i64 %6, i64* %4, align 8, !llfi_index !1038
  %7 = invoke nonnull align 8 dereferenceable(8) i64* @_ZSt3minImERKT_S2_S2_(i64* nonnull align 8 dereferenceable(8) %3, i64* nonnull align 8 dereferenceable(8) %4)
          to label %8 unwind label %10, !llfi_index !1039

8:                                                ; preds = %1
  %9 = load i64, i64* %7, align 8, !llfi_index !1040
  ret i64 %9, !llfi_index !1041

10:                                               ; preds = %1
  %11 = landingpad { i8*, i32 }
          catch i8* null, !llfi_index !1042
  %12 = extractvalue { i8*, i32 } %11, 0, !llfi_index !1043
  call void @__clang_call_terminate(i8* %12) #16, !llfi_index !1044
  unreachable, !llfi_index !1045
}

; Function Attrs: noreturn
declare dso_local void @_ZSt20__throw_length_errorPKc(i8*) #7

; Function Attrs: mustprogress noinline nounwind uwtable
define linkonce_odr dso_local i64 @_ZNSt16allocator_traitsISaIiEE8max_sizeERKS0_(%"struct.std::less"* nonnull align 1 dereferenceable(1) %0) #3 comdat align 2 {
  %2 = alloca %"struct.std::less"*, align 8, !llfi_index !1046
  store %"struct.std::less"* %0, %"struct.std::less"** %2, align 8, !llfi_index !1047
  %3 = load %"struct.std::less"*, %"struct.std::less"** %2, align 8, !llfi_index !1048
  %4 = bitcast %"struct.std::less"* %3 to %"struct.std::less"*, !llfi_index !1049
  %5 = call i64 @_ZNK9__gnu_cxx13new_allocatorIiE8max_sizeEv(%"struct.std::less"* nonnull align 1 dereferenceable(1) %4) #2, !llfi_index !1050
  ret i64 %5, !llfi_index !1051
}

; Function Attrs: mustprogress noinline nounwind uwtable
define linkonce_odr dso_local nonnull align 8 dereferenceable(8) i64* @_ZSt3minImERKT_S2_S2_(i64* nonnull align 8 dereferenceable(8) %0, i64* nonnull align 8 dereferenceable(8) %1) #3 comdat {
  %3 = alloca i64*, align 8, !llfi_index !1052
  %4 = alloca i64*, align 8, !llfi_index !1053
  %5 = alloca i64*, align 8, !llfi_index !1054
  store i64* %0, i64** %4, align 8, !llfi_index !1055
  store i64* %1, i64** %5, align 8, !llfi_index !1056
  %6 = load i64*, i64** %5, align 8, !llfi_index !1057
  %7 = load i64, i64* %6, align 8, !llfi_index !1058
  %8 = load i64*, i64** %4, align 8, !llfi_index !1059
  %9 = load i64, i64* %8, align 8, !llfi_index !1060
  %10 = icmp ult i64 %7, %9, !llfi_index !1061
  br i1 %10, label %11, label %13, !llfi_index !1062

11:                                               ; preds = %2
  %12 = load i64*, i64** %5, align 8, !llfi_index !1063
  store i64* %12, i64** %3, align 8, !llfi_index !1064
  br label %15, !llfi_index !1065

13:                                               ; preds = %2
  %14 = load i64*, i64** %4, align 8, !llfi_index !1066
  store i64* %14, i64** %3, align 8, !llfi_index !1067
  br label %15, !llfi_index !1068

15:                                               ; preds = %13, %11
  %16 = load i64*, i64** %3, align 8, !llfi_index !1069
  ret i64* %16, !llfi_index !1070
}

; Function Attrs: noinline uwtable
define linkonce_odr dso_local void @_ZN10SegTree_orIiLi262144EEC2Ev(%class.SegTree_max* nonnull align 8 dereferenceable(24) %0) unnamed_addr #0 comdat align 2 personality i8* bitcast (i32 (...)* @__gxx_personality_v0 to i8*) {
  %2 = alloca %class.SegTree_max*, align 8, !llfi_index !1071
  %3 = alloca %"class.std::vector", align 8, !llfi_index !1072
  %4 = alloca %"struct.std::less", align 1, !llfi_index !1073
  %5 = alloca i8*, align 8, !llfi_index !1074
  %6 = alloca i32, align 4, !llfi_index !1075
  store %class.SegTree_max* %0, %class.SegTree_max** %2, align 8, !llfi_index !1076
  %7 = load %class.SegTree_max*, %class.SegTree_max** %2, align 8, !llfi_index !1077
  %8 = getelementptr inbounds %class.SegTree_max, %class.SegTree_max* %7, i32 0, i32 0, !llfi_index !1078
  call void @_ZNSt6vectorIiSaIiEEC2Ev(%"class.std::vector"* nonnull align 8 dereferenceable(24) %8) #2, !llfi_index !1079
  call void @_ZNSaIiEC2Ev(%"struct.std::less"* nonnull align 1 dereferenceable(1) %4) #2, !llfi_index !1080
  invoke void @_ZNSt6vectorIiSaIiEEC2EmRKiRKS0_(%"class.std::vector"* nonnull align 8 dereferenceable(24) %3, i64 524288, i32* nonnull align 4 dereferenceable(4) @_ZN10SegTree_orIiLi262144EE3defE, %"struct.std::less"* nonnull align 1 dereferenceable(1) %4)
          to label %9 unwind label %12, !llfi_index !1081

9:                                                ; preds = %1
  %10 = getelementptr inbounds %class.SegTree_max, %class.SegTree_max* %7, i32 0, i32 0, !llfi_index !1082
  %11 = call nonnull align 8 dereferenceable(24) %"class.std::vector"* @_ZNSt6vectorIiSaIiEEaSEOS1_(%"class.std::vector"* nonnull align 8 dereferenceable(24) %10, %"class.std::vector"* nonnull align 8 dereferenceable(24) %3) #2, !llfi_index !1083
  call void @_ZNSt6vectorIiSaIiEED2Ev(%"class.std::vector"* nonnull align 8 dereferenceable(24) %3) #2, !llfi_index !1084
  call void @_ZNSaIiED2Ev(%"struct.std::less"* nonnull align 1 dereferenceable(1) %4) #2, !llfi_index !1085
  ret void, !llfi_index !1086

12:                                               ; preds = %1
  %13 = landingpad { i8*, i32 }
          cleanup, !llfi_index !1087
  %14 = extractvalue { i8*, i32 } %13, 0, !llfi_index !1088
  store i8* %14, i8** %5, align 8, !llfi_index !1089
  %15 = extractvalue { i8*, i32 } %13, 1, !llfi_index !1090
  store i32 %15, i32* %6, align 4, !llfi_index !1091
  call void @_ZNSaIiED2Ev(%"struct.std::less"* nonnull align 1 dereferenceable(1) %4) #2, !llfi_index !1092
  call void @_ZNSt6vectorIiSaIiEED2Ev(%"class.std::vector"* nonnull align 8 dereferenceable(24) %8) #2, !llfi_index !1093
  br label %16, !llfi_index !1094

16:                                               ; preds = %12
  %17 = load i8*, i8** %5, align 8, !llfi_index !1095
  %18 = load i32, i32* %6, align 4, !llfi_index !1096
  %19 = insertvalue { i8*, i32 } undef, i8* %17, 0, !llfi_index !1097
  %20 = insertvalue { i8*, i32 } %19, i32 %18, 1, !llfi_index !1098
  resume { i8*, i32 } %20, !llfi_index !1099
}

; Function Attrs: noinline uwtable
define internal void @__dtor_stor() #0 section ".text.startup" {
  call void @_ZN10SegTree_orIiLi262144EED2Ev(%class.SegTree_max* @stor), !llfi_index !1100
  ret void, !llfi_index !1101
}

; Function Attrs: noinline nounwind uwtable
define linkonce_odr dso_local void @_ZN10SegTree_orIiLi262144EED2Ev(%class.SegTree_max* nonnull align 8 dereferenceable(24) %0) unnamed_addr #1 comdat align 2 {
  %2 = alloca %class.SegTree_max*, align 8, !llfi_index !1102
  store %class.SegTree_max* %0, %class.SegTree_max** %2, align 8, !llfi_index !1103
  %3 = load %class.SegTree_max*, %class.SegTree_max** %2, align 8, !llfi_index !1104
  %4 = getelementptr inbounds %class.SegTree_max, %class.SegTree_max* %3, i32 0, i32 0, !llfi_index !1105
  call void @_ZNSt6vectorIiSaIiEED2Ev(%"class.std::vector"* nonnull align 8 dereferenceable(24) %4) #2, !llfi_index !1106
  ret void, !llfi_index !1107
}

; Function Attrs: noinline uwtable
define linkonce_odr dso_local void @_ZN11SegTree_minIiLi262144EEC2Ev(%class.SegTree_max* nonnull align 8 dereferenceable(24) %0) unnamed_addr #0 comdat align 2 personality i8* bitcast (i32 (...)* @__gxx_personality_v0 to i8*) {
  %2 = alloca %class.SegTree_max*, align 8, !llfi_index !1108
  %3 = alloca %"class.std::vector", align 8, !llfi_index !1109
  %4 = alloca %"struct.std::less", align 1, !llfi_index !1110
  %5 = alloca i8*, align 8, !llfi_index !1111
  %6 = alloca i32, align 4, !llfi_index !1112
  store %class.SegTree_max* %0, %class.SegTree_max** %2, align 8, !llfi_index !1113
  %7 = load %class.SegTree_max*, %class.SegTree_max** %2, align 8, !llfi_index !1114
  %8 = getelementptr inbounds %class.SegTree_max, %class.SegTree_max* %7, i32 0, i32 0, !llfi_index !1115
  call void @_ZNSt6vectorIiSaIiEEC2Ev(%"class.std::vector"* nonnull align 8 dereferenceable(24) %8) #2, !llfi_index !1116
  call void @_ZNSaIiEC2Ev(%"struct.std::less"* nonnull align 1 dereferenceable(1) %4) #2, !llfi_index !1117
  invoke void @_ZNSt6vectorIiSaIiEEC2EmRKiRKS0_(%"class.std::vector"* nonnull align 8 dereferenceable(24) %3, i64 524288, i32* nonnull align 4 dereferenceable(4) @_ZN11SegTree_minIiLi262144EE3defE, %"struct.std::less"* nonnull align 1 dereferenceable(1) %4)
          to label %9 unwind label %12, !llfi_index !1118

9:                                                ; preds = %1
  %10 = getelementptr inbounds %class.SegTree_max, %class.SegTree_max* %7, i32 0, i32 0, !llfi_index !1119
  %11 = call nonnull align 8 dereferenceable(24) %"class.std::vector"* @_ZNSt6vectorIiSaIiEEaSEOS1_(%"class.std::vector"* nonnull align 8 dereferenceable(24) %10, %"class.std::vector"* nonnull align 8 dereferenceable(24) %3) #2, !llfi_index !1120
  call void @_ZNSt6vectorIiSaIiEED2Ev(%"class.std::vector"* nonnull align 8 dereferenceable(24) %3) #2, !llfi_index !1121
  call void @_ZNSaIiED2Ev(%"struct.std::less"* nonnull align 1 dereferenceable(1) %4) #2, !llfi_index !1122
  ret void, !llfi_index !1123

12:                                               ; preds = %1
  %13 = landingpad { i8*, i32 }
          cleanup, !llfi_index !1124
  %14 = extractvalue { i8*, i32 } %13, 0, !llfi_index !1125
  store i8* %14, i8** %5, align 8, !llfi_index !1126
  %15 = extractvalue { i8*, i32 } %13, 1, !llfi_index !1127
  store i32 %15, i32* %6, align 4, !llfi_index !1128
  call void @_ZNSaIiED2Ev(%"struct.std::less"* nonnull align 1 dereferenceable(1) %4) #2, !llfi_index !1129
  call void @_ZNSt6vectorIiSaIiEED2Ev(%"class.std::vector"* nonnull align 8 dereferenceable(24) %8) #2, !llfi_index !1130
  br label %16, !llfi_index !1131

16:                                               ; preds = %12
  %17 = load i8*, i8** %5, align 8, !llfi_index !1132
  %18 = load i32, i32* %6, align 4, !llfi_index !1133
  %19 = insertvalue { i8*, i32 } undef, i8* %17, 0, !llfi_index !1134
  %20 = insertvalue { i8*, i32 } %19, i32 %18, 1, !llfi_index !1135
  resume { i8*, i32 } %20, !llfi_index !1136
}

; Function Attrs: noinline uwtable
define internal void @__dtor_stmi() #0 section ".text.startup" {
  call void @_ZN11SegTree_minIiLi262144EED2Ev(%class.SegTree_max* @stmi), !llfi_index !1137
  ret void, !llfi_index !1138
}

; Function Attrs: noinline nounwind uwtable
define linkonce_odr dso_local void @_ZN11SegTree_minIiLi262144EED2Ev(%class.SegTree_max* nonnull align 8 dereferenceable(24) %0) unnamed_addr #1 comdat align 2 {
  %2 = alloca %class.SegTree_max*, align 8, !llfi_index !1139
  store %class.SegTree_max* %0, %class.SegTree_max** %2, align 8, !llfi_index !1140
  %3 = load %class.SegTree_max*, %class.SegTree_max** %2, align 8, !llfi_index !1141
  %4 = getelementptr inbounds %class.SegTree_max, %class.SegTree_max* %3, i32 0, i32 0, !llfi_index !1142
  call void @_ZNSt6vectorIiSaIiEED2Ev(%"class.std::vector"* nonnull align 8 dereferenceable(24) %4) #2, !llfi_index !1143
  ret void, !llfi_index !1144
}

; Function Attrs: noinline uwtable
define linkonce_odr dso_local void @_ZN11SegTree_maxIiLi262144EEC2Ev(%class.SegTree_max* nonnull align 8 dereferenceable(24) %0) unnamed_addr #0 comdat align 2 personality i8* bitcast (i32 (...)* @__gxx_personality_v0 to i8*) {
  %2 = alloca %class.SegTree_max*, align 8, !llfi_index !1145
  %3 = alloca %"class.std::vector", align 8, !llfi_index !1146
  %4 = alloca %"struct.std::less", align 1, !llfi_index !1147
  %5 = alloca i8*, align 8, !llfi_index !1148
  %6 = alloca i32, align 4, !llfi_index !1149
  store %class.SegTree_max* %0, %class.SegTree_max** %2, align 8, !llfi_index !1150
  %7 = load %class.SegTree_max*, %class.SegTree_max** %2, align 8, !llfi_index !1151
  %8 = getelementptr inbounds %class.SegTree_max, %class.SegTree_max* %7, i32 0, i32 0, !llfi_index !1152
  call void @_ZNSt6vectorIiSaIiEEC2Ev(%"class.std::vector"* nonnull align 8 dereferenceable(24) %8) #2, !llfi_index !1153
  call void @_ZNSaIiEC2Ev(%"struct.std::less"* nonnull align 1 dereferenceable(1) %4) #2, !llfi_index !1154
  invoke void @_ZNSt6vectorIiSaIiEEC2EmRKiRKS0_(%"class.std::vector"* nonnull align 8 dereferenceable(24) %3, i64 524288, i32* nonnull align 4 dereferenceable(4) @_ZN11SegTree_maxIiLi262144EE3defE, %"struct.std::less"* nonnull align 1 dereferenceable(1) %4)
          to label %9 unwind label %12, !llfi_index !1155

9:                                                ; preds = %1
  %10 = getelementptr inbounds %class.SegTree_max, %class.SegTree_max* %7, i32 0, i32 0, !llfi_index !1156
  %11 = call nonnull align 8 dereferenceable(24) %"class.std::vector"* @_ZNSt6vectorIiSaIiEEaSEOS1_(%"class.std::vector"* nonnull align 8 dereferenceable(24) %10, %"class.std::vector"* nonnull align 8 dereferenceable(24) %3) #2, !llfi_index !1157
  call void @_ZNSt6vectorIiSaIiEED2Ev(%"class.std::vector"* nonnull align 8 dereferenceable(24) %3) #2, !llfi_index !1158
  call void @_ZNSaIiED2Ev(%"struct.std::less"* nonnull align 1 dereferenceable(1) %4) #2, !llfi_index !1159
  ret void, !llfi_index !1160

12:                                               ; preds = %1
  %13 = landingpad { i8*, i32 }
          cleanup, !llfi_index !1161
  %14 = extractvalue { i8*, i32 } %13, 0, !llfi_index !1162
  store i8* %14, i8** %5, align 8, !llfi_index !1163
  %15 = extractvalue { i8*, i32 } %13, 1, !llfi_index !1164
  store i32 %15, i32* %6, align 4, !llfi_index !1165
  call void @_ZNSaIiED2Ev(%"struct.std::less"* nonnull align 1 dereferenceable(1) %4) #2, !llfi_index !1166
  call void @_ZNSt6vectorIiSaIiEED2Ev(%"class.std::vector"* nonnull align 8 dereferenceable(24) %8) #2, !llfi_index !1167
  br label %16, !llfi_index !1168

16:                                               ; preds = %12
  %17 = load i8*, i8** %5, align 8, !llfi_index !1169
  %18 = load i32, i32* %6, align 4, !llfi_index !1170
  %19 = insertvalue { i8*, i32 } undef, i8* %17, 0, !llfi_index !1171
  %20 = insertvalue { i8*, i32 } %19, i32 %18, 1, !llfi_index !1172
  resume { i8*, i32 } %20, !llfi_index !1173
}

; Function Attrs: noinline uwtable
define internal void @__dtor_stma() #0 section ".text.startup" {
  call void @_ZN11SegTree_maxIiLi262144EED2Ev(%class.SegTree_max* @stma), !llfi_index !1174
  ret void, !llfi_index !1175
}

; Function Attrs: noinline nounwind uwtable
define linkonce_odr dso_local void @_ZN11SegTree_maxIiLi262144EED2Ev(%class.SegTree_max* nonnull align 8 dereferenceable(24) %0) unnamed_addr #1 comdat align 2 {
  %2 = alloca %class.SegTree_max*, align 8, !llfi_index !1176
  store %class.SegTree_max* %0, %class.SegTree_max** %2, align 8, !llfi_index !1177
  %3 = load %class.SegTree_max*, %class.SegTree_max** %2, align 8, !llfi_index !1178
  %4 = getelementptr inbounds %class.SegTree_max, %class.SegTree_max* %3, i32 0, i32 0, !llfi_index !1179
  call void @_ZNSt6vectorIiSaIiEED2Ev(%"class.std::vector"* nonnull align 8 dereferenceable(24) %4) #2, !llfi_index !1180
  ret void, !llfi_index !1181
}

declare dso_local void @_ZNSt8ios_base4InitC1Ev(%"struct.std::less"* nonnull align 1 dereferenceable(1)) unnamed_addr #9

; Function Attrs: noinline uwtable
define internal void @__dtor__ZStL8__ioinit() #0 section ".text.startup" {
  call void @_ZNSt8ios_base4InitD1Ev(%"struct.std::less"* @_ZStL8__ioinit), !llfi_index !1182
  ret void, !llfi_index !1183
}

; Function Attrs: nounwind
declare dso_local void @_ZNSt8ios_base4InitD1Ev(%"struct.std::less"* nonnull align 1 dereferenceable(1)) unnamed_addr #10

; Function Attrs: mustprogress noinline uwtable
define dso_local void @_Z5solvev() #4 personality i8* bitcast (i32 (...)* @__gxx_personality_v0 to i8*) {
  %1 = alloca i32, align 4, !llfi_index !1184
  %2 = alloca i32, align 4, !llfi_index !1185
  %3 = alloca i32, align 4, !llfi_index !1186
  %4 = alloca i32, align 4, !llfi_index !1187
  %5 = alloca i32, align 4, !llfi_index !1188
  %6 = alloca i32, align 4, !llfi_index !1189
  %7 = alloca i32, align 4, !llfi_index !1190
  %8 = alloca %"class.std::__cxx11::basic_string", align 8, !llfi_index !1191
  %9 = alloca i8*, align 8, !llfi_index !1192
  %10 = alloca i32, align 4, !llfi_index !1193
  %11 = alloca %"struct.std::pair", align 8, !llfi_index !1194
  %12 = alloca %"struct.std::pair", align 8, !llfi_index !1195
  %13 = alloca %"class.std::set"*, align 8, !llfi_index !1196
  %14 = alloca %"struct.std::_Rb_tree_const_iterator", align 8, !llfi_index !1197
  %15 = alloca %"struct.std::_Rb_tree_const_iterator", align 8, !llfi_index !1198
  %16 = alloca i32*, align 8, !llfi_index !1199
  %17 = alloca i32, align 4, !llfi_index !1200
  %18 = alloca i32, align 4, !llfi_index !1201
  %19 = alloca i32, align 4, !llfi_index !1202
  %20 = alloca i32, align 4, !llfi_index !1203
  %21 = alloca i32, align 4, !llfi_index !1204
  %22 = alloca i32, align 4, !llfi_index !1205
  %23 = alloca i32, align 4, !llfi_index !1206
  %24 = alloca i32, align 4, !llfi_index !1207
  %25 = alloca i32, align 4, !llfi_index !1208
  %26 = alloca i32, align 4, !llfi_index !1209
  %27 = alloca i32, align 4, !llfi_index !1210
  %28 = alloca i32, align 4, !llfi_index !1211
  %29 = alloca %"class.std::set", align 8, !llfi_index !1212
  %30 = alloca i32, align 4, !llfi_index !1213
  %31 = alloca %"class.std::vector"*, align 8, !llfi_index !1214
  %32 = alloca %"class.__gnu_cxx::__normal_iterator", align 8, !llfi_index !1215
  %33 = alloca %"class.__gnu_cxx::__normal_iterator", align 8, !llfi_index !1216
  %34 = alloca i32*, align 8, !llfi_index !1217
  %35 = alloca %"class.std::vector"*, align 8, !llfi_index !1218
  %36 = alloca %"class.__gnu_cxx::__normal_iterator", align 8, !llfi_index !1219
  %37 = alloca %"class.__gnu_cxx::__normal_iterator", align 8, !llfi_index !1220
  %38 = alloca i32*, align 8, !llfi_index !1221
  %39 = alloca %"class.std::reverse_iterator", align 8, !llfi_index !1222
  call void @_ZNSt7__cxx1112basic_stringIcSt11char_traitsIcESaIcEEC1Ev(%"class.std::__cxx11::basic_string"* nonnull align 8 dereferenceable(32) %8) #2, !llfi_index !1223
  call void @llvm.memset.p0i8.i64(i8* align 16 bitcast ([101010 x i32]* @ret to i8*), i8 -1, i64 404040, i1 false), !llfi_index !1224
  %40 = invoke nonnull align 8 dereferenceable(16) %"class.std::basic_istream"* @_ZNSirsERi(%"class.std::basic_istream"* nonnull align 8 dereferenceable(16) @_ZSt3cin, i32* nonnull align 4 dereferenceable(4) @N)
          to label %41 unwind label %81, !llfi_index !1225

41:                                               ; preds = %0
  %42 = invoke nonnull align 8 dereferenceable(16) %"class.std::basic_istream"* @_ZNSirsERi(%"class.std::basic_istream"* nonnull align 8 dereferenceable(16) %40, i32* nonnull align 4 dereferenceable(4) @K)
          to label %43 unwind label %81, !llfi_index !1226

43:                                               ; preds = %41
  store i32 0, i32* %1, align 4, !llfi_index !1227
  br label %44, !llfi_index !1228

44:                                               ; preds = %78, %43
  %45 = load i32, i32* %1, align 4, !llfi_index !1229
  %46 = load i32, i32* @N, align 4, !llfi_index !1230
  %47 = icmp slt i32 %45, %46, !llfi_index !1231
  br i1 %47, label %48, label %85, !llfi_index !1232

48:                                               ; preds = %44
  %49 = load i32, i32* %1, align 4, !llfi_index !1233
  %50 = sext i32 %49 to i64, !llfi_index !1234
  %51 = getelementptr inbounds [101010 x i32], [101010 x i32]* @A, i64 0, i64 %50, !llfi_index !1235
  %52 = invoke nonnull align 8 dereferenceable(16) %"class.std::basic_istream"* @_ZNSirsERi(%"class.std::basic_istream"* nonnull align 8 dereferenceable(16) @_ZSt3cin, i32* nonnull align 4 dereferenceable(4) %51)
          to label %53 unwind label %81, !llfi_index !1236

53:                                               ; preds = %48
  %54 = load i32, i32* %1, align 4, !llfi_index !1237
  %55 = load i32, i32* %1, align 4, !llfi_index !1238
  %56 = sext i32 %55 to i64, !llfi_index !1239
  %57 = getelementptr inbounds [101010 x i32], [101010 x i32]* @A, i64 0, i64 %56, !llfi_index !1240
  %58 = load i32, i32* %57, align 4, !llfi_index !1241
  invoke void @_ZN11SegTree_maxIiLi262144EE6updateEii(%class.SegTree_max* nonnull align 8 dereferenceable(24) @stma, i32 %54, i32 %58)
          to label %59 unwind label %81, !llfi_index !1242

59:                                               ; preds = %53
  %60 = load i32, i32* %1, align 4, !llfi_index !1243
  %61 = load i32, i32* %1, align 4, !llfi_index !1244
  %62 = sext i32 %61 to i64, !llfi_index !1245
  %63 = getelementptr inbounds [101010 x i32], [101010 x i32]* @A, i64 0, i64 %62, !llfi_index !1246
  %64 = load i32, i32* %63, align 4, !llfi_index !1247
  invoke void @_ZN11SegTree_minIiLi262144EE6updateEii(%class.SegTree_max* nonnull align 8 dereferenceable(24) @stmi, i32 %60, i32 %64)
          to label %65 unwind label %81, !llfi_index !1248

65:                                               ; preds = %59
  %66 = load i32, i32* %1, align 4, !llfi_index !1249
  %67 = load i32, i32* %1, align 4, !llfi_index !1250
  %68 = sext i32 %67 to i64, !llfi_index !1251
  %69 = getelementptr inbounds [101010 x i32], [101010 x i32]* @A, i64 0, i64 %68, !llfi_index !1252
  %70 = load i32, i32* %69, align 4, !llfi_index !1253
  invoke void @_ZN10SegTree_orIiLi262144EE6updateEii(%class.SegTree_max* nonnull align 8 dereferenceable(24) @stor, i32 %66, i32 %70)
          to label %71 unwind label %81, !llfi_index !1254

71:                                               ; preds = %65
  %72 = load i32, i32* %1, align 4, !llfi_index !1255
  %73 = load i32, i32* %1, align 4, !llfi_index !1256
  %74 = sext i32 %73 to i64, !llfi_index !1257
  %75 = getelementptr inbounds [101010 x i32], [101010 x i32]* @A, i64 0, i64 %74, !llfi_index !1258
  %76 = load i32, i32* %75, align 4, !llfi_index !1259
  invoke void @_ZN11SegTree_andIiLi262144EE6updateEii(%class.SegTree_max* nonnull align 8 dereferenceable(24) @stand, i32 %72, i32 %76)
          to label %77 unwind label %81, !llfi_index !1260

77:                                               ; preds = %71
  br label %78, !llfi_index !1261

78:                                               ; preds = %77
  %79 = load i32, i32* %1, align 4, !llfi_index !1262
  %80 = add nsw i32 %79, 1, !llfi_index !1263
  store i32 %80, i32* %1, align 4, !llfi_index !1264
  br label %44, !llvm.loop !1265, !llfi_index !1266

81:                                               ; preds = %289, %281, %256, %251, %246, %237, %200, %195, %190, %182, %165, %142, %133, %71, %65, %59, %53, %48, %41, %0
  %82 = landingpad { i8*, i32 }
          cleanup, !llfi_index !1267
  %83 = extractvalue { i8*, i32 } %82, 0, !llfi_index !1268
  store i8* %83, i8** %9, align 8, !llfi_index !1269
  %84 = extractvalue { i8*, i32 } %82, 1, !llfi_index !1270
  store i32 %84, i32* %10, align 4, !llfi_index !1271
  br label %378, !llfi_index !1272

85:                                               ; preds = %44
  store i32 0, i32* %1, align 4, !llfi_index !1273
  br label %86, !llfi_index !1274

86:                                               ; preds = %99, %85
  %87 = load i32, i32* %1, align 4, !llfi_index !1275
  %88 = icmp slt i32 %87, 30, !llfi_index !1276
  br i1 %88, label %89, label %102, !llfi_index !1277

89:                                               ; preds = %86
  %90 = load i32, i32* @N, align 4, !llfi_index !1278
  %91 = load i32, i32* %1, align 4, !llfi_index !1279
  %92 = sext i32 %91 to i64, !llfi_index !1280
  %93 = getelementptr inbounds [31 x [2 x i32]], [31 x [2 x i32]]* @nex, i64 0, i64 %92, !llfi_index !1281
  %94 = getelementptr inbounds [2 x i32], [2 x i32]* %93, i64 0, i64 1, !llfi_index !1282
  store i32 %90, i32* %94, align 4, !llfi_index !1283
  %95 = load i32, i32* %1, align 4, !llfi_index !1284
  %96 = sext i32 %95 to i64, !llfi_index !1285
  %97 = getelementptr inbounds [31 x [2 x i32]], [31 x [2 x i32]]* @nex, i64 0, i64 %96, !llfi_index !1286
  %98 = getelementptr inbounds [2 x i32], [2 x i32]* %97, i64 0, i64 0, !llfi_index !1287
  store i32 %90, i32* %98, align 8, !llfi_index !1288
  br label %99, !llfi_index !1289

99:                                               ; preds = %89
  %100 = load i32, i32* %1, align 4, !llfi_index !1290
  %101 = add nsw i32 %100, 1, !llfi_index !1291
  store i32 %101, i32* %1, align 4, !llfi_index !1292
  br label %86, !llvm.loop !1293, !llfi_index !1294

102:                                              ; preds = %86
  %103 = load i32, i32* @N, align 4, !llfi_index !1295
  %104 = sub nsw i32 %103, 1, !llfi_index !1296
  store i32 %104, i32* %1, align 4, !llfi_index !1297
  br label %105, !llfi_index !1298

105:                                              ; preds = %299, %102
  %106 = load i32, i32* %1, align 4, !llfi_index !1299
  %107 = icmp sge i32 %106, 0, !llfi_index !1300
  br i1 %107, label %108, label %302, !llfi_index !1301

108:                                              ; preds = %105
  store i32 0, i32* %2, align 4, !llfi_index !1302
  br label %109, !llfi_index !1303

109:                                              ; preds = %162, %108
  %110 = load i32, i32* %2, align 4, !llfi_index !1304
  %111 = icmp slt i32 %110, 30, !llfi_index !1305
  br i1 %111, label %112, label %165, !llfi_index !1306

112:                                              ; preds = %109
  %113 = load i32, i32* %1, align 4, !llfi_index !1307
  %114 = sext i32 %113 to i64, !llfi_index !1308
  %115 = getelementptr inbounds [101010 x i32], [101010 x i32]* @A, i64 0, i64 %114, !llfi_index !1309
  %116 = load i32, i32* %115, align 4, !llfi_index !1310
  %117 = load i32, i32* %2, align 4, !llfi_index !1311
  %118 = shl i32 1, %117, !llfi_index !1312
  %119 = and i32 %116, %118, !llfi_index !1313
  %120 = icmp ne i32 %119, 0, !llfi_index !1314
  br i1 %120, label %121, label %127, !llfi_index !1315

121:                                              ; preds = %112
  %122 = load i32, i32* %1, align 4, !llfi_index !1316
  %123 = load i32, i32* %2, align 4, !llfi_index !1317
  %124 = sext i32 %123 to i64, !llfi_index !1318
  %125 = getelementptr inbounds [31 x [2 x i32]], [31 x [2 x i32]]* @nex, i64 0, i64 %124, !llfi_index !1319
  %126 = getelementptr inbounds [2 x i32], [2 x i32]* %125, i64 0, i64 1, !llfi_index !1320
  store i32 %122, i32* %126, align 4, !llfi_index !1321
  br label %133, !llfi_index !1322

127:                                              ; preds = %112
  %128 = load i32, i32* %1, align 4, !llfi_index !1323
  %129 = load i32, i32* %2, align 4, !llfi_index !1324
  %130 = sext i32 %129 to i64, !llfi_index !1325
  %131 = getelementptr inbounds [31 x [2 x i32]], [31 x [2 x i32]]* @nex, i64 0, i64 %130, !llfi_index !1326
  %132 = getelementptr inbounds [2 x i32], [2 x i32]* %131, i64 0, i64 0, !llfi_index !1327
  store i32 %128, i32* %132, align 8, !llfi_index !1328
  br label %133, !llfi_index !1329

133:                                              ; preds = %127, %121
  %134 = load i32, i32* %1, align 4, !llfi_index !1330
  %135 = sext i32 %134 to i64, !llfi_index !1331
  %136 = getelementptr inbounds [101010 x %"class.std::set"], [101010 x %"class.std::set"]* @cand, i64 0, i64 %135, !llfi_index !1332
  %137 = load i32, i32* %2, align 4, !llfi_index !1333
  %138 = sext i32 %137 to i64, !llfi_index !1334
  %139 = getelementptr inbounds [31 x [2 x i32]], [31 x [2 x i32]]* @nex, i64 0, i64 %138, !llfi_index !1335
  %140 = getelementptr inbounds [2 x i32], [2 x i32]* %139, i64 0, i64 0, !llfi_index !1336
  %141 = invoke { %"struct.std::_Rb_tree_node_base"*, i8 } @_ZNSt3setIiSt4lessIiESaIiEE6insertERKi(%"class.std::set"* nonnull align 8 dereferenceable(48) %136, i32* nonnull align 4 dereferenceable(4) %140)
          to label %142 unwind label %81, !llfi_index !1337

142:                                              ; preds = %133
  %143 = bitcast %"struct.std::pair"* %11 to { %"struct.std::_Rb_tree_node_base"*, i8 }*, !llfi_index !1338
  %144 = getelementptr inbounds { %"struct.std::_Rb_tree_node_base"*, i8 }, { %"struct.std::_Rb_tree_node_base"*, i8 }* %143, i32 0, i32 0, !llfi_index !1339
  %145 = extractvalue { %"struct.std::_Rb_tree_node_base"*, i8 } %141, 0, !llfi_index !1340
  store %"struct.std::_Rb_tree_node_base"* %145, %"struct.std::_Rb_tree_node_base"** %144, align 8, !llfi_index !1341
  %146 = getelementptr inbounds { %"struct.std::_Rb_tree_node_base"*, i8 }, { %"struct.std::_Rb_tree_node_base"*, i8 }* %143, i32 0, i32 1, !llfi_index !1342
  %147 = extractvalue { %"struct.std::_Rb_tree_node_base"*, i8 } %141, 1, !llfi_index !1343
  store i8 %147, i8* %146, align 8, !llfi_index !1344
  %148 = load i32, i32* %1, align 4, !llfi_index !1345
  %149 = sext i32 %148 to i64, !llfi_index !1346
  %150 = getelementptr inbounds [101010 x %"class.std::set"], [101010 x %"class.std::set"]* @cand, i64 0, i64 %149, !llfi_index !1347
  %151 = load i32, i32* %2, align 4, !llfi_index !1348
  %152 = sext i32 %151 to i64, !llfi_index !1349
  %153 = getelementptr inbounds [31 x [2 x i32]], [31 x [2 x i32]]* @nex, i64 0, i64 %152, !llfi_index !1350
  %154 = getelementptr inbounds [2 x i32], [2 x i32]* %153, i64 0, i64 1, !llfi_index !1351
  %155 = invoke { %"struct.std::_Rb_tree_node_base"*, i8 } @_ZNSt3setIiSt4lessIiESaIiEE6insertERKi(%"class.std::set"* nonnull align 8 dereferenceable(48) %150, i32* nonnull align 4 dereferenceable(4) %154)
          to label %156 unwind label %81, !llfi_index !1352

156:                                              ; preds = %142
  %157 = bitcast %"struct.std::pair"* %12 to { %"struct.std::_Rb_tree_node_base"*, i8 }*, !llfi_index !1353
  %158 = getelementptr inbounds { %"struct.std::_Rb_tree_node_base"*, i8 }, { %"struct.std::_Rb_tree_node_base"*, i8 }* %157, i32 0, i32 0, !llfi_index !1354
  %159 = extractvalue { %"struct.std::_Rb_tree_node_base"*, i8 } %155, 0, !llfi_index !1355
  store %"struct.std::_Rb_tree_node_base"* %159, %"struct.std::_Rb_tree_node_base"** %158, align 8, !llfi_index !1356
  %160 = getelementptr inbounds { %"struct.std::_Rb_tree_node_base"*, i8 }, { %"struct.std::_Rb_tree_node_base"*, i8 }* %157, i32 0, i32 1, !llfi_index !1357
  %161 = extractvalue { %"struct.std::_Rb_tree_node_base"*, i8 } %155, 1, !llfi_index !1358
  store i8 %161, i8* %160, align 8, !llfi_index !1359
  br label %162, !llfi_index !1360

162:                                              ; preds = %156
  %163 = load i32, i32* %2, align 4, !llfi_index !1361
  %164 = add nsw i32 %163, 1, !llfi_index !1362
  store i32 %164, i32* %2, align 4, !llfi_index !1363
  br label %109, !llvm.loop !1364, !llfi_index !1365

165:                                              ; preds = %109
  %166 = load i32, i32* %1, align 4, !llfi_index !1366
  %167 = sext i32 %166 to i64, !llfi_index !1367
  %168 = getelementptr inbounds [101010 x %"class.std::set"], [101010 x %"class.std::set"]* @cand, i64 0, i64 %167, !llfi_index !1368
  %169 = invoke i64 @_ZNSt3setIiSt4lessIiESaIiEE5eraseERKi(%"class.std::set"* nonnull align 8 dereferenceable(48) %168, i32* nonnull align 4 dereferenceable(4) @N)
          to label %170 unwind label %81, !llfi_index !1369

170:                                              ; preds = %165
  store i32 -1, i32* %7, align 4, !llfi_index !1370
  %171 = load i32, i32* %1, align 4, !llfi_index !1371
  %172 = sext i32 %171 to i64, !llfi_index !1372
  %173 = getelementptr inbounds [101010 x %"class.std::set"], [101010 x %"class.std::set"]* @cand, i64 0, i64 %172, !llfi_index !1373
  store %"class.std::set"* %173, %"class.std::set"** %13, align 8, !llfi_index !1374
  %174 = load %"class.std::set"*, %"class.std::set"** %13, align 8, !llfi_index !1375
  %175 = call %"struct.std::_Rb_tree_node_base"* @_ZNKSt3setIiSt4lessIiESaIiEE5beginEv(%"class.std::set"* nonnull align 8 dereferenceable(48) %174) #2, !llfi_index !1376
  %176 = getelementptr inbounds %"struct.std::_Rb_tree_const_iterator", %"struct.std::_Rb_tree_const_iterator"* %14, i32 0, i32 0, !llfi_index !1377
  store %"struct.std::_Rb_tree_node_base"* %175, %"struct.std::_Rb_tree_node_base"** %176, align 8, !llfi_index !1378
  %177 = load %"class.std::set"*, %"class.std::set"** %13, align 8, !llfi_index !1379
  %178 = call %"struct.std::_Rb_tree_node_base"* @_ZNKSt3setIiSt4lessIiESaIiEE3endEv(%"class.std::set"* nonnull align 8 dereferenceable(48) %177) #2, !llfi_index !1380
  %179 = getelementptr inbounds %"struct.std::_Rb_tree_const_iterator", %"struct.std::_Rb_tree_const_iterator"* %15, i32 0, i32 0, !llfi_index !1381
  store %"struct.std::_Rb_tree_node_base"* %178, %"struct.std::_Rb_tree_node_base"** %179, align 8, !llfi_index !1382
  br label %180, !llfi_index !1383

180:                                              ; preds = %219, %170
  %181 = call zeroext i1 @_ZStneRKSt23_Rb_tree_const_iteratorIiES2_(%"struct.std::_Rb_tree_const_iterator"* nonnull align 8 dereferenceable(8) %14, %"struct.std::_Rb_tree_const_iterator"* nonnull align 8 dereferenceable(8) %15) #2, !llfi_index !1384
  br i1 %181, label %182, label %221, !llfi_index !1385

182:                                              ; preds = %180
  %183 = call nonnull align 4 dereferenceable(4) i32* @_ZNKSt23_Rb_tree_const_iteratorIiEdeEv(%"struct.std::_Rb_tree_const_iterator"* nonnull align 8 dereferenceable(8) %14) #2, !llfi_index !1386
  store i32* %183, i32** %16, align 8, !llfi_index !1387
  %184 = load i32*, i32** %16, align 8, !llfi_index !1388
  %185 = load i32, i32* %184, align 4, !llfi_index !1389
  store i32 %185, i32* %6, align 4, !llfi_index !1390
  %186 = load i32, i32* %1, align 4, !llfi_index !1391
  %187 = load i32, i32* %6, align 4, !llfi_index !1392
  %188 = add nsw i32 %187, 1, !llfi_index !1393
  %189 = invoke i32 @_ZN11SegTree_maxIiLi262144EE6getvalEiiiii(%class.SegTree_max* nonnull align 8 dereferenceable(24) @stma, i32 %186, i32 %188, i32 0, i32 262144, i32 1)
          to label %190 unwind label %81, !llfi_index !1394

190:                                              ; preds = %182
  store i32 %189, i32* %17, align 4, !llfi_index !1395
  %191 = load i32, i32* %1, align 4, !llfi_index !1396
  %192 = load i32, i32* %6, align 4, !llfi_index !1397
  %193 = add nsw i32 %192, 1, !llfi_index !1398
  %194 = invoke i32 @_ZN11SegTree_minIiLi262144EE6getvalEiiiii(%class.SegTree_max* nonnull align 8 dereferenceable(24) @stmi, i32 %191, i32 %193, i32 0, i32 262144, i32 1)
          to label %195 unwind label %81, !llfi_index !1399

195:                                              ; preds = %190
  store i32 %194, i32* %18, align 4, !llfi_index !1400
  %196 = load i32, i32* %1, align 4, !llfi_index !1401
  %197 = load i32, i32* %6, align 4, !llfi_index !1402
  %198 = add nsw i32 %197, 1, !llfi_index !1403
  %199 = invoke i32 @_ZN10SegTree_orIiLi262144EE6getvalEiiiii(%class.SegTree_max* nonnull align 8 dereferenceable(24) @stor, i32 %196, i32 %198, i32 0, i32 262144, i32 1)
          to label %200 unwind label %81, !llfi_index !1404

200:                                              ; preds = %195
  store i32 %199, i32* %19, align 4, !llfi_index !1405
  %201 = load i32, i32* %1, align 4, !llfi_index !1406
  %202 = load i32, i32* %6, align 4, !llfi_index !1407
  %203 = add nsw i32 %202, 1, !llfi_index !1408
  %204 = invoke i32 @_ZN11SegTree_andIiLi262144EE6getvalEiiiii(%class.SegTree_max* nonnull align 8 dereferenceable(24) @stand, i32 %201, i32 %203, i32 0, i32 262144, i32 1)
          to label %205 unwind label %81, !llfi_index !1409

205:                                              ; preds = %200
  store i32 %204, i32* %20, align 4, !llfi_index !1410
  %206 = load i32, i32* %19, align 4, !llfi_index !1411
  %207 = load i32, i32* %20, align 4, !llfi_index !1412
  %208 = sub nsw i32 %206, %207, !llfi_index !1413
  %209 = load i32, i32* %17, align 4, !llfi_index !1414
  %210 = load i32, i32* %18, align 4, !llfi_index !1415
  %211 = sub nsw i32 %209, %210, !llfi_index !1416
  %212 = sub nsw i32 %208, %211, !llfi_index !1417
  store i32 %212, i32* %21, align 4, !llfi_index !1418
  %213 = load i32, i32* %21, align 4, !llfi_index !1419
  %214 = load i32, i32* @K, align 4, !llfi_index !1420
  %215 = icmp sge i32 %213, %214, !llfi_index !1421
  br i1 %215, label %216, label %218, !llfi_index !1422

216:                                              ; preds = %205
  %217 = load i32, i32* %6, align 4, !llfi_index !1423
  store i32 %217, i32* %7, align 4, !llfi_index !1424
  br label %218, !llfi_index !1425

218:                                              ; preds = %216, %205
  br label %219, !llfi_index !1426

219:                                              ; preds = %218
  %220 = call nonnull align 8 dereferenceable(8) %"struct.std::_Rb_tree_const_iterator"* @_ZNSt23_Rb_tree_const_iteratorIiEppEv(%"struct.std::_Rb_tree_const_iterator"* nonnull align 8 dereferenceable(8) %14) #2, !llfi_index !1427
  br label %180, !llfi_index !1428

221:                                              ; preds = %180
  %222 = load i32, i32* %7, align 4, !llfi_index !1429
  %223 = icmp eq i32 %222, -1, !llfi_index !1430
  br i1 %223, label %224, label %225, !llfi_index !1431

224:                                              ; preds = %221
  br label %299, !llfi_index !1432

225:                                              ; preds = %221
  store i32 19, i32* %2, align 4, !llfi_index !1433
  br label %226, !llfi_index !1434

226:                                              ; preds = %278, %225
  %227 = load i32, i32* %2, align 4, !llfi_index !1435
  %228 = icmp sge i32 %227, 0, !llfi_index !1436
  br i1 %228, label %229, label %281, !llfi_index !1437

229:                                              ; preds = %226
  %230 = load i32, i32* %7, align 4, !llfi_index !1438
  %231 = load i32, i32* %2, align 4, !llfi_index !1439
  %232 = shl i32 1, %231, !llfi_index !1440
  %233 = add nsw i32 %230, %232, !llfi_index !1441
  %234 = load i32, i32* @N, align 4, !llfi_index !1442
  %235 = icmp sge i32 %233, %234, !llfi_index !1443
  br i1 %235, label %236, label %237, !llfi_index !1444

236:                                              ; preds = %229
  br label %278, !llfi_index !1445

237:                                              ; preds = %229
  %238 = load i32, i32* %2, align 4, !llfi_index !1446
  %239 = shl i32 1, %238, !llfi_index !1447
  %240 = load i32, i32* %7, align 4, !llfi_index !1448
  %241 = add nsw i32 %240, %239, !llfi_index !1449
  store i32 %241, i32* %7, align 4, !llfi_index !1450
  %242 = load i32, i32* %1, align 4, !llfi_index !1451
  %243 = load i32, i32* %7, align 4, !llfi_index !1452
  %244 = add nsw i32 %243, 1, !llfi_index !1453
  %245 = invoke i32 @_ZN11SegTree_maxIiLi262144EE6getvalEiiiii(%class.SegTree_max* nonnull align 8 dereferenceable(24) @stma, i32 %242, i32 %244, i32 0, i32 262144, i32 1)
          to label %246 unwind label %81, !llfi_index !1454

246:                                              ; preds = %237
  store i32 %245, i32* %22, align 4, !llfi_index !1455
  %247 = load i32, i32* %1, align 4, !llfi_index !1456
  %248 = load i32, i32* %7, align 4, !llfi_index !1457
  %249 = add nsw i32 %248, 1, !llfi_index !1458
  %250 = invoke i32 @_ZN11SegTree_minIiLi262144EE6getvalEiiiii(%class.SegTree_max* nonnull align 8 dereferenceable(24) @stmi, i32 %247, i32 %249, i32 0, i32 262144, i32 1)
          to label %251 unwind label %81, !llfi_index !1459

251:                                              ; preds = %246
  store i32 %250, i32* %23, align 4, !llfi_index !1460
  %252 = load i32, i32* %1, align 4, !llfi_index !1461
  %253 = load i32, i32* %7, align 4, !llfi_index !1462
  %254 = add nsw i32 %253, 1, !llfi_index !1463
  %255 = invoke i32 @_ZN10SegTree_orIiLi262144EE6getvalEiiiii(%class.SegTree_max* nonnull align 8 dereferenceable(24) @stor, i32 %252, i32 %254, i32 0, i32 262144, i32 1)
          to label %256 unwind label %81, !llfi_index !1464

256:                                              ; preds = %251
  store i32 %255, i32* %24, align 4, !llfi_index !1465
  %257 = load i32, i32* %1, align 4, !llfi_index !1466
  %258 = load i32, i32* %7, align 4, !llfi_index !1467
  %259 = add nsw i32 %258, 1, !llfi_index !1468
  %260 = invoke i32 @_ZN11SegTree_andIiLi262144EE6getvalEiiiii(%class.SegTree_max* nonnull align 8 dereferenceable(24) @stand, i32 %257, i32 %259, i32 0, i32 262144, i32 1)
          to label %261 unwind label %81, !llfi_index !1469

261:                                              ; preds = %256
  store i32 %260, i32* %25, align 4, !llfi_index !1470
  %262 = load i32, i32* %24, align 4, !llfi_index !1471
  %263 = load i32, i32* %25, align 4, !llfi_index !1472
  %264 = sub nsw i32 %262, %263, !llfi_index !1473
  %265 = load i32, i32* %22, align 4, !llfi_index !1474
  %266 = load i32, i32* %23, align 4, !llfi_index !1475
  %267 = sub nsw i32 %265, %266, !llfi_index !1476
  %268 = sub nsw i32 %264, %267, !llfi_index !1477
  store i32 %268, i32* %26, align 4, !llfi_index !1478
  %269 = load i32, i32* %26, align 4, !llfi_index !1479
  %270 = load i32, i32* @K, align 4, !llfi_index !1480
  %271 = icmp slt i32 %269, %270, !llfi_index !1481
  br i1 %271, label %272, label %277, !llfi_index !1482

272:                                              ; preds = %261
  %273 = load i32, i32* %2, align 4, !llfi_index !1483
  %274 = shl i32 1, %273, !llfi_index !1484
  %275 = load i32, i32* %7, align 4, !llfi_index !1485
  %276 = sub nsw i32 %275, %274, !llfi_index !1486
  store i32 %276, i32* %7, align 4, !llfi_index !1487
  br label %277, !llfi_index !1488

277:                                              ; preds = %272, %261
  br label %278, !llfi_index !1489

278:                                              ; preds = %277, %236
  %279 = load i32, i32* %2, align 4, !llfi_index !1490
  %280 = add nsw i32 %279, -1, !llfi_index !1491
  store i32 %280, i32* %2, align 4, !llfi_index !1492
  br label %226, !llvm.loop !1493, !llfi_index !1494

281:                                              ; preds = %226
  %282 = load i32, i32* %1, align 4, !llfi_index !1495
  %283 = sext i32 %282 to i64, !llfi_index !1496
  %284 = getelementptr inbounds [101010 x %"class.std::vector"], [101010 x %"class.std::vector"]* @add, i64 0, i64 %283, !llfi_index !1497
  %285 = load i32, i32* %7, align 4, !llfi_index !1498
  %286 = load i32, i32* %1, align 4, !llfi_index !1499
  %287 = sub nsw i32 %285, %286, !llfi_index !1500
  %288 = add nsw i32 %287, 1, !llfi_index !1501
  store i32 %288, i32* %27, align 4, !llfi_index !1502
  invoke void @_ZNSt6vectorIiSaIiEE9push_backEOi(%"class.std::vector"* nonnull align 8 dereferenceable(24) %284, i32* nonnull align 4 dereferenceable(4) %27)
          to label %289 unwind label %81, !llfi_index !1503

289:                                              ; preds = %281
  %290 = load i32, i32* %7, align 4, !llfi_index !1504
  %291 = add nsw i32 %290, 1, !llfi_index !1505
  %292 = sext i32 %291 to i64, !llfi_index !1506
  %293 = getelementptr inbounds [101010 x %"class.std::vector"], [101010 x %"class.std::vector"]* @del, i64 0, i64 %292, !llfi_index !1507
  %294 = load i32, i32* %7, align 4, !llfi_index !1508
  %295 = load i32, i32* %1, align 4, !llfi_index !1509
  %296 = sub nsw i32 %294, %295, !llfi_index !1510
  %297 = add nsw i32 %296, 1, !llfi_index !1511
  store i32 %297, i32* %28, align 4, !llfi_index !1512
  invoke void @_ZNSt6vectorIiSaIiEE9push_backEOi(%"class.std::vector"* nonnull align 8 dereferenceable(24) %293, i32* nonnull align 4 dereferenceable(4) %28)
          to label %298 unwind label %81, !llfi_index !1513

298:                                              ; preds = %289
  br label %299, !llfi_index !1514

299:                                              ; preds = %298, %224
  %300 = load i32, i32* %1, align 4, !llfi_index !1515
  %301 = add nsw i32 %300, -1, !llfi_index !1516
  store i32 %301, i32* %1, align 4, !llfi_index !1517
  br label %105, !llvm.loop !1518, !llfi_index !1519

302:                                              ; preds = %105
  call void @_ZNSt3mapIiiSt4lessIiESaISt4pairIKiiEEEC2Ev(%"class.std::set"* nonnull align 8 dereferenceable(48) %29) #2, !llfi_index !1520
  store i32 -1, i32* %30, align 4, !llfi_index !1521
  %303 = invoke nonnull align 4 dereferenceable(4) i32* @_ZNSt3mapIiiSt4lessIiESaISt4pairIKiiEEEixEOi(%"class.std::set"* nonnull align 8 dereferenceable(48) %29, i32* nonnull align 4 dereferenceable(4) %30)
          to label %304 unwind label %330, !llfi_index !1522

304:                                              ; preds = %302
  store i32 1, i32* %303, align 4, !llfi_index !1523
  store i32 0, i32* %1, align 4, !llfi_index !1524
  br label %305, !llfi_index !1525

305:                                              ; preds = %374, %304
  %306 = load i32, i32* %1, align 4, !llfi_index !1526
  %307 = load i32, i32* @N, align 4, !llfi_index !1527
  %308 = icmp slt i32 %306, %307, !llfi_index !1528
  br i1 %308, label %309, label %377, !llfi_index !1529

309:                                              ; preds = %305
  %310 = load i32, i32* %1, align 4, !llfi_index !1530
  %311 = sext i32 %310 to i64, !llfi_index !1531
  %312 = getelementptr inbounds [101010 x %"class.std::vector"], [101010 x %"class.std::vector"]* @add, i64 0, i64 %311, !llfi_index !1532
  store %"class.std::vector"* %312, %"class.std::vector"** %31, align 8, !llfi_index !1533
  %313 = load %"class.std::vector"*, %"class.std::vector"** %31, align 8, !llfi_index !1534
  %314 = call i32* @_ZNSt6vectorIiSaIiEE5beginEv(%"class.std::vector"* nonnull align 8 dereferenceable(24) %313) #2, !llfi_index !1535
  %315 = getelementptr inbounds %"class.__gnu_cxx::__normal_iterator", %"class.__gnu_cxx::__normal_iterator"* %32, i32 0, i32 0, !llfi_index !1536
  store i32* %314, i32** %315, align 8, !llfi_index !1537
  %316 = load %"class.std::vector"*, %"class.std::vector"** %31, align 8, !llfi_index !1538
  %317 = call i32* @_ZNSt6vectorIiSaIiEE3endEv(%"class.std::vector"* nonnull align 8 dereferenceable(24) %316) #2, !llfi_index !1539
  %318 = getelementptr inbounds %"class.__gnu_cxx::__normal_iterator", %"class.__gnu_cxx::__normal_iterator"* %33, i32 0, i32 0, !llfi_index !1540
  store i32* %317, i32** %318, align 8, !llfi_index !1541
  br label %319, !llfi_index !1542

319:                                              ; preds = %328, %309
  %320 = call zeroext i1 @_ZN9__gnu_cxxneIPiSt6vectorIiSaIiEEEEbRKNS_17__normal_iteratorIT_T0_EESA_(%"class.__gnu_cxx::__normal_iterator"* nonnull align 8 dereferenceable(8) %32, %"class.__gnu_cxx::__normal_iterator"* nonnull align 8 dereferenceable(8) %33) #2, !llfi_index !1543
  br i1 %320, label %321, label %334, !llfi_index !1544

321:                                              ; preds = %319
  %322 = call nonnull align 4 dereferenceable(4) i32* @_ZNK9__gnu_cxx17__normal_iteratorIPiSt6vectorIiSaIiEEEdeEv(%"class.__gnu_cxx::__normal_iterator"* nonnull align 8 dereferenceable(8) %32) #2, !llfi_index !1545
  store i32* %322, i32** %34, align 8, !llfi_index !1546
  %323 = load i32*, i32** %34, align 8, !llfi_index !1547
  %324 = invoke nonnull align 4 dereferenceable(4) i32* @_ZNSt3mapIiiSt4lessIiESaISt4pairIKiiEEEixERS3_(%"class.std::set"* nonnull align 8 dereferenceable(48) %29, i32* nonnull align 4 dereferenceable(4) %323)
          to label %325 unwind label %330, !llfi_index !1548

325:                                              ; preds = %321
  %326 = load i32, i32* %324, align 4, !llfi_index !1549
  %327 = add nsw i32 %326, 1, !llfi_index !1550
  store i32 %327, i32* %324, align 4, !llfi_index !1551
  br label %328, !llfi_index !1552

328:                                              ; preds = %325
  %329 = call nonnull align 8 dereferenceable(8) %"class.__gnu_cxx::__normal_iterator"* @_ZN9__gnu_cxx17__normal_iteratorIPiSt6vectorIiSaIiEEEppEv(%"class.__gnu_cxx::__normal_iterator"* nonnull align 8 dereferenceable(8) %32) #2, !llfi_index !1553
  br label %319, !llfi_index !1554

330:                                              ; preds = %371, %367, %365, %358, %350, %346, %321, %302
  %331 = landingpad { i8*, i32 }
          cleanup, !llfi_index !1555
  %332 = extractvalue { i8*, i32 } %331, 0, !llfi_index !1556
  store i8* %332, i8** %9, align 8, !llfi_index !1557
  %333 = extractvalue { i8*, i32 } %331, 1, !llfi_index !1558
  store i32 %333, i32* %10, align 4, !llfi_index !1559
  call void @_ZNSt3mapIiiSt4lessIiESaISt4pairIKiiEEED2Ev(%"class.std::set"* nonnull align 8 dereferenceable(48) %29) #2, !llfi_index !1560
  br label %378, !llfi_index !1561

334:                                              ; preds = %319
  %335 = load i32, i32* %1, align 4, !llfi_index !1562
  %336 = sext i32 %335 to i64, !llfi_index !1563
  %337 = getelementptr inbounds [101010 x %"class.std::vector"], [101010 x %"class.std::vector"]* @del, i64 0, i64 %336, !llfi_index !1564
  store %"class.std::vector"* %337, %"class.std::vector"** %35, align 8, !llfi_index !1565
  %338 = load %"class.std::vector"*, %"class.std::vector"** %35, align 8, !llfi_index !1566
  %339 = call i32* @_ZNSt6vectorIiSaIiEE5beginEv(%"class.std::vector"* nonnull align 8 dereferenceable(24) %338) #2, !llfi_index !1567
  %340 = getelementptr inbounds %"class.__gnu_cxx::__normal_iterator", %"class.__gnu_cxx::__normal_iterator"* %36, i32 0, i32 0, !llfi_index !1568
  store i32* %339, i32** %340, align 8, !llfi_index !1569
  %341 = load %"class.std::vector"*, %"class.std::vector"** %35, align 8, !llfi_index !1570
  %342 = call i32* @_ZNSt6vectorIiSaIiEE3endEv(%"class.std::vector"* nonnull align 8 dereferenceable(24) %341) #2, !llfi_index !1571
  %343 = getelementptr inbounds %"class.__gnu_cxx::__normal_iterator", %"class.__gnu_cxx::__normal_iterator"* %37, i32 0, i32 0, !llfi_index !1572
  store i32* %342, i32** %343, align 8, !llfi_index !1573
  br label %344, !llfi_index !1574

344:                                              ; preds = %363, %334
  %345 = call zeroext i1 @_ZN9__gnu_cxxneIPiSt6vectorIiSaIiEEEEbRKNS_17__normal_iteratorIT_T0_EESA_(%"class.__gnu_cxx::__normal_iterator"* nonnull align 8 dereferenceable(8) %36, %"class.__gnu_cxx::__normal_iterator"* nonnull align 8 dereferenceable(8) %37) #2, !llfi_index !1575
  br i1 %345, label %346, label %365, !llfi_index !1576

346:                                              ; preds = %344
  %347 = call nonnull align 4 dereferenceable(4) i32* @_ZNK9__gnu_cxx17__normal_iteratorIPiSt6vectorIiSaIiEEEdeEv(%"class.__gnu_cxx::__normal_iterator"* nonnull align 8 dereferenceable(8) %36) #2, !llfi_index !1577
  store i32* %347, i32** %38, align 8, !llfi_index !1578
  %348 = load i32*, i32** %38, align 8, !llfi_index !1579
  %349 = invoke nonnull align 4 dereferenceable(4) i32* @_ZNSt3mapIiiSt4lessIiESaISt4pairIKiiEEEixERS3_(%"class.std::set"* nonnull align 8 dereferenceable(48) %29, i32* nonnull align 4 dereferenceable(4) %348)
          to label %350 unwind label %330, !llfi_index !1580

350:                                              ; preds = %346
  %351 = load i32, i32* %349, align 4, !llfi_index !1581
  %352 = add nsw i32 %351, -1, !llfi_index !1582
  store i32 %352, i32* %349, align 4, !llfi_index !1583
  %353 = load i32*, i32** %38, align 8, !llfi_index !1584
  %354 = invoke nonnull align 4 dereferenceable(4) i32* @_ZNSt3mapIiiSt4lessIiESaISt4pairIKiiEEEixERS3_(%"class.std::set"* nonnull align 8 dereferenceable(48) %29, i32* nonnull align 4 dereferenceable(4) %353)
          to label %355 unwind label %330, !llfi_index !1585

355:                                              ; preds = %350
  %356 = load i32, i32* %354, align 4, !llfi_index !1586
  %357 = icmp eq i32 %356, 0, !llfi_index !1587
  br i1 %357, label %358, label %362, !llfi_index !1588

358:                                              ; preds = %355
  %359 = load i32*, i32** %38, align 8, !llfi_index !1589
  %360 = invoke i64 @_ZNSt3mapIiiSt4lessIiESaISt4pairIKiiEEE5eraseERS3_(%"class.std::set"* nonnull align 8 dereferenceable(48) %29, i32* nonnull align 4 dereferenceable(4) %359)
          to label %361 unwind label %330, !llfi_index !1590

361:                                              ; preds = %358
  br label %362, !llfi_index !1591

362:                                              ; preds = %361, %355
  br label %363, !llfi_index !1592

363:                                              ; preds = %362
  %364 = call nonnull align 8 dereferenceable(8) %"class.__gnu_cxx::__normal_iterator"* @_ZN9__gnu_cxx17__normal_iteratorIPiSt6vectorIiSaIiEEEppEv(%"class.__gnu_cxx::__normal_iterator"* nonnull align 8 dereferenceable(8) %36) #2, !llfi_index !1593
  br label %344, !llfi_index !1594

365:                                              ; preds = %344
  call void @_ZNSt3mapIiiSt4lessIiESaISt4pairIKiiEEE6rbeginEv(%"class.std::reverse_iterator"* sret(%"class.std::reverse_iterator") align 8 %39, %"class.std::set"* nonnull align 8 dereferenceable(48) %29) #2, !llfi_index !1595
  %366 = invoke %"struct.std::pair.10"* @_ZNKSt16reverse_iteratorISt17_Rb_tree_iteratorISt4pairIKiiEEEptEv(%"class.std::reverse_iterator"* nonnull align 8 dereferenceable(8) %39)
          to label %367 unwind label %330, !llfi_index !1596

367:                                              ; preds = %365
  %368 = getelementptr inbounds %"struct.std::pair.10", %"struct.std::pair.10"* %366, i32 0, i32 0, !llfi_index !1597
  %369 = load i32, i32* %368, align 4, !llfi_index !1598
  %370 = invoke nonnull align 8 dereferenceable(8) %"class.std::basic_ostream"* @_ZNSolsEi(%"class.std::basic_ostream"* nonnull align 8 dereferenceable(8) @_ZSt4cout, i32 %369)
          to label %371 unwind label %330, !llfi_index !1599

371:                                              ; preds = %367
  %372 = invoke nonnull align 8 dereferenceable(8) %"class.std::basic_ostream"* @_ZNSolsEPFRSoS_E(%"class.std::basic_ostream"* nonnull align 8 dereferenceable(8) %370, %"class.std::basic_ostream"* (%"class.std::basic_ostream"*)* @_ZSt4endlIcSt11char_traitsIcEERSt13basic_ostreamIT_T0_ES6_)
          to label %373 unwind label %330, !llfi_index !1600

373:                                              ; preds = %371
  br label %374, !llfi_index !1601

374:                                              ; preds = %373
  %375 = load i32, i32* %1, align 4, !llfi_index !1602
  %376 = add nsw i32 %375, 1, !llfi_index !1603
  store i32 %376, i32* %1, align 4, !llfi_index !1604
  br label %305, !llvm.loop !1605, !llfi_index !1606

377:                                              ; preds = %305
  call void @_ZNSt3mapIiiSt4lessIiESaISt4pairIKiiEEED2Ev(%"class.std::set"* nonnull align 8 dereferenceable(48) %29) #2, !llfi_index !1607
  call void @_ZNSt7__cxx1112basic_stringIcSt11char_traitsIcESaIcEED1Ev(%"class.std::__cxx11::basic_string"* nonnull align 8 dereferenceable(32) %8) #2, !llfi_index !1608
  ret void, !llfi_index !1609

378:                                              ; preds = %330, %81
  call void @_ZNSt7__cxx1112basic_stringIcSt11char_traitsIcESaIcEED1Ev(%"class.std::__cxx11::basic_string"* nonnull align 8 dereferenceable(32) %8) #2, !llfi_index !1610
  br label %379, !llfi_index !1611

379:                                              ; preds = %378
  %380 = load i8*, i8** %9, align 8, !llfi_index !1612
  %381 = load i32, i32* %10, align 4, !llfi_index !1613
  %382 = insertvalue { i8*, i32 } undef, i8* %380, 0, !llfi_index !1614
  %383 = insertvalue { i8*, i32 } %382, i32 %381, 1, !llfi_index !1615
  resume { i8*, i32 } %383, !llfi_index !1616
}

; Function Attrs: nounwind
declare dso_local void @_ZNSt7__cxx1112basic_stringIcSt11char_traitsIcESaIcEEC1Ev(%"class.std::__cxx11::basic_string"* nonnull align 8 dereferenceable(32)) unnamed_addr #10

; Function Attrs: argmemonly nofree nounwind willreturn writeonly
declare void @llvm.memset.p0i8.i64(i8* nocapture writeonly, i8, i64, i1 immarg) #11

declare dso_local nonnull align 8 dereferenceable(16) %"class.std::basic_istream"* @_ZNSirsERi(%"class.std::basic_istream"* nonnull align 8 dereferenceable(16), i32* nonnull align 4 dereferenceable(4)) #9

; Function Attrs: mustprogress noinline uwtable
define linkonce_odr dso_local void @_ZN11SegTree_maxIiLi262144EE6updateEii(%class.SegTree_max* nonnull align 8 dereferenceable(24) %0, i32 %1, i32 %2) #4 comdat align 2 {
  %4 = alloca %class.SegTree_max*, align 8, !llfi_index !1617
  %5 = alloca i32, align 4, !llfi_index !1618
  %6 = alloca i32, align 4, !llfi_index !1619
  store %class.SegTree_max* %0, %class.SegTree_max** %4, align 8, !llfi_index !1620
  store i32 %1, i32* %5, align 4, !llfi_index !1621
  store i32 %2, i32* %6, align 4, !llfi_index !1622
  %7 = load %class.SegTree_max*, %class.SegTree_max** %4, align 8, !llfi_index !1623
  %8 = load i32, i32* %5, align 4, !llfi_index !1624
  %9 = add nsw i32 %8, 262144, !llfi_index !1625
  store i32 %9, i32* %5, align 4, !llfi_index !1626
  %10 = load i32, i32* %6, align 4, !llfi_index !1627
  %11 = getelementptr inbounds %class.SegTree_max, %class.SegTree_max* %7, i32 0, i32 0, !llfi_index !1628
  %12 = load i32, i32* %5, align 4, !llfi_index !1629
  %13 = sext i32 %12 to i64, !llfi_index !1630
  %14 = call nonnull align 4 dereferenceable(4) i32* @_ZNSt6vectorIiSaIiEEixEm(%"class.std::vector"* nonnull align 8 dereferenceable(24) %11, i64 %13) #2, !llfi_index !1631
  store i32 %10, i32* %14, align 4, !llfi_index !1632
  br label %15, !llfi_index !1633

15:                                               ; preds = %18, %3
  %16 = load i32, i32* %5, align 4, !llfi_index !1634
  %17 = icmp sgt i32 %16, 1, !llfi_index !1635
  br i1 %17, label %18, label %39, !llfi_index !1636

18:                                               ; preds = %15
  %19 = load i32, i32* %5, align 4, !llfi_index !1637
  %20 = ashr i32 %19, 1, !llfi_index !1638
  store i32 %20, i32* %5, align 4, !llfi_index !1639
  %21 = getelementptr inbounds %class.SegTree_max, %class.SegTree_max* %7, i32 0, i32 0, !llfi_index !1640
  %22 = load i32, i32* %5, align 4, !llfi_index !1641
  %23 = mul nsw i32 %22, 2, !llfi_index !1642
  %24 = sext i32 %23 to i64, !llfi_index !1643
  %25 = call nonnull align 4 dereferenceable(4) i32* @_ZNSt6vectorIiSaIiEEixEm(%"class.std::vector"* nonnull align 8 dereferenceable(24) %21, i64 %24) #2, !llfi_index !1644
  %26 = load i32, i32* %25, align 4, !llfi_index !1645
  %27 = getelementptr inbounds %class.SegTree_max, %class.SegTree_max* %7, i32 0, i32 0, !llfi_index !1646
  %28 = load i32, i32* %5, align 4, !llfi_index !1647
  %29 = mul nsw i32 %28, 2, !llfi_index !1648
  %30 = add nsw i32 %29, 1, !llfi_index !1649
  %31 = sext i32 %30 to i64, !llfi_index !1650
  %32 = call nonnull align 4 dereferenceable(4) i32* @_ZNSt6vectorIiSaIiEEixEm(%"class.std::vector"* nonnull align 8 dereferenceable(24) %27, i64 %31) #2, !llfi_index !1651
  %33 = load i32, i32* %32, align 4, !llfi_index !1652
  %34 = call i32 @_ZN11SegTree_maxIiLi262144EE4compEii(%class.SegTree_max* nonnull align 8 dereferenceable(24) %7, i32 %26, i32 %33), !llfi_index !1653
  %35 = getelementptr inbounds %class.SegTree_max, %class.SegTree_max* %7, i32 0, i32 0, !llfi_index !1654
  %36 = load i32, i32* %5, align 4, !llfi_index !1655
  %37 = sext i32 %36 to i64, !llfi_index !1656
  %38 = call nonnull align 4 dereferenceable(4) i32* @_ZNSt6vectorIiSaIiEEixEm(%"class.std::vector"* nonnull align 8 dereferenceable(24) %35, i64 %37) #2, !llfi_index !1657
  store i32 %34, i32* %38, align 4, !llfi_index !1658
  br label %15, !llvm.loop !1659, !llfi_index !1660

39:                                               ; preds = %15
  ret void, !llfi_index !1661
}

; Function Attrs: mustprogress noinline uwtable
define linkonce_odr dso_local void @_ZN11SegTree_minIiLi262144EE6updateEii(%class.SegTree_max* nonnull align 8 dereferenceable(24) %0, i32 %1, i32 %2) #4 comdat align 2 {
  %4 = alloca %class.SegTree_max*, align 8, !llfi_index !1662
  %5 = alloca i32, align 4, !llfi_index !1663
  %6 = alloca i32, align 4, !llfi_index !1664
  store %class.SegTree_max* %0, %class.SegTree_max** %4, align 8, !llfi_index !1665
  store i32 %1, i32* %5, align 4, !llfi_index !1666
  store i32 %2, i32* %6, align 4, !llfi_index !1667
  %7 = load %class.SegTree_max*, %class.SegTree_max** %4, align 8, !llfi_index !1668
  %8 = load i32, i32* %5, align 4, !llfi_index !1669
  %9 = add nsw i32 %8, 262144, !llfi_index !1670
  store i32 %9, i32* %5, align 4, !llfi_index !1671
  %10 = load i32, i32* %6, align 4, !llfi_index !1672
  %11 = getelementptr inbounds %class.SegTree_max, %class.SegTree_max* %7, i32 0, i32 0, !llfi_index !1673
  %12 = load i32, i32* %5, align 4, !llfi_index !1674
  %13 = sext i32 %12 to i64, !llfi_index !1675
  %14 = call nonnull align 4 dereferenceable(4) i32* @_ZNSt6vectorIiSaIiEEixEm(%"class.std::vector"* nonnull align 8 dereferenceable(24) %11, i64 %13) #2, !llfi_index !1676
  store i32 %10, i32* %14, align 4, !llfi_index !1677
  br label %15, !llfi_index !1678

15:                                               ; preds = %18, %3
  %16 = load i32, i32* %5, align 4, !llfi_index !1679
  %17 = icmp sgt i32 %16, 1, !llfi_index !1680
  br i1 %17, label %18, label %39, !llfi_index !1681

18:                                               ; preds = %15
  %19 = load i32, i32* %5, align 4, !llfi_index !1682
  %20 = ashr i32 %19, 1, !llfi_index !1683
  store i32 %20, i32* %5, align 4, !llfi_index !1684
  %21 = getelementptr inbounds %class.SegTree_max, %class.SegTree_max* %7, i32 0, i32 0, !llfi_index !1685
  %22 = load i32, i32* %5, align 4, !llfi_index !1686
  %23 = mul nsw i32 %22, 2, !llfi_index !1687
  %24 = sext i32 %23 to i64, !llfi_index !1688
  %25 = call nonnull align 4 dereferenceable(4) i32* @_ZNSt6vectorIiSaIiEEixEm(%"class.std::vector"* nonnull align 8 dereferenceable(24) %21, i64 %24) #2, !llfi_index !1689
  %26 = load i32, i32* %25, align 4, !llfi_index !1690
  %27 = getelementptr inbounds %class.SegTree_max, %class.SegTree_max* %7, i32 0, i32 0, !llfi_index !1691
  %28 = load i32, i32* %5, align 4, !llfi_index !1692
  %29 = mul nsw i32 %28, 2, !llfi_index !1693
  %30 = add nsw i32 %29, 1, !llfi_index !1694
  %31 = sext i32 %30 to i64, !llfi_index !1695
  %32 = call nonnull align 4 dereferenceable(4) i32* @_ZNSt6vectorIiSaIiEEixEm(%"class.std::vector"* nonnull align 8 dereferenceable(24) %27, i64 %31) #2, !llfi_index !1696
  %33 = load i32, i32* %32, align 4, !llfi_index !1697
  %34 = call i32 @_ZN11SegTree_minIiLi262144EE4compEii(%class.SegTree_max* nonnull align 8 dereferenceable(24) %7, i32 %26, i32 %33), !llfi_index !1698
  %35 = getelementptr inbounds %class.SegTree_max, %class.SegTree_max* %7, i32 0, i32 0, !llfi_index !1699
  %36 = load i32, i32* %5, align 4, !llfi_index !1700
  %37 = sext i32 %36 to i64, !llfi_index !1701
  %38 = call nonnull align 4 dereferenceable(4) i32* @_ZNSt6vectorIiSaIiEEixEm(%"class.std::vector"* nonnull align 8 dereferenceable(24) %35, i64 %37) #2, !llfi_index !1702
  store i32 %34, i32* %38, align 4, !llfi_index !1703
  br label %15, !llvm.loop !1704, !llfi_index !1705

39:                                               ; preds = %15
  ret void, !llfi_index !1706
}

; Function Attrs: mustprogress noinline uwtable
define linkonce_odr dso_local void @_ZN10SegTree_orIiLi262144EE6updateEii(%class.SegTree_max* nonnull align 8 dereferenceable(24) %0, i32 %1, i32 %2) #4 comdat align 2 {
  %4 = alloca %class.SegTree_max*, align 8, !llfi_index !1707
  %5 = alloca i32, align 4, !llfi_index !1708
  %6 = alloca i32, align 4, !llfi_index !1709
  store %class.SegTree_max* %0, %class.SegTree_max** %4, align 8, !llfi_index !1710
  store i32 %1, i32* %5, align 4, !llfi_index !1711
  store i32 %2, i32* %6, align 4, !llfi_index !1712
  %7 = load %class.SegTree_max*, %class.SegTree_max** %4, align 8, !llfi_index !1713
  %8 = load i32, i32* %5, align 4, !llfi_index !1714
  %9 = add nsw i32 %8, 262144, !llfi_index !1715
  store i32 %9, i32* %5, align 4, !llfi_index !1716
  %10 = load i32, i32* %6, align 4, !llfi_index !1717
  %11 = getelementptr inbounds %class.SegTree_max, %class.SegTree_max* %7, i32 0, i32 0, !llfi_index !1718
  %12 = load i32, i32* %5, align 4, !llfi_index !1719
  %13 = sext i32 %12 to i64, !llfi_index !1720
  %14 = call nonnull align 4 dereferenceable(4) i32* @_ZNSt6vectorIiSaIiEEixEm(%"class.std::vector"* nonnull align 8 dereferenceable(24) %11, i64 %13) #2, !llfi_index !1721
  store i32 %10, i32* %14, align 4, !llfi_index !1722
  br label %15, !llfi_index !1723

15:                                               ; preds = %18, %3
  %16 = load i32, i32* %5, align 4, !llfi_index !1724
  %17 = icmp sgt i32 %16, 1, !llfi_index !1725
  br i1 %17, label %18, label %39, !llfi_index !1726

18:                                               ; preds = %15
  %19 = load i32, i32* %5, align 4, !llfi_index !1727
  %20 = ashr i32 %19, 1, !llfi_index !1728
  store i32 %20, i32* %5, align 4, !llfi_index !1729
  %21 = getelementptr inbounds %class.SegTree_max, %class.SegTree_max* %7, i32 0, i32 0, !llfi_index !1730
  %22 = load i32, i32* %5, align 4, !llfi_index !1731
  %23 = mul nsw i32 %22, 2, !llfi_index !1732
  %24 = sext i32 %23 to i64, !llfi_index !1733
  %25 = call nonnull align 4 dereferenceable(4) i32* @_ZNSt6vectorIiSaIiEEixEm(%"class.std::vector"* nonnull align 8 dereferenceable(24) %21, i64 %24) #2, !llfi_index !1734
  %26 = load i32, i32* %25, align 4, !llfi_index !1735
  %27 = getelementptr inbounds %class.SegTree_max, %class.SegTree_max* %7, i32 0, i32 0, !llfi_index !1736
  %28 = load i32, i32* %5, align 4, !llfi_index !1737
  %29 = mul nsw i32 %28, 2, !llfi_index !1738
  %30 = add nsw i32 %29, 1, !llfi_index !1739
  %31 = sext i32 %30 to i64, !llfi_index !1740
  %32 = call nonnull align 4 dereferenceable(4) i32* @_ZNSt6vectorIiSaIiEEixEm(%"class.std::vector"* nonnull align 8 dereferenceable(24) %27, i64 %31) #2, !llfi_index !1741
  %33 = load i32, i32* %32, align 4, !llfi_index !1742
  %34 = call i32 @_ZN10SegTree_orIiLi262144EE4compEii(%class.SegTree_max* nonnull align 8 dereferenceable(24) %7, i32 %26, i32 %33), !llfi_index !1743
  %35 = getelementptr inbounds %class.SegTree_max, %class.SegTree_max* %7, i32 0, i32 0, !llfi_index !1744
  %36 = load i32, i32* %5, align 4, !llfi_index !1745
  %37 = sext i32 %36 to i64, !llfi_index !1746
  %38 = call nonnull align 4 dereferenceable(4) i32* @_ZNSt6vectorIiSaIiEEixEm(%"class.std::vector"* nonnull align 8 dereferenceable(24) %35, i64 %37) #2, !llfi_index !1747
  store i32 %34, i32* %38, align 4, !llfi_index !1748
  br label %15, !llvm.loop !1749, !llfi_index !1750

39:                                               ; preds = %15
  ret void, !llfi_index !1751
}

; Function Attrs: mustprogress noinline uwtable
define linkonce_odr dso_local void @_ZN11SegTree_andIiLi262144EE6updateEii(%class.SegTree_max* nonnull align 8 dereferenceable(24) %0, i32 %1, i32 %2) #4 comdat align 2 {
  %4 = alloca %class.SegTree_max*, align 8, !llfi_index !1752
  %5 = alloca i32, align 4, !llfi_index !1753
  %6 = alloca i32, align 4, !llfi_index !1754
  store %class.SegTree_max* %0, %class.SegTree_max** %4, align 8, !llfi_index !1755
  store i32 %1, i32* %5, align 4, !llfi_index !1756
  store i32 %2, i32* %6, align 4, !llfi_index !1757
  %7 = load %class.SegTree_max*, %class.SegTree_max** %4, align 8, !llfi_index !1758
  %8 = load i32, i32* %5, align 4, !llfi_index !1759
  %9 = add nsw i32 %8, 262144, !llfi_index !1760
  store i32 %9, i32* %5, align 4, !llfi_index !1761
  %10 = load i32, i32* %6, align 4, !llfi_index !1762
  %11 = getelementptr inbounds %class.SegTree_max, %class.SegTree_max* %7, i32 0, i32 0, !llfi_index !1763
  %12 = load i32, i32* %5, align 4, !llfi_index !1764
  %13 = sext i32 %12 to i64, !llfi_index !1765
  %14 = call nonnull align 4 dereferenceable(4) i32* @_ZNSt6vectorIiSaIiEEixEm(%"class.std::vector"* nonnull align 8 dereferenceable(24) %11, i64 %13) #2, !llfi_index !1766
  store i32 %10, i32* %14, align 4, !llfi_index !1767
  br label %15, !llfi_index !1768

15:                                               ; preds = %18, %3
  %16 = load i32, i32* %5, align 4, !llfi_index !1769
  %17 = icmp sgt i32 %16, 1, !llfi_index !1770
  br i1 %17, label %18, label %39, !llfi_index !1771

18:                                               ; preds = %15
  %19 = load i32, i32* %5, align 4, !llfi_index !1772
  %20 = ashr i32 %19, 1, !llfi_index !1773
  store i32 %20, i32* %5, align 4, !llfi_index !1774
  %21 = getelementptr inbounds %class.SegTree_max, %class.SegTree_max* %7, i32 0, i32 0, !llfi_index !1775
  %22 = load i32, i32* %5, align 4, !llfi_index !1776
  %23 = mul nsw i32 %22, 2, !llfi_index !1777
  %24 = sext i32 %23 to i64, !llfi_index !1778
  %25 = call nonnull align 4 dereferenceable(4) i32* @_ZNSt6vectorIiSaIiEEixEm(%"class.std::vector"* nonnull align 8 dereferenceable(24) %21, i64 %24) #2, !llfi_index !1779
  %26 = load i32, i32* %25, align 4, !llfi_index !1780
  %27 = getelementptr inbounds %class.SegTree_max, %class.SegTree_max* %7, i32 0, i32 0, !llfi_index !1781
  %28 = load i32, i32* %5, align 4, !llfi_index !1782
  %29 = mul nsw i32 %28, 2, !llfi_index !1783
  %30 = add nsw i32 %29, 1, !llfi_index !1784
  %31 = sext i32 %30 to i64, !llfi_index !1785
  %32 = call nonnull align 4 dereferenceable(4) i32* @_ZNSt6vectorIiSaIiEEixEm(%"class.std::vector"* nonnull align 8 dereferenceable(24) %27, i64 %31) #2, !llfi_index !1786
  %33 = load i32, i32* %32, align 4, !llfi_index !1787
  %34 = call i32 @_ZN11SegTree_andIiLi262144EE4compEii(%class.SegTree_max* nonnull align 8 dereferenceable(24) %7, i32 %26, i32 %33), !llfi_index !1788
  %35 = getelementptr inbounds %class.SegTree_max, %class.SegTree_max* %7, i32 0, i32 0, !llfi_index !1789
  %36 = load i32, i32* %5, align 4, !llfi_index !1790
  %37 = sext i32 %36 to i64, !llfi_index !1791
  %38 = call nonnull align 4 dereferenceable(4) i32* @_ZNSt6vectorIiSaIiEEixEm(%"class.std::vector"* nonnull align 8 dereferenceable(24) %35, i64 %37) #2, !llfi_index !1792
  store i32 %34, i32* %38, align 4, !llfi_index !1793
  br label %15, !llvm.loop !1794, !llfi_index !1795

39:                                               ; preds = %15
  ret void, !llfi_index !1796
}

; Function Attrs: mustprogress noinline uwtable
define linkonce_odr dso_local { %"struct.std::_Rb_tree_node_base"*, i8 } @_ZNSt3setIiSt4lessIiESaIiEE6insertERKi(%"class.std::set"* nonnull align 8 dereferenceable(48) %0, i32* nonnull align 4 dereferenceable(4) %1) #4 comdat align 2 {
  %3 = alloca %"struct.std::pair", align 8, !llfi_index !1797
  %4 = alloca %"class.std::set"*, align 8, !llfi_index !1798
  %5 = alloca i32*, align 8, !llfi_index !1799
  %6 = alloca %"struct.std::pair", align 8, !llfi_index !1800
  store %"class.std::set"* %0, %"class.std::set"** %4, align 8, !llfi_index !1801
  store i32* %1, i32** %5, align 8, !llfi_index !1802
  %7 = load %"class.std::set"*, %"class.std::set"** %4, align 8, !llfi_index !1803
  %8 = getelementptr inbounds %"class.std::set", %"class.std::set"* %7, i32 0, i32 0, !llfi_index !1804
  %9 = load i32*, i32** %5, align 8, !llfi_index !1805
  %10 = call { %"struct.std::_Rb_tree_node_base"*, i8 } @_ZNSt8_Rb_treeIiiSt9_IdentityIiESt4lessIiESaIiEE16_M_insert_uniqueIRKiEESt4pairISt17_Rb_tree_iteratorIiEbEOT_(%"class.std::_Rb_tree"* nonnull align 8 dereferenceable(48) %8, i32* nonnull align 4 dereferenceable(4) %9), !llfi_index !1806
  %11 = bitcast %"struct.std::pair"* %6 to { %"struct.std::_Rb_tree_node_base"*, i8 }*, !llfi_index !1807
  %12 = getelementptr inbounds { %"struct.std::_Rb_tree_node_base"*, i8 }, { %"struct.std::_Rb_tree_node_base"*, i8 }* %11, i32 0, i32 0, !llfi_index !1808
  %13 = extractvalue { %"struct.std::_Rb_tree_node_base"*, i8 } %10, 0, !llfi_index !1809
  store %"struct.std::_Rb_tree_node_base"* %13, %"struct.std::_Rb_tree_node_base"** %12, align 8, !llfi_index !1810
  %14 = getelementptr inbounds { %"struct.std::_Rb_tree_node_base"*, i8 }, { %"struct.std::_Rb_tree_node_base"*, i8 }* %11, i32 0, i32 1, !llfi_index !1811
  %15 = extractvalue { %"struct.std::_Rb_tree_node_base"*, i8 } %10, 1, !llfi_index !1812
  store i8 %15, i8* %14, align 8, !llfi_index !1813
  %16 = getelementptr inbounds %"struct.std::pair", %"struct.std::pair"* %6, i32 0, i32 0, !llfi_index !1814
  %17 = getelementptr inbounds %"struct.std::pair", %"struct.std::pair"* %6, i32 0, i32 1, !llfi_index !1815
  call void @_ZNSt4pairISt23_Rb_tree_const_iteratorIiEbEC2IRSt17_Rb_tree_iteratorIiERbLb1EEEOT_OT0_(%"struct.std::pair"* nonnull align 8 dereferenceable(9) %3, %"struct.std::_Rb_tree_const_iterator"* nonnull align 8 dereferenceable(8) %16, i8* nonnull align 1 dereferenceable(1) %17), !llfi_index !1816
  %18 = bitcast %"struct.std::pair"* %3 to { %"struct.std::_Rb_tree_node_base"*, i8 }*, !llfi_index !1817
  %19 = load { %"struct.std::_Rb_tree_node_base"*, i8 }, { %"struct.std::_Rb_tree_node_base"*, i8 }* %18, align 8, !llfi_index !1818
  ret { %"struct.std::_Rb_tree_node_base"*, i8 } %19, !llfi_index !1819
}

; Function Attrs: mustprogress noinline uwtable
define linkonce_odr dso_local i64 @_ZNSt3setIiSt4lessIiESaIiEE5eraseERKi(%"class.std::set"* nonnull align 8 dereferenceable(48) %0, i32* nonnull align 4 dereferenceable(4) %1) #4 comdat align 2 {
  %3 = alloca %"class.std::set"*, align 8, !llfi_index !1820
  %4 = alloca i32*, align 8, !llfi_index !1821
  store %"class.std::set"* %0, %"class.std::set"** %3, align 8, !llfi_index !1822
  store i32* %1, i32** %4, align 8, !llfi_index !1823
  %5 = load %"class.std::set"*, %"class.std::set"** %3, align 8, !llfi_index !1824
  %6 = getelementptr inbounds %"class.std::set", %"class.std::set"* %5, i32 0, i32 0, !llfi_index !1825
  %7 = load i32*, i32** %4, align 8, !llfi_index !1826
  %8 = call i64 @_ZNSt8_Rb_treeIiiSt9_IdentityIiESt4lessIiESaIiEE5eraseERKi(%"class.std::_Rb_tree"* nonnull align 8 dereferenceable(48) %6, i32* nonnull align 4 dereferenceable(4) %7), !llfi_index !1827
  ret i64 %8, !llfi_index !1828
}

; Function Attrs: mustprogress noinline nounwind uwtable
define linkonce_odr dso_local %"struct.std::_Rb_tree_node_base"* @_ZNKSt3setIiSt4lessIiESaIiEE5beginEv(%"class.std::set"* nonnull align 8 dereferenceable(48) %0) #3 comdat align 2 {
  %2 = alloca %"struct.std::_Rb_tree_const_iterator", align 8, !llfi_index !1829
  %3 = alloca %"class.std::set"*, align 8, !llfi_index !1830
  store %"class.std::set"* %0, %"class.std::set"** %3, align 8, !llfi_index !1831
  %4 = load %"class.std::set"*, %"class.std::set"** %3, align 8, !llfi_index !1832
  %5 = getelementptr inbounds %"class.std::set", %"class.std::set"* %4, i32 0, i32 0, !llfi_index !1833
  %6 = call %"struct.std::_Rb_tree_node_base"* @_ZNKSt8_Rb_treeIiiSt9_IdentityIiESt4lessIiESaIiEE5beginEv(%"class.std::_Rb_tree"* nonnull align 8 dereferenceable(48) %5) #2, !llfi_index !1834
  %7 = getelementptr inbounds %"struct.std::_Rb_tree_const_iterator", %"struct.std::_Rb_tree_const_iterator"* %2, i32 0, i32 0, !llfi_index !1835
  store %"struct.std::_Rb_tree_node_base"* %6, %"struct.std::_Rb_tree_node_base"** %7, align 8, !llfi_index !1836
  %8 = getelementptr inbounds %"struct.std::_Rb_tree_const_iterator", %"struct.std::_Rb_tree_const_iterator"* %2, i32 0, i32 0, !llfi_index !1837
  %9 = load %"struct.std::_Rb_tree_node_base"*, %"struct.std::_Rb_tree_node_base"** %8, align 8, !llfi_index !1838
  ret %"struct.std::_Rb_tree_node_base"* %9, !llfi_index !1839
}

; Function Attrs: mustprogress noinline nounwind uwtable
define linkonce_odr dso_local %"struct.std::_Rb_tree_node_base"* @_ZNKSt3setIiSt4lessIiESaIiEE3endEv(%"class.std::set"* nonnull align 8 dereferenceable(48) %0) #3 comdat align 2 {
  %2 = alloca %"struct.std::_Rb_tree_const_iterator", align 8, !llfi_index !1840
  %3 = alloca %"class.std::set"*, align 8, !llfi_index !1841
  store %"class.std::set"* %0, %"class.std::set"** %3, align 8, !llfi_index !1842
  %4 = load %"class.std::set"*, %"class.std::set"** %3, align 8, !llfi_index !1843
  %5 = getelementptr inbounds %"class.std::set", %"class.std::set"* %4, i32 0, i32 0, !llfi_index !1844
  %6 = call %"struct.std::_Rb_tree_node_base"* @_ZNKSt8_Rb_treeIiiSt9_IdentityIiESt4lessIiESaIiEE3endEv(%"class.std::_Rb_tree"* nonnull align 8 dereferenceable(48) %5) #2, !llfi_index !1845
  %7 = getelementptr inbounds %"struct.std::_Rb_tree_const_iterator", %"struct.std::_Rb_tree_const_iterator"* %2, i32 0, i32 0, !llfi_index !1846
  store %"struct.std::_Rb_tree_node_base"* %6, %"struct.std::_Rb_tree_node_base"** %7, align 8, !llfi_index !1847
  %8 = getelementptr inbounds %"struct.std::_Rb_tree_const_iterator", %"struct.std::_Rb_tree_const_iterator"* %2, i32 0, i32 0, !llfi_index !1848
  %9 = load %"struct.std::_Rb_tree_node_base"*, %"struct.std::_Rb_tree_node_base"** %8, align 8, !llfi_index !1849
  ret %"struct.std::_Rb_tree_node_base"* %9, !llfi_index !1850
}

; Function Attrs: mustprogress noinline nounwind uwtable
define linkonce_odr dso_local zeroext i1 @_ZStneRKSt23_Rb_tree_const_iteratorIiES2_(%"struct.std::_Rb_tree_const_iterator"* nonnull align 8 dereferenceable(8) %0, %"struct.std::_Rb_tree_const_iterator"* nonnull align 8 dereferenceable(8) %1) #3 comdat {
  %3 = alloca %"struct.std::_Rb_tree_const_iterator"*, align 8, !llfi_index !1851
  %4 = alloca %"struct.std::_Rb_tree_const_iterator"*, align 8, !llfi_index !1852
  store %"struct.std::_Rb_tree_const_iterator"* %0, %"struct.std::_Rb_tree_const_iterator"** %3, align 8, !llfi_index !1853
  store %"struct.std::_Rb_tree_const_iterator"* %1, %"struct.std::_Rb_tree_const_iterator"** %4, align 8, !llfi_index !1854
  %5 = load %"struct.std::_Rb_tree_const_iterator"*, %"struct.std::_Rb_tree_const_iterator"** %3, align 8, !llfi_index !1855
  %6 = getelementptr inbounds %"struct.std::_Rb_tree_const_iterator", %"struct.std::_Rb_tree_const_iterator"* %5, i32 0, i32 0, !llfi_index !1856
  %7 = load %"struct.std::_Rb_tree_node_base"*, %"struct.std::_Rb_tree_node_base"** %6, align 8, !llfi_index !1857
  %8 = load %"struct.std::_Rb_tree_const_iterator"*, %"struct.std::_Rb_tree_const_iterator"** %4, align 8, !llfi_index !1858
  %9 = getelementptr inbounds %"struct.std::_Rb_tree_const_iterator", %"struct.std::_Rb_tree_const_iterator"* %8, i32 0, i32 0, !llfi_index !1859
  %10 = load %"struct.std::_Rb_tree_node_base"*, %"struct.std::_Rb_tree_node_base"** %9, align 8, !llfi_index !1860
  %11 = icmp ne %"struct.std::_Rb_tree_node_base"* %7, %10, !llfi_index !1861
  ret i1 %11, !llfi_index !1862
}

; Function Attrs: mustprogress noinline nounwind uwtable
define linkonce_odr dso_local nonnull align 4 dereferenceable(4) i32* @_ZNKSt23_Rb_tree_const_iteratorIiEdeEv(%"struct.std::_Rb_tree_const_iterator"* nonnull align 8 dereferenceable(8) %0) #3 comdat align 2 {
  %2 = alloca %"struct.std::_Rb_tree_const_iterator"*, align 8, !llfi_index !1863
  store %"struct.std::_Rb_tree_const_iterator"* %0, %"struct.std::_Rb_tree_const_iterator"** %2, align 8, !llfi_index !1864
  %3 = load %"struct.std::_Rb_tree_const_iterator"*, %"struct.std::_Rb_tree_const_iterator"** %2, align 8, !llfi_index !1865
  %4 = getelementptr inbounds %"struct.std::_Rb_tree_const_iterator", %"struct.std::_Rb_tree_const_iterator"* %3, i32 0, i32 0, !llfi_index !1866
  %5 = load %"struct.std::_Rb_tree_node_base"*, %"struct.std::_Rb_tree_node_base"** %4, align 8, !llfi_index !1867
  %6 = bitcast %"struct.std::_Rb_tree_node_base"* %5 to %"struct.std::_Rb_tree_node"*, !llfi_index !1868
  %7 = call i32* @_ZNKSt13_Rb_tree_nodeIiE9_M_valptrEv(%"struct.std::_Rb_tree_node"* nonnull align 8 dereferenceable(36) %6), !llfi_index !1869
  ret i32* %7, !llfi_index !1870
}

; Function Attrs: mustprogress noinline uwtable
define linkonce_odr dso_local i32 @_ZN11SegTree_maxIiLi262144EE6getvalEiiiii(%class.SegTree_max* nonnull align 8 dereferenceable(24) %0, i32 %1, i32 %2, i32 %3, i32 %4, i32 %5) #4 comdat align 2 {
  %7 = alloca i32, align 4, !llfi_index !1871
  %8 = alloca %class.SegTree_max*, align 8, !llfi_index !1872
  %9 = alloca i32, align 4, !llfi_index !1873
  %10 = alloca i32, align 4, !llfi_index !1874
  %11 = alloca i32, align 4, !llfi_index !1875
  %12 = alloca i32, align 4, !llfi_index !1876
  %13 = alloca i32, align 4, !llfi_index !1877
  store %class.SegTree_max* %0, %class.SegTree_max** %8, align 8, !llfi_index !1878
  store i32 %1, i32* %9, align 4, !llfi_index !1879
  store i32 %2, i32* %10, align 4, !llfi_index !1880
  store i32 %3, i32* %11, align 4, !llfi_index !1881
  store i32 %4, i32* %12, align 4, !llfi_index !1882
  store i32 %5, i32* %13, align 4, !llfi_index !1883
  %14 = load %class.SegTree_max*, %class.SegTree_max** %8, align 8, !llfi_index !1884
  %15 = load i32, i32* %12, align 4, !llfi_index !1885
  %16 = load i32, i32* %9, align 4, !llfi_index !1886
  %17 = icmp sle i32 %15, %16, !llfi_index !1887
  br i1 %17, label %22, label %18, !llfi_index !1888

18:                                               ; preds = %6
  %19 = load i32, i32* %10, align 4, !llfi_index !1889
  %20 = load i32, i32* %11, align 4, !llfi_index !1890
  %21 = icmp sle i32 %19, %20, !llfi_index !1891
  br i1 %21, label %22, label %23, !llfi_index !1892

22:                                               ; preds = %18, %6
  store i32 0, i32* %7, align 4, !llfi_index !1893
  br label %60, !llfi_index !1894

23:                                               ; preds = %18
  %24 = load i32, i32* %9, align 4, !llfi_index !1895
  %25 = load i32, i32* %11, align 4, !llfi_index !1896
  %26 = icmp sle i32 %24, %25, !llfi_index !1897
  br i1 %26, label %27, label %37, !llfi_index !1898

27:                                               ; preds = %23
  %28 = load i32, i32* %12, align 4, !llfi_index !1899
  %29 = load i32, i32* %10, align 4, !llfi_index !1900
  %30 = icmp sle i32 %28, %29, !llfi_index !1901
  br i1 %30, label %31, label %37, !llfi_index !1902

31:                                               ; preds = %27
  %32 = getelementptr inbounds %class.SegTree_max, %class.SegTree_max* %14, i32 0, i32 0, !llfi_index !1903
  %33 = load i32, i32* %13, align 4, !llfi_index !1904
  %34 = sext i32 %33 to i64, !llfi_index !1905
  %35 = call nonnull align 4 dereferenceable(4) i32* @_ZNSt6vectorIiSaIiEEixEm(%"class.std::vector"* nonnull align 8 dereferenceable(24) %32, i64 %34) #2, !llfi_index !1906
  %36 = load i32, i32* %35, align 4, !llfi_index !1907
  store i32 %36, i32* %7, align 4, !llfi_index !1908
  br label %60, !llfi_index !1909

37:                                               ; preds = %27, %23
  %38 = load i32, i32* %9, align 4, !llfi_index !1910
  %39 = load i32, i32* %10, align 4, !llfi_index !1911
  %40 = load i32, i32* %11, align 4, !llfi_index !1912
  %41 = load i32, i32* %11, align 4, !llfi_index !1913
  %42 = load i32, i32* %12, align 4, !llfi_index !1914
  %43 = add nsw i32 %41, %42, !llfi_index !1915
  %44 = sdiv i32 %43, 2, !llfi_index !1916
  %45 = load i32, i32* %13, align 4, !llfi_index !1917
  %46 = mul nsw i32 %45, 2, !llfi_index !1918
  %47 = call i32 @_ZN11SegTree_maxIiLi262144EE6getvalEiiiii(%class.SegTree_max* nonnull align 8 dereferenceable(24) %14, i32 %38, i32 %39, i32 %40, i32 %44, i32 %46), !llfi_index !1919
  %48 = load i32, i32* %9, align 4, !llfi_index !1920
  %49 = load i32, i32* %10, align 4, !llfi_index !1921
  %50 = load i32, i32* %11, align 4, !llfi_index !1922
  %51 = load i32, i32* %12, align 4, !llfi_index !1923
  %52 = add nsw i32 %50, %51, !llfi_index !1924
  %53 = sdiv i32 %52, 2, !llfi_index !1925
  %54 = load i32, i32* %12, align 4, !llfi_index !1926
  %55 = load i32, i32* %13, align 4, !llfi_index !1927
  %56 = mul nsw i32 %55, 2, !llfi_index !1928
  %57 = add nsw i32 %56, 1, !llfi_index !1929
  %58 = call i32 @_ZN11SegTree_maxIiLi262144EE6getvalEiiiii(%class.SegTree_max* nonnull align 8 dereferenceable(24) %14, i32 %48, i32 %49, i32 %53, i32 %54, i32 %57), !llfi_index !1930
  %59 = call i32 @_ZN11SegTree_maxIiLi262144EE4compEii(%class.SegTree_max* nonnull align 8 dereferenceable(24) %14, i32 %47, i32 %58), !llfi_index !1931
  store i32 %59, i32* %7, align 4, !llfi_index !1932
  br label %60, !llfi_index !1933

60:                                               ; preds = %37, %31, %22
  %61 = load i32, i32* %7, align 4, !llfi_index !1934
  ret i32 %61, !llfi_index !1935
}

; Function Attrs: mustprogress noinline uwtable
define linkonce_odr dso_local i32 @_ZN11SegTree_minIiLi262144EE6getvalEiiiii(%class.SegTree_max* nonnull align 8 dereferenceable(24) %0, i32 %1, i32 %2, i32 %3, i32 %4, i32 %5) #4 comdat align 2 {
  %7 = alloca i32, align 4, !llfi_index !1936
  %8 = alloca %class.SegTree_max*, align 8, !llfi_index !1937
  %9 = alloca i32, align 4, !llfi_index !1938
  %10 = alloca i32, align 4, !llfi_index !1939
  %11 = alloca i32, align 4, !llfi_index !1940
  %12 = alloca i32, align 4, !llfi_index !1941
  %13 = alloca i32, align 4, !llfi_index !1942
  store %class.SegTree_max* %0, %class.SegTree_max** %8, align 8, !llfi_index !1943
  store i32 %1, i32* %9, align 4, !llfi_index !1944
  store i32 %2, i32* %10, align 4, !llfi_index !1945
  store i32 %3, i32* %11, align 4, !llfi_index !1946
  store i32 %4, i32* %12, align 4, !llfi_index !1947
  store i32 %5, i32* %13, align 4, !llfi_index !1948
  %14 = load %class.SegTree_max*, %class.SegTree_max** %8, align 8, !llfi_index !1949
  %15 = load i32, i32* %12, align 4, !llfi_index !1950
  %16 = load i32, i32* %9, align 4, !llfi_index !1951
  %17 = icmp sle i32 %15, %16, !llfi_index !1952
  br i1 %17, label %22, label %18, !llfi_index !1953

18:                                               ; preds = %6
  %19 = load i32, i32* %10, align 4, !llfi_index !1954
  %20 = load i32, i32* %11, align 4, !llfi_index !1955
  %21 = icmp sle i32 %19, %20, !llfi_index !1956
  br i1 %21, label %22, label %23, !llfi_index !1957

22:                                               ; preds = %18, %6
  store i32 1073741824, i32* %7, align 4, !llfi_index !1958
  br label %60, !llfi_index !1959

23:                                               ; preds = %18
  %24 = load i32, i32* %9, align 4, !llfi_index !1960
  %25 = load i32, i32* %11, align 4, !llfi_index !1961
  %26 = icmp sle i32 %24, %25, !llfi_index !1962
  br i1 %26, label %27, label %37, !llfi_index !1963

27:                                               ; preds = %23
  %28 = load i32, i32* %12, align 4, !llfi_index !1964
  %29 = load i32, i32* %10, align 4, !llfi_index !1965
  %30 = icmp sle i32 %28, %29, !llfi_index !1966
  br i1 %30, label %31, label %37, !llfi_index !1967

31:                                               ; preds = %27
  %32 = getelementptr inbounds %class.SegTree_max, %class.SegTree_max* %14, i32 0, i32 0, !llfi_index !1968
  %33 = load i32, i32* %13, align 4, !llfi_index !1969
  %34 = sext i32 %33 to i64, !llfi_index !1970
  %35 = call nonnull align 4 dereferenceable(4) i32* @_ZNSt6vectorIiSaIiEEixEm(%"class.std::vector"* nonnull align 8 dereferenceable(24) %32, i64 %34) #2, !llfi_index !1971
  %36 = load i32, i32* %35, align 4, !llfi_index !1972
  store i32 %36, i32* %7, align 4, !llfi_index !1973
  br label %60, !llfi_index !1974

37:                                               ; preds = %27, %23
  %38 = load i32, i32* %9, align 4, !llfi_index !1975
  %39 = load i32, i32* %10, align 4, !llfi_index !1976
  %40 = load i32, i32* %11, align 4, !llfi_index !1977
  %41 = load i32, i32* %11, align 4, !llfi_index !1978
  %42 = load i32, i32* %12, align 4, !llfi_index !1979
  %43 = add nsw i32 %41, %42, !llfi_index !1980
  %44 = sdiv i32 %43, 2, !llfi_index !1981
  %45 = load i32, i32* %13, align 4, !llfi_index !1982
  %46 = mul nsw i32 %45, 2, !llfi_index !1983
  %47 = call i32 @_ZN11SegTree_minIiLi262144EE6getvalEiiiii(%class.SegTree_max* nonnull align 8 dereferenceable(24) %14, i32 %38, i32 %39, i32 %40, i32 %44, i32 %46), !llfi_index !1984
  %48 = load i32, i32* %9, align 4, !llfi_index !1985
  %49 = load i32, i32* %10, align 4, !llfi_index !1986
  %50 = load i32, i32* %11, align 4, !llfi_index !1987
  %51 = load i32, i32* %12, align 4, !llfi_index !1988
  %52 = add nsw i32 %50, %51, !llfi_index !1989
  %53 = sdiv i32 %52, 2, !llfi_index !1990
  %54 = load i32, i32* %12, align 4, !llfi_index !1991
  %55 = load i32, i32* %13, align 4, !llfi_index !1992
  %56 = mul nsw i32 %55, 2, !llfi_index !1993
  %57 = add nsw i32 %56, 1, !llfi_index !1994
  %58 = call i32 @_ZN11SegTree_minIiLi262144EE6getvalEiiiii(%class.SegTree_max* nonnull align 8 dereferenceable(24) %14, i32 %48, i32 %49, i32 %53, i32 %54, i32 %57), !llfi_index !1995
  %59 = call i32 @_ZN11SegTree_minIiLi262144EE4compEii(%class.SegTree_max* nonnull align 8 dereferenceable(24) %14, i32 %47, i32 %58), !llfi_index !1996
  store i32 %59, i32* %7, align 4, !llfi_index !1997
  br label %60, !llfi_index !1998

60:                                               ; preds = %37, %31, %22
  %61 = load i32, i32* %7, align 4, !llfi_index !1999
  ret i32 %61, !llfi_index !2000
}

; Function Attrs: mustprogress noinline uwtable
define linkonce_odr dso_local i32 @_ZN10SegTree_orIiLi262144EE6getvalEiiiii(%class.SegTree_max* nonnull align 8 dereferenceable(24) %0, i32 %1, i32 %2, i32 %3, i32 %4, i32 %5) #4 comdat align 2 {
  %7 = alloca i32, align 4, !llfi_index !2001
  %8 = alloca %class.SegTree_max*, align 8, !llfi_index !2002
  %9 = alloca i32, align 4, !llfi_index !2003
  %10 = alloca i32, align 4, !llfi_index !2004
  %11 = alloca i32, align 4, !llfi_index !2005
  %12 = alloca i32, align 4, !llfi_index !2006
  %13 = alloca i32, align 4, !llfi_index !2007
  store %class.SegTree_max* %0, %class.SegTree_max** %8, align 8, !llfi_index !2008
  store i32 %1, i32* %9, align 4, !llfi_index !2009
  store i32 %2, i32* %10, align 4, !llfi_index !2010
  store i32 %3, i32* %11, align 4, !llfi_index !2011
  store i32 %4, i32* %12, align 4, !llfi_index !2012
  store i32 %5, i32* %13, align 4, !llfi_index !2013
  %14 = load %class.SegTree_max*, %class.SegTree_max** %8, align 8, !llfi_index !2014
  %15 = load i32, i32* %12, align 4, !llfi_index !2015
  %16 = load i32, i32* %9, align 4, !llfi_index !2016
  %17 = icmp sle i32 %15, %16, !llfi_index !2017
  br i1 %17, label %22, label %18, !llfi_index !2018

18:                                               ; preds = %6
  %19 = load i32, i32* %10, align 4, !llfi_index !2019
  %20 = load i32, i32* %11, align 4, !llfi_index !2020
  %21 = icmp sle i32 %19, %20, !llfi_index !2021
  br i1 %21, label %22, label %23, !llfi_index !2022

22:                                               ; preds = %18, %6
  store i32 0, i32* %7, align 4, !llfi_index !2023
  br label %60, !llfi_index !2024

23:                                               ; preds = %18
  %24 = load i32, i32* %9, align 4, !llfi_index !2025
  %25 = load i32, i32* %11, align 4, !llfi_index !2026
  %26 = icmp sle i32 %24, %25, !llfi_index !2027
  br i1 %26, label %27, label %37, !llfi_index !2028

27:                                               ; preds = %23
  %28 = load i32, i32* %12, align 4, !llfi_index !2029
  %29 = load i32, i32* %10, align 4, !llfi_index !2030
  %30 = icmp sle i32 %28, %29, !llfi_index !2031
  br i1 %30, label %31, label %37, !llfi_index !2032

31:                                               ; preds = %27
  %32 = getelementptr inbounds %class.SegTree_max, %class.SegTree_max* %14, i32 0, i32 0, !llfi_index !2033
  %33 = load i32, i32* %13, align 4, !llfi_index !2034
  %34 = sext i32 %33 to i64, !llfi_index !2035
  %35 = call nonnull align 4 dereferenceable(4) i32* @_ZNSt6vectorIiSaIiEEixEm(%"class.std::vector"* nonnull align 8 dereferenceable(24) %32, i64 %34) #2, !llfi_index !2036
  %36 = load i32, i32* %35, align 4, !llfi_index !2037
  store i32 %36, i32* %7, align 4, !llfi_index !2038
  br label %60, !llfi_index !2039

37:                                               ; preds = %27, %23
  %38 = load i32, i32* %9, align 4, !llfi_index !2040
  %39 = load i32, i32* %10, align 4, !llfi_index !2041
  %40 = load i32, i32* %11, align 4, !llfi_index !2042
  %41 = load i32, i32* %11, align 4, !llfi_index !2043
  %42 = load i32, i32* %12, align 4, !llfi_index !2044
  %43 = add nsw i32 %41, %42, !llfi_index !2045
  %44 = sdiv i32 %43, 2, !llfi_index !2046
  %45 = load i32, i32* %13, align 4, !llfi_index !2047
  %46 = mul nsw i32 %45, 2, !llfi_index !2048
  %47 = call i32 @_ZN10SegTree_orIiLi262144EE6getvalEiiiii(%class.SegTree_max* nonnull align 8 dereferenceable(24) %14, i32 %38, i32 %39, i32 %40, i32 %44, i32 %46), !llfi_index !2049
  %48 = load i32, i32* %9, align 4, !llfi_index !2050
  %49 = load i32, i32* %10, align 4, !llfi_index !2051
  %50 = load i32, i32* %11, align 4, !llfi_index !2052
  %51 = load i32, i32* %12, align 4, !llfi_index !2053
  %52 = add nsw i32 %50, %51, !llfi_index !2054
  %53 = sdiv i32 %52, 2, !llfi_index !2055
  %54 = load i32, i32* %12, align 4, !llfi_index !2056
  %55 = load i32, i32* %13, align 4, !llfi_index !2057
  %56 = mul nsw i32 %55, 2, !llfi_index !2058
  %57 = add nsw i32 %56, 1, !llfi_index !2059
  %58 = call i32 @_ZN10SegTree_orIiLi262144EE6getvalEiiiii(%class.SegTree_max* nonnull align 8 dereferenceable(24) %14, i32 %48, i32 %49, i32 %53, i32 %54, i32 %57), !llfi_index !2060
  %59 = call i32 @_ZN10SegTree_orIiLi262144EE4compEii(%class.SegTree_max* nonnull align 8 dereferenceable(24) %14, i32 %47, i32 %58), !llfi_index !2061
  store i32 %59, i32* %7, align 4, !llfi_index !2062
  br label %60, !llfi_index !2063

60:                                               ; preds = %37, %31, %22
  %61 = load i32, i32* %7, align 4, !llfi_index !2064
  ret i32 %61, !llfi_index !2065
}

; Function Attrs: mustprogress noinline uwtable
define linkonce_odr dso_local i32 @_ZN11SegTree_andIiLi262144EE6getvalEiiiii(%class.SegTree_max* nonnull align 8 dereferenceable(24) %0, i32 %1, i32 %2, i32 %3, i32 %4, i32 %5) #4 comdat align 2 {
  %7 = alloca i32, align 4, !llfi_index !2066
  %8 = alloca %class.SegTree_max*, align 8, !llfi_index !2067
  %9 = alloca i32, align 4, !llfi_index !2068
  %10 = alloca i32, align 4, !llfi_index !2069
  %11 = alloca i32, align 4, !llfi_index !2070
  %12 = alloca i32, align 4, !llfi_index !2071
  %13 = alloca i32, align 4, !llfi_index !2072
  store %class.SegTree_max* %0, %class.SegTree_max** %8, align 8, !llfi_index !2073
  store i32 %1, i32* %9, align 4, !llfi_index !2074
  store i32 %2, i32* %10, align 4, !llfi_index !2075
  store i32 %3, i32* %11, align 4, !llfi_index !2076
  store i32 %4, i32* %12, align 4, !llfi_index !2077
  store i32 %5, i32* %13, align 4, !llfi_index !2078
  %14 = load %class.SegTree_max*, %class.SegTree_max** %8, align 8, !llfi_index !2079
  %15 = load i32, i32* %12, align 4, !llfi_index !2080
  %16 = load i32, i32* %9, align 4, !llfi_index !2081
  %17 = icmp sle i32 %15, %16, !llfi_index !2082
  br i1 %17, label %22, label %18, !llfi_index !2083

18:                                               ; preds = %6
  %19 = load i32, i32* %10, align 4, !llfi_index !2084
  %20 = load i32, i32* %11, align 4, !llfi_index !2085
  %21 = icmp sle i32 %19, %20, !llfi_index !2086
  br i1 %21, label %22, label %23, !llfi_index !2087

22:                                               ; preds = %18, %6
  store i32 2147483647, i32* %7, align 4, !llfi_index !2088
  br label %60, !llfi_index !2089

23:                                               ; preds = %18
  %24 = load i32, i32* %9, align 4, !llfi_index !2090
  %25 = load i32, i32* %11, align 4, !llfi_index !2091
  %26 = icmp sle i32 %24, %25, !llfi_index !2092
  br i1 %26, label %27, label %37, !llfi_index !2093

27:                                               ; preds = %23
  %28 = load i32, i32* %12, align 4, !llfi_index !2094
  %29 = load i32, i32* %10, align 4, !llfi_index !2095
  %30 = icmp sle i32 %28, %29, !llfi_index !2096
  br i1 %30, label %31, label %37, !llfi_index !2097

31:                                               ; preds = %27
  %32 = getelementptr inbounds %class.SegTree_max, %class.SegTree_max* %14, i32 0, i32 0, !llfi_index !2098
  %33 = load i32, i32* %13, align 4, !llfi_index !2099
  %34 = sext i32 %33 to i64, !llfi_index !2100
  %35 = call nonnull align 4 dereferenceable(4) i32* @_ZNSt6vectorIiSaIiEEixEm(%"class.std::vector"* nonnull align 8 dereferenceable(24) %32, i64 %34) #2, !llfi_index !2101
  %36 = load i32, i32* %35, align 4, !llfi_index !2102
  store i32 %36, i32* %7, align 4, !llfi_index !2103
  br label %60, !llfi_index !2104

37:                                               ; preds = %27, %23
  %38 = load i32, i32* %9, align 4, !llfi_index !2105
  %39 = load i32, i32* %10, align 4, !llfi_index !2106
  %40 = load i32, i32* %11, align 4, !llfi_index !2107
  %41 = load i32, i32* %11, align 4, !llfi_index !2108
  %42 = load i32, i32* %12, align 4, !llfi_index !2109
  %43 = add nsw i32 %41, %42, !llfi_index !2110
  %44 = sdiv i32 %43, 2, !llfi_index !2111
  %45 = load i32, i32* %13, align 4, !llfi_index !2112
  %46 = mul nsw i32 %45, 2, !llfi_index !2113
  %47 = call i32 @_ZN11SegTree_andIiLi262144EE6getvalEiiiii(%class.SegTree_max* nonnull align 8 dereferenceable(24) %14, i32 %38, i32 %39, i32 %40, i32 %44, i32 %46), !llfi_index !2114
  %48 = load i32, i32* %9, align 4, !llfi_index !2115
  %49 = load i32, i32* %10, align 4, !llfi_index !2116
  %50 = load i32, i32* %11, align 4, !llfi_index !2117
  %51 = load i32, i32* %12, align 4, !llfi_index !2118
  %52 = add nsw i32 %50, %51, !llfi_index !2119
  %53 = sdiv i32 %52, 2, !llfi_index !2120
  %54 = load i32, i32* %12, align 4, !llfi_index !2121
  %55 = load i32, i32* %13, align 4, !llfi_index !2122
  %56 = mul nsw i32 %55, 2, !llfi_index !2123
  %57 = add nsw i32 %56, 1, !llfi_index !2124
  %58 = call i32 @_ZN11SegTree_andIiLi262144EE6getvalEiiiii(%class.SegTree_max* nonnull align 8 dereferenceable(24) %14, i32 %48, i32 %49, i32 %53, i32 %54, i32 %57), !llfi_index !2125
  %59 = call i32 @_ZN11SegTree_andIiLi262144EE4compEii(%class.SegTree_max* nonnull align 8 dereferenceable(24) %14, i32 %47, i32 %58), !llfi_index !2126
  store i32 %59, i32* %7, align 4, !llfi_index !2127
  br label %60, !llfi_index !2128

60:                                               ; preds = %37, %31, %22
  %61 = load i32, i32* %7, align 4, !llfi_index !2129
  ret i32 %61, !llfi_index !2130
}

; Function Attrs: mustprogress noinline nounwind uwtable
define linkonce_odr dso_local nonnull align 8 dereferenceable(8) %"struct.std::_Rb_tree_const_iterator"* @_ZNSt23_Rb_tree_const_iteratorIiEppEv(%"struct.std::_Rb_tree_const_iterator"* nonnull align 8 dereferenceable(8) %0) #3 comdat align 2 {
  %2 = alloca %"struct.std::_Rb_tree_const_iterator"*, align 8, !llfi_index !2131
  store %"struct.std::_Rb_tree_const_iterator"* %0, %"struct.std::_Rb_tree_const_iterator"** %2, align 8, !llfi_index !2132
  %3 = load %"struct.std::_Rb_tree_const_iterator"*, %"struct.std::_Rb_tree_const_iterator"** %2, align 8, !llfi_index !2133
  %4 = getelementptr inbounds %"struct.std::_Rb_tree_const_iterator", %"struct.std::_Rb_tree_const_iterator"* %3, i32 0, i32 0, !llfi_index !2134
  %5 = load %"struct.std::_Rb_tree_node_base"*, %"struct.std::_Rb_tree_node_base"** %4, align 8, !llfi_index !2135
  %6 = call %"struct.std::_Rb_tree_node_base"* @_ZSt18_Rb_tree_incrementPKSt18_Rb_tree_node_base(%"struct.std::_Rb_tree_node_base"* %5) #19, !llfi_index !2136
  %7 = getelementptr inbounds %"struct.std::_Rb_tree_const_iterator", %"struct.std::_Rb_tree_const_iterator"* %3, i32 0, i32 0, !llfi_index !2137
  store %"struct.std::_Rb_tree_node_base"* %6, %"struct.std::_Rb_tree_node_base"** %7, align 8, !llfi_index !2138
  ret %"struct.std::_Rb_tree_const_iterator"* %3, !llfi_index !2139
}

; Function Attrs: mustprogress noinline uwtable
define linkonce_odr dso_local void @_ZNSt6vectorIiSaIiEE9push_backEOi(%"class.std::vector"* nonnull align 8 dereferenceable(24) %0, i32* nonnull align 4 dereferenceable(4) %1) #4 comdat align 2 {
  %3 = alloca %"class.std::vector"*, align 8, !llfi_index !2140
  %4 = alloca i32*, align 8, !llfi_index !2141
  store %"class.std::vector"* %0, %"class.std::vector"** %3, align 8, !llfi_index !2142
  store i32* %1, i32** %4, align 8, !llfi_index !2143
  %5 = load %"class.std::vector"*, %"class.std::vector"** %3, align 8, !llfi_index !2144
  %6 = load i32*, i32** %4, align 8, !llfi_index !2145
  %7 = call nonnull align 4 dereferenceable(4) i32* @_ZSt4moveIRiEONSt16remove_referenceIT_E4typeEOS2_(i32* nonnull align 4 dereferenceable(4) %6) #2, !llfi_index !2146
  call void @_ZNSt6vectorIiSaIiEE12emplace_backIJiEEEvDpOT_(%"class.std::vector"* nonnull align 8 dereferenceable(24) %5, i32* nonnull align 4 dereferenceable(4) %7), !llfi_index !2147
  ret void, !llfi_index !2148
}

; Function Attrs: noinline nounwind uwtable
define linkonce_odr dso_local void @_ZNSt3mapIiiSt4lessIiESaISt4pairIKiiEEEC2Ev(%"class.std::set"* nonnull align 8 dereferenceable(48) %0) unnamed_addr #1 comdat align 2 {
