; ModuleID = '/home/hjiang/Computation-Kernel-Dataset/experiments/Fault_injection_0308_parall/O0/CountPairs/CountPairs.ll'
source_filename = "llvm-link"
target datalayout = "e-m:e-p270:32:32-p271:32:32-p272:64:64-i64:64-f80:128-n8:16:32:64-S128"
target triple = "x86_64-unknown-linux-gnu"

%"class.std::ios_base::Init" = type { i8 }
%struct._IO_FILE = type { i32, i8*, i8*, i8*, i8*, i8*, i8*, i8*, i8*, i8*, i8*, i8*, %struct._IO_marker*, %struct._IO_FILE*, i32, i32, i64, i16, i8, [1 x i8], i8*, i64, %struct._IO_codecvt*, %struct._IO_wide_data*, %struct._IO_FILE*, i8*, i64, i32, [20 x i8] }
%struct._IO_marker = type opaque
%struct._IO_codecvt = type opaque
%struct._IO_wide_data = type opaque
%"class.std::basic_istream" = type { i32 (...)**, i64, %"class.std::basic_ios" }
%"class.std::basic_ios" = type { %"class.std::ios_base", %"class.std::basic_ostream"*, i8, i8, %"class.std::basic_streambuf"*, %"class.std::ctype"*, %"class.std::num_put"*, %"class.std::num_put"* }
%"class.std::ios_base" = type { i32 (...)**, i64, i64, i32, i32, i32, %"struct.std::ios_base::_Callback_list"*, %"struct.std::ios_base::_Words", [8 x %"struct.std::ios_base::_Words"], i32, %"struct.std::ios_base::_Words"*, %"class.std::locale" }
%"struct.std::ios_base::_Callback_list" = type { %"struct.std::ios_base::_Callback_list"*, void (i32, %"class.std::ios_base"*, i32)*, i32, i32 }
%"struct.std::ios_base::_Words" = type { i8*, i64 }
%"class.std::locale" = type { %"class.std::locale::_Impl"* }
%"class.std::locale::_Impl" = type { i32, %"class.std::locale::facet"**, i64, %"class.std::locale::facet"**, i8** }
%"class.std::locale::facet" = type <{ i32 (...)**, i32, [4 x i8] }>
%"class.std::basic_ostream" = type { i32 (...)**, %"class.std::basic_ios" }
%"class.std::basic_streambuf" = type { i32 (...)**, i8*, i8*, i8*, i8*, i8*, i8*, %"class.std::locale" }
%"class.std::ctype" = type <{ %"class.std::locale::facet.base", [4 x i8], %struct.__locale_struct*, i8, [7 x i8], i32*, i32*, i16*, i8, [256 x i8], [256 x i8], i8, [6 x i8] }>
%"class.std::locale::facet.base" = type <{ i32 (...)**, i32 }>
%struct.__locale_struct = type { [13 x %struct.__locale_data*], i16*, i32*, i32*, [13 x i8*] }
%struct.__locale_data = type opaque
%"class.std::num_put" = type { %"class.std::locale::facet.base", [4 x i8] }
%"class.std::__cxx11::basic_string" = type { %"struct.std::__cxx11::basic_string<char>::_Alloc_hider", i64, %union.anon }
%"struct.std::__cxx11::basic_string<char>::_Alloc_hider" = type { i8* }
%union.anon = type { i64, [8 x i8] }

@llvm.global_ctors = appending global [1 x { i32, void ()*, i8* }] [{ i32, void ()*, i8* } { i32 65535, void ()* @_GLOBAL__sub_I_CountPairs.cpp, i8* null }]
@_ZStL8__ioinit = internal global %"class.std::ios_base::Init" zeroinitializer, align 1
@f = dso_local global [251 x [2259 x [2 x i64]]] zeroinitializer, align 16
@acum = dso_local global [251 x [2259 x [2 x i64]]] zeroinitializer, align 16
@g = dso_local global [251 x [2259 x [2 x i64]]] zeroinitializer, align 16
@.str = private unnamed_addr constant [26 x i8] c"../input_files/CountPairs\00", align 1
@.str.1 = private unnamed_addr constant [2 x i8] c"r\00", align 1
@stdin = external dso_local global %struct._IO_FILE*, align 8
@_ZSt3cin = external dso_local global %"class.std::basic_istream", align 8
@_ZSt4cout = external dso_local global %"class.std::basic_ostream", align 8

; Function Attrs: noinline uwtable
define internal void @_GLOBAL__sub_I_CountPairs.cpp() #0 section ".text.startup" {
  call void @__cxx_global_var_init(), !llfi_index !4
  ret void, !llfi_index !5
}

; Function Attrs: noinline uwtable
define internal void @__cxx_global_var_init() #0 section ".text.startup" {
  call void @_ZNSt8ios_base4InitC1Ev(%"class.std::ios_base::Init"* nonnull align 1 dereferenceable(1) @_ZStL8__ioinit), !llfi_index !6
  %1 = call i32 @atexit(void ()* @__dtor__ZStL8__ioinit) #2, !llfi_index !7
  ret void, !llfi_index !8
}

declare dso_local void @_ZNSt8ios_base4InitC1Ev(%"class.std::ios_base::Init"* nonnull align 1 dereferenceable(1)) unnamed_addr #1

; Function Attrs: noinline uwtable
define internal void @__dtor__ZStL8__ioinit() #0 section ".text.startup" {
  call void @_ZNSt8ios_base4InitD1Ev(%"class.std::ios_base::Init"* @_ZStL8__ioinit), !llfi_index !9
  ret void, !llfi_index !10
}

; Function Attrs: nounwind
declare dso_local i32 @atexit(void ()*) #2

; Function Attrs: nounwind
declare dso_local void @_ZNSt8ios_base4InitD1Ev(%"class.std::ios_base::Init"* nonnull align 1 dereferenceable(1)) unnamed_addr #3

; Function Attrs: mustprogress noinline norecurse uwtable
define dso_local i32 @main() #4 personality i8* bitcast (i32 (...)* @__gxx_personality_v0 to i8*) {
  %1 = alloca i32, align 4, !llfi_index !11
  %2 = alloca %"class.std::__cxx11::basic_string", align 8, !llfi_index !12
  %3 = alloca i8*, align 8, !llfi_index !13
  %4 = alloca i32, align 4, !llfi_index !14
  %5 = alloca i32, align 4, !llfi_index !15
  %6 = alloca i32, align 4, !llfi_index !16
  %7 = alloca i32, align 4, !llfi_index !17
  %8 = alloca i32, align 4, !llfi_index !18
  %9 = alloca i32, align 4, !llfi_index !19
  %10 = alloca i32, align 4, !llfi_index !20
  %11 = alloca i32, align 4, !llfi_index !21
  %12 = alloca i32, align 4, !llfi_index !22
  %13 = alloca i32, align 4, !llfi_index !23
  %14 = alloca i32, align 4, !llfi_index !24
  %15 = alloca i32, align 4, !llfi_index !25
  %16 = alloca i64, align 8, !llfi_index !26
  %17 = alloca i32, align 4, !llfi_index !27
  %18 = alloca i32, align 4, !llfi_index !28
  %19 = alloca i32, align 4, !llfi_index !29
  %20 = alloca i32, align 4, !llfi_index !30
  %21 = alloca i32, align 4, !llfi_index !31
  %22 = alloca i32, align 4, !llfi_index !32
  %23 = alloca i32, align 4, !llfi_index !33
  %24 = alloca i32, align 4, !llfi_index !34
  %25 = alloca i32, align 4, !llfi_index !35
  %26 = alloca i64, align 8, !llfi_index !36
  %27 = alloca i32, align 4, !llfi_index !37
  store i32 0, i32* %1, align 4, !llfi_index !38
  %28 = load %struct._IO_FILE*, %struct._IO_FILE** @stdin, align 8, !llfi_index !39
  %29 = call %struct._IO_FILE* @freopen(i8* getelementptr inbounds ([26 x i8], [26 x i8]* @.str, i64 0, i64 0), i8* getelementptr inbounds ([2 x i8], [2 x i8]* @.str.1, i64 0, i64 0), %struct._IO_FILE* %28), !llfi_index !40
  call void @_ZNSt7__cxx1112basic_stringIcSt11char_traitsIcESaIcEEC1Ev(%"class.std::__cxx11::basic_string"* nonnull align 8 dereferenceable(32) %2) #2, !llfi_index !41
  %30 = invoke nonnull align 8 dereferenceable(16) %"class.std::basic_istream"* @_ZStrsIcSt11char_traitsIcESaIcEERSt13basic_istreamIT_T0_ES7_RNSt7__cxx1112basic_stringIS4_S5_T1_EE(%"class.std::basic_istream"* nonnull align 8 dereferenceable(16) @_ZSt3cin, %"class.std::__cxx11::basic_string"* nonnull align 8 dereferenceable(32) %2)
          to label %31 unwind label %48, !llfi_index !42

31:                                               ; preds = %0
  %32 = call i64 @_ZNKSt7__cxx1112basic_stringIcSt11char_traitsIcESaIcEE4sizeEv(%"class.std::__cxx11::basic_string"* nonnull align 8 dereferenceable(32) %2) #2, !llfi_index !43
  %33 = trunc i64 %32 to i32, !llfi_index !44
  store i32 %33, i32* %5, align 4, !llfi_index !45
  store i32 89, i32* %6, align 4, !llfi_index !46
  store i32 0, i32* %7, align 4, !llfi_index !47
  br label %34, !llfi_index !48

34:                                               ; preds = %45, %31
  %35 = load i32, i32* %7, align 4, !llfi_index !49
  %36 = icmp slt i32 %35, 2, !llfi_index !50
  br i1 %36, label %37, label %52, !llfi_index !51

37:                                               ; preds = %34
  %38 = load i32, i32* %5, align 4, !llfi_index !52
  %39 = sext i32 %38 to i64, !llfi_index !53
  %40 = getelementptr inbounds [251 x [2259 x [2 x i64]]], [251 x [2259 x [2 x i64]]]* @f, i64 0, i64 %39, !llfi_index !54
  %41 = getelementptr inbounds [2259 x [2 x i64]], [2259 x [2 x i64]]* %40, i64 0, i64 0, !llfi_index !55
  %42 = load i32, i32* %7, align 4, !llfi_index !56
  %43 = sext i32 %42 to i64, !llfi_index !57
  %44 = getelementptr inbounds [2 x i64], [2 x i64]* %41, i64 0, i64 %43, !llfi_index !58
  store i64 1, i64* %44, align 8, !llfi_index !59
  br label %45, !llfi_index !60

45:                                               ; preds = %37
  %46 = load i32, i32* %7, align 4, !llfi_index !61
  %47 = add nsw i32 %46, 1, !llfi_index !62
  store i32 %47, i32* %7, align 4, !llfi_index !63
  br label %34, !llvm.loop !64, !llfi_index !66

48:                                               ; preds = %481, %478, %252, %58, %0
  %49 = landingpad { i8*, i32 }
          cleanup, !llfi_index !67
  %50 = extractvalue { i8*, i32 } %49, 0, !llfi_index !68
  store i8* %50, i8** %3, align 8, !llfi_index !69
  %51 = extractvalue { i8*, i32 } %49, 1, !llfi_index !70
  store i32 %51, i32* %4, align 4, !llfi_index !71
  call void @_ZNSt7__cxx1112basic_stringIcSt11char_traitsIcESaIcEED1Ev(%"class.std::__cxx11::basic_string"* nonnull align 8 dereferenceable(32) %2) #2, !llfi_index !72
  br label %485, !llfi_index !73

52:                                               ; preds = %34
  store i32 89, i32* %6, align 4, !llfi_index !74
  %53 = load i32, i32* %5, align 4, !llfi_index !75
  %54 = sub nsw i32 %53, 1, !llfi_index !76
  store i32 %54, i32* %8, align 4, !llfi_index !77
  br label %55, !llfi_index !78

55:                                               ; preds = %172, %52
  %56 = load i32, i32* %8, align 4, !llfi_index !79
  %57 = icmp sge i32 %56, 0, !llfi_index !80
  br i1 %57, label %58, label %175, !llfi_index !81

58:                                               ; preds = %55
  %59 = load i32, i32* %8, align 4, !llfi_index !82
  %60 = sext i32 %59 to i64, !llfi_index !83
  %61 = invoke nonnull align 1 dereferenceable(1) i8* @_ZNSt7__cxx1112basic_stringIcSt11char_traitsIcESaIcEEixEm(%"class.std::__cxx11::basic_string"* nonnull align 8 dereferenceable(32) %2, i64 %60)
          to label %62 unwind label %48, !llfi_index !84

62:                                               ; preds = %58
  %63 = load i8, i8* %61, align 1, !llfi_index !85
  %64 = sext i8 %63 to i32, !llfi_index !86
  %65 = sub nsw i32 %64, 48, !llfi_index !87
  store i32 %65, i32* %9, align 4, !llfi_index !88
  store i32 89, i32* %6, align 4, !llfi_index !89
  store i32 0, i32* %10, align 4, !llfi_index !90
  br label %66, !llfi_index !91

66:                                               ; preds = %168, %62
  %67 = load i32, i32* %10, align 4, !llfi_index !92
  %68 = load i32, i32* %5, align 4, !llfi_index !93
  %69 = load i32, i32* %8, align 4, !llfi_index !94
  %70 = sub nsw i32 %68, %69, !llfi_index !95
  %71 = mul nsw i32 %70, 9, !llfi_index !96
  %72 = icmp sle i32 %67, %71, !llfi_index !97
  br i1 %72, label %73, label %171, !llfi_index !98

73:                                               ; preds = %66
  store i32 0, i32* %11, align 4, !llfi_index !99
  br label %74, !llfi_index !100

74:                                               ; preds = %164, %73
  %75 = load i32, i32* %11, align 4, !llfi_index !101
  %76 = icmp slt i32 %75, 2, !llfi_index !102
  br i1 %76, label %77, label %167, !llfi_index !103

77:                                               ; preds = %74
  %78 = load i32, i32* %8, align 4, !llfi_index !104
  %79 = sext i32 %78 to i64, !llfi_index !105
  %80 = getelementptr inbounds [251 x [2259 x [2 x i64]]], [251 x [2259 x [2 x i64]]]* @f, i64 0, i64 %79, !llfi_index !106
  %81 = load i32, i32* %10, align 4, !llfi_index !107
  %82 = sext i32 %81 to i64, !llfi_index !108
  %83 = getelementptr inbounds [2259 x [2 x i64]], [2259 x [2 x i64]]* %80, i64 0, i64 %82, !llfi_index !109
  %84 = load i32, i32* %11, align 4, !llfi_index !110
  %85 = sext i32 %84 to i64, !llfi_index !111
  %86 = getelementptr inbounds [2 x i64], [2 x i64]* %83, i64 0, i64 %85, !llfi_index !112
  store i64 0, i64* %86, align 8, !llfi_index !113
  store i32 0, i32* %12, align 4, !llfi_index !114
  br label %87, !llfi_index !115

87:                                               ; preds = %160, %77
  %88 = load i32, i32* %12, align 4, !llfi_index !116
  %89 = icmp slt i32 %88, 10, !llfi_index !117
  br i1 %89, label %90, label %95, !llfi_index !118

90:                                               ; preds = %87
  %91 = load i32, i32* %10, align 4, !llfi_index !119
  %92 = load i32, i32* %12, align 4, !llfi_index !120
  %93 = sub nsw i32 %91, %92, !llfi_index !121
  %94 = icmp sge i32 %93, 0, !llfi_index !122
  br label %95, !llfi_index !123

95:                                               ; preds = %90, %87
  %96 = phi i1 [ false, %87 ], [ %94, %90 ], !llfi_index !124
  br i1 %96, label %97, label %163, !llfi_index !125

97:                                               ; preds = %95
  %98 = load i32, i32* %11, align 4, !llfi_index !126
  %99 = icmp eq i32 %98, 1, !llfi_index !127
  br i1 %99, label %100, label %105, !llfi_index !128

100:                                              ; preds = %97
  %101 = load i32, i32* %12, align 4, !llfi_index !129
  %102 = load i32, i32* %9, align 4, !llfi_index !130
  %103 = icmp sgt i32 %101, %102, !llfi_index !131
  br i1 %103, label %104, label %105, !llfi_index !132

104:                                              ; preds = %100
  br label %160, !llfi_index !133

105:                                              ; preds = %100, %97
  %106 = load i32, i32* %11, align 4, !llfi_index !134
  store i32 %106, i32* %13, align 4, !llfi_index !135
  %107 = load i32, i32* %12, align 4, !llfi_index !136
  %108 = load i32, i32* %9, align 4, !llfi_index !137
  %109 = icmp ne i32 %107, %108, !llfi_index !138
  br i1 %109, label %110, label %111, !llfi_index !139

110:                                              ; preds = %105
  store i32 0, i32* %13, align 4, !llfi_index !140
  br label %111, !llfi_index !141

111:                                              ; preds = %110, %105
  %112 = load i32, i32* %8, align 4, !llfi_index !142
  %113 = add nsw i32 %112, 1, !llfi_index !143
  %114 = sext i32 %113 to i64, !llfi_index !144
  %115 = getelementptr inbounds [251 x [2259 x [2 x i64]]], [251 x [2259 x [2 x i64]]]* @f, i64 0, i64 %114, !llfi_index !145
  %116 = load i32, i32* %10, align 4, !llfi_index !146
  %117 = load i32, i32* %12, align 4, !llfi_index !147
  %118 = sub nsw i32 %116, %117, !llfi_index !148
  %119 = sext i32 %118 to i64, !llfi_index !149
  %120 = getelementptr inbounds [2259 x [2 x i64]], [2259 x [2 x i64]]* %115, i64 0, i64 %119, !llfi_index !150
  %121 = load i32, i32* %13, align 4, !llfi_index !151
  %122 = sext i32 %121 to i64, !llfi_index !152
  %123 = getelementptr inbounds [2 x i64], [2 x i64]* %120, i64 0, i64 %122, !llfi_index !153
  %124 = load i64, i64* %123, align 8, !llfi_index !154
  %125 = load i32, i32* %8, align 4, !llfi_index !155
  %126 = sext i32 %125 to i64, !llfi_index !156
  %127 = getelementptr inbounds [251 x [2259 x [2 x i64]]], [251 x [2259 x [2 x i64]]]* @f, i64 0, i64 %126, !llfi_index !157
  %128 = load i32, i32* %10, align 4, !llfi_index !158
  %129 = sext i32 %128 to i64, !llfi_index !159
  %130 = getelementptr inbounds [2259 x [2 x i64]], [2259 x [2 x i64]]* %127, i64 0, i64 %129, !llfi_index !160
  %131 = load i32, i32* %11, align 4, !llfi_index !161
  %132 = sext i32 %131 to i64, !llfi_index !162
  %133 = getelementptr inbounds [2 x i64], [2 x i64]* %130, i64 0, i64 %132, !llfi_index !163
  %134 = load i64, i64* %133, align 8, !llfi_index !164
  %135 = add nsw i64 %134, %124, !llfi_index !165
  store i64 %135, i64* %133, align 8, !llfi_index !166
  %136 = load i32, i32* %8, align 4, !llfi_index !167
  %137 = sext i32 %136 to i64, !llfi_index !168
  %138 = getelementptr inbounds [251 x [2259 x [2 x i64]]], [251 x [2259 x [2 x i64]]]* @f, i64 0, i64 %137, !llfi_index !169
  %139 = load i32, i32* %10, align 4, !llfi_index !170
  %140 = sext i32 %139 to i64, !llfi_index !171
  %141 = getelementptr inbounds [2259 x [2 x i64]], [2259 x [2 x i64]]* %138, i64 0, i64 %140, !llfi_index !172
  %142 = load i32, i32* %11, align 4, !llfi_index !173
  %143 = sext i32 %142 to i64, !llfi_index !174
  %144 = getelementptr inbounds [2 x i64], [2 x i64]* %141, i64 0, i64 %143, !llfi_index !175
  %145 = load i64, i64* %144, align 8, !llfi_index !176
  %146 = icmp sge i64 %145, 1000000007, !llfi_index !177
  br i1 %146, label %147, label %159, !llfi_index !178

147:                                              ; preds = %111
  %148 = load i32, i32* %8, align 4, !llfi_index !179
  %149 = sext i32 %148 to i64, !llfi_index !180
  %150 = getelementptr inbounds [251 x [2259 x [2 x i64]]], [251 x [2259 x [2 x i64]]]* @f, i64 0, i64 %149, !llfi_index !181
  %151 = load i32, i32* %10, align 4, !llfi_index !182
  %152 = sext i32 %151 to i64, !llfi_index !183
  %153 = getelementptr inbounds [2259 x [2 x i64]], [2259 x [2 x i64]]* %150, i64 0, i64 %152, !llfi_index !184
  %154 = load i32, i32* %11, align 4, !llfi_index !185
  %155 = sext i32 %154 to i64, !llfi_index !186
  %156 = getelementptr inbounds [2 x i64], [2 x i64]* %153, i64 0, i64 %155, !llfi_index !187
  %157 = load i64, i64* %156, align 8, !llfi_index !188
  %158 = sub nsw i64 %157, 1000000007, !llfi_index !189
  store i64 %158, i64* %156, align 8, !llfi_index !190
  br label %159, !llfi_index !191

159:                                              ; preds = %147, %111
  br label %160, !llfi_index !192

160:                                              ; preds = %159, %104
  %161 = load i32, i32* %12, align 4, !llfi_index !193
  %162 = add nsw i32 %161, 1, !llfi_index !194
  store i32 %162, i32* %12, align 4, !llfi_index !195
  br label %87, !llvm.loop !196, !llfi_index !197

163:                                              ; preds = %95
  br label %164, !llfi_index !198

164:                                              ; preds = %163
  %165 = load i32, i32* %11, align 4, !llfi_index !199
  %166 = add nsw i32 %165, 1, !llfi_index !200
  store i32 %166, i32* %11, align 4, !llfi_index !201
  br label %74, !llvm.loop !202, !llfi_index !203

167:                                              ; preds = %74
  br label %168, !llfi_index !204

168:                                              ; preds = %167
  %169 = load i32, i32* %10, align 4, !llfi_index !205
  %170 = add nsw i32 %169, 1, !llfi_index !206
  store i32 %170, i32* %10, align 4, !llfi_index !207
  br label %66, !llvm.loop !208, !llfi_index !209

171:                                              ; preds = %66
  br label %172, !llfi_index !210

172:                                              ; preds = %171
  %173 = load i32, i32* %8, align 4, !llfi_index !211
  %174 = add nsw i32 %173, -1, !llfi_index !212
  store i32 %174, i32* %8, align 4, !llfi_index !213
  br label %55, !llvm.loop !214, !llfi_index !215

175:                                              ; preds = %55
  store i32 89, i32* %6, align 4, !llfi_index !216
  %176 = load i32, i32* %5, align 4, !llfi_index !217
  store i32 %176, i32* %14, align 4, !llfi_index !218
  br label %177, !llfi_index !219

177:                                              ; preds = %243, %175
  %178 = load i32, i32* %14, align 4, !llfi_index !220
  %179 = icmp sge i32 %178, 0, !llfi_index !221
  br i1 %179, label %180, label %246, !llfi_index !222

180:                                              ; preds = %177
  store i32 89, i32* %6, align 4, !llfi_index !223
  store i32 0, i32* %15, align 4, !llfi_index !224
  br label %181, !llfi_index !225

181:                                              ; preds = %239, %180
  %182 = load i32, i32* %15, align 4, !llfi_index !226
  %183 = icmp slt i32 %182, 2, !llfi_index !227
  br i1 %183, label %184, label %242, !llfi_index !228

184:                                              ; preds = %181
  %185 = load i32, i32* %14, align 4, !llfi_index !229
  %186 = sext i32 %185 to i64, !llfi_index !230
  %187 = getelementptr inbounds [251 x [2259 x [2 x i64]]], [251 x [2259 x [2 x i64]]]* @f, i64 0, i64 %186, !llfi_index !231
  %188 = getelementptr inbounds [2259 x [2 x i64]], [2259 x [2 x i64]]* %187, i64 0, i64 0, !llfi_index !232
  %189 = load i32, i32* %15, align 4, !llfi_index !233
  %190 = sext i32 %189 to i64, !llfi_index !234
  %191 = getelementptr inbounds [2 x i64], [2 x i64]* %188, i64 0, i64 %190, !llfi_index !235
  %192 = load i64, i64* %191, align 8, !llfi_index !236
  store i64 %192, i64* %16, align 8, !llfi_index !237
  %193 = load i64, i64* %16, align 8, !llfi_index !238
  %194 = load i32, i32* %14, align 4, !llfi_index !239
  %195 = sext i32 %194 to i64, !llfi_index !240
  %196 = getelementptr inbounds [251 x [2259 x [2 x i64]]], [251 x [2259 x [2 x i64]]]* @acum, i64 0, i64 %195, !llfi_index !241
  %197 = getelementptr inbounds [2259 x [2 x i64]], [2259 x [2 x i64]]* %196, i64 0, i64 0, !llfi_index !242
  %198 = load i32, i32* %15, align 4, !llfi_index !243
  %199 = sext i32 %198 to i64, !llfi_index !244
  %200 = getelementptr inbounds [2 x i64], [2 x i64]* %197, i64 0, i64 %199, !llfi_index !245
  store i64 %193, i64* %200, align 8, !llfi_index !246
  store i32 1, i32* %17, align 4, !llfi_index !247
  br label %201, !llfi_index !248

201:                                              ; preds = %235, %184
  %202 = load i32, i32* %17, align 4, !llfi_index !249
  %203 = load i32, i32* %5, align 4, !llfi_index !250
  %204 = mul nsw i32 9, %203, !llfi_index !251
  %205 = icmp sle i32 %202, %204, !llfi_index !252
  br i1 %205, label %206, label %238, !llfi_index !253

206:                                              ; preds = %201
  %207 = load i32, i32* %14, align 4, !llfi_index !254
  %208 = sext i32 %207 to i64, !llfi_index !255
  %209 = getelementptr inbounds [251 x [2259 x [2 x i64]]], [251 x [2259 x [2 x i64]]]* @f, i64 0, i64 %208, !llfi_index !256
  %210 = load i32, i32* %17, align 4, !llfi_index !257
  %211 = sext i32 %210 to i64, !llfi_index !258
  %212 = getelementptr inbounds [2259 x [2 x i64]], [2259 x [2 x i64]]* %209, i64 0, i64 %211, !llfi_index !259
  %213 = load i32, i32* %15, align 4, !llfi_index !260
  %214 = sext i32 %213 to i64, !llfi_index !261
  %215 = getelementptr inbounds [2 x i64], [2 x i64]* %212, i64 0, i64 %214, !llfi_index !262
  %216 = load i64, i64* %215, align 8, !llfi_index !263
  %217 = load i64, i64* %16, align 8, !llfi_index !264
  %218 = add nsw i64 %217, %216, !llfi_index !265
  store i64 %218, i64* %16, align 8, !llfi_index !266
  %219 = load i64, i64* %16, align 8, !llfi_index !267
  %220 = icmp sge i64 %219, 1000000007, !llfi_index !268
  br i1 %220, label %221, label %224, !llfi_index !269

221:                                              ; preds = %206
  %222 = load i64, i64* %16, align 8, !llfi_index !270
  %223 = sub nsw i64 %222, 1000000007, !llfi_index !271
  store i64 %223, i64* %16, align 8, !llfi_index !272
  br label %224, !llfi_index !273

224:                                              ; preds = %221, %206
  %225 = load i64, i64* %16, align 8, !llfi_index !274
  %226 = load i32, i32* %14, align 4, !llfi_index !275
  %227 = sext i32 %226 to i64, !llfi_index !276
  %228 = getelementptr inbounds [251 x [2259 x [2 x i64]]], [251 x [2259 x [2 x i64]]]* @acum, i64 0, i64 %227, !llfi_index !277
  %229 = load i32, i32* %17, align 4, !llfi_index !278
  %230 = sext i32 %229 to i64, !llfi_index !279
  %231 = getelementptr inbounds [2259 x [2 x i64]], [2259 x [2 x i64]]* %228, i64 0, i64 %230, !llfi_index !280
  %232 = load i32, i32* %15, align 4, !llfi_index !281
  %233 = sext i32 %232 to i64, !llfi_index !282
  %234 = getelementptr inbounds [2 x i64], [2 x i64]* %231, i64 0, i64 %233, !llfi_index !283
  store i64 %225, i64* %234, align 8, !llfi_index !284
  br label %235, !llfi_index !285

235:                                              ; preds = %224
  %236 = load i32, i32* %17, align 4, !llfi_index !286
  %237 = add nsw i32 %236, 1, !llfi_index !287
  store i32 %237, i32* %17, align 4, !llfi_index !288
  br label %201, !llvm.loop !289, !llfi_index !290

238:                                              ; preds = %201
  br label %239, !llfi_index !291

239:                                              ; preds = %238
  %240 = load i32, i32* %15, align 4, !llfi_index !292
  %241 = add nsw i32 %240, 1, !llfi_index !293
  store i32 %241, i32* %15, align 4, !llfi_index !294
  br label %181, !llvm.loop !295, !llfi_index !296

242:                                              ; preds = %181
  br label %243, !llfi_index !297

243:                                              ; preds = %242
  %244 = load i32, i32* %14, align 4, !llfi_index !298
  %245 = add nsw i32 %244, -1, !llfi_index !299
  store i32 %245, i32* %14, align 4, !llfi_index !300
  br label %177, !llvm.loop !301, !llfi_index !302

246:                                              ; preds = %177
  store i32 89, i32* %6, align 4, !llfi_index !303
  %247 = load i32, i32* %5, align 4, !llfi_index !304
  %248 = sub nsw i32 %247, 1, !llfi_index !305
  store i32 %248, i32* %18, align 4, !llfi_index !306
  br label %249, !llfi_index !307

249:                                              ; preds = %452, %246
  %250 = load i32, i32* %18, align 4, !llfi_index !308
  %251 = icmp sge i32 %250, 0, !llfi_index !309
  br i1 %251, label %252, label %455, !llfi_index !310

252:                                              ; preds = %249
  store i32 89, i32* %6, align 4, !llfi_index !311
  %253 = load i32, i32* %18, align 4, !llfi_index !312
  %254 = sext i32 %253 to i64, !llfi_index !313
  %255 = invoke nonnull align 1 dereferenceable(1) i8* @_ZNSt7__cxx1112basic_stringIcSt11char_traitsIcESaIcEEixEm(%"class.std::__cxx11::basic_string"* nonnull align 8 dereferenceable(32) %2, i64 %254)
          to label %256 unwind label %48, !llfi_index !314

256:                                              ; preds = %252
  %257 = load i8, i8* %255, align 1, !llfi_index !315
  %258 = sext i8 %257 to i32, !llfi_index !316
  %259 = sub nsw i32 %258, 48, !llfi_index !317
  store i32 %259, i32* %19, align 4, !llfi_index !318
  store i32 0, i32* %20, align 4, !llfi_index !319
  br label %260, !llfi_index !320

260:                                              ; preds = %448, %256
  %261 = load i32, i32* %20, align 4, !llfi_index !321
  %262 = load i32, i32* %5, align 4, !llfi_index !322
  %263 = load i32, i32* %18, align 4, !llfi_index !323
  %264 = sub nsw i32 %262, %263, !llfi_index !324
  %265 = mul nsw i32 %264, 9, !llfi_index !325
  %266 = icmp sle i32 %261, %265, !llfi_index !326
  br i1 %266, label %267, label %451, !llfi_index !327

267:                                              ; preds = %260
  store i32 0, i32* %21, align 4, !llfi_index !328
  br label %268, !llfi_index !329

268:                                              ; preds = %444, %267
  %269 = load i32, i32* %21, align 4, !llfi_index !330
  %270 = icmp slt i32 %269, 2, !llfi_index !331
  br i1 %270, label %271, label %447, !llfi_index !332

271:                                              ; preds = %268
  %272 = load i32, i32* %18, align 4, !llfi_index !333
  %273 = sext i32 %272 to i64, !llfi_index !334
  %274 = getelementptr inbounds [251 x [2259 x [2 x i64]]], [251 x [2259 x [2 x i64]]]* @g, i64 0, i64 %273, !llfi_index !335
  %275 = load i32, i32* %20, align 4, !llfi_index !336
  %276 = sext i32 %275 to i64, !llfi_index !337
  %277 = getelementptr inbounds [2259 x [2 x i64]], [2259 x [2 x i64]]* %274, i64 0, i64 %276, !llfi_index !338
  %278 = load i32, i32* %21, align 4, !llfi_index !339
  %279 = sext i32 %278 to i64, !llfi_index !340
  %280 = getelementptr inbounds [2 x i64], [2 x i64]* %277, i64 0, i64 %279, !llfi_index !341
  store i64 0, i64* %280, align 8, !llfi_index !342
  store i32 0, i32* %22, align 4, !llfi_index !343
  br label %281, !llfi_index !344

281:                                              ; preds = %440, %271
  %282 = load i32, i32* %22, align 4, !llfi_index !345
  %283 = icmp slt i32 %282, 10, !llfi_index !346
  br i1 %283, label %284, label %289, !llfi_index !347

284:                                              ; preds = %281
  %285 = load i32, i32* %20, align 4, !llfi_index !348
  %286 = load i32, i32* %22, align 4, !llfi_index !349
  %287 = sub nsw i32 %285, %286, !llfi_index !350
  %288 = icmp sge i32 %287, 0, !llfi_index !351
  br label %289, !llfi_index !352

289:                                              ; preds = %284, %281
  %290 = phi i1 [ false, %281 ], [ %288, %284 ], !llfi_index !353
  br i1 %290, label %291, label %443, !llfi_index !354

291:                                              ; preds = %289
  %292 = load i32, i32* %21, align 4, !llfi_index !355
  %293 = icmp eq i32 %292, 1, !llfi_index !356
  br i1 %293, label %294, label %299, !llfi_index !357

294:                                              ; preds = %291
  %295 = load i32, i32* %22, align 4, !llfi_index !358
  %296 = load i32, i32* %19, align 4, !llfi_index !359
  %297 = icmp sgt i32 %295, %296, !llfi_index !360
  br i1 %297, label %298, label %299, !llfi_index !361

298:                                              ; preds = %294
  br label %440, !llfi_index !362

299:                                              ; preds = %294, %291
  %300 = load i32, i32* %21, align 4, !llfi_index !363
  store i32 %300, i32* %23, align 4, !llfi_index !364
  %301 = load i32, i32* %22, align 4, !llfi_index !365
  %302 = load i32, i32* %19, align 4, !llfi_index !366
  %303 = icmp ne i32 %301, %302, !llfi_index !367
  br i1 %303, label %304, label %305, !llfi_index !368

304:                                              ; preds = %299
  store i32 0, i32* %23, align 4, !llfi_index !369
  br label %305, !llfi_index !370

305:                                              ; preds = %304, %299
  %306 = load i32, i32* %18, align 4, !llfi_index !371
  %307 = add nsw i32 %306, 1, !llfi_index !372
  %308 = sext i32 %307 to i64, !llfi_index !373
  %309 = getelementptr inbounds [251 x [2259 x [2 x i64]]], [251 x [2259 x [2 x i64]]]* @g, i64 0, i64 %308, !llfi_index !374
  %310 = load i32, i32* %20, align 4, !llfi_index !375
  %311 = load i32, i32* %22, align 4, !llfi_index !376
  %312 = sub nsw i32 %310, %311, !llfi_index !377
  %313 = sext i32 %312 to i64, !llfi_index !378
  %314 = getelementptr inbounds [2259 x [2 x i64]], [2259 x [2 x i64]]* %309, i64 0, i64 %313, !llfi_index !379
  %315 = load i32, i32* %23, align 4, !llfi_index !380
  %316 = sext i32 %315 to i64, !llfi_index !381
  %317 = getelementptr inbounds [2 x i64], [2 x i64]* %314, i64 0, i64 %316, !llfi_index !382
  %318 = load i64, i64* %317, align 8, !llfi_index !383
  %319 = load i32, i32* %18, align 4, !llfi_index !384
  %320 = sext i32 %319 to i64, !llfi_index !385
  %321 = getelementptr inbounds [251 x [2259 x [2 x i64]]], [251 x [2259 x [2 x i64]]]* @g, i64 0, i64 %320, !llfi_index !386
  %322 = load i32, i32* %20, align 4, !llfi_index !387
  %323 = sext i32 %322 to i64, !llfi_index !388
  %324 = getelementptr inbounds [2259 x [2 x i64]], [2259 x [2 x i64]]* %321, i64 0, i64 %323, !llfi_index !389
  %325 = load i32, i32* %21, align 4, !llfi_index !390
  %326 = sext i32 %325 to i64, !llfi_index !391
  %327 = getelementptr inbounds [2 x i64], [2 x i64]* %324, i64 0, i64 %326, !llfi_index !392
  %328 = load i64, i64* %327, align 8, !llfi_index !393
  %329 = add nsw i64 %328, %318, !llfi_index !394
  store i64 %329, i64* %327, align 8, !llfi_index !395
  %330 = load i32, i32* %18, align 4, !llfi_index !396
  %331 = sext i32 %330 to i64, !llfi_index !397
  %332 = getelementptr inbounds [251 x [2259 x [2 x i64]]], [251 x [2259 x [2 x i64]]]* @g, i64 0, i64 %331, !llfi_index !398
  %333 = load i32, i32* %20, align 4, !llfi_index !399
  %334 = sext i32 %333 to i64, !llfi_index !400
  %335 = getelementptr inbounds [2259 x [2 x i64]], [2259 x [2 x i64]]* %332, i64 0, i64 %334, !llfi_index !401
  %336 = load i32, i32* %21, align 4, !llfi_index !402
  %337 = sext i32 %336 to i64, !llfi_index !403
  %338 = getelementptr inbounds [2 x i64], [2 x i64]* %335, i64 0, i64 %337, !llfi_index !404
  %339 = load i64, i64* %338, align 8, !llfi_index !405
  %340 = icmp sge i64 %339, 1000000007, !llfi_index !406
  br i1 %340, label %341, label %353, !llfi_index !407

341:                                              ; preds = %305
  %342 = load i32, i32* %18, align 4, !llfi_index !408
  %343 = sext i32 %342 to i64, !llfi_index !409
  %344 = getelementptr inbounds [251 x [2259 x [2 x i64]]], [251 x [2259 x [2 x i64]]]* @g, i64 0, i64 %343, !llfi_index !410
  %345 = load i32, i32* %20, align 4, !llfi_index !411
  %346 = sext i32 %345 to i64, !llfi_index !412
  %347 = getelementptr inbounds [2259 x [2 x i64]], [2259 x [2 x i64]]* %344, i64 0, i64 %346, !llfi_index !413
  %348 = load i32, i32* %21, align 4, !llfi_index !414
  %349 = sext i32 %348 to i64, !llfi_index !415
  %350 = getelementptr inbounds [2 x i64], [2 x i64]* %347, i64 0, i64 %349, !llfi_index !416
  %351 = load i64, i64* %350, align 8, !llfi_index !417
  %352 = sub nsw i64 %351, 1000000007, !llfi_index !418
  store i64 %352, i64* %350, align 8, !llfi_index !419
  br label %353, !llfi_index !420

353:                                              ; preds = %341, %305
  store i32 0, i32* %24, align 4, !llfi_index !421
  br label %354, !llfi_index !422

354:                                              ; preds = %436, %353
  %355 = load i32, i32* %24, align 4, !llfi_index !423
  %356 = load i32, i32* %22, align 4, !llfi_index !424
  %357 = icmp slt i32 %355, %356, !llfi_index !425
  br i1 %357, label %358, label %439, !llfi_index !426

358:                                              ; preds = %354
  %359 = load i32, i32* %20, align 4, !llfi_index !427
  %360 = load i32, i32* %24, align 4, !llfi_index !428
  %361 = sub nsw i32 %359, %360, !llfi_index !429
  %362 = sub nsw i32 %361, 1, !llfi_index !430
  %363 = icmp sge i32 %362, 0, !llfi_index !431
  br i1 %363, label %364, label %435, !llfi_index !432

364:                                              ; preds = %358
  %365 = load i32, i32* %21, align 4, !llfi_index !433
  store i32 %365, i32* %25, align 4, !llfi_index !434
  %366 = load i32, i32* %24, align 4, !llfi_index !435
  %367 = load i32, i32* %19, align 4, !llfi_index !436
  %368 = icmp ne i32 %366, %367, !llfi_index !437
  br i1 %368, label %369, label %370, !llfi_index !438

369:                                              ; preds = %364
  store i32 0, i32* %25, align 4, !llfi_index !439
  br label %370, !llfi_index !440

370:                                              ; preds = %369, %364
  %371 = load i32, i32* %18, align 4, !llfi_index !441
  %372 = add nsw i32 %371, 1, !llfi_index !442
  %373 = sext i32 %372 to i64, !llfi_index !443
  %374 = getelementptr inbounds [251 x [2259 x [2 x i64]]], [251 x [2259 x [2 x i64]]]* @f, i64 0, i64 %373, !llfi_index !444
  %375 = load i32, i32* %20, align 4, !llfi_index !445
  %376 = load i32, i32* %22, align 4, !llfi_index !446
  %377 = sub nsw i32 %375, %376, !llfi_index !447
  %378 = sext i32 %377 to i64, !llfi_index !448
  %379 = getelementptr inbounds [2259 x [2 x i64]], [2259 x [2 x i64]]* %374, i64 0, i64 %378, !llfi_index !449
  %380 = load i32, i32* %23, align 4, !llfi_index !450
  %381 = sext i32 %380 to i64, !llfi_index !451
  %382 = getelementptr inbounds [2 x i64], [2 x i64]* %379, i64 0, i64 %381, !llfi_index !452
  %383 = load i64, i64* %382, align 8, !llfi_index !453
  %384 = load i32, i32* %18, align 4, !llfi_index !454
  %385 = add nsw i32 %384, 1, !llfi_index !455
  %386 = sext i32 %385 to i64, !llfi_index !456
  %387 = getelementptr inbounds [251 x [2259 x [2 x i64]]], [251 x [2259 x [2 x i64]]]* @acum, i64 0, i64 %386, !llfi_index !457
  %388 = load i32, i32* %20, align 4, !llfi_index !458
  %389 = load i32, i32* %24, align 4, !llfi_index !459
  %390 = sub nsw i32 %388, %389, !llfi_index !460
  %391 = sub nsw i32 %390, 1, !llfi_index !461
  %392 = sext i32 %391 to i64, !llfi_index !462
  %393 = getelementptr inbounds [2259 x [2 x i64]], [2259 x [2 x i64]]* %387, i64 0, i64 %392, !llfi_index !463
  %394 = load i32, i32* %25, align 4, !llfi_index !464
  %395 = sext i32 %394 to i64, !llfi_index !465
  %396 = getelementptr inbounds [2 x i64], [2 x i64]* %393, i64 0, i64 %395, !llfi_index !466
  %397 = load i64, i64* %396, align 8, !llfi_index !467
  %398 = mul nsw i64 %383, %397, !llfi_index !468
  %399 = srem i64 %398, 1000000007, !llfi_index !469
  %400 = load i32, i32* %18, align 4, !llfi_index !470
  %401 = sext i32 %400 to i64, !llfi_index !471
  %402 = getelementptr inbounds [251 x [2259 x [2 x i64]]], [251 x [2259 x [2 x i64]]]* @g, i64 0, i64 %401, !llfi_index !472
  %403 = load i32, i32* %20, align 4, !llfi_index !473
  %404 = sext i32 %403 to i64, !llfi_index !474
  %405 = getelementptr inbounds [2259 x [2 x i64]], [2259 x [2 x i64]]* %402, i64 0, i64 %404, !llfi_index !475
  %406 = load i32, i32* %21, align 4, !llfi_index !476
  %407 = sext i32 %406 to i64, !llfi_index !477
  %408 = getelementptr inbounds [2 x i64], [2 x i64]* %405, i64 0, i64 %407, !llfi_index !478
  %409 = load i64, i64* %408, align 8, !llfi_index !479
  %410 = add nsw i64 %409, %399, !llfi_index !480
  store i64 %410, i64* %408, align 8, !llfi_index !481
  %411 = load i32, i32* %18, align 4, !llfi_index !482
  %412 = sext i32 %411 to i64, !llfi_index !483
  %413 = getelementptr inbounds [251 x [2259 x [2 x i64]]], [251 x [2259 x [2 x i64]]]* @g, i64 0, i64 %412, !llfi_index !484
  %414 = load i32, i32* %20, align 4, !llfi_index !485
  %415 = sext i32 %414 to i64, !llfi_index !486
  %416 = getelementptr inbounds [2259 x [2 x i64]], [2259 x [2 x i64]]* %413, i64 0, i64 %415, !llfi_index !487
  %417 = load i32, i32* %21, align 4, !llfi_index !488
  %418 = sext i32 %417 to i64, !llfi_index !489
  %419 = getelementptr inbounds [2 x i64], [2 x i64]* %416, i64 0, i64 %418, !llfi_index !490
  %420 = load i64, i64* %419, align 8, !llfi_index !491
  %421 = icmp sge i64 %420, 1000000007, !llfi_index !492
  br i1 %421, label %422, label %434, !llfi_index !493

422:                                              ; preds = %370
  %423 = load i32, i32* %18, align 4, !llfi_index !494
  %424 = sext i32 %423 to i64, !llfi_index !495
  %425 = getelementptr inbounds [251 x [2259 x [2 x i64]]], [251 x [2259 x [2 x i64]]]* @g, i64 0, i64 %424, !llfi_index !496
  %426 = load i32, i32* %20, align 4, !llfi_index !497
  %427 = sext i32 %426 to i64, !llfi_index !498
  %428 = getelementptr inbounds [2259 x [2 x i64]], [2259 x [2 x i64]]* %425, i64 0, i64 %427, !llfi_index !499
  %429 = load i32, i32* %21, align 4, !llfi_index !500
  %430 = sext i32 %429 to i64, !llfi_index !501
  %431 = getelementptr inbounds [2 x i64], [2 x i64]* %428, i64 0, i64 %430, !llfi_index !502
  %432 = load i64, i64* %431, align 8, !llfi_index !503
  %433 = sub nsw i64 %432, 1000000007, !llfi_index !504
  store i64 %433, i64* %431, align 8, !llfi_index !505
  br label %434, !llfi_index !506

434:                                              ; preds = %422, %370
  br label %435, !llfi_index !507

435:                                              ; preds = %434, %358
  br label %436, !llfi_index !508

436:                                              ; preds = %435
  %437 = load i32, i32* %24, align 4, !llfi_index !509
  %438 = add nsw i32 %437, 1, !llfi_index !510
  store i32 %438, i32* %24, align 4, !llfi_index !511
  br label %354, !llvm.loop !512, !llfi_index !513

439:                                              ; preds = %354
  br label %440, !llfi_index !514

440:                                              ; preds = %439, %298
  %441 = load i32, i32* %22, align 4, !llfi_index !515
  %442 = add nsw i32 %441, 1, !llfi_index !516
  store i32 %442, i32* %22, align 4, !llfi_index !517
  br label %281, !llvm.loop !518, !llfi_index !519

443:                                              ; preds = %289
  br label %444, !llfi_index !520

444:                                              ; preds = %443
  %445 = load i32, i32* %21, align 4, !llfi_index !521
  %446 = add nsw i32 %445, 1, !llfi_index !522
  store i32 %446, i32* %21, align 4, !llfi_index !523
  br label %268, !llvm.loop !524, !llfi_index !525

447:                                              ; preds = %268
  br label %448, !llfi_index !526

448:                                              ; preds = %447
  %449 = load i32, i32* %20, align 4, !llfi_index !527
  %450 = add nsw i32 %449, 1, !llfi_index !528
  store i32 %450, i32* %20, align 4, !llfi_index !529
  br label %260, !llvm.loop !530, !llfi_index !531

451:                                              ; preds = %260
  br label %452, !llfi_index !532

452:                                              ; preds = %451
  %453 = load i32, i32* %18, align 4, !llfi_index !533
  %454 = add nsw i32 %453, -1, !llfi_index !534
  store i32 %454, i32* %18, align 4, !llfi_index !535
  br label %249, !llvm.loop !536, !llfi_index !537

455:                                              ; preds = %249
  store i64 0, i64* %26, align 8, !llfi_index !538
  store i32 89, i32* %6, align 4, !llfi_index !539
  store i32 0, i32* %27, align 4, !llfi_index !540
  br label %456, !llfi_index !541

456:                                              ; preds = %475, %455
  %457 = load i32, i32* %27, align 4, !llfi_index !542
  %458 = load i32, i32* %5, align 4, !llfi_index !543
  %459 = mul nsw i32 %458, 9, !llfi_index !544
  %460 = icmp sle i32 %457, %459, !llfi_index !545
  br i1 %460, label %461, label %478, !llfi_index !546

461:                                              ; preds = %456
  %462 = load i32, i32* %27, align 4, !llfi_index !547
  %463 = sext i32 %462 to i64, !llfi_index !548
  %464 = getelementptr inbounds [2259 x [2 x i64]], [2259 x [2 x i64]]* getelementptr inbounds ([251 x [2259 x [2 x i64]]], [251 x [2259 x [2 x i64]]]* @g, i64 0, i64 0), i64 0, i64 %463, !llfi_index !549
  %465 = getelementptr inbounds [2 x i64], [2 x i64]* %464, i64 0, i64 1, !llfi_index !550
  %466 = load i64, i64* %465, align 8, !llfi_index !551
  %467 = load i64, i64* %26, align 8, !llfi_index !552
  %468 = add nsw i64 %467, %466, !llfi_index !553
  store i64 %468, i64* %26, align 8, !llfi_index !554
  %469 = load i64, i64* %26, align 8, !llfi_index !555
  %470 = icmp sge i64 %469, 1000000007, !llfi_index !556
  br i1 %470, label %471, label %474, !llfi_index !557

471:                                              ; preds = %461
  %472 = load i64, i64* %26, align 8, !llfi_index !558
  %473 = sub nsw i64 %472, 1000000007, !llfi_index !559
  store i64 %473, i64* %26, align 8, !llfi_index !560
  br label %474, !llfi_index !561

474:                                              ; preds = %471, %461
  br label %475, !llfi_index !562

475:                                              ; preds = %474
  %476 = load i32, i32* %27, align 4, !llfi_index !563
  %477 = add nsw i32 %476, 1, !llfi_index !564
  store i32 %477, i32* %27, align 4, !llfi_index !565
  br label %456, !llvm.loop !566, !llfi_index !567

478:                                              ; preds = %456
  %479 = load i64, i64* %26, align 8, !llfi_index !568
  %480 = invoke nonnull align 8 dereferenceable(8) %"class.std::basic_ostream"* @_ZNSolsEx(%"class.std::basic_ostream"* nonnull align 8 dereferenceable(8) @_ZSt4cout, i64 %479)
          to label %481 unwind label %48, !llfi_index !569

481:                                              ; preds = %478
  %482 = invoke nonnull align 8 dereferenceable(8) %"class.std::basic_ostream"* @_ZNSolsEPFRSoS_E(%"class.std::basic_ostream"* nonnull align 8 dereferenceable(8) %480, %"class.std::basic_ostream"* (%"class.std::basic_ostream"*)* @_ZSt4endlIcSt11char_traitsIcEERSt13basic_ostreamIT_T0_ES6_)
          to label %483 unwind label %48, !llfi_index !570

483:                                              ; preds = %481
  store i32 0, i32* %1, align 4, !llfi_index !571
  call void @_ZNSt7__cxx1112basic_stringIcSt11char_traitsIcESaIcEED1Ev(%"class.std::__cxx11::basic_string"* nonnull align 8 dereferenceable(32) %2) #2, !llfi_index !572
  %484 = load i32, i32* %1, align 4, !llfi_index !573
  ret i32 %484, !llfi_index !574

485:                                              ; preds = %48
  %486 = load i8*, i8** %3, align 8, !llfi_index !575
  %487 = load i32, i32* %4, align 4, !llfi_index !576
  %488 = insertvalue { i8*, i32 } undef, i8* %486, 0, !llfi_index !577
  %489 = insertvalue { i8*, i32 } %488, i32 %487, 1, !llfi_index !578
  resume { i8*, i32 } %489, !llfi_index !579
}

declare dso_local i32 @__gxx_personality_v0(...)

declare dso_local %struct._IO_FILE* @freopen(i8*, i8*, %struct._IO_FILE*) #1

; Function Attrs: nounwind
declare dso_local void @_ZNSt7__cxx1112basic_stringIcSt11char_traitsIcESaIcEEC1Ev(%"class.std::__cxx11::basic_string"* nonnull align 8 dereferenceable(32)) unnamed_addr #3

declare dso_local nonnull align 8 dereferenceable(16) %"class.std::basic_istream"* @_ZStrsIcSt11char_traitsIcESaIcEERSt13basic_istreamIT_T0_ES7_RNSt7__cxx1112basic_stringIS4_S5_T1_EE(%"class.std::basic_istream"* nonnull align 8 dereferenceable(16), %"class.std::__cxx11::basic_string"* nonnull align 8 dereferenceable(32)) #1

; Function Attrs: nounwind
declare dso_local i64 @_ZNKSt7__cxx1112basic_stringIcSt11char_traitsIcESaIcEE4sizeEv(%"class.std::__cxx11::basic_string"* nonnull align 8 dereferenceable(32)) #3

; Function Attrs: nounwind
declare dso_local void @_ZNSt7__cxx1112basic_stringIcSt11char_traitsIcESaIcEED1Ev(%"class.std::__cxx11::basic_string"* nonnull align 8 dereferenceable(32)) unnamed_addr #3

declare dso_local nonnull align 1 dereferenceable(1) i8* @_ZNSt7__cxx1112basic_stringIcSt11char_traitsIcESaIcEEixEm(%"class.std::__cxx11::basic_string"* nonnull align 8 dereferenceable(32), i64) #1

declare dso_local nonnull align 8 dereferenceable(8) %"class.std::basic_ostream"* @_ZNSolsEx(%"class.std::basic_ostream"* nonnull align 8 dereferenceable(8), i64) #1

declare dso_local nonnull align 8 dereferenceable(8) %"class.std::basic_ostream"* @_ZSt4endlIcSt11char_traitsIcEERSt13basic_ostreamIT_T0_ES6_(%"class.std::basic_ostream"* nonnull align 8 dereferenceable(8)) #1

declare dso_local nonnull align 8 dereferenceable(8) %"class.std::basic_ostream"* @_ZNSolsEPFRSoS_E(%"class.std::basic_ostream"* nonnull align 8 dereferenceable(8), %"class.std::basic_ostream"* (%"class.std::basic_ostream"*)*) #1

attributes #0 = { noinline uwtable "frame-pointer"="all" "min-legal-vector-width"="0" "no-trapping-math"="true" "stack-protector-buffer-size"="8" "target-cpu"="x86-64" "target-features"="+cx8,+fxsr,+mmx,+sse,+sse2,+x87" "tune-cpu"="generic" }
attributes #1 = { "frame-pointer"="all" "no-trapping-math"="true" "stack-protector-buffer-size"="8" "target-cpu"="x86-64" "target-features"="+cx8,+fxsr,+mmx,+sse,+sse2,+x87" "tune-cpu"="generic" }
attributes #2 = { nounwind }
attributes #3 = { nounwind "frame-pointer"="all" "no-trapping-math"="true" "stack-protector-buffer-size"="8" "target-cpu"="x86-64" "target-features"="+cx8,+fxsr,+mmx,+sse,+sse2,+x87" "tune-cpu"="generic" }
attributes #4 = { mustprogress noinline norecurse uwtable "frame-pointer"="all" "min-legal-vector-width"="0" "no-trapping-math"="true" "stack-protector-buffer-size"="8" "target-cpu"="x86-64" "target-features"="+cx8,+fxsr,+mmx,+sse,+sse2,+x87" "tune-cpu"="generic" }

!llvm.ident = !{!0}
!llvm.module.flags = !{!1, !2, !3}

!0 = !{!"clang version 13.0.0 (https://github.com/llvm/llvm-project.git d7b669b3a30345cfcdb2fde2af6f48aa4b94845d)"}
!1 = !{i32 1, !"wchar_size", i32 4}
!2 = !{i32 7, !"uwtable", i32 1}
!3 = !{i32 7, !"frame-pointer", i32 2}
!4 = !{i64 1}
!5 = !{i64 2}
!6 = !{i64 3}
!7 = !{i64 4}
!8 = !{i64 5}
!9 = !{i64 6}
!10 = !{i64 7}
!11 = !{i64 8}
!12 = !{i64 9}
!13 = !{i64 10}
!14 = !{i64 11}
!15 = !{i64 12}
!16 = !{i64 13}
!17 = !{i64 14}
!18 = !{i64 15}
!19 = !{i64 16}
!20 = !{i64 17}
!21 = !{i64 18}
!22 = !{i64 19}
!23 = !{i64 20}
!24 = !{i64 21}
!25 = !{i64 22}
!26 = !{i64 23}
!27 = !{i64 24}
!28 = !{i64 25}
!29 = !{i64 26}
!30 = !{i64 27}
!31 = !{i64 28}
!32 = !{i64 29}
!33 = !{i64 30}
!34 = !{i64 31}
!35 = !{i64 32}
!36 = !{i64 33}
!37 = !{i64 34}
!38 = !{i64 35}
!39 = !{i64 36}
!40 = !{i64 37}
!41 = !{i64 38}
!42 = !{i64 39}
!43 = !{i64 40}
!44 = !{i64 41}
!45 = !{i64 42}
!46 = !{i64 43}
!47 = !{i64 44}
!48 = !{i64 45}
!49 = !{i64 46}
!50 = !{i64 47}
!51 = !{i64 48}
!52 = !{i64 49}
!53 = !{i64 50}
!54 = !{i64 51}
!55 = !{i64 52}
!56 = !{i64 53}
!57 = !{i64 54}
!58 = !{i64 55}
!59 = !{i64 56}
!60 = !{i64 57}
!61 = !{i64 58}
!62 = !{i64 59}
!63 = !{i64 60}
!64 = distinct !{!64, !65}
!65 = !{!"llvm.loop.mustprogress"}
!66 = !{i64 61}
!67 = !{i64 62}
!68 = !{i64 63}
!69 = !{i64 64}
!70 = !{i64 65}
!71 = !{i64 66}
!72 = !{i64 67}
!73 = !{i64 68}
!74 = !{i64 69}
!75 = !{i64 70}
!76 = !{i64 71}
!77 = !{i64 72}
!78 = !{i64 73}
!79 = !{i64 74}
!80 = !{i64 75}
!81 = !{i64 76}
!82 = !{i64 77}
!83 = !{i64 78}
!84 = !{i64 79}
!85 = !{i64 80}
!86 = !{i64 81}
!87 = !{i64 82}
!88 = !{i64 83}
!89 = !{i64 84}
!90 = !{i64 85}
!91 = !{i64 86}
!92 = !{i64 87}
!93 = !{i64 88}
!94 = !{i64 89}
!95 = !{i64 90}
!96 = !{i64 91}
!97 = !{i64 92}
!98 = !{i64 93}
!99 = !{i64 94}
!100 = !{i64 95}
!101 = !{i64 96}
!102 = !{i64 97}
!103 = !{i64 98}
!104 = !{i64 99}
!105 = !{i64 100}
!106 = !{i64 101}
!107 = !{i64 102}
!108 = !{i64 103}
!109 = !{i64 104}
!110 = !{i64 105}
!111 = !{i64 106}
!112 = !{i64 107}
!113 = !{i64 108}
!114 = !{i64 109}
!115 = !{i64 110}
!116 = !{i64 111}
!117 = !{i64 112}
!118 = !{i64 113}
!119 = !{i64 114}
!120 = !{i64 115}
!121 = !{i64 116}
!122 = !{i64 117}
!123 = !{i64 118}
!124 = !{i64 119}
!125 = !{i64 120}
!126 = !{i64 121}
!127 = !{i64 122}
!128 = !{i64 123}
!129 = !{i64 124}
!130 = !{i64 125}
!131 = !{i64 126}
!132 = !{i64 127}
!133 = !{i64 128}
!134 = !{i64 129}
!135 = !{i64 130}
!136 = !{i64 131}
!137 = !{i64 132}
!138 = !{i64 133}
!139 = !{i64 134}
!140 = !{i64 135}
!141 = !{i64 136}
!142 = !{i64 137}
!143 = !{i64 138}
!144 = !{i64 139}
!145 = !{i64 140}
!146 = !{i64 141}
!147 = !{i64 142}
!148 = !{i64 143}
!149 = !{i64 144}
!150 = !{i64 145}
!151 = !{i64 146}
!152 = !{i64 147}
!153 = !{i64 148}
!154 = !{i64 149}
!155 = !{i64 150}
!156 = !{i64 151}
!157 = !{i64 152}
!158 = !{i64 153}
!159 = !{i64 154}
!160 = !{i64 155}
!161 = !{i64 156}
!162 = !{i64 157}
!163 = !{i64 158}
!164 = !{i64 159}
!165 = !{i64 160}
!166 = !{i64 161}
!167 = !{i64 162}
!168 = !{i64 163}
!169 = !{i64 164}
!170 = !{i64 165}
!171 = !{i64 166}
!172 = !{i64 167}
!173 = !{i64 168}
!174 = !{i64 169}
!175 = !{i64 170}
!176 = !{i64 171}
!177 = !{i64 172}
!178 = !{i64 173}
!179 = !{i64 174}
!180 = !{i64 175}
!181 = !{i64 176}
!182 = !{i64 177}
!183 = !{i64 178}
!184 = !{i64 179}
!185 = !{i64 180}
!186 = !{i64 181}
!187 = !{i64 182}
!188 = !{i64 183}
!189 = !{i64 184}
!190 = !{i64 185}
!191 = !{i64 186}
!192 = !{i64 187}
!193 = !{i64 188}
!194 = !{i64 189}
!195 = !{i64 190}
!196 = distinct !{!196, !65}
!197 = !{i64 191}
!198 = !{i64 192}
!199 = !{i64 193}
!200 = !{i64 194}
!201 = !{i64 195}
!202 = distinct !{!202, !65}
!203 = !{i64 196}
!204 = !{i64 197}
!205 = !{i64 198}
!206 = !{i64 199}
!207 = !{i64 200}
!208 = distinct !{!208, !65}
!209 = !{i64 201}
!210 = !{i64 202}
!211 = !{i64 203}
!212 = !{i64 204}
!213 = !{i64 205}
!214 = distinct !{!214, !65}
!215 = !{i64 206}
!216 = !{i64 207}
!217 = !{i64 208}
!218 = !{i64 209}
!219 = !{i64 210}
!220 = !{i64 211}
!221 = !{i64 212}
!222 = !{i64 213}
!223 = !{i64 214}
!224 = !{i64 215}
!225 = !{i64 216}
!226 = !{i64 217}
!227 = !{i64 218}
!228 = !{i64 219}
!229 = !{i64 220}
!230 = !{i64 221}
!231 = !{i64 222}
!232 = !{i64 223}
!233 = !{i64 224}
!234 = !{i64 225}
!235 = !{i64 226}
!236 = !{i64 227}
!237 = !{i64 228}
!238 = !{i64 229}
!239 = !{i64 230}
!240 = !{i64 231}
!241 = !{i64 232}
!242 = !{i64 233}
!243 = !{i64 234}
!244 = !{i64 235}
!245 = !{i64 236}
!246 = !{i64 237}
!247 = !{i64 238}
!248 = !{i64 239}
!249 = !{i64 240}
!250 = !{i64 241}
!251 = !{i64 242}
!252 = !{i64 243}
!253 = !{i64 244}
!254 = !{i64 245}
!255 = !{i64 246}
!256 = !{i64 247}
!257 = !{i64 248}
!258 = !{i64 249}
!259 = !{i64 250}
!260 = !{i64 251}
!261 = !{i64 252}
!262 = !{i64 253}
!263 = !{i64 254}
!264 = !{i64 255}
!265 = !{i64 256}
!266 = !{i64 257}
!267 = !{i64 258}
!268 = !{i64 259}
!269 = !{i64 260}
!270 = !{i64 261}
!271 = !{i64 262}
!272 = !{i64 263}
!273 = !{i64 264}
!274 = !{i64 265}
!275 = !{i64 266}
!276 = !{i64 267}
!277 = !{i64 268}
!278 = !{i64 269}
!279 = !{i64 270}
!280 = !{i64 271}
!281 = !{i64 272}
!282 = !{i64 273}
!283 = !{i64 274}
!284 = !{i64 275}
!285 = !{i64 276}
!286 = !{i64 277}
!287 = !{i64 278}
!288 = !{i64 279}
!289 = distinct !{!289, !65}
!290 = !{i64 280}
!291 = !{i64 281}
!292 = !{i64 282}
!293 = !{i64 283}
!294 = !{i64 284}
!295 = distinct !{!295, !65}
!296 = !{i64 285}
!297 = !{i64 286}
!298 = !{i64 287}
!299 = !{i64 288}
!300 = !{i64 289}
!301 = distinct !{!301, !65}
!302 = !{i64 290}
!303 = !{i64 291}
!304 = !{i64 292}
!305 = !{i64 293}
!306 = !{i64 294}
!307 = !{i64 295}
!308 = !{i64 296}
!309 = !{i64 297}
!310 = !{i64 298}
!311 = !{i64 299}
!312 = !{i64 300}
!313 = !{i64 301}
!314 = !{i64 302}
!315 = !{i64 303}
!316 = !{i64 304}
!317 = !{i64 305}
!318 = !{i64 306}
!319 = !{i64 307}
!320 = !{i64 308}
!321 = !{i64 309}
!322 = !{i64 310}
!323 = !{i64 311}
!324 = !{i64 312}
!325 = !{i64 313}
!326 = !{i64 314}
!327 = !{i64 315}
!328 = !{i64 316}
!329 = !{i64 317}
!330 = !{i64 318}
!331 = !{i64 319}
!332 = !{i64 320}
!333 = !{i64 321}
!334 = !{i64 322}
!335 = !{i64 323}
!336 = !{i64 324}
!337 = !{i64 325}
!338 = !{i64 326}
!339 = !{i64 327}
!340 = !{i64 328}
!341 = !{i64 329}
!342 = !{i64 330}
!343 = !{i64 331}
!344 = !{i64 332}
!345 = !{i64 333}
!346 = !{i64 334}
!347 = !{i64 335}
!348 = !{i64 336}
!349 = !{i64 337}
!350 = !{i64 338}
!351 = !{i64 339}
!352 = !{i64 340}
!353 = !{i64 341}
!354 = !{i64 342}
!355 = !{i64 343}
!356 = !{i64 344}
!357 = !{i64 345}
!358 = !{i64 346}
!359 = !{i64 347}
!360 = !{i64 348}
!361 = !{i64 349}
!362 = !{i64 350}
!363 = !{i64 351}
!364 = !{i64 352}
!365 = !{i64 353}
!366 = !{i64 354}
!367 = !{i64 355}
!368 = !{i64 356}
!369 = !{i64 357}
!370 = !{i64 358}
!371 = !{i64 359}
!372 = !{i64 360}
!373 = !{i64 361}
!374 = !{i64 362}
!375 = !{i64 363}
!376 = !{i64 364}
!377 = !{i64 365}
!378 = !{i64 366}
!379 = !{i64 367}
!380 = !{i64 368}
!381 = !{i64 369}
!382 = !{i64 370}
!383 = !{i64 371}
!384 = !{i64 372}
!385 = !{i64 373}
!386 = !{i64 374}
!387 = !{i64 375}
!388 = !{i64 376}
!389 = !{i64 377}
!390 = !{i64 378}
!391 = !{i64 379}
!392 = !{i64 380}
!393 = !{i64 381}
!394 = !{i64 382}
!395 = !{i64 383}
!396 = !{i64 384}
!397 = !{i64 385}
!398 = !{i64 386}
!399 = !{i64 387}
!400 = !{i64 388}
!401 = !{i64 389}
!402 = !{i64 390}
!403 = !{i64 391}
!404 = !{i64 392}
!405 = !{i64 393}
!406 = !{i64 394}
!407 = !{i64 395}
!408 = !{i64 396}
!409 = !{i64 397}
!410 = !{i64 398}
!411 = !{i64 399}
!412 = !{i64 400}
!413 = !{i64 401}
!414 = !{i64 402}
!415 = !{i64 403}
!416 = !{i64 404}
!417 = !{i64 405}
!418 = !{i64 406}
!419 = !{i64 407}
!420 = !{i64 408}
!421 = !{i64 409}
!422 = !{i64 410}
!423 = !{i64 411}
!424 = !{i64 412}
!425 = !{i64 413}
!426 = !{i64 414}
!427 = !{i64 415}
!428 = !{i64 416}
!429 = !{i64 417}
!430 = !{i64 418}
!431 = !{i64 419}
!432 = !{i64 420}
!433 = !{i64 421}
!434 = !{i64 422}
!435 = !{i64 423}
!436 = !{i64 424}
!437 = !{i64 425}
!438 = !{i64 426}
!439 = !{i64 427}
!440 = !{i64 428}
!441 = !{i64 429}
!442 = !{i64 430}
!443 = !{i64 431}
!444 = !{i64 432}
!445 = !{i64 433}
!446 = !{i64 434}
!447 = !{i64 435}
!448 = !{i64 436}
!449 = !{i64 437}
!450 = !{i64 438}
!451 = !{i64 439}
!452 = !{i64 440}
!453 = !{i64 441}
!454 = !{i64 442}
!455 = !{i64 443}
!456 = !{i64 444}
!457 = !{i64 445}
!458 = !{i64 446}
!459 = !{i64 447}
!460 = !{i64 448}
!461 = !{i64 449}
!462 = !{i64 450}
!463 = !{i64 451}
!464 = !{i64 452}
!465 = !{i64 453}
!466 = !{i64 454}
!467 = !{i64 455}
!468 = !{i64 456}
!469 = !{i64 457}
!470 = !{i64 458}
!471 = !{i64 459}
!472 = !{i64 460}
!473 = !{i64 461}
!474 = !{i64 462}
!475 = !{i64 463}
!476 = !{i64 464}
!477 = !{i64 465}
!478 = !{i64 466}
!479 = !{i64 467}
!480 = !{i64 468}
!481 = !{i64 469}
!482 = !{i64 470}
!483 = !{i64 471}
!484 = !{i64 472}
!485 = !{i64 473}
!486 = !{i64 474}
!487 = !{i64 475}
!488 = !{i64 476}
!489 = !{i64 477}
!490 = !{i64 478}
!491 = !{i64 479}
!492 = !{i64 480}
!493 = !{i64 481}
!494 = !{i64 482}
!495 = !{i64 483}
!496 = !{i64 484}
!497 = !{i64 485}
!498 = !{i64 486}
!499 = !{i64 487}
!500 = !{i64 488}
!501 = !{i64 489}
!502 = !{i64 490}
!503 = !{i64 491}
!504 = !{i64 492}
!505 = !{i64 493}
!506 = !{i64 494}
!507 = !{i64 495}
!508 = !{i64 496}
!509 = !{i64 497}
!510 = !{i64 498}
!511 = !{i64 499}
!512 = distinct !{!512, !65}
!513 = !{i64 500}
!514 = !{i64 501}
!515 = !{i64 502}
!516 = !{i64 503}
!517 = !{i64 504}
!518 = distinct !{!518, !65}
!519 = !{i64 505}
!520 = !{i64 506}
!521 = !{i64 507}
!522 = !{i64 508}
!523 = !{i64 509}
!524 = distinct !{!524, !65}
!525 = !{i64 510}
!526 = !{i64 511}
!527 = !{i64 512}
!528 = !{i64 513}
!529 = !{i64 514}
!530 = distinct !{!530, !65}
!531 = !{i64 515}
!532 = !{i64 516}
!533 = !{i64 517}
!534 = !{i64 518}
!535 = !{i64 519}
!536 = distinct !{!536, !65}
!537 = !{i64 520}
!538 = !{i64 521}
!539 = !{i64 522}
!540 = !{i64 523}
!541 = !{i64 524}
!542 = !{i64 525}
!543 = !{i64 526}
!544 = !{i64 527}
!545 = !{i64 528}
!546 = !{i64 529}
!547 = !{i64 530}
!548 = !{i64 531}
!549 = !{i64 532}
!550 = !{i64 533}
!551 = !{i64 534}
!552 = !{i64 535}
!553 = !{i64 536}
!554 = !{i64 537}
!555 = !{i64 538}
!556 = !{i64 539}
!557 = !{i64 540}
!558 = !{i64 541}
!559 = !{i64 542}
!560 = !{i64 543}
!561 = !{i64 544}
!562 = !{i64 545}
!563 = !{i64 546}
!564 = !{i64 547}
!565 = !{i64 548}
!566 = distinct !{!566, !65}
!567 = !{i64 549}
!568 = !{i64 550}
!569 = !{i64 551}
!570 = !{i64 552}
!571 = !{i64 553}
!572 = !{i64 554}
!573 = !{i64 555}
!574 = !{i64 556}
!575 = !{i64 557}
!576 = !{i64 558}
!577 = !{i64 559}
!578 = !{i64 560}
!579 = !{i64 561}
