; ModuleID = '/home/hjiang/Computation-Kernel-Dataset/experiments/Fault_injection_0308_parall/O0/DefiniteRandomWalks/DefiniteRandomWalks.ll'
source_filename = "llvm-link"
target datalayout = "e-m:e-p270:32:32-p271:32:32-p272:64:64-i64:64-f80:128-n8:16:32:64-S128"
target triple = "x86_64-unknown-linux-gnu"

%"struct.std::less" = type { i8 }
%"class.std::vector" = type { %"struct.std::_Vector_base" }
%"struct.std::_Vector_base" = type { %"struct.std::_Vector_base<std::pair<int, int>, std::allocator<std::pair<int, int>>>::_Vector_impl" }
%"struct.std::_Vector_base<std::pair<int, int>, std::allocator<std::pair<int, int>>>::_Vector_impl" = type { %"struct.std::_Vector_base<std::pair<int, int>, std::allocator<std::pair<int, int>>>::_Vector_impl_data" }
%"struct.std::_Vector_base<std::pair<int, int>, std::allocator<std::pair<int, int>>>::_Vector_impl_data" = type { %"struct.std::pair"*, %"struct.std::pair"*, %"struct.std::pair"* }
%"struct.std::pair" = type { i32, i32 }
%"class.std::vector.0" = type { %"struct.std::_Vector_base.1" }
%"struct.std::_Vector_base.1" = type { %"struct.std::_Vector_base<int, std::allocator<int>>::_Vector_impl" }
%"struct.std::_Vector_base<int, std::allocator<int>>::_Vector_impl" = type { %"struct.std::_Vector_base<int, std::allocator<int>>::_Vector_impl_data" }
%"struct.std::_Vector_base<int, std::allocator<int>>::_Vector_impl_data" = type { i32*, i32*, i32* }
%"class.std::map" = type { %"class.std::_Rb_tree" }
%"class.std::_Rb_tree" = type { %"struct.std::_Rb_tree<int, std::pair<const int, int>, std::_Select1st<std::pair<const int, int>>, std::less<int>>::_Rb_tree_impl" }
%"struct.std::_Rb_tree<int, std::pair<const int, int>, std::_Select1st<std::pair<const int, int>>, std::less<int>>::_Rb_tree_impl" = type { %"struct.std::_Rb_tree_key_compare", %"struct.std::_Rb_tree_header" }
%"struct.std::_Rb_tree_key_compare" = type { %"struct.std::less" }
%"struct.std::_Rb_tree_header" = type { %"struct.std::_Rb_tree_node_base", i64 }
%"struct.std::_Rb_tree_node_base" = type { i32, %"struct.std::_Rb_tree_node_base"*, %"struct.std::_Rb_tree_node_base"*, %"struct.std::_Rb_tree_node_base"* }
%struct._IO_FILE = type { i32, i8*, i8*, i8*, i8*, i8*, i8*, i8*, i8*, i8*, i8*, i8*, %struct._IO_marker*, %struct._IO_FILE*, i32, i32, i64, i16, i8, [1 x i8], i8*, i64, %struct._IO_codecvt*, %struct._IO_wide_data*, %struct._IO_FILE*, i8*, i64, i32, [20 x i8] }
%struct._IO_marker = type opaque
%struct._IO_codecvt = type opaque
%struct._IO_wide_data = type opaque
%"struct.std::_Rb_tree_node" = type { %"struct.std::_Rb_tree_node_base", %"struct.__gnu_cxx::__aligned_membuf" }
%"struct.__gnu_cxx::__aligned_membuf" = type { [8 x i8] }
%"class.__gnu_cxx::__normal_iterator" = type { %"struct.std::pair"* }
%"struct.std::_Rb_tree_iterator" = type { %"struct.std::_Rb_tree_node_base"* }
%"class.std::tuple" = type { %"struct.std::_Tuple_impl" }
%"struct.std::_Tuple_impl" = type { %"struct.std::_Head_base" }
%"struct.std::_Head_base" = type { i32* }
%"struct.std::pair.13" = type { %"struct.std::_Rb_tree_node_base"*, %"struct.std::_Rb_tree_node_base"* }

$_ZNSt3mapIiiSt4lessIiESaISt4pairIKiiEEEC2Ev = comdat any

$_ZNSt3mapIiiSt4lessIiESaISt4pairIKiiEEED2Ev = comdat any

$_ZNSt8_Rb_treeIiSt4pairIKiiESt10_Select1stIS2_ESt4lessIiESaIS2_EED2Ev = comdat any

$_ZNSt8_Rb_treeIiSt4pairIKiiESt10_Select1stIS2_ESt4lessIiESaIS2_EE8_M_beginEv = comdat any

$_ZNSt8_Rb_treeIiSt4pairIKiiESt10_Select1stIS2_ESt4lessIiESaIS2_EE8_M_eraseEPSt13_Rb_tree_nodeIS2_E = comdat any

$_ZNSt8_Rb_treeIiSt4pairIKiiESt10_Select1stIS2_ESt4lessIiESaIS2_EE13_Rb_tree_implIS6_Lb1EED2Ev = comdat any

$__clang_call_terminate = comdat any

$_ZNSaISt13_Rb_tree_nodeISt4pairIKiiEEED2Ev = comdat any

$_ZN9__gnu_cxx13new_allocatorISt13_Rb_tree_nodeISt4pairIKiiEEED2Ev = comdat any

$_ZNSt8_Rb_treeIiSt4pairIKiiESt10_Select1stIS2_ESt4lessIiESaIS2_EE8_S_rightEPSt18_Rb_tree_node_base = comdat any

$_ZNSt8_Rb_treeIiSt4pairIKiiESt10_Select1stIS2_ESt4lessIiESaIS2_EE7_S_leftEPSt18_Rb_tree_node_base = comdat any

$_ZNSt8_Rb_treeIiSt4pairIKiiESt10_Select1stIS2_ESt4lessIiESaIS2_EE12_M_drop_nodeEPSt13_Rb_tree_nodeIS2_E = comdat any

$_ZNSt8_Rb_treeIiSt4pairIKiiESt10_Select1stIS2_ESt4lessIiESaIS2_EE15_M_destroy_nodeEPSt13_Rb_tree_nodeIS2_E = comdat any

$_ZNSt8_Rb_treeIiSt4pairIKiiESt10_Select1stIS2_ESt4lessIiESaIS2_EE11_M_put_nodeEPSt13_Rb_tree_nodeIS2_E = comdat any

$_ZNSt8_Rb_treeIiSt4pairIKiiESt10_Select1stIS2_ESt4lessIiESaIS2_EE21_M_get_Node_allocatorEv = comdat any

$_ZNSt16allocator_traitsISaISt13_Rb_tree_nodeISt4pairIKiiEEEE10deallocateERS5_PS4_m = comdat any

$_ZN9__gnu_cxx13new_allocatorISt13_Rb_tree_nodeISt4pairIKiiEEE10deallocateEPS5_m = comdat any

$_ZNSt13_Rb_tree_nodeISt4pairIKiiEE9_M_valptrEv = comdat any

$_ZNSt16allocator_traitsISaISt13_Rb_tree_nodeISt4pairIKiiEEEE7destroyIS3_EEvRS5_PT_ = comdat any

$_ZN9__gnu_cxx13new_allocatorISt13_Rb_tree_nodeISt4pairIKiiEEE7destroyIS4_EEvPT_ = comdat any

$_ZN9__gnu_cxx16__aligned_membufISt4pairIKiiEE6_M_ptrEv = comdat any

$_ZN9__gnu_cxx16__aligned_membufISt4pairIKiiEE7_M_addrEv = comdat any

$_ZNSt8_Rb_treeIiSt4pairIKiiESt10_Select1stIS2_ESt4lessIiESaIS2_EEC2Ev = comdat any

$_ZNSt8_Rb_treeIiSt4pairIKiiESt10_Select1stIS2_ESt4lessIiESaIS2_EE13_Rb_tree_implIS6_Lb1EEC2Ev = comdat any

$_ZNSaISt13_Rb_tree_nodeISt4pairIKiiEEEC2Ev = comdat any

$_ZNSt20_Rb_tree_key_compareISt4lessIiEEC2Ev = comdat any

$_ZNSt15_Rb_tree_headerC2Ev = comdat any

$_ZNSt15_Rb_tree_header8_M_resetEv = comdat any

$_ZN9__gnu_cxx13new_allocatorISt13_Rb_tree_nodeISt4pairIKiiEEEC2Ev = comdat any

$_ZNSt6vectorIiSaIiEEC2Ev = comdat any

$_ZNSt6vectorIiSaIiEED2Ev = comdat any

$_ZNSt12_Vector_baseIiSaIiEE19_M_get_Tp_allocatorEv = comdat any

$_ZSt8_DestroyIPiiEvT_S1_RSaIT0_E = comdat any

$_ZNSt12_Vector_baseIiSaIiEED2Ev = comdat any

$_ZNSt12_Vector_baseIiSaIiEE13_M_deallocateEPim = comdat any

$_ZNSt12_Vector_baseIiSaIiEE12_Vector_implD2Ev = comdat any

$_ZNSaIiED2Ev = comdat any

$_ZN9__gnu_cxx13new_allocatorIiED2Ev = comdat any

$_ZNSt16allocator_traitsISaIiEE10deallocateERS0_Pim = comdat any

$_ZN9__gnu_cxx13new_allocatorIiE10deallocateEPim = comdat any

$_ZSt8_DestroyIPiEvT_S1_ = comdat any

$_ZNSt12_Destroy_auxILb1EE9__destroyIPiEEvT_S3_ = comdat any

$_ZNSt12_Vector_baseIiSaIiEEC2Ev = comdat any

$_ZNSt12_Vector_baseIiSaIiEE12_Vector_implC2Ev = comdat any

$_ZNSaIiEC2Ev = comdat any

$_ZNSt12_Vector_baseIiSaIiEE17_Vector_impl_dataC2Ev = comdat any

$_ZN9__gnu_cxx13new_allocatorIiEC2Ev = comdat any

$_ZNSt6vectorISt4pairIiiESaIS1_EEC2Ev = comdat any

$_ZNSt6vectorISt4pairIiiESaIS1_EED2Ev = comdat any

$_ZNSt12_Vector_baseISt4pairIiiESaIS1_EE19_M_get_Tp_allocatorEv = comdat any

$_ZSt8_DestroyIPSt4pairIiiES1_EvT_S3_RSaIT0_E = comdat any

$_ZNSt12_Vector_baseISt4pairIiiESaIS1_EED2Ev = comdat any

$_ZNSt12_Vector_baseISt4pairIiiESaIS1_EE13_M_deallocateEPS1_m = comdat any

$_ZNSt12_Vector_baseISt4pairIiiESaIS1_EE12_Vector_implD2Ev = comdat any

$_ZNSaISt4pairIiiEED2Ev = comdat any

$_ZN9__gnu_cxx13new_allocatorISt4pairIiiEED2Ev = comdat any

$_ZNSt16allocator_traitsISaISt4pairIiiEEE10deallocateERS2_PS1_m = comdat any

$_ZN9__gnu_cxx13new_allocatorISt4pairIiiEE10deallocateEPS2_m = comdat any

$_ZSt8_DestroyIPSt4pairIiiEEvT_S3_ = comdat any

$_ZNSt12_Destroy_auxILb1EE9__destroyIPSt4pairIiiEEEvT_S5_ = comdat any

$_ZNSt12_Vector_baseISt4pairIiiESaIS1_EEC2Ev = comdat any

$_ZNSt12_Vector_baseISt4pairIiiESaIS1_EE12_Vector_implC2Ev = comdat any

$_ZNSaISt4pairIiiEEC2Ev = comdat any

$_ZNSt12_Vector_baseISt4pairIiiESaIS1_EE17_Vector_impl_dataC2Ev = comdat any

$_ZN9__gnu_cxx13new_allocatorISt4pairIiiEEC2Ev = comdat any

$_ZSt4swapIxENSt9enable_ifIXsr6__and_ISt6__not_ISt15__is_tuple_likeIT_EESt21is_move_constructibleIS3_ESt18is_move_assignableIS3_EEE5valueEvE4typeERS3_SC_ = comdat any

$_ZSt4moveIRxEONSt16remove_referenceIT_E4typeEOS2_ = comdat any

$_ZNKSt6vectorISt4pairIiiESaIS1_EE4sizeEv = comdat any

$_ZNSt4pairIiiEC2IiiLb1EEEOT_OT0_ = comdat any

$_ZNSt6vectorISt4pairIiiESaIS1_EE9push_backEOS1_ = comdat any

$_ZNSt6vectorISt4pairIiiESaIS1_EEixEm = comdat any

$_ZNSt6vectorISt4pairIiiESaIS1_EE4swapERS3_ = comdat any

$_ZNSt6vectorISt4pairIiiESaIS1_EE9push_backERKS1_ = comdat any

$_ZNSt6vectorISt4pairIiiESaIS1_EE5clearEv = comdat any

$_ZNSt6vectorISt4pairIiiESaIS1_EE15_M_erase_at_endEPS1_ = comdat any

$_ZNSt16allocator_traitsISaISt4pairIiiEEE9constructIS1_JRKS1_EEEvRS2_PT_DpOT0_ = comdat any

$_ZNSt6vectorISt4pairIiiESaIS1_EE3endEv = comdat any

$_ZNSt6vectorISt4pairIiiESaIS1_EE17_M_realloc_insertIJRKS1_EEEvN9__gnu_cxx17__normal_iteratorIPS1_S3_EEDpOT_ = comdat any

$_ZNKSt6vectorISt4pairIiiESaIS1_EE12_M_check_lenEmPKc = comdat any

$_ZNSt6vectorISt4pairIiiESaIS1_EE5beginEv = comdat any

$_ZN9__gnu_cxxmiIPSt4pairIiiESt6vectorIS2_SaIS2_EEEENS_17__normal_iteratorIT_T0_E15difference_typeERKSA_SD_ = comdat any

$_ZNSt12_Vector_baseISt4pairIiiESaIS1_EE11_M_allocateEm = comdat any

$_ZSt7forwardIRKSt4pairIiiEEOT_RNSt16remove_referenceIS4_E4typeE = comdat any

$_ZNK9__gnu_cxx17__normal_iteratorIPSt4pairIiiESt6vectorIS2_SaIS2_EEE4baseEv = comdat any

$_ZNSt6vectorISt4pairIiiESaIS1_EE11_S_relocateEPS1_S4_S4_RS2_ = comdat any

$_ZNSt6vectorISt4pairIiiESaIS1_EE14_S_do_relocateEPS1_S4_S4_RS2_St17integral_constantIbLb1EE = comdat any

$_ZSt12__relocate_aIPSt4pairIiiES2_SaIS1_EET0_T_S5_S4_RT1_ = comdat any

$_ZSt12__niter_baseIPSt4pairIiiEET_S3_ = comdat any

$_ZSt14__relocate_a_1IPSt4pairIiiES2_SaIS1_EET0_T_S5_S4_RT1_ = comdat any

$_ZSt11__addressofISt4pairIiiEEPT_RS2_ = comdat any

$_ZSt19__relocate_object_aISt4pairIiiES1_SaIS1_EEvPT_PT0_RT1_ = comdat any

$_ZSt4moveIRSt4pairIiiEEONSt16remove_referenceIT_E4typeEOS4_ = comdat any

$_ZNSt16allocator_traitsISaISt4pairIiiEEE9constructIS1_JS1_EEEvRS2_PT_DpOT0_ = comdat any

$_ZNSt16allocator_traitsISaISt4pairIiiEEE7destroyIS1_EEvRS2_PT_ = comdat any

$_ZN9__gnu_cxx13new_allocatorISt4pairIiiEE7destroyIS2_EEvPT_ = comdat any

$_ZSt7forwardISt4pairIiiEEOT_RNSt16remove_referenceIS2_E4typeE = comdat any

$_ZN9__gnu_cxx13new_allocatorISt4pairIiiEE9constructIS2_JS2_EEEvPT_DpOT0_ = comdat any

$_ZNSt16allocator_traitsISaISt4pairIiiEEE8allocateERS2_m = comdat any

$_ZN9__gnu_cxx13new_allocatorISt4pairIiiEE8allocateEmPKv = comdat any

$_ZNK9__gnu_cxx13new_allocatorISt4pairIiiEE8max_sizeEv = comdat any

$_ZN9__gnu_cxx17__normal_iteratorIPSt4pairIiiESt6vectorIS2_SaIS2_EEEC2ERKS3_ = comdat any

$_ZNKSt6vectorISt4pairIiiESaIS1_EE8max_sizeEv = comdat any

$_ZSt3maxImERKT_S2_S2_ = comdat any

$_ZNKSt12_Vector_baseISt4pairIiiESaIS1_EE19_M_get_Tp_allocatorEv = comdat any

$_ZNSt6vectorISt4pairIiiESaIS1_EE11_S_max_sizeERKS2_ = comdat any

$_ZNSt16allocator_traitsISaISt4pairIiiEEE8max_sizeERKS2_ = comdat any

$_ZSt3minImERKT_S2_S2_ = comdat any

$_ZN9__gnu_cxx13new_allocatorISt4pairIiiEE9constructIS2_JRKS2_EEEvPT_DpOT0_ = comdat any

$_ZNSt12_Vector_baseISt4pairIiiESaIS1_EE17_Vector_impl_data12_M_swap_dataERS4_ = comdat any

$_ZN9__gnu_cxx14__alloc_traitsISaISt4pairIiiEES2_E10_S_on_swapERS3_S5_ = comdat any

$_ZSt15__alloc_on_swapISaISt4pairIiiEEEvRT_S4_ = comdat any

$_ZSt18__do_alloc_on_swapISaISt4pairIiiEEEvRT_S4_St17integral_constantIbLb0EE = comdat any

$_ZNSt12_Vector_baseISt4pairIiiESaIS1_EE17_Vector_impl_data12_M_copy_dataERKS4_ = comdat any

$_ZNSt6vectorISt4pairIiiESaIS1_EE12emplace_backIJS1_EEEvDpOT_ = comdat any

$_ZNSt6vectorISt4pairIiiESaIS1_EE17_M_realloc_insertIJS1_EEEvN9__gnu_cxx17__normal_iteratorIPS1_S3_EEDpOT_ = comdat any

$_ZSt7forwardIiEOT_RNSt16remove_referenceIS0_E4typeE = comdat any

$_ZNSt3mapIiiSt4lessIiESaISt4pairIKiiEEE4findERS3_ = comdat any

$_ZNSt3mapIiiSt4lessIiESaISt4pairIKiiEEE3endEv = comdat any

$_ZSteqRKSt17_Rb_tree_iteratorISt4pairIKiiEES5_ = comdat any

$_ZNSt3mapIiiSt4lessIiESaISt4pairIKiiEEEixEOi = comdat any

$_ZNSt3mapIiiSt4lessIiESaISt4pairIKiiEEE11lower_boundERS3_ = comdat any

$_ZNKSt3mapIiiSt4lessIiESaISt4pairIKiiEEE8key_compEv = comdat any

$_ZNKSt17_Rb_tree_iteratorISt4pairIKiiEEdeEv = comdat any

$_ZNKSt4lessIiEclERKiS2_ = comdat any

$_ZNSt23_Rb_tree_const_iteratorISt4pairIKiiEEC2ERKSt17_Rb_tree_iteratorIS2_E = comdat any

$_ZSt4moveIRiEONSt16remove_referenceIT_E4typeEOS2_ = comdat any

$_ZSt16forward_as_tupleIJiEESt5tupleIJDpOT_EES3_ = comdat any

$_ZNSt8_Rb_treeIiSt4pairIKiiESt10_Select1stIS2_ESt4lessIiESaIS2_EE22_M_emplace_hint_uniqueIJRKSt21piecewise_construct_tSt5tupleIJOiEESD_IJEEEEESt17_Rb_tree_iteratorIS2_ESt23_Rb_tree_const_iteratorIS2_EDpOT_ = comdat any

$_ZSt7forwardIRKSt21piecewise_construct_tEOT_RNSt16remove_referenceIS3_E4typeE = comdat any

$_ZSt7forwardISt5tupleIJOiEEEOT_RNSt16remove_referenceIS3_E4typeE = comdat any

$_ZSt7forwardISt5tupleIJEEEOT_RNSt16remove_referenceIS2_E4typeE = comdat any

$_ZNSt8_Rb_treeIiSt4pairIKiiESt10_Select1stIS2_ESt4lessIiESaIS2_EE14_M_create_nodeIJRKSt21piecewise_construct_tSt5tupleIJOiEESD_IJEEEEEPSt13_Rb_tree_nodeIS2_EDpOT_ = comdat any

$_ZNSt8_Rb_treeIiSt4pairIKiiESt10_Select1stIS2_ESt4lessIiESaIS2_EE6_S_keyEPKSt13_Rb_tree_nodeIS2_E = comdat any

$_ZNSt8_Rb_treeIiSt4pairIKiiESt10_Select1stIS2_ESt4lessIiESaIS2_EE29_M_get_insert_hint_unique_posESt23_Rb_tree_const_iteratorIS2_ERS1_ = comdat any

$_ZNSt8_Rb_treeIiSt4pairIKiiESt10_Select1stIS2_ESt4lessIiESaIS2_EE14_M_insert_nodeEPSt18_Rb_tree_node_baseSA_PSt13_Rb_tree_nodeIS2_E = comdat any

$_ZNSt17_Rb_tree_iteratorISt4pairIKiiEEC2EPSt18_Rb_tree_node_base = comdat any

$_ZNSt8_Rb_treeIiSt4pairIKiiESt10_Select1stIS2_ESt4lessIiESaIS2_EE6_M_endEv = comdat any

$_ZNSt8_Rb_treeIiSt4pairIKiiESt10_Select1stIS2_ESt4lessIiESaIS2_EE6_S_keyEPKSt18_Rb_tree_node_base = comdat any

$_ZNKSt23_Rb_tree_const_iteratorISt4pairIKiiEE13_M_const_castEv = comdat any

$_ZNKSt8_Rb_treeIiSt4pairIKiiESt10_Select1stIS2_ESt4lessIiESaIS2_EE4sizeEv = comdat any

$_ZNSt8_Rb_treeIiSt4pairIKiiESt10_Select1stIS2_ESt4lessIiESaIS2_EE12_M_rightmostEv = comdat any

$_ZNSt4pairIPSt18_Rb_tree_node_baseS1_EC2IRS1_Lb1EEERKS1_OT_ = comdat any

$_ZNSt8_Rb_treeIiSt4pairIKiiESt10_Select1stIS2_ESt4lessIiESaIS2_EE24_M_get_insert_unique_posERS1_ = comdat any

$_ZNSt8_Rb_treeIiSt4pairIKiiESt10_Select1stIS2_ESt4lessIiESaIS2_EE11_M_leftmostEv = comdat any

$_ZNSt4pairIPSt18_Rb_tree_node_baseS1_EC2IRS1_S4_Lb1EEEOT_OT0_ = comdat any

$_ZNSt17_Rb_tree_iteratorISt4pairIKiiEEmmEv = comdat any

$_ZNSt17_Rb_tree_iteratorISt4pairIKiiEEppEv = comdat any

$_ZNSt4pairIPSt18_Rb_tree_node_baseS1_EC2IRS1_Lb1EEEOT_RKS1_ = comdat any

$_ZSt7forwardIRPSt18_Rb_tree_node_baseEOT_RNSt16remove_referenceIS3_E4typeE = comdat any

$_ZNSt8_Rb_treeIiSt4pairIKiiESt10_Select1stIS2_ESt4lessIiESaIS2_EE5beginEv = comdat any

$_ZNSt4pairIPSt18_Rb_tree_node_baseS1_EC2IRPSt13_Rb_tree_nodeIS_IKiiEERS1_Lb1EEEOT_OT0_ = comdat any

$_ZSt7forwardIRPSt13_Rb_tree_nodeISt4pairIKiiEEEOT_RNSt16remove_referenceIS7_E4typeE = comdat any

$_ZNKSt13_Rb_tree_nodeISt4pairIKiiEE9_M_valptrEv = comdat any

$_ZNKSt10_Select1stISt4pairIKiiEEclERKS2_ = comdat any

$_ZNK9__gnu_cxx16__aligned_membufISt4pairIKiiEE6_M_ptrEv = comdat any

$_ZNK9__gnu_cxx16__aligned_membufISt4pairIKiiEE7_M_addrEv = comdat any

$_ZNSt8_Rb_treeIiSt4pairIKiiESt10_Select1stIS2_ESt4lessIiESaIS2_EE11_M_get_nodeEv = comdat any

$_ZNSt8_Rb_treeIiSt4pairIKiiESt10_Select1stIS2_ESt4lessIiESaIS2_EE17_M_construct_nodeIJRKSt21piecewise_construct_tSt5tupleIJOiEESD_IJEEEEEvPSt13_Rb_tree_nodeIS2_EDpOT_ = comdat any

$_ZNSt16allocator_traitsISaISt13_Rb_tree_nodeISt4pairIKiiEEEE9constructIS3_JRKSt21piecewise_construct_tSt5tupleIJOiEESB_IJEEEEEvRS5_PT_DpOT0_ = comdat any

$_ZN9__gnu_cxx13new_allocatorISt13_Rb_tree_nodeISt4pairIKiiEEE9constructIS4_JRKSt21piecewise_construct_tSt5tupleIJOiEESB_IJEEEEEvPT_DpOT0_ = comdat any

$_ZNSt5tupleIJOiEEC2EOS1_ = comdat any

$_ZNSt4pairIKiiEC2IJOiEJEEESt21piecewise_construct_tSt5tupleIJDpT_EES5_IJDpT0_EE = comdat any

$_ZNSt4pairIKiiEC2IJOiEJLm0EEJEJEEERSt5tupleIJDpT_EERS4_IJDpT1_EESt12_Index_tupleIJXspT0_EEESD_IJXspT2_EEE = comdat any

$_ZSt3getILm0EJOiEERNSt13tuple_elementIXT_ESt5tupleIJDpT0_EEE4typeERS5_ = comdat any

$_ZSt7forwardIOiEOT_RNSt16remove_referenceIS1_E4typeE = comdat any

$_ZSt12__get_helperILm0EOiJEERT0_RSt11_Tuple_implIXT_EJS1_DpT1_EE = comdat any

$_ZNSt11_Tuple_implILm0EJOiEE7_M_headERS1_ = comdat any

$_ZNSt10_Head_baseILm0EOiLb0EE7_M_headERS1_ = comdat any

$_ZNSt11_Tuple_implILm0EJOiEEC2EOS1_ = comdat any

$_ZNSt10_Head_baseILm0EOiLb0EEC2IiEEOT_ = comdat any

$_ZNSt16allocator_traitsISaISt13_Rb_tree_nodeISt4pairIKiiEEEE8allocateERS5_m = comdat any

$_ZN9__gnu_cxx13new_allocatorISt13_Rb_tree_nodeISt4pairIKiiEEE8allocateEmPKv = comdat any

$_ZNK9__gnu_cxx13new_allocatorISt13_Rb_tree_nodeISt4pairIKiiEEE8max_sizeEv = comdat any

$_ZNSt5tupleIJOiEEC2IJiELb1EEEDpOT_ = comdat any

$_ZNSt11_Tuple_implILm0EJOiEEC2IiEEOT_ = comdat any

$_ZNKSt8_Rb_treeIiSt4pairIKiiESt10_Select1stIS2_ESt4lessIiESaIS2_EE8key_compEv = comdat any

$_ZNSt8_Rb_treeIiSt4pairIKiiESt10_Select1stIS2_ESt4lessIiESaIS2_EE11lower_boundERS1_ = comdat any

$_ZNSt8_Rb_treeIiSt4pairIKiiESt10_Select1stIS2_ESt4lessIiESaIS2_EE14_M_lower_boundEPSt13_Rb_tree_nodeIS2_EPSt18_Rb_tree_node_baseRS1_ = comdat any

$_ZNSt8_Rb_treeIiSt4pairIKiiESt10_Select1stIS2_ESt4lessIiESaIS2_EE3endEv = comdat any

$_ZNSt8_Rb_treeIiSt4pairIKiiESt10_Select1stIS2_ESt4lessIiESaIS2_EE4findERS1_ = comdat any

$_ZNKSt6vectorIiSaIiEE4sizeEv = comdat any

$_ZNSt6vectorIiSaIiEEixEm = comdat any

$_ZSt3maxIiERKT_S2_S2_ = comdat any

$_ZNSt6vectorIiSaIiEE9push_backERKi = comdat any

$_ZNSt3mapIiiSt4lessIiESaISt4pairIKiiEEEixERS3_ = comdat any

$_ZNSt5tupleIJRKiEEC2IvLb1EEES1_ = comdat any

$_ZNSt8_Rb_treeIiSt4pairIKiiESt10_Select1stIS2_ESt4lessIiESaIS2_EE22_M_emplace_hint_uniqueIJRKSt21piecewise_construct_tSt5tupleIJRS1_EESD_IJEEEEESt17_Rb_tree_iteratorIS2_ESt23_Rb_tree_const_iteratorIS2_EDpOT_ = comdat any

$_ZSt7forwardISt5tupleIJRKiEEEOT_RNSt16remove_referenceIS4_E4typeE = comdat any

$_ZNSt8_Rb_treeIiSt4pairIKiiESt10_Select1stIS2_ESt4lessIiESaIS2_EE14_M_create_nodeIJRKSt21piecewise_construct_tSt5tupleIJRS1_EESD_IJEEEEEPSt13_Rb_tree_nodeIS2_EDpOT_ = comdat any

$_ZNSt8_Rb_treeIiSt4pairIKiiESt10_Select1stIS2_ESt4lessIiESaIS2_EE17_M_construct_nodeIJRKSt21piecewise_construct_tSt5tupleIJRS1_EESD_IJEEEEEvPSt13_Rb_tree_nodeIS2_EDpOT_ = comdat any

$_ZNSt16allocator_traitsISaISt13_Rb_tree_nodeISt4pairIKiiEEEE9constructIS3_JRKSt21piecewise_construct_tSt5tupleIJRS2_EESB_IJEEEEEvRS5_PT_DpOT0_ = comdat any

$_ZN9__gnu_cxx13new_allocatorISt13_Rb_tree_nodeISt4pairIKiiEEE9constructIS4_JRKSt21piecewise_construct_tSt5tupleIJRS3_EESB_IJEEEEEvPT_DpOT0_ = comdat any

$_ZNSt5tupleIJRKiEEC2EOS2_ = comdat any

$_ZNSt4pairIKiiEC2IJRS0_EJEEESt21piecewise_construct_tSt5tupleIJDpT_EES5_IJDpT0_EE = comdat any

$_ZNSt4pairIKiiEC2IJRS0_EJLm0EEJEJEEERSt5tupleIJDpT_EERS4_IJDpT1_EESt12_Index_tupleIJXspT0_EEESD_IJXspT2_EEE = comdat any

$_ZSt3getILm0EJRKiEERNSt13tuple_elementIXT_ESt5tupleIJDpT0_EEE4typeERS6_ = comdat any

$_ZSt7forwardIRKiEOT_RNSt16remove_referenceIS2_E4typeE = comdat any

$_ZSt12__get_helperILm0ERKiJEERT0_RSt11_Tuple_implIXT_EJS2_DpT1_EE = comdat any

$_ZNSt11_Tuple_implILm0EJRKiEE7_M_headERS2_ = comdat any

$_ZNSt10_Head_baseILm0ERKiLb0EE7_M_headERS2_ = comdat any

$_ZNSt11_Tuple_implILm0EJRKiEEC2EOS2_ = comdat any

$_ZNSt10_Head_baseILm0ERKiLb0EEC2ES1_ = comdat any

$_ZNSt11_Tuple_implILm0EJRKiEEC2ES1_ = comdat any

$_ZNSt16allocator_traitsISaIiEE9constructIiJRKiEEEvRS0_PT_DpOT0_ = comdat any

$_ZNSt6vectorIiSaIiEE3endEv = comdat any

$_ZNSt6vectorIiSaIiEE17_M_realloc_insertIJRKiEEEvN9__gnu_cxx17__normal_iteratorIPiS1_EEDpOT_ = comdat any

$_ZNKSt6vectorIiSaIiEE12_M_check_lenEmPKc = comdat any

$_ZNSt6vectorIiSaIiEE5beginEv = comdat any

$_ZN9__gnu_cxxmiIPiSt6vectorIiSaIiEEEENS_17__normal_iteratorIT_T0_E15difference_typeERKS8_SB_ = comdat any

$_ZNSt12_Vector_baseIiSaIiEE11_M_allocateEm = comdat any

$_ZNK9__gnu_cxx17__normal_iteratorIPiSt6vectorIiSaIiEEE4baseEv = comdat any

$_ZNSt6vectorIiSaIiEE11_S_relocateEPiS2_S2_RS0_ = comdat any

$_ZNSt6vectorIiSaIiEE14_S_do_relocateEPiS2_S2_RS0_St17integral_constantIbLb1EE = comdat any

$_ZSt12__relocate_aIPiS0_SaIiEET0_T_S3_S2_RT1_ = comdat any

$_ZSt12__niter_baseIPiET_S1_ = comdat any

$_ZSt14__relocate_a_1IiiENSt9enable_ifIXsr3std24__is_bitwise_relocatableIT_EE5valueEPS1_E4typeES2_S2_S2_RSaIT0_E = comdat any

$_ZNSt16allocator_traitsISaIiEE8allocateERS0_m = comdat any

$_ZN9__gnu_cxx13new_allocatorIiE8allocateEmPKv = comdat any

$_ZNK9__gnu_cxx13new_allocatorIiE8max_sizeEv = comdat any

$_ZN9__gnu_cxx17__normal_iteratorIPiSt6vectorIiSaIiEEEC2ERKS1_ = comdat any

$_ZNKSt6vectorIiSaIiEE8max_sizeEv = comdat any

$_ZNKSt12_Vector_baseIiSaIiEE19_M_get_Tp_allocatorEv = comdat any

$_ZNSt6vectorIiSaIiEE11_S_max_sizeERKS0_ = comdat any

$_ZNSt16allocator_traitsISaIiEE8max_sizeERKS0_ = comdat any

$_ZN9__gnu_cxx13new_allocatorIiE9constructIiJRKiEEEvPT_DpOT0_ = comdat any

@llvm.global_ctors = appending global [1 x { i32, void ()*, i8* }] [{ i32, void ()*, i8* } { i32 65535, void ()* @_GLOBAL__sub_I_DefiniteRandomWalks.cpp, i8* null }]
@_ZStL8__ioinit = internal global %"struct.std::less" zeroinitializer, align 1
@n = dso_local global i32 0, align 4
@m = dso_local global i32 0, align 4
@k = dso_local global i32 0, align 4
@cnt = dso_local global i32 0, align 4
@macnt = dso_local global i32 0, align 4
@f = dso_local global [60009 x i32] zeroinitializer, align 16
@p = dso_local global [100009 x i32] zeroinitializer, align 16
@vis = dso_local global [60009 x i32] zeroinitializer, align 16
@pa = dso_local global [60009 x i32] zeroinitializer, align 16
@siz = dso_local global [60009 x i32] zeroinitializer, align 16
@y = dso_local global [300000 x i64] zeroinitializer, align 16
@x = dso_local global [300000 x i64] zeroinitializer, align 16
@z = dso_local global [300000 x i64] zeroinitializer, align 16
@inz = dso_local global [300000 x i64] zeroinitializer, align 16
@nz = dso_local global [300000 x i64] zeroinitializer, align 16
@ans = dso_local global [60009 x i64] zeroinitializer, align 16
@maxlen = dso_local global [400 x i32] zeroinitializer, align 16
@idid = dso_local global [400 x i32] zeroinitializer, align 16
@qq = dso_local global [400 x [60009 x i64]] zeroinitializer, align 16
@vv = dso_local global [60009 x i32] zeroinitializer, align 16
@nuv = dso_local global [60009 x i32] zeroinitializer, align 16
@v = dso_local global [60009 x i8] zeroinitializer, align 16
@vc = dso_local global [60009 x i8] zeroinitializer, align 16
@QWQ = dso_local global [60009 x %"class.std::vector"] zeroinitializer, align 16
@G = dso_local global [60009 x %"class.std::vector.0"] zeroinitializer, align 16
@maa = dso_local global %"class.std::map" zeroinitializer, align 8
@.str = private unnamed_addr constant [35 x i8] c"../input_files/DefiniteRandomWalks\00", align 1
@.str.5 = private unnamed_addr constant [2 x i8] c"r\00", align 1
@stdin = external dso_local global %struct._IO_FILE*, align 8
@.str.6 = private unnamed_addr constant [7 x i8] c"%d%d%d\00", align 1
@.str.7 = private unnamed_addr constant [3 x i8] c"%d\00", align 1
@.str.8 = private unnamed_addr constant [6 x i8] c"%lld\0A\00", align 1
@.str.9 = private unnamed_addr constant [26 x i8] c"vector::_M_realloc_insert\00", align 1
@_ZStL19piecewise_construct = internal constant %"struct.std::less" undef, align 1

; Function Attrs: noinline uwtable
define internal void @_GLOBAL__sub_I_DefiniteRandomWalks.cpp() #0 section ".text.startup" {
  call void @__cxx_global_var_init(), !llfi_index !4
  call void @__cxx_global_var_init.1(), !llfi_index !5
  call void @__cxx_global_var_init.2(), !llfi_index !6
  call void @__cxx_global_var_init.4(), !llfi_index !7
  ret void, !llfi_index !8
}

; Function Attrs: noinline uwtable
define internal void @__cxx_global_var_init() #0 section ".text.startup" {
  call void @_ZNSt8ios_base4InitC1Ev(%"struct.std::less"* nonnull align 1 dereferenceable(1) @_ZStL8__ioinit), !llfi_index !9
  %1 = call i32 @atexit(void ()* @__dtor__ZStL8__ioinit) #2, !llfi_index !10
  ret void, !llfi_index !11
}

; Function Attrs: noinline uwtable
define internal void @__cxx_global_var_init.1() #0 section ".text.startup" {
  br label %1, !llfi_index !12

1:                                                ; preds = %1, %0
  %2 = phi %"class.std::vector"* [ getelementptr inbounds ([60009 x %"class.std::vector"], [60009 x %"class.std::vector"]* @QWQ, i32 0, i32 0), %0 ], [ %3, %1 ], !llfi_index !13
  call void @_ZNSt6vectorISt4pairIiiESaIS1_EEC2Ev(%"class.std::vector"* nonnull align 8 dereferenceable(24) %2) #2, !llfi_index !14
  %3 = getelementptr inbounds %"class.std::vector", %"class.std::vector"* %2, i64 1, !llfi_index !15
  %4 = icmp eq %"class.std::vector"* %3, getelementptr inbounds (%"class.std::vector", %"class.std::vector"* getelementptr inbounds ([60009 x %"class.std::vector"], [60009 x %"class.std::vector"]* @QWQ, i32 0, i32 0), i64 60009), !llfi_index !16
  br i1 %4, label %5, label %1, !llfi_index !17

5:                                                ; preds = %1
  %6 = call i32 @atexit(void ()* @__dtor_QWQ) #2, !llfi_index !18
  ret void, !llfi_index !19
}

; Function Attrs: noinline uwtable
define internal void @__cxx_global_var_init.2() #0 section ".text.startup" {
  br label %1, !llfi_index !20

1:                                                ; preds = %1, %0
  %2 = phi %"class.std::vector.0"* [ getelementptr inbounds ([60009 x %"class.std::vector.0"], [60009 x %"class.std::vector.0"]* @G, i32 0, i32 0), %0 ], [ %3, %1 ], !llfi_index !21
  call void @_ZNSt6vectorIiSaIiEEC2Ev(%"class.std::vector.0"* nonnull align 8 dereferenceable(24) %2) #2, !llfi_index !22
  %3 = getelementptr inbounds %"class.std::vector.0", %"class.std::vector.0"* %2, i64 1, !llfi_index !23
  %4 = icmp eq %"class.std::vector.0"* %3, getelementptr inbounds (%"class.std::vector.0", %"class.std::vector.0"* getelementptr inbounds ([60009 x %"class.std::vector.0"], [60009 x %"class.std::vector.0"]* @G, i32 0, i32 0), i64 60009), !llfi_index !24
  br i1 %4, label %5, label %1, !llfi_index !25

5:                                                ; preds = %1
  %6 = call i32 @atexit(void ()* @__dtor_G) #2, !llfi_index !26
  ret void, !llfi_index !27
}

; Function Attrs: noinline uwtable
define internal void @__cxx_global_var_init.4() #0 section ".text.startup" {
  call void @_ZNSt3mapIiiSt4lessIiESaISt4pairIKiiEEEC2Ev(%"class.std::map"* nonnull align 8 dereferenceable(48) @maa) #2, !llfi_index !28
  %1 = call i32 @atexit(void ()* @__dtor_maa) #2, !llfi_index !29
  ret void, !llfi_index !30
}

; Function Attrs: noinline nounwind uwtable
define linkonce_odr dso_local void @_ZNSt3mapIiiSt4lessIiESaISt4pairIKiiEEEC2Ev(%"class.std::map"* nonnull align 8 dereferenceable(48) %0) unnamed_addr #1 comdat align 2 {
  %2 = alloca %"class.std::map"*, align 8, !llfi_index !31
  store %"class.std::map"* %0, %"class.std::map"** %2, align 8, !llfi_index !32
  %3 = load %"class.std::map"*, %"class.std::map"** %2, align 8, !llfi_index !33
  %4 = getelementptr inbounds %"class.std::map", %"class.std::map"* %3, i32 0, i32 0, !llfi_index !34
  call void @_ZNSt8_Rb_treeIiSt4pairIKiiESt10_Select1stIS2_ESt4lessIiESaIS2_EEC2Ev(%"class.std::_Rb_tree"* nonnull align 8 dereferenceable(48) %4) #2, !llfi_index !35
  ret void, !llfi_index !36
}

; Function Attrs: noinline uwtable
define internal void @__dtor_maa() #0 section ".text.startup" {
  call void @_ZNSt3mapIiiSt4lessIiESaISt4pairIKiiEEED2Ev(%"class.std::map"* @maa), !llfi_index !37
  ret void, !llfi_index !38
}

; Function Attrs: nounwind
declare dso_local i32 @atexit(void ()*) #2

; Function Attrs: noinline nounwind uwtable
define linkonce_odr dso_local void @_ZNSt3mapIiiSt4lessIiESaISt4pairIKiiEEED2Ev(%"class.std::map"* nonnull align 8 dereferenceable(48) %0) unnamed_addr #1 comdat align 2 {
  %2 = alloca %"class.std::map"*, align 8, !llfi_index !39
  store %"class.std::map"* %0, %"class.std::map"** %2, align 8, !llfi_index !40
  %3 = load %"class.std::map"*, %"class.std::map"** %2, align 8, !llfi_index !41
  %4 = getelementptr inbounds %"class.std::map", %"class.std::map"* %3, i32 0, i32 0, !llfi_index !42
  call void @_ZNSt8_Rb_treeIiSt4pairIKiiESt10_Select1stIS2_ESt4lessIiESaIS2_EED2Ev(%"class.std::_Rb_tree"* nonnull align 8 dereferenceable(48) %4) #2, !llfi_index !43
  ret void, !llfi_index !44
}

; Function Attrs: noinline nounwind uwtable
define linkonce_odr dso_local void @_ZNSt8_Rb_treeIiSt4pairIKiiESt10_Select1stIS2_ESt4lessIiESaIS2_EED2Ev(%"class.std::_Rb_tree"* nonnull align 8 dereferenceable(48) %0) unnamed_addr #1 comdat align 2 personality i8* bitcast (i32 (...)* @__gxx_personality_v0 to i8*) {
  %2 = alloca %"class.std::_Rb_tree"*, align 8, !llfi_index !45
  %3 = alloca i8*, align 8, !llfi_index !46
  %4 = alloca i32, align 4, !llfi_index !47
  store %"class.std::_Rb_tree"* %0, %"class.std::_Rb_tree"** %2, align 8, !llfi_index !48
  %5 = load %"class.std::_Rb_tree"*, %"class.std::_Rb_tree"** %2, align 8, !llfi_index !49
  %6 = call %"struct.std::_Rb_tree_node"* @_ZNSt8_Rb_treeIiSt4pairIKiiESt10_Select1stIS2_ESt4lessIiESaIS2_EE8_M_beginEv(%"class.std::_Rb_tree"* nonnull align 8 dereferenceable(48) %5) #2, !llfi_index !50
  invoke void @_ZNSt8_Rb_treeIiSt4pairIKiiESt10_Select1stIS2_ESt4lessIiESaIS2_EE8_M_eraseEPSt13_Rb_tree_nodeIS2_E(%"class.std::_Rb_tree"* nonnull align 8 dereferenceable(48) %5, %"struct.std::_Rb_tree_node"* %6)
          to label %7 unwind label %9, !llfi_index !51

7:                                                ; preds = %1
  %8 = getelementptr inbounds %"class.std::_Rb_tree", %"class.std::_Rb_tree"* %5, i32 0, i32 0, !llfi_index !52
  call void @_ZNSt8_Rb_treeIiSt4pairIKiiESt10_Select1stIS2_ESt4lessIiESaIS2_EE13_Rb_tree_implIS6_Lb1EED2Ev(%"struct.std::_Rb_tree<int, std::pair<const int, int>, std::_Select1st<std::pair<const int, int>>, std::less<int>>::_Rb_tree_impl"* nonnull align 8 dereferenceable(48) %8) #2, !llfi_index !53
  ret void, !llfi_index !54

9:                                                ; preds = %1
  %10 = landingpad { i8*, i32 }
          catch i8* null, !llfi_index !55
  %11 = extractvalue { i8*, i32 } %10, 0, !llfi_index !56
  store i8* %11, i8** %3, align 8, !llfi_index !57
  %12 = extractvalue { i8*, i32 } %10, 1, !llfi_index !58
  store i32 %12, i32* %4, align 4, !llfi_index !59
  %13 = getelementptr inbounds %"class.std::_Rb_tree", %"class.std::_Rb_tree"* %5, i32 0, i32 0, !llfi_index !60
  call void @_ZNSt8_Rb_treeIiSt4pairIKiiESt10_Select1stIS2_ESt4lessIiESaIS2_EE13_Rb_tree_implIS6_Lb1EED2Ev(%"struct.std::_Rb_tree<int, std::pair<const int, int>, std::_Select1st<std::pair<const int, int>>, std::less<int>>::_Rb_tree_impl"* nonnull align 8 dereferenceable(48) %13) #2, !llfi_index !61
  br label %14, !llfi_index !62

14:                                               ; preds = %9
  %15 = load i8*, i8** %3, align 8, !llfi_index !63
  call void @__clang_call_terminate(i8* %15) #15, !llfi_index !64
  unreachable, !llfi_index !65
}

declare dso_local i32 @__gxx_personality_v0(...)

; Function Attrs: mustprogress noinline nounwind uwtable
define linkonce_odr dso_local %"struct.std::_Rb_tree_node"* @_ZNSt8_Rb_treeIiSt4pairIKiiESt10_Select1stIS2_ESt4lessIiESaIS2_EE8_M_beginEv(%"class.std::_Rb_tree"* nonnull align 8 dereferenceable(48) %0) #3 comdat align 2 {
  %2 = alloca %"class.std::_Rb_tree"*, align 8, !llfi_index !66
  store %"class.std::_Rb_tree"* %0, %"class.std::_Rb_tree"** %2, align 8, !llfi_index !67
  %3 = load %"class.std::_Rb_tree"*, %"class.std::_Rb_tree"** %2, align 8, !llfi_index !68
  %4 = getelementptr inbounds %"class.std::_Rb_tree", %"class.std::_Rb_tree"* %3, i32 0, i32 0, !llfi_index !69
  %5 = bitcast %"struct.std::_Rb_tree<int, std::pair<const int, int>, std::_Select1st<std::pair<const int, int>>, std::less<int>>::_Rb_tree_impl"* %4 to i8*, !llfi_index !70
  %6 = getelementptr inbounds i8, i8* %5, i64 8, !llfi_index !71
  %7 = bitcast i8* %6 to %"struct.std::_Rb_tree_header"*, !llfi_index !72
  %8 = getelementptr inbounds %"struct.std::_Rb_tree_header", %"struct.std::_Rb_tree_header"* %7, i32 0, i32 0, !llfi_index !73
  %9 = getelementptr inbounds %"struct.std::_Rb_tree_node_base", %"struct.std::_Rb_tree_node_base"* %8, i32 0, i32 1, !llfi_index !74
  %10 = load %"struct.std::_Rb_tree_node_base"*, %"struct.std::_Rb_tree_node_base"** %9, align 8, !llfi_index !75
  %11 = bitcast %"struct.std::_Rb_tree_node_base"* %10 to %"struct.std::_Rb_tree_node"*, !llfi_index !76
  ret %"struct.std::_Rb_tree_node"* %11, !llfi_index !77
}

; Function Attrs: mustprogress noinline uwtable
define linkonce_odr dso_local void @_ZNSt8_Rb_treeIiSt4pairIKiiESt10_Select1stIS2_ESt4lessIiESaIS2_EE8_M_eraseEPSt13_Rb_tree_nodeIS2_E(%"class.std::_Rb_tree"* nonnull align 8 dereferenceable(48) %0, %"struct.std::_Rb_tree_node"* %1) #4 comdat align 2 {
  %3 = alloca %"class.std::_Rb_tree"*, align 8, !llfi_index !78
  %4 = alloca %"struct.std::_Rb_tree_node"*, align 8, !llfi_index !79
  %5 = alloca %"struct.std::_Rb_tree_node"*, align 8, !llfi_index !80
  store %"class.std::_Rb_tree"* %0, %"class.std::_Rb_tree"** %3, align 8, !llfi_index !81
  store %"struct.std::_Rb_tree_node"* %1, %"struct.std::_Rb_tree_node"** %4, align 8, !llfi_index !82
  %6 = load %"class.std::_Rb_tree"*, %"class.std::_Rb_tree"** %3, align 8, !llfi_index !83
  br label %7, !llfi_index !84

7:                                                ; preds = %10, %2
  %8 = load %"struct.std::_Rb_tree_node"*, %"struct.std::_Rb_tree_node"** %4, align 8, !llfi_index !85
  %9 = icmp ne %"struct.std::_Rb_tree_node"* %8, null, !llfi_index !86
  br i1 %9, label %10, label %19, !llfi_index !87

10:                                               ; preds = %7
  %11 = load %"struct.std::_Rb_tree_node"*, %"struct.std::_Rb_tree_node"** %4, align 8, !llfi_index !88
  %12 = bitcast %"struct.std::_Rb_tree_node"* %11 to %"struct.std::_Rb_tree_node_base"*, !llfi_index !89
  %13 = call %"struct.std::_Rb_tree_node"* @_ZNSt8_Rb_treeIiSt4pairIKiiESt10_Select1stIS2_ESt4lessIiESaIS2_EE8_S_rightEPSt18_Rb_tree_node_base(%"struct.std::_Rb_tree_node_base"* %12) #2, !llfi_index !90
  call void @_ZNSt8_Rb_treeIiSt4pairIKiiESt10_Select1stIS2_ESt4lessIiESaIS2_EE8_M_eraseEPSt13_Rb_tree_nodeIS2_E(%"class.std::_Rb_tree"* nonnull align 8 dereferenceable(48) %6, %"struct.std::_Rb_tree_node"* %13), !llfi_index !91
  %14 = load %"struct.std::_Rb_tree_node"*, %"struct.std::_Rb_tree_node"** %4, align 8, !llfi_index !92
  %15 = bitcast %"struct.std::_Rb_tree_node"* %14 to %"struct.std::_Rb_tree_node_base"*, !llfi_index !93
  %16 = call %"struct.std::_Rb_tree_node"* @_ZNSt8_Rb_treeIiSt4pairIKiiESt10_Select1stIS2_ESt4lessIiESaIS2_EE7_S_leftEPSt18_Rb_tree_node_base(%"struct.std::_Rb_tree_node_base"* %15) #2, !llfi_index !94
  store %"struct.std::_Rb_tree_node"* %16, %"struct.std::_Rb_tree_node"** %5, align 8, !llfi_index !95
  %17 = load %"struct.std::_Rb_tree_node"*, %"struct.std::_Rb_tree_node"** %4, align 8, !llfi_index !96
  call void @_ZNSt8_Rb_treeIiSt4pairIKiiESt10_Select1stIS2_ESt4lessIiESaIS2_EE12_M_drop_nodeEPSt13_Rb_tree_nodeIS2_E(%"class.std::_Rb_tree"* nonnull align 8 dereferenceable(48) %6, %"struct.std::_Rb_tree_node"* %17) #2, !llfi_index !97
  %18 = load %"struct.std::_Rb_tree_node"*, %"struct.std::_Rb_tree_node"** %5, align 8, !llfi_index !98
  store %"struct.std::_Rb_tree_node"* %18, %"struct.std::_Rb_tree_node"** %4, align 8, !llfi_index !99
  br label %7, !llvm.loop !100, !llfi_index !102

19:                                               ; preds = %7
  ret void, !llfi_index !103
}

; Function Attrs: noinline nounwind uwtable
define linkonce_odr dso_local void @_ZNSt8_Rb_treeIiSt4pairIKiiESt10_Select1stIS2_ESt4lessIiESaIS2_EE13_Rb_tree_implIS6_Lb1EED2Ev(%"struct.std::_Rb_tree<int, std::pair<const int, int>, std::_Select1st<std::pair<const int, int>>, std::less<int>>::_Rb_tree_impl"* nonnull align 8 dereferenceable(48) %0) unnamed_addr #1 comdat align 2 {
  %2 = alloca %"struct.std::_Rb_tree<int, std::pair<const int, int>, std::_Select1st<std::pair<const int, int>>, std::less<int>>::_Rb_tree_impl"*, align 8, !llfi_index !104
  store %"struct.std::_Rb_tree<int, std::pair<const int, int>, std::_Select1st<std::pair<const int, int>>, std::less<int>>::_Rb_tree_impl"* %0, %"struct.std::_Rb_tree<int, std::pair<const int, int>, std::_Select1st<std::pair<const int, int>>, std::less<int>>::_Rb_tree_impl"** %2, align 8, !llfi_index !105
  %3 = load %"struct.std::_Rb_tree<int, std::pair<const int, int>, std::_Select1st<std::pair<const int, int>>, std::less<int>>::_Rb_tree_impl"*, %"struct.std::_Rb_tree<int, std::pair<const int, int>, std::_Select1st<std::pair<const int, int>>, std::less<int>>::_Rb_tree_impl"** %2, align 8, !llfi_index !106
  %4 = bitcast %"struct.std::_Rb_tree<int, std::pair<const int, int>, std::_Select1st<std::pair<const int, int>>, std::less<int>>::_Rb_tree_impl"* %3 to %"struct.std::less"*, !llfi_index !107
  call void @_ZNSaISt13_Rb_tree_nodeISt4pairIKiiEEED2Ev(%"struct.std::less"* nonnull align 1 dereferenceable(1) %4) #2, !llfi_index !108
  ret void, !llfi_index !109
}

; Function Attrs: noinline noreturn nounwind
define linkonce_odr hidden void @__clang_call_terminate(i8* %0) #5 comdat {
  %2 = call i8* @__cxa_begin_catch(i8* %0) #2, !llfi_index !110
  call void @_ZSt9terminatev() #15, !llfi_index !111
  unreachable, !llfi_index !112
}

declare dso_local i8* @__cxa_begin_catch(i8*)

declare dso_local void @_ZSt9terminatev()

; Function Attrs: noinline nounwind uwtable
define linkonce_odr dso_local void @_ZNSaISt13_Rb_tree_nodeISt4pairIKiiEEED2Ev(%"struct.std::less"* nonnull align 1 dereferenceable(1) %0) unnamed_addr #1 comdat align 2 {
  %2 = alloca %"struct.std::less"*, align 8, !llfi_index !113
  store %"struct.std::less"* %0, %"struct.std::less"** %2, align 8, !llfi_index !114
  %3 = load %"struct.std::less"*, %"struct.std::less"** %2, align 8, !llfi_index !115
  %4 = bitcast %"struct.std::less"* %3 to %"struct.std::less"*, !llfi_index !116
  call void @_ZN9__gnu_cxx13new_allocatorISt13_Rb_tree_nodeISt4pairIKiiEEED2Ev(%"struct.std::less"* nonnull align 1 dereferenceable(1) %4) #2, !llfi_index !117
  ret void, !llfi_index !118
}

; Function Attrs: noinline nounwind uwtable
define linkonce_odr dso_local void @_ZN9__gnu_cxx13new_allocatorISt13_Rb_tree_nodeISt4pairIKiiEEED2Ev(%"struct.std::less"* nonnull align 1 dereferenceable(1) %0) unnamed_addr #1 comdat align 2 {
  %2 = alloca %"struct.std::less"*, align 8, !llfi_index !119
  store %"struct.std::less"* %0, %"struct.std::less"** %2, align 8, !llfi_index !120
  %3 = load %"struct.std::less"*, %"struct.std::less"** %2, align 8, !llfi_index !121
  ret void, !llfi_index !122
}

; Function Attrs: mustprogress noinline nounwind uwtable
define linkonce_odr dso_local %"struct.std::_Rb_tree_node"* @_ZNSt8_Rb_treeIiSt4pairIKiiESt10_Select1stIS2_ESt4lessIiESaIS2_EE8_S_rightEPSt18_Rb_tree_node_base(%"struct.std::_Rb_tree_node_base"* %0) #3 comdat align 2 {
  %2 = alloca %"struct.std::_Rb_tree_node_base"*, align 8, !llfi_index !123
  store %"struct.std::_Rb_tree_node_base"* %0, %"struct.std::_Rb_tree_node_base"** %2, align 8, !llfi_index !124
  %3 = load %"struct.std::_Rb_tree_node_base"*, %"struct.std::_Rb_tree_node_base"** %2, align 8, !llfi_index !125
  %4 = getelementptr inbounds %"struct.std::_Rb_tree_node_base", %"struct.std::_Rb_tree_node_base"* %3, i32 0, i32 3, !llfi_index !126
  %5 = load %"struct.std::_Rb_tree_node_base"*, %"struct.std::_Rb_tree_node_base"** %4, align 8, !llfi_index !127
  %6 = bitcast %"struct.std::_Rb_tree_node_base"* %5 to %"struct.std::_Rb_tree_node"*, !llfi_index !128
  ret %"struct.std::_Rb_tree_node"* %6, !llfi_index !129
}

; Function Attrs: mustprogress noinline nounwind uwtable
define linkonce_odr dso_local %"struct.std::_Rb_tree_node"* @_ZNSt8_Rb_treeIiSt4pairIKiiESt10_Select1stIS2_ESt4lessIiESaIS2_EE7_S_leftEPSt18_Rb_tree_node_base(%"struct.std::_Rb_tree_node_base"* %0) #3 comdat align 2 {
  %2 = alloca %"struct.std::_Rb_tree_node_base"*, align 8, !llfi_index !130
  store %"struct.std::_Rb_tree_node_base"* %0, %"struct.std::_Rb_tree_node_base"** %2, align 8, !llfi_index !131
  %3 = load %"struct.std::_Rb_tree_node_base"*, %"struct.std::_Rb_tree_node_base"** %2, align 8, !llfi_index !132
  %4 = getelementptr inbounds %"struct.std::_Rb_tree_node_base", %"struct.std::_Rb_tree_node_base"* %3, i32 0, i32 2, !llfi_index !133
  %5 = load %"struct.std::_Rb_tree_node_base"*, %"struct.std::_Rb_tree_node_base"** %4, align 8, !llfi_index !134
  %6 = bitcast %"struct.std::_Rb_tree_node_base"* %5 to %"struct.std::_Rb_tree_node"*, !llfi_index !135
  ret %"struct.std::_Rb_tree_node"* %6, !llfi_index !136
}

; Function Attrs: mustprogress noinline nounwind uwtable
define linkonce_odr dso_local void @_ZNSt8_Rb_treeIiSt4pairIKiiESt10_Select1stIS2_ESt4lessIiESaIS2_EE12_M_drop_nodeEPSt13_Rb_tree_nodeIS2_E(%"class.std::_Rb_tree"* nonnull align 8 dereferenceable(48) %0, %"struct.std::_Rb_tree_node"* %1) #3 comdat align 2 {
  %3 = alloca %"class.std::_Rb_tree"*, align 8, !llfi_index !137
  %4 = alloca %"struct.std::_Rb_tree_node"*, align 8, !llfi_index !138
  store %"class.std::_Rb_tree"* %0, %"class.std::_Rb_tree"** %3, align 8, !llfi_index !139
  store %"struct.std::_Rb_tree_node"* %1, %"struct.std::_Rb_tree_node"** %4, align 8, !llfi_index !140
  %5 = load %"class.std::_Rb_tree"*, %"class.std::_Rb_tree"** %3, align 8, !llfi_index !141
  %6 = load %"struct.std::_Rb_tree_node"*, %"struct.std::_Rb_tree_node"** %4, align 8, !llfi_index !142
  call void @_ZNSt8_Rb_treeIiSt4pairIKiiESt10_Select1stIS2_ESt4lessIiESaIS2_EE15_M_destroy_nodeEPSt13_Rb_tree_nodeIS2_E(%"class.std::_Rb_tree"* nonnull align 8 dereferenceable(48) %5, %"struct.std::_Rb_tree_node"* %6) #2, !llfi_index !143
  %7 = load %"struct.std::_Rb_tree_node"*, %"struct.std::_Rb_tree_node"** %4, align 8, !llfi_index !144
  call void @_ZNSt8_Rb_treeIiSt4pairIKiiESt10_Select1stIS2_ESt4lessIiESaIS2_EE11_M_put_nodeEPSt13_Rb_tree_nodeIS2_E(%"class.std::_Rb_tree"* nonnull align 8 dereferenceable(48) %5, %"struct.std::_Rb_tree_node"* %7) #2, !llfi_index !145
  ret void, !llfi_index !146
}

; Function Attrs: mustprogress noinline nounwind uwtable
define linkonce_odr dso_local void @_ZNSt8_Rb_treeIiSt4pairIKiiESt10_Select1stIS2_ESt4lessIiESaIS2_EE15_M_destroy_nodeEPSt13_Rb_tree_nodeIS2_E(%"class.std::_Rb_tree"* nonnull align 8 dereferenceable(48) %0, %"struct.std::_Rb_tree_node"* %1) #3 comdat align 2 personality i8* bitcast (i32 (...)* @__gxx_personality_v0 to i8*) {
  %3 = alloca %"class.std::_Rb_tree"*, align 8, !llfi_index !147
  %4 = alloca %"struct.std::_Rb_tree_node"*, align 8, !llfi_index !148
  store %"class.std::_Rb_tree"* %0, %"class.std::_Rb_tree"** %3, align 8, !llfi_index !149
  store %"struct.std::_Rb_tree_node"* %1, %"struct.std::_Rb_tree_node"** %4, align 8, !llfi_index !150
  %5 = load %"class.std::_Rb_tree"*, %"class.std::_Rb_tree"** %3, align 8, !llfi_index !151
  %6 = call nonnull align 1 dereferenceable(1) %"struct.std::less"* @_ZNSt8_Rb_treeIiSt4pairIKiiESt10_Select1stIS2_ESt4lessIiESaIS2_EE21_M_get_Node_allocatorEv(%"class.std::_Rb_tree"* nonnull align 8 dereferenceable(48) %5) #2, !llfi_index !152
  %7 = load %"struct.std::_Rb_tree_node"*, %"struct.std::_Rb_tree_node"** %4, align 8, !llfi_index !153
  %8 = invoke %"struct.std::pair"* @_ZNSt13_Rb_tree_nodeISt4pairIKiiEE9_M_valptrEv(%"struct.std::_Rb_tree_node"* nonnull align 8 dereferenceable(40) %7)
          to label %9 unwind label %11, !llfi_index !154

9:                                                ; preds = %2
  call void @_ZNSt16allocator_traitsISaISt13_Rb_tree_nodeISt4pairIKiiEEEE7destroyIS3_EEvRS5_PT_(%"struct.std::less"* nonnull align 1 dereferenceable(1) %6, %"struct.std::pair"* %8) #2, !llfi_index !155
  %10 = load %"struct.std::_Rb_tree_node"*, %"struct.std::_Rb_tree_node"** %4, align 8, !llfi_index !156
  ret void, !llfi_index !157

11:                                               ; preds = %2
  %12 = landingpad { i8*, i32 }
          catch i8* null, !llfi_index !158
  %13 = extractvalue { i8*, i32 } %12, 0, !llfi_index !159
  call void @__clang_call_terminate(i8* %13) #15, !llfi_index !160
  unreachable, !llfi_index !161
}

; Function Attrs: mustprogress noinline nounwind uwtable
define linkonce_odr dso_local void @_ZNSt8_Rb_treeIiSt4pairIKiiESt10_Select1stIS2_ESt4lessIiESaIS2_EE11_M_put_nodeEPSt13_Rb_tree_nodeIS2_E(%"class.std::_Rb_tree"* nonnull align 8 dereferenceable(48) %0, %"struct.std::_Rb_tree_node"* %1) #3 comdat align 2 personality i8* bitcast (i32 (...)* @__gxx_personality_v0 to i8*) {
  %3 = alloca %"class.std::_Rb_tree"*, align 8, !llfi_index !162
  %4 = alloca %"struct.std::_Rb_tree_node"*, align 8, !llfi_index !163
  store %"class.std::_Rb_tree"* %0, %"class.std::_Rb_tree"** %3, align 8, !llfi_index !164
  store %"struct.std::_Rb_tree_node"* %1, %"struct.std::_Rb_tree_node"** %4, align 8, !llfi_index !165
  %5 = load %"class.std::_Rb_tree"*, %"class.std::_Rb_tree"** %3, align 8, !llfi_index !166
  %6 = call nonnull align 1 dereferenceable(1) %"struct.std::less"* @_ZNSt8_Rb_treeIiSt4pairIKiiESt10_Select1stIS2_ESt4lessIiESaIS2_EE21_M_get_Node_allocatorEv(%"class.std::_Rb_tree"* nonnull align 8 dereferenceable(48) %5) #2, !llfi_index !167
  %7 = load %"struct.std::_Rb_tree_node"*, %"struct.std::_Rb_tree_node"** %4, align 8, !llfi_index !168
  invoke void @_ZNSt16allocator_traitsISaISt13_Rb_tree_nodeISt4pairIKiiEEEE10deallocateERS5_PS4_m(%"struct.std::less"* nonnull align 1 dereferenceable(1) %6, %"struct.std::_Rb_tree_node"* %7, i64 1)
          to label %8 unwind label %9, !llfi_index !169

8:                                                ; preds = %2
  ret void, !llfi_index !170

9:                                                ; preds = %2
  %10 = landingpad { i8*, i32 }
          catch i8* null, !llfi_index !171
  %11 = extractvalue { i8*, i32 } %10, 0, !llfi_index !172
  call void @__clang_call_terminate(i8* %11) #15, !llfi_index !173
  unreachable, !llfi_index !174
}

; Function Attrs: mustprogress noinline nounwind uwtable
define linkonce_odr dso_local nonnull align 1 dereferenceable(1) %"struct.std::less"* @_ZNSt8_Rb_treeIiSt4pairIKiiESt10_Select1stIS2_ESt4lessIiESaIS2_EE21_M_get_Node_allocatorEv(%"class.std::_Rb_tree"* nonnull align 8 dereferenceable(48) %0) #3 comdat align 2 {
  %2 = alloca %"class.std::_Rb_tree"*, align 8, !llfi_index !175
  store %"class.std::_Rb_tree"* %0, %"class.std::_Rb_tree"** %2, align 8, !llfi_index !176
  %3 = load %"class.std::_Rb_tree"*, %"class.std::_Rb_tree"** %2, align 8, !llfi_index !177
  %4 = getelementptr inbounds %"class.std::_Rb_tree", %"class.std::_Rb_tree"* %3, i32 0, i32 0, !llfi_index !178
  %5 = bitcast %"struct.std::_Rb_tree<int, std::pair<const int, int>, std::_Select1st<std::pair<const int, int>>, std::less<int>>::_Rb_tree_impl"* %4 to %"struct.std::less"*, !llfi_index !179
  ret %"struct.std::less"* %5, !llfi_index !180
}

; Function Attrs: mustprogress noinline uwtable
define linkonce_odr dso_local void @_ZNSt16allocator_traitsISaISt13_Rb_tree_nodeISt4pairIKiiEEEE10deallocateERS5_PS4_m(%"struct.std::less"* nonnull align 1 dereferenceable(1) %0, %"struct.std::_Rb_tree_node"* %1, i64 %2) #4 comdat align 2 {
  %4 = alloca %"struct.std::less"*, align 8, !llfi_index !181
  %5 = alloca %"struct.std::_Rb_tree_node"*, align 8, !llfi_index !182
  %6 = alloca i64, align 8, !llfi_index !183
  store %"struct.std::less"* %0, %"struct.std::less"** %4, align 8, !llfi_index !184
  store %"struct.std::_Rb_tree_node"* %1, %"struct.std::_Rb_tree_node"** %5, align 8, !llfi_index !185
  store i64 %2, i64* %6, align 8, !llfi_index !186
  %7 = load %"struct.std::less"*, %"struct.std::less"** %4, align 8, !llfi_index !187
  %8 = bitcast %"struct.std::less"* %7 to %"struct.std::less"*, !llfi_index !188
  %9 = load %"struct.std::_Rb_tree_node"*, %"struct.std::_Rb_tree_node"** %5, align 8, !llfi_index !189
  %10 = load i64, i64* %6, align 8, !llfi_index !190
  call void @_ZN9__gnu_cxx13new_allocatorISt13_Rb_tree_nodeISt4pairIKiiEEE10deallocateEPS5_m(%"struct.std::less"* nonnull align 1 dereferenceable(1) %8, %"struct.std::_Rb_tree_node"* %9, i64 %10), !llfi_index !191
  ret void, !llfi_index !192
}

; Function Attrs: mustprogress noinline nounwind uwtable
define linkonce_odr dso_local void @_ZN9__gnu_cxx13new_allocatorISt13_Rb_tree_nodeISt4pairIKiiEEE10deallocateEPS5_m(%"struct.std::less"* nonnull align 1 dereferenceable(1) %0, %"struct.std::_Rb_tree_node"* %1, i64 %2) #3 comdat align 2 {
  %4 = alloca %"struct.std::less"*, align 8, !llfi_index !193
  %5 = alloca %"struct.std::_Rb_tree_node"*, align 8, !llfi_index !194
  %6 = alloca i64, align 8, !llfi_index !195
  store %"struct.std::less"* %0, %"struct.std::less"** %4, align 8, !llfi_index !196
  store %"struct.std::_Rb_tree_node"* %1, %"struct.std::_Rb_tree_node"** %5, align 8, !llfi_index !197
  store i64 %2, i64* %6, align 8, !llfi_index !198
  %7 = load %"struct.std::less"*, %"struct.std::less"** %4, align 8, !llfi_index !199
  %8 = load %"struct.std::_Rb_tree_node"*, %"struct.std::_Rb_tree_node"** %5, align 8, !llfi_index !200
  %9 = bitcast %"struct.std::_Rb_tree_node"* %8 to i8*, !llfi_index !201
  call void @_ZdlPv(i8* %9) #2, !llfi_index !202
  ret void, !llfi_index !203
}

; Function Attrs: nobuiltin nounwind
declare dso_local void @_ZdlPv(i8*) #6

; Function Attrs: mustprogress noinline nounwind uwtable
define linkonce_odr dso_local %"struct.std::pair"* @_ZNSt13_Rb_tree_nodeISt4pairIKiiEE9_M_valptrEv(%"struct.std::_Rb_tree_node"* nonnull align 8 dereferenceable(40) %0) #3 comdat align 2 {
  %2 = alloca %"struct.std::_Rb_tree_node"*, align 8, !llfi_index !204
  store %"struct.std::_Rb_tree_node"* %0, %"struct.std::_Rb_tree_node"** %2, align 8, !llfi_index !205
  %3 = load %"struct.std::_Rb_tree_node"*, %"struct.std::_Rb_tree_node"** %2, align 8, !llfi_index !206
  %4 = getelementptr inbounds %"struct.std::_Rb_tree_node", %"struct.std::_Rb_tree_node"* %3, i32 0, i32 1, !llfi_index !207
  %5 = call %"struct.std::pair"* @_ZN9__gnu_cxx16__aligned_membufISt4pairIKiiEE6_M_ptrEv(%"struct.__gnu_cxx::__aligned_membuf"* nonnull align 4 dereferenceable(8) %4) #2, !llfi_index !208
  ret %"struct.std::pair"* %5, !llfi_index !209
}

; Function Attrs: mustprogress noinline nounwind uwtable
define linkonce_odr dso_local void @_ZNSt16allocator_traitsISaISt13_Rb_tree_nodeISt4pairIKiiEEEE7destroyIS3_EEvRS5_PT_(%"struct.std::less"* nonnull align 1 dereferenceable(1) %0, %"struct.std::pair"* %1) #3 comdat align 2 {
  %3 = alloca %"struct.std::less"*, align 8, !llfi_index !210
  %4 = alloca %"struct.std::pair"*, align 8, !llfi_index !211
  store %"struct.std::less"* %0, %"struct.std::less"** %3, align 8, !llfi_index !212
  store %"struct.std::pair"* %1, %"struct.std::pair"** %4, align 8, !llfi_index !213
  %5 = load %"struct.std::less"*, %"struct.std::less"** %3, align 8, !llfi_index !214
  %6 = bitcast %"struct.std::less"* %5 to %"struct.std::less"*, !llfi_index !215
  %7 = load %"struct.std::pair"*, %"struct.std::pair"** %4, align 8, !llfi_index !216
  call void @_ZN9__gnu_cxx13new_allocatorISt13_Rb_tree_nodeISt4pairIKiiEEE7destroyIS4_EEvPT_(%"struct.std::less"* nonnull align 1 dereferenceable(1) %6, %"struct.std::pair"* %7) #2, !llfi_index !217
  ret void, !llfi_index !218
}

; Function Attrs: mustprogress noinline nounwind uwtable
define linkonce_odr dso_local void @_ZN9__gnu_cxx13new_allocatorISt13_Rb_tree_nodeISt4pairIKiiEEE7destroyIS4_EEvPT_(%"struct.std::less"* nonnull align 1 dereferenceable(1) %0, %"struct.std::pair"* %1) #3 comdat align 2 {
  %3 = alloca %"struct.std::less"*, align 8, !llfi_index !219
  %4 = alloca %"struct.std::pair"*, align 8, !llfi_index !220
  store %"struct.std::less"* %0, %"struct.std::less"** %3, align 8, !llfi_index !221
  store %"struct.std::pair"* %1, %"struct.std::pair"** %4, align 8, !llfi_index !222
  %5 = load %"struct.std::less"*, %"struct.std::less"** %3, align 8, !llfi_index !223
  %6 = load %"struct.std::pair"*, %"struct.std::pair"** %4, align 8, !llfi_index !224
  ret void, !llfi_index !225
}

; Function Attrs: mustprogress noinline nounwind uwtable
define linkonce_odr dso_local %"struct.std::pair"* @_ZN9__gnu_cxx16__aligned_membufISt4pairIKiiEE6_M_ptrEv(%"struct.__gnu_cxx::__aligned_membuf"* nonnull align 4 dereferenceable(8) %0) #3 comdat align 2 {
  %2 = alloca %"struct.__gnu_cxx::__aligned_membuf"*, align 8, !llfi_index !226
  store %"struct.__gnu_cxx::__aligned_membuf"* %0, %"struct.__gnu_cxx::__aligned_membuf"** %2, align 8, !llfi_index !227
  %3 = load %"struct.__gnu_cxx::__aligned_membuf"*, %"struct.__gnu_cxx::__aligned_membuf"** %2, align 8, !llfi_index !228
  %4 = call i8* @_ZN9__gnu_cxx16__aligned_membufISt4pairIKiiEE7_M_addrEv(%"struct.__gnu_cxx::__aligned_membuf"* nonnull align 4 dereferenceable(8) %3) #2, !llfi_index !229
  %5 = bitcast i8* %4 to %"struct.std::pair"*, !llfi_index !230
  ret %"struct.std::pair"* %5, !llfi_index !231
}

; Function Attrs: mustprogress noinline nounwind uwtable
define linkonce_odr dso_local i8* @_ZN9__gnu_cxx16__aligned_membufISt4pairIKiiEE7_M_addrEv(%"struct.__gnu_cxx::__aligned_membuf"* nonnull align 4 dereferenceable(8) %0) #3 comdat align 2 {
  %2 = alloca %"struct.__gnu_cxx::__aligned_membuf"*, align 8, !llfi_index !232
  store %"struct.__gnu_cxx::__aligned_membuf"* %0, %"struct.__gnu_cxx::__aligned_membuf"** %2, align 8, !llfi_index !233
  %3 = load %"struct.__gnu_cxx::__aligned_membuf"*, %"struct.__gnu_cxx::__aligned_membuf"** %2, align 8, !llfi_index !234
  %4 = getelementptr inbounds %"struct.__gnu_cxx::__aligned_membuf", %"struct.__gnu_cxx::__aligned_membuf"* %3, i32 0, i32 0, !llfi_index !235
  %5 = bitcast [8 x i8]* %4 to i8*, !llfi_index !236
  ret i8* %5, !llfi_index !237
}

; Function Attrs: noinline nounwind uwtable
define linkonce_odr dso_local void @_ZNSt8_Rb_treeIiSt4pairIKiiESt10_Select1stIS2_ESt4lessIiESaIS2_EEC2Ev(%"class.std::_Rb_tree"* nonnull align 8 dereferenceable(48) %0) unnamed_addr #1 comdat align 2 {
  %2 = alloca %"class.std::_Rb_tree"*, align 8, !llfi_index !238
  store %"class.std::_Rb_tree"* %0, %"class.std::_Rb_tree"** %2, align 8, !llfi_index !239
  %3 = load %"class.std::_Rb_tree"*, %"class.std::_Rb_tree"** %2, align 8, !llfi_index !240
  %4 = getelementptr inbounds %"class.std::_Rb_tree", %"class.std::_Rb_tree"* %3, i32 0, i32 0, !llfi_index !241
  call void @_ZNSt8_Rb_treeIiSt4pairIKiiESt10_Select1stIS2_ESt4lessIiESaIS2_EE13_Rb_tree_implIS6_Lb1EEC2Ev(%"struct.std::_Rb_tree<int, std::pair<const int, int>, std::_Select1st<std::pair<const int, int>>, std::less<int>>::_Rb_tree_impl"* nonnull align 8 dereferenceable(48) %4) #2, !llfi_index !242
  ret void, !llfi_index !243
}

; Function Attrs: noinline nounwind uwtable
define linkonce_odr dso_local void @_ZNSt8_Rb_treeIiSt4pairIKiiESt10_Select1stIS2_ESt4lessIiESaIS2_EE13_Rb_tree_implIS6_Lb1EEC2Ev(%"struct.std::_Rb_tree<int, std::pair<const int, int>, std::_Select1st<std::pair<const int, int>>, std::less<int>>::_Rb_tree_impl"* nonnull align 8 dereferenceable(48) %0) unnamed_addr #1 comdat align 2 {
  %2 = alloca %"struct.std::_Rb_tree<int, std::pair<const int, int>, std::_Select1st<std::pair<const int, int>>, std::less<int>>::_Rb_tree_impl"*, align 8, !llfi_index !244
  store %"struct.std::_Rb_tree<int, std::pair<const int, int>, std::_Select1st<std::pair<const int, int>>, std::less<int>>::_Rb_tree_impl"* %0, %"struct.std::_Rb_tree<int, std::pair<const int, int>, std::_Select1st<std::pair<const int, int>>, std::less<int>>::_Rb_tree_impl"** %2, align 8, !llfi_index !245
  %3 = load %"struct.std::_Rb_tree<int, std::pair<const int, int>, std::_Select1st<std::pair<const int, int>>, std::less<int>>::_Rb_tree_impl"*, %"struct.std::_Rb_tree<int, std::pair<const int, int>, std::_Select1st<std::pair<const int, int>>, std::less<int>>::_Rb_tree_impl"** %2, align 8, !llfi_index !246
  %4 = bitcast %"struct.std::_Rb_tree<int, std::pair<const int, int>, std::_Select1st<std::pair<const int, int>>, std::less<int>>::_Rb_tree_impl"* %3 to %"struct.std::less"*, !llfi_index !247
  call void @_ZNSaISt13_Rb_tree_nodeISt4pairIKiiEEEC2Ev(%"struct.std::less"* nonnull align 1 dereferenceable(1) %4) #2, !llfi_index !248
  %5 = bitcast %"struct.std::_Rb_tree<int, std::pair<const int, int>, std::_Select1st<std::pair<const int, int>>, std::less<int>>::_Rb_tree_impl"* %3 to %"struct.std::_Rb_tree_key_compare"*, !llfi_index !249
  call void @_ZNSt20_Rb_tree_key_compareISt4lessIiEEC2Ev(%"struct.std::_Rb_tree_key_compare"* nonnull align 1 dereferenceable(1) %5) #2, !llfi_index !250
  %6 = bitcast %"struct.std::_Rb_tree<int, std::pair<const int, int>, std::_Select1st<std::pair<const int, int>>, std::less<int>>::_Rb_tree_impl"* %3 to i8*, !llfi_index !251
  %7 = getelementptr inbounds i8, i8* %6, i64 8, !llfi_index !252
  %8 = bitcast i8* %7 to %"struct.std::_Rb_tree_header"*, !llfi_index !253
  call void @_ZNSt15_Rb_tree_headerC2Ev(%"struct.std::_Rb_tree_header"* nonnull align 8 dereferenceable(40) %8) #2, !llfi_index !254
  ret void, !llfi_index !255
}

; Function Attrs: noinline nounwind uwtable
define linkonce_odr dso_local void @_ZNSaISt13_Rb_tree_nodeISt4pairIKiiEEEC2Ev(%"struct.std::less"* nonnull align 1 dereferenceable(1) %0) unnamed_addr #1 comdat align 2 {
  %2 = alloca %"struct.std::less"*, align 8, !llfi_index !256
  store %"struct.std::less"* %0, %"struct.std::less"** %2, align 8, !llfi_index !257
  %3 = load %"struct.std::less"*, %"struct.std::less"** %2, align 8, !llfi_index !258
  %4 = bitcast %"struct.std::less"* %3 to %"struct.std::less"*, !llfi_index !259
  call void @_ZN9__gnu_cxx13new_allocatorISt13_Rb_tree_nodeISt4pairIKiiEEEC2Ev(%"struct.std::less"* nonnull align 1 dereferenceable(1) %4) #2, !llfi_index !260
  ret void, !llfi_index !261
}

; Function Attrs: noinline nounwind uwtable
define linkonce_odr dso_local void @_ZNSt20_Rb_tree_key_compareISt4lessIiEEC2Ev(%"struct.std::_Rb_tree_key_compare"* nonnull align 1 dereferenceable(1) %0) unnamed_addr #1 comdat align 2 {
  %2 = alloca %"struct.std::_Rb_tree_key_compare"*, align 8, !llfi_index !262
  store %"struct.std::_Rb_tree_key_compare"* %0, %"struct.std::_Rb_tree_key_compare"** %2, align 8, !llfi_index !263
  %3 = load %"struct.std::_Rb_tree_key_compare"*, %"struct.std::_Rb_tree_key_compare"** %2, align 8, !llfi_index !264
  %4 = getelementptr inbounds %"struct.std::_Rb_tree_key_compare", %"struct.std::_Rb_tree_key_compare"* %3, i32 0, i32 0, !llfi_index !265
  ret void, !llfi_index !266
}

; Function Attrs: noinline nounwind uwtable
define linkonce_odr dso_local void @_ZNSt15_Rb_tree_headerC2Ev(%"struct.std::_Rb_tree_header"* nonnull align 8 dereferenceable(40) %0) unnamed_addr #1 comdat align 2 personality i8* bitcast (i32 (...)* @__gxx_personality_v0 to i8*) {
  %2 = alloca %"struct.std::_Rb_tree_header"*, align 8, !llfi_index !267
  store %"struct.std::_Rb_tree_header"* %0, %"struct.std::_Rb_tree_header"** %2, align 8, !llfi_index !268
  %3 = load %"struct.std::_Rb_tree_header"*, %"struct.std::_Rb_tree_header"** %2, align 8, !llfi_index !269
  %4 = getelementptr inbounds %"struct.std::_Rb_tree_header", %"struct.std::_Rb_tree_header"* %3, i32 0, i32 0, !llfi_index !270
  %5 = getelementptr inbounds %"struct.std::_Rb_tree_header", %"struct.std::_Rb_tree_header"* %3, i32 0, i32 0, !llfi_index !271
  %6 = getelementptr inbounds %"struct.std::_Rb_tree_node_base", %"struct.std::_Rb_tree_node_base"* %5, i32 0, i32 0, !llfi_index !272
  store i32 0, i32* %6, align 8, !llfi_index !273
  invoke void @_ZNSt15_Rb_tree_header8_M_resetEv(%"struct.std::_Rb_tree_header"* nonnull align 8 dereferenceable(40) %3)
          to label %7 unwind label %8, !llfi_index !274

7:                                                ; preds = %1
  ret void, !llfi_index !275

8:                                                ; preds = %1
  %9 = landingpad { i8*, i32 }
          catch i8* null, !llfi_index !276
  %10 = extractvalue { i8*, i32 } %9, 0, !llfi_index !277
  call void @__clang_call_terminate(i8* %10) #15, !llfi_index !278
  unreachable, !llfi_index !279
}

; Function Attrs: mustprogress noinline nounwind uwtable
define linkonce_odr dso_local void @_ZNSt15_Rb_tree_header8_M_resetEv(%"struct.std::_Rb_tree_header"* nonnull align 8 dereferenceable(40) %0) #3 comdat align 2 {
  %2 = alloca %"struct.std::_Rb_tree_header"*, align 8, !llfi_index !280
  store %"struct.std::_Rb_tree_header"* %0, %"struct.std::_Rb_tree_header"** %2, align 8, !llfi_index !281
  %3 = load %"struct.std::_Rb_tree_header"*, %"struct.std::_Rb_tree_header"** %2, align 8, !llfi_index !282
  %4 = getelementptr inbounds %"struct.std::_Rb_tree_header", %"struct.std::_Rb_tree_header"* %3, i32 0, i32 0, !llfi_index !283
  %5 = getelementptr inbounds %"struct.std::_Rb_tree_node_base", %"struct.std::_Rb_tree_node_base"* %4, i32 0, i32 1, !llfi_index !284
  store %"struct.std::_Rb_tree_node_base"* null, %"struct.std::_Rb_tree_node_base"** %5, align 8, !llfi_index !285
  %6 = getelementptr inbounds %"struct.std::_Rb_tree_header", %"struct.std::_Rb_tree_header"* %3, i32 0, i32 0, !llfi_index !286
  %7 = getelementptr inbounds %"struct.std::_Rb_tree_header", %"struct.std::_Rb_tree_header"* %3, i32 0, i32 0, !llfi_index !287
  %8 = getelementptr inbounds %"struct.std::_Rb_tree_node_base", %"struct.std::_Rb_tree_node_base"* %7, i32 0, i32 2, !llfi_index !288
  store %"struct.std::_Rb_tree_node_base"* %6, %"struct.std::_Rb_tree_node_base"** %8, align 8, !llfi_index !289
  %9 = getelementptr inbounds %"struct.std::_Rb_tree_header", %"struct.std::_Rb_tree_header"* %3, i32 0, i32 0, !llfi_index !290
  %10 = getelementptr inbounds %"struct.std::_Rb_tree_header", %"struct.std::_Rb_tree_header"* %3, i32 0, i32 0, !llfi_index !291
  %11 = getelementptr inbounds %"struct.std::_Rb_tree_node_base", %"struct.std::_Rb_tree_node_base"* %10, i32 0, i32 3, !llfi_index !292
  store %"struct.std::_Rb_tree_node_base"* %9, %"struct.std::_Rb_tree_node_base"** %11, align 8, !llfi_index !293
  %12 = getelementptr inbounds %"struct.std::_Rb_tree_header", %"struct.std::_Rb_tree_header"* %3, i32 0, i32 1, !llfi_index !294
  store i64 0, i64* %12, align 8, !llfi_index !295
  ret void, !llfi_index !296
}

; Function Attrs: noinline nounwind uwtable
define linkonce_odr dso_local void @_ZN9__gnu_cxx13new_allocatorISt13_Rb_tree_nodeISt4pairIKiiEEEC2Ev(%"struct.std::less"* nonnull align 1 dereferenceable(1) %0) unnamed_addr #1 comdat align 2 {
  %2 = alloca %"struct.std::less"*, align 8, !llfi_index !297
  store %"struct.std::less"* %0, %"struct.std::less"** %2, align 8, !llfi_index !298
  %3 = load %"struct.std::less"*, %"struct.std::less"** %2, align 8, !llfi_index !299
  ret void, !llfi_index !300
}

; Function Attrs: noinline nounwind uwtable
define linkonce_odr dso_local void @_ZNSt6vectorIiSaIiEEC2Ev(%"class.std::vector.0"* nonnull align 8 dereferenceable(24) %0) unnamed_addr #1 comdat align 2 {
  %2 = alloca %"class.std::vector.0"*, align 8, !llfi_index !301
  store %"class.std::vector.0"* %0, %"class.std::vector.0"** %2, align 8, !llfi_index !302
  %3 = load %"class.std::vector.0"*, %"class.std::vector.0"** %2, align 8, !llfi_index !303
  %4 = bitcast %"class.std::vector.0"* %3 to %"struct.std::_Vector_base.1"*, !llfi_index !304
  call void @_ZNSt12_Vector_baseIiSaIiEEC2Ev(%"struct.std::_Vector_base.1"* nonnull align 8 dereferenceable(24) %4) #2, !llfi_index !305
  ret void, !llfi_index !306
}

; Function Attrs: noinline uwtable
define internal void @__dtor_G() #0 section ".text.startup" {
  call void @__cxx_global_array_dtor.3(i8* null), !llfi_index !307
  ret void, !llfi_index !308
}

; Function Attrs: noinline uwtable
define internal void @__cxx_global_array_dtor.3(i8* %0) #0 section ".text.startup" {
  %2 = alloca i8*, align 8, !llfi_index !309
  store i8* %0, i8** %2, align 8, !llfi_index !310
  br label %3, !llfi_index !311

3:                                                ; preds = %3, %1
  %4 = phi %"class.std::vector.0"* [ getelementptr inbounds (%"class.std::vector.0", %"class.std::vector.0"* getelementptr inbounds ([60009 x %"class.std::vector.0"], [60009 x %"class.std::vector.0"]* @G, i32 0, i32 0), i64 60009), %1 ], [ %5, %3 ], !llfi_index !312
  %5 = getelementptr inbounds %"class.std::vector.0", %"class.std::vector.0"* %4, i64 -1, !llfi_index !313
  call void @_ZNSt6vectorIiSaIiEED2Ev(%"class.std::vector.0"* nonnull align 8 dereferenceable(24) %5) #2, !llfi_index !314
  %6 = icmp eq %"class.std::vector.0"* %5, getelementptr inbounds ([60009 x %"class.std::vector.0"], [60009 x %"class.std::vector.0"]* @G, i32 0, i32 0), !llfi_index !315
  br i1 %6, label %7, label %3, !llfi_index !316

7:                                                ; preds = %3
  ret void, !llfi_index !317
}

; Function Attrs: noinline nounwind uwtable
define linkonce_odr dso_local void @_ZNSt6vectorIiSaIiEED2Ev(%"class.std::vector.0"* nonnull align 8 dereferenceable(24) %0) unnamed_addr #1 comdat align 2 personality i8* bitcast (i32 (...)* @__gxx_personality_v0 to i8*) {
  %2 = alloca %"class.std::vector.0"*, align 8, !llfi_index !318
  %3 = alloca i8*, align 8, !llfi_index !319
  %4 = alloca i32, align 4, !llfi_index !320
  store %"class.std::vector.0"* %0, %"class.std::vector.0"** %2, align 8, !llfi_index !321
  %5 = load %"class.std::vector.0"*, %"class.std::vector.0"** %2, align 8, !llfi_index !322
  %6 = bitcast %"class.std::vector.0"* %5 to %"struct.std::_Vector_base.1"*, !llfi_index !323
  %7 = getelementptr inbounds %"struct.std::_Vector_base.1", %"struct.std::_Vector_base.1"* %6, i32 0, i32 0, !llfi_index !324
  %8 = bitcast %"struct.std::_Vector_base<int, std::allocator<int>>::_Vector_impl"* %7 to %"struct.std::_Vector_base<int, std::allocator<int>>::_Vector_impl_data"*, !llfi_index !325
  %9 = getelementptr inbounds %"struct.std::_Vector_base<int, std::allocator<int>>::_Vector_impl_data", %"struct.std::_Vector_base<int, std::allocator<int>>::_Vector_impl_data"* %8, i32 0, i32 0, !llfi_index !326
  %10 = load i32*, i32** %9, align 8, !llfi_index !327
  %11 = bitcast %"class.std::vector.0"* %5 to %"struct.std::_Vector_base.1"*, !llfi_index !328
  %12 = getelementptr inbounds %"struct.std::_Vector_base.1", %"struct.std::_Vector_base.1"* %11, i32 0, i32 0, !llfi_index !329
  %13 = bitcast %"struct.std::_Vector_base<int, std::allocator<int>>::_Vector_impl"* %12 to %"struct.std::_Vector_base<int, std::allocator<int>>::_Vector_impl_data"*, !llfi_index !330
  %14 = getelementptr inbounds %"struct.std::_Vector_base<int, std::allocator<int>>::_Vector_impl_data", %"struct.std::_Vector_base<int, std::allocator<int>>::_Vector_impl_data"* %13, i32 0, i32 1, !llfi_index !331
  %15 = load i32*, i32** %14, align 8, !llfi_index !332
  %16 = bitcast %"class.std::vector.0"* %5 to %"struct.std::_Vector_base.1"*, !llfi_index !333
  %17 = call nonnull align 1 dereferenceable(1) %"struct.std::less"* @_ZNSt12_Vector_baseIiSaIiEE19_M_get_Tp_allocatorEv(%"struct.std::_Vector_base.1"* nonnull align 8 dereferenceable(24) %16) #2, !llfi_index !334
  invoke void @_ZSt8_DestroyIPiiEvT_S1_RSaIT0_E(i32* %10, i32* %15, %"struct.std::less"* nonnull align 1 dereferenceable(1) %17)
          to label %18 unwind label %20, !llfi_index !335

18:                                               ; preds = %1
  %19 = bitcast %"class.std::vector.0"* %5 to %"struct.std::_Vector_base.1"*, !llfi_index !336
  call void @_ZNSt12_Vector_baseIiSaIiEED2Ev(%"struct.std::_Vector_base.1"* nonnull align 8 dereferenceable(24) %19) #2, !llfi_index !337
  ret void, !llfi_index !338

20:                                               ; preds = %1
  %21 = landingpad { i8*, i32 }
          catch i8* null, !llfi_index !339
  %22 = extractvalue { i8*, i32 } %21, 0, !llfi_index !340
  store i8* %22, i8** %3, align 8, !llfi_index !341
  %23 = extractvalue { i8*, i32 } %21, 1, !llfi_index !342
  store i32 %23, i32* %4, align 4, !llfi_index !343
  %24 = bitcast %"class.std::vector.0"* %5 to %"struct.std::_Vector_base.1"*, !llfi_index !344
  call void @_ZNSt12_Vector_baseIiSaIiEED2Ev(%"struct.std::_Vector_base.1"* nonnull align 8 dereferenceable(24) %24) #2, !llfi_index !345
  br label %25, !llfi_index !346

25:                                               ; preds = %20
  %26 = load i8*, i8** %3, align 8, !llfi_index !347
  call void @__clang_call_terminate(i8* %26) #15, !llfi_index !348
  unreachable, !llfi_index !349
}

; Function Attrs: mustprogress noinline nounwind uwtable
define linkonce_odr dso_local nonnull align 1 dereferenceable(1) %"struct.std::less"* @_ZNSt12_Vector_baseIiSaIiEE19_M_get_Tp_allocatorEv(%"struct.std::_Vector_base.1"* nonnull align 8 dereferenceable(24) %0) #3 comdat align 2 {
  %2 = alloca %"struct.std::_Vector_base.1"*, align 8, !llfi_index !350
  store %"struct.std::_Vector_base.1"* %0, %"struct.std::_Vector_base.1"** %2, align 8, !llfi_index !351
  %3 = load %"struct.std::_Vector_base.1"*, %"struct.std::_Vector_base.1"** %2, align 8, !llfi_index !352
  %4 = getelementptr inbounds %"struct.std::_Vector_base.1", %"struct.std::_Vector_base.1"* %3, i32 0, i32 0, !llfi_index !353
  %5 = bitcast %"struct.std::_Vector_base<int, std::allocator<int>>::_Vector_impl"* %4 to %"struct.std::less"*, !llfi_index !354
  ret %"struct.std::less"* %5, !llfi_index !355
}

; Function Attrs: mustprogress noinline uwtable
define linkonce_odr dso_local void @_ZSt8_DestroyIPiiEvT_S1_RSaIT0_E(i32* %0, i32* %1, %"struct.std::less"* nonnull align 1 dereferenceable(1) %2) #4 comdat {
  %4 = alloca i32*, align 8, !llfi_index !356
  %5 = alloca i32*, align 8, !llfi_index !357
  %6 = alloca %"struct.std::less"*, align 8, !llfi_index !358
  store i32* %0, i32** %4, align 8, !llfi_index !359
  store i32* %1, i32** %5, align 8, !llfi_index !360
  store %"struct.std::less"* %2, %"struct.std::less"** %6, align 8, !llfi_index !361
  %7 = load i32*, i32** %4, align 8, !llfi_index !362
  %8 = load i32*, i32** %5, align 8, !llfi_index !363
  call void @_ZSt8_DestroyIPiEvT_S1_(i32* %7, i32* %8), !llfi_index !364
  ret void, !llfi_index !365
}

; Function Attrs: noinline nounwind uwtable
define linkonce_odr dso_local void @_ZNSt12_Vector_baseIiSaIiEED2Ev(%"struct.std::_Vector_base.1"* nonnull align 8 dereferenceable(24) %0) unnamed_addr #1 comdat align 2 personality i8* bitcast (i32 (...)* @__gxx_personality_v0 to i8*) {
  %2 = alloca %"struct.std::_Vector_base.1"*, align 8, !llfi_index !366
  %3 = alloca i8*, align 8, !llfi_index !367
  %4 = alloca i32, align 4, !llfi_index !368
  store %"struct.std::_Vector_base.1"* %0, %"struct.std::_Vector_base.1"** %2, align 8, !llfi_index !369
  %5 = load %"struct.std::_Vector_base.1"*, %"struct.std::_Vector_base.1"** %2, align 8, !llfi_index !370
  %6 = getelementptr inbounds %"struct.std::_Vector_base.1", %"struct.std::_Vector_base.1"* %5, i32 0, i32 0, !llfi_index !371
  %7 = bitcast %"struct.std::_Vector_base<int, std::allocator<int>>::_Vector_impl"* %6 to %"struct.std::_Vector_base<int, std::allocator<int>>::_Vector_impl_data"*, !llfi_index !372
  %8 = getelementptr inbounds %"struct.std::_Vector_base<int, std::allocator<int>>::_Vector_impl_data", %"struct.std::_Vector_base<int, std::allocator<int>>::_Vector_impl_data"* %7, i32 0, i32 0, !llfi_index !373
  %9 = load i32*, i32** %8, align 8, !llfi_index !374
  %10 = getelementptr inbounds %"struct.std::_Vector_base.1", %"struct.std::_Vector_base.1"* %5, i32 0, i32 0, !llfi_index !375
  %11 = bitcast %"struct.std::_Vector_base<int, std::allocator<int>>::_Vector_impl"* %10 to %"struct.std::_Vector_base<int, std::allocator<int>>::_Vector_impl_data"*, !llfi_index !376
  %12 = getelementptr inbounds %"struct.std::_Vector_base<int, std::allocator<int>>::_Vector_impl_data", %"struct.std::_Vector_base<int, std::allocator<int>>::_Vector_impl_data"* %11, i32 0, i32 2, !llfi_index !377
  %13 = load i32*, i32** %12, align 8, !llfi_index !378
  %14 = getelementptr inbounds %"struct.std::_Vector_base.1", %"struct.std::_Vector_base.1"* %5, i32 0, i32 0, !llfi_index !379
  %15 = bitcast %"struct.std::_Vector_base<int, std::allocator<int>>::_Vector_impl"* %14 to %"struct.std::_Vector_base<int, std::allocator<int>>::_Vector_impl_data"*, !llfi_index !380
  %16 = getelementptr inbounds %"struct.std::_Vector_base<int, std::allocator<int>>::_Vector_impl_data", %"struct.std::_Vector_base<int, std::allocator<int>>::_Vector_impl_data"* %15, i32 0, i32 0, !llfi_index !381
  %17 = load i32*, i32** %16, align 8, !llfi_index !382
  %18 = ptrtoint i32* %13 to i64, !llfi_index !383
  %19 = ptrtoint i32* %17 to i64, !llfi_index !384
  %20 = sub i64 %18, %19, !llfi_index !385
  %21 = sdiv exact i64 %20, 4, !llfi_index !386
  invoke void @_ZNSt12_Vector_baseIiSaIiEE13_M_deallocateEPim(%"struct.std::_Vector_base.1"* nonnull align 8 dereferenceable(24) %5, i32* %9, i64 %21)
          to label %22 unwind label %24, !llfi_index !387

22:                                               ; preds = %1
  %23 = getelementptr inbounds %"struct.std::_Vector_base.1", %"struct.std::_Vector_base.1"* %5, i32 0, i32 0, !llfi_index !388
  call void @_ZNSt12_Vector_baseIiSaIiEE12_Vector_implD2Ev(%"struct.std::_Vector_base<int, std::allocator<int>>::_Vector_impl"* nonnull align 8 dereferenceable(24) %23) #2, !llfi_index !389
  ret void, !llfi_index !390

24:                                               ; preds = %1
  %25 = landingpad { i8*, i32 }
          catch i8* null, !llfi_index !391
  %26 = extractvalue { i8*, i32 } %25, 0, !llfi_index !392
  store i8* %26, i8** %3, align 8, !llfi_index !393
  %27 = extractvalue { i8*, i32 } %25, 1, !llfi_index !394
  store i32 %27, i32* %4, align 4, !llfi_index !395
  %28 = getelementptr inbounds %"struct.std::_Vector_base.1", %"struct.std::_Vector_base.1"* %5, i32 0, i32 0, !llfi_index !396
  call void @_ZNSt12_Vector_baseIiSaIiEE12_Vector_implD2Ev(%"struct.std::_Vector_base<int, std::allocator<int>>::_Vector_impl"* nonnull align 8 dereferenceable(24) %28) #2, !llfi_index !397
  br label %29, !llfi_index !398

29:                                               ; preds = %24
  %30 = load i8*, i8** %3, align 8, !llfi_index !399
  call void @__clang_call_terminate(i8* %30) #15, !llfi_index !400
  unreachable, !llfi_index !401
}

; Function Attrs: mustprogress noinline uwtable
define linkonce_odr dso_local void @_ZNSt12_Vector_baseIiSaIiEE13_M_deallocateEPim(%"struct.std::_Vector_base.1"* nonnull align 8 dereferenceable(24) %0, i32* %1, i64 %2) #4 comdat align 2 {
  %4 = alloca %"struct.std::_Vector_base.1"*, align 8, !llfi_index !402
  %5 = alloca i32*, align 8, !llfi_index !403
  %6 = alloca i64, align 8, !llfi_index !404
  store %"struct.std::_Vector_base.1"* %0, %"struct.std::_Vector_base.1"** %4, align 8, !llfi_index !405
  store i32* %1, i32** %5, align 8, !llfi_index !406
  store i64 %2, i64* %6, align 8, !llfi_index !407
  %7 = load %"struct.std::_Vector_base.1"*, %"struct.std::_Vector_base.1"** %4, align 8, !llfi_index !408
  %8 = load i32*, i32** %5, align 8, !llfi_index !409
  %9 = icmp ne i32* %8, null, !llfi_index !410
  br i1 %9, label %10, label %15, !llfi_index !411

10:                                               ; preds = %3
  %11 = getelementptr inbounds %"struct.std::_Vector_base.1", %"struct.std::_Vector_base.1"* %7, i32 0, i32 0, !llfi_index !412
  %12 = bitcast %"struct.std::_Vector_base<int, std::allocator<int>>::_Vector_impl"* %11 to %"struct.std::less"*, !llfi_index !413
  %13 = load i32*, i32** %5, align 8, !llfi_index !414
  %14 = load i64, i64* %6, align 8, !llfi_index !415
  call void @_ZNSt16allocator_traitsISaIiEE10deallocateERS0_Pim(%"struct.std::less"* nonnull align 1 dereferenceable(1) %12, i32* %13, i64 %14), !llfi_index !416
  br label %15, !llfi_index !417

15:                                               ; preds = %10, %3
  ret void, !llfi_index !418
}

; Function Attrs: noinline nounwind uwtable
define linkonce_odr dso_local void @_ZNSt12_Vector_baseIiSaIiEE12_Vector_implD2Ev(%"struct.std::_Vector_base<int, std::allocator<int>>::_Vector_impl"* nonnull align 8 dereferenceable(24) %0) unnamed_addr #1 comdat align 2 {
  %2 = alloca %"struct.std::_Vector_base<int, std::allocator<int>>::_Vector_impl"*, align 8, !llfi_index !419
  store %"struct.std::_Vector_base<int, std::allocator<int>>::_Vector_impl"* %0, %"struct.std::_Vector_base<int, std::allocator<int>>::_Vector_impl"** %2, align 8, !llfi_index !420
  %3 = load %"struct.std::_Vector_base<int, std::allocator<int>>::_Vector_impl"*, %"struct.std::_Vector_base<int, std::allocator<int>>::_Vector_impl"** %2, align 8, !llfi_index !421
  %4 = bitcast %"struct.std::_Vector_base<int, std::allocator<int>>::_Vector_impl"* %3 to %"struct.std::less"*, !llfi_index !422
  call void @_ZNSaIiED2Ev(%"struct.std::less"* nonnull align 1 dereferenceable(1) %4) #2, !llfi_index !423
  ret void, !llfi_index !424
}

; Function Attrs: noinline nounwind uwtable
define linkonce_odr dso_local void @_ZNSaIiED2Ev(%"struct.std::less"* nonnull align 1 dereferenceable(1) %0) unnamed_addr #1 comdat align 2 {
  %2 = alloca %"struct.std::less"*, align 8, !llfi_index !425
  store %"struct.std::less"* %0, %"struct.std::less"** %2, align 8, !llfi_index !426
  %3 = load %"struct.std::less"*, %"struct.std::less"** %2, align 8, !llfi_index !427
  %4 = bitcast %"struct.std::less"* %3 to %"struct.std::less"*, !llfi_index !428
  call void @_ZN9__gnu_cxx13new_allocatorIiED2Ev(%"struct.std::less"* nonnull align 1 dereferenceable(1) %4) #2, !llfi_index !429
  ret void, !llfi_index !430
}

; Function Attrs: noinline nounwind uwtable
define linkonce_odr dso_local void @_ZN9__gnu_cxx13new_allocatorIiED2Ev(%"struct.std::less"* nonnull align 1 dereferenceable(1) %0) unnamed_addr #1 comdat align 2 {
  %2 = alloca %"struct.std::less"*, align 8, !llfi_index !431
  store %"struct.std::less"* %0, %"struct.std::less"** %2, align 8, !llfi_index !432
  %3 = load %"struct.std::less"*, %"struct.std::less"** %2, align 8, !llfi_index !433
  ret void, !llfi_index !434
}

; Function Attrs: mustprogress noinline uwtable
define linkonce_odr dso_local void @_ZNSt16allocator_traitsISaIiEE10deallocateERS0_Pim(%"struct.std::less"* nonnull align 1 dereferenceable(1) %0, i32* %1, i64 %2) #4 comdat align 2 {
  %4 = alloca %"struct.std::less"*, align 8, !llfi_index !435
  %5 = alloca i32*, align 8, !llfi_index !436
  %6 = alloca i64, align 8, !llfi_index !437
  store %"struct.std::less"* %0, %"struct.std::less"** %4, align 8, !llfi_index !438
  store i32* %1, i32** %5, align 8, !llfi_index !439
  store i64 %2, i64* %6, align 8, !llfi_index !440
  %7 = load %"struct.std::less"*, %"struct.std::less"** %4, align 8, !llfi_index !441
  %8 = bitcast %"struct.std::less"* %7 to %"struct.std::less"*, !llfi_index !442
  %9 = load i32*, i32** %5, align 8, !llfi_index !443
  %10 = load i64, i64* %6, align 8, !llfi_index !444
  call void @_ZN9__gnu_cxx13new_allocatorIiE10deallocateEPim(%"struct.std::less"* nonnull align 1 dereferenceable(1) %8, i32* %9, i64 %10), !llfi_index !445
  ret void, !llfi_index !446
}

; Function Attrs: mustprogress noinline nounwind uwtable
define linkonce_odr dso_local void @_ZN9__gnu_cxx13new_allocatorIiE10deallocateEPim(%"struct.std::less"* nonnull align 1 dereferenceable(1) %0, i32* %1, i64 %2) #3 comdat align 2 {
  %4 = alloca %"struct.std::less"*, align 8, !llfi_index !447
  %5 = alloca i32*, align 8, !llfi_index !448
  %6 = alloca i64, align 8, !llfi_index !449
  store %"struct.std::less"* %0, %"struct.std::less"** %4, align 8, !llfi_index !450
  store i32* %1, i32** %5, align 8, !llfi_index !451
  store i64 %2, i64* %6, align 8, !llfi_index !452
  %7 = load %"struct.std::less"*, %"struct.std::less"** %4, align 8, !llfi_index !453
  %8 = load i32*, i32** %5, align 8, !llfi_index !454
  %9 = bitcast i32* %8 to i8*, !llfi_index !455
  call void @_ZdlPv(i8* %9) #2, !llfi_index !456
  ret void, !llfi_index !457
}

; Function Attrs: mustprogress noinline uwtable
define linkonce_odr dso_local void @_ZSt8_DestroyIPiEvT_S1_(i32* %0, i32* %1) #4 comdat {
  %3 = alloca i32*, align 8, !llfi_index !458
  %4 = alloca i32*, align 8, !llfi_index !459
  store i32* %0, i32** %3, align 8, !llfi_index !460
  store i32* %1, i32** %4, align 8, !llfi_index !461
  %5 = load i32*, i32** %3, align 8, !llfi_index !462
  %6 = load i32*, i32** %4, align 8, !llfi_index !463
  call void @_ZNSt12_Destroy_auxILb1EE9__destroyIPiEEvT_S3_(i32* %5, i32* %6), !llfi_index !464
  ret void, !llfi_index !465
}

; Function Attrs: mustprogress noinline nounwind uwtable
define linkonce_odr dso_local void @_ZNSt12_Destroy_auxILb1EE9__destroyIPiEEvT_S3_(i32* %0, i32* %1) #3 comdat align 2 {
  %3 = alloca i32*, align 8, !llfi_index !466
  %4 = alloca i32*, align 8, !llfi_index !467
  store i32* %0, i32** %3, align 8, !llfi_index !468
  store i32* %1, i32** %4, align 8, !llfi_index !469
  ret void, !llfi_index !470
}

; Function Attrs: noinline nounwind uwtable
define linkonce_odr dso_local void @_ZNSt12_Vector_baseIiSaIiEEC2Ev(%"struct.std::_Vector_base.1"* nonnull align 8 dereferenceable(24) %0) unnamed_addr #1 comdat align 2 {
  %2 = alloca %"struct.std::_Vector_base.1"*, align 8, !llfi_index !471
  store %"struct.std::_Vector_base.1"* %0, %"struct.std::_Vector_base.1"** %2, align 8, !llfi_index !472
  %3 = load %"struct.std::_Vector_base.1"*, %"struct.std::_Vector_base.1"** %2, align 8, !llfi_index !473
  %4 = getelementptr inbounds %"struct.std::_Vector_base.1", %"struct.std::_Vector_base.1"* %3, i32 0, i32 0, !llfi_index !474
  call void @_ZNSt12_Vector_baseIiSaIiEE12_Vector_implC2Ev(%"struct.std::_Vector_base<int, std::allocator<int>>::_Vector_impl"* nonnull align 8 dereferenceable(24) %4) #2, !llfi_index !475
  ret void, !llfi_index !476
}

; Function Attrs: noinline nounwind uwtable
define linkonce_odr dso_local void @_ZNSt12_Vector_baseIiSaIiEE12_Vector_implC2Ev(%"struct.std::_Vector_base<int, std::allocator<int>>::_Vector_impl"* nonnull align 8 dereferenceable(24) %0) unnamed_addr #1 comdat align 2 {
  %2 = alloca %"struct.std::_Vector_base<int, std::allocator<int>>::_Vector_impl"*, align 8, !llfi_index !477
  store %"struct.std::_Vector_base<int, std::allocator<int>>::_Vector_impl"* %0, %"struct.std::_Vector_base<int, std::allocator<int>>::_Vector_impl"** %2, align 8, !llfi_index !478
  %3 = load %"struct.std::_Vector_base<int, std::allocator<int>>::_Vector_impl"*, %"struct.std::_Vector_base<int, std::allocator<int>>::_Vector_impl"** %2, align 8, !llfi_index !479
  %4 = bitcast %"struct.std::_Vector_base<int, std::allocator<int>>::_Vector_impl"* %3 to %"struct.std::less"*, !llfi_index !480
  call void @_ZNSaIiEC2Ev(%"struct.std::less"* nonnull align 1 dereferenceable(1) %4) #2, !llfi_index !481
  %5 = bitcast %"struct.std::_Vector_base<int, std::allocator<int>>::_Vector_impl"* %3 to %"struct.std::_Vector_base<int, std::allocator<int>>::_Vector_impl_data"*, !llfi_index !482
  call void @_ZNSt12_Vector_baseIiSaIiEE17_Vector_impl_dataC2Ev(%"struct.std::_Vector_base<int, std::allocator<int>>::_Vector_impl_data"* nonnull align 8 dereferenceable(24) %5) #2, !llfi_index !483
  ret void, !llfi_index !484
}

; Function Attrs: noinline nounwind uwtable
define linkonce_odr dso_local void @_ZNSaIiEC2Ev(%"struct.std::less"* nonnull align 1 dereferenceable(1) %0) unnamed_addr #1 comdat align 2 {
  %2 = alloca %"struct.std::less"*, align 8, !llfi_index !485
  store %"struct.std::less"* %0, %"struct.std::less"** %2, align 8, !llfi_index !486
  %3 = load %"struct.std::less"*, %"struct.std::less"** %2, align 8, !llfi_index !487
  %4 = bitcast %"struct.std::less"* %3 to %"struct.std::less"*, !llfi_index !488
  call void @_ZN9__gnu_cxx13new_allocatorIiEC2Ev(%"struct.std::less"* nonnull align 1 dereferenceable(1) %4) #2, !llfi_index !489
  ret void, !llfi_index !490
}

; Function Attrs: noinline nounwind uwtable
define linkonce_odr dso_local void @_ZNSt12_Vector_baseIiSaIiEE17_Vector_impl_dataC2Ev(%"struct.std::_Vector_base<int, std::allocator<int>>::_Vector_impl_data"* nonnull align 8 dereferenceable(24) %0) unnamed_addr #1 comdat align 2 {
  %2 = alloca %"struct.std::_Vector_base<int, std::allocator<int>>::_Vector_impl_data"*, align 8, !llfi_index !491
  store %"struct.std::_Vector_base<int, std::allocator<int>>::_Vector_impl_data"* %0, %"struct.std::_Vector_base<int, std::allocator<int>>::_Vector_impl_data"** %2, align 8, !llfi_index !492
  %3 = load %"struct.std::_Vector_base<int, std::allocator<int>>::_Vector_impl_data"*, %"struct.std::_Vector_base<int, std::allocator<int>>::_Vector_impl_data"** %2, align 8, !llfi_index !493
  %4 = getelementptr inbounds %"struct.std::_Vector_base<int, std::allocator<int>>::_Vector_impl_data", %"struct.std::_Vector_base<int, std::allocator<int>>::_Vector_impl_data"* %3, i32 0, i32 0, !llfi_index !494
  store i32* null, i32** %4, align 8, !llfi_index !495
  %5 = getelementptr inbounds %"struct.std::_Vector_base<int, std::allocator<int>>::_Vector_impl_data", %"struct.std::_Vector_base<int, std::allocator<int>>::_Vector_impl_data"* %3, i32 0, i32 1, !llfi_index !496
  store i32* null, i32** %5, align 8, !llfi_index !497
  %6 = getelementptr inbounds %"struct.std::_Vector_base<int, std::allocator<int>>::_Vector_impl_data", %"struct.std::_Vector_base<int, std::allocator<int>>::_Vector_impl_data"* %3, i32 0, i32 2, !llfi_index !498
  store i32* null, i32** %6, align 8, !llfi_index !499
  ret void, !llfi_index !500
}

; Function Attrs: noinline nounwind uwtable
define linkonce_odr dso_local void @_ZN9__gnu_cxx13new_allocatorIiEC2Ev(%"struct.std::less"* nonnull align 1 dereferenceable(1) %0) unnamed_addr #1 comdat align 2 {
  %2 = alloca %"struct.std::less"*, align 8, !llfi_index !501
  store %"struct.std::less"* %0, %"struct.std::less"** %2, align 8, !llfi_index !502
  %3 = load %"struct.std::less"*, %"struct.std::less"** %2, align 8, !llfi_index !503
  ret void, !llfi_index !504
}

; Function Attrs: noinline nounwind uwtable
define linkonce_odr dso_local void @_ZNSt6vectorISt4pairIiiESaIS1_EEC2Ev(%"class.std::vector"* nonnull align 8 dereferenceable(24) %0) unnamed_addr #1 comdat align 2 {
  %2 = alloca %"class.std::vector"*, align 8, !llfi_index !505
  store %"class.std::vector"* %0, %"class.std::vector"** %2, align 8, !llfi_index !506
  %3 = load %"class.std::vector"*, %"class.std::vector"** %2, align 8, !llfi_index !507
  %4 = bitcast %"class.std::vector"* %3 to %"struct.std::_Vector_base"*, !llfi_index !508
  call void @_ZNSt12_Vector_baseISt4pairIiiESaIS1_EEC2Ev(%"struct.std::_Vector_base"* nonnull align 8 dereferenceable(24) %4) #2, !llfi_index !509
  ret void, !llfi_index !510
}

; Function Attrs: noinline uwtable
define internal void @__dtor_QWQ() #0 section ".text.startup" {
  call void @__cxx_global_array_dtor(i8* null), !llfi_index !511
  ret void, !llfi_index !512
}

; Function Attrs: noinline uwtable
define internal void @__cxx_global_array_dtor(i8* %0) #0 section ".text.startup" {
  %2 = alloca i8*, align 8, !llfi_index !513
  store i8* %0, i8** %2, align 8, !llfi_index !514
  br label %3, !llfi_index !515

3:                                                ; preds = %3, %1
  %4 = phi %"class.std::vector"* [ getelementptr inbounds (%"class.std::vector", %"class.std::vector"* getelementptr inbounds ([60009 x %"class.std::vector"], [60009 x %"class.std::vector"]* @QWQ, i32 0, i32 0), i64 60009), %1 ], [ %5, %3 ], !llfi_index !516
  %5 = getelementptr inbounds %"class.std::vector", %"class.std::vector"* %4, i64 -1, !llfi_index !517
  call void @_ZNSt6vectorISt4pairIiiESaIS1_EED2Ev(%"class.std::vector"* nonnull align 8 dereferenceable(24) %5) #2, !llfi_index !518
  %6 = icmp eq %"class.std::vector"* %5, getelementptr inbounds ([60009 x %"class.std::vector"], [60009 x %"class.std::vector"]* @QWQ, i32 0, i32 0), !llfi_index !519
  br i1 %6, label %7, label %3, !llfi_index !520

7:                                                ; preds = %3
  ret void, !llfi_index !521
}

; Function Attrs: noinline nounwind uwtable
define linkonce_odr dso_local void @_ZNSt6vectorISt4pairIiiESaIS1_EED2Ev(%"class.std::vector"* nonnull align 8 dereferenceable(24) %0) unnamed_addr #1 comdat align 2 personality i8* bitcast (i32 (...)* @__gxx_personality_v0 to i8*) {
  %2 = alloca %"class.std::vector"*, align 8, !llfi_index !522
  %3 = alloca i8*, align 8, !llfi_index !523
  %4 = alloca i32, align 4, !llfi_index !524
  store %"class.std::vector"* %0, %"class.std::vector"** %2, align 8, !llfi_index !525
  %5 = load %"class.std::vector"*, %"class.std::vector"** %2, align 8, !llfi_index !526
  %6 = bitcast %"class.std::vector"* %5 to %"struct.std::_Vector_base"*, !llfi_index !527
  %7 = getelementptr inbounds %"struct.std::_Vector_base", %"struct.std::_Vector_base"* %6, i32 0, i32 0, !llfi_index !528
  %8 = bitcast %"struct.std::_Vector_base<std::pair<int, int>, std::allocator<std::pair<int, int>>>::_Vector_impl"* %7 to %"struct.std::_Vector_base<std::pair<int, int>, std::allocator<std::pair<int, int>>>::_Vector_impl_data"*, !llfi_index !529
  %9 = getelementptr inbounds %"struct.std::_Vector_base<std::pair<int, int>, std::allocator<std::pair<int, int>>>::_Vector_impl_data", %"struct.std::_Vector_base<std::pair<int, int>, std::allocator<std::pair<int, int>>>::_Vector_impl_data"* %8, i32 0, i32 0, !llfi_index !530
  %10 = load %"struct.std::pair"*, %"struct.std::pair"** %9, align 8, !llfi_index !531
  %11 = bitcast %"class.std::vector"* %5 to %"struct.std::_Vector_base"*, !llfi_index !532
  %12 = getelementptr inbounds %"struct.std::_Vector_base", %"struct.std::_Vector_base"* %11, i32 0, i32 0, !llfi_index !533
  %13 = bitcast %"struct.std::_Vector_base<std::pair<int, int>, std::allocator<std::pair<int, int>>>::_Vector_impl"* %12 to %"struct.std::_Vector_base<std::pair<int, int>, std::allocator<std::pair<int, int>>>::_Vector_impl_data"*, !llfi_index !534
  %14 = getelementptr inbounds %"struct.std::_Vector_base<std::pair<int, int>, std::allocator<std::pair<int, int>>>::_Vector_impl_data", %"struct.std::_Vector_base<std::pair<int, int>, std::allocator<std::pair<int, int>>>::_Vector_impl_data"* %13, i32 0, i32 1, !llfi_index !535
  %15 = load %"struct.std::pair"*, %"struct.std::pair"** %14, align 8, !llfi_index !536
  %16 = bitcast %"class.std::vector"* %5 to %"struct.std::_Vector_base"*, !llfi_index !537
  %17 = call nonnull align 1 dereferenceable(1) %"struct.std::less"* @_ZNSt12_Vector_baseISt4pairIiiESaIS1_EE19_M_get_Tp_allocatorEv(%"struct.std::_Vector_base"* nonnull align 8 dereferenceable(24) %16) #2, !llfi_index !538
  invoke void @_ZSt8_DestroyIPSt4pairIiiES1_EvT_S3_RSaIT0_E(%"struct.std::pair"* %10, %"struct.std::pair"* %15, %"struct.std::less"* nonnull align 1 dereferenceable(1) %17)
          to label %18 unwind label %20, !llfi_index !539

18:                                               ; preds = %1
  %19 = bitcast %"class.std::vector"* %5 to %"struct.std::_Vector_base"*, !llfi_index !540
  call void @_ZNSt12_Vector_baseISt4pairIiiESaIS1_EED2Ev(%"struct.std::_Vector_base"* nonnull align 8 dereferenceable(24) %19) #2, !llfi_index !541
  ret void, !llfi_index !542

20:                                               ; preds = %1
  %21 = landingpad { i8*, i32 }
          catch i8* null, !llfi_index !543
  %22 = extractvalue { i8*, i32 } %21, 0, !llfi_index !544
  store i8* %22, i8** %3, align 8, !llfi_index !545
  %23 = extractvalue { i8*, i32 } %21, 1, !llfi_index !546
  store i32 %23, i32* %4, align 4, !llfi_index !547
  %24 = bitcast %"class.std::vector"* %5 to %"struct.std::_Vector_base"*, !llfi_index !548
  call void @_ZNSt12_Vector_baseISt4pairIiiESaIS1_EED2Ev(%"struct.std::_Vector_base"* nonnull align 8 dereferenceable(24) %24) #2, !llfi_index !549
  br label %25, !llfi_index !550

25:                                               ; preds = %20
  %26 = load i8*, i8** %3, align 8, !llfi_index !551
  call void @__clang_call_terminate(i8* %26) #15, !llfi_index !552
  unreachable, !llfi_index !553
}

; Function Attrs: mustprogress noinline nounwind uwtable
define linkonce_odr dso_local nonnull align 1 dereferenceable(1) %"struct.std::less"* @_ZNSt12_Vector_baseISt4pairIiiESaIS1_EE19_M_get_Tp_allocatorEv(%"struct.std::_Vector_base"* nonnull align 8 dereferenceable(24) %0) #3 comdat align 2 {
  %2 = alloca %"struct.std::_Vector_base"*, align 8, !llfi_index !554
  store %"struct.std::_Vector_base"* %0, %"struct.std::_Vector_base"** %2, align 8, !llfi_index !555
  %3 = load %"struct.std::_Vector_base"*, %"struct.std::_Vector_base"** %2, align 8, !llfi_index !556
  %4 = getelementptr inbounds %"struct.std::_Vector_base", %"struct.std::_Vector_base"* %3, i32 0, i32 0, !llfi_index !557
  %5 = bitcast %"struct.std::_Vector_base<std::pair<int, int>, std::allocator<std::pair<int, int>>>::_Vector_impl"* %4 to %"struct.std::less"*, !llfi_index !558
  ret %"struct.std::less"* %5, !llfi_index !559
}

; Function Attrs: mustprogress noinline uwtable
define linkonce_odr dso_local void @_ZSt8_DestroyIPSt4pairIiiES1_EvT_S3_RSaIT0_E(%"struct.std::pair"* %0, %"struct.std::pair"* %1, %"struct.std::less"* nonnull align 1 dereferenceable(1) %2) #4 comdat {
  %4 = alloca %"struct.std::pair"*, align 8, !llfi_index !560
  %5 = alloca %"struct.std::pair"*, align 8, !llfi_index !561
  %6 = alloca %"struct.std::less"*, align 8, !llfi_index !562
  store %"struct.std::pair"* %0, %"struct.std::pair"** %4, align 8, !llfi_index !563
  store %"struct.std::pair"* %1, %"struct.std::pair"** %5, align 8, !llfi_index !564
  store %"struct.std::less"* %2, %"struct.std::less"** %6, align 8, !llfi_index !565
  %7 = load %"struct.std::pair"*, %"struct.std::pair"** %4, align 8, !llfi_index !566
  %8 = load %"struct.std::pair"*, %"struct.std::pair"** %5, align 8, !llfi_index !567
  call void @_ZSt8_DestroyIPSt4pairIiiEEvT_S3_(%"struct.std::pair"* %7, %"struct.std::pair"* %8), !llfi_index !568
  ret void, !llfi_index !569
}

; Function Attrs: noinline nounwind uwtable
define linkonce_odr dso_local void @_ZNSt12_Vector_baseISt4pairIiiESaIS1_EED2Ev(%"struct.std::_Vector_base"* nonnull align 8 dereferenceable(24) %0) unnamed_addr #1 comdat align 2 personality i8* bitcast (i32 (...)* @__gxx_personality_v0 to i8*) {
  %2 = alloca %"struct.std::_Vector_base"*, align 8, !llfi_index !570
  %3 = alloca i8*, align 8, !llfi_index !571
  %4 = alloca i32, align 4, !llfi_index !572
  store %"struct.std::_Vector_base"* %0, %"struct.std::_Vector_base"** %2, align 8, !llfi_index !573
  %5 = load %"struct.std::_Vector_base"*, %"struct.std::_Vector_base"** %2, align 8, !llfi_index !574
  %6 = getelementptr inbounds %"struct.std::_Vector_base", %"struct.std::_Vector_base"* %5, i32 0, i32 0, !llfi_index !575
  %7 = bitcast %"struct.std::_Vector_base<std::pair<int, int>, std::allocator<std::pair<int, int>>>::_Vector_impl"* %6 to %"struct.std::_Vector_base<std::pair<int, int>, std::allocator<std::pair<int, int>>>::_Vector_impl_data"*, !llfi_index !576
  %8 = getelementptr inbounds %"struct.std::_Vector_base<std::pair<int, int>, std::allocator<std::pair<int, int>>>::_Vector_impl_data", %"struct.std::_Vector_base<std::pair<int, int>, std::allocator<std::pair<int, int>>>::_Vector_impl_data"* %7, i32 0, i32 0, !llfi_index !577
  %9 = load %"struct.std::pair"*, %"struct.std::pair"** %8, align 8, !llfi_index !578
  %10 = getelementptr inbounds %"struct.std::_Vector_base", %"struct.std::_Vector_base"* %5, i32 0, i32 0, !llfi_index !579
  %11 = bitcast %"struct.std::_Vector_base<std::pair<int, int>, std::allocator<std::pair<int, int>>>::_Vector_impl"* %10 to %"struct.std::_Vector_base<std::pair<int, int>, std::allocator<std::pair<int, int>>>::_Vector_impl_data"*, !llfi_index !580
  %12 = getelementptr inbounds %"struct.std::_Vector_base<std::pair<int, int>, std::allocator<std::pair<int, int>>>::_Vector_impl_data", %"struct.std::_Vector_base<std::pair<int, int>, std::allocator<std::pair<int, int>>>::_Vector_impl_data"* %11, i32 0, i32 2, !llfi_index !581
  %13 = load %"struct.std::pair"*, %"struct.std::pair"** %12, align 8, !llfi_index !582
  %14 = getelementptr inbounds %"struct.std::_Vector_base", %"struct.std::_Vector_base"* %5, i32 0, i32 0, !llfi_index !583
  %15 = bitcast %"struct.std::_Vector_base<std::pair<int, int>, std::allocator<std::pair<int, int>>>::_Vector_impl"* %14 to %"struct.std::_Vector_base<std::pair<int, int>, std::allocator<std::pair<int, int>>>::_Vector_impl_data"*, !llfi_index !584
  %16 = getelementptr inbounds %"struct.std::_Vector_base<std::pair<int, int>, std::allocator<std::pair<int, int>>>::_Vector_impl_data", %"struct.std::_Vector_base<std::pair<int, int>, std::allocator<std::pair<int, int>>>::_Vector_impl_data"* %15, i32 0, i32 0, !llfi_index !585
  %17 = load %"struct.std::pair"*, %"struct.std::pair"** %16, align 8, !llfi_index !586
  %18 = ptrtoint %"struct.std::pair"* %13 to i64, !llfi_index !587
  %19 = ptrtoint %"struct.std::pair"* %17 to i64, !llfi_index !588
  %20 = sub i64 %18, %19, !llfi_index !589
  %21 = sdiv exact i64 %20, 8, !llfi_index !590
  invoke void @_ZNSt12_Vector_baseISt4pairIiiESaIS1_EE13_M_deallocateEPS1_m(%"struct.std::_Vector_base"* nonnull align 8 dereferenceable(24) %5, %"struct.std::pair"* %9, i64 %21)
          to label %22 unwind label %24, !llfi_index !591

22:                                               ; preds = %1
  %23 = getelementptr inbounds %"struct.std::_Vector_base", %"struct.std::_Vector_base"* %5, i32 0, i32 0, !llfi_index !592
  call void @_ZNSt12_Vector_baseISt4pairIiiESaIS1_EE12_Vector_implD2Ev(%"struct.std::_Vector_base<std::pair<int, int>, std::allocator<std::pair<int, int>>>::_Vector_impl"* nonnull align 8 dereferenceable(24) %23) #2, !llfi_index !593
  ret void, !llfi_index !594

24:                                               ; preds = %1
  %25 = landingpad { i8*, i32 }
          catch i8* null, !llfi_index !595
  %26 = extractvalue { i8*, i32 } %25, 0, !llfi_index !596
  store i8* %26, i8** %3, align 8, !llfi_index !597
  %27 = extractvalue { i8*, i32 } %25, 1, !llfi_index !598
  store i32 %27, i32* %4, align 4, !llfi_index !599
  %28 = getelementptr inbounds %"struct.std::_Vector_base", %"struct.std::_Vector_base"* %5, i32 0, i32 0, !llfi_index !600
  call void @_ZNSt12_Vector_baseISt4pairIiiESaIS1_EE12_Vector_implD2Ev(%"struct.std::_Vector_base<std::pair<int, int>, std::allocator<std::pair<int, int>>>::_Vector_impl"* nonnull align 8 dereferenceable(24) %28) #2, !llfi_index !601
  br label %29, !llfi_index !602

29:                                               ; preds = %24
  %30 = load i8*, i8** %3, align 8, !llfi_index !603
  call void @__clang_call_terminate(i8* %30) #15, !llfi_index !604
  unreachable, !llfi_index !605
}

; Function Attrs: mustprogress noinline uwtable
define linkonce_odr dso_local void @_ZNSt12_Vector_baseISt4pairIiiESaIS1_EE13_M_deallocateEPS1_m(%"struct.std::_Vector_base"* nonnull align 8 dereferenceable(24) %0, %"struct.std::pair"* %1, i64 %2) #4 comdat align 2 {
  %4 = alloca %"struct.std::_Vector_base"*, align 8, !llfi_index !606
  %5 = alloca %"struct.std::pair"*, align 8, !llfi_index !607
  %6 = alloca i64, align 8, !llfi_index !608
  store %"struct.std::_Vector_base"* %0, %"struct.std::_Vector_base"** %4, align 8, !llfi_index !609
  store %"struct.std::pair"* %1, %"struct.std::pair"** %5, align 8, !llfi_index !610
  store i64 %2, i64* %6, align 8, !llfi_index !611
  %7 = load %"struct.std::_Vector_base"*, %"struct.std::_Vector_base"** %4, align 8, !llfi_index !612
  %8 = load %"struct.std::pair"*, %"struct.std::pair"** %5, align 8, !llfi_index !613
  %9 = icmp ne %"struct.std::pair"* %8, null, !llfi_index !614
  br i1 %9, label %10, label %15, !llfi_index !615

10:                                               ; preds = %3
  %11 = getelementptr inbounds %"struct.std::_Vector_base", %"struct.std::_Vector_base"* %7, i32 0, i32 0, !llfi_index !616
  %12 = bitcast %"struct.std::_Vector_base<std::pair<int, int>, std::allocator<std::pair<int, int>>>::_Vector_impl"* %11 to %"struct.std::less"*, !llfi_index !617
  %13 = load %"struct.std::pair"*, %"struct.std::pair"** %5, align 8, !llfi_index !618
  %14 = load i64, i64* %6, align 8, !llfi_index !619
  call void @_ZNSt16allocator_traitsISaISt4pairIiiEEE10deallocateERS2_PS1_m(%"struct.std::less"* nonnull align 1 dereferenceable(1) %12, %"struct.std::pair"* %13, i64 %14), !llfi_index !620
  br label %15, !llfi_index !621

15:                                               ; preds = %10, %3
  ret void, !llfi_index !622
}

; Function Attrs: noinline nounwind uwtable
define linkonce_odr dso_local void @_ZNSt12_Vector_baseISt4pairIiiESaIS1_EE12_Vector_implD2Ev(%"struct.std::_Vector_base<std::pair<int, int>, std::allocator<std::pair<int, int>>>::_Vector_impl"* nonnull align 8 dereferenceable(24) %0) unnamed_addr #1 comdat align 2 {
  %2 = alloca %"struct.std::_Vector_base<std::pair<int, int>, std::allocator<std::pair<int, int>>>::_Vector_impl"*, align 8, !llfi_index !623
  store %"struct.std::_Vector_base<std::pair<int, int>, std::allocator<std::pair<int, int>>>::_Vector_impl"* %0, %"struct.std::_Vector_base<std::pair<int, int>, std::allocator<std::pair<int, int>>>::_Vector_impl"** %2, align 8, !llfi_index !624
  %3 = load %"struct.std::_Vector_base<std::pair<int, int>, std::allocator<std::pair<int, int>>>::_Vector_impl"*, %"struct.std::_Vector_base<std::pair<int, int>, std::allocator<std::pair<int, int>>>::_Vector_impl"** %2, align 8, !llfi_index !625
  %4 = bitcast %"struct.std::_Vector_base<std::pair<int, int>, std::allocator<std::pair<int, int>>>::_Vector_impl"* %3 to %"struct.std::less"*, !llfi_index !626
  call void @_ZNSaISt4pairIiiEED2Ev(%"struct.std::less"* nonnull align 1 dereferenceable(1) %4) #2, !llfi_index !627
  ret void, !llfi_index !628
}

; Function Attrs: noinline nounwind uwtable
define linkonce_odr dso_local void @_ZNSaISt4pairIiiEED2Ev(%"struct.std::less"* nonnull align 1 dereferenceable(1) %0) unnamed_addr #1 comdat align 2 {
  %2 = alloca %"struct.std::less"*, align 8, !llfi_index !629
  store %"struct.std::less"* %0, %"struct.std::less"** %2, align 8, !llfi_index !630
  %3 = load %"struct.std::less"*, %"struct.std::less"** %2, align 8, !llfi_index !631
  %4 = bitcast %"struct.std::less"* %3 to %"struct.std::less"*, !llfi_index !632
  call void @_ZN9__gnu_cxx13new_allocatorISt4pairIiiEED2Ev(%"struct.std::less"* nonnull align 1 dereferenceable(1) %4) #2, !llfi_index !633
  ret void, !llfi_index !634
}

; Function Attrs: noinline nounwind uwtable
define linkonce_odr dso_local void @_ZN9__gnu_cxx13new_allocatorISt4pairIiiEED2Ev(%"struct.std::less"* nonnull align 1 dereferenceable(1) %0) unnamed_addr #1 comdat align 2 {
  %2 = alloca %"struct.std::less"*, align 8, !llfi_index !635
  store %"struct.std::less"* %0, %"struct.std::less"** %2, align 8, !llfi_index !636
  %3 = load %"struct.std::less"*, %"struct.std::less"** %2, align 8, !llfi_index !637
  ret void, !llfi_index !638
}

; Function Attrs: mustprogress noinline uwtable
define linkonce_odr dso_local void @_ZNSt16allocator_traitsISaISt4pairIiiEEE10deallocateERS2_PS1_m(%"struct.std::less"* nonnull align 1 dereferenceable(1) %0, %"struct.std::pair"* %1, i64 %2) #4 comdat align 2 {
  %4 = alloca %"struct.std::less"*, align 8, !llfi_index !639
  %5 = alloca %"struct.std::pair"*, align 8, !llfi_index !640
  %6 = alloca i64, align 8, !llfi_index !641
  store %"struct.std::less"* %0, %"struct.std::less"** %4, align 8, !llfi_index !642
  store %"struct.std::pair"* %1, %"struct.std::pair"** %5, align 8, !llfi_index !643
  store i64 %2, i64* %6, align 8, !llfi_index !644
  %7 = load %"struct.std::less"*, %"struct.std::less"** %4, align 8, !llfi_index !645
  %8 = bitcast %"struct.std::less"* %7 to %"struct.std::less"*, !llfi_index !646
  %9 = load %"struct.std::pair"*, %"struct.std::pair"** %5, align 8, !llfi_index !647
  %10 = load i64, i64* %6, align 8, !llfi_index !648
  call void @_ZN9__gnu_cxx13new_allocatorISt4pairIiiEE10deallocateEPS2_m(%"struct.std::less"* nonnull align 1 dereferenceable(1) %8, %"struct.std::pair"* %9, i64 %10), !llfi_index !649
  ret void, !llfi_index !650
}

; Function Attrs: mustprogress noinline nounwind uwtable
define linkonce_odr dso_local void @_ZN9__gnu_cxx13new_allocatorISt4pairIiiEE10deallocateEPS2_m(%"struct.std::less"* nonnull align 1 dereferenceable(1) %0, %"struct.std::pair"* %1, i64 %2) #3 comdat align 2 {
  %4 = alloca %"struct.std::less"*, align 8, !llfi_index !651
  %5 = alloca %"struct.std::pair"*, align 8, !llfi_index !652
  %6 = alloca i64, align 8, !llfi_index !653
  store %"struct.std::less"* %0, %"struct.std::less"** %4, align 8, !llfi_index !654
  store %"struct.std::pair"* %1, %"struct.std::pair"** %5, align 8, !llfi_index !655
  store i64 %2, i64* %6, align 8, !llfi_index !656
  %7 = load %"struct.std::less"*, %"struct.std::less"** %4, align 8, !llfi_index !657
  %8 = load %"struct.std::pair"*, %"struct.std::pair"** %5, align 8, !llfi_index !658
  %9 = bitcast %"struct.std::pair"* %8 to i8*, !llfi_index !659
  call void @_ZdlPv(i8* %9) #2, !llfi_index !660
  ret void, !llfi_index !661
}

; Function Attrs: mustprogress noinline uwtable
define linkonce_odr dso_local void @_ZSt8_DestroyIPSt4pairIiiEEvT_S3_(%"struct.std::pair"* %0, %"struct.std::pair"* %1) #4 comdat {
  %3 = alloca %"struct.std::pair"*, align 8, !llfi_index !662
  %4 = alloca %"struct.std::pair"*, align 8, !llfi_index !663
  store %"struct.std::pair"* %0, %"struct.std::pair"** %3, align 8, !llfi_index !664
  store %"struct.std::pair"* %1, %"struct.std::pair"** %4, align 8, !llfi_index !665
  %5 = load %"struct.std::pair"*, %"struct.std::pair"** %3, align 8, !llfi_index !666
  %6 = load %"struct.std::pair"*, %"struct.std::pair"** %4, align 8, !llfi_index !667
  call void @_ZNSt12_Destroy_auxILb1EE9__destroyIPSt4pairIiiEEEvT_S5_(%"struct.std::pair"* %5, %"struct.std::pair"* %6), !llfi_index !668
  ret void, !llfi_index !669
}

; Function Attrs: mustprogress noinline nounwind uwtable
define linkonce_odr dso_local void @_ZNSt12_Destroy_auxILb1EE9__destroyIPSt4pairIiiEEEvT_S5_(%"struct.std::pair"* %0, %"struct.std::pair"* %1) #3 comdat align 2 {
  %3 = alloca %"struct.std::pair"*, align 8, !llfi_index !670
  %4 = alloca %"struct.std::pair"*, align 8, !llfi_index !671
  store %"struct.std::pair"* %0, %"struct.std::pair"** %3, align 8, !llfi_index !672
  store %"struct.std::pair"* %1, %"struct.std::pair"** %4, align 8, !llfi_index !673
  ret void, !llfi_index !674
}

; Function Attrs: noinline nounwind uwtable
define linkonce_odr dso_local void @_ZNSt12_Vector_baseISt4pairIiiESaIS1_EEC2Ev(%"struct.std::_Vector_base"* nonnull align 8 dereferenceable(24) %0) unnamed_addr #1 comdat align 2 {
  %2 = alloca %"struct.std::_Vector_base"*, align 8, !llfi_index !675
  store %"struct.std::_Vector_base"* %0, %"struct.std::_Vector_base"** %2, align 8, !llfi_index !676
  %3 = load %"struct.std::_Vector_base"*, %"struct.std::_Vector_base"** %2, align 8, !llfi_index !677
  %4 = getelementptr inbounds %"struct.std::_Vector_base", %"struct.std::_Vector_base"* %3, i32 0, i32 0, !llfi_index !678
  call void @_ZNSt12_Vector_baseISt4pairIiiESaIS1_EE12_Vector_implC2Ev(%"struct.std::_Vector_base<std::pair<int, int>, std::allocator<std::pair<int, int>>>::_Vector_impl"* nonnull align 8 dereferenceable(24) %4) #2, !llfi_index !679
  ret void, !llfi_index !680
}

; Function Attrs: noinline nounwind uwtable
define linkonce_odr dso_local void @_ZNSt12_Vector_baseISt4pairIiiESaIS1_EE12_Vector_implC2Ev(%"struct.std::_Vector_base<std::pair<int, int>, std::allocator<std::pair<int, int>>>::_Vector_impl"* nonnull align 8 dereferenceable(24) %0) unnamed_addr #1 comdat align 2 {
  %2 = alloca %"struct.std::_Vector_base<std::pair<int, int>, std::allocator<std::pair<int, int>>>::_Vector_impl"*, align 8, !llfi_index !681
  store %"struct.std::_Vector_base<std::pair<int, int>, std::allocator<std::pair<int, int>>>::_Vector_impl"* %0, %"struct.std::_Vector_base<std::pair<int, int>, std::allocator<std::pair<int, int>>>::_Vector_impl"** %2, align 8, !llfi_index !682
  %3 = load %"struct.std::_Vector_base<std::pair<int, int>, std::allocator<std::pair<int, int>>>::_Vector_impl"*, %"struct.std::_Vector_base<std::pair<int, int>, std::allocator<std::pair<int, int>>>::_Vector_impl"** %2, align 8, !llfi_index !683
  %4 = bitcast %"struct.std::_Vector_base<std::pair<int, int>, std::allocator<std::pair<int, int>>>::_Vector_impl"* %3 to %"struct.std::less"*, !llfi_index !684
  call void @_ZNSaISt4pairIiiEEC2Ev(%"struct.std::less"* nonnull align 1 dereferenceable(1) %4) #2, !llfi_index !685
  %5 = bitcast %"struct.std::_Vector_base<std::pair<int, int>, std::allocator<std::pair<int, int>>>::_Vector_impl"* %3 to %"struct.std::_Vector_base<std::pair<int, int>, std::allocator<std::pair<int, int>>>::_Vector_impl_data"*, !llfi_index !686
  call void @_ZNSt12_Vector_baseISt4pairIiiESaIS1_EE17_Vector_impl_dataC2Ev(%"struct.std::_Vector_base<std::pair<int, int>, std::allocator<std::pair<int, int>>>::_Vector_impl_data"* nonnull align 8 dereferenceable(24) %5) #2, !llfi_index !687
  ret void, !llfi_index !688
}

; Function Attrs: noinline nounwind uwtable
define linkonce_odr dso_local void @_ZNSaISt4pairIiiEEC2Ev(%"struct.std::less"* nonnull align 1 dereferenceable(1) %0) unnamed_addr #1 comdat align 2 {
  %2 = alloca %"struct.std::less"*, align 8, !llfi_index !689
  store %"struct.std::less"* %0, %"struct.std::less"** %2, align 8, !llfi_index !690
  %3 = load %"struct.std::less"*, %"struct.std::less"** %2, align 8, !llfi_index !691
  %4 = bitcast %"struct.std::less"* %3 to %"struct.std::less"*, !llfi_index !692
  call void @_ZN9__gnu_cxx13new_allocatorISt4pairIiiEEC2Ev(%"struct.std::less"* nonnull align 1 dereferenceable(1) %4) #2, !llfi_index !693
  ret void, !llfi_index !694
}

; Function Attrs: noinline nounwind uwtable
define linkonce_odr dso_local void @_ZNSt12_Vector_baseISt4pairIiiESaIS1_EE17_Vector_impl_dataC2Ev(%"struct.std::_Vector_base<std::pair<int, int>, std::allocator<std::pair<int, int>>>::_Vector_impl_data"* nonnull align 8 dereferenceable(24) %0) unnamed_addr #1 comdat align 2 {
  %2 = alloca %"struct.std::_Vector_base<std::pair<int, int>, std::allocator<std::pair<int, int>>>::_Vector_impl_data"*, align 8, !llfi_index !695
  store %"struct.std::_Vector_base<std::pair<int, int>, std::allocator<std::pair<int, int>>>::_Vector_impl_data"* %0, %"struct.std::_Vector_base<std::pair<int, int>, std::allocator<std::pair<int, int>>>::_Vector_impl_data"** %2, align 8, !llfi_index !696
  %3 = load %"struct.std::_Vector_base<std::pair<int, int>, std::allocator<std::pair<int, int>>>::_Vector_impl_data"*, %"struct.std::_Vector_base<std::pair<int, int>, std::allocator<std::pair<int, int>>>::_Vector_impl_data"** %2, align 8, !llfi_index !697
  %4 = getelementptr inbounds %"struct.std::_Vector_base<std::pair<int, int>, std::allocator<std::pair<int, int>>>::_Vector_impl_data", %"struct.std::_Vector_base<std::pair<int, int>, std::allocator<std::pair<int, int>>>::_Vector_impl_data"* %3, i32 0, i32 0, !llfi_index !698
  store %"struct.std::pair"* null, %"struct.std::pair"** %4, align 8, !llfi_index !699
  %5 = getelementptr inbounds %"struct.std::_Vector_base<std::pair<int, int>, std::allocator<std::pair<int, int>>>::_Vector_impl_data", %"struct.std::_Vector_base<std::pair<int, int>, std::allocator<std::pair<int, int>>>::_Vector_impl_data"* %3, i32 0, i32 1, !llfi_index !700
  store %"struct.std::pair"* null, %"struct.std::pair"** %5, align 8, !llfi_index !701
  %6 = getelementptr inbounds %"struct.std::_Vector_base<std::pair<int, int>, std::allocator<std::pair<int, int>>>::_Vector_impl_data", %"struct.std::_Vector_base<std::pair<int, int>, std::allocator<std::pair<int, int>>>::_Vector_impl_data"* %3, i32 0, i32 2, !llfi_index !702
  store %"struct.std::pair"* null, %"struct.std::pair"** %6, align 8, !llfi_index !703
  ret void, !llfi_index !704
}

; Function Attrs: noinline nounwind uwtable
define linkonce_odr dso_local void @_ZN9__gnu_cxx13new_allocatorISt4pairIiiEEC2Ev(%"struct.std::less"* nonnull align 1 dereferenceable(1) %0) unnamed_addr #1 comdat align 2 {
  %2 = alloca %"struct.std::less"*, align 8, !llfi_index !705
  store %"struct.std::less"* %0, %"struct.std::less"** %2, align 8, !llfi_index !706
  %3 = load %"struct.std::less"*, %"struct.std::less"** %2, align 8, !llfi_index !707
  ret void, !llfi_index !708
}

declare dso_local void @_ZNSt8ios_base4InitC1Ev(%"struct.std::less"* nonnull align 1 dereferenceable(1)) unnamed_addr #7

; Function Attrs: noinline uwtable
define internal void @__dtor__ZStL8__ioinit() #0 section ".text.startup" {
  call void @_ZNSt8ios_base4InitD1Ev(%"struct.std::less"* @_ZStL8__ioinit), !llfi_index !709
  ret void, !llfi_index !710
}

; Function Attrs: nounwind
declare dso_local void @_ZNSt8ios_base4InitD1Ev(%"struct.std::less"* nonnull align 1 dereferenceable(1)) unnamed_addr #8

; Function Attrs: mustprogress noinline nounwind uwtable
define dso_local i64 @_Z2poxi(i64 %0, i32 %1) #3 {
  %3 = alloca i64, align 8, !llfi_index !711
  %4 = alloca i32, align 4, !llfi_index !712
  %5 = alloca i64, align 8, !llfi_index !713
  store i64 %0, i64* %3, align 8, !llfi_index !714
  store i32 %1, i32* %4, align 4, !llfi_index !715
  store i64 1, i64* %5, align 8, !llfi_index !716
  br label %6, !llfi_index !717

6:                                                ; preds = %18, %2
  %7 = load i32, i32* %4, align 4, !llfi_index !718
  %8 = icmp ne i32 %7, 0, !llfi_index !719
  br i1 %8, label %9, label %25, !llfi_index !720

9:                                                ; preds = %6
  %10 = load i32, i32* %4, align 4, !llfi_index !721
  %11 = and i32 %10, 1, !llfi_index !722
  %12 = icmp ne i32 %11, 0, !llfi_index !723
  br i1 %12, label %13, label %18, !llfi_index !724

13:                                               ; preds = %9
  %14 = load i64, i64* %5, align 8, !llfi_index !725
  %15 = load i64, i64* %3, align 8, !llfi_index !726
  %16 = mul nsw i64 %14, %15, !llfi_index !727
  %17 = srem i64 %16, 998244353, !llfi_index !728
  store i64 %17, i64* %5, align 8, !llfi_index !729
  br label %18, !llfi_index !730

18:                                               ; preds = %13, %9
  %19 = load i32, i32* %4, align 4, !llfi_index !731
  %20 = ashr i32 %19, 1, !llfi_index !732
  store i32 %20, i32* %4, align 4, !llfi_index !733
  %21 = load i64, i64* %3, align 8, !llfi_index !734
  %22 = load i64, i64* %3, align 8, !llfi_index !735
  %23 = mul nsw i64 %21, %22, !llfi_index !736
  %24 = srem i64 %23, 998244353, !llfi_index !737
  store i64 %24, i64* %3, align 8, !llfi_index !738
  br label %6, !llvm.loop !739, !llfi_index !740

25:                                               ; preds = %6
  %26 = load i64, i64* %5, align 8, !llfi_index !741
  ret i64 %26, !llfi_index !742
}

; Function Attrs: mustprogress noinline nounwind uwtable
define dso_local void @_Z6changePxi(i64* %0, i32 %1) #3 {
  %3 = alloca i64*, align 8, !llfi_index !743
  %4 = alloca i32, align 4, !llfi_index !744
  %5 = alloca i32, align 4, !llfi_index !745
  %6 = alloca i32, align 4, !llfi_index !746
  %7 = alloca i32, align 4, !llfi_index !747
  store i64* %0, i64** %3, align 8, !llfi_index !748
  store i32 %1, i32* %4, align 4, !llfi_index !749
  store i32 1, i32* %5, align 4, !llfi_index !750
  %8 = load i32, i32* %4, align 4, !llfi_index !751
  %9 = sdiv i32 %8, 2, !llfi_index !752
  store i32 %9, i32* %6, align 4, !llfi_index !753
  br label %10, !llfi_index !754

10:                                               ; preds = %50, %2
  %11 = load i32, i32* %5, align 4, !llfi_index !755
  %12 = load i32, i32* %4, align 4, !llfi_index !756
  %13 = sub nsw i32 %12, 1, !llfi_index !757
  %14 = icmp slt i32 %11, %13, !llfi_index !758
  br i1 %14, label %15, label %53, !llfi_index !759

15:                                               ; preds = %10
  %16 = load i32, i32* %5, align 4, !llfi_index !760
  %17 = load i32, i32* %6, align 4, !llfi_index !761
  %18 = icmp slt i32 %16, %17, !llfi_index !762
  br i1 %18, label %19, label %28, !llfi_index !763

19:                                               ; preds = %15
  %20 = load i64*, i64** %3, align 8, !llfi_index !764
  %21 = load i32, i32* %5, align 4, !llfi_index !765
  %22 = sext i32 %21 to i64, !llfi_index !766
  %23 = getelementptr inbounds i64, i64* %20, i64 %22, !llfi_index !767
  %24 = load i64*, i64** %3, align 8, !llfi_index !768
  %25 = load i32, i32* %6, align 4, !llfi_index !769
  %26 = sext i32 %25 to i64, !llfi_index !770
  %27 = getelementptr inbounds i64, i64* %24, i64 %26, !llfi_index !771
  call void @_ZSt4swapIxENSt9enable_ifIXsr6__and_ISt6__not_ISt15__is_tuple_likeIT_EESt21is_move_constructibleIS3_ESt18is_move_assignableIS3_EEE5valueEvE4typeERS3_SC_(i64* nonnull align 8 dereferenceable(8) %23, i64* nonnull align 8 dereferenceable(8) %27) #2, !llfi_index !772
  br label %28, !llfi_index !773

28:                                               ; preds = %19, %15
  %29 = load i32, i32* %4, align 4, !llfi_index !774
  %30 = sdiv i32 %29, 2, !llfi_index !775
  store i32 %30, i32* %7, align 4, !llfi_index !776
  br label %31, !llfi_index !777

31:                                               ; preds = %35, %28
  %32 = load i32, i32* %6, align 4, !llfi_index !778
  %33 = load i32, i32* %7, align 4, !llfi_index !779
  %34 = icmp sge i32 %32, %33, !llfi_index !780
  br i1 %34, label %35, label %41, !llfi_index !781

35:                                               ; preds = %31
  %36 = load i32, i32* %7, align 4, !llfi_index !782
  %37 = load i32, i32* %6, align 4, !llfi_index !783
  %38 = sub nsw i32 %37, %36, !llfi_index !784
  store i32 %38, i32* %6, align 4, !llfi_index !785
  %39 = load i32, i32* %7, align 4, !llfi_index !786
  %40 = sdiv i32 %39, 2, !llfi_index !787
  store i32 %40, i32* %7, align 4, !llfi_index !788
  br label %31, !llvm.loop !789, !llfi_index !790

41:                                               ; preds = %31
  %42 = load i32, i32* %6, align 4, !llfi_index !791
  %43 = load i32, i32* %7, align 4, !llfi_index !792
  %44 = icmp slt i32 %42, %43, !llfi_index !793
  br i1 %44, label %45, label %49, !llfi_index !794

45:                                               ; preds = %41
  %46 = load i32, i32* %7, align 4, !llfi_index !795
  %47 = load i32, i32* %6, align 4, !llfi_index !796
  %48 = add nsw i32 %47, %46, !llfi_index !797
  store i32 %48, i32* %6, align 4, !llfi_index !798
  br label %49, !llfi_index !799

49:                                               ; preds = %45, %41
  br label %50, !llfi_index !800

50:                                               ; preds = %49
  %51 = load i32, i32* %5, align 4, !llfi_index !801
  %52 = add nsw i32 %51, 1, !llfi_index !802
  store i32 %52, i32* %5, align 4, !llfi_index !803
  br label %10, !llvm.loop !804, !llfi_index !805

53:                                               ; preds = %10
  ret void, !llfi_index !806
}

; Function Attrs: mustprogress noinline nounwind uwtable
define linkonce_odr dso_local void @_ZSt4swapIxENSt9enable_ifIXsr6__and_ISt6__not_ISt15__is_tuple_likeIT_EESt21is_move_constructibleIS3_ESt18is_move_assignableIS3_EEE5valueEvE4typeERS3_SC_(i64* nonnull align 8 dereferenceable(8) %0, i64* nonnull align 8 dereferenceable(8) %1) #3 comdat {
  %3 = alloca i64*, align 8, !llfi_index !807
  %4 = alloca i64*, align 8, !llfi_index !808
  %5 = alloca i64, align 8, !llfi_index !809
  store i64* %0, i64** %3, align 8, !llfi_index !810
  store i64* %1, i64** %4, align 8, !llfi_index !811
  %6 = load i64*, i64** %3, align 8, !llfi_index !812
  %7 = call nonnull align 8 dereferenceable(8) i64* @_ZSt4moveIRxEONSt16remove_referenceIT_E4typeEOS2_(i64* nonnull align 8 dereferenceable(8) %6) #2, !llfi_index !813
  %8 = load i64, i64* %7, align 8, !llfi_index !814
  store i64 %8, i64* %5, align 8, !llfi_index !815
  %9 = load i64*, i64** %4, align 8, !llfi_index !816
  %10 = call nonnull align 8 dereferenceable(8) i64* @_ZSt4moveIRxEONSt16remove_referenceIT_E4typeEOS2_(i64* nonnull align 8 dereferenceable(8) %9) #2, !llfi_index !817
  %11 = load i64, i64* %10, align 8, !llfi_index !818
  %12 = load i64*, i64** %3, align 8, !llfi_index !819
  store i64 %11, i64* %12, align 8, !llfi_index !820
  %13 = call nonnull align 8 dereferenceable(8) i64* @_ZSt4moveIRxEONSt16remove_referenceIT_E4typeEOS2_(i64* nonnull align 8 dereferenceable(8) %5) #2, !llfi_index !821
  %14 = load i64, i64* %13, align 8, !llfi_index !822
  %15 = load i64*, i64** %4, align 8, !llfi_index !823
  store i64 %14, i64* %15, align 8, !llfi_index !824
  ret void, !llfi_index !825
}

; Function Attrs: mustprogress noinline nounwind uwtable
define linkonce_odr dso_local nonnull align 8 dereferenceable(8) i64* @_ZSt4moveIRxEONSt16remove_referenceIT_E4typeEOS2_(i64* nonnull align 8 dereferenceable(8) %0) #3 comdat {
  %2 = alloca i64*, align 8, !llfi_index !826
  store i64* %0, i64** %2, align 8, !llfi_index !827
  %3 = load i64*, i64** %2, align 8, !llfi_index !828
  ret i64* %3, !llfi_index !829
}

; Function Attrs: mustprogress noinline nounwind uwtable
define dso_local void @_Z3nttPxii(i64* %0, i32 %1, i32 %2) #3 {
  %4 = alloca i64*, align 8, !llfi_index !830
  %5 = alloca i32, align 4, !llfi_index !831
  %6 = alloca i32, align 4, !llfi_index !832
  %7 = alloca i32, align 4, !llfi_index !833
  %8 = alloca i64, align 8, !llfi_index !834
  %9 = alloca i32, align 4, !llfi_index !835
  %10 = alloca i64, align 8, !llfi_index !836
  %11 = alloca i32, align 4, !llfi_index !837
  %12 = alloca i64, align 8, !llfi_index !838
  %13 = alloca i64, align 8, !llfi_index !839
  %14 = alloca i64, align 8, !llfi_index !840
  %15 = alloca i32, align 4, !llfi_index !841
  store i64* %0, i64** %4, align 8, !llfi_index !842
  store i32 %1, i32* %5, align 4, !llfi_index !843
  store i32 %2, i32* %6, align 4, !llfi_index !844
  %16 = load i64*, i64** %4, align 8, !llfi_index !845
  %17 = load i32, i32* %5, align 4, !llfi_index !846
  call void @_Z6changePxi(i64* %16, i32 %17), !llfi_index !847
  store i32 2, i32* %7, align 4, !llfi_index !848
  br label %18, !llfi_index !849

18:                                               ; preds = %95, %3
  %19 = load i32, i32* %7, align 4, !llfi_index !850
  %20 = load i32, i32* %5, align 4, !llfi_index !851
  %21 = icmp sle i32 %19, %20, !llfi_index !852
  br i1 %21, label %22, label %98, !llfi_index !853

22:                                               ; preds = %18
  %23 = load i32, i32* %7, align 4, !llfi_index !854
  %24 = sdiv i32 998244352, %23, !llfi_index !855
  %25 = call i64 @_Z2poxi(i64 3, i32 %24), !llfi_index !856
  store i64 %25, i64* %8, align 8, !llfi_index !857
  %26 = load i32, i32* %6, align 4, !llfi_index !858
  %27 = icmp eq i32 %26, 1, !llfi_index !859
  br i1 %27, label %28, label %31, !llfi_index !860

28:                                               ; preds = %22
  %29 = load i64, i64* %8, align 8, !llfi_index !861
  %30 = call i64 @_Z2poxi(i64 %29, i32 998244351), !llfi_index !862
  store i64 %30, i64* %8, align 8, !llfi_index !863
  br label %31, !llfi_index !864

31:                                               ; preds = %28, %22
  store i32 0, i32* %9, align 4, !llfi_index !865
  br label %32, !llfi_index !866

32:                                               ; preds = %90, %31
  %33 = load i32, i32* %9, align 4, !llfi_index !867
  %34 = load i32, i32* %5, align 4, !llfi_index !868
  %35 = icmp slt i32 %33, %34, !llfi_index !869
  br i1 %35, label %36, label %94, !llfi_index !870

36:                                               ; preds = %32
  store i64 1, i64* %10, align 8, !llfi_index !871
  %37 = load i32, i32* %9, align 4, !llfi_index !872
  store i32 %37, i32* %11, align 4, !llfi_index !873
  br label %38, !llfi_index !874

38:                                               ; preds = %86, %36
  %39 = load i32, i32* %11, align 4, !llfi_index !875
  %40 = load i32, i32* %9, align 4, !llfi_index !876
  %41 = load i32, i32* %7, align 4, !llfi_index !877
  %42 = sdiv i32 %41, 2, !llfi_index !878
  %43 = add nsw i32 %40, %42, !llfi_index !879
  %44 = icmp slt i32 %39, %43, !llfi_index !880
  br i1 %44, label %45, label %89, !llfi_index !881

45:                                               ; preds = %38
  %46 = load i64*, i64** %4, align 8, !llfi_index !882
  %47 = load i32, i32* %11, align 4, !llfi_index !883
  %48 = sext i32 %47 to i64, !llfi_index !884
  %49 = getelementptr inbounds i64, i64* %46, i64 %48, !llfi_index !885
  %50 = load i64, i64* %49, align 8, !llfi_index !886
  store i64 %50, i64* %12, align 8, !llfi_index !887
  %51 = load i64, i64* %10, align 8, !llfi_index !888
  %52 = load i64*, i64** %4, align 8, !llfi_index !889
  %53 = load i32, i32* %11, align 4, !llfi_index !890
  %54 = load i32, i32* %7, align 4, !llfi_index !891
  %55 = sdiv i32 %54, 2, !llfi_index !892
  %56 = add nsw i32 %53, %55, !llfi_index !893
  %57 = sext i32 %56 to i64, !llfi_index !894
  %58 = getelementptr inbounds i64, i64* %52, i64 %57, !llfi_index !895
  %59 = load i64, i64* %58, align 8, !llfi_index !896
  %60 = mul nsw i64 %51, %59, !llfi_index !897
  %61 = srem i64 %60, 998244353, !llfi_index !898
  store i64 %61, i64* %13, align 8, !llfi_index !899
  %62 = load i64, i64* %12, align 8, !llfi_index !900
  %63 = load i64, i64* %13, align 8, !llfi_index !901
  %64 = add nsw i64 %62, %63, !llfi_index !902
  %65 = srem i64 %64, 998244353, !llfi_index !903
  %66 = load i64*, i64** %4, align 8, !llfi_index !904
  %67 = load i32, i32* %11, align 4, !llfi_index !905
  %68 = sext i32 %67 to i64, !llfi_index !906
  %69 = getelementptr inbounds i64, i64* %66, i64 %68, !llfi_index !907
  store i64 %65, i64* %69, align 8, !llfi_index !908
  %70 = load i64, i64* %12, align 8, !llfi_index !909
  %71 = load i64, i64* %13, align 8, !llfi_index !910
  %72 = sub nsw i64 %70, %71, !llfi_index !911
  %73 = add nsw i64 %72, 998244353, !llfi_index !912
  %74 = srem i64 %73, 998244353, !llfi_index !913
  %75 = load i64*, i64** %4, align 8, !llfi_index !914
  %76 = load i32, i32* %11, align 4, !llfi_index !915
  %77 = load i32, i32* %7, align 4, !llfi_index !916
  %78 = sdiv i32 %77, 2, !llfi_index !917
  %79 = add nsw i32 %76, %78, !llfi_index !918
  %80 = sext i32 %79 to i64, !llfi_index !919
  %81 = getelementptr inbounds i64, i64* %75, i64 %80, !llfi_index !920
  store i64 %74, i64* %81, align 8, !llfi_index !921
  %82 = load i64, i64* %10, align 8, !llfi_index !922
  %83 = load i64, i64* %8, align 8, !llfi_index !923
  %84 = mul nsw i64 %82, %83, !llfi_index !924
  %85 = srem i64 %84, 998244353, !llfi_index !925
  store i64 %85, i64* %10, align 8, !llfi_index !926
  br label %86, !llfi_index !927

86:                                               ; preds = %45
  %87 = load i32, i32* %11, align 4, !llfi_index !928
  %88 = add nsw i32 %87, 1, !llfi_index !929
  store i32 %88, i32* %11, align 4, !llfi_index !930
  br label %38, !llvm.loop !931, !llfi_index !932

89:                                               ; preds = %38
  br label %90, !llfi_index !933

90:                                               ; preds = %89
  %91 = load i32, i32* %7, align 4, !llfi_index !934
  %92 = load i32, i32* %9, align 4, !llfi_index !935
  %93 = add nsw i32 %92, %91, !llfi_index !936
  store i32 %93, i32* %9, align 4, !llfi_index !937
  br label %32, !llvm.loop !938, !llfi_index !939

94:                                               ; preds = %32
  br label %95, !llfi_index !940

95:                                               ; preds = %94
  %96 = load i32, i32* %7, align 4, !llfi_index !941
  %97 = shl i32 %96, 1, !llfi_index !942
  store i32 %97, i32* %7, align 4, !llfi_index !943
  br label %18, !llvm.loop !944, !llfi_index !945

98:                                               ; preds = %18
  %99 = load i32, i32* %6, align 4, !llfi_index !946
  %100 = icmp eq i32 %99, -1, !llfi_index !947
  br i1 %100, label %101, label %126, !llfi_index !948

101:                                              ; preds = %98
  %102 = load i32, i32* %5, align 4, !llfi_index !949
  %103 = sext i32 %102 to i64, !llfi_index !950
  %104 = call i64 @_Z2poxi(i64 %103, i32 998244351), !llfi_index !951
  store i64 %104, i64* %14, align 8, !llfi_index !952
  store i32 0, i32* %15, align 4, !llfi_index !953
  br label %105, !llfi_index !954

105:                                              ; preds = %122, %101
  %106 = load i32, i32* %15, align 4, !llfi_index !955
  %107 = load i32, i32* %5, align 4, !llfi_index !956
  %108 = icmp slt i32 %106, %107, !llfi_index !957
  br i1 %108, label %109, label %125, !llfi_index !958

109:                                              ; preds = %105
  %110 = load i64*, i64** %4, align 8, !llfi_index !959
  %111 = load i32, i32* %15, align 4, !llfi_index !960
  %112 = sext i32 %111 to i64, !llfi_index !961
  %113 = getelementptr inbounds i64, i64* %110, i64 %112, !llfi_index !962
  %114 = load i64, i64* %113, align 8, !llfi_index !963
  %115 = load i64, i64* %14, align 8, !llfi_index !964
  %116 = mul nsw i64 %114, %115, !llfi_index !965
  %117 = srem i64 %116, 998244353, !llfi_index !966
  %118 = load i64*, i64** %4, align 8, !llfi_index !967
  %119 = load i32, i32* %15, align 4, !llfi_index !968
  %120 = sext i32 %119 to i64, !llfi_index !969
  %121 = getelementptr inbounds i64, i64* %118, i64 %120, !llfi_index !970
  store i64 %117, i64* %121, align 8, !llfi_index !971
  br label %122, !llfi_index !972

122:                                              ; preds = %109
  %123 = load i32, i32* %15, align 4, !llfi_index !973
  %124 = add nsw i32 %123, 1, !llfi_index !974
  store i32 %124, i32* %15, align 4, !llfi_index !975
  br label %105, !llvm.loop !976, !llfi_index !977

125:                                              ; preds = %105
  br label %126, !llfi_index !978

126:                                              ; preds = %125, %98
  ret void, !llfi_index !979
}

; Function Attrs: mustprogress noinline nounwind uwtable
define dso_local void @_Z4initv() #3 {
  %1 = alloca i32, align 4, !llfi_index !980
  %2 = alloca i32, align 4, !llfi_index !981
  %3 = alloca i32, align 4, !llfi_index !982
  %4 = alloca i32, align 4, !llfi_index !983
  %5 = alloca i32, align 4, !llfi_index !984
  %6 = alloca i32, align 4, !llfi_index !985
  %7 = alloca i32, align 4, !llfi_index !986
  %8 = alloca i32, align 4, !llfi_index !987
  store i32 1, i32* %1, align 4, !llfi_index !988
  br label %9, !llfi_index !989

9:                                                ; preds = %14, %0
  %10 = load i32, i32* %1, align 4, !llfi_index !990
  %11 = load i32, i32* @n, align 4, !llfi_index !991
  %12 = mul nsw i32 %11, 2, !llfi_index !992
  %13 = icmp slt i32 %10, %12, !llfi_index !993
  br i1 %13, label %14, label %17, !llfi_index !994

14:                                               ; preds = %9
  %15 = load i32, i32* %1, align 4, !llfi_index !995
  %16 = shl i32 %15, 1, !llfi_index !996
  store i32 %16, i32* %1, align 4, !llfi_index !997
  br label %9, !llvm.loop !998, !llfi_index !999

17:                                               ; preds = %9
  store i32 0, i32* %2, align 4, !llfi_index !1000
  br label %18, !llfi_index !1001

18:                                               ; preds = %45, %17
  %19 = load i32, i32* %2, align 4, !llfi_index !1002
  %20 = load i32, i32* %1, align 4, !llfi_index !1003
  %21 = icmp slt i32 %19, %20, !llfi_index !1004
  br i1 %21, label %22, label %48, !llfi_index !1005

22:                                               ; preds = %18
  %23 = load i32, i32* %2, align 4, !llfi_index !1006
  %24 = sext i32 %23 to i64, !llfi_index !1007
  %25 = getelementptr inbounds [300000 x i64], [300000 x i64]* @x, i64 0, i64 %24, !llfi_index !1008
  store i64 0, i64* %25, align 8, !llfi_index !1009
  %26 = load i32, i32* %2, align 4, !llfi_index !1010
  %27 = load i32, i32* @m, align 4, !llfi_index !1011
  %28 = icmp slt i32 %26, %27, !llfi_index !1012
  br i1 %28, label %29, label %38, !llfi_index !1013

29:                                               ; preds = %22
  %30 = load i32, i32* %2, align 4, !llfi_index !1014
  %31 = load i32, i32* @n, align 4, !llfi_index !1015
  %32 = icmp slt i32 %30, %31, !llfi_index !1016
  br i1 %32, label %33, label %38, !llfi_index !1017

33:                                               ; preds = %29
  %34 = load i32, i32* %2, align 4, !llfi_index !1018
  %35 = sext i32 %34 to i64, !llfi_index !1019
  %36 = getelementptr inbounds [100009 x i32], [100009 x i32]* @p, i64 0, i64 %35, !llfi_index !1020
  %37 = load i32, i32* %36, align 4, !llfi_index !1021
  br label %39, !llfi_index !1022

38:                                               ; preds = %29, %22
  br label %39, !llfi_index !1023

39:                                               ; preds = %38, %33
  %40 = phi i32 [ %37, %33 ], [ 0, %38 ], !llfi_index !1024
  %41 = sext i32 %40 to i64, !llfi_index !1025
  %42 = load i32, i32* %2, align 4, !llfi_index !1026
  %43 = sext i32 %42 to i64, !llfi_index !1027
  %44 = getelementptr inbounds [300000 x i64], [300000 x i64]* @y, i64 0, i64 %43, !llfi_index !1028
  store i64 %41, i64* %44, align 8, !llfi_index !1029
  br label %45, !llfi_index !1030

45:                                               ; preds = %39
  %46 = load i32, i32* %2, align 4, !llfi_index !1031
  %47 = add nsw i32 %46, 1, !llfi_index !1032
  store i32 %47, i32* %2, align 4, !llfi_index !1033
  br label %18, !llvm.loop !1034, !llfi_index !1035

48:                                               ; preds = %18
  store i64 1, i64* getelementptr inbounds ([300000 x i64], [300000 x i64]* @x, i64 0, i64 0), align 16, !llfi_index !1036
  %49 = load i32, i32* @k, align 4, !llfi_index !1037
  store i32 %49, i32* %3, align 4, !llfi_index !1038
  br label %50, !llfi_index !1039

50:                                               ; preds = %140, %48
  %51 = load i32, i32* %3, align 4, !llfi_index !1040
  %52 = icmp ne i32 %51, 0, !llfi_index !1041
  br i1 %52, label %53, label %141, !llfi_index !1042

53:                                               ; preds = %50
  %54 = load i32, i32* %3, align 4, !llfi_index !1043
  %55 = and i32 %54, 1, !llfi_index !1044
  %56 = icmp ne i32 %55, 0, !llfi_index !1045
  br i1 %56, label %57, label %97, !llfi_index !1046

57:                                               ; preds = %53
  %58 = load i32, i32* %1, align 4, !llfi_index !1047
  call void @_Z3nttPxii(i64* getelementptr inbounds ([300000 x i64], [300000 x i64]* @x, i64 0, i64 0), i32 %58, i32 1), !llfi_index !1048
  %59 = load i32, i32* %1, align 4, !llfi_index !1049
  call void @_Z3nttPxii(i64* getelementptr inbounds ([300000 x i64], [300000 x i64]* @y, i64 0, i64 0), i32 %59, i32 1), !llfi_index !1050
  store i32 0, i32* %4, align 4, !llfi_index !1051
  br label %60, !llfi_index !1052

60:                                               ; preds = %78, %57
  %61 = load i32, i32* %4, align 4, !llfi_index !1053
  %62 = load i32, i32* %1, align 4, !llfi_index !1054
  %63 = icmp slt i32 %61, %62, !llfi_index !1055
  br i1 %63, label %64, label %81, !llfi_index !1056

64:                                               ; preds = %60
  %65 = load i32, i32* %4, align 4, !llfi_index !1057
  %66 = sext i32 %65 to i64, !llfi_index !1058
  %67 = getelementptr inbounds [300000 x i64], [300000 x i64]* @y, i64 0, i64 %66, !llfi_index !1059
  %68 = load i64, i64* %67, align 8, !llfi_index !1060
  %69 = load i32, i32* %4, align 4, !llfi_index !1061
  %70 = sext i32 %69 to i64, !llfi_index !1062
  %71 = getelementptr inbounds [300000 x i64], [300000 x i64]* @x, i64 0, i64 %70, !llfi_index !1063
  %72 = load i64, i64* %71, align 8, !llfi_index !1064
  %73 = mul nsw i64 %68, %72, !llfi_index !1065
  %74 = srem i64 %73, 998244353, !llfi_index !1066
  %75 = load i32, i32* %4, align 4, !llfi_index !1067
  %76 = sext i32 %75 to i64, !llfi_index !1068
  %77 = getelementptr inbounds [300000 x i64], [300000 x i64]* @x, i64 0, i64 %76, !llfi_index !1069
  store i64 %74, i64* %77, align 8, !llfi_index !1070
  br label %78, !llfi_index !1071

78:                                               ; preds = %64
  %79 = load i32, i32* %4, align 4, !llfi_index !1072
  %80 = add nsw i32 %79, 1, !llfi_index !1073
  store i32 %80, i32* %4, align 4, !llfi_index !1074
  br label %60, !llvm.loop !1075, !llfi_index !1076

81:                                               ; preds = %60
  %82 = load i32, i32* %1, align 4, !llfi_index !1077
  call void @_Z3nttPxii(i64* getelementptr inbounds ([300000 x i64], [300000 x i64]* @x, i64 0, i64 0), i32 %82, i32 -1), !llfi_index !1078
  %83 = load i32, i32* %1, align 4, !llfi_index !1079
  call void @_Z3nttPxii(i64* getelementptr inbounds ([300000 x i64], [300000 x i64]* @y, i64 0, i64 0), i32 %83, i32 -1), !llfi_index !1080
  %84 = load i32, i32* @n, align 4, !llfi_index !1081
  store i32 %84, i32* %5, align 4, !llfi_index !1082
  br label %85, !llfi_index !1083

85:                                               ; preds = %93, %81
  %86 = load i32, i32* %5, align 4, !llfi_index !1084
  %87 = load i32, i32* %1, align 4, !llfi_index !1085
  %88 = icmp slt i32 %86, %87, !llfi_index !1086
  br i1 %88, label %89, label %96, !llfi_index !1087

89:                                               ; preds = %85
  %90 = load i32, i32* %5, align 4, !llfi_index !1088
  %91 = sext i32 %90 to i64, !llfi_index !1089
  %92 = getelementptr inbounds [300000 x i64], [300000 x i64]* @x, i64 0, i64 %91, !llfi_index !1090
  store i64 0, i64* %92, align 8, !llfi_index !1091
  br label %93, !llfi_index !1092

93:                                               ; preds = %89
  %94 = load i32, i32* %5, align 4, !llfi_index !1093
  %95 = add nsw i32 %94, 1, !llfi_index !1094
  store i32 %95, i32* %5, align 4, !llfi_index !1095
  br label %85, !llvm.loop !1096, !llfi_index !1097

96:                                               ; preds = %85
  br label %97, !llfi_index !1098

97:                                               ; preds = %96, %53
  %98 = load i32, i32* %3, align 4, !llfi_index !1099
  %99 = ashr i32 %98, 1, !llfi_index !1100
  store i32 %99, i32* %3, align 4, !llfi_index !1101
  %100 = load i32, i32* %3, align 4, !llfi_index !1102
  %101 = icmp ne i32 %100, 0, !llfi_index !1103
  br i1 %101, label %102, label %140, !llfi_index !1104

102:                                              ; preds = %97
  %103 = load i32, i32* %1, align 4, !llfi_index !1105
  call void @_Z3nttPxii(i64* getelementptr inbounds ([300000 x i64], [300000 x i64]* @y, i64 0, i64 0), i32 %103, i32 1), !llfi_index !1106
  store i32 0, i32* %6, align 4, !llfi_index !1107
  br label %104, !llfi_index !1108

104:                                              ; preds = %122, %102
  %105 = load i32, i32* %6, align 4, !llfi_index !1109
  %106 = load i32, i32* %1, align 4, !llfi_index !1110
  %107 = icmp slt i32 %105, %106, !llfi_index !1111
  br i1 %107, label %108, label %125, !llfi_index !1112

108:                                              ; preds = %104
  %109 = load i32, i32* %6, align 4, !llfi_index !1113
  %110 = sext i32 %109 to i64, !llfi_index !1114
  %111 = getelementptr inbounds [300000 x i64], [300000 x i64]* @y, i64 0, i64 %110, !llfi_index !1115
  %112 = load i64, i64* %111, align 8, !llfi_index !1116
  %113 = load i32, i32* %6, align 4, !llfi_index !1117
  %114 = sext i32 %113 to i64, !llfi_index !1118
  %115 = getelementptr inbounds [300000 x i64], [300000 x i64]* @y, i64 0, i64 %114, !llfi_index !1119
  %116 = load i64, i64* %115, align 8, !llfi_index !1120
  %117 = mul nsw i64 %112, %116, !llfi_index !1121
  %118 = srem i64 %117, 998244353, !llfi_index !1122
  %119 = load i32, i32* %6, align 4, !llfi_index !1123
  %120 = sext i32 %119 to i64, !llfi_index !1124
  %121 = getelementptr inbounds [300000 x i64], [300000 x i64]* @y, i64 0, i64 %120, !llfi_index !1125
  store i64 %118, i64* %121, align 8, !llfi_index !1126
  br label %122, !llfi_index !1127

122:                                              ; preds = %108
  %123 = load i32, i32* %6, align 4, !llfi_index !1128
  %124 = add nsw i32 %123, 1, !llfi_index !1129
  store i32 %124, i32* %6, align 4, !llfi_index !1130
  br label %104, !llvm.loop !1131, !llfi_index !1132

125:                                              ; preds = %104
  %126 = load i32, i32* %1, align 4, !llfi_index !1133
  call void @_Z3nttPxii(i64* getelementptr inbounds ([300000 x i64], [300000 x i64]* @y, i64 0, i64 0), i32 %126, i32 -1), !llfi_index !1134
  %127 = load i32, i32* @n, align 4, !llfi_index !1135
  store i32 %127, i32* %7, align 4, !llfi_index !1136
  br label %128, !llfi_index !1137

128:                                              ; preds = %136, %125
  %129 = load i32, i32* %7, align 4, !llfi_index !1138
  %130 = load i32, i32* %1, align 4, !llfi_index !1139
  %131 = icmp slt i32 %129, %130, !llfi_index !1140
  br i1 %131, label %132, label %139, !llfi_index !1141

132:                                              ; preds = %128
  %133 = load i32, i32* %7, align 4, !llfi_index !1142
  %134 = sext i32 %133 to i64, !llfi_index !1143
  %135 = getelementptr inbounds [300000 x i64], [300000 x i64]* @y, i64 0, i64 %134, !llfi_index !1144
  store i64 0, i64* %135, align 8, !llfi_index !1145
  br label %136, !llfi_index !1146

136:                                              ; preds = %132
  %137 = load i32, i32* %7, align 4, !llfi_index !1147
  %138 = add nsw i32 %137, 1, !llfi_index !1148
  store i32 %138, i32* %7, align 4, !llfi_index !1149
  br label %128, !llvm.loop !1150, !llfi_index !1151

139:                                              ; preds = %128
  br label %140, !llfi_index !1152

140:                                              ; preds = %139, %97
  br label %50, !llvm.loop !1153, !llfi_index !1154

141:                                              ; preds = %50
  store i32 0, i32* %8, align 4, !llfi_index !1155
  br label %142, !llfi_index !1156

142:                                              ; preds = %185, %141
  %143 = load i32, i32* %8, align 4, !llfi_index !1157
  %144 = load i32, i32* @n, align 4, !llfi_index !1158
  %145 = icmp slt i32 %143, %144, !llfi_index !1159
  br i1 %145, label %146, label %188, !llfi_index !1160

146:                                              ; preds = %142
  %147 = load i32, i32* %8, align 4, !llfi_index !1161
  %148 = sext i32 %147 to i64, !llfi_index !1162
  %149 = getelementptr inbounds [300000 x i64], [300000 x i64]* @x, i64 0, i64 %148, !llfi_index !1163
  %150 = load i64, i64* %149, align 8, !llfi_index !1164
  %151 = load i32, i32* %8, align 4, !llfi_index !1165
  %152 = sext i32 %151 to i64, !llfi_index !1166
  %153 = getelementptr inbounds [300000 x i64], [300000 x i64]* @inz, i64 0, i64 %152, !llfi_index !1167
  store i64 %150, i64* %153, align 8, !llfi_index !1168
  %154 = load i32, i32* %8, align 4, !llfi_index !1169
  %155 = sext i32 %154 to i64, !llfi_index !1170
  %156 = getelementptr inbounds [300000 x i64], [300000 x i64]* @inz, i64 0, i64 %155, !llfi_index !1171
  %157 = load i64, i64* %156, align 8, !llfi_index !1172
  %158 = load i32, i32* %8, align 4, !llfi_index !1173
  %159 = icmp ne i32 %158, 0, !llfi_index !1174
  br i1 %159, label %160, label %166, !llfi_index !1175

160:                                              ; preds = %146
  %161 = load i32, i32* %8, align 4, !llfi_index !1176
  %162 = sub nsw i32 %161, 1, !llfi_index !1177
  %163 = sext i32 %162 to i64, !llfi_index !1178
  %164 = getelementptr inbounds [300000 x i64], [300000 x i64]* @nz, i64 0, i64 %163, !llfi_index !1179
  %165 = load i64, i64* %164, align 8, !llfi_index !1180
  br label %167, !llfi_index !1181

166:                                              ; preds = %146
  br label %167, !llfi_index !1182

167:                                              ; preds = %166, %160
  %168 = phi i64 [ %165, %160 ], [ 0, %166 ], !llfi_index !1183
  %169 = add nsw i64 %157, %168, !llfi_index !1184
  %170 = load i32, i32* %8, align 4, !llfi_index !1185
  %171 = sext i32 %170 to i64, !llfi_index !1186
  %172 = getelementptr inbounds [300000 x i64], [300000 x i64]* @nz, i64 0, i64 %171, !llfi_index !1187
  store i64 %169, i64* %172, align 8, !llfi_index !1188
  %173 = load i32, i32* %8, align 4, !llfi_index !1189
  %174 = sext i32 %173 to i64, !llfi_index !1190
  %175 = getelementptr inbounds [300000 x i64], [300000 x i64]* @nz, i64 0, i64 %174, !llfi_index !1191
  %176 = load i64, i64* %175, align 8, !llfi_index !1192
  %177 = icmp sge i64 %176, 998244353, !llfi_index !1193
  br i1 %177, label %178, label %184, !llfi_index !1194

178:                                              ; preds = %167
  %179 = load i32, i32* %8, align 4, !llfi_index !1195
  %180 = sext i32 %179 to i64, !llfi_index !1196
  %181 = getelementptr inbounds [300000 x i64], [300000 x i64]* @nz, i64 0, i64 %180, !llfi_index !1197
  %182 = load i64, i64* %181, align 8, !llfi_index !1198
  %183 = sub nsw i64 %182, 998244353, !llfi_index !1199
  store i64 %183, i64* %181, align 8, !llfi_index !1200
  br label %184, !llfi_index !1201

184:                                              ; preds = %178, %167
  br label %185, !llfi_index !1202

185:                                              ; preds = %184
  %186 = load i32, i32* %8, align 4, !llfi_index !1203
  %187 = add nsw i32 %186, 1, !llfi_index !1204
  store i32 %187, i32* %8, align 4, !llfi_index !1205
  br label %142, !llvm.loop !1206, !llfi_index !1207

188:                                              ; preds = %142
  ret void, !llfi_index !1208
}

; Function Attrs: mustprogress noinline uwtable
define dso_local void @_Z5solvei(i32 %0) #4 {
  %2 = alloca i32, align 4, !llfi_index !1209
  %3 = alloca i32, align 4, !llfi_index !1210
  %4 = alloca %"struct.std::pair", align 4, !llfi_index !1211
  %5 = alloca i32, align 4, !llfi_index !1212
  %6 = alloca i32, align 4, !llfi_index !1213
  %7 = alloca i32, align 4, !llfi_index !1214
  %8 = alloca i32, align 4, !llfi_index !1215
  store i32 %0, i32* %2, align 4, !llfi_index !1216
  %9 = load i32, i32* @cnt, align 4, !llfi_index !1217
  %10 = add nsw i32 %9, 1, !llfi_index !1218
  store i32 %10, i32* @cnt, align 4, !llfi_index !1219
  %11 = load i32, i32* %2, align 4, !llfi_index !1220
  store i32 %11, i32* %3, align 4, !llfi_index !1221
  br label %12, !llfi_index !1222

12:                                               ; preds = %179, %1
  %13 = load i32, i32* %3, align 4, !llfi_index !1223
  %14 = sext i32 %13 to i64, !llfi_index !1224
  %15 = getelementptr inbounds [60009 x i32], [60009 x i32]* @nuv, i64 0, i64 %14, !llfi_index !1225
  %16 = load i32, i32* %15, align 4, !llfi_index !1226
  %17 = icmp ne i32 %16, 0, !llfi_index !1227
  %18 = xor i1 %17, true, !llfi_index !1228
  br i1 %18, label %19, label %189, !llfi_index !1229

19:                                               ; preds = %12
  %20 = load i64, i64* getelementptr inbounds ([300000 x i64], [300000 x i64]* @inz, i64 0, i64 0), align 16, !llfi_index !1230
  %21 = load i32, i32* %3, align 4, !llfi_index !1231
  %22 = sext i32 %21 to i64, !llfi_index !1232
  %23 = getelementptr inbounds [60009 x i64], [60009 x i64]* @ans, i64 0, i64 %22, !llfi_index !1233
  %24 = load i64, i64* %23, align 8, !llfi_index !1234
  %25 = add nsw i64 %24, %20, !llfi_index !1235
  store i64 %25, i64* %23, align 8, !llfi_index !1236
  %26 = load i32, i32* %3, align 4, !llfi_index !1237
  %27 = sext i32 %26 to i64, !llfi_index !1238
  %28 = getelementptr inbounds [60009 x %"class.std::vector"], [60009 x %"class.std::vector"]* @QWQ, i64 0, i64 %27, !llfi_index !1239
  %29 = call i64 @_ZNKSt6vectorISt4pairIiiESaIS1_EE4sizeEv(%"class.std::vector"* nonnull align 8 dereferenceable(24) %28) #2, !llfi_index !1240
  %30 = icmp eq i64 %29, 0, !llfi_index !1241
  br i1 %30, label %31, label %35, !llfi_index !1242

31:                                               ; preds = %19
  %32 = load i32, i32* %3, align 4, !llfi_index !1243
  %33 = sext i32 %32 to i64, !llfi_index !1244
  %34 = getelementptr inbounds [60009 x %"class.std::vector"], [60009 x %"class.std::vector"]* @QWQ, i64 0, i64 %33, !llfi_index !1245
  store i32 -1, i32* %5, align 4, !llfi_index !1246
  store i32 0, i32* %6, align 4, !llfi_index !1247
  call void @_ZNSt4pairIiiEC2IiiLb1EEEOT_OT0_(%"struct.std::pair"* nonnull align 4 dereferenceable(8) %4, i32* nonnull align 4 dereferenceable(4) %5, i32* nonnull align 4 dereferenceable(4) %6), !llfi_index !1248
  call void @_ZNSt6vectorISt4pairIiiESaIS1_EE9push_backEOS1_(%"class.std::vector"* nonnull align 8 dereferenceable(24) %34, %"struct.std::pair"* nonnull align 4 dereferenceable(8) %4), !llfi_index !1249
  br label %68, !llfi_index !1250

35:                                               ; preds = %19
  %36 = load i32, i32* %3, align 4, !llfi_index !1251
  %37 = sext i32 %36 to i64, !llfi_index !1252
  %38 = getelementptr inbounds [60009 x %"class.std::vector"], [60009 x %"class.std::vector"]* @QWQ, i64 0, i64 %37, !llfi_index !1253
  %39 = call nonnull align 4 dereferenceable(8) %"struct.std::pair"* @_ZNSt6vectorISt4pairIiiESaIS1_EEixEm(%"class.std::vector"* nonnull align 8 dereferenceable(24) %38, i64 0) #2, !llfi_index !1254
  %40 = getelementptr inbounds %"struct.std::pair", %"struct.std::pair"* %39, i32 0, i32 1, !llfi_index !1255
  %41 = load i32, i32* %40, align 4, !llfi_index !1256
  %42 = sext i32 %41 to i64, !llfi_index !1257
  %43 = getelementptr inbounds [300000 x i64], [300000 x i64]* @nz, i64 0, i64 %42, !llfi_index !1258
  %44 = load i64, i64* %43, align 8, !llfi_index !1259
  %45 = load i32, i32* %3, align 4, !llfi_index !1260
  %46 = sext i32 %45 to i64, !llfi_index !1261
  %47 = getelementptr inbounds [60009 x %"class.std::vector"], [60009 x %"class.std::vector"]* @QWQ, i64 0, i64 %46, !llfi_index !1262
  %48 = call nonnull align 4 dereferenceable(8) %"struct.std::pair"* @_ZNSt6vectorISt4pairIiiESaIS1_EEixEm(%"class.std::vector"* nonnull align 8 dereferenceable(24) %47, i64 0) #2, !llfi_index !1263
  %49 = getelementptr inbounds %"struct.std::pair", %"struct.std::pair"* %48, i32 0, i32 0, !llfi_index !1264
  %50 = load i32, i32* %49, align 4, !llfi_index !1265
  %51 = sext i32 %50 to i64, !llfi_index !1266
  %52 = getelementptr inbounds [300000 x i64], [300000 x i64]* @nz, i64 0, i64 %51, !llfi_index !1267
  %53 = load i64, i64* %52, align 8, !llfi_index !1268
  %54 = sub nsw i64 %44, %53, !llfi_index !1269
  %55 = add nsw i64 %54, 998244353, !llfi_index !1270
  %56 = load i32, i32* %3, align 4, !llfi_index !1271
  %57 = sext i32 %56 to i64, !llfi_index !1272
  %58 = getelementptr inbounds [60009 x i64], [60009 x i64]* @ans, i64 0, i64 %57, !llfi_index !1273
  %59 = load i64, i64* %58, align 8, !llfi_index !1274
  %60 = add nsw i64 %59, %55, !llfi_index !1275
  store i64 %60, i64* %58, align 8, !llfi_index !1276
  %61 = load i32, i32* %3, align 4, !llfi_index !1277
  %62 = sext i32 %61 to i64, !llfi_index !1278
  %63 = getelementptr inbounds [60009 x %"class.std::vector"], [60009 x %"class.std::vector"]* @QWQ, i64 0, i64 %62, !llfi_index !1279
  %64 = call nonnull align 4 dereferenceable(8) %"struct.std::pair"* @_ZNSt6vectorISt4pairIiiESaIS1_EEixEm(%"class.std::vector"* nonnull align 8 dereferenceable(24) %63, i64 0) #2, !llfi_index !1280
  %65 = getelementptr inbounds %"struct.std::pair", %"struct.std::pair"* %64, i32 0, i32 0, !llfi_index !1281
  %66 = load i32, i32* %65, align 4, !llfi_index !1282
  %67 = add nsw i32 %66, -1, !llfi_index !1283
  store i32 %67, i32* %65, align 4, !llfi_index !1284
  br label %68, !llfi_index !1285

68:                                               ; preds = %35, %31
  %69 = load i32, i32* @cnt, align 4, !llfi_index !1286
  %70 = load i32, i32* %3, align 4, !llfi_index !1287
  %71 = sext i32 %70 to i64, !llfi_index !1288
  %72 = getelementptr inbounds [60009 x i32], [60009 x i32]* @vis, i64 0, i64 %71, !llfi_index !1289
  store i32 %69, i32* %72, align 4, !llfi_index !1290
  %73 = load i32, i32* %3, align 4, !llfi_index !1291
  %74 = sext i32 %73 to i64, !llfi_index !1292
  %75 = getelementptr inbounds [60009 x i32], [60009 x i32]* @f, i64 0, i64 %74, !llfi_index !1293
  %76 = load i32, i32* %75, align 4, !llfi_index !1294
  store i32 %76, i32* %2, align 4, !llfi_index !1295
  store i32 0, i32* %7, align 4, !llfi_index !1296
  br label %77, !llfi_index !1297

77:                                               ; preds = %137, %68
  %78 = load i32, i32* %7, align 4, !llfi_index !1298
  %79 = sext i32 %78 to i64, !llfi_index !1299
  %80 = load i32, i32* %3, align 4, !llfi_index !1300
  %81 = sext i32 %80 to i64, !llfi_index !1301
  %82 = getelementptr inbounds [60009 x %"class.std::vector"], [60009 x %"class.std::vector"]* @QWQ, i64 0, i64 %81, !llfi_index !1302
  %83 = call i64 @_ZNKSt6vectorISt4pairIiiESaIS1_EE4sizeEv(%"class.std::vector"* nonnull align 8 dereferenceable(24) %82) #2, !llfi_index !1303
  %84 = icmp ult i64 %79, %83, !llfi_index !1304
  br i1 %84, label %85, label %140, !llfi_index !1305

85:                                               ; preds = %77
  %86 = load i32, i32* %7, align 4, !llfi_index !1306
  %87 = icmp ne i32 %86, 0, !llfi_index !1307
  br i1 %87, label %88, label %118, !llfi_index !1308

88:                                               ; preds = %85
  %89 = load i32, i32* %3, align 4, !llfi_index !1309
  %90 = sext i32 %89 to i64, !llfi_index !1310
  %91 = getelementptr inbounds [60009 x %"class.std::vector"], [60009 x %"class.std::vector"]* @QWQ, i64 0, i64 %90, !llfi_index !1311
  %92 = load i32, i32* %7, align 4, !llfi_index !1312
  %93 = sext i32 %92 to i64, !llfi_index !1313
  %94 = call nonnull align 4 dereferenceable(8) %"struct.std::pair"* @_ZNSt6vectorISt4pairIiiESaIS1_EEixEm(%"class.std::vector"* nonnull align 8 dereferenceable(24) %91, i64 %93) #2, !llfi_index !1314
  %95 = getelementptr inbounds %"struct.std::pair", %"struct.std::pair"* %94, i32 0, i32 1, !llfi_index !1315
  %96 = load i32, i32* %95, align 4, !llfi_index !1316
  %97 = sext i32 %96 to i64, !llfi_index !1317
  %98 = getelementptr inbounds [300000 x i64], [300000 x i64]* @nz, i64 0, i64 %97, !llfi_index !1318
  %99 = load i64, i64* %98, align 8, !llfi_index !1319
  %100 = load i32, i32* %3, align 4, !llfi_index !1320
  %101 = sext i32 %100 to i64, !llfi_index !1321
  %102 = getelementptr inbounds [60009 x %"class.std::vector"], [60009 x %"class.std::vector"]* @QWQ, i64 0, i64 %101, !llfi_index !1322
  %103 = load i32, i32* %7, align 4, !llfi_index !1323
  %104 = sext i32 %103 to i64, !llfi_index !1324
  %105 = call nonnull align 4 dereferenceable(8) %"struct.std::pair"* @_ZNSt6vectorISt4pairIiiESaIS1_EEixEm(%"class.std::vector"* nonnull align 8 dereferenceable(24) %102, i64 %104) #2, !llfi_index !1325
  %106 = getelementptr inbounds %"struct.std::pair", %"struct.std::pair"* %105, i32 0, i32 0, !llfi_index !1326
  %107 = load i32, i32* %106, align 4, !llfi_index !1327
  %108 = sext i32 %107 to i64, !llfi_index !1328
  %109 = getelementptr inbounds [300000 x i64], [300000 x i64]* @nz, i64 0, i64 %108, !llfi_index !1329
  %110 = load i64, i64* %109, align 8, !llfi_index !1330
  %111 = sub nsw i64 %99, %110, !llfi_index !1331
  %112 = add nsw i64 %111, 998244353, !llfi_index !1332
  %113 = load i32, i32* %3, align 4, !llfi_index !1333
  %114 = sext i32 %113 to i64, !llfi_index !1334
  %115 = getelementptr inbounds [60009 x i64], [60009 x i64]* @ans, i64 0, i64 %114, !llfi_index !1335
  %116 = load i64, i64* %115, align 8, !llfi_index !1336
  %117 = add nsw i64 %116, %112, !llfi_index !1337
  store i64 %117, i64* %115, align 8, !llfi_index !1338
  br label %118, !llfi_index !1339

118:                                              ; preds = %88, %85
  %119 = load i32, i32* %3, align 4, !llfi_index !1340
  %120 = sext i32 %119 to i64, !llfi_index !1341
  %121 = getelementptr inbounds [60009 x %"class.std::vector"], [60009 x %"class.std::vector"]* @QWQ, i64 0, i64 %120, !llfi_index !1342
  %122 = load i32, i32* %7, align 4, !llfi_index !1343
  %123 = sext i32 %122 to i64, !llfi_index !1344
  %124 = call nonnull align 4 dereferenceable(8) %"struct.std::pair"* @_ZNSt6vectorISt4pairIiiESaIS1_EEixEm(%"class.std::vector"* nonnull align 8 dereferenceable(24) %121, i64 %123) #2, !llfi_index !1345
  %125 = getelementptr inbounds %"struct.std::pair", %"struct.std::pair"* %124, i32 0, i32 0, !llfi_index !1346
  %126 = load i32, i32* %125, align 4, !llfi_index !1347
  %127 = add nsw i32 %126, 1, !llfi_index !1348
  store i32 %127, i32* %125, align 4, !llfi_index !1349
  %128 = load i32, i32* %3, align 4, !llfi_index !1350
  %129 = sext i32 %128 to i64, !llfi_index !1351
  %130 = getelementptr inbounds [60009 x %"class.std::vector"], [60009 x %"class.std::vector"]* @QWQ, i64 0, i64 %129, !llfi_index !1352
  %131 = load i32, i32* %7, align 4, !llfi_index !1353
  %132 = sext i32 %131 to i64, !llfi_index !1354
  %133 = call nonnull align 4 dereferenceable(8) %"struct.std::pair"* @_ZNSt6vectorISt4pairIiiESaIS1_EEixEm(%"class.std::vector"* nonnull align 8 dereferenceable(24) %130, i64 %132) #2, !llfi_index !1355
  %134 = getelementptr inbounds %"struct.std::pair", %"struct.std::pair"* %133, i32 0, i32 1, !llfi_index !1356
  %135 = load i32, i32* %134, align 4, !llfi_index !1357
  %136 = add nsw i32 %135, 1, !llfi_index !1358
  store i32 %136, i32* %134, align 4, !llfi_index !1359
  br label %137, !llfi_index !1360

137:                                              ; preds = %118
  %138 = load i32, i32* %7, align 4, !llfi_index !1361
  %139 = add nsw i32 %138, 1, !llfi_index !1362
  store i32 %139, i32* %7, align 4, !llfi_index !1363
  br label %77, !llvm.loop !1364, !llfi_index !1365

140:                                              ; preds = %77
  %141 = load i32, i32* %2, align 4, !llfi_index !1366
  %142 = sext i32 %141 to i64, !llfi_index !1367
  %143 = getelementptr inbounds [60009 x %"class.std::vector"], [60009 x %"class.std::vector"]* @QWQ, i64 0, i64 %142, !llfi_index !1368
  %144 = call i64 @_ZNKSt6vectorISt4pairIiiESaIS1_EE4sizeEv(%"class.std::vector"* nonnull align 8 dereferenceable(24) %143) #2, !llfi_index !1369
  %145 = load i32, i32* %3, align 4, !llfi_index !1370
  %146 = sext i32 %145 to i64, !llfi_index !1371
  %147 = getelementptr inbounds [60009 x %"class.std::vector"], [60009 x %"class.std::vector"]* @QWQ, i64 0, i64 %146, !llfi_index !1372
  %148 = call i64 @_ZNKSt6vectorISt4pairIiiESaIS1_EE4sizeEv(%"class.std::vector"* nonnull align 8 dereferenceable(24) %147) #2, !llfi_index !1373
  %149 = icmp ult i64 %144, %148, !llfi_index !1374
  br i1 %149, label %150, label %157, !llfi_index !1375

150:                                              ; preds = %140
  %151 = load i32, i32* %2, align 4, !llfi_index !1376
  %152 = sext i32 %151 to i64, !llfi_index !1377
  %153 = getelementptr inbounds [60009 x %"class.std::vector"], [60009 x %"class.std::vector"]* @QWQ, i64 0, i64 %152, !llfi_index !1378
  %154 = load i32, i32* %3, align 4, !llfi_index !1379
  %155 = sext i32 %154 to i64, !llfi_index !1380
  %156 = getelementptr inbounds [60009 x %"class.std::vector"], [60009 x %"class.std::vector"]* @QWQ, i64 0, i64 %155, !llfi_index !1381
  call void @_ZNSt6vectorISt4pairIiiESaIS1_EE4swapERS3_(%"class.std::vector"* nonnull align 8 dereferenceable(24) %153, %"class.std::vector"* nonnull align 8 dereferenceable(24) %156) #2, !llfi_index !1382
  br label %157, !llfi_index !1383

157:                                              ; preds = %150, %140
  store i32 0, i32* %8, align 4, !llfi_index !1384
  br label %158, !llfi_index !1385

158:                                              ; preds = %176, %157
  %159 = load i32, i32* %8, align 4, !llfi_index !1386
  %160 = sext i32 %159 to i64, !llfi_index !1387
  %161 = load i32, i32* %3, align 4, !llfi_index !1388
  %162 = sext i32 %161 to i64, !llfi_index !1389
  %163 = getelementptr inbounds [60009 x %"class.std::vector"], [60009 x %"class.std::vector"]* @QWQ, i64 0, i64 %162, !llfi_index !1390
  %164 = call i64 @_ZNKSt6vectorISt4pairIiiESaIS1_EE4sizeEv(%"class.std::vector"* nonnull align 8 dereferenceable(24) %163) #2, !llfi_index !1391
  %165 = icmp ult i64 %160, %164, !llfi_index !1392
  br i1 %165, label %166, label %179, !llfi_index !1393

166:                                              ; preds = %158
  %167 = load i32, i32* %2, align 4, !llfi_index !1394
  %168 = sext i32 %167 to i64, !llfi_index !1395
  %169 = getelementptr inbounds [60009 x %"class.std::vector"], [60009 x %"class.std::vector"]* @QWQ, i64 0, i64 %168, !llfi_index !1396
  %170 = load i32, i32* %3, align 4, !llfi_index !1397
  %171 = sext i32 %170 to i64, !llfi_index !1398
  %172 = getelementptr inbounds [60009 x %"class.std::vector"], [60009 x %"class.std::vector"]* @QWQ, i64 0, i64 %171, !llfi_index !1399
  %173 = load i32, i32* %8, align 4, !llfi_index !1400
  %174 = sext i32 %173 to i64, !llfi_index !1401
  %175 = call nonnull align 4 dereferenceable(8) %"struct.std::pair"* @_ZNSt6vectorISt4pairIiiESaIS1_EEixEm(%"class.std::vector"* nonnull align 8 dereferenceable(24) %172, i64 %174) #2, !llfi_index !1402
  call void @_ZNSt6vectorISt4pairIiiESaIS1_EE9push_backERKS1_(%"class.std::vector"* nonnull align 8 dereferenceable(24) %169, %"struct.std::pair"* nonnull align 4 dereferenceable(8) %175), !llfi_index !1403
  br label %176, !llfi_index !1404

176:                                              ; preds = %166
  %177 = load i32, i32* %8, align 4, !llfi_index !1405
  %178 = add nsw i32 %177, 1, !llfi_index !1406
  store i32 %178, i32* %8, align 4, !llfi_index !1407
  br label %158, !llvm.loop !1408, !llfi_index !1409

179:                                              ; preds = %158
  %180 = load i32, i32* %3, align 4, !llfi_index !1410
  %181 = sext i32 %180 to i64, !llfi_index !1411
  %182 = getelementptr inbounds [60009 x %"class.std::vector"], [60009 x %"class.std::vector"]* @QWQ, i64 0, i64 %181, !llfi_index !1412
  call void @_ZNSt6vectorISt4pairIiiESaIS1_EE5clearEv(%"class.std::vector"* nonnull align 8 dereferenceable(24) %182) #2, !llfi_index !1413
  %183 = load i32, i32* %2, align 4, !llfi_index !1414
  %184 = sext i32 %183 to i64, !llfi_index !1415
  %185 = getelementptr inbounds [60009 x i32], [60009 x i32]* @nuv, i64 0, i64 %184, !llfi_index !1416
  %186 = load i32, i32* %185, align 4, !llfi_index !1417
  %187 = add nsw i32 %186, -1, !llfi_index !1418
  store i32 %187, i32* %185, align 4, !llfi_index !1419
  %188 = load i32, i32* %2, align 4, !llfi_index !1420
  store i32 %188, i32* %3, align 4, !llfi_index !1421
  br label %12, !llvm.loop !1422, !llfi_index !1423

189:                                              ; preds = %12
  ret void, !llfi_index !1424
}

; Function Attrs: mustprogress noinline nounwind uwtable
define linkonce_odr dso_local i64 @_ZNKSt6vectorISt4pairIiiESaIS1_EE4sizeEv(%"class.std::vector"* nonnull align 8 dereferenceable(24) %0) #3 comdat align 2 {
  %2 = alloca %"class.std::vector"*, align 8, !llfi_index !1425
  store %"class.std::vector"* %0, %"class.std::vector"** %2, align 8, !llfi_index !1426
  %3 = load %"class.std::vector"*, %"class.std::vector"** %2, align 8, !llfi_index !1427
  %4 = bitcast %"class.std::vector"* %3 to %"struct.std::_Vector_base"*, !llfi_index !1428
  %5 = getelementptr inbounds %"struct.std::_Vector_base", %"struct.std::_Vector_base"* %4, i32 0, i32 0, !llfi_index !1429
  %6 = bitcast %"struct.std::_Vector_base<std::pair<int, int>, std::allocator<std::pair<int, int>>>::_Vector_impl"* %5 to %"struct.std::_Vector_base<std::pair<int, int>, std::allocator<std::pair<int, int>>>::_Vector_impl_data"*, !llfi_index !1430
  %7 = getelementptr inbounds %"struct.std::_Vector_base<std::pair<int, int>, std::allocator<std::pair<int, int>>>::_Vector_impl_data", %"struct.std::_Vector_base<std::pair<int, int>, std::allocator<std::pair<int, int>>>::_Vector_impl_data"* %6, i32 0, i32 1, !llfi_index !1431
  %8 = load %"struct.std::pair"*, %"struct.std::pair"** %7, align 8, !llfi_index !1432
  %9 = bitcast %"class.std::vector"* %3 to %"struct.std::_Vector_base"*, !llfi_index !1433
  %10 = getelementptr inbounds %"struct.std::_Vector_base", %"struct.std::_Vector_base"* %9, i32 0, i32 0, !llfi_index !1434
  %11 = bitcast %"struct.std::_Vector_base<std::pair<int, int>, std::allocator<std::pair<int, int>>>::_Vector_impl"* %10 to %"struct.std::_Vector_base<std::pair<int, int>, std::allocator<std::pair<int, int>>>::_Vector_impl_data"*, !llfi_index !1435
  %12 = getelementptr inbounds %"struct.std::_Vector_base<std::pair<int, int>, std::allocator<std::pair<int, int>>>::_Vector_impl_data", %"struct.std::_Vector_base<std::pair<int, int>, std::allocator<std::pair<int, int>>>::_Vector_impl_data"* %11, i32 0, i32 0, !llfi_index !1436
  %13 = load %"struct.std::pair"*, %"struct.std::pair"** %12, align 8, !llfi_index !1437
  %14 = ptrtoint %"struct.std::pair"* %8 to i64, !llfi_index !1438
  %15 = ptrtoint %"struct.std::pair"* %13 to i64, !llfi_index !1439
  %16 = sub i64 %14, %15, !llfi_index !1440
  %17 = sdiv exact i64 %16, 8, !llfi_index !1441
  ret i64 %17, !llfi_index !1442
}

; Function Attrs: noinline nounwind uwtable
define linkonce_odr dso_local void @_ZNSt4pairIiiEC2IiiLb1EEEOT_OT0_(%"struct.std::pair"* nonnull align 4 dereferenceable(8) %0, i32* nonnull align 4 dereferenceable(4) %1, i32* nonnull align 4 dereferenceable(4) %2) unnamed_addr #1 comdat align 2 {
  %4 = alloca %"struct.std::pair"*, align 8, !llfi_index !1443
  %5 = alloca i32*, align 8, !llfi_index !1444
  %6 = alloca i32*, align 8, !llfi_index !1445
  store %"struct.std::pair"* %0, %"struct.std::pair"** %4, align 8, !llfi_index !1446
  store i32* %1, i32** %5, align 8, !llfi_index !1447
  store i32* %2, i32** %6, align 8, !llfi_index !1448
  %7 = load %"struct.std::pair"*, %"struct.std::pair"** %4, align 8, !llfi_index !1449
  %8 = bitcast %"struct.std::pair"* %7 to %"struct.std::less"*, !llfi_index !1450
  %9 = getelementptr inbounds %"struct.std::pair", %"struct.std::pair"* %7, i32 0, i32 0, !llfi_index !1451
  %10 = load i32*, i32** %5, align 8, !llfi_index !1452
  %11 = call nonnull align 4 dereferenceable(4) i32* @_ZSt7forwardIiEOT_RNSt16remove_referenceIS0_E4typeE(i32* nonnull align 4 dereferenceable(4) %10) #2, !llfi_index !1453
  %12 = load i32, i32* %11, align 4, !llfi_index !1454
  store i32 %12, i32* %9, align 4, !llfi_index !1455
  %13 = getelementptr inbounds %"struct.std::pair", %"struct.std::pair"* %7, i32 0, i32 1, !llfi_index !1456
  %14 = load i32*, i32** %6, align 8, !llfi_index !1457
  %15 = call nonnull align 4 dereferenceable(4) i32* @_ZSt7forwardIiEOT_RNSt16remove_referenceIS0_E4typeE(i32* nonnull align 4 dereferenceable(4) %14) #2, !llfi_index !1458
  %16 = load i32, i32* %15, align 4, !llfi_index !1459
  store i32 %16, i32* %13, align 4, !llfi_index !1460
  ret void, !llfi_index !1461
}

; Function Attrs: mustprogress noinline uwtable
define linkonce_odr dso_local void @_ZNSt6vectorISt4pairIiiESaIS1_EE9push_backEOS1_(%"class.std::vector"* nonnull align 8 dereferenceable(24) %0, %"struct.std::pair"* nonnull align 4 dereferenceable(8) %1) #4 comdat align 2 {
  %3 = alloca %"class.std::vector"*, align 8, !llfi_index !1462
  %4 = alloca %"struct.std::pair"*, align 8, !llfi_index !1463
  store %"class.std::vector"* %0, %"class.std::vector"** %3, align 8, !llfi_index !1464
  store %"struct.std::pair"* %1, %"struct.std::pair"** %4, align 8, !llfi_index !1465
  %5 = load %"class.std::vector"*, %"class.std::vector"** %3, align 8, !llfi_index !1466
  %6 = load %"struct.std::pair"*, %"struct.std::pair"** %4, align 8, !llfi_index !1467
  %7 = call nonnull align 4 dereferenceable(8) %"struct.std::pair"* @_ZSt4moveIRSt4pairIiiEEONSt16remove_referenceIT_E4typeEOS4_(%"struct.std::pair"* nonnull align 4 dereferenceable(8) %6) #2, !llfi_index !1468
  call void @_ZNSt6vectorISt4pairIiiESaIS1_EE12emplace_backIJS1_EEEvDpOT_(%"class.std::vector"* nonnull align 8 dereferenceable(24) %5, %"struct.std::pair"* nonnull align 4 dereferenceable(8) %7), !llfi_index !1469
  ret void, !llfi_index !1470
}

; Function Attrs: mustprogress noinline nounwind uwtable
define linkonce_odr dso_local nonnull align 4 dereferenceable(8) %"struct.std::pair"* @_ZNSt6vectorISt4pairIiiESaIS1_EEixEm(%"class.std::vector"* nonnull align 8 dereferenceable(24) %0, i64 %1) #3 comdat align 2 {
  %3 = alloca %"class.std::vector"*, align 8, !llfi_index !1471
  %4 = alloca i64, align 8, !llfi_index !1472
  store %"class.std::vector"* %0, %"class.std::vector"** %3, align 8, !llfi_index !1473
  store i64 %1, i64* %4, align 8, !llfi_index !1474
  %5 = load %"class.std::vector"*, %"class.std::vector"** %3, align 8, !llfi_index !1475
  %6 = bitcast %"class.std::vector"* %5 to %"struct.std::_Vector_base"*, !llfi_index !1476
  %7 = getelementptr inbounds %"struct.std::_Vector_base", %"struct.std::_Vector_base"* %6, i32 0, i32 0, !llfi_index !1477
  %8 = bitcast %"struct.std::_Vector_base<std::pair<int, int>, std::allocator<std::pair<int, int>>>::_Vector_impl"* %7 to %"struct.std::_Vector_base<std::pair<int, int>, std::allocator<std::pair<int, int>>>::_Vector_impl_data"*, !llfi_index !1478
  %9 = getelementptr inbounds %"struct.std::_Vector_base<std::pair<int, int>, std::allocator<std::pair<int, int>>>::_Vector_impl_data", %"struct.std::_Vector_base<std::pair<int, int>, std::allocator<std::pair<int, int>>>::_Vector_impl_data"* %8, i32 0, i32 0, !llfi_index !1479
  %10 = load %"struct.std::pair"*, %"struct.std::pair"** %9, align 8, !llfi_index !1480
  %11 = load i64, i64* %4, align 8, !llfi_index !1481
  %12 = getelementptr inbounds %"struct.std::pair", %"struct.std::pair"* %10, i64 %11, !llfi_index !1482
  ret %"struct.std::pair"* %12, !llfi_index !1483
}

; Function Attrs: mustprogress noinline nounwind uwtable
define linkonce_odr dso_local void @_ZNSt6vectorISt4pairIiiESaIS1_EE4swapERS3_(%"class.std::vector"* nonnull align 8 dereferenceable(24) %0, %"class.std::vector"* nonnull align 8 dereferenceable(24) %1) #3 comdat align 2 personality i8* bitcast (i32 (...)* @__gxx_personality_v0 to i8*) {
  %3 = alloca %"class.std::vector"*, align 8, !llfi_index !1484
  %4 = alloca %"class.std::vector"*, align 8, !llfi_index !1485
  store %"class.std::vector"* %0, %"class.std::vector"** %3, align 8, !llfi_index !1486
  store %"class.std::vector"* %1, %"class.std::vector"** %4, align 8, !llfi_index !1487
  %5 = load %"class.std::vector"*, %"class.std::vector"** %3, align 8, !llfi_index !1488
  %6 = bitcast %"class.std::vector"* %5 to %"struct.std::_Vector_base"*, !llfi_index !1489
  %7 = getelementptr inbounds %"struct.std::_Vector_base", %"struct.std::_Vector_base"* %6, i32 0, i32 0, !llfi_index !1490
  %8 = bitcast %"struct.std::_Vector_base<std::pair<int, int>, std::allocator<std::pair<int, int>>>::_Vector_impl"* %7 to %"struct.std::_Vector_base<std::pair<int, int>, std::allocator<std::pair<int, int>>>::_Vector_impl_data"*, !llfi_index !1491
  %9 = load %"class.std::vector"*, %"class.std::vector"** %4, align 8, !llfi_index !1492
  %10 = bitcast %"class.std::vector"* %9 to %"struct.std::_Vector_base"*, !llfi_index !1493
  %11 = getelementptr inbounds %"struct.std::_Vector_base", %"struct.std::_Vector_base"* %10, i32 0, i32 0, !llfi_index !1494
  %12 = bitcast %"struct.std::_Vector_base<std::pair<int, int>, std::allocator<std::pair<int, int>>>::_Vector_impl"* %11 to %"struct.std::_Vector_base<std::pair<int, int>, std::allocator<std::pair<int, int>>>::_Vector_impl_data"*, !llfi_index !1495
  call void @_ZNSt12_Vector_baseISt4pairIiiESaIS1_EE17_Vector_impl_data12_M_swap_dataERS4_(%"struct.std::_Vector_base<std::pair<int, int>, std::allocator<std::pair<int, int>>>::_Vector_impl_data"* nonnull align 8 dereferenceable(24) %8, %"struct.std::_Vector_base<std::pair<int, int>, std::allocator<std::pair<int, int>>>::_Vector_impl_data"* nonnull align 8 dereferenceable(24) %12) #2, !llfi_index !1496
  %13 = bitcast %"class.std::vector"* %5 to %"struct.std::_Vector_base"*, !llfi_index !1497
  %14 = call nonnull align 1 dereferenceable(1) %"struct.std::less"* @_ZNSt12_Vector_baseISt4pairIiiESaIS1_EE19_M_get_Tp_allocatorEv(%"struct.std::_Vector_base"* nonnull align 8 dereferenceable(24) %13) #2, !llfi_index !1498
  %15 = load %"class.std::vector"*, %"class.std::vector"** %4, align 8, !llfi_index !1499
  %16 = bitcast %"class.std::vector"* %15 to %"struct.std::_Vector_base"*, !llfi_index !1500
  %17 = call nonnull align 1 dereferenceable(1) %"struct.std::less"* @_ZNSt12_Vector_baseISt4pairIiiESaIS1_EE19_M_get_Tp_allocatorEv(%"struct.std::_Vector_base"* nonnull align 8 dereferenceable(24) %16) #2, !llfi_index !1501
  invoke void @_ZN9__gnu_cxx14__alloc_traitsISaISt4pairIiiEES2_E10_S_on_swapERS3_S5_(%"struct.std::less"* nonnull align 1 dereferenceable(1) %14, %"struct.std::less"* nonnull align 1 dereferenceable(1) %17)
          to label %18 unwind label %19, !llfi_index !1502

18:                                               ; preds = %2
  ret void, !llfi_index !1503

19:                                               ; preds = %2
  %20 = landingpad { i8*, i32 }
          catch i8* null, !llfi_index !1504
  %21 = extractvalue { i8*, i32 } %20, 0, !llfi_index !1505
  call void @__clang_call_terminate(i8* %21) #15, !llfi_index !1506
  unreachable, !llfi_index !1507
}

; Function Attrs: mustprogress noinline uwtable
define linkonce_odr dso_local void @_ZNSt6vectorISt4pairIiiESaIS1_EE9push_backERKS1_(%"class.std::vector"* nonnull align 8 dereferenceable(24) %0, %"struct.std::pair"* nonnull align 4 dereferenceable(8) %1) #4 comdat align 2 {
  %3 = alloca %"class.std::vector"*, align 8, !llfi_index !1508
  %4 = alloca %"struct.std::pair"*, align 8, !llfi_index !1509
  %5 = alloca %"class.__gnu_cxx::__normal_iterator", align 8, !llfi_index !1510
  store %"class.std::vector"* %0, %"class.std::vector"** %3, align 8, !llfi_index !1511
  store %"struct.std::pair"* %1, %"struct.std::pair"** %4, align 8, !llfi_index !1512
  %6 = load %"class.std::vector"*, %"class.std::vector"** %3, align 8, !llfi_index !1513
  %7 = bitcast %"class.std::vector"* %6 to %"struct.std::_Vector_base"*, !llfi_index !1514
  %8 = getelementptr inbounds %"struct.std::_Vector_base", %"struct.std::_Vector_base"* %7, i32 0, i32 0, !llfi_index !1515
  %9 = bitcast %"struct.std::_Vector_base<std::pair<int, int>, std::allocator<std::pair<int, int>>>::_Vector_impl"* %8 to %"struct.std::_Vector_base<std::pair<int, int>, std::allocator<std::pair<int, int>>>::_Vector_impl_data"*, !llfi_index !1516
  %10 = getelementptr inbounds %"struct.std::_Vector_base<std::pair<int, int>, std::allocator<std::pair<int, int>>>::_Vector_impl_data", %"struct.std::_Vector_base<std::pair<int, int>, std::allocator<std::pair<int, int>>>::_Vector_impl_data"* %9, i32 0, i32 1, !llfi_index !1517
  %11 = load %"struct.std::pair"*, %"struct.std::pair"** %10, align 8, !llfi_index !1518
  %12 = bitcast %"class.std::vector"* %6 to %"struct.std::_Vector_base"*, !llfi_index !1519
  %13 = getelementptr inbounds %"struct.std::_Vector_base", %"struct.std::_Vector_base"* %12, i32 0, i32 0, !llfi_index !1520
  %14 = bitcast %"struct.std::_Vector_base<std::pair<int, int>, std::allocator<std::pair<int, int>>>::_Vector_impl"* %13 to %"struct.std::_Vector_base<std::pair<int, int>, std::allocator<std::pair<int, int>>>::_Vector_impl_data"*, !llfi_index !1521
  %15 = getelementptr inbounds %"struct.std::_Vector_base<std::pair<int, int>, std::allocator<std::pair<int, int>>>::_Vector_impl_data", %"struct.std::_Vector_base<std::pair<int, int>, std::allocator<std::pair<int, int>>>::_Vector_impl_data"* %14, i32 0, i32 2, !llfi_index !1522
  %16 = load %"struct.std::pair"*, %"struct.std::pair"** %15, align 8, !llfi_index !1523
  %17 = icmp ne %"struct.std::pair"* %11, %16, !llfi_index !1524
  br i1 %17, label %18, label %34, !llfi_index !1525

18:                                               ; preds = %2
  %19 = bitcast %"class.std::vector"* %6 to %"struct.std::_Vector_base"*, !llfi_index !1526
  %20 = getelementptr inbounds %"struct.std::_Vector_base", %"struct.std::_Vector_base"* %19, i32 0, i32 0, !llfi_index !1527
  %21 = bitcast %"struct.std::_Vector_base<std::pair<int, int>, std::allocator<std::pair<int, int>>>::_Vector_impl"* %20 to %"struct.std::less"*, !llfi_index !1528
  %22 = bitcast %"class.std::vector"* %6 to %"struct.std::_Vector_base"*, !llfi_index !1529
  %23 = getelementptr inbounds %"struct.std::_Vector_base", %"struct.std::_Vector_base"* %22, i32 0, i32 0, !llfi_index !1530
  %24 = bitcast %"struct.std::_Vector_base<std::pair<int, int>, std::allocator<std::pair<int, int>>>::_Vector_impl"* %23 to %"struct.std::_Vector_base<std::pair<int, int>, std::allocator<std::pair<int, int>>>::_Vector_impl_data"*, !llfi_index !1531
  %25 = getelementptr inbounds %"struct.std::_Vector_base<std::pair<int, int>, std::allocator<std::pair<int, int>>>::_Vector_impl_data", %"struct.std::_Vector_base<std::pair<int, int>, std::allocator<std::pair<int, int>>>::_Vector_impl_data"* %24, i32 0, i32 1, !llfi_index !1532
  %26 = load %"struct.std::pair"*, %"struct.std::pair"** %25, align 8, !llfi_index !1533
  %27 = load %"struct.std::pair"*, %"struct.std::pair"** %4, align 8, !llfi_index !1534
  call void @_ZNSt16allocator_traitsISaISt4pairIiiEEE9constructIS1_JRKS1_EEEvRS2_PT_DpOT0_(%"struct.std::less"* nonnull align 1 dereferenceable(1) %21, %"struct.std::pair"* %26, %"struct.std::pair"* nonnull align 4 dereferenceable(8) %27) #2, !llfi_index !1535
  %28 = bitcast %"class.std::vector"* %6 to %"struct.std::_Vector_base"*, !llfi_index !1536
  %29 = getelementptr inbounds %"struct.std::_Vector_base", %"struct.std::_Vector_base"* %28, i32 0, i32 0, !llfi_index !1537
  %30 = bitcast %"struct.std::_Vector_base<std::pair<int, int>, std::allocator<std::pair<int, int>>>::_Vector_impl"* %29 to %"struct.std::_Vector_base<std::pair<int, int>, std::allocator<std::pair<int, int>>>::_Vector_impl_data"*, !llfi_index !1538
  %31 = getelementptr inbounds %"struct.std::_Vector_base<std::pair<int, int>, std::allocator<std::pair<int, int>>>::_Vector_impl_data", %"struct.std::_Vector_base<std::pair<int, int>, std::allocator<std::pair<int, int>>>::_Vector_impl_data"* %30, i32 0, i32 1, !llfi_index !1539
  %32 = load %"struct.std::pair"*, %"struct.std::pair"** %31, align 8, !llfi_index !1540
  %33 = getelementptr inbounds %"struct.std::pair", %"struct.std::pair"* %32, i32 1, !llfi_index !1541
  store %"struct.std::pair"* %33, %"struct.std::pair"** %31, align 8, !llfi_index !1542
  br label %40, !llfi_index !1543

34:                                               ; preds = %2
  %35 = call %"struct.std::pair"* @_ZNSt6vectorISt4pairIiiESaIS1_EE3endEv(%"class.std::vector"* nonnull align 8 dereferenceable(24) %6) #2, !llfi_index !1544
  %36 = getelementptr inbounds %"class.__gnu_cxx::__normal_iterator", %"class.__gnu_cxx::__normal_iterator"* %5, i32 0, i32 0, !llfi_index !1545
  store %"struct.std::pair"* %35, %"struct.std::pair"** %36, align 8, !llfi_index !1546
  %37 = load %"struct.std::pair"*, %"struct.std::pair"** %4, align 8, !llfi_index !1547
  %38 = getelementptr inbounds %"class.__gnu_cxx::__normal_iterator", %"class.__gnu_cxx::__normal_iterator"* %5, i32 0, i32 0, !llfi_index !1548
  %39 = load %"struct.std::pair"*, %"struct.std::pair"** %38, align 8, !llfi_index !1549
  call void @_ZNSt6vectorISt4pairIiiESaIS1_EE17_M_realloc_insertIJRKS1_EEEvN9__gnu_cxx17__normal_iteratorIPS1_S3_EEDpOT_(%"class.std::vector"* nonnull align 8 dereferenceable(24) %6, %"struct.std::pair"* %39, %"struct.std::pair"* nonnull align 4 dereferenceable(8) %37), !llfi_index !1550
  br label %40, !llfi_index !1551

40:                                               ; preds = %34, %18
  ret void, !llfi_index !1552
}

; Function Attrs: mustprogress noinline nounwind uwtable
define linkonce_odr dso_local void @_ZNSt6vectorISt4pairIiiESaIS1_EE5clearEv(%"class.std::vector"* nonnull align 8 dereferenceable(24) %0) #3 comdat align 2 {
  %2 = alloca %"class.std::vector"*, align 8, !llfi_index !1553
  store %"class.std::vector"* %0, %"class.std::vector"** %2, align 8, !llfi_index !1554
  %3 = load %"class.std::vector"*, %"class.std::vector"** %2, align 8, !llfi_index !1555
  %4 = bitcast %"class.std::vector"* %3 to %"struct.std::_Vector_base"*, !llfi_index !1556
  %5 = getelementptr inbounds %"struct.std::_Vector_base", %"struct.std::_Vector_base"* %4, i32 0, i32 0, !llfi_index !1557
  %6 = bitcast %"struct.std::_Vector_base<std::pair<int, int>, std::allocator<std::pair<int, int>>>::_Vector_impl"* %5 to %"struct.std::_Vector_base<std::pair<int, int>, std::allocator<std::pair<int, int>>>::_Vector_impl_data"*, !llfi_index !1558
  %7 = getelementptr inbounds %"struct.std::_Vector_base<std::pair<int, int>, std::allocator<std::pair<int, int>>>::_Vector_impl_data", %"struct.std::_Vector_base<std::pair<int, int>, std::allocator<std::pair<int, int>>>::_Vector_impl_data"* %6, i32 0, i32 0, !llfi_index !1559
  %8 = load %"struct.std::pair"*, %"struct.std::pair"** %7, align 8, !llfi_index !1560
  call void @_ZNSt6vectorISt4pairIiiESaIS1_EE15_M_erase_at_endEPS1_(%"class.std::vector"* nonnull align 8 dereferenceable(24) %3, %"struct.std::pair"* %8) #2, !llfi_index !1561
  ret void, !llfi_index !1562
}

; Function Attrs: mustprogress noinline nounwind uwtable
define linkonce_odr dso_local void @_ZNSt6vectorISt4pairIiiESaIS1_EE15_M_erase_at_endEPS1_(%"class.std::vector"* nonnull align 8 dereferenceable(24) %0, %"struct.std::pair"* %1) #3 comdat align 2 personality i8* bitcast (i32 (...)* @__gxx_personality_v0 to i8*) {
  %3 = alloca %"class.std::vector"*, align 8, !llfi_index !1563
  %4 = alloca %"struct.std::pair"*, align 8, !llfi_index !1564
  %5 = alloca i64, align 8, !llfi_index !1565
  store %"class.std::vector"* %0, %"class.std::vector"** %3, align 8, !llfi_index !1566
  store %"struct.std::pair"* %1, %"struct.std::pair"** %4, align 8, !llfi_index !1567
  %6 = load %"class.std::vector"*, %"class.std::vector"** %3, align 8, !llfi_index !1568
  %7 = bitcast %"class.std::vector"* %6 to %"struct.std::_Vector_base"*, !llfi_index !1569
  %8 = getelementptr inbounds %"struct.std::_Vector_base", %"struct.std::_Vector_base"* %7, i32 0, i32 0, !llfi_index !1570
  %9 = bitcast %"struct.std::_Vector_base<std::pair<int, int>, std::allocator<std::pair<int, int>>>::_Vector_impl"* %8 to %"struct.std::_Vector_base<std::pair<int, int>, std::allocator<std::pair<int, int>>>::_Vector_impl_data"*, !llfi_index !1571
  %10 = getelementptr inbounds %"struct.std::_Vector_base<std::pair<int, int>, std::allocator<std::pair<int, int>>>::_Vector_impl_data", %"struct.std::_Vector_base<std::pair<int, int>, std::allocator<std::pair<int, int>>>::_Vector_impl_data"* %9, i32 0, i32 1, !llfi_index !1572
  %11 = load %"struct.std::pair"*, %"struct.std::pair"** %10, align 8, !llfi_index !1573
  %12 = load %"struct.std::pair"*, %"struct.std::pair"** %4, align 8, !llfi_index !1574
  %13 = ptrtoint %"struct.std::pair"* %11 to i64, !llfi_index !1575
  %14 = ptrtoint %"struct.std::pair"* %12 to i64, !llfi_index !1576
  %15 = sub i64 %13, %14, !llfi_index !1577
  %16 = sdiv exact i64 %15, 8, !llfi_index !1578
  store i64 %16, i64* %5, align 8, !llfi_index !1579
  %17 = load i64, i64* %5, align 8, !llfi_index !1580
  %18 = icmp ne i64 %17, 0, !llfi_index !1581
  br i1 %18, label %19, label %34, !llfi_index !1582

19:                                               ; preds = %2
  %20 = load %"struct.std::pair"*, %"struct.std::pair"** %4, align 8, !llfi_index !1583
  %21 = bitcast %"class.std::vector"* %6 to %"struct.std::_Vector_base"*, !llfi_index !1584
  %22 = getelementptr inbounds %"struct.std::_Vector_base", %"struct.std::_Vector_base"* %21, i32 0, i32 0, !llfi_index !1585
  %23 = bitcast %"struct.std::_Vector_base<std::pair<int, int>, std::allocator<std::pair<int, int>>>::_Vector_impl"* %22 to %"struct.std::_Vector_base<std::pair<int, int>, std::allocator<std::pair<int, int>>>::_Vector_impl_data"*, !llfi_index !1586
  %24 = getelementptr inbounds %"struct.std::_Vector_base<std::pair<int, int>, std::allocator<std::pair<int, int>>>::_Vector_impl_data", %"struct.std::_Vector_base<std::pair<int, int>, std::allocator<std::pair<int, int>>>::_Vector_impl_data"* %23, i32 0, i32 1, !llfi_index !1587
  %25 = load %"struct.std::pair"*, %"struct.std::pair"** %24, align 8, !llfi_index !1588
  %26 = bitcast %"class.std::vector"* %6 to %"struct.std::_Vector_base"*, !llfi_index !1589
  %27 = call nonnull align 1 dereferenceable(1) %"struct.std::less"* @_ZNSt12_Vector_baseISt4pairIiiESaIS1_EE19_M_get_Tp_allocatorEv(%"struct.std::_Vector_base"* nonnull align 8 dereferenceable(24) %26) #2, !llfi_index !1590
  invoke void @_ZSt8_DestroyIPSt4pairIiiES1_EvT_S3_RSaIT0_E(%"struct.std::pair"* %20, %"struct.std::pair"* %25, %"struct.std::less"* nonnull align 1 dereferenceable(1) %27)
          to label %28 unwind label %35, !llfi_index !1591

28:                                               ; preds = %19
  %29 = load %"struct.std::pair"*, %"struct.std::pair"** %4, align 8, !llfi_index !1592
  %30 = bitcast %"class.std::vector"* %6 to %"struct.std::_Vector_base"*, !llfi_index !1593
  %31 = getelementptr inbounds %"struct.std::_Vector_base", %"struct.std::_Vector_base"* %30, i32 0, i32 0, !llfi_index !1594
  %32 = bitcast %"struct.std::_Vector_base<std::pair<int, int>, std::allocator<std::pair<int, int>>>::_Vector_impl"* %31 to %"struct.std::_Vector_base<std::pair<int, int>, std::allocator<std::pair<int, int>>>::_Vector_impl_data"*, !llfi_index !1595
  %33 = getelementptr inbounds %"struct.std::_Vector_base<std::pair<int, int>, std::allocator<std::pair<int, int>>>::_Vector_impl_data", %"struct.std::_Vector_base<std::pair<int, int>, std::allocator<std::pair<int, int>>>::_Vector_impl_data"* %32, i32 0, i32 1, !llfi_index !1596
  store %"struct.std::pair"* %29, %"struct.std::pair"** %33, align 8, !llfi_index !1597
  br label %34, !llfi_index !1598

34:                                               ; preds = %28, %2
  ret void, !llfi_index !1599

35:                                               ; preds = %19
  %36 = landingpad { i8*, i32 }
          catch i8* null, !llfi_index !1600
  %37 = extractvalue { i8*, i32 } %36, 0, !llfi_index !1601
  call void @__clang_call_terminate(i8* %37) #15, !llfi_index !1602
  unreachable, !llfi_index !1603
}

; Function Attrs: mustprogress noinline nounwind uwtable
define linkonce_odr dso_local void @_ZNSt16allocator_traitsISaISt4pairIiiEEE9constructIS1_JRKS1_EEEvRS2_PT_DpOT0_(%"struct.std::less"* nonnull align 1 dereferenceable(1) %0, %"struct.std::pair"* %1, %"struct.std::pair"* nonnull align 4 dereferenceable(8) %2) #3 comdat align 2 {
  %4 = alloca %"struct.std::less"*, align 8, !llfi_index !1604
  %5 = alloca %"struct.std::pair"*, align 8, !llfi_index !1605
  %6 = alloca %"struct.std::pair"*, align 8, !llfi_index !1606
  store %"struct.std::less"* %0, %"struct.std::less"** %4, align 8, !llfi_index !1607
  store %"struct.std::pair"* %1, %"struct.std::pair"** %5, align 8, !llfi_index !1608
  store %"struct.std::pair"* %2, %"struct.std::pair"** %6, align 8, !llfi_index !1609
  %7 = load %"struct.std::less"*, %"struct.std::less"** %4, align 8, !llfi_index !1610
  %8 = bitcast %"struct.std::less"* %7 to %"struct.std::less"*, !llfi_index !1611
  %9 = load %"struct.std::pair"*, %"struct.std::pair"** %5, align 8, !llfi_index !1612
  %10 = load %"struct.std::pair"*, %"struct.std::pair"** %6, align 8, !llfi_index !1613
  %11 = call nonnull align 4 dereferenceable(8) %"struct.std::pair"* @_ZSt7forwardIRKSt4pairIiiEEOT_RNSt16remove_referenceIS4_E4typeE(%"struct.std::pair"* nonnull align 4 dereferenceable(8) %10) #2, !llfi_index !1614
  call void @_ZN9__gnu_cxx13new_allocatorISt4pairIiiEE9constructIS2_JRKS2_EEEvPT_DpOT0_(%"struct.std::less"* nonnull align 1 dereferenceable(1) %8, %"struct.std::pair"* %9, %"struct.std::pair"* nonnull align 4 dereferenceable(8) %11) #2, !llfi_index !1615
  ret void, !llfi_index !1616
}

; Function Attrs: mustprogress noinline nounwind uwtable
define linkonce_odr dso_local %"struct.std::pair"* @_ZNSt6vectorISt4pairIiiESaIS1_EE3endEv(%"class.std::vector"* nonnull align 8 dereferenceable(24) %0) #3 comdat align 2 {
  %2 = alloca %"class.__gnu_cxx::__normal_iterator", align 8, !llfi_index !1617
  %3 = alloca %"class.std::vector"*, align 8, !llfi_index !1618
  store %"class.std::vector"* %0, %"class.std::vector"** %3, align 8, !llfi_index !1619
  %4 = load %"class.std::vector"*, %"class.std::vector"** %3, align 8, !llfi_index !1620
  %5 = bitcast %"class.std::vector"* %4 to %"struct.std::_Vector_base"*, !llfi_index !1621
  %6 = getelementptr inbounds %"struct.std::_Vector_base", %"struct.std::_Vector_base"* %5, i32 0, i32 0, !llfi_index !1622
  %7 = bitcast %"struct.std::_Vector_base<std::pair<int, int>, std::allocator<std::pair<int, int>>>::_Vector_impl"* %6 to %"struct.std::_Vector_base<std::pair<int, int>, std::allocator<std::pair<int, int>>>::_Vector_impl_data"*, !llfi_index !1623
  %8 = getelementptr inbounds %"struct.std::_Vector_base<std::pair<int, int>, std::allocator<std::pair<int, int>>>::_Vector_impl_data", %"struct.std::_Vector_base<std::pair<int, int>, std::allocator<std::pair<int, int>>>::_Vector_impl_data"* %7, i32 0, i32 1, !llfi_index !1624
  call void @_ZN9__gnu_cxx17__normal_iteratorIPSt4pairIiiESt6vectorIS2_SaIS2_EEEC2ERKS3_(%"class.__gnu_cxx::__normal_iterator"* nonnull align 8 dereferenceable(8) %2, %"struct.std::pair"** nonnull align 8 dereferenceable(8) %8) #2, !llfi_index !1625
  %9 = getelementptr inbounds %"class.__gnu_cxx::__normal_iterator", %"class.__gnu_cxx::__normal_iterator"* %2, i32 0, i32 0, !llfi_index !1626
  %10 = load %"struct.std::pair"*, %"struct.std::pair"** %9, align 8, !llfi_index !1627
  ret %"struct.std::pair"* %10, !llfi_index !1628
}

; Function Attrs: mustprogress noinline uwtable
define linkonce_odr dso_local void @_ZNSt6vectorISt4pairIiiESaIS1_EE17_M_realloc_insertIJRKS1_EEEvN9__gnu_cxx17__normal_iteratorIPS1_S3_EEDpOT_(%"class.std::vector"* nonnull align 8 dereferenceable(24) %0, %"struct.std::pair"* %1, %"struct.std::pair"* nonnull align 4 dereferenceable(8) %2) #4 comdat align 2 {
  %4 = alloca %"class.__gnu_cxx::__normal_iterator", align 8, !llfi_index !1629
  %5 = alloca %"class.std::vector"*, align 8, !llfi_index !1630
  %6 = alloca %"struct.std::pair"*, align 8, !llfi_index !1631
  %7 = alloca i64, align 8, !llfi_index !1632
  %8 = alloca %"struct.std::pair"*, align 8, !llfi_index !1633
  %9 = alloca %"struct.std::pair"*, align 8, !llfi_index !1634
  %10 = alloca i64, align 8, !llfi_index !1635
  %11 = alloca %"class.__gnu_cxx::__normal_iterator", align 8, !llfi_index !1636
  %12 = alloca %"struct.std::pair"*, align 8, !llfi_index !1637
  %13 = alloca %"struct.std::pair"*, align 8, !llfi_index !1638
  %14 = getelementptr inbounds %"class.__gnu_cxx::__normal_iterator", %"class.__gnu_cxx::__normal_iterator"* %4, i32 0, i32 0, !llfi_index !1639
  store %"struct.std::pair"* %1, %"struct.std::pair"** %14, align 8, !llfi_index !1640
  store %"class.std::vector"* %0, %"class.std::vector"** %5, align 8, !llfi_index !1641
  store %"struct.std::pair"* %2, %"struct.std::pair"** %6, align 8, !llfi_index !1642
  %15 = load %"class.std::vector"*, %"class.std::vector"** %5, align 8, !llfi_index !1643
  %16 = call i64 @_ZNKSt6vectorISt4pairIiiESaIS1_EE12_M_check_lenEmPKc(%"class.std::vector"* nonnull align 8 dereferenceable(24) %15, i64 1, i8* getelementptr inbounds ([26 x i8], [26 x i8]* @.str.9, i64 0, i64 0)), !llfi_index !1644
  store i64 %16, i64* %7, align 8, !llfi_index !1645
  %17 = bitcast %"class.std::vector"* %15 to %"struct.std::_Vector_base"*, !llfi_index !1646
  %18 = getelementptr inbounds %"struct.std::_Vector_base", %"struct.std::_Vector_base"* %17, i32 0, i32 0, !llfi_index !1647
  %19 = bitcast %"struct.std::_Vector_base<std::pair<int, int>, std::allocator<std::pair<int, int>>>::_Vector_impl"* %18 to %"struct.std::_Vector_base<std::pair<int, int>, std::allocator<std::pair<int, int>>>::_Vector_impl_data"*, !llfi_index !1648
  %20 = getelementptr inbounds %"struct.std::_Vector_base<std::pair<int, int>, std::allocator<std::pair<int, int>>>::_Vector_impl_data", %"struct.std::_Vector_base<std::pair<int, int>, std::allocator<std::pair<int, int>>>::_Vector_impl_data"* %19, i32 0, i32 0, !llfi_index !1649
  %21 = load %"struct.std::pair"*, %"struct.std::pair"** %20, align 8, !llfi_index !1650
  store %"struct.std::pair"* %21, %"struct.std::pair"** %8, align 8, !llfi_index !1651
  %22 = bitcast %"class.std::vector"* %15 to %"struct.std::_Vector_base"*, !llfi_index !1652
  %23 = getelementptr inbounds %"struct.std::_Vector_base", %"struct.std::_Vector_base"* %22, i32 0, i32 0, !llfi_index !1653
  %24 = bitcast %"struct.std::_Vector_base<std::pair<int, int>, std::allocator<std::pair<int, int>>>::_Vector_impl"* %23 to %"struct.std::_Vector_base<std::pair<int, int>, std::allocator<std::pair<int, int>>>::_Vector_impl_data"*, !llfi_index !1654
  %25 = getelementptr inbounds %"struct.std::_Vector_base<std::pair<int, int>, std::allocator<std::pair<int, int>>>::_Vector_impl_data", %"struct.std::_Vector_base<std::pair<int, int>, std::allocator<std::pair<int, int>>>::_Vector_impl_data"* %24, i32 0, i32 1, !llfi_index !1655
  %26 = load %"struct.std::pair"*, %"struct.std::pair"** %25, align 8, !llfi_index !1656
  store %"struct.std::pair"* %26, %"struct.std::pair"** %9, align 8, !llfi_index !1657
  %27 = call %"struct.std::pair"* @_ZNSt6vectorISt4pairIiiESaIS1_EE5beginEv(%"class.std::vector"* nonnull align 8 dereferenceable(24) %15) #2, !llfi_index !1658
  %28 = getelementptr inbounds %"class.__gnu_cxx::__normal_iterator", %"class.__gnu_cxx::__normal_iterator"* %11, i32 0, i32 0, !llfi_index !1659
  store %"struct.std::pair"* %27, %"struct.std::pair"** %28, align 8, !llfi_index !1660
  %29 = call i64 @_ZN9__gnu_cxxmiIPSt4pairIiiESt6vectorIS2_SaIS2_EEEENS_17__normal_iteratorIT_T0_E15difference_typeERKSA_SD_(%"class.__gnu_cxx::__normal_iterator"* nonnull align 8 dereferenceable(8) %4, %"class.__gnu_cxx::__normal_iterator"* nonnull align 8 dereferenceable(8) %11) #2, !llfi_index !1661
  store i64 %29, i64* %10, align 8, !llfi_index !1662
  %30 = bitcast %"class.std::vector"* %15 to %"struct.std::_Vector_base"*, !llfi_index !1663
  %31 = load i64, i64* %7, align 8, !llfi_index !1664
  %32 = call %"struct.std::pair"* @_ZNSt12_Vector_baseISt4pairIiiESaIS1_EE11_M_allocateEm(%"struct.std::_Vector_base"* nonnull align 8 dereferenceable(24) %30, i64 %31), !llfi_index !1665
  store %"struct.std::pair"* %32, %"struct.std::pair"** %12, align 8, !llfi_index !1666
  %33 = load %"struct.std::pair"*, %"struct.std::pair"** %12, align 8, !llfi_index !1667
  store %"struct.std::pair"* %33, %"struct.std::pair"** %13, align 8, !llfi_index !1668
  %34 = bitcast %"class.std::vector"* %15 to %"struct.std::_Vector_base"*, !llfi_index !1669
  %35 = getelementptr inbounds %"struct.std::_Vector_base", %"struct.std::_Vector_base"* %34, i32 0, i32 0, !llfi_index !1670
  %36 = bitcast %"struct.std::_Vector_base<std::pair<int, int>, std::allocator<std::pair<int, int>>>::_Vector_impl"* %35 to %"struct.std::less"*, !llfi_index !1671
  %37 = load %"struct.std::pair"*, %"struct.std::pair"** %12, align 8, !llfi_index !1672
  %38 = load i64, i64* %10, align 8, !llfi_index !1673
  %39 = getelementptr inbounds %"struct.std::pair", %"struct.std::pair"* %37, i64 %38, !llfi_index !1674
  %40 = load %"struct.std::pair"*, %"struct.std::pair"** %6, align 8, !llfi_index !1675
  %41 = call nonnull align 4 dereferenceable(8) %"struct.std::pair"* @_ZSt7forwardIRKSt4pairIiiEEOT_RNSt16remove_referenceIS4_E4typeE(%"struct.std::pair"* nonnull align 4 dereferenceable(8) %40) #2, !llfi_index !1676
  call void @_ZNSt16allocator_traitsISaISt4pairIiiEEE9constructIS1_JRKS1_EEEvRS2_PT_DpOT0_(%"struct.std::less"* nonnull align 1 dereferenceable(1) %36, %"struct.std::pair"* %39, %"struct.std::pair"* nonnull align 4 dereferenceable(8) %41) #2, !llfi_index !1677
  store %"struct.std::pair"* null, %"struct.std::pair"** %13, align 8, !llfi_index !1678
  %42 = load %"struct.std::pair"*, %"struct.std::pair"** %8, align 8, !llfi_index !1679
  %43 = call nonnull align 8 dereferenceable(8) %"struct.std::pair"** @_ZNK9__gnu_cxx17__normal_iteratorIPSt4pairIiiESt6vectorIS2_SaIS2_EEE4baseEv(%"class.__gnu_cxx::__normal_iterator"* nonnull align 8 dereferenceable(8) %4) #2, !llfi_index !1680
  %44 = load %"struct.std::pair"*, %"struct.std::pair"** %43, align 8, !llfi_index !1681
  %45 = load %"struct.std::pair"*, %"struct.std::pair"** %12, align 8, !llfi_index !1682
  %46 = bitcast %"class.std::vector"* %15 to %"struct.std::_Vector_base"*, !llfi_index !1683
  %47 = call nonnull align 1 dereferenceable(1) %"struct.std::less"* @_ZNSt12_Vector_baseISt4pairIiiESaIS1_EE19_M_get_Tp_allocatorEv(%"struct.std::_Vector_base"* nonnull align 8 dereferenceable(24) %46) #2, !llfi_index !1684
  %48 = call %"struct.std::pair"* @_ZNSt6vectorISt4pairIiiESaIS1_EE11_S_relocateEPS1_S4_S4_RS2_(%"struct.std::pair"* %42, %"struct.std::pair"* %44, %"struct.std::pair"* %45, %"struct.std::less"* nonnull align 1 dereferenceable(1) %47) #2, !llfi_index !1685
  store %"struct.std::pair"* %48, %"struct.std::pair"** %13, align 8, !llfi_index !1686
  %49 = load %"struct.std::pair"*, %"struct.std::pair"** %13, align 8, !llfi_index !1687
  %50 = getelementptr inbounds %"struct.std::pair", %"struct.std::pair"* %49, i32 1, !llfi_index !1688
  store %"struct.std::pair"* %50, %"struct.std::pair"** %13, align 8, !llfi_index !1689
  %51 = call nonnull align 8 dereferenceable(8) %"struct.std::pair"** @_ZNK9__gnu_cxx17__normal_iteratorIPSt4pairIiiESt6vectorIS2_SaIS2_EEE4baseEv(%"class.__gnu_cxx::__normal_iterator"* nonnull align 8 dereferenceable(8) %4) #2, !llfi_index !1690
  %52 = load %"struct.std::pair"*, %"struct.std::pair"** %51, align 8, !llfi_index !1691
  %53 = load %"struct.std::pair"*, %"struct.std::pair"** %9, align 8, !llfi_index !1692
  %54 = load %"struct.std::pair"*, %"struct.std::pair"** %13, align 8, !llfi_index !1693
  %55 = bitcast %"class.std::vector"* %15 to %"struct.std::_Vector_base"*, !llfi_index !1694
  %56 = call nonnull align 1 dereferenceable(1) %"struct.std::less"* @_ZNSt12_Vector_baseISt4pairIiiESaIS1_EE19_M_get_Tp_allocatorEv(%"struct.std::_Vector_base"* nonnull align 8 dereferenceable(24) %55) #2, !llfi_index !1695
  %57 = call %"struct.std::pair"* @_ZNSt6vectorISt4pairIiiESaIS1_EE11_S_relocateEPS1_S4_S4_RS2_(%"struct.std::pair"* %52, %"struct.std::pair"* %53, %"struct.std::pair"* %54, %"struct.std::less"* nonnull align 1 dereferenceable(1) %56) #2, !llfi_index !1696
  store %"struct.std::pair"* %57, %"struct.std::pair"** %13, align 8, !llfi_index !1697
  %58 = bitcast %"class.std::vector"* %15 to %"struct.std::_Vector_base"*, !llfi_index !1698
  %59 = load %"struct.std::pair"*, %"struct.std::pair"** %8, align 8, !llfi_index !1699
  %60 = bitcast %"class.std::vector"* %15 to %"struct.std::_Vector_base"*, !llfi_index !1700
  %61 = getelementptr inbounds %"struct.std::_Vector_base", %"struct.std::_Vector_base"* %60, i32 0, i32 0, !llfi_index !1701
  %62 = bitcast %"struct.std::_Vector_base<std::pair<int, int>, std::allocator<std::pair<int, int>>>::_Vector_impl"* %61 to %"struct.std::_Vector_base<std::pair<int, int>, std::allocator<std::pair<int, int>>>::_Vector_impl_data"*, !llfi_index !1702
  %63 = getelementptr inbounds %"struct.std::_Vector_base<std::pair<int, int>, std::allocator<std::pair<int, int>>>::_Vector_impl_data", %"struct.std::_Vector_base<std::pair<int, int>, std::allocator<std::pair<int, int>>>::_Vector_impl_data"* %62, i32 0, i32 2, !llfi_index !1703
  %64 = load %"struct.std::pair"*, %"struct.std::pair"** %63, align 8, !llfi_index !1704
  %65 = load %"struct.std::pair"*, %"struct.std::pair"** %8, align 8, !llfi_index !1705
  %66 = ptrtoint %"struct.std::pair"* %64 to i64, !llfi_index !1706
  %67 = ptrtoint %"struct.std::pair"* %65 to i64, !llfi_index !1707
  %68 = sub i64 %66, %67, !llfi_index !1708
  %69 = sdiv exact i64 %68, 8, !llfi_index !1709
  call void @_ZNSt12_Vector_baseISt4pairIiiESaIS1_EE13_M_deallocateEPS1_m(%"struct.std::_Vector_base"* nonnull align 8 dereferenceable(24) %58, %"struct.std::pair"* %59, i64 %69), !llfi_index !1710
  %70 = load %"struct.std::pair"*, %"struct.std::pair"** %12, align 8, !llfi_index !1711
  %71 = bitcast %"class.std::vector"* %15 to %"struct.std::_Vector_base"*, !llfi_index !1712
  %72 = getelementptr inbounds %"struct.std::_Vector_base", %"struct.std::_Vector_base"* %71, i32 0, i32 0, !llfi_index !1713
  %73 = bitcast %"struct.std::_Vector_base<std::pair<int, int>, std::allocator<std::pair<int, int>>>::_Vector_impl"* %72 to %"struct.std::_Vector_base<std::pair<int, int>, std::allocator<std::pair<int, int>>>::_Vector_impl_data"*, !llfi_index !1714
  %74 = getelementptr inbounds %"struct.std::_Vector_base<std::pair<int, int>, std::allocator<std::pair<int, int>>>::_Vector_impl_data", %"struct.std::_Vector_base<std::pair<int, int>, std::allocator<std::pair<int, int>>>::_Vector_impl_data"* %73, i32 0, i32 0, !llfi_index !1715
  store %"struct.std::pair"* %70, %"struct.std::pair"** %74, align 8, !llfi_index !1716
  %75 = load %"struct.std::pair"*, %"struct.std::pair"** %13, align 8, !llfi_index !1717
  %76 = bitcast %"class.std::vector"* %15 to %"struct.std::_Vector_base"*, !llfi_index !1718
  %77 = getelementptr inbounds %"struct.std::_Vector_base", %"struct.std::_Vector_base"* %76, i32 0, i32 0, !llfi_index !1719
  %78 = bitcast %"struct.std::_Vector_base<std::pair<int, int>, std::allocator<std::pair<int, int>>>::_Vector_impl"* %77 to %"struct.std::_Vector_base<std::pair<int, int>, std::allocator<std::pair<int, int>>>::_Vector_impl_data"*, !llfi_index !1720
  %79 = getelementptr inbounds %"struct.std::_Vector_base<std::pair<int, int>, std::allocator<std::pair<int, int>>>::_Vector_impl_data", %"struct.std::_Vector_base<std::pair<int, int>, std::allocator<std::pair<int, int>>>::_Vector_impl_data"* %78, i32 0, i32 1, !llfi_index !1721
  store %"struct.std::pair"* %75, %"struct.std::pair"** %79, align 8, !llfi_index !1722
  %80 = load %"struct.std::pair"*, %"struct.std::pair"** %12, align 8, !llfi_index !1723
  %81 = load i64, i64* %7, align 8, !llfi_index !1724
  %82 = getelementptr inbounds %"struct.std::pair", %"struct.std::pair"* %80, i64 %81, !llfi_index !1725
  %83 = bitcast %"class.std::vector"* %15 to %"struct.std::_Vector_base"*, !llfi_index !1726
  %84 = getelementptr inbounds %"struct.std::_Vector_base", %"struct.std::_Vector_base"* %83, i32 0, i32 0, !llfi_index !1727
  %85 = bitcast %"struct.std::_Vector_base<std::pair<int, int>, std::allocator<std::pair<int, int>>>::_Vector_impl"* %84 to %"struct.std::_Vector_base<std::pair<int, int>, std::allocator<std::pair<int, int>>>::_Vector_impl_data"*, !llfi_index !1728
  %86 = getelementptr inbounds %"struct.std::_Vector_base<std::pair<int, int>, std::allocator<std::pair<int, int>>>::_Vector_impl_data", %"struct.std::_Vector_base<std::pair<int, int>, std::allocator<std::pair<int, int>>>::_Vector_impl_data"* %85, i32 0, i32 2, !llfi_index !1729
  store %"struct.std::pair"* %82, %"struct.std::pair"** %86, align 8, !llfi_index !1730
  ret void, !llfi_index !1731
}

; Function Attrs: mustprogress noinline uwtable
define linkonce_odr dso_local i64 @_ZNKSt6vectorISt4pairIiiESaIS1_EE12_M_check_lenEmPKc(%"class.std::vector"* nonnull align 8 dereferenceable(24) %0, i64 %1, i8* %2) #4 comdat align 2 {
  %4 = alloca %"class.std::vector"*, align 8, !llfi_index !1732
  %5 = alloca i64, align 8, !llfi_index !1733
  %6 = alloca i8*, align 8, !llfi_index !1734
  %7 = alloca i64, align 8, !llfi_index !1735
  %8 = alloca i64, align 8, !llfi_index !1736
  store %"class.std::vector"* %0, %"class.std::vector"** %4, align 8, !llfi_index !1737
  store i64 %1, i64* %5, align 8, !llfi_index !1738
  store i8* %2, i8** %6, align 8, !llfi_index !1739
  %9 = load %"class.std::vector"*, %"class.std::vector"** %4, align 8, !llfi_index !1740
  %10 = call i64 @_ZNKSt6vectorISt4pairIiiESaIS1_EE8max_sizeEv(%"class.std::vector"* nonnull align 8 dereferenceable(24) %9) #2, !llfi_index !1741
  %11 = call i64 @_ZNKSt6vectorISt4pairIiiESaIS1_EE4sizeEv(%"class.std::vector"* nonnull align 8 dereferenceable(24) %9) #2, !llfi_index !1742
  %12 = sub i64 %10, %11, !llfi_index !1743
  %13 = load i64, i64* %5, align 8, !llfi_index !1744
  %14 = icmp ult i64 %12, %13, !llfi_index !1745
  br i1 %14, label %15, label %17, !llfi_index !1746

15:                                               ; preds = %3
  %16 = load i8*, i8** %6, align 8, !llfi_index !1747
  call void @_ZSt20__throw_length_errorPKc(i8* %16) #16, !llfi_index !1748
  unreachable, !llfi_index !1749

17:                                               ; preds = %3
  %18 = call i64 @_ZNKSt6vectorISt4pairIiiESaIS1_EE4sizeEv(%"class.std::vector"* nonnull align 8 dereferenceable(24) %9) #2, !llfi_index !1750
  %19 = call i64 @_ZNKSt6vectorISt4pairIiiESaIS1_EE4sizeEv(%"class.std::vector"* nonnull align 8 dereferenceable(24) %9) #2, !llfi_index !1751
  store i64 %19, i64* %8, align 8, !llfi_index !1752
  %20 = call nonnull align 8 dereferenceable(8) i64* @_ZSt3maxImERKT_S2_S2_(i64* nonnull align 8 dereferenceable(8) %8, i64* nonnull align 8 dereferenceable(8) %5), !llfi_index !1753
  %21 = load i64, i64* %20, align 8, !llfi_index !1754
  %22 = add i64 %18, %21, !llfi_index !1755
  store i64 %22, i64* %7, align 8, !llfi_index !1756
  %23 = load i64, i64* %7, align 8, !llfi_index !1757
  %24 = call i64 @_ZNKSt6vectorISt4pairIiiESaIS1_EE4sizeEv(%"class.std::vector"* nonnull align 8 dereferenceable(24) %9) #2, !llfi_index !1758
  %25 = icmp ult i64 %23, %24, !llfi_index !1759
  br i1 %25, label %30, label %26, !llfi_index !1760

26:                                               ; preds = %17
  %27 = load i64, i64* %7, align 8, !llfi_index !1761
  %28 = call i64 @_ZNKSt6vectorISt4pairIiiESaIS1_EE8max_sizeEv(%"class.std::vector"* nonnull align 8 dereferenceable(24) %9) #2, !llfi_index !1762
  %29 = icmp ugt i64 %27, %28, !llfi_index !1763
  br i1 %29, label %30, label %32, !llfi_index !1764

30:                                               ; preds = %26, %17
  %31 = call i64 @_ZNKSt6vectorISt4pairIiiESaIS1_EE8max_sizeEv(%"class.std::vector"* nonnull align 8 dereferenceable(24) %9) #2, !llfi_index !1765
  br label %34, !llfi_index !1766

32:                                               ; preds = %26
  %33 = load i64, i64* %7, align 8, !llfi_index !1767
  br label %34, !llfi_index !1768

34:                                               ; preds = %32, %30
  %35 = phi i64 [ %31, %30 ], [ %33, %32 ], !llfi_index !1769
  ret i64 %35, !llfi_index !1770
}

; Function Attrs: mustprogress noinline nounwind uwtable
define linkonce_odr dso_local %"struct.std::pair"* @_ZNSt6vectorISt4pairIiiESaIS1_EE5beginEv(%"class.std::vector"* nonnull align 8 dereferenceable(24) %0) #3 comdat align 2 {
  %2 = alloca %"class.__gnu_cxx::__normal_iterator", align 8, !llfi_index !1771
  %3 = alloca %"class.std::vector"*, align 8, !llfi_index !1772
  store %"class.std::vector"* %0, %"class.std::vector"** %3, align 8, !llfi_index !1773
  %4 = load %"class.std::vector"*, %"class.std::vector"** %3, align 8, !llfi_index !1774
  %5 = bitcast %"class.std::vector"* %4 to %"struct.std::_Vector_base"*, !llfi_index !1775
  %6 = getelementptr inbounds %"struct.std::_Vector_base", %"struct.std::_Vector_base"* %5, i32 0, i32 0, !llfi_index !1776
  %7 = bitcast %"struct.std::_Vector_base<std::pair<int, int>, std::allocator<std::pair<int, int>>>::_Vector_impl"* %6 to %"struct.std::_Vector_base<std::pair<int, int>, std::allocator<std::pair<int, int>>>::_Vector_impl_data"*, !llfi_index !1777
  %8 = getelementptr inbounds %"struct.std::_Vector_base<std::pair<int, int>, std::allocator<std::pair<int, int>>>::_Vector_impl_data", %"struct.std::_Vector_base<std::pair<int, int>, std::allocator<std::pair<int, int>>>::_Vector_impl_data"* %7, i32 0, i32 0, !llfi_index !1778
  call void @_ZN9__gnu_cxx17__normal_iteratorIPSt4pairIiiESt6vectorIS2_SaIS2_EEEC2ERKS3_(%"class.__gnu_cxx::__normal_iterator"* nonnull align 8 dereferenceable(8) %2, %"struct.std::pair"** nonnull align 8 dereferenceable(8) %8) #2, !llfi_index !1779
  %9 = getelementptr inbounds %"class.__gnu_cxx::__normal_iterator", %"class.__gnu_cxx::__normal_iterator"* %2, i32 0, i32 0, !llfi_index !1780
  %10 = load %"struct.std::pair"*, %"struct.std::pair"** %9, align 8, !llfi_index !1781
  ret %"struct.std::pair"* %10, !llfi_index !1782
}

; Function Attrs: mustprogress noinline nounwind uwtable
define linkonce_odr dso_local i64 @_ZN9__gnu_cxxmiIPSt4pairIiiESt6vectorIS2_SaIS2_EEEENS_17__normal_iteratorIT_T0_E15difference_typeERKSA_SD_(%"class.__gnu_cxx::__normal_iterator"* nonnull align 8 dereferenceable(8) %0, %"class.__gnu_cxx::__normal_iterator"* nonnull align 8 dereferenceable(8) %1) #3 comdat {
  %3 = alloca %"class.__gnu_cxx::__normal_iterator"*, align 8, !llfi_index !1783
  %4 = alloca %"class.__gnu_cxx::__normal_iterator"*, align 8, !llfi_index !1784
  store %"class.__gnu_cxx::__normal_iterator"* %0, %"class.__gnu_cxx::__normal_iterator"** %3, align 8, !llfi_index !1785
  store %"class.__gnu_cxx::__normal_iterator"* %1, %"class.__gnu_cxx::__normal_iterator"** %4, align 8, !llfi_index !1786
  %5 = load %"class.__gnu_cxx::__normal_iterator"*, %"class.__gnu_cxx::__normal_iterator"** %3, align 8, !llfi_index !1787
  %6 = call nonnull align 8 dereferenceable(8) %"struct.std::pair"** @_ZNK9__gnu_cxx17__normal_iteratorIPSt4pairIiiESt6vectorIS2_SaIS2_EEE4baseEv(%"class.__gnu_cxx::__normal_iterator"* nonnull align 8 dereferenceable(8) %5) #2, !llfi_index !1788
  %7 = load %"struct.std::pair"*, %"struct.std::pair"** %6, align 8, !llfi_index !1789
  %8 = load %"class.__gnu_cxx::__normal_iterator"*, %"class.__gnu_cxx::__normal_iterator"** %4, align 8, !llfi_index !1790
  %9 = call nonnull align 8 dereferenceable(8) %"struct.std::pair"** @_ZNK9__gnu_cxx17__normal_iteratorIPSt4pairIiiESt6vectorIS2_SaIS2_EEE4baseEv(%"class.__gnu_cxx::__normal_iterator"* nonnull align 8 dereferenceable(8) %8) #2, !llfi_index !1791
  %10 = load %"struct.std::pair"*, %"struct.std::pair"** %9, align 8, !llfi_index !1792
  %11 = ptrtoint %"struct.std::pair"* %7 to i64, !llfi_index !1793
  %12 = ptrtoint %"struct.std::pair"* %10 to i64, !llfi_index !1794
  %13 = sub i64 %11, %12, !llfi_index !1795
  %14 = sdiv exact i64 %13, 8, !llfi_index !1796
  ret i64 %14, !llfi_index !1797
}

; Function Attrs: mustprogress noinline uwtable
define linkonce_odr dso_local %"struct.std::pair"* @_ZNSt12_Vector_baseISt4pairIiiESaIS1_EE11_M_allocateEm(%"struct.std::_Vector_base"* nonnull align 8 dereferenceable(24) %0, i64 %1) #4 comdat align 2 {
  %3 = alloca %"struct.std::_Vector_base"*, align 8, !llfi_index !1798
  %4 = alloca i64, align 8, !llfi_index !1799
  store %"struct.std::_Vector_base"* %0, %"struct.std::_Vector_base"** %3, align 8, !llfi_index !1800
  store i64 %1, i64* %4, align 8, !llfi_index !1801
  %5 = load %"struct.std::_Vector_base"*, %"struct.std::_Vector_base"** %3, align 8, !llfi_index !1802
  %6 = load i64, i64* %4, align 8, !llfi_index !1803
  %7 = icmp ne i64 %6, 0, !llfi_index !1804
  br i1 %7, label %8, label %13, !llfi_index !1805

8:                                                ; preds = %2
  %9 = getelementptr inbounds %"struct.std::_Vector_base", %"struct.std::_Vector_base"* %5, i32 0, i32 0, !llfi_index !1806
  %10 = bitcast %"struct.std::_Vector_base<std::pair<int, int>, std::allocator<std::pair<int, int>>>::_Vector_impl"* %9 to %"struct.std::less"*, !llfi_index !1807
  %11 = load i64, i64* %4, align 8, !llfi_index !1808
  %12 = call %"struct.std::pair"* @_ZNSt16allocator_traitsISaISt4pairIiiEEE8allocateERS2_m(%"struct.std::less"* nonnull align 1 dereferenceable(1) %10, i64 %11), !llfi_index !1809
  br label %14, !llfi_index !1810

13:                                               ; preds = %2
  br label %14, !llfi_index !1811

14:                                               ; preds = %13, %8
  %15 = phi %"struct.std::pair"* [ %12, %8 ], [ null, %13 ], !llfi_index !1812
  ret %"struct.std::pair"* %15, !llfi_index !1813
}

; Function Attrs: mustprogress noinline nounwind uwtable
define linkonce_odr dso_local nonnull align 4 dereferenceable(8) %"struct.std::pair"* @_ZSt7forwardIRKSt4pairIiiEEOT_RNSt16remove_referenceIS4_E4typeE(%"struct.std::pair"* nonnull align 4 dereferenceable(8) %0) #3 comdat {
  %2 = alloca %"struct.std::pair"*, align 8, !llfi_index !1814
  store %"struct.std::pair"* %0, %"struct.std::pair"** %2, align 8, !llfi_index !1815
  %3 = load %"struct.std::pair"*, %"struct.std::pair"** %2, align 8, !llfi_index !1816
  ret %"struct.std::pair"* %3, !llfi_index !1817
}

; Function Attrs: mustprogress noinline nounwind uwtable
define linkonce_odr dso_local nonnull align 8 dereferenceable(8) %"struct.std::pair"** @_ZNK9__gnu_cxx17__normal_iteratorIPSt4pairIiiESt6vectorIS2_SaIS2_EEE4baseEv(%"class.__gnu_cxx::__normal_iterator"* nonnull align 8 dereferenceable(8) %0) #3 comdat align 2 {
  %2 = alloca %"class.__gnu_cxx::__normal_iterator"*, align 8, !llfi_index !1818
  store %"class.__gnu_cxx::__normal_iterator"* %0, %"class.__gnu_cxx::__normal_iterator"** %2, align 8, !llfi_index !1819
  %3 = load %"class.__gnu_cxx::__normal_iterator"*, %"class.__gnu_cxx::__normal_iterator"** %2, align 8, !llfi_index !1820
  %4 = getelementptr inbounds %"class.__gnu_cxx::__normal_iterator", %"class.__gnu_cxx::__normal_iterator"* %3, i32 0, i32 0, !llfi_index !1821
  ret %"struct.std::pair"** %4, !llfi_index !1822
}

; Function Attrs: mustprogress noinline nounwind uwtable
define linkonce_odr dso_local %"struct.std::pair"* @_ZNSt6vectorISt4pairIiiESaIS1_EE11_S_relocateEPS1_S4_S4_RS2_(%"struct.std::pair"* %0, %"struct.std::pair"* %1, %"struct.std::pair"* %2, %"struct.std::less"* nonnull align 1 dereferenceable(1) %3) #3 comdat align 2 {
  %5 = alloca %"struct.std::pair"*, align 8, !llfi_index !1823
  %6 = alloca %"struct.std::pair"*, align 8, !llfi_index !1824
  %7 = alloca %"struct.std::pair"*, align 8, !llfi_index !1825
  %8 = alloca %"struct.std::less"*, align 8, !llfi_index !1826
  %9 = alloca %"struct.std::less", align 1, !llfi_index !1827
  store %"struct.std::pair"* %0, %"struct.std::pair"** %5, align 8, !llfi_index !1828
  store %"struct.std::pair"* %1, %"struct.std::pair"** %6, align 8, !llfi_index !1829
  store %"struct.std::pair"* %2, %"struct.std::pair"** %7, align 8, !llfi_index !1830
  store %"struct.std::less"* %3, %"struct.std::less"** %8, align 8, !llfi_index !1831
  %10 = load %"struct.std::pair"*, %"struct.std::pair"** %5, align 8, !llfi_index !1832
  %11 = load %"struct.std::pair"*, %"struct.std::pair"** %6, align 8, !llfi_index !1833
  %12 = load %"struct.std::pair"*, %"struct.std::pair"** %7, align 8, !llfi_index !1834
  %13 = load %"struct.std::less"*, %"struct.std::less"** %8, align 8, !llfi_index !1835
  %14 = call %"struct.std::pair"* @_ZNSt6vectorISt4pairIiiESaIS1_EE14_S_do_relocateEPS1_S4_S4_RS2_St17integral_constantIbLb1EE(%"struct.std::pair"* %10, %"struct.std::pair"* %11, %"struct.std::pair"* %12, %"struct.std::less"* nonnull align 1 dereferenceable(1) %13) #2, !llfi_index !1836
  ret %"struct.std::pair"* %14, !llfi_index !1837
}

; Function Attrs: mustprogress noinline nounwind uwtable
define linkonce_odr dso_local %"struct.std::pair"* @_ZNSt6vectorISt4pairIiiESaIS1_EE14_S_do_relocateEPS1_S4_S4_RS2_St17integral_constantIbLb1EE(%"struct.std::pair"* %0, %"struct.std::pair"* %1, %"struct.std::pair"* %2, %"struct.std::less"* nonnull align 1 dereferenceable(1) %3) #3 comdat align 2 {
  %5 = alloca %"struct.std::less", align 1, !llfi_index !1838
  %6 = alloca %"struct.std::pair"*, align 8, !llfi_index !1839
  %7 = alloca %"struct.std::pair"*, align 8, !llfi_index !1840
  %8 = alloca %"struct.std::pair"*, align 8, !llfi_index !1841
  %9 = alloca %"struct.std::less"*, align 8, !llfi_index !1842
  store %"struct.std::pair"* %0, %"struct.std::pair"** %6, align 8, !llfi_index !1843
  store %"struct.std::pair"* %1, %"struct.std::pair"** %7, align 8, !llfi_index !1844
  store %"struct.std::pair"* %2, %"struct.std::pair"** %8, align 8, !llfi_index !1845
  store %"struct.std::less"* %3, %"struct.std::less"** %9, align 8, !llfi_index !1846
  %10 = load %"struct.std::pair"*, %"struct.std::pair"** %6, align 8, !llfi_index !1847
  %11 = load %"struct.std::pair"*, %"struct.std::pair"** %7, align 8, !llfi_index !1848
  %12 = load %"struct.std::pair"*, %"struct.std::pair"** %8, align 8, !llfi_index !1849
  %13 = load %"struct.std::less"*, %"struct.std::less"** %9, align 8, !llfi_index !1850
  %14 = call %"struct.std::pair"* @_ZSt12__relocate_aIPSt4pairIiiES2_SaIS1_EET0_T_S5_S4_RT1_(%"struct.std::pair"* %10, %"struct.std::pair"* %11, %"struct.std::pair"* %12, %"struct.std::less"* nonnull align 1 dereferenceable(1) %13) #2, !llfi_index !1851
  ret %"struct.std::pair"* %14, !llfi_index !1852
}

; Function Attrs: mustprogress noinline nounwind uwtable
define linkonce_odr dso_local %"struct.std::pair"* @_ZSt12__relocate_aIPSt4pairIiiES2_SaIS1_EET0_T_S5_S4_RT1_(%"struct.std::pair"* %0, %"struct.std::pair"* %1, %"struct.std::pair"* %2, %"struct.std::less"* nonnull align 1 dereferenceable(1) %3) #3 comdat {
  %5 = alloca %"struct.std::pair"*, align 8, !llfi_index !1853
  %6 = alloca %"struct.std::pair"*, align 8, !llfi_index !1854
  %7 = alloca %"struct.std::pair"*, align 8, !llfi_index !1855
  %8 = alloca %"struct.std::less"*, align 8, !llfi_index !1856
  store %"struct.std::pair"* %0, %"struct.std::pair"** %5, align 8, !llfi_index !1857
  store %"struct.std::pair"* %1, %"struct.std::pair"** %6, align 8, !llfi_index !1858
  store %"struct.std::pair"* %2, %"struct.std::pair"** %7, align 8, !llfi_index !1859
  store %"struct.std::less"* %3, %"struct.std::less"** %8, align 8, !llfi_index !1860
  %9 = load %"struct.std::pair"*, %"struct.std::pair"** %5, align 8, !llfi_index !1861
  %10 = call %"struct.std::pair"* @_ZSt12__niter_baseIPSt4pairIiiEET_S3_(%"struct.std::pair"* %9) #2, !llfi_index !1862
  %11 = load %"struct.std::pair"*, %"struct.std::pair"** %6, align 8, !llfi_index !1863
  %12 = call %"struct.std::pair"* @_ZSt12__niter_baseIPSt4pairIiiEET_S3_(%"struct.std::pair"* %11) #2, !llfi_index !1864
  %13 = load %"struct.std::pair"*, %"struct.std::pair"** %7, align 8, !llfi_index !1865
  %14 = call %"struct.std::pair"* @_ZSt12__niter_baseIPSt4pairIiiEET_S3_(%"struct.std::pair"* %13) #2, !llfi_index !1866
  %15 = load %"struct.std::less"*, %"struct.std::less"** %8, align 8, !llfi_index !1867
  %16 = call %"struct.std::pair"* @_ZSt14__relocate_a_1IPSt4pairIiiES2_SaIS1_EET0_T_S5_S4_RT1_(%"struct.std::pair"* %10, %"struct.std::pair"* %12, %"struct.std::pair"* %14, %"struct.std::less"* nonnull align 1 dereferenceable(1) %15) #2, !llfi_index !1868
  ret %"struct.std::pair"* %16, !llfi_index !1869
}

; Function Attrs: mustprogress noinline nounwind uwtable
define linkonce_odr dso_local %"struct.std::pair"* @_ZSt12__niter_baseIPSt4pairIiiEET_S3_(%"struct.std::pair"* %0) #3 comdat {
  %2 = alloca %"struct.std::pair"*, align 8, !llfi_index !1870
  store %"struct.std::pair"* %0, %"struct.std::pair"** %2, align 8, !llfi_index !1871
  %3 = load %"struct.std::pair"*, %"struct.std::pair"** %2, align 8, !llfi_index !1872
  ret %"struct.std::pair"* %3, !llfi_index !1873
}

; Function Attrs: mustprogress noinline nounwind uwtable
define linkonce_odr dso_local %"struct.std::pair"* @_ZSt14__relocate_a_1IPSt4pairIiiES2_SaIS1_EET0_T_S5_S4_RT1_(%"struct.std::pair"* %0, %"struct.std::pair"* %1, %"struct.std::pair"* %2, %"struct.std::less"* nonnull align 1 dereferenceable(1) %3) #3 comdat {
  %5 = alloca %"struct.std::pair"*, align 8, !llfi_index !1874
  %6 = alloca %"struct.std::pair"*, align 8, !llfi_index !1875
  %7 = alloca %"struct.std::pair"*, align 8, !llfi_index !1876
  %8 = alloca %"struct.std::less"*, align 8, !llfi_index !1877
  %9 = alloca %"struct.std::pair"*, align 8, !llfi_index !1878
  store %"struct.std::pair"* %0, %"struct.std::pair"** %5, align 8, !llfi_index !1879
  store %"struct.std::pair"* %1, %"struct.std::pair"** %6, align 8, !llfi_index !1880
  store %"struct.std::pair"* %2, %"struct.std::pair"** %7, align 8, !llfi_index !1881
  store %"struct.std::less"* %3, %"struct.std::less"** %8, align 8, !llfi_index !1882
  %10 = load %"struct.std::pair"*, %"struct.std::pair"** %7, align 8, !llfi_index !1883
  store %"struct.std::pair"* %10, %"struct.std::pair"** %9, align 8, !llfi_index !1884
  br label %11, !llfi_index !1885

11:                                               ; preds = %21, %4
  %12 = load %"struct.std::pair"*, %"struct.std::pair"** %5, align 8, !llfi_index !1886
  %13 = load %"struct.std::pair"*, %"struct.std::pair"** %6, align 8, !llfi_index !1887
  %14 = icmp ne %"struct.std::pair"* %12, %13, !llfi_index !1888
  br i1 %14, label %15, label %26, !llfi_index !1889

15:                                               ; preds = %11
  %16 = load %"struct.std::pair"*, %"struct.std::pair"** %9, align 8, !llfi_index !1890
  %17 = call %"struct.std::pair"* @_ZSt11__addressofISt4pairIiiEEPT_RS2_(%"struct.std::pair"* nonnull align 4 dereferenceable(8) %16) #2, !llfi_index !1891
  %18 = load %"struct.std::pair"*, %"struct.std::pair"** %5, align 8, !llfi_index !1892
  %19 = call %"struct.std::pair"* @_ZSt11__addressofISt4pairIiiEEPT_RS2_(%"struct.std::pair"* nonnull align 4 dereferenceable(8) %18) #2, !llfi_index !1893
  %20 = load %"struct.std::less"*, %"struct.std::less"** %8, align 8, !llfi_index !1894
  call void @_ZSt19__relocate_object_aISt4pairIiiES1_SaIS1_EEvPT_PT0_RT1_(%"struct.std::pair"* %17, %"struct.std::pair"* %19, %"struct.std::less"* nonnull align 1 dereferenceable(1) %20) #2, !llfi_index !1895
  br label %21, !llfi_index !1896

21:                                               ; preds = %15
  %22 = load %"struct.std::pair"*, %"struct.std::pair"** %5, align 8, !llfi_index !1897
  %23 = getelementptr inbounds %"struct.std::pair", %"struct.std::pair"* %22, i32 1, !llfi_index !1898
  store %"struct.std::pair"* %23, %"struct.std::pair"** %5, align 8, !llfi_index !1899
  %24 = load %"struct.std::pair"*, %"struct.std::pair"** %9, align 8, !llfi_index !1900
  %25 = getelementptr inbounds %"struct.std::pair", %"struct.std::pair"* %24, i32 1, !llfi_index !1901
  store %"struct.std::pair"* %25, %"struct.std::pair"** %9, align 8, !llfi_index !1902
  br label %11, !llvm.loop !1903, !llfi_index !1904

26:                                               ; preds = %11
  %27 = load %"struct.std::pair"*, %"struct.std::pair"** %9, align 8, !llfi_index !1905
  ret %"struct.std::pair"* %27, !llfi_index !1906
}

; Function Attrs: mustprogress noinline nounwind uwtable
define linkonce_odr dso_local %"struct.std::pair"* @_ZSt11__addressofISt4pairIiiEEPT_RS2_(%"struct.std::pair"* nonnull align 4 dereferenceable(8) %0) #3 comdat {
  %2 = alloca %"struct.std::pair"*, align 8, !llfi_index !1907
  store %"struct.std::pair"* %0, %"struct.std::pair"** %2, align 8, !llfi_index !1908
  %3 = load %"struct.std::pair"*, %"struct.std::pair"** %2, align 8, !llfi_index !1909
  ret %"struct.std::pair"* %3, !llfi_index !1910
}

; Function Attrs: mustprogress noinline nounwind uwtable
define linkonce_odr dso_local void @_ZSt19__relocate_object_aISt4pairIiiES1_SaIS1_EEvPT_PT0_RT1_(%"struct.std::pair"* %0, %"struct.std::pair"* %1, %"struct.std::less"* nonnull align 1 dereferenceable(1) %2) #3 comdat {
  %4 = alloca %"struct.std::pair"*, align 8, !llfi_index !1911
  %5 = alloca %"struct.std::pair"*, align 8, !llfi_index !1912
  %6 = alloca %"struct.std::less"*, align 8, !llfi_index !1913
  store %"struct.std::pair"* %0, %"struct.std::pair"** %4, align 8, !llfi_index !1914
  store %"struct.std::pair"* %1, %"struct.std::pair"** %5, align 8, !llfi_index !1915
  store %"struct.std::less"* %2, %"struct.std::less"** %6, align 8, !llfi_index !1916
  %7 = load %"struct.std::less"*, %"struct.std::less"** %6, align 8, !llfi_index !1917
  %8 = load %"struct.std::pair"*, %"struct.std::pair"** %4, align 8, !llfi_index !1918
  %9 = load %"struct.std::pair"*, %"struct.std::pair"** %5, align 8, !llfi_index !1919
  %10 = call nonnull align 4 dereferenceable(8) %"struct.std::pair"* @_ZSt4moveIRSt4pairIiiEEONSt16remove_referenceIT_E4typeEOS4_(%"struct.std::pair"* nonnull align 4 dereferenceable(8) %9) #2, !llfi_index !1920
  call void @_ZNSt16allocator_traitsISaISt4pairIiiEEE9constructIS1_JS1_EEEvRS2_PT_DpOT0_(%"struct.std::less"* nonnull align 1 dereferenceable(1) %7, %"struct.std::pair"* %8, %"struct.std::pair"* nonnull align 4 dereferenceable(8) %10) #2, !llfi_index !1921
  %11 = load %"struct.std::less"*, %"struct.std::less"** %6, align 8, !llfi_index !1922
  %12 = load %"struct.std::pair"*, %"struct.std::pair"** %5, align 8, !llfi_index !1923
  %13 = call %"struct.std::pair"* @_ZSt11__addressofISt4pairIiiEEPT_RS2_(%"struct.std::pair"* nonnull align 4 dereferenceable(8) %12) #2, !llfi_index !1924
  call void @_ZNSt16allocator_traitsISaISt4pairIiiEEE7destroyIS1_EEvRS2_PT_(%"struct.std::less"* nonnull align 1 dereferenceable(1) %11, %"struct.std::pair"* %13) #2, !llfi_index !1925
  ret void, !llfi_index !1926
}

; Function Attrs: mustprogress noinline nounwind uwtable
define linkonce_odr dso_local nonnull align 4 dereferenceable(8) %"struct.std::pair"* @_ZSt4moveIRSt4pairIiiEEONSt16remove_referenceIT_E4typeEOS4_(%"struct.std::pair"* nonnull align 4 dereferenceable(8) %0) #3 comdat {
  %2 = alloca %"struct.std::pair"*, align 8, !llfi_index !1927
  store %"struct.std::pair"* %0, %"struct.std::pair"** %2, align 8, !llfi_index !1928
  %3 = load %"struct.std::pair"*, %"struct.std::pair"** %2, align 8, !llfi_index !1929
  ret %"struct.std::pair"* %3, !llfi_index !1930
}

; Function Attrs: mustprogress noinline nounwind uwtable
define linkonce_odr dso_local void @_ZNSt16allocator_traitsISaISt4pairIiiEEE9constructIS1_JS1_EEEvRS2_PT_DpOT0_(%"struct.std::less"* nonnull align 1 dereferenceable(1) %0, %"struct.std::pair"* %1, %"struct.std::pair"* nonnull align 4 dereferenceable(8) %2) #3 comdat align 2 {
  %4 = alloca %"struct.std::less"*, align 8, !llfi_index !1931
  %5 = alloca %"struct.std::pair"*, align 8, !llfi_index !1932
  %6 = alloca %"struct.std::pair"*, align 8, !llfi_index !1933
  store %"struct.std::less"* %0, %"struct.std::less"** %4, align 8, !llfi_index !1934
  store %"struct.std::pair"* %1, %"struct.std::pair"** %5, align 8, !llfi_index !1935
  store %"struct.std::pair"* %2, %"struct.std::pair"** %6, align 8, !llfi_index !1936
  %7 = load %"struct.std::less"*, %"struct.std::less"** %4, align 8, !llfi_index !1937
  %8 = bitcast %"struct.std::less"* %7 to %"struct.std::less"*, !llfi_index !1938
  %9 = load %"struct.std::pair"*, %"struct.std::pair"** %5, align 8, !llfi_index !1939
  %10 = load %"struct.std::pair"*, %"struct.std::pair"** %6, align 8, !llfi_index !1940
  %11 = call nonnull align 4 dereferenceable(8) %"struct.std::pair"* @_ZSt7forwardISt4pairIiiEEOT_RNSt16remove_referenceIS2_E4typeE(%"struct.std::pair"* nonnull align 4 dereferenceable(8) %10) #2, !llfi_index !1941
  call void @_ZN9__gnu_cxx13new_allocatorISt4pairIiiEE9constructIS2_JS2_EEEvPT_DpOT0_(%"struct.std::less"* nonnull align 1 dereferenceable(1) %8, %"struct.std::pair"* %9, %"struct.std::pair"* nonnull align 4 dereferenceable(8) %11) #2, !llfi_index !1942
  ret void, !llfi_index !1943
}

; Function Attrs: mustprogress noinline nounwind uwtable
define linkonce_odr dso_local void @_ZNSt16allocator_traitsISaISt4pairIiiEEE7destroyIS1_EEvRS2_PT_(%"struct.std::less"* nonnull align 1 dereferenceable(1) %0, %"struct.std::pair"* %1) #3 comdat align 2 {
  %3 = alloca %"struct.std::less"*, align 8, !llfi_index !1944
  %4 = alloca %"struct.std::pair"*, align 8, !llfi_index !1945
  store %"struct.std::less"* %0, %"struct.std::less"** %3, align 8, !llfi_index !1946
  store %"struct.std::pair"* %1, %"struct.std::pair"** %4, align 8, !llfi_index !1947
  %5 = load %"struct.std::less"*, %"struct.std::less"** %3, align 8, !llfi_index !1948
  %6 = bitcast %"struct.std::less"* %5 to %"struct.std::less"*, !llfi_index !1949
  %7 = load %"struct.std::pair"*, %"struct.std::pair"** %4, align 8, !llfi_index !1950
  call void @_ZN9__gnu_cxx13new_allocatorISt4pairIiiEE7destroyIS2_EEvPT_(%"struct.std::less"* nonnull align 1 dereferenceable(1) %6, %"struct.std::pair"* %7) #2, !llfi_index !1951
  ret void, !llfi_index !1952
}

; Function Attrs: mustprogress noinline nounwind uwtable
define linkonce_odr dso_local void @_ZN9__gnu_cxx13new_allocatorISt4pairIiiEE7destroyIS2_EEvPT_(%"struct.std::less"* nonnull align 1 dereferenceable(1) %0, %"struct.std::pair"* %1) #3 comdat align 2 {
  %3 = alloca %"struct.std::less"*, align 8, !llfi_index !1953
  %4 = alloca %"struct.std::pair"*, align 8, !llfi_index !1954
  store %"struct.std::less"* %0, %"struct.std::less"** %3, align 8, !llfi_index !1955
  store %"struct.std::pair"* %1, %"struct.std::pair"** %4, align 8, !llfi_index !1956
  %5 = load %"struct.std::less"*, %"struct.std::less"** %3, align 8, !llfi_index !1957
  %6 = load %"struct.std::pair"*, %"struct.std::pair"** %4, align 8, !llfi_index !1958
  ret void, !llfi_index !1959
}

; Function Attrs: mustprogress noinline nounwind uwtable
define linkonce_odr dso_local nonnull align 4 dereferenceable(8) %"struct.std::pair"* @_ZSt7forwardISt4pairIiiEEOT_RNSt16remove_referenceIS2_E4typeE(%"struct.std::pair"* nonnull align 4 dereferenceable(8) %0) #3 comdat {
  %2 = alloca %"struct.std::pair"*, align 8, !llfi_index !1960
  store %"struct.std::pair"* %0, %"struct.std::pair"** %2, align 8, !llfi_index !1961
  %3 = load %"struct.std::pair"*, %"struct.std::pair"** %2, align 8, !llfi_index !1962
  ret %"struct.std::pair"* %3, !llfi_index !1963
}

; Function Attrs: mustprogress noinline nounwind uwtable
define linkonce_odr dso_local void @_ZN9__gnu_cxx13new_allocatorISt4pairIiiEE9constructIS2_JS2_EEEvPT_DpOT0_(%"struct.std::less"* nonnull align 1 dereferenceable(1) %0, %"struct.std::pair"* %1, %"struct.std::pair"* nonnull align 4 dereferenceable(8) %2) #3 comdat align 2 {
  %4 = alloca %"struct.std::less"*, align 8, !llfi_index !1964
  %5 = alloca %"struct.std::pair"*, align 8, !llfi_index !1965
  %6 = alloca %"struct.std::pair"*, align 8, !llfi_index !1966
  store %"struct.std::less"* %0, %"struct.std::less"** %4, align 8, !llfi_index !1967
  store %"struct.std::pair"* %1, %"struct.std::pair"** %5, align 8, !llfi_index !1968
  store %"struct.std::pair"* %2, %"struct.std::pair"** %6, align 8, !llfi_index !1969
  %7 = load %"struct.std::less"*, %"struct.std::less"** %4, align 8, !llfi_index !1970
  %8 = load %"struct.std::pair"*, %"struct.std::pair"** %5, align 8, !llfi_index !1971
  %9 = bitcast %"struct.std::pair"* %8 to i8*, !llfi_index !1972
  %10 = bitcast i8* %9 to %"struct.std::pair"*, !llfi_index !1973
  %11 = load %"struct.std::pair"*, %"struct.std::pair"** %6, align 8, !llfi_index !1974
  %12 = call nonnull align 4 dereferenceable(8) %"struct.std::pair"* @_ZSt7forwardISt4pairIiiEEOT_RNSt16remove_referenceIS2_E4typeE(%"struct.std::pair"* nonnull align 4 dereferenceable(8) %11) #2, !llfi_index !1975
  %13 = bitcast %"struct.std::pair"* %10 to i8*, !llfi_index !1976
  %14 = bitcast %"struct.std::pair"* %12 to i8*, !llfi_index !1977
  call void @llvm.memcpy.p0i8.p0i8.i64(i8* align 4 %13, i8* align 4 %14, i64 8, i1 false), !llfi_index !1978
  ret void, !llfi_index !1979
}

; Function Attrs: argmemonly nofree nounwind willreturn
declare void @llvm.memcpy.p0i8.p0i8.i64(i8* noalias nocapture writeonly, i8* noalias nocapture readonly, i64, i1 immarg) #9

; Function Attrs: mustprogress noinline uwtable
define linkonce_odr dso_local %"struct.std::pair"* @_ZNSt16allocator_traitsISaISt4pairIiiEEE8allocateERS2_m(%"struct.std::less"* nonnull align 1 dereferenceable(1) %0, i64 %1) #4 comdat align 2 {
  %3 = alloca %"struct.std::less"*, align 8, !llfi_index !1980
  %4 = alloca i64, align 8, !llfi_index !1981
  store %"struct.std::less"* %0, %"struct.std::less"** %3, align 8, !llfi_index !1982
  store i64 %1, i64* %4, align 8, !llfi_index !1983
  %5 = load %"struct.std::less"*, %"struct.std::less"** %3, align 8, !llfi_index !1984
  %6 = bitcast %"struct.std::less"* %5 to %"struct.std::less"*, !llfi_index !1985
  %7 = load i64, i64* %4, align 8, !llfi_index !1986
  %8 = call %"struct.std::pair"* @_ZN9__gnu_cxx13new_allocatorISt4pairIiiEE8allocateEmPKv(%"struct.std::less"* nonnull align 1 dereferenceable(1) %6, i64 %7, i8* null), !llfi_index !1987
  ret %"struct.std::pair"* %8, !llfi_index !1988
}

; Function Attrs: mustprogress noinline uwtable
define linkonce_odr dso_local %"struct.std::pair"* @_ZN9__gnu_cxx13new_allocatorISt4pairIiiEE8allocateEmPKv(%"struct.std::less"* nonnull align 1 dereferenceable(1) %0, i64 %1, i8* %2) #4 comdat align 2 {
  %4 = alloca %"struct.std::less"*, align 8, !llfi_index !1989
  %5 = alloca i64, align 8, !llfi_index !1990
  %6 = alloca i8*, align 8, !llfi_index !1991
  store %"struct.std::less"* %0, %"struct.std::less"** %4, align 8, !llfi_index !1992
  store i64 %1, i64* %5, align 8, !llfi_index !1993
  store i8* %2, i8** %6, align 8, !llfi_index !1994
  %7 = load %"struct.std::less"*, %"struct.std::less"** %4, align 8, !llfi_index !1995
  %8 = load i64, i64* %5, align 8, !llfi_index !1996
  %9 = call i64 @_ZNK9__gnu_cxx13new_allocatorISt4pairIiiEE8max_sizeEv(%"struct.std::less"* nonnull align 1 dereferenceable(1) %7) #2, !llfi_index !1997
  %10 = icmp ugt i64 %8, %9, !llfi_index !1998
  br i1 %10, label %11, label %12, !llfi_index !1999

11:                                               ; preds = %3
  call void @_ZSt17__throw_bad_allocv() #16, !llfi_index !2000
  unreachable, !llfi_index !2001

12:                                               ; preds = %3
  %13 = load i64, i64* %5, align 8, !llfi_index !2002
  %14 = mul i64 %13, 8, !llfi_index !2003
  %15 = call noalias nonnull i8* @_Znwm(i64 %14) #17, !llfi_index !2004
  %16 = bitcast i8* %15 to %"struct.std::pair"*, !llfi_index !2005
  ret %"struct.std::pair"* %16, !llfi_index !2006
}

; Function Attrs: mustprogress noinline nounwind uwtable
define linkonce_odr dso_local i64 @_ZNK9__gnu_cxx13new_allocatorISt4pairIiiEE8max_sizeEv(%"struct.std::less"* nonnull align 1 dereferenceable(1) %0) #3 comdat align 2 {
  %2 = alloca %"struct.std::less"*, align 8, !llfi_index !2007
  store %"struct.std::less"* %0, %"struct.std::less"** %2, align 8, !llfi_index !2008
  %3 = load %"struct.std::less"*, %"struct.std::less"** %2, align 8, !llfi_index !2009
  ret i64 1152921504606846975, !llfi_index !2010
}

; Function Attrs: noreturn
declare dso_local void @_ZSt17__throw_bad_allocv() #10

; Function Attrs: nobuiltin allocsize(0)
declare dso_local nonnull i8* @_Znwm(i64) #11

; Function Attrs: noinline nounwind uwtable
define linkonce_odr dso_local void @_ZN9__gnu_cxx17__normal_iteratorIPSt4pairIiiESt6vectorIS2_SaIS2_EEEC2ERKS3_(%"class.__gnu_cxx::__normal_iterator"* nonnull align 8 dereferenceable(8) %0, %"struct.std::pair"** nonnull align 8 dereferenceable(8) %1) unnamed_addr #1 comdat align 2 {
  %3 = alloca %"class.__gnu_cxx::__normal_iterator"*, align 8, !llfi_index !2011
  %4 = alloca %"struct.std::pair"**, align 8, !llfi_index !2012
  store %"class.__gnu_cxx::__normal_iterator"* %0, %"class.__gnu_cxx::__normal_iterator"** %3, align 8, !llfi_index !2013
  store %"struct.std::pair"** %1, %"struct.std::pair"*** %4, align 8, !llfi_index !2014
  %5 = load %"class.__gnu_cxx::__normal_iterator"*, %"class.__gnu_cxx::__normal_iterator"** %3, align 8, !llfi_index !2015
  %6 = getelementptr inbounds %"class.__gnu_cxx::__normal_iterator", %"class.__gnu_cxx::__normal_iterator"* %5, i32 0, i32 0, !llfi_index !2016
  %7 = load %"struct.std::pair"**, %"struct.std::pair"*** %4, align 8, !llfi_index !2017
  %8 = load %"struct.std::pair"*, %"struct.std::pair"** %7, align 8, !llfi_index !2018
  store %"struct.std::pair"* %8, %"struct.std::pair"** %6, align 8, !llfi_index !2019
  ret void, !llfi_index !2020
}

; Function Attrs: mustprogress noinline nounwind uwtable
define linkonce_odr dso_local i64 @_ZNKSt6vectorISt4pairIiiESaIS1_EE8max_sizeEv(%"class.std::vector"* nonnull align 8 dereferenceable(24) %0) #3 comdat align 2 {
  %2 = alloca %"class.std::vector"*, align 8, !llfi_index !2021
  store %"class.std::vector"* %0, %"class.std::vector"** %2, align 8, !llfi_index !2022
  %3 = load %"class.std::vector"*, %"class.std::vector"** %2, align 8, !llfi_index !2023
  %4 = bitcast %"class.std::vector"* %3 to %"struct.std::_Vector_base"*, !llfi_index !2024
  %5 = call nonnull align 1 dereferenceable(1) %"struct.std::less"* @_ZNKSt12_Vector_baseISt4pairIiiESaIS1_EE19_M_get_Tp_allocatorEv(%"struct.std::_Vector_base"* nonnull align 8 dereferenceable(24) %4) #2, !llfi_index !2025
  %6 = call i64 @_ZNSt6vectorISt4pairIiiESaIS1_EE11_S_max_sizeERKS2_(%"struct.std::less"* nonnull align 1 dereferenceable(1) %5) #2, !llfi_index !2026
  ret i64 %6, !llfi_index !2027
}

; Function Attrs: noreturn
declare dso_local void @_ZSt20__throw_length_errorPKc(i8*) #10

; Function Attrs: mustprogress noinline nounwind uwtable
define linkonce_odr dso_local nonnull align 8 dereferenceable(8) i64* @_ZSt3maxImERKT_S2_S2_(i64* nonnull align 8 dereferenceable(8) %0, i64* nonnull align 8 dereferenceable(8) %1) #3 comdat {
  %3 = alloca i64*, align 8, !llfi_index !2028
  %4 = alloca i64*, align 8, !llfi_index !2029
  %5 = alloca i64*, align 8, !llfi_index !2030
  store i64* %0, i64** %4, align 8, !llfi_index !2031
  store i64* %1, i64** %5, align 8, !llfi_index !2032
  %6 = load i64*, i64** %4, align 8, !llfi_index !2033
  %7 = load i64, i64* %6, align 8, !llfi_index !2034
  %8 = load i64*, i64** %5, align 8, !llfi_index !2035
  %9 = load i64, i64* %8, align 8, !llfi_index !2036
  %10 = icmp ult i64 %7, %9, !llfi_index !2037
  br i1 %10, label %11, label %13, !llfi_index !2038

11:                                               ; preds = %2
  %12 = load i64*, i64** %5, align 8, !llfi_index !2039
  store i64* %12, i64** %3, align 8, !llfi_index !2040
  br label %15, !llfi_index !2041

13:                                               ; preds = %2
  %14 = load i64*, i64** %4, align 8, !llfi_index !2042
  store i64* %14, i64** %3, align 8, !llfi_index !2043
  br label %15, !llfi_index !2044

15:                                               ; preds = %13, %11
  %16 = load i64*, i64** %3, align 8, !llfi_index !2045
  ret i64* %16, !llfi_index !2046
}

; Function Attrs: mustprogress noinline nounwind uwtable
define linkonce_odr dso_local nonnull align 1 dereferenceable(1) %"struct.std::less"* @_ZNKSt12_Vector_baseISt4pairIiiESaIS1_EE19_M_get_Tp_allocatorEv(%"struct.std::_Vector_base"* nonnull align 8 dereferenceable(24) %0) #3 comdat align 2 {
  %2 = alloca %"struct.std::_Vector_base"*, align 8, !llfi_index !2047
  store %"struct.std::_Vector_base"* %0, %"struct.std::_Vector_base"** %2, align 8, !llfi_index !2048
  %3 = load %"struct.std::_Vector_base"*, %"struct.std::_Vector_base"** %2, align 8, !llfi_index !2049
  %4 = getelementptr inbounds %"struct.std::_Vector_base", %"struct.std::_Vector_base"* %3, i32 0, i32 0, !llfi_index !2050
  %5 = bitcast %"struct.std::_Vector_base<std::pair<int, int>, std::allocator<std::pair<int, int>>>::_Vector_impl"* %4 to %"struct.std::less"*, !llfi_index !2051
  ret %"struct.std::less"* %5, !llfi_index !2052
}

; Function Attrs: mustprogress noinline nounwind uwtable
define linkonce_odr dso_local i64 @_ZNSt6vectorISt4pairIiiESaIS1_EE11_S_max_sizeERKS2_(%"struct.std::less"* nonnull align 1 dereferenceable(1) %0) #3 comdat align 2 personality i8* bitcast (i32 (...)* @__gxx_personality_v0 to i8*) {
  %2 = alloca %"struct.std::less"*, align 8, !llfi_index !2053
  %3 = alloca i64, align 8, !llfi_index !2054
  %4 = alloca i64, align 8, !llfi_index !2055
  store %"struct.std::less"* %0, %"struct.std::less"** %2, align 8, !llfi_index !2056
  store i64 1152921504606846975, i64* %3, align 8, !llfi_index !2057
  %5 = load %"struct.std::less"*, %"struct.std::less"** %2, align 8, !llfi_index !2058
  %6 = call i64 @_ZNSt16allocator_traitsISaISt4pairIiiEEE8max_sizeERKS2_(%"struct.std::less"* nonnull align 1 dereferenceable(1) %5) #2, !llfi_index !2059
  store i64 %6, i64* %4, align 8, !llfi_index !2060
  %7 = invoke nonnull align 8 dereferenceable(8) i64* @_ZSt3minImERKT_S2_S2_(i64* nonnull align 8 dereferenceable(8) %3, i64* nonnull align 8 dereferenceable(8) %4)
          to label %8 unwind label %10, !llfi_index !2061

8:                                                ; preds = %1
  %9 = load i64, i64* %7, align 8, !llfi_index !2062
  ret i64 %9, !llfi_index !2063

10:                                               ; preds = %1
  %11 = landingpad { i8*, i32 }
          catch i8* null, !llfi_index !2064
  %12 = extractvalue { i8*, i32 } %11, 0, !llfi_index !2065
  call void @__clang_call_terminate(i8* %12) #15, !llfi_index !2066
  unreachable, !llfi_index !2067
}

; Function Attrs: mustprogress noinline nounwind uwtable
define linkonce_odr dso_local i64 @_ZNSt16allocator_traitsISaISt4pairIiiEEE8max_sizeERKS2_(%"struct.std::less"* nonnull align 1 dereferenceable(1) %0) #3 comdat align 2 {
  %2 = alloca %"struct.std::less"*, align 8, !llfi_index !2068
  store %"struct.std::less"* %0, %"struct.std::less"** %2, align 8, !llfi_index !2069
  %3 = load %"struct.std::less"*, %"struct.std::less"** %2, align 8, !llfi_index !2070
  %4 = bitcast %"struct.std::less"* %3 to %"struct.std::less"*, !llfi_index !2071
  %5 = call i64 @_ZNK9__gnu_cxx13new_allocatorISt4pairIiiEE8max_sizeEv(%"struct.std::less"* nonnull align 1 dereferenceable(1) %4) #2, !llfi_index !2072
  ret i64 %5, !llfi_index !2073
}

; Function Attrs: mustprogress noinline nounwind uwtable
define linkonce_odr dso_local nonnull align 8 dereferenceable(8) i64* @_ZSt3minImERKT_S2_S2_(i64* nonnull align 8 dereferenceable(8) %0, i64* nonnull align 8 dereferenceable(8) %1) #3 comdat {
  %3 = alloca i64*, align 8, !llfi_index !2074
  %4 = alloca i64*, align 8, !llfi_index !2075
  %5 = alloca i64*, align 8, !llfi_index !2076
  store i64* %0, i64** %4, align 8, !llfi_index !2077
  store i64* %1, i64** %5, align 8, !llfi_index !2078
  %6 = load i64*, i64** %5, align 8, !llfi_index !2079
  %7 = load i64, i64* %6, align 8, !llfi_index !2080
  %8 = load i64*, i64** %4, align 8, !llfi_index !2081
  %9 = load i64, i64* %8, align 8, !llfi_index !2082
  %10 = icmp ult i64 %7, %9, !llfi_index !2083
  br i1 %10, label %11, label %13, !llfi_index !2084

11:                                               ; preds = %2
  %12 = load i64*, i64** %5, align 8, !llfi_index !2085
  store i64* %12, i64** %3, align 8, !llfi_index !2086
  br label %15, !llfi_index !2087

13:                                               ; preds = %2
  %14 = load i64*, i64** %4, align 8, !llfi_index !2088
  store i64* %14, i64** %3, align 8, !llfi_index !2089
  br label %15, !llfi_index !2090

15:                                               ; preds = %13, %11
  %16 = load i64*, i64** %3, align 8, !llfi_index !2091
  ret i64* %16, !llfi_index !2092
}

; Function Attrs: mustprogress noinline nounwind uwtable
define linkonce_odr dso_local void @_ZN9__gnu_cxx13new_allocatorISt4pairIiiEE9constructIS2_JRKS2_EEEvPT_DpOT0_(%"struct.std::less"* nonnull align 1 dereferenceable(1) %0, %"struct.std::pair"* %1, %"struct.std::pair"* nonnull align 4 dereferenceable(8) %2) #3 comdat align 2 {
  %4 = alloca %"struct.std::less"*, align 8, !llfi_index !2093
  %5 = alloca %"struct.std::pair"*, align 8, !llfi_index !2094
  %6 = alloca %"struct.std::pair"*, align 8, !llfi_index !2095
  store %"struct.std::less"* %0, %"struct.std::less"** %4, align 8, !llfi_index !2096
  store %"struct.std::pair"* %1, %"struct.std::pair"** %5, align 8, !llfi_index !2097
  store %"struct.std::pair"* %2, %"struct.std::pair"** %6, align 8, !llfi_index !2098
  %7 = load %"struct.std::less"*, %"struct.std::less"** %4, align 8, !llfi_index !2099
  %8 = load %"struct.std::pair"*, %"struct.std::pair"** %5, align 8, !llfi_index !2100
  %9 = bitcast %"struct.std::pair"* %8 to i8*, !llfi_index !2101
  %10 = bitcast i8* %9 to %"struct.std::pair"*, !llfi_index !2102
  %11 = load %"struct.std::pair"*, %"struct.std::pair"** %6, align 8, !llfi_index !2103
  %12 = call nonnull align 4 dereferenceable(8) %"struct.std::pair"* @_ZSt7forwardIRKSt4pairIiiEEOT_RNSt16remove_referenceIS4_E4typeE(%"struct.std::pair"* nonnull align 4 dereferenceable(8) %11) #2, !llfi_index !2104
  %13 = bitcast %"struct.std::pair"* %10 to i8*, !llfi_index !2105
  %14 = bitcast %"struct.std::pair"* %12 to i8*, !llfi_index !2106
  call void @llvm.memcpy.p0i8.p0i8.i64(i8* align 4 %13, i8* align 4 %14, i64 8, i1 false), !llfi_index !2107
  ret void, !llfi_index !2108
}

; Function Attrs: mustprogress noinline nounwind uwtable
define linkonce_odr dso_local void @_ZNSt12_Vector_baseISt4pairIiiESaIS1_EE17_Vector_impl_data12_M_swap_dataERS4_(%"struct.std::_Vector_base<std::pair<int, int>, std::allocator<std::pair<int, int>>>::_Vector_impl_data"* nonnull align 8 dereferenceable(24) %0, %"struct.std::_Vector_base<std::pair<int, int>, std::allocator<std::pair<int, int>>>::_Vector_impl_data"* nonnull align 8 dereferenceable(24) %1) #3 comdat align 2 {
  %3 = alloca %"struct.std::_Vector_base<std::pair<int, int>, std::allocator<std::pair<int, int>>>::_Vector_impl_data"*, align 8, !llfi_index !2109
  %4 = alloca %"struct.std::_Vector_base<std::pair<int, int>, std::allocator<std::pair<int, int>>>::_Vector_impl_data"*, align 8, !llfi_index !2110
  %5 = alloca %"struct.std::_Vector_base<std::pair<int, int>, std::allocator<std::pair<int, int>>>::_Vector_impl_data", align 8, !llfi_index !2111
  store %"struct.std::_Vector_base<std::pair<int, int>, std::allocator<std::pair<int, int>>>::_Vector_impl_data"* %0, %"struct.std::_Vector_base<std::pair<int, int>, std::allocator<std::pair<int, int>>>::_Vector_impl_data"** %3, align 8, !llfi_index !2112
  store %"struct.std::_Vector_base<std::pair<int, int>, std::allocator<std::pair<int, int>>>::_Vector_impl_data"* %1, %"struct.std::_Vector_base<std::pair<int, int>, std::allocator<std::pair<int, int>>>::_Vector_impl_data"** %4, align 8, !llfi_index !2113
  %6 = load %"struct.std::_Vector_base<std::pair<int, int>, std::allocator<std::pair<int, int>>>::_Vector_impl_data"*, %"struct.std::_Vector_base<std::pair<int, int>, std::allocator<std::pair<int, int>>>::_Vector_impl_data"** %3, align 8, !llfi_index !2114
  call void @_ZNSt12_Vector_baseISt4pairIiiESaIS1_EE17_Vector_impl_dataC2Ev(%"struct.std::_Vector_base<std::pair<int, int>, std::allocator<std::pair<int, int>>>::_Vector_impl_data"* nonnull align 8 dereferenceable(24) %5) #2, !llfi_index !2115
  call void @_ZNSt12_Vector_baseISt4pairIiiESaIS1_EE17_Vector_impl_data12_M_copy_dataERKS4_(%"struct.std::_Vector_base<std::pair<int, int>, std::allocator<std::pair<int, int>>>::_Vector_impl_data"* nonnull align 8 dereferenceable(24) %5, %"struct.std::_Vector_base<std::pair<int, int>, std::allocator<std::pair<int, int>>>::_Vector_impl_data"* nonnull align 8 dereferenceable(24) %6) #2, !llfi_index !2116
  %7 = load %"struct.std::_Vector_base<std::pair<int, int>, std::allocator<std::pair<int, int>>>::_Vector_impl_data"*, %"struct.std::_Vector_base<std::pair<int, int>, std::allocator<std::pair<int, int>>>::_Vector_impl_data"** %4, align 8, !llfi_index !2117
  call void @_ZNSt12_Vector_baseISt4pairIiiESaIS1_EE17_Vector_impl_data12_M_copy_dataERKS4_(%"struct.std::_Vector_base<std::pair<int, int>, std::allocator<std::pair<int, int>>>::_Vector_impl_data"* nonnull align 8 dereferenceable(24) %6, %"struct.std::_Vector_base<std::pair<int, int>, std::allocator<std::pair<int, int>>>::_Vector_impl_data"* nonnull align 8 dereferenceable(24) %7) #2, !llfi_index !2118
  %8 = load %"struct.std::_Vector_base<std::pair<int, int>, std::allocator<std::pair<int, int>>>::_Vector_impl_data"*, %"struct.std::_Vector_base<std::pair<int, int>, std::allocator<std::pair<int, int>>>::_Vector_impl_data"** %4, align 8, !llfi_index !2119
  call void @_ZNSt12_Vector_baseISt4pairIiiESaIS1_EE17_Vector_impl_data12_M_copy_dataERKS4_(%"struct.std::_Vector_base<std::pair<int, int>, std::allocator<std::pair<int, int>>>::_Vector_impl_data"* nonnull align 8 dereferenceable(24) %8, %"struct.std::_Vector_base<std::pair<int, int>, std::allocator<std::pair<int, int>>>::_Vector_impl_data"* nonnull align 8 dereferenceable(24) %5) #2, !llfi_index !2120
  ret void, !llfi_index !2121
}

; Function Attrs: mustprogress noinline uwtable
define linkonce_odr dso_local void @_ZN9__gnu_cxx14__alloc_traitsISaISt4pairIiiEES2_E10_S_on_swapERS3_S5_(%"struct.std::less"* nonnull align 1 dereferenceable(1) %0, %"struct.std::less"* nonnull align 1 dereferenceable(1) %1) #4 comdat align 2 {
  %3 = alloca %"struct.std::less"*, align 8, !llfi_index !2122
  %4 = alloca %"struct.std::less"*, align 8, !llfi_index !2123
  store %"struct.std::less"* %0, %"struct.std::less"** %3, align 8, !llfi_index !2124
  store %"struct.std::less"* %1, %"struct.std::less"** %4, align 8, !llfi_index !2125
  %5 = load %"struct.std::less"*, %"struct.std::less"** %3, align 8, !llfi_index !2126
  %6 = load %"struct.std::less"*, %"struct.std::less"** %4, align 8, !llfi_index !2127
  call void @_ZSt15__alloc_on_swapISaISt4pairIiiEEEvRT_S4_(%"struct.std::less"* nonnull align 1 dereferenceable(1) %5, %"struct.std::less"* nonnull align 1 dereferenceable(1) %6), !llfi_index !2128
  ret void, !llfi_index !2129
}

; Function Attrs: mustprogress noinline uwtable
define linkonce_odr dso_local void @_ZSt15__alloc_on_swapISaISt4pairIiiEEEvRT_S4_(%"struct.std::less"* nonnull align 1 dereferenceable(1) %0, %"struct.std::less"* nonnull align 1 dereferenceable(1) %1) #4 comdat {
  %3 = alloca %"struct.std::less"*, align 8, !llfi_index !2130
  %4 = alloca %"struct.std::less"*, align 8, !llfi_index !2131
  %5 = alloca %"struct.std::less", align 1, !llfi_index !2132
  store %"struct.std::less"* %0, %"struct.std::less"** %3, align 8, !llfi_index !2133
  store %"struct.std::less"* %1, %"struct.std::less"** %4, align 8, !llfi_index !2134
  %6 = load %"struct.std::less"*, %"struct.std::less"** %3, align 8, !llfi_index !2135
  %7 = load %"struct.std::less"*, %"struct.std::less"** %4, align 8, !llfi_index !2136
  call void @_ZSt18__do_alloc_on_swapISaISt4pairIiiEEEvRT_S4_St17integral_constantIbLb0EE(%"struct.std::less"* nonnull align 1 dereferenceable(1) %6, %"struct.std::less"* nonnull align 1 dereferenceable(1) %7), !llfi_index !2137
  ret void, !llfi_index !2138
}

; Function Attrs: mustprogress noinline nounwind uwtable
define linkonce_odr dso_local void @_ZSt18__do_alloc_on_swapISaISt4pairIiiEEEvRT_S4_St17integral_constantIbLb0EE(%"struct.std::less"* nonnull align 1 dereferenceable(1) %0, %"struct.std::less"* nonnull align 1 dereferenceable(1) %1) #3 comdat {
  %3 = alloca %"struct.std::less", align 1, !llfi_index !2139
  %4 = alloca %"struct.std::less"*, align 8, !llfi_index !2140
