; ModuleID = '/home/hjiang/Computation-Kernel-Dataset/experiments/Fault_injection_0308_parall/O0/DistantPairs/DistantPairs.ll'
source_filename = "llvm-link"
target datalayout = "e-m:e-p270:32:32-p271:32:32-p272:64:64-i64:64-f80:128-n8:16:32:64-S128"
target triple = "x86_64-unknown-linux-gnu"

%"class.std::ios_base::Init" = type { i8 }
%"struct.std::pair" = type { i32, i32 }
%"class.std::basic_istream" = type { i32 (...)**, i64, %"class.std::basic_ios" }
%"class.std::basic_ios" = type { %"class.std::ios_base", %"class.std::basic_ostream"*, i8, i8, %"class.std::basic_streambuf"*, %"class.std::ctype"*, %"class.std::num_put"*, %"class.std::num_put"* }
%"class.std::ios_base" = type { i32 (...)**, i64, i64, i32, i32, i32, %"struct.std::ios_base::_Callback_list"*, %"struct.std::ios_base::_Words", [8 x %"struct.std::ios_base::_Words"], i32, %"struct.std::ios_base::_Words"*, %"class.std::locale" }
%"struct.std::ios_base::_Callback_list" = type { %"struct.std::ios_base::_Callback_list"*, void (i32, %"class.std::ios_base"*, i32)*, i32, i32 }
%"struct.std::ios_base::_Words" = type { i8*, i64 }
%"class.std::locale" = type { %"class.std::locale::_Impl"* }
%"class.std::locale::_Impl" = type { i32, %"class.std::locale::facet"**, i64, %"class.std::locale::facet"**, i8** }
%"class.std::locale::facet" = type <{ i32 (...)**, i32, [4 x i8] }>
%"class.std::basic_ostream" = type { i32 (...)**, %"class.std::basic_ios" }
%"class.std::basic_streambuf" = type { i32 (...)**, i8*, i8*, i8*, i8*, i8*, i8*, %"class.std::locale" }
%"class.std::ctype" = type <{ %"class.std::locale::facet.base", [4 x i8], %struct.__locale_struct*, i8, [7 x i8], i32*, i32*, i16*, i8, [256 x i8], [256 x i8], i8, [6 x i8] }>
%"class.std::locale::facet.base" = type <{ i32 (...)**, i32 }>
%struct.__locale_struct = type { [13 x %struct.__locale_data*], i16*, i32*, i32*, [13 x i8*] }
%struct.__locale_data = type opaque
%"class.std::num_put" = type { %"class.std::locale::facet.base", [4 x i8] }
%struct._IO_FILE = type { i32, i8*, i8*, i8*, i8*, i8*, i8*, i8*, i8*, i8*, i8*, i8*, %struct._IO_marker*, %struct._IO_FILE*, i32, i32, i64, i16, i8, [1 x i8], i8*, i64, %struct._IO_codecvt*, %struct._IO_wide_data*, %struct._IO_FILE*, i8*, i64, i32, [20 x i8] }
%struct._IO_marker = type opaque
%struct._IO_codecvt = type opaque
%struct._IO_wide_data = type opaque
%"class.std::__cxx11::basic_string" = type { %"struct.std::__cxx11::basic_string<char>::_Alloc_hider", i64, %union.anon }
%"struct.std::__cxx11::basic_string<char>::_Alloc_hider" = type { i8* }
%union.anon = type { i64, [8 x i8] }

$_ZSt3minIiERKT_S2_S2_ = comdat any

$_ZSt3maxIiERKT_S2_S2_ = comdat any

$_ZSt4swapIiENSt9enable_ifIXsr6__and_ISt6__not_ISt15__is_tuple_likeIT_EESt21is_move_constructibleIS3_ESt18is_move_assignableIS3_EEE5valueEvE4typeERS3_SC_ = comdat any

$_ZSt4sortIPSt4pairIiiEEvT_S3_ = comdat any

$_ZSt7reverseIPSt4pairIiiEEvT_S3_ = comdat any

$_ZSt19__iterator_categoryIPSt4pairIiiEENSt15iterator_traitsIT_E17iterator_categoryERKS4_ = comdat any

$_ZSt9__reverseIPSt4pairIiiEEvT_S3_St26random_access_iterator_tag = comdat any

$_ZSt9iter_swapIPSt4pairIiiES2_EvT_T0_ = comdat any

$_ZSt4swapIiiENSt9enable_ifIXsr6__and_ISt14__is_swappableIT_ES1_IT0_EEE5valueEvE4typeERSt4pairIS2_S4_ESA_ = comdat any

$_ZNSt4pairIiiE4swapERS0_ = comdat any

$_ZN9__gnu_cxx5__ops16__iter_less_iterEv = comdat any

$_ZSt6__sortIPSt4pairIiiEN9__gnu_cxx5__ops15_Iter_less_iterEEvT_S6_T0_ = comdat any

$_ZSt4__lgl = comdat any

$_ZSt16__introsort_loopIPSt4pairIiiElN9__gnu_cxx5__ops15_Iter_less_iterEEvT_S6_T0_T1_ = comdat any

$_ZSt22__final_insertion_sortIPSt4pairIiiEN9__gnu_cxx5__ops15_Iter_less_iterEEvT_S6_T0_ = comdat any

$_ZSt16__insertion_sortIPSt4pairIiiEN9__gnu_cxx5__ops15_Iter_less_iterEEvT_S6_T0_ = comdat any

$_ZSt26__unguarded_insertion_sortIPSt4pairIiiEN9__gnu_cxx5__ops15_Iter_less_iterEEvT_S6_T0_ = comdat any

$_ZN9__gnu_cxx5__ops15__val_comp_iterENS0_15_Iter_less_iterE = comdat any

$_ZSt25__unguarded_linear_insertIPSt4pairIiiEN9__gnu_cxx5__ops14_Val_less_iterEEvT_T0_ = comdat any

$_ZSt4moveIRSt4pairIiiEEONSt16remove_referenceIT_E4typeEOS4_ = comdat any

$_ZNK9__gnu_cxx5__ops14_Val_less_iterclISt4pairIiiEPS4_EEbRT_T0_ = comdat any

$_ZNSt4pairIiiEaSEOS0_ = comdat any

$_ZSt7forwardIiEOT_RNSt16remove_referenceIS0_E4typeE = comdat any

$_ZStltIiiEbRKSt4pairIT_T0_ES5_ = comdat any

$_ZNK9__gnu_cxx5__ops15_Iter_less_iterclIPSt4pairIiiES5_EEbT_T0_ = comdat any

$_ZSt13move_backwardIPSt4pairIiiES2_ET0_T_S4_S3_ = comdat any

$_ZSt12__miter_baseIPSt4pairIiiEET_S3_ = comdat any

$_ZSt23__copy_move_backward_a2ILb1EPSt4pairIiiES2_ET1_T0_S4_S3_ = comdat any

$_ZSt12__niter_baseIPSt4pairIiiEET_S3_ = comdat any

$_ZSt22__copy_move_backward_aILb1EPSt4pairIiiES2_ET1_T0_S4_S3_ = comdat any

$_ZSt12__niter_wrapIPSt4pairIiiEET_RKS3_S3_ = comdat any

$_ZNSt20__copy_move_backwardILb1ELb0ESt26random_access_iterator_tagE13__copy_move_bIPSt4pairIiiES5_EET0_T_S7_S6_ = comdat any

$_ZSt14__partial_sortIPSt4pairIiiEN9__gnu_cxx5__ops15_Iter_less_iterEEvT_S6_S6_T0_ = comdat any

$_ZSt27__unguarded_partition_pivotIPSt4pairIiiEN9__gnu_cxx5__ops15_Iter_less_iterEET_S6_S6_T0_ = comdat any

$_ZSt22__move_median_to_firstIPSt4pairIiiEN9__gnu_cxx5__ops15_Iter_less_iterEEvT_S6_S6_S6_T0_ = comdat any

$_ZSt21__unguarded_partitionIPSt4pairIiiEN9__gnu_cxx5__ops15_Iter_less_iterEET_S6_S6_S6_T0_ = comdat any

$_ZSt13__heap_selectIPSt4pairIiiEN9__gnu_cxx5__ops15_Iter_less_iterEEvT_S6_S6_T0_ = comdat any

$_ZSt11__sort_heapIPSt4pairIiiEN9__gnu_cxx5__ops15_Iter_less_iterEEvT_S6_RT0_ = comdat any

$_ZSt10__pop_heapIPSt4pairIiiEN9__gnu_cxx5__ops15_Iter_less_iterEEvT_S6_S6_RT0_ = comdat any

$_ZSt13__adjust_heapIPSt4pairIiiElS1_N9__gnu_cxx5__ops15_Iter_less_iterEEvT_T0_S7_T1_T2_ = comdat any

$_ZSt4moveIRN9__gnu_cxx5__ops15_Iter_less_iterEEONSt16remove_referenceIT_E4typeEOS5_ = comdat any

$_ZN9__gnu_cxx5__ops14_Iter_less_valC2ENS0_15_Iter_less_iterE = comdat any

$_ZSt11__push_heapIPSt4pairIiiElS1_N9__gnu_cxx5__ops14_Iter_less_valEEvT_T0_S7_T1_RT2_ = comdat any

$_ZNK9__gnu_cxx5__ops14_Iter_less_valclIPSt4pairIiiES4_EEbT_RT0_ = comdat any

$_ZSt11__make_heapIPSt4pairIiiEN9__gnu_cxx5__ops15_Iter_less_iterEEvT_S6_RT0_ = comdat any

$_ZSt4moveIRiEONSt16remove_referenceIT_E4typeEOS2_ = comdat any

@llvm.global_ctors = appending global [1 x { i32, void ()*, i8* }] [{ i32, void ()*, i8* } { i32 65535, void ()* @_GLOBAL__sub_I_DistantPairs.cpp, i8* null }]
@_ZStL8__ioinit = internal global %"class.std::ios_base::Init" zeroinitializer, align 1
@C = dso_local global i32 0, align 4
@N = dso_local global i32 0, align 4
@P = dso_local global [101010 x %"struct.std::pair"] zeroinitializer, align 16
@Q = dso_local global [101010 x %"struct.std::pair"] zeroinitializer, align 16
@S = dso_local global [101010 x %"struct.std::pair"] zeroinitializer, align 16
@ma = dso_local global i32 0, align 4
@_ZSt3cin = external dso_local global %"class.std::basic_istream", align 8
@_ZSt4cout = external dso_local global %"class.std::basic_ostream", align 8
@stdin = external dso_local global %struct._IO_FILE*, align 8

; Function Attrs: noinline uwtable
define internal void @_GLOBAL__sub_I_DistantPairs.cpp() #0 section ".text.startup" {
  call void @__cxx_global_var_init(), !llfi_index !4
  ret void, !llfi_index !5
}

; Function Attrs: noinline uwtable
define internal void @__cxx_global_var_init() #0 section ".text.startup" {
  call void @_ZNSt8ios_base4InitC1Ev(%"class.std::ios_base::Init"* nonnull align 1 dereferenceable(1) @_ZStL8__ioinit), !llfi_index !6
  %1 = call i32 @atexit(void ()* @__dtor__ZStL8__ioinit) #2, !llfi_index !7
  ret void, !llfi_index !8
}

declare dso_local void @_ZNSt8ios_base4InitC1Ev(%"class.std::ios_base::Init"* nonnull align 1 dereferenceable(1)) unnamed_addr #1

; Function Attrs: noinline uwtable
define internal void @__dtor__ZStL8__ioinit() #0 section ".text.startup" {
  call void @_ZNSt8ios_base4InitD1Ev(%"class.std::ios_base::Init"* @_ZStL8__ioinit), !llfi_index !9
  ret void, !llfi_index !10
}

; Function Attrs: nounwind
declare dso_local i32 @atexit(void ()*) #2

; Function Attrs: nounwind
declare dso_local void @_ZNSt8ios_base4InitD1Ev(%"class.std::ios_base::Init"* nonnull align 1 dereferenceable(1)) unnamed_addr #3

; Function Attrs: mustprogress noinline uwtable
define dso_local i32 @_Z2scii(i32 %0, i32 %1) #4 {
  %3 = alloca i32, align 4, !llfi_index !11
  %4 = alloca i32, align 4, !llfi_index !12
  %5 = alloca i32, align 4, !llfi_index !13
  %6 = alloca [4 x i32], align 16, !llfi_index !14
  %7 = alloca [4 x i32], align 16, !llfi_index !15
  %8 = alloca i32, align 4, !llfi_index !16
  %9 = alloca i32, align 4, !llfi_index !17
  store i32 %0, i32* %4, align 4, !llfi_index !18
  store i32 %1, i32* %5, align 4, !llfi_index !19
  %10 = getelementptr inbounds [4 x i32], [4 x i32]* %6, i64 0, i64 0, !llfi_index !20
  %11 = load i32, i32* %4, align 4, !llfi_index !21
  %12 = sext i32 %11 to i64, !llfi_index !22
  %13 = getelementptr inbounds [101010 x %"struct.std::pair"], [101010 x %"struct.std::pair"]* @Q, i64 0, i64 %12, !llfi_index !23
  %14 = getelementptr inbounds %"struct.std::pair", %"struct.std::pair"* %13, i32 0, i32 0, !llfi_index !24
  %15 = load i32, i32* %14, align 8, !llfi_index !25
  store i32 %15, i32* %10, align 4, !llfi_index !26
  %16 = getelementptr inbounds i32, i32* %10, i64 1, !llfi_index !27
  %17 = load i32, i32* %4, align 4, !llfi_index !28
  %18 = sext i32 %17 to i64, !llfi_index !29
  %19 = getelementptr inbounds [101010 x %"struct.std::pair"], [101010 x %"struct.std::pair"]* @Q, i64 0, i64 %18, !llfi_index !30
  %20 = getelementptr inbounds %"struct.std::pair", %"struct.std::pair"* %19, i32 0, i32 1, !llfi_index !31
  %21 = load i32, i32* %20, align 4, !llfi_index !32
  store i32 %21, i32* %16, align 4, !llfi_index !33
  %22 = getelementptr inbounds i32, i32* %16, i64 1, !llfi_index !34
  %23 = load i32, i32* %5, align 4, !llfi_index !35
  %24 = sext i32 %23 to i64, !llfi_index !36
  %25 = getelementptr inbounds [101010 x %"struct.std::pair"], [101010 x %"struct.std::pair"]* @Q, i64 0, i64 %24, !llfi_index !37
  %26 = getelementptr inbounds %"struct.std::pair", %"struct.std::pair"* %25, i32 0, i32 0, !llfi_index !38
  %27 = load i32, i32* %26, align 8, !llfi_index !39
  store i32 %27, i32* %22, align 4, !llfi_index !40
  %28 = getelementptr inbounds i32, i32* %22, i64 1, !llfi_index !41
  %29 = load i32, i32* %5, align 4, !llfi_index !42
  %30 = sext i32 %29 to i64, !llfi_index !43
  %31 = getelementptr inbounds [101010 x %"struct.std::pair"], [101010 x %"struct.std::pair"]* @Q, i64 0, i64 %30, !llfi_index !44
  %32 = getelementptr inbounds %"struct.std::pair", %"struct.std::pair"* %31, i32 0, i32 1, !llfi_index !45
  %33 = load i32, i32* %32, align 4, !llfi_index !46
  store i32 %33, i32* %28, align 4, !llfi_index !47
  %34 = getelementptr inbounds [4 x i32], [4 x i32]* %7, i64 0, i64 0, !llfi_index !48
  %35 = getelementptr inbounds [4 x i32], [4 x i32]* %6, i64 0, i64 0, !llfi_index !49
  %36 = load i32, i32* %35, align 16, !llfi_index !50
  %37 = getelementptr inbounds [4 x i32], [4 x i32]* %6, i64 0, i64 2, !llfi_index !51
  %38 = load i32, i32* %37, align 8, !llfi_index !52
  %39 = sub nsw i32 %36, %38, !llfi_index !53
  %40 = call i32 @abs(i32 %39) #11, !llfi_index !54
  store i32 %40, i32* %34, align 4, !llfi_index !55
  %41 = getelementptr inbounds i32, i32* %34, i64 1, !llfi_index !56
  %42 = getelementptr inbounds [4 x i32], [4 x i32]* %6, i64 0, i64 0, !llfi_index !57
  %43 = load i32, i32* %42, align 16, !llfi_index !58
  %44 = getelementptr inbounds [4 x i32], [4 x i32]* %6, i64 0, i64 3, !llfi_index !59
  %45 = load i32, i32* %44, align 4, !llfi_index !60
  %46 = sub nsw i32 %43, %45, !llfi_index !61
  %47 = call i32 @abs(i32 %46) #11, !llfi_index !62
  store i32 %47, i32* %41, align 4, !llfi_index !63
  %48 = getelementptr inbounds i32, i32* %41, i64 1, !llfi_index !64
  %49 = getelementptr inbounds [4 x i32], [4 x i32]* %6, i64 0, i64 1, !llfi_index !65
  %50 = load i32, i32* %49, align 4, !llfi_index !66
  %51 = getelementptr inbounds [4 x i32], [4 x i32]* %6, i64 0, i64 2, !llfi_index !67
  %52 = load i32, i32* %51, align 8, !llfi_index !68
  %53 = sub nsw i32 %50, %52, !llfi_index !69
  %54 = call i32 @abs(i32 %53) #11, !llfi_index !70
  store i32 %54, i32* %48, align 4, !llfi_index !71
  %55 = getelementptr inbounds i32, i32* %48, i64 1, !llfi_index !72
  %56 = getelementptr inbounds [4 x i32], [4 x i32]* %6, i64 0, i64 1, !llfi_index !73
  %57 = load i32, i32* %56, align 4, !llfi_index !74
  %58 = getelementptr inbounds [4 x i32], [4 x i32]* %6, i64 0, i64 3, !llfi_index !75
  %59 = load i32, i32* %58, align 4, !llfi_index !76
  %60 = sub nsw i32 %57, %59, !llfi_index !77
  %61 = call i32 @abs(i32 %60) #11, !llfi_index !78
  store i32 %61, i32* %55, align 4, !llfi_index !79
  %62 = getelementptr inbounds [4 x i32], [4 x i32]* %7, i64 0, i64 0, !llfi_index !80
  %63 = getelementptr inbounds [4 x i32], [4 x i32]* %7, i64 0, i64 1, !llfi_index !81
  %64 = call nonnull align 4 dereferenceable(4) i32* @_ZSt3minIiERKT_S2_S2_(i32* nonnull align 4 dereferenceable(4) %62, i32* nonnull align 4 dereferenceable(4) %63), !llfi_index !82
  %65 = getelementptr inbounds [4 x i32], [4 x i32]* %7, i64 0, i64 2, !llfi_index !83
  %66 = getelementptr inbounds [4 x i32], [4 x i32]* %7, i64 0, i64 3, !llfi_index !84
  %67 = call nonnull align 4 dereferenceable(4) i32* @_ZSt3minIiERKT_S2_S2_(i32* nonnull align 4 dereferenceable(4) %65, i32* nonnull align 4 dereferenceable(4) %66), !llfi_index !85
  %68 = call nonnull align 4 dereferenceable(4) i32* @_ZSt3minIiERKT_S2_S2_(i32* nonnull align 4 dereferenceable(4) %64, i32* nonnull align 4 dereferenceable(4) %67), !llfi_index !86
  %69 = load i32, i32* %68, align 4, !llfi_index !87
  store i32 %69, i32* %8, align 4, !llfi_index !88
  %70 = load i32, i32* %8, align 4, !llfi_index !89
  %71 = load i32, i32* @ma, align 4, !llfi_index !90
  %72 = icmp sle i32 %70, %71, !llfi_index !91
  br i1 %72, label %73, label %74, !llfi_index !92

73:                                               ; preds = %2
  store i32 0, i32* %3, align 4, !llfi_index !93
  br label %95, !llfi_index !94

74:                                               ; preds = %2
  %75 = getelementptr inbounds [4 x i32], [4 x i32]* %7, i64 0, i64 0, !llfi_index !95
  %76 = getelementptr inbounds [4 x i32], [4 x i32]* %7, i64 0, i64 1, !llfi_index !96
  %77 = call nonnull align 4 dereferenceable(4) i32* @_ZSt3maxIiERKT_S2_S2_(i32* nonnull align 4 dereferenceable(4) %75, i32* nonnull align 4 dereferenceable(4) %76), !llfi_index !97
  %78 = getelementptr inbounds [4 x i32], [4 x i32]* %7, i64 0, i64 2, !llfi_index !98
  %79 = getelementptr inbounds [4 x i32], [4 x i32]* %7, i64 0, i64 3, !llfi_index !99
  %80 = call nonnull align 4 dereferenceable(4) i32* @_ZSt3maxIiERKT_S2_S2_(i32* nonnull align 4 dereferenceable(4) %78, i32* nonnull align 4 dereferenceable(4) %79), !llfi_index !100
  %81 = call nonnull align 4 dereferenceable(4) i32* @_ZSt3maxIiERKT_S2_S2_(i32* nonnull align 4 dereferenceable(4) %77, i32* nonnull align 4 dereferenceable(4) %80), !llfi_index !101
  %82 = load i32, i32* %81, align 4, !llfi_index !102
  store i32 %82, i32* %9, align 4, !llfi_index !103
  %83 = load i32, i32* %4, align 4, !llfi_index !104
  %84 = sext i32 %83 to i64, !llfi_index !105
  %85 = getelementptr inbounds [101010 x %"struct.std::pair"], [101010 x %"struct.std::pair"]* @S, i64 0, i64 %84, !llfi_index !106
  %86 = getelementptr inbounds %"struct.std::pair", %"struct.std::pair"* %85, i32 0, i32 0, !llfi_index !107
  %87 = load i32, i32* %5, align 4, !llfi_index !108
  %88 = sext i32 %87 to i64, !llfi_index !109
  %89 = getelementptr inbounds [101010 x %"struct.std::pair"], [101010 x %"struct.std::pair"]* @S, i64 0, i64 %88, !llfi_index !110
  %90 = getelementptr inbounds %"struct.std::pair", %"struct.std::pair"* %89, i32 0, i32 0, !llfi_index !111
  %91 = call nonnull align 4 dereferenceable(4) i32* @_ZSt3minIiERKT_S2_S2_(i32* nonnull align 4 dereferenceable(4) %86, i32* nonnull align 4 dereferenceable(4) %90), !llfi_index !112
  %92 = call nonnull align 4 dereferenceable(4) i32* @_ZSt3minIiERKT_S2_S2_(i32* nonnull align 4 dereferenceable(4) %8, i32* nonnull align 4 dereferenceable(4) %9), !llfi_index !113
  %93 = call nonnull align 4 dereferenceable(4) i32* @_ZSt3minIiERKT_S2_S2_(i32* nonnull align 4 dereferenceable(4) %91, i32* nonnull align 4 dereferenceable(4) %92), !llfi_index !114
  %94 = load i32, i32* %93, align 4, !llfi_index !115
  store i32 %94, i32* %3, align 4, !llfi_index !116
  br label %95, !llfi_index !117

95:                                               ; preds = %74, %73
  %96 = load i32, i32* %3, align 4, !llfi_index !118
  ret i32 %96, !llfi_index !119
}

; Function Attrs: nounwind readnone willreturn
declare dso_local i32 @abs(i32) #5

; Function Attrs: mustprogress noinline nounwind uwtable
define linkonce_odr dso_local nonnull align 4 dereferenceable(4) i32* @_ZSt3minIiERKT_S2_S2_(i32* nonnull align 4 dereferenceable(4) %0, i32* nonnull align 4 dereferenceable(4) %1) #6 comdat {
  %3 = alloca i32*, align 8, !llfi_index !120
  %4 = alloca i32*, align 8, !llfi_index !121
  %5 = alloca i32*, align 8, !llfi_index !122
  store i32* %0, i32** %4, align 8, !llfi_index !123
  store i32* %1, i32** %5, align 8, !llfi_index !124
  %6 = load i32*, i32** %5, align 8, !llfi_index !125
  %7 = load i32, i32* %6, align 4, !llfi_index !126
  %8 = load i32*, i32** %4, align 8, !llfi_index !127
  %9 = load i32, i32* %8, align 4, !llfi_index !128
  %10 = icmp slt i32 %7, %9, !llfi_index !129
  br i1 %10, label %11, label %13, !llfi_index !130

11:                                               ; preds = %2
  %12 = load i32*, i32** %5, align 8, !llfi_index !131
  store i32* %12, i32** %3, align 8, !llfi_index !132
  br label %15, !llfi_index !133

13:                                               ; preds = %2
  %14 = load i32*, i32** %4, align 8, !llfi_index !134
  store i32* %14, i32** %3, align 8, !llfi_index !135
  br label %15, !llfi_index !136

15:                                               ; preds = %13, %11
  %16 = load i32*, i32** %3, align 8, !llfi_index !137
  ret i32* %16, !llfi_index !138
}

; Function Attrs: mustprogress noinline nounwind uwtable
define linkonce_odr dso_local nonnull align 4 dereferenceable(4) i32* @_ZSt3maxIiERKT_S2_S2_(i32* nonnull align 4 dereferenceable(4) %0, i32* nonnull align 4 dereferenceable(4) %1) #6 comdat {
  %3 = alloca i32*, align 8, !llfi_index !139
  %4 = alloca i32*, align 8, !llfi_index !140
  %5 = alloca i32*, align 8, !llfi_index !141
  store i32* %0, i32** %4, align 8, !llfi_index !142
  store i32* %1, i32** %5, align 8, !llfi_index !143
  %6 = load i32*, i32** %4, align 8, !llfi_index !144
  %7 = load i32, i32* %6, align 4, !llfi_index !145
  %8 = load i32*, i32** %5, align 8, !llfi_index !146
  %9 = load i32, i32* %8, align 4, !llfi_index !147
  %10 = icmp slt i32 %7, %9, !llfi_index !148
  br i1 %10, label %11, label %13, !llfi_index !149

11:                                               ; preds = %2
  %12 = load i32*, i32** %5, align 8, !llfi_index !150
  store i32* %12, i32** %3, align 8, !llfi_index !151
  br label %15, !llfi_index !152

13:                                               ; preds = %2
  %14 = load i32*, i32** %4, align 8, !llfi_index !153
  store i32* %14, i32** %3, align 8, !llfi_index !154
  br label %15, !llfi_index !155

15:                                               ; preds = %13, %11
  %16 = load i32*, i32** %3, align 8, !llfi_index !156
  ret i32* %16, !llfi_index !157
}

; Function Attrs: mustprogress noinline uwtable
define dso_local void @_Z5solvev() #4 personality i8* bitcast (i32 (...)* @__gxx_personality_v0 to i8*) {
  %1 = alloca i32, align 4, !llfi_index !158
  %2 = alloca i32, align 4, !llfi_index !159
  %3 = alloca i32, align 4, !llfi_index !160
  %4 = alloca i32, align 4, !llfi_index !161
  %5 = alloca i32, align 4, !llfi_index !162
  %6 = alloca i32, align 4, !llfi_index !163
  %7 = alloca i32, align 4, !llfi_index !164
  %8 = alloca %"class.std::__cxx11::basic_string", align 8, !llfi_index !165
  %9 = alloca i8*, align 8, !llfi_index !166
  %10 = alloca i32, align 4, !llfi_index !167
  %11 = alloca i32, align 4, !llfi_index !168
  %12 = alloca i64, align 8, !llfi_index !169
  %13 = alloca i64, align 8, !llfi_index !170
  %14 = alloca i32, align 4, !llfi_index !171
  call void @_ZNSt7__cxx1112basic_stringIcSt11char_traitsIcESaIcEEC1Ev(%"class.std::__cxx11::basic_string"* nonnull align 8 dereferenceable(32) %8) #2, !llfi_index !172
  %15 = call i64 @clock() #2, !llfi_index !173
  %16 = trunc i64 %15 to i32, !llfi_index !174
  call void @srand(i32 %16) #2, !llfi_index !175
  %17 = invoke nonnull align 8 dereferenceable(16) %"class.std::basic_istream"* @_ZNSirsERi(%"class.std::basic_istream"* nonnull align 8 dereferenceable(16) @_ZSt3cin, i32* nonnull align 4 dereferenceable(4) @N)
          to label %18 unwind label %58, !llfi_index !176

18:                                               ; preds = %0
  %19 = invoke nonnull align 8 dereferenceable(16) %"class.std::basic_istream"* @_ZNSirsERi(%"class.std::basic_istream"* nonnull align 8 dereferenceable(16) %17, i32* nonnull align 4 dereferenceable(4) @C)
          to label %20 unwind label %58, !llfi_index !177

20:                                               ; preds = %18
  store i32 0, i32* %1, align 4, !llfi_index !178
  br label %21, !llfi_index !179

21:                                               ; preds = %101, %20
  %22 = load i32, i32* %1, align 4, !llfi_index !180
  %23 = load i32, i32* @N, align 4, !llfi_index !181
  %24 = icmp slt i32 %22, %23, !llfi_index !182
  br i1 %24, label %25, label %104, !llfi_index !183

25:                                               ; preds = %21
  %26 = load i32, i32* %1, align 4, !llfi_index !184
  %27 = sext i32 %26 to i64, !llfi_index !185
  %28 = getelementptr inbounds [101010 x %"struct.std::pair"], [101010 x %"struct.std::pair"]* @P, i64 0, i64 %27, !llfi_index !186
  %29 = getelementptr inbounds %"struct.std::pair", %"struct.std::pair"* %28, i32 0, i32 0, !llfi_index !187
  %30 = invoke nonnull align 8 dereferenceable(16) %"class.std::basic_istream"* @_ZNSirsERi(%"class.std::basic_istream"* nonnull align 8 dereferenceable(16) @_ZSt3cin, i32* nonnull align 4 dereferenceable(4) %29)
          to label %31 unwind label %58, !llfi_index !188

31:                                               ; preds = %25
  %32 = load i32, i32* %1, align 4, !llfi_index !189
  %33 = sext i32 %32 to i64, !llfi_index !190
  %34 = getelementptr inbounds [101010 x %"struct.std::pair"], [101010 x %"struct.std::pair"]* @P, i64 0, i64 %33, !llfi_index !191
  %35 = getelementptr inbounds %"struct.std::pair", %"struct.std::pair"* %34, i32 0, i32 1, !llfi_index !192
  %36 = invoke nonnull align 8 dereferenceable(16) %"class.std::basic_istream"* @_ZNSirsERi(%"class.std::basic_istream"* nonnull align 8 dereferenceable(16) %30, i32* nonnull align 4 dereferenceable(4) %35)
          to label %37 unwind label %58, !llfi_index !193

37:                                               ; preds = %31
  %38 = load i32, i32* %1, align 4, !llfi_index !194
  %39 = sext i32 %38 to i64, !llfi_index !195
  %40 = getelementptr inbounds [101010 x %"struct.std::pair"], [101010 x %"struct.std::pair"]* @P, i64 0, i64 %39, !llfi_index !196
  %41 = getelementptr inbounds %"struct.std::pair", %"struct.std::pair"* %40, i32 0, i32 1, !llfi_index !197
  %42 = load i32, i32* %41, align 4, !llfi_index !198
  %43 = load i32, i32* %1, align 4, !llfi_index !199
  %44 = sext i32 %43 to i64, !llfi_index !200
  %45 = getelementptr inbounds [101010 x %"struct.std::pair"], [101010 x %"struct.std::pair"]* @P, i64 0, i64 %44, !llfi_index !201
  %46 = getelementptr inbounds %"struct.std::pair", %"struct.std::pair"* %45, i32 0, i32 0, !llfi_index !202
  %47 = load i32, i32* %46, align 8, !llfi_index !203
  %48 = icmp slt i32 %42, %47, !llfi_index !204
  br i1 %48, label %49, label %62, !llfi_index !205

49:                                               ; preds = %37
  %50 = load i32, i32* %1, align 4, !llfi_index !206
  %51 = sext i32 %50 to i64, !llfi_index !207
  %52 = getelementptr inbounds [101010 x %"struct.std::pair"], [101010 x %"struct.std::pair"]* @P, i64 0, i64 %51, !llfi_index !208
  %53 = getelementptr inbounds %"struct.std::pair", %"struct.std::pair"* %52, i32 0, i32 0, !llfi_index !209
  %54 = load i32, i32* %1, align 4, !llfi_index !210
  %55 = sext i32 %54 to i64, !llfi_index !211
  %56 = getelementptr inbounds [101010 x %"struct.std::pair"], [101010 x %"struct.std::pair"]* @P, i64 0, i64 %55, !llfi_index !212
  %57 = getelementptr inbounds %"struct.std::pair", %"struct.std::pair"* %56, i32 0, i32 1, !llfi_index !213
  call void @_ZSt4swapIiENSt9enable_ifIXsr6__and_ISt6__not_ISt15__is_tuple_likeIT_EESt21is_move_constructibleIS3_ESt18is_move_assignableIS3_EEE5valueEvE4typeERS3_SC_(i32* nonnull align 4 dereferenceable(4) %53, i32* nonnull align 4 dereferenceable(4) %57) #2, !llfi_index !214
  br label %62, !llfi_index !215

58:                                               ; preds = %210, %207, %196, %192, %108, %104, %62, %31, %25, %18, %0
  %59 = landingpad { i8*, i32 }
          cleanup, !llfi_index !216
  %60 = extractvalue { i8*, i32 } %59, 0, !llfi_index !217
  store i8* %60, i8** %9, align 8, !llfi_index !218
  %61 = extractvalue { i8*, i32 } %59, 1, !llfi_index !219
  store i32 %61, i32* %10, align 4, !llfi_index !220
  call void @_ZNSt7__cxx1112basic_stringIcSt11char_traitsIcESaIcEED1Ev(%"class.std::__cxx11::basic_string"* nonnull align 8 dereferenceable(32) %8) #2, !llfi_index !221
  br label %213, !llfi_index !222

62:                                               ; preds = %49, %37
  %63 = load i32, i32* %1, align 4, !llfi_index !223
  %64 = sext i32 %63 to i64, !llfi_index !224
  %65 = getelementptr inbounds [101010 x %"struct.std::pair"], [101010 x %"struct.std::pair"]* @P, i64 0, i64 %64, !llfi_index !225
  %66 = getelementptr inbounds %"struct.std::pair", %"struct.std::pair"* %65, i32 0, i32 1, !llfi_index !226
  %67 = load i32, i32* %66, align 4, !llfi_index !227
  %68 = load i32, i32* %1, align 4, !llfi_index !228
  %69 = sext i32 %68 to i64, !llfi_index !229
  %70 = getelementptr inbounds [101010 x %"struct.std::pair"], [101010 x %"struct.std::pair"]* @P, i64 0, i64 %69, !llfi_index !230
  %71 = getelementptr inbounds %"struct.std::pair", %"struct.std::pair"* %70, i32 0, i32 0, !llfi_index !231
  %72 = load i32, i32* %71, align 8, !llfi_index !232
  %73 = sub nsw i32 %67, %72, !llfi_index !233
  %74 = load i32, i32* %1, align 4, !llfi_index !234
  %75 = sext i32 %74 to i64, !llfi_index !235
  %76 = getelementptr inbounds [101010 x %"struct.std::pair"], [101010 x %"struct.std::pair"]* @S, i64 0, i64 %75, !llfi_index !236
  %77 = getelementptr inbounds %"struct.std::pair", %"struct.std::pair"* %76, i32 0, i32 0, !llfi_index !237
  store i32 %73, i32* %77, align 8, !llfi_index !238
  %78 = load i32, i32* %1, align 4, !llfi_index !239
  %79 = sext i32 %78 to i64, !llfi_index !240
  %80 = getelementptr inbounds [101010 x %"struct.std::pair"], [101010 x %"struct.std::pair"]* @S, i64 0, i64 %79, !llfi_index !241
  %81 = getelementptr inbounds %"struct.std::pair", %"struct.std::pair"* %80, i32 0, i32 0, !llfi_index !242
  %82 = load i32, i32* @C, align 4, !llfi_index !243
  %83 = load i32, i32* %1, align 4, !llfi_index !244
  %84 = sext i32 %83 to i64, !llfi_index !245
  %85 = getelementptr inbounds [101010 x %"struct.std::pair"], [101010 x %"struct.std::pair"]* @S, i64 0, i64 %84, !llfi_index !246
  %86 = getelementptr inbounds %"struct.std::pair", %"struct.std::pair"* %85, i32 0, i32 0, !llfi_index !247
  %87 = load i32, i32* %86, align 8, !llfi_index !248
  %88 = sub nsw i32 %82, %87, !llfi_index !249
  store i32 %88, i32* %11, align 4, !llfi_index !250
  %89 = invoke nonnull align 4 dereferenceable(4) i32* @_ZSt3minIiERKT_S2_S2_(i32* nonnull align 4 dereferenceable(4) %81, i32* nonnull align 4 dereferenceable(4) %11)
          to label %90 unwind label %58, !llfi_index !251

90:                                               ; preds = %62
  %91 = load i32, i32* %89, align 4, !llfi_index !252
  %92 = load i32, i32* %1, align 4, !llfi_index !253
  %93 = sext i32 %92 to i64, !llfi_index !254
  %94 = getelementptr inbounds [101010 x %"struct.std::pair"], [101010 x %"struct.std::pair"]* @S, i64 0, i64 %93, !llfi_index !255
  %95 = getelementptr inbounds %"struct.std::pair", %"struct.std::pair"* %94, i32 0, i32 0, !llfi_index !256
  store i32 %91, i32* %95, align 8, !llfi_index !257
  %96 = load i32, i32* %1, align 4, !llfi_index !258
  %97 = load i32, i32* %1, align 4, !llfi_index !259
  %98 = sext i32 %97 to i64, !llfi_index !260
  %99 = getelementptr inbounds [101010 x %"struct.std::pair"], [101010 x %"struct.std::pair"]* @S, i64 0, i64 %98, !llfi_index !261
  %100 = getelementptr inbounds %"struct.std::pair", %"struct.std::pair"* %99, i32 0, i32 1, !llfi_index !262
  store i32 %96, i32* %100, align 4, !llfi_index !263
  br label %101, !llfi_index !264

101:                                              ; preds = %90
  %102 = load i32, i32* %1, align 4, !llfi_index !265
  %103 = add nsw i32 %102, 1, !llfi_index !266
  store i32 %103, i32* %1, align 4, !llfi_index !267
  br label %21, !llvm.loop !268, !llfi_index !270

104:                                              ; preds = %21
  %105 = load i32, i32* @N, align 4, !llfi_index !271
  %106 = sext i32 %105 to i64, !llfi_index !272
  %107 = getelementptr inbounds %"struct.std::pair", %"struct.std::pair"* getelementptr inbounds ([101010 x %"struct.std::pair"], [101010 x %"struct.std::pair"]* @S, i64 0, i64 0), i64 %106, !llfi_index !273
  invoke void @_ZSt4sortIPSt4pairIiiEEvT_S3_(%"struct.std::pair"* getelementptr inbounds ([101010 x %"struct.std::pair"], [101010 x %"struct.std::pair"]* @S, i64 0, i64 0), %"struct.std::pair"* %107)
          to label %108 unwind label %58, !llfi_index !274

108:                                              ; preds = %104
  %109 = load i32, i32* @N, align 4, !llfi_index !275
  %110 = sext i32 %109 to i64, !llfi_index !276
  %111 = getelementptr inbounds %"struct.std::pair", %"struct.std::pair"* getelementptr inbounds ([101010 x %"struct.std::pair"], [101010 x %"struct.std::pair"]* @S, i64 0, i64 0), i64 %110, !llfi_index !277
  invoke void @_ZSt7reverseIPSt4pairIiiEEvT_S3_(%"struct.std::pair"* getelementptr inbounds ([101010 x %"struct.std::pair"], [101010 x %"struct.std::pair"]* @S, i64 0, i64 0), %"struct.std::pair"* %111)
          to label %112 unwind label %58, !llfi_index !278

112:                                              ; preds = %108
  store i32 0, i32* %1, align 4, !llfi_index !279
  br label %113, !llfi_index !280

113:                                              ; preds = %144, %112
  %114 = load i32, i32* %1, align 4, !llfi_index !281
  %115 = load i32, i32* @N, align 4, !llfi_index !282
  %116 = icmp slt i32 %114, %115, !llfi_index !283
  br i1 %116, label %117, label %147, !llfi_index !284

117:                                              ; preds = %113
  %118 = load i32, i32* %1, align 4, !llfi_index !285
  %119 = sext i32 %118 to i64, !llfi_index !286
  %120 = getelementptr inbounds [101010 x %"struct.std::pair"], [101010 x %"struct.std::pair"]* @S, i64 0, i64 %119, !llfi_index !287
  %121 = getelementptr inbounds %"struct.std::pair", %"struct.std::pair"* %120, i32 0, i32 1, !llfi_index !288
  %122 = load i32, i32* %121, align 4, !llfi_index !289
  %123 = sext i32 %122 to i64, !llfi_index !290
  %124 = getelementptr inbounds [101010 x %"struct.std::pair"], [101010 x %"struct.std::pair"]* @P, i64 0, i64 %123, !llfi_index !291
  %125 = getelementptr inbounds %"struct.std::pair", %"struct.std::pair"* %124, i32 0, i32 0, !llfi_index !292
  %126 = load i32, i32* %125, align 8, !llfi_index !293
  %127 = load i32, i32* %1, align 4, !llfi_index !294
  %128 = sext i32 %127 to i64, !llfi_index !295
  %129 = getelementptr inbounds [101010 x %"struct.std::pair"], [101010 x %"struct.std::pair"]* @Q, i64 0, i64 %128, !llfi_index !296
  %130 = getelementptr inbounds %"struct.std::pair", %"struct.std::pair"* %129, i32 0, i32 0, !llfi_index !297
  store i32 %126, i32* %130, align 8, !llfi_index !298
  %131 = load i32, i32* %1, align 4, !llfi_index !299
  %132 = sext i32 %131 to i64, !llfi_index !300
  %133 = getelementptr inbounds [101010 x %"struct.std::pair"], [101010 x %"struct.std::pair"]* @S, i64 0, i64 %132, !llfi_index !301
  %134 = getelementptr inbounds %"struct.std::pair", %"struct.std::pair"* %133, i32 0, i32 1, !llfi_index !302
  %135 = load i32, i32* %134, align 4, !llfi_index !303
  %136 = sext i32 %135 to i64, !llfi_index !304
  %137 = getelementptr inbounds [101010 x %"struct.std::pair"], [101010 x %"struct.std::pair"]* @P, i64 0, i64 %136, !llfi_index !305
  %138 = getelementptr inbounds %"struct.std::pair", %"struct.std::pair"* %137, i32 0, i32 1, !llfi_index !306
  %139 = load i32, i32* %138, align 4, !llfi_index !307
  %140 = load i32, i32* %1, align 4, !llfi_index !308
  %141 = sext i32 %140 to i64, !llfi_index !309
  %142 = getelementptr inbounds [101010 x %"struct.std::pair"], [101010 x %"struct.std::pair"]* @Q, i64 0, i64 %141, !llfi_index !310
  %143 = getelementptr inbounds %"struct.std::pair", %"struct.std::pair"* %142, i32 0, i32 1, !llfi_index !311
  store i32 %139, i32* %143, align 4, !llfi_index !312
  br label %144, !llfi_index !313

144:                                              ; preds = %117
  %145 = load i32, i32* %1, align 4, !llfi_index !314
  %146 = add nsw i32 %145, 1, !llfi_index !315
  store i32 %146, i32* %1, align 4, !llfi_index !316
  br label %113, !llvm.loop !317, !llfi_index !318

147:                                              ; preds = %113
  %148 = call i64 @clock() #2, !llfi_index !319
  store i64 %148, i64* %12, align 8, !llfi_index !320
  store i32 0, i32* %7, align 4, !llfi_index !321
  br label %149, !llfi_index !322

149:                                              ; preds = %204, %147
  %150 = load i32, i32* %7, align 4, !llfi_index !323
  %151 = load i32, i32* @N, align 4, !llfi_index !324
  %152 = icmp slt i32 %150, %151, !llfi_index !325
  br i1 %152, label %153, label %161, !llfi_index !326

153:                                              ; preds = %149
  %154 = load i32, i32* %7, align 4, !llfi_index !327
  %155 = sext i32 %154 to i64, !llfi_index !328
  %156 = getelementptr inbounds [101010 x %"struct.std::pair"], [101010 x %"struct.std::pair"]* @S, i64 0, i64 %155, !llfi_index !329
  %157 = getelementptr inbounds %"struct.std::pair", %"struct.std::pair"* %156, i32 0, i32 0, !llfi_index !330
  %158 = load i32, i32* %157, align 8, !llfi_index !331
  %159 = load i32, i32* @ma, align 4, !llfi_index !332
  %160 = icmp sgt i32 %158, %159, !llfi_index !333
  br label %161, !llfi_index !334

161:                                              ; preds = %153, %149
  %162 = phi i1 [ false, %149 ], [ %160, %153 ], !llfi_index !335
  br i1 %162, label %163, label %207, !llfi_index !336

163:                                              ; preds = %161
  %164 = load i32, i32* %7, align 4, !llfi_index !337
  %165 = srem i32 %164, 10, !llfi_index !338
  %166 = icmp eq i32 %165, 0, !llfi_index !339
  br i1 %166, label %167, label %175, !llfi_index !340

167:                                              ; preds = %163
  %168 = call i64 @clock() #2, !llfi_index !341
  store i64 %168, i64* %13, align 8, !llfi_index !342
  %169 = load i64, i64* %13, align 8, !llfi_index !343
  %170 = load i64, i64* %12, align 8, !llfi_index !344
  %171 = sub nsw i64 %169, %170, !llfi_index !345
  %172 = icmp sge i64 %171, 1700000, !llfi_index !346
  br i1 %172, label %173, label %174, !llfi_index !347

173:                                              ; preds = %167
  br label %207, !llfi_index !348

174:                                              ; preds = %167
  br label %175, !llfi_index !349

175:                                              ; preds = %174, %163
  %176 = load i32, i32* %7, align 4, !llfi_index !350
  %177 = add nsw i32 %176, 1, !llfi_index !351
  store i32 %177, i32* %6, align 4, !llfi_index !352
  br label %178, !llfi_index !353

178:                                              ; preds = %200, %175
  %179 = load i32, i32* %6, align 4, !llfi_index !354
  %180 = load i32, i32* @N, align 4, !llfi_index !355
  %181 = icmp slt i32 %179, %180, !llfi_index !356
  br i1 %181, label %182, label %190, !llfi_index !357

182:                                              ; preds = %178
  %183 = load i32, i32* %6, align 4, !llfi_index !358
  %184 = sext i32 %183 to i64, !llfi_index !359
  %185 = getelementptr inbounds [101010 x %"struct.std::pair"], [101010 x %"struct.std::pair"]* @S, i64 0, i64 %184, !llfi_index !360
  %186 = getelementptr inbounds %"struct.std::pair", %"struct.std::pair"* %185, i32 0, i32 0, !llfi_index !361
  %187 = load i32, i32* %186, align 8, !llfi_index !362
  %188 = load i32, i32* @ma, align 4, !llfi_index !363
  %189 = icmp sgt i32 %187, %188, !llfi_index !364
  br label %190, !llfi_index !365

190:                                              ; preds = %182, %178
  %191 = phi i1 [ false, %178 ], [ %189, %182 ], !llfi_index !366
  br i1 %191, label %192, label %203, !llfi_index !367

192:                                              ; preds = %190
  %193 = load i32, i32* %6, align 4, !llfi_index !368
  %194 = load i32, i32* %7, align 4, !llfi_index !369
  %195 = invoke i32 @_Z2scii(i32 %193, i32 %194)
          to label %196 unwind label %58, !llfi_index !370

196:                                              ; preds = %192
  store i32 %195, i32* %14, align 4, !llfi_index !371
  %197 = invoke nonnull align 4 dereferenceable(4) i32* @_ZSt3maxIiERKT_S2_S2_(i32* nonnull align 4 dereferenceable(4) @ma, i32* nonnull align 4 dereferenceable(4) %14)
          to label %198 unwind label %58, !llfi_index !372

198:                                              ; preds = %196
  %199 = load i32, i32* %197, align 4, !llfi_index !373
  store i32 %199, i32* @ma, align 4, !llfi_index !374
  br label %200, !llfi_index !375

200:                                              ; preds = %198
  %201 = load i32, i32* %6, align 4, !llfi_index !376
  %202 = add nsw i32 %201, 1, !llfi_index !377
  store i32 %202, i32* %6, align 4, !llfi_index !378
  br label %178, !llvm.loop !379, !llfi_index !380

203:                                              ; preds = %190
  br label %204, !llfi_index !381

204:                                              ; preds = %203
  %205 = load i32, i32* %7, align 4, !llfi_index !382
  %206 = add nsw i32 %205, 1, !llfi_index !383
  store i32 %206, i32* %7, align 4, !llfi_index !384
  br label %149, !llvm.loop !385, !llfi_index !386

207:                                              ; preds = %173, %161
  %208 = load i32, i32* @ma, align 4, !llfi_index !387
  %209 = invoke nonnull align 8 dereferenceable(8) %"class.std::basic_ostream"* @_ZNSolsEi(%"class.std::basic_ostream"* nonnull align 8 dereferenceable(8) @_ZSt4cout, i32 %208)
          to label %210 unwind label %58, !llfi_index !388

210:                                              ; preds = %207
  %211 = invoke nonnull align 8 dereferenceable(8) %"class.std::basic_ostream"* @_ZNSolsEPFRSoS_E(%"class.std::basic_ostream"* nonnull align 8 dereferenceable(8) %209, %"class.std::basic_ostream"* (%"class.std::basic_ostream"*)* @_ZSt4endlIcSt11char_traitsIcEERSt13basic_ostreamIT_T0_ES6_)
          to label %212 unwind label %58, !llfi_index !389

212:                                              ; preds = %210
  call void @_ZNSt7__cxx1112basic_stringIcSt11char_traitsIcESaIcEED1Ev(%"class.std::__cxx11::basic_string"* nonnull align 8 dereferenceable(32) %8) #2, !llfi_index !390
  ret void, !llfi_index !391

213:                                              ; preds = %58
  %214 = load i8*, i8** %9, align 8, !llfi_index !392
  %215 = load i32, i32* %10, align 4, !llfi_index !393
  %216 = insertvalue { i8*, i32 } undef, i8* %214, 0, !llfi_index !394
  %217 = insertvalue { i8*, i32 } %216, i32 %215, 1, !llfi_index !395
  resume { i8*, i32 } %217, !llfi_index !396
}

declare dso_local i32 @__gxx_personality_v0(...)

; Function Attrs: nounwind
declare dso_local void @_ZNSt7__cxx1112basic_stringIcSt11char_traitsIcESaIcEEC1Ev(%"class.std::__cxx11::basic_string"* nonnull align 8 dereferenceable(32)) unnamed_addr #3

; Function Attrs: nounwind
declare dso_local i64 @clock() #3

; Function Attrs: nounwind
declare dso_local void @srand(i32) #3

declare dso_local nonnull align 8 dereferenceable(16) %"class.std::basic_istream"* @_ZNSirsERi(%"class.std::basic_istream"* nonnull align 8 dereferenceable(16), i32* nonnull align 4 dereferenceable(4)) #1

; Function Attrs: mustprogress noinline nounwind uwtable
define linkonce_odr dso_local void @_ZSt4swapIiENSt9enable_ifIXsr6__and_ISt6__not_ISt15__is_tuple_likeIT_EESt21is_move_constructibleIS3_ESt18is_move_assignableIS3_EEE5valueEvE4typeERS3_SC_(i32* nonnull align 4 dereferenceable(4) %0, i32* nonnull align 4 dereferenceable(4) %1) #6 comdat {
  %3 = alloca i32*, align 8, !llfi_index !397
  %4 = alloca i32*, align 8, !llfi_index !398
  %5 = alloca i32, align 4, !llfi_index !399
  store i32* %0, i32** %3, align 8, !llfi_index !400
  store i32* %1, i32** %4, align 8, !llfi_index !401
  %6 = load i32*, i32** %3, align 8, !llfi_index !402
  %7 = call nonnull align 4 dereferenceable(4) i32* @_ZSt4moveIRiEONSt16remove_referenceIT_E4typeEOS2_(i32* nonnull align 4 dereferenceable(4) %6) #2, !llfi_index !403
  %8 = load i32, i32* %7, align 4, !llfi_index !404
  store i32 %8, i32* %5, align 4, !llfi_index !405
  %9 = load i32*, i32** %4, align 8, !llfi_index !406
  %10 = call nonnull align 4 dereferenceable(4) i32* @_ZSt4moveIRiEONSt16remove_referenceIT_E4typeEOS2_(i32* nonnull align 4 dereferenceable(4) %9) #2, !llfi_index !407
  %11 = load i32, i32* %10, align 4, !llfi_index !408
  %12 = load i32*, i32** %3, align 8, !llfi_index !409
  store i32 %11, i32* %12, align 4, !llfi_index !410
  %13 = call nonnull align 4 dereferenceable(4) i32* @_ZSt4moveIRiEONSt16remove_referenceIT_E4typeEOS2_(i32* nonnull align 4 dereferenceable(4) %5) #2, !llfi_index !411
  %14 = load i32, i32* %13, align 4, !llfi_index !412
  %15 = load i32*, i32** %4, align 8, !llfi_index !413
  store i32 %14, i32* %15, align 4, !llfi_index !414
  ret void, !llfi_index !415
}

; Function Attrs: nounwind
declare dso_local void @_ZNSt7__cxx1112basic_stringIcSt11char_traitsIcESaIcEED1Ev(%"class.std::__cxx11::basic_string"* nonnull align 8 dereferenceable(32)) unnamed_addr #3

; Function Attrs: mustprogress noinline uwtable
define linkonce_odr dso_local void @_ZSt4sortIPSt4pairIiiEEvT_S3_(%"struct.std::pair"* %0, %"struct.std::pair"* %1) #4 comdat {
  %3 = alloca %"struct.std::pair"*, align 8, !llfi_index !416
  %4 = alloca %"struct.std::pair"*, align 8, !llfi_index !417
  %5 = alloca %"class.std::ios_base::Init", align 1, !llfi_index !418
  %6 = alloca %"class.std::ios_base::Init", align 1, !llfi_index !419
  store %"struct.std::pair"* %0, %"struct.std::pair"** %3, align 8, !llfi_index !420
  store %"struct.std::pair"* %1, %"struct.std::pair"** %4, align 8, !llfi_index !421
  %7 = load %"struct.std::pair"*, %"struct.std::pair"** %3, align 8, !llfi_index !422
  %8 = load %"struct.std::pair"*, %"struct.std::pair"** %4, align 8, !llfi_index !423
  call void @_ZN9__gnu_cxx5__ops16__iter_less_iterEv(), !llfi_index !424
  call void @_ZSt6__sortIPSt4pairIiiEN9__gnu_cxx5__ops15_Iter_less_iterEEvT_S6_T0_(%"struct.std::pair"* %7, %"struct.std::pair"* %8), !llfi_index !425
  ret void, !llfi_index !426
}

; Function Attrs: mustprogress noinline uwtable
define linkonce_odr dso_local void @_ZSt7reverseIPSt4pairIiiEEvT_S3_(%"struct.std::pair"* %0, %"struct.std::pair"* %1) #4 comdat {
  %3 = alloca %"struct.std::pair"*, align 8, !llfi_index !427
  %4 = alloca %"struct.std::pair"*, align 8, !llfi_index !428
  %5 = alloca %"class.std::ios_base::Init", align 1, !llfi_index !429
  %6 = alloca %"class.std::ios_base::Init", align 1, !llfi_index !430
  store %"struct.std::pair"* %0, %"struct.std::pair"** %3, align 8, !llfi_index !431
  store %"struct.std::pair"* %1, %"struct.std::pair"** %4, align 8, !llfi_index !432
  %7 = load %"struct.std::pair"*, %"struct.std::pair"** %3, align 8, !llfi_index !433
  %8 = load %"struct.std::pair"*, %"struct.std::pair"** %4, align 8, !llfi_index !434
  call void @_ZSt19__iterator_categoryIPSt4pairIiiEENSt15iterator_traitsIT_E17iterator_categoryERKS4_(%"struct.std::pair"** nonnull align 8 dereferenceable(8) %3), !llfi_index !435
  call void @_ZSt9__reverseIPSt4pairIiiEEvT_S3_St26random_access_iterator_tag(%"struct.std::pair"* %7, %"struct.std::pair"* %8), !llfi_index !436
  ret void, !llfi_index !437
}

declare dso_local nonnull align 8 dereferenceable(8) %"class.std::basic_ostream"* @_ZNSolsEi(%"class.std::basic_ostream"* nonnull align 8 dereferenceable(8), i32) #1

declare dso_local nonnull align 8 dereferenceable(8) %"class.std::basic_ostream"* @_ZSt4endlIcSt11char_traitsIcEERSt13basic_ostreamIT_T0_ES6_(%"class.std::basic_ostream"* nonnull align 8 dereferenceable(8)) #1

declare dso_local nonnull align 8 dereferenceable(8) %"class.std::basic_ostream"* @_ZNSolsEPFRSoS_E(%"class.std::basic_ostream"* nonnull align 8 dereferenceable(8), %"class.std::basic_ostream"* (%"class.std::basic_ostream"*)*) #1

; Function Attrs: mustprogress noinline nounwind uwtable
define linkonce_odr dso_local void @_ZSt19__iterator_categoryIPSt4pairIiiEENSt15iterator_traitsIT_E17iterator_categoryERKS4_(%"struct.std::pair"** nonnull align 8 dereferenceable(8) %0) #6 comdat {
  %2 = alloca %"struct.std::pair"**, align 8, !llfi_index !438
  store %"struct.std::pair"** %0, %"struct.std::pair"*** %2, align 8, !llfi_index !439
  ret void, !llfi_index !440
}

; Function Attrs: mustprogress noinline nounwind uwtable
define linkonce_odr dso_local void @_ZSt9__reverseIPSt4pairIiiEEvT_S3_St26random_access_iterator_tag(%"struct.std::pair"* %0, %"struct.std::pair"* %1) #6 comdat {
  %3 = alloca %"class.std::ios_base::Init", align 1, !llfi_index !441
  %4 = alloca %"struct.std::pair"*, align 8, !llfi_index !442
  %5 = alloca %"struct.std::pair"*, align 8, !llfi_index !443
  store %"struct.std::pair"* %0, %"struct.std::pair"** %4, align 8, !llfi_index !444
  store %"struct.std::pair"* %1, %"struct.std::pair"** %5, align 8, !llfi_index !445
  %6 = load %"struct.std::pair"*, %"struct.std::pair"** %4, align 8, !llfi_index !446
  %7 = load %"struct.std::pair"*, %"struct.std::pair"** %5, align 8, !llfi_index !447
  %8 = icmp eq %"struct.std::pair"* %6, %7, !llfi_index !448
  br i1 %8, label %9, label %10, !llfi_index !449

9:                                                ; preds = %2
  br label %24, !llfi_index !450

10:                                               ; preds = %2
  %11 = load %"struct.std::pair"*, %"struct.std::pair"** %5, align 8, !llfi_index !451
  %12 = getelementptr inbounds %"struct.std::pair", %"struct.std::pair"* %11, i32 -1, !llfi_index !452
  store %"struct.std::pair"* %12, %"struct.std::pair"** %5, align 8, !llfi_index !453
  br label %13, !llfi_index !454

13:                                               ; preds = %17, %10
  %14 = load %"struct.std::pair"*, %"struct.std::pair"** %4, align 8, !llfi_index !455
  %15 = load %"struct.std::pair"*, %"struct.std::pair"** %5, align 8, !llfi_index !456
  %16 = icmp ult %"struct.std::pair"* %14, %15, !llfi_index !457
  br i1 %16, label %17, label %24, !llfi_index !458

17:                                               ; preds = %13
  %18 = load %"struct.std::pair"*, %"struct.std::pair"** %4, align 8, !llfi_index !459
  %19 = load %"struct.std::pair"*, %"struct.std::pair"** %5, align 8, !llfi_index !460
  call void @_ZSt9iter_swapIPSt4pairIiiES2_EvT_T0_(%"struct.std::pair"* %18, %"struct.std::pair"* %19), !llfi_index !461
  %20 = load %"struct.std::pair"*, %"struct.std::pair"** %4, align 8, !llfi_index !462
  %21 = getelementptr inbounds %"struct.std::pair", %"struct.std::pair"* %20, i32 1, !llfi_index !463
  store %"struct.std::pair"* %21, %"struct.std::pair"** %4, align 8, !llfi_index !464
  %22 = load %"struct.std::pair"*, %"struct.std::pair"** %5, align 8, !llfi_index !465
  %23 = getelementptr inbounds %"struct.std::pair", %"struct.std::pair"* %22, i32 -1, !llfi_index !466
  store %"struct.std::pair"* %23, %"struct.std::pair"** %5, align 8, !llfi_index !467
  br label %13, !llvm.loop !468, !llfi_index !469

24:                                               ; preds = %13, %9
  ret void, !llfi_index !470
}

; Function Attrs: mustprogress noinline nounwind uwtable
define linkonce_odr dso_local void @_ZSt9iter_swapIPSt4pairIiiES2_EvT_T0_(%"struct.std::pair"* %0, %"struct.std::pair"* %1) #6 comdat {
  %3 = alloca %"struct.std::pair"*, align 8, !llfi_index !471
  %4 = alloca %"struct.std::pair"*, align 8, !llfi_index !472
  store %"struct.std::pair"* %0, %"struct.std::pair"** %3, align 8, !llfi_index !473
  store %"struct.std::pair"* %1, %"struct.std::pair"** %4, align 8, !llfi_index !474
  %5 = load %"struct.std::pair"*, %"struct.std::pair"** %3, align 8, !llfi_index !475
  %6 = load %"struct.std::pair"*, %"struct.std::pair"** %4, align 8, !llfi_index !476
  call void @_ZSt4swapIiiENSt9enable_ifIXsr6__and_ISt14__is_swappableIT_ES1_IT0_EEE5valueEvE4typeERSt4pairIS2_S4_ESA_(%"struct.std::pair"* nonnull align 4 dereferenceable(8) %5, %"struct.std::pair"* nonnull align 4 dereferenceable(8) %6) #2, !llfi_index !477
  ret void, !llfi_index !478
}

; Function Attrs: mustprogress noinline nounwind uwtable
define linkonce_odr dso_local void @_ZSt4swapIiiENSt9enable_ifIXsr6__and_ISt14__is_swappableIT_ES1_IT0_EEE5valueEvE4typeERSt4pairIS2_S4_ESA_(%"struct.std::pair"* nonnull align 4 dereferenceable(8) %0, %"struct.std::pair"* nonnull align 4 dereferenceable(8) %1) #6 comdat {
  %3 = alloca %"struct.std::pair"*, align 8, !llfi_index !479
  %4 = alloca %"struct.std::pair"*, align 8, !llfi_index !480
  store %"struct.std::pair"* %0, %"struct.std::pair"** %3, align 8, !llfi_index !481
  store %"struct.std::pair"* %1, %"struct.std::pair"** %4, align 8, !llfi_index !482
  %5 = load %"struct.std::pair"*, %"struct.std::pair"** %3, align 8, !llfi_index !483
  %6 = load %"struct.std::pair"*, %"struct.std::pair"** %4, align 8, !llfi_index !484
  call void @_ZNSt4pairIiiE4swapERS0_(%"struct.std::pair"* nonnull align 4 dereferenceable(8) %5, %"struct.std::pair"* nonnull align 4 dereferenceable(8) %6) #2, !llfi_index !485
  ret void, !llfi_index !486
}

; Function Attrs: mustprogress noinline nounwind uwtable
define linkonce_odr dso_local void @_ZNSt4pairIiiE4swapERS0_(%"struct.std::pair"* nonnull align 4 dereferenceable(8) %0, %"struct.std::pair"* nonnull align 4 dereferenceable(8) %1) #6 comdat align 2 {
  %3 = alloca %"struct.std::pair"*, align 8, !llfi_index !487
  %4 = alloca %"struct.std::pair"*, align 8, !llfi_index !488
  store %"struct.std::pair"* %0, %"struct.std::pair"** %3, align 8, !llfi_index !489
  store %"struct.std::pair"* %1, %"struct.std::pair"** %4, align 8, !llfi_index !490
  %5 = load %"struct.std::pair"*, %"struct.std::pair"** %3, align 8, !llfi_index !491
  %6 = getelementptr inbounds %"struct.std::pair", %"struct.std::pair"* %5, i32 0, i32 0, !llfi_index !492
  %7 = load %"struct.std::pair"*, %"struct.std::pair"** %4, align 8, !llfi_index !493
  %8 = getelementptr inbounds %"struct.std::pair", %"struct.std::pair"* %7, i32 0, i32 0, !llfi_index !494
  call void @_ZSt4swapIiENSt9enable_ifIXsr6__and_ISt6__not_ISt15__is_tuple_likeIT_EESt21is_move_constructibleIS3_ESt18is_move_assignableIS3_EEE5valueEvE4typeERS3_SC_(i32* nonnull align 4 dereferenceable(4) %6, i32* nonnull align 4 dereferenceable(4) %8) #2, !llfi_index !495
  %9 = getelementptr inbounds %"struct.std::pair", %"struct.std::pair"* %5, i32 0, i32 1, !llfi_index !496
  %10 = load %"struct.std::pair"*, %"struct.std::pair"** %4, align 8, !llfi_index !497
  %11 = getelementptr inbounds %"struct.std::pair", %"struct.std::pair"* %10, i32 0, i32 1, !llfi_index !498
  call void @_ZSt4swapIiENSt9enable_ifIXsr6__and_ISt6__not_ISt15__is_tuple_likeIT_EESt21is_move_constructibleIS3_ESt18is_move_assignableIS3_EEE5valueEvE4typeERS3_SC_(i32* nonnull align 4 dereferenceable(4) %9, i32* nonnull align 4 dereferenceable(4) %11) #2, !llfi_index !499
  ret void, !llfi_index !500
}

; Function Attrs: mustprogress noinline nounwind uwtable
define linkonce_odr dso_local void @_ZN9__gnu_cxx5__ops16__iter_less_iterEv() #6 comdat {
  ret void, !llfi_index !501
}

; Function Attrs: mustprogress noinline uwtable
define linkonce_odr dso_local void @_ZSt6__sortIPSt4pairIiiEN9__gnu_cxx5__ops15_Iter_less_iterEEvT_S6_T0_(%"struct.std::pair"* %0, %"struct.std::pair"* %1) #4 comdat {
  %3 = alloca %"class.std::ios_base::Init", align 1, !llfi_index !502
  %4 = alloca %"struct.std::pair"*, align 8, !llfi_index !503
  %5 = alloca %"struct.std::pair"*, align 8, !llfi_index !504
  %6 = alloca %"class.std::ios_base::Init", align 1, !llfi_index !505
  %7 = alloca %"class.std::ios_base::Init", align 1, !llfi_index !506
  store %"struct.std::pair"* %0, %"struct.std::pair"** %4, align 8, !llfi_index !507
  store %"struct.std::pair"* %1, %"struct.std::pair"** %5, align 8, !llfi_index !508
  %8 = load %"struct.std::pair"*, %"struct.std::pair"** %4, align 8, !llfi_index !509
  %9 = load %"struct.std::pair"*, %"struct.std::pair"** %5, align 8, !llfi_index !510
  %10 = icmp ne %"struct.std::pair"* %8, %9, !llfi_index !511
  br i1 %10, label %11, label %24, !llfi_index !512

11:                                               ; preds = %2
  %12 = load %"struct.std::pair"*, %"struct.std::pair"** %4, align 8, !llfi_index !513
  %13 = load %"struct.std::pair"*, %"struct.std::pair"** %5, align 8, !llfi_index !514
  %14 = load %"struct.std::pair"*, %"struct.std::pair"** %5, align 8, !llfi_index !515
  %15 = load %"struct.std::pair"*, %"struct.std::pair"** %4, align 8, !llfi_index !516
  %16 = ptrtoint %"struct.std::pair"* %14 to i64, !llfi_index !517
  %17 = ptrtoint %"struct.std::pair"* %15 to i64, !llfi_index !518
  %18 = sub i64 %16, %17, !llfi_index !519
  %19 = sdiv exact i64 %18, 8, !llfi_index !520
  %20 = call i64 @_ZSt4__lgl(i64 %19), !llfi_index !521
  %21 = mul nsw i64 %20, 2, !llfi_index !522
  call void @_ZSt16__introsort_loopIPSt4pairIiiElN9__gnu_cxx5__ops15_Iter_less_iterEEvT_S6_T0_T1_(%"struct.std::pair"* %12, %"struct.std::pair"* %13, i64 %21), !llfi_index !523
  %22 = load %"struct.std::pair"*, %"struct.std::pair"** %4, align 8, !llfi_index !524
  %23 = load %"struct.std::pair"*, %"struct.std::pair"** %5, align 8, !llfi_index !525
  call void @_ZSt22__final_insertion_sortIPSt4pairIiiEN9__gnu_cxx5__ops15_Iter_less_iterEEvT_S6_T0_(%"struct.std::pair"* %22, %"struct.std::pair"* %23), !llfi_index !526
  br label %24, !llfi_index !527

24:                                               ; preds = %11, %2
  ret void, !llfi_index !528
}

; Function Attrs: mustprogress noinline nounwind uwtable
define linkonce_odr dso_local i64 @_ZSt4__lgl(i64 %0) #6 comdat {
  %2 = alloca i64, align 8, !llfi_index !529
  store i64 %0, i64* %2, align 8, !llfi_index !530
  %3 = load i64, i64* %2, align 8, !llfi_index !531
  %4 = call i64 @llvm.ctlz.i64(i64 %3, i1 true), !llfi_index !532
  %5 = trunc i64 %4 to i32, !llfi_index !533
  %6 = sub nsw i32 63, %5, !llfi_index !534
  %7 = sext i32 %6 to i64, !llfi_index !535
  ret i64 %7, !llfi_index !536
}

; Function Attrs: mustprogress noinline uwtable
define linkonce_odr dso_local void @_ZSt16__introsort_loopIPSt4pairIiiElN9__gnu_cxx5__ops15_Iter_less_iterEEvT_S6_T0_T1_(%"struct.std::pair"* %0, %"struct.std::pair"* %1, i64 %2) #4 comdat {
  %4 = alloca %"class.std::ios_base::Init", align 1, !llfi_index !537
  %5 = alloca %"struct.std::pair"*, align 8, !llfi_index !538
  %6 = alloca %"struct.std::pair"*, align 8, !llfi_index !539
  %7 = alloca i64, align 8, !llfi_index !540
  %8 = alloca %"class.std::ios_base::Init", align 1, !llfi_index !541
  %9 = alloca %"struct.std::pair"*, align 8, !llfi_index !542
  %10 = alloca %"class.std::ios_base::Init", align 1, !llfi_index !543
  %11 = alloca %"class.std::ios_base::Init", align 1, !llfi_index !544
  store %"struct.std::pair"* %0, %"struct.std::pair"** %5, align 8, !llfi_index !545
  store %"struct.std::pair"* %1, %"struct.std::pair"** %6, align 8, !llfi_index !546
  store i64 %2, i64* %7, align 8, !llfi_index !547
  br label %12, !llfi_index !548

12:                                               ; preds = %27, %3
  %13 = load %"struct.std::pair"*, %"struct.std::pair"** %6, align 8, !llfi_index !549
  %14 = load %"struct.std::pair"*, %"struct.std::pair"** %5, align 8, !llfi_index !550
  %15 = ptrtoint %"struct.std::pair"* %13 to i64, !llfi_index !551
  %16 = ptrtoint %"struct.std::pair"* %14 to i64, !llfi_index !552
  %17 = sub i64 %15, %16, !llfi_index !553
  %18 = sdiv exact i64 %17, 8, !llfi_index !554
  %19 = icmp sgt i64 %18, 16, !llfi_index !555
  br i1 %19, label %20, label %37, !llfi_index !556

20:                                               ; preds = %12
  %21 = load i64, i64* %7, align 8, !llfi_index !557
  %22 = icmp eq i64 %21, 0, !llfi_index !558
  br i1 %22, label %23, label %27, !llfi_index !559

23:                                               ; preds = %20
  %24 = load %"struct.std::pair"*, %"struct.std::pair"** %5, align 8, !llfi_index !560
  %25 = load %"struct.std::pair"*, %"struct.std::pair"** %6, align 8, !llfi_index !561
  %26 = load %"struct.std::pair"*, %"struct.std::pair"** %6, align 8, !llfi_index !562
  call void @_ZSt14__partial_sortIPSt4pairIiiEN9__gnu_cxx5__ops15_Iter_less_iterEEvT_S6_S6_T0_(%"struct.std::pair"* %24, %"struct.std::pair"* %25, %"struct.std::pair"* %26), !llfi_index !563
  br label %37, !llfi_index !564

27:                                               ; preds = %20
  %28 = load i64, i64* %7, align 8, !llfi_index !565
  %29 = add nsw i64 %28, -1, !llfi_index !566
  store i64 %29, i64* %7, align 8, !llfi_index !567
  %30 = load %"struct.std::pair"*, %"struct.std::pair"** %5, align 8, !llfi_index !568
  %31 = load %"struct.std::pair"*, %"struct.std::pair"** %6, align 8, !llfi_index !569
  %32 = call %"struct.std::pair"* @_ZSt27__unguarded_partition_pivotIPSt4pairIiiEN9__gnu_cxx5__ops15_Iter_less_iterEET_S6_S6_T0_(%"struct.std::pair"* %30, %"struct.std::pair"* %31), !llfi_index !570
  store %"struct.std::pair"* %32, %"struct.std::pair"** %9, align 8, !llfi_index !571
  %33 = load %"struct.std::pair"*, %"struct.std::pair"** %9, align 8, !llfi_index !572
  %34 = load %"struct.std::pair"*, %"struct.std::pair"** %6, align 8, !llfi_index !573
  %35 = load i64, i64* %7, align 8, !llfi_index !574
  call void @_ZSt16__introsort_loopIPSt4pairIiiElN9__gnu_cxx5__ops15_Iter_less_iterEEvT_S6_T0_T1_(%"struct.std::pair"* %33, %"struct.std::pair"* %34, i64 %35), !llfi_index !575
  %36 = load %"struct.std::pair"*, %"struct.std::pair"** %9, align 8, !llfi_index !576
  store %"struct.std::pair"* %36, %"struct.std::pair"** %6, align 8, !llfi_index !577
  br label %12, !llvm.loop !578, !llfi_index !579

37:                                               ; preds = %23, %12
  ret void, !llfi_index !580
}

; Function Attrs: mustprogress noinline uwtable
define linkonce_odr dso_local void @_ZSt22__final_insertion_sortIPSt4pairIiiEN9__gnu_cxx5__ops15_Iter_less_iterEEvT_S6_T0_(%"struct.std::pair"* %0, %"struct.std::pair"* %1) #4 comdat {
  %3 = alloca %"class.std::ios_base::Init", align 1, !llfi_index !581
  %4 = alloca %"struct.std::pair"*, align 8, !llfi_index !582
  %5 = alloca %"struct.std::pair"*, align 8, !llfi_index !583
  %6 = alloca %"class.std::ios_base::Init", align 1, !llfi_index !584
  %7 = alloca %"class.std::ios_base::Init", align 1, !llfi_index !585
  %8 = alloca %"class.std::ios_base::Init", align 1, !llfi_index !586
  store %"struct.std::pair"* %0, %"struct.std::pair"** %4, align 8, !llfi_index !587
  store %"struct.std::pair"* %1, %"struct.std::pair"** %5, align 8, !llfi_index !588
  %9 = load %"struct.std::pair"*, %"struct.std::pair"** %5, align 8, !llfi_index !589
  %10 = load %"struct.std::pair"*, %"struct.std::pair"** %4, align 8, !llfi_index !590
  %11 = ptrtoint %"struct.std::pair"* %9 to i64, !llfi_index !591
  %12 = ptrtoint %"struct.std::pair"* %10 to i64, !llfi_index !592
  %13 = sub i64 %11, %12, !llfi_index !593
  %14 = sdiv exact i64 %13, 8, !llfi_index !594
  %15 = icmp sgt i64 %14, 16, !llfi_index !595
  br i1 %15, label %16, label %23, !llfi_index !596

16:                                               ; preds = %2
  %17 = load %"struct.std::pair"*, %"struct.std::pair"** %4, align 8, !llfi_index !597
  %18 = load %"struct.std::pair"*, %"struct.std::pair"** %4, align 8, !llfi_index !598
  %19 = getelementptr inbounds %"struct.std::pair", %"struct.std::pair"* %18, i64 16, !llfi_index !599
  call void @_ZSt16__insertion_sortIPSt4pairIiiEN9__gnu_cxx5__ops15_Iter_less_iterEEvT_S6_T0_(%"struct.std::pair"* %17, %"struct.std::pair"* %19), !llfi_index !600
  %20 = load %"struct.std::pair"*, %"struct.std::pair"** %4, align 8, !llfi_index !601
  %21 = getelementptr inbounds %"struct.std::pair", %"struct.std::pair"* %20, i64 16, !llfi_index !602
  %22 = load %"struct.std::pair"*, %"struct.std::pair"** %5, align 8, !llfi_index !603
  call void @_ZSt26__unguarded_insertion_sortIPSt4pairIiiEN9__gnu_cxx5__ops15_Iter_less_iterEEvT_S6_T0_(%"struct.std::pair"* %21, %"struct.std::pair"* %22), !llfi_index !604
  br label %26, !llfi_index !605

23:                                               ; preds = %2
  %24 = load %"struct.std::pair"*, %"struct.std::pair"** %4, align 8, !llfi_index !606
  %25 = load %"struct.std::pair"*, %"struct.std::pair"** %5, align 8, !llfi_index !607
  call void @_ZSt16__insertion_sortIPSt4pairIiiEN9__gnu_cxx5__ops15_Iter_less_iterEEvT_S6_T0_(%"struct.std::pair"* %24, %"struct.std::pair"* %25), !llfi_index !608
  br label %26, !llfi_index !609

26:                                               ; preds = %23, %16
  ret void, !llfi_index !610
}

; Function Attrs: mustprogress noinline uwtable
define linkonce_odr dso_local void @_ZSt16__insertion_sortIPSt4pairIiiEN9__gnu_cxx5__ops15_Iter_less_iterEEvT_S6_T0_(%"struct.std::pair"* %0, %"struct.std::pair"* %1) #4 comdat {
  %3 = alloca %"class.std::ios_base::Init", align 1, !llfi_index !611
  %4 = alloca %"struct.std::pair"*, align 8, !llfi_index !612
  %5 = alloca %"struct.std::pair"*, align 8, !llfi_index !613
  %6 = alloca %"struct.std::pair"*, align 8, !llfi_index !614
  %7 = alloca %"struct.std::pair", align 4, !llfi_index !615
  %8 = alloca %"class.std::ios_base::Init", align 1, !llfi_index !616
  %9 = alloca %"class.std::ios_base::Init", align 1, !llfi_index !617
  %10 = alloca %"class.std::ios_base::Init", align 1, !llfi_index !618
  store %"struct.std::pair"* %0, %"struct.std::pair"** %4, align 8, !llfi_index !619
  store %"struct.std::pair"* %1, %"struct.std::pair"** %5, align 8, !llfi_index !620
  %11 = load %"struct.std::pair"*, %"struct.std::pair"** %4, align 8, !llfi_index !621
  %12 = load %"struct.std::pair"*, %"struct.std::pair"** %5, align 8, !llfi_index !622
  %13 = icmp eq %"struct.std::pair"* %11, %12, !llfi_index !623
  br i1 %13, label %14, label %15, !llfi_index !624

14:                                               ; preds = %2
  br label %45, !llfi_index !625

15:                                               ; preds = %2
  %16 = load %"struct.std::pair"*, %"struct.std::pair"** %4, align 8, !llfi_index !626
  %17 = getelementptr inbounds %"struct.std::pair", %"struct.std::pair"* %16, i64 1, !llfi_index !627
  store %"struct.std::pair"* %17, %"struct.std::pair"** %6, align 8, !llfi_index !628
  br label %18, !llfi_index !629

18:                                               ; preds = %42, %15
  %19 = load %"struct.std::pair"*, %"struct.std::pair"** %6, align 8, !llfi_index !630
  %20 = load %"struct.std::pair"*, %"struct.std::pair"** %5, align 8, !llfi_index !631
  %21 = icmp ne %"struct.std::pair"* %19, %20, !llfi_index !632
  br i1 %21, label %22, label %45, !llfi_index !633

22:                                               ; preds = %18
  %23 = load %"struct.std::pair"*, %"struct.std::pair"** %6, align 8, !llfi_index !634
  %24 = load %"struct.std::pair"*, %"struct.std::pair"** %4, align 8, !llfi_index !635
  %25 = call zeroext i1 @_ZNK9__gnu_cxx5__ops15_Iter_less_iterclIPSt4pairIiiES5_EEbT_T0_(%"class.std::ios_base::Init"* nonnull align 1 dereferenceable(1) %3, %"struct.std::pair"* %23, %"struct.std::pair"* %24), !llfi_index !636
  br i1 %25, label %26, label %39, !llfi_index !637

26:                                               ; preds = %22
  %27 = load %"struct.std::pair"*, %"struct.std::pair"** %6, align 8, !llfi_index !638
  %28 = call nonnull align 4 dereferenceable(8) %"struct.std::pair"* @_ZSt4moveIRSt4pairIiiEEONSt16remove_referenceIT_E4typeEOS4_(%"struct.std::pair"* nonnull align 4 dereferenceable(8) %27) #2, !llfi_index !639
  %29 = bitcast %"struct.std::pair"* %7 to i8*, !llfi_index !640
  %30 = bitcast %"struct.std::pair"* %28 to i8*, !llfi_index !641
  call void @llvm.memcpy.p0i8.p0i8.i64(i8* align 4 %29, i8* align 4 %30, i64 8, i1 false), !llfi_index !642
  %31 = load %"struct.std::pair"*, %"struct.std::pair"** %4, align 8, !llfi_index !643
  %32 = load %"struct.std::pair"*, %"struct.std::pair"** %6, align 8, !llfi_index !644
  %33 = load %"struct.std::pair"*, %"struct.std::pair"** %6, align 8, !llfi_index !645
  %34 = getelementptr inbounds %"struct.std::pair", %"struct.std::pair"* %33, i64 1, !llfi_index !646
  %35 = call %"struct.std::pair"* @_ZSt13move_backwardIPSt4pairIiiES2_ET0_T_S4_S3_(%"struct.std::pair"* %31, %"struct.std::pair"* %32, %"struct.std::pair"* %34), !llfi_index !647
  %36 = call nonnull align 4 dereferenceable(8) %"struct.std::pair"* @_ZSt4moveIRSt4pairIiiEEONSt16remove_referenceIT_E4typeEOS4_(%"struct.std::pair"* nonnull align 4 dereferenceable(8) %7) #2, !llfi_index !648
  %37 = load %"struct.std::pair"*, %"struct.std::pair"** %4, align 8, !llfi_index !649
  %38 = call nonnull align 4 dereferenceable(8) %"struct.std::pair"* @_ZNSt4pairIiiEaSEOS0_(%"struct.std::pair"* nonnull align 4 dereferenceable(8) %37, %"struct.std::pair"* nonnull align 4 dereferenceable(8) %36) #2, !llfi_index !650
  br label %41, !llfi_index !651

39:                                               ; preds = %22
  %40 = load %"struct.std::pair"*, %"struct.std::pair"** %6, align 8, !llfi_index !652
  call void @_ZN9__gnu_cxx5__ops15__val_comp_iterENS0_15_Iter_less_iterE(), !llfi_index !653
  call void @_ZSt25__unguarded_linear_insertIPSt4pairIiiEN9__gnu_cxx5__ops14_Val_less_iterEEvT_T0_(%"struct.std::pair"* %40), !llfi_index !654
  br label %41, !llfi_index !655

41:                                               ; preds = %39, %26
  br label %42, !llfi_index !656

42:                                               ; preds = %41
  %43 = load %"struct.std::pair"*, %"struct.std::pair"** %6, align 8, !llfi_index !657
  %44 = getelementptr inbounds %"struct.std::pair", %"struct.std::pair"* %43, i32 1, !llfi_index !658
  store %"struct.std::pair"* %44, %"struct.std::pair"** %6, align 8, !llfi_index !659
  br label %18, !llvm.loop !660, !llfi_index !661

45:                                               ; preds = %18, %14
  ret void, !llfi_index !662
}

; Function Attrs: mustprogress noinline uwtable
define linkonce_odr dso_local void @_ZSt26__unguarded_insertion_sortIPSt4pairIiiEN9__gnu_cxx5__ops15_Iter_less_iterEEvT_S6_T0_(%"struct.std::pair"* %0, %"struct.std::pair"* %1) #4 comdat {
  %3 = alloca %"class.std::ios_base::Init", align 1, !llfi_index !663
  %4 = alloca %"struct.std::pair"*, align 8, !llfi_index !664
  %5 = alloca %"struct.std::pair"*, align 8, !llfi_index !665
  %6 = alloca %"struct.std::pair"*, align 8, !llfi_index !666
  %7 = alloca %"class.std::ios_base::Init", align 1, !llfi_index !667
  %8 = alloca %"class.std::ios_base::Init", align 1, !llfi_index !668
  %9 = alloca %"class.std::ios_base::Init", align 1, !llfi_index !669
  store %"struct.std::pair"* %0, %"struct.std::pair"** %4, align 8, !llfi_index !670
  store %"struct.std::pair"* %1, %"struct.std::pair"** %5, align 8, !llfi_index !671
  %10 = load %"struct.std::pair"*, %"struct.std::pair"** %4, align 8, !llfi_index !672
  store %"struct.std::pair"* %10, %"struct.std::pair"** %6, align 8, !llfi_index !673
  br label %11, !llfi_index !674

11:                                               ; preds = %17, %2
  %12 = load %"struct.std::pair"*, %"struct.std::pair"** %6, align 8, !llfi_index !675
  %13 = load %"struct.std::pair"*, %"struct.std::pair"** %5, align 8, !llfi_index !676
  %14 = icmp ne %"struct.std::pair"* %12, %13, !llfi_index !677
  br i1 %14, label %15, label %20, !llfi_index !678

15:                                               ; preds = %11
  %16 = load %"struct.std::pair"*, %"struct.std::pair"** %6, align 8, !llfi_index !679
  call void @_ZN9__gnu_cxx5__ops15__val_comp_iterENS0_15_Iter_less_iterE(), !llfi_index !680
  call void @_ZSt25__unguarded_linear_insertIPSt4pairIiiEN9__gnu_cxx5__ops14_Val_less_iterEEvT_T0_(%"struct.std::pair"* %16), !llfi_index !681
  br label %17, !llfi_index !682

17:                                               ; preds = %15
  %18 = load %"struct.std::pair"*, %"struct.std::pair"** %6, align 8, !llfi_index !683
  %19 = getelementptr inbounds %"struct.std::pair", %"struct.std::pair"* %18, i32 1, !llfi_index !684
  store %"struct.std::pair"* %19, %"struct.std::pair"** %6, align 8, !llfi_index !685
  br label %11, !llvm.loop !686, !llfi_index !687

20:                                               ; preds = %11
  ret void, !llfi_index !688
}

; Function Attrs: mustprogress noinline nounwind uwtable
define linkonce_odr dso_local void @_ZN9__gnu_cxx5__ops15__val_comp_iterENS0_15_Iter_less_iterE() #6 comdat {
  %1 = alloca %"class.std::ios_base::Init", align 1, !llfi_index !689
  ret void, !llfi_index !690
}

; Function Attrs: mustprogress noinline uwtable
define linkonce_odr dso_local void @_ZSt25__unguarded_linear_insertIPSt4pairIiiEN9__gnu_cxx5__ops14_Val_less_iterEEvT_T0_(%"struct.std::pair"* %0) #4 comdat {
  %2 = alloca %"class.std::ios_base::Init", align 1, !llfi_index !691
  %3 = alloca %"struct.std::pair"*, align 8, !llfi_index !692
  %4 = alloca %"struct.std::pair", align 4, !llfi_index !693
  %5 = alloca %"struct.std::pair"*, align 8, !llfi_index !694
  store %"struct.std::pair"* %0, %"struct.std::pair"** %3, align 8, !llfi_index !695
  %6 = load %"struct.std::pair"*, %"struct.std::pair"** %3, align 8, !llfi_index !696
  %7 = call nonnull align 4 dereferenceable(8) %"struct.std::pair"* @_ZSt4moveIRSt4pairIiiEEONSt16remove_referenceIT_E4typeEOS4_(%"struct.std::pair"* nonnull align 4 dereferenceable(8) %6) #2, !llfi_index !697
  %8 = bitcast %"struct.std::pair"* %4 to i8*, !llfi_index !698
  %9 = bitcast %"struct.std::pair"* %7 to i8*, !llfi_index !699
  call void @llvm.memcpy.p0i8.p0i8.i64(i8* align 4 %8, i8* align 4 %9, i64 8, i1 false), !llfi_index !700
  %10 = load %"struct.std::pair"*, %"struct.std::pair"** %3, align 8, !llfi_index !701
  store %"struct.std::pair"* %10, %"struct.std::pair"** %5, align 8, !llfi_index !702
  %11 = load %"struct.std::pair"*, %"struct.std::pair"** %5, align 8, !llfi_index !703
  %12 = getelementptr inbounds %"struct.std::pair", %"struct.std::pair"* %11, i32 -1, !llfi_index !704
  store %"struct.std::pair"* %12, %"struct.std::pair"** %5, align 8, !llfi_index !705
  br label %13, !llfi_index !706

13:                                               ; preds = %16, %1
  %14 = load %"struct.std::pair"*, %"struct.std::pair"** %5, align 8, !llfi_index !707
  %15 = call zeroext i1 @_ZNK9__gnu_cxx5__ops14_Val_less_iterclISt4pairIiiEPS4_EEbRT_T0_(%"class.std::ios_base::Init"* nonnull align 1 dereferenceable(1) %2, %"struct.std::pair"* nonnull align 4 dereferenceable(8) %4, %"struct.std::pair"* %14), !llfi_index !708
  br i1 %15, label %16, label %24, !llfi_index !709

16:                                               ; preds = %13
  %17 = load %"struct.std::pair"*, %"struct.std::pair"** %5, align 8, !llfi_index !710
  %18 = call nonnull align 4 dereferenceable(8) %"struct.std::pair"* @_ZSt4moveIRSt4pairIiiEEONSt16remove_referenceIT_E4typeEOS4_(%"struct.std::pair"* nonnull align 4 dereferenceable(8) %17) #2, !llfi_index !711
  %19 = load %"struct.std::pair"*, %"struct.std::pair"** %3, align 8, !llfi_index !712
  %20 = call nonnull align 4 dereferenceable(8) %"struct.std::pair"* @_ZNSt4pairIiiEaSEOS0_(%"struct.std::pair"* nonnull align 4 dereferenceable(8) %19, %"struct.std::pair"* nonnull align 4 dereferenceable(8) %18) #2, !llfi_index !713
  %21 = load %"struct.std::pair"*, %"struct.std::pair"** %5, align 8, !llfi_index !714
  store %"struct.std::pair"* %21, %"struct.std::pair"** %3, align 8, !llfi_index !715
  %22 = load %"struct.std::pair"*, %"struct.std::pair"** %5, align 8, !llfi_index !716
  %23 = getelementptr inbounds %"struct.std::pair", %"struct.std::pair"* %22, i32 -1, !llfi_index !717
  store %"struct.std::pair"* %23, %"struct.std::pair"** %5, align 8, !llfi_index !718
  br label %13, !llvm.loop !719, !llfi_index !720

24:                                               ; preds = %13
  %25 = call nonnull align 4 dereferenceable(8) %"struct.std::pair"* @_ZSt4moveIRSt4pairIiiEEONSt16remove_referenceIT_E4typeEOS4_(%"struct.std::pair"* nonnull align 4 dereferenceable(8) %4) #2, !llfi_index !721
  %26 = load %"struct.std::pair"*, %"struct.std::pair"** %3, align 8, !llfi_index !722
  %27 = call nonnull align 4 dereferenceable(8) %"struct.std::pair"* @_ZNSt4pairIiiEaSEOS0_(%"struct.std::pair"* nonnull align 4 dereferenceable(8) %26, %"struct.std::pair"* nonnull align 4 dereferenceable(8) %25) #2, !llfi_index !723
  ret void, !llfi_index !724
}

; Function Attrs: mustprogress noinline nounwind uwtable
define linkonce_odr dso_local nonnull align 4 dereferenceable(8) %"struct.std::pair"* @_ZSt4moveIRSt4pairIiiEEONSt16remove_referenceIT_E4typeEOS4_(%"struct.std::pair"* nonnull align 4 dereferenceable(8) %0) #6 comdat {
  %2 = alloca %"struct.std::pair"*, align 8, !llfi_index !725
  store %"struct.std::pair"* %0, %"struct.std::pair"** %2, align 8, !llfi_index !726
  %3 = load %"struct.std::pair"*, %"struct.std::pair"** %2, align 8, !llfi_index !727
  ret %"struct.std::pair"* %3, !llfi_index !728
}

; Function Attrs: argmemonly nofree nounwind willreturn
declare void @llvm.memcpy.p0i8.p0i8.i64(i8* noalias nocapture writeonly, i8* noalias nocapture readonly, i64, i1 immarg) #7

; Function Attrs: mustprogress noinline nounwind uwtable
define linkonce_odr dso_local zeroext i1 @_ZNK9__gnu_cxx5__ops14_Val_less_iterclISt4pairIiiEPS4_EEbRT_T0_(%"class.std::ios_base::Init"* nonnull align 1 dereferenceable(1) %0, %"struct.std::pair"* nonnull align 4 dereferenceable(8) %1, %"struct.std::pair"* %2) #6 comdat align 2 {
  %4 = alloca %"class.std::ios_base::Init"*, align 8, !llfi_index !729
  %5 = alloca %"struct.std::pair"*, align 8, !llfi_index !730
  %6 = alloca %"struct.std::pair"*, align 8, !llfi_index !731
  store %"class.std::ios_base::Init"* %0, %"class.std::ios_base::Init"** %4, align 8, !llfi_index !732
  store %"struct.std::pair"* %1, %"struct.std::pair"** %5, align 8, !llfi_index !733
  store %"struct.std::pair"* %2, %"struct.std::pair"** %6, align 8, !llfi_index !734
  %7 = load %"class.std::ios_base::Init"*, %"class.std::ios_base::Init"** %4, align 8, !llfi_index !735
  %8 = load %"struct.std::pair"*, %"struct.std::pair"** %5, align 8, !llfi_index !736
  %9 = load %"struct.std::pair"*, %"struct.std::pair"** %6, align 8, !llfi_index !737
  %10 = call zeroext i1 @_ZStltIiiEbRKSt4pairIT_T0_ES5_(%"struct.std::pair"* nonnull align 4 dereferenceable(8) %8, %"struct.std::pair"* nonnull align 4 dereferenceable(8) %9), !llfi_index !738
  ret i1 %10, !llfi_index !739
}

; Function Attrs: mustprogress noinline nounwind uwtable
define linkonce_odr dso_local nonnull align 4 dereferenceable(8) %"struct.std::pair"* @_ZNSt4pairIiiEaSEOS0_(%"struct.std::pair"* nonnull align 4 dereferenceable(8) %0, %"struct.std::pair"* nonnull align 4 dereferenceable(8) %1) #6 comdat align 2 {
  %3 = alloca %"struct.std::pair"*, align 8, !llfi_index !740
  %4 = alloca %"struct.std::pair"*, align 8, !llfi_index !741
  store %"struct.std::pair"* %0, %"struct.std::pair"** %3, align 8, !llfi_index !742
  store %"struct.std::pair"* %1, %"struct.std::pair"** %4, align 8, !llfi_index !743
  %5 = load %"struct.std::pair"*, %"struct.std::pair"** %3, align 8, !llfi_index !744
  %6 = load %"struct.std::pair"*, %"struct.std::pair"** %4, align 8, !llfi_index !745
  %7 = getelementptr inbounds %"struct.std::pair", %"struct.std::pair"* %6, i32 0, i32 0, !llfi_index !746
  %8 = call nonnull align 4 dereferenceable(4) i32* @_ZSt7forwardIiEOT_RNSt16remove_referenceIS0_E4typeE(i32* nonnull align 4 dereferenceable(4) %7) #2, !llfi_index !747
  %9 = load i32, i32* %8, align 4, !llfi_index !748
  %10 = getelementptr inbounds %"struct.std::pair", %"struct.std::pair"* %5, i32 0, i32 0, !llfi_index !749
  store i32 %9, i32* %10, align 4, !llfi_index !750
  %11 = load %"struct.std::pair"*, %"struct.std::pair"** %4, align 8, !llfi_index !751
  %12 = getelementptr inbounds %"struct.std::pair", %"struct.std::pair"* %11, i32 0, i32 1, !llfi_index !752
  %13 = call nonnull align 4 dereferenceable(4) i32* @_ZSt7forwardIiEOT_RNSt16remove_referenceIS0_E4typeE(i32* nonnull align 4 dereferenceable(4) %12) #2, !llfi_index !753
  %14 = load i32, i32* %13, align 4, !llfi_index !754
  %15 = getelementptr inbounds %"struct.std::pair", %"struct.std::pair"* %5, i32 0, i32 1, !llfi_index !755
  store i32 %14, i32* %15, align 4, !llfi_index !756
  ret %"struct.std::pair"* %5, !llfi_index !757
}

; Function Attrs: mustprogress noinline nounwind uwtable
define linkonce_odr dso_local nonnull align 4 dereferenceable(4) i32* @_ZSt7forwardIiEOT_RNSt16remove_referenceIS0_E4typeE(i32* nonnull align 4 dereferenceable(4) %0) #6 comdat {
  %2 = alloca i32*, align 8, !llfi_index !758
  store i32* %0, i32** %2, align 8, !llfi_index !759
  %3 = load i32*, i32** %2, align 8, !llfi_index !760
  ret i32* %3, !llfi_index !761
}

; Function Attrs: mustprogress noinline nounwind uwtable
define linkonce_odr dso_local zeroext i1 @_ZStltIiiEbRKSt4pairIT_T0_ES5_(%"struct.std::pair"* nonnull align 4 dereferenceable(8) %0, %"struct.std::pair"* nonnull align 4 dereferenceable(8) %1) #6 comdat {
  %3 = alloca %"struct.std::pair"*, align 8, !llfi_index !762
  %4 = alloca %"struct.std::pair"*, align 8, !llfi_index !763
  store %"struct.std::pair"* %0, %"struct.std::pair"** %3, align 8, !llfi_index !764
  store %"struct.std::pair"* %1, %"struct.std::pair"** %4, align 8, !llfi_index !765
  %5 = load %"struct.std::pair"*, %"struct.std::pair"** %3, align 8, !llfi_index !766
  %6 = getelementptr inbounds %"struct.std::pair", %"struct.std::pair"* %5, i32 0, i32 0, !llfi_index !767
  %7 = load i32, i32* %6, align 4, !llfi_index !768
  %8 = load %"struct.std::pair"*, %"struct.std::pair"** %4, align 8, !llfi_index !769
  %9 = getelementptr inbounds %"struct.std::pair", %"struct.std::pair"* %8, i32 0, i32 0, !llfi_index !770
  %10 = load i32, i32* %9, align 4, !llfi_index !771
  %11 = icmp slt i32 %7, %10, !llfi_index !772
  br i1 %11, label %30, label %12, !llfi_index !773

12:                                               ; preds = %2
  %13 = load %"struct.std::pair"*, %"struct.std::pair"** %4, align 8, !llfi_index !774
  %14 = getelementptr inbounds %"struct.std::pair", %"struct.std::pair"* %13, i32 0, i32 0, !llfi_index !775
  %15 = load i32, i32* %14, align 4, !llfi_index !776
  %16 = load %"struct.std::pair"*, %"struct.std::pair"** %3, align 8, !llfi_index !777
  %17 = getelementptr inbounds %"struct.std::pair", %"struct.std::pair"* %16, i32 0, i32 0, !llfi_index !778
  %18 = load i32, i32* %17, align 4, !llfi_index !779
  %19 = icmp slt i32 %15, %18, !llfi_index !780
  br i1 %19, label %28, label %20, !llfi_index !781

20:                                               ; preds = %12
  %21 = load %"struct.std::pair"*, %"struct.std::pair"** %3, align 8, !llfi_index !782
  %22 = getelementptr inbounds %"struct.std::pair", %"struct.std::pair"* %21, i32 0, i32 1, !llfi_index !783
  %23 = load i32, i32* %22, align 4, !llfi_index !784
  %24 = load %"struct.std::pair"*, %"struct.std::pair"** %4, align 8, !llfi_index !785
  %25 = getelementptr inbounds %"struct.std::pair", %"struct.std::pair"* %24, i32 0, i32 1, !llfi_index !786
  %26 = load i32, i32* %25, align 4, !llfi_index !787
  %27 = icmp slt i32 %23, %26, !llfi_index !788
  br label %28, !llfi_index !789

28:                                               ; preds = %20, %12
  %29 = phi i1 [ false, %12 ], [ %27, %20 ], !llfi_index !790
  br label %30, !llfi_index !791

30:                                               ; preds = %28, %2
  %31 = phi i1 [ true, %2 ], [ %29, %28 ], !llfi_index !792
  ret i1 %31, !llfi_index !793
}

; Function Attrs: mustprogress noinline nounwind uwtable
define linkonce_odr dso_local zeroext i1 @_ZNK9__gnu_cxx5__ops15_Iter_less_iterclIPSt4pairIiiES5_EEbT_T0_(%"class.std::ios_base::Init"* nonnull align 1 dereferenceable(1) %0, %"struct.std::pair"* %1, %"struct.std::pair"* %2) #6 comdat align 2 {
  %4 = alloca %"class.std::ios_base::Init"*, align 8, !llfi_index !794
  %5 = alloca %"struct.std::pair"*, align 8, !llfi_index !795
  %6 = alloca %"struct.std::pair"*, align 8, !llfi_index !796
  store %"class.std::ios_base::Init"* %0, %"class.std::ios_base::Init"** %4, align 8, !llfi_index !797
  store %"struct.std::pair"* %1, %"struct.std::pair"** %5, align 8, !llfi_index !798
  store %"struct.std::pair"* %2, %"struct.std::pair"** %6, align 8, !llfi_index !799
  %7 = load %"class.std::ios_base::Init"*, %"class.std::ios_base::Init"** %4, align 8, !llfi_index !800
  %8 = load %"struct.std::pair"*, %"struct.std::pair"** %5, align 8, !llfi_index !801
  %9 = load %"struct.std::pair"*, %"struct.std::pair"** %6, align 8, !llfi_index !802
  %10 = call zeroext i1 @_ZStltIiiEbRKSt4pairIT_T0_ES5_(%"struct.std::pair"* nonnull align 4 dereferenceable(8) %8, %"struct.std::pair"* nonnull align 4 dereferenceable(8) %9), !llfi_index !803
  ret i1 %10, !llfi_index !804
}

; Function Attrs: mustprogress noinline uwtable
define linkonce_odr dso_local %"struct.std::pair"* @_ZSt13move_backwardIPSt4pairIiiES2_ET0_T_S4_S3_(%"struct.std::pair"* %0, %"struct.std::pair"* %1, %"struct.std::pair"* %2) #4 comdat {
  %4 = alloca %"struct.std::pair"*, align 8, !llfi_index !805
  %5 = alloca %"struct.std::pair"*, align 8, !llfi_index !806
  %6 = alloca %"struct.std::pair"*, align 8, !llfi_index !807
  store %"struct.std::pair"* %0, %"struct.std::pair"** %4, align 8, !llfi_index !808
  store %"struct.std::pair"* %1, %"struct.std::pair"** %5, align 8, !llfi_index !809
  store %"struct.std::pair"* %2, %"struct.std::pair"** %6, align 8, !llfi_index !810
  %7 = load %"struct.std::pair"*, %"struct.std::pair"** %4, align 8, !llfi_index !811
  %8 = call %"struct.std::pair"* @_ZSt12__miter_baseIPSt4pairIiiEET_S3_(%"struct.std::pair"* %7), !llfi_index !812
  %9 = load %"struct.std::pair"*, %"struct.std::pair"** %5, align 8, !llfi_index !813
  %10 = call %"struct.std::pair"* @_ZSt12__miter_baseIPSt4pairIiiEET_S3_(%"struct.std::pair"* %9), !llfi_index !814
  %11 = load %"struct.std::pair"*, %"struct.std::pair"** %6, align 8, !llfi_index !815
  %12 = call %"struct.std::pair"* @_ZSt23__copy_move_backward_a2ILb1EPSt4pairIiiES2_ET1_T0_S4_S3_(%"struct.std::pair"* %8, %"struct.std::pair"* %10, %"struct.std::pair"* %11), !llfi_index !816
  ret %"struct.std::pair"* %12, !llfi_index !817
}

; Function Attrs: mustprogress noinline nounwind uwtable
define linkonce_odr dso_local %"struct.std::pair"* @_ZSt12__miter_baseIPSt4pairIiiEET_S3_(%"struct.std::pair"* %0) #6 comdat {
  %2 = alloca %"struct.std::pair"*, align 8, !llfi_index !818
  store %"struct.std::pair"* %0, %"struct.std::pair"** %2, align 8, !llfi_index !819
  %3 = load %"struct.std::pair"*, %"struct.std::pair"** %2, align 8, !llfi_index !820
  ret %"struct.std::pair"* %3, !llfi_index !821
}

; Function Attrs: mustprogress noinline uwtable
define linkonce_odr dso_local %"struct.std::pair"* @_ZSt23__copy_move_backward_a2ILb1EPSt4pairIiiES2_ET1_T0_S4_S3_(%"struct.std::pair"* %0, %"struct.std::pair"* %1, %"struct.std::pair"* %2) #4 comdat {
  %4 = alloca %"struct.std::pair"*, align 8, !llfi_index !822
  %5 = alloca %"struct.std::pair"*, align 8, !llfi_index !823
  %6 = alloca %"struct.std::pair"*, align 8, !llfi_index !824
  store %"struct.std::pair"* %0, %"struct.std::pair"** %4, align 8, !llfi_index !825
  store %"struct.std::pair"* %1, %"struct.std::pair"** %5, align 8, !llfi_index !826
  store %"struct.std::pair"* %2, %"struct.std::pair"** %6, align 8, !llfi_index !827
  %7 = load %"struct.std::pair"*, %"struct.std::pair"** %4, align 8, !llfi_index !828
  %8 = call %"struct.std::pair"* @_ZSt12__niter_baseIPSt4pairIiiEET_S3_(%"struct.std::pair"* %7) #2, !llfi_index !829
  %9 = load %"struct.std::pair"*, %"struct.std::pair"** %5, align 8, !llfi_index !830
  %10 = call %"struct.std::pair"* @_ZSt12__niter_baseIPSt4pairIiiEET_S3_(%"struct.std::pair"* %9) #2, !llfi_index !831
  %11 = load %"struct.std::pair"*, %"struct.std::pair"** %6, align 8, !llfi_index !832
  %12 = call %"struct.std::pair"* @_ZSt12__niter_baseIPSt4pairIiiEET_S3_(%"struct.std::pair"* %11) #2, !llfi_index !833
  %13 = call %"struct.std::pair"* @_ZSt22__copy_move_backward_aILb1EPSt4pairIiiES2_ET1_T0_S4_S3_(%"struct.std::pair"* %8, %"struct.std::pair"* %10, %"struct.std::pair"* %12), !llfi_index !834
  %14 = call %"struct.std::pair"* @_ZSt12__niter_wrapIPSt4pairIiiEET_RKS3_S3_(%"struct.std::pair"** nonnull align 8 dereferenceable(8) %6, %"struct.std::pair"* %13), !llfi_index !835
  ret %"struct.std::pair"* %14, !llfi_index !836
}

; Function Attrs: mustprogress noinline nounwind uwtable
define linkonce_odr dso_local %"struct.std::pair"* @_ZSt12__niter_baseIPSt4pairIiiEET_S3_(%"struct.std::pair"* %0) #6 comdat {
  %2 = alloca %"struct.std::pair"*, align 8, !llfi_index !837
  store %"struct.std::pair"* %0, %"struct.std::pair"** %2, align 8, !llfi_index !838
  %3 = load %"struct.std::pair"*, %"struct.std::pair"** %2, align 8, !llfi_index !839
  ret %"struct.std::pair"* %3, !llfi_index !840
}

; Function Attrs: mustprogress noinline uwtable
define linkonce_odr dso_local %"struct.std::pair"* @_ZSt22__copy_move_backward_aILb1EPSt4pairIiiES2_ET1_T0_S4_S3_(%"struct.std::pair"* %0, %"struct.std::pair"* %1, %"struct.std::pair"* %2) #4 comdat {
  %4 = alloca %"struct.std::pair"*, align 8, !llfi_index !841
  %5 = alloca %"struct.std::pair"*, align 8, !llfi_index !842
  %6 = alloca %"struct.std::pair"*, align 8, !llfi_index !843
  %7 = alloca i8, align 1, !llfi_index !844
  store %"struct.std::pair"* %0, %"struct.std::pair"** %4, align 8, !llfi_index !845
  store %"struct.std::pair"* %1, %"struct.std::pair"** %5, align 8, !llfi_index !846
  store %"struct.std::pair"* %2, %"struct.std::pair"** %6, align 8, !llfi_index !847
  store i8 0, i8* %7, align 1, !llfi_index !848
  %8 = load %"struct.std::pair"*, %"struct.std::pair"** %4, align 8, !llfi_index !849
  %9 = load %"struct.std::pair"*, %"struct.std::pair"** %5, align 8, !llfi_index !850
  %10 = load %"struct.std::pair"*, %"struct.std::pair"** %6, align 8, !llfi_index !851
  %11 = call %"struct.std::pair"* @_ZNSt20__copy_move_backwardILb1ELb0ESt26random_access_iterator_tagE13__copy_move_bIPSt4pairIiiES5_EET0_T_S7_S6_(%"struct.std::pair"* %8, %"struct.std::pair"* %9, %"struct.std::pair"* %10), !llfi_index !852
  ret %"struct.std::pair"* %11, !llfi_index !853
}

; Function Attrs: mustprogress noinline nounwind uwtable
define linkonce_odr dso_local %"struct.std::pair"* @_ZSt12__niter_wrapIPSt4pairIiiEET_RKS3_S3_(%"struct.std::pair"** nonnull align 8 dereferenceable(8) %0, %"struct.std::pair"* %1) #6 comdat {
  %3 = alloca %"struct.std::pair"**, align 8, !llfi_index !854
  %4 = alloca %"struct.std::pair"*, align 8, !llfi_index !855
  store %"struct.std::pair"** %0, %"struct.std::pair"*** %3, align 8, !llfi_index !856
  store %"struct.std::pair"* %1, %"struct.std::pair"** %4, align 8, !llfi_index !857
  %5 = load %"struct.std::pair"*, %"struct.std::pair"** %4, align 8, !llfi_index !858
  ret %"struct.std::pair"* %5, !llfi_index !859
}

; Function Attrs: mustprogress noinline nounwind uwtable
define linkonce_odr dso_local %"struct.std::pair"* @_ZNSt20__copy_move_backwardILb1ELb0ESt26random_access_iterator_tagE13__copy_move_bIPSt4pairIiiES5_EET0_T_S7_S6_(%"struct.std::pair"* %0, %"struct.std::pair"* %1, %"struct.std::pair"* %2) #6 comdat align 2 {
  %4 = alloca %"struct.std::pair"*, align 8, !llfi_index !860
  %5 = alloca %"struct.std::pair"*, align 8, !llfi_index !861
  %6 = alloca %"struct.std::pair"*, align 8, !llfi_index !862
  %7 = alloca i64, align 8, !llfi_index !863
  store %"struct.std::pair"* %0, %"struct.std::pair"** %4, align 8, !llfi_index !864
  store %"struct.std::pair"* %1, %"struct.std::pair"** %5, align 8, !llfi_index !865
  store %"struct.std::pair"* %2, %"struct.std::pair"** %6, align 8, !llfi_index !866
  %8 = load %"struct.std::pair"*, %"struct.std::pair"** %5, align 8, !llfi_index !867
  %9 = load %"struct.std::pair"*, %"struct.std::pair"** %4, align 8, !llfi_index !868
  %10 = ptrtoint %"struct.std::pair"* %8 to i64, !llfi_index !869
  %11 = ptrtoint %"struct.std::pair"* %9 to i64, !llfi_index !870
  %12 = sub i64 %10, %11, !llfi_index !871
  %13 = sdiv exact i64 %12, 8, !llfi_index !872
  store i64 %13, i64* %7, align 8, !llfi_index !873
  br label %14, !llfi_index !874

14:                                               ; preds = %24, %3
  %15 = load i64, i64* %7, align 8, !llfi_index !875
  %16 = icmp sgt i64 %15, 0, !llfi_index !876
  br i1 %16, label %17, label %27, !llfi_index !877

17:                                               ; preds = %14
  %18 = load %"struct.std::pair"*, %"struct.std::pair"** %5, align 8, !llfi_index !878
  %19 = getelementptr inbounds %"struct.std::pair", %"struct.std::pair"* %18, i32 -1, !llfi_index !879
  store %"struct.std::pair"* %19, %"struct.std::pair"** %5, align 8, !llfi_index !880
  %20 = call nonnull align 4 dereferenceable(8) %"struct.std::pair"* @_ZSt4moveIRSt4pairIiiEEONSt16remove_referenceIT_E4typeEOS4_(%"struct.std::pair"* nonnull align 4 dereferenceable(8) %19) #2, !llfi_index !881
  %21 = load %"struct.std::pair"*, %"struct.std::pair"** %6, align 8, !llfi_index !882
  %22 = getelementptr inbounds %"struct.std::pair", %"struct.std::pair"* %21, i32 -1, !llfi_index !883
  store %"struct.std::pair"* %22, %"struct.std::pair"** %6, align 8, !llfi_index !884
  %23 = call nonnull align 4 dereferenceable(8) %"struct.std::pair"* @_ZNSt4pairIiiEaSEOS0_(%"struct.std::pair"* nonnull align 4 dereferenceable(8) %22, %"struct.std::pair"* nonnull align 4 dereferenceable(8) %20) #2, !llfi_index !885
  br label %24, !llfi_index !886

24:                                               ; preds = %17
  %25 = load i64, i64* %7, align 8, !llfi_index !887
  %26 = add nsw i64 %25, -1, !llfi_index !888
  store i64 %26, i64* %7, align 8, !llfi_index !889
  br label %14, !llvm.loop !890, !llfi_index !891

27:                                               ; preds = %14
  %28 = load %"struct.std::pair"*, %"struct.std::pair"** %6, align 8, !llfi_index !892
  ret %"struct.std::pair"* %28, !llfi_index !893
}

; Function Attrs: mustprogress noinline uwtable
define linkonce_odr dso_local void @_ZSt14__partial_sortIPSt4pairIiiEN9__gnu_cxx5__ops15_Iter_less_iterEEvT_S6_S6_T0_(%"struct.std::pair"* %0, %"struct.std::pair"* %1, %"struct.std::pair"* %2) #4 comdat {
  %4 = alloca %"class.std::ios_base::Init", align 1, !llfi_index !894
  %5 = alloca %"struct.std::pair"*, align 8, !llfi_index !895
  %6 = alloca %"struct.std::pair"*, align 8, !llfi_index !896
  %7 = alloca %"struct.std::pair"*, align 8, !llfi_index !897
  %8 = alloca %"class.std::ios_base::Init", align 1, !llfi_index !898
  store %"struct.std::pair"* %0, %"struct.std::pair"** %5, align 8, !llfi_index !899
  store %"struct.std::pair"* %1, %"struct.std::pair"** %6, align 8, !llfi_index !900
  store %"struct.std::pair"* %2, %"struct.std::pair"** %7, align 8, !llfi_index !901
  %9 = load %"struct.std::pair"*, %"struct.std::pair"** %5, align 8, !llfi_index !902
  %10 = load %"struct.std::pair"*, %"struct.std::pair"** %6, align 8, !llfi_index !903
  %11 = load %"struct.std::pair"*, %"struct.std::pair"** %7, align 8, !llfi_index !904
  call void @_ZSt13__heap_selectIPSt4pairIiiEN9__gnu_cxx5__ops15_Iter_less_iterEEvT_S6_S6_T0_(%"struct.std::pair"* %9, %"struct.std::pair"* %10, %"struct.std::pair"* %11), !llfi_index !905
  %12 = load %"struct.std::pair"*, %"struct.std::pair"** %5, align 8, !llfi_index !906
  %13 = load %"struct.std::pair"*, %"struct.std::pair"** %6, align 8, !llfi_index !907
  call void @_ZSt11__sort_heapIPSt4pairIiiEN9__gnu_cxx5__ops15_Iter_less_iterEEvT_S6_RT0_(%"struct.std::pair"* %12, %"struct.std::pair"* %13, %"class.std::ios_base::Init"* nonnull align 1 dereferenceable(1) %4), !llfi_index !908
  ret void, !llfi_index !909
}

; Function Attrs: mustprogress noinline uwtable
define linkonce_odr dso_local %"struct.std::pair"* @_ZSt27__unguarded_partition_pivotIPSt4pairIiiEN9__gnu_cxx5__ops15_Iter_less_iterEET_S6_S6_T0_(%"struct.std::pair"* %0, %"struct.std::pair"* %1) #4 comdat {
  %3 = alloca %"class.std::ios_base::Init", align 1, !llfi_index !910
  %4 = alloca %"struct.std::pair"*, align 8, !llfi_index !911
  %5 = alloca %"struct.std::pair"*, align 8, !llfi_index !912
  %6 = alloca %"struct.std::pair"*, align 8, !llfi_index !913
  %7 = alloca %"class.std::ios_base::Init", align 1, !llfi_index !914
  %8 = alloca %"class.std::ios_base::Init", align 1, !llfi_index !915
  store %"struct.std::pair"* %0, %"struct.std::pair"** %4, align 8, !llfi_index !916
  store %"struct.std::pair"* %1, %"struct.std::pair"** %5, align 8, !llfi_index !917
  %9 = load %"struct.std::pair"*, %"struct.std::pair"** %4, align 8, !llfi_index !918
  %10 = load %"struct.std::pair"*, %"struct.std::pair"** %5, align 8, !llfi_index !919
  %11 = load %"struct.std::pair"*, %"struct.std::pair"** %4, align 8, !llfi_index !920
  %12 = ptrtoint %"struct.std::pair"* %10 to i64, !llfi_index !921
  %13 = ptrtoint %"struct.std::pair"* %11 to i64, !llfi_index !922
  %14 = sub i64 %12, %13, !llfi_index !923
  %15 = sdiv exact i64 %14, 8, !llfi_index !924
  %16 = sdiv i64 %15, 2, !llfi_index !925
  %17 = getelementptr inbounds %"struct.std::pair", %"struct.std::pair"* %9, i64 %16, !llfi_index !926
  store %"struct.std::pair"* %17, %"struct.std::pair"** %6, align 8, !llfi_index !927
  %18 = load %"struct.std::pair"*, %"struct.std::pair"** %4, align 8, !llfi_index !928
  %19 = load %"struct.std::pair"*, %"struct.std::pair"** %4, align 8, !llfi_index !929
  %20 = getelementptr inbounds %"struct.std::pair", %"struct.std::pair"* %19, i64 1, !llfi_index !930
  %21 = load %"struct.std::pair"*, %"struct.std::pair"** %6, align 8, !llfi_index !931
  %22 = load %"struct.std::pair"*, %"struct.std::pair"** %5, align 8, !llfi_index !932
  %23 = getelementptr inbounds %"struct.std::pair", %"struct.std::pair"* %22, i64 -1, !llfi_index !933
  call void @_ZSt22__move_median_to_firstIPSt4pairIiiEN9__gnu_cxx5__ops15_Iter_less_iterEEvT_S6_S6_S6_T0_(%"struct.std::pair"* %18, %"struct.std::pair"* %20, %"struct.std::pair"* %21, %"struct.std::pair"* %23), !llfi_index !934
  %24 = load %"struct.std::pair"*, %"struct.std::pair"** %4, align 8, !llfi_index !935
  %25 = getelementptr inbounds %"struct.std::pair", %"struct.std::pair"* %24, i64 1, !llfi_index !936
  %26 = load %"struct.std::pair"*, %"struct.std::pair"** %5, align 8, !llfi_index !937
  %27 = load %"struct.std::pair"*, %"struct.std::pair"** %4, align 8, !llfi_index !938
  %28 = call %"struct.std::pair"* @_ZSt21__unguarded_partitionIPSt4pairIiiEN9__gnu_cxx5__ops15_Iter_less_iterEET_S6_S6_S6_T0_(%"struct.std::pair"* %25, %"struct.std::pair"* %26, %"struct.std::pair"* %27), !llfi_index !939
  ret %"struct.std::pair"* %28, !llfi_index !940
}

; Function Attrs: mustprogress noinline uwtable
define linkonce_odr dso_local void @_ZSt22__move_median_to_firstIPSt4pairIiiEN9__gnu_cxx5__ops15_Iter_less_iterEEvT_S6_S6_S6_T0_(%"struct.std::pair"* %0, %"struct.std::pair"* %1, %"struct.std::pair"* %2, %"struct.std::pair"* %3) #4 comdat {
  %5 = alloca %"class.std::ios_base::Init", align 1, !llfi_index !941
  %6 = alloca %"struct.std::pair"*, align 8, !llfi_index !942
  %7 = alloca %"struct.std::pair"*, align 8, !llfi_index !943
  %8 = alloca %"struct.std::pair"*, align 8, !llfi_index !944
  %9 = alloca %"struct.std::pair"*, align 8, !llfi_index !945
  store %"struct.std::pair"* %0, %"struct.std::pair"** %6, align 8, !llfi_index !946
  store %"struct.std::pair"* %1, %"struct.std::pair"** %7, align 8, !llfi_index !947
  store %"struct.std::pair"* %2, %"struct.std::pair"** %8, align 8, !llfi_index !948
  store %"struct.std::pair"* %3, %"struct.std::pair"** %9, align 8, !llfi_index !949
  %10 = load %"struct.std::pair"*, %"struct.std::pair"** %7, align 8, !llfi_index !950
  %11 = load %"struct.std::pair"*, %"struct.std::pair"** %8, align 8, !llfi_index !951
  %12 = call zeroext i1 @_ZNK9__gnu_cxx5__ops15_Iter_less_iterclIPSt4pairIiiES5_EEbT_T0_(%"class.std::ios_base::Init"* nonnull align 1 dereferenceable(1) %5, %"struct.std::pair"* %10, %"struct.std::pair"* %11), !llfi_index !952
  br i1 %12, label %13, label %32, !llfi_index !953

13:                                               ; preds = %4
  %14 = load %"struct.std::pair"*, %"struct.std::pair"** %8, align 8, !llfi_index !954
  %15 = load %"struct.std::pair"*, %"struct.std::pair"** %9, align 8, !llfi_index !955
  %16 = call zeroext i1 @_ZNK9__gnu_cxx5__ops15_Iter_less_iterclIPSt4pairIiiES5_EEbT_T0_(%"class.std::ios_base::Init"* nonnull align 1 dereferenceable(1) %5, %"struct.std::pair"* %14, %"struct.std::pair"* %15), !llfi_index !956
  br i1 %16, label %17, label %20, !llfi_index !957

17:                                               ; preds = %13
  %18 = load %"struct.std::pair"*, %"struct.std::pair"** %6, align 8, !llfi_index !958
  %19 = load %"struct.std::pair"*, %"struct.std::pair"** %8, align 8, !llfi_index !959
  call void @_ZSt9iter_swapIPSt4pairIiiES2_EvT_T0_(%"struct.std::pair"* %18, %"struct.std::pair"* %19), !llfi_index !960
  br label %31, !llfi_index !961

20:                                               ; preds = %13
  %21 = load %"struct.std::pair"*, %"struct.std::pair"** %7, align 8, !llfi_index !962
  %22 = load %"struct.std::pair"*, %"struct.std::pair"** %9, align 8, !llfi_index !963
  %23 = call zeroext i1 @_ZNK9__gnu_cxx5__ops15_Iter_less_iterclIPSt4pairIiiES5_EEbT_T0_(%"class.std::ios_base::Init"* nonnull align 1 dereferenceable(1) %5, %"struct.std::pair"* %21, %"struct.std::pair"* %22), !llfi_index !964
  br i1 %23, label %24, label %27, !llfi_index !965

24:                                               ; preds = %20
  %25 = load %"struct.std::pair"*, %"struct.std::pair"** %6, align 8, !llfi_index !966
  %26 = load %"struct.std::pair"*, %"struct.std::pair"** %9, align 8, !llfi_index !967
  call void @_ZSt9iter_swapIPSt4pairIiiES2_EvT_T0_(%"struct.std::pair"* %25, %"struct.std::pair"* %26), !llfi_index !968
  br label %30, !llfi_index !969

27:                                               ; preds = %20
  %28 = load %"struct.std::pair"*, %"struct.std::pair"** %6, align 8, !llfi_index !970
  %29 = load %"struct.std::pair"*, %"struct.std::pair"** %7, align 8, !llfi_index !971
  call void @_ZSt9iter_swapIPSt4pairIiiES2_EvT_T0_(%"struct.std::pair"* %28, %"struct.std::pair"* %29), !llfi_index !972
  br label %30, !llfi_index !973

30:                                               ; preds = %27, %24
  br label %31, !llfi_index !974

31:                                               ; preds = %30, %17
  br label %51, !llfi_index !975

32:                                               ; preds = %4
  %33 = load %"struct.std::pair"*, %"struct.std::pair"** %7, align 8, !llfi_index !976
  %34 = load %"struct.std::pair"*, %"struct.std::pair"** %9, align 8, !llfi_index !977
  %35 = call zeroext i1 @_ZNK9__gnu_cxx5__ops15_Iter_less_iterclIPSt4pairIiiES5_EEbT_T0_(%"class.std::ios_base::Init"* nonnull align 1 dereferenceable(1) %5, %"struct.std::pair"* %33, %"struct.std::pair"* %34), !llfi_index !978
  br i1 %35, label %36, label %39, !llfi_index !979

36:                                               ; preds = %32
  %37 = load %"struct.std::pair"*, %"struct.std::pair"** %6, align 8, !llfi_index !980
  %38 = load %"struct.std::pair"*, %"struct.std::pair"** %7, align 8, !llfi_index !981
  call void @_ZSt9iter_swapIPSt4pairIiiES2_EvT_T0_(%"struct.std::pair"* %37, %"struct.std::pair"* %38), !llfi_index !982
  br label %50, !llfi_index !983

39:                                               ; preds = %32
  %40 = load %"struct.std::pair"*, %"struct.std::pair"** %8, align 8, !llfi_index !984
  %41 = load %"struct.std::pair"*, %"struct.std::pair"** %9, align 8, !llfi_index !985
  %42 = call zeroext i1 @_ZNK9__gnu_cxx5__ops15_Iter_less_iterclIPSt4pairIiiES5_EEbT_T0_(%"class.std::ios_base::Init"* nonnull align 1 dereferenceable(1) %5, %"struct.std::pair"* %40, %"struct.std::pair"* %41), !llfi_index !986
  br i1 %42, label %43, label %46, !llfi_index !987

43:                                               ; preds = %39
  %44 = load %"struct.std::pair"*, %"struct.std::pair"** %6, align 8, !llfi_index !988
  %45 = load %"struct.std::pair"*, %"struct.std::pair"** %9, align 8, !llfi_index !989
  call void @_ZSt9iter_swapIPSt4pairIiiES2_EvT_T0_(%"struct.std::pair"* %44, %"struct.std::pair"* %45), !llfi_index !990
  br label %49, !llfi_index !991

46:                                               ; preds = %39
  %47 = load %"struct.std::pair"*, %"struct.std::pair"** %6, align 8, !llfi_index !992
  %48 = load %"struct.std::pair"*, %"struct.std::pair"** %8, align 8, !llfi_index !993
  call void @_ZSt9iter_swapIPSt4pairIiiES2_EvT_T0_(%"struct.std::pair"* %47, %"struct.std::pair"* %48), !llfi_index !994
  br label %49, !llfi_index !995

49:                                               ; preds = %46, %43
  br label %50, !llfi_index !996

50:                                               ; preds = %49, %36
  br label %51, !llfi_index !997

51:                                               ; preds = %50, %31
  ret void, !llfi_index !998
}

; Function Attrs: mustprogress noinline nounwind uwtable
define linkonce_odr dso_local %"struct.std::pair"* @_ZSt21__unguarded_partitionIPSt4pairIiiEN9__gnu_cxx5__ops15_Iter_less_iterEET_S6_S6_S6_T0_(%"struct.std::pair"* %0, %"struct.std::pair"* %1, %"struct.std::pair"* %2) #6 comdat {
  %4 = alloca %"class.std::ios_base::Init", align 1, !llfi_index !999
  %5 = alloca %"struct.std::pair"*, align 8, !llfi_index !1000
  %6 = alloca %"struct.std::pair"*, align 8, !llfi_index !1001
  %7 = alloca %"struct.std::pair"*, align 8, !llfi_index !1002
  store %"struct.std::pair"* %0, %"struct.std::pair"** %5, align 8, !llfi_index !1003
  store %"struct.std::pair"* %1, %"struct.std::pair"** %6, align 8, !llfi_index !1004
  store %"struct.std::pair"* %2, %"struct.std::pair"** %7, align 8, !llfi_index !1005
  br label %8, !llfi_index !1006

8:                                                ; preds = %32, %3
  br label %9, !llfi_index !1007

9:                                                ; preds = %13, %8
  %10 = load %"struct.std::pair"*, %"struct.std::pair"** %5, align 8, !llfi_index !1008
  %11 = load %"struct.std::pair"*, %"struct.std::pair"** %7, align 8, !llfi_index !1009
  %12 = call zeroext i1 @_ZNK9__gnu_cxx5__ops15_Iter_less_iterclIPSt4pairIiiES5_EEbT_T0_(%"class.std::ios_base::Init"* nonnull align 1 dereferenceable(1) %4, %"struct.std::pair"* %10, %"struct.std::pair"* %11), !llfi_index !1010
  br i1 %12, label %13, label %16, !llfi_index !1011

13:                                               ; preds = %9
  %14 = load %"struct.std::pair"*, %"struct.std::pair"** %5, align 8, !llfi_index !1012
  %15 = getelementptr inbounds %"struct.std::pair", %"struct.std::pair"* %14, i32 1, !llfi_index !1013
  store %"struct.std::pair"* %15, %"struct.std::pair"** %5, align 8, !llfi_index !1014
  br label %9, !llvm.loop !1015, !llfi_index !1016

16:                                               ; preds = %9
  %17 = load %"struct.std::pair"*, %"struct.std::pair"** %6, align 8, !llfi_index !1017
  %18 = getelementptr inbounds %"struct.std::pair", %"struct.std::pair"* %17, i32 -1, !llfi_index !1018
  store %"struct.std::pair"* %18, %"struct.std::pair"** %6, align 8, !llfi_index !1019
  br label %19, !llfi_index !1020

19:                                               ; preds = %23, %16
  %20 = load %"struct.std::pair"*, %"struct.std::pair"** %7, align 8, !llfi_index !1021
  %21 = load %"struct.std::pair"*, %"struct.std::pair"** %6, align 8, !llfi_index !1022
  %22 = call zeroext i1 @_ZNK9__gnu_cxx5__ops15_Iter_less_iterclIPSt4pairIiiES5_EEbT_T0_(%"class.std::ios_base::Init"* nonnull align 1 dereferenceable(1) %4, %"struct.std::pair"* %20, %"struct.std::pair"* %21), !llfi_index !1023
  br i1 %22, label %23, label %26, !llfi_index !1024

23:                                               ; preds = %19
  %24 = load %"struct.std::pair"*, %"struct.std::pair"** %6, align 8, !llfi_index !1025
  %25 = getelementptr inbounds %"struct.std::pair", %"struct.std::pair"* %24, i32 -1, !llfi_index !1026
  store %"struct.std::pair"* %25, %"struct.std::pair"** %6, align 8, !llfi_index !1027
  br label %19, !llvm.loop !1028, !llfi_index !1029

26:                                               ; preds = %19
  %27 = load %"struct.std::pair"*, %"struct.std::pair"** %5, align 8, !llfi_index !1030
  %28 = load %"struct.std::pair"*, %"struct.std::pair"** %6, align 8, !llfi_index !1031
  %29 = icmp ult %"struct.std::pair"* %27, %28, !llfi_index !1032
  br i1 %29, label %32, label %30, !llfi_index !1033

30:                                               ; preds = %26
  %31 = load %"struct.std::pair"*, %"struct.std::pair"** %5, align 8, !llfi_index !1034
  ret %"struct.std::pair"* %31, !llfi_index !1035

32:                                               ; preds = %26
  %33 = load %"struct.std::pair"*, %"struct.std::pair"** %5, align 8, !llfi_index !1036
  %34 = load %"struct.std::pair"*, %"struct.std::pair"** %6, align 8, !llfi_index !1037
  call void @_ZSt9iter_swapIPSt4pairIiiES2_EvT_T0_(%"struct.std::pair"* %33, %"struct.std::pair"* %34), !llfi_index !1038
  %35 = load %"struct.std::pair"*, %"struct.std::pair"** %5, align 8, !llfi_index !1039
  %36 = getelementptr inbounds %"struct.std::pair", %"struct.std::pair"* %35, i32 1, !llfi_index !1040
  store %"struct.std::pair"* %36, %"struct.std::pair"** %5, align 8, !llfi_index !1041
  br label %8, !llvm.loop !1042, !llfi_index !1043
}

; Function Attrs: mustprogress noinline uwtable
define linkonce_odr dso_local void @_ZSt13__heap_selectIPSt4pairIiiEN9__gnu_cxx5__ops15_Iter_less_iterEEvT_S6_S6_T0_(%"struct.std::pair"* %0, %"struct.std::pair"* %1, %"struct.std::pair"* %2) #4 comdat {
  %4 = alloca %"class.std::ios_base::Init", align 1, !llfi_index !1044
  %5 = alloca %"struct.std::pair"*, align 8, !llfi_index !1045
  %6 = alloca %"struct.std::pair"*, align 8, !llfi_index !1046
  %7 = alloca %"struct.std::pair"*, align 8, !llfi_index !1047
  %8 = alloca %"struct.std::pair"*, align 8, !llfi_index !1048
  store %"struct.std::pair"* %0, %"struct.std::pair"** %5, align 8, !llfi_index !1049
  store %"struct.std::pair"* %1, %"struct.std::pair"** %6, align 8, !llfi_index !1050
  store %"struct.std::pair"* %2, %"struct.std::pair"** %7, align 8, !llfi_index !1051
  %9 = load %"struct.std::pair"*, %"struct.std::pair"** %5, align 8, !llfi_index !1052
  %10 = load %"struct.std::pair"*, %"struct.std::pair"** %6, align 8, !llfi_index !1053
  call void @_ZSt11__make_heapIPSt4pairIiiEN9__gnu_cxx5__ops15_Iter_less_iterEEvT_S6_RT0_(%"struct.std::pair"* %9, %"struct.std::pair"* %10, %"class.std::ios_base::Init"* nonnull align 1 dereferenceable(1) %4), !llfi_index !1054
  %11 = load %"struct.std::pair"*, %"struct.std::pair"** %6, align 8, !llfi_index !1055
  store %"struct.std::pair"* %11, %"struct.std::pair"** %8, align 8, !llfi_index !1056
  br label %12, !llfi_index !1057

12:                                               ; preds = %25, %3
  %13 = load %"struct.std::pair"*, %"struct.std::pair"** %8, align 8, !llfi_index !1058
  %14 = load %"struct.std::pair"*, %"struct.std::pair"** %7, align 8, !llfi_index !1059
  %15 = icmp ult %"struct.std::pair"* %13, %14, !llfi_index !1060
  br i1 %15, label %16, label %28, !llfi_index !1061

16:                                               ; preds = %12
  %17 = load %"struct.std::pair"*, %"struct.std::pair"** %8, align 8, !llfi_index !1062
  %18 = load %"struct.std::pair"*, %"struct.std::pair"** %5, align 8, !llfi_index !1063
  %19 = call zeroext i1 @_ZNK9__gnu_cxx5__ops15_Iter_less_iterclIPSt4pairIiiES5_EEbT_T0_(%"class.std::ios_base::Init"* nonnull align 1 dereferenceable(1) %4, %"struct.std::pair"* %17, %"struct.std::pair"* %18), !llfi_index !1064
  br i1 %19, label %20, label %24, !llfi_index !1065

20:                                               ; preds = %16
  %21 = load %"struct.std::pair"*, %"struct.std::pair"** %5, align 8, !llfi_index !1066
  %22 = load %"struct.std::pair"*, %"struct.std::pair"** %6, align 8, !llfi_index !1067
  %23 = load %"struct.std::pair"*, %"struct.std::pair"** %8, align 8, !llfi_index !1068
  call void @_ZSt10__pop_heapIPSt4pairIiiEN9__gnu_cxx5__ops15_Iter_less_iterEEvT_S6_S6_RT0_(%"struct.std::pair"* %21, %"struct.std::pair"* %22, %"struct.std::pair"* %23, %"class.std::ios_base::Init"* nonnull align 1 dereferenceable(1) %4), !llfi_index !1069
  br label %24, !llfi_index !1070

24:                                               ; preds = %20, %16
  br label %25, !llfi_index !1071

25:                                               ; preds = %24
  %26 = load %"struct.std::pair"*, %"struct.std::pair"** %8, align 8, !llfi_index !1072
  %27 = getelementptr inbounds %"struct.std::pair", %"struct.std::pair"* %26, i32 1, !llfi_index !1073
  store %"struct.std::pair"* %27, %"struct.std::pair"** %8, align 8, !llfi_index !1074
  br label %12, !llvm.loop !1075, !llfi_index !1076

28:                                               ; preds = %12
  ret void, !llfi_index !1077
}

; Function Attrs: mustprogress noinline uwtable
define linkonce_odr dso_local void @_ZSt11__sort_heapIPSt4pairIiiEN9__gnu_cxx5__ops15_Iter_less_iterEEvT_S6_RT0_(%"struct.std::pair"* %0, %"struct.std::pair"* %1, %"class.std::ios_base::Init"* nonnull align 1 dereferenceable(1) %2) #4 comdat {
  %4 = alloca %"struct.std::pair"*, align 8, !llfi_index !1078
  %5 = alloca %"struct.std::pair"*, align 8, !llfi_index !1079
  %6 = alloca %"class.std::ios_base::Init"*, align 8, !llfi_index !1080
  store %"struct.std::pair"* %0, %"struct.std::pair"** %4, align 8, !llfi_index !1081
  store %"struct.std::pair"* %1, %"struct.std::pair"** %5, align 8, !llfi_index !1082
  store %"class.std::ios_base::Init"* %2, %"class.std::ios_base::Init"** %6, align 8, !llfi_index !1083
  br label %7, !llfi_index !1084

7:                                                ; preds = %15, %3
  %8 = load %"struct.std::pair"*, %"struct.std::pair"** %5, align 8, !llfi_index !1085
  %9 = load %"struct.std::pair"*, %"struct.std::pair"** %4, align 8, !llfi_index !1086
  %10 = ptrtoint %"struct.std::pair"* %8 to i64, !llfi_index !1087
  %11 = ptrtoint %"struct.std::pair"* %9 to i64, !llfi_index !1088
  %12 = sub i64 %10, %11, !llfi_index !1089
  %13 = sdiv exact i64 %12, 8, !llfi_index !1090
  %14 = icmp sgt i64 %13, 1, !llfi_index !1091
  br i1 %14, label %15, label %22, !llfi_index !1092

15:                                               ; preds = %7
  %16 = load %"struct.std::pair"*, %"struct.std::pair"** %5, align 8, !llfi_index !1093
  %17 = getelementptr inbounds %"struct.std::pair", %"struct.std::pair"* %16, i32 -1, !llfi_index !1094
  store %"struct.std::pair"* %17, %"struct.std::pair"** %5, align 8, !llfi_index !1095
  %18 = load %"struct.std::pair"*, %"struct.std::pair"** %4, align 8, !llfi_index !1096
  %19 = load %"struct.std::pair"*, %"struct.std::pair"** %5, align 8, !llfi_index !1097
  %20 = load %"struct.std::pair"*, %"struct.std::pair"** %5, align 8, !llfi_index !1098
  %21 = load %"class.std::ios_base::Init"*, %"class.std::ios_base::Init"** %6, align 8, !llfi_index !1099
  call void @_ZSt10__pop_heapIPSt4pairIiiEN9__gnu_cxx5__ops15_Iter_less_iterEEvT_S6_S6_RT0_(%"struct.std::pair"* %18, %"struct.std::pair"* %19, %"struct.std::pair"* %20, %"class.std::ios_base::Init"* nonnull align 1 dereferenceable(1) %21), !llfi_index !1100
  br label %7, !llvm.loop !1101, !llfi_index !1102

22:                                               ; preds = %7
  ret void, !llfi_index !1103
}

; Function Attrs: mustprogress noinline uwtable
define linkonce_odr dso_local void @_ZSt10__pop_heapIPSt4pairIiiEN9__gnu_cxx5__ops15_Iter_less_iterEEvT_S6_S6_RT0_(%"struct.std::pair"* %0, %"struct.std::pair"* %1, %"struct.std::pair"* %2, %"class.std::ios_base::Init"* nonnull align 1 dereferenceable(1) %3) #4 comdat {
  %5 = alloca %"struct.std::pair"*, align 8, !llfi_index !1104
  %6 = alloca %"struct.std::pair"*, align 8, !llfi_index !1105
  %7 = alloca %"struct.std::pair"*, align 8, !llfi_index !1106
  %8 = alloca %"class.std::ios_base::Init"*, align 8, !llfi_index !1107
  %9 = alloca %"struct.std::pair", align 4, !llfi_index !1108
  %10 = alloca %"struct.std::pair", align 4, !llfi_index !1109
  %11 = alloca %"class.std::ios_base::Init", align 1, !llfi_index !1110
  store %"struct.std::pair"* %0, %"struct.std::pair"** %5, align 8, !llfi_index !1111
  store %"struct.std::pair"* %1, %"struct.std::pair"** %6, align 8, !llfi_index !1112
  store %"struct.std::pair"* %2, %"struct.std::pair"** %7, align 8, !llfi_index !1113
  store %"class.std::ios_base::Init"* %3, %"class.std::ios_base::Init"** %8, align 8, !llfi_index !1114
  %12 = load %"struct.std::pair"*, %"struct.std::pair"** %7, align 8, !llfi_index !1115
  %13 = call nonnull align 4 dereferenceable(8) %"struct.std::pair"* @_ZSt4moveIRSt4pairIiiEEONSt16remove_referenceIT_E4typeEOS4_(%"struct.std::pair"* nonnull align 4 dereferenceable(8) %12) #2, !llfi_index !1116
  %14 = bitcast %"struct.std::pair"* %9 to i8*, !llfi_index !1117
  %15 = bitcast %"struct.std::pair"* %13 to i8*, !llfi_index !1118
  call void @llvm.memcpy.p0i8.p0i8.i64(i8* align 4 %14, i8* align 4 %15, i64 8, i1 false), !llfi_index !1119
  %16 = load %"struct.std::pair"*, %"struct.std::pair"** %5, align 8, !llfi_index !1120
  %17 = call nonnull align 4 dereferenceable(8) %"struct.std::pair"* @_ZSt4moveIRSt4pairIiiEEONSt16remove_referenceIT_E4typeEOS4_(%"struct.std::pair"* nonnull align 4 dereferenceable(8) %16) #2, !llfi_index !1121
  %18 = load %"struct.std::pair"*, %"struct.std::pair"** %7, align 8, !llfi_index !1122
  %19 = call nonnull align 4 dereferenceable(8) %"struct.std::pair"* @_ZNSt4pairIiiEaSEOS0_(%"struct.std::pair"* nonnull align 4 dereferenceable(8) %18, %"struct.std::pair"* nonnull align 4 dereferenceable(8) %17) #2, !llfi_index !1123
  %20 = load %"struct.std::pair"*, %"struct.std::pair"** %5, align 8, !llfi_index !1124
  %21 = load %"struct.std::pair"*, %"struct.std::pair"** %6, align 8, !llfi_index !1125
  %22 = load %"struct.std::pair"*, %"struct.std::pair"** %5, align 8, !llfi_index !1126
  %23 = ptrtoint %"struct.std::pair"* %21 to i64, !llfi_index !1127
  %24 = ptrtoint %"struct.std::pair"* %22 to i64, !llfi_index !1128
  %25 = sub i64 %23, %24, !llfi_index !1129
  %26 = sdiv exact i64 %25, 8, !llfi_index !1130
  %27 = call nonnull align 4 dereferenceable(8) %"struct.std::pair"* @_ZSt4moveIRSt4pairIiiEEONSt16remove_referenceIT_E4typeEOS4_(%"struct.std::pair"* nonnull align 4 dereferenceable(8) %9) #2, !llfi_index !1131
  %28 = bitcast %"struct.std::pair"* %10 to i8*, !llfi_index !1132
  %29 = bitcast %"struct.std::pair"* %27 to i8*, !llfi_index !1133
  call void @llvm.memcpy.p0i8.p0i8.i64(i8* align 4 %28, i8* align 4 %29, i64 8, i1 false), !llfi_index !1134
  %30 = load %"class.std::ios_base::Init"*, %"class.std::ios_base::Init"** %8, align 8, !llfi_index !1135
  %31 = bitcast %"struct.std::pair"* %10 to i64*, !llfi_index !1136
  %32 = load i64, i64* %31, align 4, !llfi_index !1137
  call void @_ZSt13__adjust_heapIPSt4pairIiiElS1_N9__gnu_cxx5__ops15_Iter_less_iterEEvT_T0_S7_T1_T2_(%"struct.std::pair"* %20, i64 0, i64 %26, i64 %32), !llfi_index !1138
  ret void, !llfi_index !1139
}

; Function Attrs: mustprogress noinline uwtable
define linkonce_odr dso_local void @_ZSt13__adjust_heapIPSt4pairIiiElS1_N9__gnu_cxx5__ops15_Iter_less_iterEEvT_T0_S7_T1_T2_(%"struct.std::pair"* %0, i64 %1, i64 %2, i64 %3) #4 comdat {
  %5 = alloca %"struct.std::pair", align 4, !llfi_index !1140
  %6 = alloca %"class.std::ios_base::Init", align 1, !llfi_index !1141
  %7 = alloca %"struct.std::pair"*, align 8, !llfi_index !1142
  %8 = alloca i64, align 8, !llfi_index !1143
  %9 = alloca i64, align 8, !llfi_index !1144
  %10 = alloca i64, align 8, !llfi_index !1145
  %11 = alloca i64, align 8, !llfi_index !1146
  %12 = alloca %"class.std::ios_base::Init", align 1, !llfi_index !1147
  %13 = alloca %"class.std::ios_base::Init", align 1, !llfi_index !1148
  %14 = alloca %"struct.std::pair", align 4, !llfi_index !1149
  %15 = bitcast %"struct.std::pair"* %5 to i64*, !llfi_index !1150
  store i64 %3, i64* %15, align 4, !llfi_index !1151
  store %"struct.std::pair"* %0, %"struct.std::pair"** %7, align 8, !llfi_index !1152
  store i64 %1, i64* %8, align 8, !llfi_index !1153
  store i64 %2, i64* %9, align 8, !llfi_index !1154
  %16 = load i64, i64* %8, align 8, !llfi_index !1155
  store i64 %16, i64* %10, align 8, !llfi_index !1156
  %17 = load i64, i64* %8, align 8, !llfi_index !1157
  store i64 %17, i64* %11, align 8, !llfi_index !1158
  br label %18, !llfi_index !1159

18:                                               ; preds = %39, %4
  %19 = load i64, i64* %11, align 8, !llfi_index !1160
  %20 = load i64, i64* %9, align 8, !llfi_index !1161
  %21 = sub nsw i64 %20, 1, !llfi_index !1162
  %22 = sdiv i64 %21, 2, !llfi_index !1163
  %23 = icmp slt i64 %19, %22, !llfi_index !1164
  br i1 %23, label %24, label %49, !llfi_index !1165

24:                                               ; preds = %18
  %25 = load i64, i64* %11, align 8, !llfi_index !1166
  %26 = add nsw i64 %25, 1, !llfi_index !1167
  %27 = mul nsw i64 2, %26, !llfi_index !1168
  store i64 %27, i64* %11, align 8, !llfi_index !1169
  %28 = load %"struct.std::pair"*, %"struct.std::pair"** %7, align 8, !llfi_index !1170
  %29 = load i64, i64* %11, align 8, !llfi_index !1171
  %30 = getelementptr inbounds %"struct.std::pair", %"struct.std::pair"* %28, i64 %29, !llfi_index !1172
  %31 = load %"struct.std::pair"*, %"struct.std::pair"** %7, align 8, !llfi_index !1173
  %32 = load i64, i64* %11, align 8, !llfi_index !1174
  %33 = sub nsw i64 %32, 1, !llfi_index !1175
  %34 = getelementptr inbounds %"struct.std::pair", %"struct.std::pair"* %31, i64 %33, !llfi_index !1176
  %35 = call zeroext i1 @_ZNK9__gnu_cxx5__ops15_Iter_less_iterclIPSt4pairIiiES5_EEbT_T0_(%"class.std::ios_base::Init"* nonnull align 1 dereferenceable(1) %6, %"struct.std::pair"* %30, %"struct.std::pair"* %34), !llfi_index !1177
  br i1 %35, label %36, label %39, !llfi_index !1178

36:                                               ; preds = %24
  %37 = load i64, i64* %11, align 8, !llfi_index !1179
  %38 = add nsw i64 %37, -1, !llfi_index !1180
  store i64 %38, i64* %11, align 8, !llfi_index !1181
  br label %39, !llfi_index !1182

39:                                               ; preds = %36, %24
  %40 = load %"struct.std::pair"*, %"struct.std::pair"** %7, align 8, !llfi_index !1183
  %41 = load i64, i64* %11, align 8, !llfi_index !1184
  %42 = getelementptr inbounds %"struct.std::pair", %"struct.std::pair"* %40, i64 %41, !llfi_index !1185
  %43 = call nonnull align 4 dereferenceable(8) %"struct.std::pair"* @_ZSt4moveIRSt4pairIiiEEONSt16remove_referenceIT_E4typeEOS4_(%"struct.std::pair"* nonnull align 4 dereferenceable(8) %42) #2, !llfi_index !1186
  %44 = load %"struct.std::pair"*, %"struct.std::pair"** %7, align 8, !llfi_index !1187
  %45 = load i64, i64* %8, align 8, !llfi_index !1188
  %46 = getelementptr inbounds %"struct.std::pair", %"struct.std::pair"* %44, i64 %45, !llfi_index !1189
  %47 = call nonnull align 4 dereferenceable(8) %"struct.std::pair"* @_ZNSt4pairIiiEaSEOS0_(%"struct.std::pair"* nonnull align 4 dereferenceable(8) %46, %"struct.std::pair"* nonnull align 4 dereferenceable(8) %43) #2, !llfi_index !1190
  %48 = load i64, i64* %11, align 8, !llfi_index !1191
  store i64 %48, i64* %8, align 8, !llfi_index !1192
  br label %18, !llvm.loop !1193, !llfi_index !1194

49:                                               ; preds = %18
  %50 = load i64, i64* %9, align 8, !llfi_index !1195
  %51 = and i64 %50, 1, !llfi_index !1196
  %52 = icmp eq i64 %51, 0, !llfi_index !1197
  br i1 %52, label %53, label %74, !llfi_index !1198

53:                                               ; preds = %49
  %54 = load i64, i64* %11, align 8, !llfi_index !1199
  %55 = load i64, i64* %9, align 8, !llfi_index !1200
  %56 = sub nsw i64 %55, 2, !llfi_index !1201
  %57 = sdiv i64 %56, 2, !llfi_index !1202
  %58 = icmp eq i64 %54, %57, !llfi_index !1203
  br i1 %58, label %59, label %74, !llfi_index !1204

59:                                               ; preds = %53
  %60 = load i64, i64* %11, align 8, !llfi_index !1205
  %61 = add nsw i64 %60, 1, !llfi_index !1206
  %62 = mul nsw i64 2, %61, !llfi_index !1207
  store i64 %62, i64* %11, align 8, !llfi_index !1208
  %63 = load %"struct.std::pair"*, %"struct.std::pair"** %7, align 8, !llfi_index !1209
  %64 = load i64, i64* %11, align 8, !llfi_index !1210
  %65 = sub nsw i64 %64, 1, !llfi_index !1211
  %66 = getelementptr inbounds %"struct.std::pair", %"struct.std::pair"* %63, i64 %65, !llfi_index !1212
  %67 = call nonnull align 4 dereferenceable(8) %"struct.std::pair"* @_ZSt4moveIRSt4pairIiiEEONSt16remove_referenceIT_E4typeEOS4_(%"struct.std::pair"* nonnull align 4 dereferenceable(8) %66) #2, !llfi_index !1213
  %68 = load %"struct.std::pair"*, %"struct.std::pair"** %7, align 8, !llfi_index !1214
  %69 = load i64, i64* %8, align 8, !llfi_index !1215
  %70 = getelementptr inbounds %"struct.std::pair", %"struct.std::pair"* %68, i64 %69, !llfi_index !1216
  %71 = call nonnull align 4 dereferenceable(8) %"struct.std::pair"* @_ZNSt4pairIiiEaSEOS0_(%"struct.std::pair"* nonnull align 4 dereferenceable(8) %70, %"struct.std::pair"* nonnull align 4 dereferenceable(8) %67) #2, !llfi_index !1217
  %72 = load i64, i64* %11, align 8, !llfi_index !1218
  %73 = sub nsw i64 %72, 1, !llfi_index !1219
  store i64 %73, i64* %8, align 8, !llfi_index !1220
  br label %74, !llfi_index !1221

74:                                               ; preds = %59, %53, %49
  %75 = call nonnull align 1 dereferenceable(1) %"class.std::ios_base::Init"* @_ZSt4moveIRN9__gnu_cxx5__ops15_Iter_less_iterEEONSt16remove_referenceIT_E4typeEOS5_(%"class.std::ios_base::Init"* nonnull align 1 dereferenceable(1) %6) #2, !llfi_index !1222
  call void @_ZN9__gnu_cxx5__ops14_Iter_less_valC2ENS0_15_Iter_less_iterE(%"class.std::ios_base::Init"* nonnull align 1 dereferenceable(1) %12), !llfi_index !1223
  %76 = load %"struct.std::pair"*, %"struct.std::pair"** %7, align 8, !llfi_index !1224
  %77 = load i64, i64* %8, align 8, !llfi_index !1225
  %78 = load i64, i64* %10, align 8, !llfi_index !1226
  %79 = call nonnull align 4 dereferenceable(8) %"struct.std::pair"* @_ZSt4moveIRSt4pairIiiEEONSt16remove_referenceIT_E4typeEOS4_(%"struct.std::pair"* nonnull align 4 dereferenceable(8) %5) #2, !llfi_index !1227
  %80 = bitcast %"struct.std::pair"* %14 to i8*, !llfi_index !1228
  %81 = bitcast %"struct.std::pair"* %79 to i8*, !llfi_index !1229
  call void @llvm.memcpy.p0i8.p0i8.i64(i8* align 4 %80, i8* align 4 %81, i64 8, i1 false), !llfi_index !1230
  %82 = bitcast %"struct.std::pair"* %14 to i64*, !llfi_index !1231
  %83 = load i64, i64* %82, align 4, !llfi_index !1232
  call void @_ZSt11__push_heapIPSt4pairIiiElS1_N9__gnu_cxx5__ops14_Iter_less_valEEvT_T0_S7_T1_RT2_(%"struct.std::pair"* %76, i64 %77, i64 %78, i64 %83, %"class.std::ios_base::Init"* nonnull align 1 dereferenceable(1) %12), !llfi_index !1233
  ret void, !llfi_index !1234
}

; Function Attrs: mustprogress noinline nounwind uwtable
define linkonce_odr dso_local nonnull align 1 dereferenceable(1) %"class.std::ios_base::Init"* @_ZSt4moveIRN9__gnu_cxx5__ops15_Iter_less_iterEEONSt16remove_referenceIT_E4typeEOS5_(%"class.std::ios_base::Init"* nonnull align 1 dereferenceable(1) %0) #6 comdat {
  %2 = alloca %"class.std::ios_base::Init"*, align 8, !llfi_index !1235
  store %"class.std::ios_base::Init"* %0, %"class.std::ios_base::Init"** %2, align 8, !llfi_index !1236
  %3 = load %"class.std::ios_base::Init"*, %"class.std::ios_base::Init"** %2, align 8, !llfi_index !1237
  ret %"class.std::ios_base::Init"* %3, !llfi_index !1238
}

; Function Attrs: noinline nounwind uwtable
define linkonce_odr dso_local void @_ZN9__gnu_cxx5__ops14_Iter_less_valC2ENS0_15_Iter_less_iterE(%"class.std::ios_base::Init"* nonnull align 1 dereferenceable(1) %0) unnamed_addr #8 comdat align 2 {
  %2 = alloca %"class.std::ios_base::Init", align 1, !llfi_index !1239
  %3 = alloca %"class.std::ios_base::Init"*, align 8, !llfi_index !1240
  store %"class.std::ios_base::Init"* %0, %"class.std::ios_base::Init"** %3, align 8, !llfi_index !1241
  %4 = load %"class.std::ios_base::Init"*, %"class.std::ios_base::Init"** %3, align 8, !llfi_index !1242
  ret void, !llfi_index !1243
}

; Function Attrs: mustprogress noinline uwtable
define linkonce_odr dso_local void @_ZSt11__push_heapIPSt4pairIiiElS1_N9__gnu_cxx5__ops14_Iter_less_valEEvT_T0_S7_T1_RT2_(%"struct.std::pair"* %0, i64 %1, i64 %2, i64 %3, %"class.std::ios_base::Init"* nonnull align 1 dereferenceable(1) %4) #4 comdat {
  %6 = alloca %"struct.std::pair", align 4, !llfi_index !1244
  %7 = alloca %"struct.std::pair"*, align 8, !llfi_index !1245
  %8 = alloca i64, align 8, !llfi_index !1246
  %9 = alloca i64, align 8, !llfi_index !1247
  %10 = alloca %"class.std::ios_base::Init"*, align 8, !llfi_index !1248
  %11 = alloca i64, align 8, !llfi_index !1249
  %12 = bitcast %"struct.std::pair"* %6 to i64*, !llfi_index !1250
  store i64 %3, i64* %12, align 4, !llfi_index !1251
  store %"struct.std::pair"* %0, %"struct.std::pair"** %7, align 8, !llfi_index !1252
  store i64 %1, i64* %8, align 8, !llfi_index !1253
  store i64 %2, i64* %9, align 8, !llfi_index !1254
  store %"class.std::ios_base::Init"* %4, %"class.std::ios_base::Init"** %10, align 8, !llfi_index !1255
  %13 = load i64, i64* %8, align 8, !llfi_index !1256
  %14 = sub nsw i64 %13, 1, !llfi_index !1257
  %15 = sdiv i64 %14, 2, !llfi_index !1258
  store i64 %15, i64* %11, align 8, !llfi_index !1259
  br label %16, !llfi_index !1260

16:                                               ; preds = %28, %5
  %17 = load i64, i64* %8, align 8, !llfi_index !1261
  %18 = load i64, i64* %9, align 8, !llfi_index !1262
  %19 = icmp sgt i64 %17, %18, !llfi_index !1263
  br i1 %19, label %20, label %26, !llfi_index !1264

20:                                               ; preds = %16
  %21 = load %"class.std::ios_base::Init"*, %"class.std::ios_base::Init"** %10, align 8, !llfi_index !1265
  %22 = load %"struct.std::pair"*, %"struct.std::pair"** %7, align 8, !llfi_index !1266
  %23 = load i64, i64* %11, align 8, !llfi_index !1267
  %24 = getelementptr inbounds %"struct.std::pair", %"struct.std::pair"* %22, i64 %23, !llfi_index !1268
  %25 = call zeroext i1 @_ZNK9__gnu_cxx5__ops14_Iter_less_valclIPSt4pairIiiES4_EEbT_RT0_(%"class.std::ios_base::Init"* nonnull align 1 dereferenceable(1) %21, %"struct.std::pair"* %24, %"struct.std::pair"* nonnull align 4 dereferenceable(8) %6), !llfi_index !1269
  br label %26, !llfi_index !1270

26:                                               ; preds = %20, %16
  %27 = phi i1 [ false, %16 ], [ %25, %20 ], !llfi_index !1271
  br i1 %27, label %28, label %41, !llfi_index !1272

28:                                               ; preds = %26
  %29 = load %"struct.std::pair"*, %"struct.std::pair"** %7, align 8, !llfi_index !1273
  %30 = load i64, i64* %11, align 8, !llfi_index !1274
  %31 = getelementptr inbounds %"struct.std::pair", %"struct.std::pair"* %29, i64 %30, !llfi_index !1275
  %32 = call nonnull align 4 dereferenceable(8) %"struct.std::pair"* @_ZSt4moveIRSt4pairIiiEEONSt16remove_referenceIT_E4typeEOS4_(%"struct.std::pair"* nonnull align 4 dereferenceable(8) %31) #2, !llfi_index !1276
  %33 = load %"struct.std::pair"*, %"struct.std::pair"** %7, align 8, !llfi_index !1277
  %34 = load i64, i64* %8, align 8, !llfi_index !1278
  %35 = getelementptr inbounds %"struct.std::pair", %"struct.std::pair"* %33, i64 %34, !llfi_index !1279
  %36 = call nonnull align 4 dereferenceable(8) %"struct.std::pair"* @_ZNSt4pairIiiEaSEOS0_(%"struct.std::pair"* nonnull align 4 dereferenceable(8) %35, %"struct.std::pair"* nonnull align 4 dereferenceable(8) %32) #2, !llfi_index !1280
  %37 = load i64, i64* %11, align 8, !llfi_index !1281
  store i64 %37, i64* %8, align 8, !llfi_index !1282
  %38 = load i64, i64* %8, align 8, !llfi_index !1283
  %39 = sub nsw i64 %38, 1, !llfi_index !1284
  %40 = sdiv i64 %39, 2, !llfi_index !1285
  store i64 %40, i64* %11, align 8, !llfi_index !1286
  br label %16, !llvm.loop !1287, !llfi_index !1288

41:                                               ; preds = %26
  %42 = call nonnull align 4 dereferenceable(8) %"struct.std::pair"* @_ZSt4moveIRSt4pairIiiEEONSt16remove_referenceIT_E4typeEOS4_(%"struct.std::pair"* nonnull align 4 dereferenceable(8) %6) #2, !llfi_index !1289
  %43 = load %"struct.std::pair"*, %"struct.std::pair"** %7, align 8, !llfi_index !1290
  %44 = load i64, i64* %8, align 8, !llfi_index !1291
  %45 = getelementptr inbounds %"struct.std::pair", %"struct.std::pair"* %43, i64 %44, !llfi_index !1292
  %46 = call nonnull align 4 dereferenceable(8) %"struct.std::pair"* @_ZNSt4pairIiiEaSEOS0_(%"struct.std::pair"* nonnull align 4 dereferenceable(8) %45, %"struct.std::pair"* nonnull align 4 dereferenceable(8) %42) #2, !llfi_index !1293
  ret void, !llfi_index !1294
}

; Function Attrs: mustprogress noinline uwtable
define linkonce_odr dso_local zeroext i1 @_ZNK9__gnu_cxx5__ops14_Iter_less_valclIPSt4pairIiiES4_EEbT_RT0_(%"class.std::ios_base::Init"* nonnull align 1 dereferenceable(1) %0, %"struct.std::pair"* %1, %"struct.std::pair"* nonnull align 4 dereferenceable(8) %2) #4 comdat align 2 {
  %4 = alloca %"class.std::ios_base::Init"*, align 8, !llfi_index !1295
  %5 = alloca %"struct.std::pair"*, align 8, !llfi_index !1296
  %6 = alloca %"struct.std::pair"*, align 8, !llfi_index !1297
  store %"class.std::ios_base::Init"* %0, %"class.std::ios_base::Init"** %4, align 8, !llfi_index !1298
  store %"struct.std::pair"* %1, %"struct.std::pair"** %5, align 8, !llfi_index !1299
  store %"struct.std::pair"* %2, %"struct.std::pair"** %6, align 8, !llfi_index !1300
  %7 = load %"class.std::ios_base::Init"*, %"class.std::ios_base::Init"** %4, align 8, !llfi_index !1301
  %8 = load %"struct.std::pair"*, %"struct.std::pair"** %5, align 8, !llfi_index !1302
  %9 = load %"struct.std::pair"*, %"struct.std::pair"** %6, align 8, !llfi_index !1303
  %10 = call zeroext i1 @_ZStltIiiEbRKSt4pairIT_T0_ES5_(%"struct.std::pair"* nonnull align 4 dereferenceable(8) %8, %"struct.std::pair"* nonnull align 4 dereferenceable(8) %9), !llfi_index !1304
  ret i1 %10, !llfi_index !1305
}

; Function Attrs: mustprogress noinline uwtable
define linkonce_odr dso_local void @_ZSt11__make_heapIPSt4pairIiiEN9__gnu_cxx5__ops15_Iter_less_iterEEvT_S6_RT0_(%"struct.std::pair"* %0, %"struct.std::pair"* %1, %"class.std::ios_base::Init"* nonnull align 1 dereferenceable(1) %2) #4 comdat {
  %4 = alloca %"struct.std::pair"*, align 8, !llfi_index !1306
  %5 = alloca %"struct.std::pair"*, align 8, !llfi_index !1307
  %6 = alloca %"class.std::ios_base::Init"*, align 8, !llfi_index !1308
  %7 = alloca i64, align 8, !llfi_index !1309
  %8 = alloca i64, align 8, !llfi_index !1310
  %9 = alloca %"struct.std::pair", align 4, !llfi_index !1311
  %10 = alloca %"struct.std::pair", align 4, !llfi_index !1312
  %11 = alloca %"class.std::ios_base::Init", align 1, !llfi_index !1313
  store %"struct.std::pair"* %0, %"struct.std::pair"** %4, align 8, !llfi_index !1314
  store %"struct.std::pair"* %1, %"struct.std::pair"** %5, align 8, !llfi_index !1315
  store %"class.std::ios_base::Init"* %2, %"class.std::ios_base::Init"** %6, align 8, !llfi_index !1316
  %12 = load %"struct.std::pair"*, %"struct.std::pair"** %5, align 8, !llfi_index !1317
  %13 = load %"struct.std::pair"*, %"struct.std::pair"** %4, align 8, !llfi_index !1318
  %14 = ptrtoint %"struct.std::pair"* %12 to i64, !llfi_index !1319
  %15 = ptrtoint %"struct.std::pair"* %13 to i64, !llfi_index !1320
  %16 = sub i64 %14, %15, !llfi_index !1321
  %17 = sdiv exact i64 %16, 8, !llfi_index !1322
  %18 = icmp slt i64 %17, 2, !llfi_index !1323
  br i1 %18, label %19, label %20, !llfi_index !1324

19:                                               ; preds = %3
  br label %52, !llfi_index !1325

20:                                               ; preds = %3
  %21 = load %"struct.std::pair"*, %"struct.std::pair"** %5, align 8, !llfi_index !1326
  %22 = load %"struct.std::pair"*, %"struct.std::pair"** %4, align 8, !llfi_index !1327
  %23 = ptrtoint %"struct.std::pair"* %21 to i64, !llfi_index !1328
  %24 = ptrtoint %"struct.std::pair"* %22 to i64, !llfi_index !1329
  %25 = sub i64 %23, %24, !llfi_index !1330
  %26 = sdiv exact i64 %25, 8, !llfi_index !1331
  store i64 %26, i64* %7, align 8, !llfi_index !1332
  %27 = load i64, i64* %7, align 8, !llfi_index !1333
  %28 = sub nsw i64 %27, 2, !llfi_index !1334
  %29 = sdiv i64 %28, 2, !llfi_index !1335
  store i64 %29, i64* %8, align 8, !llfi_index !1336
  br label %30, !llfi_index !1337

30:                                               ; preds = %49, %20
  %31 = load %"struct.std::pair"*, %"struct.std::pair"** %4, align 8, !llfi_index !1338
  %32 = load i64, i64* %8, align 8, !llfi_index !1339
  %33 = getelementptr inbounds %"struct.std::pair", %"struct.std::pair"* %31, i64 %32, !llfi_index !1340
  %34 = call nonnull align 4 dereferenceable(8) %"struct.std::pair"* @_ZSt4moveIRSt4pairIiiEEONSt16remove_referenceIT_E4typeEOS4_(%"struct.std::pair"* nonnull align 4 dereferenceable(8) %33) #2, !llfi_index !1341
  %35 = bitcast %"struct.std::pair"* %9 to i8*, !llfi_index !1342
  %36 = bitcast %"struct.std::pair"* %34 to i8*, !llfi_index !1343
  call void @llvm.memcpy.p0i8.p0i8.i64(i8* align 4 %35, i8* align 4 %36, i64 8, i1 false), !llfi_index !1344
  %37 = load %"struct.std::pair"*, %"struct.std::pair"** %4, align 8, !llfi_index !1345
  %38 = load i64, i64* %8, align 8, !llfi_index !1346
  %39 = load i64, i64* %7, align 8, !llfi_index !1347
  %40 = call nonnull align 4 dereferenceable(8) %"struct.std::pair"* @_ZSt4moveIRSt4pairIiiEEONSt16remove_referenceIT_E4typeEOS4_(%"struct.std::pair"* nonnull align 4 dereferenceable(8) %9) #2, !llfi_index !1348
  %41 = bitcast %"struct.std::pair"* %10 to i8*, !llfi_index !1349
  %42 = bitcast %"struct.std::pair"* %40 to i8*, !llfi_index !1350
  call void @llvm.memcpy.p0i8.p0i8.i64(i8* align 4 %41, i8* align 4 %42, i64 8, i1 false), !llfi_index !1351
  %43 = load %"class.std::ios_base::Init"*, %"class.std::ios_base::Init"** %6, align 8, !llfi_index !1352
  %44 = bitcast %"struct.std::pair"* %10 to i64*, !llfi_index !1353
  %45 = load i64, i64* %44, align 4, !llfi_index !1354
  call void @_ZSt13__adjust_heapIPSt4pairIiiElS1_N9__gnu_cxx5__ops15_Iter_less_iterEEvT_T0_S7_T1_T2_(%"struct.std::pair"* %37, i64 %38, i64 %39, i64 %45), !llfi_index !1355
  %46 = load i64, i64* %8, align 8, !llfi_index !1356
  %47 = icmp eq i64 %46, 0, !llfi_index !1357
  br i1 %47, label %48, label %49, !llfi_index !1358

48:                                               ; preds = %30
  br label %52, !llfi_index !1359

49:                                               ; preds = %30
  %50 = load i64, i64* %8, align 8, !llfi_index !1360
  %51 = add nsw i64 %50, -1, !llfi_index !1361
  store i64 %51, i64* %8, align 8, !llfi_index !1362
  br label %30, !llvm.loop !1363, !llfi_index !1364

52:                                               ; preds = %48, %19
  ret void, !llfi_index !1365
}

; Function Attrs: nofree nosync nounwind readnone speculatable willreturn
declare i64 @llvm.ctlz.i64(i64, i1 immarg) #9

; Function Attrs: mustprogress noinline nounwind uwtable
define linkonce_odr dso_local nonnull align 4 dereferenceable(4) i32* @_ZSt4moveIRiEONSt16remove_referenceIT_E4typeEOS2_(i32* nonnull align 4 dereferenceable(4) %0) #6 comdat {
  %2 = alloca i32*, align 8, !llfi_index !1366
  store i32* %0, i32** %2, align 8, !llfi_index !1367
  %3 = load i32*, i32** %2, align 8, !llfi_index !1368
  ret i32* %3, !llfi_index !1369
}

; Function Attrs: mustprogress noinline norecurse uwtable
define dso_local i32 @main(i32 %0, i8** %1) #10 personality i8* bitcast (i32 (...)* @__gxx_personality_v0 to i8*) {
  %3 = alloca i32, align 4, !llfi_index !1370
  %4 = alloca i32, align 4, !llfi_index !1371
  %5 = alloca i8**, align 8, !llfi_index !1372
  %6 = alloca %"class.std::__cxx11::basic_string", align 8, !llfi_index !1373
  %7 = alloca i32, align 4, !llfi_index !1374
  %8 = alloca i8*, align 8, !llfi_index !1375
  %9 = alloca i32, align 4, !llfi_index !1376
  %10 = alloca i32, align 4, !llfi_index !1377
  store i32 0, i32* %3, align 4, !llfi_index !1378
  store i32 %0, i32* %4, align 4, !llfi_index !1379
  store i8** %1, i8*** %5, align 8, !llfi_index !1380
  call void @_ZNSt7__cxx1112basic_stringIcSt11char_traitsIcESaIcEEC1Ev(%"class.std::__cxx11::basic_string"* nonnull align 8 dereferenceable(32) %6) #2, !llfi_index !1381
  %11 = load i32, i32* %4, align 4, !llfi_index !1382
  %12 = icmp eq i32 %11, 1, !llfi_index !1383
  br i1 %12, label %13, label %28, !llfi_index !1384

13:                                               ; preds = %2
  %14 = invoke zeroext i1 @_ZNSt8ios_base15sync_with_stdioEb(i1 zeroext false)
          to label %15 unwind label %24, !llfi_index !1385

15:                                               ; preds = %13
  %16 = load i8*, i8** bitcast (%"class.std::basic_istream"* @_ZSt3cin to i8**), align 8, !llfi_index !1386
  %17 = getelementptr i8, i8* %16, i64 -24, !llfi_index !1387
  %18 = bitcast i8* %17 to i64*, !llfi_index !1388
  %19 = load i64, i64* %18, align 8, !llfi_index !1389
  %20 = getelementptr inbounds i8, i8* bitcast (%"class.std::basic_istream"* @_ZSt3cin to i8*), i64 %19, !llfi_index !1390
  %21 = bitcast i8* %20 to %"class.std::basic_ios"*, !llfi_index !1391
  %22 = invoke %"class.std::basic_ostream"* @_ZNSt9basic_iosIcSt11char_traitsIcEE3tieEPSo(%"class.std::basic_ios"* nonnull align 8 dereferenceable(264) %21, %"class.std::basic_ostream"* null)
          to label %23 unwind label %24, !llfi_index !1392

23:                                               ; preds = %15
  br label %28, !llfi_index !1393

24:                                               ; preds = %70, %61, %54, %42, %34, %15, %13
  %25 = landingpad { i8*, i32 }
          cleanup, !llfi_index !1394
  %26 = extractvalue { i8*, i32 } %25, 0, !llfi_index !1395
  store i8* %26, i8** %8, align 8, !llfi_index !1396
  %27 = extractvalue { i8*, i32 } %25, 1, !llfi_index !1397
  store i32 %27, i32* %9, align 4, !llfi_index !1398
  call void @_ZNSt7__cxx1112basic_stringIcSt11char_traitsIcESaIcEED1Ev(%"class.std::__cxx11::basic_string"* nonnull align 8 dereferenceable(32) %6) #2, !llfi_index !1399
  br label %73, !llfi_index !1400

28:                                               ; preds = %23, %2
  store i32 89, i32* %10, align 4, !llfi_index !1401
  store i32 0, i32* %7, align 4, !llfi_index !1402
  br label %29, !llfi_index !1403

29:                                               ; preds = %45, %28
  %30 = load i32, i32* %7, align 4, !llfi_index !1404
  %31 = load i32, i32* %4, align 4, !llfi_index !1405
  %32 = sub nsw i32 %31, 1, !llfi_index !1406
  %33 = icmp slt i32 %30, %32, !llfi_index !1407
  br i1 %33, label %34, label %48, !llfi_index !1408

34:                                               ; preds = %29
  %35 = load i8**, i8*** %5, align 8, !llfi_index !1409
  %36 = load i32, i32* %7, align 4, !llfi_index !1410
  %37 = add nsw i32 %36, 1, !llfi_index !1411
  %38 = sext i32 %37 to i64, !llfi_index !1412
  %39 = getelementptr inbounds i8*, i8** %35, i64 %38, !llfi_index !1413
  %40 = load i8*, i8** %39, align 8, !llfi_index !1414
  %41 = invoke nonnull align 8 dereferenceable(32) %"class.std::__cxx11::basic_string"* @_ZNSt7__cxx1112basic_stringIcSt11char_traitsIcESaIcEEpLEPKc(%"class.std::__cxx11::basic_string"* nonnull align 8 dereferenceable(32) %6, i8* %40)
          to label %42 unwind label %24, !llfi_index !1415

42:                                               ; preds = %34
  %43 = invoke nonnull align 8 dereferenceable(32) %"class.std::__cxx11::basic_string"* @_ZNSt7__cxx1112basic_stringIcSt11char_traitsIcESaIcEEpLEc(%"class.std::__cxx11::basic_string"* nonnull align 8 dereferenceable(32) %6, i8 signext 10)
          to label %44 unwind label %24, !llfi_index !1416

44:                                               ; preds = %42
  br label %45, !llfi_index !1417

45:                                               ; preds = %44
  %46 = load i32, i32* %7, align 4, !llfi_index !1418
  %47 = add nsw i32 %46, 1, !llfi_index !1419
  store i32 %47, i32* %7, align 4, !llfi_index !1420
  br label %29, !llvm.loop !1421, !llfi_index !1422

48:                                               ; preds = %29
  store i32 89, i32* %10, align 4, !llfi_index !1423
  store i32 0, i32* %7, align 4, !llfi_index !1424
  br label %49, !llfi_index !1425

49:                                               ; preds = %67, %48
  %50 = load i32, i32* %7, align 4, !llfi_index !1426
  %51 = sext i32 %50 to i64, !llfi_index !1427
  %52 = call i64 @_ZNKSt7__cxx1112basic_stringIcSt11char_traitsIcESaIcEE4sizeEv(%"class.std::__cxx11::basic_string"* nonnull align 8 dereferenceable(32) %6) #2, !llfi_index !1428
  %53 = icmp ult i64 %51, %52, !llfi_index !1429
  br i1 %53, label %54, label %70, !llfi_index !1430

54:                                               ; preds = %49
  %55 = call i64 @_ZNKSt7__cxx1112basic_stringIcSt11char_traitsIcESaIcEE4sizeEv(%"class.std::__cxx11::basic_string"* nonnull align 8 dereferenceable(32) %6) #2, !llfi_index !1431
  %56 = sub i64 %55, 1, !llfi_index !1432
  %57 = load i32, i32* %7, align 4, !llfi_index !1433
  %58 = sext i32 %57 to i64, !llfi_index !1434
  %59 = sub i64 %56, %58, !llfi_index !1435
  %60 = invoke nonnull align 1 dereferenceable(1) i8* @_ZNSt7__cxx1112basic_stringIcSt11char_traitsIcESaIcEEixEm(%"class.std::__cxx11::basic_string"* nonnull align 8 dereferenceable(32) %6, i64 %59)
          to label %61 unwind label %24, !llfi_index !1436

61:                                               ; preds = %54
  %62 = load i8, i8* %60, align 1, !llfi_index !1437
  %63 = sext i8 %62 to i32, !llfi_index !1438
  %64 = load %struct._IO_FILE*, %struct._IO_FILE** @stdin, align 8, !llfi_index !1439
  %65 = invoke i32 @ungetc(i32 %63, %struct._IO_FILE* %64)
          to label %66 unwind label %24, !llfi_index !1440

66:                                               ; preds = %61
  br label %67, !llfi_index !1441

67:                                               ; preds = %66
  %68 = load i32, i32* %7, align 4, !llfi_index !1442
  %69 = add nsw i32 %68, 1, !llfi_index !1443
  store i32 %69, i32* %7, align 4, !llfi_index !1444
  br label %49, !llvm.loop !1445, !llfi_index !1446

70:                                               ; preds = %49
  store i32 89, i32* %10, align 4, !llfi_index !1447
  invoke void @_Z5solvev()
          to label %71 unwind label %24, !llfi_index !1448

71:                                               ; preds = %70
  store i32 0, i32* %3, align 4, !llfi_index !1449
  call void @_ZNSt7__cxx1112basic_stringIcSt11char_traitsIcESaIcEED1Ev(%"class.std::__cxx11::basic_string"* nonnull align 8 dereferenceable(32) %6) #2, !llfi_index !1450
  %72 = load i32, i32* %3, align 4, !llfi_index !1451
  ret i32 %72, !llfi_index !1452

73:                                               ; preds = %24
  %74 = load i8*, i8** %8, align 8, !llfi_index !1453
  %75 = load i32, i32* %9, align 4, !llfi_index !1454
  %76 = insertvalue { i8*, i32 } undef, i8* %74, 0, !llfi_index !1455
  %77 = insertvalue { i8*, i32 } %76, i32 %75, 1, !llfi_index !1456
  resume { i8*, i32 } %77, !llfi_index !1457
}

declare dso_local zeroext i1 @_ZNSt8ios_base15sync_with_stdioEb(i1 zeroext) #1

declare dso_local %"class.std::basic_ostream"* @_ZNSt9basic_iosIcSt11char_traitsIcEE3tieEPSo(%"class.std::basic_ios"* nonnull align 8 dereferenceable(264), %"class.std::basic_ostream"*) #1

declare dso_local nonnull align 8 dereferenceable(32) %"class.std::__cxx11::basic_string"* @_ZNSt7__cxx1112basic_stringIcSt11char_traitsIcESaIcEEpLEPKc(%"class.std::__cxx11::basic_string"* nonnull align 8 dereferenceable(32), i8*) #1

declare dso_local nonnull align 8 dereferenceable(32) %"class.std::__cxx11::basic_string"* @_ZNSt7__cxx1112basic_stringIcSt11char_traitsIcESaIcEEpLEc(%"class.std::__cxx11::basic_string"* nonnull align 8 dereferenceable(32), i8 signext) #1

; Function Attrs: nounwind
declare dso_local i64 @_ZNKSt7__cxx1112basic_stringIcSt11char_traitsIcESaIcEE4sizeEv(%"class.std::__cxx11::basic_string"* nonnull align 8 dereferenceable(32)) #3

declare dso_local nonnull align 1 dereferenceable(1) i8* @_ZNSt7__cxx1112basic_stringIcSt11char_traitsIcESaIcEEixEm(%"class.std::__cxx11::basic_string"* nonnull align 8 dereferenceable(32), i64) #1

declare dso_local i32 @ungetc(i32, %struct._IO_FILE*) #1

attributes #0 = { noinline uwtable "frame-pointer"="all" "min-legal-vector-width"="0" "no-trapping-math"="true" "stack-protector-buffer-size"="8" "target-cpu"="x86-64" "target-features"="+cx8,+fxsr,+mmx,+sse,+sse2,+x87" "tune-cpu"="generic" }
attributes #1 = { "frame-pointer"="all" "no-trapping-math"="true" "stack-protector-buffer-size"="8" "target-cpu"="x86-64" "target-features"="+cx8,+fxsr,+mmx,+sse,+sse2,+x87" "tune-cpu"="generic" }
attributes #2 = { nounwind }
attributes #3 = { nounwind "frame-pointer"="all" "no-trapping-math"="true" "stack-protector-buffer-size"="8" "target-cpu"="x86-64" "target-features"="+cx8,+fxsr,+mmx,+sse,+sse2,+x87" "tune-cpu"="generic" }
attributes #4 = { mustprogress noinline uwtable "frame-pointer"="all" "min-legal-vector-width"="0" "no-trapping-math"="true" "stack-protector-buffer-size"="8" "target-cpu"="x86-64" "target-features"="+cx8,+fxsr,+mmx,+sse,+sse2,+x87" "tune-cpu"="generic" }
attributes #5 = { nounwind readnone willreturn "frame-pointer"="all" "no-trapping-math"="true" "stack-protector-buffer-size"="8" "target-cpu"="x86-64" "target-features"="+cx8,+fxsr,+mmx,+sse,+sse2,+x87" "tune-cpu"="generic" }
attributes #6 = { mustprogress noinline nounwind uwtable "frame-pointer"="all" "min-legal-vector-width"="0" "no-trapping-math"="true" "stack-protector-buffer-size"="8" "target-cpu"="x86-64" "target-features"="+cx8,+fxsr,+mmx,+sse,+sse2,+x87" "tune-cpu"="generic" }
attributes #7 = { argmemonly nofree nounwind willreturn }
attributes #8 = { noinline nounwind uwtable "frame-pointer"="all" "min-legal-vector-width"="0" "no-trapping-math"="true" "stack-protector-buffer-size"="8" "target-cpu"="x86-64" "target-features"="+cx8,+fxsr,+mmx,+sse,+sse2,+x87" "tune-cpu"="generic" }
attributes #9 = { nofree nosync nounwind readnone speculatable willreturn }
attributes #10 = { mustprogress noinline norecurse uwtable "frame-pointer"="all" "min-legal-vector-width"="0" "no-trapping-math"="true" "stack-protector-buffer-size"="8" "target-cpu"="x86-64" "target-features"="+cx8,+fxsr,+mmx,+sse,+sse2,+x87" "tune-cpu"="generic" }
attributes #11 = { nounwind readnone willreturn }

!llvm.ident = !{!0}
!llvm.module.flags = !{!1, !2, !3}

!0 = !{!"clang version 13.0.0 (https://github.com/llvm/llvm-project.git d7b669b3a30345cfcdb2fde2af6f48aa4b94845d)"}
!1 = !{i32 1, !"wchar_size", i32 4}
!2 = !{i32 7, !"uwtable", i32 1}
!3 = !{i32 7, !"frame-pointer", i32 2}
!4 = !{i64 1}
!5 = !{i64 2}
!6 = !{i64 3}
!7 = !{i64 4}
!8 = !{i64 5}
!9 = !{i64 6}
!10 = !{i64 7}
!11 = !{i64 8}
!12 = !{i64 9}
!13 = !{i64 10}
!14 = !{i64 11}
!15 = !{i64 12}
!16 = !{i64 13}
!17 = !{i64 14}
!18 = !{i64 15}
!19 = !{i64 16}
!20 = !{i64 17}
!21 = !{i64 18}
!22 = !{i64 19}
!23 = !{i64 20}
!24 = !{i64 21}
!25 = !{i64 22}
!26 = !{i64 23}
!27 = !{i64 24}
!28 = !{i64 25}
!29 = !{i64 26}
!30 = !{i64 27}
!31 = !{i64 28}
!32 = !{i64 29}
!33 = !{i64 30}
!34 = !{i64 31}
!35 = !{i64 32}
!36 = !{i64 33}
!37 = !{i64 34}
!38 = !{i64 35}
!39 = !{i64 36}
!40 = !{i64 37}
!41 = !{i64 38}
!42 = !{i64 39}
!43 = !{i64 40}
!44 = !{i64 41}
!45 = !{i64 42}
!46 = !{i64 43}
!47 = !{i64 44}
!48 = !{i64 45}
!49 = !{i64 46}
!50 = !{i64 47}
!51 = !{i64 48}
!52 = !{i64 49}
!53 = !{i64 50}
!54 = !{i64 51}
!55 = !{i64 52}
!56 = !{i64 53}
!57 = !{i64 54}
!58 = !{i64 55}
!59 = !{i64 56}
!60 = !{i64 57}
!61 = !{i64 58}
!62 = !{i64 59}
!63 = !{i64 60}
!64 = !{i64 61}
!65 = !{i64 62}
!66 = !{i64 63}
!67 = !{i64 64}
!68 = !{i64 65}
!69 = !{i64 66}
!70 = !{i64 67}
!71 = !{i64 68}
!72 = !{i64 69}
!73 = !{i64 70}
!74 = !{i64 71}
!75 = !{i64 72}
!76 = !{i64 73}
!77 = !{i64 74}
!78 = !{i64 75}
!79 = !{i64 76}
!80 = !{i64 77}
!81 = !{i64 78}
!82 = !{i64 79}
!83 = !{i64 80}
!84 = !{i64 81}
!85 = !{i64 82}
!86 = !{i64 83}
!87 = !{i64 84}
!88 = !{i64 85}
!89 = !{i64 86}
!90 = !{i64 87}
!91 = !{i64 88}
!92 = !{i64 89}
!93 = !{i64 90}
!94 = !{i64 91}
!95 = !{i64 92}
!96 = !{i64 93}
!97 = !{i64 94}
!98 = !{i64 95}
!99 = !{i64 96}
!100 = !{i64 97}
!101 = !{i64 98}
!102 = !{i64 99}
!103 = !{i64 100}
!104 = !{i64 101}
!105 = !{i64 102}
!106 = !{i64 103}
!107 = !{i64 104}
!108 = !{i64 105}
!109 = !{i64 106}
!110 = !{i64 107}
!111 = !{i64 108}
!112 = !{i64 109}
!113 = !{i64 110}
!114 = !{i64 111}
!115 = !{i64 112}
!116 = !{i64 113}
!117 = !{i64 114}
!118 = !{i64 115}
!119 = !{i64 116}
!120 = !{i64 117}
!121 = !{i64 118}
!122 = !{i64 119}
!123 = !{i64 120}
!124 = !{i64 121}
!125 = !{i64 122}
!126 = !{i64 123}
!127 = !{i64 124}
!128 = !{i64 125}
!129 = !{i64 126}
!130 = !{i64 127}
!131 = !{i64 128}
!132 = !{i64 129}
!133 = !{i64 130}
!134 = !{i64 131}
!135 = !{i64 132}
!136 = !{i64 133}
!137 = !{i64 134}
!138 = !{i64 135}
!139 = !{i64 136}
!140 = !{i64 137}
!141 = !{i64 138}
!142 = !{i64 139}
!143 = !{i64 140}
!144 = !{i64 141}
!145 = !{i64 142}
!146 = !{i64 143}
!147 = !{i64 144}
!148 = !{i64 145}
!149 = !{i64 146}
!150 = !{i64 147}
!151 = !{i64 148}
!152 = !{i64 149}
!153 = !{i64 150}
!154 = !{i64 151}
!155 = !{i64 152}
!156 = !{i64 153}
!157 = !{i64 154}
!158 = !{i64 155}
!159 = !{i64 156}
!160 = !{i64 157}
!161 = !{i64 158}
!162 = !{i64 159}
!163 = !{i64 160}
!164 = !{i64 161}
!165 = !{i64 162}
!166 = !{i64 163}
!167 = !{i64 164}
!168 = !{i64 165}
!169 = !{i64 166}
!170 = !{i64 167}
!171 = !{i64 168}
!172 = !{i64 169}
!173 = !{i64 170}
!174 = !{i64 171}
!175 = !{i64 172}
!176 = !{i64 173}
!177 = !{i64 174}
!178 = !{i64 175}
!179 = !{i64 176}
!180 = !{i64 177}
!181 = !{i64 178}
!182 = !{i64 179}
!183 = !{i64 180}
!184 = !{i64 181}
!185 = !{i64 182}
!186 = !{i64 183}
!187 = !{i64 184}
!188 = !{i64 185}
!189 = !{i64 186}
!190 = !{i64 187}
!191 = !{i64 188}
!192 = !{i64 189}
!193 = !{i64 190}
!194 = !{i64 191}
!195 = !{i64 192}
!196 = !{i64 193}
!197 = !{i64 194}
!198 = !{i64 195}
!199 = !{i64 196}
!200 = !{i64 197}
!201 = !{i64 198}
!202 = !{i64 199}
!203 = !{i64 200}
!204 = !{i64 201}
!205 = !{i64 202}
!206 = !{i64 203}
!207 = !{i64 204}
!208 = !{i64 205}
!209 = !{i64 206}
!210 = !{i64 207}
!211 = !{i64 208}
!212 = !{i64 209}
!213 = !{i64 210}
!214 = !{i64 211}
!215 = !{i64 212}
!216 = !{i64 213}
!217 = !{i64 214}
!218 = !{i64 215}
!219 = !{i64 216}
!220 = !{i64 217}
!221 = !{i64 218}
!222 = !{i64 219}
!223 = !{i64 220}
!224 = !{i64 221}
!225 = !{i64 222}
!226 = !{i64 223}
!227 = !{i64 224}
!228 = !{i64 225}
!229 = !{i64 226}
!230 = !{i64 227}
!231 = !{i64 228}
!232 = !{i64 229}
!233 = !{i64 230}
!234 = !{i64 231}
!235 = !{i64 232}
!236 = !{i64 233}
!237 = !{i64 234}
!238 = !{i64 235}
!239 = !{i64 236}
!240 = !{i64 237}
!241 = !{i64 238}
!242 = !{i64 239}
!243 = !{i64 240}
!244 = !{i64 241}
!245 = !{i64 242}
!246 = !{i64 243}
!247 = !{i64 244}
!248 = !{i64 245}
!249 = !{i64 246}
!250 = !{i64 247}
!251 = !{i64 248}
!252 = !{i64 249}
!253 = !{i64 250}
!254 = !{i64 251}
!255 = !{i64 252}
!256 = !{i64 253}
!257 = !{i64 254}
!258 = !{i64 255}
!259 = !{i64 256}
!260 = !{i64 257}
!261 = !{i64 258}
!262 = !{i64 259}
!263 = !{i64 260}
!264 = !{i64 261}
!265 = !{i64 262}
!266 = !{i64 263}
!267 = !{i64 264}
!268 = distinct !{!268, !269}
!269 = !{!"llvm.loop.mustprogress"}
!270 = !{i64 265}
!271 = !{i64 266}
!272 = !{i64 267}
!273 = !{i64 268}
!274 = !{i64 269}
!275 = !{i64 270}
!276 = !{i64 271}
!277 = !{i64 272}
!278 = !{i64 273}
!279 = !{i64 274}
!280 = !{i64 275}
!281 = !{i64 276}
!282 = !{i64 277}
!283 = !{i64 278}
!284 = !{i64 279}
!285 = !{i64 280}
!286 = !{i64 281}
!287 = !{i64 282}
!288 = !{i64 283}
!289 = !{i64 284}
!290 = !{i64 285}
!291 = !{i64 286}
!292 = !{i64 287}
!293 = !{i64 288}
!294 = !{i64 289}
!295 = !{i64 290}
!296 = !{i64 291}
!297 = !{i64 292}
!298 = !{i64 293}
!299 = !{i64 294}
!300 = !{i64 295}
!301 = !{i64 296}
!302 = !{i64 297}
!303 = !{i64 298}
!304 = !{i64 299}
!305 = !{i64 300}
!306 = !{i64 301}
!307 = !{i64 302}
!308 = !{i64 303}
!309 = !{i64 304}
!310 = !{i64 305}
!311 = !{i64 306}
!312 = !{i64 307}
!313 = !{i64 308}
!314 = !{i64 309}
!315 = !{i64 310}
!316 = !{i64 311}
!317 = distinct !{!317, !269}
!318 = !{i64 312}
!319 = !{i64 313}
!320 = !{i64 314}
!321 = !{i64 315}
!322 = !{i64 316}
!323 = !{i64 317}
!324 = !{i64 318}
!325 = !{i64 319}
!326 = !{i64 320}
!327 = !{i64 321}
!328 = !{i64 322}
!329 = !{i64 323}
!330 = !{i64 324}
!331 = !{i64 325}
!332 = !{i64 326}
!333 = !{i64 327}
!334 = !{i64 328}
!335 = !{i64 329}
!336 = !{i64 330}
!337 = !{i64 331}
!338 = !{i64 332}
!339 = !{i64 333}
!340 = !{i64 334}
!341 = !{i64 335}
!342 = !{i64 336}
!343 = !{i64 337}
!344 = !{i64 338}
!345 = !{i64 339}
!346 = !{i64 340}
!347 = !{i64 341}
!348 = !{i64 342}
!349 = !{i64 343}
!350 = !{i64 344}
!351 = !{i64 345}
!352 = !{i64 346}
!353 = !{i64 347}
!354 = !{i64 348}
!355 = !{i64 349}
!356 = !{i64 350}
!357 = !{i64 351}
!358 = !{i64 352}
!359 = !{i64 353}
!360 = !{i64 354}
!361 = !{i64 355}
!362 = !{i64 356}
!363 = !{i64 357}
!364 = !{i64 358}
!365 = !{i64 359}
!366 = !{i64 360}
!367 = !{i64 361}
!368 = !{i64 362}
!369 = !{i64 363}
!370 = !{i64 364}
!371 = !{i64 365}
!372 = !{i64 366}
!373 = !{i64 367}
!374 = !{i64 368}
!375 = !{i64 369}
!376 = !{i64 370}
!377 = !{i64 371}
!378 = !{i64 372}
!379 = distinct !{!379, !269}
!380 = !{i64 373}
!381 = !{i64 374}
!382 = !{i64 375}
!383 = !{i64 376}
!384 = !{i64 377}
!385 = distinct !{!385, !269}
!386 = !{i64 378}
!387 = !{i64 379}
!388 = !{i64 380}
!389 = !{i64 381}
!390 = !{i64 382}
!391 = !{i64 383}
!392 = !{i64 384}
!393 = !{i64 385}
!394 = !{i64 386}
!395 = !{i64 387}
!396 = !{i64 388}
!397 = !{i64 389}
!398 = !{i64 390}
!399 = !{i64 391}
!400 = !{i64 392}
!401 = !{i64 393}
!402 = !{i64 394}
!403 = !{i64 395}
!404 = !{i64 396}
!405 = !{i64 397}
!406 = !{i64 398}
!407 = !{i64 399}
!408 = !{i64 400}
!409 = !{i64 401}
!410 = !{i64 402}
!411 = !{i64 403}
!412 = !{i64 404}
!413 = !{i64 405}
!414 = !{i64 406}
!415 = !{i64 407}
!416 = !{i64 408}
!417 = !{i64 409}
!418 = !{i64 410}
!419 = !{i64 411}
!420 = !{i64 412}
!421 = !{i64 413}
!422 = !{i64 414}
!423 = !{i64 415}
!424 = !{i64 416}
!425 = !{i64 417}
!426 = !{i64 418}
!427 = !{i64 419}
!428 = !{i64 420}
!429 = !{i64 421}
!430 = !{i64 422}
!431 = !{i64 423}
!432 = !{i64 424}
!433 = !{i64 425}
!434 = !{i64 426}
!435 = !{i64 427}
!436 = !{i64 428}
!437 = !{i64 429}
!438 = !{i64 430}
!439 = !{i64 431}
!440 = !{i64 432}
!441 = !{i64 433}
!442 = !{i64 434}
!443 = !{i64 435}
!444 = !{i64 436}
!445 = !{i64 437}
!446 = !{i64 438}
!447 = !{i64 439}
!448 = !{i64 440}
!449 = !{i64 441}
!450 = !{i64 442}
!451 = !{i64 443}
!452 = !{i64 444}
!453 = !{i64 445}
!454 = !{i64 446}
!455 = !{i64 447}
!456 = !{i64 448}
!457 = !{i64 449}
!458 = !{i64 450}
!459 = !{i64 451}
!460 = !{i64 452}
!461 = !{i64 453}
!462 = !{i64 454}
!463 = !{i64 455}
!464 = !{i64 456}
!465 = !{i64 457}
!466 = !{i64 458}
!467 = !{i64 459}
!468 = distinct !{!468, !269}
!469 = !{i64 460}
!470 = !{i64 461}
!471 = !{i64 462}
!472 = !{i64 463}
!473 = !{i64 464}
!474 = !{i64 465}
!475 = !{i64 466}
!476 = !{i64 467}
!477 = !{i64 468}
!478 = !{i64 469}
!479 = !{i64 470}
!480 = !{i64 471}
!481 = !{i64 472}
!482 = !{i64 473}
!483 = !{i64 474}
!484 = !{i64 475}
!485 = !{i64 476}
!486 = !{i64 477}
!487 = !{i64 478}
!488 = !{i64 479}
!489 = !{i64 480}
!490 = !{i64 481}
!491 = !{i64 482}
!492 = !{i64 483}
!493 = !{i64 484}
!494 = !{i64 485}
!495 = !{i64 486}
!496 = !{i64 487}
!497 = !{i64 488}
!498 = !{i64 489}
!499 = !{i64 490}
!500 = !{i64 491}
!501 = !{i64 492}
!502 = !{i64 493}
!503 = !{i64 494}
!504 = !{i64 495}
!505 = !{i64 496}
!506 = !{i64 497}
!507 = !{i64 498}
!508 = !{i64 499}
!509 = !{i64 500}
!510 = !{i64 501}
!511 = !{i64 502}
!512 = !{i64 503}
!513 = !{i64 504}
!514 = !{i64 505}
!515 = !{i64 506}
!516 = !{i64 507}
!517 = !{i64 508}
!518 = !{i64 509}
!519 = !{i64 510}
!520 = !{i64 511}
!521 = !{i64 512}
!522 = !{i64 513}
!523 = !{i64 514}
!524 = !{i64 515}
!525 = !{i64 516}
!526 = !{i64 517}
!527 = !{i64 518}
!528 = !{i64 519}
!529 = !{i64 520}
!530 = !{i64 521}
!531 = !{i64 522}
!532 = !{i64 523}
!533 = !{i64 524}
!534 = !{i64 525}
!535 = !{i64 526}
!536 = !{i64 527}
!537 = !{i64 528}
!538 = !{i64 529}
!539 = !{i64 530}
!540 = !{i64 531}
!541 = !{i64 532}
!542 = !{i64 533}
!543 = !{i64 534}
!544 = !{i64 535}
!545 = !{i64 536}
!546 = !{i64 537}
!547 = !{i64 538}
!548 = !{i64 539}
!549 = !{i64 540}
!550 = !{i64 541}
!551 = !{i64 542}
!552 = !{i64 543}
!553 = !{i64 544}
!554 = !{i64 545}
!555 = !{i64 546}
!556 = !{i64 547}
!557 = !{i64 548}
!558 = !{i64 549}
!559 = !{i64 550}
!560 = !{i64 551}
!561 = !{i64 552}
!562 = !{i64 553}
!563 = !{i64 554}
!564 = !{i64 555}
!565 = !{i64 556}
!566 = !{i64 557}
!567 = !{i64 558}
!568 = !{i64 559}
!569 = !{i64 560}
!570 = !{i64 561}
!571 = !{i64 562}
!572 = !{i64 563}
!573 = !{i64 564}
!574 = !{i64 565}
!575 = !{i64 566}
!576 = !{i64 567}
!577 = !{i64 568}
!578 = distinct !{!578, !269}
!579 = !{i64 569}
!580 = !{i64 570}
!581 = !{i64 571}
!582 = !{i64 572}
!583 = !{i64 573}
!584 = !{i64 574}
!585 = !{i64 575}
!586 = !{i64 576}
!587 = !{i64 577}
!588 = !{i64 578}
!589 = !{i64 579}
!590 = !{i64 580}
!591 = !{i64 581}
!592 = !{i64 582}
!593 = !{i64 583}
!594 = !{i64 584}
!595 = !{i64 585}
!596 = !{i64 586}
!597 = !{i64 587}
!598 = !{i64 588}
!599 = !{i64 589}
!600 = !{i64 590}
!601 = !{i64 591}
!602 = !{i64 592}
!603 = !{i64 593}
!604 = !{i64 594}
!605 = !{i64 595}
!606 = !{i64 596}
!607 = !{i64 597}
!608 = !{i64 598}
!609 = !{i64 599}
!610 = !{i64 600}
!611 = !{i64 601}
!612 = !{i64 602}
!613 = !{i64 603}
!614 = !{i64 604}
!615 = !{i64 605}
!616 = !{i64 606}
!617 = !{i64 607}
!618 = !{i64 608}
!619 = !{i64 609}
!620 = !{i64 610}
!621 = !{i64 611}
!622 = !{i64 612}
!623 = !{i64 613}
!624 = !{i64 614}
!625 = !{i64 615}
!626 = !{i64 616}
!627 = !{i64 617}
!628 = !{i64 618}
!629 = !{i64 619}
!630 = !{i64 620}
!631 = !{i64 621}
!632 = !{i64 622}
!633 = !{i64 623}
!634 = !{i64 624}
!635 = !{i64 625}
!636 = !{i64 626}
!637 = !{i64 627}
!638 = !{i64 628}
!639 = !{i64 629}
!640 = !{i64 630}
!641 = !{i64 631}
!642 = !{i64 632}
!643 = !{i64 633}
!644 = !{i64 634}
!645 = !{i64 635}
!646 = !{i64 636}
!647 = !{i64 637}
!648 = !{i64 638}
!649 = !{i64 639}
!650 = !{i64 640}
!651 = !{i64 641}
!652 = !{i64 642}
!653 = !{i64 643}
!654 = !{i64 644}
!655 = !{i64 645}
!656 = !{i64 646}
!657 = !{i64 647}
!658 = !{i64 648}
!659 = !{i64 649}
!660 = distinct !{!660, !269}
!661 = !{i64 650}
!662 = !{i64 651}
!663 = !{i64 652}
!664 = !{i64 653}
!665 = !{i64 654}
!666 = !{i64 655}
!667 = !{i64 656}
!668 = !{i64 657}
!669 = !{i64 658}
!670 = !{i64 659}
!671 = !{i64 660}
!672 = !{i64 661}
!673 = !{i64 662}
!674 = !{i64 663}
!675 = !{i64 664}
!676 = !{i64 665}
!677 = !{i64 666}
!678 = !{i64 667}
!679 = !{i64 668}
!680 = !{i64 669}
!681 = !{i64 670}
!682 = !{i64 671}
!683 = !{i64 672}
!684 = !{i64 673}
!685 = !{i64 674}
!686 = distinct !{!686, !269}
!687 = !{i64 675}
!688 = !{i64 676}
!689 = !{i64 677}
!690 = !{i64 678}
!691 = !{i64 679}
!692 = !{i64 680}
!693 = !{i64 681}
!694 = !{i64 682}
!695 = !{i64 683}
!696 = !{i64 684}
!697 = !{i64 685}
!698 = !{i64 686}
!699 = !{i64 687}
!700 = !{i64 688}
!701 = !{i64 689}
!702 = !{i64 690}
!703 = !{i64 691}
!704 = !{i64 692}
!705 = !{i64 693}
!706 = !{i64 694}
!707 = !{i64 695}
!708 = !{i64 696}
!709 = !{i64 697}
!710 = !{i64 698}
!711 = !{i64 699}
!712 = !{i64 700}
!713 = !{i64 701}
!714 = !{i64 702}
!715 = !{i64 703}
!716 = !{i64 704}
!717 = !{i64 705}
!718 = !{i64 706}
!719 = distinct !{!719, !269}
!720 = !{i64 707}
!721 = !{i64 708}
!722 = !{i64 709}
!723 = !{i64 710}
!724 = !{i64 711}
!725 = !{i64 712}
!726 = !{i64 713}
!727 = !{i64 714}
!728 = !{i64 715}
!729 = !{i64 716}
!730 = !{i64 717}
!731 = !{i64 718}
!732 = !{i64 719}
!733 = !{i64 720}
!734 = !{i64 721}
!735 = !{i64 722}
!736 = !{i64 723}
!737 = !{i64 724}
!738 = !{i64 725}
!739 = !{i64 726}
!740 = !{i64 727}
!741 = !{i64 728}
!742 = !{i64 729}
!743 = !{i64 730}
!744 = !{i64 731}
!745 = !{i64 732}
!746 = !{i64 733}
!747 = !{i64 734}
!748 = !{i64 735}
!749 = !{i64 736}
!750 = !{i64 737}
!751 = !{i64 738}
!752 = !{i64 739}
!753 = !{i64 740}
!754 = !{i64 741}
!755 = !{i64 742}
!756 = !{i64 743}
!757 = !{i64 744}
!758 = !{i64 745}
!759 = !{i64 746}
!760 = !{i64 747}
!761 = !{i64 748}
!762 = !{i64 749}
!763 = !{i64 750}
!764 = !{i64 751}
!765 = !{i64 752}
!766 = !{i64 753}
!767 = !{i64 754}
!768 = !{i64 755}
!769 = !{i64 756}
!770 = !{i64 757}
!771 = !{i64 758}
!772 = !{i64 759}
!773 = !{i64 760}
!774 = !{i64 761}
!775 = !{i64 762}
!776 = !{i64 763}
!777 = !{i64 764}
!778 = !{i64 765}
!779 = !{i64 766}
!780 = !{i64 767}
!781 = !{i64 768}
!782 = !{i64 769}
!783 = !{i64 770}
!784 = !{i64 771}
!785 = !{i64 772}
!786 = !{i64 773}
!787 = !{i64 774}
!788 = !{i64 775}
!789 = !{i64 776}
!790 = !{i64 777}
!791 = !{i64 778}
!792 = !{i64 779}
!793 = !{i64 780}
!794 = !{i64 781}
!795 = !{i64 782}
!796 = !{i64 783}
!797 = !{i64 784}
!798 = !{i64 785}
!799 = !{i64 786}
!800 = !{i64 787}
!801 = !{i64 788}
!802 = !{i64 789}
!803 = !{i64 790}
!804 = !{i64 791}
!805 = !{i64 792}
!806 = !{i64 793}
!807 = !{i64 794}
!808 = !{i64 795}
!809 = !{i64 796}
!810 = !{i64 797}
!811 = !{i64 798}
!812 = !{i64 799}
!813 = !{i64 800}
!814 = !{i64 801}
!815 = !{i64 802}
!816 = !{i64 803}
!817 = !{i64 804}
!818 = !{i64 805}
!819 = !{i64 806}
!820 = !{i64 807}
!821 = !{i64 808}
!822 = !{i64 809}
!823 = !{i64 810}
!824 = !{i64 811}
!825 = !{i64 812}
!826 = !{i64 813}
!827 = !{i64 814}
!828 = !{i64 815}
!829 = !{i64 816}
!830 = !{i64 817}
!831 = !{i64 818}
!832 = !{i64 819}
!833 = !{i64 820}
!834 = !{i64 821}
!835 = !{i64 822}
!836 = !{i64 823}
!837 = !{i64 824}
!838 = !{i64 825}
!839 = !{i64 826}
!840 = !{i64 827}
!841 = !{i64 828}
!842 = !{i64 829}
!843 = !{i64 830}
!844 = !{i64 831}
!845 = !{i64 832}
!846 = !{i64 833}
!847 = !{i64 834}
!848 = !{i64 835}
!849 = !{i64 836}
!850 = !{i64 837}
!851 = !{i64 838}
!852 = !{i64 839}
!853 = !{i64 840}
!854 = !{i64 841}
!855 = !{i64 842}
!856 = !{i64 843}
!857 = !{i64 844}
!858 = !{i64 845}
!859 = !{i64 846}
!860 = !{i64 847}
!861 = !{i64 848}
!862 = !{i64 849}
!863 = !{i64 850}
!864 = !{i64 851}
!865 = !{i64 852}
!866 = !{i64 853}
!867 = !{i64 854}
!868 = !{i64 855}
!869 = !{i64 856}
!870 = !{i64 857}
!871 = !{i64 858}
!872 = !{i64 859}
!873 = !{i64 860}
!874 = !{i64 861}
!875 = !{i64 862}
!876 = !{i64 863}
!877 = !{i64 864}
!878 = !{i64 865}
!879 = !{i64 866}
!880 = !{i64 867}
!881 = !{i64 868}
!882 = !{i64 869}
!883 = !{i64 870}
!884 = !{i64 871}
!885 = !{i64 872}
!886 = !{i64 873}
!887 = !{i64 874}
!888 = !{i64 875}
!889 = !{i64 876}
!890 = distinct !{!890, !269}
!891 = !{i64 877}
!892 = !{i64 878}
!893 = !{i64 879}
!894 = !{i64 880}
!895 = !{i64 881}
!896 = !{i64 882}
!897 = !{i64 883}
!898 = !{i64 884}
!899 = !{i64 885}
!900 = !{i64 886}
!901 = !{i64 887}
!902 = !{i64 888}
!903 = !{i64 889}
!904 = !{i64 890}
!905 = !{i64 891}
!906 = !{i64 892}
!907 = !{i64 893}
!908 = !{i64 894}
!909 = !{i64 895}
!910 = !{i64 896}
!911 = !{i64 897}
!912 = !{i64 898}
!913 = !{i64 899}
!914 = !{i64 900}
!915 = !{i64 901}
!916 = !{i64 902}
!917 = !{i64 903}
!918 = !{i64 904}
!919 = !{i64 905}
!920 = !{i64 906}
!921 = !{i64 907}
!922 = !{i64 908}
!923 = !{i64 909}
!924 = !{i64 910}
!925 = !{i64 911}
!926 = !{i64 912}
!927 = !{i64 913}
!928 = !{i64 914}
!929 = !{i64 915}
!930 = !{i64 916}
!931 = !{i64 917}
!932 = !{i64 918}
!933 = !{i64 919}
!934 = !{i64 920}
!935 = !{i64 921}
!936 = !{i64 922}
!937 = !{i64 923}
!938 = !{i64 924}
!939 = !{i64 925}
!940 = !{i64 926}
!941 = !{i64 927}
!942 = !{i64 928}
!943 = !{i64 929}
!944 = !{i64 930}
!945 = !{i64 931}
!946 = !{i64 932}
!947 = !{i64 933}
!948 = !{i64 934}
!949 = !{i64 935}
!950 = !{i64 936}
!951 = !{i64 937}
!952 = !{i64 938}
!953 = !{i64 939}
!954 = !{i64 940}
!955 = !{i64 941}
!956 = !{i64 942}
!957 = !{i64 943}
!958 = !{i64 944}
!959 = !{i64 945}
!960 = !{i64 946}
!961 = !{i64 947}
!962 = !{i64 948}
!963 = !{i64 949}
!964 = !{i64 950}
!965 = !{i64 951}
!966 = !{i64 952}
!967 = !{i64 953}
!968 = !{i64 954}
!969 = !{i64 955}
!970 = !{i64 956}
!971 = !{i64 957}
!972 = !{i64 958}
!973 = !{i64 959}
!974 = !{i64 960}
!975 = !{i64 961}
!976 = !{i64 962}
!977 = !{i64 963}
!978 = !{i64 964}
!979 = !{i64 965}
!980 = !{i64 966}
!981 = !{i64 967}
!982 = !{i64 968}
!983 = !{i64 969}
!984 = !{i64 970}
!985 = !{i64 971}
!986 = !{i64 972}
!987 = !{i64 973}
!988 = !{i64 974}
!989 = !{i64 975}
!990 = !{i64 976}
!991 = !{i64 977}
!992 = !{i64 978}
!993 = !{i64 979}
!994 = !{i64 980}
!995 = !{i64 981}
!996 = !{i64 982}
!997 = !{i64 983}
!998 = !{i64 984}
!999 = !{i64 985}
!1000 = !{i64 986}
!1001 = !{i64 987}
!1002 = !{i64 988}
!1003 = !{i64 989}
!1004 = !{i64 990}
!1005 = !{i64 991}
!1006 = !{i64 992}
!1007 = !{i64 993}
!1008 = !{i64 994}
!1009 = !{i64 995}
!1010 = !{i64 996}
!1011 = !{i64 997}
!1012 = !{i64 998}
!1013 = !{i64 999}
!1014 = !{i64 1000}
!1015 = distinct !{!1015, !269}
!1016 = !{i64 1001}
!1017 = !{i64 1002}
!1018 = !{i64 1003}
!1019 = !{i64 1004}
!1020 = !{i64 1005}
!1021 = !{i64 1006}
!1022 = !{i64 1007}
!1023 = !{i64 1008}
!1024 = !{i64 1009}
!1025 = !{i64 1010}
!1026 = !{i64 1011}
!1027 = !{i64 1012}
!1028 = distinct !{!1028, !269}
!1029 = !{i64 1013}
!1030 = !{i64 1014}
!1031 = !{i64 1015}
!1032 = !{i64 1016}
!1033 = !{i64 1017}
!1034 = !{i64 1018}
!1035 = !{i64 1019}
!1036 = !{i64 1020}
!1037 = !{i64 1021}
!1038 = !{i64 1022}
!1039 = !{i64 1023}
!1040 = !{i64 1024}
!1041 = !{i64 1025}
!1042 = distinct !{!1042, !269}
!1043 = !{i64 1026}
!1044 = !{i64 1027}
!1045 = !{i64 1028}
!1046 = !{i64 1029}
!1047 = !{i64 1030}
!1048 = !{i64 1031}
!1049 = !{i64 1032}
!1050 = !{i64 1033}
!1051 = !{i64 1034}
!1052 = !{i64 1035}
!1053 = !{i64 1036}
!1054 = !{i64 1037}
!1055 = !{i64 1038}
!1056 = !{i64 1039}
!1057 = !{i64 1040}
!1058 = !{i64 1041}
!1059 = !{i64 1042}
!1060 = !{i64 1043}
!1061 = !{i64 1044}
!1062 = !{i64 1045}
!1063 = !{i64 1046}
!1064 = !{i64 1047}
!1065 = !{i64 1048}
!1066 = !{i64 1049}
!1067 = !{i64 1050}
!1068 = !{i64 1051}
!1069 = !{i64 1052}
!1070 = !{i64 1053}
!1071 = !{i64 1054}
!1072 = !{i64 1055}
!1073 = !{i64 1056}
!1074 = !{i64 1057}
!1075 = distinct !{!1075, !269}
!1076 = !{i64 1058}
!1077 = !{i64 1059}
!1078 = !{i64 1060}
!1079 = !{i64 1061}
!1080 = !{i64 1062}
!1081 = !{i64 1063}
!1082 = !{i64 1064}
!1083 = !{i64 1065}
!1084 = !{i64 1066}
!1085 = !{i64 1067}
!1086 = !{i64 1068}
!1087 = !{i64 1069}
!1088 = !{i64 1070}
!1089 = !{i64 1071}
!1090 = !{i64 1072}
!1091 = !{i64 1073}
!1092 = !{i64 1074}
!1093 = !{i64 1075}
!1094 = !{i64 1076}
!1095 = !{i64 1077}
!1096 = !{i64 1078}
!1097 = !{i64 1079}
!1098 = !{i64 1080}
!1099 = !{i64 1081}
!1100 = !{i64 1082}
!1101 = distinct !{!1101, !269}
!1102 = !{i64 1083}
!1103 = !{i64 1084}
!1104 = !{i64 1085}
!1105 = !{i64 1086}
!1106 = !{i64 1087}
!1107 = !{i64 1088}
!1108 = !{i64 1089}
!1109 = !{i64 1090}
!1110 = !{i64 1091}
!1111 = !{i64 1092}
!1112 = !{i64 1093}
!1113 = !{i64 1094}
!1114 = !{i64 1095}
!1115 = !{i64 1096}
!1116 = !{i64 1097}
!1117 = !{i64 1098}
!1118 = !{i64 1099}
!1119 = !{i64 1100}
!1120 = !{i64 1101}
!1121 = !{i64 1102}
!1122 = !{i64 1103}
!1123 = !{i64 1104}
!1124 = !{i64 1105}
!1125 = !{i64 1106}
!1126 = !{i64 1107}
!1127 = !{i64 1108}
!1128 = !{i64 1109}
!1129 = !{i64 1110}
!1130 = !{i64 1111}
!1131 = !{i64 1112}
!1132 = !{i64 1113}
!1133 = !{i64 1114}
!1134 = !{i64 1115}
!1135 = !{i64 1116}
!1136 = !{i64 1117}
!1137 = !{i64 1118}
!1138 = !{i64 1119}
!1139 = !{i64 1120}
!1140 = !{i64 1121}
!1141 = !{i64 1122}
!1142 = !{i64 1123}
!1143 = !{i64 1124}
!1144 = !{i64 1125}
!1145 = !{i64 1126}
!1146 = !{i64 1127}
!1147 = !{i64 1128}
!1148 = !{i64 1129}
!1149 = !{i64 1130}
!1150 = !{i64 1131}
!1151 = !{i64 1132}
!1152 = !{i64 1133}
!1153 = !{i64 1134}
!1154 = !{i64 1135}
!1155 = !{i64 1136}
!1156 = !{i64 1137}
!1157 = !{i64 1138}
!1158 = !{i64 1139}
!1159 = !{i64 1140}
!1160 = !{i64 1141}
!1161 = !{i64 1142}
!1162 = !{i64 1143}
!1163 = !{i64 1144}
!1164 = !{i64 1145}
!1165 = !{i64 1146}
!1166 = !{i64 1147}
!1167 = !{i64 1148}
!1168 = !{i64 1149}
!1169 = !{i64 1150}
!1170 = !{i64 1151}
!1171 = !{i64 1152}
!1172 = !{i64 1153}
!1173 = !{i64 1154}
!1174 = !{i64 1155}
!1175 = !{i64 1156}
!1176 = !{i64 1157}
!1177 = !{i64 1158}
!1178 = !{i64 1159}
!1179 = !{i64 1160}
!1180 = !{i64 1161}
!1181 = !{i64 1162}
!1182 = !{i64 1163}
!1183 = !{i64 1164}
!1184 = !{i64 1165}
!1185 = !{i64 1166}
!1186 = !{i64 1167}
!1187 = !{i64 1168}
!1188 = !{i64 1169}
!1189 = !{i64 1170}
!1190 = !{i64 1171}
!1191 = !{i64 1172}
!1192 = !{i64 1173}
!1193 = distinct !{!1193, !269}
!1194 = !{i64 1174}
!1195 = !{i64 1175}
!1196 = !{i64 1176}
!1197 = !{i64 1177}
!1198 = !{i64 1178}
!1199 = !{i64 1179}
!1200 = !{i64 1180}
!1201 = !{i64 1181}
!1202 = !{i64 1182}
!1203 = !{i64 1183}
!1204 = !{i64 1184}
!1205 = !{i64 1185}
!1206 = !{i64 1186}
!1207 = !{i64 1187}
!1208 = !{i64 1188}
!1209 = !{i64 1189}
!1210 = !{i64 1190}
!1211 = !{i64 1191}
!1212 = !{i64 1192}
!1213 = !{i64 1193}
!1214 = !{i64 1194}
!1215 = !{i64 1195}
!1216 = !{i64 1196}
!1217 = !{i64 1197}
!1218 = !{i64 1198}
!1219 = !{i64 1199}
!1220 = !{i64 1200}
!1221 = !{i64 1201}
!1222 = !{i64 1202}
!1223 = !{i64 1203}
!1224 = !{i64 1204}
!1225 = !{i64 1205}
!1226 = !{i64 1206}
!1227 = !{i64 1207}
!1228 = !{i64 1208}
!1229 = !{i64 1209}
!1230 = !{i64 1210}
!1231 = !{i64 1211}
!1232 = !{i64 1212}
!1233 = !{i64 1213}
!1234 = !{i64 1214}
!1235 = !{i64 1215}
!1236 = !{i64 1216}
!1237 = !{i64 1217}
!1238 = !{i64 1218}
!1239 = !{i64 1219}
!1240 = !{i64 1220}
!1241 = !{i64 1221}
!1242 = !{i64 1222}
!1243 = !{i64 1223}
!1244 = !{i64 1224}
!1245 = !{i64 1225}
!1246 = !{i64 1226}
!1247 = !{i64 1227}
!1248 = !{i64 1228}
!1249 = !{i64 1229}
!1250 = !{i64 1230}
!1251 = !{i64 1231}
!1252 = !{i64 1232}
!1253 = !{i64 1233}
!1254 = !{i64 1234}
!1255 = !{i64 1235}
!1256 = !{i64 1236}
!1257 = !{i64 1237}
!1258 = !{i64 1238}
!1259 = !{i64 1239}
!1260 = !{i64 1240}
!1261 = !{i64 1241}
!1262 = !{i64 1242}
!1263 = !{i64 1243}
!1264 = !{i64 1244}
!1265 = !{i64 1245}
!1266 = !{i64 1246}
!1267 = !{i64 1247}
!1268 = !{i64 1248}
!1269 = !{i64 1249}
!1270 = !{i64 1250}
!1271 = !{i64 1251}
!1272 = !{i64 1252}
!1273 = !{i64 1253}
!1274 = !{i64 1254}
!1275 = !{i64 1255}
!1276 = !{i64 1256}
!1277 = !{i64 1257}
!1278 = !{i64 1258}
!1279 = !{i64 1259}
!1280 = !{i64 1260}
!1281 = !{i64 1261}
!1282 = !{i64 1262}
!1283 = !{i64 1263}
!1284 = !{i64 1264}
!1285 = !{i64 1265}
!1286 = !{i64 1266}
!1287 = distinct !{!1287, !269}
!1288 = !{i64 1267}
!1289 = !{i64 1268}
!1290 = !{i64 1269}
!1291 = !{i64 1270}
!1292 = !{i64 1271}
!1293 = !{i64 1272}
!1294 = !{i64 1273}
!1295 = !{i64 1274}
!1296 = !{i64 1275}
!1297 = !{i64 1276}
!1298 = !{i64 1277}
!1299 = !{i64 1278}
!1300 = !{i64 1279}
!1301 = !{i64 1280}
!1302 = !{i64 1281}
!1303 = !{i64 1282}
!1304 = !{i64 1283}
!1305 = !{i64 1284}
!1306 = !{i64 1285}
!1307 = !{i64 1286}
!1308 = !{i64 1287}
!1309 = !{i64 1288}
!1310 = !{i64 1289}
!1311 = !{i64 1290}
!1312 = !{i64 1291}
!1313 = !{i64 1292}
!1314 = !{i64 1293}
!1315 = !{i64 1294}
!1316 = !{i64 1295}
!1317 = !{i64 1296}
!1318 = !{i64 1297}
!1319 = !{i64 1298}
!1320 = !{i64 1299}
!1321 = !{i64 1300}
!1322 = !{i64 1301}
!1323 = !{i64 1302}
!1324 = !{i64 1303}
!1325 = !{i64 1304}
!1326 = !{i64 1305}
!1327 = !{i64 1306}
!1328 = !{i64 1307}
!1329 = !{i64 1308}
!1330 = !{i64 1309}
!1331 = !{i64 1310}
!1332 = !{i64 1311}
!1333 = !{i64 1312}
!1334 = !{i64 1313}
!1335 = !{i64 1314}
!1336 = !{i64 1315}
!1337 = !{i64 1316}
!1338 = !{i64 1317}
!1339 = !{i64 1318}
!1340 = !{i64 1319}
!1341 = !{i64 1320}
!1342 = !{i64 1321}
!1343 = !{i64 1322}
!1344 = !{i64 1323}
!1345 = !{i64 1324}
!1346 = !{i64 1325}
!1347 = !{i64 1326}
!1348 = !{i64 1327}
!1349 = !{i64 1328}
!1350 = !{i64 1329}
!1351 = !{i64 1330}
!1352 = !{i64 1331}
!1353 = !{i64 1332}
!1354 = !{i64 1333}
!1355 = !{i64 1334}
!1356 = !{i64 1335}
!1357 = !{i64 1336}
!1358 = !{i64 1337}
!1359 = !{i64 1338}
!1360 = !{i64 1339}
!1361 = !{i64 1340}
!1362 = !{i64 1341}
!1363 = distinct !{!1363, !269}
!1364 = !{i64 1342}
!1365 = !{i64 1343}
!1366 = !{i64 1344}
!1367 = !{i64 1345}
!1368 = !{i64 1346}
!1369 = !{i64 1347}
!1370 = !{i64 1348}
!1371 = !{i64 1349}
!1372 = !{i64 1350}
!1373 = !{i64 1351}
!1374 = !{i64 1352}
!1375 = !{i64 1353}
!1376 = !{i64 1354}
!1377 = !{i64 1355}
!1378 = !{i64 1356}
!1379 = !{i64 1357}
!1380 = !{i64 1358}
!1381 = !{i64 1359}
!1382 = !{i64 1360}
!1383 = !{i64 1361}
!1384 = !{i64 1362}
!1385 = !{i64 1363}
!1386 = !{i64 1364}
!1387 = !{i64 1365}
!1388 = !{i64 1366}
!1389 = !{i64 1367}
!1390 = !{i64 1368}
!1391 = !{i64 1369}
!1392 = !{i64 1370}
!1393 = !{i64 1371}
!1394 = !{i64 1372}
!1395 = !{i64 1373}
!1396 = !{i64 1374}
!1397 = !{i64 1375}
!1398 = !{i64 1376}
!1399 = !{i64 1377}
!1400 = !{i64 1378}
!1401 = !{i64 1379}
!1402 = !{i64 1380}
!1403 = !{i64 1381}
!1404 = !{i64 1382}
!1405 = !{i64 1383}
!1406 = !{i64 1384}
!1407 = !{i64 1385}
!1408 = !{i64 1386}
!1409 = !{i64 1387}
!1410 = !{i64 1388}
!1411 = !{i64 1389}
!1412 = !{i64 1390}
!1413 = !{i64 1391}
!1414 = !{i64 1392}
!1415 = !{i64 1393}
!1416 = !{i64 1394}
!1417 = !{i64 1395}
!1418 = !{i64 1396}
!1419 = !{i64 1397}
!1420 = !{i64 1398}
!1421 = distinct !{!1421, !269}
!1422 = !{i64 1399}
!1423 = !{i64 1400}
!1424 = !{i64 1401}
!1425 = !{i64 1402}
!1426 = !{i64 1403}
!1427 = !{i64 1404}
!1428 = !{i64 1405}
!1429 = !{i64 1406}
!1430 = !{i64 1407}
!1431 = !{i64 1408}
!1432 = !{i64 1409}
!1433 = !{i64 1410}
!1434 = !{i64 1411}
!1435 = !{i64 1412}
!1436 = !{i64 1413}
!1437 = !{i64 1414}
!1438 = !{i64 1415}
!1439 = !{i64 1416}
!1440 = !{i64 1417}
!1441 = !{i64 1418}
!1442 = !{i64 1419}
!1443 = !{i64 1420}
!1444 = !{i64 1421}
!1445 = distinct !{!1445, !269}
!1446 = !{i64 1422}
!1447 = !{i64 1423}
!1448 = !{i64 1424}
!1449 = !{i64 1425}
!1450 = !{i64 1426}
!1451 = !{i64 1427}
!1452 = !{i64 1428}
!1453 = !{i64 1429}
!1454 = !{i64 1430}
!1455 = !{i64 1431}
!1456 = !{i64 1432}
!1457 = !{i64 1433}
