; ModuleID = '/home/hjiang/Computation-Kernel-Dataset/experiments/Fault_injection_0308_parall/O0/DivisorExploration3/DivisorExploration3.ll'
source_filename = "llvm-link"
target datalayout = "e-m:e-p270:32:32-p271:32:32-p272:64:64-i64:64-f80:128-n8:16:32:64-S128"
target triple = "x86_64-unknown-linux-gnu"

%"class.std::allocator" = type { i8 }
%"class.std::vector" = type { %"struct.std::_Vector_base" }
%"struct.std::_Vector_base" = type { %"struct.std::_Vector_base<int, std::allocator<int>>::_Vector_impl" }
%"struct.std::_Vector_base<int, std::allocator<int>>::_Vector_impl" = type { %"struct.std::_Vector_base<int, std::allocator<int>>::_Vector_impl_data" }
%"struct.std::_Vector_base<int, std::allocator<int>>::_Vector_impl_data" = type { i32*, i32*, i32* }
%struct._IO_FILE = type { i32, i8*, i8*, i8*, i8*, i8*, i8*, i8*, i8*, i8*, i8*, i8*, %struct._IO_marker*, %struct._IO_FILE*, i32, i32, i64, i16, i8, [1 x i8], i8*, i64, %struct._IO_codecvt*, %struct._IO_wide_data*, %struct._IO_FILE*, i8*, i64, i32, [20 x i8] }
%struct._IO_marker = type opaque
%struct._IO_codecvt = type opaque
%struct._IO_wide_data = type opaque
%"class.__gnu_cxx::__normal_iterator" = type { i32* }

$_ZNSt6vectorIiSaIiEEC2Ev = comdat any

$_ZNSt6vectorIiSaIiEED2Ev = comdat any

$_ZNSt12_Vector_baseIiSaIiEE19_M_get_Tp_allocatorEv = comdat any

$_ZSt8_DestroyIPiiEvT_S1_RSaIT0_E = comdat any

$_ZNSt12_Vector_baseIiSaIiEED2Ev = comdat any

$__clang_call_terminate = comdat any

$_ZNSt12_Vector_baseIiSaIiEE13_M_deallocateEPim = comdat any

$_ZNSt12_Vector_baseIiSaIiEE12_Vector_implD2Ev = comdat any

$_ZNSaIiED2Ev = comdat any

$_ZN9__gnu_cxx13new_allocatorIiED2Ev = comdat any

$_ZNSt16allocator_traitsISaIiEE10deallocateERS0_Pim = comdat any

$_ZN9__gnu_cxx13new_allocatorIiE10deallocateEPim = comdat any

$_ZSt8_DestroyIPiEvT_S1_ = comdat any

$_ZNSt12_Destroy_auxILb1EE9__destroyIPiEEvT_S3_ = comdat any

$_ZNSt12_Vector_baseIiSaIiEEC2Ev = comdat any

$_ZNSt12_Vector_baseIiSaIiEE12_Vector_implC2Ev = comdat any

$_ZNSaIiEC2Ev = comdat any

$_ZNSt12_Vector_baseIiSaIiEE17_Vector_impl_dataC2Ev = comdat any

$_ZN9__gnu_cxx13new_allocatorIiEC2Ev = comdat any

$_ZNSt6vectorIiSaIiEE9push_backERKi = comdat any

$_ZSt3minIiERKT_S2_S2_ = comdat any

$_ZNSt6vectorIiSaIiEEixEm = comdat any

$_ZNSt16allocator_traitsISaIiEE9constructIiJRKiEEEvRS0_PT_DpOT0_ = comdat any

$_ZNSt6vectorIiSaIiEE3endEv = comdat any

$_ZNSt6vectorIiSaIiEE17_M_realloc_insertIJRKiEEEvN9__gnu_cxx17__normal_iteratorIPiS1_EEDpOT_ = comdat any

$_ZNKSt6vectorIiSaIiEE12_M_check_lenEmPKc = comdat any

$_ZNSt6vectorIiSaIiEE5beginEv = comdat any

$_ZN9__gnu_cxxmiIPiSt6vectorIiSaIiEEEENS_17__normal_iteratorIT_T0_E15difference_typeERKS8_SB_ = comdat any

$_ZNSt12_Vector_baseIiSaIiEE11_M_allocateEm = comdat any

$_ZSt7forwardIRKiEOT_RNSt16remove_referenceIS2_E4typeE = comdat any

$_ZNK9__gnu_cxx17__normal_iteratorIPiSt6vectorIiSaIiEEE4baseEv = comdat any

$_ZNSt6vectorIiSaIiEE11_S_relocateEPiS2_S2_RS0_ = comdat any

$_ZNSt6vectorIiSaIiEE14_S_do_relocateEPiS2_S2_RS0_St17integral_constantIbLb1EE = comdat any

$_ZSt12__relocate_aIPiS0_SaIiEET0_T_S3_S2_RT1_ = comdat any

$_ZSt12__niter_baseIPiET_S1_ = comdat any

$_ZSt14__relocate_a_1IiiENSt9enable_ifIXsr3std24__is_bitwise_relocatableIT_EE5valueEPS1_E4typeES2_S2_S2_RSaIT0_E = comdat any

$_ZNSt16allocator_traitsISaIiEE8allocateERS0_m = comdat any

$_ZN9__gnu_cxx13new_allocatorIiE8allocateEmPKv = comdat any

$_ZNK9__gnu_cxx13new_allocatorIiE8max_sizeEv = comdat any

$_ZN9__gnu_cxx17__normal_iteratorIPiSt6vectorIiSaIiEEEC2ERKS1_ = comdat any

$_ZNKSt6vectorIiSaIiEE8max_sizeEv = comdat any

$_ZNKSt6vectorIiSaIiEE4sizeEv = comdat any

$_ZSt3maxImERKT_S2_S2_ = comdat any

$_ZNKSt12_Vector_baseIiSaIiEE19_M_get_Tp_allocatorEv = comdat any

$_ZNSt6vectorIiSaIiEE11_S_max_sizeERKS0_ = comdat any

$_ZNSt16allocator_traitsISaIiEE8max_sizeERKS0_ = comdat any

$_ZSt3minImERKT_S2_S2_ = comdat any

$_ZN9__gnu_cxx13new_allocatorIiE9constructIiJRKiEEEvPT_DpOT0_ = comdat any

@llvm.global_ctors = appending global [1 x { i32, void ()*, i8* }] [{ i32, void ()*, i8* } { i32 65535, void ()* @_GLOBAL__sub_I_DivisorExploration3.cpp, i8* null }]
@_ZStL8__ioinit = internal global %"class.std::allocator" zeroinitializer, align 1
@p = dso_local global %"class.std::vector" zeroinitializer, align 8
@isp = dso_local global [100005 x i8] zeroinitializer, align 16
@C = dso_local global [3015 x [1005 x i32]] zeroinitializer, align 16
@.str = private unnamed_addr constant [35 x i8] c"../input_files/DivisorExploration3\00", align 1
@.str.2 = private unnamed_addr constant [2 x i8] c"r\00", align 1
@stdin = external dso_local global %struct._IO_FILE*, align 8
@.str.3 = private unnamed_addr constant [3 x i8] c"%d\00", align 1
@.str.4 = private unnamed_addr constant [7 x i8] c"%d%d%d\00", align 1
@.str.5 = private unnamed_addr constant [4 x i8] c"%d\0A\00", align 1
@.str.6 = private unnamed_addr constant [26 x i8] c"vector::_M_realloc_insert\00", align 1

; Function Attrs: noinline uwtable
define internal void @_GLOBAL__sub_I_DivisorExploration3.cpp() #0 section ".text.startup" {
  call void @__cxx_global_var_init(), !llfi_index !4
  call void @__cxx_global_var_init.1(), !llfi_index !5
  ret void, !llfi_index !6
}

; Function Attrs: noinline uwtable
define internal void @__cxx_global_var_init() #0 section ".text.startup" {
  call void @_ZNSt8ios_base4InitC1Ev(%"class.std::allocator"* nonnull align 1 dereferenceable(1) @_ZStL8__ioinit), !llfi_index !7
  %1 = call i32 @atexit(void ()* @__dtor__ZStL8__ioinit) #2, !llfi_index !8
  ret void, !llfi_index !9
}

; Function Attrs: noinline uwtable
define internal void @__cxx_global_var_init.1() #0 section ".text.startup" {
  call void @_ZNSt6vectorIiSaIiEEC2Ev(%"class.std::vector"* nonnull align 8 dereferenceable(24) @p) #2, !llfi_index !10
  %1 = call i32 @atexit(void ()* @__dtor_p) #2, !llfi_index !11
  ret void, !llfi_index !12
}

; Function Attrs: noinline nounwind uwtable
define linkonce_odr dso_local void @_ZNSt6vectorIiSaIiEEC2Ev(%"class.std::vector"* nonnull align 8 dereferenceable(24) %0) unnamed_addr #1 comdat align 2 {
  %2 = alloca %"class.std::vector"*, align 8, !llfi_index !13
  store %"class.std::vector"* %0, %"class.std::vector"** %2, align 8, !llfi_index !14
  %3 = load %"class.std::vector"*, %"class.std::vector"** %2, align 8, !llfi_index !15
  %4 = bitcast %"class.std::vector"* %3 to %"struct.std::_Vector_base"*, !llfi_index !16
  call void @_ZNSt12_Vector_baseIiSaIiEEC2Ev(%"struct.std::_Vector_base"* nonnull align 8 dereferenceable(24) %4) #2, !llfi_index !17
  ret void, !llfi_index !18
}

; Function Attrs: noinline uwtable
define internal void @__dtor_p() #0 section ".text.startup" {
  call void @_ZNSt6vectorIiSaIiEED2Ev(%"class.std::vector"* @p), !llfi_index !19
  ret void, !llfi_index !20
}

; Function Attrs: nounwind
declare dso_local i32 @atexit(void ()*) #2

; Function Attrs: noinline nounwind uwtable
define linkonce_odr dso_local void @_ZNSt6vectorIiSaIiEED2Ev(%"class.std::vector"* nonnull align 8 dereferenceable(24) %0) unnamed_addr #1 comdat align 2 personality i8* bitcast (i32 (...)* @__gxx_personality_v0 to i8*) {
  %2 = alloca %"class.std::vector"*, align 8, !llfi_index !21
  %3 = alloca i8*, align 8, !llfi_index !22
  %4 = alloca i32, align 4, !llfi_index !23
  store %"class.std::vector"* %0, %"class.std::vector"** %2, align 8, !llfi_index !24
  %5 = load %"class.std::vector"*, %"class.std::vector"** %2, align 8, !llfi_index !25
  %6 = bitcast %"class.std::vector"* %5 to %"struct.std::_Vector_base"*, !llfi_index !26
  %7 = getelementptr inbounds %"struct.std::_Vector_base", %"struct.std::_Vector_base"* %6, i32 0, i32 0, !llfi_index !27
  %8 = bitcast %"struct.std::_Vector_base<int, std::allocator<int>>::_Vector_impl"* %7 to %"struct.std::_Vector_base<int, std::allocator<int>>::_Vector_impl_data"*, !llfi_index !28
  %9 = getelementptr inbounds %"struct.std::_Vector_base<int, std::allocator<int>>::_Vector_impl_data", %"struct.std::_Vector_base<int, std::allocator<int>>::_Vector_impl_data"* %8, i32 0, i32 0, !llfi_index !29
  %10 = load i32*, i32** %9, align 8, !llfi_index !30
  %11 = bitcast %"class.std::vector"* %5 to %"struct.std::_Vector_base"*, !llfi_index !31
  %12 = getelementptr inbounds %"struct.std::_Vector_base", %"struct.std::_Vector_base"* %11, i32 0, i32 0, !llfi_index !32
  %13 = bitcast %"struct.std::_Vector_base<int, std::allocator<int>>::_Vector_impl"* %12 to %"struct.std::_Vector_base<int, std::allocator<int>>::_Vector_impl_data"*, !llfi_index !33
  %14 = getelementptr inbounds %"struct.std::_Vector_base<int, std::allocator<int>>::_Vector_impl_data", %"struct.std::_Vector_base<int, std::allocator<int>>::_Vector_impl_data"* %13, i32 0, i32 1, !llfi_index !34
  %15 = load i32*, i32** %14, align 8, !llfi_index !35
  %16 = bitcast %"class.std::vector"* %5 to %"struct.std::_Vector_base"*, !llfi_index !36
  %17 = call nonnull align 1 dereferenceable(1) %"class.std::allocator"* @_ZNSt12_Vector_baseIiSaIiEE19_M_get_Tp_allocatorEv(%"struct.std::_Vector_base"* nonnull align 8 dereferenceable(24) %16) #2, !llfi_index !37
  invoke void @_ZSt8_DestroyIPiiEvT_S1_RSaIT0_E(i32* %10, i32* %15, %"class.std::allocator"* nonnull align 1 dereferenceable(1) %17)
          to label %18 unwind label %20, !llfi_index !38

18:                                               ; preds = %1
  %19 = bitcast %"class.std::vector"* %5 to %"struct.std::_Vector_base"*, !llfi_index !39
  call void @_ZNSt12_Vector_baseIiSaIiEED2Ev(%"struct.std::_Vector_base"* nonnull align 8 dereferenceable(24) %19) #2, !llfi_index !40
  ret void, !llfi_index !41

20:                                               ; preds = %1
  %21 = landingpad { i8*, i32 }
          catch i8* null, !llfi_index !42
  %22 = extractvalue { i8*, i32 } %21, 0, !llfi_index !43
  store i8* %22, i8** %3, align 8, !llfi_index !44
  %23 = extractvalue { i8*, i32 } %21, 1, !llfi_index !45
  store i32 %23, i32* %4, align 4, !llfi_index !46
  %24 = bitcast %"class.std::vector"* %5 to %"struct.std::_Vector_base"*, !llfi_index !47
  call void @_ZNSt12_Vector_baseIiSaIiEED2Ev(%"struct.std::_Vector_base"* nonnull align 8 dereferenceable(24) %24) #2, !llfi_index !48
  br label %25, !llfi_index !49

25:                                               ; preds = %20
  %26 = load i8*, i8** %3, align 8, !llfi_index !50
  call void @__clang_call_terminate(i8* %26) #13, !llfi_index !51
  unreachable, !llfi_index !52
}

declare dso_local i32 @__gxx_personality_v0(...)

; Function Attrs: mustprogress noinline nounwind uwtable
define linkonce_odr dso_local nonnull align 1 dereferenceable(1) %"class.std::allocator"* @_ZNSt12_Vector_baseIiSaIiEE19_M_get_Tp_allocatorEv(%"struct.std::_Vector_base"* nonnull align 8 dereferenceable(24) %0) #3 comdat align 2 {
  %2 = alloca %"struct.std::_Vector_base"*, align 8, !llfi_index !53
  store %"struct.std::_Vector_base"* %0, %"struct.std::_Vector_base"** %2, align 8, !llfi_index !54
  %3 = load %"struct.std::_Vector_base"*, %"struct.std::_Vector_base"** %2, align 8, !llfi_index !55
  %4 = getelementptr inbounds %"struct.std::_Vector_base", %"struct.std::_Vector_base"* %3, i32 0, i32 0, !llfi_index !56
  %5 = bitcast %"struct.std::_Vector_base<int, std::allocator<int>>::_Vector_impl"* %4 to %"class.std::allocator"*, !llfi_index !57
  ret %"class.std::allocator"* %5, !llfi_index !58
}

; Function Attrs: mustprogress noinline uwtable
define linkonce_odr dso_local void @_ZSt8_DestroyIPiiEvT_S1_RSaIT0_E(i32* %0, i32* %1, %"class.std::allocator"* nonnull align 1 dereferenceable(1) %2) #4 comdat {
  %4 = alloca i32*, align 8, !llfi_index !59
  %5 = alloca i32*, align 8, !llfi_index !60
  %6 = alloca %"class.std::allocator"*, align 8, !llfi_index !61
  store i32* %0, i32** %4, align 8, !llfi_index !62
  store i32* %1, i32** %5, align 8, !llfi_index !63
  store %"class.std::allocator"* %2, %"class.std::allocator"** %6, align 8, !llfi_index !64
  %7 = load i32*, i32** %4, align 8, !llfi_index !65
  %8 = load i32*, i32** %5, align 8, !llfi_index !66
  call void @_ZSt8_DestroyIPiEvT_S1_(i32* %7, i32* %8), !llfi_index !67
  ret void, !llfi_index !68
}

; Function Attrs: noinline nounwind uwtable
define linkonce_odr dso_local void @_ZNSt12_Vector_baseIiSaIiEED2Ev(%"struct.std::_Vector_base"* nonnull align 8 dereferenceable(24) %0) unnamed_addr #1 comdat align 2 personality i8* bitcast (i32 (...)* @__gxx_personality_v0 to i8*) {
  %2 = alloca %"struct.std::_Vector_base"*, align 8, !llfi_index !69
  %3 = alloca i8*, align 8, !llfi_index !70
  %4 = alloca i32, align 4, !llfi_index !71
  store %"struct.std::_Vector_base"* %0, %"struct.std::_Vector_base"** %2, align 8, !llfi_index !72
  %5 = load %"struct.std::_Vector_base"*, %"struct.std::_Vector_base"** %2, align 8, !llfi_index !73
  %6 = getelementptr inbounds %"struct.std::_Vector_base", %"struct.std::_Vector_base"* %5, i32 0, i32 0, !llfi_index !74
  %7 = bitcast %"struct.std::_Vector_base<int, std::allocator<int>>::_Vector_impl"* %6 to %"struct.std::_Vector_base<int, std::allocator<int>>::_Vector_impl_data"*, !llfi_index !75
  %8 = getelementptr inbounds %"struct.std::_Vector_base<int, std::allocator<int>>::_Vector_impl_data", %"struct.std::_Vector_base<int, std::allocator<int>>::_Vector_impl_data"* %7, i32 0, i32 0, !llfi_index !76
  %9 = load i32*, i32** %8, align 8, !llfi_index !77
  %10 = getelementptr inbounds %"struct.std::_Vector_base", %"struct.std::_Vector_base"* %5, i32 0, i32 0, !llfi_index !78
  %11 = bitcast %"struct.std::_Vector_base<int, std::allocator<int>>::_Vector_impl"* %10 to %"struct.std::_Vector_base<int, std::allocator<int>>::_Vector_impl_data"*, !llfi_index !79
  %12 = getelementptr inbounds %"struct.std::_Vector_base<int, std::allocator<int>>::_Vector_impl_data", %"struct.std::_Vector_base<int, std::allocator<int>>::_Vector_impl_data"* %11, i32 0, i32 2, !llfi_index !80
  %13 = load i32*, i32** %12, align 8, !llfi_index !81
  %14 = getelementptr inbounds %"struct.std::_Vector_base", %"struct.std::_Vector_base"* %5, i32 0, i32 0, !llfi_index !82
  %15 = bitcast %"struct.std::_Vector_base<int, std::allocator<int>>::_Vector_impl"* %14 to %"struct.std::_Vector_base<int, std::allocator<int>>::_Vector_impl_data"*, !llfi_index !83
  %16 = getelementptr inbounds %"struct.std::_Vector_base<int, std::allocator<int>>::_Vector_impl_data", %"struct.std::_Vector_base<int, std::allocator<int>>::_Vector_impl_data"* %15, i32 0, i32 0, !llfi_index !84
  %17 = load i32*, i32** %16, align 8, !llfi_index !85
  %18 = ptrtoint i32* %13 to i64, !llfi_index !86
  %19 = ptrtoint i32* %17 to i64, !llfi_index !87
  %20 = sub i64 %18, %19, !llfi_index !88
  %21 = sdiv exact i64 %20, 4, !llfi_index !89
  invoke void @_ZNSt12_Vector_baseIiSaIiEE13_M_deallocateEPim(%"struct.std::_Vector_base"* nonnull align 8 dereferenceable(24) %5, i32* %9, i64 %21)
          to label %22 unwind label %24, !llfi_index !90

22:                                               ; preds = %1
  %23 = getelementptr inbounds %"struct.std::_Vector_base", %"struct.std::_Vector_base"* %5, i32 0, i32 0, !llfi_index !91
  call void @_ZNSt12_Vector_baseIiSaIiEE12_Vector_implD2Ev(%"struct.std::_Vector_base<int, std::allocator<int>>::_Vector_impl"* nonnull align 8 dereferenceable(24) %23) #2, !llfi_index !92
  ret void, !llfi_index !93

24:                                               ; preds = %1
  %25 = landingpad { i8*, i32 }
          catch i8* null, !llfi_index !94
  %26 = extractvalue { i8*, i32 } %25, 0, !llfi_index !95
  store i8* %26, i8** %3, align 8, !llfi_index !96
  %27 = extractvalue { i8*, i32 } %25, 1, !llfi_index !97
  store i32 %27, i32* %4, align 4, !llfi_index !98
  %28 = getelementptr inbounds %"struct.std::_Vector_base", %"struct.std::_Vector_base"* %5, i32 0, i32 0, !llfi_index !99
  call void @_ZNSt12_Vector_baseIiSaIiEE12_Vector_implD2Ev(%"struct.std::_Vector_base<int, std::allocator<int>>::_Vector_impl"* nonnull align 8 dereferenceable(24) %28) #2, !llfi_index !100
  br label %29, !llfi_index !101

29:                                               ; preds = %24
  %30 = load i8*, i8** %3, align 8, !llfi_index !102
  call void @__clang_call_terminate(i8* %30) #13, !llfi_index !103
  unreachable, !llfi_index !104
}

; Function Attrs: noinline noreturn nounwind
define linkonce_odr hidden void @__clang_call_terminate(i8* %0) #5 comdat {
  %2 = call i8* @__cxa_begin_catch(i8* %0) #2, !llfi_index !105
  call void @_ZSt9terminatev() #13, !llfi_index !106
  unreachable, !llfi_index !107
}

declare dso_local i8* @__cxa_begin_catch(i8*)

declare dso_local void @_ZSt9terminatev()

; Function Attrs: mustprogress noinline uwtable
define linkonce_odr dso_local void @_ZNSt12_Vector_baseIiSaIiEE13_M_deallocateEPim(%"struct.std::_Vector_base"* nonnull align 8 dereferenceable(24) %0, i32* %1, i64 %2) #4 comdat align 2 {
  %4 = alloca %"struct.std::_Vector_base"*, align 8, !llfi_index !108
  %5 = alloca i32*, align 8, !llfi_index !109
  %6 = alloca i64, align 8, !llfi_index !110
  store %"struct.std::_Vector_base"* %0, %"struct.std::_Vector_base"** %4, align 8, !llfi_index !111
  store i32* %1, i32** %5, align 8, !llfi_index !112
  store i64 %2, i64* %6, align 8, !llfi_index !113
  %7 = load %"struct.std::_Vector_base"*, %"struct.std::_Vector_base"** %4, align 8, !llfi_index !114
  %8 = load i32*, i32** %5, align 8, !llfi_index !115
  %9 = icmp ne i32* %8, null, !llfi_index !116
  br i1 %9, label %10, label %15, !llfi_index !117

10:                                               ; preds = %3
  %11 = getelementptr inbounds %"struct.std::_Vector_base", %"struct.std::_Vector_base"* %7, i32 0, i32 0, !llfi_index !118
  %12 = bitcast %"struct.std::_Vector_base<int, std::allocator<int>>::_Vector_impl"* %11 to %"class.std::allocator"*, !llfi_index !119
  %13 = load i32*, i32** %5, align 8, !llfi_index !120
  %14 = load i64, i64* %6, align 8, !llfi_index !121
  call void @_ZNSt16allocator_traitsISaIiEE10deallocateERS0_Pim(%"class.std::allocator"* nonnull align 1 dereferenceable(1) %12, i32* %13, i64 %14), !llfi_index !122
  br label %15, !llfi_index !123

15:                                               ; preds = %10, %3
  ret void, !llfi_index !124
}

; Function Attrs: noinline nounwind uwtable
define linkonce_odr dso_local void @_ZNSt12_Vector_baseIiSaIiEE12_Vector_implD2Ev(%"struct.std::_Vector_base<int, std::allocator<int>>::_Vector_impl"* nonnull align 8 dereferenceable(24) %0) unnamed_addr #1 comdat align 2 {
  %2 = alloca %"struct.std::_Vector_base<int, std::allocator<int>>::_Vector_impl"*, align 8, !llfi_index !125
  store %"struct.std::_Vector_base<int, std::allocator<int>>::_Vector_impl"* %0, %"struct.std::_Vector_base<int, std::allocator<int>>::_Vector_impl"** %2, align 8, !llfi_index !126
  %3 = load %"struct.std::_Vector_base<int, std::allocator<int>>::_Vector_impl"*, %"struct.std::_Vector_base<int, std::allocator<int>>::_Vector_impl"** %2, align 8, !llfi_index !127
  %4 = bitcast %"struct.std::_Vector_base<int, std::allocator<int>>::_Vector_impl"* %3 to %"class.std::allocator"*, !llfi_index !128
  call void @_ZNSaIiED2Ev(%"class.std::allocator"* nonnull align 1 dereferenceable(1) %4) #2, !llfi_index !129
  ret void, !llfi_index !130
}

; Function Attrs: noinline nounwind uwtable
define linkonce_odr dso_local void @_ZNSaIiED2Ev(%"class.std::allocator"* nonnull align 1 dereferenceable(1) %0) unnamed_addr #1 comdat align 2 {
  %2 = alloca %"class.std::allocator"*, align 8, !llfi_index !131
  store %"class.std::allocator"* %0, %"class.std::allocator"** %2, align 8, !llfi_index !132
  %3 = load %"class.std::allocator"*, %"class.std::allocator"** %2, align 8, !llfi_index !133
  %4 = bitcast %"class.std::allocator"* %3 to %"class.std::allocator"*, !llfi_index !134
  call void @_ZN9__gnu_cxx13new_allocatorIiED2Ev(%"class.std::allocator"* nonnull align 1 dereferenceable(1) %4) #2, !llfi_index !135
  ret void, !llfi_index !136
}

; Function Attrs: noinline nounwind uwtable
define linkonce_odr dso_local void @_ZN9__gnu_cxx13new_allocatorIiED2Ev(%"class.std::allocator"* nonnull align 1 dereferenceable(1) %0) unnamed_addr #1 comdat align 2 {
  %2 = alloca %"class.std::allocator"*, align 8, !llfi_index !137
  store %"class.std::allocator"* %0, %"class.std::allocator"** %2, align 8, !llfi_index !138
  %3 = load %"class.std::allocator"*, %"class.std::allocator"** %2, align 8, !llfi_index !139
  ret void, !llfi_index !140
}

; Function Attrs: mustprogress noinline uwtable
define linkonce_odr dso_local void @_ZNSt16allocator_traitsISaIiEE10deallocateERS0_Pim(%"class.std::allocator"* nonnull align 1 dereferenceable(1) %0, i32* %1, i64 %2) #4 comdat align 2 {
  %4 = alloca %"class.std::allocator"*, align 8, !llfi_index !141
  %5 = alloca i32*, align 8, !llfi_index !142
  %6 = alloca i64, align 8, !llfi_index !143
  store %"class.std::allocator"* %0, %"class.std::allocator"** %4, align 8, !llfi_index !144
  store i32* %1, i32** %5, align 8, !llfi_index !145
  store i64 %2, i64* %6, align 8, !llfi_index !146
  %7 = load %"class.std::allocator"*, %"class.std::allocator"** %4, align 8, !llfi_index !147
  %8 = bitcast %"class.std::allocator"* %7 to %"class.std::allocator"*, !llfi_index !148
  %9 = load i32*, i32** %5, align 8, !llfi_index !149
  %10 = load i64, i64* %6, align 8, !llfi_index !150
  call void @_ZN9__gnu_cxx13new_allocatorIiE10deallocateEPim(%"class.std::allocator"* nonnull align 1 dereferenceable(1) %8, i32* %9, i64 %10), !llfi_index !151
  ret void, !llfi_index !152
}

; Function Attrs: mustprogress noinline nounwind uwtable
define linkonce_odr dso_local void @_ZN9__gnu_cxx13new_allocatorIiE10deallocateEPim(%"class.std::allocator"* nonnull align 1 dereferenceable(1) %0, i32* %1, i64 %2) #3 comdat align 2 {
  %4 = alloca %"class.std::allocator"*, align 8, !llfi_index !153
  %5 = alloca i32*, align 8, !llfi_index !154
  %6 = alloca i64, align 8, !llfi_index !155
  store %"class.std::allocator"* %0, %"class.std::allocator"** %4, align 8, !llfi_index !156
  store i32* %1, i32** %5, align 8, !llfi_index !157
  store i64 %2, i64* %6, align 8, !llfi_index !158
  %7 = load %"class.std::allocator"*, %"class.std::allocator"** %4, align 8, !llfi_index !159
  %8 = load i32*, i32** %5, align 8, !llfi_index !160
  %9 = bitcast i32* %8 to i8*, !llfi_index !161
  call void @_ZdlPv(i8* %9) #2, !llfi_index !162
  ret void, !llfi_index !163
}

; Function Attrs: nobuiltin nounwind
declare dso_local void @_ZdlPv(i8*) #6

; Function Attrs: mustprogress noinline uwtable
define linkonce_odr dso_local void @_ZSt8_DestroyIPiEvT_S1_(i32* %0, i32* %1) #4 comdat {
  %3 = alloca i32*, align 8, !llfi_index !164
  %4 = alloca i32*, align 8, !llfi_index !165
  store i32* %0, i32** %3, align 8, !llfi_index !166
  store i32* %1, i32** %4, align 8, !llfi_index !167
  %5 = load i32*, i32** %3, align 8, !llfi_index !168
  %6 = load i32*, i32** %4, align 8, !llfi_index !169
  call void @_ZNSt12_Destroy_auxILb1EE9__destroyIPiEEvT_S3_(i32* %5, i32* %6), !llfi_index !170
  ret void, !llfi_index !171
}

; Function Attrs: mustprogress noinline nounwind uwtable
define linkonce_odr dso_local void @_ZNSt12_Destroy_auxILb1EE9__destroyIPiEEvT_S3_(i32* %0, i32* %1) #3 comdat align 2 {
  %3 = alloca i32*, align 8, !llfi_index !172
  %4 = alloca i32*, align 8, !llfi_index !173
  store i32* %0, i32** %3, align 8, !llfi_index !174
  store i32* %1, i32** %4, align 8, !llfi_index !175
  ret void, !llfi_index !176
}

; Function Attrs: noinline nounwind uwtable
define linkonce_odr dso_local void @_ZNSt12_Vector_baseIiSaIiEEC2Ev(%"struct.std::_Vector_base"* nonnull align 8 dereferenceable(24) %0) unnamed_addr #1 comdat align 2 {
  %2 = alloca %"struct.std::_Vector_base"*, align 8, !llfi_index !177
  store %"struct.std::_Vector_base"* %0, %"struct.std::_Vector_base"** %2, align 8, !llfi_index !178
  %3 = load %"struct.std::_Vector_base"*, %"struct.std::_Vector_base"** %2, align 8, !llfi_index !179
  %4 = getelementptr inbounds %"struct.std::_Vector_base", %"struct.std::_Vector_base"* %3, i32 0, i32 0, !llfi_index !180
  call void @_ZNSt12_Vector_baseIiSaIiEE12_Vector_implC2Ev(%"struct.std::_Vector_base<int, std::allocator<int>>::_Vector_impl"* nonnull align 8 dereferenceable(24) %4) #2, !llfi_index !181
  ret void, !llfi_index !182
}

; Function Attrs: noinline nounwind uwtable
define linkonce_odr dso_local void @_ZNSt12_Vector_baseIiSaIiEE12_Vector_implC2Ev(%"struct.std::_Vector_base<int, std::allocator<int>>::_Vector_impl"* nonnull align 8 dereferenceable(24) %0) unnamed_addr #1 comdat align 2 {
  %2 = alloca %"struct.std::_Vector_base<int, std::allocator<int>>::_Vector_impl"*, align 8, !llfi_index !183
  store %"struct.std::_Vector_base<int, std::allocator<int>>::_Vector_impl"* %0, %"struct.std::_Vector_base<int, std::allocator<int>>::_Vector_impl"** %2, align 8, !llfi_index !184
  %3 = load %"struct.std::_Vector_base<int, std::allocator<int>>::_Vector_impl"*, %"struct.std::_Vector_base<int, std::allocator<int>>::_Vector_impl"** %2, align 8, !llfi_index !185
  %4 = bitcast %"struct.std::_Vector_base<int, std::allocator<int>>::_Vector_impl"* %3 to %"class.std::allocator"*, !llfi_index !186
  call void @_ZNSaIiEC2Ev(%"class.std::allocator"* nonnull align 1 dereferenceable(1) %4) #2, !llfi_index !187
  %5 = bitcast %"struct.std::_Vector_base<int, std::allocator<int>>::_Vector_impl"* %3 to %"struct.std::_Vector_base<int, std::allocator<int>>::_Vector_impl_data"*, !llfi_index !188
  call void @_ZNSt12_Vector_baseIiSaIiEE17_Vector_impl_dataC2Ev(%"struct.std::_Vector_base<int, std::allocator<int>>::_Vector_impl_data"* nonnull align 8 dereferenceable(24) %5) #2, !llfi_index !189
  ret void, !llfi_index !190
}

; Function Attrs: noinline nounwind uwtable
define linkonce_odr dso_local void @_ZNSaIiEC2Ev(%"class.std::allocator"* nonnull align 1 dereferenceable(1) %0) unnamed_addr #1 comdat align 2 {
  %2 = alloca %"class.std::allocator"*, align 8, !llfi_index !191
  store %"class.std::allocator"* %0, %"class.std::allocator"** %2, align 8, !llfi_index !192
  %3 = load %"class.std::allocator"*, %"class.std::allocator"** %2, align 8, !llfi_index !193
  %4 = bitcast %"class.std::allocator"* %3 to %"class.std::allocator"*, !llfi_index !194
  call void @_ZN9__gnu_cxx13new_allocatorIiEC2Ev(%"class.std::allocator"* nonnull align 1 dereferenceable(1) %4) #2, !llfi_index !195
  ret void, !llfi_index !196
}

; Function Attrs: noinline nounwind uwtable
define linkonce_odr dso_local void @_ZNSt12_Vector_baseIiSaIiEE17_Vector_impl_dataC2Ev(%"struct.std::_Vector_base<int, std::allocator<int>>::_Vector_impl_data"* nonnull align 8 dereferenceable(24) %0) unnamed_addr #1 comdat align 2 {
  %2 = alloca %"struct.std::_Vector_base<int, std::allocator<int>>::_Vector_impl_data"*, align 8, !llfi_index !197
  store %"struct.std::_Vector_base<int, std::allocator<int>>::_Vector_impl_data"* %0, %"struct.std::_Vector_base<int, std::allocator<int>>::_Vector_impl_data"** %2, align 8, !llfi_index !198
  %3 = load %"struct.std::_Vector_base<int, std::allocator<int>>::_Vector_impl_data"*, %"struct.std::_Vector_base<int, std::allocator<int>>::_Vector_impl_data"** %2, align 8, !llfi_index !199
  %4 = getelementptr inbounds %"struct.std::_Vector_base<int, std::allocator<int>>::_Vector_impl_data", %"struct.std::_Vector_base<int, std::allocator<int>>::_Vector_impl_data"* %3, i32 0, i32 0, !llfi_index !200
  store i32* null, i32** %4, align 8, !llfi_index !201
  %5 = getelementptr inbounds %"struct.std::_Vector_base<int, std::allocator<int>>::_Vector_impl_data", %"struct.std::_Vector_base<int, std::allocator<int>>::_Vector_impl_data"* %3, i32 0, i32 1, !llfi_index !202
  store i32* null, i32** %5, align 8, !llfi_index !203
  %6 = getelementptr inbounds %"struct.std::_Vector_base<int, std::allocator<int>>::_Vector_impl_data", %"struct.std::_Vector_base<int, std::allocator<int>>::_Vector_impl_data"* %3, i32 0, i32 2, !llfi_index !204
  store i32* null, i32** %6, align 8, !llfi_index !205
  ret void, !llfi_index !206
}

; Function Attrs: noinline nounwind uwtable
define linkonce_odr dso_local void @_ZN9__gnu_cxx13new_allocatorIiEC2Ev(%"class.std::allocator"* nonnull align 1 dereferenceable(1) %0) unnamed_addr #1 comdat align 2 {
  %2 = alloca %"class.std::allocator"*, align 8, !llfi_index !207
  store %"class.std::allocator"* %0, %"class.std::allocator"** %2, align 8, !llfi_index !208
  %3 = load %"class.std::allocator"*, %"class.std::allocator"** %2, align 8, !llfi_index !209
  ret void, !llfi_index !210
}

declare dso_local void @_ZNSt8ios_base4InitC1Ev(%"class.std::allocator"* nonnull align 1 dereferenceable(1)) unnamed_addr #7

; Function Attrs: noinline uwtable
define internal void @__dtor__ZStL8__ioinit() #0 section ".text.startup" {
  call void @_ZNSt8ios_base4InitD1Ev(%"class.std::allocator"* @_ZStL8__ioinit), !llfi_index !211
  ret void, !llfi_index !212
}

; Function Attrs: nounwind
declare dso_local void @_ZNSt8ios_base4InitD1Ev(%"class.std::allocator"* nonnull align 1 dereferenceable(1)) unnamed_addr #8

; Function Attrs: mustprogress noinline norecurse uwtable
define dso_local i32 @main() #9 {
  %1 = alloca i32, align 4, !llfi_index !213
  %2 = alloca i32, align 4, !llfi_index !214
  %3 = alloca i32, align 4, !llfi_index !215
  %4 = alloca i32, align 4, !llfi_index !216
  %5 = alloca i32, align 4, !llfi_index !217
  %6 = alloca i32, align 4, !llfi_index !218
  %7 = alloca i32, align 4, !llfi_index !219
  %8 = alloca i32, align 4, !llfi_index !220
  %9 = alloca i32, align 4, !llfi_index !221
  %10 = alloca i32, align 4, !llfi_index !222
  %11 = alloca i32, align 4, !llfi_index !223
  %12 = alloca i32, align 4, !llfi_index !224
  %13 = alloca i32, align 4, !llfi_index !225
  %14 = alloca i32, align 4, !llfi_index !226
  %15 = alloca i32, align 4, !llfi_index !227
  %16 = alloca i32, align 4, !llfi_index !228
  %17 = alloca i32, align 4, !llfi_index !229
  store i32 0, i32* %1, align 4, !llfi_index !230
  %18 = load %struct._IO_FILE*, %struct._IO_FILE** @stdin, align 8, !llfi_index !231
  %19 = call %struct._IO_FILE* @freopen(i8* getelementptr inbounds ([35 x i8], [35 x i8]* @.str, i64 0, i64 0), i8* getelementptr inbounds ([2 x i8], [2 x i8]* @.str.2, i64 0, i64 0), %struct._IO_FILE* %18), !llfi_index !232
  store i32 89, i32* %2, align 4, !llfi_index !233
  store i32 2, i32* %3, align 4, !llfi_index !234
  br label %20, !llfi_index !235

20:                                               ; preds = %45, %0
  %21 = load i32, i32* %3, align 4, !llfi_index !236
  %22 = icmp slt i32 %21, 100005, !llfi_index !237
  br i1 %22, label %23, label %48, !llfi_index !238

23:                                               ; preds = %20
  %24 = load i32, i32* %3, align 4, !llfi_index !239
  %25 = sext i32 %24 to i64, !llfi_index !240
  %26 = getelementptr inbounds [100005 x i8], [100005 x i8]* @isp, i64 0, i64 %25, !llfi_index !241
  %27 = load i8, i8* %26, align 1, !llfi_index !242
  %28 = trunc i8 %27 to i1, !llfi_index !243
  br i1 %28, label %44, label %29, !llfi_index !244

29:                                               ; preds = %23
  call void @_ZNSt6vectorIiSaIiEE9push_backERKi(%"class.std::vector"* nonnull align 8 dereferenceable(24) @p, i32* nonnull align 4 dereferenceable(4) %3), !llfi_index !245
  store i32 89, i32* %2, align 4, !llfi_index !246
  %30 = load i32, i32* %3, align 4, !llfi_index !247
  %31 = mul nsw i32 2, %30, !llfi_index !248
  store i32 %31, i32* %4, align 4, !llfi_index !249
  br label %32, !llfi_index !250

32:                                               ; preds = %39, %29
  %33 = load i32, i32* %4, align 4, !llfi_index !251
  %34 = icmp slt i32 %33, 100005, !llfi_index !252
  br i1 %34, label %35, label %43, !llfi_index !253

35:                                               ; preds = %32
  %36 = load i32, i32* %4, align 4, !llfi_index !254
  %37 = sext i32 %36 to i64, !llfi_index !255
  %38 = getelementptr inbounds [100005 x i8], [100005 x i8]* @isp, i64 0, i64 %37, !llfi_index !256
  store i8 1, i8* %38, align 1, !llfi_index !257
  br label %39, !llfi_index !258

39:                                               ; preds = %35
  %40 = load i32, i32* %3, align 4, !llfi_index !259
  %41 = load i32, i32* %4, align 4, !llfi_index !260
  %42 = add nsw i32 %41, %40, !llfi_index !261
  store i32 %42, i32* %4, align 4, !llfi_index !262
  br label %32, !llvm.loop !263, !llfi_index !265

43:                                               ; preds = %32
  br label %44, !llfi_index !266

44:                                               ; preds = %43, %23
  br label %45, !llfi_index !267

45:                                               ; preds = %44
  %46 = load i32, i32* %3, align 4, !llfi_index !268
  %47 = add nsw i32 %46, 1, !llfi_index !269
  store i32 %47, i32* %3, align 4, !llfi_index !270
  br label %20, !llvm.loop !271, !llfi_index !272

48:                                               ; preds = %20
  store i32 89, i32* %2, align 4, !llfi_index !273
  store i32 0, i32* %5, align 4, !llfi_index !274
  br label %49, !llfi_index !275

49:                                               ; preds = %92, %48
  %50 = load i32, i32* %5, align 4, !llfi_index !276
  %51 = icmp slt i32 %50, 3015, !llfi_index !277
  br i1 %51, label %52, label %95, !llfi_index !278

52:                                               ; preds = %49
  %53 = load i32, i32* %5, align 4, !llfi_index !279
  %54 = sext i32 %53 to i64, !llfi_index !280
  %55 = getelementptr inbounds [3015 x [1005 x i32]], [3015 x [1005 x i32]]* @C, i64 0, i64 %54, !llfi_index !281
  %56 = getelementptr inbounds [1005 x i32], [1005 x i32]* %55, i64 0, i64 0, !llfi_index !282
  store i32 1, i32* %56, align 4, !llfi_index !283
  store i32 89, i32* %2, align 4, !llfi_index !284
  store i32 1, i32* %6, align 4, !llfi_index !285
  br label %57, !llfi_index !286

57:                                               ; preds = %88, %52
  %58 = load i32, i32* %6, align 4, !llfi_index !287
  store i32 1004, i32* %7, align 4, !llfi_index !288
  %59 = call nonnull align 4 dereferenceable(4) i32* @_ZSt3minIiERKT_S2_S2_(i32* nonnull align 4 dereferenceable(4) %5, i32* nonnull align 4 dereferenceable(4) %7), !llfi_index !289
  %60 = load i32, i32* %59, align 4, !llfi_index !290
  %61 = icmp sle i32 %58, %60, !llfi_index !291
  br i1 %61, label %62, label %91, !llfi_index !292

62:                                               ; preds = %57
  %63 = load i32, i32* %5, align 4, !llfi_index !293
  %64 = sub nsw i32 %63, 1, !llfi_index !294
  %65 = sext i32 %64 to i64, !llfi_index !295
  %66 = getelementptr inbounds [3015 x [1005 x i32]], [3015 x [1005 x i32]]* @C, i64 0, i64 %65, !llfi_index !296
  %67 = load i32, i32* %6, align 4, !llfi_index !297
  %68 = sub nsw i32 %67, 1, !llfi_index !298
  %69 = sext i32 %68 to i64, !llfi_index !299
  %70 = getelementptr inbounds [1005 x i32], [1005 x i32]* %66, i64 0, i64 %69, !llfi_index !300
  %71 = load i32, i32* %70, align 4, !llfi_index !301
  %72 = load i32, i32* %5, align 4, !llfi_index !302
  %73 = sub nsw i32 %72, 1, !llfi_index !303
  %74 = sext i32 %73 to i64, !llfi_index !304
  %75 = getelementptr inbounds [3015 x [1005 x i32]], [3015 x [1005 x i32]]* @C, i64 0, i64 %74, !llfi_index !305
  %76 = load i32, i32* %6, align 4, !llfi_index !306
  %77 = sext i32 %76 to i64, !llfi_index !307
  %78 = getelementptr inbounds [1005 x i32], [1005 x i32]* %75, i64 0, i64 %77, !llfi_index !308
  %79 = load i32, i32* %78, align 4, !llfi_index !309
  %80 = add nsw i32 %71, %79, !llfi_index !310
  %81 = srem i32 %80, 1000000007, !llfi_index !311
  %82 = load i32, i32* %5, align 4, !llfi_index !312
  %83 = sext i32 %82 to i64, !llfi_index !313
  %84 = getelementptr inbounds [3015 x [1005 x i32]], [3015 x [1005 x i32]]* @C, i64 0, i64 %83, !llfi_index !314
  %85 = load i32, i32* %6, align 4, !llfi_index !315
  %86 = sext i32 %85 to i64, !llfi_index !316
  %87 = getelementptr inbounds [1005 x i32], [1005 x i32]* %84, i64 0, i64 %86, !llfi_index !317
  store i32 %81, i32* %87, align 4, !llfi_index !318
  br label %88, !llfi_index !319

88:                                               ; preds = %62
  %89 = load i32, i32* %6, align 4, !llfi_index !320
  %90 = add nsw i32 %89, 1, !llfi_index !321
  store i32 %90, i32* %6, align 4, !llfi_index !322
  br label %57, !llvm.loop !323, !llfi_index !324

91:                                               ; preds = %57
  br label %92, !llfi_index !325

92:                                               ; preds = %91
  %93 = load i32, i32* %5, align 4, !llfi_index !326
  %94 = add nsw i32 %93, 1, !llfi_index !327
  store i32 %94, i32* %5, align 4, !llfi_index !328
  br label %49, !llvm.loop !329, !llfi_index !330

95:                                               ; preds = %49
  %96 = call i32 (i8*, ...) @__isoc99_scanf(i8* getelementptr inbounds ([3 x i8], [3 x i8]* @.str.3, i64 0, i64 0), i32* %8), !llfi_index !331
  store i32 89, i32* %2, align 4, !llfi_index !332
  br label %97, !llfi_index !333

97:                                               ; preds = %179, %95
  %98 = load i32, i32* %8, align 4, !llfi_index !334
  %99 = add nsw i32 %98, -1, !llfi_index !335
  store i32 %99, i32* %8, align 4, !llfi_index !336
  %100 = icmp ne i32 %98, 0, !llfi_index !337
  br i1 %100, label %101, label %182, !llfi_index !338

101:                                              ; preds = %97
  %102 = call i32 (i8*, ...) @__isoc99_scanf(i8* getelementptr inbounds ([7 x i8], [7 x i8]* @.str.4, i64 0, i64 0), i32* %9, i32* %10, i32* %11), !llfi_index !339
  store i32 1, i32* %12, align 4, !llfi_index !340
  store i32 89, i32* %2, align 4, !llfi_index !341
  store i32 0, i32* %13, align 4, !llfi_index !342
  br label %103, !llfi_index !343

103:                                              ; preds = %176, %101
  %104 = load i32, i32* %13, align 4, !llfi_index !344
  %105 = load i32, i32* %9, align 4, !llfi_index !345
  %106 = icmp slt i32 %104, %105, !llfi_index !346
  br i1 %106, label %107, label %179, !llfi_index !347

107:                                              ; preds = %103
  %108 = load i32, i32* %13, align 4, !llfi_index !348
  %109 = sext i32 %108 to i64, !llfi_index !349
  %110 = call nonnull align 4 dereferenceable(4) i32* @_ZNSt6vectorIiSaIiEEixEm(%"class.std::vector"* nonnull align 8 dereferenceable(24) @p, i64 %109) #2, !llfi_index !350
  %111 = load i32, i32* %110, align 4, !llfi_index !351
  store i32 %111, i32* %14, align 4, !llfi_index !352
  store i32 1, i32* %15, align 4, !llfi_index !353
  store i32 0, i32* %16, align 4, !llfi_index !354
  store i32 0, i32* %17, align 4, !llfi_index !355
  br label %112, !llfi_index !356

112:                                              ; preds = %164, %107
  %113 = load i32, i32* %17, align 4, !llfi_index !357
  %114 = load i32, i32* %13, align 4, !llfi_index !358
  %115 = load i32, i32* %10, align 4, !llfi_index !359
  %116 = add nsw i32 %114, %115, !llfi_index !360
  %117 = add nsw i32 %116, 1, !llfi_index !361
  %118 = icmp sle i32 %113, %117, !llfi_index !362
  br i1 %118, label %119, label %167, !llfi_index !363

119:                                              ; preds = %112
  %120 = load i32, i32* %15, align 4, !llfi_index !364
  %121 = sext i32 %120 to i64, !llfi_index !365
  %122 = mul nsw i64 1, %121, !llfi_index !366
  %123 = load i32, i32* %13, align 4, !llfi_index !367
  %124 = load i32, i32* %10, align 4, !llfi_index !368
  %125 = add nsw i32 %123, %124, !llfi_index !369
  %126 = add nsw i32 %125, 1, !llfi_index !370
  %127 = load i32, i32* %17, align 4, !llfi_index !371
  %128 = sub nsw i32 %126, %127, !llfi_index !372
  %129 = load i32, i32* %11, align 4, !llfi_index !373
  %130 = add nsw i32 %128, %129, !llfi_index !374
  %131 = sub nsw i32 %130, 1, !llfi_index !375
  %132 = sext i32 %131 to i64, !llfi_index !376
  %133 = getelementptr inbounds [3015 x [1005 x i32]], [3015 x [1005 x i32]]* @C, i64 0, i64 %132, !llfi_index !377
  %134 = load i32, i32* %11, align 4, !llfi_index !378
  %135 = sub nsw i32 %134, 1, !llfi_index !379
  %136 = sext i32 %135 to i64, !llfi_index !380
  %137 = getelementptr inbounds [1005 x i32], [1005 x i32]* %133, i64 0, i64 %136, !llfi_index !381
  %138 = load i32, i32* %137, align 4, !llfi_index !382
  %139 = sext i32 %138 to i64, !llfi_index !383
  %140 = mul nsw i64 %122, %139, !llfi_index !384
  %141 = srem i64 %140, 1000000007, !llfi_index !385
  %142 = load i32, i32* %16, align 4, !llfi_index !386
  %143 = sext i32 %142 to i64, !llfi_index !387
  %144 = add nsw i64 %143, %141, !llfi_index !388
  %145 = trunc i64 %144 to i32, !llfi_index !389
  store i32 %145, i32* %16, align 4, !llfi_index !390
  %146 = load i32, i32* %16, align 4, !llfi_index !391
  %147 = srem i32 %146, 1000000007, !llfi_index !392
  store i32 %147, i32* %16, align 4, !llfi_index !393
  %148 = load i32, i32* %15, align 4, !llfi_index !394
  %149 = sext i32 %148 to i64, !llfi_index !395
  %150 = mul nsw i64 1, %149, !llfi_index !396
  %151 = load i32, i32* %17, align 4, !llfi_index !397
  %152 = icmp ne i32 %151, 0, !llfi_index !398
  br i1 %152, label %153, label %155, !llfi_index !399

153:                                              ; preds = %119
  %154 = load i32, i32* %14, align 4, !llfi_index !400
  br label %158, !llfi_index !401

155:                                              ; preds = %119
  %156 = load i32, i32* %14, align 4, !llfi_index !402
  %157 = sub nsw i32 %156, 1, !llfi_index !403
  br label %158, !llfi_index !404

158:                                              ; preds = %155, %153
  %159 = phi i32 [ %154, %153 ], [ %157, %155 ], !llfi_index !405
  %160 = sext i32 %159 to i64, !llfi_index !406
  %161 = mul nsw i64 %150, %160, !llfi_index !407
  %162 = srem i64 %161, 1000000007, !llfi_index !408
  %163 = trunc i64 %162 to i32, !llfi_index !409
  store i32 %163, i32* %15, align 4, !llfi_index !410
  br label %164, !llfi_index !411

164:                                              ; preds = %158
  %165 = load i32, i32* %17, align 4, !llfi_index !412
  %166 = add nsw i32 %165, 1, !llfi_index !413
  store i32 %166, i32* %17, align 4, !llfi_index !414
  br label %112, !llvm.loop !415, !llfi_index !416

167:                                              ; preds = %112
  %168 = load i32, i32* %12, align 4, !llfi_index !417
  %169 = sext i32 %168 to i64, !llfi_index !418
  %170 = mul nsw i64 1, %169, !llfi_index !419
  %171 = load i32, i32* %16, align 4, !llfi_index !420
  %172 = sext i32 %171 to i64, !llfi_index !421
  %173 = mul nsw i64 %170, %172, !llfi_index !422
  %174 = srem i64 %173, 1000000007, !llfi_index !423
  %175 = trunc i64 %174 to i32, !llfi_index !424
  store i32 %175, i32* %12, align 4, !llfi_index !425
  br label %176, !llfi_index !426

176:                                              ; preds = %167
  %177 = load i32, i32* %13, align 4, !llfi_index !427
  %178 = add nsw i32 %177, 1, !llfi_index !428
  store i32 %178, i32* %13, align 4, !llfi_index !429
  br label %103, !llvm.loop !430, !llfi_index !431

179:                                              ; preds = %103
  %180 = load i32, i32* %12, align 4, !llfi_index !432
  %181 = call i32 (i8*, ...) @printf(i8* getelementptr inbounds ([4 x i8], [4 x i8]* @.str.5, i64 0, i64 0), i32 %180), !llfi_index !433
  br label %97, !llvm.loop !434, !llfi_index !435

182:                                              ; preds = %97
  %183 = load i32, i32* %1, align 4, !llfi_index !436
  ret i32 %183, !llfi_index !437
}

declare dso_local %struct._IO_FILE* @freopen(i8*, i8*, %struct._IO_FILE*) #7

; Function Attrs: mustprogress noinline uwtable
define linkonce_odr dso_local void @_ZNSt6vectorIiSaIiEE9push_backERKi(%"class.std::vector"* nonnull align 8 dereferenceable(24) %0, i32* nonnull align 4 dereferenceable(4) %1) #4 comdat align 2 {
  %3 = alloca %"class.std::vector"*, align 8, !llfi_index !438
  %4 = alloca i32*, align 8, !llfi_index !439
  %5 = alloca %"class.__gnu_cxx::__normal_iterator", align 8, !llfi_index !440
  store %"class.std::vector"* %0, %"class.std::vector"** %3, align 8, !llfi_index !441
  store i32* %1, i32** %4, align 8, !llfi_index !442
  %6 = load %"class.std::vector"*, %"class.std::vector"** %3, align 8, !llfi_index !443
  %7 = bitcast %"class.std::vector"* %6 to %"struct.std::_Vector_base"*, !llfi_index !444
  %8 = getelementptr inbounds %"struct.std::_Vector_base", %"struct.std::_Vector_base"* %7, i32 0, i32 0, !llfi_index !445
  %9 = bitcast %"struct.std::_Vector_base<int, std::allocator<int>>::_Vector_impl"* %8 to %"struct.std::_Vector_base<int, std::allocator<int>>::_Vector_impl_data"*, !llfi_index !446
  %10 = getelementptr inbounds %"struct.std::_Vector_base<int, std::allocator<int>>::_Vector_impl_data", %"struct.std::_Vector_base<int, std::allocator<int>>::_Vector_impl_data"* %9, i32 0, i32 1, !llfi_index !447
  %11 = load i32*, i32** %10, align 8, !llfi_index !448
  %12 = bitcast %"class.std::vector"* %6 to %"struct.std::_Vector_base"*, !llfi_index !449
  %13 = getelementptr inbounds %"struct.std::_Vector_base", %"struct.std::_Vector_base"* %12, i32 0, i32 0, !llfi_index !450
  %14 = bitcast %"struct.std::_Vector_base<int, std::allocator<int>>::_Vector_impl"* %13 to %"struct.std::_Vector_base<int, std::allocator<int>>::_Vector_impl_data"*, !llfi_index !451
  %15 = getelementptr inbounds %"struct.std::_Vector_base<int, std::allocator<int>>::_Vector_impl_data", %"struct.std::_Vector_base<int, std::allocator<int>>::_Vector_impl_data"* %14, i32 0, i32 2, !llfi_index !452
  %16 = load i32*, i32** %15, align 8, !llfi_index !453
  %17 = icmp ne i32* %11, %16, !llfi_index !454
  br i1 %17, label %18, label %34, !llfi_index !455

18:                                               ; preds = %2
  %19 = bitcast %"class.std::vector"* %6 to %"struct.std::_Vector_base"*, !llfi_index !456
  %20 = getelementptr inbounds %"struct.std::_Vector_base", %"struct.std::_Vector_base"* %19, i32 0, i32 0, !llfi_index !457
  %21 = bitcast %"struct.std::_Vector_base<int, std::allocator<int>>::_Vector_impl"* %20 to %"class.std::allocator"*, !llfi_index !458
  %22 = bitcast %"class.std::vector"* %6 to %"struct.std::_Vector_base"*, !llfi_index !459
  %23 = getelementptr inbounds %"struct.std::_Vector_base", %"struct.std::_Vector_base"* %22, i32 0, i32 0, !llfi_index !460
  %24 = bitcast %"struct.std::_Vector_base<int, std::allocator<int>>::_Vector_impl"* %23 to %"struct.std::_Vector_base<int, std::allocator<int>>::_Vector_impl_data"*, !llfi_index !461
  %25 = getelementptr inbounds %"struct.std::_Vector_base<int, std::allocator<int>>::_Vector_impl_data", %"struct.std::_Vector_base<int, std::allocator<int>>::_Vector_impl_data"* %24, i32 0, i32 1, !llfi_index !462
  %26 = load i32*, i32** %25, align 8, !llfi_index !463
  %27 = load i32*, i32** %4, align 8, !llfi_index !464
  call void @_ZNSt16allocator_traitsISaIiEE9constructIiJRKiEEEvRS0_PT_DpOT0_(%"class.std::allocator"* nonnull align 1 dereferenceable(1) %21, i32* %26, i32* nonnull align 4 dereferenceable(4) %27) #2, !llfi_index !465
  %28 = bitcast %"class.std::vector"* %6 to %"struct.std::_Vector_base"*, !llfi_index !466
  %29 = getelementptr inbounds %"struct.std::_Vector_base", %"struct.std::_Vector_base"* %28, i32 0, i32 0, !llfi_index !467
  %30 = bitcast %"struct.std::_Vector_base<int, std::allocator<int>>::_Vector_impl"* %29 to %"struct.std::_Vector_base<int, std::allocator<int>>::_Vector_impl_data"*, !llfi_index !468
  %31 = getelementptr inbounds %"struct.std::_Vector_base<int, std::allocator<int>>::_Vector_impl_data", %"struct.std::_Vector_base<int, std::allocator<int>>::_Vector_impl_data"* %30, i32 0, i32 1, !llfi_index !469
  %32 = load i32*, i32** %31, align 8, !llfi_index !470
  %33 = getelementptr inbounds i32, i32* %32, i32 1, !llfi_index !471
  store i32* %33, i32** %31, align 8, !llfi_index !472
  br label %40, !llfi_index !473

34:                                               ; preds = %2
  %35 = call i32* @_ZNSt6vectorIiSaIiEE3endEv(%"class.std::vector"* nonnull align 8 dereferenceable(24) %6) #2, !llfi_index !474
  %36 = getelementptr inbounds %"class.__gnu_cxx::__normal_iterator", %"class.__gnu_cxx::__normal_iterator"* %5, i32 0, i32 0, !llfi_index !475
  store i32* %35, i32** %36, align 8, !llfi_index !476
  %37 = load i32*, i32** %4, align 8, !llfi_index !477
  %38 = getelementptr inbounds %"class.__gnu_cxx::__normal_iterator", %"class.__gnu_cxx::__normal_iterator"* %5, i32 0, i32 0, !llfi_index !478
  %39 = load i32*, i32** %38, align 8, !llfi_index !479
  call void @_ZNSt6vectorIiSaIiEE17_M_realloc_insertIJRKiEEEvN9__gnu_cxx17__normal_iteratorIPiS1_EEDpOT_(%"class.std::vector"* nonnull align 8 dereferenceable(24) %6, i32* %39, i32* nonnull align 4 dereferenceable(4) %37), !llfi_index !480
  br label %40, !llfi_index !481

40:                                               ; preds = %34, %18
  ret void, !llfi_index !482
}

; Function Attrs: mustprogress noinline nounwind uwtable
define linkonce_odr dso_local nonnull align 4 dereferenceable(4) i32* @_ZSt3minIiERKT_S2_S2_(i32* nonnull align 4 dereferenceable(4) %0, i32* nonnull align 4 dereferenceable(4) %1) #3 comdat {
  %3 = alloca i32*, align 8, !llfi_index !483
  %4 = alloca i32*, align 8, !llfi_index !484
  %5 = alloca i32*, align 8, !llfi_index !485
  store i32* %0, i32** %4, align 8, !llfi_index !486
  store i32* %1, i32** %5, align 8, !llfi_index !487
  %6 = load i32*, i32** %5, align 8, !llfi_index !488
  %7 = load i32, i32* %6, align 4, !llfi_index !489
  %8 = load i32*, i32** %4, align 8, !llfi_index !490
  %9 = load i32, i32* %8, align 4, !llfi_index !491
  %10 = icmp slt i32 %7, %9, !llfi_index !492
  br i1 %10, label %11, label %13, !llfi_index !493

11:                                               ; preds = %2
  %12 = load i32*, i32** %5, align 8, !llfi_index !494
  store i32* %12, i32** %3, align 8, !llfi_index !495
  br label %15, !llfi_index !496

13:                                               ; preds = %2
  %14 = load i32*, i32** %4, align 8, !llfi_index !497
  store i32* %14, i32** %3, align 8, !llfi_index !498
  br label %15, !llfi_index !499

15:                                               ; preds = %13, %11
  %16 = load i32*, i32** %3, align 8, !llfi_index !500
  ret i32* %16, !llfi_index !501
}

declare dso_local i32 @__isoc99_scanf(i8*, ...) #7

; Function Attrs: mustprogress noinline nounwind uwtable
define linkonce_odr dso_local nonnull align 4 dereferenceable(4) i32* @_ZNSt6vectorIiSaIiEEixEm(%"class.std::vector"* nonnull align 8 dereferenceable(24) %0, i64 %1) #3 comdat align 2 {
  %3 = alloca %"class.std::vector"*, align 8, !llfi_index !502
  %4 = alloca i64, align 8, !llfi_index !503
  store %"class.std::vector"* %0, %"class.std::vector"** %3, align 8, !llfi_index !504
  store i64 %1, i64* %4, align 8, !llfi_index !505
  %5 = load %"class.std::vector"*, %"class.std::vector"** %3, align 8, !llfi_index !506
  %6 = bitcast %"class.std::vector"* %5 to %"struct.std::_Vector_base"*, !llfi_index !507
  %7 = getelementptr inbounds %"struct.std::_Vector_base", %"struct.std::_Vector_base"* %6, i32 0, i32 0, !llfi_index !508
  %8 = bitcast %"struct.std::_Vector_base<int, std::allocator<int>>::_Vector_impl"* %7 to %"struct.std::_Vector_base<int, std::allocator<int>>::_Vector_impl_data"*, !llfi_index !509
  %9 = getelementptr inbounds %"struct.std::_Vector_base<int, std::allocator<int>>::_Vector_impl_data", %"struct.std::_Vector_base<int, std::allocator<int>>::_Vector_impl_data"* %8, i32 0, i32 0, !llfi_index !510
  %10 = load i32*, i32** %9, align 8, !llfi_index !511
  %11 = load i64, i64* %4, align 8, !llfi_index !512
  %12 = getelementptr inbounds i32, i32* %10, i64 %11, !llfi_index !513
  ret i32* %12, !llfi_index !514
}

declare dso_local i32 @printf(i8*, ...) #7

; Function Attrs: mustprogress noinline nounwind uwtable
define linkonce_odr dso_local void @_ZNSt16allocator_traitsISaIiEE9constructIiJRKiEEEvRS0_PT_DpOT0_(%"class.std::allocator"* nonnull align 1 dereferenceable(1) %0, i32* %1, i32* nonnull align 4 dereferenceable(4) %2) #3 comdat align 2 {
  %4 = alloca %"class.std::allocator"*, align 8, !llfi_index !515
  %5 = alloca i32*, align 8, !llfi_index !516
  %6 = alloca i32*, align 8, !llfi_index !517
  store %"class.std::allocator"* %0, %"class.std::allocator"** %4, align 8, !llfi_index !518
  store i32* %1, i32** %5, align 8, !llfi_index !519
  store i32* %2, i32** %6, align 8, !llfi_index !520
  %7 = load %"class.std::allocator"*, %"class.std::allocator"** %4, align 8, !llfi_index !521
  %8 = bitcast %"class.std::allocator"* %7 to %"class.std::allocator"*, !llfi_index !522
  %9 = load i32*, i32** %5, align 8, !llfi_index !523
  %10 = load i32*, i32** %6, align 8, !llfi_index !524
  %11 = call nonnull align 4 dereferenceable(4) i32* @_ZSt7forwardIRKiEOT_RNSt16remove_referenceIS2_E4typeE(i32* nonnull align 4 dereferenceable(4) %10) #2, !llfi_index !525
  call void @_ZN9__gnu_cxx13new_allocatorIiE9constructIiJRKiEEEvPT_DpOT0_(%"class.std::allocator"* nonnull align 1 dereferenceable(1) %8, i32* %9, i32* nonnull align 4 dereferenceable(4) %11) #2, !llfi_index !526
  ret void, !llfi_index !527
}

; Function Attrs: mustprogress noinline nounwind uwtable
define linkonce_odr dso_local i32* @_ZNSt6vectorIiSaIiEE3endEv(%"class.std::vector"* nonnull align 8 dereferenceable(24) %0) #3 comdat align 2 {
  %2 = alloca %"class.__gnu_cxx::__normal_iterator", align 8, !llfi_index !528
  %3 = alloca %"class.std::vector"*, align 8, !llfi_index !529
  store %"class.std::vector"* %0, %"class.std::vector"** %3, align 8, !llfi_index !530
  %4 = load %"class.std::vector"*, %"class.std::vector"** %3, align 8, !llfi_index !531
  %5 = bitcast %"class.std::vector"* %4 to %"struct.std::_Vector_base"*, !llfi_index !532
  %6 = getelementptr inbounds %"struct.std::_Vector_base", %"struct.std::_Vector_base"* %5, i32 0, i32 0, !llfi_index !533
  %7 = bitcast %"struct.std::_Vector_base<int, std::allocator<int>>::_Vector_impl"* %6 to %"struct.std::_Vector_base<int, std::allocator<int>>::_Vector_impl_data"*, !llfi_index !534
  %8 = getelementptr inbounds %"struct.std::_Vector_base<int, std::allocator<int>>::_Vector_impl_data", %"struct.std::_Vector_base<int, std::allocator<int>>::_Vector_impl_data"* %7, i32 0, i32 1, !llfi_index !535
  call void @_ZN9__gnu_cxx17__normal_iteratorIPiSt6vectorIiSaIiEEEC2ERKS1_(%"class.__gnu_cxx::__normal_iterator"* nonnull align 8 dereferenceable(8) %2, i32** nonnull align 8 dereferenceable(8) %8) #2, !llfi_index !536
  %9 = getelementptr inbounds %"class.__gnu_cxx::__normal_iterator", %"class.__gnu_cxx::__normal_iterator"* %2, i32 0, i32 0, !llfi_index !537
  %10 = load i32*, i32** %9, align 8, !llfi_index !538
  ret i32* %10, !llfi_index !539
}

; Function Attrs: mustprogress noinline uwtable
define linkonce_odr dso_local void @_ZNSt6vectorIiSaIiEE17_M_realloc_insertIJRKiEEEvN9__gnu_cxx17__normal_iteratorIPiS1_EEDpOT_(%"class.std::vector"* nonnull align 8 dereferenceable(24) %0, i32* %1, i32* nonnull align 4 dereferenceable(4) %2) #4 comdat align 2 {
  %4 = alloca %"class.__gnu_cxx::__normal_iterator", align 8, !llfi_index !540
  %5 = alloca %"class.std::vector"*, align 8, !llfi_index !541
  %6 = alloca i32*, align 8, !llfi_index !542
  %7 = alloca i64, align 8, !llfi_index !543
  %8 = alloca i32*, align 8, !llfi_index !544
  %9 = alloca i32*, align 8, !llfi_index !545
  %10 = alloca i64, align 8, !llfi_index !546
  %11 = alloca %"class.__gnu_cxx::__normal_iterator", align 8, !llfi_index !547
  %12 = alloca i32*, align 8, !llfi_index !548
  %13 = alloca i32*, align 8, !llfi_index !549
  %14 = getelementptr inbounds %"class.__gnu_cxx::__normal_iterator", %"class.__gnu_cxx::__normal_iterator"* %4, i32 0, i32 0, !llfi_index !550
  store i32* %1, i32** %14, align 8, !llfi_index !551
  store %"class.std::vector"* %0, %"class.std::vector"** %5, align 8, !llfi_index !552
  store i32* %2, i32** %6, align 8, !llfi_index !553
  %15 = load %"class.std::vector"*, %"class.std::vector"** %5, align 8, !llfi_index !554
  %16 = call i64 @_ZNKSt6vectorIiSaIiEE12_M_check_lenEmPKc(%"class.std::vector"* nonnull align 8 dereferenceable(24) %15, i64 1, i8* getelementptr inbounds ([26 x i8], [26 x i8]* @.str.6, i64 0, i64 0)), !llfi_index !555
  store i64 %16, i64* %7, align 8, !llfi_index !556
  %17 = bitcast %"class.std::vector"* %15 to %"struct.std::_Vector_base"*, !llfi_index !557
  %18 = getelementptr inbounds %"struct.std::_Vector_base", %"struct.std::_Vector_base"* %17, i32 0, i32 0, !llfi_index !558
  %19 = bitcast %"struct.std::_Vector_base<int, std::allocator<int>>::_Vector_impl"* %18 to %"struct.std::_Vector_base<int, std::allocator<int>>::_Vector_impl_data"*, !llfi_index !559
  %20 = getelementptr inbounds %"struct.std::_Vector_base<int, std::allocator<int>>::_Vector_impl_data", %"struct.std::_Vector_base<int, std::allocator<int>>::_Vector_impl_data"* %19, i32 0, i32 0, !llfi_index !560
  %21 = load i32*, i32** %20, align 8, !llfi_index !561
  store i32* %21, i32** %8, align 8, !llfi_index !562
  %22 = bitcast %"class.std::vector"* %15 to %"struct.std::_Vector_base"*, !llfi_index !563
  %23 = getelementptr inbounds %"struct.std::_Vector_base", %"struct.std::_Vector_base"* %22, i32 0, i32 0, !llfi_index !564
  %24 = bitcast %"struct.std::_Vector_base<int, std::allocator<int>>::_Vector_impl"* %23 to %"struct.std::_Vector_base<int, std::allocator<int>>::_Vector_impl_data"*, !llfi_index !565
  %25 = getelementptr inbounds %"struct.std::_Vector_base<int, std::allocator<int>>::_Vector_impl_data", %"struct.std::_Vector_base<int, std::allocator<int>>::_Vector_impl_data"* %24, i32 0, i32 1, !llfi_index !566
  %26 = load i32*, i32** %25, align 8, !llfi_index !567
  store i32* %26, i32** %9, align 8, !llfi_index !568
  %27 = call i32* @_ZNSt6vectorIiSaIiEE5beginEv(%"class.std::vector"* nonnull align 8 dereferenceable(24) %15) #2, !llfi_index !569
  %28 = getelementptr inbounds %"class.__gnu_cxx::__normal_iterator", %"class.__gnu_cxx::__normal_iterator"* %11, i32 0, i32 0, !llfi_index !570
  store i32* %27, i32** %28, align 8, !llfi_index !571
  %29 = call i64 @_ZN9__gnu_cxxmiIPiSt6vectorIiSaIiEEEENS_17__normal_iteratorIT_T0_E15difference_typeERKS8_SB_(%"class.__gnu_cxx::__normal_iterator"* nonnull align 8 dereferenceable(8) %4, %"class.__gnu_cxx::__normal_iterator"* nonnull align 8 dereferenceable(8) %11) #2, !llfi_index !572
  store i64 %29, i64* %10, align 8, !llfi_index !573
  %30 = bitcast %"class.std::vector"* %15 to %"struct.std::_Vector_base"*, !llfi_index !574
  %31 = load i64, i64* %7, align 8, !llfi_index !575
  %32 = call i32* @_ZNSt12_Vector_baseIiSaIiEE11_M_allocateEm(%"struct.std::_Vector_base"* nonnull align 8 dereferenceable(24) %30, i64 %31), !llfi_index !576
  store i32* %32, i32** %12, align 8, !llfi_index !577
  %33 = load i32*, i32** %12, align 8, !llfi_index !578
  store i32* %33, i32** %13, align 8, !llfi_index !579
  %34 = bitcast %"class.std::vector"* %15 to %"struct.std::_Vector_base"*, !llfi_index !580
  %35 = getelementptr inbounds %"struct.std::_Vector_base", %"struct.std::_Vector_base"* %34, i32 0, i32 0, !llfi_index !581
  %36 = bitcast %"struct.std::_Vector_base<int, std::allocator<int>>::_Vector_impl"* %35 to %"class.std::allocator"*, !llfi_index !582
  %37 = load i32*, i32** %12, align 8, !llfi_index !583
  %38 = load i64, i64* %10, align 8, !llfi_index !584
  %39 = getelementptr inbounds i32, i32* %37, i64 %38, !llfi_index !585
  %40 = load i32*, i32** %6, align 8, !llfi_index !586
  %41 = call nonnull align 4 dereferenceable(4) i32* @_ZSt7forwardIRKiEOT_RNSt16remove_referenceIS2_E4typeE(i32* nonnull align 4 dereferenceable(4) %40) #2, !llfi_index !587
  call void @_ZNSt16allocator_traitsISaIiEE9constructIiJRKiEEEvRS0_PT_DpOT0_(%"class.std::allocator"* nonnull align 1 dereferenceable(1) %36, i32* %39, i32* nonnull align 4 dereferenceable(4) %41) #2, !llfi_index !588
  store i32* null, i32** %13, align 8, !llfi_index !589
  %42 = load i32*, i32** %8, align 8, !llfi_index !590
  %43 = call nonnull align 8 dereferenceable(8) i32** @_ZNK9__gnu_cxx17__normal_iteratorIPiSt6vectorIiSaIiEEE4baseEv(%"class.__gnu_cxx::__normal_iterator"* nonnull align 8 dereferenceable(8) %4) #2, !llfi_index !591
  %44 = load i32*, i32** %43, align 8, !llfi_index !592
  %45 = load i32*, i32** %12, align 8, !llfi_index !593
  %46 = bitcast %"class.std::vector"* %15 to %"struct.std::_Vector_base"*, !llfi_index !594
  %47 = call nonnull align 1 dereferenceable(1) %"class.std::allocator"* @_ZNSt12_Vector_baseIiSaIiEE19_M_get_Tp_allocatorEv(%"struct.std::_Vector_base"* nonnull align 8 dereferenceable(24) %46) #2, !llfi_index !595
  %48 = call i32* @_ZNSt6vectorIiSaIiEE11_S_relocateEPiS2_S2_RS0_(i32* %42, i32* %44, i32* %45, %"class.std::allocator"* nonnull align 1 dereferenceable(1) %47) #2, !llfi_index !596
  store i32* %48, i32** %13, align 8, !llfi_index !597
  %49 = load i32*, i32** %13, align 8, !llfi_index !598
  %50 = getelementptr inbounds i32, i32* %49, i32 1, !llfi_index !599
  store i32* %50, i32** %13, align 8, !llfi_index !600
  %51 = call nonnull align 8 dereferenceable(8) i32** @_ZNK9__gnu_cxx17__normal_iteratorIPiSt6vectorIiSaIiEEE4baseEv(%"class.__gnu_cxx::__normal_iterator"* nonnull align 8 dereferenceable(8) %4) #2, !llfi_index !601
  %52 = load i32*, i32** %51, align 8, !llfi_index !602
  %53 = load i32*, i32** %9, align 8, !llfi_index !603
  %54 = load i32*, i32** %13, align 8, !llfi_index !604
  %55 = bitcast %"class.std::vector"* %15 to %"struct.std::_Vector_base"*, !llfi_index !605
  %56 = call nonnull align 1 dereferenceable(1) %"class.std::allocator"* @_ZNSt12_Vector_baseIiSaIiEE19_M_get_Tp_allocatorEv(%"struct.std::_Vector_base"* nonnull align 8 dereferenceable(24) %55) #2, !llfi_index !606
  %57 = call i32* @_ZNSt6vectorIiSaIiEE11_S_relocateEPiS2_S2_RS0_(i32* %52, i32* %53, i32* %54, %"class.std::allocator"* nonnull align 1 dereferenceable(1) %56) #2, !llfi_index !607
  store i32* %57, i32** %13, align 8, !llfi_index !608
  %58 = bitcast %"class.std::vector"* %15 to %"struct.std::_Vector_base"*, !llfi_index !609
  %59 = load i32*, i32** %8, align 8, !llfi_index !610
  %60 = bitcast %"class.std::vector"* %15 to %"struct.std::_Vector_base"*, !llfi_index !611
  %61 = getelementptr inbounds %"struct.std::_Vector_base", %"struct.std::_Vector_base"* %60, i32 0, i32 0, !llfi_index !612
  %62 = bitcast %"struct.std::_Vector_base<int, std::allocator<int>>::_Vector_impl"* %61 to %"struct.std::_Vector_base<int, std::allocator<int>>::_Vector_impl_data"*, !llfi_index !613
  %63 = getelementptr inbounds %"struct.std::_Vector_base<int, std::allocator<int>>::_Vector_impl_data", %"struct.std::_Vector_base<int, std::allocator<int>>::_Vector_impl_data"* %62, i32 0, i32 2, !llfi_index !614
  %64 = load i32*, i32** %63, align 8, !llfi_index !615
  %65 = load i32*, i32** %8, align 8, !llfi_index !616
  %66 = ptrtoint i32* %64 to i64, !llfi_index !617
  %67 = ptrtoint i32* %65 to i64, !llfi_index !618
  %68 = sub i64 %66, %67, !llfi_index !619
  %69 = sdiv exact i64 %68, 4, !llfi_index !620
  call void @_ZNSt12_Vector_baseIiSaIiEE13_M_deallocateEPim(%"struct.std::_Vector_base"* nonnull align 8 dereferenceable(24) %58, i32* %59, i64 %69), !llfi_index !621
  %70 = load i32*, i32** %12, align 8, !llfi_index !622
  %71 = bitcast %"class.std::vector"* %15 to %"struct.std::_Vector_base"*, !llfi_index !623
  %72 = getelementptr inbounds %"struct.std::_Vector_base", %"struct.std::_Vector_base"* %71, i32 0, i32 0, !llfi_index !624
  %73 = bitcast %"struct.std::_Vector_base<int, std::allocator<int>>::_Vector_impl"* %72 to %"struct.std::_Vector_base<int, std::allocator<int>>::_Vector_impl_data"*, !llfi_index !625
  %74 = getelementptr inbounds %"struct.std::_Vector_base<int, std::allocator<int>>::_Vector_impl_data", %"struct.std::_Vector_base<int, std::allocator<int>>::_Vector_impl_data"* %73, i32 0, i32 0, !llfi_index !626
  store i32* %70, i32** %74, align 8, !llfi_index !627
  %75 = load i32*, i32** %13, align 8, !llfi_index !628
  %76 = bitcast %"class.std::vector"* %15 to %"struct.std::_Vector_base"*, !llfi_index !629
  %77 = getelementptr inbounds %"struct.std::_Vector_base", %"struct.std::_Vector_base"* %76, i32 0, i32 0, !llfi_index !630
  %78 = bitcast %"struct.std::_Vector_base<int, std::allocator<int>>::_Vector_impl"* %77 to %"struct.std::_Vector_base<int, std::allocator<int>>::_Vector_impl_data"*, !llfi_index !631
  %79 = getelementptr inbounds %"struct.std::_Vector_base<int, std::allocator<int>>::_Vector_impl_data", %"struct.std::_Vector_base<int, std::allocator<int>>::_Vector_impl_data"* %78, i32 0, i32 1, !llfi_index !632
  store i32* %75, i32** %79, align 8, !llfi_index !633
  %80 = load i32*, i32** %12, align 8, !llfi_index !634
  %81 = load i64, i64* %7, align 8, !llfi_index !635
  %82 = getelementptr inbounds i32, i32* %80, i64 %81, !llfi_index !636
  %83 = bitcast %"class.std::vector"* %15 to %"struct.std::_Vector_base"*, !llfi_index !637
  %84 = getelementptr inbounds %"struct.std::_Vector_base", %"struct.std::_Vector_base"* %83, i32 0, i32 0, !llfi_index !638
  %85 = bitcast %"struct.std::_Vector_base<int, std::allocator<int>>::_Vector_impl"* %84 to %"struct.std::_Vector_base<int, std::allocator<int>>::_Vector_impl_data"*, !llfi_index !639
  %86 = getelementptr inbounds %"struct.std::_Vector_base<int, std::allocator<int>>::_Vector_impl_data", %"struct.std::_Vector_base<int, std::allocator<int>>::_Vector_impl_data"* %85, i32 0, i32 2, !llfi_index !640
  store i32* %82, i32** %86, align 8, !llfi_index !641
  ret void, !llfi_index !642
}

; Function Attrs: mustprogress noinline uwtable
define linkonce_odr dso_local i64 @_ZNKSt6vectorIiSaIiEE12_M_check_lenEmPKc(%"class.std::vector"* nonnull align 8 dereferenceable(24) %0, i64 %1, i8* %2) #4 comdat align 2 {
  %4 = alloca %"class.std::vector"*, align 8, !llfi_index !643
  %5 = alloca i64, align 8, !llfi_index !644
  %6 = alloca i8*, align 8, !llfi_index !645
  %7 = alloca i64, align 8, !llfi_index !646
  %8 = alloca i64, align 8, !llfi_index !647
  store %"class.std::vector"* %0, %"class.std::vector"** %4, align 8, !llfi_index !648
  store i64 %1, i64* %5, align 8, !llfi_index !649
  store i8* %2, i8** %6, align 8, !llfi_index !650
  %9 = load %"class.std::vector"*, %"class.std::vector"** %4, align 8, !llfi_index !651
  %10 = call i64 @_ZNKSt6vectorIiSaIiEE8max_sizeEv(%"class.std::vector"* nonnull align 8 dereferenceable(24) %9) #2, !llfi_index !652
  %11 = call i64 @_ZNKSt6vectorIiSaIiEE4sizeEv(%"class.std::vector"* nonnull align 8 dereferenceable(24) %9) #2, !llfi_index !653
  %12 = sub i64 %10, %11, !llfi_index !654
  %13 = load i64, i64* %5, align 8, !llfi_index !655
  %14 = icmp ult i64 %12, %13, !llfi_index !656
  br i1 %14, label %15, label %17, !llfi_index !657

15:                                               ; preds = %3
  %16 = load i8*, i8** %6, align 8, !llfi_index !658
  call void @_ZSt20__throw_length_errorPKc(i8* %16) #14, !llfi_index !659
  unreachable, !llfi_index !660

17:                                               ; preds = %3
  %18 = call i64 @_ZNKSt6vectorIiSaIiEE4sizeEv(%"class.std::vector"* nonnull align 8 dereferenceable(24) %9) #2, !llfi_index !661
  %19 = call i64 @_ZNKSt6vectorIiSaIiEE4sizeEv(%"class.std::vector"* nonnull align 8 dereferenceable(24) %9) #2, !llfi_index !662
  store i64 %19, i64* %8, align 8, !llfi_index !663
  %20 = call nonnull align 8 dereferenceable(8) i64* @_ZSt3maxImERKT_S2_S2_(i64* nonnull align 8 dereferenceable(8) %8, i64* nonnull align 8 dereferenceable(8) %5), !llfi_index !664
  %21 = load i64, i64* %20, align 8, !llfi_index !665
  %22 = add i64 %18, %21, !llfi_index !666
  store i64 %22, i64* %7, align 8, !llfi_index !667
  %23 = load i64, i64* %7, align 8, !llfi_index !668
  %24 = call i64 @_ZNKSt6vectorIiSaIiEE4sizeEv(%"class.std::vector"* nonnull align 8 dereferenceable(24) %9) #2, !llfi_index !669
  %25 = icmp ult i64 %23, %24, !llfi_index !670
  br i1 %25, label %30, label %26, !llfi_index !671

26:                                               ; preds = %17
  %27 = load i64, i64* %7, align 8, !llfi_index !672
  %28 = call i64 @_ZNKSt6vectorIiSaIiEE8max_sizeEv(%"class.std::vector"* nonnull align 8 dereferenceable(24) %9) #2, !llfi_index !673
  %29 = icmp ugt i64 %27, %28, !llfi_index !674
  br i1 %29, label %30, label %32, !llfi_index !675

30:                                               ; preds = %26, %17
  %31 = call i64 @_ZNKSt6vectorIiSaIiEE8max_sizeEv(%"class.std::vector"* nonnull align 8 dereferenceable(24) %9) #2, !llfi_index !676
  br label %34, !llfi_index !677

32:                                               ; preds = %26
  %33 = load i64, i64* %7, align 8, !llfi_index !678
  br label %34, !llfi_index !679

34:                                               ; preds = %32, %30
  %35 = phi i64 [ %31, %30 ], [ %33, %32 ], !llfi_index !680
  ret i64 %35, !llfi_index !681
}

; Function Attrs: mustprogress noinline nounwind uwtable
define linkonce_odr dso_local i32* @_ZNSt6vectorIiSaIiEE5beginEv(%"class.std::vector"* nonnull align 8 dereferenceable(24) %0) #3 comdat align 2 {
  %2 = alloca %"class.__gnu_cxx::__normal_iterator", align 8, !llfi_index !682
  %3 = alloca %"class.std::vector"*, align 8, !llfi_index !683
  store %"class.std::vector"* %0, %"class.std::vector"** %3, align 8, !llfi_index !684
  %4 = load %"class.std::vector"*, %"class.std::vector"** %3, align 8, !llfi_index !685
  %5 = bitcast %"class.std::vector"* %4 to %"struct.std::_Vector_base"*, !llfi_index !686
  %6 = getelementptr inbounds %"struct.std::_Vector_base", %"struct.std::_Vector_base"* %5, i32 0, i32 0, !llfi_index !687
  %7 = bitcast %"struct.std::_Vector_base<int, std::allocator<int>>::_Vector_impl"* %6 to %"struct.std::_Vector_base<int, std::allocator<int>>::_Vector_impl_data"*, !llfi_index !688
  %8 = getelementptr inbounds %"struct.std::_Vector_base<int, std::allocator<int>>::_Vector_impl_data", %"struct.std::_Vector_base<int, std::allocator<int>>::_Vector_impl_data"* %7, i32 0, i32 0, !llfi_index !689
  call void @_ZN9__gnu_cxx17__normal_iteratorIPiSt6vectorIiSaIiEEEC2ERKS1_(%"class.__gnu_cxx::__normal_iterator"* nonnull align 8 dereferenceable(8) %2, i32** nonnull align 8 dereferenceable(8) %8) #2, !llfi_index !690
  %9 = getelementptr inbounds %"class.__gnu_cxx::__normal_iterator", %"class.__gnu_cxx::__normal_iterator"* %2, i32 0, i32 0, !llfi_index !691
  %10 = load i32*, i32** %9, align 8, !llfi_index !692
  ret i32* %10, !llfi_index !693
}

; Function Attrs: mustprogress noinline nounwind uwtable
define linkonce_odr dso_local i64 @_ZN9__gnu_cxxmiIPiSt6vectorIiSaIiEEEENS_17__normal_iteratorIT_T0_E15difference_typeERKS8_SB_(%"class.__gnu_cxx::__normal_iterator"* nonnull align 8 dereferenceable(8) %0, %"class.__gnu_cxx::__normal_iterator"* nonnull align 8 dereferenceable(8) %1) #3 comdat {
  %3 = alloca %"class.__gnu_cxx::__normal_iterator"*, align 8, !llfi_index !694
  %4 = alloca %"class.__gnu_cxx::__normal_iterator"*, align 8, !llfi_index !695
  store %"class.__gnu_cxx::__normal_iterator"* %0, %"class.__gnu_cxx::__normal_iterator"** %3, align 8, !llfi_index !696
  store %"class.__gnu_cxx::__normal_iterator"* %1, %"class.__gnu_cxx::__normal_iterator"** %4, align 8, !llfi_index !697
  %5 = load %"class.__gnu_cxx::__normal_iterator"*, %"class.__gnu_cxx::__normal_iterator"** %3, align 8, !llfi_index !698
  %6 = call nonnull align 8 dereferenceable(8) i32** @_ZNK9__gnu_cxx17__normal_iteratorIPiSt6vectorIiSaIiEEE4baseEv(%"class.__gnu_cxx::__normal_iterator"* nonnull align 8 dereferenceable(8) %5) #2, !llfi_index !699
  %7 = load i32*, i32** %6, align 8, !llfi_index !700
  %8 = load %"class.__gnu_cxx::__normal_iterator"*, %"class.__gnu_cxx::__normal_iterator"** %4, align 8, !llfi_index !701
  %9 = call nonnull align 8 dereferenceable(8) i32** @_ZNK9__gnu_cxx17__normal_iteratorIPiSt6vectorIiSaIiEEE4baseEv(%"class.__gnu_cxx::__normal_iterator"* nonnull align 8 dereferenceable(8) %8) #2, !llfi_index !702
  %10 = load i32*, i32** %9, align 8, !llfi_index !703
  %11 = ptrtoint i32* %7 to i64, !llfi_index !704
  %12 = ptrtoint i32* %10 to i64, !llfi_index !705
  %13 = sub i64 %11, %12, !llfi_index !706
  %14 = sdiv exact i64 %13, 4, !llfi_index !707
  ret i64 %14, !llfi_index !708
}

; Function Attrs: mustprogress noinline uwtable
define linkonce_odr dso_local i32* @_ZNSt12_Vector_baseIiSaIiEE11_M_allocateEm(%"struct.std::_Vector_base"* nonnull align 8 dereferenceable(24) %0, i64 %1) #4 comdat align 2 {
  %3 = alloca %"struct.std::_Vector_base"*, align 8, !llfi_index !709
  %4 = alloca i64, align 8, !llfi_index !710
  store %"struct.std::_Vector_base"* %0, %"struct.std::_Vector_base"** %3, align 8, !llfi_index !711
  store i64 %1, i64* %4, align 8, !llfi_index !712
  %5 = load %"struct.std::_Vector_base"*, %"struct.std::_Vector_base"** %3, align 8, !llfi_index !713
  %6 = load i64, i64* %4, align 8, !llfi_index !714
  %7 = icmp ne i64 %6, 0, !llfi_index !715
  br i1 %7, label %8, label %13, !llfi_index !716

8:                                                ; preds = %2
  %9 = getelementptr inbounds %"struct.std::_Vector_base", %"struct.std::_Vector_base"* %5, i32 0, i32 0, !llfi_index !717
  %10 = bitcast %"struct.std::_Vector_base<int, std::allocator<int>>::_Vector_impl"* %9 to %"class.std::allocator"*, !llfi_index !718
  %11 = load i64, i64* %4, align 8, !llfi_index !719
  %12 = call i32* @_ZNSt16allocator_traitsISaIiEE8allocateERS0_m(%"class.std::allocator"* nonnull align 1 dereferenceable(1) %10, i64 %11), !llfi_index !720
  br label %14, !llfi_index !721

13:                                               ; preds = %2
  br label %14, !llfi_index !722

14:                                               ; preds = %13, %8
  %15 = phi i32* [ %12, %8 ], [ null, %13 ], !llfi_index !723
  ret i32* %15, !llfi_index !724
}

; Function Attrs: mustprogress noinline nounwind uwtable
define linkonce_odr dso_local nonnull align 4 dereferenceable(4) i32* @_ZSt7forwardIRKiEOT_RNSt16remove_referenceIS2_E4typeE(i32* nonnull align 4 dereferenceable(4) %0) #3 comdat {
  %2 = alloca i32*, align 8, !llfi_index !725
  store i32* %0, i32** %2, align 8, !llfi_index !726
  %3 = load i32*, i32** %2, align 8, !llfi_index !727
  ret i32* %3, !llfi_index !728
}

; Function Attrs: mustprogress noinline nounwind uwtable
define linkonce_odr dso_local nonnull align 8 dereferenceable(8) i32** @_ZNK9__gnu_cxx17__normal_iteratorIPiSt6vectorIiSaIiEEE4baseEv(%"class.__gnu_cxx::__normal_iterator"* nonnull align 8 dereferenceable(8) %0) #3 comdat align 2 {
  %2 = alloca %"class.__gnu_cxx::__normal_iterator"*, align 8, !llfi_index !729
  store %"class.__gnu_cxx::__normal_iterator"* %0, %"class.__gnu_cxx::__normal_iterator"** %2, align 8, !llfi_index !730
  %3 = load %"class.__gnu_cxx::__normal_iterator"*, %"class.__gnu_cxx::__normal_iterator"** %2, align 8, !llfi_index !731
  %4 = getelementptr inbounds %"class.__gnu_cxx::__normal_iterator", %"class.__gnu_cxx::__normal_iterator"* %3, i32 0, i32 0, !llfi_index !732
  ret i32** %4, !llfi_index !733
}

; Function Attrs: mustprogress noinline nounwind uwtable
define linkonce_odr dso_local i32* @_ZNSt6vectorIiSaIiEE11_S_relocateEPiS2_S2_RS0_(i32* %0, i32* %1, i32* %2, %"class.std::allocator"* nonnull align 1 dereferenceable(1) %3) #3 comdat align 2 {
  %5 = alloca i32*, align 8, !llfi_index !734
  %6 = alloca i32*, align 8, !llfi_index !735
  %7 = alloca i32*, align 8, !llfi_index !736
  %8 = alloca %"class.std::allocator"*, align 8, !llfi_index !737
  %9 = alloca %"class.std::allocator", align 1, !llfi_index !738
  store i32* %0, i32** %5, align 8, !llfi_index !739
  store i32* %1, i32** %6, align 8, !llfi_index !740
  store i32* %2, i32** %7, align 8, !llfi_index !741
  store %"class.std::allocator"* %3, %"class.std::allocator"** %8, align 8, !llfi_index !742
  %10 = load i32*, i32** %5, align 8, !llfi_index !743
  %11 = load i32*, i32** %6, align 8, !llfi_index !744
  %12 = load i32*, i32** %7, align 8, !llfi_index !745
  %13 = load %"class.std::allocator"*, %"class.std::allocator"** %8, align 8, !llfi_index !746
  %14 = call i32* @_ZNSt6vectorIiSaIiEE14_S_do_relocateEPiS2_S2_RS0_St17integral_constantIbLb1EE(i32* %10, i32* %11, i32* %12, %"class.std::allocator"* nonnull align 1 dereferenceable(1) %13) #2, !llfi_index !747
  ret i32* %14, !llfi_index !748
}

; Function Attrs: mustprogress noinline nounwind uwtable
define linkonce_odr dso_local i32* @_ZNSt6vectorIiSaIiEE14_S_do_relocateEPiS2_S2_RS0_St17integral_constantIbLb1EE(i32* %0, i32* %1, i32* %2, %"class.std::allocator"* nonnull align 1 dereferenceable(1) %3) #3 comdat align 2 {
  %5 = alloca %"class.std::allocator", align 1, !llfi_index !749
  %6 = alloca i32*, align 8, !llfi_index !750
  %7 = alloca i32*, align 8, !llfi_index !751
  %8 = alloca i32*, align 8, !llfi_index !752
  %9 = alloca %"class.std::allocator"*, align 8, !llfi_index !753
  store i32* %0, i32** %6, align 8, !llfi_index !754
  store i32* %1, i32** %7, align 8, !llfi_index !755
  store i32* %2, i32** %8, align 8, !llfi_index !756
  store %"class.std::allocator"* %3, %"class.std::allocator"** %9, align 8, !llfi_index !757
  %10 = load i32*, i32** %6, align 8, !llfi_index !758
  %11 = load i32*, i32** %7, align 8, !llfi_index !759
  %12 = load i32*, i32** %8, align 8, !llfi_index !760
  %13 = load %"class.std::allocator"*, %"class.std::allocator"** %9, align 8, !llfi_index !761
  %14 = call i32* @_ZSt12__relocate_aIPiS0_SaIiEET0_T_S3_S2_RT1_(i32* %10, i32* %11, i32* %12, %"class.std::allocator"* nonnull align 1 dereferenceable(1) %13) #2, !llfi_index !762
  ret i32* %14, !llfi_index !763
}

; Function Attrs: mustprogress noinline nounwind uwtable
define linkonce_odr dso_local i32* @_ZSt12__relocate_aIPiS0_SaIiEET0_T_S3_S2_RT1_(i32* %0, i32* %1, i32* %2, %"class.std::allocator"* nonnull align 1 dereferenceable(1) %3) #3 comdat {
  %5 = alloca i32*, align 8, !llfi_index !764
  %6 = alloca i32*, align 8, !llfi_index !765
  %7 = alloca i32*, align 8, !llfi_index !766
  %8 = alloca %"class.std::allocator"*, align 8, !llfi_index !767
  store i32* %0, i32** %5, align 8, !llfi_index !768
  store i32* %1, i32** %6, align 8, !llfi_index !769
  store i32* %2, i32** %7, align 8, !llfi_index !770
  store %"class.std::allocator"* %3, %"class.std::allocator"** %8, align 8, !llfi_index !771
  %9 = load i32*, i32** %5, align 8, !llfi_index !772
  %10 = call i32* @_ZSt12__niter_baseIPiET_S1_(i32* %9) #2, !llfi_index !773
  %11 = load i32*, i32** %6, align 8, !llfi_index !774
  %12 = call i32* @_ZSt12__niter_baseIPiET_S1_(i32* %11) #2, !llfi_index !775
  %13 = load i32*, i32** %7, align 8, !llfi_index !776
  %14 = call i32* @_ZSt12__niter_baseIPiET_S1_(i32* %13) #2, !llfi_index !777
  %15 = load %"class.std::allocator"*, %"class.std::allocator"** %8, align 8, !llfi_index !778
  %16 = call i32* @_ZSt14__relocate_a_1IiiENSt9enable_ifIXsr3std24__is_bitwise_relocatableIT_EE5valueEPS1_E4typeES2_S2_S2_RSaIT0_E(i32* %10, i32* %12, i32* %14, %"class.std::allocator"* nonnull align 1 dereferenceable(1) %15) #2, !llfi_index !779
  ret i32* %16, !llfi_index !780
}

; Function Attrs: mustprogress noinline nounwind uwtable
define linkonce_odr dso_local i32* @_ZSt12__niter_baseIPiET_S1_(i32* %0) #3 comdat {
  %2 = alloca i32*, align 8, !llfi_index !781
  store i32* %0, i32** %2, align 8, !llfi_index !782
  %3 = load i32*, i32** %2, align 8, !llfi_index !783
  ret i32* %3, !llfi_index !784
}

; Function Attrs: mustprogress noinline nounwind uwtable
define linkonce_odr dso_local i32* @_ZSt14__relocate_a_1IiiENSt9enable_ifIXsr3std24__is_bitwise_relocatableIT_EE5valueEPS1_E4typeES2_S2_S2_RSaIT0_E(i32* %0, i32* %1, i32* %2, %"class.std::allocator"* nonnull align 1 dereferenceable(1) %3) #3 comdat {
  %5 = alloca i32*, align 8, !llfi_index !785
  %6 = alloca i32*, align 8, !llfi_index !786
  %7 = alloca i32*, align 8, !llfi_index !787
  %8 = alloca %"class.std::allocator"*, align 8, !llfi_index !788
  %9 = alloca i64, align 8, !llfi_index !789
  store i32* %0, i32** %5, align 8, !llfi_index !790
  store i32* %1, i32** %6, align 8, !llfi_index !791
  store i32* %2, i32** %7, align 8, !llfi_index !792
  store %"class.std::allocator"* %3, %"class.std::allocator"** %8, align 8, !llfi_index !793
  %10 = load i32*, i32** %6, align 8, !llfi_index !794
  %11 = load i32*, i32** %5, align 8, !llfi_index !795
  %12 = ptrtoint i32* %10 to i64, !llfi_index !796
  %13 = ptrtoint i32* %11 to i64, !llfi_index !797
  %14 = sub i64 %12, %13, !llfi_index !798
  %15 = sdiv exact i64 %14, 4, !llfi_index !799
  store i64 %15, i64* %9, align 8, !llfi_index !800
  %16 = load i64, i64* %9, align 8, !llfi_index !801
  %17 = icmp sgt i64 %16, 0, !llfi_index !802
  br i1 %17, label %18, label %25, !llfi_index !803

18:                                               ; preds = %4
  %19 = load i32*, i32** %7, align 8, !llfi_index !804
  %20 = bitcast i32* %19 to i8*, !llfi_index !805
  %21 = load i32*, i32** %5, align 8, !llfi_index !806
  %22 = bitcast i32* %21 to i8*, !llfi_index !807
  %23 = load i64, i64* %9, align 8, !llfi_index !808
  %24 = mul i64 %23, 4, !llfi_index !809
  call void @llvm.memmove.p0i8.p0i8.i64(i8* align 4 %20, i8* align 4 %22, i64 %24, i1 false), !llfi_index !810
  br label %25, !llfi_index !811

25:                                               ; preds = %18, %4
  %26 = load i32*, i32** %7, align 8, !llfi_index !812
  %27 = load i64, i64* %9, align 8, !llfi_index !813
  %28 = getelementptr inbounds i32, i32* %26, i64 %27, !llfi_index !814
  ret i32* %28, !llfi_index !815
}

; Function Attrs: argmemonly nofree nounwind willreturn
declare void @llvm.memmove.p0i8.p0i8.i64(i8* nocapture writeonly, i8* nocapture readonly, i64, i1 immarg) #10

; Function Attrs: mustprogress noinline uwtable
define linkonce_odr dso_local i32* @_ZNSt16allocator_traitsISaIiEE8allocateERS0_m(%"class.std::allocator"* nonnull align 1 dereferenceable(1) %0, i64 %1) #4 comdat align 2 {
  %3 = alloca %"class.std::allocator"*, align 8, !llfi_index !816
  %4 = alloca i64, align 8, !llfi_index !817
  store %"class.std::allocator"* %0, %"class.std::allocator"** %3, align 8, !llfi_index !818
  store i64 %1, i64* %4, align 8, !llfi_index !819
  %5 = load %"class.std::allocator"*, %"class.std::allocator"** %3, align 8, !llfi_index !820
  %6 = bitcast %"class.std::allocator"* %5 to %"class.std::allocator"*, !llfi_index !821
  %7 = load i64, i64* %4, align 8, !llfi_index !822
  %8 = call i32* @_ZN9__gnu_cxx13new_allocatorIiE8allocateEmPKv(%"class.std::allocator"* nonnull align 1 dereferenceable(1) %6, i64 %7, i8* null), !llfi_index !823
  ret i32* %8, !llfi_index !824
}

; Function Attrs: mustprogress noinline uwtable
define linkonce_odr dso_local i32* @_ZN9__gnu_cxx13new_allocatorIiE8allocateEmPKv(%"class.std::allocator"* nonnull align 1 dereferenceable(1) %0, i64 %1, i8* %2) #4 comdat align 2 {
  %4 = alloca %"class.std::allocator"*, align 8, !llfi_index !825
  %5 = alloca i64, align 8, !llfi_index !826
  %6 = alloca i8*, align 8, !llfi_index !827
  store %"class.std::allocator"* %0, %"class.std::allocator"** %4, align 8, !llfi_index !828
  store i64 %1, i64* %5, align 8, !llfi_index !829
  store i8* %2, i8** %6, align 8, !llfi_index !830
  %7 = load %"class.std::allocator"*, %"class.std::allocator"** %4, align 8, !llfi_index !831
  %8 = load i64, i64* %5, align 8, !llfi_index !832
  %9 = call i64 @_ZNK9__gnu_cxx13new_allocatorIiE8max_sizeEv(%"class.std::allocator"* nonnull align 1 dereferenceable(1) %7) #2, !llfi_index !833
  %10 = icmp ugt i64 %8, %9, !llfi_index !834
  br i1 %10, label %11, label %12, !llfi_index !835

11:                                               ; preds = %3
  call void @_ZSt17__throw_bad_allocv() #14, !llfi_index !836
  unreachable, !llfi_index !837

12:                                               ; preds = %3
  %13 = load i64, i64* %5, align 8, !llfi_index !838
  %14 = mul i64 %13, 4, !llfi_index !839
  %15 = call noalias nonnull i8* @_Znwm(i64 %14) #15, !llfi_index !840
  %16 = bitcast i8* %15 to i32*, !llfi_index !841
  ret i32* %16, !llfi_index !842
}

; Function Attrs: mustprogress noinline nounwind uwtable
define linkonce_odr dso_local i64 @_ZNK9__gnu_cxx13new_allocatorIiE8max_sizeEv(%"class.std::allocator"* nonnull align 1 dereferenceable(1) %0) #3 comdat align 2 {
  %2 = alloca %"class.std::allocator"*, align 8, !llfi_index !843
  store %"class.std::allocator"* %0, %"class.std::allocator"** %2, align 8, !llfi_index !844
  %3 = load %"class.std::allocator"*, %"class.std::allocator"** %2, align 8, !llfi_index !845
  ret i64 2305843009213693951, !llfi_index !846
}

; Function Attrs: noreturn
declare dso_local void @_ZSt17__throw_bad_allocv() #11

; Function Attrs: nobuiltin allocsize(0)
declare dso_local nonnull i8* @_Znwm(i64) #12

; Function Attrs: noinline nounwind uwtable
define linkonce_odr dso_local void @_ZN9__gnu_cxx17__normal_iteratorIPiSt6vectorIiSaIiEEEC2ERKS1_(%"class.__gnu_cxx::__normal_iterator"* nonnull align 8 dereferenceable(8) %0, i32** nonnull align 8 dereferenceable(8) %1) unnamed_addr #1 comdat align 2 {
  %3 = alloca %"class.__gnu_cxx::__normal_iterator"*, align 8, !llfi_index !847
  %4 = alloca i32**, align 8, !llfi_index !848
  store %"class.__gnu_cxx::__normal_iterator"* %0, %"class.__gnu_cxx::__normal_iterator"** %3, align 8, !llfi_index !849
  store i32** %1, i32*** %4, align 8, !llfi_index !850
  %5 = load %"class.__gnu_cxx::__normal_iterator"*, %"class.__gnu_cxx::__normal_iterator"** %3, align 8, !llfi_index !851
  %6 = getelementptr inbounds %"class.__gnu_cxx::__normal_iterator", %"class.__gnu_cxx::__normal_iterator"* %5, i32 0, i32 0, !llfi_index !852
  %7 = load i32**, i32*** %4, align 8, !llfi_index !853
  %8 = load i32*, i32** %7, align 8, !llfi_index !854
  store i32* %8, i32** %6, align 8, !llfi_index !855
  ret void, !llfi_index !856
}

; Function Attrs: mustprogress noinline nounwind uwtable
define linkonce_odr dso_local i64 @_ZNKSt6vectorIiSaIiEE8max_sizeEv(%"class.std::vector"* nonnull align 8 dereferenceable(24) %0) #3 comdat align 2 {
  %2 = alloca %"class.std::vector"*, align 8, !llfi_index !857
  store %"class.std::vector"* %0, %"class.std::vector"** %2, align 8, !llfi_index !858
  %3 = load %"class.std::vector"*, %"class.std::vector"** %2, align 8, !llfi_index !859
  %4 = bitcast %"class.std::vector"* %3 to %"struct.std::_Vector_base"*, !llfi_index !860
  %5 = call nonnull align 1 dereferenceable(1) %"class.std::allocator"* @_ZNKSt12_Vector_baseIiSaIiEE19_M_get_Tp_allocatorEv(%"struct.std::_Vector_base"* nonnull align 8 dereferenceable(24) %4) #2, !llfi_index !861
  %6 = call i64 @_ZNSt6vectorIiSaIiEE11_S_max_sizeERKS0_(%"class.std::allocator"* nonnull align 1 dereferenceable(1) %5) #2, !llfi_index !862
  ret i64 %6, !llfi_index !863
}

; Function Attrs: mustprogress noinline nounwind uwtable
define linkonce_odr dso_local i64 @_ZNKSt6vectorIiSaIiEE4sizeEv(%"class.std::vector"* nonnull align 8 dereferenceable(24) %0) #3 comdat align 2 {
  %2 = alloca %"class.std::vector"*, align 8, !llfi_index !864
  store %"class.std::vector"* %0, %"class.std::vector"** %2, align 8, !llfi_index !865
  %3 = load %"class.std::vector"*, %"class.std::vector"** %2, align 8, !llfi_index !866
  %4 = bitcast %"class.std::vector"* %3 to %"struct.std::_Vector_base"*, !llfi_index !867
  %5 = getelementptr inbounds %"struct.std::_Vector_base", %"struct.std::_Vector_base"* %4, i32 0, i32 0, !llfi_index !868
  %6 = bitcast %"struct.std::_Vector_base<int, std::allocator<int>>::_Vector_impl"* %5 to %"struct.std::_Vector_base<int, std::allocator<int>>::_Vector_impl_data"*, !llfi_index !869
  %7 = getelementptr inbounds %"struct.std::_Vector_base<int, std::allocator<int>>::_Vector_impl_data", %"struct.std::_Vector_base<int, std::allocator<int>>::_Vector_impl_data"* %6, i32 0, i32 1, !llfi_index !870
  %8 = load i32*, i32** %7, align 8, !llfi_index !871
  %9 = bitcast %"class.std::vector"* %3 to %"struct.std::_Vector_base"*, !llfi_index !872
  %10 = getelementptr inbounds %"struct.std::_Vector_base", %"struct.std::_Vector_base"* %9, i32 0, i32 0, !llfi_index !873
  %11 = bitcast %"struct.std::_Vector_base<int, std::allocator<int>>::_Vector_impl"* %10 to %"struct.std::_Vector_base<int, std::allocator<int>>::_Vector_impl_data"*, !llfi_index !874
  %12 = getelementptr inbounds %"struct.std::_Vector_base<int, std::allocator<int>>::_Vector_impl_data", %"struct.std::_Vector_base<int, std::allocator<int>>::_Vector_impl_data"* %11, i32 0, i32 0, !llfi_index !875
  %13 = load i32*, i32** %12, align 8, !llfi_index !876
  %14 = ptrtoint i32* %8 to i64, !llfi_index !877
  %15 = ptrtoint i32* %13 to i64, !llfi_index !878
  %16 = sub i64 %14, %15, !llfi_index !879
  %17 = sdiv exact i64 %16, 4, !llfi_index !880
  ret i64 %17, !llfi_index !881
}

; Function Attrs: noreturn
declare dso_local void @_ZSt20__throw_length_errorPKc(i8*) #11

; Function Attrs: mustprogress noinline nounwind uwtable
define linkonce_odr dso_local nonnull align 8 dereferenceable(8) i64* @_ZSt3maxImERKT_S2_S2_(i64* nonnull align 8 dereferenceable(8) %0, i64* nonnull align 8 dereferenceable(8) %1) #3 comdat {
  %3 = alloca i64*, align 8, !llfi_index !882
  %4 = alloca i64*, align 8, !llfi_index !883
  %5 = alloca i64*, align 8, !llfi_index !884
  store i64* %0, i64** %4, align 8, !llfi_index !885
  store i64* %1, i64** %5, align 8, !llfi_index !886
  %6 = load i64*, i64** %4, align 8, !llfi_index !887
  %7 = load i64, i64* %6, align 8, !llfi_index !888
  %8 = load i64*, i64** %5, align 8, !llfi_index !889
  %9 = load i64, i64* %8, align 8, !llfi_index !890
  %10 = icmp ult i64 %7, %9, !llfi_index !891
  br i1 %10, label %11, label %13, !llfi_index !892

11:                                               ; preds = %2
  %12 = load i64*, i64** %5, align 8, !llfi_index !893
  store i64* %12, i64** %3, align 8, !llfi_index !894
  br label %15, !llfi_index !895

13:                                               ; preds = %2
  %14 = load i64*, i64** %4, align 8, !llfi_index !896
  store i64* %14, i64** %3, align 8, !llfi_index !897
  br label %15, !llfi_index !898

15:                                               ; preds = %13, %11
  %16 = load i64*, i64** %3, align 8, !llfi_index !899
  ret i64* %16, !llfi_index !900
}

; Function Attrs: mustprogress noinline nounwind uwtable
define linkonce_odr dso_local nonnull align 1 dereferenceable(1) %"class.std::allocator"* @_ZNKSt12_Vector_baseIiSaIiEE19_M_get_Tp_allocatorEv(%"struct.std::_Vector_base"* nonnull align 8 dereferenceable(24) %0) #3 comdat align 2 {
  %2 = alloca %"struct.std::_Vector_base"*, align 8, !llfi_index !901
  store %"struct.std::_Vector_base"* %0, %"struct.std::_Vector_base"** %2, align 8, !llfi_index !902
  %3 = load %"struct.std::_Vector_base"*, %"struct.std::_Vector_base"** %2, align 8, !llfi_index !903
  %4 = getelementptr inbounds %"struct.std::_Vector_base", %"struct.std::_Vector_base"* %3, i32 0, i32 0, !llfi_index !904
  %5 = bitcast %"struct.std::_Vector_base<int, std::allocator<int>>::_Vector_impl"* %4 to %"class.std::allocator"*, !llfi_index !905
  ret %"class.std::allocator"* %5, !llfi_index !906
}

; Function Attrs: mustprogress noinline nounwind uwtable
define linkonce_odr dso_local i64 @_ZNSt6vectorIiSaIiEE11_S_max_sizeERKS0_(%"class.std::allocator"* nonnull align 1 dereferenceable(1) %0) #3 comdat align 2 personality i8* bitcast (i32 (...)* @__gxx_personality_v0 to i8*) {
  %2 = alloca %"class.std::allocator"*, align 8, !llfi_index !907
  %3 = alloca i64, align 8, !llfi_index !908
  %4 = alloca i64, align 8, !llfi_index !909
  store %"class.std::allocator"* %0, %"class.std::allocator"** %2, align 8, !llfi_index !910
  store i64 2305843009213693951, i64* %3, align 8, !llfi_index !911
  %5 = load %"class.std::allocator"*, %"class.std::allocator"** %2, align 8, !llfi_index !912
  %6 = call i64 @_ZNSt16allocator_traitsISaIiEE8max_sizeERKS0_(%"class.std::allocator"* nonnull align 1 dereferenceable(1) %5) #2, !llfi_index !913
  store i64 %6, i64* %4, align 8, !llfi_index !914
  %7 = invoke nonnull align 8 dereferenceable(8) i64* @_ZSt3minImERKT_S2_S2_(i64* nonnull align 8 dereferenceable(8) %3, i64* nonnull align 8 dereferenceable(8) %4)
          to label %8 unwind label %10, !llfi_index !915

8:                                                ; preds = %1
  %9 = load i64, i64* %7, align 8, !llfi_index !916
  ret i64 %9, !llfi_index !917

10:                                               ; preds = %1
  %11 = landingpad { i8*, i32 }
          catch i8* null, !llfi_index !918
  %12 = extractvalue { i8*, i32 } %11, 0, !llfi_index !919
  call void @__clang_call_terminate(i8* %12) #13, !llfi_index !920
  unreachable, !llfi_index !921
}

; Function Attrs: mustprogress noinline nounwind uwtable
define linkonce_odr dso_local i64 @_ZNSt16allocator_traitsISaIiEE8max_sizeERKS0_(%"class.std::allocator"* nonnull align 1 dereferenceable(1) %0) #3 comdat align 2 {
  %2 = alloca %"class.std::allocator"*, align 8, !llfi_index !922
  store %"class.std::allocator"* %0, %"class.std::allocator"** %2, align 8, !llfi_index !923
  %3 = load %"class.std::allocator"*, %"class.std::allocator"** %2, align 8, !llfi_index !924
  %4 = bitcast %"class.std::allocator"* %3 to %"class.std::allocator"*, !llfi_index !925
  %5 = call i64 @_ZNK9__gnu_cxx13new_allocatorIiE8max_sizeEv(%"class.std::allocator"* nonnull align 1 dereferenceable(1) %4) #2, !llfi_index !926
  ret i64 %5, !llfi_index !927
}

; Function Attrs: mustprogress noinline nounwind uwtable
define linkonce_odr dso_local nonnull align 8 dereferenceable(8) i64* @_ZSt3minImERKT_S2_S2_(i64* nonnull align 8 dereferenceable(8) %0, i64* nonnull align 8 dereferenceable(8) %1) #3 comdat {
  %3 = alloca i64*, align 8, !llfi_index !928
  %4 = alloca i64*, align 8, !llfi_index !929
  %5 = alloca i64*, align 8, !llfi_index !930
  store i64* %0, i64** %4, align 8, !llfi_index !931
  store i64* %1, i64** %5, align 8, !llfi_index !932
  %6 = load i64*, i64** %5, align 8, !llfi_index !933
  %7 = load i64, i64* %6, align 8, !llfi_index !934
  %8 = load i64*, i64** %4, align 8, !llfi_index !935
  %9 = load i64, i64* %8, align 8, !llfi_index !936
  %10 = icmp ult i64 %7, %9, !llfi_index !937
  br i1 %10, label %11, label %13, !llfi_index !938

11:                                               ; preds = %2
  %12 = load i64*, i64** %5, align 8, !llfi_index !939
  store i64* %12, i64** %3, align 8, !llfi_index !940
  br label %15, !llfi_index !941

13:                                               ; preds = %2
  %14 = load i64*, i64** %4, align 8, !llfi_index !942
  store i64* %14, i64** %3, align 8, !llfi_index !943
  br label %15, !llfi_index !944

15:                                               ; preds = %13, %11
  %16 = load i64*, i64** %3, align 8, !llfi_index !945
  ret i64* %16, !llfi_index !946
}

; Function Attrs: mustprogress noinline nounwind uwtable
define linkonce_odr dso_local void @_ZN9__gnu_cxx13new_allocatorIiE9constructIiJRKiEEEvPT_DpOT0_(%"class.std::allocator"* nonnull align 1 dereferenceable(1) %0, i32* %1, i32* nonnull align 4 dereferenceable(4) %2) #3 comdat align 2 {
  %4 = alloca %"class.std::allocator"*, align 8, !llfi_index !947
  %5 = alloca i32*, align 8, !llfi_index !948
  %6 = alloca i32*, align 8, !llfi_index !949
  store %"class.std::allocator"* %0, %"class.std::allocator"** %4, align 8, !llfi_index !950
  store i32* %1, i32** %5, align 8, !llfi_index !951
  store i32* %2, i32** %6, align 8, !llfi_index !952
  %7 = load %"class.std::allocator"*, %"class.std::allocator"** %4, align 8, !llfi_index !953
  %8 = load i32*, i32** %5, align 8, !llfi_index !954
  %9 = bitcast i32* %8 to i8*, !llfi_index !955
  %10 = bitcast i8* %9 to i32*, !llfi_index !956
  %11 = load i32*, i32** %6, align 8, !llfi_index !957
  %12 = call nonnull align 4 dereferenceable(4) i32* @_ZSt7forwardIRKiEOT_RNSt16remove_referenceIS2_E4typeE(i32* nonnull align 4 dereferenceable(4) %11) #2, !llfi_index !958
  %13 = load i32, i32* %12, align 4, !llfi_index !959
  store i32 %13, i32* %10, align 4, !llfi_index !960
  ret void, !llfi_index !961
}

attributes #0 = { noinline uwtable "frame-pointer"="all" "min-legal-vector-width"="0" "no-trapping-math"="true" "stack-protector-buffer-size"="8" "target-cpu"="x86-64" "target-features"="+cx8,+fxsr,+mmx,+sse,+sse2,+x87" "tune-cpu"="generic" }
attributes #1 = { noinline nounwind uwtable "frame-pointer"="all" "min-legal-vector-width"="0" "no-trapping-math"="true" "stack-protector-buffer-size"="8" "target-cpu"="x86-64" "target-features"="+cx8,+fxsr,+mmx,+sse,+sse2,+x87" "tune-cpu"="generic" }
attributes #2 = { nounwind }
attributes #3 = { mustprogress noinline nounwind uwtable "frame-pointer"="all" "min-legal-vector-width"="0" "no-trapping-math"="true" "stack-protector-buffer-size"="8" "target-cpu"="x86-64" "target-features"="+cx8,+fxsr,+mmx,+sse,+sse2,+x87" "tune-cpu"="generic" }
attributes #4 = { mustprogress noinline uwtable "frame-pointer"="all" "min-legal-vector-width"="0" "no-trapping-math"="true" "stack-protector-buffer-size"="8" "target-cpu"="x86-64" "target-features"="+cx8,+fxsr,+mmx,+sse,+sse2,+x87" "tune-cpu"="generic" }
attributes #5 = { noinline noreturn nounwind }
attributes #6 = { nobuiltin nounwind "frame-pointer"="all" "no-trapping-math"="true" "stack-protector-buffer-size"="8" "target-cpu"="x86-64" "target-features"="+cx8,+fxsr,+mmx,+sse,+sse2,+x87" "tune-cpu"="generic" }
attributes #7 = { "frame-pointer"="all" "no-trapping-math"="true" "stack-protector-buffer-size"="8" "target-cpu"="x86-64" "target-features"="+cx8,+fxsr,+mmx,+sse,+sse2,+x87" "tune-cpu"="generic" }
attributes #8 = { nounwind "frame-pointer"="all" "no-trapping-math"="true" "stack-protector-buffer-size"="8" "target-cpu"="x86-64" "target-features"="+cx8,+fxsr,+mmx,+sse,+sse2,+x87" "tune-cpu"="generic" }
attributes #9 = { mustprogress noinline norecurse uwtable "frame-pointer"="all" "min-legal-vector-width"="0" "no-trapping-math"="true" "stack-protector-buffer-size"="8" "target-cpu"="x86-64" "target-features"="+cx8,+fxsr,+mmx,+sse,+sse2,+x87" "tune-cpu"="generic" }
attributes #10 = { argmemonly nofree nounwind willreturn }
attributes #11 = { noreturn "frame-pointer"="all" "no-trapping-math"="true" "stack-protector-buffer-size"="8" "target-cpu"="x86-64" "target-features"="+cx8,+fxsr,+mmx,+sse,+sse2,+x87" "tune-cpu"="generic" }
attributes #12 = { nobuiltin allocsize(0) "frame-pointer"="all" "no-trapping-math"="true" "stack-protector-buffer-size"="8" "target-cpu"="x86-64" "target-features"="+cx8,+fxsr,+mmx,+sse,+sse2,+x87" "tune-cpu"="generic" }
attributes #13 = { noreturn nounwind }
attributes #14 = { noreturn }
attributes #15 = { allocsize(0) }

!llvm.ident = !{!0}
!llvm.module.flags = !{!1, !2, !3}

!0 = !{!"clang version 13.0.0 (https://github.com/llvm/llvm-project.git d7b669b3a30345cfcdb2fde2af6f48aa4b94845d)"}
!1 = !{i32 1, !"wchar_size", i32 4}
!2 = !{i32 7, !"uwtable", i32 1}
!3 = !{i32 7, !"frame-pointer", i32 2}
!4 = !{i64 1}
!5 = !{i64 2}
!6 = !{i64 3}
!7 = !{i64 4}
!8 = !{i64 5}
!9 = !{i64 6}
!10 = !{i64 7}
!11 = !{i64 8}
!12 = !{i64 9}
!13 = !{i64 10}
!14 = !{i64 11}
!15 = !{i64 12}
!16 = !{i64 13}
!17 = !{i64 14}
!18 = !{i64 15}
!19 = !{i64 16}
!20 = !{i64 17}
!21 = !{i64 18}
!22 = !{i64 19}
!23 = !{i64 20}
!24 = !{i64 21}
!25 = !{i64 22}
!26 = !{i64 23}
!27 = !{i64 24}
!28 = !{i64 25}
!29 = !{i64 26}
!30 = !{i64 27}
!31 = !{i64 28}
!32 = !{i64 29}
!33 = !{i64 30}
!34 = !{i64 31}
!35 = !{i64 32}
!36 = !{i64 33}
!37 = !{i64 34}
!38 = !{i64 35}
!39 = !{i64 36}
!40 = !{i64 37}
!41 = !{i64 38}
!42 = !{i64 39}
!43 = !{i64 40}
!44 = !{i64 41}
!45 = !{i64 42}
!46 = !{i64 43}
!47 = !{i64 44}
!48 = !{i64 45}
!49 = !{i64 46}
!50 = !{i64 47}
!51 = !{i64 48}
!52 = !{i64 49}
!53 = !{i64 50}
!54 = !{i64 51}
!55 = !{i64 52}
!56 = !{i64 53}
!57 = !{i64 54}
!58 = !{i64 55}
!59 = !{i64 56}
!60 = !{i64 57}
!61 = !{i64 58}
!62 = !{i64 59}
!63 = !{i64 60}
!64 = !{i64 61}
!65 = !{i64 62}
!66 = !{i64 63}
!67 = !{i64 64}
!68 = !{i64 65}
!69 = !{i64 66}
!70 = !{i64 67}
!71 = !{i64 68}
!72 = !{i64 69}
!73 = !{i64 70}
!74 = !{i64 71}
!75 = !{i64 72}
!76 = !{i64 73}
!77 = !{i64 74}
!78 = !{i64 75}
!79 = !{i64 76}
!80 = !{i64 77}
!81 = !{i64 78}
!82 = !{i64 79}
!83 = !{i64 80}
!84 = !{i64 81}
!85 = !{i64 82}
!86 = !{i64 83}
!87 = !{i64 84}
!88 = !{i64 85}
!89 = !{i64 86}
!90 = !{i64 87}
!91 = !{i64 88}
!92 = !{i64 89}
!93 = !{i64 90}
!94 = !{i64 91}
!95 = !{i64 92}
!96 = !{i64 93}
!97 = !{i64 94}
!98 = !{i64 95}
!99 = !{i64 96}
!100 = !{i64 97}
!101 = !{i64 98}
!102 = !{i64 99}
!103 = !{i64 100}
!104 = !{i64 101}
!105 = !{i64 102}
!106 = !{i64 103}
!107 = !{i64 104}
!108 = !{i64 105}
!109 = !{i64 106}
!110 = !{i64 107}
!111 = !{i64 108}
!112 = !{i64 109}
!113 = !{i64 110}
!114 = !{i64 111}
!115 = !{i64 112}
!116 = !{i64 113}
!117 = !{i64 114}
!118 = !{i64 115}
!119 = !{i64 116}
!120 = !{i64 117}
!121 = !{i64 118}
!122 = !{i64 119}
!123 = !{i64 120}
!124 = !{i64 121}
!125 = !{i64 122}
!126 = !{i64 123}
!127 = !{i64 124}
!128 = !{i64 125}
!129 = !{i64 126}
!130 = !{i64 127}
!131 = !{i64 128}
!132 = !{i64 129}
!133 = !{i64 130}
!134 = !{i64 131}
!135 = !{i64 132}
!136 = !{i64 133}
!137 = !{i64 134}
!138 = !{i64 135}
!139 = !{i64 136}
!140 = !{i64 137}
!141 = !{i64 138}
!142 = !{i64 139}
!143 = !{i64 140}
!144 = !{i64 141}
!145 = !{i64 142}
!146 = !{i64 143}
!147 = !{i64 144}
!148 = !{i64 145}
!149 = !{i64 146}
!150 = !{i64 147}
!151 = !{i64 148}
!152 = !{i64 149}
!153 = !{i64 150}
!154 = !{i64 151}
!155 = !{i64 152}
!156 = !{i64 153}
!157 = !{i64 154}
!158 = !{i64 155}
!159 = !{i64 156}
!160 = !{i64 157}
!161 = !{i64 158}
!162 = !{i64 159}
!163 = !{i64 160}
!164 = !{i64 161}
!165 = !{i64 162}
!166 = !{i64 163}
!167 = !{i64 164}
!168 = !{i64 165}
!169 = !{i64 166}
!170 = !{i64 167}
!171 = !{i64 168}
!172 = !{i64 169}
!173 = !{i64 170}
!174 = !{i64 171}
!175 = !{i64 172}
!176 = !{i64 173}
!177 = !{i64 174}
!178 = !{i64 175}
!179 = !{i64 176}
!180 = !{i64 177}
!181 = !{i64 178}
!182 = !{i64 179}
!183 = !{i64 180}
!184 = !{i64 181}
!185 = !{i64 182}
!186 = !{i64 183}
!187 = !{i64 184}
!188 = !{i64 185}
!189 = !{i64 186}
!190 = !{i64 187}
!191 = !{i64 188}
!192 = !{i64 189}
!193 = !{i64 190}
!194 = !{i64 191}
!195 = !{i64 192}
!196 = !{i64 193}
!197 = !{i64 194}
!198 = !{i64 195}
!199 = !{i64 196}
!200 = !{i64 197}
!201 = !{i64 198}
!202 = !{i64 199}
!203 = !{i64 200}
!204 = !{i64 201}
!205 = !{i64 202}
!206 = !{i64 203}
!207 = !{i64 204}
!208 = !{i64 205}
!209 = !{i64 206}
!210 = !{i64 207}
!211 = !{i64 208}
!212 = !{i64 209}
!213 = !{i64 210}
!214 = !{i64 211}
!215 = !{i64 212}
!216 = !{i64 213}
!217 = !{i64 214}
!218 = !{i64 215}
!219 = !{i64 216}
!220 = !{i64 217}
!221 = !{i64 218}
!222 = !{i64 219}
!223 = !{i64 220}
!224 = !{i64 221}
!225 = !{i64 222}
!226 = !{i64 223}
!227 = !{i64 224}
!228 = !{i64 225}
!229 = !{i64 226}
!230 = !{i64 227}
!231 = !{i64 228}
!232 = !{i64 229}
!233 = !{i64 230}
!234 = !{i64 231}
!235 = !{i64 232}
!236 = !{i64 233}
!237 = !{i64 234}
!238 = !{i64 235}
!239 = !{i64 236}
!240 = !{i64 237}
!241 = !{i64 238}
!242 = !{i64 239}
!243 = !{i64 240}
!244 = !{i64 241}
!245 = !{i64 242}
!246 = !{i64 243}
!247 = !{i64 244}
!248 = !{i64 245}
!249 = !{i64 246}
!250 = !{i64 247}
!251 = !{i64 248}
!252 = !{i64 249}
!253 = !{i64 250}
!254 = !{i64 251}
!255 = !{i64 252}
!256 = !{i64 253}
!257 = !{i64 254}
!258 = !{i64 255}
!259 = !{i64 256}
!260 = !{i64 257}
!261 = !{i64 258}
!262 = !{i64 259}
!263 = distinct !{!263, !264}
!264 = !{!"llvm.loop.mustprogress"}
!265 = !{i64 260}
!266 = !{i64 261}
!267 = !{i64 262}
!268 = !{i64 263}
!269 = !{i64 264}
!270 = !{i64 265}
!271 = distinct !{!271, !264}
!272 = !{i64 266}
!273 = !{i64 267}
!274 = !{i64 268}
!275 = !{i64 269}
!276 = !{i64 270}
!277 = !{i64 271}
!278 = !{i64 272}
!279 = !{i64 273}
!280 = !{i64 274}
!281 = !{i64 275}
!282 = !{i64 276}
!283 = !{i64 277}
!284 = !{i64 278}
!285 = !{i64 279}
!286 = !{i64 280}
!287 = !{i64 281}
!288 = !{i64 282}
!289 = !{i64 283}
!290 = !{i64 284}
!291 = !{i64 285}
!292 = !{i64 286}
!293 = !{i64 287}
!294 = !{i64 288}
!295 = !{i64 289}
!296 = !{i64 290}
!297 = !{i64 291}
!298 = !{i64 292}
!299 = !{i64 293}
!300 = !{i64 294}
!301 = !{i64 295}
!302 = !{i64 296}
!303 = !{i64 297}
!304 = !{i64 298}
!305 = !{i64 299}
!306 = !{i64 300}
!307 = !{i64 301}
!308 = !{i64 302}
!309 = !{i64 303}
!310 = !{i64 304}
!311 = !{i64 305}
!312 = !{i64 306}
!313 = !{i64 307}
!314 = !{i64 308}
!315 = !{i64 309}
!316 = !{i64 310}
!317 = !{i64 311}
!318 = !{i64 312}
!319 = !{i64 313}
!320 = !{i64 314}
!321 = !{i64 315}
!322 = !{i64 316}
!323 = distinct !{!323, !264}
!324 = !{i64 317}
!325 = !{i64 318}
!326 = !{i64 319}
!327 = !{i64 320}
!328 = !{i64 321}
!329 = distinct !{!329, !264}
!330 = !{i64 322}
!331 = !{i64 323}
!332 = !{i64 324}
!333 = !{i64 325}
!334 = !{i64 326}
!335 = !{i64 327}
!336 = !{i64 328}
!337 = !{i64 329}
!338 = !{i64 330}
!339 = !{i64 331}
!340 = !{i64 332}
!341 = !{i64 333}
!342 = !{i64 334}
!343 = !{i64 335}
!344 = !{i64 336}
!345 = !{i64 337}
!346 = !{i64 338}
!347 = !{i64 339}
!348 = !{i64 340}
!349 = !{i64 341}
!350 = !{i64 342}
!351 = !{i64 343}
!352 = !{i64 344}
!353 = !{i64 345}
!354 = !{i64 346}
!355 = !{i64 347}
!356 = !{i64 348}
!357 = !{i64 349}
!358 = !{i64 350}
!359 = !{i64 351}
!360 = !{i64 352}
!361 = !{i64 353}
!362 = !{i64 354}
!363 = !{i64 355}
!364 = !{i64 356}
!365 = !{i64 357}
!366 = !{i64 358}
!367 = !{i64 359}
!368 = !{i64 360}
!369 = !{i64 361}
!370 = !{i64 362}
!371 = !{i64 363}
!372 = !{i64 364}
!373 = !{i64 365}
!374 = !{i64 366}
!375 = !{i64 367}
!376 = !{i64 368}
!377 = !{i64 369}
!378 = !{i64 370}
!379 = !{i64 371}
!380 = !{i64 372}
!381 = !{i64 373}
!382 = !{i64 374}
!383 = !{i64 375}
!384 = !{i64 376}
!385 = !{i64 377}
!386 = !{i64 378}
!387 = !{i64 379}
!388 = !{i64 380}
!389 = !{i64 381}
!390 = !{i64 382}
!391 = !{i64 383}
!392 = !{i64 384}
!393 = !{i64 385}
!394 = !{i64 386}
!395 = !{i64 387}
!396 = !{i64 388}
!397 = !{i64 389}
!398 = !{i64 390}
!399 = !{i64 391}
!400 = !{i64 392}
!401 = !{i64 393}
!402 = !{i64 394}
!403 = !{i64 395}
!404 = !{i64 396}
!405 = !{i64 397}
!406 = !{i64 398}
!407 = !{i64 399}
!408 = !{i64 400}
!409 = !{i64 401}
!410 = !{i64 402}
!411 = !{i64 403}
!412 = !{i64 404}
!413 = !{i64 405}
!414 = !{i64 406}
!415 = distinct !{!415, !264}
!416 = !{i64 407}
!417 = !{i64 408}
!418 = !{i64 409}
!419 = !{i64 410}
!420 = !{i64 411}
!421 = !{i64 412}
!422 = !{i64 413}
!423 = !{i64 414}
!424 = !{i64 415}
!425 = !{i64 416}
!426 = !{i64 417}
!427 = !{i64 418}
!428 = !{i64 419}
!429 = !{i64 420}
!430 = distinct !{!430, !264}
!431 = !{i64 421}
!432 = !{i64 422}
!433 = !{i64 423}
!434 = distinct !{!434, !264}
!435 = !{i64 424}
!436 = !{i64 425}
!437 = !{i64 426}
!438 = !{i64 427}
!439 = !{i64 428}
!440 = !{i64 429}
!441 = !{i64 430}
!442 = !{i64 431}
!443 = !{i64 432}
!444 = !{i64 433}
!445 = !{i64 434}
!446 = !{i64 435}
!447 = !{i64 436}
!448 = !{i64 437}
!449 = !{i64 438}
!450 = !{i64 439}
!451 = !{i64 440}
!452 = !{i64 441}
!453 = !{i64 442}
!454 = !{i64 443}
!455 = !{i64 444}
!456 = !{i64 445}
!457 = !{i64 446}
!458 = !{i64 447}
!459 = !{i64 448}
!460 = !{i64 449}
!461 = !{i64 450}
!462 = !{i64 451}
!463 = !{i64 452}
!464 = !{i64 453}
!465 = !{i64 454}
!466 = !{i64 455}
!467 = !{i64 456}
!468 = !{i64 457}
!469 = !{i64 458}
!470 = !{i64 459}
!471 = !{i64 460}
!472 = !{i64 461}
!473 = !{i64 462}
!474 = !{i64 463}
!475 = !{i64 464}
!476 = !{i64 465}
!477 = !{i64 466}
!478 = !{i64 467}
!479 = !{i64 468}
!480 = !{i64 469}
!481 = !{i64 470}
!482 = !{i64 471}
!483 = !{i64 472}
!484 = !{i64 473}
!485 = !{i64 474}
!486 = !{i64 475}
!487 = !{i64 476}
!488 = !{i64 477}
!489 = !{i64 478}
!490 = !{i64 479}
!491 = !{i64 480}
!492 = !{i64 481}
!493 = !{i64 482}
!494 = !{i64 483}
!495 = !{i64 484}
!496 = !{i64 485}
!497 = !{i64 486}
!498 = !{i64 487}
!499 = !{i64 488}
!500 = !{i64 489}
!501 = !{i64 490}
!502 = !{i64 491}
!503 = !{i64 492}
!504 = !{i64 493}
!505 = !{i64 494}
!506 = !{i64 495}
!507 = !{i64 496}
!508 = !{i64 497}
!509 = !{i64 498}
!510 = !{i64 499}
!511 = !{i64 500}
!512 = !{i64 501}
!513 = !{i64 502}
!514 = !{i64 503}
!515 = !{i64 504}
!516 = !{i64 505}
!517 = !{i64 506}
!518 = !{i64 507}
!519 = !{i64 508}
!520 = !{i64 509}
!521 = !{i64 510}
!522 = !{i64 511}
!523 = !{i64 512}
!524 = !{i64 513}
!525 = !{i64 514}
!526 = !{i64 515}
!527 = !{i64 516}
!528 = !{i64 517}
!529 = !{i64 518}
!530 = !{i64 519}
!531 = !{i64 520}
!532 = !{i64 521}
!533 = !{i64 522}
!534 = !{i64 523}
!535 = !{i64 524}
!536 = !{i64 525}
!537 = !{i64 526}
!538 = !{i64 527}
!539 = !{i64 528}
!540 = !{i64 529}
!541 = !{i64 530}
!542 = !{i64 531}
!543 = !{i64 532}
!544 = !{i64 533}
!545 = !{i64 534}
!546 = !{i64 535}
!547 = !{i64 536}
!548 = !{i64 537}
!549 = !{i64 538}
!550 = !{i64 539}
!551 = !{i64 540}
!552 = !{i64 541}
!553 = !{i64 542}
!554 = !{i64 543}
!555 = !{i64 544}
!556 = !{i64 545}
!557 = !{i64 546}
!558 = !{i64 547}
!559 = !{i64 548}
!560 = !{i64 549}
!561 = !{i64 550}
!562 = !{i64 551}
!563 = !{i64 552}
!564 = !{i64 553}
!565 = !{i64 554}
!566 = !{i64 555}
!567 = !{i64 556}
!568 = !{i64 557}
!569 = !{i64 558}
!570 = !{i64 559}
!571 = !{i64 560}
!572 = !{i64 561}
!573 = !{i64 562}
!574 = !{i64 563}
!575 = !{i64 564}
!576 = !{i64 565}
!577 = !{i64 566}
!578 = !{i64 567}
!579 = !{i64 568}
!580 = !{i64 569}
!581 = !{i64 570}
!582 = !{i64 571}
!583 = !{i64 572}
!584 = !{i64 573}
!585 = !{i64 574}
!586 = !{i64 575}
!587 = !{i64 576}
!588 = !{i64 577}
!589 = !{i64 578}
!590 = !{i64 579}
!591 = !{i64 580}
!592 = !{i64 581}
!593 = !{i64 582}
!594 = !{i64 583}
!595 = !{i64 584}
!596 = !{i64 585}
!597 = !{i64 586}
!598 = !{i64 587}
!599 = !{i64 588}
!600 = !{i64 589}
!601 = !{i64 590}
!602 = !{i64 591}
!603 = !{i64 592}
!604 = !{i64 593}
!605 = !{i64 594}
!606 = !{i64 595}
!607 = !{i64 596}
!608 = !{i64 597}
!609 = !{i64 598}
!610 = !{i64 599}
!611 = !{i64 600}
!612 = !{i64 601}
!613 = !{i64 602}
!614 = !{i64 603}
!615 = !{i64 604}
!616 = !{i64 605}
!617 = !{i64 606}
!618 = !{i64 607}
!619 = !{i64 608}
!620 = !{i64 609}
!621 = !{i64 610}
!622 = !{i64 611}
!623 = !{i64 612}
!624 = !{i64 613}
!625 = !{i64 614}
!626 = !{i64 615}
!627 = !{i64 616}
!628 = !{i64 617}
!629 = !{i64 618}
!630 = !{i64 619}
!631 = !{i64 620}
!632 = !{i64 621}
!633 = !{i64 622}
!634 = !{i64 623}
!635 = !{i64 624}
!636 = !{i64 625}
!637 = !{i64 626}
!638 = !{i64 627}
!639 = !{i64 628}
!640 = !{i64 629}
!641 = !{i64 630}
!642 = !{i64 631}
!643 = !{i64 632}
!644 = !{i64 633}
!645 = !{i64 634}
!646 = !{i64 635}
!647 = !{i64 636}
!648 = !{i64 637}
!649 = !{i64 638}
!650 = !{i64 639}
!651 = !{i64 640}
!652 = !{i64 641}
!653 = !{i64 642}
!654 = !{i64 643}
!655 = !{i64 644}
!656 = !{i64 645}
!657 = !{i64 646}
!658 = !{i64 647}
!659 = !{i64 648}
!660 = !{i64 649}
!661 = !{i64 650}
!662 = !{i64 651}
!663 = !{i64 652}
!664 = !{i64 653}
!665 = !{i64 654}
!666 = !{i64 655}
!667 = !{i64 656}
!668 = !{i64 657}
!669 = !{i64 658}
!670 = !{i64 659}
!671 = !{i64 660}
!672 = !{i64 661}
!673 = !{i64 662}
!674 = !{i64 663}
!675 = !{i64 664}
!676 = !{i64 665}
!677 = !{i64 666}
!678 = !{i64 667}
!679 = !{i64 668}
!680 = !{i64 669}
!681 = !{i64 670}
!682 = !{i64 671}
!683 = !{i64 672}
!684 = !{i64 673}
!685 = !{i64 674}
!686 = !{i64 675}
!687 = !{i64 676}
!688 = !{i64 677}
!689 = !{i64 678}
!690 = !{i64 679}
!691 = !{i64 680}
!692 = !{i64 681}
!693 = !{i64 682}
!694 = !{i64 683}
!695 = !{i64 684}
!696 = !{i64 685}
!697 = !{i64 686}
!698 = !{i64 687}
!699 = !{i64 688}
!700 = !{i64 689}
!701 = !{i64 690}
!702 = !{i64 691}
!703 = !{i64 692}
!704 = !{i64 693}
!705 = !{i64 694}
!706 = !{i64 695}
!707 = !{i64 696}
!708 = !{i64 697}
!709 = !{i64 698}
!710 = !{i64 699}
!711 = !{i64 700}
!712 = !{i64 701}
!713 = !{i64 702}
!714 = !{i64 703}
!715 = !{i64 704}
!716 = !{i64 705}
!717 = !{i64 706}
!718 = !{i64 707}
!719 = !{i64 708}
!720 = !{i64 709}
!721 = !{i64 710}
!722 = !{i64 711}
!723 = !{i64 712}
!724 = !{i64 713}
!725 = !{i64 714}
!726 = !{i64 715}
!727 = !{i64 716}
!728 = !{i64 717}
!729 = !{i64 718}
!730 = !{i64 719}
!731 = !{i64 720}
!732 = !{i64 721}
!733 = !{i64 722}
!734 = !{i64 723}
!735 = !{i64 724}
!736 = !{i64 725}
!737 = !{i64 726}
!738 = !{i64 727}
!739 = !{i64 728}
!740 = !{i64 729}
!741 = !{i64 730}
!742 = !{i64 731}
!743 = !{i64 732}
!744 = !{i64 733}
!745 = !{i64 734}
!746 = !{i64 735}
!747 = !{i64 736}
!748 = !{i64 737}
!749 = !{i64 738}
!750 = !{i64 739}
!751 = !{i64 740}
!752 = !{i64 741}
!753 = !{i64 742}
!754 = !{i64 743}
!755 = !{i64 744}
!756 = !{i64 745}
!757 = !{i64 746}
!758 = !{i64 747}
!759 = !{i64 748}
!760 = !{i64 749}
!761 = !{i64 750}
!762 = !{i64 751}
!763 = !{i64 752}
!764 = !{i64 753}
!765 = !{i64 754}
!766 = !{i64 755}
!767 = !{i64 756}
!768 = !{i64 757}
!769 = !{i64 758}
!770 = !{i64 759}
!771 = !{i64 760}
!772 = !{i64 761}
!773 = !{i64 762}
!774 = !{i64 763}
!775 = !{i64 764}
!776 = !{i64 765}
!777 = !{i64 766}
!778 = !{i64 767}
!779 = !{i64 768}
!780 = !{i64 769}
!781 = !{i64 770}
!782 = !{i64 771}
!783 = !{i64 772}
!784 = !{i64 773}
!785 = !{i64 774}
!786 = !{i64 775}
!787 = !{i64 776}
!788 = !{i64 777}
!789 = !{i64 778}
!790 = !{i64 779}
!791 = !{i64 780}
!792 = !{i64 781}
!793 = !{i64 782}
!794 = !{i64 783}
!795 = !{i64 784}
!796 = !{i64 785}
!797 = !{i64 786}
!798 = !{i64 787}
!799 = !{i64 788}
!800 = !{i64 789}
!801 = !{i64 790}
!802 = !{i64 791}
!803 = !{i64 792}
!804 = !{i64 793}
!805 = !{i64 794}
!806 = !{i64 795}
!807 = !{i64 796}
!808 = !{i64 797}
!809 = !{i64 798}
!810 = !{i64 799}
!811 = !{i64 800}
!812 = !{i64 801}
!813 = !{i64 802}
!814 = !{i64 803}
!815 = !{i64 804}
!816 = !{i64 805}
!817 = !{i64 806}
!818 = !{i64 807}
!819 = !{i64 808}
!820 = !{i64 809}
!821 = !{i64 810}
!822 = !{i64 811}
!823 = !{i64 812}
!824 = !{i64 813}
!825 = !{i64 814}
!826 = !{i64 815}
!827 = !{i64 816}
!828 = !{i64 817}
!829 = !{i64 818}
!830 = !{i64 819}
!831 = !{i64 820}
!832 = !{i64 821}
!833 = !{i64 822}
!834 = !{i64 823}
!835 = !{i64 824}
!836 = !{i64 825}
!837 = !{i64 826}
!838 = !{i64 827}
!839 = !{i64 828}
!840 = !{i64 829}
!841 = !{i64 830}
!842 = !{i64 831}
!843 = !{i64 832}
!844 = !{i64 833}
!845 = !{i64 834}
!846 = !{i64 835}
!847 = !{i64 836}
!848 = !{i64 837}
!849 = !{i64 838}
!850 = !{i64 839}
!851 = !{i64 840}
!852 = !{i64 841}
!853 = !{i64 842}
!854 = !{i64 843}
!855 = !{i64 844}
!856 = !{i64 845}
!857 = !{i64 846}
!858 = !{i64 847}
!859 = !{i64 848}
!860 = !{i64 849}
!861 = !{i64 850}
!862 = !{i64 851}
!863 = !{i64 852}
!864 = !{i64 853}
!865 = !{i64 854}
!866 = !{i64 855}
!867 = !{i64 856}
!868 = !{i64 857}
!869 = !{i64 858}
!870 = !{i64 859}
!871 = !{i64 860}
!872 = !{i64 861}
!873 = !{i64 862}
!874 = !{i64 863}
!875 = !{i64 864}
!876 = !{i64 865}
!877 = !{i64 866}
!878 = !{i64 867}
!879 = !{i64 868}
!880 = !{i64 869}
!881 = !{i64 870}
!882 = !{i64 871}
!883 = !{i64 872}
!884 = !{i64 873}
!885 = !{i64 874}
!886 = !{i64 875}
!887 = !{i64 876}
!888 = !{i64 877}
!889 = !{i64 878}
!890 = !{i64 879}
!891 = !{i64 880}
!892 = !{i64 881}
!893 = !{i64 882}
!894 = !{i64 883}
!895 = !{i64 884}
!896 = !{i64 885}
!897 = !{i64 886}
!898 = !{i64 887}
!899 = !{i64 888}
!900 = !{i64 889}
!901 = !{i64 890}
!902 = !{i64 891}
!903 = !{i64 892}
!904 = !{i64 893}
!905 = !{i64 894}
!906 = !{i64 895}
!907 = !{i64 896}
!908 = !{i64 897}
!909 = !{i64 898}
!910 = !{i64 899}
!911 = !{i64 900}
!912 = !{i64 901}
!913 = !{i64 902}
!914 = !{i64 903}
!915 = !{i64 904}
!916 = !{i64 905}
!917 = !{i64 906}
!918 = !{i64 907}
!919 = !{i64 908}
!920 = !{i64 909}
!921 = !{i64 910}
!922 = !{i64 911}
!923 = !{i64 912}
!924 = !{i64 913}
!925 = !{i64 914}
!926 = !{i64 915}
!927 = !{i64 916}
!928 = !{i64 917}
!929 = !{i64 918}
!930 = !{i64 919}
!931 = !{i64 920}
!932 = !{i64 921}
!933 = !{i64 922}
!934 = !{i64 923}
!935 = !{i64 924}
!936 = !{i64 925}
!937 = !{i64 926}
!938 = !{i64 927}
!939 = !{i64 928}
!940 = !{i64 929}
!941 = !{i64 930}
!942 = !{i64 931}
!943 = !{i64 932}
!944 = !{i64 933}
!945 = !{i64 934}
!946 = !{i64 935}
!947 = !{i64 936}
!948 = !{i64 937}
!949 = !{i64 938}
!950 = !{i64 939}
!951 = !{i64 940}
!952 = !{i64 941}
!953 = !{i64 942}
!954 = !{i64 943}
!955 = !{i64 944}
!956 = !{i64 945}
!957 = !{i64 946}
!958 = !{i64 947}
!959 = !{i64 948}
!960 = !{i64 949}
!961 = !{i64 950}
