; ModuleID = '/home/hjiang/Computation-Kernel-Dataset/experiments/Fault_injection_0308_parall/O0/EruptingVolcanoes/EruptingVolcanoes.ll'
source_filename = "llvm-link"
target datalayout = "e-m:e-p270:32:32-p271:32:32-p272:64:64-i64:64-f80:128-n8:16:32:64-S128"
target triple = "x86_64-unknown-linux-gnu"

%"class.std::ios_base::Init" = type { i8 }
%struct._IO_FILE = type { i32, i8*, i8*, i8*, i8*, i8*, i8*, i8*, i8*, i8*, i8*, i8*, %struct._IO_marker*, %struct._IO_FILE*, i32, i32, i64, i16, i8, [1 x i8], i8*, i64, %struct._IO_codecvt*, %struct._IO_wide_data*, %struct._IO_FILE*, i8*, i64, i32, [20 x i8] }
%struct._IO_marker = type opaque
%struct._IO_codecvt = type opaque
%struct._IO_wide_data = type opaque
%"class.std::basic_ostream" = type { i32 (...)**, %"class.std::basic_ios" }
%"class.std::basic_ios" = type { %"class.std::ios_base", %"class.std::basic_ostream"*, i8, i8, %"class.std::basic_streambuf"*, %"class.std::ctype"*, %"class.std::num_put"*, %"class.std::num_put"* }
%"class.std::ios_base" = type { i32 (...)**, i64, i64, i32, i32, i32, %"struct.std::ios_base::_Callback_list"*, %"struct.std::ios_base::_Words", [8 x %"struct.std::ios_base::_Words"], i32, %"struct.std::ios_base::_Words"*, %"class.std::locale" }
%"struct.std::ios_base::_Callback_list" = type { %"struct.std::ios_base::_Callback_list"*, void (i32, %"class.std::ios_base"*, i32)*, i32, i32 }
%"struct.std::ios_base::_Words" = type { i8*, i64 }
%"class.std::locale" = type { %"class.std::locale::_Impl"* }
%"class.std::locale::_Impl" = type { i32, %"class.std::locale::facet"**, i64, %"class.std::locale::facet"**, i8** }
%"class.std::locale::facet" = type <{ i32 (...)**, i32, [4 x i8] }>
%"class.std::basic_streambuf" = type { i32 (...)**, i8*, i8*, i8*, i8*, i8*, i8*, %"class.std::locale" }
%"class.std::ctype" = type <{ %"class.std::locale::facet.base", [4 x i8], %struct.__locale_struct*, i8, [7 x i8], i32*, i32*, i16*, i8, [256 x i8], [256 x i8], i8, [6 x i8] }>
%"class.std::locale::facet.base" = type <{ i32 (...)**, i32 }>
%struct.__locale_struct = type { [13 x %struct.__locale_data*], i16*, i32*, i32*, [13 x i8*] }
%struct.__locale_data = type opaque
%"class.std::num_put" = type { %"class.std::locale::facet.base", [4 x i8] }

$_ZSt3maxIiERKT_S2_S2_ = comdat any

@llvm.global_ctors = appending global [1 x { i32, void ()*, i8* }] [{ i32, void ()*, i8* } { i32 65535, void ()* @_GLOBAL__sub_I_EruptingVolcanoes.cpp, i8* null }]
@_ZStL8__ioinit = internal global %"class.std::ios_base::Init" zeroinitializer, align 1
@x = dso_local global [1234567 x i32] zeroinitializer, align 16
@y = dso_local global [1234567 x i32] zeroinitializer, align 16
@w = dso_local global [1234567 x i32] zeroinitializer, align 16
@.str = private unnamed_addr constant [33 x i8] c"../input_files/EruptingVolcanoes\00", align 1
@.str.1 = private unnamed_addr constant [2 x i8] c"r\00", align 1
@stdin = external dso_local global %struct._IO_FILE*, align 8
@.str.2 = private unnamed_addr constant [6 x i8] c"%d %d\00", align 1
@.str.3 = private unnamed_addr constant [9 x i8] c"%d %d %d\00", align 1
@_ZSt4cout = external dso_local global %"class.std::basic_ostream", align 8

; Function Attrs: noinline uwtable
define internal void @_GLOBAL__sub_I_EruptingVolcanoes.cpp() #0 section ".text.startup" {
  call void @__cxx_global_var_init(), !llfi_index !4
  ret void, !llfi_index !5
}

; Function Attrs: noinline uwtable
define internal void @__cxx_global_var_init() #0 section ".text.startup" {
  call void @_ZNSt8ios_base4InitC1Ev(%"class.std::ios_base::Init"* nonnull align 1 dereferenceable(1) @_ZStL8__ioinit), !llfi_index !6
  %1 = call i32 @atexit(void ()* @__dtor__ZStL8__ioinit) #2, !llfi_index !7
  ret void, !llfi_index !8
}

declare dso_local void @_ZNSt8ios_base4InitC1Ev(%"class.std::ios_base::Init"* nonnull align 1 dereferenceable(1)) unnamed_addr #1

; Function Attrs: noinline uwtable
define internal void @__dtor__ZStL8__ioinit() #0 section ".text.startup" {
  call void @_ZNSt8ios_base4InitD1Ev(%"class.std::ios_base::Init"* @_ZStL8__ioinit), !llfi_index !9
  ret void, !llfi_index !10
}

; Function Attrs: nounwind
declare dso_local i32 @atexit(void ()*) #2

; Function Attrs: nounwind
declare dso_local void @_ZNSt8ios_base4InitD1Ev(%"class.std::ios_base::Init"* nonnull align 1 dereferenceable(1)) unnamed_addr #3

; Function Attrs: mustprogress noinline norecurse uwtable
define dso_local i32 @main() #4 {
  %1 = alloca i32, align 4, !llfi_index !11
  %2 = alloca i32, align 4, !llfi_index !12
  %3 = alloca i32, align 4, !llfi_index !13
  %4 = alloca i32, align 4, !llfi_index !14
  %5 = alloca i32, align 4, !llfi_index !15
  %6 = alloca i32, align 4, !llfi_index !16
  %7 = alloca i32, align 4, !llfi_index !17
  %8 = alloca i32, align 4, !llfi_index !18
  %9 = alloca i32, align 4, !llfi_index !19
  %10 = alloca i32, align 4, !llfi_index !20
  %11 = alloca i32, align 4, !llfi_index !21
  %12 = alloca i32, align 4, !llfi_index !22
  %13 = alloca i32, align 4, !llfi_index !23
  %14 = alloca i32, align 4, !llfi_index !24
  %15 = alloca i32, align 4, !llfi_index !25
  store i32 0, i32* %1, align 4, !llfi_index !26
  %16 = load %struct._IO_FILE*, %struct._IO_FILE** @stdin, align 8, !llfi_index !27
  %17 = call %struct._IO_FILE* @freopen(i8* getelementptr inbounds ([33 x i8], [33 x i8]* @.str, i64 0, i64 0), i8* getelementptr inbounds ([2 x i8], [2 x i8]* @.str.1, i64 0, i64 0), %struct._IO_FILE* %16), !llfi_index !28
  %18 = call i32 (i8*, ...) @__isoc99_scanf(i8* getelementptr inbounds ([6 x i8], [6 x i8]* @.str.2, i64 0, i64 0), i32* %2, i32* %3), !llfi_index !29
  store i32 0, i32* %4, align 4, !llfi_index !30
  store i32 89, i32* %5, align 4, !llfi_index !31
  store i32 0, i32* %6, align 4, !llfi_index !32
  br label %19, !llfi_index !33

19:                                               ; preds = %34, %0
  %20 = load i32, i32* %6, align 4, !llfi_index !34
  %21 = load i32, i32* %3, align 4, !llfi_index !35
  %22 = icmp slt i32 %20, %21, !llfi_index !36
  br i1 %22, label %23, label %37, !llfi_index !37

23:                                               ; preds = %19
  %24 = load i32, i32* %6, align 4, !llfi_index !38
  %25 = sext i32 %24 to i64, !llfi_index !39
  %26 = getelementptr inbounds i32, i32* getelementptr inbounds ([1234567 x i32], [1234567 x i32]* @x, i64 0, i64 0), i64 %25, !llfi_index !40
  %27 = load i32, i32* %6, align 4, !llfi_index !41
  %28 = sext i32 %27 to i64, !llfi_index !42
  %29 = getelementptr inbounds i32, i32* getelementptr inbounds ([1234567 x i32], [1234567 x i32]* @y, i64 0, i64 0), i64 %28, !llfi_index !43
  %30 = load i32, i32* %6, align 4, !llfi_index !44
  %31 = sext i32 %30 to i64, !llfi_index !45
  %32 = getelementptr inbounds i32, i32* getelementptr inbounds ([1234567 x i32], [1234567 x i32]* @w, i64 0, i64 0), i64 %31, !llfi_index !46
  %33 = call i32 (i8*, ...) @__isoc99_scanf(i8* getelementptr inbounds ([9 x i8], [9 x i8]* @.str.3, i64 0, i64 0), i32* %26, i32* %29, i32* %32), !llfi_index !47
  br label %34, !llfi_index !48

34:                                               ; preds = %23
  %35 = load i32, i32* %6, align 4, !llfi_index !49
  %36 = add nsw i32 %35, 1, !llfi_index !50
  store i32 %36, i32* %6, align 4, !llfi_index !51
  br label %19, !llvm.loop !52, !llfi_index !54

37:                                               ; preds = %19
  store i32 89, i32* %5, align 4, !llfi_index !55
  store i32 0, i32* %7, align 4, !llfi_index !56
  br label %38, !llfi_index !57

38:                                               ; preds = %89, %37
  %39 = load i32, i32* %7, align 4, !llfi_index !58
  %40 = load i32, i32* %2, align 4, !llfi_index !59
  %41 = icmp slt i32 %39, %40, !llfi_index !60
  br i1 %41, label %42, label %92, !llfi_index !61

42:                                               ; preds = %38
  store i32 89, i32* %5, align 4, !llfi_index !62
  store i32 0, i32* %8, align 4, !llfi_index !63
  br label %43, !llfi_index !64

43:                                               ; preds = %85, %42
  %44 = load i32, i32* %8, align 4, !llfi_index !65
  %45 = load i32, i32* %2, align 4, !llfi_index !66
  %46 = icmp slt i32 %44, %45, !llfi_index !67
  br i1 %46, label %47, label %88, !llfi_index !68

47:                                               ; preds = %43
  store i32 0, i32* %9, align 4, !llfi_index !69
  store i32 0, i32* %10, align 4, !llfi_index !70
  br label %48, !llfi_index !71

48:                                               ; preds = %79, %47
  %49 = load i32, i32* %10, align 4, !llfi_index !72
  %50 = load i32, i32* %3, align 4, !llfi_index !73
  %51 = icmp slt i32 %49, %50, !llfi_index !74
  br i1 %51, label %52, label %82, !llfi_index !75

52:                                               ; preds = %48
  %53 = load i32, i32* %10, align 4, !llfi_index !76
  %54 = sext i32 %53 to i64, !llfi_index !77
  %55 = getelementptr inbounds [1234567 x i32], [1234567 x i32]* @x, i64 0, i64 %54, !llfi_index !78
  %56 = load i32, i32* %55, align 4, !llfi_index !79
  %57 = load i32, i32* %7, align 4, !llfi_index !80
  %58 = sub nsw i32 %56, %57, !llfi_index !81
  %59 = call i32 @abs(i32 %58) #7, !llfi_index !82
  store i32 %59, i32* %12, align 4, !llfi_index !83
  %60 = load i32, i32* %10, align 4, !llfi_index !84
  %61 = sext i32 %60 to i64, !llfi_index !85
  %62 = getelementptr inbounds [1234567 x i32], [1234567 x i32]* @y, i64 0, i64 %61, !llfi_index !86
  %63 = load i32, i32* %62, align 4, !llfi_index !87
  %64 = load i32, i32* %8, align 4, !llfi_index !88
  %65 = sub nsw i32 %63, %64, !llfi_index !89
  %66 = call i32 @abs(i32 %65) #7, !llfi_index !90
  store i32 %66, i32* %13, align 4, !llfi_index !91
  %67 = call nonnull align 4 dereferenceable(4) i32* @_ZSt3maxIiERKT_S2_S2_(i32* nonnull align 4 dereferenceable(4) %12, i32* nonnull align 4 dereferenceable(4) %13), !llfi_index !92
  %68 = load i32, i32* %67, align 4, !llfi_index !93
  store i32 %68, i32* %11, align 4, !llfi_index !94
  %69 = load i32, i32* %10, align 4, !llfi_index !95
  %70 = sext i32 %69 to i64, !llfi_index !96
  %71 = getelementptr inbounds [1234567 x i32], [1234567 x i32]* @w, i64 0, i64 %70, !llfi_index !97
  %72 = load i32, i32* %71, align 4, !llfi_index !98
  %73 = load i32, i32* %11, align 4, !llfi_index !99
  %74 = sub nsw i32 %72, %73, !llfi_index !100
  store i32 %74, i32* %14, align 4, !llfi_index !101
  store i32 0, i32* %15, align 4, !llfi_index !102
  %75 = call nonnull align 4 dereferenceable(4) i32* @_ZSt3maxIiERKT_S2_S2_(i32* nonnull align 4 dereferenceable(4) %14, i32* nonnull align 4 dereferenceable(4) %15), !llfi_index !103
  %76 = load i32, i32* %75, align 4, !llfi_index !104
  %77 = load i32, i32* %9, align 4, !llfi_index !105
  %78 = add nsw i32 %77, %76, !llfi_index !106
  store i32 %78, i32* %9, align 4, !llfi_index !107
  br label %79, !llfi_index !108

79:                                               ; preds = %52
  %80 = load i32, i32* %10, align 4, !llfi_index !109
  %81 = add nsw i32 %80, 1, !llfi_index !110
  store i32 %81, i32* %10, align 4, !llfi_index !111
  br label %48, !llvm.loop !112, !llfi_index !113

82:                                               ; preds = %48
  %83 = call nonnull align 4 dereferenceable(4) i32* @_ZSt3maxIiERKT_S2_S2_(i32* nonnull align 4 dereferenceable(4) %4, i32* nonnull align 4 dereferenceable(4) %9), !llfi_index !114
  %84 = load i32, i32* %83, align 4, !llfi_index !115
  store i32 %84, i32* %4, align 4, !llfi_index !116
  br label %85, !llfi_index !117

85:                                               ; preds = %82
  %86 = load i32, i32* %8, align 4, !llfi_index !118
  %87 = add nsw i32 %86, 1, !llfi_index !119
  store i32 %87, i32* %8, align 4, !llfi_index !120
  br label %43, !llvm.loop !121, !llfi_index !122

88:                                               ; preds = %43
  br label %89, !llfi_index !123

89:                                               ; preds = %88
  %90 = load i32, i32* %7, align 4, !llfi_index !124
  %91 = add nsw i32 %90, 1, !llfi_index !125
  store i32 %91, i32* %7, align 4, !llfi_index !126
  br label %38, !llvm.loop !127, !llfi_index !128

92:                                               ; preds = %38
  %93 = load i32, i32* %4, align 4, !llfi_index !129
  %94 = call nonnull align 8 dereferenceable(8) %"class.std::basic_ostream"* @_ZNSolsEi(%"class.std::basic_ostream"* nonnull align 8 dereferenceable(8) @_ZSt4cout, i32 %93), !llfi_index !130
  %95 = call nonnull align 8 dereferenceable(8) %"class.std::basic_ostream"* @_ZNSolsEPFRSoS_E(%"class.std::basic_ostream"* nonnull align 8 dereferenceable(8) %94, %"class.std::basic_ostream"* (%"class.std::basic_ostream"*)* @_ZSt4endlIcSt11char_traitsIcEERSt13basic_ostreamIT_T0_ES6_), !llfi_index !131
  ret i32 0, !llfi_index !132
}

declare dso_local %struct._IO_FILE* @freopen(i8*, i8*, %struct._IO_FILE*) #1

declare dso_local i32 @__isoc99_scanf(i8*, ...) #1

; Function Attrs: nounwind readnone willreturn
declare dso_local i32 @abs(i32) #5

; Function Attrs: mustprogress noinline nounwind uwtable
define linkonce_odr dso_local nonnull align 4 dereferenceable(4) i32* @_ZSt3maxIiERKT_S2_S2_(i32* nonnull align 4 dereferenceable(4) %0, i32* nonnull align 4 dereferenceable(4) %1) #6 comdat {
  %3 = alloca i32*, align 8, !llfi_index !133
  %4 = alloca i32*, align 8, !llfi_index !134
  %5 = alloca i32*, align 8, !llfi_index !135
  store i32* %0, i32** %4, align 8, !llfi_index !136
  store i32* %1, i32** %5, align 8, !llfi_index !137
  %6 = load i32*, i32** %4, align 8, !llfi_index !138
  %7 = load i32, i32* %6, align 4, !llfi_index !139
  %8 = load i32*, i32** %5, align 8, !llfi_index !140
  %9 = load i32, i32* %8, align 4, !llfi_index !141
  %10 = icmp slt i32 %7, %9, !llfi_index !142
  br i1 %10, label %11, label %13, !llfi_index !143

11:                                               ; preds = %2
  %12 = load i32*, i32** %5, align 8, !llfi_index !144
  store i32* %12, i32** %3, align 8, !llfi_index !145
  br label %15, !llfi_index !146

13:                                               ; preds = %2
  %14 = load i32*, i32** %4, align 8, !llfi_index !147
  store i32* %14, i32** %3, align 8, !llfi_index !148
  br label %15, !llfi_index !149

15:                                               ; preds = %13, %11
  %16 = load i32*, i32** %3, align 8, !llfi_index !150
  ret i32* %16, !llfi_index !151
}

declare dso_local nonnull align 8 dereferenceable(8) %"class.std::basic_ostream"* @_ZNSolsEi(%"class.std::basic_ostream"* nonnull align 8 dereferenceable(8), i32) #1

declare dso_local nonnull align 8 dereferenceable(8) %"class.std::basic_ostream"* @_ZSt4endlIcSt11char_traitsIcEERSt13basic_ostreamIT_T0_ES6_(%"class.std::basic_ostream"* nonnull align 8 dereferenceable(8)) #1

declare dso_local nonnull align 8 dereferenceable(8) %"class.std::basic_ostream"* @_ZNSolsEPFRSoS_E(%"class.std::basic_ostream"* nonnull align 8 dereferenceable(8), %"class.std::basic_ostream"* (%"class.std::basic_ostream"*)*) #1

attributes #0 = { noinline uwtable "frame-pointer"="all" "min-legal-vector-width"="0" "no-trapping-math"="true" "stack-protector-buffer-size"="8" "target-cpu"="x86-64" "target-features"="+cx8,+fxsr,+mmx,+sse,+sse2,+x87" "tune-cpu"="generic" }
attributes #1 = { "frame-pointer"="all" "no-trapping-math"="true" "stack-protector-buffer-size"="8" "target-cpu"="x86-64" "target-features"="+cx8,+fxsr,+mmx,+sse,+sse2,+x87" "tune-cpu"="generic" }
attributes #2 = { nounwind }
attributes #3 = { nounwind "frame-pointer"="all" "no-trapping-math"="true" "stack-protector-buffer-size"="8" "target-cpu"="x86-64" "target-features"="+cx8,+fxsr,+mmx,+sse,+sse2,+x87" "tune-cpu"="generic" }
attributes #4 = { mustprogress noinline norecurse uwtable "frame-pointer"="all" "min-legal-vector-width"="0" "no-trapping-math"="true" "stack-protector-buffer-size"="8" "target-cpu"="x86-64" "target-features"="+cx8,+fxsr,+mmx,+sse,+sse2,+x87" "tune-cpu"="generic" }
attributes #5 = { nounwind readnone willreturn "frame-pointer"="all" "no-trapping-math"="true" "stack-protector-buffer-size"="8" "target-cpu"="x86-64" "target-features"="+cx8,+fxsr,+mmx,+sse,+sse2,+x87" "tune-cpu"="generic" }
attributes #6 = { mustprogress noinline nounwind uwtable "frame-pointer"="all" "min-legal-vector-width"="0" "no-trapping-math"="true" "stack-protector-buffer-size"="8" "target-cpu"="x86-64" "target-features"="+cx8,+fxsr,+mmx,+sse,+sse2,+x87" "tune-cpu"="generic" }
attributes #7 = { nounwind readnone willreturn }

!llvm.ident = !{!0}
!llvm.module.flags = !{!1, !2, !3}

!0 = !{!"clang version 13.0.0 (https://github.com/llvm/llvm-project.git d7b669b3a30345cfcdb2fde2af6f48aa4b94845d)"}
!1 = !{i32 1, !"wchar_size", i32 4}
!2 = !{i32 7, !"uwtable", i32 1}
!3 = !{i32 7, !"frame-pointer", i32 2}
!4 = !{i64 1}
!5 = !{i64 2}
!6 = !{i64 3}
!7 = !{i64 4}
!8 = !{i64 5}
!9 = !{i64 6}
!10 = !{i64 7}
!11 = !{i64 8}
!12 = !{i64 9}
!13 = !{i64 10}
!14 = !{i64 11}
!15 = !{i64 12}
!16 = !{i64 13}
!17 = !{i64 14}
!18 = !{i64 15}
!19 = !{i64 16}
!20 = !{i64 17}
!21 = !{i64 18}
!22 = !{i64 19}
!23 = !{i64 20}
!24 = !{i64 21}
!25 = !{i64 22}
!26 = !{i64 23}
!27 = !{i64 24}
!28 = !{i64 25}
!29 = !{i64 26}
!30 = !{i64 27}
!31 = !{i64 28}
!32 = !{i64 29}
!33 = !{i64 30}
!34 = !{i64 31}
!35 = !{i64 32}
!36 = !{i64 33}
!37 = !{i64 34}
!38 = !{i64 35}
!39 = !{i64 36}
!40 = !{i64 37}
!41 = !{i64 38}
!42 = !{i64 39}
!43 = !{i64 40}
!44 = !{i64 41}
!45 = !{i64 42}
!46 = !{i64 43}
!47 = !{i64 44}
!48 = !{i64 45}
!49 = !{i64 46}
!50 = !{i64 47}
!51 = !{i64 48}
!52 = distinct !{!52, !53}
!53 = !{!"llvm.loop.mustprogress"}
!54 = !{i64 49}
!55 = !{i64 50}
!56 = !{i64 51}
!57 = !{i64 52}
!58 = !{i64 53}
!59 = !{i64 54}
!60 = !{i64 55}
!61 = !{i64 56}
!62 = !{i64 57}
!63 = !{i64 58}
!64 = !{i64 59}
!65 = !{i64 60}
!66 = !{i64 61}
!67 = !{i64 62}
!68 = !{i64 63}
!69 = !{i64 64}
!70 = !{i64 65}
!71 = !{i64 66}
!72 = !{i64 67}
!73 = !{i64 68}
!74 = !{i64 69}
!75 = !{i64 70}
!76 = !{i64 71}
!77 = !{i64 72}
!78 = !{i64 73}
!79 = !{i64 74}
!80 = !{i64 75}
!81 = !{i64 76}
!82 = !{i64 77}
!83 = !{i64 78}
!84 = !{i64 79}
!85 = !{i64 80}
!86 = !{i64 81}
!87 = !{i64 82}
!88 = !{i64 83}
!89 = !{i64 84}
!90 = !{i64 85}
!91 = !{i64 86}
!92 = !{i64 87}
!93 = !{i64 88}
!94 = !{i64 89}
!95 = !{i64 90}
!96 = !{i64 91}
!97 = !{i64 92}
!98 = !{i64 93}
!99 = !{i64 94}
!100 = !{i64 95}
!101 = !{i64 96}
!102 = !{i64 97}
!103 = !{i64 98}
!104 = !{i64 99}
!105 = !{i64 100}
!106 = !{i64 101}
!107 = !{i64 102}
!108 = !{i64 103}
!109 = !{i64 104}
!110 = !{i64 105}
!111 = !{i64 106}
!112 = distinct !{!112, !53}
!113 = !{i64 107}
!114 = !{i64 108}
!115 = !{i64 109}
!116 = !{i64 110}
!117 = !{i64 111}
!118 = !{i64 112}
!119 = !{i64 113}
!120 = !{i64 114}
!121 = distinct !{!121, !53}
!122 = !{i64 115}
!123 = !{i64 116}
!124 = !{i64 117}
!125 = !{i64 118}
!126 = !{i64 119}
!127 = distinct !{!127, !53}
!128 = !{i64 120}
!129 = !{i64 121}
!130 = !{i64 122}
!131 = !{i64 123}
!132 = !{i64 124}
!133 = !{i64 125}
!134 = !{i64 126}
!135 = !{i64 127}
!136 = !{i64 128}
!137 = !{i64 129}
!138 = !{i64 130}
!139 = !{i64 131}
!140 = !{i64 132}
!141 = !{i64 133}
!142 = !{i64 134}
!143 = !{i64 135}
!144 = !{i64 136}
!145 = !{i64 137}
!146 = !{i64 138}
!147 = !{i64 139}
!148 = !{i64 140}
!149 = !{i64 141}
!150 = !{i64 142}
!151 = !{i64 143}
