; ModuleID = '/home/hjiang/Computation-Kernel-Dataset/experiments/Fault_injection_0308_parall/O0/ExtraSweet/ExtraSweet.ll'
source_filename = "llvm-link"
target datalayout = "e-m:e-p270:32:32-p271:32:32-p272:64:64-i64:64-f80:128-n8:16:32:64-S128"
target triple = "x86_64-unknown-linux-gnu"

%"struct.std::less" = type { i8 }
%"class.std::map" = type { %"class.std::_Rb_tree" }
%"class.std::_Rb_tree" = type { %"struct.std::_Rb_tree<int, std::pair<const int, int>, std::_Select1st<std::pair<const int, int>>, std::less<int>>::_Rb_tree_impl" }
%"struct.std::_Rb_tree<int, std::pair<const int, int>, std::_Select1st<std::pair<const int, int>>, std::less<int>>::_Rb_tree_impl" = type { %"struct.std::_Rb_tree_key_compare", %"struct.std::_Rb_tree_header" }
%"struct.std::_Rb_tree_key_compare" = type { %"struct.std::less" }
%"struct.std::_Rb_tree_header" = type { %"struct.std::_Rb_tree_node_base", i64 }
%"struct.std::_Rb_tree_node_base" = type { i32, %"struct.std::_Rb_tree_node_base"*, %"struct.std::_Rb_tree_node_base"*, %"struct.std::_Rb_tree_node_base"* }
%struct._IO_FILE = type { i32, i8*, i8*, i8*, i8*, i8*, i8*, i8*, i8*, i8*, i8*, i8*, %struct._IO_marker*, %struct._IO_FILE*, i32, i32, i64, i16, i8, [1 x i8], i8*, i64, %struct._IO_codecvt*, %struct._IO_wide_data*, %struct._IO_FILE*, i8*, i64, i32, [20 x i8] }
%struct._IO_marker = type opaque
%struct._IO_codecvt = type opaque
%struct._IO_wide_data = type opaque
%"class.std::basic_istream" = type { i32 (...)**, i64, %"class.std::basic_ios" }
%"class.std::basic_ios" = type { %"class.std::ios_base", %"class.std::basic_ostream"*, i8, i8, %"class.std::basic_streambuf"*, %"class.std::ctype"*, %"class.std::num_put"*, %"class.std::num_put"* }
%"class.std::ios_base" = type { i32 (...)**, i64, i64, i32, i32, i32, %"struct.std::ios_base::_Callback_list"*, %"struct.std::ios_base::_Words", [8 x %"struct.std::ios_base::_Words"], i32, %"struct.std::ios_base::_Words"*, %"class.std::locale" }
%"struct.std::ios_base::_Callback_list" = type { %"struct.std::ios_base::_Callback_list"*, void (i32, %"class.std::ios_base"*, i32)*, i32, i32 }
%"struct.std::ios_base::_Words" = type { i8*, i64 }
%"class.std::locale" = type { %"class.std::locale::_Impl"* }
%"class.std::locale::_Impl" = type { i32, %"class.std::locale::facet"**, i64, %"class.std::locale::facet"**, i8** }
%"class.std::locale::facet" = type <{ i32 (...)**, i32, [4 x i8] }>
%"class.std::basic_ostream" = type { i32 (...)**, %"class.std::basic_ios" }
%"class.std::basic_streambuf" = type { i32 (...)**, i8*, i8*, i8*, i8*, i8*, i8*, %"class.std::locale" }
%"class.std::ctype" = type <{ %"class.std::locale::facet.base", [4 x i8], %struct.__locale_struct*, i8, [7 x i8], i32*, i32*, i16*, i8, [256 x i8], [256 x i8], i8, [6 x i8] }>
%"class.std::locale::facet.base" = type <{ i32 (...)**, i32 }>
%struct.__locale_struct = type { [13 x %struct.__locale_data*], i16*, i32*, i32*, [13 x i8*] }
%struct.__locale_data = type opaque
%"class.std::num_put" = type { %"class.std::locale::facet.base", [4 x i8] }
%"struct.std::_Rb_tree_node" = type { %"struct.std::_Rb_tree_node_base", %"struct.__gnu_cxx::__aligned_membuf" }
%"struct.__gnu_cxx::__aligned_membuf" = type { [8 x i8] }
%"struct.std::pair" = type { i32, i32 }
%"struct.std::_Rb_tree_iterator" = type { %"struct.std::_Rb_tree_node_base"* }
%"class.std::tuple" = type { %"struct.std::_Tuple_impl" }
%"struct.std::_Tuple_impl" = type { %"struct.std::_Head_base" }
%"struct.std::_Head_base" = type { i32* }
%"struct.std::pair.1" = type { %"struct.std::_Rb_tree_node_base"*, %"struct.std::_Rb_tree_node_base"* }
%"struct.std::pair.5" = type { %"struct.std::_Rb_tree_iterator", %"struct.std::_Rb_tree_iterator" }

$_ZNSt3mapIiiSt4lessIiESaISt4pairIKiiEEEC2Ev = comdat any

$_ZNSt3mapIiiSt4lessIiESaISt4pairIKiiEEED2Ev = comdat any

$_ZNSt8_Rb_treeIiSt4pairIKiiESt10_Select1stIS2_ESt4lessIiESaIS2_EED2Ev = comdat any

$_ZNSt8_Rb_treeIiSt4pairIKiiESt10_Select1stIS2_ESt4lessIiESaIS2_EE8_M_beginEv = comdat any

$_ZNSt8_Rb_treeIiSt4pairIKiiESt10_Select1stIS2_ESt4lessIiESaIS2_EE8_M_eraseEPSt13_Rb_tree_nodeIS2_E = comdat any

$_ZNSt8_Rb_treeIiSt4pairIKiiESt10_Select1stIS2_ESt4lessIiESaIS2_EE13_Rb_tree_implIS6_Lb1EED2Ev = comdat any

$__clang_call_terminate = comdat any

$_ZNSaISt13_Rb_tree_nodeISt4pairIKiiEEED2Ev = comdat any

$_ZN9__gnu_cxx13new_allocatorISt13_Rb_tree_nodeISt4pairIKiiEEED2Ev = comdat any

$_ZNSt8_Rb_treeIiSt4pairIKiiESt10_Select1stIS2_ESt4lessIiESaIS2_EE8_S_rightEPSt18_Rb_tree_node_base = comdat any

$_ZNSt8_Rb_treeIiSt4pairIKiiESt10_Select1stIS2_ESt4lessIiESaIS2_EE7_S_leftEPSt18_Rb_tree_node_base = comdat any

$_ZNSt8_Rb_treeIiSt4pairIKiiESt10_Select1stIS2_ESt4lessIiESaIS2_EE12_M_drop_nodeEPSt13_Rb_tree_nodeIS2_E = comdat any

$_ZNSt8_Rb_treeIiSt4pairIKiiESt10_Select1stIS2_ESt4lessIiESaIS2_EE15_M_destroy_nodeEPSt13_Rb_tree_nodeIS2_E = comdat any

$_ZNSt8_Rb_treeIiSt4pairIKiiESt10_Select1stIS2_ESt4lessIiESaIS2_EE11_M_put_nodeEPSt13_Rb_tree_nodeIS2_E = comdat any

$_ZNSt8_Rb_treeIiSt4pairIKiiESt10_Select1stIS2_ESt4lessIiESaIS2_EE21_M_get_Node_allocatorEv = comdat any

$_ZNSt16allocator_traitsISaISt13_Rb_tree_nodeISt4pairIKiiEEEE10deallocateERS5_PS4_m = comdat any

$_ZN9__gnu_cxx13new_allocatorISt13_Rb_tree_nodeISt4pairIKiiEEE10deallocateEPS5_m = comdat any

$_ZNSt13_Rb_tree_nodeISt4pairIKiiEE9_M_valptrEv = comdat any

$_ZNSt16allocator_traitsISaISt13_Rb_tree_nodeISt4pairIKiiEEEE7destroyIS3_EEvRS5_PT_ = comdat any

$_ZN9__gnu_cxx13new_allocatorISt13_Rb_tree_nodeISt4pairIKiiEEE7destroyIS4_EEvPT_ = comdat any

$_ZN9__gnu_cxx16__aligned_membufISt4pairIKiiEE6_M_ptrEv = comdat any

$_ZN9__gnu_cxx16__aligned_membufISt4pairIKiiEE7_M_addrEv = comdat any

$_ZNSt8_Rb_treeIiSt4pairIKiiESt10_Select1stIS2_ESt4lessIiESaIS2_EEC2Ev = comdat any

$_ZNSt8_Rb_treeIiSt4pairIKiiESt10_Select1stIS2_ESt4lessIiESaIS2_EE13_Rb_tree_implIS6_Lb1EEC2Ev = comdat any

$_ZNSaISt13_Rb_tree_nodeISt4pairIKiiEEEC2Ev = comdat any

$_ZNSt20_Rb_tree_key_compareISt4lessIiEEC2Ev = comdat any

$_ZNSt15_Rb_tree_headerC2Ev = comdat any

$_ZNSt15_Rb_tree_header8_M_resetEv = comdat any

$_ZN9__gnu_cxx13new_allocatorISt13_Rb_tree_nodeISt4pairIKiiEEEC2Ev = comdat any

$_ZNKSt3mapIiiSt4lessIiESaISt4pairIKiiEEE5countERS3_ = comdat any

$_ZNSt3mapIiiSt4lessIiESaISt4pairIKiiEEEixEOi = comdat any

$_ZNSt3mapIiiSt4lessIiESaISt4pairIKiiEEE11lower_boundERS3_ = comdat any

$_ZNSt3mapIiiSt4lessIiESaISt4pairIKiiEEE3endEv = comdat any

$_ZSteqRKSt17_Rb_tree_iteratorISt4pairIKiiEES5_ = comdat any

$_ZNKSt3mapIiiSt4lessIiESaISt4pairIKiiEEE8key_compEv = comdat any

$_ZNKSt17_Rb_tree_iteratorISt4pairIKiiEEdeEv = comdat any

$_ZNKSt4lessIiEclERKiS2_ = comdat any

$_ZNSt23_Rb_tree_const_iteratorISt4pairIKiiEEC2ERKSt17_Rb_tree_iteratorIS2_E = comdat any

$_ZSt4moveIRiEONSt16remove_referenceIT_E4typeEOS2_ = comdat any

$_ZSt16forward_as_tupleIJiEESt5tupleIJDpOT_EES3_ = comdat any

$_ZNSt8_Rb_treeIiSt4pairIKiiESt10_Select1stIS2_ESt4lessIiESaIS2_EE22_M_emplace_hint_uniqueIJRKSt21piecewise_construct_tSt5tupleIJOiEESD_IJEEEEESt17_Rb_tree_iteratorIS2_ESt23_Rb_tree_const_iteratorIS2_EDpOT_ = comdat any

$_ZSt7forwardIRKSt21piecewise_construct_tEOT_RNSt16remove_referenceIS3_E4typeE = comdat any

$_ZSt7forwardISt5tupleIJOiEEEOT_RNSt16remove_referenceIS3_E4typeE = comdat any

$_ZSt7forwardISt5tupleIJEEEOT_RNSt16remove_referenceIS2_E4typeE = comdat any

$_ZNSt8_Rb_treeIiSt4pairIKiiESt10_Select1stIS2_ESt4lessIiESaIS2_EE14_M_create_nodeIJRKSt21piecewise_construct_tSt5tupleIJOiEESD_IJEEEEEPSt13_Rb_tree_nodeIS2_EDpOT_ = comdat any

$_ZNSt8_Rb_treeIiSt4pairIKiiESt10_Select1stIS2_ESt4lessIiESaIS2_EE6_S_keyEPKSt13_Rb_tree_nodeIS2_E = comdat any

$_ZNSt8_Rb_treeIiSt4pairIKiiESt10_Select1stIS2_ESt4lessIiESaIS2_EE29_M_get_insert_hint_unique_posESt23_Rb_tree_const_iteratorIS2_ERS1_ = comdat any

$_ZNSt8_Rb_treeIiSt4pairIKiiESt10_Select1stIS2_ESt4lessIiESaIS2_EE14_M_insert_nodeEPSt18_Rb_tree_node_baseSA_PSt13_Rb_tree_nodeIS2_E = comdat any

$_ZNSt17_Rb_tree_iteratorISt4pairIKiiEEC2EPSt18_Rb_tree_node_base = comdat any

$_ZNSt8_Rb_treeIiSt4pairIKiiESt10_Select1stIS2_ESt4lessIiESaIS2_EE6_M_endEv = comdat any

$_ZNSt8_Rb_treeIiSt4pairIKiiESt10_Select1stIS2_ESt4lessIiESaIS2_EE6_S_keyEPKSt18_Rb_tree_node_base = comdat any

$_ZNKSt23_Rb_tree_const_iteratorISt4pairIKiiEE13_M_const_castEv = comdat any

$_ZNKSt8_Rb_treeIiSt4pairIKiiESt10_Select1stIS2_ESt4lessIiESaIS2_EE4sizeEv = comdat any

$_ZNSt8_Rb_treeIiSt4pairIKiiESt10_Select1stIS2_ESt4lessIiESaIS2_EE12_M_rightmostEv = comdat any

$_ZNSt4pairIPSt18_Rb_tree_node_baseS1_EC2IRS1_Lb1EEERKS1_OT_ = comdat any

$_ZNSt8_Rb_treeIiSt4pairIKiiESt10_Select1stIS2_ESt4lessIiESaIS2_EE24_M_get_insert_unique_posERS1_ = comdat any

$_ZNSt8_Rb_treeIiSt4pairIKiiESt10_Select1stIS2_ESt4lessIiESaIS2_EE11_M_leftmostEv = comdat any

$_ZNSt4pairIPSt18_Rb_tree_node_baseS1_EC2IRS1_S4_Lb1EEEOT_OT0_ = comdat any

$_ZNSt17_Rb_tree_iteratorISt4pairIKiiEEmmEv = comdat any

$_ZNSt17_Rb_tree_iteratorISt4pairIKiiEEppEv = comdat any

$_ZNSt4pairIPSt18_Rb_tree_node_baseS1_EC2IRS1_Lb1EEEOT_RKS1_ = comdat any

$_ZSt7forwardIRPSt18_Rb_tree_node_baseEOT_RNSt16remove_referenceIS3_E4typeE = comdat any

$_ZNSt8_Rb_treeIiSt4pairIKiiESt10_Select1stIS2_ESt4lessIiESaIS2_EE5beginEv = comdat any

$_ZNSt4pairIPSt18_Rb_tree_node_baseS1_EC2IRPSt13_Rb_tree_nodeIS_IKiiEERS1_Lb1EEEOT_OT0_ = comdat any

$_ZSt7forwardIRPSt13_Rb_tree_nodeISt4pairIKiiEEEOT_RNSt16remove_referenceIS7_E4typeE = comdat any

$_ZNKSt13_Rb_tree_nodeISt4pairIKiiEE9_M_valptrEv = comdat any

$_ZNKSt10_Select1stISt4pairIKiiEEclERKS2_ = comdat any

$_ZNK9__gnu_cxx16__aligned_membufISt4pairIKiiEE6_M_ptrEv = comdat any

$_ZNK9__gnu_cxx16__aligned_membufISt4pairIKiiEE7_M_addrEv = comdat any

$_ZNSt8_Rb_treeIiSt4pairIKiiESt10_Select1stIS2_ESt4lessIiESaIS2_EE11_M_get_nodeEv = comdat any

$_ZNSt8_Rb_treeIiSt4pairIKiiESt10_Select1stIS2_ESt4lessIiESaIS2_EE17_M_construct_nodeIJRKSt21piecewise_construct_tSt5tupleIJOiEESD_IJEEEEEvPSt13_Rb_tree_nodeIS2_EDpOT_ = comdat any

$_ZNSt16allocator_traitsISaISt13_Rb_tree_nodeISt4pairIKiiEEEE9constructIS3_JRKSt21piecewise_construct_tSt5tupleIJOiEESB_IJEEEEEvRS5_PT_DpOT0_ = comdat any

$_ZN9__gnu_cxx13new_allocatorISt13_Rb_tree_nodeISt4pairIKiiEEE9constructIS4_JRKSt21piecewise_construct_tSt5tupleIJOiEESB_IJEEEEEvPT_DpOT0_ = comdat any

$_ZNSt5tupleIJOiEEC2EOS1_ = comdat any

$_ZNSt4pairIKiiEC2IJOiEJEEESt21piecewise_construct_tSt5tupleIJDpT_EES5_IJDpT0_EE = comdat any

$_ZNSt4pairIKiiEC2IJOiEJLm0EEJEJEEERSt5tupleIJDpT_EERS4_IJDpT1_EESt12_Index_tupleIJXspT0_EEESD_IJXspT2_EEE = comdat any

$_ZSt3getILm0EJOiEERNSt13tuple_elementIXT_ESt5tupleIJDpT0_EEE4typeERS5_ = comdat any

$_ZSt7forwardIOiEOT_RNSt16remove_referenceIS1_E4typeE = comdat any

$_ZSt12__get_helperILm0EOiJEERT0_RSt11_Tuple_implIXT_EJS1_DpT1_EE = comdat any

$_ZNSt11_Tuple_implILm0EJOiEE7_M_headERS1_ = comdat any

$_ZNSt10_Head_baseILm0EOiLb0EE7_M_headERS1_ = comdat any

$_ZNSt11_Tuple_implILm0EJOiEEC2EOS1_ = comdat any

$_ZNSt10_Head_baseILm0EOiLb0EEC2IiEEOT_ = comdat any

$_ZSt7forwardIiEOT_RNSt16remove_referenceIS0_E4typeE = comdat any

$_ZNSt16allocator_traitsISaISt13_Rb_tree_nodeISt4pairIKiiEEEE8allocateERS5_m = comdat any

$_ZN9__gnu_cxx13new_allocatorISt13_Rb_tree_nodeISt4pairIKiiEEE8allocateEmPKv = comdat any

$_ZNK9__gnu_cxx13new_allocatorISt13_Rb_tree_nodeISt4pairIKiiEEE8max_sizeEv = comdat any

$_ZNSt5tupleIJOiEEC2IJiELb1EEEDpOT_ = comdat any

$_ZNSt11_Tuple_implILm0EJOiEEC2IiEEOT_ = comdat any

$_ZNKSt8_Rb_treeIiSt4pairIKiiESt10_Select1stIS2_ESt4lessIiESaIS2_EE8key_compEv = comdat any

$_ZNSt8_Rb_treeIiSt4pairIKiiESt10_Select1stIS2_ESt4lessIiESaIS2_EE3endEv = comdat any

$_ZNSt8_Rb_treeIiSt4pairIKiiESt10_Select1stIS2_ESt4lessIiESaIS2_EE11lower_boundERS1_ = comdat any

$_ZNSt8_Rb_treeIiSt4pairIKiiESt10_Select1stIS2_ESt4lessIiESaIS2_EE14_M_lower_boundEPSt13_Rb_tree_nodeIS2_EPSt18_Rb_tree_node_baseRS1_ = comdat any

$_ZNKSt8_Rb_treeIiSt4pairIKiiESt10_Select1stIS2_ESt4lessIiESaIS2_EE4findERS1_ = comdat any

$_ZNKSt8_Rb_treeIiSt4pairIKiiESt10_Select1stIS2_ESt4lessIiESaIS2_EE3endEv = comdat any

$_ZSteqRKSt23_Rb_tree_const_iteratorISt4pairIKiiEES5_ = comdat any

$_ZNSt23_Rb_tree_const_iteratorISt4pairIKiiEEC2EPKSt18_Rb_tree_node_base = comdat any

$_ZNKSt8_Rb_treeIiSt4pairIKiiESt10_Select1stIS2_ESt4lessIiESaIS2_EE8_M_beginEv = comdat any

$_ZNKSt8_Rb_treeIiSt4pairIKiiESt10_Select1stIS2_ESt4lessIiESaIS2_EE6_M_endEv = comdat any

$_ZNKSt8_Rb_treeIiSt4pairIKiiESt10_Select1stIS2_ESt4lessIiESaIS2_EE14_M_lower_boundEPKSt13_Rb_tree_nodeIS2_EPKSt18_Rb_tree_node_baseRS1_ = comdat any

$_ZNSt8_Rb_treeIiSt4pairIKiiESt10_Select1stIS2_ESt4lessIiESaIS2_EE7_S_leftEPKSt18_Rb_tree_node_base = comdat any

$_ZNSt8_Rb_treeIiSt4pairIKiiESt10_Select1stIS2_ESt4lessIiESaIS2_EE8_S_rightEPKSt18_Rb_tree_node_base = comdat any

$_ZNSt3mapIiiSt4lessIiESaISt4pairIKiiEEE5eraseERS3_ = comdat any

$_ZNSt3mapIiiSt4lessIiESaISt4pairIKiiEEEixERS3_ = comdat any

$_ZNSt5tupleIJRKiEEC2IvLb1EEES1_ = comdat any

$_ZNSt8_Rb_treeIiSt4pairIKiiESt10_Select1stIS2_ESt4lessIiESaIS2_EE22_M_emplace_hint_uniqueIJRKSt21piecewise_construct_tSt5tupleIJRS1_EESD_IJEEEEESt17_Rb_tree_iteratorIS2_ESt23_Rb_tree_const_iteratorIS2_EDpOT_ = comdat any

$_ZSt7forwardISt5tupleIJRKiEEEOT_RNSt16remove_referenceIS4_E4typeE = comdat any

$_ZNSt8_Rb_treeIiSt4pairIKiiESt10_Select1stIS2_ESt4lessIiESaIS2_EE14_M_create_nodeIJRKSt21piecewise_construct_tSt5tupleIJRS1_EESD_IJEEEEEPSt13_Rb_tree_nodeIS2_EDpOT_ = comdat any

$_ZNSt8_Rb_treeIiSt4pairIKiiESt10_Select1stIS2_ESt4lessIiESaIS2_EE17_M_construct_nodeIJRKSt21piecewise_construct_tSt5tupleIJRS1_EESD_IJEEEEEvPSt13_Rb_tree_nodeIS2_EDpOT_ = comdat any

$_ZNSt16allocator_traitsISaISt13_Rb_tree_nodeISt4pairIKiiEEEE9constructIS3_JRKSt21piecewise_construct_tSt5tupleIJRS2_EESB_IJEEEEEvRS5_PT_DpOT0_ = comdat any

$_ZN9__gnu_cxx13new_allocatorISt13_Rb_tree_nodeISt4pairIKiiEEE9constructIS4_JRKSt21piecewise_construct_tSt5tupleIJRS3_EESB_IJEEEEEvPT_DpOT0_ = comdat any

$_ZNSt5tupleIJRKiEEC2EOS2_ = comdat any

$_ZNSt4pairIKiiEC2IJRS0_EJEEESt21piecewise_construct_tSt5tupleIJDpT_EES5_IJDpT0_EE = comdat any

$_ZNSt4pairIKiiEC2IJRS0_EJLm0EEJEJEEERSt5tupleIJDpT_EERS4_IJDpT1_EESt12_Index_tupleIJXspT0_EEESD_IJXspT2_EEE = comdat any

$_ZSt3getILm0EJRKiEERNSt13tuple_elementIXT_ESt5tupleIJDpT0_EEE4typeERS6_ = comdat any

$_ZSt7forwardIRKiEOT_RNSt16remove_referenceIS2_E4typeE = comdat any

$_ZSt12__get_helperILm0ERKiJEERT0_RSt11_Tuple_implIXT_EJS2_DpT1_EE = comdat any

$_ZNSt11_Tuple_implILm0EJRKiEE7_M_headERS2_ = comdat any

$_ZNSt10_Head_baseILm0ERKiLb0EE7_M_headERS2_ = comdat any

$_ZNSt11_Tuple_implILm0EJRKiEEC2EOS2_ = comdat any

$_ZNSt10_Head_baseILm0ERKiLb0EEC2ES1_ = comdat any

$_ZNSt11_Tuple_implILm0EJRKiEEC2ES1_ = comdat any

$_ZNSt8_Rb_treeIiSt4pairIKiiESt10_Select1stIS2_ESt4lessIiESaIS2_EE5eraseERS1_ = comdat any

$_ZNSt8_Rb_treeIiSt4pairIKiiESt10_Select1stIS2_ESt4lessIiESaIS2_EE11equal_rangeERS1_ = comdat any

$_ZNSt8_Rb_treeIiSt4pairIKiiESt10_Select1stIS2_ESt4lessIiESaIS2_EE12_M_erase_auxESt23_Rb_tree_const_iteratorIS2_ESA_ = comdat any

$_ZNSt8_Rb_treeIiSt4pairIKiiESt10_Select1stIS2_ESt4lessIiESaIS2_EE5clearEv = comdat any

$_ZStneRKSt23_Rb_tree_const_iteratorISt4pairIKiiEES5_ = comdat any

$_ZNSt23_Rb_tree_const_iteratorISt4pairIKiiEEppEi = comdat any

$_ZNSt8_Rb_treeIiSt4pairIKiiESt10_Select1stIS2_ESt4lessIiESaIS2_EE12_M_erase_auxESt23_Rb_tree_const_iteratorIS2_E = comdat any

$_ZNSt8_Rb_treeIiSt4pairIKiiESt10_Select1stIS2_ESt4lessIiESaIS2_EE14_M_upper_boundEPSt13_Rb_tree_nodeIS2_EPSt18_Rb_tree_node_baseRS1_ = comdat any

$_ZNSt4pairISt17_Rb_tree_iteratorIS_IKiiEES3_EC2IS3_S3_Lb1EEEOT_OT0_ = comdat any

$_ZSt7forwardISt17_Rb_tree_iteratorISt4pairIKiiEEEOT_RNSt16remove_referenceIS5_E4typeE = comdat any

@llvm.global_ctors = appending global [1 x { i32, void ()*, i8* }] [{ i32, void ()*, i8* } { i32 65535, void ()* @_GLOBAL__sub_I_ExtraSweet.cpp, i8* null }]
@_ZStL8__ioinit = internal global %"struct.std::less" zeroinitializer, align 1
@n = dso_local global i32 0, align 4
@takenRight = dso_local global %"class.std::map" zeroinitializer, align 8
@takenLeft = dso_local global %"class.std::map" zeroinitializer, align 8
@.str = private unnamed_addr constant [26 x i8] c"../input_files/ExtraSweet\00", align 1
@.str.3 = private unnamed_addr constant [2 x i8] c"r\00", align 1
@stdin = external dso_local global %struct._IO_FILE*, align 8
@_ZSt3cin = external dso_local global %"class.std::basic_istream", align 8
@_ZSt4cout = external dso_local global %"class.std::basic_ostream", align 8
@.str.4 = private unnamed_addr constant [2 x i8] c"\0A\00", align 1
@_ZStL19piecewise_construct = internal constant %"struct.std::less" undef, align 1

; Function Attrs: noinline uwtable
define internal void @_GLOBAL__sub_I_ExtraSweet.cpp() #0 section ".text.startup" {
  call void @__cxx_global_var_init(), !llfi_index !4
  call void @__cxx_global_var_init.1(), !llfi_index !5
  call void @__cxx_global_var_init.2(), !llfi_index !6
  ret void, !llfi_index !7
}

; Function Attrs: noinline uwtable
define internal void @__cxx_global_var_init() #0 section ".text.startup" {
  call void @_ZNSt8ios_base4InitC1Ev(%"struct.std::less"* nonnull align 1 dereferenceable(1) @_ZStL8__ioinit), !llfi_index !8
  %1 = call i32 @atexit(void ()* @__dtor__ZStL8__ioinit) #2, !llfi_index !9
  ret void, !llfi_index !10
}

; Function Attrs: noinline uwtable
define internal void @__cxx_global_var_init.1() #0 section ".text.startup" {
  call void @_ZNSt3mapIiiSt4lessIiESaISt4pairIKiiEEEC2Ev(%"class.std::map"* nonnull align 8 dereferenceable(48) @takenRight) #2, !llfi_index !11
  %1 = call i32 @atexit(void ()* @__dtor_takenRight) #2, !llfi_index !12
  ret void, !llfi_index !13
}

; Function Attrs: noinline uwtable
define internal void @__cxx_global_var_init.2() #0 section ".text.startup" {
  call void @_ZNSt3mapIiiSt4lessIiESaISt4pairIKiiEEEC2Ev(%"class.std::map"* nonnull align 8 dereferenceable(48) @takenLeft) #2, !llfi_index !14
  %1 = call i32 @atexit(void ()* @__dtor_takenLeft) #2, !llfi_index !15
  ret void, !llfi_index !16
}

; Function Attrs: noinline nounwind uwtable
define linkonce_odr dso_local void @_ZNSt3mapIiiSt4lessIiESaISt4pairIKiiEEEC2Ev(%"class.std::map"* nonnull align 8 dereferenceable(48) %0) unnamed_addr #1 comdat align 2 {
  %2 = alloca %"class.std::map"*, align 8, !llfi_index !17
  store %"class.std::map"* %0, %"class.std::map"** %2, align 8, !llfi_index !18
  %3 = load %"class.std::map"*, %"class.std::map"** %2, align 8, !llfi_index !19
  %4 = getelementptr inbounds %"class.std::map", %"class.std::map"* %3, i32 0, i32 0, !llfi_index !20
  call void @_ZNSt8_Rb_treeIiSt4pairIKiiESt10_Select1stIS2_ESt4lessIiESaIS2_EEC2Ev(%"class.std::_Rb_tree"* nonnull align 8 dereferenceable(48) %4) #2, !llfi_index !21
  ret void, !llfi_index !22
}

; Function Attrs: noinline uwtable
define internal void @__dtor_takenLeft() #0 section ".text.startup" {
  call void @_ZNSt3mapIiiSt4lessIiESaISt4pairIKiiEEED2Ev(%"class.std::map"* @takenLeft), !llfi_index !23
  ret void, !llfi_index !24
}

; Function Attrs: nounwind
declare dso_local i32 @atexit(void ()*) #2

; Function Attrs: noinline nounwind uwtable
define linkonce_odr dso_local void @_ZNSt3mapIiiSt4lessIiESaISt4pairIKiiEEED2Ev(%"class.std::map"* nonnull align 8 dereferenceable(48) %0) unnamed_addr #1 comdat align 2 {
  %2 = alloca %"class.std::map"*, align 8, !llfi_index !25
  store %"class.std::map"* %0, %"class.std::map"** %2, align 8, !llfi_index !26
  %3 = load %"class.std::map"*, %"class.std::map"** %2, align 8, !llfi_index !27
  %4 = getelementptr inbounds %"class.std::map", %"class.std::map"* %3, i32 0, i32 0, !llfi_index !28
  call void @_ZNSt8_Rb_treeIiSt4pairIKiiESt10_Select1stIS2_ESt4lessIiESaIS2_EED2Ev(%"class.std::_Rb_tree"* nonnull align 8 dereferenceable(48) %4) #2, !llfi_index !29
  ret void, !llfi_index !30
}

; Function Attrs: noinline nounwind uwtable
define linkonce_odr dso_local void @_ZNSt8_Rb_treeIiSt4pairIKiiESt10_Select1stIS2_ESt4lessIiESaIS2_EED2Ev(%"class.std::_Rb_tree"* nonnull align 8 dereferenceable(48) %0) unnamed_addr #1 comdat align 2 personality i8* bitcast (i32 (...)* @__gxx_personality_v0 to i8*) {
  %2 = alloca %"class.std::_Rb_tree"*, align 8, !llfi_index !31
  %3 = alloca i8*, align 8, !llfi_index !32
  %4 = alloca i32, align 4, !llfi_index !33
  store %"class.std::_Rb_tree"* %0, %"class.std::_Rb_tree"** %2, align 8, !llfi_index !34
  %5 = load %"class.std::_Rb_tree"*, %"class.std::_Rb_tree"** %2, align 8, !llfi_index !35
  %6 = call %"struct.std::_Rb_tree_node"* @_ZNSt8_Rb_treeIiSt4pairIKiiESt10_Select1stIS2_ESt4lessIiESaIS2_EE8_M_beginEv(%"class.std::_Rb_tree"* nonnull align 8 dereferenceable(48) %5) #2, !llfi_index !36
  invoke void @_ZNSt8_Rb_treeIiSt4pairIKiiESt10_Select1stIS2_ESt4lessIiESaIS2_EE8_M_eraseEPSt13_Rb_tree_nodeIS2_E(%"class.std::_Rb_tree"* nonnull align 8 dereferenceable(48) %5, %"struct.std::_Rb_tree_node"* %6)
          to label %7 unwind label %9, !llfi_index !37

7:                                                ; preds = %1
  %8 = getelementptr inbounds %"class.std::_Rb_tree", %"class.std::_Rb_tree"* %5, i32 0, i32 0, !llfi_index !38
  call void @_ZNSt8_Rb_treeIiSt4pairIKiiESt10_Select1stIS2_ESt4lessIiESaIS2_EE13_Rb_tree_implIS6_Lb1EED2Ev(%"struct.std::_Rb_tree<int, std::pair<const int, int>, std::_Select1st<std::pair<const int, int>>, std::less<int>>::_Rb_tree_impl"* nonnull align 8 dereferenceable(48) %8) #2, !llfi_index !39
  ret void, !llfi_index !40

9:                                                ; preds = %1
  %10 = landingpad { i8*, i32 }
          catch i8* null, !llfi_index !41
  %11 = extractvalue { i8*, i32 } %10, 0, !llfi_index !42
  store i8* %11, i8** %3, align 8, !llfi_index !43
  %12 = extractvalue { i8*, i32 } %10, 1, !llfi_index !44
  store i32 %12, i32* %4, align 4, !llfi_index !45
  %13 = getelementptr inbounds %"class.std::_Rb_tree", %"class.std::_Rb_tree"* %5, i32 0, i32 0, !llfi_index !46
  call void @_ZNSt8_Rb_treeIiSt4pairIKiiESt10_Select1stIS2_ESt4lessIiESaIS2_EE13_Rb_tree_implIS6_Lb1EED2Ev(%"struct.std::_Rb_tree<int, std::pair<const int, int>, std::_Select1st<std::pair<const int, int>>, std::less<int>>::_Rb_tree_impl"* nonnull align 8 dereferenceable(48) %13) #2, !llfi_index !47
  br label %14, !llfi_index !48

14:                                               ; preds = %9
  %15 = load i8*, i8** %3, align 8, !llfi_index !49
  call void @__clang_call_terminate(i8* %15) #15, !llfi_index !50
  unreachable, !llfi_index !51
}

declare dso_local i32 @__gxx_personality_v0(...)

; Function Attrs: mustprogress noinline nounwind uwtable
define linkonce_odr dso_local %"struct.std::_Rb_tree_node"* @_ZNSt8_Rb_treeIiSt4pairIKiiESt10_Select1stIS2_ESt4lessIiESaIS2_EE8_M_beginEv(%"class.std::_Rb_tree"* nonnull align 8 dereferenceable(48) %0) #3 comdat align 2 {
  %2 = alloca %"class.std::_Rb_tree"*, align 8, !llfi_index !52
  store %"class.std::_Rb_tree"* %0, %"class.std::_Rb_tree"** %2, align 8, !llfi_index !53
  %3 = load %"class.std::_Rb_tree"*, %"class.std::_Rb_tree"** %2, align 8, !llfi_index !54
  %4 = getelementptr inbounds %"class.std::_Rb_tree", %"class.std::_Rb_tree"* %3, i32 0, i32 0, !llfi_index !55
  %5 = bitcast %"struct.std::_Rb_tree<int, std::pair<const int, int>, std::_Select1st<std::pair<const int, int>>, std::less<int>>::_Rb_tree_impl"* %4 to i8*, !llfi_index !56
  %6 = getelementptr inbounds i8, i8* %5, i64 8, !llfi_index !57
  %7 = bitcast i8* %6 to %"struct.std::_Rb_tree_header"*, !llfi_index !58
  %8 = getelementptr inbounds %"struct.std::_Rb_tree_header", %"struct.std::_Rb_tree_header"* %7, i32 0, i32 0, !llfi_index !59
  %9 = getelementptr inbounds %"struct.std::_Rb_tree_node_base", %"struct.std::_Rb_tree_node_base"* %8, i32 0, i32 1, !llfi_index !60
  %10 = load %"struct.std::_Rb_tree_node_base"*, %"struct.std::_Rb_tree_node_base"** %9, align 8, !llfi_index !61
  %11 = bitcast %"struct.std::_Rb_tree_node_base"* %10 to %"struct.std::_Rb_tree_node"*, !llfi_index !62
  ret %"struct.std::_Rb_tree_node"* %11, !llfi_index !63
}

; Function Attrs: mustprogress noinline uwtable
define linkonce_odr dso_local void @_ZNSt8_Rb_treeIiSt4pairIKiiESt10_Select1stIS2_ESt4lessIiESaIS2_EE8_M_eraseEPSt13_Rb_tree_nodeIS2_E(%"class.std::_Rb_tree"* nonnull align 8 dereferenceable(48) %0, %"struct.std::_Rb_tree_node"* %1) #4 comdat align 2 {
  %3 = alloca %"class.std::_Rb_tree"*, align 8, !llfi_index !64
  %4 = alloca %"struct.std::_Rb_tree_node"*, align 8, !llfi_index !65
  %5 = alloca %"struct.std::_Rb_tree_node"*, align 8, !llfi_index !66
  store %"class.std::_Rb_tree"* %0, %"class.std::_Rb_tree"** %3, align 8, !llfi_index !67
  store %"struct.std::_Rb_tree_node"* %1, %"struct.std::_Rb_tree_node"** %4, align 8, !llfi_index !68
  %6 = load %"class.std::_Rb_tree"*, %"class.std::_Rb_tree"** %3, align 8, !llfi_index !69
  br label %7, !llfi_index !70

7:                                                ; preds = %10, %2
  %8 = load %"struct.std::_Rb_tree_node"*, %"struct.std::_Rb_tree_node"** %4, align 8, !llfi_index !71
  %9 = icmp ne %"struct.std::_Rb_tree_node"* %8, null, !llfi_index !72
  br i1 %9, label %10, label %19, !llfi_index !73

10:                                               ; preds = %7
  %11 = load %"struct.std::_Rb_tree_node"*, %"struct.std::_Rb_tree_node"** %4, align 8, !llfi_index !74
  %12 = bitcast %"struct.std::_Rb_tree_node"* %11 to %"struct.std::_Rb_tree_node_base"*, !llfi_index !75
  %13 = call %"struct.std::_Rb_tree_node"* @_ZNSt8_Rb_treeIiSt4pairIKiiESt10_Select1stIS2_ESt4lessIiESaIS2_EE8_S_rightEPSt18_Rb_tree_node_base(%"struct.std::_Rb_tree_node_base"* %12) #2, !llfi_index !76
  call void @_ZNSt8_Rb_treeIiSt4pairIKiiESt10_Select1stIS2_ESt4lessIiESaIS2_EE8_M_eraseEPSt13_Rb_tree_nodeIS2_E(%"class.std::_Rb_tree"* nonnull align 8 dereferenceable(48) %6, %"struct.std::_Rb_tree_node"* %13), !llfi_index !77
  %14 = load %"struct.std::_Rb_tree_node"*, %"struct.std::_Rb_tree_node"** %4, align 8, !llfi_index !78
  %15 = bitcast %"struct.std::_Rb_tree_node"* %14 to %"struct.std::_Rb_tree_node_base"*, !llfi_index !79
  %16 = call %"struct.std::_Rb_tree_node"* @_ZNSt8_Rb_treeIiSt4pairIKiiESt10_Select1stIS2_ESt4lessIiESaIS2_EE7_S_leftEPSt18_Rb_tree_node_base(%"struct.std::_Rb_tree_node_base"* %15) #2, !llfi_index !80
  store %"struct.std::_Rb_tree_node"* %16, %"struct.std::_Rb_tree_node"** %5, align 8, !llfi_index !81
  %17 = load %"struct.std::_Rb_tree_node"*, %"struct.std::_Rb_tree_node"** %4, align 8, !llfi_index !82
  call void @_ZNSt8_Rb_treeIiSt4pairIKiiESt10_Select1stIS2_ESt4lessIiESaIS2_EE12_M_drop_nodeEPSt13_Rb_tree_nodeIS2_E(%"class.std::_Rb_tree"* nonnull align 8 dereferenceable(48) %6, %"struct.std::_Rb_tree_node"* %17) #2, !llfi_index !83
  %18 = load %"struct.std::_Rb_tree_node"*, %"struct.std::_Rb_tree_node"** %5, align 8, !llfi_index !84
  store %"struct.std::_Rb_tree_node"* %18, %"struct.std::_Rb_tree_node"** %4, align 8, !llfi_index !85
  br label %7, !llvm.loop !86, !llfi_index !88

19:                                               ; preds = %7
  ret void, !llfi_index !89
}

; Function Attrs: noinline nounwind uwtable
define linkonce_odr dso_local void @_ZNSt8_Rb_treeIiSt4pairIKiiESt10_Select1stIS2_ESt4lessIiESaIS2_EE13_Rb_tree_implIS6_Lb1EED2Ev(%"struct.std::_Rb_tree<int, std::pair<const int, int>, std::_Select1st<std::pair<const int, int>>, std::less<int>>::_Rb_tree_impl"* nonnull align 8 dereferenceable(48) %0) unnamed_addr #1 comdat align 2 {
  %2 = alloca %"struct.std::_Rb_tree<int, std::pair<const int, int>, std::_Select1st<std::pair<const int, int>>, std::less<int>>::_Rb_tree_impl"*, align 8, !llfi_index !90
  store %"struct.std::_Rb_tree<int, std::pair<const int, int>, std::_Select1st<std::pair<const int, int>>, std::less<int>>::_Rb_tree_impl"* %0, %"struct.std::_Rb_tree<int, std::pair<const int, int>, std::_Select1st<std::pair<const int, int>>, std::less<int>>::_Rb_tree_impl"** %2, align 8, !llfi_index !91
  %3 = load %"struct.std::_Rb_tree<int, std::pair<const int, int>, std::_Select1st<std::pair<const int, int>>, std::less<int>>::_Rb_tree_impl"*, %"struct.std::_Rb_tree<int, std::pair<const int, int>, std::_Select1st<std::pair<const int, int>>, std::less<int>>::_Rb_tree_impl"** %2, align 8, !llfi_index !92
  %4 = bitcast %"struct.std::_Rb_tree<int, std::pair<const int, int>, std::_Select1st<std::pair<const int, int>>, std::less<int>>::_Rb_tree_impl"* %3 to %"struct.std::less"*, !llfi_index !93
  call void @_ZNSaISt13_Rb_tree_nodeISt4pairIKiiEEED2Ev(%"struct.std::less"* nonnull align 1 dereferenceable(1) %4) #2, !llfi_index !94
  ret void, !llfi_index !95
}

; Function Attrs: noinline noreturn nounwind
define linkonce_odr hidden void @__clang_call_terminate(i8* %0) #5 comdat {
  %2 = call i8* @__cxa_begin_catch(i8* %0) #2, !llfi_index !96
  call void @_ZSt9terminatev() #15, !llfi_index !97
  unreachable, !llfi_index !98
}

declare dso_local i8* @__cxa_begin_catch(i8*)

declare dso_local void @_ZSt9terminatev()

; Function Attrs: noinline nounwind uwtable
define linkonce_odr dso_local void @_ZNSaISt13_Rb_tree_nodeISt4pairIKiiEEED2Ev(%"struct.std::less"* nonnull align 1 dereferenceable(1) %0) unnamed_addr #1 comdat align 2 {
  %2 = alloca %"struct.std::less"*, align 8, !llfi_index !99
  store %"struct.std::less"* %0, %"struct.std::less"** %2, align 8, !llfi_index !100
  %3 = load %"struct.std::less"*, %"struct.std::less"** %2, align 8, !llfi_index !101
  %4 = bitcast %"struct.std::less"* %3 to %"struct.std::less"*, !llfi_index !102
  call void @_ZN9__gnu_cxx13new_allocatorISt13_Rb_tree_nodeISt4pairIKiiEEED2Ev(%"struct.std::less"* nonnull align 1 dereferenceable(1) %4) #2, !llfi_index !103
  ret void, !llfi_index !104
}

; Function Attrs: noinline nounwind uwtable
define linkonce_odr dso_local void @_ZN9__gnu_cxx13new_allocatorISt13_Rb_tree_nodeISt4pairIKiiEEED2Ev(%"struct.std::less"* nonnull align 1 dereferenceable(1) %0) unnamed_addr #1 comdat align 2 {
  %2 = alloca %"struct.std::less"*, align 8, !llfi_index !105
  store %"struct.std::less"* %0, %"struct.std::less"** %2, align 8, !llfi_index !106
  %3 = load %"struct.std::less"*, %"struct.std::less"** %2, align 8, !llfi_index !107
  ret void, !llfi_index !108
}

; Function Attrs: mustprogress noinline nounwind uwtable
define linkonce_odr dso_local %"struct.std::_Rb_tree_node"* @_ZNSt8_Rb_treeIiSt4pairIKiiESt10_Select1stIS2_ESt4lessIiESaIS2_EE8_S_rightEPSt18_Rb_tree_node_base(%"struct.std::_Rb_tree_node_base"* %0) #3 comdat align 2 {
  %2 = alloca %"struct.std::_Rb_tree_node_base"*, align 8, !llfi_index !109
  store %"struct.std::_Rb_tree_node_base"* %0, %"struct.std::_Rb_tree_node_base"** %2, align 8, !llfi_index !110
  %3 = load %"struct.std::_Rb_tree_node_base"*, %"struct.std::_Rb_tree_node_base"** %2, align 8, !llfi_index !111
  %4 = getelementptr inbounds %"struct.std::_Rb_tree_node_base", %"struct.std::_Rb_tree_node_base"* %3, i32 0, i32 3, !llfi_index !112
  %5 = load %"struct.std::_Rb_tree_node_base"*, %"struct.std::_Rb_tree_node_base"** %4, align 8, !llfi_index !113
  %6 = bitcast %"struct.std::_Rb_tree_node_base"* %5 to %"struct.std::_Rb_tree_node"*, !llfi_index !114
  ret %"struct.std::_Rb_tree_node"* %6, !llfi_index !115
}

; Function Attrs: mustprogress noinline nounwind uwtable
define linkonce_odr dso_local %"struct.std::_Rb_tree_node"* @_ZNSt8_Rb_treeIiSt4pairIKiiESt10_Select1stIS2_ESt4lessIiESaIS2_EE7_S_leftEPSt18_Rb_tree_node_base(%"struct.std::_Rb_tree_node_base"* %0) #3 comdat align 2 {
  %2 = alloca %"struct.std::_Rb_tree_node_base"*, align 8, !llfi_index !116
  store %"struct.std::_Rb_tree_node_base"* %0, %"struct.std::_Rb_tree_node_base"** %2, align 8, !llfi_index !117
  %3 = load %"struct.std::_Rb_tree_node_base"*, %"struct.std::_Rb_tree_node_base"** %2, align 8, !llfi_index !118
  %4 = getelementptr inbounds %"struct.std::_Rb_tree_node_base", %"struct.std::_Rb_tree_node_base"* %3, i32 0, i32 2, !llfi_index !119
  %5 = load %"struct.std::_Rb_tree_node_base"*, %"struct.std::_Rb_tree_node_base"** %4, align 8, !llfi_index !120
  %6 = bitcast %"struct.std::_Rb_tree_node_base"* %5 to %"struct.std::_Rb_tree_node"*, !llfi_index !121
  ret %"struct.std::_Rb_tree_node"* %6, !llfi_index !122
}

; Function Attrs: mustprogress noinline nounwind uwtable
define linkonce_odr dso_local void @_ZNSt8_Rb_treeIiSt4pairIKiiESt10_Select1stIS2_ESt4lessIiESaIS2_EE12_M_drop_nodeEPSt13_Rb_tree_nodeIS2_E(%"class.std::_Rb_tree"* nonnull align 8 dereferenceable(48) %0, %"struct.std::_Rb_tree_node"* %1) #3 comdat align 2 {
  %3 = alloca %"class.std::_Rb_tree"*, align 8, !llfi_index !123
  %4 = alloca %"struct.std::_Rb_tree_node"*, align 8, !llfi_index !124
  store %"class.std::_Rb_tree"* %0, %"class.std::_Rb_tree"** %3, align 8, !llfi_index !125
  store %"struct.std::_Rb_tree_node"* %1, %"struct.std::_Rb_tree_node"** %4, align 8, !llfi_index !126
  %5 = load %"class.std::_Rb_tree"*, %"class.std::_Rb_tree"** %3, align 8, !llfi_index !127
  %6 = load %"struct.std::_Rb_tree_node"*, %"struct.std::_Rb_tree_node"** %4, align 8, !llfi_index !128
  call void @_ZNSt8_Rb_treeIiSt4pairIKiiESt10_Select1stIS2_ESt4lessIiESaIS2_EE15_M_destroy_nodeEPSt13_Rb_tree_nodeIS2_E(%"class.std::_Rb_tree"* nonnull align 8 dereferenceable(48) %5, %"struct.std::_Rb_tree_node"* %6) #2, !llfi_index !129
  %7 = load %"struct.std::_Rb_tree_node"*, %"struct.std::_Rb_tree_node"** %4, align 8, !llfi_index !130
  call void @_ZNSt8_Rb_treeIiSt4pairIKiiESt10_Select1stIS2_ESt4lessIiESaIS2_EE11_M_put_nodeEPSt13_Rb_tree_nodeIS2_E(%"class.std::_Rb_tree"* nonnull align 8 dereferenceable(48) %5, %"struct.std::_Rb_tree_node"* %7) #2, !llfi_index !131
  ret void, !llfi_index !132
}

; Function Attrs: mustprogress noinline nounwind uwtable
define linkonce_odr dso_local void @_ZNSt8_Rb_treeIiSt4pairIKiiESt10_Select1stIS2_ESt4lessIiESaIS2_EE15_M_destroy_nodeEPSt13_Rb_tree_nodeIS2_E(%"class.std::_Rb_tree"* nonnull align 8 dereferenceable(48) %0, %"struct.std::_Rb_tree_node"* %1) #3 comdat align 2 personality i8* bitcast (i32 (...)* @__gxx_personality_v0 to i8*) {
  %3 = alloca %"class.std::_Rb_tree"*, align 8, !llfi_index !133
  %4 = alloca %"struct.std::_Rb_tree_node"*, align 8, !llfi_index !134
  store %"class.std::_Rb_tree"* %0, %"class.std::_Rb_tree"** %3, align 8, !llfi_index !135
  store %"struct.std::_Rb_tree_node"* %1, %"struct.std::_Rb_tree_node"** %4, align 8, !llfi_index !136
  %5 = load %"class.std::_Rb_tree"*, %"class.std::_Rb_tree"** %3, align 8, !llfi_index !137
  %6 = call nonnull align 1 dereferenceable(1) %"struct.std::less"* @_ZNSt8_Rb_treeIiSt4pairIKiiESt10_Select1stIS2_ESt4lessIiESaIS2_EE21_M_get_Node_allocatorEv(%"class.std::_Rb_tree"* nonnull align 8 dereferenceable(48) %5) #2, !llfi_index !138
  %7 = load %"struct.std::_Rb_tree_node"*, %"struct.std::_Rb_tree_node"** %4, align 8, !llfi_index !139
  %8 = invoke %"struct.std::pair"* @_ZNSt13_Rb_tree_nodeISt4pairIKiiEE9_M_valptrEv(%"struct.std::_Rb_tree_node"* nonnull align 8 dereferenceable(40) %7)
          to label %9 unwind label %11, !llfi_index !140

9:                                                ; preds = %2
  call void @_ZNSt16allocator_traitsISaISt13_Rb_tree_nodeISt4pairIKiiEEEE7destroyIS3_EEvRS5_PT_(%"struct.std::less"* nonnull align 1 dereferenceable(1) %6, %"struct.std::pair"* %8) #2, !llfi_index !141
  %10 = load %"struct.std::_Rb_tree_node"*, %"struct.std::_Rb_tree_node"** %4, align 8, !llfi_index !142
  ret void, !llfi_index !143

11:                                               ; preds = %2
  %12 = landingpad { i8*, i32 }
          catch i8* null, !llfi_index !144
  %13 = extractvalue { i8*, i32 } %12, 0, !llfi_index !145
  call void @__clang_call_terminate(i8* %13) #15, !llfi_index !146
  unreachable, !llfi_index !147
}

; Function Attrs: mustprogress noinline nounwind uwtable
define linkonce_odr dso_local void @_ZNSt8_Rb_treeIiSt4pairIKiiESt10_Select1stIS2_ESt4lessIiESaIS2_EE11_M_put_nodeEPSt13_Rb_tree_nodeIS2_E(%"class.std::_Rb_tree"* nonnull align 8 dereferenceable(48) %0, %"struct.std::_Rb_tree_node"* %1) #3 comdat align 2 personality i8* bitcast (i32 (...)* @__gxx_personality_v0 to i8*) {
  %3 = alloca %"class.std::_Rb_tree"*, align 8, !llfi_index !148
  %4 = alloca %"struct.std::_Rb_tree_node"*, align 8, !llfi_index !149
  store %"class.std::_Rb_tree"* %0, %"class.std::_Rb_tree"** %3, align 8, !llfi_index !150
  store %"struct.std::_Rb_tree_node"* %1, %"struct.std::_Rb_tree_node"** %4, align 8, !llfi_index !151
  %5 = load %"class.std::_Rb_tree"*, %"class.std::_Rb_tree"** %3, align 8, !llfi_index !152
  %6 = call nonnull align 1 dereferenceable(1) %"struct.std::less"* @_ZNSt8_Rb_treeIiSt4pairIKiiESt10_Select1stIS2_ESt4lessIiESaIS2_EE21_M_get_Node_allocatorEv(%"class.std::_Rb_tree"* nonnull align 8 dereferenceable(48) %5) #2, !llfi_index !153
  %7 = load %"struct.std::_Rb_tree_node"*, %"struct.std::_Rb_tree_node"** %4, align 8, !llfi_index !154
  invoke void @_ZNSt16allocator_traitsISaISt13_Rb_tree_nodeISt4pairIKiiEEEE10deallocateERS5_PS4_m(%"struct.std::less"* nonnull align 1 dereferenceable(1) %6, %"struct.std::_Rb_tree_node"* %7, i64 1)
          to label %8 unwind label %9, !llfi_index !155

8:                                                ; preds = %2
  ret void, !llfi_index !156

9:                                                ; preds = %2
  %10 = landingpad { i8*, i32 }
          catch i8* null, !llfi_index !157
  %11 = extractvalue { i8*, i32 } %10, 0, !llfi_index !158
  call void @__clang_call_terminate(i8* %11) #15, !llfi_index !159
  unreachable, !llfi_index !160
}

; Function Attrs: mustprogress noinline nounwind uwtable
define linkonce_odr dso_local nonnull align 1 dereferenceable(1) %"struct.std::less"* @_ZNSt8_Rb_treeIiSt4pairIKiiESt10_Select1stIS2_ESt4lessIiESaIS2_EE21_M_get_Node_allocatorEv(%"class.std::_Rb_tree"* nonnull align 8 dereferenceable(48) %0) #3 comdat align 2 {
  %2 = alloca %"class.std::_Rb_tree"*, align 8, !llfi_index !161
  store %"class.std::_Rb_tree"* %0, %"class.std::_Rb_tree"** %2, align 8, !llfi_index !162
  %3 = load %"class.std::_Rb_tree"*, %"class.std::_Rb_tree"** %2, align 8, !llfi_index !163
  %4 = getelementptr inbounds %"class.std::_Rb_tree", %"class.std::_Rb_tree"* %3, i32 0, i32 0, !llfi_index !164
  %5 = bitcast %"struct.std::_Rb_tree<int, std::pair<const int, int>, std::_Select1st<std::pair<const int, int>>, std::less<int>>::_Rb_tree_impl"* %4 to %"struct.std::less"*, !llfi_index !165
  ret %"struct.std::less"* %5, !llfi_index !166
}

; Function Attrs: mustprogress noinline uwtable
define linkonce_odr dso_local void @_ZNSt16allocator_traitsISaISt13_Rb_tree_nodeISt4pairIKiiEEEE10deallocateERS5_PS4_m(%"struct.std::less"* nonnull align 1 dereferenceable(1) %0, %"struct.std::_Rb_tree_node"* %1, i64 %2) #4 comdat align 2 {
  %4 = alloca %"struct.std::less"*, align 8, !llfi_index !167
  %5 = alloca %"struct.std::_Rb_tree_node"*, align 8, !llfi_index !168
  %6 = alloca i64, align 8, !llfi_index !169
  store %"struct.std::less"* %0, %"struct.std::less"** %4, align 8, !llfi_index !170
  store %"struct.std::_Rb_tree_node"* %1, %"struct.std::_Rb_tree_node"** %5, align 8, !llfi_index !171
  store i64 %2, i64* %6, align 8, !llfi_index !172
  %7 = load %"struct.std::less"*, %"struct.std::less"** %4, align 8, !llfi_index !173
  %8 = bitcast %"struct.std::less"* %7 to %"struct.std::less"*, !llfi_index !174
  %9 = load %"struct.std::_Rb_tree_node"*, %"struct.std::_Rb_tree_node"** %5, align 8, !llfi_index !175
  %10 = load i64, i64* %6, align 8, !llfi_index !176
  call void @_ZN9__gnu_cxx13new_allocatorISt13_Rb_tree_nodeISt4pairIKiiEEE10deallocateEPS5_m(%"struct.std::less"* nonnull align 1 dereferenceable(1) %8, %"struct.std::_Rb_tree_node"* %9, i64 %10), !llfi_index !177
  ret void, !llfi_index !178
}

; Function Attrs: mustprogress noinline nounwind uwtable
define linkonce_odr dso_local void @_ZN9__gnu_cxx13new_allocatorISt13_Rb_tree_nodeISt4pairIKiiEEE10deallocateEPS5_m(%"struct.std::less"* nonnull align 1 dereferenceable(1) %0, %"struct.std::_Rb_tree_node"* %1, i64 %2) #3 comdat align 2 {
  %4 = alloca %"struct.std::less"*, align 8, !llfi_index !179
  %5 = alloca %"struct.std::_Rb_tree_node"*, align 8, !llfi_index !180
  %6 = alloca i64, align 8, !llfi_index !181
  store %"struct.std::less"* %0, %"struct.std::less"** %4, align 8, !llfi_index !182
  store %"struct.std::_Rb_tree_node"* %1, %"struct.std::_Rb_tree_node"** %5, align 8, !llfi_index !183
  store i64 %2, i64* %6, align 8, !llfi_index !184
  %7 = load %"struct.std::less"*, %"struct.std::less"** %4, align 8, !llfi_index !185
  %8 = load %"struct.std::_Rb_tree_node"*, %"struct.std::_Rb_tree_node"** %5, align 8, !llfi_index !186
  %9 = bitcast %"struct.std::_Rb_tree_node"* %8 to i8*, !llfi_index !187
  call void @_ZdlPv(i8* %9) #2, !llfi_index !188
  ret void, !llfi_index !189
}

; Function Attrs: nobuiltin nounwind
declare dso_local void @_ZdlPv(i8*) #6

; Function Attrs: mustprogress noinline nounwind uwtable
define linkonce_odr dso_local %"struct.std::pair"* @_ZNSt13_Rb_tree_nodeISt4pairIKiiEE9_M_valptrEv(%"struct.std::_Rb_tree_node"* nonnull align 8 dereferenceable(40) %0) #3 comdat align 2 {
  %2 = alloca %"struct.std::_Rb_tree_node"*, align 8, !llfi_index !190
  store %"struct.std::_Rb_tree_node"* %0, %"struct.std::_Rb_tree_node"** %2, align 8, !llfi_index !191
  %3 = load %"struct.std::_Rb_tree_node"*, %"struct.std::_Rb_tree_node"** %2, align 8, !llfi_index !192
  %4 = getelementptr inbounds %"struct.std::_Rb_tree_node", %"struct.std::_Rb_tree_node"* %3, i32 0, i32 1, !llfi_index !193
  %5 = call %"struct.std::pair"* @_ZN9__gnu_cxx16__aligned_membufISt4pairIKiiEE6_M_ptrEv(%"struct.__gnu_cxx::__aligned_membuf"* nonnull align 4 dereferenceable(8) %4) #2, !llfi_index !194
  ret %"struct.std::pair"* %5, !llfi_index !195
}

; Function Attrs: mustprogress noinline nounwind uwtable
define linkonce_odr dso_local void @_ZNSt16allocator_traitsISaISt13_Rb_tree_nodeISt4pairIKiiEEEE7destroyIS3_EEvRS5_PT_(%"struct.std::less"* nonnull align 1 dereferenceable(1) %0, %"struct.std::pair"* %1) #3 comdat align 2 {
  %3 = alloca %"struct.std::less"*, align 8, !llfi_index !196
  %4 = alloca %"struct.std::pair"*, align 8, !llfi_index !197
  store %"struct.std::less"* %0, %"struct.std::less"** %3, align 8, !llfi_index !198
  store %"struct.std::pair"* %1, %"struct.std::pair"** %4, align 8, !llfi_index !199
  %5 = load %"struct.std::less"*, %"struct.std::less"** %3, align 8, !llfi_index !200
  %6 = bitcast %"struct.std::less"* %5 to %"struct.std::less"*, !llfi_index !201
  %7 = load %"struct.std::pair"*, %"struct.std::pair"** %4, align 8, !llfi_index !202
  call void @_ZN9__gnu_cxx13new_allocatorISt13_Rb_tree_nodeISt4pairIKiiEEE7destroyIS4_EEvPT_(%"struct.std::less"* nonnull align 1 dereferenceable(1) %6, %"struct.std::pair"* %7) #2, !llfi_index !203
  ret void, !llfi_index !204
}

; Function Attrs: mustprogress noinline nounwind uwtable
define linkonce_odr dso_local void @_ZN9__gnu_cxx13new_allocatorISt13_Rb_tree_nodeISt4pairIKiiEEE7destroyIS4_EEvPT_(%"struct.std::less"* nonnull align 1 dereferenceable(1) %0, %"struct.std::pair"* %1) #3 comdat align 2 {
  %3 = alloca %"struct.std::less"*, align 8, !llfi_index !205
  %4 = alloca %"struct.std::pair"*, align 8, !llfi_index !206
  store %"struct.std::less"* %0, %"struct.std::less"** %3, align 8, !llfi_index !207
  store %"struct.std::pair"* %1, %"struct.std::pair"** %4, align 8, !llfi_index !208
  %5 = load %"struct.std::less"*, %"struct.std::less"** %3, align 8, !llfi_index !209
  %6 = load %"struct.std::pair"*, %"struct.std::pair"** %4, align 8, !llfi_index !210
  ret void, !llfi_index !211
}

; Function Attrs: mustprogress noinline nounwind uwtable
define linkonce_odr dso_local %"struct.std::pair"* @_ZN9__gnu_cxx16__aligned_membufISt4pairIKiiEE6_M_ptrEv(%"struct.__gnu_cxx::__aligned_membuf"* nonnull align 4 dereferenceable(8) %0) #3 comdat align 2 {
  %2 = alloca %"struct.__gnu_cxx::__aligned_membuf"*, align 8, !llfi_index !212
  store %"struct.__gnu_cxx::__aligned_membuf"* %0, %"struct.__gnu_cxx::__aligned_membuf"** %2, align 8, !llfi_index !213
  %3 = load %"struct.__gnu_cxx::__aligned_membuf"*, %"struct.__gnu_cxx::__aligned_membuf"** %2, align 8, !llfi_index !214
  %4 = call i8* @_ZN9__gnu_cxx16__aligned_membufISt4pairIKiiEE7_M_addrEv(%"struct.__gnu_cxx::__aligned_membuf"* nonnull align 4 dereferenceable(8) %3) #2, !llfi_index !215
  %5 = bitcast i8* %4 to %"struct.std::pair"*, !llfi_index !216
  ret %"struct.std::pair"* %5, !llfi_index !217
}

; Function Attrs: mustprogress noinline nounwind uwtable
define linkonce_odr dso_local i8* @_ZN9__gnu_cxx16__aligned_membufISt4pairIKiiEE7_M_addrEv(%"struct.__gnu_cxx::__aligned_membuf"* nonnull align 4 dereferenceable(8) %0) #3 comdat align 2 {
  %2 = alloca %"struct.__gnu_cxx::__aligned_membuf"*, align 8, !llfi_index !218
  store %"struct.__gnu_cxx::__aligned_membuf"* %0, %"struct.__gnu_cxx::__aligned_membuf"** %2, align 8, !llfi_index !219
  %3 = load %"struct.__gnu_cxx::__aligned_membuf"*, %"struct.__gnu_cxx::__aligned_membuf"** %2, align 8, !llfi_index !220
  %4 = getelementptr inbounds %"struct.__gnu_cxx::__aligned_membuf", %"struct.__gnu_cxx::__aligned_membuf"* %3, i32 0, i32 0, !llfi_index !221
  %5 = bitcast [8 x i8]* %4 to i8*, !llfi_index !222
  ret i8* %5, !llfi_index !223
}

; Function Attrs: noinline nounwind uwtable
define linkonce_odr dso_local void @_ZNSt8_Rb_treeIiSt4pairIKiiESt10_Select1stIS2_ESt4lessIiESaIS2_EEC2Ev(%"class.std::_Rb_tree"* nonnull align 8 dereferenceable(48) %0) unnamed_addr #1 comdat align 2 {
  %2 = alloca %"class.std::_Rb_tree"*, align 8, !llfi_index !224
  store %"class.std::_Rb_tree"* %0, %"class.std::_Rb_tree"** %2, align 8, !llfi_index !225
  %3 = load %"class.std::_Rb_tree"*, %"class.std::_Rb_tree"** %2, align 8, !llfi_index !226
  %4 = getelementptr inbounds %"class.std::_Rb_tree", %"class.std::_Rb_tree"* %3, i32 0, i32 0, !llfi_index !227
  call void @_ZNSt8_Rb_treeIiSt4pairIKiiESt10_Select1stIS2_ESt4lessIiESaIS2_EE13_Rb_tree_implIS6_Lb1EEC2Ev(%"struct.std::_Rb_tree<int, std::pair<const int, int>, std::_Select1st<std::pair<const int, int>>, std::less<int>>::_Rb_tree_impl"* nonnull align 8 dereferenceable(48) %4) #2, !llfi_index !228
  ret void, !llfi_index !229
}

; Function Attrs: noinline nounwind uwtable
define linkonce_odr dso_local void @_ZNSt8_Rb_treeIiSt4pairIKiiESt10_Select1stIS2_ESt4lessIiESaIS2_EE13_Rb_tree_implIS6_Lb1EEC2Ev(%"struct.std::_Rb_tree<int, std::pair<const int, int>, std::_Select1st<std::pair<const int, int>>, std::less<int>>::_Rb_tree_impl"* nonnull align 8 dereferenceable(48) %0) unnamed_addr #1 comdat align 2 {
  %2 = alloca %"struct.std::_Rb_tree<int, std::pair<const int, int>, std::_Select1st<std::pair<const int, int>>, std::less<int>>::_Rb_tree_impl"*, align 8, !llfi_index !230
  store %"struct.std::_Rb_tree<int, std::pair<const int, int>, std::_Select1st<std::pair<const int, int>>, std::less<int>>::_Rb_tree_impl"* %0, %"struct.std::_Rb_tree<int, std::pair<const int, int>, std::_Select1st<std::pair<const int, int>>, std::less<int>>::_Rb_tree_impl"** %2, align 8, !llfi_index !231
  %3 = load %"struct.std::_Rb_tree<int, std::pair<const int, int>, std::_Select1st<std::pair<const int, int>>, std::less<int>>::_Rb_tree_impl"*, %"struct.std::_Rb_tree<int, std::pair<const int, int>, std::_Select1st<std::pair<const int, int>>, std::less<int>>::_Rb_tree_impl"** %2, align 8, !llfi_index !232
  %4 = bitcast %"struct.std::_Rb_tree<int, std::pair<const int, int>, std::_Select1st<std::pair<const int, int>>, std::less<int>>::_Rb_tree_impl"* %3 to %"struct.std::less"*, !llfi_index !233
  call void @_ZNSaISt13_Rb_tree_nodeISt4pairIKiiEEEC2Ev(%"struct.std::less"* nonnull align 1 dereferenceable(1) %4) #2, !llfi_index !234
  %5 = bitcast %"struct.std::_Rb_tree<int, std::pair<const int, int>, std::_Select1st<std::pair<const int, int>>, std::less<int>>::_Rb_tree_impl"* %3 to %"struct.std::_Rb_tree_key_compare"*, !llfi_index !235
  call void @_ZNSt20_Rb_tree_key_compareISt4lessIiEEC2Ev(%"struct.std::_Rb_tree_key_compare"* nonnull align 1 dereferenceable(1) %5) #2, !llfi_index !236
  %6 = bitcast %"struct.std::_Rb_tree<int, std::pair<const int, int>, std::_Select1st<std::pair<const int, int>>, std::less<int>>::_Rb_tree_impl"* %3 to i8*, !llfi_index !237
  %7 = getelementptr inbounds i8, i8* %6, i64 8, !llfi_index !238
  %8 = bitcast i8* %7 to %"struct.std::_Rb_tree_header"*, !llfi_index !239
  call void @_ZNSt15_Rb_tree_headerC2Ev(%"struct.std::_Rb_tree_header"* nonnull align 8 dereferenceable(40) %8) #2, !llfi_index !240
  ret void, !llfi_index !241
}

; Function Attrs: noinline nounwind uwtable
define linkonce_odr dso_local void @_ZNSaISt13_Rb_tree_nodeISt4pairIKiiEEEC2Ev(%"struct.std::less"* nonnull align 1 dereferenceable(1) %0) unnamed_addr #1 comdat align 2 {
  %2 = alloca %"struct.std::less"*, align 8, !llfi_index !242
  store %"struct.std::less"* %0, %"struct.std::less"** %2, align 8, !llfi_index !243
  %3 = load %"struct.std::less"*, %"struct.std::less"** %2, align 8, !llfi_index !244
  %4 = bitcast %"struct.std::less"* %3 to %"struct.std::less"*, !llfi_index !245
  call void @_ZN9__gnu_cxx13new_allocatorISt13_Rb_tree_nodeISt4pairIKiiEEEC2Ev(%"struct.std::less"* nonnull align 1 dereferenceable(1) %4) #2, !llfi_index !246
  ret void, !llfi_index !247
}

; Function Attrs: noinline nounwind uwtable
define linkonce_odr dso_local void @_ZNSt20_Rb_tree_key_compareISt4lessIiEEC2Ev(%"struct.std::_Rb_tree_key_compare"* nonnull align 1 dereferenceable(1) %0) unnamed_addr #1 comdat align 2 {
  %2 = alloca %"struct.std::_Rb_tree_key_compare"*, align 8, !llfi_index !248
  store %"struct.std::_Rb_tree_key_compare"* %0, %"struct.std::_Rb_tree_key_compare"** %2, align 8, !llfi_index !249
  %3 = load %"struct.std::_Rb_tree_key_compare"*, %"struct.std::_Rb_tree_key_compare"** %2, align 8, !llfi_index !250
  %4 = getelementptr inbounds %"struct.std::_Rb_tree_key_compare", %"struct.std::_Rb_tree_key_compare"* %3, i32 0, i32 0, !llfi_index !251
  ret void, !llfi_index !252
}

; Function Attrs: noinline nounwind uwtable
define linkonce_odr dso_local void @_ZNSt15_Rb_tree_headerC2Ev(%"struct.std::_Rb_tree_header"* nonnull align 8 dereferenceable(40) %0) unnamed_addr #1 comdat align 2 personality i8* bitcast (i32 (...)* @__gxx_personality_v0 to i8*) {
  %2 = alloca %"struct.std::_Rb_tree_header"*, align 8, !llfi_index !253
  store %"struct.std::_Rb_tree_header"* %0, %"struct.std::_Rb_tree_header"** %2, align 8, !llfi_index !254
  %3 = load %"struct.std::_Rb_tree_header"*, %"struct.std::_Rb_tree_header"** %2, align 8, !llfi_index !255
  %4 = getelementptr inbounds %"struct.std::_Rb_tree_header", %"struct.std::_Rb_tree_header"* %3, i32 0, i32 0, !llfi_index !256
  %5 = getelementptr inbounds %"struct.std::_Rb_tree_header", %"struct.std::_Rb_tree_header"* %3, i32 0, i32 0, !llfi_index !257
  %6 = getelementptr inbounds %"struct.std::_Rb_tree_node_base", %"struct.std::_Rb_tree_node_base"* %5, i32 0, i32 0, !llfi_index !258
  store i32 0, i32* %6, align 8, !llfi_index !259
  invoke void @_ZNSt15_Rb_tree_header8_M_resetEv(%"struct.std::_Rb_tree_header"* nonnull align 8 dereferenceable(40) %3)
          to label %7 unwind label %8, !llfi_index !260

7:                                                ; preds = %1
  ret void, !llfi_index !261

8:                                                ; preds = %1
  %9 = landingpad { i8*, i32 }
          catch i8* null, !llfi_index !262
  %10 = extractvalue { i8*, i32 } %9, 0, !llfi_index !263
  call void @__clang_call_terminate(i8* %10) #15, !llfi_index !264
  unreachable, !llfi_index !265
}

; Function Attrs: mustprogress noinline nounwind uwtable
define linkonce_odr dso_local void @_ZNSt15_Rb_tree_header8_M_resetEv(%"struct.std::_Rb_tree_header"* nonnull align 8 dereferenceable(40) %0) #3 comdat align 2 {
  %2 = alloca %"struct.std::_Rb_tree_header"*, align 8, !llfi_index !266
  store %"struct.std::_Rb_tree_header"* %0, %"struct.std::_Rb_tree_header"** %2, align 8, !llfi_index !267
  %3 = load %"struct.std::_Rb_tree_header"*, %"struct.std::_Rb_tree_header"** %2, align 8, !llfi_index !268
  %4 = getelementptr inbounds %"struct.std::_Rb_tree_header", %"struct.std::_Rb_tree_header"* %3, i32 0, i32 0, !llfi_index !269
  %5 = getelementptr inbounds %"struct.std::_Rb_tree_node_base", %"struct.std::_Rb_tree_node_base"* %4, i32 0, i32 1, !llfi_index !270
  store %"struct.std::_Rb_tree_node_base"* null, %"struct.std::_Rb_tree_node_base"** %5, align 8, !llfi_index !271
  %6 = getelementptr inbounds %"struct.std::_Rb_tree_header", %"struct.std::_Rb_tree_header"* %3, i32 0, i32 0, !llfi_index !272
  %7 = getelementptr inbounds %"struct.std::_Rb_tree_header", %"struct.std::_Rb_tree_header"* %3, i32 0, i32 0, !llfi_index !273
  %8 = getelementptr inbounds %"struct.std::_Rb_tree_node_base", %"struct.std::_Rb_tree_node_base"* %7, i32 0, i32 2, !llfi_index !274
  store %"struct.std::_Rb_tree_node_base"* %6, %"struct.std::_Rb_tree_node_base"** %8, align 8, !llfi_index !275
  %9 = getelementptr inbounds %"struct.std::_Rb_tree_header", %"struct.std::_Rb_tree_header"* %3, i32 0, i32 0, !llfi_index !276
  %10 = getelementptr inbounds %"struct.std::_Rb_tree_header", %"struct.std::_Rb_tree_header"* %3, i32 0, i32 0, !llfi_index !277
  %11 = getelementptr inbounds %"struct.std::_Rb_tree_node_base", %"struct.std::_Rb_tree_node_base"* %10, i32 0, i32 3, !llfi_index !278
  store %"struct.std::_Rb_tree_node_base"* %9, %"struct.std::_Rb_tree_node_base"** %11, align 8, !llfi_index !279
  %12 = getelementptr inbounds %"struct.std::_Rb_tree_header", %"struct.std::_Rb_tree_header"* %3, i32 0, i32 1, !llfi_index !280
  store i64 0, i64* %12, align 8, !llfi_index !281
  ret void, !llfi_index !282
}

; Function Attrs: noinline nounwind uwtable
define linkonce_odr dso_local void @_ZN9__gnu_cxx13new_allocatorISt13_Rb_tree_nodeISt4pairIKiiEEEC2Ev(%"struct.std::less"* nonnull align 1 dereferenceable(1) %0) unnamed_addr #1 comdat align 2 {
  %2 = alloca %"struct.std::less"*, align 8, !llfi_index !283
  store %"struct.std::less"* %0, %"struct.std::less"** %2, align 8, !llfi_index !284
  %3 = load %"struct.std::less"*, %"struct.std::less"** %2, align 8, !llfi_index !285
  ret void, !llfi_index !286
}

; Function Attrs: noinline uwtable
define internal void @__dtor_takenRight() #0 section ".text.startup" {
  call void @_ZNSt3mapIiiSt4lessIiESaISt4pairIKiiEEED2Ev(%"class.std::map"* @takenRight), !llfi_index !287
  ret void, !llfi_index !288
}

declare dso_local void @_ZNSt8ios_base4InitC1Ev(%"struct.std::less"* nonnull align 1 dereferenceable(1)) unnamed_addr #7

; Function Attrs: noinline uwtable
define internal void @__dtor__ZStL8__ioinit() #0 section ".text.startup" {
  call void @_ZNSt8ios_base4InitD1Ev(%"struct.std::less"* @_ZStL8__ioinit), !llfi_index !289
  ret void, !llfi_index !290
}

; Function Attrs: nounwind
declare dso_local void @_ZNSt8ios_base4InitD1Ev(%"struct.std::less"* nonnull align 1 dereferenceable(1)) unnamed_addr #8

; Function Attrs: mustprogress noinline nounwind uwtable
define dso_local void @_Z4initi(i32 %0) #3 {
  %2 = alloca i32, align 4, !llfi_index !291
  store i32 %0, i32* %2, align 4, !llfi_index !292
  %3 = load i32, i32* %2, align 4, !llfi_index !293
  store i32 %3, i32* @n, align 4, !llfi_index !294
  ret void, !llfi_index !295
}

; Function Attrs: mustprogress noinline uwtable
define dso_local i32 @_Z14getClosestLefti(i32 %0) #4 {
  %2 = alloca i32, align 4, !llfi_index !296
  %3 = alloca i32, align 4, !llfi_index !297
  %4 = alloca i32, align 4, !llfi_index !298
  store i32 %0, i32* %2, align 4, !llfi_index !299
  %5 = load i32, i32* %2, align 4, !llfi_index !300
  %6 = sub nsw i32 %5, 1, !llfi_index !301
  store i32 %6, i32* %3, align 4, !llfi_index !302
  %7 = call i64 @_ZNKSt3mapIiiSt4lessIiESaISt4pairIKiiEEE5countERS3_(%"class.std::map"* nonnull align 8 dereferenceable(48) @takenLeft, i32* nonnull align 4 dereferenceable(4) %3), !llfi_index !303
  %8 = icmp ne i64 %7, 0, !llfi_index !304
  br i1 %8, label %9, label %15, !llfi_index !305

9:                                                ; preds = %1
  %10 = load i32, i32* %2, align 4, !llfi_index !306
  %11 = sub nsw i32 %10, 1, !llfi_index !307
  store i32 %11, i32* %4, align 4, !llfi_index !308
  %12 = call nonnull align 4 dereferenceable(4) i32* @_ZNSt3mapIiiSt4lessIiESaISt4pairIKiiEEEixEOi(%"class.std::map"* nonnull align 8 dereferenceable(48) @takenLeft, i32* nonnull align 4 dereferenceable(4) %4), !llfi_index !309
  %13 = load i32, i32* %12, align 4, !llfi_index !310
  %14 = sub nsw i32 %13, 1, !llfi_index !311
  store i32 %14, i32* %2, align 4, !llfi_index !312
  br label %18, !llfi_index !313

15:                                               ; preds = %1
  %16 = load i32, i32* %2, align 4, !llfi_index !314
  %17 = sub nsw i32 %16, 1, !llfi_index !315
  store i32 %17, i32* %2, align 4, !llfi_index !316
  br label %18, !llfi_index !317

18:                                               ; preds = %15, %9
  %19 = load i32, i32* %2, align 4, !llfi_index !318
  ret i32 %19, !llfi_index !319
}

; Function Attrs: mustprogress noinline uwtable
define linkonce_odr dso_local i64 @_ZNKSt3mapIiiSt4lessIiESaISt4pairIKiiEEE5countERS3_(%"class.std::map"* nonnull align 8 dereferenceable(48) %0, i32* nonnull align 4 dereferenceable(4) %1) #4 comdat align 2 {
  %3 = alloca %"class.std::map"*, align 8, !llfi_index !320
  %4 = alloca i32*, align 8, !llfi_index !321
  %5 = alloca %"struct.std::_Rb_tree_iterator", align 8, !llfi_index !322
  %6 = alloca %"struct.std::_Rb_tree_iterator", align 8, !llfi_index !323
  store %"class.std::map"* %0, %"class.std::map"** %3, align 8, !llfi_index !324
  store i32* %1, i32** %4, align 8, !llfi_index !325
  %7 = load %"class.std::map"*, %"class.std::map"** %3, align 8, !llfi_index !326
  %8 = getelementptr inbounds %"class.std::map", %"class.std::map"* %7, i32 0, i32 0, !llfi_index !327
  %9 = load i32*, i32** %4, align 8, !llfi_index !328
  %10 = call %"struct.std::_Rb_tree_node_base"* @_ZNKSt8_Rb_treeIiSt4pairIKiiESt10_Select1stIS2_ESt4lessIiESaIS2_EE4findERS1_(%"class.std::_Rb_tree"* nonnull align 8 dereferenceable(48) %8, i32* nonnull align 4 dereferenceable(4) %9), !llfi_index !329
  %11 = getelementptr inbounds %"struct.std::_Rb_tree_iterator", %"struct.std::_Rb_tree_iterator"* %5, i32 0, i32 0, !llfi_index !330
  store %"struct.std::_Rb_tree_node_base"* %10, %"struct.std::_Rb_tree_node_base"** %11, align 8, !llfi_index !331
  %12 = getelementptr inbounds %"class.std::map", %"class.std::map"* %7, i32 0, i32 0, !llfi_index !332
  %13 = call %"struct.std::_Rb_tree_node_base"* @_ZNKSt8_Rb_treeIiSt4pairIKiiESt10_Select1stIS2_ESt4lessIiESaIS2_EE3endEv(%"class.std::_Rb_tree"* nonnull align 8 dereferenceable(48) %12) #2, !llfi_index !333
  %14 = getelementptr inbounds %"struct.std::_Rb_tree_iterator", %"struct.std::_Rb_tree_iterator"* %6, i32 0, i32 0, !llfi_index !334
  store %"struct.std::_Rb_tree_node_base"* %13, %"struct.std::_Rb_tree_node_base"** %14, align 8, !llfi_index !335
  %15 = call zeroext i1 @_ZSteqRKSt23_Rb_tree_const_iteratorISt4pairIKiiEES5_(%"struct.std::_Rb_tree_iterator"* nonnull align 8 dereferenceable(8) %5, %"struct.std::_Rb_tree_iterator"* nonnull align 8 dereferenceable(8) %6) #2, !llfi_index !336
  %16 = zext i1 %15 to i64, !llfi_index !337
  %17 = select i1 %15, i32 0, i32 1, !llfi_index !338
  %18 = sext i32 %17 to i64, !llfi_index !339
  ret i64 %18, !llfi_index !340
}

; Function Attrs: mustprogress noinline uwtable
define linkonce_odr dso_local nonnull align 4 dereferenceable(4) i32* @_ZNSt3mapIiiSt4lessIiESaISt4pairIKiiEEEixEOi(%"class.std::map"* nonnull align 8 dereferenceable(48) %0, i32* nonnull align 4 dereferenceable(4) %1) #4 comdat align 2 {
  %3 = alloca %"class.std::map"*, align 8, !llfi_index !341
  %4 = alloca i32*, align 8, !llfi_index !342
  %5 = alloca %"struct.std::_Rb_tree_iterator", align 8, !llfi_index !343
  %6 = alloca %"struct.std::_Rb_tree_iterator", align 8, !llfi_index !344
  %7 = alloca %"struct.std::less", align 1, !llfi_index !345
  %8 = alloca %"struct.std::less", align 1, !llfi_index !346
  %9 = alloca %"struct.std::_Rb_tree_iterator", align 8, !llfi_index !347
  %10 = alloca %"struct.std::_Rb_tree_iterator", align 8, !llfi_index !348
  %11 = alloca %"class.std::tuple", align 8, !llfi_index !349
  %12 = alloca %"struct.std::less", align 1, !llfi_index !350
  store %"class.std::map"* %0, %"class.std::map"** %3, align 8, !llfi_index !351
  store i32* %1, i32** %4, align 8, !llfi_index !352
  %13 = load %"class.std::map"*, %"class.std::map"** %3, align 8, !llfi_index !353
  %14 = load i32*, i32** %4, align 8, !llfi_index !354
  %15 = call %"struct.std::_Rb_tree_node_base"* @_ZNSt3mapIiiSt4lessIiESaISt4pairIKiiEEE11lower_boundERS3_(%"class.std::map"* nonnull align 8 dereferenceable(48) %13, i32* nonnull align 4 dereferenceable(4) %14), !llfi_index !355
  %16 = getelementptr inbounds %"struct.std::_Rb_tree_iterator", %"struct.std::_Rb_tree_iterator"* %5, i32 0, i32 0, !llfi_index !356
  store %"struct.std::_Rb_tree_node_base"* %15, %"struct.std::_Rb_tree_node_base"** %16, align 8, !llfi_index !357
  %17 = call %"struct.std::_Rb_tree_node_base"* @_ZNSt3mapIiiSt4lessIiESaISt4pairIKiiEEE3endEv(%"class.std::map"* nonnull align 8 dereferenceable(48) %13) #2, !llfi_index !358
  %18 = getelementptr inbounds %"struct.std::_Rb_tree_iterator", %"struct.std::_Rb_tree_iterator"* %6, i32 0, i32 0, !llfi_index !359
  store %"struct.std::_Rb_tree_node_base"* %17, %"struct.std::_Rb_tree_node_base"** %18, align 8, !llfi_index !360
  %19 = call zeroext i1 @_ZSteqRKSt17_Rb_tree_iteratorISt4pairIKiiEES5_(%"struct.std::_Rb_tree_iterator"* nonnull align 8 dereferenceable(8) %5, %"struct.std::_Rb_tree_iterator"* nonnull align 8 dereferenceable(8) %6) #2, !llfi_index !361
  br i1 %19, label %25, label %20, !llfi_index !362

20:                                               ; preds = %2
  call void @_ZNKSt3mapIiiSt4lessIiESaISt4pairIKiiEEE8key_compEv(%"class.std::map"* nonnull align 8 dereferenceable(48) %13), !llfi_index !363
  %21 = load i32*, i32** %4, align 8, !llfi_index !364
  %22 = call nonnull align 4 dereferenceable(8) %"struct.std::pair"* @_ZNKSt17_Rb_tree_iteratorISt4pairIKiiEEdeEv(%"struct.std::_Rb_tree_iterator"* nonnull align 8 dereferenceable(8) %5) #2, !llfi_index !365
  %23 = getelementptr inbounds %"struct.std::pair", %"struct.std::pair"* %22, i32 0, i32 0, !llfi_index !366
  %24 = call zeroext i1 @_ZNKSt4lessIiEclERKiS2_(%"struct.std::less"* nonnull align 1 dereferenceable(1) %7, i32* nonnull align 4 dereferenceable(4) %21, i32* nonnull align 4 dereferenceable(4) %23), !llfi_index !367
  br label %25, !llfi_index !368

25:                                               ; preds = %20, %2
  %26 = phi i1 [ true, %2 ], [ %24, %20 ], !llfi_index !369
  br i1 %26, label %27, label %37, !llfi_index !370

27:                                               ; preds = %25
  %28 = getelementptr inbounds %"class.std::map", %"class.std::map"* %13, i32 0, i32 0, !llfi_index !371
  call void @_ZNSt23_Rb_tree_const_iteratorISt4pairIKiiEEC2ERKSt17_Rb_tree_iteratorIS2_E(%"struct.std::_Rb_tree_iterator"* nonnull align 8 dereferenceable(8) %10, %"struct.std::_Rb_tree_iterator"* nonnull align 8 dereferenceable(8) %5) #2, !llfi_index !372
  %29 = load i32*, i32** %4, align 8, !llfi_index !373
  %30 = call nonnull align 4 dereferenceable(4) i32* @_ZSt4moveIRiEONSt16remove_referenceIT_E4typeEOS2_(i32* nonnull align 4 dereferenceable(4) %29) #2, !llfi_index !374
  call void @_ZSt16forward_as_tupleIJiEESt5tupleIJDpOT_EES3_(%"class.std::tuple"* sret(%"class.std::tuple") align 8 %11, i32* nonnull align 4 dereferenceable(4) %30) #2, !llfi_index !375
  %31 = getelementptr inbounds %"struct.std::_Rb_tree_iterator", %"struct.std::_Rb_tree_iterator"* %10, i32 0, i32 0, !llfi_index !376
  %32 = load %"struct.std::_Rb_tree_node_base"*, %"struct.std::_Rb_tree_node_base"** %31, align 8, !llfi_index !377
  %33 = call %"struct.std::_Rb_tree_node_base"* @_ZNSt8_Rb_treeIiSt4pairIKiiESt10_Select1stIS2_ESt4lessIiESaIS2_EE22_M_emplace_hint_uniqueIJRKSt21piecewise_construct_tSt5tupleIJOiEESD_IJEEEEESt17_Rb_tree_iteratorIS2_ESt23_Rb_tree_const_iteratorIS2_EDpOT_(%"class.std::_Rb_tree"* nonnull align 8 dereferenceable(48) %28, %"struct.std::_Rb_tree_node_base"* %32, %"struct.std::less"* nonnull align 1 dereferenceable(1) @_ZStL19piecewise_construct, %"class.std::tuple"* nonnull align 8 dereferenceable(8) %11, %"struct.std::less"* nonnull align 1 dereferenceable(1) %12), !llfi_index !378
  %34 = getelementptr inbounds %"struct.std::_Rb_tree_iterator", %"struct.std::_Rb_tree_iterator"* %9, i32 0, i32 0, !llfi_index !379
  store %"struct.std::_Rb_tree_node_base"* %33, %"struct.std::_Rb_tree_node_base"** %34, align 8, !llfi_index !380
  %35 = bitcast %"struct.std::_Rb_tree_iterator"* %5 to i8*, !llfi_index !381
  %36 = bitcast %"struct.std::_Rb_tree_iterator"* %9 to i8*, !llfi_index !382
  call void @llvm.memcpy.p0i8.p0i8.i64(i8* align 8 %35, i8* align 8 %36, i64 8, i1 false), !llfi_index !383
  br label %37, !llfi_index !384

37:                                               ; preds = %27, %25
  %38 = call nonnull align 4 dereferenceable(8) %"struct.std::pair"* @_ZNKSt17_Rb_tree_iteratorISt4pairIKiiEEdeEv(%"struct.std::_Rb_tree_iterator"* nonnull align 8 dereferenceable(8) %5) #2, !llfi_index !385
  %39 = getelementptr inbounds %"struct.std::pair", %"struct.std::pair"* %38, i32 0, i32 1, !llfi_index !386
  ret i32* %39, !llfi_index !387
}

; Function Attrs: mustprogress noinline uwtable
define linkonce_odr dso_local %"struct.std::_Rb_tree_node_base"* @_ZNSt3mapIiiSt4lessIiESaISt4pairIKiiEEE11lower_boundERS3_(%"class.std::map"* nonnull align 8 dereferenceable(48) %0, i32* nonnull align 4 dereferenceable(4) %1) #4 comdat align 2 {
  %3 = alloca %"struct.std::_Rb_tree_iterator", align 8, !llfi_index !388
  %4 = alloca %"class.std::map"*, align 8, !llfi_index !389
  %5 = alloca i32*, align 8, !llfi_index !390
  store %"class.std::map"* %0, %"class.std::map"** %4, align 8, !llfi_index !391
  store i32* %1, i32** %5, align 8, !llfi_index !392
  %6 = load %"class.std::map"*, %"class.std::map"** %4, align 8, !llfi_index !393
  %7 = getelementptr inbounds %"class.std::map", %"class.std::map"* %6, i32 0, i32 0, !llfi_index !394
  %8 = load i32*, i32** %5, align 8, !llfi_index !395
  %9 = call %"struct.std::_Rb_tree_node_base"* @_ZNSt8_Rb_treeIiSt4pairIKiiESt10_Select1stIS2_ESt4lessIiESaIS2_EE11lower_boundERS1_(%"class.std::_Rb_tree"* nonnull align 8 dereferenceable(48) %7, i32* nonnull align 4 dereferenceable(4) %8), !llfi_index !396
  %10 = getelementptr inbounds %"struct.std::_Rb_tree_iterator", %"struct.std::_Rb_tree_iterator"* %3, i32 0, i32 0, !llfi_index !397
  store %"struct.std::_Rb_tree_node_base"* %9, %"struct.std::_Rb_tree_node_base"** %10, align 8, !llfi_index !398
  %11 = getelementptr inbounds %"struct.std::_Rb_tree_iterator", %"struct.std::_Rb_tree_iterator"* %3, i32 0, i32 0, !llfi_index !399
  %12 = load %"struct.std::_Rb_tree_node_base"*, %"struct.std::_Rb_tree_node_base"** %11, align 8, !llfi_index !400
  ret %"struct.std::_Rb_tree_node_base"* %12, !llfi_index !401
}

; Function Attrs: mustprogress noinline nounwind uwtable
define linkonce_odr dso_local %"struct.std::_Rb_tree_node_base"* @_ZNSt3mapIiiSt4lessIiESaISt4pairIKiiEEE3endEv(%"class.std::map"* nonnull align 8 dereferenceable(48) %0) #3 comdat align 2 {
  %2 = alloca %"struct.std::_Rb_tree_iterator", align 8, !llfi_index !402
  %3 = alloca %"class.std::map"*, align 8, !llfi_index !403
  store %"class.std::map"* %0, %"class.std::map"** %3, align 8, !llfi_index !404
  %4 = load %"class.std::map"*, %"class.std::map"** %3, align 8, !llfi_index !405
  %5 = getelementptr inbounds %"class.std::map", %"class.std::map"* %4, i32 0, i32 0, !llfi_index !406
  %6 = call %"struct.std::_Rb_tree_node_base"* @_ZNSt8_Rb_treeIiSt4pairIKiiESt10_Select1stIS2_ESt4lessIiESaIS2_EE3endEv(%"class.std::_Rb_tree"* nonnull align 8 dereferenceable(48) %5) #2, !llfi_index !407
  %7 = getelementptr inbounds %"struct.std::_Rb_tree_iterator", %"struct.std::_Rb_tree_iterator"* %2, i32 0, i32 0, !llfi_index !408
  store %"struct.std::_Rb_tree_node_base"* %6, %"struct.std::_Rb_tree_node_base"** %7, align 8, !llfi_index !409
  %8 = getelementptr inbounds %"struct.std::_Rb_tree_iterator", %"struct.std::_Rb_tree_iterator"* %2, i32 0, i32 0, !llfi_index !410
  %9 = load %"struct.std::_Rb_tree_node_base"*, %"struct.std::_Rb_tree_node_base"** %8, align 8, !llfi_index !411
  ret %"struct.std::_Rb_tree_node_base"* %9, !llfi_index !412
}

; Function Attrs: mustprogress noinline nounwind uwtable
define linkonce_odr dso_local zeroext i1 @_ZSteqRKSt17_Rb_tree_iteratorISt4pairIKiiEES5_(%"struct.std::_Rb_tree_iterator"* nonnull align 8 dereferenceable(8) %0, %"struct.std::_Rb_tree_iterator"* nonnull align 8 dereferenceable(8) %1) #3 comdat {
  %3 = alloca %"struct.std::_Rb_tree_iterator"*, align 8, !llfi_index !413
  %4 = alloca %"struct.std::_Rb_tree_iterator"*, align 8, !llfi_index !414
  store %"struct.std::_Rb_tree_iterator"* %0, %"struct.std::_Rb_tree_iterator"** %3, align 8, !llfi_index !415
  store %"struct.std::_Rb_tree_iterator"* %1, %"struct.std::_Rb_tree_iterator"** %4, align 8, !llfi_index !416
  %5 = load %"struct.std::_Rb_tree_iterator"*, %"struct.std::_Rb_tree_iterator"** %3, align 8, !llfi_index !417
  %6 = getelementptr inbounds %"struct.std::_Rb_tree_iterator", %"struct.std::_Rb_tree_iterator"* %5, i32 0, i32 0, !llfi_index !418
  %7 = load %"struct.std::_Rb_tree_node_base"*, %"struct.std::_Rb_tree_node_base"** %6, align 8, !llfi_index !419
  %8 = load %"struct.std::_Rb_tree_iterator"*, %"struct.std::_Rb_tree_iterator"** %4, align 8, !llfi_index !420
  %9 = getelementptr inbounds %"struct.std::_Rb_tree_iterator", %"struct.std::_Rb_tree_iterator"* %8, i32 0, i32 0, !llfi_index !421
  %10 = load %"struct.std::_Rb_tree_node_base"*, %"struct.std::_Rb_tree_node_base"** %9, align 8, !llfi_index !422
  %11 = icmp eq %"struct.std::_Rb_tree_node_base"* %7, %10, !llfi_index !423
  ret i1 %11, !llfi_index !424
}

; Function Attrs: mustprogress noinline uwtable
define linkonce_odr dso_local void @_ZNKSt3mapIiiSt4lessIiESaISt4pairIKiiEEE8key_compEv(%"class.std::map"* nonnull align 8 dereferenceable(48) %0) #4 comdat align 2 {
  %2 = alloca %"class.std::map"*, align 8, !llfi_index !425
  %3 = alloca %"struct.std::less", align 1, !llfi_index !426
  store %"class.std::map"* %0, %"class.std::map"** %2, align 8, !llfi_index !427
  %4 = load %"class.std::map"*, %"class.std::map"** %2, align 8, !llfi_index !428
  %5 = getelementptr inbounds %"class.std::map", %"class.std::map"* %4, i32 0, i32 0, !llfi_index !429
  call void @_ZNKSt8_Rb_treeIiSt4pairIKiiESt10_Select1stIS2_ESt4lessIiESaIS2_EE8key_compEv(%"class.std::_Rb_tree"* nonnull align 8 dereferenceable(48) %5), !llfi_index !430
  ret void, !llfi_index !431
}

; Function Attrs: mustprogress noinline nounwind uwtable
define linkonce_odr dso_local nonnull align 4 dereferenceable(8) %"struct.std::pair"* @_ZNKSt17_Rb_tree_iteratorISt4pairIKiiEEdeEv(%"struct.std::_Rb_tree_iterator"* nonnull align 8 dereferenceable(8) %0) #3 comdat align 2 {
  %2 = alloca %"struct.std::_Rb_tree_iterator"*, align 8, !llfi_index !432
  store %"struct.std::_Rb_tree_iterator"* %0, %"struct.std::_Rb_tree_iterator"** %2, align 8, !llfi_index !433
  %3 = load %"struct.std::_Rb_tree_iterator"*, %"struct.std::_Rb_tree_iterator"** %2, align 8, !llfi_index !434
  %4 = getelementptr inbounds %"struct.std::_Rb_tree_iterator", %"struct.std::_Rb_tree_iterator"* %3, i32 0, i32 0, !llfi_index !435
  %5 = load %"struct.std::_Rb_tree_node_base"*, %"struct.std::_Rb_tree_node_base"** %4, align 8, !llfi_index !436
  %6 = bitcast %"struct.std::_Rb_tree_node_base"* %5 to %"struct.std::_Rb_tree_node"*, !llfi_index !437
  %7 = call %"struct.std::pair"* @_ZNSt13_Rb_tree_nodeISt4pairIKiiEE9_M_valptrEv(%"struct.std::_Rb_tree_node"* nonnull align 8 dereferenceable(40) %6), !llfi_index !438
  ret %"struct.std::pair"* %7, !llfi_index !439
}

; Function Attrs: mustprogress noinline nounwind uwtable
define linkonce_odr dso_local zeroext i1 @_ZNKSt4lessIiEclERKiS2_(%"struct.std::less"* nonnull align 1 dereferenceable(1) %0, i32* nonnull align 4 dereferenceable(4) %1, i32* nonnull align 4 dereferenceable(4) %2) #3 comdat align 2 {
  %4 = alloca %"struct.std::less"*, align 8, !llfi_index !440
  %5 = alloca i32*, align 8, !llfi_index !441
  %6 = alloca i32*, align 8, !llfi_index !442
  store %"struct.std::less"* %0, %"struct.std::less"** %4, align 8, !llfi_index !443
  store i32* %1, i32** %5, align 8, !llfi_index !444
  store i32* %2, i32** %6, align 8, !llfi_index !445
  %7 = load %"struct.std::less"*, %"struct.std::less"** %4, align 8, !llfi_index !446
  %8 = load i32*, i32** %5, align 8, !llfi_index !447
  %9 = load i32, i32* %8, align 4, !llfi_index !448
  %10 = load i32*, i32** %6, align 8, !llfi_index !449
  %11 = load i32, i32* %10, align 4, !llfi_index !450
  %12 = icmp slt i32 %9, %11, !llfi_index !451
  ret i1 %12, !llfi_index !452
}

; Function Attrs: noinline nounwind uwtable
define linkonce_odr dso_local void @_ZNSt23_Rb_tree_const_iteratorISt4pairIKiiEEC2ERKSt17_Rb_tree_iteratorIS2_E(%"struct.std::_Rb_tree_iterator"* nonnull align 8 dereferenceable(8) %0, %"struct.std::_Rb_tree_iterator"* nonnull align 8 dereferenceable(8) %1) unnamed_addr #1 comdat align 2 {
  %3 = alloca %"struct.std::_Rb_tree_iterator"*, align 8, !llfi_index !453
  %4 = alloca %"struct.std::_Rb_tree_iterator"*, align 8, !llfi_index !454
  store %"struct.std::_Rb_tree_iterator"* %0, %"struct.std::_Rb_tree_iterator"** %3, align 8, !llfi_index !455
  store %"struct.std::_Rb_tree_iterator"* %1, %"struct.std::_Rb_tree_iterator"** %4, align 8, !llfi_index !456
  %5 = load %"struct.std::_Rb_tree_iterator"*, %"struct.std::_Rb_tree_iterator"** %3, align 8, !llfi_index !457
  %6 = getelementptr inbounds %"struct.std::_Rb_tree_iterator", %"struct.std::_Rb_tree_iterator"* %5, i32 0, i32 0, !llfi_index !458
  %7 = load %"struct.std::_Rb_tree_iterator"*, %"struct.std::_Rb_tree_iterator"** %4, align 8, !llfi_index !459
  %8 = getelementptr inbounds %"struct.std::_Rb_tree_iterator", %"struct.std::_Rb_tree_iterator"* %7, i32 0, i32 0, !llfi_index !460
  %9 = load %"struct.std::_Rb_tree_node_base"*, %"struct.std::_Rb_tree_node_base"** %8, align 8, !llfi_index !461
  store %"struct.std::_Rb_tree_node_base"* %9, %"struct.std::_Rb_tree_node_base"** %6, align 8, !llfi_index !462
  ret void, !llfi_index !463
}

; Function Attrs: mustprogress noinline nounwind uwtable
define linkonce_odr dso_local nonnull align 4 dereferenceable(4) i32* @_ZSt4moveIRiEONSt16remove_referenceIT_E4typeEOS2_(i32* nonnull align 4 dereferenceable(4) %0) #3 comdat {
  %2 = alloca i32*, align 8, !llfi_index !464
  store i32* %0, i32** %2, align 8, !llfi_index !465
  %3 = load i32*, i32** %2, align 8, !llfi_index !466
  ret i32* %3, !llfi_index !467
}

; Function Attrs: mustprogress noinline nounwind uwtable
define linkonce_odr dso_local void @_ZSt16forward_as_tupleIJiEESt5tupleIJDpOT_EES3_(%"class.std::tuple"* noalias sret(%"class.std::tuple") align 8 %0, i32* nonnull align 4 dereferenceable(4) %1) #3 comdat personality i8* bitcast (i32 (...)* @__gxx_personality_v0 to i8*) {
  %3 = alloca i8*, align 8, !llfi_index !468
  %4 = alloca i32*, align 8, !llfi_index !469
  %5 = bitcast %"class.std::tuple"* %0 to i8*, !llfi_index !470
  store i8* %5, i8** %3, align 8, !llfi_index !471
  store i32* %1, i32** %4, align 8, !llfi_index !472
  %6 = load i32*, i32** %4, align 8, !llfi_index !473
  %7 = call nonnull align 4 dereferenceable(4) i32* @_ZSt7forwardIiEOT_RNSt16remove_referenceIS0_E4typeE(i32* nonnull align 4 dereferenceable(4) %6) #2, !llfi_index !474
  invoke void @_ZNSt5tupleIJOiEEC2IJiELb1EEEDpOT_(%"class.std::tuple"* nonnull align 8 dereferenceable(8) %0, i32* nonnull align 4 dereferenceable(4) %7)
          to label %8 unwind label %9, !llfi_index !475

8:                                                ; preds = %2
  ret void, !llfi_index !476

9:                                                ; preds = %2
  %10 = landingpad { i8*, i32 }
          catch i8* null, !llfi_index !477
  %11 = extractvalue { i8*, i32 } %10, 0, !llfi_index !478
  call void @__clang_call_terminate(i8* %11) #15, !llfi_index !479
  unreachable, !llfi_index !480
}

; Function Attrs: mustprogress noinline uwtable
define linkonce_odr dso_local %"struct.std::_Rb_tree_node_base"* @_ZNSt8_Rb_treeIiSt4pairIKiiESt10_Select1stIS2_ESt4lessIiESaIS2_EE22_M_emplace_hint_uniqueIJRKSt21piecewise_construct_tSt5tupleIJOiEESD_IJEEEEESt17_Rb_tree_iteratorIS2_ESt23_Rb_tree_const_iteratorIS2_EDpOT_(%"class.std::_Rb_tree"* nonnull align 8 dereferenceable(48) %0, %"struct.std::_Rb_tree_node_base"* %1, %"struct.std::less"* nonnull align 1 dereferenceable(1) %2, %"class.std::tuple"* nonnull align 8 dereferenceable(8) %3, %"struct.std::less"* nonnull align 1 dereferenceable(1) %4) #4 comdat align 2 personality i8* bitcast (i32 (...)* @__gxx_personality_v0 to i8*) {
  %6 = alloca %"struct.std::_Rb_tree_iterator", align 8, !llfi_index !481
  %7 = alloca %"struct.std::_Rb_tree_iterator", align 8, !llfi_index !482
  %8 = alloca %"class.std::_Rb_tree"*, align 8, !llfi_index !483
  %9 = alloca %"struct.std::less"*, align 8, !llfi_index !484
  %10 = alloca %"class.std::tuple"*, align 8, !llfi_index !485
  %11 = alloca %"struct.std::less"*, align 8, !llfi_index !486
  %12 = alloca %"struct.std::_Rb_tree_node"*, align 8, !llfi_index !487
  %13 = alloca %"struct.std::pair.1", align 8, !llfi_index !488
  %14 = alloca %"struct.std::_Rb_tree_iterator", align 8, !llfi_index !489
  %15 = alloca i8*, align 8, !llfi_index !490
  %16 = alloca i32, align 4, !llfi_index !491
  %17 = getelementptr inbounds %"struct.std::_Rb_tree_iterator", %"struct.std::_Rb_tree_iterator"* %7, i32 0, i32 0, !llfi_index !492
  store %"struct.std::_Rb_tree_node_base"* %1, %"struct.std::_Rb_tree_node_base"** %17, align 8, !llfi_index !493
  store %"class.std::_Rb_tree"* %0, %"class.std::_Rb_tree"** %8, align 8, !llfi_index !494
  store %"struct.std::less"* %2, %"struct.std::less"** %9, align 8, !llfi_index !495
  store %"class.std::tuple"* %3, %"class.std::tuple"** %10, align 8, !llfi_index !496
  store %"struct.std::less"* %4, %"struct.std::less"** %11, align 8, !llfi_index !497
  %18 = load %"class.std::_Rb_tree"*, %"class.std::_Rb_tree"** %8, align 8, !llfi_index !498
  %19 = load %"struct.std::less"*, %"struct.std::less"** %9, align 8, !llfi_index !499
  %20 = call nonnull align 1 dereferenceable(1) %"struct.std::less"* @_ZSt7forwardIRKSt21piecewise_construct_tEOT_RNSt16remove_referenceIS3_E4typeE(%"struct.std::less"* nonnull align 1 dereferenceable(1) %19) #2, !llfi_index !500
  %21 = load %"class.std::tuple"*, %"class.std::tuple"** %10, align 8, !llfi_index !501
  %22 = call nonnull align 8 dereferenceable(8) %"class.std::tuple"* @_ZSt7forwardISt5tupleIJOiEEEOT_RNSt16remove_referenceIS3_E4typeE(%"class.std::tuple"* nonnull align 8 dereferenceable(8) %21) #2, !llfi_index !502
  %23 = load %"struct.std::less"*, %"struct.std::less"** %11, align 8, !llfi_index !503
  %24 = call nonnull align 1 dereferenceable(1) %"struct.std::less"* @_ZSt7forwardISt5tupleIJEEEOT_RNSt16remove_referenceIS2_E4typeE(%"struct.std::less"* nonnull align 1 dereferenceable(1) %23) #2, !llfi_index !504
  %25 = call %"struct.std::_Rb_tree_node"* @_ZNSt8_Rb_treeIiSt4pairIKiiESt10_Select1stIS2_ESt4lessIiESaIS2_EE14_M_create_nodeIJRKSt21piecewise_construct_tSt5tupleIJOiEESD_IJEEEEEPSt13_Rb_tree_nodeIS2_EDpOT_(%"class.std::_Rb_tree"* nonnull align 8 dereferenceable(48) %18, %"struct.std::less"* nonnull align 1 dereferenceable(1) %20, %"class.std::tuple"* nonnull align 8 dereferenceable(8) %22, %"struct.std::less"* nonnull align 1 dereferenceable(1) %24), !llfi_index !505
  store %"struct.std::_Rb_tree_node"* %25, %"struct.std::_Rb_tree_node"** %12, align 8, !llfi_index !506
  %26 = bitcast %"struct.std::_Rb_tree_iterator"* %14 to i8*, !llfi_index !507
  %27 = bitcast %"struct.std::_Rb_tree_iterator"* %7 to i8*, !llfi_index !508
  call void @llvm.memcpy.p0i8.p0i8.i64(i8* align 8 %26, i8* align 8 %27, i64 8, i1 false), !llfi_index !509
  %28 = load %"struct.std::_Rb_tree_node"*, %"struct.std::_Rb_tree_node"** %12, align 8, !llfi_index !510
  %29 = invoke nonnull align 4 dereferenceable(4) i32* @_ZNSt8_Rb_treeIiSt4pairIKiiESt10_Select1stIS2_ESt4lessIiESaIS2_EE6_S_keyEPKSt13_Rb_tree_nodeIS2_E(%"struct.std::_Rb_tree_node"* %28)
          to label %30 unwind label %52, !llfi_index !511

30:                                               ; preds = %5
  %31 = getelementptr inbounds %"struct.std::_Rb_tree_iterator", %"struct.std::_Rb_tree_iterator"* %14, i32 0, i32 0, !llfi_index !512
  %32 = load %"struct.std::_Rb_tree_node_base"*, %"struct.std::_Rb_tree_node_base"** %31, align 8, !llfi_index !513
  %33 = invoke { %"struct.std::_Rb_tree_node_base"*, %"struct.std::_Rb_tree_node_base"* } @_ZNSt8_Rb_treeIiSt4pairIKiiESt10_Select1stIS2_ESt4lessIiESaIS2_EE29_M_get_insert_hint_unique_posESt23_Rb_tree_const_iteratorIS2_ERS1_(%"class.std::_Rb_tree"* nonnull align 8 dereferenceable(48) %18, %"struct.std::_Rb_tree_node_base"* %32, i32* nonnull align 4 dereferenceable(4) %29)
          to label %34 unwind label %52, !llfi_index !514

34:                                               ; preds = %30
  %35 = bitcast %"struct.std::pair.1"* %13 to { %"struct.std::_Rb_tree_node_base"*, %"struct.std::_Rb_tree_node_base"* }*, !llfi_index !515
  %36 = getelementptr inbounds { %"struct.std::_Rb_tree_node_base"*, %"struct.std::_Rb_tree_node_base"* }, { %"struct.std::_Rb_tree_node_base"*, %"struct.std::_Rb_tree_node_base"* }* %35, i32 0, i32 0, !llfi_index !516
  %37 = extractvalue { %"struct.std::_Rb_tree_node_base"*, %"struct.std::_Rb_tree_node_base"* } %33, 0, !llfi_index !517
  store %"struct.std::_Rb_tree_node_base"* %37, %"struct.std::_Rb_tree_node_base"** %36, align 8, !llfi_index !518
  %38 = getelementptr inbounds { %"struct.std::_Rb_tree_node_base"*, %"struct.std::_Rb_tree_node_base"* }, { %"struct.std::_Rb_tree_node_base"*, %"struct.std::_Rb_tree_node_base"* }* %35, i32 0, i32 1, !llfi_index !519
  %39 = extractvalue { %"struct.std::_Rb_tree_node_base"*, %"struct.std::_Rb_tree_node_base"* } %33, 1, !llfi_index !520
  store %"struct.std::_Rb_tree_node_base"* %39, %"struct.std::_Rb_tree_node_base"** %38, align 8, !llfi_index !521
  %40 = getelementptr inbounds %"struct.std::pair.1", %"struct.std::pair.1"* %13, i32 0, i32 1, !llfi_index !522
  %41 = load %"struct.std::_Rb_tree_node_base"*, %"struct.std::_Rb_tree_node_base"** %40, align 8, !llfi_index !523
  %42 = icmp ne %"struct.std::_Rb_tree_node_base"* %41, null, !llfi_index !524
  br i1 %42, label %43, label %60, !llfi_index !525

43:                                               ; preds = %34
  %44 = getelementptr inbounds %"struct.std::pair.1", %"struct.std::pair.1"* %13, i32 0, i32 0, !llfi_index !526
  %45 = load %"struct.std::_Rb_tree_node_base"*, %"struct.std::_Rb_tree_node_base"** %44, align 8, !llfi_index !527
  %46 = getelementptr inbounds %"struct.std::pair.1", %"struct.std::pair.1"* %13, i32 0, i32 1, !llfi_index !528
  %47 = load %"struct.std::_Rb_tree_node_base"*, %"struct.std::_Rb_tree_node_base"** %46, align 8, !llfi_index !529
  %48 = load %"struct.std::_Rb_tree_node"*, %"struct.std::_Rb_tree_node"** %12, align 8, !llfi_index !530
  %49 = invoke %"struct.std::_Rb_tree_node_base"* @_ZNSt8_Rb_treeIiSt4pairIKiiESt10_Select1stIS2_ESt4lessIiESaIS2_EE14_M_insert_nodeEPSt18_Rb_tree_node_baseSA_PSt13_Rb_tree_nodeIS2_E(%"class.std::_Rb_tree"* nonnull align 8 dereferenceable(48) %18, %"struct.std::_Rb_tree_node_base"* %45, %"struct.std::_Rb_tree_node_base"* %47, %"struct.std::_Rb_tree_node"* %48)
          to label %50 unwind label %52, !llfi_index !531

50:                                               ; preds = %43
  %51 = getelementptr inbounds %"struct.std::_Rb_tree_iterator", %"struct.std::_Rb_tree_iterator"* %6, i32 0, i32 0, !llfi_index !532
  store %"struct.std::_Rb_tree_node_base"* %49, %"struct.std::_Rb_tree_node_base"** %51, align 8, !llfi_index !533
  br label %70, !llfi_index !534

52:                                               ; preds = %43, %30, %5
  %53 = landingpad { i8*, i32 }
          catch i8* null, !llfi_index !535
  %54 = extractvalue { i8*, i32 } %53, 0, !llfi_index !536
  store i8* %54, i8** %15, align 8, !llfi_index !537
  %55 = extractvalue { i8*, i32 } %53, 1, !llfi_index !538
  store i32 %55, i32* %16, align 4, !llfi_index !539
  br label %56, !llfi_index !540

56:                                               ; preds = %52
  %57 = load i8*, i8** %15, align 8, !llfi_index !541
  %58 = call i8* @__cxa_begin_catch(i8* %57) #2, !llfi_index !542
  %59 = load %"struct.std::_Rb_tree_node"*, %"struct.std::_Rb_tree_node"** %12, align 8, !llfi_index !543
  call void @_ZNSt8_Rb_treeIiSt4pairIKiiESt10_Select1stIS2_ESt4lessIiESaIS2_EE12_M_drop_nodeEPSt13_Rb_tree_nodeIS2_E(%"class.std::_Rb_tree"* nonnull align 8 dereferenceable(48) %18, %"struct.std::_Rb_tree_node"* %59) #2, !llfi_index !544
  invoke void @__cxa_rethrow() #16
          to label %81 unwind label %64, !llfi_index !545

60:                                               ; preds = %34
  %61 = load %"struct.std::_Rb_tree_node"*, %"struct.std::_Rb_tree_node"** %12, align 8, !llfi_index !546
  call void @_ZNSt8_Rb_treeIiSt4pairIKiiESt10_Select1stIS2_ESt4lessIiESaIS2_EE12_M_drop_nodeEPSt13_Rb_tree_nodeIS2_E(%"class.std::_Rb_tree"* nonnull align 8 dereferenceable(48) %18, %"struct.std::_Rb_tree_node"* %61) #2, !llfi_index !547
  %62 = getelementptr inbounds %"struct.std::pair.1", %"struct.std::pair.1"* %13, i32 0, i32 0, !llfi_index !548
  %63 = load %"struct.std::_Rb_tree_node_base"*, %"struct.std::_Rb_tree_node_base"** %62, align 8, !llfi_index !549
  call void @_ZNSt17_Rb_tree_iteratorISt4pairIKiiEEC2EPSt18_Rb_tree_node_base(%"struct.std::_Rb_tree_iterator"* nonnull align 8 dereferenceable(8) %6, %"struct.std::_Rb_tree_node_base"* %63) #2, !llfi_index !550
  br label %70, !llfi_index !551

64:                                               ; preds = %56
  %65 = landingpad { i8*, i32 }
          cleanup, !llfi_index !552
  %66 = extractvalue { i8*, i32 } %65, 0, !llfi_index !553
  store i8* %66, i8** %15, align 8, !llfi_index !554
  %67 = extractvalue { i8*, i32 } %65, 1, !llfi_index !555
  store i32 %67, i32* %16, align 4, !llfi_index !556
  invoke void @__cxa_end_catch()
          to label %68 unwind label %78, !llfi_index !557

68:                                               ; preds = %64
  br label %73, !llfi_index !558

69:                                               ; No predecessors!
  call void @llvm.trap(), !llfi_index !559
  unreachable, !llfi_index !560

70:                                               ; preds = %60, %50
  %71 = getelementptr inbounds %"struct.std::_Rb_tree_iterator", %"struct.std::_Rb_tree_iterator"* %6, i32 0, i32 0, !llfi_index !561
  %72 = load %"struct.std::_Rb_tree_node_base"*, %"struct.std::_Rb_tree_node_base"** %71, align 8, !llfi_index !562
  ret %"struct.std::_Rb_tree_node_base"* %72, !llfi_index !563

73:                                               ; preds = %68
  %74 = load i8*, i8** %15, align 8, !llfi_index !564
  %75 = load i32, i32* %16, align 4, !llfi_index !565
  %76 = insertvalue { i8*, i32 } undef, i8* %74, 0, !llfi_index !566
  %77 = insertvalue { i8*, i32 } %76, i32 %75, 1, !llfi_index !567
  resume { i8*, i32 } %77, !llfi_index !568

78:                                               ; preds = %64
  %79 = landingpad { i8*, i32 }
          catch i8* null, !llfi_index !569
  %80 = extractvalue { i8*, i32 } %79, 0, !llfi_index !570
  call void @__clang_call_terminate(i8* %80) #15, !llfi_index !571
  unreachable, !llfi_index !572

81:                                               ; preds = %56
  unreachable, !llfi_index !573
}

; Function Attrs: argmemonly nofree nounwind willreturn
declare void @llvm.memcpy.p0i8.p0i8.i64(i8* noalias nocapture writeonly, i8* noalias nocapture readonly, i64, i1 immarg) #9

; Function Attrs: mustprogress noinline nounwind uwtable
define linkonce_odr dso_local nonnull align 1 dereferenceable(1) %"struct.std::less"* @_ZSt7forwardIRKSt21piecewise_construct_tEOT_RNSt16remove_referenceIS3_E4typeE(%"struct.std::less"* nonnull align 1 dereferenceable(1) %0) #3 comdat {
  %2 = alloca %"struct.std::less"*, align 8, !llfi_index !574
  store %"struct.std::less"* %0, %"struct.std::less"** %2, align 8, !llfi_index !575
  %3 = load %"struct.std::less"*, %"struct.std::less"** %2, align 8, !llfi_index !576
  ret %"struct.std::less"* %3, !llfi_index !577
}

; Function Attrs: mustprogress noinline nounwind uwtable
define linkonce_odr dso_local nonnull align 8 dereferenceable(8) %"class.std::tuple"* @_ZSt7forwardISt5tupleIJOiEEEOT_RNSt16remove_referenceIS3_E4typeE(%"class.std::tuple"* nonnull align 8 dereferenceable(8) %0) #3 comdat {
  %2 = alloca %"class.std::tuple"*, align 8, !llfi_index !578
  store %"class.std::tuple"* %0, %"class.std::tuple"** %2, align 8, !llfi_index !579
  %3 = load %"class.std::tuple"*, %"class.std::tuple"** %2, align 8, !llfi_index !580
  ret %"class.std::tuple"* %3, !llfi_index !581
}

; Function Attrs: mustprogress noinline nounwind uwtable
define linkonce_odr dso_local nonnull align 1 dereferenceable(1) %"struct.std::less"* @_ZSt7forwardISt5tupleIJEEEOT_RNSt16remove_referenceIS2_E4typeE(%"struct.std::less"* nonnull align 1 dereferenceable(1) %0) #3 comdat {
  %2 = alloca %"struct.std::less"*, align 8, !llfi_index !582
  store %"struct.std::less"* %0, %"struct.std::less"** %2, align 8, !llfi_index !583
  %3 = load %"struct.std::less"*, %"struct.std::less"** %2, align 8, !llfi_index !584
  ret %"struct.std::less"* %3, !llfi_index !585
}

; Function Attrs: mustprogress noinline uwtable
define linkonce_odr dso_local %"struct.std::_Rb_tree_node"* @_ZNSt8_Rb_treeIiSt4pairIKiiESt10_Select1stIS2_ESt4lessIiESaIS2_EE14_M_create_nodeIJRKSt21piecewise_construct_tSt5tupleIJOiEESD_IJEEEEEPSt13_Rb_tree_nodeIS2_EDpOT_(%"class.std::_Rb_tree"* nonnull align 8 dereferenceable(48) %0, %"struct.std::less"* nonnull align 1 dereferenceable(1) %1, %"class.std::tuple"* nonnull align 8 dereferenceable(8) %2, %"struct.std::less"* nonnull align 1 dereferenceable(1) %3) #4 comdat align 2 {
  %5 = alloca %"class.std::_Rb_tree"*, align 8, !llfi_index !586
  %6 = alloca %"struct.std::less"*, align 8, !llfi_index !587
  %7 = alloca %"class.std::tuple"*, align 8, !llfi_index !588
  %8 = alloca %"struct.std::less"*, align 8, !llfi_index !589
  %9 = alloca %"struct.std::_Rb_tree_node"*, align 8, !llfi_index !590
  store %"class.std::_Rb_tree"* %0, %"class.std::_Rb_tree"** %5, align 8, !llfi_index !591
  store %"struct.std::less"* %1, %"struct.std::less"** %6, align 8, !llfi_index !592
  store %"class.std::tuple"* %2, %"class.std::tuple"** %7, align 8, !llfi_index !593
  store %"struct.std::less"* %3, %"struct.std::less"** %8, align 8, !llfi_index !594
  %10 = load %"class.std::_Rb_tree"*, %"class.std::_Rb_tree"** %5, align 8, !llfi_index !595
  %11 = call %"struct.std::_Rb_tree_node"* @_ZNSt8_Rb_treeIiSt4pairIKiiESt10_Select1stIS2_ESt4lessIiESaIS2_EE11_M_get_nodeEv(%"class.std::_Rb_tree"* nonnull align 8 dereferenceable(48) %10), !llfi_index !596
  store %"struct.std::_Rb_tree_node"* %11, %"struct.std::_Rb_tree_node"** %9, align 8, !llfi_index !597
  %12 = load %"struct.std::_Rb_tree_node"*, %"struct.std::_Rb_tree_node"** %9, align 8, !llfi_index !598
  %13 = load %"struct.std::less"*, %"struct.std::less"** %6, align 8, !llfi_index !599
  %14 = call nonnull align 1 dereferenceable(1) %"struct.std::less"* @_ZSt7forwardIRKSt21piecewise_construct_tEOT_RNSt16remove_referenceIS3_E4typeE(%"struct.std::less"* nonnull align 1 dereferenceable(1) %13) #2, !llfi_index !600
  %15 = load %"class.std::tuple"*, %"class.std::tuple"** %7, align 8, !llfi_index !601
  %16 = call nonnull align 8 dereferenceable(8) %"class.std::tuple"* @_ZSt7forwardISt5tupleIJOiEEEOT_RNSt16remove_referenceIS3_E4typeE(%"class.std::tuple"* nonnull align 8 dereferenceable(8) %15) #2, !llfi_index !602
  %17 = load %"struct.std::less"*, %"struct.std::less"** %8, align 8, !llfi_index !603
  %18 = call nonnull align 1 dereferenceable(1) %"struct.std::less"* @_ZSt7forwardISt5tupleIJEEEOT_RNSt16remove_referenceIS2_E4typeE(%"struct.std::less"* nonnull align 1 dereferenceable(1) %17) #2, !llfi_index !604
  call void @_ZNSt8_Rb_treeIiSt4pairIKiiESt10_Select1stIS2_ESt4lessIiESaIS2_EE17_M_construct_nodeIJRKSt21piecewise_construct_tSt5tupleIJOiEESD_IJEEEEEvPSt13_Rb_tree_nodeIS2_EDpOT_(%"class.std::_Rb_tree"* nonnull align 8 dereferenceable(48) %10, %"struct.std::_Rb_tree_node"* %12, %"struct.std::less"* nonnull align 1 dereferenceable(1) %14, %"class.std::tuple"* nonnull align 8 dereferenceable(8) %16, %"struct.std::less"* nonnull align 1 dereferenceable(1) %18), !llfi_index !605
  %19 = load %"struct.std::_Rb_tree_node"*, %"struct.std::_Rb_tree_node"** %9, align 8, !llfi_index !606
  ret %"struct.std::_Rb_tree_node"* %19, !llfi_index !607
}

; Function Attrs: mustprogress noinline uwtable
define linkonce_odr dso_local nonnull align 4 dereferenceable(4) i32* @_ZNSt8_Rb_treeIiSt4pairIKiiESt10_Select1stIS2_ESt4lessIiESaIS2_EE6_S_keyEPKSt13_Rb_tree_nodeIS2_E(%"struct.std::_Rb_tree_node"* %0) #4 comdat align 2 {
  %2 = alloca %"struct.std::_Rb_tree_node"*, align 8, !llfi_index !608
  %3 = alloca %"struct.std::less", align 1, !llfi_index !609
  store %"struct.std::_Rb_tree_node"* %0, %"struct.std::_Rb_tree_node"** %2, align 8, !llfi_index !610
  %4 = load %"struct.std::_Rb_tree_node"*, %"struct.std::_Rb_tree_node"** %2, align 8, !llfi_index !611
  %5 = call %"struct.std::pair"* @_ZNKSt13_Rb_tree_nodeISt4pairIKiiEE9_M_valptrEv(%"struct.std::_Rb_tree_node"* nonnull align 8 dereferenceable(40) %4), !llfi_index !612
  %6 = call nonnull align 4 dereferenceable(4) i32* @_ZNKSt10_Select1stISt4pairIKiiEEclERKS2_(%"struct.std::less"* nonnull align 1 dereferenceable(1) %3, %"struct.std::pair"* nonnull align 4 dereferenceable(8) %5), !llfi_index !613
  ret i32* %6, !llfi_index !614
}

; Function Attrs: mustprogress noinline uwtable
define linkonce_odr dso_local { %"struct.std::_Rb_tree_node_base"*, %"struct.std::_Rb_tree_node_base"* } @_ZNSt8_Rb_treeIiSt4pairIKiiESt10_Select1stIS2_ESt4lessIiESaIS2_EE29_M_get_insert_hint_unique_posESt23_Rb_tree_const_iteratorIS2_ERS1_(%"class.std::_Rb_tree"* nonnull align 8 dereferenceable(48) %0, %"struct.std::_Rb_tree_node_base"* %1, i32* nonnull align 4 dereferenceable(4) %2) #4 comdat align 2 {
  %4 = alloca %"struct.std::pair.1", align 8, !llfi_index !615
  %5 = alloca %"struct.std::_Rb_tree_iterator", align 8, !llfi_index !616
  %6 = alloca %"class.std::_Rb_tree"*, align 8, !llfi_index !617
  %7 = alloca i32*, align 8, !llfi_index !618
  %8 = alloca %"struct.std::_Rb_tree_iterator", align 8, !llfi_index !619
  %9 = alloca %"struct.std::_Rb_tree_node_base"*, align 8, !llfi_index !620
  %10 = alloca %"struct.std::_Rb_tree_iterator", align 8, !llfi_index !621
  %11 = alloca %"struct.std::_Rb_tree_node_base"*, align 8, !llfi_index !622
  %12 = alloca %"struct.std::_Rb_tree_iterator", align 8, !llfi_index !623
  %13 = alloca %"struct.std::_Rb_tree_node_base"*, align 8, !llfi_index !624
  %14 = alloca %"struct.std::_Rb_tree_node_base"*, align 8, !llfi_index !625
  %15 = alloca %"struct.std::_Rb_tree_node_base"*, align 8, !llfi_index !626
  %16 = getelementptr inbounds %"struct.std::_Rb_tree_iterator", %"struct.std::_Rb_tree_iterator"* %5, i32 0, i32 0, !llfi_index !627
  store %"struct.std::_Rb_tree_node_base"* %1, %"struct.std::_Rb_tree_node_base"** %16, align 8, !llfi_index !628
  store %"class.std::_Rb_tree"* %0, %"class.std::_Rb_tree"** %6, align 8, !llfi_index !629
  store i32* %2, i32** %7, align 8, !llfi_index !630
  %17 = load %"class.std::_Rb_tree"*, %"class.std::_Rb_tree"** %6, align 8, !llfi_index !631
  %18 = call %"struct.std::_Rb_tree_node_base"* @_ZNKSt23_Rb_tree_const_iteratorISt4pairIKiiEE13_M_const_castEv(%"struct.std::_Rb_tree_iterator"* nonnull align 8 dereferenceable(8) %5) #2, !llfi_index !632
  %19 = getelementptr inbounds %"struct.std::_Rb_tree_iterator", %"struct.std::_Rb_tree_iterator"* %8, i32 0, i32 0, !llfi_index !633
  store %"struct.std::_Rb_tree_node_base"* %18, %"struct.std::_Rb_tree_node_base"** %19, align 8, !llfi_index !634
  %20 = getelementptr inbounds %"struct.std::_Rb_tree_iterator", %"struct.std::_Rb_tree_iterator"* %8, i32 0, i32 0, !llfi_index !635
  %21 = load %"struct.std::_Rb_tree_node_base"*, %"struct.std::_Rb_tree_node_base"** %20, align 8, !llfi_index !636
  %22 = call %"struct.std::_Rb_tree_node_base"* @_ZNSt8_Rb_treeIiSt4pairIKiiESt10_Select1stIS2_ESt4lessIiESaIS2_EE6_M_endEv(%"class.std::_Rb_tree"* nonnull align 8 dereferenceable(48) %17) #2, !llfi_index !637
  %23 = icmp eq %"struct.std::_Rb_tree_node_base"* %21, %22, !llfi_index !638
  br i1 %23, label %24, label %46, !llfi_index !639

24:                                               ; preds = %3
  %25 = call i64 @_ZNKSt8_Rb_treeIiSt4pairIKiiESt10_Select1stIS2_ESt4lessIiESaIS2_EE4sizeEv(%"class.std::_Rb_tree"* nonnull align 8 dereferenceable(48) %17) #2, !llfi_index !640
  %26 = icmp ugt i64 %25, 0, !llfi_index !641
  br i1 %26, label %27, label %38, !llfi_index !642

27:                                               ; preds = %24
  %28 = getelementptr inbounds %"class.std::_Rb_tree", %"class.std::_Rb_tree"* %17, i32 0, i32 0, !llfi_index !643
  %29 = bitcast %"struct.std::_Rb_tree<int, std::pair<const int, int>, std::_Select1st<std::pair<const int, int>>, std::less<int>>::_Rb_tree_impl"* %28 to %"struct.std::_Rb_tree_key_compare"*, !llfi_index !644
  %30 = getelementptr inbounds %"struct.std::_Rb_tree_key_compare", %"struct.std::_Rb_tree_key_compare"* %29, i32 0, i32 0, !llfi_index !645
  %31 = call nonnull align 8 dereferenceable(8) %"struct.std::_Rb_tree_node_base"** @_ZNSt8_Rb_treeIiSt4pairIKiiESt10_Select1stIS2_ESt4lessIiESaIS2_EE12_M_rightmostEv(%"class.std::_Rb_tree"* nonnull align 8 dereferenceable(48) %17) #2, !llfi_index !646
  %32 = load %"struct.std::_Rb_tree_node_base"*, %"struct.std::_Rb_tree_node_base"** %31, align 8, !llfi_index !647
  %33 = call nonnull align 4 dereferenceable(4) i32* @_ZNSt8_Rb_treeIiSt4pairIKiiESt10_Select1stIS2_ESt4lessIiESaIS2_EE6_S_keyEPKSt18_Rb_tree_node_base(%"struct.std::_Rb_tree_node_base"* %32), !llfi_index !648
  %34 = load i32*, i32** %7, align 8, !llfi_index !649
  %35 = call zeroext i1 @_ZNKSt4lessIiEclERKiS2_(%"struct.std::less"* nonnull align 1 dereferenceable(1) %30, i32* nonnull align 4 dereferenceable(4) %33, i32* nonnull align 4 dereferenceable(4) %34), !llfi_index !650
  br i1 %35, label %36, label %38, !llfi_index !651

36:                                               ; preds = %27
  store %"struct.std::_Rb_tree_node_base"* null, %"struct.std::_Rb_tree_node_base"** %9, align 8, !llfi_index !652
  %37 = call nonnull align 8 dereferenceable(8) %"struct.std::_Rb_tree_node_base"** @_ZNSt8_Rb_treeIiSt4pairIKiiESt10_Select1stIS2_ESt4lessIiESaIS2_EE12_M_rightmostEv(%"class.std::_Rb_tree"* nonnull align 8 dereferenceable(48) %17) #2, !llfi_index !653
  call void @_ZNSt4pairIPSt18_Rb_tree_node_baseS1_EC2IRS1_Lb1EEERKS1_OT_(%"struct.std::pair.1"* nonnull align 8 dereferenceable(16) %4, %"struct.std::_Rb_tree_node_base"** nonnull align 8 dereferenceable(8) %9, %"struct.std::_Rb_tree_node_base"** nonnull align 8 dereferenceable(8) %37), !llfi_index !654
  br label %143, !llfi_index !655

38:                                               ; preds = %27, %24
  %39 = load i32*, i32** %7, align 8, !llfi_index !656
  %40 = call { %"struct.std::_Rb_tree_node_base"*, %"struct.std::_Rb_tree_node_base"* } @_ZNSt8_Rb_treeIiSt4pairIKiiESt10_Select1stIS2_ESt4lessIiESaIS2_EE24_M_get_insert_unique_posERS1_(%"class.std::_Rb_tree"* nonnull align 8 dereferenceable(48) %17, i32* nonnull align 4 dereferenceable(4) %39), !llfi_index !657
  %41 = bitcast %"struct.std::pair.1"* %4 to { %"struct.std::_Rb_tree_node_base"*, %"struct.std::_Rb_tree_node_base"* }*, !llfi_index !658
  %42 = getelementptr inbounds { %"struct.std::_Rb_tree_node_base"*, %"struct.std::_Rb_tree_node_base"* }, { %"struct.std::_Rb_tree_node_base"*, %"struct.std::_Rb_tree_node_base"* }* %41, i32 0, i32 0, !llfi_index !659
  %43 = extractvalue { %"struct.std::_Rb_tree_node_base"*, %"struct.std::_Rb_tree_node_base"* } %40, 0, !llfi_index !660
  store %"struct.std::_Rb_tree_node_base"* %43, %"struct.std::_Rb_tree_node_base"** %42, align 8, !llfi_index !661
  %44 = getelementptr inbounds { %"struct.std::_Rb_tree_node_base"*, %"struct.std::_Rb_tree_node_base"* }, { %"struct.std::_Rb_tree_node_base"*, %"struct.std::_Rb_tree_node_base"* }* %41, i32 0, i32 1, !llfi_index !662
  %45 = extractvalue { %"struct.std::_Rb_tree_node_base"*, %"struct.std::_Rb_tree_node_base"* } %40, 1, !llfi_index !663
  store %"struct.std::_Rb_tree_node_base"* %45, %"struct.std::_Rb_tree_node_base"** %44, align 8, !llfi_index !664
  br label %143, !llfi_index !665

46:                                               ; preds = %3
  %47 = getelementptr inbounds %"class.std::_Rb_tree", %"class.std::_Rb_tree"* %17, i32 0, i32 0, !llfi_index !666
  %48 = bitcast %"struct.std::_Rb_tree<int, std::pair<const int, int>, std::_Select1st<std::pair<const int, int>>, std::less<int>>::_Rb_tree_impl"* %47 to %"struct.std::_Rb_tree_key_compare"*, !llfi_index !667
  %49 = getelementptr inbounds %"struct.std::_Rb_tree_key_compare", %"struct.std::_Rb_tree_key_compare"* %48, i32 0, i32 0, !llfi_index !668
  %50 = load i32*, i32** %7, align 8, !llfi_index !669
  %51 = getelementptr inbounds %"struct.std::_Rb_tree_iterator", %"struct.std::_Rb_tree_iterator"* %8, i32 0, i32 0, !llfi_index !670
  %52 = load %"struct.std::_Rb_tree_node_base"*, %"struct.std::_Rb_tree_node_base"** %51, align 8, !llfi_index !671
  %53 = call nonnull align 4 dereferenceable(4) i32* @_ZNSt8_Rb_treeIiSt4pairIKiiESt10_Select1stIS2_ESt4lessIiESaIS2_EE6_S_keyEPKSt18_Rb_tree_node_base(%"struct.std::_Rb_tree_node_base"* %52), !llfi_index !672
  %54 = call zeroext i1 @_ZNKSt4lessIiEclERKiS2_(%"struct.std::less"* nonnull align 1 dereferenceable(1) %49, i32* nonnull align 4 dereferenceable(4) %50, i32* nonnull align 4 dereferenceable(4) %53), !llfi_index !673
  br i1 %54, label %55, label %94, !llfi_index !674

55:                                               ; preds = %46
  %56 = bitcast %"struct.std::_Rb_tree_iterator"* %10 to i8*, !llfi_index !675
  %57 = bitcast %"struct.std::_Rb_tree_iterator"* %8 to i8*, !llfi_index !676
  call void @llvm.memcpy.p0i8.p0i8.i64(i8* align 8 %56, i8* align 8 %57, i64 8, i1 false), !llfi_index !677
  %58 = getelementptr inbounds %"struct.std::_Rb_tree_iterator", %"struct.std::_Rb_tree_iterator"* %8, i32 0, i32 0, !llfi_index !678
  %59 = load %"struct.std::_Rb_tree_node_base"*, %"struct.std::_Rb_tree_node_base"** %58, align 8, !llfi_index !679
  %60 = call nonnull align 8 dereferenceable(8) %"struct.std::_Rb_tree_node_base"** @_ZNSt8_Rb_treeIiSt4pairIKiiESt10_Select1stIS2_ESt4lessIiESaIS2_EE11_M_leftmostEv(%"class.std::_Rb_tree"* nonnull align 8 dereferenceable(48) %17) #2, !llfi_index !680
  %61 = load %"struct.std::_Rb_tree_node_base"*, %"struct.std::_Rb_tree_node_base"** %60, align 8, !llfi_index !681
  %62 = icmp eq %"struct.std::_Rb_tree_node_base"* %59, %61, !llfi_index !682
  br i1 %62, label %63, label %66, !llfi_index !683

63:                                               ; preds = %55
  %64 = call nonnull align 8 dereferenceable(8) %"struct.std::_Rb_tree_node_base"** @_ZNSt8_Rb_treeIiSt4pairIKiiESt10_Select1stIS2_ESt4lessIiESaIS2_EE11_M_leftmostEv(%"class.std::_Rb_tree"* nonnull align 8 dereferenceable(48) %17) #2, !llfi_index !684
  %65 = call nonnull align 8 dereferenceable(8) %"struct.std::_Rb_tree_node_base"** @_ZNSt8_Rb_treeIiSt4pairIKiiESt10_Select1stIS2_ESt4lessIiESaIS2_EE11_M_leftmostEv(%"class.std::_Rb_tree"* nonnull align 8 dereferenceable(48) %17) #2, !llfi_index !685
  call void @_ZNSt4pairIPSt18_Rb_tree_node_baseS1_EC2IRS1_S4_Lb1EEEOT_OT0_(%"struct.std::pair.1"* nonnull align 8 dereferenceable(16) %4, %"struct.std::_Rb_tree_node_base"** nonnull align 8 dereferenceable(8) %64, %"struct.std::_Rb_tree_node_base"** nonnull align 8 dereferenceable(8) %65), !llfi_index !686
  br label %143, !llfi_index !687

66:                                               ; preds = %55
  %67 = getelementptr inbounds %"class.std::_Rb_tree", %"class.std::_Rb_tree"* %17, i32 0, i32 0, !llfi_index !688
  %68 = bitcast %"struct.std::_Rb_tree<int, std::pair<const int, int>, std::_Select1st<std::pair<const int, int>>, std::less<int>>::_Rb_tree_impl"* %67 to %"struct.std::_Rb_tree_key_compare"*, !llfi_index !689
  %69 = getelementptr inbounds %"struct.std::_Rb_tree_key_compare", %"struct.std::_Rb_tree_key_compare"* %68, i32 0, i32 0, !llfi_index !690
  %70 = call nonnull align 8 dereferenceable(8) %"struct.std::_Rb_tree_iterator"* @_ZNSt17_Rb_tree_iteratorISt4pairIKiiEEmmEv(%"struct.std::_Rb_tree_iterator"* nonnull align 8 dereferenceable(8) %10) #2, !llfi_index !691
  %71 = getelementptr inbounds %"struct.std::_Rb_tree_iterator", %"struct.std::_Rb_tree_iterator"* %70, i32 0, i32 0, !llfi_index !692
  %72 = load %"struct.std::_Rb_tree_node_base"*, %"struct.std::_Rb_tree_node_base"** %71, align 8, !llfi_index !693
  %73 = call nonnull align 4 dereferenceable(4) i32* @_ZNSt8_Rb_treeIiSt4pairIKiiESt10_Select1stIS2_ESt4lessIiESaIS2_EE6_S_keyEPKSt18_Rb_tree_node_base(%"struct.std::_Rb_tree_node_base"* %72), !llfi_index !694
  %74 = load i32*, i32** %7, align 8, !llfi_index !695
  %75 = call zeroext i1 @_ZNKSt4lessIiEclERKiS2_(%"struct.std::less"* nonnull align 1 dereferenceable(1) %69, i32* nonnull align 4 dereferenceable(4) %73, i32* nonnull align 4 dereferenceable(4) %74), !llfi_index !696
  br i1 %75, label %76, label %86, !llfi_index !697

76:                                               ; preds = %66
  %77 = getelementptr inbounds %"struct.std::_Rb_tree_iterator", %"struct.std::_Rb_tree_iterator"* %10, i32 0, i32 0, !llfi_index !698
  %78 = load %"struct.std::_Rb_tree_node_base"*, %"struct.std::_Rb_tree_node_base"** %77, align 8, !llfi_index !699
  %79 = call %"struct.std::_Rb_tree_node"* @_ZNSt8_Rb_treeIiSt4pairIKiiESt10_Select1stIS2_ESt4lessIiESaIS2_EE8_S_rightEPSt18_Rb_tree_node_base(%"struct.std::_Rb_tree_node_base"* %78) #2, !llfi_index !700
  %80 = icmp eq %"struct.std::_Rb_tree_node"* %79, null, !llfi_index !701
  br i1 %80, label %81, label %83, !llfi_index !702

81:                                               ; preds = %76
  store %"struct.std::_Rb_tree_node_base"* null, %"struct.std::_Rb_tree_node_base"** %11, align 8, !llfi_index !703
  %82 = getelementptr inbounds %"struct.std::_Rb_tree_iterator", %"struct.std::_Rb_tree_iterator"* %10, i32 0, i32 0, !llfi_index !704
  call void @_ZNSt4pairIPSt18_Rb_tree_node_baseS1_EC2IRS1_Lb1EEERKS1_OT_(%"struct.std::pair.1"* nonnull align 8 dereferenceable(16) %4, %"struct.std::_Rb_tree_node_base"** nonnull align 8 dereferenceable(8) %11, %"struct.std::_Rb_tree_node_base"** nonnull align 8 dereferenceable(8) %82), !llfi_index !705
  br label %143, !llfi_index !706

83:                                               ; preds = %76
  %84 = getelementptr inbounds %"struct.std::_Rb_tree_iterator", %"struct.std::_Rb_tree_iterator"* %8, i32 0, i32 0, !llfi_index !707
  %85 = getelementptr inbounds %"struct.std::_Rb_tree_iterator", %"struct.std::_Rb_tree_iterator"* %8, i32 0, i32 0, !llfi_index !708
  call void @_ZNSt4pairIPSt18_Rb_tree_node_baseS1_EC2IRS1_S4_Lb1EEEOT_OT0_(%"struct.std::pair.1"* nonnull align 8 dereferenceable(16) %4, %"struct.std::_Rb_tree_node_base"** nonnull align 8 dereferenceable(8) %84, %"struct.std::_Rb_tree_node_base"** nonnull align 8 dereferenceable(8) %85), !llfi_index !709
  br label %143, !llfi_index !710

86:                                               ; preds = %66
  %87 = load i32*, i32** %7, align 8, !llfi_index !711
  %88 = call { %"struct.std::_Rb_tree_node_base"*, %"struct.std::_Rb_tree_node_base"* } @_ZNSt8_Rb_treeIiSt4pairIKiiESt10_Select1stIS2_ESt4lessIiESaIS2_EE24_M_get_insert_unique_posERS1_(%"class.std::_Rb_tree"* nonnull align 8 dereferenceable(48) %17, i32* nonnull align 4 dereferenceable(4) %87), !llfi_index !712
  %89 = bitcast %"struct.std::pair.1"* %4 to { %"struct.std::_Rb_tree_node_base"*, %"struct.std::_Rb_tree_node_base"* }*, !llfi_index !713
  %90 = getelementptr inbounds { %"struct.std::_Rb_tree_node_base"*, %"struct.std::_Rb_tree_node_base"* }, { %"struct.std::_Rb_tree_node_base"*, %"struct.std::_Rb_tree_node_base"* }* %89, i32 0, i32 0, !llfi_index !714
  %91 = extractvalue { %"struct.std::_Rb_tree_node_base"*, %"struct.std::_Rb_tree_node_base"* } %88, 0, !llfi_index !715
  store %"struct.std::_Rb_tree_node_base"* %91, %"struct.std::_Rb_tree_node_base"** %90, align 8, !llfi_index !716
  %92 = getelementptr inbounds { %"struct.std::_Rb_tree_node_base"*, %"struct.std::_Rb_tree_node_base"* }, { %"struct.std::_Rb_tree_node_base"*, %"struct.std::_Rb_tree_node_base"* }* %89, i32 0, i32 1, !llfi_index !717
  %93 = extractvalue { %"struct.std::_Rb_tree_node_base"*, %"struct.std::_Rb_tree_node_base"* } %88, 1, !llfi_index !718
  store %"struct.std::_Rb_tree_node_base"* %93, %"struct.std::_Rb_tree_node_base"** %92, align 8, !llfi_index !719
  br label %143, !llfi_index !720

94:                                               ; preds = %46
  %95 = getelementptr inbounds %"class.std::_Rb_tree", %"class.std::_Rb_tree"* %17, i32 0, i32 0, !llfi_index !721
  %96 = bitcast %"struct.std::_Rb_tree<int, std::pair<const int, int>, std::_Select1st<std::pair<const int, int>>, std::less<int>>::_Rb_tree_impl"* %95 to %"struct.std::_Rb_tree_key_compare"*, !llfi_index !722
  %97 = getelementptr inbounds %"struct.std::_Rb_tree_key_compare", %"struct.std::_Rb_tree_key_compare"* %96, i32 0, i32 0, !llfi_index !723
  %98 = getelementptr inbounds %"struct.std::_Rb_tree_iterator", %"struct.std::_Rb_tree_iterator"* %8, i32 0, i32 0, !llfi_index !724
  %99 = load %"struct.std::_Rb_tree_node_base"*, %"struct.std::_Rb_tree_node_base"** %98, align 8, !llfi_index !725
  %100 = call nonnull align 4 dereferenceable(4) i32* @_ZNSt8_Rb_treeIiSt4pairIKiiESt10_Select1stIS2_ESt4lessIiESaIS2_EE6_S_keyEPKSt18_Rb_tree_node_base(%"struct.std::_Rb_tree_node_base"* %99), !llfi_index !726
  %101 = load i32*, i32** %7, align 8, !llfi_index !727
  %102 = call zeroext i1 @_ZNKSt4lessIiEclERKiS2_(%"struct.std::less"* nonnull align 1 dereferenceable(1) %97, i32* nonnull align 4 dereferenceable(4) %100, i32* nonnull align 4 dereferenceable(4) %101), !llfi_index !728
  br i1 %102, label %103, label %141, !llfi_index !729

103:                                              ; preds = %94
  %104 = bitcast %"struct.std::_Rb_tree_iterator"* %12 to i8*, !llfi_index !730
  %105 = bitcast %"struct.std::_Rb_tree_iterator"* %8 to i8*, !llfi_index !731
  call void @llvm.memcpy.p0i8.p0i8.i64(i8* align 8 %104, i8* align 8 %105, i64 8, i1 false), !llfi_index !732
  %106 = getelementptr inbounds %"struct.std::_Rb_tree_iterator", %"struct.std::_Rb_tree_iterator"* %8, i32 0, i32 0, !llfi_index !733
  %107 = load %"struct.std::_Rb_tree_node_base"*, %"struct.std::_Rb_tree_node_base"** %106, align 8, !llfi_index !734
  %108 = call nonnull align 8 dereferenceable(8) %"struct.std::_Rb_tree_node_base"** @_ZNSt8_Rb_treeIiSt4pairIKiiESt10_Select1stIS2_ESt4lessIiESaIS2_EE12_M_rightmostEv(%"class.std::_Rb_tree"* nonnull align 8 dereferenceable(48) %17) #2, !llfi_index !735
  %109 = load %"struct.std::_Rb_tree_node_base"*, %"struct.std::_Rb_tree_node_base"** %108, align 8, !llfi_index !736
  %110 = icmp eq %"struct.std::_Rb_tree_node_base"* %107, %109, !llfi_index !737
  br i1 %110, label %111, label %113, !llfi_index !738

111:                                              ; preds = %103
  store %"struct.std::_Rb_tree_node_base"* null, %"struct.std::_Rb_tree_node_base"** %13, align 8, !llfi_index !739
  %112 = call nonnull align 8 dereferenceable(8) %"struct.std::_Rb_tree_node_base"** @_ZNSt8_Rb_treeIiSt4pairIKiiESt10_Select1stIS2_ESt4lessIiESaIS2_EE12_M_rightmostEv(%"class.std::_Rb_tree"* nonnull align 8 dereferenceable(48) %17) #2, !llfi_index !740
  call void @_ZNSt4pairIPSt18_Rb_tree_node_baseS1_EC2IRS1_Lb1EEERKS1_OT_(%"struct.std::pair.1"* nonnull align 8 dereferenceable(16) %4, %"struct.std::_Rb_tree_node_base"** nonnull align 8 dereferenceable(8) %13, %"struct.std::_Rb_tree_node_base"** nonnull align 8 dereferenceable(8) %112), !llfi_index !741
  br label %143, !llfi_index !742

113:                                              ; preds = %103
  %114 = getelementptr inbounds %"class.std::_Rb_tree", %"class.std::_Rb_tree"* %17, i32 0, i32 0, !llfi_index !743
  %115 = bitcast %"struct.std::_Rb_tree<int, std::pair<const int, int>, std::_Select1st<std::pair<const int, int>>, std::less<int>>::_Rb_tree_impl"* %114 to %"struct.std::_Rb_tree_key_compare"*, !llfi_index !744
  %116 = getelementptr inbounds %"struct.std::_Rb_tree_key_compare", %"struct.std::_Rb_tree_key_compare"* %115, i32 0, i32 0, !llfi_index !745
  %117 = load i32*, i32** %7, align 8, !llfi_index !746
  %118 = call nonnull align 8 dereferenceable(8) %"struct.std::_Rb_tree_iterator"* @_ZNSt17_Rb_tree_iteratorISt4pairIKiiEEppEv(%"struct.std::_Rb_tree_iterator"* nonnull align 8 dereferenceable(8) %12) #2, !llfi_index !747
  %119 = getelementptr inbounds %"struct.std::_Rb_tree_iterator", %"struct.std::_Rb_tree_iterator"* %118, i32 0, i32 0, !llfi_index !748
  %120 = load %"struct.std::_Rb_tree_node_base"*, %"struct.std::_Rb_tree_node_base"** %119, align 8, !llfi_index !749
  %121 = call nonnull align 4 dereferenceable(4) i32* @_ZNSt8_Rb_treeIiSt4pairIKiiESt10_Select1stIS2_ESt4lessIiESaIS2_EE6_S_keyEPKSt18_Rb_tree_node_base(%"struct.std::_Rb_tree_node_base"* %120), !llfi_index !750
  %122 = call zeroext i1 @_ZNKSt4lessIiEclERKiS2_(%"struct.std::less"* nonnull align 1 dereferenceable(1) %116, i32* nonnull align 4 dereferenceable(4) %117, i32* nonnull align 4 dereferenceable(4) %121), !llfi_index !751
  br i1 %122, label %123, label %133, !llfi_index !752

123:                                              ; preds = %113
  %124 = getelementptr inbounds %"struct.std::_Rb_tree_iterator", %"struct.std::_Rb_tree_iterator"* %8, i32 0, i32 0, !llfi_index !753
  %125 = load %"struct.std::_Rb_tree_node_base"*, %"struct.std::_Rb_tree_node_base"** %124, align 8, !llfi_index !754
  %126 = call %"struct.std::_Rb_tree_node"* @_ZNSt8_Rb_treeIiSt4pairIKiiESt10_Select1stIS2_ESt4lessIiESaIS2_EE8_S_rightEPSt18_Rb_tree_node_base(%"struct.std::_Rb_tree_node_base"* %125) #2, !llfi_index !755
  %127 = icmp eq %"struct.std::_Rb_tree_node"* %126, null, !llfi_index !756
  br i1 %127, label %128, label %130, !llfi_index !757

128:                                              ; preds = %123
  store %"struct.std::_Rb_tree_node_base"* null, %"struct.std::_Rb_tree_node_base"** %14, align 8, !llfi_index !758
  %129 = getelementptr inbounds %"struct.std::_Rb_tree_iterator", %"struct.std::_Rb_tree_iterator"* %8, i32 0, i32 0, !llfi_index !759
  call void @_ZNSt4pairIPSt18_Rb_tree_node_baseS1_EC2IRS1_Lb1EEERKS1_OT_(%"struct.std::pair.1"* nonnull align 8 dereferenceable(16) %4, %"struct.std::_Rb_tree_node_base"** nonnull align 8 dereferenceable(8) %14, %"struct.std::_Rb_tree_node_base"** nonnull align 8 dereferenceable(8) %129), !llfi_index !760
  br label %143, !llfi_index !761

130:                                              ; preds = %123
  %131 = getelementptr inbounds %"struct.std::_Rb_tree_iterator", %"struct.std::_Rb_tree_iterator"* %12, i32 0, i32 0, !llfi_index !762
  %132 = getelementptr inbounds %"struct.std::_Rb_tree_iterator", %"struct.std::_Rb_tree_iterator"* %12, i32 0, i32 0, !llfi_index !763
  call void @_ZNSt4pairIPSt18_Rb_tree_node_baseS1_EC2IRS1_S4_Lb1EEEOT_OT0_(%"struct.std::pair.1"* nonnull align 8 dereferenceable(16) %4, %"struct.std::_Rb_tree_node_base"** nonnull align 8 dereferenceable(8) %131, %"struct.std::_Rb_tree_node_base"** nonnull align 8 dereferenceable(8) %132), !llfi_index !764
  br label %143, !llfi_index !765

133:                                              ; preds = %113
  %134 = load i32*, i32** %7, align 8, !llfi_index !766
  %135 = call { %"struct.std::_Rb_tree_node_base"*, %"struct.std::_Rb_tree_node_base"* } @_ZNSt8_Rb_treeIiSt4pairIKiiESt10_Select1stIS2_ESt4lessIiESaIS2_EE24_M_get_insert_unique_posERS1_(%"class.std::_Rb_tree"* nonnull align 8 dereferenceable(48) %17, i32* nonnull align 4 dereferenceable(4) %134), !llfi_index !767
  %136 = bitcast %"struct.std::pair.1"* %4 to { %"struct.std::_Rb_tree_node_base"*, %"struct.std::_Rb_tree_node_base"* }*, !llfi_index !768
  %137 = getelementptr inbounds { %"struct.std::_Rb_tree_node_base"*, %"struct.std::_Rb_tree_node_base"* }, { %"struct.std::_Rb_tree_node_base"*, %"struct.std::_Rb_tree_node_base"* }* %136, i32 0, i32 0, !llfi_index !769
  %138 = extractvalue { %"struct.std::_Rb_tree_node_base"*, %"struct.std::_Rb_tree_node_base"* } %135, 0, !llfi_index !770
  store %"struct.std::_Rb_tree_node_base"* %138, %"struct.std::_Rb_tree_node_base"** %137, align 8, !llfi_index !771
  %139 = getelementptr inbounds { %"struct.std::_Rb_tree_node_base"*, %"struct.std::_Rb_tree_node_base"* }, { %"struct.std::_Rb_tree_node_base"*, %"struct.std::_Rb_tree_node_base"* }* %136, i32 0, i32 1, !llfi_index !772
  %140 = extractvalue { %"struct.std::_Rb_tree_node_base"*, %"struct.std::_Rb_tree_node_base"* } %135, 1, !llfi_index !773
  store %"struct.std::_Rb_tree_node_base"* %140, %"struct.std::_Rb_tree_node_base"** %139, align 8, !llfi_index !774
  br label %143, !llfi_index !775

141:                                              ; preds = %94
  %142 = getelementptr inbounds %"struct.std::_Rb_tree_iterator", %"struct.std::_Rb_tree_iterator"* %8, i32 0, i32 0, !llfi_index !776
  store %"struct.std::_Rb_tree_node_base"* null, %"struct.std::_Rb_tree_node_base"** %15, align 8, !llfi_index !777
  call void @_ZNSt4pairIPSt18_Rb_tree_node_baseS1_EC2IRS1_Lb1EEEOT_RKS1_(%"struct.std::pair.1"* nonnull align 8 dereferenceable(16) %4, %"struct.std::_Rb_tree_node_base"** nonnull align 8 dereferenceable(8) %142, %"struct.std::_Rb_tree_node_base"** nonnull align 8 dereferenceable(8) %15), !llfi_index !778
  br label %143, !llfi_index !779

143:                                              ; preds = %141, %133, %130, %128, %111, %86, %83, %81, %63, %38, %36
  %144 = bitcast %"struct.std::pair.1"* %4 to { %"struct.std::_Rb_tree_node_base"*, %"struct.std::_Rb_tree_node_base"* }*, !llfi_index !780
  %145 = load { %"struct.std::_Rb_tree_node_base"*, %"struct.std::_Rb_tree_node_base"* }, { %"struct.std::_Rb_tree_node_base"*, %"struct.std::_Rb_tree_node_base"* }* %144, align 8, !llfi_index !781
  ret { %"struct.std::_Rb_tree_node_base"*, %"struct.std::_Rb_tree_node_base"* } %145, !llfi_index !782
}

; Function Attrs: mustprogress noinline uwtable
define linkonce_odr dso_local %"struct.std::_Rb_tree_node_base"* @_ZNSt8_Rb_treeIiSt4pairIKiiESt10_Select1stIS2_ESt4lessIiESaIS2_EE14_M_insert_nodeEPSt18_Rb_tree_node_baseSA_PSt13_Rb_tree_nodeIS2_E(%"class.std::_Rb_tree"* nonnull align 8 dereferenceable(48) %0, %"struct.std::_Rb_tree_node_base"* %1, %"struct.std::_Rb_tree_node_base"* %2, %"struct.std::_Rb_tree_node"* %3) #4 comdat align 2 {
  %5 = alloca %"struct.std::_Rb_tree_iterator", align 8, !llfi_index !783
  %6 = alloca %"class.std::_Rb_tree"*, align 8, !llfi_index !784
  %7 = alloca %"struct.std::_Rb_tree_node_base"*, align 8, !llfi_index !785
  %8 = alloca %"struct.std::_Rb_tree_node_base"*, align 8, !llfi_index !786
  %9 = alloca %"struct.std::_Rb_tree_node"*, align 8, !llfi_index !787
  %10 = alloca i8, align 1, !llfi_index !788
  store %"class.std::_Rb_tree"* %0, %"class.std::_Rb_tree"** %6, align 8, !llfi_index !789
  store %"struct.std::_Rb_tree_node_base"* %1, %"struct.std::_Rb_tree_node_base"** %7, align 8, !llfi_index !790
  store %"struct.std::_Rb_tree_node_base"* %2, %"struct.std::_Rb_tree_node_base"** %8, align 8, !llfi_index !791
  store %"struct.std::_Rb_tree_node"* %3, %"struct.std::_Rb_tree_node"** %9, align 8, !llfi_index !792
  %11 = load %"class.std::_Rb_tree"*, %"class.std::_Rb_tree"** %6, align 8, !llfi_index !793
  %12 = load %"struct.std::_Rb_tree_node_base"*, %"struct.std::_Rb_tree_node_base"** %7, align 8, !llfi_index !794
  %13 = icmp ne %"struct.std::_Rb_tree_node_base"* %12, null, !llfi_index !795
  br i1 %13, label %27, label %14, !llfi_index !796

14:                                               ; preds = %4
  %15 = load %"struct.std::_Rb_tree_node_base"*, %"struct.std::_Rb_tree_node_base"** %8, align 8, !llfi_index !797
  %16 = call %"struct.std::_Rb_tree_node_base"* @_ZNSt8_Rb_treeIiSt4pairIKiiESt10_Select1stIS2_ESt4lessIiESaIS2_EE6_M_endEv(%"class.std::_Rb_tree"* nonnull align 8 dereferenceable(48) %11) #2, !llfi_index !798
  %17 = icmp eq %"struct.std::_Rb_tree_node_base"* %15, %16, !llfi_index !799
  br i1 %17, label %27, label %18, !llfi_index !800

18:                                               ; preds = %14
  %19 = getelementptr inbounds %"class.std::_Rb_tree", %"class.std::_Rb_tree"* %11, i32 0, i32 0, !llfi_index !801
  %20 = bitcast %"struct.std::_Rb_tree<int, std::pair<const int, int>, std::_Select1st<std::pair<const int, int>>, std::less<int>>::_Rb_tree_impl"* %19 to %"struct.std::_Rb_tree_key_compare"*, !llfi_index !802
  %21 = getelementptr inbounds %"struct.std::_Rb_tree_key_compare", %"struct.std::_Rb_tree_key_compare"* %20, i32 0, i32 0, !llfi_index !803
  %22 = load %"struct.std::_Rb_tree_node"*, %"struct.std::_Rb_tree_node"** %9, align 8, !llfi_index !804
  %23 = call nonnull align 4 dereferenceable(4) i32* @_ZNSt8_Rb_treeIiSt4pairIKiiESt10_Select1stIS2_ESt4lessIiESaIS2_EE6_S_keyEPKSt13_Rb_tree_nodeIS2_E(%"struct.std::_Rb_tree_node"* %22), !llfi_index !805
  %24 = load %"struct.std::_Rb_tree_node_base"*, %"struct.std::_Rb_tree_node_base"** %8, align 8, !llfi_index !806
  %25 = call nonnull align 4 dereferenceable(4) i32* @_ZNSt8_Rb_treeIiSt4pairIKiiESt10_Select1stIS2_ESt4lessIiESaIS2_EE6_S_keyEPKSt18_Rb_tree_node_base(%"struct.std::_Rb_tree_node_base"* %24), !llfi_index !807
  %26 = call zeroext i1 @_ZNKSt4lessIiEclERKiS2_(%"struct.std::less"* nonnull align 1 dereferenceable(1) %21, i32* nonnull align 4 dereferenceable(4) %23, i32* nonnull align 4 dereferenceable(4) %25), !llfi_index !808
  br label %27, !llfi_index !809

27:                                               ; preds = %18, %14, %4
  %28 = phi i1 [ true, %14 ], [ true, %4 ], [ %26, %18 ], !llfi_index !810
  %29 = zext i1 %28 to i8, !llfi_index !811
  store i8 %29, i8* %10, align 1, !llfi_index !812
  %30 = load i8, i8* %10, align 1, !llfi_index !813
  %31 = trunc i8 %30 to i1, !llfi_index !814
  %32 = load %"struct.std::_Rb_tree_node"*, %"struct.std::_Rb_tree_node"** %9, align 8, !llfi_index !815
  %33 = bitcast %"struct.std::_Rb_tree_node"* %32 to %"struct.std::_Rb_tree_node_base"*, !llfi_index !816
  %34 = load %"struct.std::_Rb_tree_node_base"*, %"struct.std::_Rb_tree_node_base"** %8, align 8, !llfi_index !817
  %35 = getelementptr inbounds %"class.std::_Rb_tree", %"class.std::_Rb_tree"* %11, i32 0, i32 0, !llfi_index !818
  %36 = bitcast %"struct.std::_Rb_tree<int, std::pair<const int, int>, std::_Select1st<std::pair<const int, int>>, std::less<int>>::_Rb_tree_impl"* %35 to i8*, !llfi_index !819
  %37 = getelementptr inbounds i8, i8* %36, i64 8, !llfi_index !820
  %38 = bitcast i8* %37 to %"struct.std::_Rb_tree_header"*, !llfi_index !821
  %39 = getelementptr inbounds %"struct.std::_Rb_tree_header", %"struct.std::_Rb_tree_header"* %38, i32 0, i32 0, !llfi_index !822
  call void @_ZSt29_Rb_tree_insert_and_rebalancebPSt18_Rb_tree_node_baseS0_RS_(i1 zeroext %31, %"struct.std::_Rb_tree_node_base"* %33, %"struct.std::_Rb_tree_node_base"* %34, %"struct.std::_Rb_tree_node_base"* nonnull align 8 dereferenceable(32) %39) #2, !llfi_index !823
  %40 = getelementptr inbounds %"class.std::_Rb_tree", %"class.std::_Rb_tree"* %11, i32 0, i32 0, !llfi_index !824
  %41 = bitcast %"struct.std::_Rb_tree<int, std::pair<const int, int>, std::_Select1st<std::pair<const int, int>>, std::less<int>>::_Rb_tree_impl"* %40 to i8*, !llfi_index !825
  %42 = getelementptr inbounds i8, i8* %41, i64 8, !llfi_index !826
  %43 = bitcast i8* %42 to %"struct.std::_Rb_tree_header"*, !llfi_index !827
  %44 = getelementptr inbounds %"struct.std::_Rb_tree_header", %"struct.std::_Rb_tree_header"* %43, i32 0, i32 1, !llfi_index !828
  %45 = load i64, i64* %44, align 8, !llfi_index !829
  %46 = add i64 %45, 1, !llfi_index !830
  store i64 %46, i64* %44, align 8, !llfi_index !831
  %47 = load %"struct.std::_Rb_tree_node"*, %"struct.std::_Rb_tree_node"** %9, align 8, !llfi_index !832
  %48 = bitcast %"struct.std::_Rb_tree_node"* %47 to %"struct.std::_Rb_tree_node_base"*, !llfi_index !833
  call void @_ZNSt17_Rb_tree_iteratorISt4pairIKiiEEC2EPSt18_Rb_tree_node_base(%"struct.std::_Rb_tree_iterator"* nonnull align 8 dereferenceable(8) %5, %"struct.std::_Rb_tree_node_base"* %48) #2, !llfi_index !834
  %49 = getelementptr inbounds %"struct.std::_Rb_tree_iterator", %"struct.std::_Rb_tree_iterator"* %5, i32 0, i32 0, !llfi_index !835
  %50 = load %"struct.std::_Rb_tree_node_base"*, %"struct.std::_Rb_tree_node_base"** %49, align 8, !llfi_index !836
  ret %"struct.std::_Rb_tree_node_base"* %50, !llfi_index !837
}

declare dso_local void @__cxa_rethrow()

; Function Attrs: noinline nounwind uwtable
define linkonce_odr dso_local void @_ZNSt17_Rb_tree_iteratorISt4pairIKiiEEC2EPSt18_Rb_tree_node_base(%"struct.std::_Rb_tree_iterator"* nonnull align 8 dereferenceable(8) %0, %"struct.std::_Rb_tree_node_base"* %1) unnamed_addr #1 comdat align 2 {
  %3 = alloca %"struct.std::_Rb_tree_iterator"*, align 8, !llfi_index !838
  %4 = alloca %"struct.std::_Rb_tree_node_base"*, align 8, !llfi_index !839
  store %"struct.std::_Rb_tree_iterator"* %0, %"struct.std::_Rb_tree_iterator"** %3, align 8, !llfi_index !840
  store %"struct.std::_Rb_tree_node_base"* %1, %"struct.std::_Rb_tree_node_base"** %4, align 8, !llfi_index !841
  %5 = load %"struct.std::_Rb_tree_iterator"*, %"struct.std::_Rb_tree_iterator"** %3, align 8, !llfi_index !842
  %6 = getelementptr inbounds %"struct.std::_Rb_tree_iterator", %"struct.std::_Rb_tree_iterator"* %5, i32 0, i32 0, !llfi_index !843
  %7 = load %"struct.std::_Rb_tree_node_base"*, %"struct.std::_Rb_tree_node_base"** %4, align 8, !llfi_index !844
  store %"struct.std::_Rb_tree_node_base"* %7, %"struct.std::_Rb_tree_node_base"** %6, align 8, !llfi_index !845
  ret void, !llfi_index !846
}

declare dso_local void @__cxa_end_catch()

; Function Attrs: cold noreturn nounwind
declare void @llvm.trap() #10

; Function Attrs: mustprogress noinline nounwind uwtable
define linkonce_odr dso_local %"struct.std::_Rb_tree_node_base"* @_ZNSt8_Rb_treeIiSt4pairIKiiESt10_Select1stIS2_ESt4lessIiESaIS2_EE6_M_endEv(%"class.std::_Rb_tree"* nonnull align 8 dereferenceable(48) %0) #3 comdat align 2 {
  %2 = alloca %"class.std::_Rb_tree"*, align 8, !llfi_index !847
  store %"class.std::_Rb_tree"* %0, %"class.std::_Rb_tree"** %2, align 8, !llfi_index !848
  %3 = load %"class.std::_Rb_tree"*, %"class.std::_Rb_tree"** %2, align 8, !llfi_index !849
  %4 = getelementptr inbounds %"class.std::_Rb_tree", %"class.std::_Rb_tree"* %3, i32 0, i32 0, !llfi_index !850
  %5 = bitcast %"struct.std::_Rb_tree<int, std::pair<const int, int>, std::_Select1st<std::pair<const int, int>>, std::less<int>>::_Rb_tree_impl"* %4 to i8*, !llfi_index !851
  %6 = getelementptr inbounds i8, i8* %5, i64 8, !llfi_index !852
  %7 = bitcast i8* %6 to %"struct.std::_Rb_tree_header"*, !llfi_index !853
  %8 = getelementptr inbounds %"struct.std::_Rb_tree_header", %"struct.std::_Rb_tree_header"* %7, i32 0, i32 0, !llfi_index !854
  ret %"struct.std::_Rb_tree_node_base"* %8, !llfi_index !855
}

; Function Attrs: mustprogress noinline uwtable
define linkonce_odr dso_local nonnull align 4 dereferenceable(4) i32* @_ZNSt8_Rb_treeIiSt4pairIKiiESt10_Select1stIS2_ESt4lessIiESaIS2_EE6_S_keyEPKSt18_Rb_tree_node_base(%"struct.std::_Rb_tree_node_base"* %0) #4 comdat align 2 {
  %2 = alloca %"struct.std::_Rb_tree_node_base"*, align 8, !llfi_index !856
  store %"struct.std::_Rb_tree_node_base"* %0, %"struct.std::_Rb_tree_node_base"** %2, align 8, !llfi_index !857
  %3 = load %"struct.std::_Rb_tree_node_base"*, %"struct.std::_Rb_tree_node_base"** %2, align 8, !llfi_index !858
  %4 = bitcast %"struct.std::_Rb_tree_node_base"* %3 to %"struct.std::_Rb_tree_node"*, !llfi_index !859
  %5 = call nonnull align 4 dereferenceable(4) i32* @_ZNSt8_Rb_treeIiSt4pairIKiiESt10_Select1stIS2_ESt4lessIiESaIS2_EE6_S_keyEPKSt13_Rb_tree_nodeIS2_E(%"struct.std::_Rb_tree_node"* %4), !llfi_index !860
  ret i32* %5, !llfi_index !861
}

; Function Attrs: nounwind
declare dso_local void @_ZSt29_Rb_tree_insert_and_rebalancebPSt18_Rb_tree_node_baseS0_RS_(i1 zeroext, %"struct.std::_Rb_tree_node_base"*, %"struct.std::_Rb_tree_node_base"*, %"struct.std::_Rb_tree_node_base"* nonnull align 8 dereferenceable(32)) #8

; Function Attrs: mustprogress noinline nounwind uwtable
define linkonce_odr dso_local %"struct.std::_Rb_tree_node_base"* @_ZNKSt23_Rb_tree_const_iteratorISt4pairIKiiEE13_M_const_castEv(%"struct.std::_Rb_tree_iterator"* nonnull align 8 dereferenceable(8) %0) #3 comdat align 2 {
  %2 = alloca %"struct.std::_Rb_tree_iterator", align 8, !llfi_index !862
  %3 = alloca %"struct.std::_Rb_tree_iterator"*, align 8, !llfi_index !863
  store %"struct.std::_Rb_tree_iterator"* %0, %"struct.std::_Rb_tree_iterator"** %3, align 8, !llfi_index !864
  %4 = load %"struct.std::_Rb_tree_iterator"*, %"struct.std::_Rb_tree_iterator"** %3, align 8, !llfi_index !865
  %5 = getelementptr inbounds %"struct.std::_Rb_tree_iterator", %"struct.std::_Rb_tree_iterator"* %4, i32 0, i32 0, !llfi_index !866
  %6 = load %"struct.std::_Rb_tree_node_base"*, %"struct.std::_Rb_tree_node_base"** %5, align 8, !llfi_index !867
  call void @_ZNSt17_Rb_tree_iteratorISt4pairIKiiEEC2EPSt18_Rb_tree_node_base(%"struct.std::_Rb_tree_iterator"* nonnull align 8 dereferenceable(8) %2, %"struct.std::_Rb_tree_node_base"* %6) #2, !llfi_index !868
  %7 = getelementptr inbounds %"struct.std::_Rb_tree_iterator", %"struct.std::_Rb_tree_iterator"* %2, i32 0, i32 0, !llfi_index !869
  %8 = load %"struct.std::_Rb_tree_node_base"*, %"struct.std::_Rb_tree_node_base"** %7, align 8, !llfi_index !870
  ret %"struct.std::_Rb_tree_node_base"* %8, !llfi_index !871
}

; Function Attrs: mustprogress noinline nounwind uwtable
define linkonce_odr dso_local i64 @_ZNKSt8_Rb_treeIiSt4pairIKiiESt10_Select1stIS2_ESt4lessIiESaIS2_EE4sizeEv(%"class.std::_Rb_tree"* nonnull align 8 dereferenceable(48) %0) #3 comdat align 2 {
  %2 = alloca %"class.std::_Rb_tree"*, align 8, !llfi_index !872
  store %"class.std::_Rb_tree"* %0, %"class.std::_Rb_tree"** %2, align 8, !llfi_index !873
  %3 = load %"class.std::_Rb_tree"*, %"class.std::_Rb_tree"** %2, align 8, !llfi_index !874
  %4 = getelementptr inbounds %"class.std::_Rb_tree", %"class.std::_Rb_tree"* %3, i32 0, i32 0, !llfi_index !875
  %5 = bitcast %"struct.std::_Rb_tree<int, std::pair<const int, int>, std::_Select1st<std::pair<const int, int>>, std::less<int>>::_Rb_tree_impl"* %4 to i8*, !llfi_index !876
  %6 = getelementptr inbounds i8, i8* %5, i64 8, !llfi_index !877
  %7 = bitcast i8* %6 to %"struct.std::_Rb_tree_header"*, !llfi_index !878
  %8 = getelementptr inbounds %"struct.std::_Rb_tree_header", %"struct.std::_Rb_tree_header"* %7, i32 0, i32 1, !llfi_index !879
  %9 = load i64, i64* %8, align 8, !llfi_index !880
  ret i64 %9, !llfi_index !881
}

; Function Attrs: mustprogress noinline nounwind uwtable
define linkonce_odr dso_local nonnull align 8 dereferenceable(8) %"struct.std::_Rb_tree_node_base"** @_ZNSt8_Rb_treeIiSt4pairIKiiESt10_Select1stIS2_ESt4lessIiESaIS2_EE12_M_rightmostEv(%"class.std::_Rb_tree"* nonnull align 8 dereferenceable(48) %0) #3 comdat align 2 {
  %2 = alloca %"class.std::_Rb_tree"*, align 8, !llfi_index !882
  store %"class.std::_Rb_tree"* %0, %"class.std::_Rb_tree"** %2, align 8, !llfi_index !883
  %3 = load %"class.std::_Rb_tree"*, %"class.std::_Rb_tree"** %2, align 8, !llfi_index !884
  %4 = getelementptr inbounds %"class.std::_Rb_tree", %"class.std::_Rb_tree"* %3, i32 0, i32 0, !llfi_index !885
  %5 = bitcast %"struct.std::_Rb_tree<int, std::pair<const int, int>, std::_Select1st<std::pair<const int, int>>, std::less<int>>::_Rb_tree_impl"* %4 to i8*, !llfi_index !886
  %6 = getelementptr inbounds i8, i8* %5, i64 8, !llfi_index !887
  %7 = bitcast i8* %6 to %"struct.std::_Rb_tree_header"*, !llfi_index !888
  %8 = getelementptr inbounds %"struct.std::_Rb_tree_header", %"struct.std::_Rb_tree_header"* %7, i32 0, i32 0, !llfi_index !889
  %9 = getelementptr inbounds %"struct.std::_Rb_tree_node_base", %"struct.std::_Rb_tree_node_base"* %8, i32 0, i32 3, !llfi_index !890
  ret %"struct.std::_Rb_tree_node_base"** %9, !llfi_index !891
}

; Function Attrs: noinline nounwind uwtable
define linkonce_odr dso_local void @_ZNSt4pairIPSt18_Rb_tree_node_baseS1_EC2IRS1_Lb1EEERKS1_OT_(%"struct.std::pair.1"* nonnull align 8 dereferenceable(16) %0, %"struct.std::_Rb_tree_node_base"** nonnull align 8 dereferenceable(8) %1, %"struct.std::_Rb_tree_node_base"** nonnull align 8 dereferenceable(8) %2) unnamed_addr #1 comdat align 2 {
  %4 = alloca %"struct.std::pair.1"*, align 8, !llfi_index !892
  %5 = alloca %"struct.std::_Rb_tree_node_base"**, align 8, !llfi_index !893
  %6 = alloca %"struct.std::_Rb_tree_node_base"**, align 8, !llfi_index !894
  store %"struct.std::pair.1"* %0, %"struct.std::pair.1"** %4, align 8, !llfi_index !895
  store %"struct.std::_Rb_tree_node_base"** %1, %"struct.std::_Rb_tree_node_base"*** %5, align 8, !llfi_index !896
  store %"struct.std::_Rb_tree_node_base"** %2, %"struct.std::_Rb_tree_node_base"*** %6, align 8, !llfi_index !897
  %7 = load %"struct.std::pair.1"*, %"struct.std::pair.1"** %4, align 8, !llfi_index !898
  %8 = bitcast %"struct.std::pair.1"* %7 to %"struct.std::less"*, !llfi_index !899
  %9 = getelementptr inbounds %"struct.std::pair.1", %"struct.std::pair.1"* %7, i32 0, i32 0, !llfi_index !900
  %10 = load %"struct.std::_Rb_tree_node_base"**, %"struct.std::_Rb_tree_node_base"*** %5, align 8, !llfi_index !901
  %11 = load %"struct.std::_Rb_tree_node_base"*, %"struct.std::_Rb_tree_node_base"** %10, align 8, !llfi_index !902
  store %"struct.std::_Rb_tree_node_base"* %11, %"struct.std::_Rb_tree_node_base"** %9, align 8, !llfi_index !903
  %12 = getelementptr inbounds %"struct.std::pair.1", %"struct.std::pair.1"* %7, i32 0, i32 1, !llfi_index !904
  %13 = load %"struct.std::_Rb_tree_node_base"**, %"struct.std::_Rb_tree_node_base"*** %6, align 8, !llfi_index !905
  %14 = call nonnull align 8 dereferenceable(8) %"struct.std::_Rb_tree_node_base"** @_ZSt7forwardIRPSt18_Rb_tree_node_baseEOT_RNSt16remove_referenceIS3_E4typeE(%"struct.std::_Rb_tree_node_base"** nonnull align 8 dereferenceable(8) %13) #2, !llfi_index !906
  %15 = load %"struct.std::_Rb_tree_node_base"*, %"struct.std::_Rb_tree_node_base"** %14, align 8, !llfi_index !907
  store %"struct.std::_Rb_tree_node_base"* %15, %"struct.std::_Rb_tree_node_base"** %12, align 8, !llfi_index !908
  ret void, !llfi_index !909
}

; Function Attrs: mustprogress noinline uwtable
define linkonce_odr dso_local { %"struct.std::_Rb_tree_node_base"*, %"struct.std::_Rb_tree_node_base"* } @_ZNSt8_Rb_treeIiSt4pairIKiiESt10_Select1stIS2_ESt4lessIiESaIS2_EE24_M_get_insert_unique_posERS1_(%"class.std::_Rb_tree"* nonnull align 8 dereferenceable(48) %0, i32* nonnull align 4 dereferenceable(4) %1) #4 comdat align 2 {
  %3 = alloca %"struct.std::pair.1", align 8, !llfi_index !910
  %4 = alloca %"class.std::_Rb_tree"*, align 8, !llfi_index !911
  %5 = alloca i32*, align 8, !llfi_index !912
  %6 = alloca %"struct.std::_Rb_tree_node"*, align 8, !llfi_index !913
  %7 = alloca %"struct.std::_Rb_tree_node_base"*, align 8, !llfi_index !914
  %8 = alloca i8, align 1, !llfi_index !915
  %9 = alloca %"struct.std::_Rb_tree_iterator", align 8, !llfi_index !916
  %10 = alloca %"struct.std::_Rb_tree_iterator", align 8, !llfi_index !917
  %11 = alloca %"struct.std::_Rb_tree_node_base"*, align 8, !llfi_index !918
  store %"class.std::_Rb_tree"* %0, %"class.std::_Rb_tree"** %4, align 8, !llfi_index !919
  store i32* %1, i32** %5, align 8, !llfi_index !920
  %12 = load %"class.std::_Rb_tree"*, %"class.std::_Rb_tree"** %4, align 8, !llfi_index !921
  %13 = call %"struct.std::_Rb_tree_node"* @_ZNSt8_Rb_treeIiSt4pairIKiiESt10_Select1stIS2_ESt4lessIiESaIS2_EE8_M_beginEv(%"class.std::_Rb_tree"* nonnull align 8 dereferenceable(48) %12) #2, !llfi_index !922
  store %"struct.std::_Rb_tree_node"* %13, %"struct.std::_Rb_tree_node"** %6, align 8, !llfi_index !923
  %14 = call %"struct.std::_Rb_tree_node_base"* @_ZNSt8_Rb_treeIiSt4pairIKiiESt10_Select1stIS2_ESt4lessIiESaIS2_EE6_M_endEv(%"class.std::_Rb_tree"* nonnull align 8 dereferenceable(48) %12) #2, !llfi_index !924
  store %"struct.std::_Rb_tree_node_base"* %14, %"struct.std::_Rb_tree_node_base"** %7, align 8, !llfi_index !925
  store i8 1, i8* %8, align 1, !llfi_index !926
  br label %15, !llfi_index !927

15:                                               ; preds = %39, %2
  %16 = load %"struct.std::_Rb_tree_node"*, %"struct.std::_Rb_tree_node"** %6, align 8, !llfi_index !928
  %17 = icmp ne %"struct.std::_Rb_tree_node"* %16, null, !llfi_index !929
  br i1 %17, label %18, label %41, !llfi_index !930

18:                                               ; preds = %15
  %19 = load %"struct.std::_Rb_tree_node"*, %"struct.std::_Rb_tree_node"** %6, align 8, !llfi_index !931
  %20 = bitcast %"struct.std::_Rb_tree_node"* %19 to %"struct.std::_Rb_tree_node_base"*, !llfi_index !932
  store %"struct.std::_Rb_tree_node_base"* %20, %"struct.std::_Rb_tree_node_base"** %7, align 8, !llfi_index !933
  %21 = getelementptr inbounds %"class.std::_Rb_tree", %"class.std::_Rb_tree"* %12, i32 0, i32 0, !llfi_index !934
  %22 = bitcast %"struct.std::_Rb_tree<int, std::pair<const int, int>, std::_Select1st<std::pair<const int, int>>, std::less<int>>::_Rb_tree_impl"* %21 to %"struct.std::_Rb_tree_key_compare"*, !llfi_index !935
  %23 = getelementptr inbounds %"struct.std::_Rb_tree_key_compare", %"struct.std::_Rb_tree_key_compare"* %22, i32 0, i32 0, !llfi_index !936
  %24 = load i32*, i32** %5, align 8, !llfi_index !937
  %25 = load %"struct.std::_Rb_tree_node"*, %"struct.std::_Rb_tree_node"** %6, align 8, !llfi_index !938
  %26 = call nonnull align 4 dereferenceable(4) i32* @_ZNSt8_Rb_treeIiSt4pairIKiiESt10_Select1stIS2_ESt4lessIiESaIS2_EE6_S_keyEPKSt13_Rb_tree_nodeIS2_E(%"struct.std::_Rb_tree_node"* %25), !llfi_index !939
  %27 = call zeroext i1 @_ZNKSt4lessIiEclERKiS2_(%"struct.std::less"* nonnull align 1 dereferenceable(1) %23, i32* nonnull align 4 dereferenceable(4) %24, i32* nonnull align 4 dereferenceable(4) %26), !llfi_index !940
  %28 = zext i1 %27 to i8, !llfi_index !941
  store i8 %28, i8* %8, align 1, !llfi_index !942
  %29 = load i8, i8* %8, align 1, !llfi_index !943
  %30 = trunc i8 %29 to i1, !llfi_index !944
  br i1 %30, label %31, label %35, !llfi_index !945

31:                                               ; preds = %18
  %32 = load %"struct.std::_Rb_tree_node"*, %"struct.std::_Rb_tree_node"** %6, align 8, !llfi_index !946
  %33 = bitcast %"struct.std::_Rb_tree_node"* %32 to %"struct.std::_Rb_tree_node_base"*, !llfi_index !947
  %34 = call %"struct.std::_Rb_tree_node"* @_ZNSt8_Rb_treeIiSt4pairIKiiESt10_Select1stIS2_ESt4lessIiESaIS2_EE7_S_leftEPSt18_Rb_tree_node_base(%"struct.std::_Rb_tree_node_base"* %33) #2, !llfi_index !948
  br label %39, !llfi_index !949

35:                                               ; preds = %18
  %36 = load %"struct.std::_Rb_tree_node"*, %"struct.std::_Rb_tree_node"** %6, align 8, !llfi_index !950
  %37 = bitcast %"struct.std::_Rb_tree_node"* %36 to %"struct.std::_Rb_tree_node_base"*, !llfi_index !951
  %38 = call %"struct.std::_Rb_tree_node"* @_ZNSt8_Rb_treeIiSt4pairIKiiESt10_Select1stIS2_ESt4lessIiESaIS2_EE8_S_rightEPSt18_Rb_tree_node_base(%"struct.std::_Rb_tree_node_base"* %37) #2, !llfi_index !952
  br label %39, !llfi_index !953

39:                                               ; preds = %35, %31
  %40 = phi %"struct.std::_Rb_tree_node"* [ %34, %31 ], [ %38, %35 ], !llfi_index !954
  store %"struct.std::_Rb_tree_node"* %40, %"struct.std::_Rb_tree_node"** %6, align 8, !llfi_index !955
  br label %15, !llvm.loop !956, !llfi_index !957

41:                                               ; preds = %15
  %42 = load %"struct.std::_Rb_tree_node_base"*, %"struct.std::_Rb_tree_node_base"** %7, align 8, !llfi_index !958
  call void @_ZNSt17_Rb_tree_iteratorISt4pairIKiiEEC2EPSt18_Rb_tree_node_base(%"struct.std::_Rb_tree_iterator"* nonnull align 8 dereferenceable(8) %9, %"struct.std::_Rb_tree_node_base"* %42) #2, !llfi_index !959
  %43 = load i8, i8* %8, align 1, !llfi_index !960
  %44 = trunc i8 %43 to i1, !llfi_index !961
  br i1 %44, label %45, label %53, !llfi_index !962

45:                                               ; preds = %41
  %46 = call %"struct.std::_Rb_tree_node_base"* @_ZNSt8_Rb_treeIiSt4pairIKiiESt10_Select1stIS2_ESt4lessIiESaIS2_EE5beginEv(%"class.std::_Rb_tree"* nonnull align 8 dereferenceable(48) %12) #2, !llfi_index !963
  %47 = getelementptr inbounds %"struct.std::_Rb_tree_iterator", %"struct.std::_Rb_tree_iterator"* %10, i32 0, i32 0, !llfi_index !964
  store %"struct.std::_Rb_tree_node_base"* %46, %"struct.std::_Rb_tree_node_base"** %47, align 8, !llfi_index !965
  %48 = call zeroext i1 @_ZSteqRKSt17_Rb_tree_iteratorISt4pairIKiiEES5_(%"struct.std::_Rb_tree_iterator"* nonnull align 8 dereferenceable(8) %9, %"struct.std::_Rb_tree_iterator"* nonnull align 8 dereferenceable(8) %10) #2, !llfi_index !966
  br i1 %48, label %49, label %50, !llfi_index !967

49:                                               ; preds = %45
  call void @_ZNSt4pairIPSt18_Rb_tree_node_baseS1_EC2IRPSt13_Rb_tree_nodeIS_IKiiEERS1_Lb1EEEOT_OT0_(%"struct.std::pair.1"* nonnull align 8 dereferenceable(16) %3, %"struct.std::_Rb_tree_node"** nonnull align 8 dereferenceable(8) %6, %"struct.std::_Rb_tree_node_base"** nonnull align 8 dereferenceable(8) %7), !llfi_index !968
  br label %65, !llfi_index !969

50:                                               ; preds = %45
  %51 = call nonnull align 8 dereferenceable(8) %"struct.std::_Rb_tree_iterator"* @_ZNSt17_Rb_tree_iteratorISt4pairIKiiEEmmEv(%"struct.std::_Rb_tree_iterator"* nonnull align 8 dereferenceable(8) %9) #2, !llfi_index !970
  br label %52, !llfi_index !971

52:                                               ; preds = %50
  br label %53, !llfi_index !972

53:                                               ; preds = %52, %41
  %54 = getelementptr inbounds %"class.std::_Rb_tree", %"class.std::_Rb_tree"* %12, i32 0, i32 0, !llfi_index !973
  %55 = bitcast %"struct.std::_Rb_tree<int, std::pair<const int, int>, std::_Select1st<std::pair<const int, int>>, std::less<int>>::_Rb_tree_impl"* %54 to %"struct.std::_Rb_tree_key_compare"*, !llfi_index !974
  %56 = getelementptr inbounds %"struct.std::_Rb_tree_key_compare", %"struct.std::_Rb_tree_key_compare"* %55, i32 0, i32 0, !llfi_index !975
  %57 = getelementptr inbounds %"struct.std::_Rb_tree_iterator", %"struct.std::_Rb_tree_iterator"* %9, i32 0, i32 0, !llfi_index !976
  %58 = load %"struct.std::_Rb_tree_node_base"*, %"struct.std::_Rb_tree_node_base"** %57, align 8, !llfi_index !977
  %59 = call nonnull align 4 dereferenceable(4) i32* @_ZNSt8_Rb_treeIiSt4pairIKiiESt10_Select1stIS2_ESt4lessIiESaIS2_EE6_S_keyEPKSt18_Rb_tree_node_base(%"struct.std::_Rb_tree_node_base"* %58), !llfi_index !978
  %60 = load i32*, i32** %5, align 8, !llfi_index !979
  %61 = call zeroext i1 @_ZNKSt4lessIiEclERKiS2_(%"struct.std::less"* nonnull align 1 dereferenceable(1) %56, i32* nonnull align 4 dereferenceable(4) %59, i32* nonnull align 4 dereferenceable(4) %60), !llfi_index !980
  br i1 %61, label %62, label %63, !llfi_index !981

62:                                               ; preds = %53
  call void @_ZNSt4pairIPSt18_Rb_tree_node_baseS1_EC2IRPSt13_Rb_tree_nodeIS_IKiiEERS1_Lb1EEEOT_OT0_(%"struct.std::pair.1"* nonnull align 8 dereferenceable(16) %3, %"struct.std::_Rb_tree_node"** nonnull align 8 dereferenceable(8) %6, %"struct.std::_Rb_tree_node_base"** nonnull align 8 dereferenceable(8) %7), !llfi_index !982
  br label %65, !llfi_index !983

63:                                               ; preds = %53
  %64 = getelementptr inbounds %"struct.std::_Rb_tree_iterator", %"struct.std::_Rb_tree_iterator"* %9, i32 0, i32 0, !llfi_index !984
  store %"struct.std::_Rb_tree_node_base"* null, %"struct.std::_Rb_tree_node_base"** %11, align 8, !llfi_index !985
  call void @_ZNSt4pairIPSt18_Rb_tree_node_baseS1_EC2IRS1_Lb1EEEOT_RKS1_(%"struct.std::pair.1"* nonnull align 8 dereferenceable(16) %3, %"struct.std::_Rb_tree_node_base"** nonnull align 8 dereferenceable(8) %64, %"struct.std::_Rb_tree_node_base"** nonnull align 8 dereferenceable(8) %11), !llfi_index !986
  br label %65, !llfi_index !987

65:                                               ; preds = %63, %62, %49
  %66 = bitcast %"struct.std::pair.1"* %3 to { %"struct.std::_Rb_tree_node_base"*, %"struct.std::_Rb_tree_node_base"* }*, !llfi_index !988
  %67 = load { %"struct.std::_Rb_tree_node_base"*, %"struct.std::_Rb_tree_node_base"* }, { %"struct.std::_Rb_tree_node_base"*, %"struct.std::_Rb_tree_node_base"* }* %66, align 8, !llfi_index !989
  ret { %"struct.std::_Rb_tree_node_base"*, %"struct.std::_Rb_tree_node_base"* } %67, !llfi_index !990
}

; Function Attrs: mustprogress noinline nounwind uwtable
define linkonce_odr dso_local nonnull align 8 dereferenceable(8) %"struct.std::_Rb_tree_node_base"** @_ZNSt8_Rb_treeIiSt4pairIKiiESt10_Select1stIS2_ESt4lessIiESaIS2_EE11_M_leftmostEv(%"class.std::_Rb_tree"* nonnull align 8 dereferenceable(48) %0) #3 comdat align 2 {
  %2 = alloca %"class.std::_Rb_tree"*, align 8, !llfi_index !991
  store %"class.std::_Rb_tree"* %0, %"class.std::_Rb_tree"** %2, align 8, !llfi_index !992
  %3 = load %"class.std::_Rb_tree"*, %"class.std::_Rb_tree"** %2, align 8, !llfi_index !993
  %4 = getelementptr inbounds %"class.std::_Rb_tree", %"class.std::_Rb_tree"* %3, i32 0, i32 0, !llfi_index !994
  %5 = bitcast %"struct.std::_Rb_tree<int, std::pair<const int, int>, std::_Select1st<std::pair<const int, int>>, std::less<int>>::_Rb_tree_impl"* %4 to i8*, !llfi_index !995
  %6 = getelementptr inbounds i8, i8* %5, i64 8, !llfi_index !996
  %7 = bitcast i8* %6 to %"struct.std::_Rb_tree_header"*, !llfi_index !997
  %8 = getelementptr inbounds %"struct.std::_Rb_tree_header", %"struct.std::_Rb_tree_header"* %7, i32 0, i32 0, !llfi_index !998
  %9 = getelementptr inbounds %"struct.std::_Rb_tree_node_base", %"struct.std::_Rb_tree_node_base"* %8, i32 0, i32 2, !llfi_index !999
  ret %"struct.std::_Rb_tree_node_base"** %9, !llfi_index !1000
}

; Function Attrs: noinline nounwind uwtable
define linkonce_odr dso_local void @_ZNSt4pairIPSt18_Rb_tree_node_baseS1_EC2IRS1_S4_Lb1EEEOT_OT0_(%"struct.std::pair.1"* nonnull align 8 dereferenceable(16) %0, %"struct.std::_Rb_tree_node_base"** nonnull align 8 dereferenceable(8) %1, %"struct.std::_Rb_tree_node_base"** nonnull align 8 dereferenceable(8) %2) unnamed_addr #1 comdat align 2 {
  %4 = alloca %"struct.std::pair.1"*, align 8, !llfi_index !1001
  %5 = alloca %"struct.std::_Rb_tree_node_base"**, align 8, !llfi_index !1002
  %6 = alloca %"struct.std::_Rb_tree_node_base"**, align 8, !llfi_index !1003
  store %"struct.std::pair.1"* %0, %"struct.std::pair.1"** %4, align 8, !llfi_index !1004
  store %"struct.std::_Rb_tree_node_base"** %1, %"struct.std::_Rb_tree_node_base"*** %5, align 8, !llfi_index !1005
  store %"struct.std::_Rb_tree_node_base"** %2, %"struct.std::_Rb_tree_node_base"*** %6, align 8, !llfi_index !1006
  %7 = load %"struct.std::pair.1"*, %"struct.std::pair.1"** %4, align 8, !llfi_index !1007
  %8 = bitcast %"struct.std::pair.1"* %7 to %"struct.std::less"*, !llfi_index !1008
  %9 = getelementptr inbounds %"struct.std::pair.1", %"struct.std::pair.1"* %7, i32 0, i32 0, !llfi_index !1009
  %10 = load %"struct.std::_Rb_tree_node_base"**, %"struct.std::_Rb_tree_node_base"*** %5, align 8, !llfi_index !1010
  %11 = call nonnull align 8 dereferenceable(8) %"struct.std::_Rb_tree_node_base"** @_ZSt7forwardIRPSt18_Rb_tree_node_baseEOT_RNSt16remove_referenceIS3_E4typeE(%"struct.std::_Rb_tree_node_base"** nonnull align 8 dereferenceable(8) %10) #2, !llfi_index !1011
  %12 = load %"struct.std::_Rb_tree_node_base"*, %"struct.std::_Rb_tree_node_base"** %11, align 8, !llfi_index !1012
  store %"struct.std::_Rb_tree_node_base"* %12, %"struct.std::_Rb_tree_node_base"** %9, align 8, !llfi_index !1013
  %13 = getelementptr inbounds %"struct.std::pair.1", %"struct.std::pair.1"* %7, i32 0, i32 1, !llfi_index !1014
  %14 = load %"struct.std::_Rb_tree_node_base"**, %"struct.std::_Rb_tree_node_base"*** %6, align 8, !llfi_index !1015
  %15 = call nonnull align 8 dereferenceable(8) %"struct.std::_Rb_tree_node_base"** @_ZSt7forwardIRPSt18_Rb_tree_node_baseEOT_RNSt16remove_referenceIS3_E4typeE(%"struct.std::_Rb_tree_node_base"** nonnull align 8 dereferenceable(8) %14) #2, !llfi_index !1016
  %16 = load %"struct.std::_Rb_tree_node_base"*, %"struct.std::_Rb_tree_node_base"** %15, align 8, !llfi_index !1017
  store %"struct.std::_Rb_tree_node_base"* %16, %"struct.std::_Rb_tree_node_base"** %13, align 8, !llfi_index !1018
  ret void, !llfi_index !1019
}

; Function Attrs: mustprogress noinline nounwind uwtable
define linkonce_odr dso_local nonnull align 8 dereferenceable(8) %"struct.std::_Rb_tree_iterator"* @_ZNSt17_Rb_tree_iteratorISt4pairIKiiEEmmEv(%"struct.std::_Rb_tree_iterator"* nonnull align 8 dereferenceable(8) %0) #3 comdat align 2 {
  %2 = alloca %"struct.std::_Rb_tree_iterator"*, align 8, !llfi_index !1020
  store %"struct.std::_Rb_tree_iterator"* %0, %"struct.std::_Rb_tree_iterator"** %2, align 8, !llfi_index !1021
  %3 = load %"struct.std::_Rb_tree_iterator"*, %"struct.std::_Rb_tree_iterator"** %2, align 8, !llfi_index !1022
  %4 = getelementptr inbounds %"struct.std::_Rb_tree_iterator", %"struct.std::_Rb_tree_iterator"* %3, i32 0, i32 0, !llfi_index !1023
  %5 = load %"struct.std::_Rb_tree_node_base"*, %"struct.std::_Rb_tree_node_base"** %4, align 8, !llfi_index !1024
  %6 = call %"struct.std::_Rb_tree_node_base"* @_ZSt18_Rb_tree_decrementPSt18_Rb_tree_node_base(%"struct.std::_Rb_tree_node_base"* %5) #17, !llfi_index !1025
  %7 = getelementptr inbounds %"struct.std::_Rb_tree_iterator", %"struct.std::_Rb_tree_iterator"* %3, i32 0, i32 0, !llfi_index !1026
  store %"struct.std::_Rb_tree_node_base"* %6, %"struct.std::_Rb_tree_node_base"** %7, align 8, !llfi_index !1027
  ret %"struct.std::_Rb_tree_iterator"* %3, !llfi_index !1028
}

; Function Attrs: mustprogress noinline nounwind uwtable
define linkonce_odr dso_local nonnull align 8 dereferenceable(8) %"struct.std::_Rb_tree_iterator"* @_ZNSt17_Rb_tree_iteratorISt4pairIKiiEEppEv(%"struct.std::_Rb_tree_iterator"* nonnull align 8 dereferenceable(8) %0) #3 comdat align 2 {
  %2 = alloca %"struct.std::_Rb_tree_iterator"*, align 8, !llfi_index !1029
  store %"struct.std::_Rb_tree_iterator"* %0, %"struct.std::_Rb_tree_iterator"** %2, align 8, !llfi_index !1030
  %3 = load %"struct.std::_Rb_tree_iterator"*, %"struct.std::_Rb_tree_iterator"** %2, align 8, !llfi_index !1031
  %4 = getelementptr inbounds %"struct.std::_Rb_tree_iterator", %"struct.std::_Rb_tree_iterator"* %3, i32 0, i32 0, !llfi_index !1032
  %5 = load %"struct.std::_Rb_tree_node_base"*, %"struct.std::_Rb_tree_node_base"** %4, align 8, !llfi_index !1033
  %6 = call %"struct.std::_Rb_tree_node_base"* @_ZSt18_Rb_tree_incrementPSt18_Rb_tree_node_base(%"struct.std::_Rb_tree_node_base"* %5) #17, !llfi_index !1034
  %7 = getelementptr inbounds %"struct.std::_Rb_tree_iterator", %"struct.std::_Rb_tree_iterator"* %3, i32 0, i32 0, !llfi_index !1035
  store %"struct.std::_Rb_tree_node_base"* %6, %"struct.std::_Rb_tree_node_base"** %7, align 8, !llfi_index !1036
  ret %"struct.std::_Rb_tree_iterator"* %3, !llfi_index !1037
}

; Function Attrs: noinline nounwind uwtable
define linkonce_odr dso_local void @_ZNSt4pairIPSt18_Rb_tree_node_baseS1_EC2IRS1_Lb1EEEOT_RKS1_(%"struct.std::pair.1"* nonnull align 8 dereferenceable(16) %0, %"struct.std::_Rb_tree_node_base"** nonnull align 8 dereferenceable(8) %1, %"struct.std::_Rb_tree_node_base"** nonnull align 8 dereferenceable(8) %2) unnamed_addr #1 comdat align 2 {
  %4 = alloca %"struct.std::pair.1"*, align 8, !llfi_index !1038
  %5 = alloca %"struct.std::_Rb_tree_node_base"**, align 8, !llfi_index !1039
  %6 = alloca %"struct.std::_Rb_tree_node_base"**, align 8, !llfi_index !1040
  store %"struct.std::pair.1"* %0, %"struct.std::pair.1"** %4, align 8, !llfi_index !1041
  store %"struct.std::_Rb_tree_node_base"** %1, %"struct.std::_Rb_tree_node_base"*** %5, align 8, !llfi_index !1042
  store %"struct.std::_Rb_tree_node_base"** %2, %"struct.std::_Rb_tree_node_base"*** %6, align 8, !llfi_index !1043
  %7 = load %"struct.std::pair.1"*, %"struct.std::pair.1"** %4, align 8, !llfi_index !1044
  %8 = bitcast %"struct.std::pair.1"* %7 to %"struct.std::less"*, !llfi_index !1045
  %9 = getelementptr inbounds %"struct.std::pair.1", %"struct.std::pair.1"* %7, i32 0, i32 0, !llfi_index !1046
  %10 = load %"struct.std::_Rb_tree_node_base"**, %"struct.std::_Rb_tree_node_base"*** %5, align 8, !llfi_index !1047
  %11 = call nonnull align 8 dereferenceable(8) %"struct.std::_Rb_tree_node_base"** @_ZSt7forwardIRPSt18_Rb_tree_node_baseEOT_RNSt16remove_referenceIS3_E4typeE(%"struct.std::_Rb_tree_node_base"** nonnull align 8 dereferenceable(8) %10) #2, !llfi_index !1048
  %12 = load %"struct.std::_Rb_tree_node_base"*, %"struct.std::_Rb_tree_node_base"** %11, align 8, !llfi_index !1049
  store %"struct.std::_Rb_tree_node_base"* %12, %"struct.std::_Rb_tree_node_base"** %9, align 8, !llfi_index !1050
  %13 = getelementptr inbounds %"struct.std::pair.1", %"struct.std::pair.1"* %7, i32 0, i32 1, !llfi_index !1051
  %14 = load %"struct.std::_Rb_tree_node_base"**, %"struct.std::_Rb_tree_node_base"*** %6, align 8, !llfi_index !1052
  %15 = load %"struct.std::_Rb_tree_node_base"*, %"struct.std::_Rb_tree_node_base"** %14, align 8, !llfi_index !1053
  store %"struct.std::_Rb_tree_node_base"* %15, %"struct.std::_Rb_tree_node_base"** %13, align 8, !llfi_index !1054
  ret void, !llfi_index !1055
}

; Function Attrs: mustprogress noinline nounwind uwtable
define linkonce_odr dso_local nonnull align 8 dereferenceable(8) %"struct.std::_Rb_tree_node_base"** @_ZSt7forwardIRPSt18_Rb_tree_node_baseEOT_RNSt16remove_referenceIS3_E4typeE(%"struct.std::_Rb_tree_node_base"** nonnull align 8 dereferenceable(8) %0) #3 comdat {
  %2 = alloca %"struct.std::_Rb_tree_node_base"**, align 8, !llfi_index !1056
  store %"struct.std::_Rb_tree_node_base"** %0, %"struct.std::_Rb_tree_node_base"*** %2, align 8, !llfi_index !1057
  %3 = load %"struct.std::_Rb_tree_node_base"**, %"struct.std::_Rb_tree_node_base"*** %2, align 8, !llfi_index !1058
  ret %"struct.std::_Rb_tree_node_base"** %3, !llfi_index !1059
}

; Function Attrs: nounwind readonly willreturn
declare dso_local %"struct.std::_Rb_tree_node_base"* @_ZSt18_Rb_tree_incrementPSt18_Rb_tree_node_base(%"struct.std::_Rb_tree_node_base"*) #11

; Function Attrs: nounwind readonly willreturn
declare dso_local %"struct.std::_Rb_tree_node_base"* @_ZSt18_Rb_tree_decrementPSt18_Rb_tree_node_base(%"struct.std::_Rb_tree_node_base"*) #11

; Function Attrs: mustprogress noinline nounwind uwtable
define linkonce_odr dso_local %"struct.std::_Rb_tree_node_base"* @_ZNSt8_Rb_treeIiSt4pairIKiiESt10_Select1stIS2_ESt4lessIiESaIS2_EE5beginEv(%"class.std::_Rb_tree"* nonnull align 8 dereferenceable(48) %0) #3 comdat align 2 {
  %2 = alloca %"struct.std::_Rb_tree_iterator", align 8, !llfi_index !1060
  %3 = alloca %"class.std::_Rb_tree"*, align 8, !llfi_index !1061
  store %"class.std::_Rb_tree"* %0, %"class.std::_Rb_tree"** %3, align 8, !llfi_index !1062
  %4 = load %"class.std::_Rb_tree"*, %"class.std::_Rb_tree"** %3, align 8, !llfi_index !1063
  %5 = getelementptr inbounds %"class.std::_Rb_tree", %"class.std::_Rb_tree"* %4, i32 0, i32 0, !llfi_index !1064
  %6 = bitcast %"struct.std::_Rb_tree<int, std::pair<const int, int>, std::_Select1st<std::pair<const int, int>>, std::less<int>>::_Rb_tree_impl"* %5 to i8*, !llfi_index !1065
  %7 = getelementptr inbounds i8, i8* %6, i64 8, !llfi_index !1066
  %8 = bitcast i8* %7 to %"struct.std::_Rb_tree_header"*, !llfi_index !1067
  %9 = getelementptr inbounds %"struct.std::_Rb_tree_header", %"struct.std::_Rb_tree_header"* %8, i32 0, i32 0, !llfi_index !1068
  %10 = getelementptr inbounds %"struct.std::_Rb_tree_node_base", %"struct.std::_Rb_tree_node_base"* %9, i32 0, i32 2, !llfi_index !1069
  %11 = load %"struct.std::_Rb_tree_node_base"*, %"struct.std::_Rb_tree_node_base"** %10, align 8, !llfi_index !1070
  call void @_ZNSt17_Rb_tree_iteratorISt4pairIKiiEEC2EPSt18_Rb_tree_node_base(%"struct.std::_Rb_tree_iterator"* nonnull align 8 dereferenceable(8) %2, %"struct.std::_Rb_tree_node_base"* %11) #2, !llfi_index !1071
  %12 = getelementptr inbounds %"struct.std::_Rb_tree_iterator", %"struct.std::_Rb_tree_iterator"* %2, i32 0, i32 0, !llfi_index !1072
  %13 = load %"struct.std::_Rb_tree_node_base"*, %"struct.std::_Rb_tree_node_base"** %12, align 8, !llfi_index !1073
  ret %"struct.std::_Rb_tree_node_base"* %13, !llfi_index !1074
}

; Function Attrs: noinline nounwind uwtable
define linkonce_odr dso_local void @_ZNSt4pairIPSt18_Rb_tree_node_baseS1_EC2IRPSt13_Rb_tree_nodeIS_IKiiEERS1_Lb1EEEOT_OT0_(%"struct.std::pair.1"* nonnull align 8 dereferenceable(16) %0, %"struct.std::_Rb_tree_node"** nonnull align 8 dereferenceable(8) %1, %"struct.std::_Rb_tree_node_base"** nonnull align 8 dereferenceable(8) %2) unnamed_addr #1 comdat align 2 {
  %4 = alloca %"struct.std::pair.1"*, align 8, !llfi_index !1075
  %5 = alloca %"struct.std::_Rb_tree_node"**, align 8, !llfi_index !1076
  %6 = alloca %"struct.std::_Rb_tree_node_base"**, align 8, !llfi_index !1077
  store %"struct.std::pair.1"* %0, %"struct.std::pair.1"** %4, align 8, !llfi_index !1078
  store %"struct.std::_Rb_tree_node"** %1, %"struct.std::_Rb_tree_node"*** %5, align 8, !llfi_index !1079
  store %"struct.std::_Rb_tree_node_base"** %2, %"struct.std::_Rb_tree_node_base"*** %6, align 8, !llfi_index !1080
  %7 = load %"struct.std::pair.1"*, %"struct.std::pair.1"** %4, align 8, !llfi_index !1081
  %8 = bitcast %"struct.std::pair.1"* %7 to %"struct.std::less"*, !llfi_index !1082
  %9 = getelementptr inbounds %"struct.std::pair.1", %"struct.std::pair.1"* %7, i32 0, i32 0, !llfi_index !1083
  %10 = load %"struct.std::_Rb_tree_node"**, %"struct.std::_Rb_tree_node"*** %5, align 8, !llfi_index !1084
  %11 = call nonnull align 8 dereferenceable(8) %"struct.std::_Rb_tree_node"** @_ZSt7forwardIRPSt13_Rb_tree_nodeISt4pairIKiiEEEOT_RNSt16remove_referenceIS7_E4typeE(%"struct.std::_Rb_tree_node"** nonnull align 8 dereferenceable(8) %10) #2, !llfi_index !1085
  %12 = load %"struct.std::_Rb_tree_node"*, %"struct.std::_Rb_tree_node"** %11, align 8, !llfi_index !1086
  %13 = bitcast %"struct.std::_Rb_tree_node"* %12 to %"struct.std::_Rb_tree_node_base"*, !llfi_index !1087
  store %"struct.std::_Rb_tree_node_base"* %13, %"struct.std::_Rb_tree_node_base"** %9, align 8, !llfi_index !1088
  %14 = getelementptr inbounds %"struct.std::pair.1", %"struct.std::pair.1"* %7, i32 0, i32 1, !llfi_index !1089
  %15 = load %"struct.std::_Rb_tree_node_base"**, %"struct.std::_Rb_tree_node_base"*** %6, align 8, !llfi_index !1090
  %16 = call nonnull align 8 dereferenceable(8) %"struct.std::_Rb_tree_node_base"** @_ZSt7forwardIRPSt18_Rb_tree_node_baseEOT_RNSt16remove_referenceIS3_E4typeE(%"struct.std::_Rb_tree_node_base"** nonnull align 8 dereferenceable(8) %15) #2, !llfi_index !1091
  %17 = load %"struct.std::_Rb_tree_node_base"*, %"struct.std::_Rb_tree_node_base"** %16, align 8, !llfi_index !1092
  store %"struct.std::_Rb_tree_node_base"* %17, %"struct.std::_Rb_tree_node_base"** %14, align 8, !llfi_index !1093
  ret void, !llfi_index !1094
}

; Function Attrs: mustprogress noinline nounwind uwtable
define linkonce_odr dso_local nonnull align 8 dereferenceable(8) %"struct.std::_Rb_tree_node"** @_ZSt7forwardIRPSt13_Rb_tree_nodeISt4pairIKiiEEEOT_RNSt16remove_referenceIS7_E4typeE(%"struct.std::_Rb_tree_node"** nonnull align 8 dereferenceable(8) %0) #3 comdat {
  %2 = alloca %"struct.std::_Rb_tree_node"**, align 8, !llfi_index !1095
  store %"struct.std::_Rb_tree_node"** %0, %"struct.std::_Rb_tree_node"*** %2, align 8, !llfi_index !1096
  %3 = load %"struct.std::_Rb_tree_node"**, %"struct.std::_Rb_tree_node"*** %2, align 8, !llfi_index !1097
  ret %"struct.std::_Rb_tree_node"** %3, !llfi_index !1098
}

; Function Attrs: mustprogress noinline nounwind uwtable
define linkonce_odr dso_local %"struct.std::pair"* @_ZNKSt13_Rb_tree_nodeISt4pairIKiiEE9_M_valptrEv(%"struct.std::_Rb_tree_node"* nonnull align 8 dereferenceable(40) %0) #3 comdat align 2 {
  %2 = alloca %"struct.std::_Rb_tree_node"*, align 8, !llfi_index !1099
  store %"struct.std::_Rb_tree_node"* %0, %"struct.std::_Rb_tree_node"** %2, align 8, !llfi_index !1100
  %3 = load %"struct.std::_Rb_tree_node"*, %"struct.std::_Rb_tree_node"** %2, align 8, !llfi_index !1101
  %4 = getelementptr inbounds %"struct.std::_Rb_tree_node", %"struct.std::_Rb_tree_node"* %3, i32 0, i32 1, !llfi_index !1102
  %5 = call %"struct.std::pair"* @_ZNK9__gnu_cxx16__aligned_membufISt4pairIKiiEE6_M_ptrEv(%"struct.__gnu_cxx::__aligned_membuf"* nonnull align 4 dereferenceable(8) %4) #2, !llfi_index !1103
  ret %"struct.std::pair"* %5, !llfi_index !1104
}

; Function Attrs: mustprogress noinline nounwind uwtable
define linkonce_odr dso_local nonnull align 4 dereferenceable(4) i32* @_ZNKSt10_Select1stISt4pairIKiiEEclERKS2_(%"struct.std::less"* nonnull align 1 dereferenceable(1) %0, %"struct.std::pair"* nonnull align 4 dereferenceable(8) %1) #3 comdat align 2 {
  %3 = alloca %"struct.std::less"*, align 8, !llfi_index !1105
  %4 = alloca %"struct.std::pair"*, align 8, !llfi_index !1106
  store %"struct.std::less"* %0, %"struct.std::less"** %3, align 8, !llfi_index !1107
  store %"struct.std::pair"* %1, %"struct.std::pair"** %4, align 8, !llfi_index !1108
  %5 = load %"struct.std::less"*, %"struct.std::less"** %3, align 8, !llfi_index !1109
  %6 = load %"struct.std::pair"*, %"struct.std::pair"** %4, align 8, !llfi_index !1110
  %7 = getelementptr inbounds %"struct.std::pair", %"struct.std::pair"* %6, i32 0, i32 0, !llfi_index !1111
  ret i32* %7, !llfi_index !1112
}

; Function Attrs: mustprogress noinline nounwind uwtable
define linkonce_odr dso_local %"struct.std::pair"* @_ZNK9__gnu_cxx16__aligned_membufISt4pairIKiiEE6_M_ptrEv(%"struct.__gnu_cxx::__aligned_membuf"* nonnull align 4 dereferenceable(8) %0) #3 comdat align 2 {
  %2 = alloca %"struct.__gnu_cxx::__aligned_membuf"*, align 8, !llfi_index !1113
  store %"struct.__gnu_cxx::__aligned_membuf"* %0, %"struct.__gnu_cxx::__aligned_membuf"** %2, align 8, !llfi_index !1114
  %3 = load %"struct.__gnu_cxx::__aligned_membuf"*, %"struct.__gnu_cxx::__aligned_membuf"** %2, align 8, !llfi_index !1115
  %4 = call i8* @_ZNK9__gnu_cxx16__aligned_membufISt4pairIKiiEE7_M_addrEv(%"struct.__gnu_cxx::__aligned_membuf"* nonnull align 4 dereferenceable(8) %3) #2, !llfi_index !1116
  %5 = bitcast i8* %4 to %"struct.std::pair"*, !llfi_index !1117
  ret %"struct.std::pair"* %5, !llfi_index !1118
}

; Function Attrs: mustprogress noinline nounwind uwtable
define linkonce_odr dso_local i8* @_ZNK9__gnu_cxx16__aligned_membufISt4pairIKiiEE7_M_addrEv(%"struct.__gnu_cxx::__aligned_membuf"* nonnull align 4 dereferenceable(8) %0) #3 comdat align 2 {
  %2 = alloca %"struct.__gnu_cxx::__aligned_membuf"*, align 8, !llfi_index !1119
  store %"struct.__gnu_cxx::__aligned_membuf"* %0, %"struct.__gnu_cxx::__aligned_membuf"** %2, align 8, !llfi_index !1120
  %3 = load %"struct.__gnu_cxx::__aligned_membuf"*, %"struct.__gnu_cxx::__aligned_membuf"** %2, align 8, !llfi_index !1121
  %4 = getelementptr inbounds %"struct.__gnu_cxx::__aligned_membuf", %"struct.__gnu_cxx::__aligned_membuf"* %3, i32 0, i32 0, !llfi_index !1122
  %5 = bitcast [8 x i8]* %4 to i8*, !llfi_index !1123
  ret i8* %5, !llfi_index !1124
}

; Function Attrs: mustprogress noinline uwtable
define linkonce_odr dso_local %"struct.std::_Rb_tree_node"* @_ZNSt8_Rb_treeIiSt4pairIKiiESt10_Select1stIS2_ESt4lessIiESaIS2_EE11_M_get_nodeEv(%"class.std::_Rb_tree"* nonnull align 8 dereferenceable(48) %0) #4 comdat align 2 {
  %2 = alloca %"class.std::_Rb_tree"*, align 8, !llfi_index !1125
  store %"class.std::_Rb_tree"* %0, %"class.std::_Rb_tree"** %2, align 8, !llfi_index !1126
  %3 = load %"class.std::_Rb_tree"*, %"class.std::_Rb_tree"** %2, align 8, !llfi_index !1127
  %4 = call nonnull align 1 dereferenceable(1) %"struct.std::less"* @_ZNSt8_Rb_treeIiSt4pairIKiiESt10_Select1stIS2_ESt4lessIiESaIS2_EE21_M_get_Node_allocatorEv(%"class.std::_Rb_tree"* nonnull align 8 dereferenceable(48) %3) #2, !llfi_index !1128
  %5 = call %"struct.std::_Rb_tree_node"* @_ZNSt16allocator_traitsISaISt13_Rb_tree_nodeISt4pairIKiiEEEE8allocateERS5_m(%"struct.std::less"* nonnull align 1 dereferenceable(1) %4, i64 1), !llfi_index !1129
  ret %"struct.std::_Rb_tree_node"* %5, !llfi_index !1130
}

; Function Attrs: mustprogress noinline uwtable
define linkonce_odr dso_local void @_ZNSt8_Rb_treeIiSt4pairIKiiESt10_Select1stIS2_ESt4lessIiESaIS2_EE17_M_construct_nodeIJRKSt21piecewise_construct_tSt5tupleIJOiEESD_IJEEEEEvPSt13_Rb_tree_nodeIS2_EDpOT_(%"class.std::_Rb_tree"* nonnull align 8 dereferenceable(48) %0, %"struct.std::_Rb_tree_node"* %1, %"struct.std::less"* nonnull align 1 dereferenceable(1) %2, %"class.std::tuple"* nonnull align 8 dereferenceable(8) %3, %"struct.std::less"* nonnull align 1 dereferenceable(1) %4) #4 comdat align 2 personality i8* bitcast (i32 (...)* @__gxx_personality_v0 to i8*) {
  %6 = alloca %"class.std::_Rb_tree"*, align 8, !llfi_index !1131
  %7 = alloca %"struct.std::_Rb_tree_node"*, align 8, !llfi_index !1132
  %8 = alloca %"struct.std::less"*, align 8, !llfi_index !1133
  %9 = alloca %"class.std::tuple"*, align 8, !llfi_index !1134
  %10 = alloca %"struct.std::less"*, align 8, !llfi_index !1135
  %11 = alloca i8*, align 8, !llfi_index !1136
  %12 = alloca i32, align 4, !llfi_index !1137
  store %"class.std::_Rb_tree"* %0, %"class.std::_Rb_tree"** %6, align 8, !llfi_index !1138
  store %"struct.std::_Rb_tree_node"* %1, %"struct.std::_Rb_tree_node"** %7, align 8, !llfi_index !1139
  store %"struct.std::less"* %2, %"struct.std::less"** %8, align 8, !llfi_index !1140
  store %"class.std::tuple"* %3, %"class.std::tuple"** %9, align 8, !llfi_index !1141
  store %"struct.std::less"* %4, %"struct.std::less"** %10, align 8, !llfi_index !1142
  %13 = load %"class.std::_Rb_tree"*, %"class.std::_Rb_tree"** %6, align 8, !llfi_index !1143
  %14 = load %"struct.std::_Rb_tree_node"*, %"struct.std::_Rb_tree_node"** %7, align 8, !llfi_index !1144
  %15 = bitcast %"struct.std::_Rb_tree_node"* %14 to i8*, !llfi_index !1145
  %16 = bitcast i8* %15 to %"struct.std::_Rb_tree_node"*, !llfi_index !1146
  %17 = call nonnull align 1 dereferenceable(1) %"struct.std::less"* @_ZNSt8_Rb_treeIiSt4pairIKiiESt10_Select1stIS2_ESt4lessIiESaIS2_EE21_M_get_Node_allocatorEv(%"class.std::_Rb_tree"* nonnull align 8 dereferenceable(48) %13) #2, !llfi_index !1147
  %18 = load %"struct.std::_Rb_tree_node"*, %"struct.std::_Rb_tree_node"** %7, align 8, !llfi_index !1148
  %19 = call %"struct.std::pair"* @_ZNSt13_Rb_tree_nodeISt4pairIKiiEE9_M_valptrEv(%"struct.std::_Rb_tree_node"* nonnull align 8 dereferenceable(40) %18), !llfi_index !1149
  %20 = load %"struct.std::less"*, %"struct.std::less"** %8, align 8, !llfi_index !1150
  %21 = call nonnull align 1 dereferenceable(1) %"struct.std::less"* @_ZSt7forwardIRKSt21piecewise_construct_tEOT_RNSt16remove_referenceIS3_E4typeE(%"struct.std::less"* nonnull align 1 dereferenceable(1) %20) #2, !llfi_index !1151
  %22 = load %"class.std::tuple"*, %"class.std::tuple"** %9, align 8, !llfi_index !1152
  %23 = call nonnull align 8 dereferenceable(8) %"class.std::tuple"* @_ZSt7forwardISt5tupleIJOiEEEOT_RNSt16remove_referenceIS3_E4typeE(%"class.std::tuple"* nonnull align 8 dereferenceable(8) %22) #2, !llfi_index !1153
  %24 = load %"struct.std::less"*, %"struct.std::less"** %10, align 8, !llfi_index !1154
  %25 = call nonnull align 1 dereferenceable(1) %"struct.std::less"* @_ZSt7forwardISt5tupleIJEEEOT_RNSt16remove_referenceIS2_E4typeE(%"struct.std::less"* nonnull align 1 dereferenceable(1) %24) #2, !llfi_index !1155
  invoke void @_ZNSt16allocator_traitsISaISt13_Rb_tree_nodeISt4pairIKiiEEEE9constructIS3_JRKSt21piecewise_construct_tSt5tupleIJOiEESB_IJEEEEEvRS5_PT_DpOT0_(%"struct.std::less"* nonnull align 1 dereferenceable(1) %17, %"struct.std::pair"* %19, %"struct.std::less"* nonnull align 1 dereferenceable(1) %21, %"class.std::tuple"* nonnull align 8 dereferenceable(8) %23, %"struct.std::less"* nonnull align 1 dereferenceable(1) %25)
          to label %26 unwind label %27, !llfi_index !1156

26:                                               ; preds = %5
  br label %41, !llfi_index !1157

27:                                               ; preds = %5
  %28 = landingpad { i8*, i32 }
          catch i8* null, !llfi_index !1158
  %29 = extractvalue { i8*, i32 } %28, 0, !llfi_index !1159
  store i8* %29, i8** %11, align 8, !llfi_index !1160
  %30 = extractvalue { i8*, i32 } %28, 1, !llfi_index !1161
  store i32 %30, i32* %12, align 4, !llfi_index !1162
  br label %31, !llfi_index !1163

31:                                               ; preds = %27
  %32 = load i8*, i8** %11, align 8, !llfi_index !1164
  %33 = call i8* @__cxa_begin_catch(i8* %32) #2, !llfi_index !1165
  %34 = load %"struct.std::_Rb_tree_node"*, %"struct.std::_Rb_tree_node"** %7, align 8, !llfi_index !1166
  %35 = load %"struct.std::_Rb_tree_node"*, %"struct.std::_Rb_tree_node"** %7, align 8, !llfi_index !1167
  call void @_ZNSt8_Rb_treeIiSt4pairIKiiESt10_Select1stIS2_ESt4lessIiESaIS2_EE11_M_put_nodeEPSt13_Rb_tree_nodeIS2_E(%"class.std::_Rb_tree"* nonnull align 8 dereferenceable(48) %13, %"struct.std::_Rb_tree_node"* %35) #2, !llfi_index !1168
  invoke void @__cxa_rethrow() #16
          to label %50 unwind label %36, !llfi_index !1169

36:                                               ; preds = %31
  %37 = landingpad { i8*, i32 }
          cleanup, !llfi_index !1170
  %38 = extractvalue { i8*, i32 } %37, 0, !llfi_index !1171
  store i8* %38, i8** %11, align 8, !llfi_index !1172
  %39 = extractvalue { i8*, i32 } %37, 1, !llfi_index !1173
  store i32 %39, i32* %12, align 4, !llfi_index !1174
  invoke void @__cxa_end_catch()
          to label %40 unwind label %47, !llfi_index !1175

40:                                               ; preds = %36
  br label %42, !llfi_index !1176

41:                                               ; preds = %26
  ret void, !llfi_index !1177

42:                                               ; preds = %40
  %43 = load i8*, i8** %11, align 8, !llfi_index !1178
  %44 = load i32, i32* %12, align 4, !llfi_index !1179
  %45 = insertvalue { i8*, i32 } undef, i8* %43, 0, !llfi_index !1180
  %46 = insertvalue { i8*, i32 } %45, i32 %44, 1, !llfi_index !1181
  resume { i8*, i32 } %46, !llfi_index !1182

47:                                               ; preds = %36
  %48 = landingpad { i8*, i32 }
          catch i8* null, !llfi_index !1183
  %49 = extractvalue { i8*, i32 } %48, 0, !llfi_index !1184
  call void @__clang_call_terminate(i8* %49) #15, !llfi_index !1185
  unreachable, !llfi_index !1186

50:                                               ; preds = %31
  unreachable, !llfi_index !1187
}

; Function Attrs: mustprogress noinline uwtable
define linkonce_odr dso_local void @_ZNSt16allocator_traitsISaISt13_Rb_tree_nodeISt4pairIKiiEEEE9constructIS3_JRKSt21piecewise_construct_tSt5tupleIJOiEESB_IJEEEEEvRS5_PT_DpOT0_(%"struct.std::less"* nonnull align 1 dereferenceable(1) %0, %"struct.std::pair"* %1, %"struct.std::less"* nonnull align 1 dereferenceable(1) %2, %"class.std::tuple"* nonnull align 8 dereferenceable(8) %3, %"struct.std::less"* nonnull align 1 dereferenceable(1) %4) #4 comdat align 2 {
  %6 = alloca %"struct.std::less"*, align 8, !llfi_index !1188
  %7 = alloca %"struct.std::pair"*, align 8, !llfi_index !1189
  %8 = alloca %"struct.std::less"*, align 8, !llfi_index !1190
  %9 = alloca %"class.std::tuple"*, align 8, !llfi_index !1191
  %10 = alloca %"struct.std::less"*, align 8, !llfi_index !1192
  store %"struct.std::less"* %0, %"struct.std::less"** %6, align 8, !llfi_index !1193
  store %"struct.std::pair"* %1, %"struct.std::pair"** %7, align 8, !llfi_index !1194
  store %"struct.std::less"* %2, %"struct.std::less"** %8, align 8, !llfi_index !1195
  store %"class.std::tuple"* %3, %"class.std::tuple"** %9, align 8, !llfi_index !1196
  store %"struct.std::less"* %4, %"struct.std::less"** %10, align 8, !llfi_index !1197
  %11 = load %"struct.std::less"*, %"struct.std::less"** %6, align 8, !llfi_index !1198
  %12 = bitcast %"struct.std::less"* %11 to %"struct.std::less"*, !llfi_index !1199
  %13 = load %"struct.std::pair"*, %"struct.std::pair"** %7, align 8, !llfi_index !1200
  %14 = load %"struct.std::less"*, %"struct.std::less"** %8, align 8, !llfi_index !1201
  %15 = call nonnull align 1 dereferenceable(1) %"struct.std::less"* @_ZSt7forwardIRKSt21piecewise_construct_tEOT_RNSt16remove_referenceIS3_E4typeE(%"struct.std::less"* nonnull align 1 dereferenceable(1) %14) #2, !llfi_index !1202
  %16 = load %"class.std::tuple"*, %"class.std::tuple"** %9, align 8, !llfi_index !1203
  %17 = call nonnull align 8 dereferenceable(8) %"class.std::tuple"* @_ZSt7forwardISt5tupleIJOiEEEOT_RNSt16remove_referenceIS3_E4typeE(%"class.std::tuple"* nonnull align 8 dereferenceable(8) %16) #2, !llfi_index !1204
  %18 = load %"struct.std::less"*, %"struct.std::less"** %10, align 8, !llfi_index !1205
  %19 = call nonnull align 1 dereferenceable(1) %"struct.std::less"* @_ZSt7forwardISt5tupleIJEEEOT_RNSt16remove_referenceIS2_E4typeE(%"struct.std::less"* nonnull align 1 dereferenceable(1) %18) #2, !llfi_index !1206
  call void @_ZN9__gnu_cxx13new_allocatorISt13_Rb_tree_nodeISt4pairIKiiEEE9constructIS4_JRKSt21piecewise_construct_tSt5tupleIJOiEESB_IJEEEEEvPT_DpOT0_(%"struct.std::less"* nonnull align 1 dereferenceable(1) %12, %"struct.std::pair"* %13, %"struct.std::less"* nonnull align 1 dereferenceable(1) %15, %"class.std::tuple"* nonnull align 8 dereferenceable(8) %17, %"struct.std::less"* nonnull align 1 dereferenceable(1) %19), !llfi_index !1207
  ret void, !llfi_index !1208
}

; Function Attrs: mustprogress noinline uwtable
define linkonce_odr dso_local void @_ZN9__gnu_cxx13new_allocatorISt13_Rb_tree_nodeISt4pairIKiiEEE9constructIS4_JRKSt21piecewise_construct_tSt5tupleIJOiEESB_IJEEEEEvPT_DpOT0_(%"struct.std::less"* nonnull align 1 dereferenceable(1) %0, %"struct.std::pair"* %1, %"struct.std::less"* nonnull align 1 dereferenceable(1) %2, %"class.std::tuple"* nonnull align 8 dereferenceable(8) %3, %"struct.std::less"* nonnull align 1 dereferenceable(1) %4) #4 comdat align 2 {
  %6 = alloca %"struct.std::less"*, align 8, !llfi_index !1209
  %7 = alloca %"struct.std::pair"*, align 8, !llfi_index !1210
  %8 = alloca %"struct.std::less"*, align 8, !llfi_index !1211
  %9 = alloca %"class.std::tuple"*, align 8, !llfi_index !1212
  %10 = alloca %"struct.std::less"*, align 8, !llfi_index !1213
  %11 = alloca %"struct.std::less", align 1, !llfi_index !1214
  %12 = alloca %"class.std::tuple", align 8, !llfi_index !1215
  %13 = alloca %"struct.std::less", align 1, !llfi_index !1216
  store %"struct.std::less"* %0, %"struct.std::less"** %6, align 8, !llfi_index !1217
  store %"struct.std::pair"* %1, %"struct.std::pair"** %7, align 8, !llfi_index !1218
  store %"struct.std::less"* %2, %"struct.std::less"** %8, align 8, !llfi_index !1219
  store %"class.std::tuple"* %3, %"class.std::tuple"** %9, align 8, !llfi_index !1220
  store %"struct.std::less"* %4, %"struct.std::less"** %10, align 8, !llfi_index !1221
  %14 = load %"struct.std::less"*, %"struct.std::less"** %6, align 8, !llfi_index !1222
  %15 = load %"struct.std::pair"*, %"struct.std::pair"** %7, align 8, !llfi_index !1223
  %16 = bitcast %"struct.std::pair"* %15 to i8*, !llfi_index !1224
  %17 = bitcast i8* %16 to %"struct.std::pair"*, !llfi_index !1225
  %18 = load %"struct.std::less"*, %"struct.std::less"** %8, align 8, !llfi_index !1226
  %19 = call nonnull align 1 dereferenceable(1) %"struct.std::less"* @_ZSt7forwardIRKSt21piecewise_construct_tEOT_RNSt16remove_referenceIS3_E4typeE(%"struct.std::less"* nonnull align 1 dereferenceable(1) %18) #2, !llfi_index !1227
  %20 = load %"class.std::tuple"*, %"class.std::tuple"** %9, align 8, !llfi_index !1228
  %21 = call nonnull align 8 dereferenceable(8) %"class.std::tuple"* @_ZSt7forwardISt5tupleIJOiEEEOT_RNSt16remove_referenceIS3_E4typeE(%"class.std::tuple"* nonnull align 8 dereferenceable(8) %20) #2, !llfi_index !1229
  call void @_ZNSt5tupleIJOiEEC2EOS1_(%"class.std::tuple"* nonnull align 8 dereferenceable(8) %12, %"class.std::tuple"* nonnull align 8 dereferenceable(8) %21) #2, !llfi_index !1230
  %22 = load %"struct.std::less"*, %"struct.std::less"** %10, align 8, !llfi_index !1231
  %23 = call nonnull align 1 dereferenceable(1) %"struct.std::less"* @_ZSt7forwardISt5tupleIJEEEOT_RNSt16remove_referenceIS2_E4typeE(%"struct.std::less"* nonnull align 1 dereferenceable(1) %22) #2, !llfi_index !1232
  call void @_ZNSt4pairIKiiEC2IJOiEJEEESt21piecewise_construct_tSt5tupleIJDpT_EES5_IJDpT0_EE(%"struct.std::pair"* nonnull align 4 dereferenceable(8) %17, %"class.std::tuple"* %12), !llfi_index !1233
  ret void, !llfi_index !1234
}

; Function Attrs: noinline nounwind uwtable
define linkonce_odr dso_local void @_ZNSt5tupleIJOiEEC2EOS1_(%"class.std::tuple"* nonnull align 8 dereferenceable(8) %0, %"class.std::tuple"* nonnull align 8 dereferenceable(8) %1) unnamed_addr #1 comdat align 2 {
  %3 = alloca %"class.std::tuple"*, align 8, !llfi_index !1235
  %4 = alloca %"class.std::tuple"*, align 8, !llfi_index !1236
  store %"class.std::tuple"* %0, %"class.std::tuple"** %3, align 8, !llfi_index !1237
  store %"class.std::tuple"* %1, %"class.std::tuple"** %4, align 8, !llfi_index !1238
  %5 = load %"class.std::tuple"*, %"class.std::tuple"** %3, align 8, !llfi_index !1239
  %6 = bitcast %"class.std::tuple"* %5 to %"struct.std::_Tuple_impl"*, !llfi_index !1240
  %7 = load %"class.std::tuple"*, %"class.std::tuple"** %4, align 8, !llfi_index !1241
  %8 = bitcast %"class.std::tuple"* %7 to %"struct.std::_Tuple_impl"*, !llfi_index !1242
  call void @_ZNSt11_Tuple_implILm0EJOiEEC2EOS1_(%"struct.std::_Tuple_impl"* nonnull align 8 dereferenceable(8) %6, %"struct.std::_Tuple_impl"* nonnull align 8 dereferenceable(8) %8) #2, !llfi_index !1243
  ret void, !llfi_index !1244
}

; Function Attrs: noinline uwtable
define linkonce_odr dso_local void @_ZNSt4pairIKiiEC2IJOiEJEEESt21piecewise_construct_tSt5tupleIJDpT_EES5_IJDpT0_EE(%"struct.std::pair"* nonnull align 4 dereferenceable(8) %0, %"class.std::tuple"* %1) unnamed_addr #0 comdat align 2 {
  %3 = alloca %"struct.std::less", align 1, !llfi_index !1245
  %4 = alloca %"struct.std::less", align 1, !llfi_index !1246
  %5 = alloca %"struct.std::pair"*, align 8, !llfi_index !1247
  %6 = alloca %"struct.std::less", align 1, !llfi_index !1248
  %7 = alloca %"struct.std::less", align 1, !llfi_index !1249
  store %"struct.std::pair"* %0, %"struct.std::pair"** %5, align 8, !llfi_index !1250
  %8 = load %"struct.std::pair"*, %"struct.std::pair"** %5, align 8, !llfi_index !1251
  call void @_ZNSt4pairIKiiEC2IJOiEJLm0EEJEJEEERSt5tupleIJDpT_EERS4_IJDpT1_EESt12_Index_tupleIJXspT0_EEESD_IJXspT2_EEE(%"struct.std::pair"* nonnull align 4 dereferenceable(8) %8, %"class.std::tuple"* nonnull align 8 dereferenceable(8) %1, %"struct.std::less"* nonnull align 1 dereferenceable(1) %4), !llfi_index !1252
  ret void, !llfi_index !1253
}

; Function Attrs: noinline nounwind uwtable
define linkonce_odr dso_local void @_ZNSt4pairIKiiEC2IJOiEJLm0EEJEJEEERSt5tupleIJDpT_EERS4_IJDpT1_EESt12_Index_tupleIJXspT0_EEESD_IJXspT2_EEE(%"struct.std::pair"* nonnull align 4 dereferenceable(8) %0, %"class.std::tuple"* nonnull align 8 dereferenceable(8) %1, %"struct.std::less"* nonnull align 1 dereferenceable(1) %2) unnamed_addr #1 comdat align 2 {
  %4 = alloca %"struct.std::less", align 1, !llfi_index !1254
  %5 = alloca %"struct.std::less", align 1, !llfi_index !1255
  %6 = alloca %"struct.std::pair"*, align 8, !llfi_index !1256
  %7 = alloca %"class.std::tuple"*, align 8, !llfi_index !1257
  %8 = alloca %"struct.std::less"*, align 8, !llfi_index !1258
  store %"struct.std::pair"* %0, %"struct.std::pair"** %6, align 8, !llfi_index !1259
  store %"class.std::tuple"* %1, %"class.std::tuple"** %7, align 8, !llfi_index !1260
  store %"struct.std::less"* %2, %"struct.std::less"** %8, align 8, !llfi_index !1261
  %9 = load %"struct.std::pair"*, %"struct.std::pair"** %6, align 8, !llfi_index !1262
  %10 = bitcast %"struct.std::pair"* %9 to %"struct.std::less"*, !llfi_index !1263
  %11 = getelementptr inbounds %"struct.std::pair", %"struct.std::pair"* %9, i32 0, i32 0, !llfi_index !1264
  %12 = load %"class.std::tuple"*, %"class.std::tuple"** %7, align 8, !llfi_index !1265
  %13 = call nonnull align 4 dereferenceable(4) i32* @_ZSt3getILm0EJOiEERNSt13tuple_elementIXT_ESt5tupleIJDpT0_EEE4typeERS5_(%"class.std::tuple"* nonnull align 8 dereferenceable(8) %12) #2, !llfi_index !1266
  %14 = call nonnull align 4 dereferenceable(4) i32* @_ZSt7forwardIOiEOT_RNSt16remove_referenceIS1_E4typeE(i32* nonnull align 4 dereferenceable(4) %13) #2, !llfi_index !1267
  %15 = load i32, i32* %14, align 4, !llfi_index !1268
  store i32 %15, i32* %11, align 4, !llfi_index !1269
  %16 = getelementptr inbounds %"struct.std::pair", %"struct.std::pair"* %9, i32 0, i32 1, !llfi_index !1270
  store i32 0, i32* %16, align 4, !llfi_index !1271
  ret void, !llfi_index !1272
}

; Function Attrs: mustprogress noinline nounwind uwtable
define linkonce_odr dso_local nonnull align 4 dereferenceable(4) i32* @_ZSt3getILm0EJOiEERNSt13tuple_elementIXT_ESt5tupleIJDpT0_EEE4typeERS5_(%"class.std::tuple"* nonnull align 8 dereferenceable(8) %0) #3 comdat {
  %2 = alloca %"class.std::tuple"*, align 8, !llfi_index !1273
  store %"class.std::tuple"* %0, %"class.std::tuple"** %2, align 8, !llfi_index !1274
  %3 = load %"class.std::tuple"*, %"class.std::tuple"** %2, align 8, !llfi_index !1275
  %4 = bitcast %"class.std::tuple"* %3 to %"struct.std::_Tuple_impl"*, !llfi_index !1276
  %5 = call nonnull align 4 dereferenceable(4) i32* @_ZSt12__get_helperILm0EOiJEERT0_RSt11_Tuple_implIXT_EJS1_DpT1_EE(%"struct.std::_Tuple_impl"* nonnull align 8 dereferenceable(8) %4) #2, !llfi_index !1277
  ret i32* %5, !llfi_index !1278
}

; Function Attrs: mustprogress noinline nounwind uwtable
define linkonce_odr dso_local nonnull align 4 dereferenceable(4) i32* @_ZSt7forwardIOiEOT_RNSt16remove_referenceIS1_E4typeE(i32* nonnull align 4 dereferenceable(4) %0) #3 comdat {
  %2 = alloca i32*, align 8, !llfi_index !1279
  store i32* %0, i32** %2, align 8, !llfi_index !1280
  %3 = load i32*, i32** %2, align 8, !llfi_index !1281
  ret i32* %3, !llfi_index !1282
}

; Function Attrs: mustprogress noinline nounwind uwtable
define linkonce_odr dso_local nonnull align 4 dereferenceable(4) i32* @_ZSt12__get_helperILm0EOiJEERT0_RSt11_Tuple_implIXT_EJS1_DpT1_EE(%"struct.std::_Tuple_impl"* nonnull align 8 dereferenceable(8) %0) #3 comdat {
  %2 = alloca %"struct.std::_Tuple_impl"*, align 8, !llfi_index !1283
  store %"struct.std::_Tuple_impl"* %0, %"struct.std::_Tuple_impl"** %2, align 8, !llfi_index !1284
  %3 = load %"struct.std::_Tuple_impl"*, %"struct.std::_Tuple_impl"** %2, align 8, !llfi_index !1285
  %4 = call nonnull align 4 dereferenceable(4) i32* @_ZNSt11_Tuple_implILm0EJOiEE7_M_headERS1_(%"struct.std::_Tuple_impl"* nonnull align 8 dereferenceable(8) %3) #2, !llfi_index !1286
  ret i32* %4, !llfi_index !1287
}

; Function Attrs: mustprogress noinline nounwind uwtable
define linkonce_odr dso_local nonnull align 4 dereferenceable(4) i32* @_ZNSt11_Tuple_implILm0EJOiEE7_M_headERS1_(%"struct.std::_Tuple_impl"* nonnull align 8 dereferenceable(8) %0) #3 comdat align 2 {
  %2 = alloca %"struct.std::_Tuple_impl"*, align 8, !llfi_index !1288
  store %"struct.std::_Tuple_impl"* %0, %"struct.std::_Tuple_impl"** %2, align 8, !llfi_index !1289
  %3 = load %"struct.std::_Tuple_impl"*, %"struct.std::_Tuple_impl"** %2, align 8, !llfi_index !1290
  %4 = bitcast %"struct.std::_Tuple_impl"* %3 to %"struct.std::_Head_base"*, !llfi_index !1291
  %5 = call nonnull align 4 dereferenceable(4) i32* @_ZNSt10_Head_baseILm0EOiLb0EE7_M_headERS1_(%"struct.std::_Head_base"* nonnull align 8 dereferenceable(8) %4) #2, !llfi_index !1292
  ret i32* %5, !llfi_index !1293
}

; Function Attrs: mustprogress noinline nounwind uwtable
define linkonce_odr dso_local nonnull align 4 dereferenceable(4) i32* @_ZNSt10_Head_baseILm0EOiLb0EE7_M_headERS1_(%"struct.std::_Head_base"* nonnull align 8 dereferenceable(8) %0) #3 comdat align 2 {
  %2 = alloca %"struct.std::_Head_base"*, align 8, !llfi_index !1294
  store %"struct.std::_Head_base"* %0, %"struct.std::_Head_base"** %2, align 8, !llfi_index !1295
  %3 = load %"struct.std::_Head_base"*, %"struct.std::_Head_base"** %2, align 8, !llfi_index !1296
  %4 = getelementptr inbounds %"struct.std::_Head_base", %"struct.std::_Head_base"* %3, i32 0, i32 0, !llfi_index !1297
  %5 = load i32*, i32** %4, align 8, !llfi_index !1298
  ret i32* %5, !llfi_index !1299
}

; Function Attrs: noinline nounwind uwtable
define linkonce_odr dso_local void @_ZNSt11_Tuple_implILm0EJOiEEC2EOS1_(%"struct.std::_Tuple_impl"* nonnull align 8 dereferenceable(8) %0, %"struct.std::_Tuple_impl"* nonnull align 8 dereferenceable(8) %1) unnamed_addr #1 comdat align 2 personality i8* bitcast (i32 (...)* @__gxx_personality_v0 to i8*) {
  %3 = alloca %"struct.std::_Tuple_impl"*, align 8, !llfi_index !1300
  %4 = alloca %"struct.std::_Tuple_impl"*, align 8, !llfi_index !1301
  store %"struct.std::_Tuple_impl"* %0, %"struct.std::_Tuple_impl"** %3, align 8, !llfi_index !1302
  store %"struct.std::_Tuple_impl"* %1, %"struct.std::_Tuple_impl"** %4, align 8, !llfi_index !1303
  %5 = load %"struct.std::_Tuple_impl"*, %"struct.std::_Tuple_impl"** %3, align 8, !llfi_index !1304
  %6 = bitcast %"struct.std::_Tuple_impl"* %5 to %"struct.std::_Head_base"*, !llfi_index !1305
  %7 = load %"struct.std::_Tuple_impl"*, %"struct.std::_Tuple_impl"** %4, align 8, !llfi_index !1306
  %8 = call nonnull align 4 dereferenceable(4) i32* @_ZNSt11_Tuple_implILm0EJOiEE7_M_headERS1_(%"struct.std::_Tuple_impl"* nonnull align 8 dereferenceable(8) %7) #2, !llfi_index !1307
  %9 = call nonnull align 4 dereferenceable(4) i32* @_ZSt7forwardIOiEOT_RNSt16remove_referenceIS1_E4typeE(i32* nonnull align 4 dereferenceable(4) %8) #2, !llfi_index !1308
  invoke void @_ZNSt10_Head_baseILm0EOiLb0EEC2IiEEOT_(%"struct.std::_Head_base"* nonnull align 8 dereferenceable(8) %6, i32* nonnull align 4 dereferenceable(4) %9)
          to label %10 unwind label %11, !llfi_index !1309

10:                                               ; preds = %2
  ret void, !llfi_index !1310

11:                                               ; preds = %2
  %12 = landingpad { i8*, i32 }
          catch i8* null, !llfi_index !1311
  %13 = extractvalue { i8*, i32 } %12, 0, !llfi_index !1312
  call void @__clang_call_terminate(i8* %13) #15, !llfi_index !1313
  unreachable, !llfi_index !1314
}

; Function Attrs: noinline nounwind uwtable
define linkonce_odr dso_local void @_ZNSt10_Head_baseILm0EOiLb0EEC2IiEEOT_(%"struct.std::_Head_base"* nonnull align 8 dereferenceable(8) %0, i32* nonnull align 4 dereferenceable(4) %1) unnamed_addr #1 comdat align 2 {
  %3 = alloca %"struct.std::_Head_base"*, align 8, !llfi_index !1315
  %4 = alloca i32*, align 8, !llfi_index !1316
  store %"struct.std::_Head_base"* %0, %"struct.std::_Head_base"** %3, align 8, !llfi_index !1317
  store i32* %1, i32** %4, align 8, !llfi_index !1318
  %5 = load %"struct.std::_Head_base"*, %"struct.std::_Head_base"** %3, align 8, !llfi_index !1319
  %6 = getelementptr inbounds %"struct.std::_Head_base", %"struct.std::_Head_base"* %5, i32 0, i32 0, !llfi_index !1320
  %7 = load i32*, i32** %4, align 8, !llfi_index !1321
  %8 = call nonnull align 4 dereferenceable(4) i32* @_ZSt7forwardIiEOT_RNSt16remove_referenceIS0_E4typeE(i32* nonnull align 4 dereferenceable(4) %7) #2, !llfi_index !1322
  store i32* %8, i32** %6, align 8, !llfi_index !1323
  ret void, !llfi_index !1324
}

; Function Attrs: mustprogress noinline nounwind uwtable
define linkonce_odr dso_local nonnull align 4 dereferenceable(4) i32* @_ZSt7forwardIiEOT_RNSt16remove_referenceIS0_E4typeE(i32* nonnull align 4 dereferenceable(4) %0) #3 comdat {
  %2 = alloca i32*, align 8, !llfi_index !1325
  store i32* %0, i32** %2, align 8, !llfi_index !1326
  %3 = load i32*, i32** %2, align 8, !llfi_index !1327
  ret i32* %3, !llfi_index !1328
}

; Function Attrs: mustprogress noinline uwtable
define linkonce_odr dso_local %"struct.std::_Rb_tree_node"* @_ZNSt16allocator_traitsISaISt13_Rb_tree_nodeISt4pairIKiiEEEE8allocateERS5_m(%"struct.std::less"* nonnull align 1 dereferenceable(1) %0, i64 %1) #4 comdat align 2 {
  %3 = alloca %"struct.std::less"*, align 8, !llfi_index !1329
  %4 = alloca i64, align 8, !llfi_index !1330
  store %"struct.std::less"* %0, %"struct.std::less"** %3, align 8, !llfi_index !1331
  store i64 %1, i64* %4, align 8, !llfi_index !1332
  %5 = load %"struct.std::less"*, %"struct.std::less"** %3, align 8, !llfi_index !1333
  %6 = bitcast %"struct.std::less"* %5 to %"struct.std::less"*, !llfi_index !1334
  %7 = load i64, i64* %4, align 8, !llfi_index !1335
  %8 = call %"struct.std::_Rb_tree_node"* @_ZN9__gnu_cxx13new_allocatorISt13_Rb_tree_nodeISt4pairIKiiEEE8allocateEmPKv(%"struct.std::less"* nonnull align 1 dereferenceable(1) %6, i64 %7, i8* null), !llfi_index !1336
  ret %"struct.std::_Rb_tree_node"* %8, !llfi_index !1337
}

; Function Attrs: mustprogress noinline uwtable
define linkonce_odr dso_local %"struct.std::_Rb_tree_node"* @_ZN9__gnu_cxx13new_allocatorISt13_Rb_tree_nodeISt4pairIKiiEEE8allocateEmPKv(%"struct.std::less"* nonnull align 1 dereferenceable(1) %0, i64 %1, i8* %2) #4 comdat align 2 {
  %4 = alloca %"struct.std::less"*, align 8, !llfi_index !1338
  %5 = alloca i64, align 8, !llfi_index !1339
  %6 = alloca i8*, align 8, !llfi_index !1340
  store %"struct.std::less"* %0, %"struct.std::less"** %4, align 8, !llfi_index !1341
  store i64 %1, i64* %5, align 8, !llfi_index !1342
  store i8* %2, i8** %6, align 8, !llfi_index !1343
  %7 = load %"struct.std::less"*, %"struct.std::less"** %4, align 8, !llfi_index !1344
  %8 = load i64, i64* %5, align 8, !llfi_index !1345
  %9 = call i64 @_ZNK9__gnu_cxx13new_allocatorISt13_Rb_tree_nodeISt4pairIKiiEEE8max_sizeEv(%"struct.std::less"* nonnull align 1 dereferenceable(1) %7) #2, !llfi_index !1346
  %10 = icmp ugt i64 %8, %9, !llfi_index !1347
  br i1 %10, label %11, label %12, !llfi_index !1348

11:                                               ; preds = %3
  call void @_ZSt17__throw_bad_allocv() #16, !llfi_index !1349
  unreachable, !llfi_index !1350

12:                                               ; preds = %3
  %13 = load i64, i64* %5, align 8, !llfi_index !1351
  %14 = mul i64 %13, 40, !llfi_index !1352
  %15 = call noalias nonnull i8* @_Znwm(i64 %14) #18, !llfi_index !1353
  %16 = bitcast i8* %15 to %"struct.std::_Rb_tree_node"*, !llfi_index !1354
  ret %"struct.std::_Rb_tree_node"* %16, !llfi_index !1355
}

; Function Attrs: mustprogress noinline nounwind uwtable
define linkonce_odr dso_local i64 @_ZNK9__gnu_cxx13new_allocatorISt13_Rb_tree_nodeISt4pairIKiiEEE8max_sizeEv(%"struct.std::less"* nonnull align 1 dereferenceable(1) %0) #3 comdat align 2 {
  %2 = alloca %"struct.std::less"*, align 8, !llfi_index !1356
  store %"struct.std::less"* %0, %"struct.std::less"** %2, align 8, !llfi_index !1357
  %3 = load %"struct.std::less"*, %"struct.std::less"** %2, align 8, !llfi_index !1358
  ret i64 230584300921369395, !llfi_index !1359
}

; Function Attrs: noreturn
declare dso_local void @_ZSt17__throw_bad_allocv() #12

; Function Attrs: nobuiltin allocsize(0)
declare dso_local nonnull i8* @_Znwm(i64) #13

; Function Attrs: noinline uwtable
define linkonce_odr dso_local void @_ZNSt5tupleIJOiEEC2IJiELb1EEEDpOT_(%"class.std::tuple"* nonnull align 8 dereferenceable(8) %0, i32* nonnull align 4 dereferenceable(4) %1) unnamed_addr #0 comdat align 2 {
  %3 = alloca %"class.std::tuple"*, align 8, !llfi_index !1360
  %4 = alloca i32*, align 8, !llfi_index !1361
  store %"class.std::tuple"* %0, %"class.std::tuple"** %3, align 8, !llfi_index !1362
  store i32* %1, i32** %4, align 8, !llfi_index !1363
  %5 = load %"class.std::tuple"*, %"class.std::tuple"** %3, align 8, !llfi_index !1364
  %6 = bitcast %"class.std::tuple"* %5 to %"struct.std::_Tuple_impl"*, !llfi_index !1365
  %7 = load i32*, i32** %4, align 8, !llfi_index !1366
  %8 = call nonnull align 4 dereferenceable(4) i32* @_ZSt7forwardIiEOT_RNSt16remove_referenceIS0_E4typeE(i32* nonnull align 4 dereferenceable(4) %7) #2, !llfi_index !1367
  call void @_ZNSt11_Tuple_implILm0EJOiEEC2IiEEOT_(%"struct.std::_Tuple_impl"* nonnull align 8 dereferenceable(8) %6, i32* nonnull align 4 dereferenceable(4) %8), !llfi_index !1368
  ret void, !llfi_index !1369
}

; Function Attrs: noinline nounwind uwtable
define linkonce_odr dso_local void @_ZNSt11_Tuple_implILm0EJOiEEC2IiEEOT_(%"struct.std::_Tuple_impl"* nonnull align 8 dereferenceable(8) %0, i32* nonnull align 4 dereferenceable(4) %1) unnamed_addr #1 comdat align 2 {
  %3 = alloca %"struct.std::_Tuple_impl"*, align 8, !llfi_index !1370
  %4 = alloca i32*, align 8, !llfi_index !1371
  store %"struct.std::_Tuple_impl"* %0, %"struct.std::_Tuple_impl"** %3, align 8, !llfi_index !1372
  store i32* %1, i32** %4, align 8, !llfi_index !1373
  %5 = load %"struct.std::_Tuple_impl"*, %"struct.std::_Tuple_impl"** %3, align 8, !llfi_index !1374
  %6 = bitcast %"struct.std::_Tuple_impl"* %5 to %"struct.std::_Head_base"*, !llfi_index !1375
  %7 = load i32*, i32** %4, align 8, !llfi_index !1376
  %8 = call nonnull align 4 dereferenceable(4) i32* @_ZSt7forwardIiEOT_RNSt16remove_referenceIS0_E4typeE(i32* nonnull align 4 dereferenceable(4) %7) #2, !llfi_index !1377
  call void @_ZNSt10_Head_baseILm0EOiLb0EEC2IiEEOT_(%"struct.std::_Head_base"* nonnull align 8 dereferenceable(8) %6, i32* nonnull align 4 dereferenceable(4) %8), !llfi_index !1378
  ret void, !llfi_index !1379
}

; Function Attrs: mustprogress noinline nounwind uwtable
define linkonce_odr dso_local void @_ZNKSt8_Rb_treeIiSt4pairIKiiESt10_Select1stIS2_ESt4lessIiESaIS2_EE8key_compEv(%"class.std::_Rb_tree"* nonnull align 8 dereferenceable(48) %0) #3 comdat align 2 {
  %2 = alloca %"class.std::_Rb_tree"*, align 8, !llfi_index !1380
  store %"class.std::_Rb_tree"* %0, %"class.std::_Rb_tree"** %2, align 8, !llfi_index !1381
  %3 = load %"class.std::_Rb_tree"*, %"class.std::_Rb_tree"** %2, align 8, !llfi_index !1382
  %4 = getelementptr inbounds %"class.std::_Rb_tree", %"class.std::_Rb_tree"* %3, i32 0, i32 0, !llfi_index !1383
  %5 = bitcast %"struct.std::_Rb_tree<int, std::pair<const int, int>, std::_Select1st<std::pair<const int, int>>, std::less<int>>::_Rb_tree_impl"* %4 to %"struct.std::_Rb_tree_key_compare"*, !llfi_index !1384
  %6 = getelementptr inbounds %"struct.std::_Rb_tree_key_compare", %"struct.std::_Rb_tree_key_compare"* %5, i32 0, i32 0, !llfi_index !1385
  ret void, !llfi_index !1386
}

; Function Attrs: mustprogress noinline nounwind uwtable
define linkonce_odr dso_local %"struct.std::_Rb_tree_node_base"* @_ZNSt8_Rb_treeIiSt4pairIKiiESt10_Select1stIS2_ESt4lessIiESaIS2_EE3endEv(%"class.std::_Rb_tree"* nonnull align 8 dereferenceable(48) %0) #3 comdat align 2 {
  %2 = alloca %"struct.std::_Rb_tree_iterator", align 8, !llfi_index !1387
  %3 = alloca %"class.std::_Rb_tree"*, align 8, !llfi_index !1388
  store %"class.std::_Rb_tree"* %0, %"class.std::_Rb_tree"** %3, align 8, !llfi_index !1389
  %4 = load %"class.std::_Rb_tree"*, %"class.std::_Rb_tree"** %3, align 8, !llfi_index !1390
  %5 = getelementptr inbounds %"class.std::_Rb_tree", %"class.std::_Rb_tree"* %4, i32 0, i32 0, !llfi_index !1391
  %6 = bitcast %"struct.std::_Rb_tree<int, std::pair<const int, int>, std::_Select1st<std::pair<const int, int>>, std::less<int>>::_Rb_tree_impl"* %5 to i8*, !llfi_index !1392
  %7 = getelementptr inbounds i8, i8* %6, i64 8, !llfi_index !1393
  %8 = bitcast i8* %7 to %"struct.std::_Rb_tree_header"*, !llfi_index !1394
  %9 = getelementptr inbounds %"struct.std::_Rb_tree_header", %"struct.std::_Rb_tree_header"* %8, i32 0, i32 0, !llfi_index !1395
  call void @_ZNSt17_Rb_tree_iteratorISt4pairIKiiEEC2EPSt18_Rb_tree_node_base(%"struct.std::_Rb_tree_iterator"* nonnull align 8 dereferenceable(8) %2, %"struct.std::_Rb_tree_node_base"* %9) #2, !llfi_index !1396
  %10 = getelementptr inbounds %"struct.std::_Rb_tree_iterator", %"struct.std::_Rb_tree_iterator"* %2, i32 0, i32 0, !llfi_index !1397
  %11 = load %"struct.std::_Rb_tree_node_base"*, %"struct.std::_Rb_tree_node_base"** %10, align 8, !llfi_index !1398
  ret %"struct.std::_Rb_tree_node_base"* %11, !llfi_index !1399
}

; Function Attrs: mustprogress noinline uwtable
define linkonce_odr dso_local %"struct.std::_Rb_tree_node_base"* @_ZNSt8_Rb_treeIiSt4pairIKiiESt10_Select1stIS2_ESt4lessIiESaIS2_EE11lower_boundERS1_(%"class.std::_Rb_tree"* nonnull align 8 dereferenceable(48) %0, i32* nonnull align 4 dereferenceable(4) %1) #4 comdat align 2 {
  %3 = alloca %"struct.std::_Rb_tree_iterator", align 8, !llfi_index !1400
  %4 = alloca %"class.std::_Rb_tree"*, align 8, !llfi_index !1401
  %5 = alloca i32*, align 8, !llfi_index !1402
  store %"class.std::_Rb_tree"* %0, %"class.std::_Rb_tree"** %4, align 8, !llfi_index !1403
  store i32* %1, i32** %5, align 8, !llfi_index !1404
  %6 = load %"class.std::_Rb_tree"*, %"class.std::_Rb_tree"** %4, align 8, !llfi_index !1405
  %7 = call %"struct.std::_Rb_tree_node"* @_ZNSt8_Rb_treeIiSt4pairIKiiESt10_Select1stIS2_ESt4lessIiESaIS2_EE8_M_beginEv(%"class.std::_Rb_tree"* nonnull align 8 dereferenceable(48) %6) #2, !llfi_index !1406
  %8 = call %"struct.std::_Rb_tree_node_base"* @_ZNSt8_Rb_treeIiSt4pairIKiiESt10_Select1stIS2_ESt4lessIiESaIS2_EE6_M_endEv(%"class.std::_Rb_tree"* nonnull align 8 dereferenceable(48) %6) #2, !llfi_index !1407
  %9 = load i32*, i32** %5, align 8, !llfi_index !1408
  %10 = call %"struct.std::_Rb_tree_node_base"* @_ZNSt8_Rb_treeIiSt4pairIKiiESt10_Select1stIS2_ESt4lessIiESaIS2_EE14_M_lower_boundEPSt13_Rb_tree_nodeIS2_EPSt18_Rb_tree_node_baseRS1_(%"class.std::_Rb_tree"* nonnull align 8 dereferenceable(48) %6, %"struct.std::_Rb_tree_node"* %7, %"struct.std::_Rb_tree_node_base"* %8, i32* nonnull align 4 dereferenceable(4) %9), !llfi_index !1409
  %11 = getelementptr inbounds %"struct.std::_Rb_tree_iterator", %"struct.std::_Rb_tree_iterator"* %3, i32 0, i32 0, !llfi_index !1410
  store %"struct.std::_Rb_tree_node_base"* %10, %"struct.std::_Rb_tree_node_base"** %11, align 8, !llfi_index !1411
  %12 = getelementptr inbounds %"struct.std::_Rb_tree_iterator", %"struct.std::_Rb_tree_iterator"* %3, i32 0, i32 0, !llfi_index !1412
  %13 = load %"struct.std::_Rb_tree_node_base"*, %"struct.std::_Rb_tree_node_base"** %12, align 8, !llfi_index !1413
  ret %"struct.std::_Rb_tree_node_base"* %13, !llfi_index !1414
}

; Function Attrs: mustprogress noinline uwtable
define linkonce_odr dso_local %"struct.std::_Rb_tree_node_base"* @_ZNSt8_Rb_treeIiSt4pairIKiiESt10_Select1stIS2_ESt4lessIiESaIS2_EE14_M_lower_boundEPSt13_Rb_tree_nodeIS2_EPSt18_Rb_tree_node_baseRS1_(%"class.std::_Rb_tree"* nonnull align 8 dereferenceable(48) %0, %"struct.std::_Rb_tree_node"* %1, %"struct.std::_Rb_tree_node_base"* %2, i32* nonnull align 4 dereferenceable(4) %3) #4 comdat align 2 {
  %5 = alloca %"struct.std::_Rb_tree_iterator", align 8, !llfi_index !1415
  %6 = alloca %"class.std::_Rb_tree"*, align 8, !llfi_index !1416
  %7 = alloca %"struct.std::_Rb_tree_node"*, align 8, !llfi_index !1417
  %8 = alloca %"struct.std::_Rb_tree_node_base"*, align 8, !llfi_index !1418
  %9 = alloca i32*, align 8, !llfi_index !1419
  store %"class.std::_Rb_tree"* %0, %"class.std::_Rb_tree"** %6, align 8, !llfi_index !1420
  store %"struct.std::_Rb_tree_node"* %1, %"struct.std::_Rb_tree_node"** %7, align 8, !llfi_index !1421
  store %"struct.std::_Rb_tree_node_base"* %2, %"struct.std::_Rb_tree_node_base"** %8, align 8, !llfi_index !1422
  store i32* %3, i32** %9, align 8, !llfi_index !1423
  %10 = load %"class.std::_Rb_tree"*, %"class.std::_Rb_tree"** %6, align 8, !llfi_index !1424
  br label %11, !llfi_index !1425

11:                                               ; preds = %32, %4
  %12 = load %"struct.std::_Rb_tree_node"*, %"struct.std::_Rb_tree_node"** %7, align 8, !llfi_index !1426
  %13 = icmp ne %"struct.std::_Rb_tree_node"* %12, null, !llfi_index !1427
  br i1 %13, label %14, label %33, !llfi_index !1428

14:                                               ; preds = %11
  %15 = getelementptr inbounds %"class.std::_Rb_tree", %"class.std::_Rb_tree"* %10, i32 0, i32 0, !llfi_index !1429
  %16 = bitcast %"struct.std::_Rb_tree<int, std::pair<const int, int>, std::_Select1st<std::pair<const int, int>>, std::less<int>>::_Rb_tree_impl"* %15 to %"struct.std::_Rb_tree_key_compare"*, !llfi_index !1430
  %17 = getelementptr inbounds %"struct.std::_Rb_tree_key_compare", %"struct.std::_Rb_tree_key_compare"* %16, i32 0, i32 0, !llfi_index !1431
  %18 = load %"struct.std::_Rb_tree_node"*, %"struct.std::_Rb_tree_node"** %7, align 8, !llfi_index !1432
  %19 = call nonnull align 4 dereferenceable(4) i32* @_ZNSt8_Rb_treeIiSt4pairIKiiESt10_Select1stIS2_ESt4lessIiESaIS2_EE6_S_keyEPKSt13_Rb_tree_nodeIS2_E(%"struct.std::_Rb_tree_node"* %18), !llfi_index !1433
  %20 = load i32*, i32** %9, align 8, !llfi_index !1434
  %21 = call zeroext i1 @_ZNKSt4lessIiEclERKiS2_(%"struct.std::less"* nonnull align 1 dereferenceable(1) %17, i32* nonnull align 4 dereferenceable(4) %19, i32* nonnull align 4 dereferenceable(4) %20), !llfi_index !1435
  br i1 %21, label %28, label %22, !llfi_index !1436

22:                                               ; preds = %14
  %23 = load %"struct.std::_Rb_tree_node"*, %"struct.std::_Rb_tree_node"** %7, align 8, !llfi_index !1437
  %24 = bitcast %"struct.std::_Rb_tree_node"* %23 to %"struct.std::_Rb_tree_node_base"*, !llfi_index !1438
  store %"struct.std::_Rb_tree_node_base"* %24, %"struct.std::_Rb_tree_node_base"** %8, align 8, !llfi_index !1439
  %25 = load %"struct.std::_Rb_tree_node"*, %"struct.std::_Rb_tree_node"** %7, align 8, !llfi_index !1440
  %26 = bitcast %"struct.std::_Rb_tree_node"* %25 to %"struct.std::_Rb_tree_node_base"*, !llfi_index !1441
  %27 = call %"struct.std::_Rb_tree_node"* @_ZNSt8_Rb_treeIiSt4pairIKiiESt10_Select1stIS2_ESt4lessIiESaIS2_EE7_S_leftEPSt18_Rb_tree_node_base(%"struct.std::_Rb_tree_node_base"* %26) #2, !llfi_index !1442
  store %"struct.std::_Rb_tree_node"* %27, %"struct.std::_Rb_tree_node"** %7, align 8, !llfi_index !1443
  br label %32, !llfi_index !1444

28:                                               ; preds = %14
  %29 = load %"struct.std::_Rb_tree_node"*, %"struct.std::_Rb_tree_node"** %7, align 8, !llfi_index !1445
  %30 = bitcast %"struct.std::_Rb_tree_node"* %29 to %"struct.std::_Rb_tree_node_base"*, !llfi_index !1446
  %31 = call %"struct.std::_Rb_tree_node"* @_ZNSt8_Rb_treeIiSt4pairIKiiESt10_Select1stIS2_ESt4lessIiESaIS2_EE8_S_rightEPSt18_Rb_tree_node_base(%"struct.std::_Rb_tree_node_base"* %30) #2, !llfi_index !1447
  store %"struct.std::_Rb_tree_node"* %31, %"struct.std::_Rb_tree_node"** %7, align 8, !llfi_index !1448
  br label %32, !llfi_index !1449

32:                                               ; preds = %28, %22
  br label %11, !llvm.loop !1450, !llfi_index !1451

33:                                               ; preds = %11
  %34 = load %"struct.std::_Rb_tree_node_base"*, %"struct.std::_Rb_tree_node_base"** %8, align 8, !llfi_index !1452
  call void @_ZNSt17_Rb_tree_iteratorISt4pairIKiiEEC2EPSt18_Rb_tree_node_base(%"struct.std::_Rb_tree_iterator"* nonnull align 8 dereferenceable(8) %5, %"struct.std::_Rb_tree_node_base"* %34) #2, !llfi_index !1453
  %35 = getelementptr inbounds %"struct.std::_Rb_tree_iterator", %"struct.std::_Rb_tree_iterator"* %5, i32 0, i32 0, !llfi_index !1454
  %36 = load %"struct.std::_Rb_tree_node_base"*, %"struct.std::_Rb_tree_node_base"** %35, align 8, !llfi_index !1455
  ret %"struct.std::_Rb_tree_node_base"* %36, !llfi_index !1456
}

; Function Attrs: mustprogress noinline uwtable
define linkonce_odr dso_local %"struct.std::_Rb_tree_node_base"* @_ZNKSt8_Rb_treeIiSt4pairIKiiESt10_Select1stIS2_ESt4lessIiESaIS2_EE4findERS1_(%"class.std::_Rb_tree"* nonnull align 8 dereferenceable(48) %0, i32* nonnull align 4 dereferenceable(4) %1) #4 comdat align 2 {
  %3 = alloca %"struct.std::_Rb_tree_iterator", align 8, !llfi_index !1457
  %4 = alloca %"class.std::_Rb_tree"*, align 8, !llfi_index !1458
  %5 = alloca i32*, align 8, !llfi_index !1459
  %6 = alloca %"struct.std::_Rb_tree_iterator", align 8, !llfi_index !1460
  %7 = alloca %"struct.std::_Rb_tree_iterator", align 8, !llfi_index !1461
  store %"class.std::_Rb_tree"* %0, %"class.std::_Rb_tree"** %4, align 8, !llfi_index !1462
  store i32* %1, i32** %5, align 8, !llfi_index !1463
  %8 = load %"class.std::_Rb_tree"*, %"class.std::_Rb_tree"** %4, align 8, !llfi_index !1464
  %9 = call %"struct.std::_Rb_tree_node"* @_ZNKSt8_Rb_treeIiSt4pairIKiiESt10_Select1stIS2_ESt4lessIiESaIS2_EE8_M_beginEv(%"class.std::_Rb_tree"* nonnull align 8 dereferenceable(48) %8) #2, !llfi_index !1465
  %10 = call %"struct.std::_Rb_tree_node_base"* @_ZNKSt8_Rb_treeIiSt4pairIKiiESt10_Select1stIS2_ESt4lessIiESaIS2_EE6_M_endEv(%"class.std::_Rb_tree"* nonnull align 8 dereferenceable(48) %8) #2, !llfi_index !1466
  %11 = load i32*, i32** %5, align 8, !llfi_index !1467
  %12 = call %"struct.std::_Rb_tree_node_base"* @_ZNKSt8_Rb_treeIiSt4pairIKiiESt10_Select1stIS2_ESt4lessIiESaIS2_EE14_M_lower_boundEPKSt13_Rb_tree_nodeIS2_EPKSt18_Rb_tree_node_baseRS1_(%"class.std::_Rb_tree"* nonnull align 8 dereferenceable(48) %8, %"struct.std::_Rb_tree_node"* %9, %"struct.std::_Rb_tree_node_base"* %10, i32* nonnull align 4 dereferenceable(4) %11), !llfi_index !1468
  %13 = getelementptr inbounds %"struct.std::_Rb_tree_iterator", %"struct.std::_Rb_tree_iterator"* %6, i32 0, i32 0, !llfi_index !1469
  store %"struct.std::_Rb_tree_node_base"* %12, %"struct.std::_Rb_tree_node_base"** %13, align 8, !llfi_index !1470
  %14 = call %"struct.std::_Rb_tree_node_base"* @_ZNKSt8_Rb_treeIiSt4pairIKiiESt10_Select1stIS2_ESt4lessIiESaIS2_EE3endEv(%"class.std::_Rb_tree"* nonnull align 8 dereferenceable(48) %8) #2, !llfi_index !1471
  %15 = getelementptr inbounds %"struct.std::_Rb_tree_iterator", %"struct.std::_Rb_tree_iterator"* %7, i32 0, i32 0, !llfi_index !1472
  store %"struct.std::_Rb_tree_node_base"* %14, %"struct.std::_Rb_tree_node_base"** %15, align 8, !llfi_index !1473
  %16 = call zeroext i1 @_ZSteqRKSt23_Rb_tree_const_iteratorISt4pairIKiiEES5_(%"struct.std::_Rb_tree_iterator"* nonnull align 8 dereferenceable(8) %6, %"struct.std::_Rb_tree_iterator"* nonnull align 8 dereferenceable(8) %7) #2, !llfi_index !1474
  br i1 %16, label %26, label %17, !llfi_index !1475

17:                                               ; preds = %2
  %18 = getelementptr inbounds %"class.std::_Rb_tree", %"class.std::_Rb_tree"* %8, i32 0, i32 0, !llfi_index !1476
  %19 = bitcast %"struct.std::_Rb_tree<int, std::pair<const int, int>, std::_Select1st<std::pair<const int, int>>, std::less<int>>::_Rb_tree_impl"* %18 to %"struct.std::_Rb_tree_key_compare"*, !llfi_index !1477
  %20 = getelementptr inbounds %"struct.std::_Rb_tree_key_compare", %"struct.std::_Rb_tree_key_compare"* %19, i32 0, i32 0, !llfi_index !1478
  %21 = load i32*, i32** %5, align 8, !llfi_index !1479
  %22 = getelementptr inbounds %"struct.std::_Rb_tree_iterator", %"struct.std::_Rb_tree_iterator"* %6, i32 0, i32 0, !llfi_index !1480
  %23 = load %"struct.std::_Rb_tree_node_base"*, %"struct.std::_Rb_tree_node_base"** %22, align 8, !llfi_index !1481
  %24 = call nonnull align 4 dereferenceable(4) i32* @_ZNSt8_Rb_treeIiSt4pairIKiiESt10_Select1stIS2_ESt4lessIiESaIS2_EE6_S_keyEPKSt18_Rb_tree_node_base(%"struct.std::_Rb_tree_node_base"* %23), !llfi_index !1482
  %25 = call zeroext i1 @_ZNKSt4lessIiEclERKiS2_(%"struct.std::less"* nonnull align 1 dereferenceable(1) %20, i32* nonnull align 4 dereferenceable(4) %21, i32* nonnull align 4 dereferenceable(4) %24), !llfi_index !1483
  br i1 %25, label %26, label %29, !llfi_index !1484

26:                                               ; preds = %17, %2
  %27 = call %"struct.std::_Rb_tree_node_base"* @_ZNKSt8_Rb_treeIiSt4pairIKiiESt10_Select1stIS2_ESt4lessIiESaIS2_EE3endEv(%"class.std::_Rb_tree"* nonnull align 8 dereferenceable(48) %8) #2, !llfi_index !1485
  %28 = getelementptr inbounds %"struct.std::_Rb_tree_iterator", %"struct.std::_Rb_tree_iterator"* %3, i32 0, i32 0, !llfi_index !1486
  store %"struct.std::_Rb_tree_node_base"* %27, %"struct.std::_Rb_tree_node_base"** %28, align 8, !llfi_index !1487
  br label %32, !llfi_index !1488

29:                                               ; preds = %17
  %30 = bitcast %"struct.std::_Rb_tree_iterator"* %3 to i8*, !llfi_index !1489
  %31 = bitcast %"struct.std::_Rb_tree_iterator"* %6 to i8*, !llfi_index !1490
  call void @llvm.memcpy.p0i8.p0i8.i64(i8* align 8 %30, i8* align 8 %31, i64 8, i1 false), !llfi_index !1491
  br label %32, !llfi_index !1492

32:                                               ; preds = %29, %26
  %33 = getelementptr inbounds %"struct.std::_Rb_tree_iterator", %"struct.std::_Rb_tree_iterator"* %3, i32 0, i32 0, !llfi_index !1493
  %34 = load %"struct.std::_Rb_tree_node_base"*, %"struct.std::_Rb_tree_node_base"** %33, align 8, !llfi_index !1494
  ret %"struct.std::_Rb_tree_node_base"* %34, !llfi_index !1495
}

; Function Attrs: mustprogress noinline nounwind uwtable
define linkonce_odr dso_local %"struct.std::_Rb_tree_node_base"* @_ZNKSt8_Rb_treeIiSt4pairIKiiESt10_Select1stIS2_ESt4lessIiESaIS2_EE3endEv(%"class.std::_Rb_tree"* nonnull align 8 dereferenceable(48) %0) #3 comdat align 2 {
  %2 = alloca %"struct.std::_Rb_tree_iterator", align 8, !llfi_index !1496
  %3 = alloca %"class.std::_Rb_tree"*, align 8, !llfi_index !1497
  store %"class.std::_Rb_tree"* %0, %"class.std::_Rb_tree"** %3, align 8, !llfi_index !1498
  %4 = load %"class.std::_Rb_tree"*, %"class.std::_Rb_tree"** %3, align 8, !llfi_index !1499
  %5 = getelementptr inbounds %"class.std::_Rb_tree", %"class.std::_Rb_tree"* %4, i32 0, i32 0, !llfi_index !1500
  %6 = bitcast %"struct.std::_Rb_tree<int, std::pair<const int, int>, std::_Select1st<std::pair<const int, int>>, std::less<int>>::_Rb_tree_impl"* %5 to i8*, !llfi_index !1501
  %7 = getelementptr inbounds i8, i8* %6, i64 8, !llfi_index !1502
  %8 = bitcast i8* %7 to %"struct.std::_Rb_tree_header"*, !llfi_index !1503
  %9 = getelementptr inbounds %"struct.std::_Rb_tree_header", %"struct.std::_Rb_tree_header"* %8, i32 0, i32 0, !llfi_index !1504
  call void @_ZNSt23_Rb_tree_const_iteratorISt4pairIKiiEEC2EPKSt18_Rb_tree_node_base(%"struct.std::_Rb_tree_iterator"* nonnull align 8 dereferenceable(8) %2, %"struct.std::_Rb_tree_node_base"* %9) #2, !llfi_index !1505
  %10 = getelementptr inbounds %"struct.std::_Rb_tree_iterator", %"struct.std::_Rb_tree_iterator"* %2, i32 0, i32 0, !llfi_index !1506
  %11 = load %"struct.std::_Rb_tree_node_base"*, %"struct.std::_Rb_tree_node_base"** %10, align 8, !llfi_index !1507
  ret %"struct.std::_Rb_tree_node_base"* %11, !llfi_index !1508
}

; Function Attrs: mustprogress noinline nounwind uwtable
define linkonce_odr dso_local zeroext i1 @_ZSteqRKSt23_Rb_tree_const_iteratorISt4pairIKiiEES5_(%"struct.std::_Rb_tree_iterator"* nonnull align 8 dereferenceable(8) %0, %"struct.std::_Rb_tree_iterator"* nonnull align 8 dereferenceable(8) %1) #3 comdat {
  %3 = alloca %"struct.std::_Rb_tree_iterator"*, align 8, !llfi_index !1509
  %4 = alloca %"struct.std::_Rb_tree_iterator"*, align 8, !llfi_index !1510
  store %"struct.std::_Rb_tree_iterator"* %0, %"struct.std::_Rb_tree_iterator"** %3, align 8, !llfi_index !1511
  store %"struct.std::_Rb_tree_iterator"* %1, %"struct.std::_Rb_tree_iterator"** %4, align 8, !llfi_index !1512
  %5 = load %"struct.std::_Rb_tree_iterator"*, %"struct.std::_Rb_tree_iterator"** %3, align 8, !llfi_index !1513
  %6 = getelementptr inbounds %"struct.std::_Rb_tree_iterator", %"struct.std::_Rb_tree_iterator"* %5, i32 0, i32 0, !llfi_index !1514
  %7 = load %"struct.std::_Rb_tree_node_base"*, %"struct.std::_Rb_tree_node_base"** %6, align 8, !llfi_index !1515
  %8 = load %"struct.std::_Rb_tree_iterator"*, %"struct.std::_Rb_tree_iterator"** %4, align 8, !llfi_index !1516
  %9 = getelementptr inbounds %"struct.std::_Rb_tree_iterator", %"struct.std::_Rb_tree_iterator"* %8, i32 0, i32 0, !llfi_index !1517
  %10 = load %"struct.std::_Rb_tree_node_base"*, %"struct.std::_Rb_tree_node_base"** %9, align 8, !llfi_index !1518
  %11 = icmp eq %"struct.std::_Rb_tree_node_base"* %7, %10, !llfi_index !1519
  ret i1 %11, !llfi_index !1520
}

; Function Attrs: noinline nounwind uwtable
define linkonce_odr dso_local void @_ZNSt23_Rb_tree_const_iteratorISt4pairIKiiEEC2EPKSt18_Rb_tree_node_base(%"struct.std::_Rb_tree_iterator"* nonnull align 8 dereferenceable(8) %0, %"struct.std::_Rb_tree_node_base"* %1) unnamed_addr #1 comdat align 2 {
  %3 = alloca %"struct.std::_Rb_tree_iterator"*, align 8, !llfi_index !1521
  %4 = alloca %"struct.std::_Rb_tree_node_base"*, align 8, !llfi_index !1522
  store %"struct.std::_Rb_tree_iterator"* %0, %"struct.std::_Rb_tree_iterator"** %3, align 8, !llfi_index !1523
  store %"struct.std::_Rb_tree_node_base"* %1, %"struct.std::_Rb_tree_node_base"** %4, align 8, !llfi_index !1524
  %5 = load %"struct.std::_Rb_tree_iterator"*, %"struct.std::_Rb_tree_iterator"** %3, align 8, !llfi_index !1525
  %6 = getelementptr inbounds %"struct.std::_Rb_tree_iterator", %"struct.std::_Rb_tree_iterator"* %5, i32 0, i32 0, !llfi_index !1526
  %7 = load %"struct.std::_Rb_tree_node_base"*, %"struct.std::_Rb_tree_node_base"** %4, align 8, !llfi_index !1527
  store %"struct.std::_Rb_tree_node_base"* %7, %"struct.std::_Rb_tree_node_base"** %6, align 8, !llfi_index !1528
  ret void, !llfi_index !1529
}

; Function Attrs: mustprogress noinline nounwind uwtable
define linkonce_odr dso_local %"struct.std::_Rb_tree_node"* @_ZNKSt8_Rb_treeIiSt4pairIKiiESt10_Select1stIS2_ESt4lessIiESaIS2_EE8_M_beginEv(%"class.std::_Rb_tree"* nonnull align 8 dereferenceable(48) %0) #3 comdat align 2 {
  %2 = alloca %"class.std::_Rb_tree"*, align 8, !llfi_index !1530
  store %"class.std::_Rb_tree"* %0, %"class.std::_Rb_tree"** %2, align 8, !llfi_index !1531
  %3 = load %"class.std::_Rb_tree"*, %"class.std::_Rb_tree"** %2, align 8, !llfi_index !1532
  %4 = getelementptr inbounds %"class.std::_Rb_tree", %"class.std::_Rb_tree"* %3, i32 0, i32 0, !llfi_index !1533
  %5 = bitcast %"struct.std::_Rb_tree<int, std::pair<const int, int>, std::_Select1st<std::pair<const int, int>>, std::less<int>>::_Rb_tree_impl"* %4 to i8*, !llfi_index !1534
  %6 = getelementptr inbounds i8, i8* %5, i64 8, !llfi_index !1535
  %7 = bitcast i8* %6 to %"struct.std::_Rb_tree_header"*, !llfi_index !1536
  %8 = getelementptr inbounds %"struct.std::_Rb_tree_header", %"struct.std::_Rb_tree_header"* %7, i32 0, i32 0, !llfi_index !1537
  %9 = getelementptr inbounds %"struct.std::_Rb_tree_node_base", %"struct.std::_Rb_tree_node_base"* %8, i32 0, i32 1, !llfi_index !1538
  %10 = load %"struct.std::_Rb_tree_node_base"*, %"struct.std::_Rb_tree_node_base"** %9, align 8, !llfi_index !1539
  %11 = bitcast %"struct.std::_Rb_tree_node_base"* %10 to %"struct.std::_Rb_tree_node"*, !llfi_index !1540
  ret %"struct.std::_Rb_tree_node"* %11, !llfi_index !1541
}

; Function Attrs: mustprogress noinline nounwind uwtable
define linkonce_odr dso_local %"struct.std::_Rb_tree_node_base"* @_ZNKSt8_Rb_treeIiSt4pairIKiiESt10_Select1stIS2_ESt4lessIiESaIS2_EE6_M_endEv(%"class.std::_Rb_tree"* nonnull align 8 dereferenceable(48) %0) #3 comdat align 2 {
  %2 = alloca %"class.std::_Rb_tree"*, align 8, !llfi_index !1542
  store %"class.std::_Rb_tree"* %0, %"class.std::_Rb_tree"** %2, align 8, !llfi_index !1543
  %3 = load %"class.std::_Rb_tree"*, %"class.std::_Rb_tree"** %2, align 8, !llfi_index !1544
  %4 = getelementptr inbounds %"class.std::_Rb_tree", %"class.std::_Rb_tree"* %3, i32 0, i32 0, !llfi_index !1545
  %5 = bitcast %"struct.std::_Rb_tree<int, std::pair<const int, int>, std::_Select1st<std::pair<const int, int>>, std::less<int>>::_Rb_tree_impl"* %4 to i8*, !llfi_index !1546
  %6 = getelementptr inbounds i8, i8* %5, i64 8, !llfi_index !1547
  %7 = bitcast i8* %6 to %"struct.std::_Rb_tree_header"*, !llfi_index !1548
  %8 = getelementptr inbounds %"struct.std::_Rb_tree_header", %"struct.std::_Rb_tree_header"* %7, i32 0, i32 0, !llfi_index !1549
  ret %"struct.std::_Rb_tree_node_base"* %8, !llfi_index !1550
}

; Function Attrs: mustprogress noinline uwtable
define linkonce_odr dso_local %"struct.std::_Rb_tree_node_base"* @_ZNKSt8_Rb_treeIiSt4pairIKiiESt10_Select1stIS2_ESt4lessIiESaIS2_EE14_M_lower_boundEPKSt13_Rb_tree_nodeIS2_EPKSt18_Rb_tree_node_baseRS1_(%"class.std::_Rb_tree"* nonnull align 8 dereferenceable(48) %0, %"struct.std::_Rb_tree_node"* %1, %"struct.std::_Rb_tree_node_base"* %2, i32* nonnull align 4 dereferenceable(4) %3) #4 comdat align 2 {
  %5 = alloca %"struct.std::_Rb_tree_iterator", align 8, !llfi_index !1551
  %6 = alloca %"class.std::_Rb_tree"*, align 8, !llfi_index !1552
  %7 = alloca %"struct.std::_Rb_tree_node"*, align 8, !llfi_index !1553
  %8 = alloca %"struct.std::_Rb_tree_node_base"*, align 8, !llfi_index !1554
  %9 = alloca i32*, align 8, !llfi_index !1555
  store %"class.std::_Rb_tree"* %0, %"class.std::_Rb_tree"** %6, align 8, !llfi_index !1556
  store %"struct.std::_Rb_tree_node"* %1, %"struct.std::_Rb_tree_node"** %7, align 8, !llfi_index !1557
  store %"struct.std::_Rb_tree_node_base"* %2, %"struct.std::_Rb_tree_node_base"** %8, align 8, !llfi_index !1558
  store i32* %3, i32** %9, align 8, !llfi_index !1559
  %10 = load %"class.std::_Rb_tree"*, %"class.std::_Rb_tree"** %6, align 8, !llfi_index !1560
  br label %11, !llfi_index !1561

11:                                               ; preds = %32, %4
  %12 = load %"struct.std::_Rb_tree_node"*, %"struct.std::_Rb_tree_node"** %7, align 8, !llfi_index !1562
  %13 = icmp ne %"struct.std::_Rb_tree_node"* %12, null, !llfi_index !1563
  br i1 %13, label %14, label %33, !llfi_index !1564

14:                                               ; preds = %11
  %15 = getelementptr inbounds %"class.std::_Rb_tree", %"class.std::_Rb_tree"* %10, i32 0, i32 0, !llfi_index !1565
  %16 = bitcast %"struct.std::_Rb_tree<int, std::pair<const int, int>, std::_Select1st<std::pair<const int, int>>, std::less<int>>::_Rb_tree_impl"* %15 to %"struct.std::_Rb_tree_key_compare"*, !llfi_index !1566
  %17 = getelementptr inbounds %"struct.std::_Rb_tree_key_compare", %"struct.std::_Rb_tree_key_compare"* %16, i32 0, i32 0, !llfi_index !1567
  %18 = load %"struct.std::_Rb_tree_node"*, %"struct.std::_Rb_tree_node"** %7, align 8, !llfi_index !1568
  %19 = call nonnull align 4 dereferenceable(4) i32* @_ZNSt8_Rb_treeIiSt4pairIKiiESt10_Select1stIS2_ESt4lessIiESaIS2_EE6_S_keyEPKSt13_Rb_tree_nodeIS2_E(%"struct.std::_Rb_tree_node"* %18), !llfi_index !1569
  %20 = load i32*, i32** %9, align 8, !llfi_index !1570
  %21 = call zeroext i1 @_ZNKSt4lessIiEclERKiS2_(%"struct.std::less"* nonnull align 1 dereferenceable(1) %17, i32* nonnull align 4 dereferenceable(4) %19, i32* nonnull align 4 dereferenceable(4) %20), !llfi_index !1571
  br i1 %21, label %28, label %22, !llfi_index !1572

22:                                               ; preds = %14
  %23 = load %"struct.std::_Rb_tree_node"*, %"struct.std::_Rb_tree_node"** %7, align 8, !llfi_index !1573
  %24 = bitcast %"struct.std::_Rb_tree_node"* %23 to %"struct.std::_Rb_tree_node_base"*, !llfi_index !1574
  store %"struct.std::_Rb_tree_node_base"* %24, %"struct.std::_Rb_tree_node_base"** %8, align 8, !llfi_index !1575
  %25 = load %"struct.std::_Rb_tree_node"*, %"struct.std::_Rb_tree_node"** %7, align 8, !llfi_index !1576
  %26 = bitcast %"struct.std::_Rb_tree_node"* %25 to %"struct.std::_Rb_tree_node_base"*, !llfi_index !1577
  %27 = call %"struct.std::_Rb_tree_node"* @_ZNSt8_Rb_treeIiSt4pairIKiiESt10_Select1stIS2_ESt4lessIiESaIS2_EE7_S_leftEPKSt18_Rb_tree_node_base(%"struct.std::_Rb_tree_node_base"* %26) #2, !llfi_index !1578
  store %"struct.std::_Rb_tree_node"* %27, %"struct.std::_Rb_tree_node"** %7, align 8, !llfi_index !1579
  br label %32, !llfi_index !1580

28:                                               ; preds = %14
  %29 = load %"struct.std::_Rb_tree_node"*, %"struct.std::_Rb_tree_node"** %7, align 8, !llfi_index !1581
  %30 = bitcast %"struct.std::_Rb_tree_node"* %29 to %"struct.std::_Rb_tree_node_base"*, !llfi_index !1582
  %31 = call %"struct.std::_Rb_tree_node"* @_ZNSt8_Rb_treeIiSt4pairIKiiESt10_Select1stIS2_ESt4lessIiESaIS2_EE8_S_rightEPKSt18_Rb_tree_node_base(%"struct.std::_Rb_tree_node_base"* %30) #2, !llfi_index !1583
  store %"struct.std::_Rb_tree_node"* %31, %"struct.std::_Rb_tree_node"** %7, align 8, !llfi_index !1584
  br label %32, !llfi_index !1585

32:                                               ; preds = %28, %22
  br label %11, !llvm.loop !1586, !llfi_index !1587

33:                                               ; preds = %11
  %34 = load %"struct.std::_Rb_tree_node_base"*, %"struct.std::_Rb_tree_node_base"** %8, align 8, !llfi_index !1588
  call void @_ZNSt23_Rb_tree_const_iteratorISt4pairIKiiEEC2EPKSt18_Rb_tree_node_base(%"struct.std::_Rb_tree_iterator"* nonnull align 8 dereferenceable(8) %5, %"struct.std::_Rb_tree_node_base"* %34) #2, !llfi_index !1589
  %35 = getelementptr inbounds %"struct.std::_Rb_tree_iterator", %"struct.std::_Rb_tree_iterator"* %5, i32 0, i32 0, !llfi_index !1590
  %36 = load %"struct.std::_Rb_tree_node_base"*, %"struct.std::_Rb_tree_node_base"** %35, align 8, !llfi_index !1591
  ret %"struct.std::_Rb_tree_node_base"* %36, !llfi_index !1592
}

; Function Attrs: mustprogress noinline nounwind uwtable
define linkonce_odr dso_local %"struct.std::_Rb_tree_node"* @_ZNSt8_Rb_treeIiSt4pairIKiiESt10_Select1stIS2_ESt4lessIiESaIS2_EE7_S_leftEPKSt18_Rb_tree_node_base(%"struct.std::_Rb_tree_node_base"* %0) #3 comdat align 2 {
  %2 = alloca %"struct.std::_Rb_tree_node_base"*, align 8, !llfi_index !1593
  store %"struct.std::_Rb_tree_node_base"* %0, %"struct.std::_Rb_tree_node_base"** %2, align 8, !llfi_index !1594
  %3 = load %"struct.std::_Rb_tree_node_base"*, %"struct.std::_Rb_tree_node_base"** %2, align 8, !llfi_index !1595
  %4 = getelementptr inbounds %"struct.std::_Rb_tree_node_base", %"struct.std::_Rb_tree_node_base"* %3, i32 0, i32 2, !llfi_index !1596
  %5 = load %"struct.std::_Rb_tree_node_base"*, %"struct.std::_Rb_tree_node_base"** %4, align 8, !llfi_index !1597
  %6 = bitcast %"struct.std::_Rb_tree_node_base"* %5 to %"struct.std::_Rb_tree_node"*, !llfi_index !1598
  ret %"struct.std::_Rb_tree_node"* %6, !llfi_index !1599
}

; Function Attrs: mustprogress noinline nounwind uwtable
define linkonce_odr dso_local %"struct.std::_Rb_tree_node"* @_ZNSt8_Rb_treeIiSt4pairIKiiESt10_Select1stIS2_ESt4lessIiESaIS2_EE8_S_rightEPKSt18_Rb_tree_node_base(%"struct.std::_Rb_tree_node_base"* %0) #3 comdat align 2 {
  %2 = alloca %"struct.std::_Rb_tree_node_base"*, align 8, !llfi_index !1600
  store %"struct.std::_Rb_tree_node_base"* %0, %"struct.std::_Rb_tree_node_base"** %2, align 8, !llfi_index !1601
  %3 = load %"struct.std::_Rb_tree_node_base"*, %"struct.std::_Rb_tree_node_base"** %2, align 8, !llfi_index !1602
  %4 = getelementptr inbounds %"struct.std::_Rb_tree_node_base", %"struct.std::_Rb_tree_node_base"* %3, i32 0, i32 3, !llfi_index !1603
  %5 = load %"struct.std::_Rb_tree_node_base"*, %"struct.std::_Rb_tree_node_base"** %4, align 8, !llfi_index !1604
  %6 = bitcast %"struct.std::_Rb_tree_node_base"* %5 to %"struct.std::_Rb_tree_node"*, !llfi_index !1605
  ret %"struct.std::_Rb_tree_node"* %6, !llfi_index !1606
}

; Function Attrs: mustprogress noinline uwtable
define dso_local i32 @_Z15getClosestRighti(i32 %0) #4 {
  %2 = alloca i32, align 4, !llfi_index !1607
  %3 = alloca i32, align 4, !llfi_index !1608
  %4 = alloca i32, align 4, !llfi_index !1609
  %5 = alloca i32, align 4, !llfi_index !1610
  store i32 %0, i32* %3, align 4, !llfi_index !1611
  %6 = load i32, i32* %3, align 4, !llfi_index !1612
  %7 = add nsw i32 %6, 1, !llfi_index !1613
  store i32 %7, i32* %4, align 4, !llfi_index !1614
  %8 = call i64 @_ZNKSt3mapIiiSt4lessIiESaISt4pairIKiiEEE5countERS3_(%"class.std::map"* nonnull align 8 dereferenceable(48) @takenRight, i32* nonnull align 4 dereferenceable(4) %4), !llfi_index !1615
  %9 = icmp ne i64 %8, 0, !llfi_index !1616
  br i1 %9, label %10, label %16, !llfi_index !1617

10:                                               ; preds = %1
  %11 = load i32, i32* %3, align 4, !llfi_index !1618
  %12 = add nsw i32 %11, 1, !llfi_index !1619
  store i32 %12, i32* %5, align 4, !llfi_index !1620
  %13 = call nonnull align 4 dereferenceable(4) i32* @_ZNSt3mapIiiSt4lessIiESaISt4pairIKiiEEEixEOi(%"class.std::map"* nonnull align 8 dereferenceable(48) @takenRight, i32* nonnull align 4 dereferenceable(4) %5), !llfi_index !1621
  %14 = load i32, i32* %13, align 4, !llfi_index !1622
  %15 = add nsw i32 %14, 1, !llfi_index !1623
  store i32 %15, i32* %3, align 4, !llfi_index !1624
  br label %19, !llfi_index !1625

16:                                               ; preds = %1
  %17 = load i32, i32* %3, align 4, !llfi_index !1626
  %18 = add nsw i32 %17, 1, !llfi_index !1627
  store i32 %18, i32* %3, align 4, !llfi_index !1628
  br label %19, !llfi_index !1629

19:                                               ; preds = %16, %10
  %20 = load i32, i32* %3, align 4, !llfi_index !1630
  %21 = load i32, i32* @n, align 4, !llfi_index !1631
  %22 = icmp eq i32 %20, %21, !llfi_index !1632
  br i1 %22, label %23, label %24, !llfi_index !1633

23:                                               ; preds = %19
  store i32 -1, i32* %2, align 4, !llfi_index !1634
  br label %26, !llfi_index !1635

24:                                               ; preds = %19
  %25 = load i32, i32* %3, align 4, !llfi_index !1636
  store i32 %25, i32* %2, align 4, !llfi_index !1637
  br label %26, !llfi_index !1638

26:                                               ; preds = %24, %23
  %27 = load i32, i32* %2, align 4, !llfi_index !1639
  ret i32 %27, !llfi_index !1640
}

; Function Attrs: mustprogress noinline uwtable
define dso_local void @_Z4takeii(i32 %0, i32 %1) #4 {
  %3 = alloca i32, align 4, !llfi_index !1641
  %4 = alloca i32, align 4, !llfi_index !1642
  %5 = alloca i32, align 4, !llfi_index !1643
  %6 = alloca i32, align 4, !llfi_index !1644
  %7 = alloca i32, align 4, !llfi_index !1645
  %8 = alloca i32, align 4, !llfi_index !1646
  %9 = alloca i32, align 4, !llfi_index !1647
  %10 = alloca i32, align 4, !llfi_index !1648
  %11 = alloca i32, align 4, !llfi_index !1649
  %12 = alloca i32, align 4, !llfi_index !1650
  store i32 %0, i32* %3, align 4, !llfi_index !1651
  store i32 %1, i32* %4, align 4, !llfi_index !1652
  %13 = load i32, i32* %3, align 4, !llfi_index !1653
  store i32 %13, i32* %5, align 4, !llfi_index !1654
  %14 = load i32, i32* %4, align 4, !llfi_index !1655
  store i32 %14, i32* %6, align 4, !llfi_index !1656
  %15 = load i32, i32* %3, align 4, !llfi_index !1657
  %16 = sub nsw i32 %15, 1, !llfi_index !1658
  store i32 %16, i32* %7, align 4, !llfi_index !1659
  %17 = call i64 @_ZNKSt3mapIiiSt4lessIiESaISt4pairIKiiEEE5countERS3_(%"class.std::map"* nonnull align 8 dereferenceable(48) @takenLeft, i32* nonnull align 4 dereferenceable(4) %7), !llfi_index !1660
  %18 = icmp ne i64 %17, 0, !llfi_index !1661
  br i1 %18, label %19, label %27, !llfi_index !1662

19:                                               ; preds = %2
  %20 = load i32, i32* %3, align 4, !llfi_index !1663
  %21 = sub nsw i32 %20, 1, !llfi_index !1664
  store i32 %21, i32* %8, align 4, !llfi_index !1665
  %22 = call nonnull align 4 dereferenceable(4) i32* @_ZNSt3mapIiiSt4lessIiESaISt4pairIKiiEEEixEOi(%"class.std::map"* nonnull align 8 dereferenceable(48) @takenLeft, i32* nonnull align 4 dereferenceable(4) %8), !llfi_index !1666
  %23 = load i32, i32* %22, align 4, !llfi_index !1667
  store i32 %23, i32* %5, align 4, !llfi_index !1668
  %24 = load i32, i32* %3, align 4, !llfi_index !1669
  %25 = sub nsw i32 %24, 1, !llfi_index !1670
  store i32 %25, i32* %9, align 4, !llfi_index !1671
  %26 = call i64 @_ZNSt3mapIiiSt4lessIiESaISt4pairIKiiEEE5eraseERS3_(%"class.std::map"* nonnull align 8 dereferenceable(48) @takenLeft, i32* nonnull align 4 dereferenceable(4) %9), !llfi_index !1672
  br label %27, !llfi_index !1673

27:                                               ; preds = %19, %2
  %28 = load i32, i32* %4, align 4, !llfi_index !1674
  %29 = add nsw i32 %28, 1, !llfi_index !1675
  store i32 %29, i32* %10, align 4, !llfi_index !1676
  %30 = call i64 @_ZNKSt3mapIiiSt4lessIiESaISt4pairIKiiEEE5countERS3_(%"class.std::map"* nonnull align 8 dereferenceable(48) @takenRight, i32* nonnull align 4 dereferenceable(4) %10), !llfi_index !1677
  %31 = icmp ne i64 %30, 0, !llfi_index !1678
  br i1 %31, label %32, label %40, !llfi_index !1679

32:                                               ; preds = %27
  %33 = load i32, i32* %4, align 4, !llfi_index !1680
  %34 = add nsw i32 %33, 1, !llfi_index !1681
  store i32 %34, i32* %11, align 4, !llfi_index !1682
  %35 = call nonnull align 4 dereferenceable(4) i32* @_ZNSt3mapIiiSt4lessIiESaISt4pairIKiiEEEixEOi(%"class.std::map"* nonnull align 8 dereferenceable(48) @takenRight, i32* nonnull align 4 dereferenceable(4) %11), !llfi_index !1683
  %36 = load i32, i32* %35, align 4, !llfi_index !1684
  store i32 %36, i32* %6, align 4, !llfi_index !1685
  %37 = load i32, i32* %4, align 4, !llfi_index !1686
  %38 = add nsw i32 %37, 1, !llfi_index !1687
  store i32 %38, i32* %12, align 4, !llfi_index !1688
  %39 = call i64 @_ZNSt3mapIiiSt4lessIiESaISt4pairIKiiEEE5eraseERS3_(%"class.std::map"* nonnull align 8 dereferenceable(48) @takenRight, i32* nonnull align 4 dereferenceable(4) %12), !llfi_index !1689
  br label %40, !llfi_index !1690

40:                                               ; preds = %32, %27
  %41 = load i32, i32* %5, align 4, !llfi_index !1691
  %42 = call nonnull align 4 dereferenceable(4) i32* @_ZNSt3mapIiiSt4lessIiESaISt4pairIKiiEEEixERS3_(%"class.std::map"* nonnull align 8 dereferenceable(48) @takenLeft, i32* nonnull align 4 dereferenceable(4) %6), !llfi_index !1692
  store i32 %41, i32* %42, align 4, !llfi_index !1693
  %43 = load i32, i32* %6, align 4, !llfi_index !1694
  %44 = call nonnull align 4 dereferenceable(4) i32* @_ZNSt3mapIiiSt4lessIiESaISt4pairIKiiEEEixERS3_(%"class.std::map"* nonnull align 8 dereferenceable(48) @takenRight, i32* nonnull align 4 dereferenceable(4) %5), !llfi_index !1695
  store i32 %43, i32* %44, align 4, !llfi_index !1696
  ret void, !llfi_index !1697
}

; Function Attrs: mustprogress noinline uwtable
define linkonce_odr dso_local i64 @_ZNSt3mapIiiSt4lessIiESaISt4pairIKiiEEE5eraseERS3_(%"class.std::map"* nonnull align 8 dereferenceable(48) %0, i32* nonnull align 4 dereferenceable(4) %1) #4 comdat align 2 {
  %3 = alloca %"class.std::map"*, align 8, !llfi_index !1698
  %4 = alloca i32*, align 8, !llfi_index !1699
  store %"class.std::map"* %0, %"class.std::map"** %3, align 8, !llfi_index !1700
  store i32* %1, i32** %4, align 8, !llfi_index !1701
  %5 = load %"class.std::map"*, %"class.std::map"** %3, align 8, !llfi_index !1702
  %6 = getelementptr inbounds %"class.std::map", %"class.std::map"* %5, i32 0, i32 0, !llfi_index !1703
  %7 = load i32*, i32** %4, align 8, !llfi_index !1704
  %8 = call i64 @_ZNSt8_Rb_treeIiSt4pairIKiiESt10_Select1stIS2_ESt4lessIiESaIS2_EE5eraseERS1_(%"class.std::_Rb_tree"* nonnull align 8 dereferenceable(48) %6, i32* nonnull align 4 dereferenceable(4) %7), !llfi_index !1705
  ret i64 %8, !llfi_index !1706
}

; Function Attrs: mustprogress noinline uwtable
define linkonce_odr dso_local nonnull align 4 dereferenceable(4) i32* @_ZNSt3mapIiiSt4lessIiESaISt4pairIKiiEEEixERS3_(%"class.std::map"* nonnull align 8 dereferenceable(48) %0, i32* nonnull align 4 dereferenceable(4) %1) #4 comdat align 2 {
  %3 = alloca %"class.std::map"*, align 8, !llfi_index !1707
  %4 = alloca i32*, align 8, !llfi_index !1708
  %5 = alloca %"struct.std::_Rb_tree_iterator", align 8, !llfi_index !1709
  %6 = alloca %"struct.std::_Rb_tree_iterator", align 8, !llfi_index !1710
  %7 = alloca %"struct.std::less", align 1, !llfi_index !1711
  %8 = alloca %"struct.std::less", align 1, !llfi_index !1712
  %9 = alloca %"struct.std::_Rb_tree_iterator", align 8, !llfi_index !1713
  %10 = alloca %"struct.std::_Rb_tree_iterator", align 8, !llfi_index !1714
  %11 = alloca %"class.std::tuple", align 8, !llfi_index !1715
  %12 = alloca %"struct.std::less", align 1, !llfi_index !1716
  store %"class.std::map"* %0, %"class.std::map"** %3, align 8, !llfi_index !1717
  store i32* %1, i32** %4, align 8, !llfi_index !1718
  %13 = load %"class.std::map"*, %"class.std::map"** %3, align 8, !llfi_index !1719
  %14 = load i32*, i32** %4, align 8, !llfi_index !1720
  %15 = call %"struct.std::_Rb_tree_node_base"* @_ZNSt3mapIiiSt4lessIiESaISt4pairIKiiEEE11lower_boundERS3_(%"class.std::map"* nonnull align 8 dereferenceable(48) %13, i32* nonnull align 4 dereferenceable(4) %14), !llfi_index !1721
  %16 = getelementptr inbounds %"struct.std::_Rb_tree_iterator", %"struct.std::_Rb_tree_iterator"* %5, i32 0, i32 0, !llfi_index !1722
  store %"struct.std::_Rb_tree_node_base"* %15, %"struct.std::_Rb_tree_node_base"** %16, align 8, !llfi_index !1723
  %17 = call %"struct.std::_Rb_tree_node_base"* @_ZNSt3mapIiiSt4lessIiESaISt4pairIKiiEEE3endEv(%"class.std::map"* nonnull align 8 dereferenceable(48) %13) #2, !llfi_index !1724
  %18 = getelementptr inbounds %"struct.std::_Rb_tree_iterator", %"struct.std::_Rb_tree_iterator"* %6, i32 0, i32 0, !llfi_index !1725
  store %"struct.std::_Rb_tree_node_base"* %17, %"struct.std::_Rb_tree_node_base"** %18, align 8, !llfi_index !1726
  %19 = call zeroext i1 @_ZSteqRKSt17_Rb_tree_iteratorISt4pairIKiiEES5_(%"struct.std::_Rb_tree_iterator"* nonnull align 8 dereferenceable(8) %5, %"struct.std::_Rb_tree_iterator"* nonnull align 8 dereferenceable(8) %6) #2, !llfi_index !1727
  br i1 %19, label %25, label %20, !llfi_index !1728

20:                                               ; preds = %2
  call void @_ZNKSt3mapIiiSt4lessIiESaISt4pairIKiiEEE8key_compEv(%"class.std::map"* nonnull align 8 dereferenceable(48) %13), !llfi_index !1729
  %21 = load i32*, i32** %4, align 8, !llfi_index !1730
  %22 = call nonnull align 4 dereferenceable(8) %"struct.std::pair"* @_ZNKSt17_Rb_tree_iteratorISt4pairIKiiEEdeEv(%"struct.std::_Rb_tree_iterator"* nonnull align 8 dereferenceable(8) %5) #2, !llfi_index !1731
  %23 = getelementptr inbounds %"struct.std::pair", %"struct.std::pair"* %22, i32 0, i32 0, !llfi_index !1732
  %24 = call zeroext i1 @_ZNKSt4lessIiEclERKiS2_(%"struct.std::less"* nonnull align 1 dereferenceable(1) %7, i32* nonnull align 4 dereferenceable(4) %21, i32* nonnull align 4 dereferenceable(4) %23), !llfi_index !1733
  br label %25, !llfi_index !1734

25:                                               ; preds = %20, %2
  %26 = phi i1 [ true, %2 ], [ %24, %20 ], !llfi_index !1735
  br i1 %26, label %27, label %36, !llfi_index !1736

27:                                               ; preds = %25
  %28 = getelementptr inbounds %"class.std::map", %"class.std::map"* %13, i32 0, i32 0, !llfi_index !1737
  call void @_ZNSt23_Rb_tree_const_iteratorISt4pairIKiiEEC2ERKSt17_Rb_tree_iteratorIS2_E(%"struct.std::_Rb_tree_iterator"* nonnull align 8 dereferenceable(8) %10, %"struct.std::_Rb_tree_iterator"* nonnull align 8 dereferenceable(8) %5) #2, !llfi_index !1738
  %29 = load i32*, i32** %4, align 8, !llfi_index !1739
  call void @_ZNSt5tupleIJRKiEEC2IvLb1EEES1_(%"class.std::tuple"* nonnull align 8 dereferenceable(8) %11, i32* nonnull align 4 dereferenceable(4) %29), !llfi_index !1740
  %30 = getelementptr inbounds %"struct.std::_Rb_tree_iterator", %"struct.std::_Rb_tree_iterator"* %10, i32 0, i32 0, !llfi_index !1741
  %31 = load %"struct.std::_Rb_tree_node_base"*, %"struct.std::_Rb_tree_node_base"** %30, align 8, !llfi_index !1742
  %32 = call %"struct.std::_Rb_tree_node_base"* @_ZNSt8_Rb_treeIiSt4pairIKiiESt10_Select1stIS2_ESt4lessIiESaIS2_EE22_M_emplace_hint_uniqueIJRKSt21piecewise_construct_tSt5tupleIJRS1_EESD_IJEEEEESt17_Rb_tree_iteratorIS2_ESt23_Rb_tree_const_iteratorIS2_EDpOT_(%"class.std::_Rb_tree"* nonnull align 8 dereferenceable(48) %28, %"struct.std::_Rb_tree_node_base"* %31, %"struct.std::less"* nonnull align 1 dereferenceable(1) @_ZStL19piecewise_construct, %"class.std::tuple"* nonnull align 8 dereferenceable(8) %11, %"struct.std::less"* nonnull align 1 dereferenceable(1) %12), !llfi_index !1743
  %33 = getelementptr inbounds %"struct.std::_Rb_tree_iterator", %"struct.std::_Rb_tree_iterator"* %9, i32 0, i32 0, !llfi_index !1744
  store %"struct.std::_Rb_tree_node_base"* %32, %"struct.std::_Rb_tree_node_base"** %33, align 8, !llfi_index !1745
  %34 = bitcast %"struct.std::_Rb_tree_iterator"* %5 to i8*, !llfi_index !1746
  %35 = bitcast %"struct.std::_Rb_tree_iterator"* %9 to i8*, !llfi_index !1747
  call void @llvm.memcpy.p0i8.p0i8.i64(i8* align 8 %34, i8* align 8 %35, i64 8, i1 false), !llfi_index !1748
  br label %36, !llfi_index !1749

36:                                               ; preds = %27, %25
  %37 = call nonnull align 4 dereferenceable(8) %"struct.std::pair"* @_ZNKSt17_Rb_tree_iteratorISt4pairIKiiEEdeEv(%"struct.std::_Rb_tree_iterator"* nonnull align 8 dereferenceable(8) %5) #2, !llfi_index !1750
  %38 = getelementptr inbounds %"struct.std::pair", %"struct.std::pair"* %37, i32 0, i32 1, !llfi_index !1751
  ret i32* %38, !llfi_index !1752
}

; Function Attrs: noinline uwtable
define linkonce_odr dso_local void @_ZNSt5tupleIJRKiEEC2IvLb1EEES1_(%"class.std::tuple"* nonnull align 8 dereferenceable(8) %0, i32* nonnull align 4 dereferenceable(4) %1) unnamed_addr #0 comdat align 2 {
  %3 = alloca %"class.std::tuple"*, align 8, !llfi_index !1753
  %4 = alloca i32*, align 8, !llfi_index !1754
  store %"class.std::tuple"* %0, %"class.std::tuple"** %3, align 8, !llfi_index !1755
  store i32* %1, i32** %4, align 8, !llfi_index !1756
  %5 = load %"class.std::tuple"*, %"class.std::tuple"** %3, align 8, !llfi_index !1757
  %6 = bitcast %"class.std::tuple"* %5 to %"struct.std::_Tuple_impl"*, !llfi_index !1758
  %7 = load i32*, i32** %4, align 8, !llfi_index !1759
  call void @_ZNSt11_Tuple_implILm0EJRKiEEC2ES1_(%"struct.std::_Tuple_impl"* nonnull align 8 dereferenceable(8) %6, i32* nonnull align 4 dereferenceable(4) %7), !llfi_index !1760
  ret void, !llfi_index !1761
}

; Function Attrs: mustprogress noinline uwtable
define linkonce_odr dso_local %"struct.std::_Rb_tree_node_base"* @_ZNSt8_Rb_treeIiSt4pairIKiiESt10_Select1stIS2_ESt4lessIiESaIS2_EE22_M_emplace_hint_uniqueIJRKSt21piecewise_construct_tSt5tupleIJRS1_EESD_IJEEEEESt17_Rb_tree_iteratorIS2_ESt23_Rb_tree_const_iteratorIS2_EDpOT_(%"class.std::_Rb_tree"* nonnull align 8 dereferenceable(48) %0, %"struct.std::_Rb_tree_node_base"* %1, %"struct.std::less"* nonnull align 1 dereferenceable(1) %2, %"class.std::tuple"* nonnull align 8 dereferenceable(8) %3, %"struct.std::less"* nonnull align 1 dereferenceable(1) %4) #4 comdat align 2 personality i8* bitcast (i32 (...)* @__gxx_personality_v0 to i8*) {
  %6 = alloca %"struct.std::_Rb_tree_iterator", align 8, !llfi_index !1762
  %7 = alloca %"struct.std::_Rb_tree_iterator", align 8, !llfi_index !1763
  %8 = alloca %"class.std::_Rb_tree"*, align 8, !llfi_index !1764
  %9 = alloca %"struct.std::less"*, align 8, !llfi_index !1765
  %10 = alloca %"class.std::tuple"*, align 8, !llfi_index !1766
  %11 = alloca %"struct.std::less"*, align 8, !llfi_index !1767
  %12 = alloca %"struct.std::_Rb_tree_node"*, align 8, !llfi_index !1768
  %13 = alloca %"struct.std::pair.1", align 8, !llfi_index !1769
  %14 = alloca %"struct.std::_Rb_tree_iterator", align 8, !llfi_index !1770
  %15 = alloca i8*, align 8, !llfi_index !1771
  %16 = alloca i32, align 4, !llfi_index !1772
  %17 = getelementptr inbounds %"struct.std::_Rb_tree_iterator", %"struct.std::_Rb_tree_iterator"* %7, i32 0, i32 0, !llfi_index !1773
  store %"struct.std::_Rb_tree_node_base"* %1, %"struct.std::_Rb_tree_node_base"** %17, align 8, !llfi_index !1774
  store %"class.std::_Rb_tree"* %0, %"class.std::_Rb_tree"** %8, align 8, !llfi_index !1775
  store %"struct.std::less"* %2, %"struct.std::less"** %9, align 8, !llfi_index !1776
  store %"class.std::tuple"* %3, %"class.std::tuple"** %10, align 8, !llfi_index !1777
  store %"struct.std::less"* %4, %"struct.std::less"** %11, align 8, !llfi_index !1778
  %18 = load %"class.std::_Rb_tree"*, %"class.std::_Rb_tree"** %8, align 8, !llfi_index !1779
  %19 = load %"struct.std::less"*, %"struct.std::less"** %9, align 8, !llfi_index !1780
  %20 = call nonnull align 1 dereferenceable(1) %"struct.std::less"* @_ZSt7forwardIRKSt21piecewise_construct_tEOT_RNSt16remove_referenceIS3_E4typeE(%"struct.std::less"* nonnull align 1 dereferenceable(1) %19) #2, !llfi_index !1781
  %21 = load %"class.std::tuple"*, %"class.std::tuple"** %10, align 8, !llfi_index !1782
  %22 = call nonnull align 8 dereferenceable(8) %"class.std::tuple"* @_ZSt7forwardISt5tupleIJRKiEEEOT_RNSt16remove_referenceIS4_E4typeE(%"class.std::tuple"* nonnull align 8 dereferenceable(8) %21) #2, !llfi_index !1783
  %23 = load %"struct.std::less"*, %"struct.std::less"** %11, align 8, !llfi_index !1784
  %24 = call nonnull align 1 dereferenceable(1) %"struct.std::less"* @_ZSt7forwardISt5tupleIJEEEOT_RNSt16remove_referenceIS2_E4typeE(%"struct.std::less"* nonnull align 1 dereferenceable(1) %23) #2, !llfi_index !1785
  %25 = call %"struct.std::_Rb_tree_node"* @_ZNSt8_Rb_treeIiSt4pairIKiiESt10_Select1stIS2_ESt4lessIiESaIS2_EE14_M_create_nodeIJRKSt21piecewise_construct_tSt5tupleIJRS1_EESD_IJEEEEEPSt13_Rb_tree_nodeIS2_EDpOT_(%"class.std::_Rb_tree"* nonnull align 8 dereferenceable(48) %18, %"struct.std::less"* nonnull align 1 dereferenceable(1) %20, %"class.std::tuple"* nonnull align 8 dereferenceable(8) %22, %"struct.std::less"* nonnull align 1 dereferenceable(1) %24), !llfi_index !1786
  store %"struct.std::_Rb_tree_node"* %25, %"struct.std::_Rb_tree_node"** %12, align 8, !llfi_index !1787
  %26 = bitcast %"struct.std::_Rb_tree_iterator"* %14 to i8*, !llfi_index !1788
  %27 = bitcast %"struct.std::_Rb_tree_iterator"* %7 to i8*, !llfi_index !1789
  call void @llvm.memcpy.p0i8.p0i8.i64(i8* align 8 %26, i8* align 8 %27, i64 8, i1 false), !llfi_index !1790
  %28 = load %"struct.std::_Rb_tree_node"*, %"struct.std::_Rb_tree_node"** %12, align 8, !llfi_index !1791
  %29 = invoke nonnull align 4 dereferenceable(4) i32* @_ZNSt8_Rb_treeIiSt4pairIKiiESt10_Select1stIS2_ESt4lessIiESaIS2_EE6_S_keyEPKSt13_Rb_tree_nodeIS2_E(%"struct.std::_Rb_tree_node"* %28)
          to label %30 unwind label %52, !llfi_index !1792

30:                                               ; preds = %5
  %31 = getelementptr inbounds %"struct.std::_Rb_tree_iterator", %"struct.std::_Rb_tree_iterator"* %14, i32 0, i32 0, !llfi_index !1793
  %32 = load %"struct.std::_Rb_tree_node_base"*, %"struct.std::_Rb_tree_node_base"** %31, align 8, !llfi_index !1794
  %33 = invoke { %"struct.std::_Rb_tree_node_base"*, %"struct.std::_Rb_tree_node_base"* } @_ZNSt8_Rb_treeIiSt4pairIKiiESt10_Select1stIS2_ESt4lessIiESaIS2_EE29_M_get_insert_hint_unique_posESt23_Rb_tree_const_iteratorIS2_ERS1_(%"class.std::_Rb_tree"* nonnull align 8 dereferenceable(48) %18, %"struct.std::_Rb_tree_node_base"* %32, i32* nonnull align 4 dereferenceable(4) %29)
          to label %34 unwind label %52, !llfi_index !1795

34:                                               ; preds = %30
  %35 = bitcast %"struct.std::pair.1"* %13 to { %"struct.std::_Rb_tree_node_base"*, %"struct.std::_Rb_tree_node_base"* }*, !llfi_index !1796
  %36 = getelementptr inbounds { %"struct.std::_Rb_tree_node_base"*, %"struct.std::_Rb_tree_node_base"* }, { %"struct.std::_Rb_tree_node_base"*, %"struct.std::_Rb_tree_node_base"* }* %35, i32 0, i32 0, !llfi_index !1797
  %37 = extractvalue { %"struct.std::_Rb_tree_node_base"*, %"struct.std::_Rb_tree_node_base"* } %33, 0, !llfi_index !1798
  store %"struct.std::_Rb_tree_node_base"* %37, %"struct.std::_Rb_tree_node_base"** %36, align 8, !llfi_index !1799
  %38 = getelementptr inbounds { %"struct.std::_Rb_tree_node_base"*, %"struct.std::_Rb_tree_node_base"* }, { %"struct.std::_Rb_tree_node_base"*, %"struct.std::_Rb_tree_node_base"* }* %35, i32 0, i32 1, !llfi_index !1800
  %39 = extractvalue { %"struct.std::_Rb_tree_node_base"*, %"struct.std::_Rb_tree_node_base"* } %33, 1, !llfi_index !1801
  store %"struct.std::_Rb_tree_node_base"* %39, %"struct.std::_Rb_tree_node_base"** %38, align 8, !llfi_index !1802
  %40 = getelementptr inbounds %"struct.std::pair.1", %"struct.std::pair.1"* %13, i32 0, i32 1, !llfi_index !1803
  %41 = load %"struct.std::_Rb_tree_node_base"*, %"struct.std::_Rb_tree_node_base"** %40, align 8, !llfi_index !1804
  %42 = icmp ne %"struct.std::_Rb_tree_node_base"* %41, null, !llfi_index !1805
  br i1 %42, label %43, label %60, !llfi_index !1806

43:                                               ; preds = %34
  %44 = getelementptr inbounds %"struct.std::pair.1", %"struct.std::pair.1"* %13, i32 0, i32 0, !llfi_index !1807
  %45 = load %"struct.std::_Rb_tree_node_base"*, %"struct.std::_Rb_tree_node_base"** %44, align 8, !llfi_index !1808
  %46 = getelementptr inbounds %"struct.std::pair.1", %"struct.std::pair.1"* %13, i32 0, i32 1, !llfi_index !1809
  %47 = load %"struct.std::_Rb_tree_node_base"*, %"struct.std::_Rb_tree_node_base"** %46, align 8, !llfi_index !1810
  %48 = load %"struct.std::_Rb_tree_node"*, %"struct.std::_Rb_tree_node"** %12, align 8, !llfi_index !1811
  %49 = invoke %"struct.std::_Rb_tree_node_base"* @_ZNSt8_Rb_treeIiSt4pairIKiiESt10_Select1stIS2_ESt4lessIiESaIS2_EE14_M_insert_nodeEPSt18_Rb_tree_node_baseSA_PSt13_Rb_tree_nodeIS2_E(%"class.std::_Rb_tree"* nonnull align 8 dereferenceable(48) %18, %"struct.std::_Rb_tree_node_base"* %45, %"struct.std::_Rb_tree_node_base"* %47, %"struct.std::_Rb_tree_node"* %48)
          to label %50 unwind label %52, !llfi_index !1812

50:                                               ; preds = %43
  %51 = getelementptr inbounds %"struct.std::_Rb_tree_iterator", %"struct.std::_Rb_tree_iterator"* %6, i32 0, i32 0, !llfi_index !1813
  store %"struct.std::_Rb_tree_node_base"* %49, %"struct.std::_Rb_tree_node_base"** %51, align 8, !llfi_index !1814
  br label %70, !llfi_index !1815

52:                                               ; preds = %43, %30, %5
  %53 = landingpad { i8*, i32 }
          catch i8* null, !llfi_index !1816
  %54 = extractvalue { i8*, i32 } %53, 0, !llfi_index !1817
  store i8* %54, i8** %15, align 8, !llfi_index !1818
  %55 = extractvalue { i8*, i32 } %53, 1, !llfi_index !1819
  store i32 %55, i32* %16, align 4, !llfi_index !1820
  br label %56, !llfi_index !1821

56:                                               ; preds = %52
  %57 = load i8*, i8** %15, align 8, !llfi_index !1822
  %58 = call i8* @__cxa_begin_catch(i8* %57) #2, !llfi_index !1823
  %59 = load %"struct.std::_Rb_tree_node"*, %"struct.std::_Rb_tree_node"** %12, align 8, !llfi_index !1824
  call void @_ZNSt8_Rb_treeIiSt4pairIKiiESt10_Select1stIS2_ESt4lessIiESaIS2_EE12_M_drop_nodeEPSt13_Rb_tree_nodeIS2_E(%"class.std::_Rb_tree"* nonnull align 8 dereferenceable(48) %18, %"struct.std::_Rb_tree_node"* %59) #2, !llfi_index !1825
  invoke void @__cxa_rethrow() #16
          to label %81 unwind label %64, !llfi_index !1826

60:                                               ; preds = %34
  %61 = load %"struct.std::_Rb_tree_node"*, %"struct.std::_Rb_tree_node"** %12, align 8, !llfi_index !1827
  call void @_ZNSt8_Rb_treeIiSt4pairIKiiESt10_Select1stIS2_ESt4lessIiESaIS2_EE12_M_drop_nodeEPSt13_Rb_tree_nodeIS2_E(%"class.std::_Rb_tree"* nonnull align 8 dereferenceable(48) %18, %"struct.std::_Rb_tree_node"* %61) #2, !llfi_index !1828
  %62 = getelementptr inbounds %"struct.std::pair.1", %"struct.std::pair.1"* %13, i32 0, i32 0, !llfi_index !1829
  %63 = load %"struct.std::_Rb_tree_node_base"*, %"struct.std::_Rb_tree_node_base"** %62, align 8, !llfi_index !1830
  call void @_ZNSt17_Rb_tree_iteratorISt4pairIKiiEEC2EPSt18_Rb_tree_node_base(%"struct.std::_Rb_tree_iterator"* nonnull align 8 dereferenceable(8) %6, %"struct.std::_Rb_tree_node_base"* %63) #2, !llfi_index !1831
  br label %70, !llfi_index !1832

64:                                               ; preds = %56
  %65 = landingpad { i8*, i32 }
          cleanup, !llfi_index !1833
  %66 = extractvalue { i8*, i32 } %65, 0, !llfi_index !1834
  store i8* %66, i8** %15, align 8, !llfi_index !1835
  %67 = extractvalue { i8*, i32 } %65, 1, !llfi_index !1836
  store i32 %67, i32* %16, align 4, !llfi_index !1837
  invoke void @__cxa_end_catch()
          to label %68 unwind label %78, !llfi_index !1838

68:                                               ; preds = %64
  br label %73, !llfi_index !1839

69:                                               ; No predecessors!
  call void @llvm.trap(), !llfi_index !1840
  unreachable, !llfi_index !1841

70:                                               ; preds = %60, %50
  %71 = getelementptr inbounds %"struct.std::_Rb_tree_iterator", %"struct.std::_Rb_tree_iterator"* %6, i32 0, i32 0, !llfi_index !1842
  %72 = load %"struct.std::_Rb_tree_node_base"*, %"struct.std::_Rb_tree_node_base"** %71, align 8, !llfi_index !1843
  ret %"struct.std::_Rb_tree_node_base"* %72, !llfi_index !1844

73:                                               ; preds = %68
