; ModuleID = '/home/hjiang/Computation-Kernel-Dataset/experiments/Fault_injection_0308_parall/O0/FactorialArray/FactorialArray.ll'
source_filename = "llvm-link"
target datalayout = "e-m:e-p270:32:32-p271:32:32-p272:64:64-i64:64-f80:128-n8:16:32:64-S128"
target triple = "x86_64-unknown-linux-gnu"

%"class.std::ios_base::Init" = type { i8 }
%struct._IO_FILE = type { i32, i8*, i8*, i8*, i8*, i8*, i8*, i8*, i8*, i8*, i8*, i8*, %struct._IO_marker*, %struct._IO_FILE*, i32, i32, i64, i16, i8, [1 x i8], i8*, i64, %struct._IO_codecvt*, %struct._IO_wide_data*, %struct._IO_FILE*, i8*, i64, i32, [20 x i8] }
%struct._IO_marker = type opaque
%struct._IO_codecvt = type opaque
%struct._IO_wide_data = type opaque
%"class.std::set" = type { %"class.std::_Rb_tree" }
%"class.std::_Rb_tree" = type { %"struct.std::_Rb_tree<int, int, std::_Identity<int>, std::less<int>>::_Rb_tree_impl" }
%"struct.std::_Rb_tree<int, int, std::_Identity<int>, std::less<int>>::_Rb_tree_impl" = type { %"struct.std::_Rb_tree_key_compare", %"struct.std::_Rb_tree_header" }
%"struct.std::_Rb_tree_key_compare" = type { %"class.std::ios_base::Init" }
%"struct.std::_Rb_tree_header" = type { %"struct.std::_Rb_tree_node_base", i64 }
%"struct.std::_Rb_tree_node_base" = type { i32, %"struct.std::_Rb_tree_node_base"*, %"struct.std::_Rb_tree_node_base"*, %"struct.std::_Rb_tree_node_base"* }
%"struct.std::pair" = type <{ %"struct.std::_Rb_tree_const_iterator", i8, [7 x i8] }>
%"struct.std::_Rb_tree_const_iterator" = type { %"struct.std::_Rb_tree_node_base"* }
%"struct.std::_Rb_tree_node" = type <{ %"struct.std::_Rb_tree_node_base", %"struct.__gnu_cxx::__aligned_membuf", [4 x i8] }>
%"struct.__gnu_cxx::__aligned_membuf" = type { [4 x i8] }
%"struct.std::pair.7" = type { %"struct.std::_Rb_tree_const_iterator", %"struct.std::_Rb_tree_const_iterator" }
%"struct.std::pair.4" = type { %"struct.std::_Rb_tree_node_base"*, %"struct.std::_Rb_tree_node_base"* }
%"struct.std::_Rb_tree<int, int, std::_Identity<int>, std::less<int>>::_Alloc_node" = type { %"class.std::_Rb_tree"* }

$_ZNSt3setIiSt4lessIiESaIiEEC2Ev = comdat any

$_ZNSt3setIiSt4lessIiESaIiEE6insertERKi = comdat any

$_ZNSt3setIiSt4lessIiESaIiEED2Ev = comdat any

$_ZNSt3setIiSt4lessIiESaIiEE11lower_boundERKi = comdat any

$_ZNKSt3setIiSt4lessIiESaIiEE3endEv = comdat any

$_ZStneRKSt23_Rb_tree_const_iteratorIiES2_ = comdat any

$_ZNKSt23_Rb_tree_const_iteratorIiEdeEv = comdat any

$_ZNSt23_Rb_tree_const_iteratorIiEppEi = comdat any

$_ZNSt3setIiSt4lessIiESaIiEE5eraseERKi = comdat any

$_ZNSt8_Rb_treeIiiSt9_IdentityIiESt4lessIiESaIiEE5eraseERKi = comdat any

$_ZNSt8_Rb_treeIiiSt9_IdentityIiESt4lessIiESaIiEE11equal_rangeERKi = comdat any

$_ZNKSt8_Rb_treeIiiSt9_IdentityIiESt4lessIiESaIiEE4sizeEv = comdat any

$_ZNSt23_Rb_tree_const_iteratorIiEC2ERKSt17_Rb_tree_iteratorIiE = comdat any

$_ZNSt8_Rb_treeIiiSt9_IdentityIiESt4lessIiESaIiEE12_M_erase_auxESt23_Rb_tree_const_iteratorIiES7_ = comdat any

$_ZNSt8_Rb_treeIiiSt9_IdentityIiESt4lessIiESaIiEE5beginEv = comdat any

$_ZSteqRKSt23_Rb_tree_const_iteratorIiES2_ = comdat any

$_ZNSt8_Rb_treeIiiSt9_IdentityIiESt4lessIiESaIiEE3endEv = comdat any

$_ZNSt8_Rb_treeIiiSt9_IdentityIiESt4lessIiESaIiEE5clearEv = comdat any

$_ZNSt8_Rb_treeIiiSt9_IdentityIiESt4lessIiESaIiEE12_M_erase_auxESt23_Rb_tree_const_iteratorIiE = comdat any

$_ZNSt8_Rb_treeIiiSt9_IdentityIiESt4lessIiESaIiEE12_M_drop_nodeEPSt13_Rb_tree_nodeIiE = comdat any

$_ZNSt8_Rb_treeIiiSt9_IdentityIiESt4lessIiESaIiEE15_M_destroy_nodeEPSt13_Rb_tree_nodeIiE = comdat any

$_ZNSt8_Rb_treeIiiSt9_IdentityIiESt4lessIiESaIiEE11_M_put_nodeEPSt13_Rb_tree_nodeIiE = comdat any

$_ZNSt8_Rb_treeIiiSt9_IdentityIiESt4lessIiESaIiEE21_M_get_Node_allocatorEv = comdat any

$_ZNSt16allocator_traitsISaISt13_Rb_tree_nodeIiEEE10deallocateERS2_PS1_m = comdat any

$__clang_call_terminate = comdat any

$_ZN9__gnu_cxx13new_allocatorISt13_Rb_tree_nodeIiEE10deallocateEPS2_m = comdat any

$_ZNSt13_Rb_tree_nodeIiE9_M_valptrEv = comdat any

$_ZNSt16allocator_traitsISaISt13_Rb_tree_nodeIiEEE7destroyIiEEvRS2_PT_ = comdat any

$_ZN9__gnu_cxx13new_allocatorISt13_Rb_tree_nodeIiEE7destroyIiEEvPT_ = comdat any

$_ZN9__gnu_cxx16__aligned_membufIiE6_M_ptrEv = comdat any

$_ZN9__gnu_cxx16__aligned_membufIiE7_M_addrEv = comdat any

$_ZNSt8_Rb_treeIiiSt9_IdentityIiESt4lessIiESaIiEE8_M_beginEv = comdat any

$_ZNSt8_Rb_treeIiiSt9_IdentityIiESt4lessIiESaIiEE8_M_eraseEPSt13_Rb_tree_nodeIiE = comdat any

$_ZNSt15_Rb_tree_header8_M_resetEv = comdat any

$_ZNSt8_Rb_treeIiiSt9_IdentityIiESt4lessIiESaIiEE8_S_rightEPSt18_Rb_tree_node_base = comdat any

$_ZNSt8_Rb_treeIiiSt9_IdentityIiESt4lessIiESaIiEE7_S_leftEPSt18_Rb_tree_node_base = comdat any

$_ZNSt17_Rb_tree_iteratorIiEC2EPSt18_Rb_tree_node_base = comdat any

$_ZNSt8_Rb_treeIiiSt9_IdentityIiESt4lessIiESaIiEE6_M_endEv = comdat any

$_ZNSt8_Rb_treeIiiSt9_IdentityIiESt4lessIiESaIiEE6_S_keyEPKSt13_Rb_tree_nodeIiE = comdat any

$_ZNKSt4lessIiEclERKiS2_ = comdat any

$_ZNSt8_Rb_treeIiiSt9_IdentityIiESt4lessIiESaIiEE14_M_lower_boundEPSt13_Rb_tree_nodeIiEPSt18_Rb_tree_node_baseRKi = comdat any

$_ZNSt8_Rb_treeIiiSt9_IdentityIiESt4lessIiESaIiEE14_M_upper_boundEPSt13_Rb_tree_nodeIiEPSt18_Rb_tree_node_baseRKi = comdat any

$_ZNSt4pairISt17_Rb_tree_iteratorIiES1_EC2IS1_S1_Lb1EEEOT_OT0_ = comdat any

$_ZSt7forwardISt17_Rb_tree_iteratorIiEEOT_RNSt16remove_referenceIS2_E4typeE = comdat any

$_ZNKSt13_Rb_tree_nodeIiE9_M_valptrEv = comdat any

$_ZNKSt9_IdentityIiEclERKi = comdat any

$_ZNK9__gnu_cxx16__aligned_membufIiE6_M_ptrEv = comdat any

$_ZNK9__gnu_cxx16__aligned_membufIiE7_M_addrEv = comdat any

$_ZNKSt8_Rb_treeIiiSt9_IdentityIiESt4lessIiESaIiEE3endEv = comdat any

$_ZNSt23_Rb_tree_const_iteratorIiEC2EPKSt18_Rb_tree_node_base = comdat any

$_ZNSt8_Rb_treeIiiSt9_IdentityIiESt4lessIiESaIiEE11lower_boundERKi = comdat any

$_ZNSt8_Rb_treeIiiSt9_IdentityIiESt4lessIiESaIiEED2Ev = comdat any

$_ZNSt8_Rb_treeIiiSt9_IdentityIiESt4lessIiESaIiEE13_Rb_tree_implIS3_Lb1EED2Ev = comdat any

$_ZNSaISt13_Rb_tree_nodeIiEED2Ev = comdat any

$_ZN9__gnu_cxx13new_allocatorISt13_Rb_tree_nodeIiEED2Ev = comdat any

$_ZNSt8_Rb_treeIiiSt9_IdentityIiESt4lessIiESaIiEE16_M_insert_uniqueIRKiEESt4pairISt17_Rb_tree_iteratorIiEbEOT_ = comdat any

$_ZNSt4pairISt23_Rb_tree_const_iteratorIiEbEC2IRSt17_Rb_tree_iteratorIiERbLb1EEEOT_OT0_ = comdat any

$_ZSt7forwardIRSt17_Rb_tree_iteratorIiEEOT_RNSt16remove_referenceIS3_E4typeE = comdat any

$_ZSt7forwardIRbEOT_RNSt16remove_referenceIS1_E4typeE = comdat any

$_ZNSt8_Rb_treeIiiSt9_IdentityIiESt4lessIiESaIiEE24_M_get_insert_unique_posERKi = comdat any

$_ZNSt8_Rb_treeIiiSt9_IdentityIiESt4lessIiESaIiEE11_Alloc_nodeC2ERS5_ = comdat any

$_ZSt7forwardIRKiEOT_RNSt16remove_referenceIS2_E4typeE = comdat any

$_ZNSt8_Rb_treeIiiSt9_IdentityIiESt4lessIiESaIiEE10_M_insert_IRKiNS5_11_Alloc_nodeEEESt17_Rb_tree_iteratorIiEPSt18_Rb_tree_node_baseSD_OT_RT0_ = comdat any

$_ZNSt4pairISt17_Rb_tree_iteratorIiEbEC2IS1_bLb1EEEOT_OT0_ = comdat any

$_ZSt7forwardIbEOT_RNSt16remove_referenceIS0_E4typeE = comdat any

$_ZNSt8_Rb_treeIiiSt9_IdentityIiESt4lessIiESaIiEE6_S_keyEPKSt18_Rb_tree_node_base = comdat any

$_ZNKSt8_Rb_treeIiiSt9_IdentityIiESt4lessIiESaIiEE11_Alloc_nodeclIRKiEEPSt13_Rb_tree_nodeIiEOT_ = comdat any

$_ZNSt8_Rb_treeIiiSt9_IdentityIiESt4lessIiESaIiEE14_M_create_nodeIJRKiEEEPSt13_Rb_tree_nodeIiEDpOT_ = comdat any

$_ZNSt8_Rb_treeIiiSt9_IdentityIiESt4lessIiESaIiEE11_M_get_nodeEv = comdat any

$_ZNSt8_Rb_treeIiiSt9_IdentityIiESt4lessIiESaIiEE17_M_construct_nodeIJRKiEEEvPSt13_Rb_tree_nodeIiEDpOT_ = comdat any

$_ZNSt16allocator_traitsISaISt13_Rb_tree_nodeIiEEE9constructIiJRKiEEEvRS2_PT_DpOT0_ = comdat any

$_ZN9__gnu_cxx13new_allocatorISt13_Rb_tree_nodeIiEE9constructIiJRKiEEEvPT_DpOT0_ = comdat any

$_ZNSt16allocator_traitsISaISt13_Rb_tree_nodeIiEEE8allocateERS2_m = comdat any

$_ZN9__gnu_cxx13new_allocatorISt13_Rb_tree_nodeIiEE8allocateEmPKv = comdat any

$_ZNK9__gnu_cxx13new_allocatorISt13_Rb_tree_nodeIiEE8max_sizeEv = comdat any

$_ZSteqRKSt17_Rb_tree_iteratorIiES2_ = comdat any

$_ZNSt4pairIPSt18_Rb_tree_node_baseS1_EC2IRPSt13_Rb_tree_nodeIiERS1_Lb1EEEOT_OT0_ = comdat any

$_ZNSt17_Rb_tree_iteratorIiEmmEv = comdat any

$_ZNSt4pairIPSt18_Rb_tree_node_baseS1_EC2IRS1_Lb1EEEOT_RKS1_ = comdat any

$_ZSt7forwardIRPSt18_Rb_tree_node_baseEOT_RNSt16remove_referenceIS3_E4typeE = comdat any

$_ZSt7forwardIRPSt13_Rb_tree_nodeIiEEOT_RNSt16remove_referenceIS4_E4typeE = comdat any

$_ZNSt8_Rb_treeIiiSt9_IdentityIiESt4lessIiESaIiEEC2Ev = comdat any

$_ZNSt8_Rb_treeIiiSt9_IdentityIiESt4lessIiESaIiEE13_Rb_tree_implIS3_Lb1EEC2Ev = comdat any

$_ZNSaISt13_Rb_tree_nodeIiEEC2Ev = comdat any

$_ZNSt20_Rb_tree_key_compareISt4lessIiEEC2Ev = comdat any

$_ZNSt15_Rb_tree_headerC2Ev = comdat any

$_ZN9__gnu_cxx13new_allocatorISt13_Rb_tree_nodeIiEEC2Ev = comdat any

@llvm.global_ctors = appending global [1 x { i32, void ()*, i8* }] [{ i32, void ()*, i8* } { i32 65535, void ()* @_GLOBAL__sub_I_FactorialArray.cpp, i8* null }]
@_ZStL8__ioinit = internal global %"class.std::ios_base::Init" zeroinitializer, align 1
@_ZN3fwt1tE = dso_local global [100001 x i32] zeroinitializer, align 16
@f = dso_local global [40 x i32] zeroinitializer, align 16
@a = dso_local global [100000 x i32] zeroinitializer, align 16
@.str = private unnamed_addr constant [30 x i8] c"../input_files/FactorialArray\00", align 1
@.str.1 = private unnamed_addr constant [2 x i8] c"r\00", align 1
@stdin = external dso_local global %struct._IO_FILE*, align 8
@.str.2 = private unnamed_addr constant [6 x i8] c"%d %d\00", align 1
@.str.3 = private unnamed_addr constant [3 x i8] c"%d\00", align 1
@.str.4 = private unnamed_addr constant [9 x i8] c"%d %d %d\00", align 1
@.str.5 = private unnamed_addr constant [4 x i8] c"%d\0A\00", align 1

; Function Attrs: noinline uwtable
define internal void @_GLOBAL__sub_I_FactorialArray.cpp() #0 section ".text.startup" {
  call void @__cxx_global_var_init(), !llfi_index !4
  ret void, !llfi_index !5
}

; Function Attrs: noinline uwtable
define internal void @__cxx_global_var_init() #0 section ".text.startup" {
  call void @_ZNSt8ios_base4InitC1Ev(%"class.std::ios_base::Init"* nonnull align 1 dereferenceable(1) @_ZStL8__ioinit), !llfi_index !6
  %1 = call i32 @atexit(void ()* @__dtor__ZStL8__ioinit) #2, !llfi_index !7
  ret void, !llfi_index !8
}

declare dso_local void @_ZNSt8ios_base4InitC1Ev(%"class.std::ios_base::Init"* nonnull align 1 dereferenceable(1)) unnamed_addr #1

; Function Attrs: noinline uwtable
define internal void @__dtor__ZStL8__ioinit() #0 section ".text.startup" {
  call void @_ZNSt8ios_base4InitD1Ev(%"class.std::ios_base::Init"* @_ZStL8__ioinit), !llfi_index !9
  ret void, !llfi_index !10
}

; Function Attrs: nounwind
declare dso_local i32 @atexit(void ()*) #2

; Function Attrs: nounwind
declare dso_local void @_ZNSt8ios_base4InitD1Ev(%"class.std::ios_base::Init"* nonnull align 1 dereferenceable(1)) unnamed_addr #3

; Function Attrs: mustprogress noinline nounwind uwtable
define dso_local void @_ZN3fwt3addEii(i32 %0, i32 %1) #4 {
  %3 = alloca i32, align 4, !llfi_index !11
  %4 = alloca i32, align 4, !llfi_index !12
  store i32 %0, i32* %3, align 4, !llfi_index !13
  store i32 %1, i32* %4, align 4, !llfi_index !14
  %5 = load i32, i32* %3, align 4, !llfi_index !15
  %6 = add nsw i32 %5, 1, !llfi_index !16
  store i32 %6, i32* %3, align 4, !llfi_index !17
  br label %7, !llfi_index !18

7:                                                ; preds = %10, %2
  %8 = load i32, i32* %3, align 4, !llfi_index !19
  %9 = icmp sle i32 %8, 100000, !llfi_index !20
  br i1 %9, label %10, label %28, !llfi_index !21

10:                                               ; preds = %7
  %11 = load i32, i32* %4, align 4, !llfi_index !22
  %12 = load i32, i32* %3, align 4, !llfi_index !23
  %13 = sext i32 %12 to i64, !llfi_index !24
  %14 = getelementptr inbounds [100001 x i32], [100001 x i32]* @_ZN3fwt1tE, i64 0, i64 %13, !llfi_index !25
  %15 = load i32, i32* %14, align 4, !llfi_index !26
  %16 = add nsw i32 %15, %11, !llfi_index !27
  store i32 %16, i32* %14, align 4, !llfi_index !28
  %17 = load i32, i32* %3, align 4, !llfi_index !29
  %18 = sext i32 %17 to i64, !llfi_index !30
  %19 = getelementptr inbounds [100001 x i32], [100001 x i32]* @_ZN3fwt1tE, i64 0, i64 %18, !llfi_index !31
  %20 = load i32, i32* %19, align 4, !llfi_index !32
  %21 = srem i32 %20, 1000000000, !llfi_index !33
  store i32 %21, i32* %19, align 4, !llfi_index !34
  %22 = load i32, i32* %3, align 4, !llfi_index !35
  %23 = load i32, i32* %3, align 4, !llfi_index !36
  %24 = sub nsw i32 0, %23, !llfi_index !37
  %25 = and i32 %22, %24, !llfi_index !38
  %26 = load i32, i32* %3, align 4, !llfi_index !39
  %27 = add nsw i32 %26, %25, !llfi_index !40
  store i32 %27, i32* %3, align 4, !llfi_index !41
  br label %7, !llvm.loop !42, !llfi_index !44

28:                                               ; preds = %7
  ret void, !llfi_index !45
}

; Function Attrs: mustprogress noinline nounwind uwtable
define dso_local i32 @_ZN3fwt3getEi(i32 %0) #4 {
  %2 = alloca i32, align 4, !llfi_index !46
  %3 = alloca i32, align 4, !llfi_index !47
  store i32 %0, i32* %2, align 4, !llfi_index !48
  %4 = load i32, i32* %2, align 4, !llfi_index !49
  %5 = add nsw i32 %4, 1, !llfi_index !50
  store i32 %5, i32* %2, align 4, !llfi_index !51
  store i32 0, i32* %3, align 4, !llfi_index !52
  br label %6, !llfi_index !53

6:                                                ; preds = %9, %1
  %7 = load i32, i32* %2, align 4, !llfi_index !54
  %8 = icmp ne i32 %7, 0, !llfi_index !55
  br i1 %8, label %9, label %24, !llfi_index !56

9:                                                ; preds = %6
  %10 = load i32, i32* %2, align 4, !llfi_index !57
  %11 = sext i32 %10 to i64, !llfi_index !58
  %12 = getelementptr inbounds [100001 x i32], [100001 x i32]* @_ZN3fwt1tE, i64 0, i64 %11, !llfi_index !59
  %13 = load i32, i32* %12, align 4, !llfi_index !60
  %14 = load i32, i32* %3, align 4, !llfi_index !61
  %15 = add nsw i32 %14, %13, !llfi_index !62
  store i32 %15, i32* %3, align 4, !llfi_index !63
  %16 = load i32, i32* %3, align 4, !llfi_index !64
  %17 = srem i32 %16, 1000000000, !llfi_index !65
  store i32 %17, i32* %3, align 4, !llfi_index !66
  %18 = load i32, i32* %2, align 4, !llfi_index !67
  %19 = load i32, i32* %2, align 4, !llfi_index !68
  %20 = sub nsw i32 0, %19, !llfi_index !69
  %21 = and i32 %18, %20, !llfi_index !70
  %22 = load i32, i32* %2, align 4, !llfi_index !71
  %23 = sub nsw i32 %22, %21, !llfi_index !72
  store i32 %23, i32* %2, align 4, !llfi_index !73
  br label %6, !llvm.loop !74, !llfi_index !75

24:                                               ; preds = %6
  %25 = load i32, i32* %3, align 4, !llfi_index !76
  ret i32 %25, !llfi_index !77
}

; Function Attrs: mustprogress noinline norecurse uwtable
define dso_local i32 @main() #5 personality i8* bitcast (i32 (...)* @__gxx_personality_v0 to i8*) {
  %1 = alloca i32, align 4, !llfi_index !78
  %2 = alloca i32, align 4, !llfi_index !79
  %3 = alloca i32, align 4, !llfi_index !80
  %4 = alloca i32, align 4, !llfi_index !81
  %5 = alloca i32, align 4, !llfi_index !82
  %6 = alloca %"class.std::set", align 8, !llfi_index !83
  %7 = alloca i32, align 4, !llfi_index !84
  %8 = alloca i8*, align 8, !llfi_index !85
  %9 = alloca i32, align 4, !llfi_index !86
  %10 = alloca %"struct.std::pair", align 8, !llfi_index !87
  %11 = alloca i32, align 4, !llfi_index !88
  %12 = alloca i32, align 4, !llfi_index !89
  %13 = alloca i32, align 4, !llfi_index !90
  %14 = alloca %"struct.std::_Rb_tree_const_iterator", align 8, !llfi_index !91
  %15 = alloca %"struct.std::_Rb_tree_const_iterator", align 8, !llfi_index !92
  %16 = alloca i32, align 4, !llfi_index !93
  %17 = alloca %"struct.std::_Rb_tree_const_iterator", align 8, !llfi_index !94
  %18 = alloca %"struct.std::pair", align 8, !llfi_index !95
  store i32 0, i32* %1, align 4, !llfi_index !96
  %19 = load %struct._IO_FILE*, %struct._IO_FILE** @stdin, align 8, !llfi_index !97
  %20 = call %struct._IO_FILE* @freopen(i8* getelementptr inbounds ([30 x i8], [30 x i8]* @.str, i64 0, i64 0), i8* getelementptr inbounds ([2 x i8], [2 x i8]* @.str.1, i64 0, i64 0), %struct._IO_FILE* %19), !llfi_index !98
  store i32 1, i32* getelementptr inbounds ([40 x i32], [40 x i32]* @f, i64 0, i64 0), align 16, !llfi_index !99
  store i32 89, i32* %2, align 4, !llfi_index !100
  store i32 1, i32* %3, align 4, !llfi_index !101
  br label %21, !llfi_index !102

21:                                               ; preds = %40, %0
  %22 = load i32, i32* %3, align 4, !llfi_index !103
  %23 = icmp slt i32 %22, 40, !llfi_index !104
  br i1 %23, label %24, label %43, !llfi_index !105

24:                                               ; preds = %21
  %25 = load i32, i32* %3, align 4, !llfi_index !106
  %26 = sub nsw i32 %25, 1, !llfi_index !107
  %27 = sext i32 %26 to i64, !llfi_index !108
  %28 = getelementptr inbounds [40 x i32], [40 x i32]* @f, i64 0, i64 %27, !llfi_index !109
  %29 = load i32, i32* %28, align 4, !llfi_index !110
  %30 = sext i32 %29 to i64, !llfi_index !111
  %31 = mul nsw i64 %30, 1, !llfi_index !112
  %32 = load i32, i32* %3, align 4, !llfi_index !113
  %33 = sext i32 %32 to i64, !llfi_index !114
  %34 = mul nsw i64 %31, %33, !llfi_index !115
  %35 = srem i64 %34, 1000000000, !llfi_index !116
  %36 = trunc i64 %35 to i32, !llfi_index !117
  %37 = load i32, i32* %3, align 4, !llfi_index !118
  %38 = sext i32 %37 to i64, !llfi_index !119
  %39 = getelementptr inbounds [40 x i32], [40 x i32]* @f, i64 0, i64 %38, !llfi_index !120
  store i32 %36, i32* %39, align 4, !llfi_index !121
  br label %40, !llfi_index !122

40:                                               ; preds = %24
  %41 = load i32, i32* %3, align 4, !llfi_index !123
  %42 = add nsw i32 %41, 1, !llfi_index !124
  store i32 %42, i32* %3, align 4, !llfi_index !125
  br label %21, !llvm.loop !126, !llfi_index !127

43:                                               ; preds = %21
  %44 = call i32 (i8*, ...) @__isoc99_scanf(i8* getelementptr inbounds ([6 x i8], [6 x i8]* @.str.2, i64 0, i64 0), i32* %4, i32* %5), !llfi_index !128
  call void @_ZNSt3setIiSt4lessIiESaIiEEC2Ev(%"class.std::set"* nonnull align 8 dereferenceable(48) %6) #2, !llfi_index !129
  store i32 89, i32* %2, align 4, !llfi_index !130
  store i32 0, i32* %7, align 4, !llfi_index !131
  br label %45, !llfi_index !132

45:                                               ; preds = %81, %43
  %46 = load i32, i32* %7, align 4, !llfi_index !133
  %47 = load i32, i32* %4, align 4, !llfi_index !134
  %48 = icmp slt i32 %46, %47, !llfi_index !135
  br i1 %48, label %49, label %84, !llfi_index !136

49:                                               ; preds = %45
  %50 = load i32, i32* %7, align 4, !llfi_index !137
  %51 = sext i32 %50 to i64, !llfi_index !138
  %52 = getelementptr inbounds i32, i32* getelementptr inbounds ([100000 x i32], [100000 x i32]* @a, i64 0, i64 0), i64 %51, !llfi_index !139
  %53 = invoke i32 (i8*, ...) @__isoc99_scanf(i8* getelementptr inbounds ([3 x i8], [3 x i8]* @.str.3, i64 0, i64 0), i32* %52)
          to label %54 unwind label %76, !llfi_index !140

54:                                               ; preds = %49
  %55 = load i32, i32* %7, align 4, !llfi_index !141
  %56 = sext i32 %55 to i64, !llfi_index !142
  %57 = getelementptr inbounds [100000 x i32], [100000 x i32]* @a, i64 0, i64 %56, !llfi_index !143
  %58 = load i32, i32* %57, align 4, !llfi_index !144
  %59 = icmp slt i32 %58, 40, !llfi_index !145
  br i1 %59, label %60, label %80, !llfi_index !146

60:                                               ; preds = %54
  %61 = load i32, i32* %7, align 4, !llfi_index !147
  %62 = load i32, i32* %7, align 4, !llfi_index !148
  %63 = sext i32 %62 to i64, !llfi_index !149
  %64 = getelementptr inbounds [100000 x i32], [100000 x i32]* @a, i64 0, i64 %63, !llfi_index !150
  %65 = load i32, i32* %64, align 4, !llfi_index !151
  %66 = sext i32 %65 to i64, !llfi_index !152
  %67 = getelementptr inbounds [40 x i32], [40 x i32]* @f, i64 0, i64 %66, !llfi_index !153
  %68 = load i32, i32* %67, align 4, !llfi_index !154
  call void @_ZN3fwt3addEii(i32 %61, i32 %68), !llfi_index !155
  %69 = invoke { %"struct.std::_Rb_tree_node_base"*, i8 } @_ZNSt3setIiSt4lessIiESaIiEE6insertERKi(%"class.std::set"* nonnull align 8 dereferenceable(48) %6, i32* nonnull align 4 dereferenceable(4) %7)
          to label %70 unwind label %76, !llfi_index !156

70:                                               ; preds = %60
  %71 = bitcast %"struct.std::pair"* %10 to { %"struct.std::_Rb_tree_node_base"*, i8 }*, !llfi_index !157
  %72 = getelementptr inbounds { %"struct.std::_Rb_tree_node_base"*, i8 }, { %"struct.std::_Rb_tree_node_base"*, i8 }* %71, i32 0, i32 0, !llfi_index !158
  %73 = extractvalue { %"struct.std::_Rb_tree_node_base"*, i8 } %69, 0, !llfi_index !159
  store %"struct.std::_Rb_tree_node_base"* %73, %"struct.std::_Rb_tree_node_base"** %72, align 8, !llfi_index !160
  %74 = getelementptr inbounds { %"struct.std::_Rb_tree_node_base"*, i8 }, { %"struct.std::_Rb_tree_node_base"*, i8 }* %71, i32 0, i32 1, !llfi_index !161
  %75 = extractvalue { %"struct.std::_Rb_tree_node_base"*, i8 } %69, 1, !llfi_index !162
  store i8 %75, i8* %74, align 8, !llfi_index !163
  br label %80, !llfi_index !164

76:                                               ; preds = %192, %173, %154, %146, %98, %89, %60, %49
  %77 = landingpad { i8*, i32 }
          cleanup, !llfi_index !165
  %78 = extractvalue { i8*, i32 } %77, 0, !llfi_index !166
  store i8* %78, i8** %8, align 8, !llfi_index !167
  %79 = extractvalue { i8*, i32 } %77, 1, !llfi_index !168
  store i32 %79, i32* %9, align 4, !llfi_index !169
  call void @_ZNSt3setIiSt4lessIiESaIiEED2Ev(%"class.std::set"* nonnull align 8 dereferenceable(48) %6) #2, !llfi_index !170
  br label %210, !llfi_index !171

80:                                               ; preds = %70, %54
  br label %81, !llfi_index !172

81:                                               ; preds = %80
  %82 = load i32, i32* %7, align 4, !llfi_index !173
  %83 = add nsw i32 %82, 1, !llfi_index !174
  store i32 %83, i32* %7, align 4, !llfi_index !175
  br label %45, !llvm.loop !176, !llfi_index !177

84:                                               ; preds = %45
  store i32 89, i32* %2, align 4, !llfi_index !178
  br label %85, !llfi_index !179

85:                                               ; preds = %207, %84
  %86 = load i32, i32* %5, align 4, !llfi_index !180
  %87 = add nsw i32 %86, -1, !llfi_index !181
  store i32 %87, i32* %5, align 4, !llfi_index !182
  %88 = icmp ne i32 %86, 0, !llfi_index !183
  br i1 %88, label %89, label %208, !llfi_index !184

89:                                               ; preds = %85
  %90 = invoke i32 (i8*, ...) @__isoc99_scanf(i8* getelementptr inbounds ([9 x i8], [9 x i8]* @.str.4, i64 0, i64 0), i32* %11, i32* %12, i32* %13)
          to label %91 unwind label %76, !llfi_index !185

91:                                               ; preds = %89
  %92 = load i32, i32* %12, align 4, !llfi_index !186
  %93 = add nsw i32 %92, -1, !llfi_index !187
  store i32 %93, i32* %12, align 4, !llfi_index !188
  %94 = load i32, i32* %13, align 4, !llfi_index !189
  %95 = add nsw i32 %94, -1, !llfi_index !190
  store i32 %95, i32* %13, align 4, !llfi_index !191
  %96 = load i32, i32* %11, align 4, !llfi_index !192
  %97 = icmp eq i32 %96, 1, !llfi_index !193
  br i1 %97, label %98, label %151, !llfi_index !194

98:                                               ; preds = %91
  %99 = invoke %"struct.std::_Rb_tree_node_base"* @_ZNSt3setIiSt4lessIiESaIiEE11lower_boundERKi(%"class.std::set"* nonnull align 8 dereferenceable(48) %6, i32* nonnull align 4 dereferenceable(4) %12)
          to label %100 unwind label %76, !llfi_index !195

100:                                              ; preds = %98
  %101 = getelementptr inbounds %"struct.std::_Rb_tree_const_iterator", %"struct.std::_Rb_tree_const_iterator"* %14, i32 0, i32 0, !llfi_index !196
  store %"struct.std::_Rb_tree_node_base"* %99, %"struct.std::_Rb_tree_node_base"** %101, align 8, !llfi_index !197
  br label %102, !llfi_index !198

102:                                              ; preds = %149, %100
  %103 = call %"struct.std::_Rb_tree_node_base"* @_ZNKSt3setIiSt4lessIiESaIiEE3endEv(%"class.std::set"* nonnull align 8 dereferenceable(48) %6) #2, !llfi_index !199
  %104 = getelementptr inbounds %"struct.std::_Rb_tree_const_iterator", %"struct.std::_Rb_tree_const_iterator"* %15, i32 0, i32 0, !llfi_index !200
  store %"struct.std::_Rb_tree_node_base"* %103, %"struct.std::_Rb_tree_node_base"** %104, align 8, !llfi_index !201
  %105 = call zeroext i1 @_ZStneRKSt23_Rb_tree_const_iteratorIiES2_(%"struct.std::_Rb_tree_const_iterator"* nonnull align 8 dereferenceable(8) %14, %"struct.std::_Rb_tree_const_iterator"* nonnull align 8 dereferenceable(8) %15) #2, !llfi_index !202
  br i1 %105, label %106, label %111, !llfi_index !203

106:                                              ; preds = %102
  %107 = call nonnull align 4 dereferenceable(4) i32* @_ZNKSt23_Rb_tree_const_iteratorIiEdeEv(%"struct.std::_Rb_tree_const_iterator"* nonnull align 8 dereferenceable(8) %14) #2, !llfi_index !204
  %108 = load i32, i32* %107, align 4, !llfi_index !205
  %109 = load i32, i32* %13, align 4, !llfi_index !206
  %110 = icmp sle i32 %108, %109, !llfi_index !207
  br label %111, !llfi_index !208

111:                                              ; preds = %106, %102
  %112 = phi i1 [ false, %102 ], [ %110, %106 ], !llfi_index !209
  br i1 %112, label %113, label %150, !llfi_index !210

113:                                              ; preds = %111
  %114 = call %"struct.std::_Rb_tree_node_base"* @_ZNSt23_Rb_tree_const_iteratorIiEppEi(%"struct.std::_Rb_tree_const_iterator"* nonnull align 8 dereferenceable(8) %14, i32 0) #2, !llfi_index !211
  %115 = getelementptr inbounds %"struct.std::_Rb_tree_const_iterator", %"struct.std::_Rb_tree_const_iterator"* %17, i32 0, i32 0, !llfi_index !212
  store %"struct.std::_Rb_tree_node_base"* %114, %"struct.std::_Rb_tree_node_base"** %115, align 8, !llfi_index !213
  %116 = call nonnull align 4 dereferenceable(4) i32* @_ZNKSt23_Rb_tree_const_iteratorIiEdeEv(%"struct.std::_Rb_tree_const_iterator"* nonnull align 8 dereferenceable(8) %17) #2, !llfi_index !214
  %117 = load i32, i32* %116, align 4, !llfi_index !215
  store i32 %117, i32* %16, align 4, !llfi_index !216
  %118 = load i32, i32* %16, align 4, !llfi_index !217
  %119 = load i32, i32* %16, align 4, !llfi_index !218
  %120 = sext i32 %119 to i64, !llfi_index !219
  %121 = getelementptr inbounds [100000 x i32], [100000 x i32]* @a, i64 0, i64 %120, !llfi_index !220
  %122 = load i32, i32* %121, align 4, !llfi_index !221
  %123 = sext i32 %122 to i64, !llfi_index !222
  %124 = getelementptr inbounds [40 x i32], [40 x i32]* @f, i64 0, i64 %123, !llfi_index !223
  %125 = load i32, i32* %124, align 4, !llfi_index !224
  %126 = sub nsw i32 1000000000, %125, !llfi_index !225
  call void @_ZN3fwt3addEii(i32 %118, i32 %126), !llfi_index !226
  %127 = load i32, i32* %16, align 4, !llfi_index !227
  %128 = sext i32 %127 to i64, !llfi_index !228
  %129 = getelementptr inbounds [100000 x i32], [100000 x i32]* @a, i64 0, i64 %128, !llfi_index !229
  %130 = load i32, i32* %129, align 4, !llfi_index !230
  %131 = add nsw i32 %130, 1, !llfi_index !231
  store i32 %131, i32* %129, align 4, !llfi_index !232
  %132 = load i32, i32* %16, align 4, !llfi_index !233
  %133 = sext i32 %132 to i64, !llfi_index !234
  %134 = getelementptr inbounds [100000 x i32], [100000 x i32]* @a, i64 0, i64 %133, !llfi_index !235
  %135 = load i32, i32* %134, align 4, !llfi_index !236
  %136 = icmp slt i32 %135, 40, !llfi_index !237
  br i1 %136, label %137, label %146, !llfi_index !238

137:                                              ; preds = %113
  %138 = load i32, i32* %16, align 4, !llfi_index !239
  %139 = load i32, i32* %16, align 4, !llfi_index !240
  %140 = sext i32 %139 to i64, !llfi_index !241
  %141 = getelementptr inbounds [100000 x i32], [100000 x i32]* @a, i64 0, i64 %140, !llfi_index !242
  %142 = load i32, i32* %141, align 4, !llfi_index !243
  %143 = sext i32 %142 to i64, !llfi_index !244
  %144 = getelementptr inbounds [40 x i32], [40 x i32]* @f, i64 0, i64 %143, !llfi_index !245
  %145 = load i32, i32* %144, align 4, !llfi_index !246
  call void @_ZN3fwt3addEii(i32 %138, i32 %145), !llfi_index !247
  br label %149, !llfi_index !248

146:                                              ; preds = %113
  %147 = invoke i64 @_ZNSt3setIiSt4lessIiESaIiEE5eraseERKi(%"class.std::set"* nonnull align 8 dereferenceable(48) %6, i32* nonnull align 4 dereferenceable(4) %16)
          to label %148 unwind label %76, !llfi_index !249

148:                                              ; preds = %146
  br label %149, !llfi_index !250

149:                                              ; preds = %148, %137
  br label %102, !llvm.loop !251, !llfi_index !252

150:                                              ; preds = %111
  br label %207, !llfi_index !253

151:                                              ; preds = %91
  %152 = load i32, i32* %11, align 4, !llfi_index !254
  %153 = icmp eq i32 %152, 2, !llfi_index !255
  br i1 %153, label %154, label %165, !llfi_index !256

154:                                              ; preds = %151
  %155 = load i32, i32* %13, align 4, !llfi_index !257
  %156 = call i32 @_ZN3fwt3getEi(i32 %155), !llfi_index !258
  %157 = load i32, i32* %12, align 4, !llfi_index !259
  %158 = sub nsw i32 %157, 1, !llfi_index !260
  %159 = call i32 @_ZN3fwt3getEi(i32 %158), !llfi_index !261
  %160 = sub nsw i32 %156, %159, !llfi_index !262
  %161 = add nsw i32 %160, 1000000000, !llfi_index !263
  %162 = srem i32 %161, 1000000000, !llfi_index !264
  %163 = invoke i32 (i8*, ...) @printf(i8* getelementptr inbounds ([4 x i8], [4 x i8]* @.str.5, i64 0, i64 0), i32 %162)
          to label %164 unwind label %76, !llfi_index !265

164:                                              ; preds = %154
  br label %206, !llfi_index !266

165:                                              ; preds = %151
  %166 = load i32, i32* %13, align 4, !llfi_index !267
  %167 = add nsw i32 %166, 1, !llfi_index !268
  store i32 %167, i32* %13, align 4, !llfi_index !269
  %168 = load i32, i32* %12, align 4, !llfi_index !270
  %169 = sext i32 %168 to i64, !llfi_index !271
  %170 = getelementptr inbounds [100000 x i32], [100000 x i32]* @a, i64 0, i64 %169, !llfi_index !272
  %171 = load i32, i32* %170, align 4, !llfi_index !273
  %172 = icmp slt i32 %171, 40, !llfi_index !274
  br i1 %172, label %173, label %185, !llfi_index !275

173:                                              ; preds = %165
  %174 = load i32, i32* %12, align 4, !llfi_index !276
  %175 = load i32, i32* %12, align 4, !llfi_index !277
  %176 = sext i32 %175 to i64, !llfi_index !278
  %177 = getelementptr inbounds [100000 x i32], [100000 x i32]* @a, i64 0, i64 %176, !llfi_index !279
  %178 = load i32, i32* %177, align 4, !llfi_index !280
  %179 = sext i32 %178 to i64, !llfi_index !281
  %180 = getelementptr inbounds [40 x i32], [40 x i32]* @f, i64 0, i64 %179, !llfi_index !282
  %181 = load i32, i32* %180, align 4, !llfi_index !283
  %182 = sub nsw i32 1000000000, %181, !llfi_index !284
  call void @_ZN3fwt3addEii(i32 %174, i32 %182), !llfi_index !285
  %183 = invoke i64 @_ZNSt3setIiSt4lessIiESaIiEE5eraseERKi(%"class.std::set"* nonnull align 8 dereferenceable(48) %6, i32* nonnull align 4 dereferenceable(4) %12)
          to label %184 unwind label %76, !llfi_index !286

184:                                              ; preds = %173
  br label %185, !llfi_index !287

185:                                              ; preds = %184, %165
  %186 = load i32, i32* %13, align 4, !llfi_index !288
  %187 = load i32, i32* %12, align 4, !llfi_index !289
  %188 = sext i32 %187 to i64, !llfi_index !290
  %189 = getelementptr inbounds [100000 x i32], [100000 x i32]* @a, i64 0, i64 %188, !llfi_index !291
  store i32 %186, i32* %189, align 4, !llfi_index !292
  %190 = load i32, i32* %13, align 4, !llfi_index !293
  %191 = icmp slt i32 %190, 40, !llfi_index !294
  br i1 %191, label %192, label %205, !llfi_index !295

192:                                              ; preds = %185
  %193 = load i32, i32* %12, align 4, !llfi_index !296
  %194 = load i32, i32* %13, align 4, !llfi_index !297
  %195 = sext i32 %194 to i64, !llfi_index !298
  %196 = getelementptr inbounds [40 x i32], [40 x i32]* @f, i64 0, i64 %195, !llfi_index !299
  %197 = load i32, i32* %196, align 4, !llfi_index !300
  call void @_ZN3fwt3addEii(i32 %193, i32 %197), !llfi_index !301
  %198 = invoke { %"struct.std::_Rb_tree_node_base"*, i8 } @_ZNSt3setIiSt4lessIiESaIiEE6insertERKi(%"class.std::set"* nonnull align 8 dereferenceable(48) %6, i32* nonnull align 4 dereferenceable(4) %12)
          to label %199 unwind label %76, !llfi_index !302

199:                                              ; preds = %192
  %200 = bitcast %"struct.std::pair"* %18 to { %"struct.std::_Rb_tree_node_base"*, i8 }*, !llfi_index !303
  %201 = getelementptr inbounds { %"struct.std::_Rb_tree_node_base"*, i8 }, { %"struct.std::_Rb_tree_node_base"*, i8 }* %200, i32 0, i32 0, !llfi_index !304
  %202 = extractvalue { %"struct.std::_Rb_tree_node_base"*, i8 } %198, 0, !llfi_index !305
  store %"struct.std::_Rb_tree_node_base"* %202, %"struct.std::_Rb_tree_node_base"** %201, align 8, !llfi_index !306
  %203 = getelementptr inbounds { %"struct.std::_Rb_tree_node_base"*, i8 }, { %"struct.std::_Rb_tree_node_base"*, i8 }* %200, i32 0, i32 1, !llfi_index !307
  %204 = extractvalue { %"struct.std::_Rb_tree_node_base"*, i8 } %198, 1, !llfi_index !308
  store i8 %204, i8* %203, align 8, !llfi_index !309
  br label %205, !llfi_index !310

205:                                              ; preds = %199, %185
  br label %206, !llfi_index !311

206:                                              ; preds = %205, %164
  br label %207, !llfi_index !312

207:                                              ; preds = %206, %150
  br label %85, !llvm.loop !313, !llfi_index !314

208:                                              ; preds = %85
  store i32 0, i32* %1, align 4, !llfi_index !315
  call void @_ZNSt3setIiSt4lessIiESaIiEED2Ev(%"class.std::set"* nonnull align 8 dereferenceable(48) %6) #2, !llfi_index !316
  %209 = load i32, i32* %1, align 4, !llfi_index !317
  ret i32 %209, !llfi_index !318

210:                                              ; preds = %76
  %211 = load i8*, i8** %8, align 8, !llfi_index !319
  %212 = load i32, i32* %9, align 4, !llfi_index !320
  %213 = insertvalue { i8*, i32 } undef, i8* %211, 0, !llfi_index !321
  %214 = insertvalue { i8*, i32 } %213, i32 %212, 1, !llfi_index !322
  resume { i8*, i32 } %214, !llfi_index !323
}

declare dso_local i32 @__gxx_personality_v0(...)

declare dso_local %struct._IO_FILE* @freopen(i8*, i8*, %struct._IO_FILE*) #1

declare dso_local i32 @__isoc99_scanf(i8*, ...) #1

; Function Attrs: noinline nounwind uwtable
define linkonce_odr dso_local void @_ZNSt3setIiSt4lessIiESaIiEEC2Ev(%"class.std::set"* nonnull align 8 dereferenceable(48) %0) unnamed_addr #6 comdat align 2 {
  %2 = alloca %"class.std::set"*, align 8, !llfi_index !324
  store %"class.std::set"* %0, %"class.std::set"** %2, align 8, !llfi_index !325
  %3 = load %"class.std::set"*, %"class.std::set"** %2, align 8, !llfi_index !326
  %4 = getelementptr inbounds %"class.std::set", %"class.std::set"* %3, i32 0, i32 0, !llfi_index !327
  call void @_ZNSt8_Rb_treeIiiSt9_IdentityIiESt4lessIiESaIiEEC2Ev(%"class.std::_Rb_tree"* nonnull align 8 dereferenceable(48) %4) #2, !llfi_index !328
  ret void, !llfi_index !329
}

; Function Attrs: mustprogress noinline uwtable
define linkonce_odr dso_local { %"struct.std::_Rb_tree_node_base"*, i8 } @_ZNSt3setIiSt4lessIiESaIiEE6insertERKi(%"class.std::set"* nonnull align 8 dereferenceable(48) %0, i32* nonnull align 4 dereferenceable(4) %1) #7 comdat align 2 {
  %3 = alloca %"struct.std::pair", align 8, !llfi_index !330
  %4 = alloca %"class.std::set"*, align 8, !llfi_index !331
  %5 = alloca i32*, align 8, !llfi_index !332
  %6 = alloca %"struct.std::pair", align 8, !llfi_index !333
  store %"class.std::set"* %0, %"class.std::set"** %4, align 8, !llfi_index !334
  store i32* %1, i32** %5, align 8, !llfi_index !335
  %7 = load %"class.std::set"*, %"class.std::set"** %4, align 8, !llfi_index !336
  %8 = getelementptr inbounds %"class.std::set", %"class.std::set"* %7, i32 0, i32 0, !llfi_index !337
  %9 = load i32*, i32** %5, align 8, !llfi_index !338
  %10 = call { %"struct.std::_Rb_tree_node_base"*, i8 } @_ZNSt8_Rb_treeIiiSt9_IdentityIiESt4lessIiESaIiEE16_M_insert_uniqueIRKiEESt4pairISt17_Rb_tree_iteratorIiEbEOT_(%"class.std::_Rb_tree"* nonnull align 8 dereferenceable(48) %8, i32* nonnull align 4 dereferenceable(4) %9), !llfi_index !339
  %11 = bitcast %"struct.std::pair"* %6 to { %"struct.std::_Rb_tree_node_base"*, i8 }*, !llfi_index !340
  %12 = getelementptr inbounds { %"struct.std::_Rb_tree_node_base"*, i8 }, { %"struct.std::_Rb_tree_node_base"*, i8 }* %11, i32 0, i32 0, !llfi_index !341
  %13 = extractvalue { %"struct.std::_Rb_tree_node_base"*, i8 } %10, 0, !llfi_index !342
  store %"struct.std::_Rb_tree_node_base"* %13, %"struct.std::_Rb_tree_node_base"** %12, align 8, !llfi_index !343
  %14 = getelementptr inbounds { %"struct.std::_Rb_tree_node_base"*, i8 }, { %"struct.std::_Rb_tree_node_base"*, i8 }* %11, i32 0, i32 1, !llfi_index !344
  %15 = extractvalue { %"struct.std::_Rb_tree_node_base"*, i8 } %10, 1, !llfi_index !345
  store i8 %15, i8* %14, align 8, !llfi_index !346
  %16 = getelementptr inbounds %"struct.std::pair", %"struct.std::pair"* %6, i32 0, i32 0, !llfi_index !347
  %17 = getelementptr inbounds %"struct.std::pair", %"struct.std::pair"* %6, i32 0, i32 1, !llfi_index !348
  call void @_ZNSt4pairISt23_Rb_tree_const_iteratorIiEbEC2IRSt17_Rb_tree_iteratorIiERbLb1EEEOT_OT0_(%"struct.std::pair"* nonnull align 8 dereferenceable(9) %3, %"struct.std::_Rb_tree_const_iterator"* nonnull align 8 dereferenceable(8) %16, i8* nonnull align 1 dereferenceable(1) %17), !llfi_index !349
  %18 = bitcast %"struct.std::pair"* %3 to { %"struct.std::_Rb_tree_node_base"*, i8 }*, !llfi_index !350
  %19 = load { %"struct.std::_Rb_tree_node_base"*, i8 }, { %"struct.std::_Rb_tree_node_base"*, i8 }* %18, align 8, !llfi_index !351
  ret { %"struct.std::_Rb_tree_node_base"*, i8 } %19, !llfi_index !352
}

; Function Attrs: noinline nounwind uwtable
define linkonce_odr dso_local void @_ZNSt3setIiSt4lessIiESaIiEED2Ev(%"class.std::set"* nonnull align 8 dereferenceable(48) %0) unnamed_addr #6 comdat align 2 {
  %2 = alloca %"class.std::set"*, align 8, !llfi_index !353
  store %"class.std::set"* %0, %"class.std::set"** %2, align 8, !llfi_index !354
  %3 = load %"class.std::set"*, %"class.std::set"** %2, align 8, !llfi_index !355
  %4 = getelementptr inbounds %"class.std::set", %"class.std::set"* %3, i32 0, i32 0, !llfi_index !356
  call void @_ZNSt8_Rb_treeIiiSt9_IdentityIiESt4lessIiESaIiEED2Ev(%"class.std::_Rb_tree"* nonnull align 8 dereferenceable(48) %4) #2, !llfi_index !357
  ret void, !llfi_index !358
}

; Function Attrs: mustprogress noinline uwtable
define linkonce_odr dso_local %"struct.std::_Rb_tree_node_base"* @_ZNSt3setIiSt4lessIiESaIiEE11lower_boundERKi(%"class.std::set"* nonnull align 8 dereferenceable(48) %0, i32* nonnull align 4 dereferenceable(4) %1) #7 comdat align 2 {
  %3 = alloca %"struct.std::_Rb_tree_const_iterator", align 8, !llfi_index !359
  %4 = alloca %"class.std::set"*, align 8, !llfi_index !360
  %5 = alloca i32*, align 8, !llfi_index !361
  %6 = alloca %"struct.std::_Rb_tree_const_iterator", align 8, !llfi_index !362
  store %"class.std::set"* %0, %"class.std::set"** %4, align 8, !llfi_index !363
  store i32* %1, i32** %5, align 8, !llfi_index !364
  %7 = load %"class.std::set"*, %"class.std::set"** %4, align 8, !llfi_index !365
  %8 = getelementptr inbounds %"class.std::set", %"class.std::set"* %7, i32 0, i32 0, !llfi_index !366
  %9 = load i32*, i32** %5, align 8, !llfi_index !367
  %10 = call %"struct.std::_Rb_tree_node_base"* @_ZNSt8_Rb_treeIiiSt9_IdentityIiESt4lessIiESaIiEE11lower_boundERKi(%"class.std::_Rb_tree"* nonnull align 8 dereferenceable(48) %8, i32* nonnull align 4 dereferenceable(4) %9), !llfi_index !368
  %11 = getelementptr inbounds %"struct.std::_Rb_tree_const_iterator", %"struct.std::_Rb_tree_const_iterator"* %6, i32 0, i32 0, !llfi_index !369
  store %"struct.std::_Rb_tree_node_base"* %10, %"struct.std::_Rb_tree_node_base"** %11, align 8, !llfi_index !370
  call void @_ZNSt23_Rb_tree_const_iteratorIiEC2ERKSt17_Rb_tree_iteratorIiE(%"struct.std::_Rb_tree_const_iterator"* nonnull align 8 dereferenceable(8) %3, %"struct.std::_Rb_tree_const_iterator"* nonnull align 8 dereferenceable(8) %6) #2, !llfi_index !371
  %12 = getelementptr inbounds %"struct.std::_Rb_tree_const_iterator", %"struct.std::_Rb_tree_const_iterator"* %3, i32 0, i32 0, !llfi_index !372
  %13 = load %"struct.std::_Rb_tree_node_base"*, %"struct.std::_Rb_tree_node_base"** %12, align 8, !llfi_index !373
  ret %"struct.std::_Rb_tree_node_base"* %13, !llfi_index !374
}

; Function Attrs: mustprogress noinline nounwind uwtable
define linkonce_odr dso_local %"struct.std::_Rb_tree_node_base"* @_ZNKSt3setIiSt4lessIiESaIiEE3endEv(%"class.std::set"* nonnull align 8 dereferenceable(48) %0) #4 comdat align 2 {
  %2 = alloca %"struct.std::_Rb_tree_const_iterator", align 8, !llfi_index !375
  %3 = alloca %"class.std::set"*, align 8, !llfi_index !376
  store %"class.std::set"* %0, %"class.std::set"** %3, align 8, !llfi_index !377
  %4 = load %"class.std::set"*, %"class.std::set"** %3, align 8, !llfi_index !378
  %5 = getelementptr inbounds %"class.std::set", %"class.std::set"* %4, i32 0, i32 0, !llfi_index !379
  %6 = call %"struct.std::_Rb_tree_node_base"* @_ZNKSt8_Rb_treeIiiSt9_IdentityIiESt4lessIiESaIiEE3endEv(%"class.std::_Rb_tree"* nonnull align 8 dereferenceable(48) %5) #2, !llfi_index !380
  %7 = getelementptr inbounds %"struct.std::_Rb_tree_const_iterator", %"struct.std::_Rb_tree_const_iterator"* %2, i32 0, i32 0, !llfi_index !381
  store %"struct.std::_Rb_tree_node_base"* %6, %"struct.std::_Rb_tree_node_base"** %7, align 8, !llfi_index !382
  %8 = getelementptr inbounds %"struct.std::_Rb_tree_const_iterator", %"struct.std::_Rb_tree_const_iterator"* %2, i32 0, i32 0, !llfi_index !383
  %9 = load %"struct.std::_Rb_tree_node_base"*, %"struct.std::_Rb_tree_node_base"** %8, align 8, !llfi_index !384
  ret %"struct.std::_Rb_tree_node_base"* %9, !llfi_index !385
}

; Function Attrs: mustprogress noinline nounwind uwtable
define linkonce_odr dso_local zeroext i1 @_ZStneRKSt23_Rb_tree_const_iteratorIiES2_(%"struct.std::_Rb_tree_const_iterator"* nonnull align 8 dereferenceable(8) %0, %"struct.std::_Rb_tree_const_iterator"* nonnull align 8 dereferenceable(8) %1) #4 comdat {
  %3 = alloca %"struct.std::_Rb_tree_const_iterator"*, align 8, !llfi_index !386
  %4 = alloca %"struct.std::_Rb_tree_const_iterator"*, align 8, !llfi_index !387
  store %"struct.std::_Rb_tree_const_iterator"* %0, %"struct.std::_Rb_tree_const_iterator"** %3, align 8, !llfi_index !388
  store %"struct.std::_Rb_tree_const_iterator"* %1, %"struct.std::_Rb_tree_const_iterator"** %4, align 8, !llfi_index !389
  %5 = load %"struct.std::_Rb_tree_const_iterator"*, %"struct.std::_Rb_tree_const_iterator"** %3, align 8, !llfi_index !390
  %6 = getelementptr inbounds %"struct.std::_Rb_tree_const_iterator", %"struct.std::_Rb_tree_const_iterator"* %5, i32 0, i32 0, !llfi_index !391
  %7 = load %"struct.std::_Rb_tree_node_base"*, %"struct.std::_Rb_tree_node_base"** %6, align 8, !llfi_index !392
  %8 = load %"struct.std::_Rb_tree_const_iterator"*, %"struct.std::_Rb_tree_const_iterator"** %4, align 8, !llfi_index !393
  %9 = getelementptr inbounds %"struct.std::_Rb_tree_const_iterator", %"struct.std::_Rb_tree_const_iterator"* %8, i32 0, i32 0, !llfi_index !394
  %10 = load %"struct.std::_Rb_tree_node_base"*, %"struct.std::_Rb_tree_node_base"** %9, align 8, !llfi_index !395
  %11 = icmp ne %"struct.std::_Rb_tree_node_base"* %7, %10, !llfi_index !396
  ret i1 %11, !llfi_index !397
}

; Function Attrs: mustprogress noinline nounwind uwtable
define linkonce_odr dso_local nonnull align 4 dereferenceable(4) i32* @_ZNKSt23_Rb_tree_const_iteratorIiEdeEv(%"struct.std::_Rb_tree_const_iterator"* nonnull align 8 dereferenceable(8) %0) #4 comdat align 2 {
  %2 = alloca %"struct.std::_Rb_tree_const_iterator"*, align 8, !llfi_index !398
  store %"struct.std::_Rb_tree_const_iterator"* %0, %"struct.std::_Rb_tree_const_iterator"** %2, align 8, !llfi_index !399
  %3 = load %"struct.std::_Rb_tree_const_iterator"*, %"struct.std::_Rb_tree_const_iterator"** %2, align 8, !llfi_index !400
  %4 = getelementptr inbounds %"struct.std::_Rb_tree_const_iterator", %"struct.std::_Rb_tree_const_iterator"* %3, i32 0, i32 0, !llfi_index !401
  %5 = load %"struct.std::_Rb_tree_node_base"*, %"struct.std::_Rb_tree_node_base"** %4, align 8, !llfi_index !402
  %6 = bitcast %"struct.std::_Rb_tree_node_base"* %5 to %"struct.std::_Rb_tree_node"*, !llfi_index !403
  %7 = call i32* @_ZNKSt13_Rb_tree_nodeIiE9_M_valptrEv(%"struct.std::_Rb_tree_node"* nonnull align 8 dereferenceable(36) %6), !llfi_index !404
  ret i32* %7, !llfi_index !405
}

; Function Attrs: mustprogress noinline nounwind uwtable
define linkonce_odr dso_local %"struct.std::_Rb_tree_node_base"* @_ZNSt23_Rb_tree_const_iteratorIiEppEi(%"struct.std::_Rb_tree_const_iterator"* nonnull align 8 dereferenceable(8) %0, i32 %1) #4 comdat align 2 {
  %3 = alloca %"struct.std::_Rb_tree_const_iterator", align 8, !llfi_index !406
  %4 = alloca %"struct.std::_Rb_tree_const_iterator"*, align 8, !llfi_index !407
  %5 = alloca i32, align 4, !llfi_index !408
  store %"struct.std::_Rb_tree_const_iterator"* %0, %"struct.std::_Rb_tree_const_iterator"** %4, align 8, !llfi_index !409
  store i32 %1, i32* %5, align 4, !llfi_index !410
  %6 = load %"struct.std::_Rb_tree_const_iterator"*, %"struct.std::_Rb_tree_const_iterator"** %4, align 8, !llfi_index !411
  %7 = bitcast %"struct.std::_Rb_tree_const_iterator"* %3 to i8*, !llfi_index !412
  %8 = bitcast %"struct.std::_Rb_tree_const_iterator"* %6 to i8*, !llfi_index !413
  call void @llvm.memcpy.p0i8.p0i8.i64(i8* align 8 %7, i8* align 8 %8, i64 8, i1 false), !llfi_index !414
  %9 = getelementptr inbounds %"struct.std::_Rb_tree_const_iterator", %"struct.std::_Rb_tree_const_iterator"* %6, i32 0, i32 0, !llfi_index !415
  %10 = load %"struct.std::_Rb_tree_node_base"*, %"struct.std::_Rb_tree_node_base"** %9, align 8, !llfi_index !416
  %11 = call %"struct.std::_Rb_tree_node_base"* @_ZSt18_Rb_tree_incrementPKSt18_Rb_tree_node_base(%"struct.std::_Rb_tree_node_base"* %10) #14, !llfi_index !417
  %12 = getelementptr inbounds %"struct.std::_Rb_tree_const_iterator", %"struct.std::_Rb_tree_const_iterator"* %6, i32 0, i32 0, !llfi_index !418
  store %"struct.std::_Rb_tree_node_base"* %11, %"struct.std::_Rb_tree_node_base"** %12, align 8, !llfi_index !419
  %13 = getelementptr inbounds %"struct.std::_Rb_tree_const_iterator", %"struct.std::_Rb_tree_const_iterator"* %3, i32 0, i32 0, !llfi_index !420
  %14 = load %"struct.std::_Rb_tree_node_base"*, %"struct.std::_Rb_tree_node_base"** %13, align 8, !llfi_index !421
  ret %"struct.std::_Rb_tree_node_base"* %14, !llfi_index !422
}

; Function Attrs: mustprogress noinline uwtable
define linkonce_odr dso_local i64 @_ZNSt3setIiSt4lessIiESaIiEE5eraseERKi(%"class.std::set"* nonnull align 8 dereferenceable(48) %0, i32* nonnull align 4 dereferenceable(4) %1) #7 comdat align 2 {
  %3 = alloca %"class.std::set"*, align 8, !llfi_index !423
  %4 = alloca i32*, align 8, !llfi_index !424
  store %"class.std::set"* %0, %"class.std::set"** %3, align 8, !llfi_index !425
  store i32* %1, i32** %4, align 8, !llfi_index !426
  %5 = load %"class.std::set"*, %"class.std::set"** %3, align 8, !llfi_index !427
  %6 = getelementptr inbounds %"class.std::set", %"class.std::set"* %5, i32 0, i32 0, !llfi_index !428
  %7 = load i32*, i32** %4, align 8, !llfi_index !429
  %8 = call i64 @_ZNSt8_Rb_treeIiiSt9_IdentityIiESt4lessIiESaIiEE5eraseERKi(%"class.std::_Rb_tree"* nonnull align 8 dereferenceable(48) %6, i32* nonnull align 4 dereferenceable(4) %7), !llfi_index !430
  ret i64 %8, !llfi_index !431
}

declare dso_local i32 @printf(i8*, ...) #1

; Function Attrs: mustprogress noinline uwtable
define linkonce_odr dso_local i64 @_ZNSt8_Rb_treeIiiSt9_IdentityIiESt4lessIiESaIiEE5eraseERKi(%"class.std::_Rb_tree"* nonnull align 8 dereferenceable(48) %0, i32* nonnull align 4 dereferenceable(4) %1) #7 comdat align 2 {
  %3 = alloca %"class.std::_Rb_tree"*, align 8, !llfi_index !432
  %4 = alloca i32*, align 8, !llfi_index !433
  %5 = alloca %"struct.std::pair.7", align 8, !llfi_index !434
  %6 = alloca i64, align 8, !llfi_index !435
  %7 = alloca %"struct.std::_Rb_tree_const_iterator", align 8, !llfi_index !436
  %8 = alloca %"struct.std::_Rb_tree_const_iterator", align 8, !llfi_index !437
  store %"class.std::_Rb_tree"* %0, %"class.std::_Rb_tree"** %3, align 8, !llfi_index !438
  store i32* %1, i32** %4, align 8, !llfi_index !439
  %9 = load %"class.std::_Rb_tree"*, %"class.std::_Rb_tree"** %3, align 8, !llfi_index !440
  %10 = load i32*, i32** %4, align 8, !llfi_index !441
  %11 = call { %"struct.std::_Rb_tree_node_base"*, %"struct.std::_Rb_tree_node_base"* } @_ZNSt8_Rb_treeIiiSt9_IdentityIiESt4lessIiESaIiEE11equal_rangeERKi(%"class.std::_Rb_tree"* nonnull align 8 dereferenceable(48) %9, i32* nonnull align 4 dereferenceable(4) %10), !llfi_index !442
  %12 = bitcast %"struct.std::pair.7"* %5 to { %"struct.std::_Rb_tree_node_base"*, %"struct.std::_Rb_tree_node_base"* }*, !llfi_index !443
  %13 = getelementptr inbounds { %"struct.std::_Rb_tree_node_base"*, %"struct.std::_Rb_tree_node_base"* }, { %"struct.std::_Rb_tree_node_base"*, %"struct.std::_Rb_tree_node_base"* }* %12, i32 0, i32 0, !llfi_index !444
  %14 = extractvalue { %"struct.std::_Rb_tree_node_base"*, %"struct.std::_Rb_tree_node_base"* } %11, 0, !llfi_index !445
  store %"struct.std::_Rb_tree_node_base"* %14, %"struct.std::_Rb_tree_node_base"** %13, align 8, !llfi_index !446
  %15 = getelementptr inbounds { %"struct.std::_Rb_tree_node_base"*, %"struct.std::_Rb_tree_node_base"* }, { %"struct.std::_Rb_tree_node_base"*, %"struct.std::_Rb_tree_node_base"* }* %12, i32 0, i32 1, !llfi_index !447
  %16 = extractvalue { %"struct.std::_Rb_tree_node_base"*, %"struct.std::_Rb_tree_node_base"* } %11, 1, !llfi_index !448
  store %"struct.std::_Rb_tree_node_base"* %16, %"struct.std::_Rb_tree_node_base"** %15, align 8, !llfi_index !449
  %17 = call i64 @_ZNKSt8_Rb_treeIiiSt9_IdentityIiESt4lessIiESaIiEE4sizeEv(%"class.std::_Rb_tree"* nonnull align 8 dereferenceable(48) %9) #2, !llfi_index !450
  store i64 %17, i64* %6, align 8, !llfi_index !451
  %18 = getelementptr inbounds %"struct.std::pair.7", %"struct.std::pair.7"* %5, i32 0, i32 0, !llfi_index !452
  call void @_ZNSt23_Rb_tree_const_iteratorIiEC2ERKSt17_Rb_tree_iteratorIiE(%"struct.std::_Rb_tree_const_iterator"* nonnull align 8 dereferenceable(8) %7, %"struct.std::_Rb_tree_const_iterator"* nonnull align 8 dereferenceable(8) %18) #2, !llfi_index !453
  %19 = getelementptr inbounds %"struct.std::pair.7", %"struct.std::pair.7"* %5, i32 0, i32 1, !llfi_index !454
  call void @_ZNSt23_Rb_tree_const_iteratorIiEC2ERKSt17_Rb_tree_iteratorIiE(%"struct.std::_Rb_tree_const_iterator"* nonnull align 8 dereferenceable(8) %8, %"struct.std::_Rb_tree_const_iterator"* nonnull align 8 dereferenceable(8) %19) #2, !llfi_index !455
  %20 = getelementptr inbounds %"struct.std::_Rb_tree_const_iterator", %"struct.std::_Rb_tree_const_iterator"* %7, i32 0, i32 0, !llfi_index !456
  %21 = load %"struct.std::_Rb_tree_node_base"*, %"struct.std::_Rb_tree_node_base"** %20, align 8, !llfi_index !457
  %22 = getelementptr inbounds %"struct.std::_Rb_tree_const_iterator", %"struct.std::_Rb_tree_const_iterator"* %8, i32 0, i32 0, !llfi_index !458
  %23 = load %"struct.std::_Rb_tree_node_base"*, %"struct.std::_Rb_tree_node_base"** %22, align 8, !llfi_index !459
  call void @_ZNSt8_Rb_treeIiiSt9_IdentityIiESt4lessIiESaIiEE12_M_erase_auxESt23_Rb_tree_const_iteratorIiES7_(%"class.std::_Rb_tree"* nonnull align 8 dereferenceable(48) %9, %"struct.std::_Rb_tree_node_base"* %21, %"struct.std::_Rb_tree_node_base"* %23), !llfi_index !460
  %24 = load i64, i64* %6, align 8, !llfi_index !461
  %25 = call i64 @_ZNKSt8_Rb_treeIiiSt9_IdentityIiESt4lessIiESaIiEE4sizeEv(%"class.std::_Rb_tree"* nonnull align 8 dereferenceable(48) %9) #2, !llfi_index !462
  %26 = sub i64 %24, %25, !llfi_index !463
  ret i64 %26, !llfi_index !464
}

; Function Attrs: mustprogress noinline uwtable
define linkonce_odr dso_local { %"struct.std::_Rb_tree_node_base"*, %"struct.std::_Rb_tree_node_base"* } @_ZNSt8_Rb_treeIiiSt9_IdentityIiESt4lessIiESaIiEE11equal_rangeERKi(%"class.std::_Rb_tree"* nonnull align 8 dereferenceable(48) %0, i32* nonnull align 4 dereferenceable(4) %1) #7 comdat align 2 {
  %3 = alloca %"struct.std::pair.7", align 8, !llfi_index !465
  %4 = alloca %"class.std::_Rb_tree"*, align 8, !llfi_index !466
  %5 = alloca i32*, align 8, !llfi_index !467
  %6 = alloca %"struct.std::_Rb_tree_node"*, align 8, !llfi_index !468
  %7 = alloca %"struct.std::_Rb_tree_node_base"*, align 8, !llfi_index !469
  %8 = alloca %"struct.std::_Rb_tree_node"*, align 8, !llfi_index !470
  %9 = alloca %"struct.std::_Rb_tree_node_base"*, align 8, !llfi_index !471
  %10 = alloca %"struct.std::_Rb_tree_const_iterator", align 8, !llfi_index !472
  %11 = alloca %"struct.std::_Rb_tree_const_iterator", align 8, !llfi_index !473
  %12 = alloca %"struct.std::_Rb_tree_const_iterator", align 8, !llfi_index !474
  %13 = alloca %"struct.std::_Rb_tree_const_iterator", align 8, !llfi_index !475
  store %"class.std::_Rb_tree"* %0, %"class.std::_Rb_tree"** %4, align 8, !llfi_index !476
  store i32* %1, i32** %5, align 8, !llfi_index !477
  %14 = load %"class.std::_Rb_tree"*, %"class.std::_Rb_tree"** %4, align 8, !llfi_index !478
  %15 = call %"struct.std::_Rb_tree_node"* @_ZNSt8_Rb_treeIiiSt9_IdentityIiESt4lessIiESaIiEE8_M_beginEv(%"class.std::_Rb_tree"* nonnull align 8 dereferenceable(48) %14) #2, !llfi_index !479
  store %"struct.std::_Rb_tree_node"* %15, %"struct.std::_Rb_tree_node"** %6, align 8, !llfi_index !480
  %16 = call %"struct.std::_Rb_tree_node_base"* @_ZNSt8_Rb_treeIiiSt9_IdentityIiESt4lessIiESaIiEE6_M_endEv(%"class.std::_Rb_tree"* nonnull align 8 dereferenceable(48) %14) #2, !llfi_index !481
  store %"struct.std::_Rb_tree_node_base"* %16, %"struct.std::_Rb_tree_node_base"** %7, align 8, !llfi_index !482
  br label %17, !llfi_index !483

17:                                               ; preds = %68, %2
  %18 = load %"struct.std::_Rb_tree_node"*, %"struct.std::_Rb_tree_node"** %6, align 8, !llfi_index !484
  %19 = icmp ne %"struct.std::_Rb_tree_node"* %18, null, !llfi_index !485
  br i1 %19, label %20, label %69, !llfi_index !486

20:                                               ; preds = %17
  %21 = getelementptr inbounds %"class.std::_Rb_tree", %"class.std::_Rb_tree"* %14, i32 0, i32 0, !llfi_index !487
  %22 = bitcast %"struct.std::_Rb_tree<int, int, std::_Identity<int>, std::less<int>>::_Rb_tree_impl"* %21 to %"struct.std::_Rb_tree_key_compare"*, !llfi_index !488
  %23 = getelementptr inbounds %"struct.std::_Rb_tree_key_compare", %"struct.std::_Rb_tree_key_compare"* %22, i32 0, i32 0, !llfi_index !489
  %24 = load %"struct.std::_Rb_tree_node"*, %"struct.std::_Rb_tree_node"** %6, align 8, !llfi_index !490
  %25 = call nonnull align 4 dereferenceable(4) i32* @_ZNSt8_Rb_treeIiiSt9_IdentityIiESt4lessIiESaIiEE6_S_keyEPKSt13_Rb_tree_nodeIiE(%"struct.std::_Rb_tree_node"* %24), !llfi_index !491
  %26 = load i32*, i32** %5, align 8, !llfi_index !492
  %27 = call zeroext i1 @_ZNKSt4lessIiEclERKiS2_(%"class.std::ios_base::Init"* nonnull align 1 dereferenceable(1) %23, i32* nonnull align 4 dereferenceable(4) %25, i32* nonnull align 4 dereferenceable(4) %26), !llfi_index !493
  br i1 %27, label %28, label %32, !llfi_index !494

28:                                               ; preds = %20
  %29 = load %"struct.std::_Rb_tree_node"*, %"struct.std::_Rb_tree_node"** %6, align 8, !llfi_index !495
  %30 = bitcast %"struct.std::_Rb_tree_node"* %29 to %"struct.std::_Rb_tree_node_base"*, !llfi_index !496
  %31 = call %"struct.std::_Rb_tree_node"* @_ZNSt8_Rb_treeIiiSt9_IdentityIiESt4lessIiESaIiEE8_S_rightEPSt18_Rb_tree_node_base(%"struct.std::_Rb_tree_node_base"* %30) #2, !llfi_index !497
  store %"struct.std::_Rb_tree_node"* %31, %"struct.std::_Rb_tree_node"** %6, align 8, !llfi_index !498
  br label %68, !llfi_index !499

32:                                               ; preds = %20
  %33 = getelementptr inbounds %"class.std::_Rb_tree", %"class.std::_Rb_tree"* %14, i32 0, i32 0, !llfi_index !500
  %34 = bitcast %"struct.std::_Rb_tree<int, int, std::_Identity<int>, std::less<int>>::_Rb_tree_impl"* %33 to %"struct.std::_Rb_tree_key_compare"*, !llfi_index !501
  %35 = getelementptr inbounds %"struct.std::_Rb_tree_key_compare", %"struct.std::_Rb_tree_key_compare"* %34, i32 0, i32 0, !llfi_index !502
  %36 = load i32*, i32** %5, align 8, !llfi_index !503
  %37 = load %"struct.std::_Rb_tree_node"*, %"struct.std::_Rb_tree_node"** %6, align 8, !llfi_index !504
  %38 = call nonnull align 4 dereferenceable(4) i32* @_ZNSt8_Rb_treeIiiSt9_IdentityIiESt4lessIiESaIiEE6_S_keyEPKSt13_Rb_tree_nodeIiE(%"struct.std::_Rb_tree_node"* %37), !llfi_index !505
  %39 = call zeroext i1 @_ZNKSt4lessIiEclERKiS2_(%"class.std::ios_base::Init"* nonnull align 1 dereferenceable(1) %35, i32* nonnull align 4 dereferenceable(4) %36, i32* nonnull align 4 dereferenceable(4) %38), !llfi_index !506
  br i1 %39, label %40, label %46, !llfi_index !507

40:                                               ; preds = %32
  %41 = load %"struct.std::_Rb_tree_node"*, %"struct.std::_Rb_tree_node"** %6, align 8, !llfi_index !508
  %42 = bitcast %"struct.std::_Rb_tree_node"* %41 to %"struct.std::_Rb_tree_node_base"*, !llfi_index !509
  store %"struct.std::_Rb_tree_node_base"* %42, %"struct.std::_Rb_tree_node_base"** %7, align 8, !llfi_index !510
  %43 = load %"struct.std::_Rb_tree_node"*, %"struct.std::_Rb_tree_node"** %6, align 8, !llfi_index !511
  %44 = bitcast %"struct.std::_Rb_tree_node"* %43 to %"struct.std::_Rb_tree_node_base"*, !llfi_index !512
  %45 = call %"struct.std::_Rb_tree_node"* @_ZNSt8_Rb_treeIiiSt9_IdentityIiESt4lessIiESaIiEE7_S_leftEPSt18_Rb_tree_node_base(%"struct.std::_Rb_tree_node_base"* %44) #2, !llfi_index !513
  store %"struct.std::_Rb_tree_node"* %45, %"struct.std::_Rb_tree_node"** %6, align 8, !llfi_index !514
  br label %67, !llfi_index !515

46:                                               ; preds = %32
  %47 = load %"struct.std::_Rb_tree_node"*, %"struct.std::_Rb_tree_node"** %6, align 8, !llfi_index !516
  store %"struct.std::_Rb_tree_node"* %47, %"struct.std::_Rb_tree_node"** %8, align 8, !llfi_index !517
  %48 = load %"struct.std::_Rb_tree_node_base"*, %"struct.std::_Rb_tree_node_base"** %7, align 8, !llfi_index !518
  store %"struct.std::_Rb_tree_node_base"* %48, %"struct.std::_Rb_tree_node_base"** %9, align 8, !llfi_index !519
  %49 = load %"struct.std::_Rb_tree_node"*, %"struct.std::_Rb_tree_node"** %6, align 8, !llfi_index !520
  %50 = bitcast %"struct.std::_Rb_tree_node"* %49 to %"struct.std::_Rb_tree_node_base"*, !llfi_index !521
  store %"struct.std::_Rb_tree_node_base"* %50, %"struct.std::_Rb_tree_node_base"** %7, align 8, !llfi_index !522
  %51 = load %"struct.std::_Rb_tree_node"*, %"struct.std::_Rb_tree_node"** %6, align 8, !llfi_index !523
  %52 = bitcast %"struct.std::_Rb_tree_node"* %51 to %"struct.std::_Rb_tree_node_base"*, !llfi_index !524
  %53 = call %"struct.std::_Rb_tree_node"* @_ZNSt8_Rb_treeIiiSt9_IdentityIiESt4lessIiESaIiEE7_S_leftEPSt18_Rb_tree_node_base(%"struct.std::_Rb_tree_node_base"* %52) #2, !llfi_index !525
  store %"struct.std::_Rb_tree_node"* %53, %"struct.std::_Rb_tree_node"** %6, align 8, !llfi_index !526
  %54 = load %"struct.std::_Rb_tree_node"*, %"struct.std::_Rb_tree_node"** %8, align 8, !llfi_index !527
  %55 = bitcast %"struct.std::_Rb_tree_node"* %54 to %"struct.std::_Rb_tree_node_base"*, !llfi_index !528
  %56 = call %"struct.std::_Rb_tree_node"* @_ZNSt8_Rb_treeIiiSt9_IdentityIiESt4lessIiESaIiEE8_S_rightEPSt18_Rb_tree_node_base(%"struct.std::_Rb_tree_node_base"* %55) #2, !llfi_index !529
  store %"struct.std::_Rb_tree_node"* %56, %"struct.std::_Rb_tree_node"** %8, align 8, !llfi_index !530
  %57 = load %"struct.std::_Rb_tree_node"*, %"struct.std::_Rb_tree_node"** %6, align 8, !llfi_index !531
  %58 = load %"struct.std::_Rb_tree_node_base"*, %"struct.std::_Rb_tree_node_base"** %7, align 8, !llfi_index !532
  %59 = load i32*, i32** %5, align 8, !llfi_index !533
  %60 = call %"struct.std::_Rb_tree_node_base"* @_ZNSt8_Rb_treeIiiSt9_IdentityIiESt4lessIiESaIiEE14_M_lower_boundEPSt13_Rb_tree_nodeIiEPSt18_Rb_tree_node_baseRKi(%"class.std::_Rb_tree"* nonnull align 8 dereferenceable(48) %14, %"struct.std::_Rb_tree_node"* %57, %"struct.std::_Rb_tree_node_base"* %58, i32* nonnull align 4 dereferenceable(4) %59), !llfi_index !534
  %61 = getelementptr inbounds %"struct.std::_Rb_tree_const_iterator", %"struct.std::_Rb_tree_const_iterator"* %10, i32 0, i32 0, !llfi_index !535
  store %"struct.std::_Rb_tree_node_base"* %60, %"struct.std::_Rb_tree_node_base"** %61, align 8, !llfi_index !536
  %62 = load %"struct.std::_Rb_tree_node"*, %"struct.std::_Rb_tree_node"** %8, align 8, !llfi_index !537
  %63 = load %"struct.std::_Rb_tree_node_base"*, %"struct.std::_Rb_tree_node_base"** %9, align 8, !llfi_index !538
  %64 = load i32*, i32** %5, align 8, !llfi_index !539
  %65 = call %"struct.std::_Rb_tree_node_base"* @_ZNSt8_Rb_treeIiiSt9_IdentityIiESt4lessIiESaIiEE14_M_upper_boundEPSt13_Rb_tree_nodeIiEPSt18_Rb_tree_node_baseRKi(%"class.std::_Rb_tree"* nonnull align 8 dereferenceable(48) %14, %"struct.std::_Rb_tree_node"* %62, %"struct.std::_Rb_tree_node_base"* %63, i32* nonnull align 4 dereferenceable(4) %64), !llfi_index !540
  %66 = getelementptr inbounds %"struct.std::_Rb_tree_const_iterator", %"struct.std::_Rb_tree_const_iterator"* %11, i32 0, i32 0, !llfi_index !541
  store %"struct.std::_Rb_tree_node_base"* %65, %"struct.std::_Rb_tree_node_base"** %66, align 8, !llfi_index !542
  call void @_ZNSt4pairISt17_Rb_tree_iteratorIiES1_EC2IS1_S1_Lb1EEEOT_OT0_(%"struct.std::pair.7"* nonnull align 8 dereferenceable(16) %3, %"struct.std::_Rb_tree_const_iterator"* nonnull align 8 dereferenceable(8) %10, %"struct.std::_Rb_tree_const_iterator"* nonnull align 8 dereferenceable(8) %11), !llfi_index !543
  br label %72, !llfi_index !544

67:                                               ; preds = %40
  br label %68, !llfi_index !545

68:                                               ; preds = %67, %28
  br label %17, !llvm.loop !546, !llfi_index !547

69:                                               ; preds = %17
  %70 = load %"struct.std::_Rb_tree_node_base"*, %"struct.std::_Rb_tree_node_base"** %7, align 8, !llfi_index !548
  call void @_ZNSt17_Rb_tree_iteratorIiEC2EPSt18_Rb_tree_node_base(%"struct.std::_Rb_tree_const_iterator"* nonnull align 8 dereferenceable(8) %12, %"struct.std::_Rb_tree_node_base"* %70) #2, !llfi_index !549
  %71 = load %"struct.std::_Rb_tree_node_base"*, %"struct.std::_Rb_tree_node_base"** %7, align 8, !llfi_index !550
  call void @_ZNSt17_Rb_tree_iteratorIiEC2EPSt18_Rb_tree_node_base(%"struct.std::_Rb_tree_const_iterator"* nonnull align 8 dereferenceable(8) %13, %"struct.std::_Rb_tree_node_base"* %71) #2, !llfi_index !551
  call void @_ZNSt4pairISt17_Rb_tree_iteratorIiES1_EC2IS1_S1_Lb1EEEOT_OT0_(%"struct.std::pair.7"* nonnull align 8 dereferenceable(16) %3, %"struct.std::_Rb_tree_const_iterator"* nonnull align 8 dereferenceable(8) %12, %"struct.std::_Rb_tree_const_iterator"* nonnull align 8 dereferenceable(8) %13), !llfi_index !552
  br label %72, !llfi_index !553

72:                                               ; preds = %69, %46
  %73 = bitcast %"struct.std::pair.7"* %3 to { %"struct.std::_Rb_tree_node_base"*, %"struct.std::_Rb_tree_node_base"* }*, !llfi_index !554
  %74 = load { %"struct.std::_Rb_tree_node_base"*, %"struct.std::_Rb_tree_node_base"* }, { %"struct.std::_Rb_tree_node_base"*, %"struct.std::_Rb_tree_node_base"* }* %73, align 8, !llfi_index !555
  ret { %"struct.std::_Rb_tree_node_base"*, %"struct.std::_Rb_tree_node_base"* } %74, !llfi_index !556
}

; Function Attrs: mustprogress noinline nounwind uwtable
define linkonce_odr dso_local i64 @_ZNKSt8_Rb_treeIiiSt9_IdentityIiESt4lessIiESaIiEE4sizeEv(%"class.std::_Rb_tree"* nonnull align 8 dereferenceable(48) %0) #4 comdat align 2 {
  %2 = alloca %"class.std::_Rb_tree"*, align 8, !llfi_index !557
  store %"class.std::_Rb_tree"* %0, %"class.std::_Rb_tree"** %2, align 8, !llfi_index !558
  %3 = load %"class.std::_Rb_tree"*, %"class.std::_Rb_tree"** %2, align 8, !llfi_index !559
  %4 = getelementptr inbounds %"class.std::_Rb_tree", %"class.std::_Rb_tree"* %3, i32 0, i32 0, !llfi_index !560
  %5 = bitcast %"struct.std::_Rb_tree<int, int, std::_Identity<int>, std::less<int>>::_Rb_tree_impl"* %4 to i8*, !llfi_index !561
  %6 = getelementptr inbounds i8, i8* %5, i64 8, !llfi_index !562
  %7 = bitcast i8* %6 to %"struct.std::_Rb_tree_header"*, !llfi_index !563
  %8 = getelementptr inbounds %"struct.std::_Rb_tree_header", %"struct.std::_Rb_tree_header"* %7, i32 0, i32 1, !llfi_index !564
  %9 = load i64, i64* %8, align 8, !llfi_index !565
  ret i64 %9, !llfi_index !566
}

; Function Attrs: noinline nounwind uwtable
define linkonce_odr dso_local void @_ZNSt23_Rb_tree_const_iteratorIiEC2ERKSt17_Rb_tree_iteratorIiE(%"struct.std::_Rb_tree_const_iterator"* nonnull align 8 dereferenceable(8) %0, %"struct.std::_Rb_tree_const_iterator"* nonnull align 8 dereferenceable(8) %1) unnamed_addr #6 comdat align 2 {
  %3 = alloca %"struct.std::_Rb_tree_const_iterator"*, align 8, !llfi_index !567
  %4 = alloca %"struct.std::_Rb_tree_const_iterator"*, align 8, !llfi_index !568
  store %"struct.std::_Rb_tree_const_iterator"* %0, %"struct.std::_Rb_tree_const_iterator"** %3, align 8, !llfi_index !569
  store %"struct.std::_Rb_tree_const_iterator"* %1, %"struct.std::_Rb_tree_const_iterator"** %4, align 8, !llfi_index !570
  %5 = load %"struct.std::_Rb_tree_const_iterator"*, %"struct.std::_Rb_tree_const_iterator"** %3, align 8, !llfi_index !571
  %6 = getelementptr inbounds %"struct.std::_Rb_tree_const_iterator", %"struct.std::_Rb_tree_const_iterator"* %5, i32 0, i32 0, !llfi_index !572
  %7 = load %"struct.std::_Rb_tree_const_iterator"*, %"struct.std::_Rb_tree_const_iterator"** %4, align 8, !llfi_index !573
  %8 = getelementptr inbounds %"struct.std::_Rb_tree_const_iterator", %"struct.std::_Rb_tree_const_iterator"* %7, i32 0, i32 0, !llfi_index !574
  %9 = load %"struct.std::_Rb_tree_node_base"*, %"struct.std::_Rb_tree_node_base"** %8, align 8, !llfi_index !575
  store %"struct.std::_Rb_tree_node_base"* %9, %"struct.std::_Rb_tree_node_base"** %6, align 8, !llfi_index !576
  ret void, !llfi_index !577
}

; Function Attrs: mustprogress noinline uwtable
define linkonce_odr dso_local void @_ZNSt8_Rb_treeIiiSt9_IdentityIiESt4lessIiESaIiEE12_M_erase_auxESt23_Rb_tree_const_iteratorIiES7_(%"class.std::_Rb_tree"* nonnull align 8 dereferenceable(48) %0, %"struct.std::_Rb_tree_node_base"* %1, %"struct.std::_Rb_tree_node_base"* %2) #7 comdat align 2 {
  %4 = alloca %"struct.std::_Rb_tree_const_iterator", align 8, !llfi_index !578
  %5 = alloca %"struct.std::_Rb_tree_const_iterator", align 8, !llfi_index !579
  %6 = alloca %"class.std::_Rb_tree"*, align 8, !llfi_index !580
  %7 = alloca %"struct.std::_Rb_tree_const_iterator", align 8, !llfi_index !581
  %8 = alloca %"struct.std::_Rb_tree_const_iterator", align 8, !llfi_index !582
  %9 = alloca %"struct.std::_Rb_tree_const_iterator", align 8, !llfi_index !583
  %10 = alloca %"struct.std::_Rb_tree_const_iterator", align 8, !llfi_index !584
  %11 = alloca %"struct.std::_Rb_tree_const_iterator", align 8, !llfi_index !585
  %12 = getelementptr inbounds %"struct.std::_Rb_tree_const_iterator", %"struct.std::_Rb_tree_const_iterator"* %4, i32 0, i32 0, !llfi_index !586
  store %"struct.std::_Rb_tree_node_base"* %1, %"struct.std::_Rb_tree_node_base"** %12, align 8, !llfi_index !587
  %13 = getelementptr inbounds %"struct.std::_Rb_tree_const_iterator", %"struct.std::_Rb_tree_const_iterator"* %5, i32 0, i32 0, !llfi_index !588
  store %"struct.std::_Rb_tree_node_base"* %2, %"struct.std::_Rb_tree_node_base"** %13, align 8, !llfi_index !589
  store %"class.std::_Rb_tree"* %0, %"class.std::_Rb_tree"** %6, align 8, !llfi_index !590
  %14 = load %"class.std::_Rb_tree"*, %"class.std::_Rb_tree"** %6, align 8, !llfi_index !591
  %15 = call %"struct.std::_Rb_tree_node_base"* @_ZNSt8_Rb_treeIiiSt9_IdentityIiESt4lessIiESaIiEE5beginEv(%"class.std::_Rb_tree"* nonnull align 8 dereferenceable(48) %14) #2, !llfi_index !592
  %16 = getelementptr inbounds %"struct.std::_Rb_tree_const_iterator", %"struct.std::_Rb_tree_const_iterator"* %8, i32 0, i32 0, !llfi_index !593
  store %"struct.std::_Rb_tree_node_base"* %15, %"struct.std::_Rb_tree_node_base"** %16, align 8, !llfi_index !594
  call void @_ZNSt23_Rb_tree_const_iteratorIiEC2ERKSt17_Rb_tree_iteratorIiE(%"struct.std::_Rb_tree_const_iterator"* nonnull align 8 dereferenceable(8) %7, %"struct.std::_Rb_tree_const_iterator"* nonnull align 8 dereferenceable(8) %8) #2, !llfi_index !595
  %17 = call zeroext i1 @_ZSteqRKSt23_Rb_tree_const_iteratorIiES2_(%"struct.std::_Rb_tree_const_iterator"* nonnull align 8 dereferenceable(8) %4, %"struct.std::_Rb_tree_const_iterator"* nonnull align 8 dereferenceable(8) %7) #2, !llfi_index !596
  br i1 %17, label %18, label %22, !llfi_index !597

18:                                               ; preds = %3
  %19 = call %"struct.std::_Rb_tree_node_base"* @_ZNSt8_Rb_treeIiiSt9_IdentityIiESt4lessIiESaIiEE3endEv(%"class.std::_Rb_tree"* nonnull align 8 dereferenceable(48) %14) #2, !llfi_index !598
  %20 = getelementptr inbounds %"struct.std::_Rb_tree_const_iterator", %"struct.std::_Rb_tree_const_iterator"* %10, i32 0, i32 0, !llfi_index !599
  store %"struct.std::_Rb_tree_node_base"* %19, %"struct.std::_Rb_tree_node_base"** %20, align 8, !llfi_index !600
  call void @_ZNSt23_Rb_tree_const_iteratorIiEC2ERKSt17_Rb_tree_iteratorIiE(%"struct.std::_Rb_tree_const_iterator"* nonnull align 8 dereferenceable(8) %9, %"struct.std::_Rb_tree_const_iterator"* nonnull align 8 dereferenceable(8) %10) #2, !llfi_index !601
  %21 = call zeroext i1 @_ZSteqRKSt23_Rb_tree_const_iteratorIiES2_(%"struct.std::_Rb_tree_const_iterator"* nonnull align 8 dereferenceable(8) %5, %"struct.std::_Rb_tree_const_iterator"* nonnull align 8 dereferenceable(8) %9) #2, !llfi_index !602
  br label %22, !llfi_index !603

22:                                               ; preds = %18, %3
  %23 = phi i1 [ false, %3 ], [ %21, %18 ], !llfi_index !604
  br i1 %23, label %24, label %25, !llfi_index !605

24:                                               ; preds = %22
  call void @_ZNSt8_Rb_treeIiiSt9_IdentityIiESt4lessIiESaIiEE5clearEv(%"class.std::_Rb_tree"* nonnull align 8 dereferenceable(48) %14) #2, !llfi_index !606
  br label %34, !llfi_index !607

25:                                               ; preds = %22
  br label %26, !llfi_index !608

26:                                               ; preds = %28, %25
  %27 = call zeroext i1 @_ZStneRKSt23_Rb_tree_const_iteratorIiES2_(%"struct.std::_Rb_tree_const_iterator"* nonnull align 8 dereferenceable(8) %4, %"struct.std::_Rb_tree_const_iterator"* nonnull align 8 dereferenceable(8) %5) #2, !llfi_index !609
  br i1 %27, label %28, label %33, !llfi_index !610

28:                                               ; preds = %26
  %29 = call %"struct.std::_Rb_tree_node_base"* @_ZNSt23_Rb_tree_const_iteratorIiEppEi(%"struct.std::_Rb_tree_const_iterator"* nonnull align 8 dereferenceable(8) %4, i32 0) #2, !llfi_index !611
  %30 = getelementptr inbounds %"struct.std::_Rb_tree_const_iterator", %"struct.std::_Rb_tree_const_iterator"* %11, i32 0, i32 0, !llfi_index !612
  store %"struct.std::_Rb_tree_node_base"* %29, %"struct.std::_Rb_tree_node_base"** %30, align 8, !llfi_index !613
  %31 = getelementptr inbounds %"struct.std::_Rb_tree_const_iterator", %"struct.std::_Rb_tree_const_iterator"* %11, i32 0, i32 0, !llfi_index !614
  %32 = load %"struct.std::_Rb_tree_node_base"*, %"struct.std::_Rb_tree_node_base"** %31, align 8, !llfi_index !615
  call void @_ZNSt8_Rb_treeIiiSt9_IdentityIiESt4lessIiESaIiEE12_M_erase_auxESt23_Rb_tree_const_iteratorIiE(%"class.std::_Rb_tree"* nonnull align 8 dereferenceable(48) %14, %"struct.std::_Rb_tree_node_base"* %32), !llfi_index !616
  br label %26, !llvm.loop !617, !llfi_index !618

33:                                               ; preds = %26
  br label %34, !llfi_index !619

34:                                               ; preds = %33, %24
  ret void, !llfi_index !620
}

; Function Attrs: mustprogress noinline nounwind uwtable
define linkonce_odr dso_local %"struct.std::_Rb_tree_node_base"* @_ZNSt8_Rb_treeIiiSt9_IdentityIiESt4lessIiESaIiEE5beginEv(%"class.std::_Rb_tree"* nonnull align 8 dereferenceable(48) %0) #4 comdat align 2 {
  %2 = alloca %"struct.std::_Rb_tree_const_iterator", align 8, !llfi_index !621
  %3 = alloca %"class.std::_Rb_tree"*, align 8, !llfi_index !622
  store %"class.std::_Rb_tree"* %0, %"class.std::_Rb_tree"** %3, align 8, !llfi_index !623
  %4 = load %"class.std::_Rb_tree"*, %"class.std::_Rb_tree"** %3, align 8, !llfi_index !624
  %5 = getelementptr inbounds %"class.std::_Rb_tree", %"class.std::_Rb_tree"* %4, i32 0, i32 0, !llfi_index !625
  %6 = bitcast %"struct.std::_Rb_tree<int, int, std::_Identity<int>, std::less<int>>::_Rb_tree_impl"* %5 to i8*, !llfi_index !626
  %7 = getelementptr inbounds i8, i8* %6, i64 8, !llfi_index !627
  %8 = bitcast i8* %7 to %"struct.std::_Rb_tree_header"*, !llfi_index !628
  %9 = getelementptr inbounds %"struct.std::_Rb_tree_header", %"struct.std::_Rb_tree_header"* %8, i32 0, i32 0, !llfi_index !629
  %10 = getelementptr inbounds %"struct.std::_Rb_tree_node_base", %"struct.std::_Rb_tree_node_base"* %9, i32 0, i32 2, !llfi_index !630
  %11 = load %"struct.std::_Rb_tree_node_base"*, %"struct.std::_Rb_tree_node_base"** %10, align 8, !llfi_index !631
  call void @_ZNSt17_Rb_tree_iteratorIiEC2EPSt18_Rb_tree_node_base(%"struct.std::_Rb_tree_const_iterator"* nonnull align 8 dereferenceable(8) %2, %"struct.std::_Rb_tree_node_base"* %11) #2, !llfi_index !632
  %12 = getelementptr inbounds %"struct.std::_Rb_tree_const_iterator", %"struct.std::_Rb_tree_const_iterator"* %2, i32 0, i32 0, !llfi_index !633
  %13 = load %"struct.std::_Rb_tree_node_base"*, %"struct.std::_Rb_tree_node_base"** %12, align 8, !llfi_index !634
  ret %"struct.std::_Rb_tree_node_base"* %13, !llfi_index !635
}

; Function Attrs: mustprogress noinline nounwind uwtable
define linkonce_odr dso_local zeroext i1 @_ZSteqRKSt23_Rb_tree_const_iteratorIiES2_(%"struct.std::_Rb_tree_const_iterator"* nonnull align 8 dereferenceable(8) %0, %"struct.std::_Rb_tree_const_iterator"* nonnull align 8 dereferenceable(8) %1) #4 comdat {
  %3 = alloca %"struct.std::_Rb_tree_const_iterator"*, align 8, !llfi_index !636
  %4 = alloca %"struct.std::_Rb_tree_const_iterator"*, align 8, !llfi_index !637
  store %"struct.std::_Rb_tree_const_iterator"* %0, %"struct.std::_Rb_tree_const_iterator"** %3, align 8, !llfi_index !638
  store %"struct.std::_Rb_tree_const_iterator"* %1, %"struct.std::_Rb_tree_const_iterator"** %4, align 8, !llfi_index !639
  %5 = load %"struct.std::_Rb_tree_const_iterator"*, %"struct.std::_Rb_tree_const_iterator"** %3, align 8, !llfi_index !640
  %6 = getelementptr inbounds %"struct.std::_Rb_tree_const_iterator", %"struct.std::_Rb_tree_const_iterator"* %5, i32 0, i32 0, !llfi_index !641
  %7 = load %"struct.std::_Rb_tree_node_base"*, %"struct.std::_Rb_tree_node_base"** %6, align 8, !llfi_index !642
  %8 = load %"struct.std::_Rb_tree_const_iterator"*, %"struct.std::_Rb_tree_const_iterator"** %4, align 8, !llfi_index !643
  %9 = getelementptr inbounds %"struct.std::_Rb_tree_const_iterator", %"struct.std::_Rb_tree_const_iterator"* %8, i32 0, i32 0, !llfi_index !644
  %10 = load %"struct.std::_Rb_tree_node_base"*, %"struct.std::_Rb_tree_node_base"** %9, align 8, !llfi_index !645
  %11 = icmp eq %"struct.std::_Rb_tree_node_base"* %7, %10, !llfi_index !646
  ret i1 %11, !llfi_index !647
}

; Function Attrs: mustprogress noinline nounwind uwtable
define linkonce_odr dso_local %"struct.std::_Rb_tree_node_base"* @_ZNSt8_Rb_treeIiiSt9_IdentityIiESt4lessIiESaIiEE3endEv(%"class.std::_Rb_tree"* nonnull align 8 dereferenceable(48) %0) #4 comdat align 2 {
  %2 = alloca %"struct.std::_Rb_tree_const_iterator", align 8, !llfi_index !648
  %3 = alloca %"class.std::_Rb_tree"*, align 8, !llfi_index !649
  store %"class.std::_Rb_tree"* %0, %"class.std::_Rb_tree"** %3, align 8, !llfi_index !650
  %4 = load %"class.std::_Rb_tree"*, %"class.std::_Rb_tree"** %3, align 8, !llfi_index !651
  %5 = getelementptr inbounds %"class.std::_Rb_tree", %"class.std::_Rb_tree"* %4, i32 0, i32 0, !llfi_index !652
  %6 = bitcast %"struct.std::_Rb_tree<int, int, std::_Identity<int>, std::less<int>>::_Rb_tree_impl"* %5 to i8*, !llfi_index !653
  %7 = getelementptr inbounds i8, i8* %6, i64 8, !llfi_index !654
  %8 = bitcast i8* %7 to %"struct.std::_Rb_tree_header"*, !llfi_index !655
  %9 = getelementptr inbounds %"struct.std::_Rb_tree_header", %"struct.std::_Rb_tree_header"* %8, i32 0, i32 0, !llfi_index !656
  call void @_ZNSt17_Rb_tree_iteratorIiEC2EPSt18_Rb_tree_node_base(%"struct.std::_Rb_tree_const_iterator"* nonnull align 8 dereferenceable(8) %2, %"struct.std::_Rb_tree_node_base"* %9) #2, !llfi_index !657
  %10 = getelementptr inbounds %"struct.std::_Rb_tree_const_iterator", %"struct.std::_Rb_tree_const_iterator"* %2, i32 0, i32 0, !llfi_index !658
  %11 = load %"struct.std::_Rb_tree_node_base"*, %"struct.std::_Rb_tree_node_base"** %10, align 8, !llfi_index !659
  ret %"struct.std::_Rb_tree_node_base"* %11, !llfi_index !660
}

; Function Attrs: mustprogress noinline nounwind uwtable
define linkonce_odr dso_local void @_ZNSt8_Rb_treeIiiSt9_IdentityIiESt4lessIiESaIiEE5clearEv(%"class.std::_Rb_tree"* nonnull align 8 dereferenceable(48) %0) #4 comdat align 2 personality i8* bitcast (i32 (...)* @__gxx_personality_v0 to i8*) {
  %2 = alloca %"class.std::_Rb_tree"*, align 8, !llfi_index !661
  store %"class.std::_Rb_tree"* %0, %"class.std::_Rb_tree"** %2, align 8, !llfi_index !662
  %3 = load %"class.std::_Rb_tree"*, %"class.std::_Rb_tree"** %2, align 8, !llfi_index !663
  %4 = call %"struct.std::_Rb_tree_node"* @_ZNSt8_Rb_treeIiiSt9_IdentityIiESt4lessIiESaIiEE8_M_beginEv(%"class.std::_Rb_tree"* nonnull align 8 dereferenceable(48) %3) #2, !llfi_index !664
  invoke void @_ZNSt8_Rb_treeIiiSt9_IdentityIiESt4lessIiESaIiEE8_M_eraseEPSt13_Rb_tree_nodeIiE(%"class.std::_Rb_tree"* nonnull align 8 dereferenceable(48) %3, %"struct.std::_Rb_tree_node"* %4)
          to label %5 unwind label %10, !llfi_index !665

5:                                                ; preds = %1
  %6 = getelementptr inbounds %"class.std::_Rb_tree", %"class.std::_Rb_tree"* %3, i32 0, i32 0, !llfi_index !666
  %7 = bitcast %"struct.std::_Rb_tree<int, int, std::_Identity<int>, std::less<int>>::_Rb_tree_impl"* %6 to i8*, !llfi_index !667
  %8 = getelementptr inbounds i8, i8* %7, i64 8, !llfi_index !668
  %9 = bitcast i8* %8 to %"struct.std::_Rb_tree_header"*, !llfi_index !669
  call void @_ZNSt15_Rb_tree_header8_M_resetEv(%"struct.std::_Rb_tree_header"* nonnull align 8 dereferenceable(40) %9), !llfi_index !670
  ret void, !llfi_index !671

10:                                               ; preds = %1
  %11 = landingpad { i8*, i32 }
          catch i8* null, !llfi_index !672
  %12 = extractvalue { i8*, i32 } %11, 0, !llfi_index !673
  call void @__clang_call_terminate(i8* %12) #15, !llfi_index !674
  unreachable, !llfi_index !675
}

; Function Attrs: mustprogress noinline nounwind uwtable
define linkonce_odr dso_local void @_ZNSt8_Rb_treeIiiSt9_IdentityIiESt4lessIiESaIiEE12_M_erase_auxESt23_Rb_tree_const_iteratorIiE(%"class.std::_Rb_tree"* nonnull align 8 dereferenceable(48) %0, %"struct.std::_Rb_tree_node_base"* %1) #4 comdat align 2 {
  %3 = alloca %"struct.std::_Rb_tree_const_iterator", align 8, !llfi_index !676
  %4 = alloca %"class.std::_Rb_tree"*, align 8, !llfi_index !677
  %5 = alloca %"struct.std::_Rb_tree_node"*, align 8, !llfi_index !678
  %6 = getelementptr inbounds %"struct.std::_Rb_tree_const_iterator", %"struct.std::_Rb_tree_const_iterator"* %3, i32 0, i32 0, !llfi_index !679
  store %"struct.std::_Rb_tree_node_base"* %1, %"struct.std::_Rb_tree_node_base"** %6, align 8, !llfi_index !680
  store %"class.std::_Rb_tree"* %0, %"class.std::_Rb_tree"** %4, align 8, !llfi_index !681
  %7 = load %"class.std::_Rb_tree"*, %"class.std::_Rb_tree"** %4, align 8, !llfi_index !682
  %8 = getelementptr inbounds %"struct.std::_Rb_tree_const_iterator", %"struct.std::_Rb_tree_const_iterator"* %3, i32 0, i32 0, !llfi_index !683
  %9 = load %"struct.std::_Rb_tree_node_base"*, %"struct.std::_Rb_tree_node_base"** %8, align 8, !llfi_index !684
  %10 = getelementptr inbounds %"class.std::_Rb_tree", %"class.std::_Rb_tree"* %7, i32 0, i32 0, !llfi_index !685
  %11 = bitcast %"struct.std::_Rb_tree<int, int, std::_Identity<int>, std::less<int>>::_Rb_tree_impl"* %10 to i8*, !llfi_index !686
  %12 = getelementptr inbounds i8, i8* %11, i64 8, !llfi_index !687
  %13 = bitcast i8* %12 to %"struct.std::_Rb_tree_header"*, !llfi_index !688
  %14 = getelementptr inbounds %"struct.std::_Rb_tree_header", %"struct.std::_Rb_tree_header"* %13, i32 0, i32 0, !llfi_index !689
  %15 = call %"struct.std::_Rb_tree_node_base"* @_ZSt28_Rb_tree_rebalance_for_erasePSt18_Rb_tree_node_baseRS_(%"struct.std::_Rb_tree_node_base"* %9, %"struct.std::_Rb_tree_node_base"* nonnull align 8 dereferenceable(32) %14) #2, !llfi_index !690
  %16 = bitcast %"struct.std::_Rb_tree_node_base"* %15 to %"struct.std::_Rb_tree_node"*, !llfi_index !691
  store %"struct.std::_Rb_tree_node"* %16, %"struct.std::_Rb_tree_node"** %5, align 8, !llfi_index !692
  %17 = load %"struct.std::_Rb_tree_node"*, %"struct.std::_Rb_tree_node"** %5, align 8, !llfi_index !693
  call void @_ZNSt8_Rb_treeIiiSt9_IdentityIiESt4lessIiESaIiEE12_M_drop_nodeEPSt13_Rb_tree_nodeIiE(%"class.std::_Rb_tree"* nonnull align 8 dereferenceable(48) %7, %"struct.std::_Rb_tree_node"* %17) #2, !llfi_index !694
  %18 = getelementptr inbounds %"class.std::_Rb_tree", %"class.std::_Rb_tree"* %7, i32 0, i32 0, !llfi_index !695
  %19 = bitcast %"struct.std::_Rb_tree<int, int, std::_Identity<int>, std::less<int>>::_Rb_tree_impl"* %18 to i8*, !llfi_index !696
  %20 = getelementptr inbounds i8, i8* %19, i64 8, !llfi_index !697
  %21 = bitcast i8* %20 to %"struct.std::_Rb_tree_header"*, !llfi_index !698
  %22 = getelementptr inbounds %"struct.std::_Rb_tree_header", %"struct.std::_Rb_tree_header"* %21, i32 0, i32 1, !llfi_index !699
  %23 = load i64, i64* %22, align 8, !llfi_index !700
  %24 = add i64 %23, -1, !llfi_index !701
  store i64 %24, i64* %22, align 8, !llfi_index !702
  ret void, !llfi_index !703
}

; Function Attrs: nounwind
declare dso_local %"struct.std::_Rb_tree_node_base"* @_ZSt28_Rb_tree_rebalance_for_erasePSt18_Rb_tree_node_baseRS_(%"struct.std::_Rb_tree_node_base"*, %"struct.std::_Rb_tree_node_base"* nonnull align 8 dereferenceable(32)) #3

; Function Attrs: mustprogress noinline nounwind uwtable
define linkonce_odr dso_local void @_ZNSt8_Rb_treeIiiSt9_IdentityIiESt4lessIiESaIiEE12_M_drop_nodeEPSt13_Rb_tree_nodeIiE(%"class.std::_Rb_tree"* nonnull align 8 dereferenceable(48) %0, %"struct.std::_Rb_tree_node"* %1) #4 comdat align 2 {
  %3 = alloca %"class.std::_Rb_tree"*, align 8, !llfi_index !704
  %4 = alloca %"struct.std::_Rb_tree_node"*, align 8, !llfi_index !705
  store %"class.std::_Rb_tree"* %0, %"class.std::_Rb_tree"** %3, align 8, !llfi_index !706
  store %"struct.std::_Rb_tree_node"* %1, %"struct.std::_Rb_tree_node"** %4, align 8, !llfi_index !707
  %5 = load %"class.std::_Rb_tree"*, %"class.std::_Rb_tree"** %3, align 8, !llfi_index !708
  %6 = load %"struct.std::_Rb_tree_node"*, %"struct.std::_Rb_tree_node"** %4, align 8, !llfi_index !709
  call void @_ZNSt8_Rb_treeIiiSt9_IdentityIiESt4lessIiESaIiEE15_M_destroy_nodeEPSt13_Rb_tree_nodeIiE(%"class.std::_Rb_tree"* nonnull align 8 dereferenceable(48) %5, %"struct.std::_Rb_tree_node"* %6) #2, !llfi_index !710
  %7 = load %"struct.std::_Rb_tree_node"*, %"struct.std::_Rb_tree_node"** %4, align 8, !llfi_index !711
  call void @_ZNSt8_Rb_treeIiiSt9_IdentityIiESt4lessIiESaIiEE11_M_put_nodeEPSt13_Rb_tree_nodeIiE(%"class.std::_Rb_tree"* nonnull align 8 dereferenceable(48) %5, %"struct.std::_Rb_tree_node"* %7) #2, !llfi_index !712
  ret void, !llfi_index !713
}

; Function Attrs: mustprogress noinline nounwind uwtable
define linkonce_odr dso_local void @_ZNSt8_Rb_treeIiiSt9_IdentityIiESt4lessIiESaIiEE15_M_destroy_nodeEPSt13_Rb_tree_nodeIiE(%"class.std::_Rb_tree"* nonnull align 8 dereferenceable(48) %0, %"struct.std::_Rb_tree_node"* %1) #4 comdat align 2 personality i8* bitcast (i32 (...)* @__gxx_personality_v0 to i8*) {
  %3 = alloca %"class.std::_Rb_tree"*, align 8, !llfi_index !714
  %4 = alloca %"struct.std::_Rb_tree_node"*, align 8, !llfi_index !715
  store %"class.std::_Rb_tree"* %0, %"class.std::_Rb_tree"** %3, align 8, !llfi_index !716
  store %"struct.std::_Rb_tree_node"* %1, %"struct.std::_Rb_tree_node"** %4, align 8, !llfi_index !717
  %5 = load %"class.std::_Rb_tree"*, %"class.std::_Rb_tree"** %3, align 8, !llfi_index !718
  %6 = call nonnull align 1 dereferenceable(1) %"class.std::ios_base::Init"* @_ZNSt8_Rb_treeIiiSt9_IdentityIiESt4lessIiESaIiEE21_M_get_Node_allocatorEv(%"class.std::_Rb_tree"* nonnull align 8 dereferenceable(48) %5) #2, !llfi_index !719
  %7 = load %"struct.std::_Rb_tree_node"*, %"struct.std::_Rb_tree_node"** %4, align 8, !llfi_index !720
  %8 = invoke i32* @_ZNSt13_Rb_tree_nodeIiE9_M_valptrEv(%"struct.std::_Rb_tree_node"* nonnull align 8 dereferenceable(36) %7)
          to label %9 unwind label %11, !llfi_index !721

9:                                                ; preds = %2
  call void @_ZNSt16allocator_traitsISaISt13_Rb_tree_nodeIiEEE7destroyIiEEvRS2_PT_(%"class.std::ios_base::Init"* nonnull align 1 dereferenceable(1) %6, i32* %8) #2, !llfi_index !722
  %10 = load %"struct.std::_Rb_tree_node"*, %"struct.std::_Rb_tree_node"** %4, align 8, !llfi_index !723
  ret void, !llfi_index !724

11:                                               ; preds = %2
  %12 = landingpad { i8*, i32 }
          catch i8* null, !llfi_index !725
  %13 = extractvalue { i8*, i32 } %12, 0, !llfi_index !726
  call void @__clang_call_terminate(i8* %13) #15, !llfi_index !727
  unreachable, !llfi_index !728
}

; Function Attrs: mustprogress noinline nounwind uwtable
define linkonce_odr dso_local void @_ZNSt8_Rb_treeIiiSt9_IdentityIiESt4lessIiESaIiEE11_M_put_nodeEPSt13_Rb_tree_nodeIiE(%"class.std::_Rb_tree"* nonnull align 8 dereferenceable(48) %0, %"struct.std::_Rb_tree_node"* %1) #4 comdat align 2 personality i8* bitcast (i32 (...)* @__gxx_personality_v0 to i8*) {
  %3 = alloca %"class.std::_Rb_tree"*, align 8, !llfi_index !729
  %4 = alloca %"struct.std::_Rb_tree_node"*, align 8, !llfi_index !730
  store %"class.std::_Rb_tree"* %0, %"class.std::_Rb_tree"** %3, align 8, !llfi_index !731
  store %"struct.std::_Rb_tree_node"* %1, %"struct.std::_Rb_tree_node"** %4, align 8, !llfi_index !732
  %5 = load %"class.std::_Rb_tree"*, %"class.std::_Rb_tree"** %3, align 8, !llfi_index !733
  %6 = call nonnull align 1 dereferenceable(1) %"class.std::ios_base::Init"* @_ZNSt8_Rb_treeIiiSt9_IdentityIiESt4lessIiESaIiEE21_M_get_Node_allocatorEv(%"class.std::_Rb_tree"* nonnull align 8 dereferenceable(48) %5) #2, !llfi_index !734
  %7 = load %"struct.std::_Rb_tree_node"*, %"struct.std::_Rb_tree_node"** %4, align 8, !llfi_index !735
  invoke void @_ZNSt16allocator_traitsISaISt13_Rb_tree_nodeIiEEE10deallocateERS2_PS1_m(%"class.std::ios_base::Init"* nonnull align 1 dereferenceable(1) %6, %"struct.std::_Rb_tree_node"* %7, i64 1)
          to label %8 unwind label %9, !llfi_index !736

8:                                                ; preds = %2
  ret void, !llfi_index !737

9:                                                ; preds = %2
  %10 = landingpad { i8*, i32 }
          catch i8* null, !llfi_index !738
  %11 = extractvalue { i8*, i32 } %10, 0, !llfi_index !739
  call void @__clang_call_terminate(i8* %11) #15, !llfi_index !740
  unreachable, !llfi_index !741
}

; Function Attrs: mustprogress noinline nounwind uwtable
define linkonce_odr dso_local nonnull align 1 dereferenceable(1) %"class.std::ios_base::Init"* @_ZNSt8_Rb_treeIiiSt9_IdentityIiESt4lessIiESaIiEE21_M_get_Node_allocatorEv(%"class.std::_Rb_tree"* nonnull align 8 dereferenceable(48) %0) #4 comdat align 2 {
  %2 = alloca %"class.std::_Rb_tree"*, align 8, !llfi_index !742
  store %"class.std::_Rb_tree"* %0, %"class.std::_Rb_tree"** %2, align 8, !llfi_index !743
  %3 = load %"class.std::_Rb_tree"*, %"class.std::_Rb_tree"** %2, align 8, !llfi_index !744
  %4 = getelementptr inbounds %"class.std::_Rb_tree", %"class.std::_Rb_tree"* %3, i32 0, i32 0, !llfi_index !745
  %5 = bitcast %"struct.std::_Rb_tree<int, int, std::_Identity<int>, std::less<int>>::_Rb_tree_impl"* %4 to %"class.std::ios_base::Init"*, !llfi_index !746
  ret %"class.std::ios_base::Init"* %5, !llfi_index !747
}

; Function Attrs: mustprogress noinline uwtable
define linkonce_odr dso_local void @_ZNSt16allocator_traitsISaISt13_Rb_tree_nodeIiEEE10deallocateERS2_PS1_m(%"class.std::ios_base::Init"* nonnull align 1 dereferenceable(1) %0, %"struct.std::_Rb_tree_node"* %1, i64 %2) #7 comdat align 2 {
  %4 = alloca %"class.std::ios_base::Init"*, align 8, !llfi_index !748
  %5 = alloca %"struct.std::_Rb_tree_node"*, align 8, !llfi_index !749
  %6 = alloca i64, align 8, !llfi_index !750
  store %"class.std::ios_base::Init"* %0, %"class.std::ios_base::Init"** %4, align 8, !llfi_index !751
  store %"struct.std::_Rb_tree_node"* %1, %"struct.std::_Rb_tree_node"** %5, align 8, !llfi_index !752
  store i64 %2, i64* %6, align 8, !llfi_index !753
  %7 = load %"class.std::ios_base::Init"*, %"class.std::ios_base::Init"** %4, align 8, !llfi_index !754
  %8 = bitcast %"class.std::ios_base::Init"* %7 to %"class.std::ios_base::Init"*, !llfi_index !755
  %9 = load %"struct.std::_Rb_tree_node"*, %"struct.std::_Rb_tree_node"** %5, align 8, !llfi_index !756
  %10 = load i64, i64* %6, align 8, !llfi_index !757
  call void @_ZN9__gnu_cxx13new_allocatorISt13_Rb_tree_nodeIiEE10deallocateEPS2_m(%"class.std::ios_base::Init"* nonnull align 1 dereferenceable(1) %8, %"struct.std::_Rb_tree_node"* %9, i64 %10), !llfi_index !758
  ret void, !llfi_index !759
}

; Function Attrs: noinline noreturn nounwind
define linkonce_odr hidden void @__clang_call_terminate(i8* %0) #8 comdat {
  %2 = call i8* @__cxa_begin_catch(i8* %0) #2, !llfi_index !760
  call void @_ZSt9terminatev() #15, !llfi_index !761
  unreachable, !llfi_index !762
}

declare dso_local i8* @__cxa_begin_catch(i8*)

declare dso_local void @_ZSt9terminatev()

; Function Attrs: mustprogress noinline nounwind uwtable
define linkonce_odr dso_local void @_ZN9__gnu_cxx13new_allocatorISt13_Rb_tree_nodeIiEE10deallocateEPS2_m(%"class.std::ios_base::Init"* nonnull align 1 dereferenceable(1) %0, %"struct.std::_Rb_tree_node"* %1, i64 %2) #4 comdat align 2 {
  %4 = alloca %"class.std::ios_base::Init"*, align 8, !llfi_index !763
  %5 = alloca %"struct.std::_Rb_tree_node"*, align 8, !llfi_index !764
  %6 = alloca i64, align 8, !llfi_index !765
  store %"class.std::ios_base::Init"* %0, %"class.std::ios_base::Init"** %4, align 8, !llfi_index !766
  store %"struct.std::_Rb_tree_node"* %1, %"struct.std::_Rb_tree_node"** %5, align 8, !llfi_index !767
  store i64 %2, i64* %6, align 8, !llfi_index !768
  %7 = load %"class.std::ios_base::Init"*, %"class.std::ios_base::Init"** %4, align 8, !llfi_index !769
  %8 = load %"struct.std::_Rb_tree_node"*, %"struct.std::_Rb_tree_node"** %5, align 8, !llfi_index !770
  %9 = bitcast %"struct.std::_Rb_tree_node"* %8 to i8*, !llfi_index !771
  call void @_ZdlPv(i8* %9) #2, !llfi_index !772
  ret void, !llfi_index !773
}

; Function Attrs: nobuiltin nounwind
declare dso_local void @_ZdlPv(i8*) #9

; Function Attrs: mustprogress noinline nounwind uwtable
define linkonce_odr dso_local i32* @_ZNSt13_Rb_tree_nodeIiE9_M_valptrEv(%"struct.std::_Rb_tree_node"* nonnull align 8 dereferenceable(36) %0) #4 comdat align 2 {
  %2 = alloca %"struct.std::_Rb_tree_node"*, align 8, !llfi_index !774
  store %"struct.std::_Rb_tree_node"* %0, %"struct.std::_Rb_tree_node"** %2, align 8, !llfi_index !775
  %3 = load %"struct.std::_Rb_tree_node"*, %"struct.std::_Rb_tree_node"** %2, align 8, !llfi_index !776
  %4 = getelementptr inbounds %"struct.std::_Rb_tree_node", %"struct.std::_Rb_tree_node"* %3, i32 0, i32 1, !llfi_index !777
  %5 = call i32* @_ZN9__gnu_cxx16__aligned_membufIiE6_M_ptrEv(%"struct.__gnu_cxx::__aligned_membuf"* nonnull align 4 dereferenceable(4) %4) #2, !llfi_index !778
  ret i32* %5, !llfi_index !779
}

; Function Attrs: mustprogress noinline nounwind uwtable
define linkonce_odr dso_local void @_ZNSt16allocator_traitsISaISt13_Rb_tree_nodeIiEEE7destroyIiEEvRS2_PT_(%"class.std::ios_base::Init"* nonnull align 1 dereferenceable(1) %0, i32* %1) #4 comdat align 2 {
  %3 = alloca %"class.std::ios_base::Init"*, align 8, !llfi_index !780
  %4 = alloca i32*, align 8, !llfi_index !781
  store %"class.std::ios_base::Init"* %0, %"class.std::ios_base::Init"** %3, align 8, !llfi_index !782
  store i32* %1, i32** %4, align 8, !llfi_index !783
  %5 = load %"class.std::ios_base::Init"*, %"class.std::ios_base::Init"** %3, align 8, !llfi_index !784
  %6 = bitcast %"class.std::ios_base::Init"* %5 to %"class.std::ios_base::Init"*, !llfi_index !785
  %7 = load i32*, i32** %4, align 8, !llfi_index !786
  call void @_ZN9__gnu_cxx13new_allocatorISt13_Rb_tree_nodeIiEE7destroyIiEEvPT_(%"class.std::ios_base::Init"* nonnull align 1 dereferenceable(1) %6, i32* %7) #2, !llfi_index !787
  ret void, !llfi_index !788
}

; Function Attrs: mustprogress noinline nounwind uwtable
define linkonce_odr dso_local void @_ZN9__gnu_cxx13new_allocatorISt13_Rb_tree_nodeIiEE7destroyIiEEvPT_(%"class.std::ios_base::Init"* nonnull align 1 dereferenceable(1) %0, i32* %1) #4 comdat align 2 {
  %3 = alloca %"class.std::ios_base::Init"*, align 8, !llfi_index !789
  %4 = alloca i32*, align 8, !llfi_index !790
  store %"class.std::ios_base::Init"* %0, %"class.std::ios_base::Init"** %3, align 8, !llfi_index !791
  store i32* %1, i32** %4, align 8, !llfi_index !792
  %5 = load %"class.std::ios_base::Init"*, %"class.std::ios_base::Init"** %3, align 8, !llfi_index !793
  %6 = load i32*, i32** %4, align 8, !llfi_index !794
  ret void, !llfi_index !795
}

; Function Attrs: mustprogress noinline nounwind uwtable
define linkonce_odr dso_local i32* @_ZN9__gnu_cxx16__aligned_membufIiE6_M_ptrEv(%"struct.__gnu_cxx::__aligned_membuf"* nonnull align 4 dereferenceable(4) %0) #4 comdat align 2 {
  %2 = alloca %"struct.__gnu_cxx::__aligned_membuf"*, align 8, !llfi_index !796
  store %"struct.__gnu_cxx::__aligned_membuf"* %0, %"struct.__gnu_cxx::__aligned_membuf"** %2, align 8, !llfi_index !797
  %3 = load %"struct.__gnu_cxx::__aligned_membuf"*, %"struct.__gnu_cxx::__aligned_membuf"** %2, align 8, !llfi_index !798
  %4 = call i8* @_ZN9__gnu_cxx16__aligned_membufIiE7_M_addrEv(%"struct.__gnu_cxx::__aligned_membuf"* nonnull align 4 dereferenceable(4) %3) #2, !llfi_index !799
  %5 = bitcast i8* %4 to i32*, !llfi_index !800
  ret i32* %5, !llfi_index !801
}

; Function Attrs: mustprogress noinline nounwind uwtable
define linkonce_odr dso_local i8* @_ZN9__gnu_cxx16__aligned_membufIiE7_M_addrEv(%"struct.__gnu_cxx::__aligned_membuf"* nonnull align 4 dereferenceable(4) %0) #4 comdat align 2 {
  %2 = alloca %"struct.__gnu_cxx::__aligned_membuf"*, align 8, !llfi_index !802
  store %"struct.__gnu_cxx::__aligned_membuf"* %0, %"struct.__gnu_cxx::__aligned_membuf"** %2, align 8, !llfi_index !803
  %3 = load %"struct.__gnu_cxx::__aligned_membuf"*, %"struct.__gnu_cxx::__aligned_membuf"** %2, align 8, !llfi_index !804
  %4 = getelementptr inbounds %"struct.__gnu_cxx::__aligned_membuf", %"struct.__gnu_cxx::__aligned_membuf"* %3, i32 0, i32 0, !llfi_index !805
  %5 = bitcast [4 x i8]* %4 to i8*, !llfi_index !806
  ret i8* %5, !llfi_index !807
}

; Function Attrs: mustprogress noinline nounwind uwtable
define linkonce_odr dso_local %"struct.std::_Rb_tree_node"* @_ZNSt8_Rb_treeIiiSt9_IdentityIiESt4lessIiESaIiEE8_M_beginEv(%"class.std::_Rb_tree"* nonnull align 8 dereferenceable(48) %0) #4 comdat align 2 {
  %2 = alloca %"class.std::_Rb_tree"*, align 8, !llfi_index !808
  store %"class.std::_Rb_tree"* %0, %"class.std::_Rb_tree"** %2, align 8, !llfi_index !809
  %3 = load %"class.std::_Rb_tree"*, %"class.std::_Rb_tree"** %2, align 8, !llfi_index !810
  %4 = getelementptr inbounds %"class.std::_Rb_tree", %"class.std::_Rb_tree"* %3, i32 0, i32 0, !llfi_index !811
  %5 = bitcast %"struct.std::_Rb_tree<int, int, std::_Identity<int>, std::less<int>>::_Rb_tree_impl"* %4 to i8*, !llfi_index !812
  %6 = getelementptr inbounds i8, i8* %5, i64 8, !llfi_index !813
  %7 = bitcast i8* %6 to %"struct.std::_Rb_tree_header"*, !llfi_index !814
  %8 = getelementptr inbounds %"struct.std::_Rb_tree_header", %"struct.std::_Rb_tree_header"* %7, i32 0, i32 0, !llfi_index !815
  %9 = getelementptr inbounds %"struct.std::_Rb_tree_node_base", %"struct.std::_Rb_tree_node_base"* %8, i32 0, i32 1, !llfi_index !816
  %10 = load %"struct.std::_Rb_tree_node_base"*, %"struct.std::_Rb_tree_node_base"** %9, align 8, !llfi_index !817
  %11 = bitcast %"struct.std::_Rb_tree_node_base"* %10 to %"struct.std::_Rb_tree_node"*, !llfi_index !818
  ret %"struct.std::_Rb_tree_node"* %11, !llfi_index !819
}

; Function Attrs: mustprogress noinline uwtable
define linkonce_odr dso_local void @_ZNSt8_Rb_treeIiiSt9_IdentityIiESt4lessIiESaIiEE8_M_eraseEPSt13_Rb_tree_nodeIiE(%"class.std::_Rb_tree"* nonnull align 8 dereferenceable(48) %0, %"struct.std::_Rb_tree_node"* %1) #7 comdat align 2 {
  %3 = alloca %"class.std::_Rb_tree"*, align 8, !llfi_index !820
  %4 = alloca %"struct.std::_Rb_tree_node"*, align 8, !llfi_index !821
  %5 = alloca %"struct.std::_Rb_tree_node"*, align 8, !llfi_index !822
  store %"class.std::_Rb_tree"* %0, %"class.std::_Rb_tree"** %3, align 8, !llfi_index !823
  store %"struct.std::_Rb_tree_node"* %1, %"struct.std::_Rb_tree_node"** %4, align 8, !llfi_index !824
  %6 = load %"class.std::_Rb_tree"*, %"class.std::_Rb_tree"** %3, align 8, !llfi_index !825
  br label %7, !llfi_index !826

7:                                                ; preds = %10, %2
  %8 = load %"struct.std::_Rb_tree_node"*, %"struct.std::_Rb_tree_node"** %4, align 8, !llfi_index !827
  %9 = icmp ne %"struct.std::_Rb_tree_node"* %8, null, !llfi_index !828
  br i1 %9, label %10, label %19, !llfi_index !829

10:                                               ; preds = %7
  %11 = load %"struct.std::_Rb_tree_node"*, %"struct.std::_Rb_tree_node"** %4, align 8, !llfi_index !830
  %12 = bitcast %"struct.std::_Rb_tree_node"* %11 to %"struct.std::_Rb_tree_node_base"*, !llfi_index !831
  %13 = call %"struct.std::_Rb_tree_node"* @_ZNSt8_Rb_treeIiiSt9_IdentityIiESt4lessIiESaIiEE8_S_rightEPSt18_Rb_tree_node_base(%"struct.std::_Rb_tree_node_base"* %12) #2, !llfi_index !832
  call void @_ZNSt8_Rb_treeIiiSt9_IdentityIiESt4lessIiESaIiEE8_M_eraseEPSt13_Rb_tree_nodeIiE(%"class.std::_Rb_tree"* nonnull align 8 dereferenceable(48) %6, %"struct.std::_Rb_tree_node"* %13), !llfi_index !833
  %14 = load %"struct.std::_Rb_tree_node"*, %"struct.std::_Rb_tree_node"** %4, align 8, !llfi_index !834
  %15 = bitcast %"struct.std::_Rb_tree_node"* %14 to %"struct.std::_Rb_tree_node_base"*, !llfi_index !835
  %16 = call %"struct.std::_Rb_tree_node"* @_ZNSt8_Rb_treeIiiSt9_IdentityIiESt4lessIiESaIiEE7_S_leftEPSt18_Rb_tree_node_base(%"struct.std::_Rb_tree_node_base"* %15) #2, !llfi_index !836
  store %"struct.std::_Rb_tree_node"* %16, %"struct.std::_Rb_tree_node"** %5, align 8, !llfi_index !837
  %17 = load %"struct.std::_Rb_tree_node"*, %"struct.std::_Rb_tree_node"** %4, align 8, !llfi_index !838
  call void @_ZNSt8_Rb_treeIiiSt9_IdentityIiESt4lessIiESaIiEE12_M_drop_nodeEPSt13_Rb_tree_nodeIiE(%"class.std::_Rb_tree"* nonnull align 8 dereferenceable(48) %6, %"struct.std::_Rb_tree_node"* %17) #2, !llfi_index !839
  %18 = load %"struct.std::_Rb_tree_node"*, %"struct.std::_Rb_tree_node"** %5, align 8, !llfi_index !840
  store %"struct.std::_Rb_tree_node"* %18, %"struct.std::_Rb_tree_node"** %4, align 8, !llfi_index !841
  br label %7, !llvm.loop !842, !llfi_index !843

19:                                               ; preds = %7
  ret void, !llfi_index !844
}

; Function Attrs: mustprogress noinline nounwind uwtable
define linkonce_odr dso_local void @_ZNSt15_Rb_tree_header8_M_resetEv(%"struct.std::_Rb_tree_header"* nonnull align 8 dereferenceable(40) %0) #4 comdat align 2 {
  %2 = alloca %"struct.std::_Rb_tree_header"*, align 8, !llfi_index !845
  store %"struct.std::_Rb_tree_header"* %0, %"struct.std::_Rb_tree_header"** %2, align 8, !llfi_index !846
  %3 = load %"struct.std::_Rb_tree_header"*, %"struct.std::_Rb_tree_header"** %2, align 8, !llfi_index !847
  %4 = getelementptr inbounds %"struct.std::_Rb_tree_header", %"struct.std::_Rb_tree_header"* %3, i32 0, i32 0, !llfi_index !848
  %5 = getelementptr inbounds %"struct.std::_Rb_tree_node_base", %"struct.std::_Rb_tree_node_base"* %4, i32 0, i32 1, !llfi_index !849
  store %"struct.std::_Rb_tree_node_base"* null, %"struct.std::_Rb_tree_node_base"** %5, align 8, !llfi_index !850
  %6 = getelementptr inbounds %"struct.std::_Rb_tree_header", %"struct.std::_Rb_tree_header"* %3, i32 0, i32 0, !llfi_index !851
  %7 = getelementptr inbounds %"struct.std::_Rb_tree_header", %"struct.std::_Rb_tree_header"* %3, i32 0, i32 0, !llfi_index !852
  %8 = getelementptr inbounds %"struct.std::_Rb_tree_node_base", %"struct.std::_Rb_tree_node_base"* %7, i32 0, i32 2, !llfi_index !853
  store %"struct.std::_Rb_tree_node_base"* %6, %"struct.std::_Rb_tree_node_base"** %8, align 8, !llfi_index !854
  %9 = getelementptr inbounds %"struct.std::_Rb_tree_header", %"struct.std::_Rb_tree_header"* %3, i32 0, i32 0, !llfi_index !855
  %10 = getelementptr inbounds %"struct.std::_Rb_tree_header", %"struct.std::_Rb_tree_header"* %3, i32 0, i32 0, !llfi_index !856
  %11 = getelementptr inbounds %"struct.std::_Rb_tree_node_base", %"struct.std::_Rb_tree_node_base"* %10, i32 0, i32 3, !llfi_index !857
  store %"struct.std::_Rb_tree_node_base"* %9, %"struct.std::_Rb_tree_node_base"** %11, align 8, !llfi_index !858
  %12 = getelementptr inbounds %"struct.std::_Rb_tree_header", %"struct.std::_Rb_tree_header"* %3, i32 0, i32 1, !llfi_index !859
  store i64 0, i64* %12, align 8, !llfi_index !860
  ret void, !llfi_index !861
}

; Function Attrs: mustprogress noinline nounwind uwtable
define linkonce_odr dso_local %"struct.std::_Rb_tree_node"* @_ZNSt8_Rb_treeIiiSt9_IdentityIiESt4lessIiESaIiEE8_S_rightEPSt18_Rb_tree_node_base(%"struct.std::_Rb_tree_node_base"* %0) #4 comdat align 2 {
  %2 = alloca %"struct.std::_Rb_tree_node_base"*, align 8, !llfi_index !862
  store %"struct.std::_Rb_tree_node_base"* %0, %"struct.std::_Rb_tree_node_base"** %2, align 8, !llfi_index !863
  %3 = load %"struct.std::_Rb_tree_node_base"*, %"struct.std::_Rb_tree_node_base"** %2, align 8, !llfi_index !864
  %4 = getelementptr inbounds %"struct.std::_Rb_tree_node_base", %"struct.std::_Rb_tree_node_base"* %3, i32 0, i32 3, !llfi_index !865
  %5 = load %"struct.std::_Rb_tree_node_base"*, %"struct.std::_Rb_tree_node_base"** %4, align 8, !llfi_index !866
  %6 = bitcast %"struct.std::_Rb_tree_node_base"* %5 to %"struct.std::_Rb_tree_node"*, !llfi_index !867
  ret %"struct.std::_Rb_tree_node"* %6, !llfi_index !868
}

; Function Attrs: mustprogress noinline nounwind uwtable
define linkonce_odr dso_local %"struct.std::_Rb_tree_node"* @_ZNSt8_Rb_treeIiiSt9_IdentityIiESt4lessIiESaIiEE7_S_leftEPSt18_Rb_tree_node_base(%"struct.std::_Rb_tree_node_base"* %0) #4 comdat align 2 {
  %2 = alloca %"struct.std::_Rb_tree_node_base"*, align 8, !llfi_index !869
  store %"struct.std::_Rb_tree_node_base"* %0, %"struct.std::_Rb_tree_node_base"** %2, align 8, !llfi_index !870
  %3 = load %"struct.std::_Rb_tree_node_base"*, %"struct.std::_Rb_tree_node_base"** %2, align 8, !llfi_index !871
  %4 = getelementptr inbounds %"struct.std::_Rb_tree_node_base", %"struct.std::_Rb_tree_node_base"* %3, i32 0, i32 2, !llfi_index !872
  %5 = load %"struct.std::_Rb_tree_node_base"*, %"struct.std::_Rb_tree_node_base"** %4, align 8, !llfi_index !873
  %6 = bitcast %"struct.std::_Rb_tree_node_base"* %5 to %"struct.std::_Rb_tree_node"*, !llfi_index !874
  ret %"struct.std::_Rb_tree_node"* %6, !llfi_index !875
}

; Function Attrs: noinline nounwind uwtable
define linkonce_odr dso_local void @_ZNSt17_Rb_tree_iteratorIiEC2EPSt18_Rb_tree_node_base(%"struct.std::_Rb_tree_const_iterator"* nonnull align 8 dereferenceable(8) %0, %"struct.std::_Rb_tree_node_base"* %1) unnamed_addr #6 comdat align 2 {
  %3 = alloca %"struct.std::_Rb_tree_const_iterator"*, align 8, !llfi_index !876
  %4 = alloca %"struct.std::_Rb_tree_node_base"*, align 8, !llfi_index !877
  store %"struct.std::_Rb_tree_const_iterator"* %0, %"struct.std::_Rb_tree_const_iterator"** %3, align 8, !llfi_index !878
  store %"struct.std::_Rb_tree_node_base"* %1, %"struct.std::_Rb_tree_node_base"** %4, align 8, !llfi_index !879
  %5 = load %"struct.std::_Rb_tree_const_iterator"*, %"struct.std::_Rb_tree_const_iterator"** %3, align 8, !llfi_index !880
  %6 = getelementptr inbounds %"struct.std::_Rb_tree_const_iterator", %"struct.std::_Rb_tree_const_iterator"* %5, i32 0, i32 0, !llfi_index !881
  %7 = load %"struct.std::_Rb_tree_node_base"*, %"struct.std::_Rb_tree_node_base"** %4, align 8, !llfi_index !882
  store %"struct.std::_Rb_tree_node_base"* %7, %"struct.std::_Rb_tree_node_base"** %6, align 8, !llfi_index !883
  ret void, !llfi_index !884
}

; Function Attrs: mustprogress noinline nounwind uwtable
define linkonce_odr dso_local %"struct.std::_Rb_tree_node_base"* @_ZNSt8_Rb_treeIiiSt9_IdentityIiESt4lessIiESaIiEE6_M_endEv(%"class.std::_Rb_tree"* nonnull align 8 dereferenceable(48) %0) #4 comdat align 2 {
  %2 = alloca %"class.std::_Rb_tree"*, align 8, !llfi_index !885
  store %"class.std::_Rb_tree"* %0, %"class.std::_Rb_tree"** %2, align 8, !llfi_index !886
  %3 = load %"class.std::_Rb_tree"*, %"class.std::_Rb_tree"** %2, align 8, !llfi_index !887
  %4 = getelementptr inbounds %"class.std::_Rb_tree", %"class.std::_Rb_tree"* %3, i32 0, i32 0, !llfi_index !888
  %5 = bitcast %"struct.std::_Rb_tree<int, int, std::_Identity<int>, std::less<int>>::_Rb_tree_impl"* %4 to i8*, !llfi_index !889
  %6 = getelementptr inbounds i8, i8* %5, i64 8, !llfi_index !890
  %7 = bitcast i8* %6 to %"struct.std::_Rb_tree_header"*, !llfi_index !891
  %8 = getelementptr inbounds %"struct.std::_Rb_tree_header", %"struct.std::_Rb_tree_header"* %7, i32 0, i32 0, !llfi_index !892
  ret %"struct.std::_Rb_tree_node_base"* %8, !llfi_index !893
}

; Function Attrs: mustprogress noinline uwtable
define linkonce_odr dso_local nonnull align 4 dereferenceable(4) i32* @_ZNSt8_Rb_treeIiiSt9_IdentityIiESt4lessIiESaIiEE6_S_keyEPKSt13_Rb_tree_nodeIiE(%"struct.std::_Rb_tree_node"* %0) #7 comdat align 2 {
  %2 = alloca %"struct.std::_Rb_tree_node"*, align 8, !llfi_index !894
  %3 = alloca %"class.std::ios_base::Init", align 1, !llfi_index !895
  store %"struct.std::_Rb_tree_node"* %0, %"struct.std::_Rb_tree_node"** %2, align 8, !llfi_index !896
  %4 = load %"struct.std::_Rb_tree_node"*, %"struct.std::_Rb_tree_node"** %2, align 8, !llfi_index !897
  %5 = call i32* @_ZNKSt13_Rb_tree_nodeIiE9_M_valptrEv(%"struct.std::_Rb_tree_node"* nonnull align 8 dereferenceable(36) %4), !llfi_index !898
  %6 = call nonnull align 4 dereferenceable(4) i32* @_ZNKSt9_IdentityIiEclERKi(%"class.std::ios_base::Init"* nonnull align 1 dereferenceable(1) %3, i32* nonnull align 4 dereferenceable(4) %5), !llfi_index !899
  ret i32* %6, !llfi_index !900
}

; Function Attrs: mustprogress noinline nounwind uwtable
define linkonce_odr dso_local zeroext i1 @_ZNKSt4lessIiEclERKiS2_(%"class.std::ios_base::Init"* nonnull align 1 dereferenceable(1) %0, i32* nonnull align 4 dereferenceable(4) %1, i32* nonnull align 4 dereferenceable(4) %2) #4 comdat align 2 {
  %4 = alloca %"class.std::ios_base::Init"*, align 8, !llfi_index !901
  %5 = alloca i32*, align 8, !llfi_index !902
  %6 = alloca i32*, align 8, !llfi_index !903
  store %"class.std::ios_base::Init"* %0, %"class.std::ios_base::Init"** %4, align 8, !llfi_index !904
  store i32* %1, i32** %5, align 8, !llfi_index !905
  store i32* %2, i32** %6, align 8, !llfi_index !906
  %7 = load %"class.std::ios_base::Init"*, %"class.std::ios_base::Init"** %4, align 8, !llfi_index !907
  %8 = load i32*, i32** %5, align 8, !llfi_index !908
  %9 = load i32, i32* %8, align 4, !llfi_index !909
  %10 = load i32*, i32** %6, align 8, !llfi_index !910
  %11 = load i32, i32* %10, align 4, !llfi_index !911
  %12 = icmp slt i32 %9, %11, !llfi_index !912
  ret i1 %12, !llfi_index !913
}

; Function Attrs: mustprogress noinline uwtable
define linkonce_odr dso_local %"struct.std::_Rb_tree_node_base"* @_ZNSt8_Rb_treeIiiSt9_IdentityIiESt4lessIiESaIiEE14_M_lower_boundEPSt13_Rb_tree_nodeIiEPSt18_Rb_tree_node_baseRKi(%"class.std::_Rb_tree"* nonnull align 8 dereferenceable(48) %0, %"struct.std::_Rb_tree_node"* %1, %"struct.std::_Rb_tree_node_base"* %2, i32* nonnull align 4 dereferenceable(4) %3) #7 comdat align 2 {
  %5 = alloca %"struct.std::_Rb_tree_const_iterator", align 8, !llfi_index !914
  %6 = alloca %"class.std::_Rb_tree"*, align 8, !llfi_index !915
  %7 = alloca %"struct.std::_Rb_tree_node"*, align 8, !llfi_index !916
  %8 = alloca %"struct.std::_Rb_tree_node_base"*, align 8, !llfi_index !917
  %9 = alloca i32*, align 8, !llfi_index !918
  store %"class.std::_Rb_tree"* %0, %"class.std::_Rb_tree"** %6, align 8, !llfi_index !919
  store %"struct.std::_Rb_tree_node"* %1, %"struct.std::_Rb_tree_node"** %7, align 8, !llfi_index !920
  store %"struct.std::_Rb_tree_node_base"* %2, %"struct.std::_Rb_tree_node_base"** %8, align 8, !llfi_index !921
  store i32* %3, i32** %9, align 8, !llfi_index !922
  %10 = load %"class.std::_Rb_tree"*, %"class.std::_Rb_tree"** %6, align 8, !llfi_index !923
  br label %11, !llfi_index !924

11:                                               ; preds = %32, %4
  %12 = load %"struct.std::_Rb_tree_node"*, %"struct.std::_Rb_tree_node"** %7, align 8, !llfi_index !925
  %13 = icmp ne %"struct.std::_Rb_tree_node"* %12, null, !llfi_index !926
  br i1 %13, label %14, label %33, !llfi_index !927

14:                                               ; preds = %11
  %15 = getelementptr inbounds %"class.std::_Rb_tree", %"class.std::_Rb_tree"* %10, i32 0, i32 0, !llfi_index !928
  %16 = bitcast %"struct.std::_Rb_tree<int, int, std::_Identity<int>, std::less<int>>::_Rb_tree_impl"* %15 to %"struct.std::_Rb_tree_key_compare"*, !llfi_index !929
  %17 = getelementptr inbounds %"struct.std::_Rb_tree_key_compare", %"struct.std::_Rb_tree_key_compare"* %16, i32 0, i32 0, !llfi_index !930
  %18 = load %"struct.std::_Rb_tree_node"*, %"struct.std::_Rb_tree_node"** %7, align 8, !llfi_index !931
  %19 = call nonnull align 4 dereferenceable(4) i32* @_ZNSt8_Rb_treeIiiSt9_IdentityIiESt4lessIiESaIiEE6_S_keyEPKSt13_Rb_tree_nodeIiE(%"struct.std::_Rb_tree_node"* %18), !llfi_index !932
  %20 = load i32*, i32** %9, align 8, !llfi_index !933
  %21 = call zeroext i1 @_ZNKSt4lessIiEclERKiS2_(%"class.std::ios_base::Init"* nonnull align 1 dereferenceable(1) %17, i32* nonnull align 4 dereferenceable(4) %19, i32* nonnull align 4 dereferenceable(4) %20), !llfi_index !934
  br i1 %21, label %28, label %22, !llfi_index !935

22:                                               ; preds = %14
  %23 = load %"struct.std::_Rb_tree_node"*, %"struct.std::_Rb_tree_node"** %7, align 8, !llfi_index !936
  %24 = bitcast %"struct.std::_Rb_tree_node"* %23 to %"struct.std::_Rb_tree_node_base"*, !llfi_index !937
  store %"struct.std::_Rb_tree_node_base"* %24, %"struct.std::_Rb_tree_node_base"** %8, align 8, !llfi_index !938
  %25 = load %"struct.std::_Rb_tree_node"*, %"struct.std::_Rb_tree_node"** %7, align 8, !llfi_index !939
  %26 = bitcast %"struct.std::_Rb_tree_node"* %25 to %"struct.std::_Rb_tree_node_base"*, !llfi_index !940
  %27 = call %"struct.std::_Rb_tree_node"* @_ZNSt8_Rb_treeIiiSt9_IdentityIiESt4lessIiESaIiEE7_S_leftEPSt18_Rb_tree_node_base(%"struct.std::_Rb_tree_node_base"* %26) #2, !llfi_index !941
  store %"struct.std::_Rb_tree_node"* %27, %"struct.std::_Rb_tree_node"** %7, align 8, !llfi_index !942
  br label %32, !llfi_index !943

28:                                               ; preds = %14
  %29 = load %"struct.std::_Rb_tree_node"*, %"struct.std::_Rb_tree_node"** %7, align 8, !llfi_index !944
  %30 = bitcast %"struct.std::_Rb_tree_node"* %29 to %"struct.std::_Rb_tree_node_base"*, !llfi_index !945
  %31 = call %"struct.std::_Rb_tree_node"* @_ZNSt8_Rb_treeIiiSt9_IdentityIiESt4lessIiESaIiEE8_S_rightEPSt18_Rb_tree_node_base(%"struct.std::_Rb_tree_node_base"* %30) #2, !llfi_index !946
  store %"struct.std::_Rb_tree_node"* %31, %"struct.std::_Rb_tree_node"** %7, align 8, !llfi_index !947
  br label %32, !llfi_index !948

32:                                               ; preds = %28, %22
  br label %11, !llvm.loop !949, !llfi_index !950

33:                                               ; preds = %11
  %34 = load %"struct.std::_Rb_tree_node_base"*, %"struct.std::_Rb_tree_node_base"** %8, align 8, !llfi_index !951
  call void @_ZNSt17_Rb_tree_iteratorIiEC2EPSt18_Rb_tree_node_base(%"struct.std::_Rb_tree_const_iterator"* nonnull align 8 dereferenceable(8) %5, %"struct.std::_Rb_tree_node_base"* %34) #2, !llfi_index !952
  %35 = getelementptr inbounds %"struct.std::_Rb_tree_const_iterator", %"struct.std::_Rb_tree_const_iterator"* %5, i32 0, i32 0, !llfi_index !953
  %36 = load %"struct.std::_Rb_tree_node_base"*, %"struct.std::_Rb_tree_node_base"** %35, align 8, !llfi_index !954
  ret %"struct.std::_Rb_tree_node_base"* %36, !llfi_index !955
}

; Function Attrs: mustprogress noinline uwtable
define linkonce_odr dso_local %"struct.std::_Rb_tree_node_base"* @_ZNSt8_Rb_treeIiiSt9_IdentityIiESt4lessIiESaIiEE14_M_upper_boundEPSt13_Rb_tree_nodeIiEPSt18_Rb_tree_node_baseRKi(%"class.std::_Rb_tree"* nonnull align 8 dereferenceable(48) %0, %"struct.std::_Rb_tree_node"* %1, %"struct.std::_Rb_tree_node_base"* %2, i32* nonnull align 4 dereferenceable(4) %3) #7 comdat align 2 {
  %5 = alloca %"struct.std::_Rb_tree_const_iterator", align 8, !llfi_index !956
  %6 = alloca %"class.std::_Rb_tree"*, align 8, !llfi_index !957
  %7 = alloca %"struct.std::_Rb_tree_node"*, align 8, !llfi_index !958
  %8 = alloca %"struct.std::_Rb_tree_node_base"*, align 8, !llfi_index !959
  %9 = alloca i32*, align 8, !llfi_index !960
  store %"class.std::_Rb_tree"* %0, %"class.std::_Rb_tree"** %6, align 8, !llfi_index !961
  store %"struct.std::_Rb_tree_node"* %1, %"struct.std::_Rb_tree_node"** %7, align 8, !llfi_index !962
  store %"struct.std::_Rb_tree_node_base"* %2, %"struct.std::_Rb_tree_node_base"** %8, align 8, !llfi_index !963
  store i32* %3, i32** %9, align 8, !llfi_index !964
  %10 = load %"class.std::_Rb_tree"*, %"class.std::_Rb_tree"** %6, align 8, !llfi_index !965
  br label %11, !llfi_index !966

11:                                               ; preds = %32, %4
  %12 = load %"struct.std::_Rb_tree_node"*, %"struct.std::_Rb_tree_node"** %7, align 8, !llfi_index !967
  %13 = icmp ne %"struct.std::_Rb_tree_node"* %12, null, !llfi_index !968
  br i1 %13, label %14, label %33, !llfi_index !969

14:                                               ; preds = %11
  %15 = getelementptr inbounds %"class.std::_Rb_tree", %"class.std::_Rb_tree"* %10, i32 0, i32 0, !llfi_index !970
  %16 = bitcast %"struct.std::_Rb_tree<int, int, std::_Identity<int>, std::less<int>>::_Rb_tree_impl"* %15 to %"struct.std::_Rb_tree_key_compare"*, !llfi_index !971
  %17 = getelementptr inbounds %"struct.std::_Rb_tree_key_compare", %"struct.std::_Rb_tree_key_compare"* %16, i32 0, i32 0, !llfi_index !972
  %18 = load i32*, i32** %9, align 8, !llfi_index !973
  %19 = load %"struct.std::_Rb_tree_node"*, %"struct.std::_Rb_tree_node"** %7, align 8, !llfi_index !974
  %20 = call nonnull align 4 dereferenceable(4) i32* @_ZNSt8_Rb_treeIiiSt9_IdentityIiESt4lessIiESaIiEE6_S_keyEPKSt13_Rb_tree_nodeIiE(%"struct.std::_Rb_tree_node"* %19), !llfi_index !975
  %21 = call zeroext i1 @_ZNKSt4lessIiEclERKiS2_(%"class.std::ios_base::Init"* nonnull align 1 dereferenceable(1) %17, i32* nonnull align 4 dereferenceable(4) %18, i32* nonnull align 4 dereferenceable(4) %20), !llfi_index !976
  br i1 %21, label %22, label %28, !llfi_index !977

22:                                               ; preds = %14
  %23 = load %"struct.std::_Rb_tree_node"*, %"struct.std::_Rb_tree_node"** %7, align 8, !llfi_index !978
  %24 = bitcast %"struct.std::_Rb_tree_node"* %23 to %"struct.std::_Rb_tree_node_base"*, !llfi_index !979
  store %"struct.std::_Rb_tree_node_base"* %24, %"struct.std::_Rb_tree_node_base"** %8, align 8, !llfi_index !980
  %25 = load %"struct.std::_Rb_tree_node"*, %"struct.std::_Rb_tree_node"** %7, align 8, !llfi_index !981
  %26 = bitcast %"struct.std::_Rb_tree_node"* %25 to %"struct.std::_Rb_tree_node_base"*, !llfi_index !982
  %27 = call %"struct.std::_Rb_tree_node"* @_ZNSt8_Rb_treeIiiSt9_IdentityIiESt4lessIiESaIiEE7_S_leftEPSt18_Rb_tree_node_base(%"struct.std::_Rb_tree_node_base"* %26) #2, !llfi_index !983
  store %"struct.std::_Rb_tree_node"* %27, %"struct.std::_Rb_tree_node"** %7, align 8, !llfi_index !984
  br label %32, !llfi_index !985

28:                                               ; preds = %14
  %29 = load %"struct.std::_Rb_tree_node"*, %"struct.std::_Rb_tree_node"** %7, align 8, !llfi_index !986
  %30 = bitcast %"struct.std::_Rb_tree_node"* %29 to %"struct.std::_Rb_tree_node_base"*, !llfi_index !987
  %31 = call %"struct.std::_Rb_tree_node"* @_ZNSt8_Rb_treeIiiSt9_IdentityIiESt4lessIiESaIiEE8_S_rightEPSt18_Rb_tree_node_base(%"struct.std::_Rb_tree_node_base"* %30) #2, !llfi_index !988
  store %"struct.std::_Rb_tree_node"* %31, %"struct.std::_Rb_tree_node"** %7, align 8, !llfi_index !989
  br label %32, !llfi_index !990

32:                                               ; preds = %28, %22
  br label %11, !llvm.loop !991, !llfi_index !992

33:                                               ; preds = %11
  %34 = load %"struct.std::_Rb_tree_node_base"*, %"struct.std::_Rb_tree_node_base"** %8, align 8, !llfi_index !993
  call void @_ZNSt17_Rb_tree_iteratorIiEC2EPSt18_Rb_tree_node_base(%"struct.std::_Rb_tree_const_iterator"* nonnull align 8 dereferenceable(8) %5, %"struct.std::_Rb_tree_node_base"* %34) #2, !llfi_index !994
  %35 = getelementptr inbounds %"struct.std::_Rb_tree_const_iterator", %"struct.std::_Rb_tree_const_iterator"* %5, i32 0, i32 0, !llfi_index !995
  %36 = load %"struct.std::_Rb_tree_node_base"*, %"struct.std::_Rb_tree_node_base"** %35, align 8, !llfi_index !996
  ret %"struct.std::_Rb_tree_node_base"* %36, !llfi_index !997
}

; Function Attrs: noinline nounwind uwtable
define linkonce_odr dso_local void @_ZNSt4pairISt17_Rb_tree_iteratorIiES1_EC2IS1_S1_Lb1EEEOT_OT0_(%"struct.std::pair.7"* nonnull align 8 dereferenceable(16) %0, %"struct.std::_Rb_tree_const_iterator"* nonnull align 8 dereferenceable(8) %1, %"struct.std::_Rb_tree_const_iterator"* nonnull align 8 dereferenceable(8) %2) unnamed_addr #6 comdat align 2 {
  %4 = alloca %"struct.std::pair.7"*, align 8, !llfi_index !998
  %5 = alloca %"struct.std::_Rb_tree_const_iterator"*, align 8, !llfi_index !999
  %6 = alloca %"struct.std::_Rb_tree_const_iterator"*, align 8, !llfi_index !1000
  store %"struct.std::pair.7"* %0, %"struct.std::pair.7"** %4, align 8, !llfi_index !1001
  store %"struct.std::_Rb_tree_const_iterator"* %1, %"struct.std::_Rb_tree_const_iterator"** %5, align 8, !llfi_index !1002
  store %"struct.std::_Rb_tree_const_iterator"* %2, %"struct.std::_Rb_tree_const_iterator"** %6, align 8, !llfi_index !1003
  %7 = load %"struct.std::pair.7"*, %"struct.std::pair.7"** %4, align 8, !llfi_index !1004
  %8 = bitcast %"struct.std::pair.7"* %7 to %"class.std::ios_base::Init"*, !llfi_index !1005
  %9 = getelementptr inbounds %"struct.std::pair.7", %"struct.std::pair.7"* %7, i32 0, i32 0, !llfi_index !1006
  %10 = load %"struct.std::_Rb_tree_const_iterator"*, %"struct.std::_Rb_tree_const_iterator"** %5, align 8, !llfi_index !1007
  %11 = call nonnull align 8 dereferenceable(8) %"struct.std::_Rb_tree_const_iterator"* @_ZSt7forwardISt17_Rb_tree_iteratorIiEEOT_RNSt16remove_referenceIS2_E4typeE(%"struct.std::_Rb_tree_const_iterator"* nonnull align 8 dereferenceable(8) %10) #2, !llfi_index !1008
  %12 = bitcast %"struct.std::_Rb_tree_const_iterator"* %9 to i8*, !llfi_index !1009
  %13 = bitcast %"struct.std::_Rb_tree_const_iterator"* %11 to i8*, !llfi_index !1010
  call void @llvm.memcpy.p0i8.p0i8.i64(i8* align 8 %12, i8* align 8 %13, i64 8, i1 false), !llfi_index !1011
  %14 = getelementptr inbounds %"struct.std::pair.7", %"struct.std::pair.7"* %7, i32 0, i32 1, !llfi_index !1012
  %15 = load %"struct.std::_Rb_tree_const_iterator"*, %"struct.std::_Rb_tree_const_iterator"** %6, align 8, !llfi_index !1013
  %16 = call nonnull align 8 dereferenceable(8) %"struct.std::_Rb_tree_const_iterator"* @_ZSt7forwardISt17_Rb_tree_iteratorIiEEOT_RNSt16remove_referenceIS2_E4typeE(%"struct.std::_Rb_tree_const_iterator"* nonnull align 8 dereferenceable(8) %15) #2, !llfi_index !1014
  %17 = bitcast %"struct.std::_Rb_tree_const_iterator"* %14 to i8*, !llfi_index !1015
  %18 = bitcast %"struct.std::_Rb_tree_const_iterator"* %16 to i8*, !llfi_index !1016
  call void @llvm.memcpy.p0i8.p0i8.i64(i8* align 8 %17, i8* align 8 %18, i64 8, i1 false), !llfi_index !1017
  ret void, !llfi_index !1018
}

; Function Attrs: mustprogress noinline nounwind uwtable
define linkonce_odr dso_local nonnull align 8 dereferenceable(8) %"struct.std::_Rb_tree_const_iterator"* @_ZSt7forwardISt17_Rb_tree_iteratorIiEEOT_RNSt16remove_referenceIS2_E4typeE(%"struct.std::_Rb_tree_const_iterator"* nonnull align 8 dereferenceable(8) %0) #4 comdat {
  %2 = alloca %"struct.std::_Rb_tree_const_iterator"*, align 8, !llfi_index !1019
  store %"struct.std::_Rb_tree_const_iterator"* %0, %"struct.std::_Rb_tree_const_iterator"** %2, align 8, !llfi_index !1020
  %3 = load %"struct.std::_Rb_tree_const_iterator"*, %"struct.std::_Rb_tree_const_iterator"** %2, align 8, !llfi_index !1021
  ret %"struct.std::_Rb_tree_const_iterator"* %3, !llfi_index !1022
}

; Function Attrs: argmemonly nofree nounwind willreturn
declare void @llvm.memcpy.p0i8.p0i8.i64(i8* noalias nocapture writeonly, i8* noalias nocapture readonly, i64, i1 immarg) #10

; Function Attrs: mustprogress noinline nounwind uwtable
define linkonce_odr dso_local i32* @_ZNKSt13_Rb_tree_nodeIiE9_M_valptrEv(%"struct.std::_Rb_tree_node"* nonnull align 8 dereferenceable(36) %0) #4 comdat align 2 {
  %2 = alloca %"struct.std::_Rb_tree_node"*, align 8, !llfi_index !1023
  store %"struct.std::_Rb_tree_node"* %0, %"struct.std::_Rb_tree_node"** %2, align 8, !llfi_index !1024
  %3 = load %"struct.std::_Rb_tree_node"*, %"struct.std::_Rb_tree_node"** %2, align 8, !llfi_index !1025
  %4 = getelementptr inbounds %"struct.std::_Rb_tree_node", %"struct.std::_Rb_tree_node"* %3, i32 0, i32 1, !llfi_index !1026
  %5 = call i32* @_ZNK9__gnu_cxx16__aligned_membufIiE6_M_ptrEv(%"struct.__gnu_cxx::__aligned_membuf"* nonnull align 4 dereferenceable(4) %4) #2, !llfi_index !1027
  ret i32* %5, !llfi_index !1028
}

; Function Attrs: mustprogress noinline nounwind uwtable
define linkonce_odr dso_local nonnull align 4 dereferenceable(4) i32* @_ZNKSt9_IdentityIiEclERKi(%"class.std::ios_base::Init"* nonnull align 1 dereferenceable(1) %0, i32* nonnull align 4 dereferenceable(4) %1) #4 comdat align 2 {
  %3 = alloca %"class.std::ios_base::Init"*, align 8, !llfi_index !1029
  %4 = alloca i32*, align 8, !llfi_index !1030
  store %"class.std::ios_base::Init"* %0, %"class.std::ios_base::Init"** %3, align 8, !llfi_index !1031
  store i32* %1, i32** %4, align 8, !llfi_index !1032
  %5 = load %"class.std::ios_base::Init"*, %"class.std::ios_base::Init"** %3, align 8, !llfi_index !1033
  %6 = load i32*, i32** %4, align 8, !llfi_index !1034
  ret i32* %6, !llfi_index !1035
}

; Function Attrs: mustprogress noinline nounwind uwtable
define linkonce_odr dso_local i32* @_ZNK9__gnu_cxx16__aligned_membufIiE6_M_ptrEv(%"struct.__gnu_cxx::__aligned_membuf"* nonnull align 4 dereferenceable(4) %0) #4 comdat align 2 {
  %2 = alloca %"struct.__gnu_cxx::__aligned_membuf"*, align 8, !llfi_index !1036
  store %"struct.__gnu_cxx::__aligned_membuf"* %0, %"struct.__gnu_cxx::__aligned_membuf"** %2, align 8, !llfi_index !1037
  %3 = load %"struct.__gnu_cxx::__aligned_membuf"*, %"struct.__gnu_cxx::__aligned_membuf"** %2, align 8, !llfi_index !1038
  %4 = call i8* @_ZNK9__gnu_cxx16__aligned_membufIiE7_M_addrEv(%"struct.__gnu_cxx::__aligned_membuf"* nonnull align 4 dereferenceable(4) %3) #2, !llfi_index !1039
  %5 = bitcast i8* %4 to i32*, !llfi_index !1040
  ret i32* %5, !llfi_index !1041
}

; Function Attrs: mustprogress noinline nounwind uwtable
define linkonce_odr dso_local i8* @_ZNK9__gnu_cxx16__aligned_membufIiE7_M_addrEv(%"struct.__gnu_cxx::__aligned_membuf"* nonnull align 4 dereferenceable(4) %0) #4 comdat align 2 {
  %2 = alloca %"struct.__gnu_cxx::__aligned_membuf"*, align 8, !llfi_index !1042
  store %"struct.__gnu_cxx::__aligned_membuf"* %0, %"struct.__gnu_cxx::__aligned_membuf"** %2, align 8, !llfi_index !1043
  %3 = load %"struct.__gnu_cxx::__aligned_membuf"*, %"struct.__gnu_cxx::__aligned_membuf"** %2, align 8, !llfi_index !1044
  %4 = getelementptr inbounds %"struct.__gnu_cxx::__aligned_membuf", %"struct.__gnu_cxx::__aligned_membuf"* %3, i32 0, i32 0, !llfi_index !1045
  %5 = bitcast [4 x i8]* %4 to i8*, !llfi_index !1046
  ret i8* %5, !llfi_index !1047
}

; Function Attrs: nounwind readonly willreturn
declare dso_local %"struct.std::_Rb_tree_node_base"* @_ZSt18_Rb_tree_incrementPKSt18_Rb_tree_node_base(%"struct.std::_Rb_tree_node_base"*) #11

; Function Attrs: mustprogress noinline nounwind uwtable
define linkonce_odr dso_local %"struct.std::_Rb_tree_node_base"* @_ZNKSt8_Rb_treeIiiSt9_IdentityIiESt4lessIiESaIiEE3endEv(%"class.std::_Rb_tree"* nonnull align 8 dereferenceable(48) %0) #4 comdat align 2 {
  %2 = alloca %"struct.std::_Rb_tree_const_iterator", align 8, !llfi_index !1048
  %3 = alloca %"class.std::_Rb_tree"*, align 8, !llfi_index !1049
  store %"class.std::_Rb_tree"* %0, %"class.std::_Rb_tree"** %3, align 8, !llfi_index !1050
  %4 = load %"class.std::_Rb_tree"*, %"class.std::_Rb_tree"** %3, align 8, !llfi_index !1051
  %5 = getelementptr inbounds %"class.std::_Rb_tree", %"class.std::_Rb_tree"* %4, i32 0, i32 0, !llfi_index !1052
  %6 = bitcast %"struct.std::_Rb_tree<int, int, std::_Identity<int>, std::less<int>>::_Rb_tree_impl"* %5 to i8*, !llfi_index !1053
  %7 = getelementptr inbounds i8, i8* %6, i64 8, !llfi_index !1054
  %8 = bitcast i8* %7 to %"struct.std::_Rb_tree_header"*, !llfi_index !1055
  %9 = getelementptr inbounds %"struct.std::_Rb_tree_header", %"struct.std::_Rb_tree_header"* %8, i32 0, i32 0, !llfi_index !1056
  call void @_ZNSt23_Rb_tree_const_iteratorIiEC2EPKSt18_Rb_tree_node_base(%"struct.std::_Rb_tree_const_iterator"* nonnull align 8 dereferenceable(8) %2, %"struct.std::_Rb_tree_node_base"* %9) #2, !llfi_index !1057
  %10 = getelementptr inbounds %"struct.std::_Rb_tree_const_iterator", %"struct.std::_Rb_tree_const_iterator"* %2, i32 0, i32 0, !llfi_index !1058
  %11 = load %"struct.std::_Rb_tree_node_base"*, %"struct.std::_Rb_tree_node_base"** %10, align 8, !llfi_index !1059
  ret %"struct.std::_Rb_tree_node_base"* %11, !llfi_index !1060
}

; Function Attrs: noinline nounwind uwtable
define linkonce_odr dso_local void @_ZNSt23_Rb_tree_const_iteratorIiEC2EPKSt18_Rb_tree_node_base(%"struct.std::_Rb_tree_const_iterator"* nonnull align 8 dereferenceable(8) %0, %"struct.std::_Rb_tree_node_base"* %1) unnamed_addr #6 comdat align 2 {
  %3 = alloca %"struct.std::_Rb_tree_const_iterator"*, align 8, !llfi_index !1061
  %4 = alloca %"struct.std::_Rb_tree_node_base"*, align 8, !llfi_index !1062
  store %"struct.std::_Rb_tree_const_iterator"* %0, %"struct.std::_Rb_tree_const_iterator"** %3, align 8, !llfi_index !1063
  store %"struct.std::_Rb_tree_node_base"* %1, %"struct.std::_Rb_tree_node_base"** %4, align 8, !llfi_index !1064
  %5 = load %"struct.std::_Rb_tree_const_iterator"*, %"struct.std::_Rb_tree_const_iterator"** %3, align 8, !llfi_index !1065
  %6 = getelementptr inbounds %"struct.std::_Rb_tree_const_iterator", %"struct.std::_Rb_tree_const_iterator"* %5, i32 0, i32 0, !llfi_index !1066
  %7 = load %"struct.std::_Rb_tree_node_base"*, %"struct.std::_Rb_tree_node_base"** %4, align 8, !llfi_index !1067
  store %"struct.std::_Rb_tree_node_base"* %7, %"struct.std::_Rb_tree_node_base"** %6, align 8, !llfi_index !1068
  ret void, !llfi_index !1069
}

; Function Attrs: mustprogress noinline uwtable
define linkonce_odr dso_local %"struct.std::_Rb_tree_node_base"* @_ZNSt8_Rb_treeIiiSt9_IdentityIiESt4lessIiESaIiEE11lower_boundERKi(%"class.std::_Rb_tree"* nonnull align 8 dereferenceable(48) %0, i32* nonnull align 4 dereferenceable(4) %1) #7 comdat align 2 {
  %3 = alloca %"struct.std::_Rb_tree_const_iterator", align 8, !llfi_index !1070
  %4 = alloca %"class.std::_Rb_tree"*, align 8, !llfi_index !1071
  %5 = alloca i32*, align 8, !llfi_index !1072
  store %"class.std::_Rb_tree"* %0, %"class.std::_Rb_tree"** %4, align 8, !llfi_index !1073
  store i32* %1, i32** %5, align 8, !llfi_index !1074
  %6 = load %"class.std::_Rb_tree"*, %"class.std::_Rb_tree"** %4, align 8, !llfi_index !1075
  %7 = call %"struct.std::_Rb_tree_node"* @_ZNSt8_Rb_treeIiiSt9_IdentityIiESt4lessIiESaIiEE8_M_beginEv(%"class.std::_Rb_tree"* nonnull align 8 dereferenceable(48) %6) #2, !llfi_index !1076
  %8 = call %"struct.std::_Rb_tree_node_base"* @_ZNSt8_Rb_treeIiiSt9_IdentityIiESt4lessIiESaIiEE6_M_endEv(%"class.std::_Rb_tree"* nonnull align 8 dereferenceable(48) %6) #2, !llfi_index !1077
  %9 = load i32*, i32** %5, align 8, !llfi_index !1078
  %10 = call %"struct.std::_Rb_tree_node_base"* @_ZNSt8_Rb_treeIiiSt9_IdentityIiESt4lessIiESaIiEE14_M_lower_boundEPSt13_Rb_tree_nodeIiEPSt18_Rb_tree_node_baseRKi(%"class.std::_Rb_tree"* nonnull align 8 dereferenceable(48) %6, %"struct.std::_Rb_tree_node"* %7, %"struct.std::_Rb_tree_node_base"* %8, i32* nonnull align 4 dereferenceable(4) %9), !llfi_index !1079
  %11 = getelementptr inbounds %"struct.std::_Rb_tree_const_iterator", %"struct.std::_Rb_tree_const_iterator"* %3, i32 0, i32 0, !llfi_index !1080
  store %"struct.std::_Rb_tree_node_base"* %10, %"struct.std::_Rb_tree_node_base"** %11, align 8, !llfi_index !1081
  %12 = getelementptr inbounds %"struct.std::_Rb_tree_const_iterator", %"struct.std::_Rb_tree_const_iterator"* %3, i32 0, i32 0, !llfi_index !1082
  %13 = load %"struct.std::_Rb_tree_node_base"*, %"struct.std::_Rb_tree_node_base"** %12, align 8, !llfi_index !1083
  ret %"struct.std::_Rb_tree_node_base"* %13, !llfi_index !1084
}

; Function Attrs: noinline nounwind uwtable
define linkonce_odr dso_local void @_ZNSt8_Rb_treeIiiSt9_IdentityIiESt4lessIiESaIiEED2Ev(%"class.std::_Rb_tree"* nonnull align 8 dereferenceable(48) %0) unnamed_addr #6 comdat align 2 personality i8* bitcast (i32 (...)* @__gxx_personality_v0 to i8*) {
  %2 = alloca %"class.std::_Rb_tree"*, align 8, !llfi_index !1085
  %3 = alloca i8*, align 8, !llfi_index !1086
  %4 = alloca i32, align 4, !llfi_index !1087
  store %"class.std::_Rb_tree"* %0, %"class.std::_Rb_tree"** %2, align 8, !llfi_index !1088
  %5 = load %"class.std::_Rb_tree"*, %"class.std::_Rb_tree"** %2, align 8, !llfi_index !1089
  %6 = call %"struct.std::_Rb_tree_node"* @_ZNSt8_Rb_treeIiiSt9_IdentityIiESt4lessIiESaIiEE8_M_beginEv(%"class.std::_Rb_tree"* nonnull align 8 dereferenceable(48) %5) #2, !llfi_index !1090
  invoke void @_ZNSt8_Rb_treeIiiSt9_IdentityIiESt4lessIiESaIiEE8_M_eraseEPSt13_Rb_tree_nodeIiE(%"class.std::_Rb_tree"* nonnull align 8 dereferenceable(48) %5, %"struct.std::_Rb_tree_node"* %6)
          to label %7 unwind label %9, !llfi_index !1091

7:                                                ; preds = %1
  %8 = getelementptr inbounds %"class.std::_Rb_tree", %"class.std::_Rb_tree"* %5, i32 0, i32 0, !llfi_index !1092
  call void @_ZNSt8_Rb_treeIiiSt9_IdentityIiESt4lessIiESaIiEE13_Rb_tree_implIS3_Lb1EED2Ev(%"struct.std::_Rb_tree<int, int, std::_Identity<int>, std::less<int>>::_Rb_tree_impl"* nonnull align 8 dereferenceable(48) %8) #2, !llfi_index !1093
  ret void, !llfi_index !1094

9:                                                ; preds = %1
  %10 = landingpad { i8*, i32 }
          catch i8* null, !llfi_index !1095
  %11 = extractvalue { i8*, i32 } %10, 0, !llfi_index !1096
  store i8* %11, i8** %3, align 8, !llfi_index !1097
  %12 = extractvalue { i8*, i32 } %10, 1, !llfi_index !1098
  store i32 %12, i32* %4, align 4, !llfi_index !1099
  %13 = getelementptr inbounds %"class.std::_Rb_tree", %"class.std::_Rb_tree"* %5, i32 0, i32 0, !llfi_index !1100
  call void @_ZNSt8_Rb_treeIiiSt9_IdentityIiESt4lessIiESaIiEE13_Rb_tree_implIS3_Lb1EED2Ev(%"struct.std::_Rb_tree<int, int, std::_Identity<int>, std::less<int>>::_Rb_tree_impl"* nonnull align 8 dereferenceable(48) %13) #2, !llfi_index !1101
  br label %14, !llfi_index !1102

14:                                               ; preds = %9
  %15 = load i8*, i8** %3, align 8, !llfi_index !1103
  call void @__clang_call_terminate(i8* %15) #15, !llfi_index !1104
  unreachable, !llfi_index !1105
}

; Function Attrs: noinline nounwind uwtable
define linkonce_odr dso_local void @_ZNSt8_Rb_treeIiiSt9_IdentityIiESt4lessIiESaIiEE13_Rb_tree_implIS3_Lb1EED2Ev(%"struct.std::_Rb_tree<int, int, std::_Identity<int>, std::less<int>>::_Rb_tree_impl"* nonnull align 8 dereferenceable(48) %0) unnamed_addr #6 comdat align 2 {
  %2 = alloca %"struct.std::_Rb_tree<int, int, std::_Identity<int>, std::less<int>>::_Rb_tree_impl"*, align 8, !llfi_index !1106
  store %"struct.std::_Rb_tree<int, int, std::_Identity<int>, std::less<int>>::_Rb_tree_impl"* %0, %"struct.std::_Rb_tree<int, int, std::_Identity<int>, std::less<int>>::_Rb_tree_impl"** %2, align 8, !llfi_index !1107
  %3 = load %"struct.std::_Rb_tree<int, int, std::_Identity<int>, std::less<int>>::_Rb_tree_impl"*, %"struct.std::_Rb_tree<int, int, std::_Identity<int>, std::less<int>>::_Rb_tree_impl"** %2, align 8, !llfi_index !1108
  %4 = bitcast %"struct.std::_Rb_tree<int, int, std::_Identity<int>, std::less<int>>::_Rb_tree_impl"* %3 to %"class.std::ios_base::Init"*, !llfi_index !1109
  call void @_ZNSaISt13_Rb_tree_nodeIiEED2Ev(%"class.std::ios_base::Init"* nonnull align 1 dereferenceable(1) %4) #2, !llfi_index !1110
  ret void, !llfi_index !1111
}

; Function Attrs: noinline nounwind uwtable
define linkonce_odr dso_local void @_ZNSaISt13_Rb_tree_nodeIiEED2Ev(%"class.std::ios_base::Init"* nonnull align 1 dereferenceable(1) %0) unnamed_addr #6 comdat align 2 {
  %2 = alloca %"class.std::ios_base::Init"*, align 8, !llfi_index !1112
  store %"class.std::ios_base::Init"* %0, %"class.std::ios_base::Init"** %2, align 8, !llfi_index !1113
  %3 = load %"class.std::ios_base::Init"*, %"class.std::ios_base::Init"** %2, align 8, !llfi_index !1114
  %4 = bitcast %"class.std::ios_base::Init"* %3 to %"class.std::ios_base::Init"*, !llfi_index !1115
  call void @_ZN9__gnu_cxx13new_allocatorISt13_Rb_tree_nodeIiEED2Ev(%"class.std::ios_base::Init"* nonnull align 1 dereferenceable(1) %4) #2, !llfi_index !1116
  ret void, !llfi_index !1117
}

; Function Attrs: noinline nounwind uwtable
define linkonce_odr dso_local void @_ZN9__gnu_cxx13new_allocatorISt13_Rb_tree_nodeIiEED2Ev(%"class.std::ios_base::Init"* nonnull align 1 dereferenceable(1) %0) unnamed_addr #6 comdat align 2 {
  %2 = alloca %"class.std::ios_base::Init"*, align 8, !llfi_index !1118
  store %"class.std::ios_base::Init"* %0, %"class.std::ios_base::Init"** %2, align 8, !llfi_index !1119
  %3 = load %"class.std::ios_base::Init"*, %"class.std::ios_base::Init"** %2, align 8, !llfi_index !1120
  ret void, !llfi_index !1121
}

; Function Attrs: mustprogress noinline uwtable
define linkonce_odr dso_local { %"struct.std::_Rb_tree_node_base"*, i8 } @_ZNSt8_Rb_treeIiiSt9_IdentityIiESt4lessIiESaIiEE16_M_insert_uniqueIRKiEESt4pairISt17_Rb_tree_iteratorIiEbEOT_(%"class.std::_Rb_tree"* nonnull align 8 dereferenceable(48) %0, i32* nonnull align 4 dereferenceable(4) %1) #7 comdat align 2 {
  %3 = alloca %"struct.std::pair", align 8, !llfi_index !1122
  %4 = alloca %"class.std::_Rb_tree"*, align 8, !llfi_index !1123
  %5 = alloca i32*, align 8, !llfi_index !1124
  %6 = alloca %"struct.std::pair.4", align 8, !llfi_index !1125
  %7 = alloca %"class.std::ios_base::Init", align 1, !llfi_index !1126
  %8 = alloca %"struct.std::_Rb_tree<int, int, std::_Identity<int>, std::less<int>>::_Alloc_node", align 8, !llfi_index !1127
  %9 = alloca %"struct.std::_Rb_tree_const_iterator", align 8, !llfi_index !1128
  %10 = alloca i8, align 1, !llfi_index !1129
  %11 = alloca %"struct.std::_Rb_tree_const_iterator", align 8, !llfi_index !1130
  %12 = alloca i8, align 1, !llfi_index !1131
  store %"class.std::_Rb_tree"* %0, %"class.std::_Rb_tree"** %4, align 8, !llfi_index !1132
  store i32* %1, i32** %5, align 8, !llfi_index !1133
  %13 = load %"class.std::_Rb_tree"*, %"class.std::_Rb_tree"** %4, align 8, !llfi_index !1134
  %14 = load i32*, i32** %5, align 8, !llfi_index !1135
  %15 = call nonnull align 4 dereferenceable(4) i32* @_ZNKSt9_IdentityIiEclERKi(%"class.std::ios_base::Init"* nonnull align 1 dereferenceable(1) %7, i32* nonnull align 4 dereferenceable(4) %14), !llfi_index !1136
  %16 = call { %"struct.std::_Rb_tree_node_base"*, %"struct.std::_Rb_tree_node_base"* } @_ZNSt8_Rb_treeIiiSt9_IdentityIiESt4lessIiESaIiEE24_M_get_insert_unique_posERKi(%"class.std::_Rb_tree"* nonnull align 8 dereferenceable(48) %13, i32* nonnull align 4 dereferenceable(4) %15), !llfi_index !1137
  %17 = bitcast %"struct.std::pair.4"* %6 to { %"struct.std::_Rb_tree_node_base"*, %"struct.std::_Rb_tree_node_base"* }*, !llfi_index !1138
  %18 = getelementptr inbounds { %"struct.std::_Rb_tree_node_base"*, %"struct.std::_Rb_tree_node_base"* }, { %"struct.std::_Rb_tree_node_base"*, %"struct.std::_Rb_tree_node_base"* }* %17, i32 0, i32 0, !llfi_index !1139
  %19 = extractvalue { %"struct.std::_Rb_tree_node_base"*, %"struct.std::_Rb_tree_node_base"* } %16, 0, !llfi_index !1140
  store %"struct.std::_Rb_tree_node_base"* %19, %"struct.std::_Rb_tree_node_base"** %18, align 8, !llfi_index !1141
  %20 = getelementptr inbounds { %"struct.std::_Rb_tree_node_base"*, %"struct.std::_Rb_tree_node_base"* }, { %"struct.std::_Rb_tree_node_base"*, %"struct.std::_Rb_tree_node_base"* }* %17, i32 0, i32 1, !llfi_index !1142
  %21 = extractvalue { %"struct.std::_Rb_tree_node_base"*, %"struct.std::_Rb_tree_node_base"* } %16, 1, !llfi_index !1143
  store %"struct.std::_Rb_tree_node_base"* %21, %"struct.std::_Rb_tree_node_base"** %20, align 8, !llfi_index !1144
  %22 = getelementptr inbounds %"struct.std::pair.4", %"struct.std::pair.4"* %6, i32 0, i32 1, !llfi_index !1145
  %23 = load %"struct.std::_Rb_tree_node_base"*, %"struct.std::_Rb_tree_node_base"** %22, align 8, !llfi_index !1146
  %24 = icmp ne %"struct.std::_Rb_tree_node_base"* %23, null, !llfi_index !1147
  br i1 %24, label %25, label %34, !llfi_index !1148

25:                                               ; preds = %2
  call void @_ZNSt8_Rb_treeIiiSt9_IdentityIiESt4lessIiESaIiEE11_Alloc_nodeC2ERS5_(%"struct.std::_Rb_tree<int, int, std::_Identity<int>, std::less<int>>::_Alloc_node"* nonnull align 8 dereferenceable(8) %8, %"class.std::_Rb_tree"* nonnull align 8 dereferenceable(48) %13), !llfi_index !1149
  %26 = getelementptr inbounds %"struct.std::pair.4", %"struct.std::pair.4"* %6, i32 0, i32 0, !llfi_index !1150
  %27 = load %"struct.std::_Rb_tree_node_base"*, %"struct.std::_Rb_tree_node_base"** %26, align 8, !llfi_index !1151
  %28 = getelementptr inbounds %"struct.std::pair.4", %"struct.std::pair.4"* %6, i32 0, i32 1, !llfi_index !1152
  %29 = load %"struct.std::_Rb_tree_node_base"*, %"struct.std::_Rb_tree_node_base"** %28, align 8, !llfi_index !1153
  %30 = load i32*, i32** %5, align 8, !llfi_index !1154
  %31 = call nonnull align 4 dereferenceable(4) i32* @_ZSt7forwardIRKiEOT_RNSt16remove_referenceIS2_E4typeE(i32* nonnull align 4 dereferenceable(4) %30) #2, !llfi_index !1155
  %32 = call %"struct.std::_Rb_tree_node_base"* @_ZNSt8_Rb_treeIiiSt9_IdentityIiESt4lessIiESaIiEE10_M_insert_IRKiNS5_11_Alloc_nodeEEESt17_Rb_tree_iteratorIiEPSt18_Rb_tree_node_baseSD_OT_RT0_(%"class.std::_Rb_tree"* nonnull align 8 dereferenceable(48) %13, %"struct.std::_Rb_tree_node_base"* %27, %"struct.std::_Rb_tree_node_base"* %29, i32* nonnull align 4 dereferenceable(4) %31, %"struct.std::_Rb_tree<int, int, std::_Identity<int>, std::less<int>>::_Alloc_node"* nonnull align 8 dereferenceable(8) %8), !llfi_index !1156
  %33 = getelementptr inbounds %"struct.std::_Rb_tree_const_iterator", %"struct.std::_Rb_tree_const_iterator"* %9, i32 0, i32 0, !llfi_index !1157
  store %"struct.std::_Rb_tree_node_base"* %32, %"struct.std::_Rb_tree_node_base"** %33, align 8, !llfi_index !1158
  store i8 1, i8* %10, align 1, !llfi_index !1159
  call void @_ZNSt4pairISt17_Rb_tree_iteratorIiEbEC2IS1_bLb1EEEOT_OT0_(%"struct.std::pair"* nonnull align 8 dereferenceable(9) %3, %"struct.std::_Rb_tree_const_iterator"* nonnull align 8 dereferenceable(8) %9, i8* nonnull align 1 dereferenceable(1) %10), !llfi_index !1160
  br label %37, !llfi_index !1161

34:                                               ; preds = %2
  %35 = getelementptr inbounds %"struct.std::pair.4", %"struct.std::pair.4"* %6, i32 0, i32 0, !llfi_index !1162
  %36 = load %"struct.std::_Rb_tree_node_base"*, %"struct.std::_Rb_tree_node_base"** %35, align 8, !llfi_index !1163
  call void @_ZNSt17_Rb_tree_iteratorIiEC2EPSt18_Rb_tree_node_base(%"struct.std::_Rb_tree_const_iterator"* nonnull align 8 dereferenceable(8) %11, %"struct.std::_Rb_tree_node_base"* %36) #2, !llfi_index !1164
  store i8 0, i8* %12, align 1, !llfi_index !1165
  call void @_ZNSt4pairISt17_Rb_tree_iteratorIiEbEC2IS1_bLb1EEEOT_OT0_(%"struct.std::pair"* nonnull align 8 dereferenceable(9) %3, %"struct.std::_Rb_tree_const_iterator"* nonnull align 8 dereferenceable(8) %11, i8* nonnull align 1 dereferenceable(1) %12), !llfi_index !1166
  br label %37, !llfi_index !1167

37:                                               ; preds = %34, %25
  %38 = bitcast %"struct.std::pair"* %3 to { %"struct.std::_Rb_tree_node_base"*, i8 }*, !llfi_index !1168
  %39 = load { %"struct.std::_Rb_tree_node_base"*, i8 }, { %"struct.std::_Rb_tree_node_base"*, i8 }* %38, align 8, !llfi_index !1169
  ret { %"struct.std::_Rb_tree_node_base"*, i8 } %39, !llfi_index !1170
}

; Function Attrs: noinline nounwind uwtable
define linkonce_odr dso_local void @_ZNSt4pairISt23_Rb_tree_const_iteratorIiEbEC2IRSt17_Rb_tree_iteratorIiERbLb1EEEOT_OT0_(%"struct.std::pair"* nonnull align 8 dereferenceable(9) %0, %"struct.std::_Rb_tree_const_iterator"* nonnull align 8 dereferenceable(8) %1, i8* nonnull align 1 dereferenceable(1) %2) unnamed_addr #6 comdat align 2 {
  %4 = alloca %"struct.std::pair"*, align 8, !llfi_index !1171
  %5 = alloca %"struct.std::_Rb_tree_const_iterator"*, align 8, !llfi_index !1172
  %6 = alloca i8*, align 8, !llfi_index !1173
  store %"struct.std::pair"* %0, %"struct.std::pair"** %4, align 8, !llfi_index !1174
  store %"struct.std::_Rb_tree_const_iterator"* %1, %"struct.std::_Rb_tree_const_iterator"** %5, align 8, !llfi_index !1175
  store i8* %2, i8** %6, align 8, !llfi_index !1176
  %7 = load %"struct.std::pair"*, %"struct.std::pair"** %4, align 8, !llfi_index !1177
  %8 = bitcast %"struct.std::pair"* %7 to %"class.std::ios_base::Init"*, !llfi_index !1178
  %9 = getelementptr inbounds %"struct.std::pair", %"struct.std::pair"* %7, i32 0, i32 0, !llfi_index !1179
  %10 = load %"struct.std::_Rb_tree_const_iterator"*, %"struct.std::_Rb_tree_const_iterator"** %5, align 8, !llfi_index !1180
  %11 = call nonnull align 8 dereferenceable(8) %"struct.std::_Rb_tree_const_iterator"* @_ZSt7forwardIRSt17_Rb_tree_iteratorIiEEOT_RNSt16remove_referenceIS3_E4typeE(%"struct.std::_Rb_tree_const_iterator"* nonnull align 8 dereferenceable(8) %10) #2, !llfi_index !1181
  call void @_ZNSt23_Rb_tree_const_iteratorIiEC2ERKSt17_Rb_tree_iteratorIiE(%"struct.std::_Rb_tree_const_iterator"* nonnull align 8 dereferenceable(8) %9, %"struct.std::_Rb_tree_const_iterator"* nonnull align 8 dereferenceable(8) %11) #2, !llfi_index !1182
  %12 = getelementptr inbounds %"struct.std::pair", %"struct.std::pair"* %7, i32 0, i32 1, !llfi_index !1183
  %13 = load i8*, i8** %6, align 8, !llfi_index !1184
  %14 = call nonnull align 1 dereferenceable(1) i8* @_ZSt7forwardIRbEOT_RNSt16remove_referenceIS1_E4typeE(i8* nonnull align 1 dereferenceable(1) %13) #2, !llfi_index !1185
  %15 = load i8, i8* %14, align 1, !llfi_index !1186
  %16 = trunc i8 %15 to i1, !llfi_index !1187
  %17 = zext i1 %16 to i8, !llfi_index !1188
  store i8 %17, i8* %12, align 8, !llfi_index !1189
  ret void, !llfi_index !1190
}

; Function Attrs: mustprogress noinline nounwind uwtable
define linkonce_odr dso_local nonnull align 8 dereferenceable(8) %"struct.std::_Rb_tree_const_iterator"* @_ZSt7forwardIRSt17_Rb_tree_iteratorIiEEOT_RNSt16remove_referenceIS3_E4typeE(%"struct.std::_Rb_tree_const_iterator"* nonnull align 8 dereferenceable(8) %0) #4 comdat {
  %2 = alloca %"struct.std::_Rb_tree_const_iterator"*, align 8, !llfi_index !1191
  store %"struct.std::_Rb_tree_const_iterator"* %0, %"struct.std::_Rb_tree_const_iterator"** %2, align 8, !llfi_index !1192
  %3 = load %"struct.std::_Rb_tree_const_iterator"*, %"struct.std::_Rb_tree_const_iterator"** %2, align 8, !llfi_index !1193
  ret %"struct.std::_Rb_tree_const_iterator"* %3, !llfi_index !1194
}

; Function Attrs: mustprogress noinline nounwind uwtable
define linkonce_odr dso_local nonnull align 1 dereferenceable(1) i8* @_ZSt7forwardIRbEOT_RNSt16remove_referenceIS1_E4typeE(i8* nonnull align 1 dereferenceable(1) %0) #4 comdat {
  %2 = alloca i8*, align 8, !llfi_index !1195
  store i8* %0, i8** %2, align 8, !llfi_index !1196
  %3 = load i8*, i8** %2, align 8, !llfi_index !1197
  ret i8* %3, !llfi_index !1198
}

; Function Attrs: mustprogress noinline uwtable
define linkonce_odr dso_local { %"struct.std::_Rb_tree_node_base"*, %"struct.std::_Rb_tree_node_base"* } @_ZNSt8_Rb_treeIiiSt9_IdentityIiESt4lessIiESaIiEE24_M_get_insert_unique_posERKi(%"class.std::_Rb_tree"* nonnull align 8 dereferenceable(48) %0, i32* nonnull align 4 dereferenceable(4) %1) #7 comdat align 2 {
  %3 = alloca %"struct.std::pair.4", align 8, !llfi_index !1199
  %4 = alloca %"class.std::_Rb_tree"*, align 8, !llfi_index !1200
  %5 = alloca i32*, align 8, !llfi_index !1201
  %6 = alloca %"struct.std::_Rb_tree_node"*, align 8, !llfi_index !1202
  %7 = alloca %"struct.std::_Rb_tree_node_base"*, align 8, !llfi_index !1203
  %8 = alloca i8, align 1, !llfi_index !1204
  %9 = alloca %"struct.std::_Rb_tree_const_iterator", align 8, !llfi_index !1205
  %10 = alloca %"struct.std::_Rb_tree_const_iterator", align 8, !llfi_index !1206
  %11 = alloca %"struct.std::_Rb_tree_node_base"*, align 8, !llfi_index !1207
  store %"class.std::_Rb_tree"* %0, %"class.std::_Rb_tree"** %4, align 8, !llfi_index !1208
  store i32* %1, i32** %5, align 8, !llfi_index !1209
  %12 = load %"class.std::_Rb_tree"*, %"class.std::_Rb_tree"** %4, align 8, !llfi_index !1210
  %13 = call %"struct.std::_Rb_tree_node"* @_ZNSt8_Rb_treeIiiSt9_IdentityIiESt4lessIiESaIiEE8_M_beginEv(%"class.std::_Rb_tree"* nonnull align 8 dereferenceable(48) %12) #2, !llfi_index !1211
  store %"struct.std::_Rb_tree_node"* %13, %"struct.std::_Rb_tree_node"** %6, align 8, !llfi_index !1212
  %14 = call %"struct.std::_Rb_tree_node_base"* @_ZNSt8_Rb_treeIiiSt9_IdentityIiESt4lessIiESaIiEE6_M_endEv(%"class.std::_Rb_tree"* nonnull align 8 dereferenceable(48) %12) #2, !llfi_index !1213
  store %"struct.std::_Rb_tree_node_base"* %14, %"struct.std::_Rb_tree_node_base"** %7, align 8, !llfi_index !1214
  store i8 1, i8* %8, align 1, !llfi_index !1215
  br label %15, !llfi_index !1216

15:                                               ; preds = %39, %2
  %16 = load %"struct.std::_Rb_tree_node"*, %"struct.std::_Rb_tree_node"** %6, align 8, !llfi_index !1217
  %17 = icmp ne %"struct.std::_Rb_tree_node"* %16, null, !llfi_index !1218
  br i1 %17, label %18, label %41, !llfi_index !1219

18:                                               ; preds = %15
  %19 = load %"struct.std::_Rb_tree_node"*, %"struct.std::_Rb_tree_node"** %6, align 8, !llfi_index !1220
  %20 = bitcast %"struct.std::_Rb_tree_node"* %19 to %"struct.std::_Rb_tree_node_base"*, !llfi_index !1221
  store %"struct.std::_Rb_tree_node_base"* %20, %"struct.std::_Rb_tree_node_base"** %7, align 8, !llfi_index !1222
  %21 = getelementptr inbounds %"class.std::_Rb_tree", %"class.std::_Rb_tree"* %12, i32 0, i32 0, !llfi_index !1223
  %22 = bitcast %"struct.std::_Rb_tree<int, int, std::_Identity<int>, std::less<int>>::_Rb_tree_impl"* %21 to %"struct.std::_Rb_tree_key_compare"*, !llfi_index !1224
  %23 = getelementptr inbounds %"struct.std::_Rb_tree_key_compare", %"struct.std::_Rb_tree_key_compare"* %22, i32 0, i32 0, !llfi_index !1225
  %24 = load i32*, i32** %5, align 8, !llfi_index !1226
  %25 = load %"struct.std::_Rb_tree_node"*, %"struct.std::_Rb_tree_node"** %6, align 8, !llfi_index !1227
  %26 = call nonnull align 4 dereferenceable(4) i32* @_ZNSt8_Rb_treeIiiSt9_IdentityIiESt4lessIiESaIiEE6_S_keyEPKSt13_Rb_tree_nodeIiE(%"struct.std::_Rb_tree_node"* %25), !llfi_index !1228
  %27 = call zeroext i1 @_ZNKSt4lessIiEclERKiS2_(%"class.std::ios_base::Init"* nonnull align 1 dereferenceable(1) %23, i32* nonnull align 4 dereferenceable(4) %24, i32* nonnull align 4 dereferenceable(4) %26), !llfi_index !1229
  %28 = zext i1 %27 to i8, !llfi_index !1230
  store i8 %28, i8* %8, align 1, !llfi_index !1231
  %29 = load i8, i8* %8, align 1, !llfi_index !1232
  %30 = trunc i8 %29 to i1, !llfi_index !1233
  br i1 %30, label %31, label %35, !llfi_index !1234

31:                                               ; preds = %18
  %32 = load %"struct.std::_Rb_tree_node"*, %"struct.std::_Rb_tree_node"** %6, align 8, !llfi_index !1235
  %33 = bitcast %"struct.std::_Rb_tree_node"* %32 to %"struct.std::_Rb_tree_node_base"*, !llfi_index !1236
  %34 = call %"struct.std::_Rb_tree_node"* @_ZNSt8_Rb_treeIiiSt9_IdentityIiESt4lessIiESaIiEE7_S_leftEPSt18_Rb_tree_node_base(%"struct.std::_Rb_tree_node_base"* %33) #2, !llfi_index !1237
  br label %39, !llfi_index !1238

35:                                               ; preds = %18
  %36 = load %"struct.std::_Rb_tree_node"*, %"struct.std::_Rb_tree_node"** %6, align 8, !llfi_index !1239
  %37 = bitcast %"struct.std::_Rb_tree_node"* %36 to %"struct.std::_Rb_tree_node_base"*, !llfi_index !1240
  %38 = call %"struct.std::_Rb_tree_node"* @_ZNSt8_Rb_treeIiiSt9_IdentityIiESt4lessIiESaIiEE8_S_rightEPSt18_Rb_tree_node_base(%"struct.std::_Rb_tree_node_base"* %37) #2, !llfi_index !1241
  br label %39, !llfi_index !1242

39:                                               ; preds = %35, %31
  %40 = phi %"struct.std::_Rb_tree_node"* [ %34, %31 ], [ %38, %35 ], !llfi_index !1243
  store %"struct.std::_Rb_tree_node"* %40, %"struct.std::_Rb_tree_node"** %6, align 8, !llfi_index !1244
  br label %15, !llvm.loop !1245, !llfi_index !1246

41:                                               ; preds = %15
  %42 = load %"struct.std::_Rb_tree_node_base"*, %"struct.std::_Rb_tree_node_base"** %7, align 8, !llfi_index !1247
  call void @_ZNSt17_Rb_tree_iteratorIiEC2EPSt18_Rb_tree_node_base(%"struct.std::_Rb_tree_const_iterator"* nonnull align 8 dereferenceable(8) %9, %"struct.std::_Rb_tree_node_base"* %42) #2, !llfi_index !1248
  %43 = load i8, i8* %8, align 1, !llfi_index !1249
  %44 = trunc i8 %43 to i1, !llfi_index !1250
  br i1 %44, label %45, label %53, !llfi_index !1251

45:                                               ; preds = %41
  %46 = call %"struct.std::_Rb_tree_node_base"* @_ZNSt8_Rb_treeIiiSt9_IdentityIiESt4lessIiESaIiEE5beginEv(%"class.std::_Rb_tree"* nonnull align 8 dereferenceable(48) %12) #2, !llfi_index !1252
  %47 = getelementptr inbounds %"struct.std::_Rb_tree_const_iterator", %"struct.std::_Rb_tree_const_iterator"* %10, i32 0, i32 0, !llfi_index !1253
  store %"struct.std::_Rb_tree_node_base"* %46, %"struct.std::_Rb_tree_node_base"** %47, align 8, !llfi_index !1254
  %48 = call zeroext i1 @_ZSteqRKSt17_Rb_tree_iteratorIiES2_(%"struct.std::_Rb_tree_const_iterator"* nonnull align 8 dereferenceable(8) %9, %"struct.std::_Rb_tree_const_iterator"* nonnull align 8 dereferenceable(8) %10) #2, !llfi_index !1255
  br i1 %48, label %49, label %50, !llfi_index !1256

49:                                               ; preds = %45
  call void @_ZNSt4pairIPSt18_Rb_tree_node_baseS1_EC2IRPSt13_Rb_tree_nodeIiERS1_Lb1EEEOT_OT0_(%"struct.std::pair.4"* nonnull align 8 dereferenceable(16) %3, %"struct.std::_Rb_tree_node"** nonnull align 8 dereferenceable(8) %6, %"struct.std::_Rb_tree_node_base"** nonnull align 8 dereferenceable(8) %7), !llfi_index !1257
  br label %65, !llfi_index !1258

50:                                               ; preds = %45
  %51 = call nonnull align 8 dereferenceable(8) %"struct.std::_Rb_tree_const_iterator"* @_ZNSt17_Rb_tree_iteratorIiEmmEv(%"struct.std::_Rb_tree_const_iterator"* nonnull align 8 dereferenceable(8) %9) #2, !llfi_index !1259
  br label %52, !llfi_index !1260

52:                                               ; preds = %50
  br label %53, !llfi_index !1261

53:                                               ; preds = %52, %41
  %54 = getelementptr inbounds %"class.std::_Rb_tree", %"class.std::_Rb_tree"* %12, i32 0, i32 0, !llfi_index !1262
  %55 = bitcast %"struct.std::_Rb_tree<int, int, std::_Identity<int>, std::less<int>>::_Rb_tree_impl"* %54 to %"struct.std::_Rb_tree_key_compare"*, !llfi_index !1263
  %56 = getelementptr inbounds %"struct.std::_Rb_tree_key_compare", %"struct.std::_Rb_tree_key_compare"* %55, i32 0, i32 0, !llfi_index !1264
  %57 = getelementptr inbounds %"struct.std::_Rb_tree_const_iterator", %"struct.std::_Rb_tree_const_iterator"* %9, i32 0, i32 0, !llfi_index !1265
  %58 = load %"struct.std::_Rb_tree_node_base"*, %"struct.std::_Rb_tree_node_base"** %57, align 8, !llfi_index !1266
  %59 = call nonnull align 4 dereferenceable(4) i32* @_ZNSt8_Rb_treeIiiSt9_IdentityIiESt4lessIiESaIiEE6_S_keyEPKSt18_Rb_tree_node_base(%"struct.std::_Rb_tree_node_base"* %58), !llfi_index !1267
  %60 = load i32*, i32** %5, align 8, !llfi_index !1268
  %61 = call zeroext i1 @_ZNKSt4lessIiEclERKiS2_(%"class.std::ios_base::Init"* nonnull align 1 dereferenceable(1) %56, i32* nonnull align 4 dereferenceable(4) %59, i32* nonnull align 4 dereferenceable(4) %60), !llfi_index !1269
  br i1 %61, label %62, label %63, !llfi_index !1270

62:                                               ; preds = %53
  call void @_ZNSt4pairIPSt18_Rb_tree_node_baseS1_EC2IRPSt13_Rb_tree_nodeIiERS1_Lb1EEEOT_OT0_(%"struct.std::pair.4"* nonnull align 8 dereferenceable(16) %3, %"struct.std::_Rb_tree_node"** nonnull align 8 dereferenceable(8) %6, %"struct.std::_Rb_tree_node_base"** nonnull align 8 dereferenceable(8) %7), !llfi_index !1271
  br label %65, !llfi_index !1272

63:                                               ; preds = %53
  %64 = getelementptr inbounds %"struct.std::_Rb_tree_const_iterator", %"struct.std::_Rb_tree_const_iterator"* %9, i32 0, i32 0, !llfi_index !1273
  store %"struct.std::_Rb_tree_node_base"* null, %"struct.std::_Rb_tree_node_base"** %11, align 8, !llfi_index !1274
  call void @_ZNSt4pairIPSt18_Rb_tree_node_baseS1_EC2IRS1_Lb1EEEOT_RKS1_(%"struct.std::pair.4"* nonnull align 8 dereferenceable(16) %3, %"struct.std::_Rb_tree_node_base"** nonnull align 8 dereferenceable(8) %64, %"struct.std::_Rb_tree_node_base"** nonnull align 8 dereferenceable(8) %11), !llfi_index !1275
  br label %65, !llfi_index !1276

65:                                               ; preds = %63, %62, %49
  %66 = bitcast %"struct.std::pair.4"* %3 to { %"struct.std::_Rb_tree_node_base"*, %"struct.std::_Rb_tree_node_base"* }*, !llfi_index !1277
  %67 = load { %"struct.std::_Rb_tree_node_base"*, %"struct.std::_Rb_tree_node_base"* }, { %"struct.std::_Rb_tree_node_base"*, %"struct.std::_Rb_tree_node_base"* }* %66, align 8, !llfi_index !1278
  ret { %"struct.std::_Rb_tree_node_base"*, %"struct.std::_Rb_tree_node_base"* } %67, !llfi_index !1279
}

; Function Attrs: noinline nounwind uwtable
define linkonce_odr dso_local void @_ZNSt8_Rb_treeIiiSt9_IdentityIiESt4lessIiESaIiEE11_Alloc_nodeC2ERS5_(%"struct.std::_Rb_tree<int, int, std::_Identity<int>, std::less<int>>::_Alloc_node"* nonnull align 8 dereferenceable(8) %0, %"class.std::_Rb_tree"* nonnull align 8 dereferenceable(48) %1) unnamed_addr #6 comdat align 2 {
  %3 = alloca %"struct.std::_Rb_tree<int, int, std::_Identity<int>, std::less<int>>::_Alloc_node"*, align 8, !llfi_index !1280
  %4 = alloca %"class.std::_Rb_tree"*, align 8, !llfi_index !1281
  store %"struct.std::_Rb_tree<int, int, std::_Identity<int>, std::less<int>>::_Alloc_node"* %0, %"struct.std::_Rb_tree<int, int, std::_Identity<int>, std::less<int>>::_Alloc_node"** %3, align 8, !llfi_index !1282
  store %"class.std::_Rb_tree"* %1, %"class.std::_Rb_tree"** %4, align 8, !llfi_index !1283
  %5 = load %"struct.std::_Rb_tree<int, int, std::_Identity<int>, std::less<int>>::_Alloc_node"*, %"struct.std::_Rb_tree<int, int, std::_Identity<int>, std::less<int>>::_Alloc_node"** %3, align 8, !llfi_index !1284
  %6 = getelementptr inbounds %"struct.std::_Rb_tree<int, int, std::_Identity<int>, std::less<int>>::_Alloc_node", %"struct.std::_Rb_tree<int, int, std::_Identity<int>, std::less<int>>::_Alloc_node"* %5, i32 0, i32 0, !llfi_index !1285
  %7 = load %"class.std::_Rb_tree"*, %"class.std::_Rb_tree"** %4, align 8, !llfi_index !1286
  store %"class.std::_Rb_tree"* %7, %"class.std::_Rb_tree"** %6, align 8, !llfi_index !1287
  ret void, !llfi_index !1288
}

; Function Attrs: mustprogress noinline nounwind uwtable
define linkonce_odr dso_local nonnull align 4 dereferenceable(4) i32* @_ZSt7forwardIRKiEOT_RNSt16remove_referenceIS2_E4typeE(i32* nonnull align 4 dereferenceable(4) %0) #4 comdat {
  %2 = alloca i32*, align 8, !llfi_index !1289
  store i32* %0, i32** %2, align 8, !llfi_index !1290
  %3 = load i32*, i32** %2, align 8, !llfi_index !1291
  ret i32* %3, !llfi_index !1292
}

; Function Attrs: mustprogress noinline uwtable
define linkonce_odr dso_local %"struct.std::_Rb_tree_node_base"* @_ZNSt8_Rb_treeIiiSt9_IdentityIiESt4lessIiESaIiEE10_M_insert_IRKiNS5_11_Alloc_nodeEEESt17_Rb_tree_iteratorIiEPSt18_Rb_tree_node_baseSD_OT_RT0_(%"class.std::_Rb_tree"* nonnull align 8 dereferenceable(48) %0, %"struct.std::_Rb_tree_node_base"* %1, %"struct.std::_Rb_tree_node_base"* %2, i32* nonnull align 4 dereferenceable(4) %3, %"struct.std::_Rb_tree<int, int, std::_Identity<int>, std::less<int>>::_Alloc_node"* nonnull align 8 dereferenceable(8) %4) #7 comdat align 2 {
  %6 = alloca %"struct.std::_Rb_tree_const_iterator", align 8, !llfi_index !1293
  %7 = alloca %"class.std::_Rb_tree"*, align 8, !llfi_index !1294
  %8 = alloca %"struct.std::_Rb_tree_node_base"*, align 8, !llfi_index !1295
  %9 = alloca %"struct.std::_Rb_tree_node_base"*, align 8, !llfi_index !1296
  %10 = alloca i32*, align 8, !llfi_index !1297
  %11 = alloca %"struct.std::_Rb_tree<int, int, std::_Identity<int>, std::less<int>>::_Alloc_node"*, align 8, !llfi_index !1298
  %12 = alloca i8, align 1, !llfi_index !1299
  %13 = alloca %"class.std::ios_base::Init", align 1, !llfi_index !1300
  %14 = alloca %"struct.std::_Rb_tree_node"*, align 8, !llfi_index !1301
  store %"class.std::_Rb_tree"* %0, %"class.std::_Rb_tree"** %7, align 8, !llfi_index !1302
  store %"struct.std::_Rb_tree_node_base"* %1, %"struct.std::_Rb_tree_node_base"** %8, align 8, !llfi_index !1303
  store %"struct.std::_Rb_tree_node_base"* %2, %"struct.std::_Rb_tree_node_base"** %9, align 8, !llfi_index !1304
  store i32* %3, i32** %10, align 8, !llfi_index !1305
  store %"struct.std::_Rb_tree<int, int, std::_Identity<int>, std::less<int>>::_Alloc_node"* %4, %"struct.std::_Rb_tree<int, int, std::_Identity<int>, std::less<int>>::_Alloc_node"** %11, align 8, !llfi_index !1306
  %15 = load %"class.std::_Rb_tree"*, %"class.std::_Rb_tree"** %7, align 8, !llfi_index !1307
  %16 = load %"struct.std::_Rb_tree_node_base"*, %"struct.std::_Rb_tree_node_base"** %8, align 8, !llfi_index !1308
  %17 = icmp ne %"struct.std::_Rb_tree_node_base"* %16, null, !llfi_index !1309
  br i1 %17, label %31, label %18, !llfi_index !1310

18:                                               ; preds = %5
  %19 = load %"struct.std::_Rb_tree_node_base"*, %"struct.std::_Rb_tree_node_base"** %9, align 8, !llfi_index !1311
  %20 = call %"struct.std::_Rb_tree_node_base"* @_ZNSt8_Rb_treeIiiSt9_IdentityIiESt4lessIiESaIiEE6_M_endEv(%"class.std::_Rb_tree"* nonnull align 8 dereferenceable(48) %15) #2, !llfi_index !1312
  %21 = icmp eq %"struct.std::_Rb_tree_node_base"* %19, %20, !llfi_index !1313
  br i1 %21, label %31, label %22, !llfi_index !1314

22:                                               ; preds = %18
  %23 = getelementptr inbounds %"class.std::_Rb_tree", %"class.std::_Rb_tree"* %15, i32 0, i32 0, !llfi_index !1315
  %24 = bitcast %"struct.std::_Rb_tree<int, int, std::_Identity<int>, std::less<int>>::_Rb_tree_impl"* %23 to %"struct.std::_Rb_tree_key_compare"*, !llfi_index !1316
  %25 = getelementptr inbounds %"struct.std::_Rb_tree_key_compare", %"struct.std::_Rb_tree_key_compare"* %24, i32 0, i32 0, !llfi_index !1317
  %26 = load i32*, i32** %10, align 8, !llfi_index !1318
  %27 = call nonnull align 4 dereferenceable(4) i32* @_ZNKSt9_IdentityIiEclERKi(%"class.std::ios_base::Init"* nonnull align 1 dereferenceable(1) %13, i32* nonnull align 4 dereferenceable(4) %26), !llfi_index !1319
  %28 = load %"struct.std::_Rb_tree_node_base"*, %"struct.std::_Rb_tree_node_base"** %9, align 8, !llfi_index !1320
  %29 = call nonnull align 4 dereferenceable(4) i32* @_ZNSt8_Rb_treeIiiSt9_IdentityIiESt4lessIiESaIiEE6_S_keyEPKSt18_Rb_tree_node_base(%"struct.std::_Rb_tree_node_base"* %28), !llfi_index !1321
  %30 = call zeroext i1 @_ZNKSt4lessIiEclERKiS2_(%"class.std::ios_base::Init"* nonnull align 1 dereferenceable(1) %25, i32* nonnull align 4 dereferenceable(4) %27, i32* nonnull align 4 dereferenceable(4) %29), !llfi_index !1322
  br label %31, !llfi_index !1323

31:                                               ; preds = %22, %18, %5
  %32 = phi i1 [ true, %18 ], [ true, %5 ], [ %30, %22 ], !llfi_index !1324
  %33 = zext i1 %32 to i8, !llfi_index !1325
  store i8 %33, i8* %12, align 1, !llfi_index !1326
  %34 = load %"struct.std::_Rb_tree<int, int, std::_Identity<int>, std::less<int>>::_Alloc_node"*, %"struct.std::_Rb_tree<int, int, std::_Identity<int>, std::less<int>>::_Alloc_node"** %11, align 8, !llfi_index !1327
  %35 = load i32*, i32** %10, align 8, !llfi_index !1328
  %36 = call nonnull align 4 dereferenceable(4) i32* @_ZSt7forwardIRKiEOT_RNSt16remove_referenceIS2_E4typeE(i32* nonnull align 4 dereferenceable(4) %35) #2, !llfi_index !1329
  %37 = call %"struct.std::_Rb_tree_node"* @_ZNKSt8_Rb_treeIiiSt9_IdentityIiESt4lessIiESaIiEE11_Alloc_nodeclIRKiEEPSt13_Rb_tree_nodeIiEOT_(%"struct.std::_Rb_tree<int, int, std::_Identity<int>, std::less<int>>::_Alloc_node"* nonnull align 8 dereferenceable(8) %34, i32* nonnull align 4 dereferenceable(4) %36), !llfi_index !1330
  store %"struct.std::_Rb_tree_node"* %37, %"struct.std::_Rb_tree_node"** %14, align 8, !llfi_index !1331
  %38 = load i8, i8* %12, align 1, !llfi_index !1332
  %39 = trunc i8 %38 to i1, !llfi_index !1333
  %40 = load %"struct.std::_Rb_tree_node"*, %"struct.std::_Rb_tree_node"** %14, align 8, !llfi_index !1334
  %41 = bitcast %"struct.std::_Rb_tree_node"* %40 to %"struct.std::_Rb_tree_node_base"*, !llfi_index !1335
  %42 = load %"struct.std::_Rb_tree_node_base"*, %"struct.std::_Rb_tree_node_base"** %9, align 8, !llfi_index !1336
  %43 = getelementptr inbounds %"class.std::_Rb_tree", %"class.std::_Rb_tree"* %15, i32 0, i32 0, !llfi_index !1337
  %44 = bitcast %"struct.std::_Rb_tree<int, int, std::_Identity<int>, std::less<int>>::_Rb_tree_impl"* %43 to i8*, !llfi_index !1338
  %45 = getelementptr inbounds i8, i8* %44, i64 8, !llfi_index !1339
  %46 = bitcast i8* %45 to %"struct.std::_Rb_tree_header"*, !llfi_index !1340
  %47 = getelementptr inbounds %"struct.std::_Rb_tree_header", %"struct.std::_Rb_tree_header"* %46, i32 0, i32 0, !llfi_index !1341
  call void @_ZSt29_Rb_tree_insert_and_rebalancebPSt18_Rb_tree_node_baseS0_RS_(i1 zeroext %39, %"struct.std::_Rb_tree_node_base"* %41, %"struct.std::_Rb_tree_node_base"* %42, %"struct.std::_Rb_tree_node_base"* nonnull align 8 dereferenceable(32) %47) #2, !llfi_index !1342
  %48 = getelementptr inbounds %"class.std::_Rb_tree", %"class.std::_Rb_tree"* %15, i32 0, i32 0, !llfi_index !1343
  %49 = bitcast %"struct.std::_Rb_tree<int, int, std::_Identity<int>, std::less<int>>::_Rb_tree_impl"* %48 to i8*, !llfi_index !1344
  %50 = getelementptr inbounds i8, i8* %49, i64 8, !llfi_index !1345
  %51 = bitcast i8* %50 to %"struct.std::_Rb_tree_header"*, !llfi_index !1346
  %52 = getelementptr inbounds %"struct.std::_Rb_tree_header", %"struct.std::_Rb_tree_header"* %51, i32 0, i32 1, !llfi_index !1347
  %53 = load i64, i64* %52, align 8, !llfi_index !1348
  %54 = add i64 %53, 1, !llfi_index !1349
  store i64 %54, i64* %52, align 8, !llfi_index !1350
  %55 = load %"struct.std::_Rb_tree_node"*, %"struct.std::_Rb_tree_node"** %14, align 8, !llfi_index !1351
  %56 = bitcast %"struct.std::_Rb_tree_node"* %55 to %"struct.std::_Rb_tree_node_base"*, !llfi_index !1352
  call void @_ZNSt17_Rb_tree_iteratorIiEC2EPSt18_Rb_tree_node_base(%"struct.std::_Rb_tree_const_iterator"* nonnull align 8 dereferenceable(8) %6, %"struct.std::_Rb_tree_node_base"* %56) #2, !llfi_index !1353
  %57 = getelementptr inbounds %"struct.std::_Rb_tree_const_iterator", %"struct.std::_Rb_tree_const_iterator"* %6, i32 0, i32 0, !llfi_index !1354
  %58 = load %"struct.std::_Rb_tree_node_base"*, %"struct.std::_Rb_tree_node_base"** %57, align 8, !llfi_index !1355
  ret %"struct.std::_Rb_tree_node_base"* %58, !llfi_index !1356
}

; Function Attrs: noinline nounwind uwtable
define linkonce_odr dso_local void @_ZNSt4pairISt17_Rb_tree_iteratorIiEbEC2IS1_bLb1EEEOT_OT0_(%"struct.std::pair"* nonnull align 8 dereferenceable(9) %0, %"struct.std::_Rb_tree_const_iterator"* nonnull align 8 dereferenceable(8) %1, i8* nonnull align 1 dereferenceable(1) %2) unnamed_addr #6 comdat align 2 {
  %4 = alloca %"struct.std::pair"*, align 8, !llfi_index !1357
  %5 = alloca %"struct.std::_Rb_tree_const_iterator"*, align 8, !llfi_index !1358
  %6 = alloca i8*, align 8, !llfi_index !1359
  store %"struct.std::pair"* %0, %"struct.std::pair"** %4, align 8, !llfi_index !1360
  store %"struct.std::_Rb_tree_const_iterator"* %1, %"struct.std::_Rb_tree_const_iterator"** %5, align 8, !llfi_index !1361
  store i8* %2, i8** %6, align 8, !llfi_index !1362
  %7 = load %"struct.std::pair"*, %"struct.std::pair"** %4, align 8, !llfi_index !1363
  %8 = bitcast %"struct.std::pair"* %7 to %"class.std::ios_base::Init"*, !llfi_index !1364
  %9 = getelementptr inbounds %"struct.std::pair", %"struct.std::pair"* %7, i32 0, i32 0, !llfi_index !1365
  %10 = load %"struct.std::_Rb_tree_const_iterator"*, %"struct.std::_Rb_tree_const_iterator"** %5, align 8, !llfi_index !1366
  %11 = call nonnull align 8 dereferenceable(8) %"struct.std::_Rb_tree_const_iterator"* @_ZSt7forwardISt17_Rb_tree_iteratorIiEEOT_RNSt16remove_referenceIS2_E4typeE(%"struct.std::_Rb_tree_const_iterator"* nonnull align 8 dereferenceable(8) %10) #2, !llfi_index !1367
  %12 = bitcast %"struct.std::_Rb_tree_const_iterator"* %9 to i8*, !llfi_index !1368
  %13 = bitcast %"struct.std::_Rb_tree_const_iterator"* %11 to i8*, !llfi_index !1369
  call void @llvm.memcpy.p0i8.p0i8.i64(i8* align 8 %12, i8* align 8 %13, i64 8, i1 false), !llfi_index !1370
  %14 = getelementptr inbounds %"struct.std::pair", %"struct.std::pair"* %7, i32 0, i32 1, !llfi_index !1371
  %15 = load i8*, i8** %6, align 8, !llfi_index !1372
  %16 = call nonnull align 1 dereferenceable(1) i8* @_ZSt7forwardIbEOT_RNSt16remove_referenceIS0_E4typeE(i8* nonnull align 1 dereferenceable(1) %15) #2, !llfi_index !1373
  %17 = load i8, i8* %16, align 1, !llfi_index !1374
  %18 = trunc i8 %17 to i1, !llfi_index !1375
  %19 = zext i1 %18 to i8, !llfi_index !1376
  store i8 %19, i8* %14, align 8, !llfi_index !1377
  ret void, !llfi_index !1378
}

; Function Attrs: mustprogress noinline nounwind uwtable
define linkonce_odr dso_local nonnull align 1 dereferenceable(1) i8* @_ZSt7forwardIbEOT_RNSt16remove_referenceIS0_E4typeE(i8* nonnull align 1 dereferenceable(1) %0) #4 comdat {
  %2 = alloca i8*, align 8, !llfi_index !1379
  store i8* %0, i8** %2, align 8, !llfi_index !1380
  %3 = load i8*, i8** %2, align 8, !llfi_index !1381
  ret i8* %3, !llfi_index !1382
}

; Function Attrs: mustprogress noinline uwtable
define linkonce_odr dso_local nonnull align 4 dereferenceable(4) i32* @_ZNSt8_Rb_treeIiiSt9_IdentityIiESt4lessIiESaIiEE6_S_keyEPKSt18_Rb_tree_node_base(%"struct.std::_Rb_tree_node_base"* %0) #7 comdat align 2 {
  %2 = alloca %"struct.std::_Rb_tree_node_base"*, align 8, !llfi_index !1383
  store %"struct.std::_Rb_tree_node_base"* %0, %"struct.std::_Rb_tree_node_base"** %2, align 8, !llfi_index !1384
  %3 = load %"struct.std::_Rb_tree_node_base"*, %"struct.std::_Rb_tree_node_base"** %2, align 8, !llfi_index !1385
  %4 = bitcast %"struct.std::_Rb_tree_node_base"* %3 to %"struct.std::_Rb_tree_node"*, !llfi_index !1386
  %5 = call nonnull align 4 dereferenceable(4) i32* @_ZNSt8_Rb_treeIiiSt9_IdentityIiESt4lessIiESaIiEE6_S_keyEPKSt13_Rb_tree_nodeIiE(%"struct.std::_Rb_tree_node"* %4), !llfi_index !1387
  ret i32* %5, !llfi_index !1388
}

; Function Attrs: mustprogress noinline uwtable
define linkonce_odr dso_local %"struct.std::_Rb_tree_node"* @_ZNKSt8_Rb_treeIiiSt9_IdentityIiESt4lessIiESaIiEE11_Alloc_nodeclIRKiEEPSt13_Rb_tree_nodeIiEOT_(%"struct.std::_Rb_tree<int, int, std::_Identity<int>, std::less<int>>::_Alloc_node"* nonnull align 8 dereferenceable(8) %0, i32* nonnull align 4 dereferenceable(4) %1) #7 comdat align 2 {
  %3 = alloca %"struct.std::_Rb_tree<int, int, std::_Identity<int>, std::less<int>>::_Alloc_node"*, align 8, !llfi_index !1389
  %4 = alloca i32*, align 8, !llfi_index !1390
  store %"struct.std::_Rb_tree<int, int, std::_Identity<int>, std::less<int>>::_Alloc_node"* %0, %"struct.std::_Rb_tree<int, int, std::_Identity<int>, std::less<int>>::_Alloc_node"** %3, align 8, !llfi_index !1391
  store i32* %1, i32** %4, align 8, !llfi_index !1392
  %5 = load %"struct.std::_Rb_tree<int, int, std::_Identity<int>, std::less<int>>::_Alloc_node"*, %"struct.std::_Rb_tree<int, int, std::_Identity<int>, std::less<int>>::_Alloc_node"** %3, align 8, !llfi_index !1393
  %6 = getelementptr inbounds %"struct.std::_Rb_tree<int, int, std::_Identity<int>, std::less<int>>::_Alloc_node", %"struct.std::_Rb_tree<int, int, std::_Identity<int>, std::less<int>>::_Alloc_node"* %5, i32 0, i32 0, !llfi_index !1394
  %7 = load %"class.std::_Rb_tree"*, %"class.std::_Rb_tree"** %6, align 8, !llfi_index !1395
  %8 = load i32*, i32** %4, align 8, !llfi_index !1396
  %9 = call nonnull align 4 dereferenceable(4) i32* @_ZSt7forwardIRKiEOT_RNSt16remove_referenceIS2_E4typeE(i32* nonnull align 4 dereferenceable(4) %8) #2, !llfi_index !1397
  %10 = call %"struct.std::_Rb_tree_node"* @_ZNSt8_Rb_treeIiiSt9_IdentityIiESt4lessIiESaIiEE14_M_create_nodeIJRKiEEEPSt13_Rb_tree_nodeIiEDpOT_(%"class.std::_Rb_tree"* nonnull align 8 dereferenceable(48) %7, i32* nonnull align 4 dereferenceable(4) %9), !llfi_index !1398
  ret %"struct.std::_Rb_tree_node"* %10, !llfi_index !1399
}

; Function Attrs: nounwind
declare dso_local void @_ZSt29_Rb_tree_insert_and_rebalancebPSt18_Rb_tree_node_baseS0_RS_(i1 zeroext, %"struct.std::_Rb_tree_node_base"*, %"struct.std::_Rb_tree_node_base"*, %"struct.std::_Rb_tree_node_base"* nonnull align 8 dereferenceable(32)) #3

; Function Attrs: mustprogress noinline uwtable
define linkonce_odr dso_local %"struct.std::_Rb_tree_node"* @_ZNSt8_Rb_treeIiiSt9_IdentityIiESt4lessIiESaIiEE14_M_create_nodeIJRKiEEEPSt13_Rb_tree_nodeIiEDpOT_(%"class.std::_Rb_tree"* nonnull align 8 dereferenceable(48) %0, i32* nonnull align 4 dereferenceable(4) %1) #7 comdat align 2 {
  %3 = alloca %"class.std::_Rb_tree"*, align 8, !llfi_index !1400
  %4 = alloca i32*, align 8, !llfi_index !1401
  %5 = alloca %"struct.std::_Rb_tree_node"*, align 8, !llfi_index !1402
  store %"class.std::_Rb_tree"* %0, %"class.std::_Rb_tree"** %3, align 8, !llfi_index !1403
  store i32* %1, i32** %4, align 8, !llfi_index !1404
  %6 = load %"class.std::_Rb_tree"*, %"class.std::_Rb_tree"** %3, align 8, !llfi_index !1405
  %7 = call %"struct.std::_Rb_tree_node"* @_ZNSt8_Rb_treeIiiSt9_IdentityIiESt4lessIiESaIiEE11_M_get_nodeEv(%"class.std::_Rb_tree"* nonnull align 8 dereferenceable(48) %6), !llfi_index !1406
  store %"struct.std::_Rb_tree_node"* %7, %"struct.std::_Rb_tree_node"** %5, align 8, !llfi_index !1407
  %8 = load %"struct.std::_Rb_tree_node"*, %"struct.std::_Rb_tree_node"** %5, align 8, !llfi_index !1408
  %9 = load i32*, i32** %4, align 8, !llfi_index !1409
  %10 = call nonnull align 4 dereferenceable(4) i32* @_ZSt7forwardIRKiEOT_RNSt16remove_referenceIS2_E4typeE(i32* nonnull align 4 dereferenceable(4) %9) #2, !llfi_index !1410
  call void @_ZNSt8_Rb_treeIiiSt9_IdentityIiESt4lessIiESaIiEE17_M_construct_nodeIJRKiEEEvPSt13_Rb_tree_nodeIiEDpOT_(%"class.std::_Rb_tree"* nonnull align 8 dereferenceable(48) %6, %"struct.std::_Rb_tree_node"* %8, i32* nonnull align 4 dereferenceable(4) %10), !llfi_index !1411
  %11 = load %"struct.std::_Rb_tree_node"*, %"struct.std::_Rb_tree_node"** %5, align 8, !llfi_index !1412
  ret %"struct.std::_Rb_tree_node"* %11, !llfi_index !1413
}

; Function Attrs: mustprogress noinline uwtable
define linkonce_odr dso_local %"struct.std::_Rb_tree_node"* @_ZNSt8_Rb_treeIiiSt9_IdentityIiESt4lessIiESaIiEE11_M_get_nodeEv(%"class.std::_Rb_tree"* nonnull align 8 dereferenceable(48) %0) #7 comdat align 2 {
  %2 = alloca %"class.std::_Rb_tree"*, align 8, !llfi_index !1414
  store %"class.std::_Rb_tree"* %0, %"class.std::_Rb_tree"** %2, align 8, !llfi_index !1415
  %3 = load %"class.std::_Rb_tree"*, %"class.std::_Rb_tree"** %2, align 8, !llfi_index !1416
  %4 = call nonnull align 1 dereferenceable(1) %"class.std::ios_base::Init"* @_ZNSt8_Rb_treeIiiSt9_IdentityIiESt4lessIiESaIiEE21_M_get_Node_allocatorEv(%"class.std::_Rb_tree"* nonnull align 8 dereferenceable(48) %3) #2, !llfi_index !1417
  %5 = call %"struct.std::_Rb_tree_node"* @_ZNSt16allocator_traitsISaISt13_Rb_tree_nodeIiEEE8allocateERS2_m(%"class.std::ios_base::Init"* nonnull align 1 dereferenceable(1) %4, i64 1), !llfi_index !1418
  ret %"struct.std::_Rb_tree_node"* %5, !llfi_index !1419
}

; Function Attrs: mustprogress noinline nounwind uwtable
define linkonce_odr dso_local void @_ZNSt8_Rb_treeIiiSt9_IdentityIiESt4lessIiESaIiEE17_M_construct_nodeIJRKiEEEvPSt13_Rb_tree_nodeIiEDpOT_(%"class.std::_Rb_tree"* nonnull align 8 dereferenceable(48) %0, %"struct.std::_Rb_tree_node"* %1, i32* nonnull align 4 dereferenceable(4) %2) #4 comdat align 2 {
  %4 = alloca %"class.std::_Rb_tree"*, align 8, !llfi_index !1420
  %5 = alloca %"struct.std::_Rb_tree_node"*, align 8, !llfi_index !1421
  %6 = alloca i32*, align 8, !llfi_index !1422
  store %"class.std::_Rb_tree"* %0, %"class.std::_Rb_tree"** %4, align 8, !llfi_index !1423
  store %"struct.std::_Rb_tree_node"* %1, %"struct.std::_Rb_tree_node"** %5, align 8, !llfi_index !1424
  store i32* %2, i32** %6, align 8, !llfi_index !1425
  %7 = load %"class.std::_Rb_tree"*, %"class.std::_Rb_tree"** %4, align 8, !llfi_index !1426
  %8 = load %"struct.std::_Rb_tree_node"*, %"struct.std::_Rb_tree_node"** %5, align 8, !llfi_index !1427
  %9 = bitcast %"struct.std::_Rb_tree_node"* %8 to i8*, !llfi_index !1428
  %10 = bitcast i8* %9 to %"struct.std::_Rb_tree_node"*, !llfi_index !1429
  %11 = call nonnull align 1 dereferenceable(1) %"class.std::ios_base::Init"* @_ZNSt8_Rb_treeIiiSt9_IdentityIiESt4lessIiESaIiEE21_M_get_Node_allocatorEv(%"class.std::_Rb_tree"* nonnull align 8 dereferenceable(48) %7) #2, !llfi_index !1430
  %12 = load %"struct.std::_Rb_tree_node"*, %"struct.std::_Rb_tree_node"** %5, align 8, !llfi_index !1431
  %13 = call i32* @_ZNSt13_Rb_tree_nodeIiE9_M_valptrEv(%"struct.std::_Rb_tree_node"* nonnull align 8 dereferenceable(36) %12), !llfi_index !1432
  %14 = load i32*, i32** %6, align 8, !llfi_index !1433
  %15 = call nonnull align 4 dereferenceable(4) i32* @_ZSt7forwardIRKiEOT_RNSt16remove_referenceIS2_E4typeE(i32* nonnull align 4 dereferenceable(4) %14) #2, !llfi_index !1434
  call void @_ZNSt16allocator_traitsISaISt13_Rb_tree_nodeIiEEE9constructIiJRKiEEEvRS2_PT_DpOT0_(%"class.std::ios_base::Init"* nonnull align 1 dereferenceable(1) %11, i32* %13, i32* nonnull align 4 dereferenceable(4) %15) #2, !llfi_index !1435
  ret void, !llfi_index !1436
}

; Function Attrs: mustprogress noinline nounwind uwtable
define linkonce_odr dso_local void @_ZNSt16allocator_traitsISaISt13_Rb_tree_nodeIiEEE9constructIiJRKiEEEvRS2_PT_DpOT0_(%"class.std::ios_base::Init"* nonnull align 1 dereferenceable(1) %0, i32* %1, i32* nonnull align 4 dereferenceable(4) %2) #4 comdat align 2 {
  %4 = alloca %"class.std::ios_base::Init"*, align 8, !llfi_index !1437
  %5 = alloca i32*, align 8, !llfi_index !1438
  %6 = alloca i32*, align 8, !llfi_index !1439
  store %"class.std::ios_base::Init"* %0, %"class.std::ios_base::Init"** %4, align 8, !llfi_index !1440
  store i32* %1, i32** %5, align 8, !llfi_index !1441
  store i32* %2, i32** %6, align 8, !llfi_index !1442
  %7 = load %"class.std::ios_base::Init"*, %"class.std::ios_base::Init"** %4, align 8, !llfi_index !1443
  %8 = bitcast %"class.std::ios_base::Init"* %7 to %"class.std::ios_base::Init"*, !llfi_index !1444
  %9 = load i32*, i32** %5, align 8, !llfi_index !1445
  %10 = load i32*, i32** %6, align 8, !llfi_index !1446
  %11 = call nonnull align 4 dereferenceable(4) i32* @_ZSt7forwardIRKiEOT_RNSt16remove_referenceIS2_E4typeE(i32* nonnull align 4 dereferenceable(4) %10) #2, !llfi_index !1447
  call void @_ZN9__gnu_cxx13new_allocatorISt13_Rb_tree_nodeIiEE9constructIiJRKiEEEvPT_DpOT0_(%"class.std::ios_base::Init"* nonnull align 1 dereferenceable(1) %8, i32* %9, i32* nonnull align 4 dereferenceable(4) %11) #2, !llfi_index !1448
  ret void, !llfi_index !1449
}

; Function Attrs: mustprogress noinline nounwind uwtable
define linkonce_odr dso_local void @_ZN9__gnu_cxx13new_allocatorISt13_Rb_tree_nodeIiEE9constructIiJRKiEEEvPT_DpOT0_(%"class.std::ios_base::Init"* nonnull align 1 dereferenceable(1) %0, i32* %1, i32* nonnull align 4 dereferenceable(4) %2) #4 comdat align 2 {
  %4 = alloca %"class.std::ios_base::Init"*, align 8, !llfi_index !1450
  %5 = alloca i32*, align 8, !llfi_index !1451
  %6 = alloca i32*, align 8, !llfi_index !1452
  store %"class.std::ios_base::Init"* %0, %"class.std::ios_base::Init"** %4, align 8, !llfi_index !1453
  store i32* %1, i32** %5, align 8, !llfi_index !1454
  store i32* %2, i32** %6, align 8, !llfi_index !1455
  %7 = load %"class.std::ios_base::Init"*, %"class.std::ios_base::Init"** %4, align 8, !llfi_index !1456
  %8 = load i32*, i32** %5, align 8, !llfi_index !1457
  %9 = bitcast i32* %8 to i8*, !llfi_index !1458
  %10 = bitcast i8* %9 to i32*, !llfi_index !1459
  %11 = load i32*, i32** %6, align 8, !llfi_index !1460
  %12 = call nonnull align 4 dereferenceable(4) i32* @_ZSt7forwardIRKiEOT_RNSt16remove_referenceIS2_E4typeE(i32* nonnull align 4 dereferenceable(4) %11) #2, !llfi_index !1461
  %13 = load i32, i32* %12, align 4, !llfi_index !1462
  store i32 %13, i32* %10, align 4, !llfi_index !1463
  ret void, !llfi_index !1464
}

; Function Attrs: mustprogress noinline uwtable
define linkonce_odr dso_local %"struct.std::_Rb_tree_node"* @_ZNSt16allocator_traitsISaISt13_Rb_tree_nodeIiEEE8allocateERS2_m(%"class.std::ios_base::Init"* nonnull align 1 dereferenceable(1) %0, i64 %1) #7 comdat align 2 {
  %3 = alloca %"class.std::ios_base::Init"*, align 8, !llfi_index !1465
  %4 = alloca i64, align 8, !llfi_index !1466
  store %"class.std::ios_base::Init"* %0, %"class.std::ios_base::Init"** %3, align 8, !llfi_index !1467
  store i64 %1, i64* %4, align 8, !llfi_index !1468
  %5 = load %"class.std::ios_base::Init"*, %"class.std::ios_base::Init"** %3, align 8, !llfi_index !1469
  %6 = bitcast %"class.std::ios_base::Init"* %5 to %"class.std::ios_base::Init"*, !llfi_index !1470
  %7 = load i64, i64* %4, align 8, !llfi_index !1471
  %8 = call %"struct.std::_Rb_tree_node"* @_ZN9__gnu_cxx13new_allocatorISt13_Rb_tree_nodeIiEE8allocateEmPKv(%"class.std::ios_base::Init"* nonnull align 1 dereferenceable(1) %6, i64 %7, i8* null), !llfi_index !1472
  ret %"struct.std::_Rb_tree_node"* %8, !llfi_index !1473
}

; Function Attrs: mustprogress noinline uwtable
define linkonce_odr dso_local %"struct.std::_Rb_tree_node"* @_ZN9__gnu_cxx13new_allocatorISt13_Rb_tree_nodeIiEE8allocateEmPKv(%"class.std::ios_base::Init"* nonnull align 1 dereferenceable(1) %0, i64 %1, i8* %2) #7 comdat align 2 {
  %4 = alloca %"class.std::ios_base::Init"*, align 8, !llfi_index !1474
  %5 = alloca i64, align 8, !llfi_index !1475
  %6 = alloca i8*, align 8, !llfi_index !1476
  store %"class.std::ios_base::Init"* %0, %"class.std::ios_base::Init"** %4, align 8, !llfi_index !1477
  store i64 %1, i64* %5, align 8, !llfi_index !1478
  store i8* %2, i8** %6, align 8, !llfi_index !1479
  %7 = load %"class.std::ios_base::Init"*, %"class.std::ios_base::Init"** %4, align 8, !llfi_index !1480
  %8 = load i64, i64* %5, align 8, !llfi_index !1481
  %9 = call i64 @_ZNK9__gnu_cxx13new_allocatorISt13_Rb_tree_nodeIiEE8max_sizeEv(%"class.std::ios_base::Init"* nonnull align 1 dereferenceable(1) %7) #2, !llfi_index !1482
  %10 = icmp ugt i64 %8, %9, !llfi_index !1483
  br i1 %10, label %11, label %12, !llfi_index !1484

11:                                               ; preds = %3
  call void @_ZSt17__throw_bad_allocv() #16, !llfi_index !1485
  unreachable, !llfi_index !1486

12:                                               ; preds = %3
  %13 = load i64, i64* %5, align 8, !llfi_index !1487
  %14 = mul i64 %13, 40, !llfi_index !1488
  %15 = call noalias nonnull i8* @_Znwm(i64 %14) #17, !llfi_index !1489
  %16 = bitcast i8* %15 to %"struct.std::_Rb_tree_node"*, !llfi_index !1490
  ret %"struct.std::_Rb_tree_node"* %16, !llfi_index !1491
}

; Function Attrs: mustprogress noinline nounwind uwtable
define linkonce_odr dso_local i64 @_ZNK9__gnu_cxx13new_allocatorISt13_Rb_tree_nodeIiEE8max_sizeEv(%"class.std::ios_base::Init"* nonnull align 1 dereferenceable(1) %0) #4 comdat align 2 {
  %2 = alloca %"class.std::ios_base::Init"*, align 8, !llfi_index !1492
  store %"class.std::ios_base::Init"* %0, %"class.std::ios_base::Init"** %2, align 8, !llfi_index !1493
  %3 = load %"class.std::ios_base::Init"*, %"class.std::ios_base::Init"** %2, align 8, !llfi_index !1494
  ret i64 230584300921369395, !llfi_index !1495
}

; Function Attrs: noreturn
declare dso_local void @_ZSt17__throw_bad_allocv() #12

; Function Attrs: nobuiltin allocsize(0)
declare dso_local nonnull i8* @_Znwm(i64) #13

; Function Attrs: mustprogress noinline nounwind uwtable
define linkonce_odr dso_local zeroext i1 @_ZSteqRKSt17_Rb_tree_iteratorIiES2_(%"struct.std::_Rb_tree_const_iterator"* nonnull align 8 dereferenceable(8) %0, %"struct.std::_Rb_tree_const_iterator"* nonnull align 8 dereferenceable(8) %1) #4 comdat {
  %3 = alloca %"struct.std::_Rb_tree_const_iterator"*, align 8, !llfi_index !1496
  %4 = alloca %"struct.std::_Rb_tree_const_iterator"*, align 8, !llfi_index !1497
  store %"struct.std::_Rb_tree_const_iterator"* %0, %"struct.std::_Rb_tree_const_iterator"** %3, align 8, !llfi_index !1498
  store %"struct.std::_Rb_tree_const_iterator"* %1, %"struct.std::_Rb_tree_const_iterator"** %4, align 8, !llfi_index !1499
  %5 = load %"struct.std::_Rb_tree_const_iterator"*, %"struct.std::_Rb_tree_const_iterator"** %3, align 8, !llfi_index !1500
  %6 = getelementptr inbounds %"struct.std::_Rb_tree_const_iterator", %"struct.std::_Rb_tree_const_iterator"* %5, i32 0, i32 0, !llfi_index !1501
  %7 = load %"struct.std::_Rb_tree_node_base"*, %"struct.std::_Rb_tree_node_base"** %6, align 8, !llfi_index !1502
  %8 = load %"struct.std::_Rb_tree_const_iterator"*, %"struct.std::_Rb_tree_const_iterator"** %4, align 8, !llfi_index !1503
  %9 = getelementptr inbounds %"struct.std::_Rb_tree_const_iterator", %"struct.std::_Rb_tree_const_iterator"* %8, i32 0, i32 0, !llfi_index !1504
  %10 = load %"struct.std::_Rb_tree_node_base"*, %"struct.std::_Rb_tree_node_base"** %9, align 8, !llfi_index !1505
  %11 = icmp eq %"struct.std::_Rb_tree_node_base"* %7, %10, !llfi_index !1506
  ret i1 %11, !llfi_index !1507
}

; Function Attrs: noinline nounwind uwtable
define linkonce_odr dso_local void @_ZNSt4pairIPSt18_Rb_tree_node_baseS1_EC2IRPSt13_Rb_tree_nodeIiERS1_Lb1EEEOT_OT0_(%"struct.std::pair.4"* nonnull align 8 dereferenceable(16) %0, %"struct.std::_Rb_tree_node"** nonnull align 8 dereferenceable(8) %1, %"struct.std::_Rb_tree_node_base"** nonnull align 8 dereferenceable(8) %2) unnamed_addr #6 comdat align 2 {
  %4 = alloca %"struct.std::pair.4"*, align 8, !llfi_index !1508
  %5 = alloca %"struct.std::_Rb_tree_node"**, align 8, !llfi_index !1509
  %6 = alloca %"struct.std::_Rb_tree_node_base"**, align 8, !llfi_index !1510
  store %"struct.std::pair.4"* %0, %"struct.std::pair.4"** %4, align 8, !llfi_index !1511
  store %"struct.std::_Rb_tree_node"** %1, %"struct.std::_Rb_tree_node"*** %5, align 8, !llfi_index !1512
  store %"struct.std::_Rb_tree_node_base"** %2, %"struct.std::_Rb_tree_node_base"*** %6, align 8, !llfi_index !1513
  %7 = load %"struct.std::pair.4"*, %"struct.std::pair.4"** %4, align 8, !llfi_index !1514
  %8 = bitcast %"struct.std::pair.4"* %7 to %"class.std::ios_base::Init"*, !llfi_index !1515
  %9 = getelementptr inbounds %"struct.std::pair.4", %"struct.std::pair.4"* %7, i32 0, i32 0, !llfi_index !1516
  %10 = load %"struct.std::_Rb_tree_node"**, %"struct.std::_Rb_tree_node"*** %5, align 8, !llfi_index !1517
  %11 = call nonnull align 8 dereferenceable(8) %"struct.std::_Rb_tree_node"** @_ZSt7forwardIRPSt13_Rb_tree_nodeIiEEOT_RNSt16remove_referenceIS4_E4typeE(%"struct.std::_Rb_tree_node"** nonnull align 8 dereferenceable(8) %10) #2, !llfi_index !1518
  %12 = load %"struct.std::_Rb_tree_node"*, %"struct.std::_Rb_tree_node"** %11, align 8, !llfi_index !1519
  %13 = bitcast %"struct.std::_Rb_tree_node"* %12 to %"struct.std::_Rb_tree_node_base"*, !llfi_index !1520
  store %"struct.std::_Rb_tree_node_base"* %13, %"struct.std::_Rb_tree_node_base"** %9, align 8, !llfi_index !1521
  %14 = getelementptr inbounds %"struct.std::pair.4", %"struct.std::pair.4"* %7, i32 0, i32 1, !llfi_index !1522
  %15 = load %"struct.std::_Rb_tree_node_base"**, %"struct.std::_Rb_tree_node_base"*** %6, align 8, !llfi_index !1523
  %16 = call nonnull align 8 dereferenceable(8) %"struct.std::_Rb_tree_node_base"** @_ZSt7forwardIRPSt18_Rb_tree_node_baseEOT_RNSt16remove_referenceIS3_E4typeE(%"struct.std::_Rb_tree_node_base"** nonnull align 8 dereferenceable(8) %15) #2, !llfi_index !1524
  %17 = load %"struct.std::_Rb_tree_node_base"*, %"struct.std::_Rb_tree_node_base"** %16, align 8, !llfi_index !1525
  store %"struct.std::_Rb_tree_node_base"* %17, %"struct.std::_Rb_tree_node_base"** %14, align 8, !llfi_index !1526
  ret void, !llfi_index !1527
}

; Function Attrs: mustprogress noinline nounwind uwtable
define linkonce_odr dso_local nonnull align 8 dereferenceable(8) %"struct.std::_Rb_tree_const_iterator"* @_ZNSt17_Rb_tree_iteratorIiEmmEv(%"struct.std::_Rb_tree_const_iterator"* nonnull align 8 dereferenceable(8) %0) #4 comdat align 2 {
  %2 = alloca %"struct.std::_Rb_tree_const_iterator"*, align 8, !llfi_index !1528
  store %"struct.std::_Rb_tree_const_iterator"* %0, %"struct.std::_Rb_tree_const_iterator"** %2, align 8, !llfi_index !1529
  %3 = load %"struct.std::_Rb_tree_const_iterator"*, %"struct.std::_Rb_tree_const_iterator"** %2, align 8, !llfi_index !1530
  %4 = getelementptr inbounds %"struct.std::_Rb_tree_const_iterator", %"struct.std::_Rb_tree_const_iterator"* %3, i32 0, i32 0, !llfi_index !1531
  %5 = load %"struct.std::_Rb_tree_node_base"*, %"struct.std::_Rb_tree_node_base"** %4, align 8, !llfi_index !1532
  %6 = call %"struct.std::_Rb_tree_node_base"* @_ZSt18_Rb_tree_decrementPSt18_Rb_tree_node_base(%"struct.std::_Rb_tree_node_base"* %5) #14, !llfi_index !1533
  %7 = getelementptr inbounds %"struct.std::_Rb_tree_const_iterator", %"struct.std::_Rb_tree_const_iterator"* %3, i32 0, i32 0, !llfi_index !1534
  store %"struct.std::_Rb_tree_node_base"* %6, %"struct.std::_Rb_tree_node_base"** %7, align 8, !llfi_index !1535
  ret %"struct.std::_Rb_tree_const_iterator"* %3, !llfi_index !1536
}

; Function Attrs: noinline nounwind uwtable
define linkonce_odr dso_local void @_ZNSt4pairIPSt18_Rb_tree_node_baseS1_EC2IRS1_Lb1EEEOT_RKS1_(%"struct.std::pair.4"* nonnull align 8 dereferenceable(16) %0, %"struct.std::_Rb_tree_node_base"** nonnull align 8 dereferenceable(8) %1, %"struct.std::_Rb_tree_node_base"** nonnull align 8 dereferenceable(8) %2) unnamed_addr #6 comdat align 2 {
  %4 = alloca %"struct.std::pair.4"*, align 8, !llfi_index !1537
  %5 = alloca %"struct.std::_Rb_tree_node_base"**, align 8, !llfi_index !1538
  %6 = alloca %"struct.std::_Rb_tree_node_base"**, align 8, !llfi_index !1539
  store %"struct.std::pair.4"* %0, %"struct.std::pair.4"** %4, align 8, !llfi_index !1540
  store %"struct.std::_Rb_tree_node_base"** %1, %"struct.std::_Rb_tree_node_base"*** %5, align 8, !llfi_index !1541
  store %"struct.std::_Rb_tree_node_base"** %2, %"struct.std::_Rb_tree_node_base"*** %6, align 8, !llfi_index !1542
  %7 = load %"struct.std::pair.4"*, %"struct.std::pair.4"** %4, align 8, !llfi_index !1543
  %8 = bitcast %"struct.std::pair.4"* %7 to %"class.std::ios_base::Init"*, !llfi_index !1544
  %9 = getelementptr inbounds %"struct.std::pair.4", %"struct.std::pair.4"* %7, i32 0, i32 0, !llfi_index !1545
  %10 = load %"struct.std::_Rb_tree_node_base"**, %"struct.std::_Rb_tree_node_base"*** %5, align 8, !llfi_index !1546
  %11 = call nonnull align 8 dereferenceable(8) %"struct.std::_Rb_tree_node_base"** @_ZSt7forwardIRPSt18_Rb_tree_node_baseEOT_RNSt16remove_referenceIS3_E4typeE(%"struct.std::_Rb_tree_node_base"** nonnull align 8 dereferenceable(8) %10) #2, !llfi_index !1547
  %12 = load %"struct.std::_Rb_tree_node_base"*, %"struct.std::_Rb_tree_node_base"** %11, align 8, !llfi_index !1548
  store %"struct.std::_Rb_tree_node_base"* %12, %"struct.std::_Rb_tree_node_base"** %9, align 8, !llfi_index !1549
  %13 = getelementptr inbounds %"struct.std::pair.4", %"struct.std::pair.4"* %7, i32 0, i32 1, !llfi_index !1550
  %14 = load %"struct.std::_Rb_tree_node_base"**, %"struct.std::_Rb_tree_node_base"*** %6, align 8, !llfi_index !1551
  %15 = load %"struct.std::_Rb_tree_node_base"*, %"struct.std::_Rb_tree_node_base"** %14, align 8, !llfi_index !1552
  store %"struct.std::_Rb_tree_node_base"* %15, %"struct.std::_Rb_tree_node_base"** %13, align 8, !llfi_index !1553
  ret void, !llfi_index !1554
}

; Function Attrs: mustprogress noinline nounwind uwtable
define linkonce_odr dso_local nonnull align 8 dereferenceable(8) %"struct.std::_Rb_tree_node_base"** @_ZSt7forwardIRPSt18_Rb_tree_node_baseEOT_RNSt16remove_referenceIS3_E4typeE(%"struct.std::_Rb_tree_node_base"** nonnull align 8 dereferenceable(8) %0) #4 comdat {
  %2 = alloca %"struct.std::_Rb_tree_node_base"**, align 8, !llfi_index !1555
  store %"struct.std::_Rb_tree_node_base"** %0, %"struct.std::_Rb_tree_node_base"*** %2, align 8, !llfi_index !1556
  %3 = load %"struct.std::_Rb_tree_node_base"**, %"struct.std::_Rb_tree_node_base"*** %2, align 8, !llfi_index !1557
  ret %"struct.std::_Rb_tree_node_base"** %3, !llfi_index !1558
}

; Function Attrs: nounwind readonly willreturn
declare dso_local %"struct.std::_Rb_tree_node_base"* @_ZSt18_Rb_tree_decrementPSt18_Rb_tree_node_base(%"struct.std::_Rb_tree_node_base"*) #11

; Function Attrs: mustprogress noinline nounwind uwtable
define linkonce_odr dso_local nonnull align 8 dereferenceable(8) %"struct.std::_Rb_tree_node"** @_ZSt7forwardIRPSt13_Rb_tree_nodeIiEEOT_RNSt16remove_referenceIS4_E4typeE(%"struct.std::_Rb_tree_node"** nonnull align 8 dereferenceable(8) %0) #4 comdat {
  %2 = alloca %"struct.std::_Rb_tree_node"**, align 8, !llfi_index !1559
  store %"struct.std::_Rb_tree_node"** %0, %"struct.std::_Rb_tree_node"*** %2, align 8, !llfi_index !1560
  %3 = load %"struct.std::_Rb_tree_node"**, %"struct.std::_Rb_tree_node"*** %2, align 8, !llfi_index !1561
  ret %"struct.std::_Rb_tree_node"** %3, !llfi_index !1562
}

; Function Attrs: noinline nounwind uwtable
define linkonce_odr dso_local void @_ZNSt8_Rb_treeIiiSt9_IdentityIiESt4lessIiESaIiEEC2Ev(%"class.std::_Rb_tree"* nonnull align 8 dereferenceable(48) %0) unnamed_addr #6 comdat align 2 {
  %2 = alloca %"class.std::_Rb_tree"*, align 8, !llfi_index !1563
  store %"class.std::_Rb_tree"* %0, %"class.std::_Rb_tree"** %2, align 8, !llfi_index !1564
  %3 = load %"class.std::_Rb_tree"*, %"class.std::_Rb_tree"** %2, align 8, !llfi_index !1565
  %4 = getelementptr inbounds %"class.std::_Rb_tree", %"class.std::_Rb_tree"* %3, i32 0, i32 0, !llfi_index !1566
  call void @_ZNSt8_Rb_treeIiiSt9_IdentityIiESt4lessIiESaIiEE13_Rb_tree_implIS3_Lb1EEC2Ev(%"struct.std::_Rb_tree<int, int, std::_Identity<int>, std::less<int>>::_Rb_tree_impl"* nonnull align 8 dereferenceable(48) %4) #2, !llfi_index !1567
  ret void, !llfi_index !1568
}

; Function Attrs: noinline nounwind uwtable
define linkonce_odr dso_local void @_ZNSt8_Rb_treeIiiSt9_IdentityIiESt4lessIiESaIiEE13_Rb_tree_implIS3_Lb1EEC2Ev(%"struct.std::_Rb_tree<int, int, std::_Identity<int>, std::less<int>>::_Rb_tree_impl"* nonnull align 8 dereferenceable(48) %0) unnamed_addr #6 comdat align 2 {
  %2 = alloca %"struct.std::_Rb_tree<int, int, std::_Identity<int>, std::less<int>>::_Rb_tree_impl"*, align 8, !llfi_index !1569
  store %"struct.std::_Rb_tree<int, int, std::_Identity<int>, std::less<int>>::_Rb_tree_impl"* %0, %"struct.std::_Rb_tree<int, int, std::_Identity<int>, std::less<int>>::_Rb_tree_impl"** %2, align 8, !llfi_index !1570
  %3 = load %"struct.std::_Rb_tree<int, int, std::_Identity<int>, std::less<int>>::_Rb_tree_impl"*, %"struct.std::_Rb_tree<int, int, std::_Identity<int>, std::less<int>>::_Rb_tree_impl"** %2, align 8, !llfi_index !1571
  %4 = bitcast %"struct.std::_Rb_tree<int, int, std::_Identity<int>, std::less<int>>::_Rb_tree_impl"* %3 to %"class.std::ios_base::Init"*, !llfi_index !1572
  call void @_ZNSaISt13_Rb_tree_nodeIiEEC2Ev(%"class.std::ios_base::Init"* nonnull align 1 dereferenceable(1) %4) #2, !llfi_index !1573
  %5 = bitcast %"struct.std::_Rb_tree<int, int, std::_Identity<int>, std::less<int>>::_Rb_tree_impl"* %3 to %"struct.std::_Rb_tree_key_compare"*, !llfi_index !1574
  call void @_ZNSt20_Rb_tree_key_compareISt4lessIiEEC2Ev(%"struct.std::_Rb_tree_key_compare"* nonnull align 1 dereferenceable(1) %5) #2, !llfi_index !1575
  %6 = bitcast %"struct.std::_Rb_tree<int, int, std::_Identity<int>, std::less<int>>::_Rb_tree_impl"* %3 to i8*, !llfi_index !1576
  %7 = getelementptr inbounds i8, i8* %6, i64 8, !llfi_index !1577
  %8 = bitcast i8* %7 to %"struct.std::_Rb_tree_header"*, !llfi_index !1578
  call void @_ZNSt15_Rb_tree_headerC2Ev(%"struct.std::_Rb_tree_header"* nonnull align 8 dereferenceable(40) %8) #2, !llfi_index !1579
  ret void, !llfi_index !1580
}

; Function Attrs: noinline nounwind uwtable
define linkonce_odr dso_local void @_ZNSaISt13_Rb_tree_nodeIiEEC2Ev(%"class.std::ios_base::Init"* nonnull align 1 dereferenceable(1) %0) unnamed_addr #6 comdat align 2 {
  %2 = alloca %"class.std::ios_base::Init"*, align 8, !llfi_index !1581
  store %"class.std::ios_base::Init"* %0, %"class.std::ios_base::Init"** %2, align 8, !llfi_index !1582
  %3 = load %"class.std::ios_base::Init"*, %"class.std::ios_base::Init"** %2, align 8, !llfi_index !1583
  %4 = bitcast %"class.std::ios_base::Init"* %3 to %"class.std::ios_base::Init"*, !llfi_index !1584
  call void @_ZN9__gnu_cxx13new_allocatorISt13_Rb_tree_nodeIiEEC2Ev(%"class.std::ios_base::Init"* nonnull align 1 dereferenceable(1) %4) #2, !llfi_index !1585
  ret void, !llfi_index !1586
}

; Function Attrs: noinline nounwind uwtable
define linkonce_odr dso_local void @_ZNSt20_Rb_tree_key_compareISt4lessIiEEC2Ev(%"struct.std::_Rb_tree_key_compare"* nonnull align 1 dereferenceable(1) %0) unnamed_addr #6 comdat align 2 {
  %2 = alloca %"struct.std::_Rb_tree_key_compare"*, align 8, !llfi_index !1587
  store %"struct.std::_Rb_tree_key_compare"* %0, %"struct.std::_Rb_tree_key_compare"** %2, align 8, !llfi_index !1588
  %3 = load %"struct.std::_Rb_tree_key_compare"*, %"struct.std::_Rb_tree_key_compare"** %2, align 8, !llfi_index !1589
  %4 = getelementptr inbounds %"struct.std::_Rb_tree_key_compare", %"struct.std::_Rb_tree_key_compare"* %3, i32 0, i32 0, !llfi_index !1590
  ret void, !llfi_index !1591
}

; Function Attrs: noinline nounwind uwtable
define linkonce_odr dso_local void @_ZNSt15_Rb_tree_headerC2Ev(%"struct.std::_Rb_tree_header"* nonnull align 8 dereferenceable(40) %0) unnamed_addr #6 comdat align 2 personality i8* bitcast (i32 (...)* @__gxx_personality_v0 to i8*) {
  %2 = alloca %"struct.std::_Rb_tree_header"*, align 8, !llfi_index !1592
  store %"struct.std::_Rb_tree_header"* %0, %"struct.std::_Rb_tree_header"** %2, align 8, !llfi_index !1593
  %3 = load %"struct.std::_Rb_tree_header"*, %"struct.std::_Rb_tree_header"** %2, align 8, !llfi_index !1594
  %4 = getelementptr inbounds %"struct.std::_Rb_tree_header", %"struct.std::_Rb_tree_header"* %3, i32 0, i32 0, !llfi_index !1595
  %5 = getelementptr inbounds %"struct.std::_Rb_tree_header", %"struct.std::_Rb_tree_header"* %3, i32 0, i32 0, !llfi_index !1596
  %6 = getelementptr inbounds %"struct.std::_Rb_tree_node_base", %"struct.std::_Rb_tree_node_base"* %5, i32 0, i32 0, !llfi_index !1597
  store i32 0, i32* %6, align 8, !llfi_index !1598
  invoke void @_ZNSt15_Rb_tree_header8_M_resetEv(%"struct.std::_Rb_tree_header"* nonnull align 8 dereferenceable(40) %3)
          to label %7 unwind label %8, !llfi_index !1599

7:                                                ; preds = %1
  ret void, !llfi_index !1600

8:                                                ; preds = %1
  %9 = landingpad { i8*, i32 }
          catch i8* null, !llfi_index !1601
  %10 = extractvalue { i8*, i32 } %9, 0, !llfi_index !1602
  call void @__clang_call_terminate(i8* %10) #15, !llfi_index !1603
  unreachable, !llfi_index !1604
}

; Function Attrs: noinline nounwind uwtable
define linkonce_odr dso_local void @_ZN9__gnu_cxx13new_allocatorISt13_Rb_tree_nodeIiEEC2Ev(%"class.std::ios_base::Init"* nonnull align 1 dereferenceable(1) %0) unnamed_addr #6 comdat align 2 {
  %2 = alloca %"class.std::ios_base::Init"*, align 8, !llfi_index !1605
  store %"class.std::ios_base::Init"* %0, %"class.std::ios_base::Init"** %2, align 8, !llfi_index !1606
  %3 = load %"class.std::ios_base::Init"*, %"class.std::ios_base::Init"** %2, align 8, !llfi_index !1607
  ret void, !llfi_index !1608
}

attributes #0 = { noinline uwtable "frame-pointer"="all" "min-legal-vector-width"="0" "no-trapping-math"="true" "stack-protector-buffer-size"="8" "target-cpu"="x86-64" "target-features"="+cx8,+fxsr,+mmx,+sse,+sse2,+x87" "tune-cpu"="generic" }
attributes #1 = { "frame-pointer"="all" "no-trapping-math"="true" "stack-protector-buffer-size"="8" "target-cpu"="x86-64" "target-features"="+cx8,+fxsr,+mmx,+sse,+sse2,+x87" "tune-cpu"="generic" }
attributes #2 = { nounwind }
attributes #3 = { nounwind "frame-pointer"="all" "no-trapping-math"="true" "stack-protector-buffer-size"="8" "target-cpu"="x86-64" "target-features"="+cx8,+fxsr,+mmx,+sse,+sse2,+x87" "tune-cpu"="generic" }
attributes #4 = { mustprogress noinline nounwind uwtable "frame-pointer"="all" "min-legal-vector-width"="0" "no-trapping-math"="true" "stack-protector-buffer-size"="8" "target-cpu"="x86-64" "target-features"="+cx8,+fxsr,+mmx,+sse,+sse2,+x87" "tune-cpu"="generic" }
attributes #5 = { mustprogress noinline norecurse uwtable "frame-pointer"="all" "min-legal-vector-width"="0" "no-trapping-math"="true" "stack-protector-buffer-size"="8" "target-cpu"="x86-64" "target-features"="+cx8,+fxsr,+mmx,+sse,+sse2,+x87" "tune-cpu"="generic" }
attributes #6 = { noinline nounwind uwtable "frame-pointer"="all" "min-legal-vector-width"="0" "no-trapping-math"="true" "stack-protector-buffer-size"="8" "target-cpu"="x86-64" "target-features"="+cx8,+fxsr,+mmx,+sse,+sse2,+x87" "tune-cpu"="generic" }
attributes #7 = { mustprogress noinline uwtable "frame-pointer"="all" "min-legal-vector-width"="0" "no-trapping-math"="true" "stack-protector-buffer-size"="8" "target-cpu"="x86-64" "target-features"="+cx8,+fxsr,+mmx,+sse,+sse2,+x87" "tune-cpu"="generic" }
attributes #8 = { noinline noreturn nounwind }
attributes #9 = { nobuiltin nounwind "frame-pointer"="all" "no-trapping-math"="true" "stack-protector-buffer-size"="8" "target-cpu"="x86-64" "target-features"="+cx8,+fxsr,+mmx,+sse,+sse2,+x87" "tune-cpu"="generic" }
attributes #10 = { argmemonly nofree nounwind willreturn }
attributes #11 = { nounwind readonly willreturn "frame-pointer"="all" "no-trapping-math"="true" "stack-protector-buffer-size"="8" "target-cpu"="x86-64" "target-features"="+cx8,+fxsr,+mmx,+sse,+sse2,+x87" "tune-cpu"="generic" }
attributes #12 = { noreturn "frame-pointer"="all" "no-trapping-math"="true" "stack-protector-buffer-size"="8" "target-cpu"="x86-64" "target-features"="+cx8,+fxsr,+mmx,+sse,+sse2,+x87" "tune-cpu"="generic" }
attributes #13 = { nobuiltin allocsize(0) "frame-pointer"="all" "no-trapping-math"="true" "stack-protector-buffer-size"="8" "target-cpu"="x86-64" "target-features"="+cx8,+fxsr,+mmx,+sse,+sse2,+x87" "tune-cpu"="generic" }
attributes #14 = { nounwind readonly willreturn }
attributes #15 = { noreturn nounwind }
attributes #16 = { noreturn }
attributes #17 = { allocsize(0) }

!llvm.ident = !{!0}
!llvm.module.flags = !{!1, !2, !3}

!0 = !{!"clang version 13.0.0 (https://github.com/llvm/llvm-project.git d7b669b3a30345cfcdb2fde2af6f48aa4b94845d)"}
!1 = !{i32 1, !"wchar_size", i32 4}
!2 = !{i32 7, !"uwtable", i32 1}
!3 = !{i32 7, !"frame-pointer", i32 2}
!4 = !{i64 1}
!5 = !{i64 2}
!6 = !{i64 3}
!7 = !{i64 4}
!8 = !{i64 5}
!9 = !{i64 6}
!10 = !{i64 7}
!11 = !{i64 8}
!12 = !{i64 9}
!13 = !{i64 10}
!14 = !{i64 11}
!15 = !{i64 12}
!16 = !{i64 13}
!17 = !{i64 14}
!18 = !{i64 15}
!19 = !{i64 16}
!20 = !{i64 17}
!21 = !{i64 18}
!22 = !{i64 19}
!23 = !{i64 20}
!24 = !{i64 21}
!25 = !{i64 22}
!26 = !{i64 23}
!27 = !{i64 24}
!28 = !{i64 25}
!29 = !{i64 26}
!30 = !{i64 27}
!31 = !{i64 28}
!32 = !{i64 29}
!33 = !{i64 30}
!34 = !{i64 31}
!35 = !{i64 32}
!36 = !{i64 33}
!37 = !{i64 34}
!38 = !{i64 35}
!39 = !{i64 36}
!40 = !{i64 37}
!41 = !{i64 38}
!42 = distinct !{!42, !43}
!43 = !{!"llvm.loop.mustprogress"}
!44 = !{i64 39}
!45 = !{i64 40}
!46 = !{i64 41}
!47 = !{i64 42}
!48 = !{i64 43}
!49 = !{i64 44}
!50 = !{i64 45}
!51 = !{i64 46}
!52 = !{i64 47}
!53 = !{i64 48}
!54 = !{i64 49}
!55 = !{i64 50}
!56 = !{i64 51}
!57 = !{i64 52}
!58 = !{i64 53}
!59 = !{i64 54}
!60 = !{i64 55}
!61 = !{i64 56}
!62 = !{i64 57}
!63 = !{i64 58}
!64 = !{i64 59}
!65 = !{i64 60}
!66 = !{i64 61}
!67 = !{i64 62}
!68 = !{i64 63}
!69 = !{i64 64}
!70 = !{i64 65}
!71 = !{i64 66}
!72 = !{i64 67}
!73 = !{i64 68}
!74 = distinct !{!74, !43}
!75 = !{i64 69}
!76 = !{i64 70}
!77 = !{i64 71}
!78 = !{i64 72}
!79 = !{i64 73}
!80 = !{i64 74}
!81 = !{i64 75}
!82 = !{i64 76}
!83 = !{i64 77}
!84 = !{i64 78}
!85 = !{i64 79}
!86 = !{i64 80}
!87 = !{i64 81}
!88 = !{i64 82}
!89 = !{i64 83}
!90 = !{i64 84}
!91 = !{i64 85}
!92 = !{i64 86}
!93 = !{i64 87}
!94 = !{i64 88}
!95 = !{i64 89}
!96 = !{i64 90}
!97 = !{i64 91}
!98 = !{i64 92}
!99 = !{i64 93}
!100 = !{i64 94}
!101 = !{i64 95}
!102 = !{i64 96}
!103 = !{i64 97}
!104 = !{i64 98}
!105 = !{i64 99}
!106 = !{i64 100}
!107 = !{i64 101}
!108 = !{i64 102}
!109 = !{i64 103}
!110 = !{i64 104}
!111 = !{i64 105}
!112 = !{i64 106}
!113 = !{i64 107}
!114 = !{i64 108}
!115 = !{i64 109}
!116 = !{i64 110}
!117 = !{i64 111}
!118 = !{i64 112}
!119 = !{i64 113}
!120 = !{i64 114}
!121 = !{i64 115}
!122 = !{i64 116}
!123 = !{i64 117}
!124 = !{i64 118}
!125 = !{i64 119}
!126 = distinct !{!126, !43}
!127 = !{i64 120}
!128 = !{i64 121}
!129 = !{i64 122}
!130 = !{i64 123}
!131 = !{i64 124}
!132 = !{i64 125}
!133 = !{i64 126}
!134 = !{i64 127}
!135 = !{i64 128}
!136 = !{i64 129}
!137 = !{i64 130}
!138 = !{i64 131}
!139 = !{i64 132}
!140 = !{i64 133}
!141 = !{i64 134}
!142 = !{i64 135}
!143 = !{i64 136}
!144 = !{i64 137}
!145 = !{i64 138}
!146 = !{i64 139}
!147 = !{i64 140}
!148 = !{i64 141}
!149 = !{i64 142}
!150 = !{i64 143}
!151 = !{i64 144}
!152 = !{i64 145}
!153 = !{i64 146}
!154 = !{i64 147}
!155 = !{i64 148}
!156 = !{i64 149}
!157 = !{i64 150}
!158 = !{i64 151}
!159 = !{i64 152}
!160 = !{i64 153}
!161 = !{i64 154}
!162 = !{i64 155}
!163 = !{i64 156}
!164 = !{i64 157}
!165 = !{i64 158}
!166 = !{i64 159}
!167 = !{i64 160}
!168 = !{i64 161}
!169 = !{i64 162}
!170 = !{i64 163}
!171 = !{i64 164}
!172 = !{i64 165}
!173 = !{i64 166}
!174 = !{i64 167}
!175 = !{i64 168}
!176 = distinct !{!176, !43}
!177 = !{i64 169}
!178 = !{i64 170}
!179 = !{i64 171}
!180 = !{i64 172}
!181 = !{i64 173}
!182 = !{i64 174}
!183 = !{i64 175}
!184 = !{i64 176}
!185 = !{i64 177}
!186 = !{i64 178}
!187 = !{i64 179}
!188 = !{i64 180}
!189 = !{i64 181}
!190 = !{i64 182}
!191 = !{i64 183}
!192 = !{i64 184}
!193 = !{i64 185}
!194 = !{i64 186}
!195 = !{i64 187}
!196 = !{i64 188}
!197 = !{i64 189}
!198 = !{i64 190}
!199 = !{i64 191}
!200 = !{i64 192}
!201 = !{i64 193}
!202 = !{i64 194}
!203 = !{i64 195}
!204 = !{i64 196}
!205 = !{i64 197}
!206 = !{i64 198}
!207 = !{i64 199}
!208 = !{i64 200}
!209 = !{i64 201}
!210 = !{i64 202}
!211 = !{i64 203}
!212 = !{i64 204}
!213 = !{i64 205}
!214 = !{i64 206}
!215 = !{i64 207}
!216 = !{i64 208}
!217 = !{i64 209}
!218 = !{i64 210}
!219 = !{i64 211}
!220 = !{i64 212}
!221 = !{i64 213}
!222 = !{i64 214}
!223 = !{i64 215}
!224 = !{i64 216}
!225 = !{i64 217}
!226 = !{i64 218}
!227 = !{i64 219}
!228 = !{i64 220}
!229 = !{i64 221}
!230 = !{i64 222}
!231 = !{i64 223}
!232 = !{i64 224}
!233 = !{i64 225}
!234 = !{i64 226}
!235 = !{i64 227}
!236 = !{i64 228}
!237 = !{i64 229}
!238 = !{i64 230}
!239 = !{i64 231}
!240 = !{i64 232}
!241 = !{i64 233}
!242 = !{i64 234}
!243 = !{i64 235}
!244 = !{i64 236}
!245 = !{i64 237}
!246 = !{i64 238}
!247 = !{i64 239}
!248 = !{i64 240}
!249 = !{i64 241}
!250 = !{i64 242}
!251 = distinct !{!251, !43}
!252 = !{i64 243}
!253 = !{i64 244}
!254 = !{i64 245}
!255 = !{i64 246}
!256 = !{i64 247}
!257 = !{i64 248}
!258 = !{i64 249}
!259 = !{i64 250}
!260 = !{i64 251}
!261 = !{i64 252}
!262 = !{i64 253}
!263 = !{i64 254}
!264 = !{i64 255}
!265 = !{i64 256}
!266 = !{i64 257}
!267 = !{i64 258}
!268 = !{i64 259}
!269 = !{i64 260}
!270 = !{i64 261}
!271 = !{i64 262}
!272 = !{i64 263}
!273 = !{i64 264}
!274 = !{i64 265}
!275 = !{i64 266}
!276 = !{i64 267}
!277 = !{i64 268}
!278 = !{i64 269}
!279 = !{i64 270}
!280 = !{i64 271}
!281 = !{i64 272}
!282 = !{i64 273}
!283 = !{i64 274}
!284 = !{i64 275}
!285 = !{i64 276}
!286 = !{i64 277}
!287 = !{i64 278}
!288 = !{i64 279}
!289 = !{i64 280}
!290 = !{i64 281}
!291 = !{i64 282}
!292 = !{i64 283}
!293 = !{i64 284}
!294 = !{i64 285}
!295 = !{i64 286}
!296 = !{i64 287}
!297 = !{i64 288}
!298 = !{i64 289}
!299 = !{i64 290}
!300 = !{i64 291}
!301 = !{i64 292}
!302 = !{i64 293}
!303 = !{i64 294}
!304 = !{i64 295}
!305 = !{i64 296}
!306 = !{i64 297}
!307 = !{i64 298}
!308 = !{i64 299}
!309 = !{i64 300}
!310 = !{i64 301}
!311 = !{i64 302}
!312 = !{i64 303}
!313 = distinct !{!313, !43}
!314 = !{i64 304}
!315 = !{i64 305}
!316 = !{i64 306}
!317 = !{i64 307}
!318 = !{i64 308}
!319 = !{i64 309}
!320 = !{i64 310}
!321 = !{i64 311}
!322 = !{i64 312}
!323 = !{i64 313}
!324 = !{i64 314}
!325 = !{i64 315}
!326 = !{i64 316}
!327 = !{i64 317}
!328 = !{i64 318}
!329 = !{i64 319}
!330 = !{i64 320}
!331 = !{i64 321}
!332 = !{i64 322}
!333 = !{i64 323}
!334 = !{i64 324}
!335 = !{i64 325}
!336 = !{i64 326}
!337 = !{i64 327}
!338 = !{i64 328}
!339 = !{i64 329}
!340 = !{i64 330}
!341 = !{i64 331}
!342 = !{i64 332}
!343 = !{i64 333}
!344 = !{i64 334}
!345 = !{i64 335}
!346 = !{i64 336}
!347 = !{i64 337}
!348 = !{i64 338}
!349 = !{i64 339}
!350 = !{i64 340}
!351 = !{i64 341}
!352 = !{i64 342}
!353 = !{i64 343}
!354 = !{i64 344}
!355 = !{i64 345}
!356 = !{i64 346}
!357 = !{i64 347}
!358 = !{i64 348}
!359 = !{i64 349}
!360 = !{i64 350}
!361 = !{i64 351}
!362 = !{i64 352}
!363 = !{i64 353}
!364 = !{i64 354}
!365 = !{i64 355}
!366 = !{i64 356}
!367 = !{i64 357}
!368 = !{i64 358}
!369 = !{i64 359}
!370 = !{i64 360}
!371 = !{i64 361}
!372 = !{i64 362}
!373 = !{i64 363}
!374 = !{i64 364}
!375 = !{i64 365}
!376 = !{i64 366}
!377 = !{i64 367}
!378 = !{i64 368}
!379 = !{i64 369}
!380 = !{i64 370}
!381 = !{i64 371}
!382 = !{i64 372}
!383 = !{i64 373}
!384 = !{i64 374}
!385 = !{i64 375}
!386 = !{i64 376}
!387 = !{i64 377}
!388 = !{i64 378}
!389 = !{i64 379}
!390 = !{i64 380}
!391 = !{i64 381}
!392 = !{i64 382}
!393 = !{i64 383}
!394 = !{i64 384}
!395 = !{i64 385}
!396 = !{i64 386}
!397 = !{i64 387}
!398 = !{i64 388}
!399 = !{i64 389}
!400 = !{i64 390}
!401 = !{i64 391}
!402 = !{i64 392}
!403 = !{i64 393}
!404 = !{i64 394}
!405 = !{i64 395}
!406 = !{i64 396}
!407 = !{i64 397}
!408 = !{i64 398}
!409 = !{i64 399}
!410 = !{i64 400}
!411 = !{i64 401}
!412 = !{i64 402}
!413 = !{i64 403}
!414 = !{i64 404}
!415 = !{i64 405}
!416 = !{i64 406}
!417 = !{i64 407}
!418 = !{i64 408}
!419 = !{i64 409}
!420 = !{i64 410}
!421 = !{i64 411}
!422 = !{i64 412}
!423 = !{i64 413}
!424 = !{i64 414}
!425 = !{i64 415}
!426 = !{i64 416}
!427 = !{i64 417}
!428 = !{i64 418}
!429 = !{i64 419}
!430 = !{i64 420}
!431 = !{i64 421}
!432 = !{i64 422}
!433 = !{i64 423}
!434 = !{i64 424}
!435 = !{i64 425}
!436 = !{i64 426}
!437 = !{i64 427}
!438 = !{i64 428}
!439 = !{i64 429}
!440 = !{i64 430}
!441 = !{i64 431}
!442 = !{i64 432}
!443 = !{i64 433}
!444 = !{i64 434}
!445 = !{i64 435}
!446 = !{i64 436}
!447 = !{i64 437}
!448 = !{i64 438}
!449 = !{i64 439}
!450 = !{i64 440}
!451 = !{i64 441}
!452 = !{i64 442}
!453 = !{i64 443}
!454 = !{i64 444}
!455 = !{i64 445}
!456 = !{i64 446}
!457 = !{i64 447}
!458 = !{i64 448}
!459 = !{i64 449}
!460 = !{i64 450}
!461 = !{i64 451}
!462 = !{i64 452}
!463 = !{i64 453}
!464 = !{i64 454}
!465 = !{i64 455}
!466 = !{i64 456}
!467 = !{i64 457}
!468 = !{i64 458}
!469 = !{i64 459}
!470 = !{i64 460}
!471 = !{i64 461}
!472 = !{i64 462}
!473 = !{i64 463}
!474 = !{i64 464}
!475 = !{i64 465}
!476 = !{i64 466}
!477 = !{i64 467}
!478 = !{i64 468}
!479 = !{i64 469}
!480 = !{i64 470}
!481 = !{i64 471}
!482 = !{i64 472}
!483 = !{i64 473}
!484 = !{i64 474}
!485 = !{i64 475}
!486 = !{i64 476}
!487 = !{i64 477}
!488 = !{i64 478}
!489 = !{i64 479}
!490 = !{i64 480}
!491 = !{i64 481}
!492 = !{i64 482}
!493 = !{i64 483}
!494 = !{i64 484}
!495 = !{i64 485}
!496 = !{i64 486}
!497 = !{i64 487}
!498 = !{i64 488}
!499 = !{i64 489}
!500 = !{i64 490}
!501 = !{i64 491}
!502 = !{i64 492}
!503 = !{i64 493}
!504 = !{i64 494}
!505 = !{i64 495}
!506 = !{i64 496}
!507 = !{i64 497}
!508 = !{i64 498}
!509 = !{i64 499}
!510 = !{i64 500}
!511 = !{i64 501}
!512 = !{i64 502}
!513 = !{i64 503}
!514 = !{i64 504}
!515 = !{i64 505}
!516 = !{i64 506}
!517 = !{i64 507}
!518 = !{i64 508}
!519 = !{i64 509}
!520 = !{i64 510}
!521 = !{i64 511}
!522 = !{i64 512}
!523 = !{i64 513}
!524 = !{i64 514}
!525 = !{i64 515}
!526 = !{i64 516}
!527 = !{i64 517}
!528 = !{i64 518}
!529 = !{i64 519}
!530 = !{i64 520}
!531 = !{i64 521}
!532 = !{i64 522}
!533 = !{i64 523}
!534 = !{i64 524}
!535 = !{i64 525}
!536 = !{i64 526}
!537 = !{i64 527}
!538 = !{i64 528}
!539 = !{i64 529}
!540 = !{i64 530}
!541 = !{i64 531}
!542 = !{i64 532}
!543 = !{i64 533}
!544 = !{i64 534}
!545 = !{i64 535}
!546 = distinct !{!546, !43}
!547 = !{i64 536}
!548 = !{i64 537}
!549 = !{i64 538}
!550 = !{i64 539}
!551 = !{i64 540}
!552 = !{i64 541}
!553 = !{i64 542}
!554 = !{i64 543}
!555 = !{i64 544}
!556 = !{i64 545}
!557 = !{i64 546}
!558 = !{i64 547}
!559 = !{i64 548}
!560 = !{i64 549}
!561 = !{i64 550}
!562 = !{i64 551}
!563 = !{i64 552}
!564 = !{i64 553}
!565 = !{i64 554}
!566 = !{i64 555}
!567 = !{i64 556}
!568 = !{i64 557}
!569 = !{i64 558}
!570 = !{i64 559}
!571 = !{i64 560}
!572 = !{i64 561}
!573 = !{i64 562}
!574 = !{i64 563}
!575 = !{i64 564}
!576 = !{i64 565}
!577 = !{i64 566}
!578 = !{i64 567}
!579 = !{i64 568}
!580 = !{i64 569}
!581 = !{i64 570}
!582 = !{i64 571}
!583 = !{i64 572}
!584 = !{i64 573}
!585 = !{i64 574}
!586 = !{i64 575}
!587 = !{i64 576}
!588 = !{i64 577}
!589 = !{i64 578}
!590 = !{i64 579}
!591 = !{i64 580}
!592 = !{i64 581}
!593 = !{i64 582}
!594 = !{i64 583}
!595 = !{i64 584}
!596 = !{i64 585}
!597 = !{i64 586}
!598 = !{i64 587}
!599 = !{i64 588}
!600 = !{i64 589}
!601 = !{i64 590}
!602 = !{i64 591}
!603 = !{i64 592}
!604 = !{i64 593}
!605 = !{i64 594}
!606 = !{i64 595}
!607 = !{i64 596}
!608 = !{i64 597}
!609 = !{i64 598}
!610 = !{i64 599}
!611 = !{i64 600}
!612 = !{i64 601}
!613 = !{i64 602}
!614 = !{i64 603}
!615 = !{i64 604}
!616 = !{i64 605}
!617 = distinct !{!617, !43}
!618 = !{i64 606}
!619 = !{i64 607}
!620 = !{i64 608}
!621 = !{i64 609}
!622 = !{i64 610}
!623 = !{i64 611}
!624 = !{i64 612}
!625 = !{i64 613}
!626 = !{i64 614}
!627 = !{i64 615}
!628 = !{i64 616}
!629 = !{i64 617}
!630 = !{i64 618}
!631 = !{i64 619}
!632 = !{i64 620}
!633 = !{i64 621}
!634 = !{i64 622}
!635 = !{i64 623}
!636 = !{i64 624}
!637 = !{i64 625}
!638 = !{i64 626}
!639 = !{i64 627}
!640 = !{i64 628}
!641 = !{i64 629}
!642 = !{i64 630}
!643 = !{i64 631}
!644 = !{i64 632}
!645 = !{i64 633}
!646 = !{i64 634}
!647 = !{i64 635}
!648 = !{i64 636}
!649 = !{i64 637}
!650 = !{i64 638}
!651 = !{i64 639}
!652 = !{i64 640}
!653 = !{i64 641}
!654 = !{i64 642}
!655 = !{i64 643}
!656 = !{i64 644}
!657 = !{i64 645}
!658 = !{i64 646}
!659 = !{i64 647}
!660 = !{i64 648}
!661 = !{i64 649}
!662 = !{i64 650}
!663 = !{i64 651}
!664 = !{i64 652}
!665 = !{i64 653}
!666 = !{i64 654}
!667 = !{i64 655}
!668 = !{i64 656}
!669 = !{i64 657}
!670 = !{i64 658}
!671 = !{i64 659}
!672 = !{i64 660}
!673 = !{i64 661}
!674 = !{i64 662}
!675 = !{i64 663}
!676 = !{i64 664}
!677 = !{i64 665}
!678 = !{i64 666}
!679 = !{i64 667}
!680 = !{i64 668}
!681 = !{i64 669}
!682 = !{i64 670}
!683 = !{i64 671}
!684 = !{i64 672}
!685 = !{i64 673}
!686 = !{i64 674}
!687 = !{i64 675}
!688 = !{i64 676}
!689 = !{i64 677}
!690 = !{i64 678}
!691 = !{i64 679}
!692 = !{i64 680}
!693 = !{i64 681}
!694 = !{i64 682}
!695 = !{i64 683}
!696 = !{i64 684}
!697 = !{i64 685}
!698 = !{i64 686}
!699 = !{i64 687}
!700 = !{i64 688}
!701 = !{i64 689}
!702 = !{i64 690}
!703 = !{i64 691}
!704 = !{i64 692}
!705 = !{i64 693}
!706 = !{i64 694}
!707 = !{i64 695}
!708 = !{i64 696}
!709 = !{i64 697}
!710 = !{i64 698}
!711 = !{i64 699}
!712 = !{i64 700}
!713 = !{i64 701}
!714 = !{i64 702}
!715 = !{i64 703}
!716 = !{i64 704}
!717 = !{i64 705}
!718 = !{i64 706}
!719 = !{i64 707}
!720 = !{i64 708}
!721 = !{i64 709}
!722 = !{i64 710}
!723 = !{i64 711}
!724 = !{i64 712}
!725 = !{i64 713}
!726 = !{i64 714}
!727 = !{i64 715}
!728 = !{i64 716}
!729 = !{i64 717}
!730 = !{i64 718}
!731 = !{i64 719}
!732 = !{i64 720}
!733 = !{i64 721}
!734 = !{i64 722}
!735 = !{i64 723}
!736 = !{i64 724}
!737 = !{i64 725}
!738 = !{i64 726}
!739 = !{i64 727}
!740 = !{i64 728}
!741 = !{i64 729}
!742 = !{i64 730}
!743 = !{i64 731}
!744 = !{i64 732}
!745 = !{i64 733}
!746 = !{i64 734}
!747 = !{i64 735}
!748 = !{i64 736}
!749 = !{i64 737}
!750 = !{i64 738}
!751 = !{i64 739}
!752 = !{i64 740}
!753 = !{i64 741}
!754 = !{i64 742}
!755 = !{i64 743}
!756 = !{i64 744}
!757 = !{i64 745}
!758 = !{i64 746}
!759 = !{i64 747}
!760 = !{i64 748}
!761 = !{i64 749}
!762 = !{i64 750}
!763 = !{i64 751}
!764 = !{i64 752}
!765 = !{i64 753}
!766 = !{i64 754}
!767 = !{i64 755}
!768 = !{i64 756}
!769 = !{i64 757}
!770 = !{i64 758}
!771 = !{i64 759}
!772 = !{i64 760}
!773 = !{i64 761}
!774 = !{i64 762}
!775 = !{i64 763}
!776 = !{i64 764}
!777 = !{i64 765}
!778 = !{i64 766}
!779 = !{i64 767}
!780 = !{i64 768}
!781 = !{i64 769}
!782 = !{i64 770}
!783 = !{i64 771}
!784 = !{i64 772}
!785 = !{i64 773}
!786 = !{i64 774}
!787 = !{i64 775}
!788 = !{i64 776}
!789 = !{i64 777}
!790 = !{i64 778}
!791 = !{i64 779}
!792 = !{i64 780}
!793 = !{i64 781}
!794 = !{i64 782}
!795 = !{i64 783}
!796 = !{i64 784}
!797 = !{i64 785}
!798 = !{i64 786}
!799 = !{i64 787}
!800 = !{i64 788}
!801 = !{i64 789}
!802 = !{i64 790}
!803 = !{i64 791}
!804 = !{i64 792}
!805 = !{i64 793}
!806 = !{i64 794}
!807 = !{i64 795}
!808 = !{i64 796}
!809 = !{i64 797}
!810 = !{i64 798}
!811 = !{i64 799}
!812 = !{i64 800}
!813 = !{i64 801}
!814 = !{i64 802}
!815 = !{i64 803}
!816 = !{i64 804}
!817 = !{i64 805}
!818 = !{i64 806}
!819 = !{i64 807}
!820 = !{i64 808}
!821 = !{i64 809}
!822 = !{i64 810}
!823 = !{i64 811}
!824 = !{i64 812}
!825 = !{i64 813}
!826 = !{i64 814}
!827 = !{i64 815}
!828 = !{i64 816}
!829 = !{i64 817}
!830 = !{i64 818}
!831 = !{i64 819}
!832 = !{i64 820}
!833 = !{i64 821}
!834 = !{i64 822}
!835 = !{i64 823}
!836 = !{i64 824}
!837 = !{i64 825}
!838 = !{i64 826}
!839 = !{i64 827}
!840 = !{i64 828}
!841 = !{i64 829}
!842 = distinct !{!842, !43}
!843 = !{i64 830}
!844 = !{i64 831}
!845 = !{i64 832}
!846 = !{i64 833}
!847 = !{i64 834}
!848 = !{i64 835}
!849 = !{i64 836}
!850 = !{i64 837}
!851 = !{i64 838}
!852 = !{i64 839}
!853 = !{i64 840}
!854 = !{i64 841}
!855 = !{i64 842}
!856 = !{i64 843}
!857 = !{i64 844}
!858 = !{i64 845}
!859 = !{i64 846}
!860 = !{i64 847}
!861 = !{i64 848}
!862 = !{i64 849}
!863 = !{i64 850}
!864 = !{i64 851}
!865 = !{i64 852}
!866 = !{i64 853}
!867 = !{i64 854}
!868 = !{i64 855}
!869 = !{i64 856}
!870 = !{i64 857}
!871 = !{i64 858}
!872 = !{i64 859}
!873 = !{i64 860}
!874 = !{i64 861}
!875 = !{i64 862}
!876 = !{i64 863}
!877 = !{i64 864}
!878 = !{i64 865}
!879 = !{i64 866}
!880 = !{i64 867}
!881 = !{i64 868}
!882 = !{i64 869}
!883 = !{i64 870}
!884 = !{i64 871}
!885 = !{i64 872}
!886 = !{i64 873}
!887 = !{i64 874}
!888 = !{i64 875}
!889 = !{i64 876}
!890 = !{i64 877}
!891 = !{i64 878}
!892 = !{i64 879}
!893 = !{i64 880}
!894 = !{i64 881}
!895 = !{i64 882}
!896 = !{i64 883}
!897 = !{i64 884}
!898 = !{i64 885}
!899 = !{i64 886}
!900 = !{i64 887}
!901 = !{i64 888}
!902 = !{i64 889}
!903 = !{i64 890}
!904 = !{i64 891}
!905 = !{i64 892}
!906 = !{i64 893}
!907 = !{i64 894}
!908 = !{i64 895}
!909 = !{i64 896}
!910 = !{i64 897}
!911 = !{i64 898}
!912 = !{i64 899}
!913 = !{i64 900}
!914 = !{i64 901}
!915 = !{i64 902}
!916 = !{i64 903}
!917 = !{i64 904}
!918 = !{i64 905}
!919 = !{i64 906}
!920 = !{i64 907}
!921 = !{i64 908}
!922 = !{i64 909}
!923 = !{i64 910}
!924 = !{i64 911}
!925 = !{i64 912}
!926 = !{i64 913}
!927 = !{i64 914}
!928 = !{i64 915}
!929 = !{i64 916}
!930 = !{i64 917}
!931 = !{i64 918}
!932 = !{i64 919}
!933 = !{i64 920}
!934 = !{i64 921}
!935 = !{i64 922}
!936 = !{i64 923}
!937 = !{i64 924}
!938 = !{i64 925}
!939 = !{i64 926}
!940 = !{i64 927}
!941 = !{i64 928}
!942 = !{i64 929}
!943 = !{i64 930}
!944 = !{i64 931}
!945 = !{i64 932}
!946 = !{i64 933}
!947 = !{i64 934}
!948 = !{i64 935}
!949 = distinct !{!949, !43}
!950 = !{i64 936}
!951 = !{i64 937}
!952 = !{i64 938}
!953 = !{i64 939}
!954 = !{i64 940}
!955 = !{i64 941}
!956 = !{i64 942}
!957 = !{i64 943}
!958 = !{i64 944}
!959 = !{i64 945}
!960 = !{i64 946}
!961 = !{i64 947}
!962 = !{i64 948}
!963 = !{i64 949}
!964 = !{i64 950}
!965 = !{i64 951}
!966 = !{i64 952}
!967 = !{i64 953}
!968 = !{i64 954}
!969 = !{i64 955}
!970 = !{i64 956}
!971 = !{i64 957}
!972 = !{i64 958}
!973 = !{i64 959}
!974 = !{i64 960}
!975 = !{i64 961}
!976 = !{i64 962}
!977 = !{i64 963}
!978 = !{i64 964}
!979 = !{i64 965}
!980 = !{i64 966}
!981 = !{i64 967}
!982 = !{i64 968}
!983 = !{i64 969}
!984 = !{i64 970}
!985 = !{i64 971}
!986 = !{i64 972}
!987 = !{i64 973}
!988 = !{i64 974}
!989 = !{i64 975}
!990 = !{i64 976}
!991 = distinct !{!991, !43}
!992 = !{i64 977}
!993 = !{i64 978}
!994 = !{i64 979}
!995 = !{i64 980}
!996 = !{i64 981}
!997 = !{i64 982}
!998 = !{i64 983}
!999 = !{i64 984}
!1000 = !{i64 985}
!1001 = !{i64 986}
!1002 = !{i64 987}
!1003 = !{i64 988}
!1004 = !{i64 989}
!1005 = !{i64 990}
!1006 = !{i64 991}
!1007 = !{i64 992}
!1008 = !{i64 993}
!1009 = !{i64 994}
!1010 = !{i64 995}
!1011 = !{i64 996}
!1012 = !{i64 997}
!1013 = !{i64 998}
!1014 = !{i64 999}
!1015 = !{i64 1000}
!1016 = !{i64 1001}
!1017 = !{i64 1002}
!1018 = !{i64 1003}
!1019 = !{i64 1004}
!1020 = !{i64 1005}
!1021 = !{i64 1006}
!1022 = !{i64 1007}
!1023 = !{i64 1008}
!1024 = !{i64 1009}
!1025 = !{i64 1010}
!1026 = !{i64 1011}
!1027 = !{i64 1012}
!1028 = !{i64 1013}
!1029 = !{i64 1014}
!1030 = !{i64 1015}
!1031 = !{i64 1016}
!1032 = !{i64 1017}
!1033 = !{i64 1018}
!1034 = !{i64 1019}
!1035 = !{i64 1020}
!1036 = !{i64 1021}
!1037 = !{i64 1022}
!1038 = !{i64 1023}
!1039 = !{i64 1024}
!1040 = !{i64 1025}
!1041 = !{i64 1026}
!1042 = !{i64 1027}
!1043 = !{i64 1028}
!1044 = !{i64 1029}
!1045 = !{i64 1030}
!1046 = !{i64 1031}
!1047 = !{i64 1032}
!1048 = !{i64 1033}
!1049 = !{i64 1034}
!1050 = !{i64 1035}
!1051 = !{i64 1036}
!1052 = !{i64 1037}
!1053 = !{i64 1038}
!1054 = !{i64 1039}
!1055 = !{i64 1040}
!1056 = !{i64 1041}
!1057 = !{i64 1042}
!1058 = !{i64 1043}
!1059 = !{i64 1044}
!1060 = !{i64 1045}
!1061 = !{i64 1046}
!1062 = !{i64 1047}
!1063 = !{i64 1048}
!1064 = !{i64 1049}
!1065 = !{i64 1050}
!1066 = !{i64 1051}
!1067 = !{i64 1052}
!1068 = !{i64 1053}
!1069 = !{i64 1054}
!1070 = !{i64 1055}
!1071 = !{i64 1056}
!1072 = !{i64 1057}
!1073 = !{i64 1058}
!1074 = !{i64 1059}
!1075 = !{i64 1060}
!1076 = !{i64 1061}
!1077 = !{i64 1062}
!1078 = !{i64 1063}
!1079 = !{i64 1064}
!1080 = !{i64 1065}
!1081 = !{i64 1066}
!1082 = !{i64 1067}
!1083 = !{i64 1068}
!1084 = !{i64 1069}
!1085 = !{i64 1070}
!1086 = !{i64 1071}
!1087 = !{i64 1072}
!1088 = !{i64 1073}
!1089 = !{i64 1074}
!1090 = !{i64 1075}
!1091 = !{i64 1076}
!1092 = !{i64 1077}
!1093 = !{i64 1078}
!1094 = !{i64 1079}
!1095 = !{i64 1080}
!1096 = !{i64 1081}
!1097 = !{i64 1082}
!1098 = !{i64 1083}
!1099 = !{i64 1084}
!1100 = !{i64 1085}
!1101 = !{i64 1086}
!1102 = !{i64 1087}
!1103 = !{i64 1088}
!1104 = !{i64 1089}
!1105 = !{i64 1090}
!1106 = !{i64 1091}
!1107 = !{i64 1092}
!1108 = !{i64 1093}
!1109 = !{i64 1094}
!1110 = !{i64 1095}
!1111 = !{i64 1096}
!1112 = !{i64 1097}
!1113 = !{i64 1098}
!1114 = !{i64 1099}
!1115 = !{i64 1100}
!1116 = !{i64 1101}
!1117 = !{i64 1102}
!1118 = !{i64 1103}
!1119 = !{i64 1104}
!1120 = !{i64 1105}
!1121 = !{i64 1106}
!1122 = !{i64 1107}
!1123 = !{i64 1108}
!1124 = !{i64 1109}
!1125 = !{i64 1110}
!1126 = !{i64 1111}
!1127 = !{i64 1112}
!1128 = !{i64 1113}
!1129 = !{i64 1114}
!1130 = !{i64 1115}
!1131 = !{i64 1116}
!1132 = !{i64 1117}
!1133 = !{i64 1118}
!1134 = !{i64 1119}
!1135 = !{i64 1120}
!1136 = !{i64 1121}
!1137 = !{i64 1122}
!1138 = !{i64 1123}
!1139 = !{i64 1124}
!1140 = !{i64 1125}
!1141 = !{i64 1126}
!1142 = !{i64 1127}
!1143 = !{i64 1128}
!1144 = !{i64 1129}
!1145 = !{i64 1130}
!1146 = !{i64 1131}
!1147 = !{i64 1132}
!1148 = !{i64 1133}
!1149 = !{i64 1134}
!1150 = !{i64 1135}
!1151 = !{i64 1136}
!1152 = !{i64 1137}
!1153 = !{i64 1138}
!1154 = !{i64 1139}
!1155 = !{i64 1140}
!1156 = !{i64 1141}
!1157 = !{i64 1142}
!1158 = !{i64 1143}
!1159 = !{i64 1144}
!1160 = !{i64 1145}
!1161 = !{i64 1146}
!1162 = !{i64 1147}
!1163 = !{i64 1148}
!1164 = !{i64 1149}
!1165 = !{i64 1150}
!1166 = !{i64 1151}
!1167 = !{i64 1152}
!1168 = !{i64 1153}
!1169 = !{i64 1154}
!1170 = !{i64 1155}
!1171 = !{i64 1156}
!1172 = !{i64 1157}
!1173 = !{i64 1158}
!1174 = !{i64 1159}
!1175 = !{i64 1160}
!1176 = !{i64 1161}
!1177 = !{i64 1162}
!1178 = !{i64 1163}
!1179 = !{i64 1164}
!1180 = !{i64 1165}
!1181 = !{i64 1166}
!1182 = !{i64 1167}
!1183 = !{i64 1168}
!1184 = !{i64 1169}
!1185 = !{i64 1170}
!1186 = !{i64 1171}
!1187 = !{i64 1172}
!1188 = !{i64 1173}
!1189 = !{i64 1174}
!1190 = !{i64 1175}
!1191 = !{i64 1176}
!1192 = !{i64 1177}
!1193 = !{i64 1178}
!1194 = !{i64 1179}
!1195 = !{i64 1180}
!1196 = !{i64 1181}
!1197 = !{i64 1182}
!1198 = !{i64 1183}
!1199 = !{i64 1184}
!1200 = !{i64 1185}
!1201 = !{i64 1186}
!1202 = !{i64 1187}
!1203 = !{i64 1188}
!1204 = !{i64 1189}
!1205 = !{i64 1190}
!1206 = !{i64 1191}
!1207 = !{i64 1192}
!1208 = !{i64 1193}
!1209 = !{i64 1194}
!1210 = !{i64 1195}
!1211 = !{i64 1196}
!1212 = !{i64 1197}
!1213 = !{i64 1198}
!1214 = !{i64 1199}
!1215 = !{i64 1200}
!1216 = !{i64 1201}
!1217 = !{i64 1202}
!1218 = !{i64 1203}
!1219 = !{i64 1204}
!1220 = !{i64 1205}
!1221 = !{i64 1206}
!1222 = !{i64 1207}
!1223 = !{i64 1208}
!1224 = !{i64 1209}
!1225 = !{i64 1210}
!1226 = !{i64 1211}
!1227 = !{i64 1212}
!1228 = !{i64 1213}
!1229 = !{i64 1214}
!1230 = !{i64 1215}
!1231 = !{i64 1216}
!1232 = !{i64 1217}
!1233 = !{i64 1218}
!1234 = !{i64 1219}
!1235 = !{i64 1220}
!1236 = !{i64 1221}
!1237 = !{i64 1222}
!1238 = !{i64 1223}
!1239 = !{i64 1224}
!1240 = !{i64 1225}
!1241 = !{i64 1226}
!1242 = !{i64 1227}
!1243 = !{i64 1228}
!1244 = !{i64 1229}
!1245 = distinct !{!1245, !43}
!1246 = !{i64 1230}
!1247 = !{i64 1231}
!1248 = !{i64 1232}
!1249 = !{i64 1233}
!1250 = !{i64 1234}
!1251 = !{i64 1235}
!1252 = !{i64 1236}
!1253 = !{i64 1237}
!1254 = !{i64 1238}
!1255 = !{i64 1239}
!1256 = !{i64 1240}
!1257 = !{i64 1241}
!1258 = !{i64 1242}
!1259 = !{i64 1243}
!1260 = !{i64 1244}
!1261 = !{i64 1245}
!1262 = !{i64 1246}
!1263 = !{i64 1247}
!1264 = !{i64 1248}
!1265 = !{i64 1249}
!1266 = !{i64 1250}
!1267 = !{i64 1251}
!1268 = !{i64 1252}
!1269 = !{i64 1253}
!1270 = !{i64 1254}
!1271 = !{i64 1255}
!1272 = !{i64 1256}
!1273 = !{i64 1257}
!1274 = !{i64 1258}
!1275 = !{i64 1259}
!1276 = !{i64 1260}
!1277 = !{i64 1261}
!1278 = !{i64 1262}
!1279 = !{i64 1263}
!1280 = !{i64 1264}
!1281 = !{i64 1265}
!1282 = !{i64 1266}
!1283 = !{i64 1267}
!1284 = !{i64 1268}
!1285 = !{i64 1269}
!1286 = !{i64 1270}
!1287 = !{i64 1271}
!1288 = !{i64 1272}
!1289 = !{i64 1273}
!1290 = !{i64 1274}
!1291 = !{i64 1275}
!1292 = !{i64 1276}
!1293 = !{i64 1277}
!1294 = !{i64 1278}
!1295 = !{i64 1279}
!1296 = !{i64 1280}
!1297 = !{i64 1281}
!1298 = !{i64 1282}
!1299 = !{i64 1283}
!1300 = !{i64 1284}
!1301 = !{i64 1285}
!1302 = !{i64 1286}
!1303 = !{i64 1287}
!1304 = !{i64 1288}
!1305 = !{i64 1289}
!1306 = !{i64 1290}
!1307 = !{i64 1291}
!1308 = !{i64 1292}
!1309 = !{i64 1293}
!1310 = !{i64 1294}
!1311 = !{i64 1295}
!1312 = !{i64 1296}
!1313 = !{i64 1297}
!1314 = !{i64 1298}
!1315 = !{i64 1299}
!1316 = !{i64 1300}
!1317 = !{i64 1301}
!1318 = !{i64 1302}
!1319 = !{i64 1303}
!1320 = !{i64 1304}
!1321 = !{i64 1305}
!1322 = !{i64 1306}
!1323 = !{i64 1307}
!1324 = !{i64 1308}
!1325 = !{i64 1309}
!1326 = !{i64 1310}
!1327 = !{i64 1311}
!1328 = !{i64 1312}
!1329 = !{i64 1313}
!1330 = !{i64 1314}
!1331 = !{i64 1315}
!1332 = !{i64 1316}
!1333 = !{i64 1317}
!1334 = !{i64 1318}
!1335 = !{i64 1319}
!1336 = !{i64 1320}
!1337 = !{i64 1321}
!1338 = !{i64 1322}
!1339 = !{i64 1323}
!1340 = !{i64 1324}
!1341 = !{i64 1325}
!1342 = !{i64 1326}
!1343 = !{i64 1327}
!1344 = !{i64 1328}
!1345 = !{i64 1329}
!1346 = !{i64 1330}
!1347 = !{i64 1331}
!1348 = !{i64 1332}
!1349 = !{i64 1333}
!1350 = !{i64 1334}
!1351 = !{i64 1335}
!1352 = !{i64 1336}
!1353 = !{i64 1337}
!1354 = !{i64 1338}
!1355 = !{i64 1339}
!1356 = !{i64 1340}
!1357 = !{i64 1341}
!1358 = !{i64 1342}
!1359 = !{i64 1343}
!1360 = !{i64 1344}
!1361 = !{i64 1345}
!1362 = !{i64 1346}
!1363 = !{i64 1347}
!1364 = !{i64 1348}
!1365 = !{i64 1349}
!1366 = !{i64 1350}
!1367 = !{i64 1351}
!1368 = !{i64 1352}
!1369 = !{i64 1353}
!1370 = !{i64 1354}
!1371 = !{i64 1355}
!1372 = !{i64 1356}
!1373 = !{i64 1357}
!1374 = !{i64 1358}
!1375 = !{i64 1359}
!1376 = !{i64 1360}
!1377 = !{i64 1361}
!1378 = !{i64 1362}
!1379 = !{i64 1363}
!1380 = !{i64 1364}
!1381 = !{i64 1365}
!1382 = !{i64 1366}
!1383 = !{i64 1367}
!1384 = !{i64 1368}
!1385 = !{i64 1369}
!1386 = !{i64 1370}
!1387 = !{i64 1371}
!1388 = !{i64 1372}
!1389 = !{i64 1373}
!1390 = !{i64 1374}
!1391 = !{i64 1375}
!1392 = !{i64 1376}
!1393 = !{i64 1377}
!1394 = !{i64 1378}
!1395 = !{i64 1379}
!1396 = !{i64 1380}
!1397 = !{i64 1381}
!1398 = !{i64 1382}
!1399 = !{i64 1383}
!1400 = !{i64 1384}
!1401 = !{i64 1385}
!1402 = !{i64 1386}
!1403 = !{i64 1387}
!1404 = !{i64 1388}
!1405 = !{i64 1389}
!1406 = !{i64 1390}
!1407 = !{i64 1391}
!1408 = !{i64 1392}
!1409 = !{i64 1393}
!1410 = !{i64 1394}
!1411 = !{i64 1395}
!1412 = !{i64 1396}
!1413 = !{i64 1397}
!1414 = !{i64 1398}
!1415 = !{i64 1399}
!1416 = !{i64 1400}
!1417 = !{i64 1401}
!1418 = !{i64 1402}
!1419 = !{i64 1403}
!1420 = !{i64 1404}
!1421 = !{i64 1405}
!1422 = !{i64 1406}
!1423 = !{i64 1407}
!1424 = !{i64 1408}
!1425 = !{i64 1409}
!1426 = !{i64 1410}
!1427 = !{i64 1411}
!1428 = !{i64 1412}
!1429 = !{i64 1413}
!1430 = !{i64 1414}
!1431 = !{i64 1415}
!1432 = !{i64 1416}
!1433 = !{i64 1417}
!1434 = !{i64 1418}
!1435 = !{i64 1419}
!1436 = !{i64 1420}
!1437 = !{i64 1421}
!1438 = !{i64 1422}
!1439 = !{i64 1423}
!1440 = !{i64 1424}
!1441 = !{i64 1425}
!1442 = !{i64 1426}
!1443 = !{i64 1427}
!1444 = !{i64 1428}
!1445 = !{i64 1429}
!1446 = !{i64 1430}
!1447 = !{i64 1431}
!1448 = !{i64 1432}
!1449 = !{i64 1433}
!1450 = !{i64 1434}
!1451 = !{i64 1435}
!1452 = !{i64 1436}
!1453 = !{i64 1437}
!1454 = !{i64 1438}
!1455 = !{i64 1439}
!1456 = !{i64 1440}
!1457 = !{i64 1441}
!1458 = !{i64 1442}
!1459 = !{i64 1443}
!1460 = !{i64 1444}
!1461 = !{i64 1445}
!1462 = !{i64 1446}
!1463 = !{i64 1447}
!1464 = !{i64 1448}
!1465 = !{i64 1449}
!1466 = !{i64 1450}
!1467 = !{i64 1451}
!1468 = !{i64 1452}
!1469 = !{i64 1453}
!1470 = !{i64 1454}
!1471 = !{i64 1455}
!1472 = !{i64 1456}
!1473 = !{i64 1457}
!1474 = !{i64 1458}
!1475 = !{i64 1459}
!1476 = !{i64 1460}
!1477 = !{i64 1461}
!1478 = !{i64 1462}
!1479 = !{i64 1463}
!1480 = !{i64 1464}
!1481 = !{i64 1465}
!1482 = !{i64 1466}
!1483 = !{i64 1467}
!1484 = !{i64 1468}
!1485 = !{i64 1469}
!1486 = !{i64 1470}
!1487 = !{i64 1471}
!1488 = !{i64 1472}
!1489 = !{i64 1473}
!1490 = !{i64 1474}
!1491 = !{i64 1475}
!1492 = !{i64 1476}
!1493 = !{i64 1477}
!1494 = !{i64 1478}
!1495 = !{i64 1479}
!1496 = !{i64 1480}
!1497 = !{i64 1481}
!1498 = !{i64 1482}
!1499 = !{i64 1483}
!1500 = !{i64 1484}
!1501 = !{i64 1485}
!1502 = !{i64 1486}
!1503 = !{i64 1487}
!1504 = !{i64 1488}
!1505 = !{i64 1489}
!1506 = !{i64 1490}
!1507 = !{i64 1491}
!1508 = !{i64 1492}
!1509 = !{i64 1493}
!1510 = !{i64 1494}
!1511 = !{i64 1495}
!1512 = !{i64 1496}
!1513 = !{i64 1497}
!1514 = !{i64 1498}
!1515 = !{i64 1499}
!1516 = !{i64 1500}
!1517 = !{i64 1501}
!1518 = !{i64 1502}
!1519 = !{i64 1503}
!1520 = !{i64 1504}
!1521 = !{i64 1505}
!1522 = !{i64 1506}
!1523 = !{i64 1507}
!1524 = !{i64 1508}
!1525 = !{i64 1509}
!1526 = !{i64 1510}
!1527 = !{i64 1511}
!1528 = !{i64 1512}
!1529 = !{i64 1513}
!1530 = !{i64 1514}
!1531 = !{i64 1515}
!1532 = !{i64 1516}
!1533 = !{i64 1517}
!1534 = !{i64 1518}
!1535 = !{i64 1519}
!1536 = !{i64 1520}
!1537 = !{i64 1521}
!1538 = !{i64 1522}
!1539 = !{i64 1523}
!1540 = !{i64 1524}
!1541 = !{i64 1525}
!1542 = !{i64 1526}
!1543 = !{i64 1527}
!1544 = !{i64 1528}
!1545 = !{i64 1529}
!1546 = !{i64 1530}
!1547 = !{i64 1531}
!1548 = !{i64 1532}
!1549 = !{i64 1533}
!1550 = !{i64 1534}
!1551 = !{i64 1535}
!1552 = !{i64 1536}
!1553 = !{i64 1537}
!1554 = !{i64 1538}
!1555 = !{i64 1539}
!1556 = !{i64 1540}
!1557 = !{i64 1541}
!1558 = !{i64 1542}
!1559 = !{i64 1543}
!1560 = !{i64 1544}
!1561 = !{i64 1545}
!1562 = !{i64 1546}
!1563 = !{i64 1547}
!1564 = !{i64 1548}
!1565 = !{i64 1549}
!1566 = !{i64 1550}
!1567 = !{i64 1551}
!1568 = !{i64 1552}
!1569 = !{i64 1553}
!1570 = !{i64 1554}
!1571 = !{i64 1555}
!1572 = !{i64 1556}
!1573 = !{i64 1557}
!1574 = !{i64 1558}
!1575 = !{i64 1559}
!1576 = !{i64 1560}
!1577 = !{i64 1561}
!1578 = !{i64 1562}
!1579 = !{i64 1563}
!1580 = !{i64 1564}
!1581 = !{i64 1565}
!1582 = !{i64 1566}
!1583 = !{i64 1567}
!1584 = !{i64 1568}
!1585 = !{i64 1569}
!1586 = !{i64 1570}
!1587 = !{i64 1571}
!1588 = !{i64 1572}
!1589 = !{i64 1573}
!1590 = !{i64 1574}
!1591 = !{i64 1575}
!1592 = !{i64 1576}
!1593 = !{i64 1577}
!1594 = !{i64 1578}
!1595 = !{i64 1579}
!1596 = !{i64 1580}
!1597 = !{i64 1581}
!1598 = !{i64 1582}
!1599 = !{i64 1583}
!1600 = !{i64 1584}
!1601 = !{i64 1585}
!1602 = !{i64 1586}
!1603 = !{i64 1587}
!1604 = !{i64 1588}
!1605 = !{i64 1589}
!1606 = !{i64 1590}
!1607 = !{i64 1591}
!1608 = !{i64 1592}
