; ModuleID = '/home/hjiang/Computation-Kernel-Dataset/experiments/Fault_injection_0308_parall/O0/FunnyString/FunnyString.ll'
source_filename = "llvm-link"
target datalayout = "e-m:e-p270:32:32-p271:32:32-p272:64:64-i64:64-f80:128-n8:16:32:64-S128"
target triple = "x86_64-unknown-linux-gnu"

%"class.std::ios_base::Init" = type { i8 }
%struct._IO_FILE = type { i32, i8*, i8*, i8*, i8*, i8*, i8*, i8*, i8*, i8*, i8*, i8*, %struct._IO_marker*, %struct._IO_FILE*, i32, i32, i64, i16, i8, [1 x i8], i8*, i64, %struct._IO_codecvt*, %struct._IO_wide_data*, %struct._IO_FILE*, i8*, i64, i32, [20 x i8] }
%struct._IO_marker = type opaque
%struct._IO_codecvt = type opaque
%struct._IO_wide_data = type opaque
%"class.std::basic_istream" = type { i32 (...)**, i64, %"class.std::basic_ios" }
%"class.std::basic_ios" = type { %"class.std::ios_base", %"class.std::basic_ostream"*, i8, i8, %"class.std::basic_streambuf"*, %"class.std::ctype"*, %"class.std::num_put"*, %"class.std::num_put"* }
%"class.std::ios_base" = type { i32 (...)**, i64, i64, i32, i32, i32, %"struct.std::ios_base::_Callback_list"*, %"struct.std::ios_base::_Words", [8 x %"struct.std::ios_base::_Words"], i32, %"struct.std::ios_base::_Words"*, %"class.std::locale" }
%"struct.std::ios_base::_Callback_list" = type { %"struct.std::ios_base::_Callback_list"*, void (i32, %"class.std::ios_base"*, i32)*, i32, i32 }
%"struct.std::ios_base::_Words" = type { i8*, i64 }
%"class.std::locale" = type { %"class.std::locale::_Impl"* }
%"class.std::locale::_Impl" = type { i32, %"class.std::locale::facet"**, i64, %"class.std::locale::facet"**, i8** }
%"class.std::locale::facet" = type <{ i32 (...)**, i32, [4 x i8] }>
%"class.std::basic_ostream" = type { i32 (...)**, %"class.std::basic_ios" }
%"class.std::basic_streambuf" = type { i32 (...)**, i8*, i8*, i8*, i8*, i8*, i8*, %"class.std::locale" }
%"class.std::ctype" = type <{ %"class.std::locale::facet.base", [4 x i8], %struct.__locale_struct*, i8, [7 x i8], i32*, i32*, i16*, i8, [256 x i8], [256 x i8], i8, [6 x i8] }>
%"class.std::locale::facet.base" = type <{ i32 (...)**, i32 }>
%struct.__locale_struct = type { [13 x %struct.__locale_data*], i16*, i32*, i32*, [13 x i8*] }
%struct.__locale_data = type opaque
%"class.std::num_put" = type { %"class.std::locale::facet.base", [4 x i8] }
%"class.std::__cxx11::basic_string" = type { %"struct.std::__cxx11::basic_string<char>::_Alloc_hider", i64, %union.anon }
%"struct.std::__cxx11::basic_string<char>::_Alloc_hider" = type { i8* }
%union.anon = type { i64, [8 x i8] }

@llvm.global_ctors = appending global [1 x { i32, void ()*, i8* }] [{ i32, void ()*, i8* } { i32 65535, void ()* @_GLOBAL__sub_I_FunnyString.cpp, i8* null }]
@_ZStL8__ioinit = internal global %"class.std::ios_base::Init" zeroinitializer, align 1
@.str = private unnamed_addr constant [27 x i8] c"../input_files/FunnyString\00", align 1
@.str.1 = private unnamed_addr constant [2 x i8] c"r\00", align 1
@stdin = external dso_local global %struct._IO_FILE*, align 8
@_ZSt3cin = external dso_local global %"class.std::basic_istream", align 8
@_ZSt4cout = external dso_local global %"class.std::basic_ostream", align 8
@.str.2 = private unnamed_addr constant [6 x i8] c"Funny\00", align 1
@.str.3 = private unnamed_addr constant [10 x i8] c"Not Funny\00", align 1

; Function Attrs: noinline uwtable
define internal void @_GLOBAL__sub_I_FunnyString.cpp() #0 section ".text.startup" {
  call void @__cxx_global_var_init(), !llfi_index !4
  ret void, !llfi_index !5
}

; Function Attrs: noinline uwtable
define internal void @__cxx_global_var_init() #0 section ".text.startup" {
  call void @_ZNSt8ios_base4InitC1Ev(%"class.std::ios_base::Init"* nonnull align 1 dereferenceable(1) @_ZStL8__ioinit), !llfi_index !6
  %1 = call i32 @atexit(void ()* @__dtor__ZStL8__ioinit) #2, !llfi_index !7
  ret void, !llfi_index !8
}

declare dso_local void @_ZNSt8ios_base4InitC1Ev(%"class.std::ios_base::Init"* nonnull align 1 dereferenceable(1)) unnamed_addr #1

; Function Attrs: noinline uwtable
define internal void @__dtor__ZStL8__ioinit() #0 section ".text.startup" {
  call void @_ZNSt8ios_base4InitD1Ev(%"class.std::ios_base::Init"* @_ZStL8__ioinit), !llfi_index !9
  ret void, !llfi_index !10
}

; Function Attrs: nounwind
declare dso_local i32 @atexit(void ()*) #2

; Function Attrs: nounwind
declare dso_local void @_ZNSt8ios_base4InitD1Ev(%"class.std::ios_base::Init"* nonnull align 1 dereferenceable(1)) unnamed_addr #3

; Function Attrs: mustprogress noinline norecurse uwtable
define dso_local i32 @main() #4 personality i8* bitcast (i32 (...)* @__gxx_personality_v0 to i8*) {
  %1 = alloca i32, align 4, !llfi_index !11
  %2 = alloca i32, align 4, !llfi_index !12
  %3 = alloca i32, align 4, !llfi_index !13
  %4 = alloca %"class.std::__cxx11::basic_string", align 8, !llfi_index !14
  %5 = alloca i8*, align 8, !llfi_index !15
  %6 = alloca i32, align 4, !llfi_index !16
  %7 = alloca i8, align 1, !llfi_index !17
  %8 = alloca i64, align 8, !llfi_index !18
  %9 = alloca i64, align 8, !llfi_index !19
  %10 = alloca i64, align 8, !llfi_index !20
  store i32 0, i32* %1, align 4, !llfi_index !21
  %11 = load %struct._IO_FILE*, %struct._IO_FILE** @stdin, align 8, !llfi_index !22
  %12 = call %struct._IO_FILE* @freopen(i8* getelementptr inbounds ([27 x i8], [27 x i8]* @.str, i64 0, i64 0), i8* getelementptr inbounds ([2 x i8], [2 x i8]* @.str.1, i64 0, i64 0), %struct._IO_FILE* %11), !llfi_index !23
  %13 = call nonnull align 8 dereferenceable(16) %"class.std::basic_istream"* @_ZNSirsERi(%"class.std::basic_istream"* nonnull align 8 dereferenceable(16) @_ZSt3cin, i32* nonnull align 4 dereferenceable(4) %2), !llfi_index !24
  store i32 89, i32* %3, align 4, !llfi_index !25
  br label %14, !llfi_index !26

14:                                               ; preds = %88, %0
  %15 = load i32, i32* %2, align 4, !llfi_index !27
  %16 = icmp sgt i32 %15, 0, !llfi_index !28
  br i1 %16, label %17, label %91, !llfi_index !29

17:                                               ; preds = %14
  call void @_ZNSt7__cxx1112basic_stringIcSt11char_traitsIcESaIcEEC1Ev(%"class.std::__cxx11::basic_string"* nonnull align 8 dereferenceable(32) %4) #2, !llfi_index !30
  %18 = invoke nonnull align 8 dereferenceable(16) %"class.std::basic_istream"* @_ZStrsIcSt11char_traitsIcESaIcEERSt13basic_istreamIT_T0_ES7_RNSt7__cxx1112basic_stringIS4_S5_T1_EE(%"class.std::basic_istream"* nonnull align 8 dereferenceable(16) @_ZSt3cin, %"class.std::__cxx11::basic_string"* nonnull align 8 dereferenceable(32) %4)
          to label %19 unwind label %66, !llfi_index !31

19:                                               ; preds = %17
  store i8 1, i8* %7, align 1, !llfi_index !32
  %20 = call i64 @_ZNKSt7__cxx1112basic_stringIcSt11char_traitsIcESaIcEE6lengthEv(%"class.std::__cxx11::basic_string"* nonnull align 8 dereferenceable(32) %4) #2, !llfi_index !33
  store i64 %20, i64* %8, align 8, !llfi_index !34
  store i64 0, i64* %9, align 8, !llfi_index !35
  %21 = load i64, i64* %8, align 8, !llfi_index !36
  %22 = sub i64 %21, 1, !llfi_index !37
  store i64 %22, i64* %10, align 8, !llfi_index !38
  store i32 89, i32* %3, align 4, !llfi_index !39
  br label %23, !llfi_index !40

23:                                               ; preds = %70, %19
  %24 = load i64, i64* %9, align 8, !llfi_index !41
  %25 = load i64, i64* %8, align 8, !llfi_index !42
  %26 = sub i64 %25, 1, !llfi_index !43
  %27 = icmp ult i64 %24, %26, !llfi_index !44
  br i1 %27, label %28, label %31, !llfi_index !45

28:                                               ; preds = %23
  %29 = load i64, i64* %10, align 8, !llfi_index !46
  %30 = icmp ugt i64 %29, 0, !llfi_index !47
  br label %31, !llfi_index !48

31:                                               ; preds = %28, %23
  %32 = phi i1 [ false, %23 ], [ %30, %28 ], !llfi_index !49
  br i1 %32, label %33, label %75, !llfi_index !50

33:                                               ; preds = %31
  %34 = load i64, i64* %9, align 8, !llfi_index !51
  %35 = add i64 %34, 1, !llfi_index !52
  %36 = invoke nonnull align 1 dereferenceable(1) i8* @_ZNSt7__cxx1112basic_stringIcSt11char_traitsIcESaIcEEixEm(%"class.std::__cxx11::basic_string"* nonnull align 8 dereferenceable(32) %4, i64 %35)
          to label %37 unwind label %66, !llfi_index !53

37:                                               ; preds = %33
  %38 = load i8, i8* %36, align 1, !llfi_index !54
  %39 = sext i8 %38 to i32, !llfi_index !55
  %40 = sub nsw i32 %39, 48, !llfi_index !56
  %41 = load i64, i64* %9, align 8, !llfi_index !57
  %42 = invoke nonnull align 1 dereferenceable(1) i8* @_ZNSt7__cxx1112basic_stringIcSt11char_traitsIcESaIcEEixEm(%"class.std::__cxx11::basic_string"* nonnull align 8 dereferenceable(32) %4, i64 %41)
          to label %43 unwind label %66, !llfi_index !58

43:                                               ; preds = %37
  %44 = load i8, i8* %42, align 1, !llfi_index !59
  %45 = sext i8 %44 to i32, !llfi_index !60
  %46 = sub nsw i32 %45, 48, !llfi_index !61
  %47 = sub nsw i32 %40, %46, !llfi_index !62
  %48 = call i32 @abs(i32 %47) #6, !llfi_index !63
  %49 = load i64, i64* %10, align 8, !llfi_index !64
  %50 = sub i64 %49, 1, !llfi_index !65
  %51 = invoke nonnull align 1 dereferenceable(1) i8* @_ZNSt7__cxx1112basic_stringIcSt11char_traitsIcESaIcEEixEm(%"class.std::__cxx11::basic_string"* nonnull align 8 dereferenceable(32) %4, i64 %50)
          to label %52 unwind label %66, !llfi_index !66

52:                                               ; preds = %43
  %53 = load i8, i8* %51, align 1, !llfi_index !67
  %54 = sext i8 %53 to i32, !llfi_index !68
  %55 = sub nsw i32 %54, 48, !llfi_index !69
  %56 = load i64, i64* %10, align 8, !llfi_index !70
  %57 = invoke nonnull align 1 dereferenceable(1) i8* @_ZNSt7__cxx1112basic_stringIcSt11char_traitsIcESaIcEEixEm(%"class.std::__cxx11::basic_string"* nonnull align 8 dereferenceable(32) %4, i64 %56)
          to label %58 unwind label %66, !llfi_index !71

58:                                               ; preds = %52
  %59 = load i8, i8* %57, align 1, !llfi_index !72
  %60 = sext i8 %59 to i32, !llfi_index !73
  %61 = sub nsw i32 %60, 48, !llfi_index !74
  %62 = sub nsw i32 %55, %61, !llfi_index !75
  %63 = call i32 @abs(i32 %62) #6, !llfi_index !76
  %64 = icmp ne i32 %48, %63, !llfi_index !77
  br i1 %64, label %65, label %70, !llfi_index !78

65:                                               ; preds = %58
  store i8 0, i8* %7, align 1, !llfi_index !79
  br label %75, !llfi_index !80

66:                                               ; preds = %85, %83, %80, %78, %52, %43, %37, %33, %17
  %67 = landingpad { i8*, i32 }
          cleanup, !llfi_index !81
  %68 = extractvalue { i8*, i32 } %67, 0, !llfi_index !82
  store i8* %68, i8** %5, align 8, !llfi_index !83
  %69 = extractvalue { i8*, i32 } %67, 1, !llfi_index !84
  store i32 %69, i32* %6, align 4, !llfi_index !85
  call void @_ZNSt7__cxx1112basic_stringIcSt11char_traitsIcESaIcEED1Ev(%"class.std::__cxx11::basic_string"* nonnull align 8 dereferenceable(32) %4) #2, !llfi_index !86
  br label %92, !llfi_index !87

70:                                               ; preds = %58
  %71 = load i64, i64* %9, align 8, !llfi_index !88
  %72 = add i64 %71, 1, !llfi_index !89
  store i64 %72, i64* %9, align 8, !llfi_index !90
  %73 = load i64, i64* %10, align 8, !llfi_index !91
  %74 = add i64 %73, -1, !llfi_index !92
  store i64 %74, i64* %10, align 8, !llfi_index !93
  br label %23, !llvm.loop !94, !llfi_index !96

75:                                               ; preds = %65, %31
  %76 = load i8, i8* %7, align 1, !llfi_index !97
  %77 = trunc i8 %76 to i1, !llfi_index !98
  br i1 %77, label %78, label %83, !llfi_index !99

78:                                               ; preds = %75
  %79 = invoke nonnull align 8 dereferenceable(8) %"class.std::basic_ostream"* @_ZStlsISt11char_traitsIcEERSt13basic_ostreamIcT_ES5_PKc(%"class.std::basic_ostream"* nonnull align 8 dereferenceable(8) @_ZSt4cout, i8* getelementptr inbounds ([6 x i8], [6 x i8]* @.str.2, i64 0, i64 0))
          to label %80 unwind label %66, !llfi_index !100

80:                                               ; preds = %78
  %81 = invoke nonnull align 8 dereferenceable(8) %"class.std::basic_ostream"* @_ZNSolsEPFRSoS_E(%"class.std::basic_ostream"* nonnull align 8 dereferenceable(8) %79, %"class.std::basic_ostream"* (%"class.std::basic_ostream"*)* @_ZSt4endlIcSt11char_traitsIcEERSt13basic_ostreamIT_T0_ES6_)
          to label %82 unwind label %66, !llfi_index !101

82:                                               ; preds = %80
  br label %88, !llfi_index !102

83:                                               ; preds = %75
  %84 = invoke nonnull align 8 dereferenceable(8) %"class.std::basic_ostream"* @_ZStlsISt11char_traitsIcEERSt13basic_ostreamIcT_ES5_PKc(%"class.std::basic_ostream"* nonnull align 8 dereferenceable(8) @_ZSt4cout, i8* getelementptr inbounds ([10 x i8], [10 x i8]* @.str.3, i64 0, i64 0))
          to label %85 unwind label %66, !llfi_index !103

85:                                               ; preds = %83
  %86 = invoke nonnull align 8 dereferenceable(8) %"class.std::basic_ostream"* @_ZNSolsEPFRSoS_E(%"class.std::basic_ostream"* nonnull align 8 dereferenceable(8) %84, %"class.std::basic_ostream"* (%"class.std::basic_ostream"*)* @_ZSt4endlIcSt11char_traitsIcEERSt13basic_ostreamIT_T0_ES6_)
          to label %87 unwind label %66, !llfi_index !104

87:                                               ; preds = %85
  br label %88, !llfi_index !105

88:                                               ; preds = %87, %82
  %89 = load i32, i32* %2, align 4, !llfi_index !106
  %90 = add nsw i32 %89, -1, !llfi_index !107
  store i32 %90, i32* %2, align 4, !llfi_index !108
  call void @_ZNSt7__cxx1112basic_stringIcSt11char_traitsIcESaIcEED1Ev(%"class.std::__cxx11::basic_string"* nonnull align 8 dereferenceable(32) %4) #2, !llfi_index !109
  br label %14, !llvm.loop !110, !llfi_index !111

91:                                               ; preds = %14
  ret i32 0, !llfi_index !112

92:                                               ; preds = %66
  %93 = load i8*, i8** %5, align 8, !llfi_index !113
  %94 = load i32, i32* %6, align 4, !llfi_index !114
  %95 = insertvalue { i8*, i32 } undef, i8* %93, 0, !llfi_index !115
  %96 = insertvalue { i8*, i32 } %95, i32 %94, 1, !llfi_index !116
  resume { i8*, i32 } %96, !llfi_index !117
}

declare dso_local i32 @__gxx_personality_v0(...)

declare dso_local %struct._IO_FILE* @freopen(i8*, i8*, %struct._IO_FILE*) #1

declare dso_local nonnull align 8 dereferenceable(16) %"class.std::basic_istream"* @_ZNSirsERi(%"class.std::basic_istream"* nonnull align 8 dereferenceable(16), i32* nonnull align 4 dereferenceable(4)) #1

; Function Attrs: nounwind
declare dso_local void @_ZNSt7__cxx1112basic_stringIcSt11char_traitsIcESaIcEEC1Ev(%"class.std::__cxx11::basic_string"* nonnull align 8 dereferenceable(32)) unnamed_addr #3

declare dso_local nonnull align 8 dereferenceable(16) %"class.std::basic_istream"* @_ZStrsIcSt11char_traitsIcESaIcEERSt13basic_istreamIT_T0_ES7_RNSt7__cxx1112basic_stringIS4_S5_T1_EE(%"class.std::basic_istream"* nonnull align 8 dereferenceable(16), %"class.std::__cxx11::basic_string"* nonnull align 8 dereferenceable(32)) #1

; Function Attrs: nounwind
declare dso_local i64 @_ZNKSt7__cxx1112basic_stringIcSt11char_traitsIcESaIcEE6lengthEv(%"class.std::__cxx11::basic_string"* nonnull align 8 dereferenceable(32)) #3

declare dso_local nonnull align 1 dereferenceable(1) i8* @_ZNSt7__cxx1112basic_stringIcSt11char_traitsIcESaIcEEixEm(%"class.std::__cxx11::basic_string"* nonnull align 8 dereferenceable(32), i64) #1

; Function Attrs: nounwind readnone willreturn
declare dso_local i32 @abs(i32) #5

; Function Attrs: nounwind
declare dso_local void @_ZNSt7__cxx1112basic_stringIcSt11char_traitsIcESaIcEED1Ev(%"class.std::__cxx11::basic_string"* nonnull align 8 dereferenceable(32)) unnamed_addr #3

declare dso_local nonnull align 8 dereferenceable(8) %"class.std::basic_ostream"* @_ZStlsISt11char_traitsIcEERSt13basic_ostreamIcT_ES5_PKc(%"class.std::basic_ostream"* nonnull align 8 dereferenceable(8), i8*) #1

declare dso_local nonnull align 8 dereferenceable(8) %"class.std::basic_ostream"* @_ZSt4endlIcSt11char_traitsIcEERSt13basic_ostreamIT_T0_ES6_(%"class.std::basic_ostream"* nonnull align 8 dereferenceable(8)) #1

declare dso_local nonnull align 8 dereferenceable(8) %"class.std::basic_ostream"* @_ZNSolsEPFRSoS_E(%"class.std::basic_ostream"* nonnull align 8 dereferenceable(8), %"class.std::basic_ostream"* (%"class.std::basic_ostream"*)*) #1

attributes #0 = { noinline uwtable "frame-pointer"="all" "min-legal-vector-width"="0" "no-trapping-math"="true" "stack-protector-buffer-size"="8" "target-cpu"="x86-64" "target-features"="+cx8,+fxsr,+mmx,+sse,+sse2,+x87" "tune-cpu"="generic" }
attributes #1 = { "frame-pointer"="all" "no-trapping-math"="true" "stack-protector-buffer-size"="8" "target-cpu"="x86-64" "target-features"="+cx8,+fxsr,+mmx,+sse,+sse2,+x87" "tune-cpu"="generic" }
attributes #2 = { nounwind }
attributes #3 = { nounwind "frame-pointer"="all" "no-trapping-math"="true" "stack-protector-buffer-size"="8" "target-cpu"="x86-64" "target-features"="+cx8,+fxsr,+mmx,+sse,+sse2,+x87" "tune-cpu"="generic" }
attributes #4 = { mustprogress noinline norecurse uwtable "frame-pointer"="all" "min-legal-vector-width"="0" "no-trapping-math"="true" "stack-protector-buffer-size"="8" "target-cpu"="x86-64" "target-features"="+cx8,+fxsr,+mmx,+sse,+sse2,+x87" "tune-cpu"="generic" }
attributes #5 = { nounwind readnone willreturn "frame-pointer"="all" "no-trapping-math"="true" "stack-protector-buffer-size"="8" "target-cpu"="x86-64" "target-features"="+cx8,+fxsr,+mmx,+sse,+sse2,+x87" "tune-cpu"="generic" }
attributes #6 = { nounwind readnone willreturn }

!llvm.ident = !{!0}
!llvm.module.flags = !{!1, !2, !3}

!0 = !{!"clang version 13.0.0 (https://github.com/llvm/llvm-project.git d7b669b3a30345cfcdb2fde2af6f48aa4b94845d)"}
!1 = !{i32 1, !"wchar_size", i32 4}
!2 = !{i32 7, !"uwtable", i32 1}
!3 = !{i32 7, !"frame-pointer", i32 2}
!4 = !{i64 1}
!5 = !{i64 2}
!6 = !{i64 3}
!7 = !{i64 4}
!8 = !{i64 5}
!9 = !{i64 6}
!10 = !{i64 7}
!11 = !{i64 8}
!12 = !{i64 9}
!13 = !{i64 10}
!14 = !{i64 11}
!15 = !{i64 12}
!16 = !{i64 13}
!17 = !{i64 14}
!18 = !{i64 15}
!19 = !{i64 16}
!20 = !{i64 17}
!21 = !{i64 18}
!22 = !{i64 19}
!23 = !{i64 20}
!24 = !{i64 21}
!25 = !{i64 22}
!26 = !{i64 23}
!27 = !{i64 24}
!28 = !{i64 25}
!29 = !{i64 26}
!30 = !{i64 27}
!31 = !{i64 28}
!32 = !{i64 29}
!33 = !{i64 30}
!34 = !{i64 31}
!35 = !{i64 32}
!36 = !{i64 33}
!37 = !{i64 34}
!38 = !{i64 35}
!39 = !{i64 36}
!40 = !{i64 37}
!41 = !{i64 38}
!42 = !{i64 39}
!43 = !{i64 40}
!44 = !{i64 41}
!45 = !{i64 42}
!46 = !{i64 43}
!47 = !{i64 44}
!48 = !{i64 45}
!49 = !{i64 46}
!50 = !{i64 47}
!51 = !{i64 48}
!52 = !{i64 49}
!53 = !{i64 50}
!54 = !{i64 51}
!55 = !{i64 52}
!56 = !{i64 53}
!57 = !{i64 54}
!58 = !{i64 55}
!59 = !{i64 56}
!60 = !{i64 57}
!61 = !{i64 58}
!62 = !{i64 59}
!63 = !{i64 60}
!64 = !{i64 61}
!65 = !{i64 62}
!66 = !{i64 63}
!67 = !{i64 64}
!68 = !{i64 65}
!69 = !{i64 66}
!70 = !{i64 67}
!71 = !{i64 68}
!72 = !{i64 69}
!73 = !{i64 70}
!74 = !{i64 71}
!75 = !{i64 72}
!76 = !{i64 73}
!77 = !{i64 74}
!78 = !{i64 75}
!79 = !{i64 76}
!80 = !{i64 77}
!81 = !{i64 78}
!82 = !{i64 79}
!83 = !{i64 80}
!84 = !{i64 81}
!85 = !{i64 82}
!86 = !{i64 83}
!87 = !{i64 84}
!88 = !{i64 85}
!89 = !{i64 86}
!90 = !{i64 87}
!91 = !{i64 88}
!92 = !{i64 89}
!93 = !{i64 90}
!94 = distinct !{!94, !95}
!95 = !{!"llvm.loop.mustprogress"}
!96 = !{i64 91}
!97 = !{i64 92}
!98 = !{i64 93}
!99 = !{i64 94}
!100 = !{i64 95}
!101 = !{i64 96}
!102 = !{i64 97}
!103 = !{i64 98}
!104 = !{i64 99}
!105 = !{i64 100}
!106 = !{i64 101}
!107 = !{i64 102}
!108 = !{i64 103}
!109 = !{i64 104}
!110 = distinct !{!110, !95}
!111 = !{i64 105}
!112 = !{i64 106}
!113 = !{i64 107}
!114 = !{i64 108}
!115 = !{i64 109}
!116 = !{i64 110}
!117 = !{i64 111}
