; ModuleID = '/home/hjiang/Computation-Kernel-Dataset/experiments/Fault_injection_0308_parall/O0/GameOfThrones1/GameOfThrones1.ll'
source_filename = "llvm-link"
target datalayout = "e-m:e-p270:32:32-p271:32:32-p272:64:64-i64:64-f80:128-n8:16:32:64-S128"
target triple = "x86_64-unknown-linux-gnu"

%"class.std::ios_base::Init" = type { i8 }
%struct._IO_FILE = type { i32, i8*, i8*, i8*, i8*, i8*, i8*, i8*, i8*, i8*, i8*, i8*, %struct._IO_marker*, %struct._IO_FILE*, i32, i32, i64, i16, i8, [1 x i8], i8*, i64, %struct._IO_codecvt*, %struct._IO_wide_data*, %struct._IO_FILE*, i8*, i64, i32, [20 x i8] }
%struct._IO_marker = type opaque
%struct._IO_codecvt = type opaque
%struct._IO_wide_data = type opaque
%"class.std::basic_istream" = type { i32 (...)**, i64, %"class.std::basic_ios" }
%"class.std::basic_ios" = type { %"class.std::ios_base", %"class.std::basic_ostream"*, i8, i8, %"class.std::basic_streambuf"*, %"class.std::ctype"*, %"class.std::num_put"*, %"class.std::num_put"* }
%"class.std::ios_base" = type { i32 (...)**, i64, i64, i32, i32, i32, %"struct.std::ios_base::_Callback_list"*, %"struct.std::ios_base::_Words", [8 x %"struct.std::ios_base::_Words"], i32, %"struct.std::ios_base::_Words"*, %"class.std::locale" }
%"struct.std::ios_base::_Callback_list" = type { %"struct.std::ios_base::_Callback_list"*, void (i32, %"class.std::ios_base"*, i32)*, i32, i32 }
%"struct.std::ios_base::_Words" = type { i8*, i64 }
%"class.std::locale" = type { %"class.std::locale::_Impl"* }
%"class.std::locale::_Impl" = type { i32, %"class.std::locale::facet"**, i64, %"class.std::locale::facet"**, i8** }
%"class.std::locale::facet" = type <{ i32 (...)**, i32, [4 x i8] }>
%"class.std::basic_ostream" = type { i32 (...)**, %"class.std::basic_ios" }
%"class.std::basic_streambuf" = type { i32 (...)**, i8*, i8*, i8*, i8*, i8*, i8*, %"class.std::locale" }
%"class.std::ctype" = type <{ %"class.std::locale::facet.base", [4 x i8], %struct.__locale_struct*, i8, [7 x i8], i32*, i32*, i16*, i8, [256 x i8], [256 x i8], i8, [6 x i8] }>
%"class.std::locale::facet.base" = type <{ i32 (...)**, i32 }>
%struct.__locale_struct = type { [13 x %struct.__locale_data*], i16*, i32*, i32*, [13 x i8*] }
%struct.__locale_data = type opaque
%"class.std::num_put" = type { %"class.std::locale::facet.base", [4 x i8] }
%"class.std::__cxx11::basic_string" = type { %"struct.std::__cxx11::basic_string<char>::_Alloc_hider", i64, %union.anon }
%"struct.std::__cxx11::basic_string<char>::_Alloc_hider" = type { i8* }
%union.anon = type { i64, [8 x i8] }

@llvm.global_ctors = appending global [1 x { i32, void ()*, i8* }] [{ i32, void ()*, i8* } { i32 65535, void ()* @_GLOBAL__sub_I_GameOfThrones1.cpp, i8* null }]
@_ZStL8__ioinit = internal global %"class.std::ios_base::Init" zeroinitializer, align 1
@.str = private unnamed_addr constant [30 x i8] c"../input_files/GameOfThrones1\00", align 1
@.str.1 = private unnamed_addr constant [2 x i8] c"r\00", align 1
@stdin = external dso_local global %struct._IO_FILE*, align 8
@_ZSt3cin = external dso_local global %"class.std::basic_istream", align 8
@_ZSt4cout = external dso_local global %"class.std::basic_ostream", align 8
@.str.2 = private unnamed_addr constant [3 x i8] c"NO\00", align 1
@.str.3 = private unnamed_addr constant [4 x i8] c"YES\00", align 1

; Function Attrs: noinline uwtable
define internal void @_GLOBAL__sub_I_GameOfThrones1.cpp() #0 section ".text.startup" {
  call void @__cxx_global_var_init(), !llfi_index !4
  ret void, !llfi_index !5
}

; Function Attrs: noinline uwtable
define internal void @__cxx_global_var_init() #0 section ".text.startup" {
  call void @_ZNSt8ios_base4InitC1Ev(%"class.std::ios_base::Init"* nonnull align 1 dereferenceable(1) @_ZStL8__ioinit), !llfi_index !6
  %1 = call i32 @atexit(void ()* @__dtor__ZStL8__ioinit) #2, !llfi_index !7
  ret void, !llfi_index !8
}

declare dso_local void @_ZNSt8ios_base4InitC1Ev(%"class.std::ios_base::Init"* nonnull align 1 dereferenceable(1)) unnamed_addr #1

; Function Attrs: noinline uwtable
define internal void @__dtor__ZStL8__ioinit() #0 section ".text.startup" {
  call void @_ZNSt8ios_base4InitD1Ev(%"class.std::ios_base::Init"* @_ZStL8__ioinit), !llfi_index !9
  ret void, !llfi_index !10
}

; Function Attrs: nounwind
declare dso_local i32 @atexit(void ()*) #2

; Function Attrs: nounwind
declare dso_local void @_ZNSt8ios_base4InitD1Ev(%"class.std::ios_base::Init"* nonnull align 1 dereferenceable(1)) unnamed_addr #3

; Function Attrs: mustprogress noinline uwtable
define dso_local zeroext i1 @_Z21isAnagramOfPalindromeNSt7__cxx1112basic_stringIcSt11char_traitsIcESaIcEEE(%"class.std::__cxx11::basic_string"* %0) #4 {
  %2 = alloca i1, align 1, !llfi_index !11
  %3 = alloca [256 x i32], align 16, !llfi_index !12
  %4 = alloca i32, align 4, !llfi_index !13
  %5 = alloca i32, align 4, !llfi_index !14
  %6 = alloca i32, align 4, !llfi_index !15
  %7 = alloca i32, align 4, !llfi_index !16
  %8 = alloca i32, align 4, !llfi_index !17
  %9 = bitcast [256 x i32]* %3 to i8*, !llfi_index !18
  call void @llvm.memset.p0i8.i64(i8* align 16 %9, i8 0, i64 1024, i1 false), !llfi_index !19
  %10 = call i64 @_ZNKSt7__cxx1112basic_stringIcSt11char_traitsIcESaIcEE6lengthEv(%"class.std::__cxx11::basic_string"* nonnull align 8 dereferenceable(32) %0) #2, !llfi_index !20
  %11 = trunc i64 %10 to i32, !llfi_index !21
  store i32 %11, i32* %4, align 4, !llfi_index !22
  store i32 0, i32* %5, align 4, !llfi_index !23
  store i32 0, i32* %6, align 4, !llfi_index !24
  br label %12, !llfi_index !25

12:                                               ; preds = %27, %1
  %13 = load i32, i32* %6, align 4, !llfi_index !26
  %14 = load i32, i32* %4, align 4, !llfi_index !27
  %15 = icmp slt i32 %13, %14, !llfi_index !28
  br i1 %15, label %16, label %30, !llfi_index !29

16:                                               ; preds = %12
  %17 = load i32, i32* %6, align 4, !llfi_index !30
  %18 = sext i32 %17 to i64, !llfi_index !31
  %19 = call nonnull align 1 dereferenceable(1) i8* @_ZNSt7__cxx1112basic_stringIcSt11char_traitsIcESaIcEEixEm(%"class.std::__cxx11::basic_string"* nonnull align 8 dereferenceable(32) %0, i64 %18), !llfi_index !32
  %20 = load i8, i8* %19, align 1, !llfi_index !33
  %21 = sext i8 %20 to i32, !llfi_index !34
  store i32 %21, i32* %7, align 4, !llfi_index !35
  %22 = load i32, i32* %7, align 4, !llfi_index !36
  %23 = sext i32 %22 to i64, !llfi_index !37
  %24 = getelementptr inbounds [256 x i32], [256 x i32]* %3, i64 0, i64 %23, !llfi_index !38
  %25 = load i32, i32* %24, align 4, !llfi_index !39
  %26 = add nsw i32 %25, 1, !llfi_index !40
  store i32 %26, i32* %24, align 4, !llfi_index !41
  br label %27, !llfi_index !42

27:                                               ; preds = %16
  %28 = load i32, i32* %6, align 4, !llfi_index !43
  %29 = add nsw i32 %28, 1, !llfi_index !44
  store i32 %29, i32* %6, align 4, !llfi_index !45
  br label %12, !llvm.loop !46, !llfi_index !48

30:                                               ; preds = %12
  store i32 0, i32* %8, align 4, !llfi_index !49
  br label %31, !llfi_index !50

31:                                               ; preds = %48, %30
  %32 = load i32, i32* %8, align 4, !llfi_index !51
  %33 = icmp sle i32 %32, 255, !llfi_index !52
  br i1 %33, label %34, label %51, !llfi_index !53

34:                                               ; preds = %31
  %35 = load i32, i32* %8, align 4, !llfi_index !54
  %36 = sext i32 %35 to i64, !llfi_index !55
  %37 = getelementptr inbounds [256 x i32], [256 x i32]* %3, i64 0, i64 %36, !llfi_index !56
  %38 = load i32, i32* %37, align 4, !llfi_index !57
  %39 = and i32 %38, 1, !llfi_index !58
  %40 = icmp ne i32 %39, 0, !llfi_index !59
  br i1 %40, label %41, label %47, !llfi_index !60

41:                                               ; preds = %34
  %42 = load i32, i32* %5, align 4, !llfi_index !61
  %43 = icmp eq i32 %42, 1, !llfi_index !62
  br i1 %43, label %44, label %45, !llfi_index !63

44:                                               ; preds = %41
  store i1 false, i1* %2, align 1, !llfi_index !64
  br label %52, !llfi_index !65

45:                                               ; preds = %41
  store i32 1, i32* %5, align 4, !llfi_index !66
  br label %46, !llfi_index !67

46:                                               ; preds = %45
  br label %47, !llfi_index !68

47:                                               ; preds = %46, %34
  br label %48, !llfi_index !69

48:                                               ; preds = %47
  %49 = load i32, i32* %8, align 4, !llfi_index !70
  %50 = add nsw i32 %49, 1, !llfi_index !71
  store i32 %50, i32* %8, align 4, !llfi_index !72
  br label %31, !llvm.loop !73, !llfi_index !74

51:                                               ; preds = %31
  store i1 true, i1* %2, align 1, !llfi_index !75
  br label %52, !llfi_index !76

52:                                               ; preds = %51, %44
  %53 = load i1, i1* %2, align 1, !llfi_index !77
  ret i1 %53, !llfi_index !78
}

; Function Attrs: argmemonly nofree nounwind willreturn writeonly
declare void @llvm.memset.p0i8.i64(i8* nocapture writeonly, i8, i64, i1 immarg) #5

; Function Attrs: nounwind
declare dso_local i64 @_ZNKSt7__cxx1112basic_stringIcSt11char_traitsIcESaIcEE6lengthEv(%"class.std::__cxx11::basic_string"* nonnull align 8 dereferenceable(32)) #3

declare dso_local nonnull align 1 dereferenceable(1) i8* @_ZNSt7__cxx1112basic_stringIcSt11char_traitsIcESaIcEEixEm(%"class.std::__cxx11::basic_string"* nonnull align 8 dereferenceable(32), i64) #1

; Function Attrs: mustprogress noinline norecurse uwtable
define dso_local i32 @main() #6 personality i8* bitcast (i32 (...)* @__gxx_personality_v0 to i8*) {
  %1 = alloca i32, align 4, !llfi_index !79
  %2 = alloca %"class.std::__cxx11::basic_string", align 8, !llfi_index !80
  %3 = alloca i8*, align 8, !llfi_index !81
  %4 = alloca i32, align 4, !llfi_index !82
  %5 = alloca i8, align 1, !llfi_index !83
  %6 = alloca %"class.std::__cxx11::basic_string", align 8, !llfi_index !84
  store i32 0, i32* %1, align 4, !llfi_index !85
  %7 = load %struct._IO_FILE*, %struct._IO_FILE** @stdin, align 8, !llfi_index !86
  %8 = call %struct._IO_FILE* @freopen(i8* getelementptr inbounds ([30 x i8], [30 x i8]* @.str, i64 0, i64 0), i8* getelementptr inbounds ([2 x i8], [2 x i8]* @.str.1, i64 0, i64 0), %struct._IO_FILE* %7), !llfi_index !87
  call void @_ZNSt7__cxx1112basic_stringIcSt11char_traitsIcESaIcEEC1Ev(%"class.std::__cxx11::basic_string"* nonnull align 8 dereferenceable(32) %2) #2, !llfi_index !88
  %9 = invoke nonnull align 8 dereferenceable(16) %"class.std::basic_istream"* @_ZStrsIcSt11char_traitsIcESaIcEERSt13basic_istreamIT_T0_ES7_RNSt7__cxx1112basic_stringIS4_S5_T1_EE(%"class.std::basic_istream"* nonnull align 8 dereferenceable(16) @_ZSt3cin, %"class.std::__cxx11::basic_string"* nonnull align 8 dereferenceable(32) %2)
          to label %10 unwind label %22, !llfi_index !89

10:                                               ; preds = %0
  invoke void @_ZNSt7__cxx1112basic_stringIcSt11char_traitsIcESaIcEEC1ERKS4_(%"class.std::__cxx11::basic_string"* nonnull align 8 dereferenceable(32) %6, %"class.std::__cxx11::basic_string"* nonnull align 8 dereferenceable(32) %2)
          to label %11 unwind label %22, !llfi_index !90

11:                                               ; preds = %10
  %12 = invoke zeroext i1 @_Z21isAnagramOfPalindromeNSt7__cxx1112basic_stringIcSt11char_traitsIcESaIcEEE(%"class.std::__cxx11::basic_string"* %6)
          to label %13 unwind label %26, !llfi_index !91

13:                                               ; preds = %11
  call void @_ZNSt7__cxx1112basic_stringIcSt11char_traitsIcESaIcEED1Ev(%"class.std::__cxx11::basic_string"* nonnull align 8 dereferenceable(32) %6) #2, !llfi_index !92
  %14 = zext i1 %12 to i8, !llfi_index !93
  store i8 %14, i8* %5, align 1, !llfi_index !94
  %15 = load i8, i8* %5, align 1, !llfi_index !95
  %16 = trunc i8 %15 to i1, !llfi_index !96
  %17 = zext i1 %16 to i32, !llfi_index !97
  %18 = icmp eq i32 %17, 0, !llfi_index !98
  br i1 %18, label %19, label %30, !llfi_index !99

19:                                               ; preds = %13
  %20 = invoke nonnull align 8 dereferenceable(8) %"class.std::basic_ostream"* @_ZStlsISt11char_traitsIcEERSt13basic_ostreamIcT_ES5_PKc(%"class.std::basic_ostream"* nonnull align 8 dereferenceable(8) @_ZSt4cout, i8* getelementptr inbounds ([3 x i8], [3 x i8]* @.str.2, i64 0, i64 0))
          to label %21 unwind label %22, !llfi_index !100

21:                                               ; preds = %19
  br label %33, !llfi_index !101

22:                                               ; preds = %30, %19, %10, %0
  %23 = landingpad { i8*, i32 }
          cleanup, !llfi_index !102
  %24 = extractvalue { i8*, i32 } %23, 0, !llfi_index !103
  store i8* %24, i8** %3, align 8, !llfi_index !104
  %25 = extractvalue { i8*, i32 } %23, 1, !llfi_index !105
  store i32 %25, i32* %4, align 4, !llfi_index !106
  br label %35, !llfi_index !107

26:                                               ; preds = %11
  %27 = landingpad { i8*, i32 }
          cleanup, !llfi_index !108
  %28 = extractvalue { i8*, i32 } %27, 0, !llfi_index !109
  store i8* %28, i8** %3, align 8, !llfi_index !110
  %29 = extractvalue { i8*, i32 } %27, 1, !llfi_index !111
  store i32 %29, i32* %4, align 4, !llfi_index !112
  call void @_ZNSt7__cxx1112basic_stringIcSt11char_traitsIcESaIcEED1Ev(%"class.std::__cxx11::basic_string"* nonnull align 8 dereferenceable(32) %6) #2, !llfi_index !113
  br label %35, !llfi_index !114

30:                                               ; preds = %13
  %31 = invoke nonnull align 8 dereferenceable(8) %"class.std::basic_ostream"* @_ZStlsISt11char_traitsIcEERSt13basic_ostreamIcT_ES5_PKc(%"class.std::basic_ostream"* nonnull align 8 dereferenceable(8) @_ZSt4cout, i8* getelementptr inbounds ([4 x i8], [4 x i8]* @.str.3, i64 0, i64 0))
          to label %32 unwind label %22, !llfi_index !115

32:                                               ; preds = %30
  br label %33, !llfi_index !116

33:                                               ; preds = %32, %21
  store i32 0, i32* %1, align 4, !llfi_index !117
  call void @_ZNSt7__cxx1112basic_stringIcSt11char_traitsIcESaIcEED1Ev(%"class.std::__cxx11::basic_string"* nonnull align 8 dereferenceable(32) %2) #2, !llfi_index !118
  %34 = load i32, i32* %1, align 4, !llfi_index !119
  ret i32 %34, !llfi_index !120

35:                                               ; preds = %26, %22
  call void @_ZNSt7__cxx1112basic_stringIcSt11char_traitsIcESaIcEED1Ev(%"class.std::__cxx11::basic_string"* nonnull align 8 dereferenceable(32) %2) #2, !llfi_index !121
  br label %36, !llfi_index !122

36:                                               ; preds = %35
  %37 = load i8*, i8** %3, align 8, !llfi_index !123
  %38 = load i32, i32* %4, align 4, !llfi_index !124
  %39 = insertvalue { i8*, i32 } undef, i8* %37, 0, !llfi_index !125
  %40 = insertvalue { i8*, i32 } %39, i32 %38, 1, !llfi_index !126
  resume { i8*, i32 } %40, !llfi_index !127
}

declare dso_local i32 @__gxx_personality_v0(...)

declare dso_local %struct._IO_FILE* @freopen(i8*, i8*, %struct._IO_FILE*) #1

; Function Attrs: nounwind
declare dso_local void @_ZNSt7__cxx1112basic_stringIcSt11char_traitsIcESaIcEEC1Ev(%"class.std::__cxx11::basic_string"* nonnull align 8 dereferenceable(32)) unnamed_addr #3

declare dso_local nonnull align 8 dereferenceable(16) %"class.std::basic_istream"* @_ZStrsIcSt11char_traitsIcESaIcEERSt13basic_istreamIT_T0_ES7_RNSt7__cxx1112basic_stringIS4_S5_T1_EE(%"class.std::basic_istream"* nonnull align 8 dereferenceable(16), %"class.std::__cxx11::basic_string"* nonnull align 8 dereferenceable(32)) #1

declare dso_local void @_ZNSt7__cxx1112basic_stringIcSt11char_traitsIcESaIcEEC1ERKS4_(%"class.std::__cxx11::basic_string"* nonnull align 8 dereferenceable(32), %"class.std::__cxx11::basic_string"* nonnull align 8 dereferenceable(32)) unnamed_addr #1

; Function Attrs: nounwind
declare dso_local void @_ZNSt7__cxx1112basic_stringIcSt11char_traitsIcESaIcEED1Ev(%"class.std::__cxx11::basic_string"* nonnull align 8 dereferenceable(32)) unnamed_addr #3

declare dso_local nonnull align 8 dereferenceable(8) %"class.std::basic_ostream"* @_ZStlsISt11char_traitsIcEERSt13basic_ostreamIcT_ES5_PKc(%"class.std::basic_ostream"* nonnull align 8 dereferenceable(8), i8*) #1

attributes #0 = { noinline uwtable "frame-pointer"="all" "min-legal-vector-width"="0" "no-trapping-math"="true" "stack-protector-buffer-size"="8" "target-cpu"="x86-64" "target-features"="+cx8,+fxsr,+mmx,+sse,+sse2,+x87" "tune-cpu"="generic" }
attributes #1 = { "frame-pointer"="all" "no-trapping-math"="true" "stack-protector-buffer-size"="8" "target-cpu"="x86-64" "target-features"="+cx8,+fxsr,+mmx,+sse,+sse2,+x87" "tune-cpu"="generic" }
attributes #2 = { nounwind }
attributes #3 = { nounwind "frame-pointer"="all" "no-trapping-math"="true" "stack-protector-buffer-size"="8" "target-cpu"="x86-64" "target-features"="+cx8,+fxsr,+mmx,+sse,+sse2,+x87" "tune-cpu"="generic" }
attributes #4 = { mustprogress noinline uwtable "frame-pointer"="all" "min-legal-vector-width"="0" "no-trapping-math"="true" "stack-protector-buffer-size"="8" "target-cpu"="x86-64" "target-features"="+cx8,+fxsr,+mmx,+sse,+sse2,+x87" "tune-cpu"="generic" }
attributes #5 = { argmemonly nofree nounwind willreturn writeonly }
attributes #6 = { mustprogress noinline norecurse uwtable "frame-pointer"="all" "min-legal-vector-width"="0" "no-trapping-math"="true" "stack-protector-buffer-size"="8" "target-cpu"="x86-64" "target-features"="+cx8,+fxsr,+mmx,+sse,+sse2,+x87" "tune-cpu"="generic" }

!llvm.ident = !{!0}
!llvm.module.flags = !{!1, !2, !3}

!0 = !{!"clang version 13.0.0 (https://github.com/llvm/llvm-project.git d7b669b3a30345cfcdb2fde2af6f48aa4b94845d)"}
!1 = !{i32 1, !"wchar_size", i32 4}
!2 = !{i32 7, !"uwtable", i32 1}
!3 = !{i32 7, !"frame-pointer", i32 2}
!4 = !{i64 1}
!5 = !{i64 2}
!6 = !{i64 3}
!7 = !{i64 4}
!8 = !{i64 5}
!9 = !{i64 6}
!10 = !{i64 7}
!11 = !{i64 8}
!12 = !{i64 9}
!13 = !{i64 10}
!14 = !{i64 11}
!15 = !{i64 12}
!16 = !{i64 13}
!17 = !{i64 14}
!18 = !{i64 15}
!19 = !{i64 16}
!20 = !{i64 17}
!21 = !{i64 18}
!22 = !{i64 19}
!23 = !{i64 20}
!24 = !{i64 21}
!25 = !{i64 22}
!26 = !{i64 23}
!27 = !{i64 24}
!28 = !{i64 25}
!29 = !{i64 26}
!30 = !{i64 27}
!31 = !{i64 28}
!32 = !{i64 29}
!33 = !{i64 30}
!34 = !{i64 31}
!35 = !{i64 32}
!36 = !{i64 33}
!37 = !{i64 34}
!38 = !{i64 35}
!39 = !{i64 36}
!40 = !{i64 37}
!41 = !{i64 38}
!42 = !{i64 39}
!43 = !{i64 40}
!44 = !{i64 41}
!45 = !{i64 42}
!46 = distinct !{!46, !47}
!47 = !{!"llvm.loop.mustprogress"}
!48 = !{i64 43}
!49 = !{i64 44}
!50 = !{i64 45}
!51 = !{i64 46}
!52 = !{i64 47}
!53 = !{i64 48}
!54 = !{i64 49}
!55 = !{i64 50}
!56 = !{i64 51}
!57 = !{i64 52}
!58 = !{i64 53}
!59 = !{i64 54}
!60 = !{i64 55}
!61 = !{i64 56}
!62 = !{i64 57}
!63 = !{i64 58}
!64 = !{i64 59}
!65 = !{i64 60}
!66 = !{i64 61}
!67 = !{i64 62}
!68 = !{i64 63}
!69 = !{i64 64}
!70 = !{i64 65}
!71 = !{i64 66}
!72 = !{i64 67}
!73 = distinct !{!73, !47}
!74 = !{i64 68}
!75 = !{i64 69}
!76 = !{i64 70}
!77 = !{i64 71}
!78 = !{i64 72}
!79 = !{i64 73}
!80 = !{i64 74}
!81 = !{i64 75}
!82 = !{i64 76}
!83 = !{i64 77}
!84 = !{i64 78}
!85 = !{i64 79}
!86 = !{i64 80}
!87 = !{i64 81}
!88 = !{i64 82}
!89 = !{i64 83}
!90 = !{i64 84}
!91 = !{i64 85}
!92 = !{i64 86}
!93 = !{i64 87}
!94 = !{i64 88}
!95 = !{i64 89}
!96 = !{i64 90}
!97 = !{i64 91}
!98 = !{i64 92}
!99 = !{i64 93}
!100 = !{i64 94}
!101 = !{i64 95}
!102 = !{i64 96}
!103 = !{i64 97}
!104 = !{i64 98}
!105 = !{i64 99}
!106 = !{i64 100}
!107 = !{i64 101}
!108 = !{i64 102}
!109 = !{i64 103}
!110 = !{i64 104}
!111 = !{i64 105}
!112 = !{i64 106}
!113 = !{i64 107}
!114 = !{i64 108}
!115 = !{i64 109}
!116 = !{i64 110}
!117 = !{i64 111}
!118 = !{i64 112}
!119 = !{i64 113}
!120 = !{i64 114}
!121 = !{i64 115}
!122 = !{i64 116}
!123 = !{i64 117}
!124 = !{i64 118}
!125 = !{i64 119}
!126 = !{i64 120}
!127 = !{i64 121}
