; ModuleID = '/home/hjiang/Computation-Kernel-Dataset/experiments/Fault_injection_0308_parall/O0/HighwayConstruction/HighwayConstruction.ll'
source_filename = "llvm-link"
target datalayout = "e-m:e-p270:32:32-p271:32:32-p272:64:64-i64:64-f80:128-n8:16:32:64-S128"
target triple = "x86_64-unknown-linux-gnu"

%"class.std::allocator" = type { i8 }
%"class.std::vector" = type { %"struct.std::_Vector_base" }
%"struct.std::_Vector_base" = type { %"struct.std::_Vector_base<long long, std::allocator<long long>>::_Vector_impl" }
%"struct.std::_Vector_base<long long, std::allocator<long long>>::_Vector_impl" = type { %"struct.std::_Vector_base<long long, std::allocator<long long>>::_Vector_impl_data" }
%"struct.std::_Vector_base<long long, std::allocator<long long>>::_Vector_impl_data" = type { i64*, i64*, i64* }
%struct._IO_FILE = type { i32, i8*, i8*, i8*, i8*, i8*, i8*, i8*, i8*, i8*, i8*, i8*, %struct._IO_marker*, %struct._IO_FILE*, i32, i32, i64, i16, i8, [1 x i8], i8*, i64, %struct._IO_codecvt*, %struct._IO_wide_data*, %struct._IO_FILE*, i8*, i64, i32, [20 x i8] }
%struct._IO_marker = type opaque
%struct._IO_codecvt = type opaque
%struct._IO_wide_data = type opaque
%"class.std::basic_istream" = type { i32 (...)**, i64, %"class.std::basic_ios" }
%"class.std::basic_ios" = type { %"class.std::ios_base", %"class.std::basic_ostream"*, i8, i8, %"class.std::basic_streambuf"*, %"class.std::ctype"*, %"class.std::num_put"*, %"class.std::num_put"* }
%"class.std::ios_base" = type { i32 (...)**, i64, i64, i32, i32, i32, %"struct.std::ios_base::_Callback_list"*, %"struct.std::ios_base::_Words", [8 x %"struct.std::ios_base::_Words"], i32, %"struct.std::ios_base::_Words"*, %"class.std::locale" }
%"struct.std::ios_base::_Callback_list" = type { %"struct.std::ios_base::_Callback_list"*, void (i32, %"class.std::ios_base"*, i32)*, i32, i32 }
%"struct.std::ios_base::_Words" = type { i8*, i64 }
%"class.std::locale" = type { %"class.std::locale::_Impl"* }
%"class.std::locale::_Impl" = type { i32, %"class.std::locale::facet"**, i64, %"class.std::locale::facet"**, i8** }
%"class.std::locale::facet" = type <{ i32 (...)**, i32, [4 x i8] }>
%"class.std::basic_ostream" = type { i32 (...)**, %"class.std::basic_ios" }
%"class.std::basic_streambuf" = type { i32 (...)**, i8*, i8*, i8*, i8*, i8*, i8*, %"class.std::locale" }
%"class.std::ctype" = type <{ %"class.std::locale::facet.base", [4 x i8], %struct.__locale_struct*, i8, [7 x i8], i32*, i32*, i16*, i8, [256 x i8], [256 x i8], i8, [6 x i8] }>
%"class.std::locale::facet.base" = type <{ i32 (...)**, i32 }>
%struct.__locale_struct = type { [13 x %struct.__locale_data*], i16*, i32*, i32*, [13 x i8*] }
%struct.__locale_data = type opaque
%"class.std::num_put" = type { %"class.std::locale::facet.base", [4 x i8] }
%"class.__gnu_cxx::__normal_iterator" = type { i64* }

$_ZNSt6vectorIxSaIxEEC2Ev = comdat any

$_ZNSt6vectorIxSaIxEED2Ev = comdat any

$_ZNSt12_Vector_baseIxSaIxEE19_M_get_Tp_allocatorEv = comdat any

$_ZSt8_DestroyIPxxEvT_S1_RSaIT0_E = comdat any

$_ZNSt12_Vector_baseIxSaIxEED2Ev = comdat any

$__clang_call_terminate = comdat any

$_ZNSt12_Vector_baseIxSaIxEE13_M_deallocateEPxm = comdat any

$_ZNSt12_Vector_baseIxSaIxEE12_Vector_implD2Ev = comdat any

$_ZNSaIxED2Ev = comdat any

$_ZN9__gnu_cxx13new_allocatorIxED2Ev = comdat any

$_ZNSt16allocator_traitsISaIxEE10deallocateERS0_Pxm = comdat any

$_ZN9__gnu_cxx13new_allocatorIxE10deallocateEPxm = comdat any

$_ZSt8_DestroyIPxEvT_S1_ = comdat any

$_ZNSt12_Destroy_auxILb1EE9__destroyIPxEEvT_S3_ = comdat any

$_ZNSt12_Vector_baseIxSaIxEEC2Ev = comdat any

$_ZNSt12_Vector_baseIxSaIxEE12_Vector_implC2Ev = comdat any

$_ZNSaIxEC2Ev = comdat any

$_ZNSt12_Vector_baseIxSaIxEE17_Vector_impl_dataC2Ev = comdat any

$_ZN9__gnu_cxx13new_allocatorIxEC2Ev = comdat any

$_ZNSt6vectorIxSaIxEE5clearEv = comdat any

$_ZNSt6vectorIxSaIxEE9push_backERKx = comdat any

$_ZNKSt6vectorIxSaIxEE4sizeEv = comdat any

$_ZNSt6vectorIxSaIxEEixEm = comdat any

$_ZNSt16allocator_traitsISaIxEE9constructIxJRKxEEEvRS0_PT_DpOT0_ = comdat any

$_ZNSt6vectorIxSaIxEE3endEv = comdat any

$_ZNSt6vectorIxSaIxEE17_M_realloc_insertIJRKxEEEvN9__gnu_cxx17__normal_iteratorIPxS1_EEDpOT_ = comdat any

$_ZNKSt6vectorIxSaIxEE12_M_check_lenEmPKc = comdat any

$_ZNSt6vectorIxSaIxEE5beginEv = comdat any

$_ZN9__gnu_cxxmiIPxSt6vectorIxSaIxEEEENS_17__normal_iteratorIT_T0_E15difference_typeERKS8_SB_ = comdat any

$_ZNSt12_Vector_baseIxSaIxEE11_M_allocateEm = comdat any

$_ZSt7forwardIRKxEOT_RNSt16remove_referenceIS2_E4typeE = comdat any

$_ZNK9__gnu_cxx17__normal_iteratorIPxSt6vectorIxSaIxEEE4baseEv = comdat any

$_ZNSt6vectorIxSaIxEE11_S_relocateEPxS2_S2_RS0_ = comdat any

$_ZNSt6vectorIxSaIxEE14_S_do_relocateEPxS2_S2_RS0_St17integral_constantIbLb1EE = comdat any

$_ZSt12__relocate_aIPxS0_SaIxEET0_T_S3_S2_RT1_ = comdat any

$_ZSt12__niter_baseIPxET_S1_ = comdat any

$_ZSt14__relocate_a_1IxxENSt9enable_ifIXsr3std24__is_bitwise_relocatableIT_EE5valueEPS1_E4typeES2_S2_S2_RSaIT0_E = comdat any

$_ZNSt16allocator_traitsISaIxEE8allocateERS0_m = comdat any

$_ZN9__gnu_cxx13new_allocatorIxE8allocateEmPKv = comdat any

$_ZNK9__gnu_cxx13new_allocatorIxE8max_sizeEv = comdat any

$_ZN9__gnu_cxx17__normal_iteratorIPxSt6vectorIxSaIxEEEC2ERKS1_ = comdat any

$_ZNKSt6vectorIxSaIxEE8max_sizeEv = comdat any

$_ZSt3maxImERKT_S2_S2_ = comdat any

$_ZNKSt12_Vector_baseIxSaIxEE19_M_get_Tp_allocatorEv = comdat any

$_ZNSt6vectorIxSaIxEE11_S_max_sizeERKS0_ = comdat any

$_ZNSt16allocator_traitsISaIxEE8max_sizeERKS0_ = comdat any

$_ZSt3minImERKT_S2_S2_ = comdat any

$_ZN9__gnu_cxx13new_allocatorIxE9constructIxJRKxEEEvPT_DpOT0_ = comdat any

$_ZNSt6vectorIxSaIxEE15_M_erase_at_endEPx = comdat any

@llvm.global_ctors = appending global [1 x { i32, void ()*, i8* }] [{ i32, void ()*, i8* } { i32 65535, void ()* @_GLOBAL__sub_I_HighwayConstruction.cpp, i8* null }]
@_ZStL8__ioinit = internal global %"class.std::allocator" zeroinitializer, align 1
@vec = dso_local global %"class.std::vector" zeroinitializer, align 8
@.str = private unnamed_addr constant [35 x i8] c"../input_files/HighwayConstruction\00", align 1
@.str.2 = private unnamed_addr constant [2 x i8] c"r\00", align 1
@stdin = external dso_local global %struct._IO_FILE*, align 8
@_ZSt3cin = external dso_local global %"class.std::basic_istream", align 8
@_ZSt4cout = external dso_local global %"class.std::basic_ostream", align 8
@.str.3 = private unnamed_addr constant [26 x i8] c"vector::_M_realloc_insert\00", align 1

; Function Attrs: noinline uwtable
define internal void @_GLOBAL__sub_I_HighwayConstruction.cpp() #0 section ".text.startup" {
  call void @__cxx_global_var_init(), !llfi_index !4
  call void @__cxx_global_var_init.1(), !llfi_index !5
  ret void, !llfi_index !6
}

; Function Attrs: noinline uwtable
define internal void @__cxx_global_var_init() #0 section ".text.startup" {
  call void @_ZNSt8ios_base4InitC1Ev(%"class.std::allocator"* nonnull align 1 dereferenceable(1) @_ZStL8__ioinit), !llfi_index !7
  %1 = call i32 @atexit(void ()* @__dtor__ZStL8__ioinit) #2, !llfi_index !8
  ret void, !llfi_index !9
}

; Function Attrs: noinline uwtable
define internal void @__cxx_global_var_init.1() #0 section ".text.startup" {
  call void @_ZNSt6vectorIxSaIxEEC2Ev(%"class.std::vector"* nonnull align 8 dereferenceable(24) @vec) #2, !llfi_index !10
  %1 = call i32 @atexit(void ()* @__dtor_vec) #2, !llfi_index !11
  ret void, !llfi_index !12
}

; Function Attrs: noinline nounwind uwtable
define linkonce_odr dso_local void @_ZNSt6vectorIxSaIxEEC2Ev(%"class.std::vector"* nonnull align 8 dereferenceable(24) %0) unnamed_addr #1 comdat align 2 {
  %2 = alloca %"class.std::vector"*, align 8, !llfi_index !13
  store %"class.std::vector"* %0, %"class.std::vector"** %2, align 8, !llfi_index !14
  %3 = load %"class.std::vector"*, %"class.std::vector"** %2, align 8, !llfi_index !15
  %4 = bitcast %"class.std::vector"* %3 to %"struct.std::_Vector_base"*, !llfi_index !16
  call void @_ZNSt12_Vector_baseIxSaIxEEC2Ev(%"struct.std::_Vector_base"* nonnull align 8 dereferenceable(24) %4) #2, !llfi_index !17
  ret void, !llfi_index !18
}

; Function Attrs: noinline uwtable
define internal void @__dtor_vec() #0 section ".text.startup" {
  call void @_ZNSt6vectorIxSaIxEED2Ev(%"class.std::vector"* @vec), !llfi_index !19
  ret void, !llfi_index !20
}

; Function Attrs: nounwind
declare dso_local i32 @atexit(void ()*) #2

; Function Attrs: noinline nounwind uwtable
define linkonce_odr dso_local void @_ZNSt6vectorIxSaIxEED2Ev(%"class.std::vector"* nonnull align 8 dereferenceable(24) %0) unnamed_addr #1 comdat align 2 personality i8* bitcast (i32 (...)* @__gxx_personality_v0 to i8*) {
  %2 = alloca %"class.std::vector"*, align 8, !llfi_index !21
  %3 = alloca i8*, align 8, !llfi_index !22
  %4 = alloca i32, align 4, !llfi_index !23
  store %"class.std::vector"* %0, %"class.std::vector"** %2, align 8, !llfi_index !24
  %5 = load %"class.std::vector"*, %"class.std::vector"** %2, align 8, !llfi_index !25
  %6 = bitcast %"class.std::vector"* %5 to %"struct.std::_Vector_base"*, !llfi_index !26
  %7 = getelementptr inbounds %"struct.std::_Vector_base", %"struct.std::_Vector_base"* %6, i32 0, i32 0, !llfi_index !27
  %8 = bitcast %"struct.std::_Vector_base<long long, std::allocator<long long>>::_Vector_impl"* %7 to %"struct.std::_Vector_base<long long, std::allocator<long long>>::_Vector_impl_data"*, !llfi_index !28
  %9 = getelementptr inbounds %"struct.std::_Vector_base<long long, std::allocator<long long>>::_Vector_impl_data", %"struct.std::_Vector_base<long long, std::allocator<long long>>::_Vector_impl_data"* %8, i32 0, i32 0, !llfi_index !29
  %10 = load i64*, i64** %9, align 8, !llfi_index !30
  %11 = bitcast %"class.std::vector"* %5 to %"struct.std::_Vector_base"*, !llfi_index !31
  %12 = getelementptr inbounds %"struct.std::_Vector_base", %"struct.std::_Vector_base"* %11, i32 0, i32 0, !llfi_index !32
  %13 = bitcast %"struct.std::_Vector_base<long long, std::allocator<long long>>::_Vector_impl"* %12 to %"struct.std::_Vector_base<long long, std::allocator<long long>>::_Vector_impl_data"*, !llfi_index !33
  %14 = getelementptr inbounds %"struct.std::_Vector_base<long long, std::allocator<long long>>::_Vector_impl_data", %"struct.std::_Vector_base<long long, std::allocator<long long>>::_Vector_impl_data"* %13, i32 0, i32 1, !llfi_index !34
  %15 = load i64*, i64** %14, align 8, !llfi_index !35
  %16 = bitcast %"class.std::vector"* %5 to %"struct.std::_Vector_base"*, !llfi_index !36
  %17 = call nonnull align 1 dereferenceable(1) %"class.std::allocator"* @_ZNSt12_Vector_baseIxSaIxEE19_M_get_Tp_allocatorEv(%"struct.std::_Vector_base"* nonnull align 8 dereferenceable(24) %16) #2, !llfi_index !37
  invoke void @_ZSt8_DestroyIPxxEvT_S1_RSaIT0_E(i64* %10, i64* %15, %"class.std::allocator"* nonnull align 1 dereferenceable(1) %17)
          to label %18 unwind label %20, !llfi_index !38

18:                                               ; preds = %1
  %19 = bitcast %"class.std::vector"* %5 to %"struct.std::_Vector_base"*, !llfi_index !39
  call void @_ZNSt12_Vector_baseIxSaIxEED2Ev(%"struct.std::_Vector_base"* nonnull align 8 dereferenceable(24) %19) #2, !llfi_index !40
  ret void, !llfi_index !41

20:                                               ; preds = %1
  %21 = landingpad { i8*, i32 }
          catch i8* null, !llfi_index !42
  %22 = extractvalue { i8*, i32 } %21, 0, !llfi_index !43
  store i8* %22, i8** %3, align 8, !llfi_index !44
  %23 = extractvalue { i8*, i32 } %21, 1, !llfi_index !45
  store i32 %23, i32* %4, align 4, !llfi_index !46
  %24 = bitcast %"class.std::vector"* %5 to %"struct.std::_Vector_base"*, !llfi_index !47
  call void @_ZNSt12_Vector_baseIxSaIxEED2Ev(%"struct.std::_Vector_base"* nonnull align 8 dereferenceable(24) %24) #2, !llfi_index !48
  br label %25, !llfi_index !49

25:                                               ; preds = %20
  %26 = load i8*, i8** %3, align 8, !llfi_index !50
  call void @__clang_call_terminate(i8* %26) #13, !llfi_index !51
  unreachable, !llfi_index !52
}

declare dso_local i32 @__gxx_personality_v0(...)

; Function Attrs: mustprogress noinline nounwind uwtable
define linkonce_odr dso_local nonnull align 1 dereferenceable(1) %"class.std::allocator"* @_ZNSt12_Vector_baseIxSaIxEE19_M_get_Tp_allocatorEv(%"struct.std::_Vector_base"* nonnull align 8 dereferenceable(24) %0) #3 comdat align 2 {
  %2 = alloca %"struct.std::_Vector_base"*, align 8, !llfi_index !53
  store %"struct.std::_Vector_base"* %0, %"struct.std::_Vector_base"** %2, align 8, !llfi_index !54
  %3 = load %"struct.std::_Vector_base"*, %"struct.std::_Vector_base"** %2, align 8, !llfi_index !55
  %4 = getelementptr inbounds %"struct.std::_Vector_base", %"struct.std::_Vector_base"* %3, i32 0, i32 0, !llfi_index !56
  %5 = bitcast %"struct.std::_Vector_base<long long, std::allocator<long long>>::_Vector_impl"* %4 to %"class.std::allocator"*, !llfi_index !57
  ret %"class.std::allocator"* %5, !llfi_index !58
}

; Function Attrs: mustprogress noinline uwtable
define linkonce_odr dso_local void @_ZSt8_DestroyIPxxEvT_S1_RSaIT0_E(i64* %0, i64* %1, %"class.std::allocator"* nonnull align 1 dereferenceable(1) %2) #4 comdat {
  %4 = alloca i64*, align 8, !llfi_index !59
  %5 = alloca i64*, align 8, !llfi_index !60
  %6 = alloca %"class.std::allocator"*, align 8, !llfi_index !61
  store i64* %0, i64** %4, align 8, !llfi_index !62
  store i64* %1, i64** %5, align 8, !llfi_index !63
  store %"class.std::allocator"* %2, %"class.std::allocator"** %6, align 8, !llfi_index !64
  %7 = load i64*, i64** %4, align 8, !llfi_index !65
  %8 = load i64*, i64** %5, align 8, !llfi_index !66
  call void @_ZSt8_DestroyIPxEvT_S1_(i64* %7, i64* %8), !llfi_index !67
  ret void, !llfi_index !68
}

; Function Attrs: noinline nounwind uwtable
define linkonce_odr dso_local void @_ZNSt12_Vector_baseIxSaIxEED2Ev(%"struct.std::_Vector_base"* nonnull align 8 dereferenceable(24) %0) unnamed_addr #1 comdat align 2 personality i8* bitcast (i32 (...)* @__gxx_personality_v0 to i8*) {
  %2 = alloca %"struct.std::_Vector_base"*, align 8, !llfi_index !69
  %3 = alloca i8*, align 8, !llfi_index !70
  %4 = alloca i32, align 4, !llfi_index !71
  store %"struct.std::_Vector_base"* %0, %"struct.std::_Vector_base"** %2, align 8, !llfi_index !72
  %5 = load %"struct.std::_Vector_base"*, %"struct.std::_Vector_base"** %2, align 8, !llfi_index !73
  %6 = getelementptr inbounds %"struct.std::_Vector_base", %"struct.std::_Vector_base"* %5, i32 0, i32 0, !llfi_index !74
  %7 = bitcast %"struct.std::_Vector_base<long long, std::allocator<long long>>::_Vector_impl"* %6 to %"struct.std::_Vector_base<long long, std::allocator<long long>>::_Vector_impl_data"*, !llfi_index !75
  %8 = getelementptr inbounds %"struct.std::_Vector_base<long long, std::allocator<long long>>::_Vector_impl_data", %"struct.std::_Vector_base<long long, std::allocator<long long>>::_Vector_impl_data"* %7, i32 0, i32 0, !llfi_index !76
  %9 = load i64*, i64** %8, align 8, !llfi_index !77
  %10 = getelementptr inbounds %"struct.std::_Vector_base", %"struct.std::_Vector_base"* %5, i32 0, i32 0, !llfi_index !78
  %11 = bitcast %"struct.std::_Vector_base<long long, std::allocator<long long>>::_Vector_impl"* %10 to %"struct.std::_Vector_base<long long, std::allocator<long long>>::_Vector_impl_data"*, !llfi_index !79
  %12 = getelementptr inbounds %"struct.std::_Vector_base<long long, std::allocator<long long>>::_Vector_impl_data", %"struct.std::_Vector_base<long long, std::allocator<long long>>::_Vector_impl_data"* %11, i32 0, i32 2, !llfi_index !80
  %13 = load i64*, i64** %12, align 8, !llfi_index !81
  %14 = getelementptr inbounds %"struct.std::_Vector_base", %"struct.std::_Vector_base"* %5, i32 0, i32 0, !llfi_index !82
  %15 = bitcast %"struct.std::_Vector_base<long long, std::allocator<long long>>::_Vector_impl"* %14 to %"struct.std::_Vector_base<long long, std::allocator<long long>>::_Vector_impl_data"*, !llfi_index !83
  %16 = getelementptr inbounds %"struct.std::_Vector_base<long long, std::allocator<long long>>::_Vector_impl_data", %"struct.std::_Vector_base<long long, std::allocator<long long>>::_Vector_impl_data"* %15, i32 0, i32 0, !llfi_index !84
  %17 = load i64*, i64** %16, align 8, !llfi_index !85
  %18 = ptrtoint i64* %13 to i64, !llfi_index !86
  %19 = ptrtoint i64* %17 to i64, !llfi_index !87
  %20 = sub i64 %18, %19, !llfi_index !88
  %21 = sdiv exact i64 %20, 8, !llfi_index !89
  invoke void @_ZNSt12_Vector_baseIxSaIxEE13_M_deallocateEPxm(%"struct.std::_Vector_base"* nonnull align 8 dereferenceable(24) %5, i64* %9, i64 %21)
          to label %22 unwind label %24, !llfi_index !90

22:                                               ; preds = %1
  %23 = getelementptr inbounds %"struct.std::_Vector_base", %"struct.std::_Vector_base"* %5, i32 0, i32 0, !llfi_index !91
  call void @_ZNSt12_Vector_baseIxSaIxEE12_Vector_implD2Ev(%"struct.std::_Vector_base<long long, std::allocator<long long>>::_Vector_impl"* nonnull align 8 dereferenceable(24) %23) #2, !llfi_index !92
  ret void, !llfi_index !93

24:                                               ; preds = %1
  %25 = landingpad { i8*, i32 }
          catch i8* null, !llfi_index !94
  %26 = extractvalue { i8*, i32 } %25, 0, !llfi_index !95
  store i8* %26, i8** %3, align 8, !llfi_index !96
  %27 = extractvalue { i8*, i32 } %25, 1, !llfi_index !97
  store i32 %27, i32* %4, align 4, !llfi_index !98
  %28 = getelementptr inbounds %"struct.std::_Vector_base", %"struct.std::_Vector_base"* %5, i32 0, i32 0, !llfi_index !99
  call void @_ZNSt12_Vector_baseIxSaIxEE12_Vector_implD2Ev(%"struct.std::_Vector_base<long long, std::allocator<long long>>::_Vector_impl"* nonnull align 8 dereferenceable(24) %28) #2, !llfi_index !100
  br label %29, !llfi_index !101

29:                                               ; preds = %24
  %30 = load i8*, i8** %3, align 8, !llfi_index !102
  call void @__clang_call_terminate(i8* %30) #13, !llfi_index !103
  unreachable, !llfi_index !104
}

; Function Attrs: noinline noreturn nounwind
define linkonce_odr hidden void @__clang_call_terminate(i8* %0) #5 comdat {
  %2 = call i8* @__cxa_begin_catch(i8* %0) #2, !llfi_index !105
  call void @_ZSt9terminatev() #13, !llfi_index !106
  unreachable, !llfi_index !107
}

declare dso_local i8* @__cxa_begin_catch(i8*)

declare dso_local void @_ZSt9terminatev()

; Function Attrs: mustprogress noinline uwtable
define linkonce_odr dso_local void @_ZNSt12_Vector_baseIxSaIxEE13_M_deallocateEPxm(%"struct.std::_Vector_base"* nonnull align 8 dereferenceable(24) %0, i64* %1, i64 %2) #4 comdat align 2 {
  %4 = alloca %"struct.std::_Vector_base"*, align 8, !llfi_index !108
  %5 = alloca i64*, align 8, !llfi_index !109
  %6 = alloca i64, align 8, !llfi_index !110
  store %"struct.std::_Vector_base"* %0, %"struct.std::_Vector_base"** %4, align 8, !llfi_index !111
  store i64* %1, i64** %5, align 8, !llfi_index !112
  store i64 %2, i64* %6, align 8, !llfi_index !113
  %7 = load %"struct.std::_Vector_base"*, %"struct.std::_Vector_base"** %4, align 8, !llfi_index !114
  %8 = load i64*, i64** %5, align 8, !llfi_index !115
  %9 = icmp ne i64* %8, null, !llfi_index !116
  br i1 %9, label %10, label %15, !llfi_index !117

10:                                               ; preds = %3
  %11 = getelementptr inbounds %"struct.std::_Vector_base", %"struct.std::_Vector_base"* %7, i32 0, i32 0, !llfi_index !118
  %12 = bitcast %"struct.std::_Vector_base<long long, std::allocator<long long>>::_Vector_impl"* %11 to %"class.std::allocator"*, !llfi_index !119
  %13 = load i64*, i64** %5, align 8, !llfi_index !120
  %14 = load i64, i64* %6, align 8, !llfi_index !121
  call void @_ZNSt16allocator_traitsISaIxEE10deallocateERS0_Pxm(%"class.std::allocator"* nonnull align 1 dereferenceable(1) %12, i64* %13, i64 %14), !llfi_index !122
  br label %15, !llfi_index !123

15:                                               ; preds = %10, %3
  ret void, !llfi_index !124
}

; Function Attrs: noinline nounwind uwtable
define linkonce_odr dso_local void @_ZNSt12_Vector_baseIxSaIxEE12_Vector_implD2Ev(%"struct.std::_Vector_base<long long, std::allocator<long long>>::_Vector_impl"* nonnull align 8 dereferenceable(24) %0) unnamed_addr #1 comdat align 2 {
  %2 = alloca %"struct.std::_Vector_base<long long, std::allocator<long long>>::_Vector_impl"*, align 8, !llfi_index !125
  store %"struct.std::_Vector_base<long long, std::allocator<long long>>::_Vector_impl"* %0, %"struct.std::_Vector_base<long long, std::allocator<long long>>::_Vector_impl"** %2, align 8, !llfi_index !126
  %3 = load %"struct.std::_Vector_base<long long, std::allocator<long long>>::_Vector_impl"*, %"struct.std::_Vector_base<long long, std::allocator<long long>>::_Vector_impl"** %2, align 8, !llfi_index !127
  %4 = bitcast %"struct.std::_Vector_base<long long, std::allocator<long long>>::_Vector_impl"* %3 to %"class.std::allocator"*, !llfi_index !128
  call void @_ZNSaIxED2Ev(%"class.std::allocator"* nonnull align 1 dereferenceable(1) %4) #2, !llfi_index !129
  ret void, !llfi_index !130
}

; Function Attrs: noinline nounwind uwtable
define linkonce_odr dso_local void @_ZNSaIxED2Ev(%"class.std::allocator"* nonnull align 1 dereferenceable(1) %0) unnamed_addr #1 comdat align 2 {
  %2 = alloca %"class.std::allocator"*, align 8, !llfi_index !131
  store %"class.std::allocator"* %0, %"class.std::allocator"** %2, align 8, !llfi_index !132
  %3 = load %"class.std::allocator"*, %"class.std::allocator"** %2, align 8, !llfi_index !133
  %4 = bitcast %"class.std::allocator"* %3 to %"class.std::allocator"*, !llfi_index !134
  call void @_ZN9__gnu_cxx13new_allocatorIxED2Ev(%"class.std::allocator"* nonnull align 1 dereferenceable(1) %4) #2, !llfi_index !135
  ret void, !llfi_index !136
}

; Function Attrs: noinline nounwind uwtable
define linkonce_odr dso_local void @_ZN9__gnu_cxx13new_allocatorIxED2Ev(%"class.std::allocator"* nonnull align 1 dereferenceable(1) %0) unnamed_addr #1 comdat align 2 {
  %2 = alloca %"class.std::allocator"*, align 8, !llfi_index !137
  store %"class.std::allocator"* %0, %"class.std::allocator"** %2, align 8, !llfi_index !138
  %3 = load %"class.std::allocator"*, %"class.std::allocator"** %2, align 8, !llfi_index !139
  ret void, !llfi_index !140
}

; Function Attrs: mustprogress noinline uwtable
define linkonce_odr dso_local void @_ZNSt16allocator_traitsISaIxEE10deallocateERS0_Pxm(%"class.std::allocator"* nonnull align 1 dereferenceable(1) %0, i64* %1, i64 %2) #4 comdat align 2 {
  %4 = alloca %"class.std::allocator"*, align 8, !llfi_index !141
  %5 = alloca i64*, align 8, !llfi_index !142
  %6 = alloca i64, align 8, !llfi_index !143
  store %"class.std::allocator"* %0, %"class.std::allocator"** %4, align 8, !llfi_index !144
  store i64* %1, i64** %5, align 8, !llfi_index !145
  store i64 %2, i64* %6, align 8, !llfi_index !146
  %7 = load %"class.std::allocator"*, %"class.std::allocator"** %4, align 8, !llfi_index !147
  %8 = bitcast %"class.std::allocator"* %7 to %"class.std::allocator"*, !llfi_index !148
  %9 = load i64*, i64** %5, align 8, !llfi_index !149
  %10 = load i64, i64* %6, align 8, !llfi_index !150
  call void @_ZN9__gnu_cxx13new_allocatorIxE10deallocateEPxm(%"class.std::allocator"* nonnull align 1 dereferenceable(1) %8, i64* %9, i64 %10), !llfi_index !151
  ret void, !llfi_index !152
}

; Function Attrs: mustprogress noinline nounwind uwtable
define linkonce_odr dso_local void @_ZN9__gnu_cxx13new_allocatorIxE10deallocateEPxm(%"class.std::allocator"* nonnull align 1 dereferenceable(1) %0, i64* %1, i64 %2) #3 comdat align 2 {
  %4 = alloca %"class.std::allocator"*, align 8, !llfi_index !153
  %5 = alloca i64*, align 8, !llfi_index !154
  %6 = alloca i64, align 8, !llfi_index !155
  store %"class.std::allocator"* %0, %"class.std::allocator"** %4, align 8, !llfi_index !156
  store i64* %1, i64** %5, align 8, !llfi_index !157
  store i64 %2, i64* %6, align 8, !llfi_index !158
  %7 = load %"class.std::allocator"*, %"class.std::allocator"** %4, align 8, !llfi_index !159
  %8 = load i64*, i64** %5, align 8, !llfi_index !160
  %9 = bitcast i64* %8 to i8*, !llfi_index !161
  call void @_ZdlPv(i8* %9) #2, !llfi_index !162
  ret void, !llfi_index !163
}

; Function Attrs: nobuiltin nounwind
declare dso_local void @_ZdlPv(i8*) #6

; Function Attrs: mustprogress noinline uwtable
define linkonce_odr dso_local void @_ZSt8_DestroyIPxEvT_S1_(i64* %0, i64* %1) #4 comdat {
  %3 = alloca i64*, align 8, !llfi_index !164
  %4 = alloca i64*, align 8, !llfi_index !165
  store i64* %0, i64** %3, align 8, !llfi_index !166
  store i64* %1, i64** %4, align 8, !llfi_index !167
  %5 = load i64*, i64** %3, align 8, !llfi_index !168
  %6 = load i64*, i64** %4, align 8, !llfi_index !169
  call void @_ZNSt12_Destroy_auxILb1EE9__destroyIPxEEvT_S3_(i64* %5, i64* %6), !llfi_index !170
  ret void, !llfi_index !171
}

; Function Attrs: mustprogress noinline nounwind uwtable
define linkonce_odr dso_local void @_ZNSt12_Destroy_auxILb1EE9__destroyIPxEEvT_S3_(i64* %0, i64* %1) #3 comdat align 2 {
  %3 = alloca i64*, align 8, !llfi_index !172
  %4 = alloca i64*, align 8, !llfi_index !173
  store i64* %0, i64** %3, align 8, !llfi_index !174
  store i64* %1, i64** %4, align 8, !llfi_index !175
  ret void, !llfi_index !176
}

; Function Attrs: noinline nounwind uwtable
define linkonce_odr dso_local void @_ZNSt12_Vector_baseIxSaIxEEC2Ev(%"struct.std::_Vector_base"* nonnull align 8 dereferenceable(24) %0) unnamed_addr #1 comdat align 2 {
  %2 = alloca %"struct.std::_Vector_base"*, align 8, !llfi_index !177
  store %"struct.std::_Vector_base"* %0, %"struct.std::_Vector_base"** %2, align 8, !llfi_index !178
  %3 = load %"struct.std::_Vector_base"*, %"struct.std::_Vector_base"** %2, align 8, !llfi_index !179
  %4 = getelementptr inbounds %"struct.std::_Vector_base", %"struct.std::_Vector_base"* %3, i32 0, i32 0, !llfi_index !180
  call void @_ZNSt12_Vector_baseIxSaIxEE12_Vector_implC2Ev(%"struct.std::_Vector_base<long long, std::allocator<long long>>::_Vector_impl"* nonnull align 8 dereferenceable(24) %4) #2, !llfi_index !181
  ret void, !llfi_index !182
}

; Function Attrs: noinline nounwind uwtable
define linkonce_odr dso_local void @_ZNSt12_Vector_baseIxSaIxEE12_Vector_implC2Ev(%"struct.std::_Vector_base<long long, std::allocator<long long>>::_Vector_impl"* nonnull align 8 dereferenceable(24) %0) unnamed_addr #1 comdat align 2 {
  %2 = alloca %"struct.std::_Vector_base<long long, std::allocator<long long>>::_Vector_impl"*, align 8, !llfi_index !183
  store %"struct.std::_Vector_base<long long, std::allocator<long long>>::_Vector_impl"* %0, %"struct.std::_Vector_base<long long, std::allocator<long long>>::_Vector_impl"** %2, align 8, !llfi_index !184
  %3 = load %"struct.std::_Vector_base<long long, std::allocator<long long>>::_Vector_impl"*, %"struct.std::_Vector_base<long long, std::allocator<long long>>::_Vector_impl"** %2, align 8, !llfi_index !185
  %4 = bitcast %"struct.std::_Vector_base<long long, std::allocator<long long>>::_Vector_impl"* %3 to %"class.std::allocator"*, !llfi_index !186
  call void @_ZNSaIxEC2Ev(%"class.std::allocator"* nonnull align 1 dereferenceable(1) %4) #2, !llfi_index !187
  %5 = bitcast %"struct.std::_Vector_base<long long, std::allocator<long long>>::_Vector_impl"* %3 to %"struct.std::_Vector_base<long long, std::allocator<long long>>::_Vector_impl_data"*, !llfi_index !188
  call void @_ZNSt12_Vector_baseIxSaIxEE17_Vector_impl_dataC2Ev(%"struct.std::_Vector_base<long long, std::allocator<long long>>::_Vector_impl_data"* nonnull align 8 dereferenceable(24) %5) #2, !llfi_index !189
  ret void, !llfi_index !190
}

; Function Attrs: noinline nounwind uwtable
define linkonce_odr dso_local void @_ZNSaIxEC2Ev(%"class.std::allocator"* nonnull align 1 dereferenceable(1) %0) unnamed_addr #1 comdat align 2 {
  %2 = alloca %"class.std::allocator"*, align 8, !llfi_index !191
  store %"class.std::allocator"* %0, %"class.std::allocator"** %2, align 8, !llfi_index !192
  %3 = load %"class.std::allocator"*, %"class.std::allocator"** %2, align 8, !llfi_index !193
  %4 = bitcast %"class.std::allocator"* %3 to %"class.std::allocator"*, !llfi_index !194
  call void @_ZN9__gnu_cxx13new_allocatorIxEC2Ev(%"class.std::allocator"* nonnull align 1 dereferenceable(1) %4) #2, !llfi_index !195
  ret void, !llfi_index !196
}

; Function Attrs: noinline nounwind uwtable
define linkonce_odr dso_local void @_ZNSt12_Vector_baseIxSaIxEE17_Vector_impl_dataC2Ev(%"struct.std::_Vector_base<long long, std::allocator<long long>>::_Vector_impl_data"* nonnull align 8 dereferenceable(24) %0) unnamed_addr #1 comdat align 2 {
  %2 = alloca %"struct.std::_Vector_base<long long, std::allocator<long long>>::_Vector_impl_data"*, align 8, !llfi_index !197
  store %"struct.std::_Vector_base<long long, std::allocator<long long>>::_Vector_impl_data"* %0, %"struct.std::_Vector_base<long long, std::allocator<long long>>::_Vector_impl_data"** %2, align 8, !llfi_index !198
  %3 = load %"struct.std::_Vector_base<long long, std::allocator<long long>>::_Vector_impl_data"*, %"struct.std::_Vector_base<long long, std::allocator<long long>>::_Vector_impl_data"** %2, align 8, !llfi_index !199
  %4 = getelementptr inbounds %"struct.std::_Vector_base<long long, std::allocator<long long>>::_Vector_impl_data", %"struct.std::_Vector_base<long long, std::allocator<long long>>::_Vector_impl_data"* %3, i32 0, i32 0, !llfi_index !200
  store i64* null, i64** %4, align 8, !llfi_index !201
  %5 = getelementptr inbounds %"struct.std::_Vector_base<long long, std::allocator<long long>>::_Vector_impl_data", %"struct.std::_Vector_base<long long, std::allocator<long long>>::_Vector_impl_data"* %3, i32 0, i32 1, !llfi_index !202
  store i64* null, i64** %5, align 8, !llfi_index !203
  %6 = getelementptr inbounds %"struct.std::_Vector_base<long long, std::allocator<long long>>::_Vector_impl_data", %"struct.std::_Vector_base<long long, std::allocator<long long>>::_Vector_impl_data"* %3, i32 0, i32 2, !llfi_index !204
  store i64* null, i64** %6, align 8, !llfi_index !205
  ret void, !llfi_index !206
}

; Function Attrs: noinline nounwind uwtable
define linkonce_odr dso_local void @_ZN9__gnu_cxx13new_allocatorIxEC2Ev(%"class.std::allocator"* nonnull align 1 dereferenceable(1) %0) unnamed_addr #1 comdat align 2 {
  %2 = alloca %"class.std::allocator"*, align 8, !llfi_index !207
  store %"class.std::allocator"* %0, %"class.std::allocator"** %2, align 8, !llfi_index !208
  %3 = load %"class.std::allocator"*, %"class.std::allocator"** %2, align 8, !llfi_index !209
  ret void, !llfi_index !210
}

declare dso_local void @_ZNSt8ios_base4InitC1Ev(%"class.std::allocator"* nonnull align 1 dereferenceable(1)) unnamed_addr #7

; Function Attrs: noinline uwtable
define internal void @__dtor__ZStL8__ioinit() #0 section ".text.startup" {
  call void @_ZNSt8ios_base4InitD1Ev(%"class.std::allocator"* @_ZStL8__ioinit), !llfi_index !211
  ret void, !llfi_index !212
}

; Function Attrs: nounwind
declare dso_local void @_ZNSt8ios_base4InitD1Ev(%"class.std::allocator"* nonnull align 1 dereferenceable(1)) unnamed_addr #8

; Function Attrs: mustprogress noinline uwtable
define dso_local i64 @_Z7fastexpxx(i64 %0, i64 %1) #4 {
  %3 = alloca i64, align 8, !llfi_index !213
  %4 = alloca i64, align 8, !llfi_index !214
  %5 = alloca i64, align 8, !llfi_index !215
  %6 = alloca i64, align 8, !llfi_index !216
  store i64 %0, i64* %4, align 8, !llfi_index !217
  store i64 %1, i64* %5, align 8, !llfi_index !218
  %7 = load i64, i64* %5, align 8, !llfi_index !219
  %8 = icmp eq i64 %7, 0, !llfi_index !220
  br i1 %8, label %9, label %10, !llfi_index !221

9:                                                ; preds = %2
  store i64 1, i64* %3, align 8, !llfi_index !222
  br label %38, !llfi_index !223

10:                                               ; preds = %2
  %11 = load i64, i64* %5, align 8, !llfi_index !224
  %12 = icmp eq i64 %11, 1, !llfi_index !225
  br i1 %12, label %13, label %16, !llfi_index !226

13:                                               ; preds = %10
  %14 = load i64, i64* %4, align 8, !llfi_index !227
  %15 = srem i64 %14, 1000000009, !llfi_index !228
  store i64 %15, i64* %3, align 8, !llfi_index !229
  br label %38, !llfi_index !230

16:                                               ; preds = %10
  %17 = load i64, i64* %5, align 8, !llfi_index !231
  %18 = and i64 %17, 1, !llfi_index !232
  %19 = icmp ne i64 %18, 0, !llfi_index !233
  br i1 %19, label %20, label %29, !llfi_index !234

20:                                               ; preds = %16
  %21 = load i64, i64* %4, align 8, !llfi_index !235
  %22 = srem i64 %21, 1000000009, !llfi_index !236
  %23 = load i64, i64* %4, align 8, !llfi_index !237
  %24 = load i64, i64* %5, align 8, !llfi_index !238
  %25 = sub nsw i64 %24, 1, !llfi_index !239
  %26 = call i64 @_Z7fastexpxx(i64 %23, i64 %25), !llfi_index !240
  %27 = mul nsw i64 %22, %26, !llfi_index !241
  %28 = srem i64 %27, 1000000009, !llfi_index !242
  store i64 %28, i64* %3, align 8, !llfi_index !243
  br label %38, !llfi_index !244

29:                                               ; preds = %16
  %30 = load i64, i64* %4, align 8, !llfi_index !245
  %31 = load i64, i64* %5, align 8, !llfi_index !246
  %32 = sdiv i64 %31, 2, !llfi_index !247
  %33 = call i64 @_Z7fastexpxx(i64 %30, i64 %32), !llfi_index !248
  store i64 %33, i64* %6, align 8, !llfi_index !249
  %34 = load i64, i64* %6, align 8, !llfi_index !250
  %35 = load i64, i64* %6, align 8, !llfi_index !251
  %36 = mul nsw i64 %34, %35, !llfi_index !252
  %37 = srem i64 %36, 1000000009, !llfi_index !253
  store i64 %37, i64* %3, align 8, !llfi_index !254
  br label %38, !llfi_index !255

38:                                               ; preds = %29, %20, %13, %9
  %39 = load i64, i64* %3, align 8, !llfi_index !256
  ret i64 %39, !llfi_index !257
}

; Function Attrs: mustprogress noinline uwtable
define dso_local i64 @_Z3invx(i64 %0) #4 {
  %2 = alloca i64, align 8, !llfi_index !258
  store i64 %0, i64* %2, align 8, !llfi_index !259
  %3 = load i64, i64* %2, align 8, !llfi_index !260
  %4 = call i64 @_Z7fastexpxx(i64 %3, i64 1000000007), !llfi_index !261
  ret i64 %4, !llfi_index !262
}

; Function Attrs: mustprogress noinline norecurse uwtable
define dso_local i32 @main() #9 {
  %1 = alloca i32, align 4, !llfi_index !263
  %2 = alloca i32, align 4, !llfi_index !264
  %3 = alloca i32, align 4, !llfi_index !265
  %4 = alloca i64, align 8, !llfi_index !266
  %5 = alloca i32, align 4, !llfi_index !267
  %6 = alloca i64, align 8, !llfi_index !268
  %7 = alloca i32, align 4, !llfi_index !269
  %8 = alloca i64, align 8, !llfi_index !270
  %9 = alloca i64, align 8, !llfi_index !271
  %10 = alloca i32, align 4, !llfi_index !272
  %11 = alloca i32, align 4, !llfi_index !273
  store i32 0, i32* %1, align 4, !llfi_index !274
  %12 = load %struct._IO_FILE*, %struct._IO_FILE** @stdin, align 8, !llfi_index !275
  %13 = call %struct._IO_FILE* @freopen(i8* getelementptr inbounds ([35 x i8], [35 x i8]* @.str, i64 0, i64 0), i8* getelementptr inbounds ([2 x i8], [2 x i8]* @.str.2, i64 0, i64 0), %struct._IO_FILE* %12), !llfi_index !276
  %14 = call zeroext i1 @_ZNSt8ios_base15sync_with_stdioEb(i1 zeroext false), !llfi_index !277
  %15 = load i8*, i8** bitcast (%"class.std::basic_istream"* @_ZSt3cin to i8**), align 8, !llfi_index !278
  %16 = getelementptr i8, i8* %15, i64 -24, !llfi_index !279
  %17 = bitcast i8* %16 to i64*, !llfi_index !280
  %18 = load i64, i64* %17, align 8, !llfi_index !281
  %19 = getelementptr inbounds i8, i8* bitcast (%"class.std::basic_istream"* @_ZSt3cin to i8*), i64 %18, !llfi_index !282
  %20 = bitcast i8* %19 to %"class.std::basic_ios"*, !llfi_index !283
  %21 = call %"class.std::basic_ostream"* @_ZNSt9basic_iosIcSt11char_traitsIcEE3tieEPSo(%"class.std::basic_ios"* nonnull align 8 dereferenceable(264) %20, %"class.std::basic_ostream"* null), !llfi_index !284
  %22 = load i8*, i8** bitcast (%"class.std::basic_ostream"* @_ZSt4cout to i8**), align 8, !llfi_index !285
  %23 = getelementptr i8, i8* %22, i64 -24, !llfi_index !286
  %24 = bitcast i8* %23 to i64*, !llfi_index !287
  %25 = load i64, i64* %24, align 8, !llfi_index !288
  %26 = getelementptr inbounds i8, i8* bitcast (%"class.std::basic_ostream"* @_ZSt4cout to i8*), i64 %25, !llfi_index !289
  %27 = bitcast i8* %26 to %"class.std::basic_ios"*, !llfi_index !290
  %28 = call %"class.std::basic_ostream"* @_ZNSt9basic_iosIcSt11char_traitsIcEE3tieEPSo(%"class.std::basic_ios"* nonnull align 8 dereferenceable(264) %27, %"class.std::basic_ostream"* null), !llfi_index !291
  store i32 1, i32* %2, align 4, !llfi_index !292
  %29 = call nonnull align 8 dereferenceable(16) %"class.std::basic_istream"* @_ZNSirsERi(%"class.std::basic_istream"* nonnull align 8 dereferenceable(16) @_ZSt3cin, i32* nonnull align 4 dereferenceable(4) %2), !llfi_index !293
  store i32 89, i32* %5, align 4, !llfi_index !294
  br label %30, !llfi_index !295

30:                                               ; preds = %189, %0
  %31 = load i32, i32* %2, align 4, !llfi_index !296
  %32 = add nsw i32 %31, -1, !llfi_index !297
  store i32 %32, i32* %2, align 4, !llfi_index !298
  %33 = icmp ne i32 %31, 0, !llfi_index !299
  br i1 %33, label %34, label %190, !llfi_index !300

34:                                               ; preds = %30
  call void @_ZNSt6vectorIxSaIxEE5clearEv(%"class.std::vector"* nonnull align 8 dereferenceable(24) @vec) #2, !llfi_index !301
  %35 = call nonnull align 8 dereferenceable(16) %"class.std::basic_istream"* @_ZNSirsERx(%"class.std::basic_istream"* nonnull align 8 dereferenceable(16) @_ZSt3cin, i64* nonnull align 8 dereferenceable(8) %4), !llfi_index !302
  %36 = call nonnull align 8 dereferenceable(16) %"class.std::basic_istream"* @_ZNSirsERi(%"class.std::basic_istream"* nonnull align 8 dereferenceable(16) %35, i32* nonnull align 4 dereferenceable(4) %3), !llfi_index !303
  %37 = load i64, i64* %4, align 8, !llfi_index !304
  %38 = icmp eq i64 %37, 1, !llfi_index !305
  br i1 %38, label %39, label %42, !llfi_index !306

39:                                               ; preds = %34
  %40 = call nonnull align 8 dereferenceable(8) %"class.std::basic_ostream"* @_ZNSolsEi(%"class.std::basic_ostream"* nonnull align 8 dereferenceable(8) @_ZSt4cout, i32 0), !llfi_index !307
  %41 = call nonnull align 8 dereferenceable(8) %"class.std::basic_ostream"* @_ZStlsISt11char_traitsIcEERSt13basic_ostreamIcT_ES5_c(%"class.std::basic_ostream"* nonnull align 8 dereferenceable(8) %40, i8 signext 10), !llfi_index !308
  br label %189, !llfi_index !309

42:                                               ; preds = %34
  %43 = load i64, i64* %4, align 8, !llfi_index !310
  %44 = add nsw i64 %43, -1, !llfi_index !311
  store i64 %44, i64* %4, align 8, !llfi_index !312
  store i64 0, i64* %6, align 8, !llfi_index !313
  call void @_ZNSt6vectorIxSaIxEE9push_backERKx(%"class.std::vector"* nonnull align 8 dereferenceable(24) @vec, i64* nonnull align 8 dereferenceable(8) %6), !llfi_index !314
  store i32 89, i32* %5, align 4, !llfi_index !315
  store i32 0, i32* %7, align 4, !llfi_index !316
  br label %45, !llfi_index !317

45:                                               ; preds = %61, %42
  %46 = load i32, i32* %7, align 4, !llfi_index !318
  %47 = load i32, i32* %3, align 4, !llfi_index !319
  %48 = add nsw i32 %47, 1, !llfi_index !320
  %49 = icmp slt i32 %46, %48, !llfi_index !321
  br i1 %49, label %50, label %64, !llfi_index !322

50:                                               ; preds = %45
  %51 = load i32, i32* %7, align 4, !llfi_index !323
  %52 = add nsw i32 %51, 1, !llfi_index !324
  %53 = sext i32 %52 to i64, !llfi_index !325
  %54 = load i32, i32* %3, align 4, !llfi_index !326
  %55 = sext i32 %54 to i64, !llfi_index !327
  %56 = call i64 @_Z7fastexpxx(i64 %53, i64 %55), !llfi_index !328
  %57 = load i64, i64* %6, align 8, !llfi_index !329
  %58 = add nsw i64 %57, %56, !llfi_index !330
  store i64 %58, i64* %6, align 8, !llfi_index !331
  %59 = load i64, i64* %6, align 8, !llfi_index !332
  %60 = srem i64 %59, 1000000009, !llfi_index !333
  store i64 %60, i64* %6, align 8, !llfi_index !334
  call void @_ZNSt6vectorIxSaIxEE9push_backERKx(%"class.std::vector"* nonnull align 8 dereferenceable(24) @vec, i64* nonnull align 8 dereferenceable(8) %6), !llfi_index !335
  br label %61, !llfi_index !336

61:                                               ; preds = %50
  %62 = load i32, i32* %7, align 4, !llfi_index !337
  %63 = add nsw i32 %62, 1, !llfi_index !338
  store i32 %63, i32* %7, align 4, !llfi_index !339
  br label %45, !llvm.loop !340, !llfi_index !342

64:                                               ; preds = %45
  %65 = load i64, i64* %4, align 8, !llfi_index !343
  %66 = call i64 @_ZNKSt6vectorIxSaIxEE4sizeEv(%"class.std::vector"* nonnull align 8 dereferenceable(24) @vec) #2, !llfi_index !344
  %67 = icmp ult i64 %65, %66, !llfi_index !345
  br i1 %67, label %68, label %77, !llfi_index !346

68:                                               ; preds = %64
  %69 = load i64, i64* %4, align 8, !llfi_index !347
  %70 = call nonnull align 8 dereferenceable(8) i64* @_ZNSt6vectorIxSaIxEEixEm(%"class.std::vector"* nonnull align 8 dereferenceable(24) @vec, i64 %69) #2, !llfi_index !348
  %71 = load i64, i64* %70, align 8, !llfi_index !349
  %72 = sub nsw i64 %71, 1, !llfi_index !350
  %73 = add nsw i64 %72, 1000000009, !llfi_index !351
  %74 = srem i64 %73, 1000000009, !llfi_index !352
  %75 = call nonnull align 8 dereferenceable(8) %"class.std::basic_ostream"* @_ZNSolsEx(%"class.std::basic_ostream"* nonnull align 8 dereferenceable(8) @_ZSt4cout, i64 %74), !llfi_index !353
  %76 = call nonnull align 8 dereferenceable(8) %"class.std::basic_ostream"* @_ZStlsISt11char_traitsIcEERSt13basic_ostreamIcT_ES5_c(%"class.std::basic_ostream"* nonnull align 8 dereferenceable(8) %75, i8 signext 10), !llfi_index !354
  br label %188, !llfi_index !355

77:                                               ; preds = %64
  store i64 0, i64* %8, align 8, !llfi_index !356
  store i64 1, i64* %9, align 8, !llfi_index !357
  store i32 1, i32* %10, align 4, !llfi_index !358
  br label %78, !llfi_index !359

78:                                               ; preds = %106, %77
  %79 = load i32, i32* %10, align 4, !llfi_index !360
  %80 = sext i32 %79 to i64, !llfi_index !361
  %81 = call i64 @_ZNKSt6vectorIxSaIxEE4sizeEv(%"class.std::vector"* nonnull align 8 dereferenceable(24) @vec) #2, !llfi_index !362
  %82 = icmp ult i64 %80, %81, !llfi_index !363
  br i1 %82, label %83, label %109, !llfi_index !364

83:                                               ; preds = %78
  %84 = load i64, i64* %4, align 8, !llfi_index !365
  %85 = load i32, i32* %10, align 4, !llfi_index !366
  %86 = sext i32 %85 to i64, !llfi_index !367
  %87 = sub nsw i64 %84, %86, !llfi_index !368
  %88 = srem i64 %87, 1000000009, !llfi_index !369
  %89 = add nsw i64 %88, 1000000009, !llfi_index !370
  %90 = srem i64 %89, 1000000009, !llfi_index !371
  %91 = load i64, i64* %9, align 8, !llfi_index !372
  %92 = mul nsw i64 %91, %90, !llfi_index !373
  store i64 %92, i64* %9, align 8, !llfi_index !374
  %93 = load i64, i64* %9, align 8, !llfi_index !375
  %94 = srem i64 %93, 1000000009, !llfi_index !376
  store i64 %94, i64* %9, align 8, !llfi_index !377
  %95 = load i32, i32* %10, align 4, !llfi_index !378
  %96 = sub nsw i32 0, %95, !llfi_index !379
  %97 = srem i32 %96, 1000000009, !llfi_index !380
  %98 = add nsw i32 %97, 1000000009, !llfi_index !381
  %99 = srem i32 %98, 1000000009, !llfi_index !382
  %100 = sext i32 %99 to i64, !llfi_index !383
  %101 = call i64 @_Z3invx(i64 %100), !llfi_index !384
  %102 = load i64, i64* %9, align 8, !llfi_index !385
  %103 = mul nsw i64 %102, %101, !llfi_index !386
  store i64 %103, i64* %9, align 8, !llfi_index !387
  %104 = load i64, i64* %9, align 8, !llfi_index !388
  %105 = srem i64 %104, 1000000009, !llfi_index !389
  store i64 %105, i64* %9, align 8, !llfi_index !390
  br label %106, !llfi_index !391

106:                                              ; preds = %83
  %107 = load i32, i32* %10, align 4, !llfi_index !392
  %108 = add nsw i32 %107, 1, !llfi_index !393
  store i32 %108, i32* %10, align 4, !llfi_index !394
  br label %78, !llvm.loop !395, !llfi_index !396

109:                                              ; preds = %78
  store i32 0, i32* %11, align 4, !llfi_index !397
  br label %110, !llfi_index !398

110:                                              ; preds = %177, %109
  %111 = load i32, i32* %11, align 4, !llfi_index !399
  %112 = sext i32 %111 to i64, !llfi_index !400
  %113 = call i64 @_ZNKSt6vectorIxSaIxEE4sizeEv(%"class.std::vector"* nonnull align 8 dereferenceable(24) @vec) #2, !llfi_index !401
  %114 = icmp ult i64 %112, %113, !llfi_index !402
  br i1 %114, label %115, label %180, !llfi_index !403

115:                                              ; preds = %110
  %116 = load i32, i32* %11, align 4, !llfi_index !404
  %117 = sext i32 %116 to i64, !llfi_index !405
  %118 = call nonnull align 8 dereferenceable(8) i64* @_ZNSt6vectorIxSaIxEEixEm(%"class.std::vector"* nonnull align 8 dereferenceable(24) @vec, i64 %117) #2, !llfi_index !406
  %119 = load i64, i64* %118, align 8, !llfi_index !407
  %120 = load i64, i64* %9, align 8, !llfi_index !408
  %121 = mul nsw i64 %119, %120, !llfi_index !409
  %122 = srem i64 %121, 1000000009, !llfi_index !410
  %123 = load i64, i64* %8, align 8, !llfi_index !411
  %124 = add nsw i64 %123, %122, !llfi_index !412
  store i64 %124, i64* %8, align 8, !llfi_index !413
  %125 = load i64, i64* %8, align 8, !llfi_index !414
  %126 = srem i64 %125, 1000000009, !llfi_index !415
  store i64 %126, i64* %8, align 8, !llfi_index !416
  %127 = load i32, i32* %11, align 4, !llfi_index !417
  %128 = add nsw i32 %127, 1, !llfi_index !418
  %129 = sext i32 %128 to i64, !llfi_index !419
  %130 = call i64 @_ZNKSt6vectorIxSaIxEE4sizeEv(%"class.std::vector"* nonnull align 8 dereferenceable(24) @vec) #2, !llfi_index !420
  %131 = icmp uge i64 %129, %130, !llfi_index !421
  br i1 %131, label %132, label %133, !llfi_index !422

132:                                              ; preds = %115
  br label %180, !llfi_index !423

133:                                              ; preds = %115
  %134 = load i64, i64* %4, align 8, !llfi_index !424
  %135 = load i32, i32* %11, align 4, !llfi_index !425
  %136 = sext i32 %135 to i64, !llfi_index !426
  %137 = sub nsw i64 %134, %136, !llfi_index !427
  %138 = srem i64 %137, 1000000009, !llfi_index !428
  %139 = add nsw i64 %138, 1000000009, !llfi_index !429
  %140 = srem i64 %139, 1000000009, !llfi_index !430
  %141 = load i64, i64* %4, align 8, !llfi_index !431
  %142 = load i32, i32* %11, align 4, !llfi_index !432
  %143 = add nsw i32 %142, 1, !llfi_index !433
  %144 = srem i32 %143, 1000000009, !llfi_index !434
  %145 = sext i32 %144 to i64, !llfi_index !435
  %146 = sub nsw i64 %141, %145, !llfi_index !436
  %147 = add nsw i64 %146, 1000000009, !llfi_index !437
  %148 = srem i64 %147, 1000000009, !llfi_index !438
  %149 = call i64 @_Z3invx(i64 %148), !llfi_index !439
  %150 = mul nsw i64 %140, %149, !llfi_index !440
  %151 = srem i64 %150, 1000000009, !llfi_index !441
  %152 = load i64, i64* %9, align 8, !llfi_index !442
  %153 = mul nsw i64 %152, %151, !llfi_index !443
  store i64 %153, i64* %9, align 8, !llfi_index !444
  %154 = load i64, i64* %9, align 8, !llfi_index !445
  %155 = srem i64 %154, 1000000009, !llfi_index !446
  store i64 %155, i64* %9, align 8, !llfi_index !447
  %156 = load i32, i32* %11, align 4, !llfi_index !448
  %157 = call i64 @_ZNKSt6vectorIxSaIxEE4sizeEv(%"class.std::vector"* nonnull align 8 dereferenceable(24) @vec) #2, !llfi_index !449
  %158 = trunc i64 %157 to i32, !llfi_index !450
  %159 = sub nsw i32 %158, 1, !llfi_index !451
  %160 = sub nsw i32 %156, %159, !llfi_index !452
  %161 = srem i32 %160, 1000000009, !llfi_index !453
  %162 = add nsw i32 %161, 1000000009, !llfi_index !454
  %163 = srem i32 %162, 1000000009, !llfi_index !455
  %164 = sext i32 %163 to i64, !llfi_index !456
  %165 = load i32, i32* %11, align 4, !llfi_index !457
  %166 = add nsw i32 %165, 1, !llfi_index !458
  %167 = srem i32 %166, 1000000009, !llfi_index !459
  %168 = sext i32 %167 to i64, !llfi_index !460
  %169 = call i64 @_Z3invx(i64 %168), !llfi_index !461
  %170 = mul nsw i64 %164, %169, !llfi_index !462
  %171 = srem i64 %170, 1000000009, !llfi_index !463
  %172 = load i64, i64* %9, align 8, !llfi_index !464
  %173 = mul nsw i64 %172, %171, !llfi_index !465
  store i64 %173, i64* %9, align 8, !llfi_index !466
  %174 = load i64, i64* %9, align 8, !llfi_index !467
  %175 = srem i64 %174, 1000000009, !llfi_index !468
  store i64 %175, i64* %9, align 8, !llfi_index !469
  br label %176, !llfi_index !470

176:                                              ; preds = %133
  br label %177, !llfi_index !471

177:                                              ; preds = %176
  %178 = load i32, i32* %11, align 4, !llfi_index !472
  %179 = add nsw i32 %178, 1, !llfi_index !473
  store i32 %179, i32* %11, align 4, !llfi_index !474
  br label %110, !llvm.loop !475, !llfi_index !476

180:                                              ; preds = %132, %110
  %181 = load i64, i64* %8, align 8, !llfi_index !477
  %182 = sub nsw i64 %181, 1, !llfi_index !478
  %183 = srem i64 %182, 1000000009, !llfi_index !479
  %184 = add nsw i64 %183, 1000000009, !llfi_index !480
  %185 = srem i64 %184, 1000000009, !llfi_index !481
  %186 = call nonnull align 8 dereferenceable(8) %"class.std::basic_ostream"* @_ZNSolsEx(%"class.std::basic_ostream"* nonnull align 8 dereferenceable(8) @_ZSt4cout, i64 %185), !llfi_index !482
  %187 = call nonnull align 8 dereferenceable(8) %"class.std::basic_ostream"* @_ZStlsISt11char_traitsIcEERSt13basic_ostreamIcT_ES5_c(%"class.std::basic_ostream"* nonnull align 8 dereferenceable(8) %186, i8 signext 10), !llfi_index !483
  br label %188, !llfi_index !484

188:                                              ; preds = %180, %68
  br label %189, !llfi_index !485

189:                                              ; preds = %188, %39
  br label %30, !llvm.loop !486, !llfi_index !487

190:                                              ; preds = %30
  %191 = load i32, i32* %1, align 4, !llfi_index !488
  ret i32 %191, !llfi_index !489
}

declare dso_local %struct._IO_FILE* @freopen(i8*, i8*, %struct._IO_FILE*) #7

declare dso_local zeroext i1 @_ZNSt8ios_base15sync_with_stdioEb(i1 zeroext) #7

declare dso_local %"class.std::basic_ostream"* @_ZNSt9basic_iosIcSt11char_traitsIcEE3tieEPSo(%"class.std::basic_ios"* nonnull align 8 dereferenceable(264), %"class.std::basic_ostream"*) #7

declare dso_local nonnull align 8 dereferenceable(16) %"class.std::basic_istream"* @_ZNSirsERi(%"class.std::basic_istream"* nonnull align 8 dereferenceable(16), i32* nonnull align 4 dereferenceable(4)) #7

; Function Attrs: mustprogress noinline nounwind uwtable
define linkonce_odr dso_local void @_ZNSt6vectorIxSaIxEE5clearEv(%"class.std::vector"* nonnull align 8 dereferenceable(24) %0) #3 comdat align 2 {
  %2 = alloca %"class.std::vector"*, align 8, !llfi_index !490
  store %"class.std::vector"* %0, %"class.std::vector"** %2, align 8, !llfi_index !491
  %3 = load %"class.std::vector"*, %"class.std::vector"** %2, align 8, !llfi_index !492
  %4 = bitcast %"class.std::vector"* %3 to %"struct.std::_Vector_base"*, !llfi_index !493
  %5 = getelementptr inbounds %"struct.std::_Vector_base", %"struct.std::_Vector_base"* %4, i32 0, i32 0, !llfi_index !494
  %6 = bitcast %"struct.std::_Vector_base<long long, std::allocator<long long>>::_Vector_impl"* %5 to %"struct.std::_Vector_base<long long, std::allocator<long long>>::_Vector_impl_data"*, !llfi_index !495
  %7 = getelementptr inbounds %"struct.std::_Vector_base<long long, std::allocator<long long>>::_Vector_impl_data", %"struct.std::_Vector_base<long long, std::allocator<long long>>::_Vector_impl_data"* %6, i32 0, i32 0, !llfi_index !496
  %8 = load i64*, i64** %7, align 8, !llfi_index !497
  call void @_ZNSt6vectorIxSaIxEE15_M_erase_at_endEPx(%"class.std::vector"* nonnull align 8 dereferenceable(24) %3, i64* %8) #2, !llfi_index !498
  ret void, !llfi_index !499
}

declare dso_local nonnull align 8 dereferenceable(16) %"class.std::basic_istream"* @_ZNSirsERx(%"class.std::basic_istream"* nonnull align 8 dereferenceable(16), i64* nonnull align 8 dereferenceable(8)) #7

declare dso_local nonnull align 8 dereferenceable(8) %"class.std::basic_ostream"* @_ZNSolsEi(%"class.std::basic_ostream"* nonnull align 8 dereferenceable(8), i32) #7

declare dso_local nonnull align 8 dereferenceable(8) %"class.std::basic_ostream"* @_ZStlsISt11char_traitsIcEERSt13basic_ostreamIcT_ES5_c(%"class.std::basic_ostream"* nonnull align 8 dereferenceable(8), i8 signext) #7

; Function Attrs: mustprogress noinline uwtable
define linkonce_odr dso_local void @_ZNSt6vectorIxSaIxEE9push_backERKx(%"class.std::vector"* nonnull align 8 dereferenceable(24) %0, i64* nonnull align 8 dereferenceable(8) %1) #4 comdat align 2 {
  %3 = alloca %"class.std::vector"*, align 8, !llfi_index !500
  %4 = alloca i64*, align 8, !llfi_index !501
  %5 = alloca %"class.__gnu_cxx::__normal_iterator", align 8, !llfi_index !502
  store %"class.std::vector"* %0, %"class.std::vector"** %3, align 8, !llfi_index !503
  store i64* %1, i64** %4, align 8, !llfi_index !504
  %6 = load %"class.std::vector"*, %"class.std::vector"** %3, align 8, !llfi_index !505
  %7 = bitcast %"class.std::vector"* %6 to %"struct.std::_Vector_base"*, !llfi_index !506
  %8 = getelementptr inbounds %"struct.std::_Vector_base", %"struct.std::_Vector_base"* %7, i32 0, i32 0, !llfi_index !507
  %9 = bitcast %"struct.std::_Vector_base<long long, std::allocator<long long>>::_Vector_impl"* %8 to %"struct.std::_Vector_base<long long, std::allocator<long long>>::_Vector_impl_data"*, !llfi_index !508
  %10 = getelementptr inbounds %"struct.std::_Vector_base<long long, std::allocator<long long>>::_Vector_impl_data", %"struct.std::_Vector_base<long long, std::allocator<long long>>::_Vector_impl_data"* %9, i32 0, i32 1, !llfi_index !509
  %11 = load i64*, i64** %10, align 8, !llfi_index !510
  %12 = bitcast %"class.std::vector"* %6 to %"struct.std::_Vector_base"*, !llfi_index !511
  %13 = getelementptr inbounds %"struct.std::_Vector_base", %"struct.std::_Vector_base"* %12, i32 0, i32 0, !llfi_index !512
  %14 = bitcast %"struct.std::_Vector_base<long long, std::allocator<long long>>::_Vector_impl"* %13 to %"struct.std::_Vector_base<long long, std::allocator<long long>>::_Vector_impl_data"*, !llfi_index !513
  %15 = getelementptr inbounds %"struct.std::_Vector_base<long long, std::allocator<long long>>::_Vector_impl_data", %"struct.std::_Vector_base<long long, std::allocator<long long>>::_Vector_impl_data"* %14, i32 0, i32 2, !llfi_index !514
  %16 = load i64*, i64** %15, align 8, !llfi_index !515
  %17 = icmp ne i64* %11, %16, !llfi_index !516
  br i1 %17, label %18, label %34, !llfi_index !517

18:                                               ; preds = %2
  %19 = bitcast %"class.std::vector"* %6 to %"struct.std::_Vector_base"*, !llfi_index !518
  %20 = getelementptr inbounds %"struct.std::_Vector_base", %"struct.std::_Vector_base"* %19, i32 0, i32 0, !llfi_index !519
  %21 = bitcast %"struct.std::_Vector_base<long long, std::allocator<long long>>::_Vector_impl"* %20 to %"class.std::allocator"*, !llfi_index !520
  %22 = bitcast %"class.std::vector"* %6 to %"struct.std::_Vector_base"*, !llfi_index !521
  %23 = getelementptr inbounds %"struct.std::_Vector_base", %"struct.std::_Vector_base"* %22, i32 0, i32 0, !llfi_index !522
  %24 = bitcast %"struct.std::_Vector_base<long long, std::allocator<long long>>::_Vector_impl"* %23 to %"struct.std::_Vector_base<long long, std::allocator<long long>>::_Vector_impl_data"*, !llfi_index !523
  %25 = getelementptr inbounds %"struct.std::_Vector_base<long long, std::allocator<long long>>::_Vector_impl_data", %"struct.std::_Vector_base<long long, std::allocator<long long>>::_Vector_impl_data"* %24, i32 0, i32 1, !llfi_index !524
  %26 = load i64*, i64** %25, align 8, !llfi_index !525
  %27 = load i64*, i64** %4, align 8, !llfi_index !526
  call void @_ZNSt16allocator_traitsISaIxEE9constructIxJRKxEEEvRS0_PT_DpOT0_(%"class.std::allocator"* nonnull align 1 dereferenceable(1) %21, i64* %26, i64* nonnull align 8 dereferenceable(8) %27) #2, !llfi_index !527
  %28 = bitcast %"class.std::vector"* %6 to %"struct.std::_Vector_base"*, !llfi_index !528
  %29 = getelementptr inbounds %"struct.std::_Vector_base", %"struct.std::_Vector_base"* %28, i32 0, i32 0, !llfi_index !529
  %30 = bitcast %"struct.std::_Vector_base<long long, std::allocator<long long>>::_Vector_impl"* %29 to %"struct.std::_Vector_base<long long, std::allocator<long long>>::_Vector_impl_data"*, !llfi_index !530
  %31 = getelementptr inbounds %"struct.std::_Vector_base<long long, std::allocator<long long>>::_Vector_impl_data", %"struct.std::_Vector_base<long long, std::allocator<long long>>::_Vector_impl_data"* %30, i32 0, i32 1, !llfi_index !531
  %32 = load i64*, i64** %31, align 8, !llfi_index !532
  %33 = getelementptr inbounds i64, i64* %32, i32 1, !llfi_index !533
  store i64* %33, i64** %31, align 8, !llfi_index !534
  br label %40, !llfi_index !535

34:                                               ; preds = %2
  %35 = call i64* @_ZNSt6vectorIxSaIxEE3endEv(%"class.std::vector"* nonnull align 8 dereferenceable(24) %6) #2, !llfi_index !536
  %36 = getelementptr inbounds %"class.__gnu_cxx::__normal_iterator", %"class.__gnu_cxx::__normal_iterator"* %5, i32 0, i32 0, !llfi_index !537
  store i64* %35, i64** %36, align 8, !llfi_index !538
  %37 = load i64*, i64** %4, align 8, !llfi_index !539
  %38 = getelementptr inbounds %"class.__gnu_cxx::__normal_iterator", %"class.__gnu_cxx::__normal_iterator"* %5, i32 0, i32 0, !llfi_index !540
  %39 = load i64*, i64** %38, align 8, !llfi_index !541
  call void @_ZNSt6vectorIxSaIxEE17_M_realloc_insertIJRKxEEEvN9__gnu_cxx17__normal_iteratorIPxS1_EEDpOT_(%"class.std::vector"* nonnull align 8 dereferenceable(24) %6, i64* %39, i64* nonnull align 8 dereferenceable(8) %37), !llfi_index !542
  br label %40, !llfi_index !543

40:                                               ; preds = %34, %18
  ret void, !llfi_index !544
}

; Function Attrs: mustprogress noinline nounwind uwtable
define linkonce_odr dso_local i64 @_ZNKSt6vectorIxSaIxEE4sizeEv(%"class.std::vector"* nonnull align 8 dereferenceable(24) %0) #3 comdat align 2 {
  %2 = alloca %"class.std::vector"*, align 8, !llfi_index !545
  store %"class.std::vector"* %0, %"class.std::vector"** %2, align 8, !llfi_index !546
  %3 = load %"class.std::vector"*, %"class.std::vector"** %2, align 8, !llfi_index !547
  %4 = bitcast %"class.std::vector"* %3 to %"struct.std::_Vector_base"*, !llfi_index !548
  %5 = getelementptr inbounds %"struct.std::_Vector_base", %"struct.std::_Vector_base"* %4, i32 0, i32 0, !llfi_index !549
  %6 = bitcast %"struct.std::_Vector_base<long long, std::allocator<long long>>::_Vector_impl"* %5 to %"struct.std::_Vector_base<long long, std::allocator<long long>>::_Vector_impl_data"*, !llfi_index !550
  %7 = getelementptr inbounds %"struct.std::_Vector_base<long long, std::allocator<long long>>::_Vector_impl_data", %"struct.std::_Vector_base<long long, std::allocator<long long>>::_Vector_impl_data"* %6, i32 0, i32 1, !llfi_index !551
  %8 = load i64*, i64** %7, align 8, !llfi_index !552
  %9 = bitcast %"class.std::vector"* %3 to %"struct.std::_Vector_base"*, !llfi_index !553
  %10 = getelementptr inbounds %"struct.std::_Vector_base", %"struct.std::_Vector_base"* %9, i32 0, i32 0, !llfi_index !554
  %11 = bitcast %"struct.std::_Vector_base<long long, std::allocator<long long>>::_Vector_impl"* %10 to %"struct.std::_Vector_base<long long, std::allocator<long long>>::_Vector_impl_data"*, !llfi_index !555
  %12 = getelementptr inbounds %"struct.std::_Vector_base<long long, std::allocator<long long>>::_Vector_impl_data", %"struct.std::_Vector_base<long long, std::allocator<long long>>::_Vector_impl_data"* %11, i32 0, i32 0, !llfi_index !556
  %13 = load i64*, i64** %12, align 8, !llfi_index !557
  %14 = ptrtoint i64* %8 to i64, !llfi_index !558
  %15 = ptrtoint i64* %13 to i64, !llfi_index !559
  %16 = sub i64 %14, %15, !llfi_index !560
  %17 = sdiv exact i64 %16, 8, !llfi_index !561
  ret i64 %17, !llfi_index !562
}

; Function Attrs: mustprogress noinline nounwind uwtable
define linkonce_odr dso_local nonnull align 8 dereferenceable(8) i64* @_ZNSt6vectorIxSaIxEEixEm(%"class.std::vector"* nonnull align 8 dereferenceable(24) %0, i64 %1) #3 comdat align 2 {
  %3 = alloca %"class.std::vector"*, align 8, !llfi_index !563
  %4 = alloca i64, align 8, !llfi_index !564
  store %"class.std::vector"* %0, %"class.std::vector"** %3, align 8, !llfi_index !565
  store i64 %1, i64* %4, align 8, !llfi_index !566
  %5 = load %"class.std::vector"*, %"class.std::vector"** %3, align 8, !llfi_index !567
  %6 = bitcast %"class.std::vector"* %5 to %"struct.std::_Vector_base"*, !llfi_index !568
  %7 = getelementptr inbounds %"struct.std::_Vector_base", %"struct.std::_Vector_base"* %6, i32 0, i32 0, !llfi_index !569
  %8 = bitcast %"struct.std::_Vector_base<long long, std::allocator<long long>>::_Vector_impl"* %7 to %"struct.std::_Vector_base<long long, std::allocator<long long>>::_Vector_impl_data"*, !llfi_index !570
  %9 = getelementptr inbounds %"struct.std::_Vector_base<long long, std::allocator<long long>>::_Vector_impl_data", %"struct.std::_Vector_base<long long, std::allocator<long long>>::_Vector_impl_data"* %8, i32 0, i32 0, !llfi_index !571
  %10 = load i64*, i64** %9, align 8, !llfi_index !572
  %11 = load i64, i64* %4, align 8, !llfi_index !573
  %12 = getelementptr inbounds i64, i64* %10, i64 %11, !llfi_index !574
  ret i64* %12, !llfi_index !575
}

declare dso_local nonnull align 8 dereferenceable(8) %"class.std::basic_ostream"* @_ZNSolsEx(%"class.std::basic_ostream"* nonnull align 8 dereferenceable(8), i64) #7

; Function Attrs: mustprogress noinline nounwind uwtable
define linkonce_odr dso_local void @_ZNSt16allocator_traitsISaIxEE9constructIxJRKxEEEvRS0_PT_DpOT0_(%"class.std::allocator"* nonnull align 1 dereferenceable(1) %0, i64* %1, i64* nonnull align 8 dereferenceable(8) %2) #3 comdat align 2 {
  %4 = alloca %"class.std::allocator"*, align 8, !llfi_index !576
  %5 = alloca i64*, align 8, !llfi_index !577
  %6 = alloca i64*, align 8, !llfi_index !578
  store %"class.std::allocator"* %0, %"class.std::allocator"** %4, align 8, !llfi_index !579
  store i64* %1, i64** %5, align 8, !llfi_index !580
  store i64* %2, i64** %6, align 8, !llfi_index !581
  %7 = load %"class.std::allocator"*, %"class.std::allocator"** %4, align 8, !llfi_index !582
  %8 = bitcast %"class.std::allocator"* %7 to %"class.std::allocator"*, !llfi_index !583
  %9 = load i64*, i64** %5, align 8, !llfi_index !584
  %10 = load i64*, i64** %6, align 8, !llfi_index !585
  %11 = call nonnull align 8 dereferenceable(8) i64* @_ZSt7forwardIRKxEOT_RNSt16remove_referenceIS2_E4typeE(i64* nonnull align 8 dereferenceable(8) %10) #2, !llfi_index !586
  call void @_ZN9__gnu_cxx13new_allocatorIxE9constructIxJRKxEEEvPT_DpOT0_(%"class.std::allocator"* nonnull align 1 dereferenceable(1) %8, i64* %9, i64* nonnull align 8 dereferenceable(8) %11) #2, !llfi_index !587
  ret void, !llfi_index !588
}

; Function Attrs: mustprogress noinline nounwind uwtable
define linkonce_odr dso_local i64* @_ZNSt6vectorIxSaIxEE3endEv(%"class.std::vector"* nonnull align 8 dereferenceable(24) %0) #3 comdat align 2 {
  %2 = alloca %"class.__gnu_cxx::__normal_iterator", align 8, !llfi_index !589
  %3 = alloca %"class.std::vector"*, align 8, !llfi_index !590
  store %"class.std::vector"* %0, %"class.std::vector"** %3, align 8, !llfi_index !591
  %4 = load %"class.std::vector"*, %"class.std::vector"** %3, align 8, !llfi_index !592
  %5 = bitcast %"class.std::vector"* %4 to %"struct.std::_Vector_base"*, !llfi_index !593
  %6 = getelementptr inbounds %"struct.std::_Vector_base", %"struct.std::_Vector_base"* %5, i32 0, i32 0, !llfi_index !594
  %7 = bitcast %"struct.std::_Vector_base<long long, std::allocator<long long>>::_Vector_impl"* %6 to %"struct.std::_Vector_base<long long, std::allocator<long long>>::_Vector_impl_data"*, !llfi_index !595
  %8 = getelementptr inbounds %"struct.std::_Vector_base<long long, std::allocator<long long>>::_Vector_impl_data", %"struct.std::_Vector_base<long long, std::allocator<long long>>::_Vector_impl_data"* %7, i32 0, i32 1, !llfi_index !596
  call void @_ZN9__gnu_cxx17__normal_iteratorIPxSt6vectorIxSaIxEEEC2ERKS1_(%"class.__gnu_cxx::__normal_iterator"* nonnull align 8 dereferenceable(8) %2, i64** nonnull align 8 dereferenceable(8) %8) #2, !llfi_index !597
  %9 = getelementptr inbounds %"class.__gnu_cxx::__normal_iterator", %"class.__gnu_cxx::__normal_iterator"* %2, i32 0, i32 0, !llfi_index !598
  %10 = load i64*, i64** %9, align 8, !llfi_index !599
  ret i64* %10, !llfi_index !600
}

; Function Attrs: mustprogress noinline uwtable
define linkonce_odr dso_local void @_ZNSt6vectorIxSaIxEE17_M_realloc_insertIJRKxEEEvN9__gnu_cxx17__normal_iteratorIPxS1_EEDpOT_(%"class.std::vector"* nonnull align 8 dereferenceable(24) %0, i64* %1, i64* nonnull align 8 dereferenceable(8) %2) #4 comdat align 2 {
  %4 = alloca %"class.__gnu_cxx::__normal_iterator", align 8, !llfi_index !601
  %5 = alloca %"class.std::vector"*, align 8, !llfi_index !602
  %6 = alloca i64*, align 8, !llfi_index !603
  %7 = alloca i64, align 8, !llfi_index !604
  %8 = alloca i64*, align 8, !llfi_index !605
  %9 = alloca i64*, align 8, !llfi_index !606
  %10 = alloca i64, align 8, !llfi_index !607
  %11 = alloca %"class.__gnu_cxx::__normal_iterator", align 8, !llfi_index !608
  %12 = alloca i64*, align 8, !llfi_index !609
  %13 = alloca i64*, align 8, !llfi_index !610
  %14 = getelementptr inbounds %"class.__gnu_cxx::__normal_iterator", %"class.__gnu_cxx::__normal_iterator"* %4, i32 0, i32 0, !llfi_index !611
  store i64* %1, i64** %14, align 8, !llfi_index !612
  store %"class.std::vector"* %0, %"class.std::vector"** %5, align 8, !llfi_index !613
  store i64* %2, i64** %6, align 8, !llfi_index !614
  %15 = load %"class.std::vector"*, %"class.std::vector"** %5, align 8, !llfi_index !615
  %16 = call i64 @_ZNKSt6vectorIxSaIxEE12_M_check_lenEmPKc(%"class.std::vector"* nonnull align 8 dereferenceable(24) %15, i64 1, i8* getelementptr inbounds ([26 x i8], [26 x i8]* @.str.3, i64 0, i64 0)), !llfi_index !616
  store i64 %16, i64* %7, align 8, !llfi_index !617
  %17 = bitcast %"class.std::vector"* %15 to %"struct.std::_Vector_base"*, !llfi_index !618
  %18 = getelementptr inbounds %"struct.std::_Vector_base", %"struct.std::_Vector_base"* %17, i32 0, i32 0, !llfi_index !619
  %19 = bitcast %"struct.std::_Vector_base<long long, std::allocator<long long>>::_Vector_impl"* %18 to %"struct.std::_Vector_base<long long, std::allocator<long long>>::_Vector_impl_data"*, !llfi_index !620
  %20 = getelementptr inbounds %"struct.std::_Vector_base<long long, std::allocator<long long>>::_Vector_impl_data", %"struct.std::_Vector_base<long long, std::allocator<long long>>::_Vector_impl_data"* %19, i32 0, i32 0, !llfi_index !621
  %21 = load i64*, i64** %20, align 8, !llfi_index !622
  store i64* %21, i64** %8, align 8, !llfi_index !623
  %22 = bitcast %"class.std::vector"* %15 to %"struct.std::_Vector_base"*, !llfi_index !624
  %23 = getelementptr inbounds %"struct.std::_Vector_base", %"struct.std::_Vector_base"* %22, i32 0, i32 0, !llfi_index !625
  %24 = bitcast %"struct.std::_Vector_base<long long, std::allocator<long long>>::_Vector_impl"* %23 to %"struct.std::_Vector_base<long long, std::allocator<long long>>::_Vector_impl_data"*, !llfi_index !626
  %25 = getelementptr inbounds %"struct.std::_Vector_base<long long, std::allocator<long long>>::_Vector_impl_data", %"struct.std::_Vector_base<long long, std::allocator<long long>>::_Vector_impl_data"* %24, i32 0, i32 1, !llfi_index !627
  %26 = load i64*, i64** %25, align 8, !llfi_index !628
  store i64* %26, i64** %9, align 8, !llfi_index !629
  %27 = call i64* @_ZNSt6vectorIxSaIxEE5beginEv(%"class.std::vector"* nonnull align 8 dereferenceable(24) %15) #2, !llfi_index !630
  %28 = getelementptr inbounds %"class.__gnu_cxx::__normal_iterator", %"class.__gnu_cxx::__normal_iterator"* %11, i32 0, i32 0, !llfi_index !631
  store i64* %27, i64** %28, align 8, !llfi_index !632
  %29 = call i64 @_ZN9__gnu_cxxmiIPxSt6vectorIxSaIxEEEENS_17__normal_iteratorIT_T0_E15difference_typeERKS8_SB_(%"class.__gnu_cxx::__normal_iterator"* nonnull align 8 dereferenceable(8) %4, %"class.__gnu_cxx::__normal_iterator"* nonnull align 8 dereferenceable(8) %11) #2, !llfi_index !633
  store i64 %29, i64* %10, align 8, !llfi_index !634
  %30 = bitcast %"class.std::vector"* %15 to %"struct.std::_Vector_base"*, !llfi_index !635
  %31 = load i64, i64* %7, align 8, !llfi_index !636
  %32 = call i64* @_ZNSt12_Vector_baseIxSaIxEE11_M_allocateEm(%"struct.std::_Vector_base"* nonnull align 8 dereferenceable(24) %30, i64 %31), !llfi_index !637
  store i64* %32, i64** %12, align 8, !llfi_index !638
  %33 = load i64*, i64** %12, align 8, !llfi_index !639
  store i64* %33, i64** %13, align 8, !llfi_index !640
  %34 = bitcast %"class.std::vector"* %15 to %"struct.std::_Vector_base"*, !llfi_index !641
  %35 = getelementptr inbounds %"struct.std::_Vector_base", %"struct.std::_Vector_base"* %34, i32 0, i32 0, !llfi_index !642
  %36 = bitcast %"struct.std::_Vector_base<long long, std::allocator<long long>>::_Vector_impl"* %35 to %"class.std::allocator"*, !llfi_index !643
  %37 = load i64*, i64** %12, align 8, !llfi_index !644
  %38 = load i64, i64* %10, align 8, !llfi_index !645
  %39 = getelementptr inbounds i64, i64* %37, i64 %38, !llfi_index !646
  %40 = load i64*, i64** %6, align 8, !llfi_index !647
  %41 = call nonnull align 8 dereferenceable(8) i64* @_ZSt7forwardIRKxEOT_RNSt16remove_referenceIS2_E4typeE(i64* nonnull align 8 dereferenceable(8) %40) #2, !llfi_index !648
  call void @_ZNSt16allocator_traitsISaIxEE9constructIxJRKxEEEvRS0_PT_DpOT0_(%"class.std::allocator"* nonnull align 1 dereferenceable(1) %36, i64* %39, i64* nonnull align 8 dereferenceable(8) %41) #2, !llfi_index !649
  store i64* null, i64** %13, align 8, !llfi_index !650
  %42 = load i64*, i64** %8, align 8, !llfi_index !651
  %43 = call nonnull align 8 dereferenceable(8) i64** @_ZNK9__gnu_cxx17__normal_iteratorIPxSt6vectorIxSaIxEEE4baseEv(%"class.__gnu_cxx::__normal_iterator"* nonnull align 8 dereferenceable(8) %4) #2, !llfi_index !652
  %44 = load i64*, i64** %43, align 8, !llfi_index !653
  %45 = load i64*, i64** %12, align 8, !llfi_index !654
  %46 = bitcast %"class.std::vector"* %15 to %"struct.std::_Vector_base"*, !llfi_index !655
  %47 = call nonnull align 1 dereferenceable(1) %"class.std::allocator"* @_ZNSt12_Vector_baseIxSaIxEE19_M_get_Tp_allocatorEv(%"struct.std::_Vector_base"* nonnull align 8 dereferenceable(24) %46) #2, !llfi_index !656
  %48 = call i64* @_ZNSt6vectorIxSaIxEE11_S_relocateEPxS2_S2_RS0_(i64* %42, i64* %44, i64* %45, %"class.std::allocator"* nonnull align 1 dereferenceable(1) %47) #2, !llfi_index !657
  store i64* %48, i64** %13, align 8, !llfi_index !658
  %49 = load i64*, i64** %13, align 8, !llfi_index !659
  %50 = getelementptr inbounds i64, i64* %49, i32 1, !llfi_index !660
  store i64* %50, i64** %13, align 8, !llfi_index !661
  %51 = call nonnull align 8 dereferenceable(8) i64** @_ZNK9__gnu_cxx17__normal_iteratorIPxSt6vectorIxSaIxEEE4baseEv(%"class.__gnu_cxx::__normal_iterator"* nonnull align 8 dereferenceable(8) %4) #2, !llfi_index !662
  %52 = load i64*, i64** %51, align 8, !llfi_index !663
  %53 = load i64*, i64** %9, align 8, !llfi_index !664
  %54 = load i64*, i64** %13, align 8, !llfi_index !665
  %55 = bitcast %"class.std::vector"* %15 to %"struct.std::_Vector_base"*, !llfi_index !666
  %56 = call nonnull align 1 dereferenceable(1) %"class.std::allocator"* @_ZNSt12_Vector_baseIxSaIxEE19_M_get_Tp_allocatorEv(%"struct.std::_Vector_base"* nonnull align 8 dereferenceable(24) %55) #2, !llfi_index !667
  %57 = call i64* @_ZNSt6vectorIxSaIxEE11_S_relocateEPxS2_S2_RS0_(i64* %52, i64* %53, i64* %54, %"class.std::allocator"* nonnull align 1 dereferenceable(1) %56) #2, !llfi_index !668
  store i64* %57, i64** %13, align 8, !llfi_index !669
  %58 = bitcast %"class.std::vector"* %15 to %"struct.std::_Vector_base"*, !llfi_index !670
  %59 = load i64*, i64** %8, align 8, !llfi_index !671
  %60 = bitcast %"class.std::vector"* %15 to %"struct.std::_Vector_base"*, !llfi_index !672
  %61 = getelementptr inbounds %"struct.std::_Vector_base", %"struct.std::_Vector_base"* %60, i32 0, i32 0, !llfi_index !673
  %62 = bitcast %"struct.std::_Vector_base<long long, std::allocator<long long>>::_Vector_impl"* %61 to %"struct.std::_Vector_base<long long, std::allocator<long long>>::_Vector_impl_data"*, !llfi_index !674
  %63 = getelementptr inbounds %"struct.std::_Vector_base<long long, std::allocator<long long>>::_Vector_impl_data", %"struct.std::_Vector_base<long long, std::allocator<long long>>::_Vector_impl_data"* %62, i32 0, i32 2, !llfi_index !675
  %64 = load i64*, i64** %63, align 8, !llfi_index !676
  %65 = load i64*, i64** %8, align 8, !llfi_index !677
  %66 = ptrtoint i64* %64 to i64, !llfi_index !678
  %67 = ptrtoint i64* %65 to i64, !llfi_index !679
  %68 = sub i64 %66, %67, !llfi_index !680
  %69 = sdiv exact i64 %68, 8, !llfi_index !681
  call void @_ZNSt12_Vector_baseIxSaIxEE13_M_deallocateEPxm(%"struct.std::_Vector_base"* nonnull align 8 dereferenceable(24) %58, i64* %59, i64 %69), !llfi_index !682
  %70 = load i64*, i64** %12, align 8, !llfi_index !683
  %71 = bitcast %"class.std::vector"* %15 to %"struct.std::_Vector_base"*, !llfi_index !684
  %72 = getelementptr inbounds %"struct.std::_Vector_base", %"struct.std::_Vector_base"* %71, i32 0, i32 0, !llfi_index !685
  %73 = bitcast %"struct.std::_Vector_base<long long, std::allocator<long long>>::_Vector_impl"* %72 to %"struct.std::_Vector_base<long long, std::allocator<long long>>::_Vector_impl_data"*, !llfi_index !686
  %74 = getelementptr inbounds %"struct.std::_Vector_base<long long, std::allocator<long long>>::_Vector_impl_data", %"struct.std::_Vector_base<long long, std::allocator<long long>>::_Vector_impl_data"* %73, i32 0, i32 0, !llfi_index !687
  store i64* %70, i64** %74, align 8, !llfi_index !688
  %75 = load i64*, i64** %13, align 8, !llfi_index !689
  %76 = bitcast %"class.std::vector"* %15 to %"struct.std::_Vector_base"*, !llfi_index !690
  %77 = getelementptr inbounds %"struct.std::_Vector_base", %"struct.std::_Vector_base"* %76, i32 0, i32 0, !llfi_index !691
  %78 = bitcast %"struct.std::_Vector_base<long long, std::allocator<long long>>::_Vector_impl"* %77 to %"struct.std::_Vector_base<long long, std::allocator<long long>>::_Vector_impl_data"*, !llfi_index !692
  %79 = getelementptr inbounds %"struct.std::_Vector_base<long long, std::allocator<long long>>::_Vector_impl_data", %"struct.std::_Vector_base<long long, std::allocator<long long>>::_Vector_impl_data"* %78, i32 0, i32 1, !llfi_index !693
  store i64* %75, i64** %79, align 8, !llfi_index !694
  %80 = load i64*, i64** %12, align 8, !llfi_index !695
  %81 = load i64, i64* %7, align 8, !llfi_index !696
  %82 = getelementptr inbounds i64, i64* %80, i64 %81, !llfi_index !697
  %83 = bitcast %"class.std::vector"* %15 to %"struct.std::_Vector_base"*, !llfi_index !698
  %84 = getelementptr inbounds %"struct.std::_Vector_base", %"struct.std::_Vector_base"* %83, i32 0, i32 0, !llfi_index !699
  %85 = bitcast %"struct.std::_Vector_base<long long, std::allocator<long long>>::_Vector_impl"* %84 to %"struct.std::_Vector_base<long long, std::allocator<long long>>::_Vector_impl_data"*, !llfi_index !700
  %86 = getelementptr inbounds %"struct.std::_Vector_base<long long, std::allocator<long long>>::_Vector_impl_data", %"struct.std::_Vector_base<long long, std::allocator<long long>>::_Vector_impl_data"* %85, i32 0, i32 2, !llfi_index !701
  store i64* %82, i64** %86, align 8, !llfi_index !702
  ret void, !llfi_index !703
}

; Function Attrs: mustprogress noinline uwtable
define linkonce_odr dso_local i64 @_ZNKSt6vectorIxSaIxEE12_M_check_lenEmPKc(%"class.std::vector"* nonnull align 8 dereferenceable(24) %0, i64 %1, i8* %2) #4 comdat align 2 {
  %4 = alloca %"class.std::vector"*, align 8, !llfi_index !704
  %5 = alloca i64, align 8, !llfi_index !705
  %6 = alloca i8*, align 8, !llfi_index !706
  %7 = alloca i64, align 8, !llfi_index !707
  %8 = alloca i64, align 8, !llfi_index !708
  store %"class.std::vector"* %0, %"class.std::vector"** %4, align 8, !llfi_index !709
  store i64 %1, i64* %5, align 8, !llfi_index !710
  store i8* %2, i8** %6, align 8, !llfi_index !711
  %9 = load %"class.std::vector"*, %"class.std::vector"** %4, align 8, !llfi_index !712
  %10 = call i64 @_ZNKSt6vectorIxSaIxEE8max_sizeEv(%"class.std::vector"* nonnull align 8 dereferenceable(24) %9) #2, !llfi_index !713
  %11 = call i64 @_ZNKSt6vectorIxSaIxEE4sizeEv(%"class.std::vector"* nonnull align 8 dereferenceable(24) %9) #2, !llfi_index !714
  %12 = sub i64 %10, %11, !llfi_index !715
  %13 = load i64, i64* %5, align 8, !llfi_index !716
  %14 = icmp ult i64 %12, %13, !llfi_index !717
  br i1 %14, label %15, label %17, !llfi_index !718

15:                                               ; preds = %3
  %16 = load i8*, i8** %6, align 8, !llfi_index !719
  call void @_ZSt20__throw_length_errorPKc(i8* %16) #14, !llfi_index !720
  unreachable, !llfi_index !721

17:                                               ; preds = %3
  %18 = call i64 @_ZNKSt6vectorIxSaIxEE4sizeEv(%"class.std::vector"* nonnull align 8 dereferenceable(24) %9) #2, !llfi_index !722
  %19 = call i64 @_ZNKSt6vectorIxSaIxEE4sizeEv(%"class.std::vector"* nonnull align 8 dereferenceable(24) %9) #2, !llfi_index !723
  store i64 %19, i64* %8, align 8, !llfi_index !724
  %20 = call nonnull align 8 dereferenceable(8) i64* @_ZSt3maxImERKT_S2_S2_(i64* nonnull align 8 dereferenceable(8) %8, i64* nonnull align 8 dereferenceable(8) %5), !llfi_index !725
  %21 = load i64, i64* %20, align 8, !llfi_index !726
  %22 = add i64 %18, %21, !llfi_index !727
  store i64 %22, i64* %7, align 8, !llfi_index !728
  %23 = load i64, i64* %7, align 8, !llfi_index !729
  %24 = call i64 @_ZNKSt6vectorIxSaIxEE4sizeEv(%"class.std::vector"* nonnull align 8 dereferenceable(24) %9) #2, !llfi_index !730
  %25 = icmp ult i64 %23, %24, !llfi_index !731
  br i1 %25, label %30, label %26, !llfi_index !732

26:                                               ; preds = %17
  %27 = load i64, i64* %7, align 8, !llfi_index !733
  %28 = call i64 @_ZNKSt6vectorIxSaIxEE8max_sizeEv(%"class.std::vector"* nonnull align 8 dereferenceable(24) %9) #2, !llfi_index !734
  %29 = icmp ugt i64 %27, %28, !llfi_index !735
  br i1 %29, label %30, label %32, !llfi_index !736

30:                                               ; preds = %26, %17
  %31 = call i64 @_ZNKSt6vectorIxSaIxEE8max_sizeEv(%"class.std::vector"* nonnull align 8 dereferenceable(24) %9) #2, !llfi_index !737
  br label %34, !llfi_index !738

32:                                               ; preds = %26
  %33 = load i64, i64* %7, align 8, !llfi_index !739
  br label %34, !llfi_index !740

34:                                               ; preds = %32, %30
  %35 = phi i64 [ %31, %30 ], [ %33, %32 ], !llfi_index !741
  ret i64 %35, !llfi_index !742
}

; Function Attrs: mustprogress noinline nounwind uwtable
define linkonce_odr dso_local i64* @_ZNSt6vectorIxSaIxEE5beginEv(%"class.std::vector"* nonnull align 8 dereferenceable(24) %0) #3 comdat align 2 {
  %2 = alloca %"class.__gnu_cxx::__normal_iterator", align 8, !llfi_index !743
  %3 = alloca %"class.std::vector"*, align 8, !llfi_index !744
  store %"class.std::vector"* %0, %"class.std::vector"** %3, align 8, !llfi_index !745
  %4 = load %"class.std::vector"*, %"class.std::vector"** %3, align 8, !llfi_index !746
  %5 = bitcast %"class.std::vector"* %4 to %"struct.std::_Vector_base"*, !llfi_index !747
  %6 = getelementptr inbounds %"struct.std::_Vector_base", %"struct.std::_Vector_base"* %5, i32 0, i32 0, !llfi_index !748
  %7 = bitcast %"struct.std::_Vector_base<long long, std::allocator<long long>>::_Vector_impl"* %6 to %"struct.std::_Vector_base<long long, std::allocator<long long>>::_Vector_impl_data"*, !llfi_index !749
  %8 = getelementptr inbounds %"struct.std::_Vector_base<long long, std::allocator<long long>>::_Vector_impl_data", %"struct.std::_Vector_base<long long, std::allocator<long long>>::_Vector_impl_data"* %7, i32 0, i32 0, !llfi_index !750
  call void @_ZN9__gnu_cxx17__normal_iteratorIPxSt6vectorIxSaIxEEEC2ERKS1_(%"class.__gnu_cxx::__normal_iterator"* nonnull align 8 dereferenceable(8) %2, i64** nonnull align 8 dereferenceable(8) %8) #2, !llfi_index !751
  %9 = getelementptr inbounds %"class.__gnu_cxx::__normal_iterator", %"class.__gnu_cxx::__normal_iterator"* %2, i32 0, i32 0, !llfi_index !752
  %10 = load i64*, i64** %9, align 8, !llfi_index !753
  ret i64* %10, !llfi_index !754
}

; Function Attrs: mustprogress noinline nounwind uwtable
define linkonce_odr dso_local i64 @_ZN9__gnu_cxxmiIPxSt6vectorIxSaIxEEEENS_17__normal_iteratorIT_T0_E15difference_typeERKS8_SB_(%"class.__gnu_cxx::__normal_iterator"* nonnull align 8 dereferenceable(8) %0, %"class.__gnu_cxx::__normal_iterator"* nonnull align 8 dereferenceable(8) %1) #3 comdat {
  %3 = alloca %"class.__gnu_cxx::__normal_iterator"*, align 8, !llfi_index !755
  %4 = alloca %"class.__gnu_cxx::__normal_iterator"*, align 8, !llfi_index !756
  store %"class.__gnu_cxx::__normal_iterator"* %0, %"class.__gnu_cxx::__normal_iterator"** %3, align 8, !llfi_index !757
  store %"class.__gnu_cxx::__normal_iterator"* %1, %"class.__gnu_cxx::__normal_iterator"** %4, align 8, !llfi_index !758
  %5 = load %"class.__gnu_cxx::__normal_iterator"*, %"class.__gnu_cxx::__normal_iterator"** %3, align 8, !llfi_index !759
  %6 = call nonnull align 8 dereferenceable(8) i64** @_ZNK9__gnu_cxx17__normal_iteratorIPxSt6vectorIxSaIxEEE4baseEv(%"class.__gnu_cxx::__normal_iterator"* nonnull align 8 dereferenceable(8) %5) #2, !llfi_index !760
  %7 = load i64*, i64** %6, align 8, !llfi_index !761
  %8 = load %"class.__gnu_cxx::__normal_iterator"*, %"class.__gnu_cxx::__normal_iterator"** %4, align 8, !llfi_index !762
  %9 = call nonnull align 8 dereferenceable(8) i64** @_ZNK9__gnu_cxx17__normal_iteratorIPxSt6vectorIxSaIxEEE4baseEv(%"class.__gnu_cxx::__normal_iterator"* nonnull align 8 dereferenceable(8) %8) #2, !llfi_index !763
  %10 = load i64*, i64** %9, align 8, !llfi_index !764
  %11 = ptrtoint i64* %7 to i64, !llfi_index !765
  %12 = ptrtoint i64* %10 to i64, !llfi_index !766
  %13 = sub i64 %11, %12, !llfi_index !767
  %14 = sdiv exact i64 %13, 8, !llfi_index !768
  ret i64 %14, !llfi_index !769
}

; Function Attrs: mustprogress noinline uwtable
define linkonce_odr dso_local i64* @_ZNSt12_Vector_baseIxSaIxEE11_M_allocateEm(%"struct.std::_Vector_base"* nonnull align 8 dereferenceable(24) %0, i64 %1) #4 comdat align 2 {
  %3 = alloca %"struct.std::_Vector_base"*, align 8, !llfi_index !770
  %4 = alloca i64, align 8, !llfi_index !771
  store %"struct.std::_Vector_base"* %0, %"struct.std::_Vector_base"** %3, align 8, !llfi_index !772
  store i64 %1, i64* %4, align 8, !llfi_index !773
  %5 = load %"struct.std::_Vector_base"*, %"struct.std::_Vector_base"** %3, align 8, !llfi_index !774
  %6 = load i64, i64* %4, align 8, !llfi_index !775
  %7 = icmp ne i64 %6, 0, !llfi_index !776
  br i1 %7, label %8, label %13, !llfi_index !777

8:                                                ; preds = %2
  %9 = getelementptr inbounds %"struct.std::_Vector_base", %"struct.std::_Vector_base"* %5, i32 0, i32 0, !llfi_index !778
  %10 = bitcast %"struct.std::_Vector_base<long long, std::allocator<long long>>::_Vector_impl"* %9 to %"class.std::allocator"*, !llfi_index !779
  %11 = load i64, i64* %4, align 8, !llfi_index !780
  %12 = call i64* @_ZNSt16allocator_traitsISaIxEE8allocateERS0_m(%"class.std::allocator"* nonnull align 1 dereferenceable(1) %10, i64 %11), !llfi_index !781
  br label %14, !llfi_index !782

13:                                               ; preds = %2
  br label %14, !llfi_index !783

14:                                               ; preds = %13, %8
  %15 = phi i64* [ %12, %8 ], [ null, %13 ], !llfi_index !784
  ret i64* %15, !llfi_index !785
}

; Function Attrs: mustprogress noinline nounwind uwtable
define linkonce_odr dso_local nonnull align 8 dereferenceable(8) i64* @_ZSt7forwardIRKxEOT_RNSt16remove_referenceIS2_E4typeE(i64* nonnull align 8 dereferenceable(8) %0) #3 comdat {
  %2 = alloca i64*, align 8, !llfi_index !786
  store i64* %0, i64** %2, align 8, !llfi_index !787
  %3 = load i64*, i64** %2, align 8, !llfi_index !788
  ret i64* %3, !llfi_index !789
}

; Function Attrs: mustprogress noinline nounwind uwtable
define linkonce_odr dso_local nonnull align 8 dereferenceable(8) i64** @_ZNK9__gnu_cxx17__normal_iteratorIPxSt6vectorIxSaIxEEE4baseEv(%"class.__gnu_cxx::__normal_iterator"* nonnull align 8 dereferenceable(8) %0) #3 comdat align 2 {
  %2 = alloca %"class.__gnu_cxx::__normal_iterator"*, align 8, !llfi_index !790
  store %"class.__gnu_cxx::__normal_iterator"* %0, %"class.__gnu_cxx::__normal_iterator"** %2, align 8, !llfi_index !791
  %3 = load %"class.__gnu_cxx::__normal_iterator"*, %"class.__gnu_cxx::__normal_iterator"** %2, align 8, !llfi_index !792
  %4 = getelementptr inbounds %"class.__gnu_cxx::__normal_iterator", %"class.__gnu_cxx::__normal_iterator"* %3, i32 0, i32 0, !llfi_index !793
  ret i64** %4, !llfi_index !794
}

; Function Attrs: mustprogress noinline nounwind uwtable
define linkonce_odr dso_local i64* @_ZNSt6vectorIxSaIxEE11_S_relocateEPxS2_S2_RS0_(i64* %0, i64* %1, i64* %2, %"class.std::allocator"* nonnull align 1 dereferenceable(1) %3) #3 comdat align 2 {
  %5 = alloca i64*, align 8, !llfi_index !795
  %6 = alloca i64*, align 8, !llfi_index !796
  %7 = alloca i64*, align 8, !llfi_index !797
  %8 = alloca %"class.std::allocator"*, align 8, !llfi_index !798
  %9 = alloca %"class.std::allocator", align 1, !llfi_index !799
  store i64* %0, i64** %5, align 8, !llfi_index !800
  store i64* %1, i64** %6, align 8, !llfi_index !801
  store i64* %2, i64** %7, align 8, !llfi_index !802
  store %"class.std::allocator"* %3, %"class.std::allocator"** %8, align 8, !llfi_index !803
  %10 = load i64*, i64** %5, align 8, !llfi_index !804
  %11 = load i64*, i64** %6, align 8, !llfi_index !805
  %12 = load i64*, i64** %7, align 8, !llfi_index !806
  %13 = load %"class.std::allocator"*, %"class.std::allocator"** %8, align 8, !llfi_index !807
  %14 = call i64* @_ZNSt6vectorIxSaIxEE14_S_do_relocateEPxS2_S2_RS0_St17integral_constantIbLb1EE(i64* %10, i64* %11, i64* %12, %"class.std::allocator"* nonnull align 1 dereferenceable(1) %13) #2, !llfi_index !808
  ret i64* %14, !llfi_index !809
}

; Function Attrs: mustprogress noinline nounwind uwtable
define linkonce_odr dso_local i64* @_ZNSt6vectorIxSaIxEE14_S_do_relocateEPxS2_S2_RS0_St17integral_constantIbLb1EE(i64* %0, i64* %1, i64* %2, %"class.std::allocator"* nonnull align 1 dereferenceable(1) %3) #3 comdat align 2 {
  %5 = alloca %"class.std::allocator", align 1, !llfi_index !810
  %6 = alloca i64*, align 8, !llfi_index !811
  %7 = alloca i64*, align 8, !llfi_index !812
  %8 = alloca i64*, align 8, !llfi_index !813
  %9 = alloca %"class.std::allocator"*, align 8, !llfi_index !814
  store i64* %0, i64** %6, align 8, !llfi_index !815
  store i64* %1, i64** %7, align 8, !llfi_index !816
  store i64* %2, i64** %8, align 8, !llfi_index !817
  store %"class.std::allocator"* %3, %"class.std::allocator"** %9, align 8, !llfi_index !818
  %10 = load i64*, i64** %6, align 8, !llfi_index !819
  %11 = load i64*, i64** %7, align 8, !llfi_index !820
  %12 = load i64*, i64** %8, align 8, !llfi_index !821
  %13 = load %"class.std::allocator"*, %"class.std::allocator"** %9, align 8, !llfi_index !822
  %14 = call i64* @_ZSt12__relocate_aIPxS0_SaIxEET0_T_S3_S2_RT1_(i64* %10, i64* %11, i64* %12, %"class.std::allocator"* nonnull align 1 dereferenceable(1) %13) #2, !llfi_index !823
  ret i64* %14, !llfi_index !824
}

; Function Attrs: mustprogress noinline nounwind uwtable
define linkonce_odr dso_local i64* @_ZSt12__relocate_aIPxS0_SaIxEET0_T_S3_S2_RT1_(i64* %0, i64* %1, i64* %2, %"class.std::allocator"* nonnull align 1 dereferenceable(1) %3) #3 comdat {
  %5 = alloca i64*, align 8, !llfi_index !825
  %6 = alloca i64*, align 8, !llfi_index !826
  %7 = alloca i64*, align 8, !llfi_index !827
  %8 = alloca %"class.std::allocator"*, align 8, !llfi_index !828
  store i64* %0, i64** %5, align 8, !llfi_index !829
  store i64* %1, i64** %6, align 8, !llfi_index !830
  store i64* %2, i64** %7, align 8, !llfi_index !831
  store %"class.std::allocator"* %3, %"class.std::allocator"** %8, align 8, !llfi_index !832
  %9 = load i64*, i64** %5, align 8, !llfi_index !833
  %10 = call i64* @_ZSt12__niter_baseIPxET_S1_(i64* %9) #2, !llfi_index !834
  %11 = load i64*, i64** %6, align 8, !llfi_index !835
  %12 = call i64* @_ZSt12__niter_baseIPxET_S1_(i64* %11) #2, !llfi_index !836
  %13 = load i64*, i64** %7, align 8, !llfi_index !837
  %14 = call i64* @_ZSt12__niter_baseIPxET_S1_(i64* %13) #2, !llfi_index !838
  %15 = load %"class.std::allocator"*, %"class.std::allocator"** %8, align 8, !llfi_index !839
  %16 = call i64* @_ZSt14__relocate_a_1IxxENSt9enable_ifIXsr3std24__is_bitwise_relocatableIT_EE5valueEPS1_E4typeES2_S2_S2_RSaIT0_E(i64* %10, i64* %12, i64* %14, %"class.std::allocator"* nonnull align 1 dereferenceable(1) %15) #2, !llfi_index !840
  ret i64* %16, !llfi_index !841
}

; Function Attrs: mustprogress noinline nounwind uwtable
define linkonce_odr dso_local i64* @_ZSt12__niter_baseIPxET_S1_(i64* %0) #3 comdat {
  %2 = alloca i64*, align 8, !llfi_index !842
  store i64* %0, i64** %2, align 8, !llfi_index !843
  %3 = load i64*, i64** %2, align 8, !llfi_index !844
  ret i64* %3, !llfi_index !845
}

; Function Attrs: mustprogress noinline nounwind uwtable
define linkonce_odr dso_local i64* @_ZSt14__relocate_a_1IxxENSt9enable_ifIXsr3std24__is_bitwise_relocatableIT_EE5valueEPS1_E4typeES2_S2_S2_RSaIT0_E(i64* %0, i64* %1, i64* %2, %"class.std::allocator"* nonnull align 1 dereferenceable(1) %3) #3 comdat {
  %5 = alloca i64*, align 8, !llfi_index !846
  %6 = alloca i64*, align 8, !llfi_index !847
  %7 = alloca i64*, align 8, !llfi_index !848
  %8 = alloca %"class.std::allocator"*, align 8, !llfi_index !849
  %9 = alloca i64, align 8, !llfi_index !850
  store i64* %0, i64** %5, align 8, !llfi_index !851
  store i64* %1, i64** %6, align 8, !llfi_index !852
  store i64* %2, i64** %7, align 8, !llfi_index !853
  store %"class.std::allocator"* %3, %"class.std::allocator"** %8, align 8, !llfi_index !854
  %10 = load i64*, i64** %6, align 8, !llfi_index !855
  %11 = load i64*, i64** %5, align 8, !llfi_index !856
  %12 = ptrtoint i64* %10 to i64, !llfi_index !857
  %13 = ptrtoint i64* %11 to i64, !llfi_index !858
  %14 = sub i64 %12, %13, !llfi_index !859
  %15 = sdiv exact i64 %14, 8, !llfi_index !860
  store i64 %15, i64* %9, align 8, !llfi_index !861
  %16 = load i64, i64* %9, align 8, !llfi_index !862
  %17 = icmp sgt i64 %16, 0, !llfi_index !863
  br i1 %17, label %18, label %25, !llfi_index !864

18:                                               ; preds = %4
  %19 = load i64*, i64** %7, align 8, !llfi_index !865
  %20 = bitcast i64* %19 to i8*, !llfi_index !866
  %21 = load i64*, i64** %5, align 8, !llfi_index !867
  %22 = bitcast i64* %21 to i8*, !llfi_index !868
  %23 = load i64, i64* %9, align 8, !llfi_index !869
  %24 = mul i64 %23, 8, !llfi_index !870
  call void @llvm.memmove.p0i8.p0i8.i64(i8* align 8 %20, i8* align 8 %22, i64 %24, i1 false), !llfi_index !871
  br label %25, !llfi_index !872

25:                                               ; preds = %18, %4
  %26 = load i64*, i64** %7, align 8, !llfi_index !873
  %27 = load i64, i64* %9, align 8, !llfi_index !874
  %28 = getelementptr inbounds i64, i64* %26, i64 %27, !llfi_index !875
  ret i64* %28, !llfi_index !876
}

; Function Attrs: argmemonly nofree nounwind willreturn
declare void @llvm.memmove.p0i8.p0i8.i64(i8* nocapture writeonly, i8* nocapture readonly, i64, i1 immarg) #10

; Function Attrs: mustprogress noinline uwtable
define linkonce_odr dso_local i64* @_ZNSt16allocator_traitsISaIxEE8allocateERS0_m(%"class.std::allocator"* nonnull align 1 dereferenceable(1) %0, i64 %1) #4 comdat align 2 {
  %3 = alloca %"class.std::allocator"*, align 8, !llfi_index !877
  %4 = alloca i64, align 8, !llfi_index !878
  store %"class.std::allocator"* %0, %"class.std::allocator"** %3, align 8, !llfi_index !879
  store i64 %1, i64* %4, align 8, !llfi_index !880
  %5 = load %"class.std::allocator"*, %"class.std::allocator"** %3, align 8, !llfi_index !881
  %6 = bitcast %"class.std::allocator"* %5 to %"class.std::allocator"*, !llfi_index !882
  %7 = load i64, i64* %4, align 8, !llfi_index !883
  %8 = call i64* @_ZN9__gnu_cxx13new_allocatorIxE8allocateEmPKv(%"class.std::allocator"* nonnull align 1 dereferenceable(1) %6, i64 %7, i8* null), !llfi_index !884
  ret i64* %8, !llfi_index !885
}

; Function Attrs: mustprogress noinline uwtable
define linkonce_odr dso_local i64* @_ZN9__gnu_cxx13new_allocatorIxE8allocateEmPKv(%"class.std::allocator"* nonnull align 1 dereferenceable(1) %0, i64 %1, i8* %2) #4 comdat align 2 {
  %4 = alloca %"class.std::allocator"*, align 8, !llfi_index !886
  %5 = alloca i64, align 8, !llfi_index !887
  %6 = alloca i8*, align 8, !llfi_index !888
  store %"class.std::allocator"* %0, %"class.std::allocator"** %4, align 8, !llfi_index !889
  store i64 %1, i64* %5, align 8, !llfi_index !890
  store i8* %2, i8** %6, align 8, !llfi_index !891
  %7 = load %"class.std::allocator"*, %"class.std::allocator"** %4, align 8, !llfi_index !892
  %8 = load i64, i64* %5, align 8, !llfi_index !893
  %9 = call i64 @_ZNK9__gnu_cxx13new_allocatorIxE8max_sizeEv(%"class.std::allocator"* nonnull align 1 dereferenceable(1) %7) #2, !llfi_index !894
  %10 = icmp ugt i64 %8, %9, !llfi_index !895
  br i1 %10, label %11, label %12, !llfi_index !896

11:                                               ; preds = %3
  call void @_ZSt17__throw_bad_allocv() #14, !llfi_index !897
  unreachable, !llfi_index !898

12:                                               ; preds = %3
  %13 = load i64, i64* %5, align 8, !llfi_index !899
  %14 = mul i64 %13, 8, !llfi_index !900
  %15 = call noalias nonnull i8* @_Znwm(i64 %14) #15, !llfi_index !901
  %16 = bitcast i8* %15 to i64*, !llfi_index !902
  ret i64* %16, !llfi_index !903
}

; Function Attrs: mustprogress noinline nounwind uwtable
define linkonce_odr dso_local i64 @_ZNK9__gnu_cxx13new_allocatorIxE8max_sizeEv(%"class.std::allocator"* nonnull align 1 dereferenceable(1) %0) #3 comdat align 2 {
  %2 = alloca %"class.std::allocator"*, align 8, !llfi_index !904
  store %"class.std::allocator"* %0, %"class.std::allocator"** %2, align 8, !llfi_index !905
  %3 = load %"class.std::allocator"*, %"class.std::allocator"** %2, align 8, !llfi_index !906
  ret i64 1152921504606846975, !llfi_index !907
}

; Function Attrs: noreturn
declare dso_local void @_ZSt17__throw_bad_allocv() #11

; Function Attrs: nobuiltin allocsize(0)
declare dso_local nonnull i8* @_Znwm(i64) #12

; Function Attrs: noinline nounwind uwtable
define linkonce_odr dso_local void @_ZN9__gnu_cxx17__normal_iteratorIPxSt6vectorIxSaIxEEEC2ERKS1_(%"class.__gnu_cxx::__normal_iterator"* nonnull align 8 dereferenceable(8) %0, i64** nonnull align 8 dereferenceable(8) %1) unnamed_addr #1 comdat align 2 {
  %3 = alloca %"class.__gnu_cxx::__normal_iterator"*, align 8, !llfi_index !908
  %4 = alloca i64**, align 8, !llfi_index !909
  store %"class.__gnu_cxx::__normal_iterator"* %0, %"class.__gnu_cxx::__normal_iterator"** %3, align 8, !llfi_index !910
  store i64** %1, i64*** %4, align 8, !llfi_index !911
  %5 = load %"class.__gnu_cxx::__normal_iterator"*, %"class.__gnu_cxx::__normal_iterator"** %3, align 8, !llfi_index !912
  %6 = getelementptr inbounds %"class.__gnu_cxx::__normal_iterator", %"class.__gnu_cxx::__normal_iterator"* %5, i32 0, i32 0, !llfi_index !913
  %7 = load i64**, i64*** %4, align 8, !llfi_index !914
  %8 = load i64*, i64** %7, align 8, !llfi_index !915
  store i64* %8, i64** %6, align 8, !llfi_index !916
  ret void, !llfi_index !917
}

; Function Attrs: mustprogress noinline nounwind uwtable
define linkonce_odr dso_local i64 @_ZNKSt6vectorIxSaIxEE8max_sizeEv(%"class.std::vector"* nonnull align 8 dereferenceable(24) %0) #3 comdat align 2 {
  %2 = alloca %"class.std::vector"*, align 8, !llfi_index !918
  store %"class.std::vector"* %0, %"class.std::vector"** %2, align 8, !llfi_index !919
  %3 = load %"class.std::vector"*, %"class.std::vector"** %2, align 8, !llfi_index !920
  %4 = bitcast %"class.std::vector"* %3 to %"struct.std::_Vector_base"*, !llfi_index !921
  %5 = call nonnull align 1 dereferenceable(1) %"class.std::allocator"* @_ZNKSt12_Vector_baseIxSaIxEE19_M_get_Tp_allocatorEv(%"struct.std::_Vector_base"* nonnull align 8 dereferenceable(24) %4) #2, !llfi_index !922
  %6 = call i64 @_ZNSt6vectorIxSaIxEE11_S_max_sizeERKS0_(%"class.std::allocator"* nonnull align 1 dereferenceable(1) %5) #2, !llfi_index !923
  ret i64 %6, !llfi_index !924
}

; Function Attrs: noreturn
declare dso_local void @_ZSt20__throw_length_errorPKc(i8*) #11

; Function Attrs: mustprogress noinline nounwind uwtable
define linkonce_odr dso_local nonnull align 8 dereferenceable(8) i64* @_ZSt3maxImERKT_S2_S2_(i64* nonnull align 8 dereferenceable(8) %0, i64* nonnull align 8 dereferenceable(8) %1) #3 comdat {
  %3 = alloca i64*, align 8, !llfi_index !925
  %4 = alloca i64*, align 8, !llfi_index !926
  %5 = alloca i64*, align 8, !llfi_index !927
  store i64* %0, i64** %4, align 8, !llfi_index !928
  store i64* %1, i64** %5, align 8, !llfi_index !929
  %6 = load i64*, i64** %4, align 8, !llfi_index !930
  %7 = load i64, i64* %6, align 8, !llfi_index !931
  %8 = load i64*, i64** %5, align 8, !llfi_index !932
  %9 = load i64, i64* %8, align 8, !llfi_index !933
  %10 = icmp ult i64 %7, %9, !llfi_index !934
  br i1 %10, label %11, label %13, !llfi_index !935

11:                                               ; preds = %2
  %12 = load i64*, i64** %5, align 8, !llfi_index !936
  store i64* %12, i64** %3, align 8, !llfi_index !937
  br label %15, !llfi_index !938

13:                                               ; preds = %2
  %14 = load i64*, i64** %4, align 8, !llfi_index !939
  store i64* %14, i64** %3, align 8, !llfi_index !940
  br label %15, !llfi_index !941

15:                                               ; preds = %13, %11
  %16 = load i64*, i64** %3, align 8, !llfi_index !942
  ret i64* %16, !llfi_index !943
}

; Function Attrs: mustprogress noinline nounwind uwtable
define linkonce_odr dso_local nonnull align 1 dereferenceable(1) %"class.std::allocator"* @_ZNKSt12_Vector_baseIxSaIxEE19_M_get_Tp_allocatorEv(%"struct.std::_Vector_base"* nonnull align 8 dereferenceable(24) %0) #3 comdat align 2 {
  %2 = alloca %"struct.std::_Vector_base"*, align 8, !llfi_index !944
  store %"struct.std::_Vector_base"* %0, %"struct.std::_Vector_base"** %2, align 8, !llfi_index !945
  %3 = load %"struct.std::_Vector_base"*, %"struct.std::_Vector_base"** %2, align 8, !llfi_index !946
  %4 = getelementptr inbounds %"struct.std::_Vector_base", %"struct.std::_Vector_base"* %3, i32 0, i32 0, !llfi_index !947
  %5 = bitcast %"struct.std::_Vector_base<long long, std::allocator<long long>>::_Vector_impl"* %4 to %"class.std::allocator"*, !llfi_index !948
  ret %"class.std::allocator"* %5, !llfi_index !949
}

; Function Attrs: mustprogress noinline nounwind uwtable
define linkonce_odr dso_local i64 @_ZNSt6vectorIxSaIxEE11_S_max_sizeERKS0_(%"class.std::allocator"* nonnull align 1 dereferenceable(1) %0) #3 comdat align 2 personality i8* bitcast (i32 (...)* @__gxx_personality_v0 to i8*) {
  %2 = alloca %"class.std::allocator"*, align 8, !llfi_index !950
  %3 = alloca i64, align 8, !llfi_index !951
  %4 = alloca i64, align 8, !llfi_index !952
  store %"class.std::allocator"* %0, %"class.std::allocator"** %2, align 8, !llfi_index !953
  store i64 1152921504606846975, i64* %3, align 8, !llfi_index !954
  %5 = load %"class.std::allocator"*, %"class.std::allocator"** %2, align 8, !llfi_index !955
  %6 = call i64 @_ZNSt16allocator_traitsISaIxEE8max_sizeERKS0_(%"class.std::allocator"* nonnull align 1 dereferenceable(1) %5) #2, !llfi_index !956
  store i64 %6, i64* %4, align 8, !llfi_index !957
  %7 = invoke nonnull align 8 dereferenceable(8) i64* @_ZSt3minImERKT_S2_S2_(i64* nonnull align 8 dereferenceable(8) %3, i64* nonnull align 8 dereferenceable(8) %4)
          to label %8 unwind label %10, !llfi_index !958

8:                                                ; preds = %1
  %9 = load i64, i64* %7, align 8, !llfi_index !959
  ret i64 %9, !llfi_index !960

10:                                               ; preds = %1
  %11 = landingpad { i8*, i32 }
          catch i8* null, !llfi_index !961
  %12 = extractvalue { i8*, i32 } %11, 0, !llfi_index !962
  call void @__clang_call_terminate(i8* %12) #13, !llfi_index !963
  unreachable, !llfi_index !964
}

; Function Attrs: mustprogress noinline nounwind uwtable
define linkonce_odr dso_local i64 @_ZNSt16allocator_traitsISaIxEE8max_sizeERKS0_(%"class.std::allocator"* nonnull align 1 dereferenceable(1) %0) #3 comdat align 2 {
  %2 = alloca %"class.std::allocator"*, align 8, !llfi_index !965
  store %"class.std::allocator"* %0, %"class.std::allocator"** %2, align 8, !llfi_index !966
  %3 = load %"class.std::allocator"*, %"class.std::allocator"** %2, align 8, !llfi_index !967
  %4 = bitcast %"class.std::allocator"* %3 to %"class.std::allocator"*, !llfi_index !968
  %5 = call i64 @_ZNK9__gnu_cxx13new_allocatorIxE8max_sizeEv(%"class.std::allocator"* nonnull align 1 dereferenceable(1) %4) #2, !llfi_index !969
  ret i64 %5, !llfi_index !970
}

; Function Attrs: mustprogress noinline nounwind uwtable
define linkonce_odr dso_local nonnull align 8 dereferenceable(8) i64* @_ZSt3minImERKT_S2_S2_(i64* nonnull align 8 dereferenceable(8) %0, i64* nonnull align 8 dereferenceable(8) %1) #3 comdat {
  %3 = alloca i64*, align 8, !llfi_index !971
  %4 = alloca i64*, align 8, !llfi_index !972
  %5 = alloca i64*, align 8, !llfi_index !973
  store i64* %0, i64** %4, align 8, !llfi_index !974
  store i64* %1, i64** %5, align 8, !llfi_index !975
  %6 = load i64*, i64** %5, align 8, !llfi_index !976
  %7 = load i64, i64* %6, align 8, !llfi_index !977
  %8 = load i64*, i64** %4, align 8, !llfi_index !978
  %9 = load i64, i64* %8, align 8, !llfi_index !979
  %10 = icmp ult i64 %7, %9, !llfi_index !980
  br i1 %10, label %11, label %13, !llfi_index !981

11:                                               ; preds = %2
  %12 = load i64*, i64** %5, align 8, !llfi_index !982
  store i64* %12, i64** %3, align 8, !llfi_index !983
  br label %15, !llfi_index !984

13:                                               ; preds = %2
  %14 = load i64*, i64** %4, align 8, !llfi_index !985
  store i64* %14, i64** %3, align 8, !llfi_index !986
  br label %15, !llfi_index !987

15:                                               ; preds = %13, %11
  %16 = load i64*, i64** %3, align 8, !llfi_index !988
  ret i64* %16, !llfi_index !989
}

; Function Attrs: mustprogress noinline nounwind uwtable
define linkonce_odr dso_local void @_ZN9__gnu_cxx13new_allocatorIxE9constructIxJRKxEEEvPT_DpOT0_(%"class.std::allocator"* nonnull align 1 dereferenceable(1) %0, i64* %1, i64* nonnull align 8 dereferenceable(8) %2) #3 comdat align 2 {
  %4 = alloca %"class.std::allocator"*, align 8, !llfi_index !990
  %5 = alloca i64*, align 8, !llfi_index !991
  %6 = alloca i64*, align 8, !llfi_index !992
  store %"class.std::allocator"* %0, %"class.std::allocator"** %4, align 8, !llfi_index !993
  store i64* %1, i64** %5, align 8, !llfi_index !994
  store i64* %2, i64** %6, align 8, !llfi_index !995
  %7 = load %"class.std::allocator"*, %"class.std::allocator"** %4, align 8, !llfi_index !996
  %8 = load i64*, i64** %5, align 8, !llfi_index !997
  %9 = bitcast i64* %8 to i8*, !llfi_index !998
  %10 = bitcast i8* %9 to i64*, !llfi_index !999
  %11 = load i64*, i64** %6, align 8, !llfi_index !1000
  %12 = call nonnull align 8 dereferenceable(8) i64* @_ZSt7forwardIRKxEOT_RNSt16remove_referenceIS2_E4typeE(i64* nonnull align 8 dereferenceable(8) %11) #2, !llfi_index !1001
  %13 = load i64, i64* %12, align 8, !llfi_index !1002
  store i64 %13, i64* %10, align 8, !llfi_index !1003
  ret void, !llfi_index !1004
}

; Function Attrs: mustprogress noinline nounwind uwtable
define linkonce_odr dso_local void @_ZNSt6vectorIxSaIxEE15_M_erase_at_endEPx(%"class.std::vector"* nonnull align 8 dereferenceable(24) %0, i64* %1) #3 comdat align 2 personality i8* bitcast (i32 (...)* @__gxx_personality_v0 to i8*) {
  %3 = alloca %"class.std::vector"*, align 8, !llfi_index !1005
  %4 = alloca i64*, align 8, !llfi_index !1006
  %5 = alloca i64, align 8, !llfi_index !1007
  store %"class.std::vector"* %0, %"class.std::vector"** %3, align 8, !llfi_index !1008
  store i64* %1, i64** %4, align 8, !llfi_index !1009
  %6 = load %"class.std::vector"*, %"class.std::vector"** %3, align 8, !llfi_index !1010
  %7 = bitcast %"class.std::vector"* %6 to %"struct.std::_Vector_base"*, !llfi_index !1011
  %8 = getelementptr inbounds %"struct.std::_Vector_base", %"struct.std::_Vector_base"* %7, i32 0, i32 0, !llfi_index !1012
  %9 = bitcast %"struct.std::_Vector_base<long long, std::allocator<long long>>::_Vector_impl"* %8 to %"struct.std::_Vector_base<long long, std::allocator<long long>>::_Vector_impl_data"*, !llfi_index !1013
  %10 = getelementptr inbounds %"struct.std::_Vector_base<long long, std::allocator<long long>>::_Vector_impl_data", %"struct.std::_Vector_base<long long, std::allocator<long long>>::_Vector_impl_data"* %9, i32 0, i32 1, !llfi_index !1014
  %11 = load i64*, i64** %10, align 8, !llfi_index !1015
  %12 = load i64*, i64** %4, align 8, !llfi_index !1016
  %13 = ptrtoint i64* %11 to i64, !llfi_index !1017
  %14 = ptrtoint i64* %12 to i64, !llfi_index !1018
  %15 = sub i64 %13, %14, !llfi_index !1019
  %16 = sdiv exact i64 %15, 8, !llfi_index !1020
  store i64 %16, i64* %5, align 8, !llfi_index !1021
  %17 = load i64, i64* %5, align 8, !llfi_index !1022
  %18 = icmp ne i64 %17, 0, !llfi_index !1023
  br i1 %18, label %19, label %34, !llfi_index !1024

19:                                               ; preds = %2
  %20 = load i64*, i64** %4, align 8, !llfi_index !1025
  %21 = bitcast %"class.std::vector"* %6 to %"struct.std::_Vector_base"*, !llfi_index !1026
  %22 = getelementptr inbounds %"struct.std::_Vector_base", %"struct.std::_Vector_base"* %21, i32 0, i32 0, !llfi_index !1027
  %23 = bitcast %"struct.std::_Vector_base<long long, std::allocator<long long>>::_Vector_impl"* %22 to %"struct.std::_Vector_base<long long, std::allocator<long long>>::_Vector_impl_data"*, !llfi_index !1028
  %24 = getelementptr inbounds %"struct.std::_Vector_base<long long, std::allocator<long long>>::_Vector_impl_data", %"struct.std::_Vector_base<long long, std::allocator<long long>>::_Vector_impl_data"* %23, i32 0, i32 1, !llfi_index !1029
  %25 = load i64*, i64** %24, align 8, !llfi_index !1030
  %26 = bitcast %"class.std::vector"* %6 to %"struct.std::_Vector_base"*, !llfi_index !1031
  %27 = call nonnull align 1 dereferenceable(1) %"class.std::allocator"* @_ZNSt12_Vector_baseIxSaIxEE19_M_get_Tp_allocatorEv(%"struct.std::_Vector_base"* nonnull align 8 dereferenceable(24) %26) #2, !llfi_index !1032
  invoke void @_ZSt8_DestroyIPxxEvT_S1_RSaIT0_E(i64* %20, i64* %25, %"class.std::allocator"* nonnull align 1 dereferenceable(1) %27)
          to label %28 unwind label %35, !llfi_index !1033

28:                                               ; preds = %19
  %29 = load i64*, i64** %4, align 8, !llfi_index !1034
  %30 = bitcast %"class.std::vector"* %6 to %"struct.std::_Vector_base"*, !llfi_index !1035
  %31 = getelementptr inbounds %"struct.std::_Vector_base", %"struct.std::_Vector_base"* %30, i32 0, i32 0, !llfi_index !1036
  %32 = bitcast %"struct.std::_Vector_base<long long, std::allocator<long long>>::_Vector_impl"* %31 to %"struct.std::_Vector_base<long long, std::allocator<long long>>::_Vector_impl_data"*, !llfi_index !1037
  %33 = getelementptr inbounds %"struct.std::_Vector_base<long long, std::allocator<long long>>::_Vector_impl_data", %"struct.std::_Vector_base<long long, std::allocator<long long>>::_Vector_impl_data"* %32, i32 0, i32 1, !llfi_index !1038
  store i64* %29, i64** %33, align 8, !llfi_index !1039
  br label %34, !llfi_index !1040

34:                                               ; preds = %28, %2
  ret void, !llfi_index !1041

35:                                               ; preds = %19
  %36 = landingpad { i8*, i32 }
          catch i8* null, !llfi_index !1042
  %37 = extractvalue { i8*, i32 } %36, 0, !llfi_index !1043
  call void @__clang_call_terminate(i8* %37) #13, !llfi_index !1044
  unreachable, !llfi_index !1045
}

attributes #0 = { noinline uwtable "frame-pointer"="all" "min-legal-vector-width"="0" "no-trapping-math"="true" "stack-protector-buffer-size"="8" "target-cpu"="x86-64" "target-features"="+cx8,+fxsr,+mmx,+sse,+sse2,+x87" "tune-cpu"="generic" }
attributes #1 = { noinline nounwind uwtable "frame-pointer"="all" "min-legal-vector-width"="0" "no-trapping-math"="true" "stack-protector-buffer-size"="8" "target-cpu"="x86-64" "target-features"="+cx8,+fxsr,+mmx,+sse,+sse2,+x87" "tune-cpu"="generic" }
attributes #2 = { nounwind }
attributes #3 = { mustprogress noinline nounwind uwtable "frame-pointer"="all" "min-legal-vector-width"="0" "no-trapping-math"="true" "stack-protector-buffer-size"="8" "target-cpu"="x86-64" "target-features"="+cx8,+fxsr,+mmx,+sse,+sse2,+x87" "tune-cpu"="generic" }
attributes #4 = { mustprogress noinline uwtable "frame-pointer"="all" "min-legal-vector-width"="0" "no-trapping-math"="true" "stack-protector-buffer-size"="8" "target-cpu"="x86-64" "target-features"="+cx8,+fxsr,+mmx,+sse,+sse2,+x87" "tune-cpu"="generic" }
attributes #5 = { noinline noreturn nounwind }
attributes #6 = { nobuiltin nounwind "frame-pointer"="all" "no-trapping-math"="true" "stack-protector-buffer-size"="8" "target-cpu"="x86-64" "target-features"="+cx8,+fxsr,+mmx,+sse,+sse2,+x87" "tune-cpu"="generic" }
attributes #7 = { "frame-pointer"="all" "no-trapping-math"="true" "stack-protector-buffer-size"="8" "target-cpu"="x86-64" "target-features"="+cx8,+fxsr,+mmx,+sse,+sse2,+x87" "tune-cpu"="generic" }
attributes #8 = { nounwind "frame-pointer"="all" "no-trapping-math"="true" "stack-protector-buffer-size"="8" "target-cpu"="x86-64" "target-features"="+cx8,+fxsr,+mmx,+sse,+sse2,+x87" "tune-cpu"="generic" }
attributes #9 = { mustprogress noinline norecurse uwtable "frame-pointer"="all" "min-legal-vector-width"="0" "no-trapping-math"="true" "stack-protector-buffer-size"="8" "target-cpu"="x86-64" "target-features"="+cx8,+fxsr,+mmx,+sse,+sse2,+x87" "tune-cpu"="generic" }
attributes #10 = { argmemonly nofree nounwind willreturn }
attributes #11 = { noreturn "frame-pointer"="all" "no-trapping-math"="true" "stack-protector-buffer-size"="8" "target-cpu"="x86-64" "target-features"="+cx8,+fxsr,+mmx,+sse,+sse2,+x87" "tune-cpu"="generic" }
attributes #12 = { nobuiltin allocsize(0) "frame-pointer"="all" "no-trapping-math"="true" "stack-protector-buffer-size"="8" "target-cpu"="x86-64" "target-features"="+cx8,+fxsr,+mmx,+sse,+sse2,+x87" "tune-cpu"="generic" }
attributes #13 = { noreturn nounwind }
attributes #14 = { noreturn }
attributes #15 = { allocsize(0) }

!llvm.ident = !{!0}
!llvm.module.flags = !{!1, !2, !3}

!0 = !{!"clang version 13.0.0 (https://github.com/llvm/llvm-project.git d7b669b3a30345cfcdb2fde2af6f48aa4b94845d)"}
!1 = !{i32 1, !"wchar_size", i32 4}
!2 = !{i32 7, !"uwtable", i32 1}
!3 = !{i32 7, !"frame-pointer", i32 2}
!4 = !{i64 1}
!5 = !{i64 2}
!6 = !{i64 3}
!7 = !{i64 4}
!8 = !{i64 5}
!9 = !{i64 6}
!10 = !{i64 7}
!11 = !{i64 8}
!12 = !{i64 9}
!13 = !{i64 10}
!14 = !{i64 11}
!15 = !{i64 12}
!16 = !{i64 13}
!17 = !{i64 14}
!18 = !{i64 15}
!19 = !{i64 16}
!20 = !{i64 17}
!21 = !{i64 18}
!22 = !{i64 19}
!23 = !{i64 20}
!24 = !{i64 21}
!25 = !{i64 22}
!26 = !{i64 23}
!27 = !{i64 24}
!28 = !{i64 25}
!29 = !{i64 26}
!30 = !{i64 27}
!31 = !{i64 28}
!32 = !{i64 29}
!33 = !{i64 30}
!34 = !{i64 31}
!35 = !{i64 32}
!36 = !{i64 33}
!37 = !{i64 34}
!38 = !{i64 35}
!39 = !{i64 36}
!40 = !{i64 37}
!41 = !{i64 38}
!42 = !{i64 39}
!43 = !{i64 40}
!44 = !{i64 41}
!45 = !{i64 42}
!46 = !{i64 43}
!47 = !{i64 44}
!48 = !{i64 45}
!49 = !{i64 46}
!50 = !{i64 47}
!51 = !{i64 48}
!52 = !{i64 49}
!53 = !{i64 50}
!54 = !{i64 51}
!55 = !{i64 52}
!56 = !{i64 53}
!57 = !{i64 54}
!58 = !{i64 55}
!59 = !{i64 56}
!60 = !{i64 57}
!61 = !{i64 58}
!62 = !{i64 59}
!63 = !{i64 60}
!64 = !{i64 61}
!65 = !{i64 62}
!66 = !{i64 63}
!67 = !{i64 64}
!68 = !{i64 65}
!69 = !{i64 66}
!70 = !{i64 67}
!71 = !{i64 68}
!72 = !{i64 69}
!73 = !{i64 70}
!74 = !{i64 71}
!75 = !{i64 72}
!76 = !{i64 73}
!77 = !{i64 74}
!78 = !{i64 75}
!79 = !{i64 76}
!80 = !{i64 77}
!81 = !{i64 78}
!82 = !{i64 79}
!83 = !{i64 80}
!84 = !{i64 81}
!85 = !{i64 82}
!86 = !{i64 83}
!87 = !{i64 84}
!88 = !{i64 85}
!89 = !{i64 86}
!90 = !{i64 87}
!91 = !{i64 88}
!92 = !{i64 89}
!93 = !{i64 90}
!94 = !{i64 91}
!95 = !{i64 92}
!96 = !{i64 93}
!97 = !{i64 94}
!98 = !{i64 95}
!99 = !{i64 96}
!100 = !{i64 97}
!101 = !{i64 98}
!102 = !{i64 99}
!103 = !{i64 100}
!104 = !{i64 101}
!105 = !{i64 102}
!106 = !{i64 103}
!107 = !{i64 104}
!108 = !{i64 105}
!109 = !{i64 106}
!110 = !{i64 107}
!111 = !{i64 108}
!112 = !{i64 109}
!113 = !{i64 110}
!114 = !{i64 111}
!115 = !{i64 112}
!116 = !{i64 113}
!117 = !{i64 114}
!118 = !{i64 115}
!119 = !{i64 116}
!120 = !{i64 117}
!121 = !{i64 118}
!122 = !{i64 119}
!123 = !{i64 120}
!124 = !{i64 121}
!125 = !{i64 122}
!126 = !{i64 123}
!127 = !{i64 124}
!128 = !{i64 125}
!129 = !{i64 126}
!130 = !{i64 127}
!131 = !{i64 128}
!132 = !{i64 129}
!133 = !{i64 130}
!134 = !{i64 131}
!135 = !{i64 132}
!136 = !{i64 133}
!137 = !{i64 134}
!138 = !{i64 135}
!139 = !{i64 136}
!140 = !{i64 137}
!141 = !{i64 138}
!142 = !{i64 139}
!143 = !{i64 140}
!144 = !{i64 141}
!145 = !{i64 142}
!146 = !{i64 143}
!147 = !{i64 144}
!148 = !{i64 145}
!149 = !{i64 146}
!150 = !{i64 147}
!151 = !{i64 148}
!152 = !{i64 149}
!153 = !{i64 150}
!154 = !{i64 151}
!155 = !{i64 152}
!156 = !{i64 153}
!157 = !{i64 154}
!158 = !{i64 155}
!159 = !{i64 156}
!160 = !{i64 157}
!161 = !{i64 158}
!162 = !{i64 159}
!163 = !{i64 160}
!164 = !{i64 161}
!165 = !{i64 162}
!166 = !{i64 163}
!167 = !{i64 164}
!168 = !{i64 165}
!169 = !{i64 166}
!170 = !{i64 167}
!171 = !{i64 168}
!172 = !{i64 169}
!173 = !{i64 170}
!174 = !{i64 171}
!175 = !{i64 172}
!176 = !{i64 173}
!177 = !{i64 174}
!178 = !{i64 175}
!179 = !{i64 176}
!180 = !{i64 177}
!181 = !{i64 178}
!182 = !{i64 179}
!183 = !{i64 180}
!184 = !{i64 181}
!185 = !{i64 182}
!186 = !{i64 183}
!187 = !{i64 184}
!188 = !{i64 185}
!189 = !{i64 186}
!190 = !{i64 187}
!191 = !{i64 188}
!192 = !{i64 189}
!193 = !{i64 190}
!194 = !{i64 191}
!195 = !{i64 192}
!196 = !{i64 193}
!197 = !{i64 194}
!198 = !{i64 195}
!199 = !{i64 196}
!200 = !{i64 197}
!201 = !{i64 198}
!202 = !{i64 199}
!203 = !{i64 200}
!204 = !{i64 201}
!205 = !{i64 202}
!206 = !{i64 203}
!207 = !{i64 204}
!208 = !{i64 205}
!209 = !{i64 206}
!210 = !{i64 207}
!211 = !{i64 208}
!212 = !{i64 209}
!213 = !{i64 210}
!214 = !{i64 211}
!215 = !{i64 212}
!216 = !{i64 213}
!217 = !{i64 214}
!218 = !{i64 215}
!219 = !{i64 216}
!220 = !{i64 217}
!221 = !{i64 218}
!222 = !{i64 219}
!223 = !{i64 220}
!224 = !{i64 221}
!225 = !{i64 222}
!226 = !{i64 223}
!227 = !{i64 224}
!228 = !{i64 225}
!229 = !{i64 226}
!230 = !{i64 227}
!231 = !{i64 228}
!232 = !{i64 229}
!233 = !{i64 230}
!234 = !{i64 231}
!235 = !{i64 232}
!236 = !{i64 233}
!237 = !{i64 234}
!238 = !{i64 235}
!239 = !{i64 236}
!240 = !{i64 237}
!241 = !{i64 238}
!242 = !{i64 239}
!243 = !{i64 240}
!244 = !{i64 241}
!245 = !{i64 242}
!246 = !{i64 243}
!247 = !{i64 244}
!248 = !{i64 245}
!249 = !{i64 246}
!250 = !{i64 247}
!251 = !{i64 248}
!252 = !{i64 249}
!253 = !{i64 250}
!254 = !{i64 251}
!255 = !{i64 252}
!256 = !{i64 253}
!257 = !{i64 254}
!258 = !{i64 255}
!259 = !{i64 256}
!260 = !{i64 257}
!261 = !{i64 258}
!262 = !{i64 259}
!263 = !{i64 260}
!264 = !{i64 261}
!265 = !{i64 262}
!266 = !{i64 263}
!267 = !{i64 264}
!268 = !{i64 265}
!269 = !{i64 266}
!270 = !{i64 267}
!271 = !{i64 268}
!272 = !{i64 269}
!273 = !{i64 270}
!274 = !{i64 271}
!275 = !{i64 272}
!276 = !{i64 273}
!277 = !{i64 274}
!278 = !{i64 275}
!279 = !{i64 276}
!280 = !{i64 277}
!281 = !{i64 278}
!282 = !{i64 279}
!283 = !{i64 280}
!284 = !{i64 281}
!285 = !{i64 282}
!286 = !{i64 283}
!287 = !{i64 284}
!288 = !{i64 285}
!289 = !{i64 286}
!290 = !{i64 287}
!291 = !{i64 288}
!292 = !{i64 289}
!293 = !{i64 290}
!294 = !{i64 291}
!295 = !{i64 292}
!296 = !{i64 293}
!297 = !{i64 294}
!298 = !{i64 295}
!299 = !{i64 296}
!300 = !{i64 297}
!301 = !{i64 298}
!302 = !{i64 299}
!303 = !{i64 300}
!304 = !{i64 301}
!305 = !{i64 302}
!306 = !{i64 303}
!307 = !{i64 304}
!308 = !{i64 305}
!309 = !{i64 306}
!310 = !{i64 307}
!311 = !{i64 308}
!312 = !{i64 309}
!313 = !{i64 310}
!314 = !{i64 311}
!315 = !{i64 312}
!316 = !{i64 313}
!317 = !{i64 314}
!318 = !{i64 315}
!319 = !{i64 316}
!320 = !{i64 317}
!321 = !{i64 318}
!322 = !{i64 319}
!323 = !{i64 320}
!324 = !{i64 321}
!325 = !{i64 322}
!326 = !{i64 323}
!327 = !{i64 324}
!328 = !{i64 325}
!329 = !{i64 326}
!330 = !{i64 327}
!331 = !{i64 328}
!332 = !{i64 329}
!333 = !{i64 330}
!334 = !{i64 331}
!335 = !{i64 332}
!336 = !{i64 333}
!337 = !{i64 334}
!338 = !{i64 335}
!339 = !{i64 336}
!340 = distinct !{!340, !341}
!341 = !{!"llvm.loop.mustprogress"}
!342 = !{i64 337}
!343 = !{i64 338}
!344 = !{i64 339}
!345 = !{i64 340}
!346 = !{i64 341}
!347 = !{i64 342}
!348 = !{i64 343}
!349 = !{i64 344}
!350 = !{i64 345}
!351 = !{i64 346}
!352 = !{i64 347}
!353 = !{i64 348}
!354 = !{i64 349}
!355 = !{i64 350}
!356 = !{i64 351}
!357 = !{i64 352}
!358 = !{i64 353}
!359 = !{i64 354}
!360 = !{i64 355}
!361 = !{i64 356}
!362 = !{i64 357}
!363 = !{i64 358}
!364 = !{i64 359}
!365 = !{i64 360}
!366 = !{i64 361}
!367 = !{i64 362}
!368 = !{i64 363}
!369 = !{i64 364}
!370 = !{i64 365}
!371 = !{i64 366}
!372 = !{i64 367}
!373 = !{i64 368}
!374 = !{i64 369}
!375 = !{i64 370}
!376 = !{i64 371}
!377 = !{i64 372}
!378 = !{i64 373}
!379 = !{i64 374}
!380 = !{i64 375}
!381 = !{i64 376}
!382 = !{i64 377}
!383 = !{i64 378}
!384 = !{i64 379}
!385 = !{i64 380}
!386 = !{i64 381}
!387 = !{i64 382}
!388 = !{i64 383}
!389 = !{i64 384}
!390 = !{i64 385}
!391 = !{i64 386}
!392 = !{i64 387}
!393 = !{i64 388}
!394 = !{i64 389}
!395 = distinct !{!395, !341}
!396 = !{i64 390}
!397 = !{i64 391}
!398 = !{i64 392}
!399 = !{i64 393}
!400 = !{i64 394}
!401 = !{i64 395}
!402 = !{i64 396}
!403 = !{i64 397}
!404 = !{i64 398}
!405 = !{i64 399}
!406 = !{i64 400}
!407 = !{i64 401}
!408 = !{i64 402}
!409 = !{i64 403}
!410 = !{i64 404}
!411 = !{i64 405}
!412 = !{i64 406}
!413 = !{i64 407}
!414 = !{i64 408}
!415 = !{i64 409}
!416 = !{i64 410}
!417 = !{i64 411}
!418 = !{i64 412}
!419 = !{i64 413}
!420 = !{i64 414}
!421 = !{i64 415}
!422 = !{i64 416}
!423 = !{i64 417}
!424 = !{i64 418}
!425 = !{i64 419}
!426 = !{i64 420}
!427 = !{i64 421}
!428 = !{i64 422}
!429 = !{i64 423}
!430 = !{i64 424}
!431 = !{i64 425}
!432 = !{i64 426}
!433 = !{i64 427}
!434 = !{i64 428}
!435 = !{i64 429}
!436 = !{i64 430}
!437 = !{i64 431}
!438 = !{i64 432}
!439 = !{i64 433}
!440 = !{i64 434}
!441 = !{i64 435}
!442 = !{i64 436}
!443 = !{i64 437}
!444 = !{i64 438}
!445 = !{i64 439}
!446 = !{i64 440}
!447 = !{i64 441}
!448 = !{i64 442}
!449 = !{i64 443}
!450 = !{i64 444}
!451 = !{i64 445}
!452 = !{i64 446}
!453 = !{i64 447}
!454 = !{i64 448}
!455 = !{i64 449}
!456 = !{i64 450}
!457 = !{i64 451}
!458 = !{i64 452}
!459 = !{i64 453}
!460 = !{i64 454}
!461 = !{i64 455}
!462 = !{i64 456}
!463 = !{i64 457}
!464 = !{i64 458}
!465 = !{i64 459}
!466 = !{i64 460}
!467 = !{i64 461}
!468 = !{i64 462}
!469 = !{i64 463}
!470 = !{i64 464}
!471 = !{i64 465}
!472 = !{i64 466}
!473 = !{i64 467}
!474 = !{i64 468}
!475 = distinct !{!475, !341}
!476 = !{i64 469}
!477 = !{i64 470}
!478 = !{i64 471}
!479 = !{i64 472}
!480 = !{i64 473}
!481 = !{i64 474}
!482 = !{i64 475}
!483 = !{i64 476}
!484 = !{i64 477}
!485 = !{i64 478}
!486 = distinct !{!486, !341}
!487 = !{i64 479}
!488 = !{i64 480}
!489 = !{i64 481}
!490 = !{i64 482}
!491 = !{i64 483}
!492 = !{i64 484}
!493 = !{i64 485}
!494 = !{i64 486}
!495 = !{i64 487}
!496 = !{i64 488}
!497 = !{i64 489}
!498 = !{i64 490}
!499 = !{i64 491}
!500 = !{i64 492}
!501 = !{i64 493}
!502 = !{i64 494}
!503 = !{i64 495}
!504 = !{i64 496}
!505 = !{i64 497}
!506 = !{i64 498}
!507 = !{i64 499}
!508 = !{i64 500}
!509 = !{i64 501}
!510 = !{i64 502}
!511 = !{i64 503}
!512 = !{i64 504}
!513 = !{i64 505}
!514 = !{i64 506}
!515 = !{i64 507}
!516 = !{i64 508}
!517 = !{i64 509}
!518 = !{i64 510}
!519 = !{i64 511}
!520 = !{i64 512}
!521 = !{i64 513}
!522 = !{i64 514}
!523 = !{i64 515}
!524 = !{i64 516}
!525 = !{i64 517}
!526 = !{i64 518}
!527 = !{i64 519}
!528 = !{i64 520}
!529 = !{i64 521}
!530 = !{i64 522}
!531 = !{i64 523}
!532 = !{i64 524}
!533 = !{i64 525}
!534 = !{i64 526}
!535 = !{i64 527}
!536 = !{i64 528}
!537 = !{i64 529}
!538 = !{i64 530}
!539 = !{i64 531}
!540 = !{i64 532}
!541 = !{i64 533}
!542 = !{i64 534}
!543 = !{i64 535}
!544 = !{i64 536}
!545 = !{i64 537}
!546 = !{i64 538}
!547 = !{i64 539}
!548 = !{i64 540}
!549 = !{i64 541}
!550 = !{i64 542}
!551 = !{i64 543}
!552 = !{i64 544}
!553 = !{i64 545}
!554 = !{i64 546}
!555 = !{i64 547}
!556 = !{i64 548}
!557 = !{i64 549}
!558 = !{i64 550}
!559 = !{i64 551}
!560 = !{i64 552}
!561 = !{i64 553}
!562 = !{i64 554}
!563 = !{i64 555}
!564 = !{i64 556}
!565 = !{i64 557}
!566 = !{i64 558}
!567 = !{i64 559}
!568 = !{i64 560}
!569 = !{i64 561}
!570 = !{i64 562}
!571 = !{i64 563}
!572 = !{i64 564}
!573 = !{i64 565}
!574 = !{i64 566}
!575 = !{i64 567}
!576 = !{i64 568}
!577 = !{i64 569}
!578 = !{i64 570}
!579 = !{i64 571}
!580 = !{i64 572}
!581 = !{i64 573}
!582 = !{i64 574}
!583 = !{i64 575}
!584 = !{i64 576}
!585 = !{i64 577}
!586 = !{i64 578}
!587 = !{i64 579}
!588 = !{i64 580}
!589 = !{i64 581}
!590 = !{i64 582}
!591 = !{i64 583}
!592 = !{i64 584}
!593 = !{i64 585}
!594 = !{i64 586}
!595 = !{i64 587}
!596 = !{i64 588}
!597 = !{i64 589}
!598 = !{i64 590}
!599 = !{i64 591}
!600 = !{i64 592}
!601 = !{i64 593}
!602 = !{i64 594}
!603 = !{i64 595}
!604 = !{i64 596}
!605 = !{i64 597}
!606 = !{i64 598}
!607 = !{i64 599}
!608 = !{i64 600}
!609 = !{i64 601}
!610 = !{i64 602}
!611 = !{i64 603}
!612 = !{i64 604}
!613 = !{i64 605}
!614 = !{i64 606}
!615 = !{i64 607}
!616 = !{i64 608}
!617 = !{i64 609}
!618 = !{i64 610}
!619 = !{i64 611}
!620 = !{i64 612}
!621 = !{i64 613}
!622 = !{i64 614}
!623 = !{i64 615}
!624 = !{i64 616}
!625 = !{i64 617}
!626 = !{i64 618}
!627 = !{i64 619}
!628 = !{i64 620}
!629 = !{i64 621}
!630 = !{i64 622}
!631 = !{i64 623}
!632 = !{i64 624}
!633 = !{i64 625}
!634 = !{i64 626}
!635 = !{i64 627}
!636 = !{i64 628}
!637 = !{i64 629}
!638 = !{i64 630}
!639 = !{i64 631}
!640 = !{i64 632}
!641 = !{i64 633}
!642 = !{i64 634}
!643 = !{i64 635}
!644 = !{i64 636}
!645 = !{i64 637}
!646 = !{i64 638}
!647 = !{i64 639}
!648 = !{i64 640}
!649 = !{i64 641}
!650 = !{i64 642}
!651 = !{i64 643}
!652 = !{i64 644}
!653 = !{i64 645}
!654 = !{i64 646}
!655 = !{i64 647}
!656 = !{i64 648}
!657 = !{i64 649}
!658 = !{i64 650}
!659 = !{i64 651}
!660 = !{i64 652}
!661 = !{i64 653}
!662 = !{i64 654}
!663 = !{i64 655}
!664 = !{i64 656}
!665 = !{i64 657}
!666 = !{i64 658}
!667 = !{i64 659}
!668 = !{i64 660}
!669 = !{i64 661}
!670 = !{i64 662}
!671 = !{i64 663}
!672 = !{i64 664}
!673 = !{i64 665}
!674 = !{i64 666}
!675 = !{i64 667}
!676 = !{i64 668}
!677 = !{i64 669}
!678 = !{i64 670}
!679 = !{i64 671}
!680 = !{i64 672}
!681 = !{i64 673}
!682 = !{i64 674}
!683 = !{i64 675}
!684 = !{i64 676}
!685 = !{i64 677}
!686 = !{i64 678}
!687 = !{i64 679}
!688 = !{i64 680}
!689 = !{i64 681}
!690 = !{i64 682}
!691 = !{i64 683}
!692 = !{i64 684}
!693 = !{i64 685}
!694 = !{i64 686}
!695 = !{i64 687}
!696 = !{i64 688}
!697 = !{i64 689}
!698 = !{i64 690}
!699 = !{i64 691}
!700 = !{i64 692}
!701 = !{i64 693}
!702 = !{i64 694}
!703 = !{i64 695}
!704 = !{i64 696}
!705 = !{i64 697}
!706 = !{i64 698}
!707 = !{i64 699}
!708 = !{i64 700}
!709 = !{i64 701}
!710 = !{i64 702}
!711 = !{i64 703}
!712 = !{i64 704}
!713 = !{i64 705}
!714 = !{i64 706}
!715 = !{i64 707}
!716 = !{i64 708}
!717 = !{i64 709}
!718 = !{i64 710}
!719 = !{i64 711}
!720 = !{i64 712}
!721 = !{i64 713}
!722 = !{i64 714}
!723 = !{i64 715}
!724 = !{i64 716}
!725 = !{i64 717}
!726 = !{i64 718}
!727 = !{i64 719}
!728 = !{i64 720}
!729 = !{i64 721}
!730 = !{i64 722}
!731 = !{i64 723}
!732 = !{i64 724}
!733 = !{i64 725}
!734 = !{i64 726}
!735 = !{i64 727}
!736 = !{i64 728}
!737 = !{i64 729}
!738 = !{i64 730}
!739 = !{i64 731}
!740 = !{i64 732}
!741 = !{i64 733}
!742 = !{i64 734}
!743 = !{i64 735}
!744 = !{i64 736}
!745 = !{i64 737}
!746 = !{i64 738}
!747 = !{i64 739}
!748 = !{i64 740}
!749 = !{i64 741}
!750 = !{i64 742}
!751 = !{i64 743}
!752 = !{i64 744}
!753 = !{i64 745}
!754 = !{i64 746}
!755 = !{i64 747}
!756 = !{i64 748}
!757 = !{i64 749}
!758 = !{i64 750}
!759 = !{i64 751}
!760 = !{i64 752}
!761 = !{i64 753}
!762 = !{i64 754}
!763 = !{i64 755}
!764 = !{i64 756}
!765 = !{i64 757}
!766 = !{i64 758}
!767 = !{i64 759}
!768 = !{i64 760}
!769 = !{i64 761}
!770 = !{i64 762}
!771 = !{i64 763}
!772 = !{i64 764}
!773 = !{i64 765}
!774 = !{i64 766}
!775 = !{i64 767}
!776 = !{i64 768}
!777 = !{i64 769}
!778 = !{i64 770}
!779 = !{i64 771}
!780 = !{i64 772}
!781 = !{i64 773}
!782 = !{i64 774}
!783 = !{i64 775}
!784 = !{i64 776}
!785 = !{i64 777}
!786 = !{i64 778}
!787 = !{i64 779}
!788 = !{i64 780}
!789 = !{i64 781}
!790 = !{i64 782}
!791 = !{i64 783}
!792 = !{i64 784}
!793 = !{i64 785}
!794 = !{i64 786}
!795 = !{i64 787}
!796 = !{i64 788}
!797 = !{i64 789}
!798 = !{i64 790}
!799 = !{i64 791}
!800 = !{i64 792}
!801 = !{i64 793}
!802 = !{i64 794}
!803 = !{i64 795}
!804 = !{i64 796}
!805 = !{i64 797}
!806 = !{i64 798}
!807 = !{i64 799}
!808 = !{i64 800}
!809 = !{i64 801}
!810 = !{i64 802}
!811 = !{i64 803}
!812 = !{i64 804}
!813 = !{i64 805}
!814 = !{i64 806}
!815 = !{i64 807}
!816 = !{i64 808}
!817 = !{i64 809}
!818 = !{i64 810}
!819 = !{i64 811}
!820 = !{i64 812}
!821 = !{i64 813}
!822 = !{i64 814}
!823 = !{i64 815}
!824 = !{i64 816}
!825 = !{i64 817}
!826 = !{i64 818}
!827 = !{i64 819}
!828 = !{i64 820}
!829 = !{i64 821}
!830 = !{i64 822}
!831 = !{i64 823}
!832 = !{i64 824}
!833 = !{i64 825}
!834 = !{i64 826}
!835 = !{i64 827}
!836 = !{i64 828}
!837 = !{i64 829}
!838 = !{i64 830}
!839 = !{i64 831}
!840 = !{i64 832}
!841 = !{i64 833}
!842 = !{i64 834}
!843 = !{i64 835}
!844 = !{i64 836}
!845 = !{i64 837}
!846 = !{i64 838}
!847 = !{i64 839}
!848 = !{i64 840}
!849 = !{i64 841}
!850 = !{i64 842}
!851 = !{i64 843}
!852 = !{i64 844}
!853 = !{i64 845}
!854 = !{i64 846}
!855 = !{i64 847}
!856 = !{i64 848}
!857 = !{i64 849}
!858 = !{i64 850}
!859 = !{i64 851}
!860 = !{i64 852}
!861 = !{i64 853}
!862 = !{i64 854}
!863 = !{i64 855}
!864 = !{i64 856}
!865 = !{i64 857}
!866 = !{i64 858}
!867 = !{i64 859}
!868 = !{i64 860}
!869 = !{i64 861}
!870 = !{i64 862}
!871 = !{i64 863}
!872 = !{i64 864}
!873 = !{i64 865}
!874 = !{i64 866}
!875 = !{i64 867}
!876 = !{i64 868}
!877 = !{i64 869}
!878 = !{i64 870}
!879 = !{i64 871}
!880 = !{i64 872}
!881 = !{i64 873}
!882 = !{i64 874}
!883 = !{i64 875}
!884 = !{i64 876}
!885 = !{i64 877}
!886 = !{i64 878}
!887 = !{i64 879}
!888 = !{i64 880}
!889 = !{i64 881}
!890 = !{i64 882}
!891 = !{i64 883}
!892 = !{i64 884}
!893 = !{i64 885}
!894 = !{i64 886}
!895 = !{i64 887}
!896 = !{i64 888}
!897 = !{i64 889}
!898 = !{i64 890}
!899 = !{i64 891}
!900 = !{i64 892}
!901 = !{i64 893}
!902 = !{i64 894}
!903 = !{i64 895}
!904 = !{i64 896}
!905 = !{i64 897}
!906 = !{i64 898}
!907 = !{i64 899}
!908 = !{i64 900}
!909 = !{i64 901}
!910 = !{i64 902}
!911 = !{i64 903}
!912 = !{i64 904}
!913 = !{i64 905}
!914 = !{i64 906}
!915 = !{i64 907}
!916 = !{i64 908}
!917 = !{i64 909}
!918 = !{i64 910}
!919 = !{i64 911}
!920 = !{i64 912}
!921 = !{i64 913}
!922 = !{i64 914}
!923 = !{i64 915}
!924 = !{i64 916}
!925 = !{i64 917}
!926 = !{i64 918}
!927 = !{i64 919}
!928 = !{i64 920}
!929 = !{i64 921}
!930 = !{i64 922}
!931 = !{i64 923}
!932 = !{i64 924}
!933 = !{i64 925}
!934 = !{i64 926}
!935 = !{i64 927}
!936 = !{i64 928}
!937 = !{i64 929}
!938 = !{i64 930}
!939 = !{i64 931}
!940 = !{i64 932}
!941 = !{i64 933}
!942 = !{i64 934}
!943 = !{i64 935}
!944 = !{i64 936}
!945 = !{i64 937}
!946 = !{i64 938}
!947 = !{i64 939}
!948 = !{i64 940}
!949 = !{i64 941}
!950 = !{i64 942}
!951 = !{i64 943}
!952 = !{i64 944}
!953 = !{i64 945}
!954 = !{i64 946}
!955 = !{i64 947}
!956 = !{i64 948}
!957 = !{i64 949}
!958 = !{i64 950}
!959 = !{i64 951}
!960 = !{i64 952}
!961 = !{i64 953}
!962 = !{i64 954}
!963 = !{i64 955}
!964 = !{i64 956}
!965 = !{i64 957}
!966 = !{i64 958}
!967 = !{i64 959}
!968 = !{i64 960}
!969 = !{i64 961}
!970 = !{i64 962}
!971 = !{i64 963}
!972 = !{i64 964}
!973 = !{i64 965}
!974 = !{i64 966}
!975 = !{i64 967}
!976 = !{i64 968}
!977 = !{i64 969}
!978 = !{i64 970}
!979 = !{i64 971}
!980 = !{i64 972}
!981 = !{i64 973}
!982 = !{i64 974}
!983 = !{i64 975}
!984 = !{i64 976}
!985 = !{i64 977}
!986 = !{i64 978}
!987 = !{i64 979}
!988 = !{i64 980}
!989 = !{i64 981}
!990 = !{i64 982}
!991 = !{i64 983}
!992 = !{i64 984}
!993 = !{i64 985}
!994 = !{i64 986}
!995 = !{i64 987}
!996 = !{i64 988}
!997 = !{i64 989}
!998 = !{i64 990}
!999 = !{i64 991}
!1000 = !{i64 992}
!1001 = !{i64 993}
!1002 = !{i64 994}
!1003 = !{i64 995}
!1004 = !{i64 996}
!1005 = !{i64 997}
!1006 = !{i64 998}
!1007 = !{i64 999}
!1008 = !{i64 1000}
!1009 = !{i64 1001}
!1010 = !{i64 1002}
!1011 = !{i64 1003}
!1012 = !{i64 1004}
!1013 = !{i64 1005}
!1014 = !{i64 1006}
!1015 = !{i64 1007}
!1016 = !{i64 1008}
!1017 = !{i64 1009}
!1018 = !{i64 1010}
!1019 = !{i64 1011}
!1020 = !{i64 1012}
!1021 = !{i64 1013}
!1022 = !{i64 1014}
!1023 = !{i64 1015}
!1024 = !{i64 1016}
!1025 = !{i64 1017}
!1026 = !{i64 1018}
!1027 = !{i64 1019}
!1028 = !{i64 1020}
!1029 = !{i64 1021}
!1030 = !{i64 1022}
!1031 = !{i64 1023}
!1032 = !{i64 1024}
!1033 = !{i64 1025}
!1034 = !{i64 1026}
!1035 = !{i64 1027}
!1036 = !{i64 1028}
!1037 = !{i64 1029}
!1038 = !{i64 1030}
!1039 = !{i64 1031}
!1040 = !{i64 1032}
!1041 = !{i64 1033}
!1042 = !{i64 1034}
!1043 = !{i64 1035}
!1044 = !{i64 1036}
!1045 = !{i64 1037}
