; ModuleID = '/home/hjiang/Computation-Kernel-Dataset/experiments/Fault_injection_0308_parall/O0/icecreamparlour/icecreamparlour.ll'
source_filename = "llvm-link"
target datalayout = "e-m:e-p270:32:32-p271:32:32-p272:64:64-i64:64-f80:128-n8:16:32:64-S128"
target triple = "x86_64-unknown-linux-gnu"

%"class.std::ios_base::Init" = type { i8 }
%struct._IO_FILE = type { i32, i8*, i8*, i8*, i8*, i8*, i8*, i8*, i8*, i8*, i8*, i8*, %struct._IO_marker*, %struct._IO_FILE*, i32, i32, i64, i16, i8, [1 x i8], i8*, i64, %struct._IO_codecvt*, %struct._IO_wide_data*, %struct._IO_FILE*, i8*, i64, i32, [20 x i8] }
%struct._IO_marker = type opaque
%struct._IO_codecvt = type opaque
%struct._IO_wide_data = type opaque
%"class.std::basic_istream" = type { i32 (...)**, i64, %"class.std::basic_ios" }
%"class.std::basic_ios" = type { %"class.std::ios_base", %"class.std::basic_ostream"*, i8, i8, %"class.std::basic_streambuf"*, %"class.std::ctype"*, %"class.std::num_put"*, %"class.std::num_put"* }
%"class.std::ios_base" = type { i32 (...)**, i64, i64, i32, i32, i32, %"struct.std::ios_base::_Callback_list"*, %"struct.std::ios_base::_Words", [8 x %"struct.std::ios_base::_Words"], i32, %"struct.std::ios_base::_Words"*, %"class.std::locale" }
%"struct.std::ios_base::_Callback_list" = type { %"struct.std::ios_base::_Callback_list"*, void (i32, %"class.std::ios_base"*, i32)*, i32, i32 }
%"struct.std::ios_base::_Words" = type { i8*, i64 }
%"class.std::locale" = type { %"class.std::locale::_Impl"* }
%"class.std::locale::_Impl" = type { i32, %"class.std::locale::facet"**, i64, %"class.std::locale::facet"**, i8** }
%"class.std::locale::facet" = type <{ i32 (...)**, i32, [4 x i8] }>
%"class.std::basic_ostream" = type { i32 (...)**, %"class.std::basic_ios" }
%"class.std::basic_streambuf" = type { i32 (...)**, i8*, i8*, i8*, i8*, i8*, i8*, %"class.std::locale" }
%"class.std::ctype" = type <{ %"class.std::locale::facet.base", [4 x i8], %struct.__locale_struct*, i8, [7 x i8], i32*, i32*, i16*, i8, [256 x i8], [256 x i8], i8, [6 x i8] }>
%"class.std::locale::facet.base" = type <{ i32 (...)**, i32 }>
%struct.__locale_struct = type { [13 x %struct.__locale_data*], i16*, i32*, i32*, [13 x i8*] }
%struct.__locale_data = type opaque
%"class.std::num_put" = type { %"class.std::locale::facet.base", [4 x i8] }

$_ZSt4sortIPiEvT_S1_ = comdat any

$_ZN9__gnu_cxx5__ops16__iter_less_iterEv = comdat any

$_ZSt6__sortIPiN9__gnu_cxx5__ops15_Iter_less_iterEEvT_S4_T0_ = comdat any

$_ZSt4__lgl = comdat any

$_ZSt16__introsort_loopIPilN9__gnu_cxx5__ops15_Iter_less_iterEEvT_S4_T0_T1_ = comdat any

$_ZSt22__final_insertion_sortIPiN9__gnu_cxx5__ops15_Iter_less_iterEEvT_S4_T0_ = comdat any

$_ZSt16__insertion_sortIPiN9__gnu_cxx5__ops15_Iter_less_iterEEvT_S4_T0_ = comdat any

$_ZSt26__unguarded_insertion_sortIPiN9__gnu_cxx5__ops15_Iter_less_iterEEvT_S4_T0_ = comdat any

$_ZN9__gnu_cxx5__ops15__val_comp_iterENS0_15_Iter_less_iterE = comdat any

$_ZSt25__unguarded_linear_insertIPiN9__gnu_cxx5__ops14_Val_less_iterEEvT_T0_ = comdat any

$_ZSt4moveIRiEONSt16remove_referenceIT_E4typeEOS2_ = comdat any

$_ZNK9__gnu_cxx5__ops14_Val_less_iterclIiPiEEbRT_T0_ = comdat any

$_ZNK9__gnu_cxx5__ops15_Iter_less_iterclIPiS3_EEbT_T0_ = comdat any

$_ZSt13move_backwardIPiS0_ET0_T_S2_S1_ = comdat any

$_ZSt12__miter_baseIPiET_S1_ = comdat any

$_ZSt23__copy_move_backward_a2ILb1EPiS0_ET1_T0_S2_S1_ = comdat any

$_ZSt12__niter_baseIPiET_S1_ = comdat any

$_ZSt22__copy_move_backward_aILb1EPiS0_ET1_T0_S2_S1_ = comdat any

$_ZSt12__niter_wrapIPiET_RKS1_S1_ = comdat any

$_ZNSt20__copy_move_backwardILb1ELb1ESt26random_access_iterator_tagE13__copy_move_bIiEEPT_PKS3_S6_S4_ = comdat any

$_ZSt14__partial_sortIPiN9__gnu_cxx5__ops15_Iter_less_iterEEvT_S4_S4_T0_ = comdat any

$_ZSt27__unguarded_partition_pivotIPiN9__gnu_cxx5__ops15_Iter_less_iterEET_S4_S4_T0_ = comdat any

$_ZSt22__move_median_to_firstIPiN9__gnu_cxx5__ops15_Iter_less_iterEEvT_S4_S4_S4_T0_ = comdat any

$_ZSt21__unguarded_partitionIPiN9__gnu_cxx5__ops15_Iter_less_iterEET_S4_S4_S4_T0_ = comdat any

$_ZSt9iter_swapIPiS0_EvT_T0_ = comdat any

$_ZSt4swapIiENSt9enable_ifIXsr6__and_ISt6__not_ISt15__is_tuple_likeIT_EESt21is_move_constructibleIS3_ESt18is_move_assignableIS3_EEE5valueEvE4typeERS3_SC_ = comdat any

$_ZSt13__heap_selectIPiN9__gnu_cxx5__ops15_Iter_less_iterEEvT_S4_S4_T0_ = comdat any

$_ZSt11__sort_heapIPiN9__gnu_cxx5__ops15_Iter_less_iterEEvT_S4_RT0_ = comdat any

$_ZSt10__pop_heapIPiN9__gnu_cxx5__ops15_Iter_less_iterEEvT_S4_S4_RT0_ = comdat any

$_ZSt13__adjust_heapIPiliN9__gnu_cxx5__ops15_Iter_less_iterEEvT_T0_S5_T1_T2_ = comdat any

$_ZSt4moveIRN9__gnu_cxx5__ops15_Iter_less_iterEEONSt16remove_referenceIT_E4typeEOS5_ = comdat any

$_ZN9__gnu_cxx5__ops14_Iter_less_valC2ENS0_15_Iter_less_iterE = comdat any

$_ZSt11__push_heapIPiliN9__gnu_cxx5__ops14_Iter_less_valEEvT_T0_S5_T1_RT2_ = comdat any

$_ZNK9__gnu_cxx5__ops14_Iter_less_valclIPiiEEbT_RT0_ = comdat any

$_ZSt11__make_heapIPiN9__gnu_cxx5__ops15_Iter_less_iterEEvT_S4_RT0_ = comdat any

@llvm.global_ctors = appending global [1 x { i32, void ()*, i8* }] [{ i32, void ()*, i8* } { i32 65535, void ()* @_GLOBAL__sub_I_icecreamparlour.cpp, i8* null }]
@_ZStL8__ioinit = internal global %"class.std::ios_base::Init" zeroinitializer, align 1
@.str = private unnamed_addr constant [31 x i8] c"../input_files/icecreamparlour\00", align 1
@.str.1 = private unnamed_addr constant [2 x i8] c"r\00", align 1
@stdin = external dso_local global %struct._IO_FILE*, align 8
@_ZSt3cin = external dso_local global %"class.std::basic_istream", align 8
@_ZSt4cout = external dso_local global %"class.std::basic_ostream", align 8
@.str.2 = private unnamed_addr constant [2 x i8] c" \00", align 1

; Function Attrs: noinline uwtable
define internal void @_GLOBAL__sub_I_icecreamparlour.cpp() #0 section ".text.startup" {
  call void @__cxx_global_var_init(), !llfi_index !4
  ret void, !llfi_index !5
}

; Function Attrs: noinline uwtable
define internal void @__cxx_global_var_init() #0 section ".text.startup" {
  call void @_ZNSt8ios_base4InitC1Ev(%"class.std::ios_base::Init"* nonnull align 1 dereferenceable(1) @_ZStL8__ioinit), !llfi_index !6
  %1 = call i32 @atexit(void ()* @__dtor__ZStL8__ioinit) #2, !llfi_index !7
  ret void, !llfi_index !8
}

declare dso_local void @_ZNSt8ios_base4InitC1Ev(%"class.std::ios_base::Init"* nonnull align 1 dereferenceable(1)) unnamed_addr #1

; Function Attrs: noinline uwtable
define internal void @__dtor__ZStL8__ioinit() #0 section ".text.startup" {
  call void @_ZNSt8ios_base4InitD1Ev(%"class.std::ios_base::Init"* @_ZStL8__ioinit), !llfi_index !9
  ret void, !llfi_index !10
}

; Function Attrs: nounwind
declare dso_local i32 @atexit(void ()*) #2

; Function Attrs: nounwind
declare dso_local void @_ZNSt8ios_base4InitD1Ev(%"class.std::ios_base::Init"* nonnull align 1 dereferenceable(1)) unnamed_addr #3

; Function Attrs: mustprogress noinline norecurse uwtable
define dso_local i32 @main() #4 {
  %1 = alloca i32, align 4, !llfi_index !11
  %2 = alloca i32, align 4, !llfi_index !12
  %3 = alloca i32, align 4, !llfi_index !13
  %4 = alloca i32, align 4, !llfi_index !14
  %5 = alloca i32, align 4, !llfi_index !15
  %6 = alloca i32*, align 8, !llfi_index !16
  %7 = alloca i32*, align 8, !llfi_index !17
  %8 = alloca i32, align 4, !llfi_index !18
  %9 = alloca i32, align 4, !llfi_index !19
  %10 = alloca i32, align 4, !llfi_index !20
  %11 = alloca i32, align 4, !llfi_index !21
  %12 = alloca i32, align 4, !llfi_index !22
  store i32 0, i32* %1, align 4, !llfi_index !23
  %13 = load %struct._IO_FILE*, %struct._IO_FILE** @stdin, align 8, !llfi_index !24
  %14 = call %struct._IO_FILE* @freopen(i8* getelementptr inbounds ([31 x i8], [31 x i8]* @.str, i64 0, i64 0), i8* getelementptr inbounds ([2 x i8], [2 x i8]* @.str.1, i64 0, i64 0), %struct._IO_FILE* %13), !llfi_index !25
  %15 = call nonnull align 8 dereferenceable(16) %"class.std::basic_istream"* @_ZNSirsERi(%"class.std::basic_istream"* nonnull align 8 dereferenceable(16) @_ZSt3cin, i32* nonnull align 4 dereferenceable(4) %2), !llfi_index !26
  store i32 89, i32* %3, align 4, !llfi_index !27
  br label %16, !llfi_index !28

16:                                               ; preds = %177, %0
  %17 = load i32, i32* %2, align 4, !llfi_index !29
  %18 = add nsw i32 %17, -1, !llfi_index !30
  store i32 %18, i32* %2, align 4, !llfi_index !31
  %19 = icmp ne i32 %17, 0, !llfi_index !32
  br i1 %19, label %20, label %178, !llfi_index !33

20:                                               ; preds = %16
  %21 = call nonnull align 8 dereferenceable(16) %"class.std::basic_istream"* @_ZNSirsERi(%"class.std::basic_istream"* nonnull align 8 dereferenceable(16) @_ZSt3cin, i32* nonnull align 4 dereferenceable(4) %4), !llfi_index !34
  %22 = call nonnull align 8 dereferenceable(16) %"class.std::basic_istream"* @_ZNSirsERi(%"class.std::basic_istream"* nonnull align 8 dereferenceable(16) @_ZSt3cin, i32* nonnull align 4 dereferenceable(4) %5), !llfi_index !35
  %23 = load i32, i32* %5, align 4, !llfi_index !36
  %24 = sext i32 %23 to i64, !llfi_index !37
  %25 = call { i64, i1 } @llvm.umul.with.overflow.i64(i64 %24, i64 4), !llfi_index !38
  %26 = extractvalue { i64, i1 } %25, 1, !llfi_index !39
  %27 = extractvalue { i64, i1 } %25, 0, !llfi_index !40
  %28 = select i1 %26, i64 -1, i64 %27, !llfi_index !41
  %29 = call noalias nonnull i8* @_Znam(i64 %28) #11, !llfi_index !42
  %30 = bitcast i8* %29 to i32*, !llfi_index !43
  store i32* %30, i32** %6, align 8, !llfi_index !44
  %31 = load i32, i32* %5, align 4, !llfi_index !45
  %32 = sext i32 %31 to i64, !llfi_index !46
  %33 = call { i64, i1 } @llvm.umul.with.overflow.i64(i64 %32, i64 4), !llfi_index !47
  %34 = extractvalue { i64, i1 } %33, 1, !llfi_index !48
  %35 = extractvalue { i64, i1 } %33, 0, !llfi_index !49
  %36 = select i1 %34, i64 -1, i64 %35, !llfi_index !50
  %37 = call noalias nonnull i8* @_Znam(i64 %36) #11, !llfi_index !51
  %38 = bitcast i8* %37 to i32*, !llfi_index !52
  store i32* %38, i32** %7, align 8, !llfi_index !53
  store i32 89, i32* %3, align 4, !llfi_index !54
  store i32 0, i32* %8, align 4, !llfi_index !55
  br label %39, !llfi_index !56

39:                                               ; preds = %58, %20
  %40 = load i32, i32* %8, align 4, !llfi_index !57
  %41 = load i32, i32* %5, align 4, !llfi_index !58
  %42 = icmp slt i32 %40, %41, !llfi_index !59
  br i1 %42, label %43, label %61, !llfi_index !60

43:                                               ; preds = %39
  %44 = load i32*, i32** %6, align 8, !llfi_index !61
  %45 = load i32, i32* %8, align 4, !llfi_index !62
  %46 = sext i32 %45 to i64, !llfi_index !63
  %47 = getelementptr inbounds i32, i32* %44, i64 %46, !llfi_index !64
  %48 = call nonnull align 8 dereferenceable(16) %"class.std::basic_istream"* @_ZNSirsERi(%"class.std::basic_istream"* nonnull align 8 dereferenceable(16) @_ZSt3cin, i32* nonnull align 4 dereferenceable(4) %47), !llfi_index !65
  %49 = load i32*, i32** %6, align 8, !llfi_index !66
  %50 = load i32, i32* %8, align 4, !llfi_index !67
  %51 = sext i32 %50 to i64, !llfi_index !68
  %52 = getelementptr inbounds i32, i32* %49, i64 %51, !llfi_index !69
  %53 = load i32, i32* %52, align 4, !llfi_index !70
  %54 = load i32*, i32** %7, align 8, !llfi_index !71
  %55 = load i32, i32* %8, align 4, !llfi_index !72
  %56 = sext i32 %55 to i64, !llfi_index !73
  %57 = getelementptr inbounds i32, i32* %54, i64 %56, !llfi_index !74
  store i32 %53, i32* %57, align 4, !llfi_index !75
  br label %58, !llfi_index !76

58:                                               ; preds = %43
  %59 = load i32, i32* %8, align 4, !llfi_index !77
  %60 = add nsw i32 %59, 1, !llfi_index !78
  store i32 %60, i32* %8, align 4, !llfi_index !79
  br label %39, !llvm.loop !80, !llfi_index !82

61:                                               ; preds = %39
  %62 = load i32*, i32** %6, align 8, !llfi_index !83
  %63 = load i32*, i32** %6, align 8, !llfi_index !84
  %64 = load i32, i32* %5, align 4, !llfi_index !85
  %65 = sext i32 %64 to i64, !llfi_index !86
  %66 = getelementptr inbounds i32, i32* %63, i64 %65, !llfi_index !87
  call void @_ZSt4sortIPiEvT_S1_(i32* %62, i32* %66), !llfi_index !88
  store i32 0, i32* %9, align 4, !llfi_index !89
  %67 = load i32, i32* %5, align 4, !llfi_index !90
  %68 = sub nsw i32 %67, 1, !llfi_index !91
  store i32 %68, i32* %10, align 4, !llfi_index !92
  store i32 89, i32* %3, align 4, !llfi_index !93
  br label %69, !llfi_index !94

69:                                               ; preds = %108, %61
  %70 = load i32, i32* %9, align 4, !llfi_index !95
  %71 = load i32, i32* %10, align 4, !llfi_index !96
  %72 = icmp ne i32 %70, %71, !llfi_index !97
  br i1 %72, label %73, label %109, !llfi_index !98

73:                                               ; preds = %69
  %74 = load i32*, i32** %6, align 8, !llfi_index !99
  %75 = load i32, i32* %9, align 4, !llfi_index !100
  %76 = sext i32 %75 to i64, !llfi_index !101
  %77 = getelementptr inbounds i32, i32* %74, i64 %76, !llfi_index !102
  %78 = load i32, i32* %77, align 4, !llfi_index !103
  %79 = load i32*, i32** %6, align 8, !llfi_index !104
  %80 = load i32, i32* %10, align 4, !llfi_index !105
  %81 = sext i32 %80 to i64, !llfi_index !106
  %82 = getelementptr inbounds i32, i32* %79, i64 %81, !llfi_index !107
  %83 = load i32, i32* %82, align 4, !llfi_index !108
  %84 = add nsw i32 %78, %83, !llfi_index !109
  %85 = load i32, i32* %4, align 4, !llfi_index !110
  %86 = icmp eq i32 %84, %85, !llfi_index !111
  br i1 %86, label %87, label %88, !llfi_index !112

87:                                               ; preds = %73
  br label %109, !llfi_index !113

88:                                               ; preds = %73
  %89 = load i32*, i32** %6, align 8, !llfi_index !114
  %90 = load i32, i32* %9, align 4, !llfi_index !115
  %91 = sext i32 %90 to i64, !llfi_index !116
  %92 = getelementptr inbounds i32, i32* %89, i64 %91, !llfi_index !117
  %93 = load i32, i32* %92, align 4, !llfi_index !118
  %94 = load i32*, i32** %6, align 8, !llfi_index !119
  %95 = load i32, i32* %10, align 4, !llfi_index !120
  %96 = sext i32 %95 to i64, !llfi_index !121
  %97 = getelementptr inbounds i32, i32* %94, i64 %96, !llfi_index !122
  %98 = load i32, i32* %97, align 4, !llfi_index !123
  %99 = add nsw i32 %93, %98, !llfi_index !124
  %100 = load i32, i32* %4, align 4, !llfi_index !125
  %101 = icmp sgt i32 %99, %100, !llfi_index !126
  br i1 %101, label %102, label %105, !llfi_index !127

102:                                              ; preds = %88
  %103 = load i32, i32* %10, align 4, !llfi_index !128
  %104 = add nsw i32 %103, -1, !llfi_index !129
  store i32 %104, i32* %10, align 4, !llfi_index !130
  br label %108, !llfi_index !131

105:                                              ; preds = %88
  %106 = load i32, i32* %9, align 4, !llfi_index !132
  %107 = add nsw i32 %106, 1, !llfi_index !133
  store i32 %107, i32* %9, align 4, !llfi_index !134
  br label %108, !llfi_index !135

108:                                              ; preds = %105, %102
  br label %69, !llvm.loop !136, !llfi_index !137

109:                                              ; preds = %87, %69
  store i32 0, i32* %11, align 4, !llfi_index !138
  store i32 89, i32* %3, align 4, !llfi_index !139
  br label %110, !llfi_index !140

110:                                              ; preds = %128, %109
  %111 = load i32, i32* %11, align 4, !llfi_index !141
  %112 = load i32, i32* %5, align 4, !llfi_index !142
  %113 = icmp slt i32 %111, %112, !llfi_index !143
  br i1 %113, label %114, label %126, !llfi_index !144

114:                                              ; preds = %110
  %115 = load i32*, i32** %7, align 8, !llfi_index !145
  %116 = load i32, i32* %11, align 4, !llfi_index !146
  %117 = sext i32 %116 to i64, !llfi_index !147
  %118 = getelementptr inbounds i32, i32* %115, i64 %117, !llfi_index !148
  %119 = load i32, i32* %118, align 4, !llfi_index !149
  %120 = load i32*, i32** %6, align 8, !llfi_index !150
  %121 = load i32, i32* %9, align 4, !llfi_index !151
  %122 = sext i32 %121 to i64, !llfi_index !152
  %123 = getelementptr inbounds i32, i32* %120, i64 %122, !llfi_index !153
  %124 = load i32, i32* %123, align 4, !llfi_index !154
  %125 = icmp ne i32 %119, %124, !llfi_index !155
  br label %126, !llfi_index !156

126:                                              ; preds = %114, %110
  %127 = phi i1 [ false, %110 ], [ %125, %114 ], !llfi_index !157
  br i1 %127, label %128, label %131, !llfi_index !158

128:                                              ; preds = %126
  %129 = load i32, i32* %11, align 4, !llfi_index !159
  %130 = add nsw i32 %129, 1, !llfi_index !160
  store i32 %130, i32* %11, align 4, !llfi_index !161
  br label %110, !llvm.loop !162, !llfi_index !163

131:                                              ; preds = %126
  %132 = load i32, i32* %11, align 4, !llfi_index !164
  %133 = add nsw i32 %132, 1, !llfi_index !165
  store i32 %133, i32* %12, align 4, !llfi_index !166
  %134 = load i32, i32* %5, align 4, !llfi_index !167
  %135 = sub nsw i32 %134, 1, !llfi_index !168
  store i32 %135, i32* %11, align 4, !llfi_index !169
  store i32 89, i32* %3, align 4, !llfi_index !170
  br label %136, !llfi_index !171

136:                                              ; preds = %153, %131
  %137 = load i32, i32* %11, align 4, !llfi_index !172
  %138 = icmp sge i32 %137, 0, !llfi_index !173
  br i1 %138, label %139, label %151, !llfi_index !174

139:                                              ; preds = %136
  %140 = load i32*, i32** %7, align 8, !llfi_index !175
  %141 = load i32, i32* %11, align 4, !llfi_index !176
  %142 = sext i32 %141 to i64, !llfi_index !177
  %143 = getelementptr inbounds i32, i32* %140, i64 %142, !llfi_index !178
  %144 = load i32, i32* %143, align 4, !llfi_index !179
  %145 = load i32*, i32** %6, align 8, !llfi_index !180
  %146 = load i32, i32* %10, align 4, !llfi_index !181
  %147 = sext i32 %146 to i64, !llfi_index !182
  %148 = getelementptr inbounds i32, i32* %145, i64 %147, !llfi_index !183
  %149 = load i32, i32* %148, align 4, !llfi_index !184
  %150 = icmp ne i32 %144, %149, !llfi_index !185
  br label %151, !llfi_index !186

151:                                              ; preds = %139, %136
  %152 = phi i1 [ false, %136 ], [ %150, %139 ], !llfi_index !187
  br i1 %152, label %153, label %156, !llfi_index !188

153:                                              ; preds = %151
  %154 = load i32, i32* %11, align 4, !llfi_index !189
  %155 = add nsw i32 %154, -1, !llfi_index !190
  store i32 %155, i32* %11, align 4, !llfi_index !191
  br label %136, !llvm.loop !192, !llfi_index !193

156:                                              ; preds = %151
  %157 = load i32, i32* %12, align 4, !llfi_index !194
  %158 = load i32, i32* %11, align 4, !llfi_index !195
  %159 = add nsw i32 %158, 1, !llfi_index !196
  %160 = icmp slt i32 %157, %159, !llfi_index !197
  br i1 %160, label %161, label %169, !llfi_index !198

161:                                              ; preds = %156
  %162 = load i32, i32* %12, align 4, !llfi_index !199
  %163 = call nonnull align 8 dereferenceable(8) %"class.std::basic_ostream"* @_ZNSolsEi(%"class.std::basic_ostream"* nonnull align 8 dereferenceable(8) @_ZSt4cout, i32 %162), !llfi_index !200
  %164 = call nonnull align 8 dereferenceable(8) %"class.std::basic_ostream"* @_ZStlsISt11char_traitsIcEERSt13basic_ostreamIcT_ES5_PKc(%"class.std::basic_ostream"* nonnull align 8 dereferenceable(8) %163, i8* getelementptr inbounds ([2 x i8], [2 x i8]* @.str.2, i64 0, i64 0)), !llfi_index !201
  %165 = load i32, i32* %11, align 4, !llfi_index !202
  %166 = add nsw i32 %165, 1, !llfi_index !203
  %167 = call nonnull align 8 dereferenceable(8) %"class.std::basic_ostream"* @_ZNSolsEi(%"class.std::basic_ostream"* nonnull align 8 dereferenceable(8) %164, i32 %166), !llfi_index !204
  %168 = call nonnull align 8 dereferenceable(8) %"class.std::basic_ostream"* @_ZNSolsEPFRSoS_E(%"class.std::basic_ostream"* nonnull align 8 dereferenceable(8) %167, %"class.std::basic_ostream"* (%"class.std::basic_ostream"*)* @_ZSt4endlIcSt11char_traitsIcEERSt13basic_ostreamIT_T0_ES6_), !llfi_index !205
  br label %177, !llfi_index !206

169:                                              ; preds = %156
  %170 = load i32, i32* %11, align 4, !llfi_index !207
  %171 = add nsw i32 %170, 1, !llfi_index !208
  %172 = call nonnull align 8 dereferenceable(8) %"class.std::basic_ostream"* @_ZNSolsEi(%"class.std::basic_ostream"* nonnull align 8 dereferenceable(8) @_ZSt4cout, i32 %171), !llfi_index !209
  %173 = call nonnull align 8 dereferenceable(8) %"class.std::basic_ostream"* @_ZStlsISt11char_traitsIcEERSt13basic_ostreamIcT_ES5_PKc(%"class.std::basic_ostream"* nonnull align 8 dereferenceable(8) %172, i8* getelementptr inbounds ([2 x i8], [2 x i8]* @.str.2, i64 0, i64 0)), !llfi_index !210
  %174 = load i32, i32* %12, align 4, !llfi_index !211
  %175 = call nonnull align 8 dereferenceable(8) %"class.std::basic_ostream"* @_ZNSolsEi(%"class.std::basic_ostream"* nonnull align 8 dereferenceable(8) %173, i32 %174), !llfi_index !212
  %176 = call nonnull align 8 dereferenceable(8) %"class.std::basic_ostream"* @_ZNSolsEPFRSoS_E(%"class.std::basic_ostream"* nonnull align 8 dereferenceable(8) %175, %"class.std::basic_ostream"* (%"class.std::basic_ostream"*)* @_ZSt4endlIcSt11char_traitsIcEERSt13basic_ostreamIT_T0_ES6_), !llfi_index !213
  br label %177, !llfi_index !214

177:                                              ; preds = %169, %161
  br label %16, !llvm.loop !215, !llfi_index !216

178:                                              ; preds = %16
  ret i32 0, !llfi_index !217
}

declare dso_local %struct._IO_FILE* @freopen(i8*, i8*, %struct._IO_FILE*) #1

declare dso_local nonnull align 8 dereferenceable(16) %"class.std::basic_istream"* @_ZNSirsERi(%"class.std::basic_istream"* nonnull align 8 dereferenceable(16), i32* nonnull align 4 dereferenceable(4)) #1

; Function Attrs: nofree nosync nounwind readnone speculatable willreturn
declare { i64, i1 } @llvm.umul.with.overflow.i64(i64, i64) #5

; Function Attrs: nobuiltin allocsize(0)
declare dso_local nonnull i8* @_Znam(i64) #6

; Function Attrs: mustprogress noinline uwtable
define linkonce_odr dso_local void @_ZSt4sortIPiEvT_S1_(i32* %0, i32* %1) #7 comdat {
  %3 = alloca i32*, align 8, !llfi_index !218
  %4 = alloca i32*, align 8, !llfi_index !219
  %5 = alloca %"class.std::ios_base::Init", align 1, !llfi_index !220
  %6 = alloca %"class.std::ios_base::Init", align 1, !llfi_index !221
  store i32* %0, i32** %3, align 8, !llfi_index !222
  store i32* %1, i32** %4, align 8, !llfi_index !223
  %7 = load i32*, i32** %3, align 8, !llfi_index !224
  %8 = load i32*, i32** %4, align 8, !llfi_index !225
  call void @_ZN9__gnu_cxx5__ops16__iter_less_iterEv(), !llfi_index !226
  call void @_ZSt6__sortIPiN9__gnu_cxx5__ops15_Iter_less_iterEEvT_S4_T0_(i32* %7, i32* %8), !llfi_index !227
  ret void, !llfi_index !228
}

declare dso_local nonnull align 8 dereferenceable(8) %"class.std::basic_ostream"* @_ZNSolsEi(%"class.std::basic_ostream"* nonnull align 8 dereferenceable(8), i32) #1

declare dso_local nonnull align 8 dereferenceable(8) %"class.std::basic_ostream"* @_ZStlsISt11char_traitsIcEERSt13basic_ostreamIcT_ES5_PKc(%"class.std::basic_ostream"* nonnull align 8 dereferenceable(8), i8*) #1

declare dso_local nonnull align 8 dereferenceable(8) %"class.std::basic_ostream"* @_ZSt4endlIcSt11char_traitsIcEERSt13basic_ostreamIT_T0_ES6_(%"class.std::basic_ostream"* nonnull align 8 dereferenceable(8)) #1

declare dso_local nonnull align 8 dereferenceable(8) %"class.std::basic_ostream"* @_ZNSolsEPFRSoS_E(%"class.std::basic_ostream"* nonnull align 8 dereferenceable(8), %"class.std::basic_ostream"* (%"class.std::basic_ostream"*)*) #1

; Function Attrs: mustprogress noinline nounwind uwtable
define linkonce_odr dso_local void @_ZN9__gnu_cxx5__ops16__iter_less_iterEv() #8 comdat {
  ret void, !llfi_index !229
}

; Function Attrs: mustprogress noinline uwtable
define linkonce_odr dso_local void @_ZSt6__sortIPiN9__gnu_cxx5__ops15_Iter_less_iterEEvT_S4_T0_(i32* %0, i32* %1) #7 comdat {
  %3 = alloca %"class.std::ios_base::Init", align 1, !llfi_index !230
  %4 = alloca i32*, align 8, !llfi_index !231
  %5 = alloca i32*, align 8, !llfi_index !232
  %6 = alloca %"class.std::ios_base::Init", align 1, !llfi_index !233
  %7 = alloca %"class.std::ios_base::Init", align 1, !llfi_index !234
  store i32* %0, i32** %4, align 8, !llfi_index !235
  store i32* %1, i32** %5, align 8, !llfi_index !236
  %8 = load i32*, i32** %4, align 8, !llfi_index !237
  %9 = load i32*, i32** %5, align 8, !llfi_index !238
  %10 = icmp ne i32* %8, %9, !llfi_index !239
  br i1 %10, label %11, label %24, !llfi_index !240

11:                                               ; preds = %2
  %12 = load i32*, i32** %4, align 8, !llfi_index !241
  %13 = load i32*, i32** %5, align 8, !llfi_index !242
  %14 = load i32*, i32** %5, align 8, !llfi_index !243
  %15 = load i32*, i32** %4, align 8, !llfi_index !244
  %16 = ptrtoint i32* %14 to i64, !llfi_index !245
  %17 = ptrtoint i32* %15 to i64, !llfi_index !246
  %18 = sub i64 %16, %17, !llfi_index !247
  %19 = sdiv exact i64 %18, 4, !llfi_index !248
  %20 = call i64 @_ZSt4__lgl(i64 %19), !llfi_index !249
  %21 = mul nsw i64 %20, 2, !llfi_index !250
  call void @_ZSt16__introsort_loopIPilN9__gnu_cxx5__ops15_Iter_less_iterEEvT_S4_T0_T1_(i32* %12, i32* %13, i64 %21), !llfi_index !251
  %22 = load i32*, i32** %4, align 8, !llfi_index !252
  %23 = load i32*, i32** %5, align 8, !llfi_index !253
  call void @_ZSt22__final_insertion_sortIPiN9__gnu_cxx5__ops15_Iter_less_iterEEvT_S4_T0_(i32* %22, i32* %23), !llfi_index !254
  br label %24, !llfi_index !255

24:                                               ; preds = %11, %2
  ret void, !llfi_index !256
}

; Function Attrs: mustprogress noinline nounwind uwtable
define linkonce_odr dso_local i64 @_ZSt4__lgl(i64 %0) #8 comdat {
  %2 = alloca i64, align 8, !llfi_index !257
  store i64 %0, i64* %2, align 8, !llfi_index !258
  %3 = load i64, i64* %2, align 8, !llfi_index !259
  %4 = call i64 @llvm.ctlz.i64(i64 %3, i1 true), !llfi_index !260
  %5 = trunc i64 %4 to i32, !llfi_index !261
  %6 = sub nsw i32 63, %5, !llfi_index !262
  %7 = sext i32 %6 to i64, !llfi_index !263
  ret i64 %7, !llfi_index !264
}

; Function Attrs: mustprogress noinline uwtable
define linkonce_odr dso_local void @_ZSt16__introsort_loopIPilN9__gnu_cxx5__ops15_Iter_less_iterEEvT_S4_T0_T1_(i32* %0, i32* %1, i64 %2) #7 comdat {
  %4 = alloca %"class.std::ios_base::Init", align 1, !llfi_index !265
  %5 = alloca i32*, align 8, !llfi_index !266
  %6 = alloca i32*, align 8, !llfi_index !267
  %7 = alloca i64, align 8, !llfi_index !268
  %8 = alloca %"class.std::ios_base::Init", align 1, !llfi_index !269
  %9 = alloca i32*, align 8, !llfi_index !270
  %10 = alloca %"class.std::ios_base::Init", align 1, !llfi_index !271
  %11 = alloca %"class.std::ios_base::Init", align 1, !llfi_index !272
  store i32* %0, i32** %5, align 8, !llfi_index !273
  store i32* %1, i32** %6, align 8, !llfi_index !274
  store i64 %2, i64* %7, align 8, !llfi_index !275
  br label %12, !llfi_index !276

12:                                               ; preds = %27, %3
  %13 = load i32*, i32** %6, align 8, !llfi_index !277
  %14 = load i32*, i32** %5, align 8, !llfi_index !278
  %15 = ptrtoint i32* %13 to i64, !llfi_index !279
  %16 = ptrtoint i32* %14 to i64, !llfi_index !280
  %17 = sub i64 %15, %16, !llfi_index !281
  %18 = sdiv exact i64 %17, 4, !llfi_index !282
  %19 = icmp sgt i64 %18, 16, !llfi_index !283
  br i1 %19, label %20, label %37, !llfi_index !284

20:                                               ; preds = %12
  %21 = load i64, i64* %7, align 8, !llfi_index !285
  %22 = icmp eq i64 %21, 0, !llfi_index !286
  br i1 %22, label %23, label %27, !llfi_index !287

23:                                               ; preds = %20
  %24 = load i32*, i32** %5, align 8, !llfi_index !288
  %25 = load i32*, i32** %6, align 8, !llfi_index !289
  %26 = load i32*, i32** %6, align 8, !llfi_index !290
  call void @_ZSt14__partial_sortIPiN9__gnu_cxx5__ops15_Iter_less_iterEEvT_S4_S4_T0_(i32* %24, i32* %25, i32* %26), !llfi_index !291
  br label %37, !llfi_index !292

27:                                               ; preds = %20
  %28 = load i64, i64* %7, align 8, !llfi_index !293
  %29 = add nsw i64 %28, -1, !llfi_index !294
  store i64 %29, i64* %7, align 8, !llfi_index !295
  %30 = load i32*, i32** %5, align 8, !llfi_index !296
  %31 = load i32*, i32** %6, align 8, !llfi_index !297
  %32 = call i32* @_ZSt27__unguarded_partition_pivotIPiN9__gnu_cxx5__ops15_Iter_less_iterEET_S4_S4_T0_(i32* %30, i32* %31), !llfi_index !298
  store i32* %32, i32** %9, align 8, !llfi_index !299
  %33 = load i32*, i32** %9, align 8, !llfi_index !300
  %34 = load i32*, i32** %6, align 8, !llfi_index !301
  %35 = load i64, i64* %7, align 8, !llfi_index !302
  call void @_ZSt16__introsort_loopIPilN9__gnu_cxx5__ops15_Iter_less_iterEEvT_S4_T0_T1_(i32* %33, i32* %34, i64 %35), !llfi_index !303
  %36 = load i32*, i32** %9, align 8, !llfi_index !304
  store i32* %36, i32** %6, align 8, !llfi_index !305
  br label %12, !llvm.loop !306, !llfi_index !307

37:                                               ; preds = %23, %12
  ret void, !llfi_index !308
}

; Function Attrs: mustprogress noinline uwtable
define linkonce_odr dso_local void @_ZSt22__final_insertion_sortIPiN9__gnu_cxx5__ops15_Iter_less_iterEEvT_S4_T0_(i32* %0, i32* %1) #7 comdat {
  %3 = alloca %"class.std::ios_base::Init", align 1, !llfi_index !309
  %4 = alloca i32*, align 8, !llfi_index !310
  %5 = alloca i32*, align 8, !llfi_index !311
  %6 = alloca %"class.std::ios_base::Init", align 1, !llfi_index !312
  %7 = alloca %"class.std::ios_base::Init", align 1, !llfi_index !313
  %8 = alloca %"class.std::ios_base::Init", align 1, !llfi_index !314
  store i32* %0, i32** %4, align 8, !llfi_index !315
  store i32* %1, i32** %5, align 8, !llfi_index !316
  %9 = load i32*, i32** %5, align 8, !llfi_index !317
  %10 = load i32*, i32** %4, align 8, !llfi_index !318
  %11 = ptrtoint i32* %9 to i64, !llfi_index !319
  %12 = ptrtoint i32* %10 to i64, !llfi_index !320
  %13 = sub i64 %11, %12, !llfi_index !321
  %14 = sdiv exact i64 %13, 4, !llfi_index !322
  %15 = icmp sgt i64 %14, 16, !llfi_index !323
  br i1 %15, label %16, label %23, !llfi_index !324

16:                                               ; preds = %2
  %17 = load i32*, i32** %4, align 8, !llfi_index !325
  %18 = load i32*, i32** %4, align 8, !llfi_index !326
  %19 = getelementptr inbounds i32, i32* %18, i64 16, !llfi_index !327
  call void @_ZSt16__insertion_sortIPiN9__gnu_cxx5__ops15_Iter_less_iterEEvT_S4_T0_(i32* %17, i32* %19), !llfi_index !328
  %20 = load i32*, i32** %4, align 8, !llfi_index !329
  %21 = getelementptr inbounds i32, i32* %20, i64 16, !llfi_index !330
  %22 = load i32*, i32** %5, align 8, !llfi_index !331
  call void @_ZSt26__unguarded_insertion_sortIPiN9__gnu_cxx5__ops15_Iter_less_iterEEvT_S4_T0_(i32* %21, i32* %22), !llfi_index !332
  br label %26, !llfi_index !333

23:                                               ; preds = %2
  %24 = load i32*, i32** %4, align 8, !llfi_index !334
  %25 = load i32*, i32** %5, align 8, !llfi_index !335
  call void @_ZSt16__insertion_sortIPiN9__gnu_cxx5__ops15_Iter_less_iterEEvT_S4_T0_(i32* %24, i32* %25), !llfi_index !336
  br label %26, !llfi_index !337

26:                                               ; preds = %23, %16
  ret void, !llfi_index !338
}

; Function Attrs: mustprogress noinline uwtable
define linkonce_odr dso_local void @_ZSt16__insertion_sortIPiN9__gnu_cxx5__ops15_Iter_less_iterEEvT_S4_T0_(i32* %0, i32* %1) #7 comdat {
  %3 = alloca %"class.std::ios_base::Init", align 1, !llfi_index !339
  %4 = alloca i32*, align 8, !llfi_index !340
  %5 = alloca i32*, align 8, !llfi_index !341
  %6 = alloca i32*, align 8, !llfi_index !342
  %7 = alloca i32, align 4, !llfi_index !343
  %8 = alloca %"class.std::ios_base::Init", align 1, !llfi_index !344
  %9 = alloca %"class.std::ios_base::Init", align 1, !llfi_index !345
  %10 = alloca %"class.std::ios_base::Init", align 1, !llfi_index !346
  store i32* %0, i32** %4, align 8, !llfi_index !347
  store i32* %1, i32** %5, align 8, !llfi_index !348
  %11 = load i32*, i32** %4, align 8, !llfi_index !349
  %12 = load i32*, i32** %5, align 8, !llfi_index !350
  %13 = icmp eq i32* %11, %12, !llfi_index !351
  br i1 %13, label %14, label %15, !llfi_index !352

14:                                               ; preds = %2
  br label %44, !llfi_index !353

15:                                               ; preds = %2
  %16 = load i32*, i32** %4, align 8, !llfi_index !354
  %17 = getelementptr inbounds i32, i32* %16, i64 1, !llfi_index !355
  store i32* %17, i32** %6, align 8, !llfi_index !356
  br label %18, !llfi_index !357

18:                                               ; preds = %41, %15
  %19 = load i32*, i32** %6, align 8, !llfi_index !358
  %20 = load i32*, i32** %5, align 8, !llfi_index !359
  %21 = icmp ne i32* %19, %20, !llfi_index !360
  br i1 %21, label %22, label %44, !llfi_index !361

22:                                               ; preds = %18
  %23 = load i32*, i32** %6, align 8, !llfi_index !362
  %24 = load i32*, i32** %4, align 8, !llfi_index !363
  %25 = call zeroext i1 @_ZNK9__gnu_cxx5__ops15_Iter_less_iterclIPiS3_EEbT_T0_(%"class.std::ios_base::Init"* nonnull align 1 dereferenceable(1) %3, i32* %23, i32* %24), !llfi_index !364
  br i1 %25, label %26, label %38, !llfi_index !365

26:                                               ; preds = %22
  %27 = load i32*, i32** %6, align 8, !llfi_index !366
  %28 = call nonnull align 4 dereferenceable(4) i32* @_ZSt4moveIRiEONSt16remove_referenceIT_E4typeEOS2_(i32* nonnull align 4 dereferenceable(4) %27) #2, !llfi_index !367
  %29 = load i32, i32* %28, align 4, !llfi_index !368
  store i32 %29, i32* %7, align 4, !llfi_index !369
  %30 = load i32*, i32** %4, align 8, !llfi_index !370
  %31 = load i32*, i32** %6, align 8, !llfi_index !371
  %32 = load i32*, i32** %6, align 8, !llfi_index !372
  %33 = getelementptr inbounds i32, i32* %32, i64 1, !llfi_index !373
  %34 = call i32* @_ZSt13move_backwardIPiS0_ET0_T_S2_S1_(i32* %30, i32* %31, i32* %33), !llfi_index !374
  %35 = call nonnull align 4 dereferenceable(4) i32* @_ZSt4moveIRiEONSt16remove_referenceIT_E4typeEOS2_(i32* nonnull align 4 dereferenceable(4) %7) #2, !llfi_index !375
  %36 = load i32, i32* %35, align 4, !llfi_index !376
  %37 = load i32*, i32** %4, align 8, !llfi_index !377
  store i32 %36, i32* %37, align 4, !llfi_index !378
  br label %40, !llfi_index !379

38:                                               ; preds = %22
  %39 = load i32*, i32** %6, align 8, !llfi_index !380
  call void @_ZN9__gnu_cxx5__ops15__val_comp_iterENS0_15_Iter_less_iterE(), !llfi_index !381
  call void @_ZSt25__unguarded_linear_insertIPiN9__gnu_cxx5__ops14_Val_less_iterEEvT_T0_(i32* %39), !llfi_index !382
  br label %40, !llfi_index !383

40:                                               ; preds = %38, %26
  br label %41, !llfi_index !384

41:                                               ; preds = %40
  %42 = load i32*, i32** %6, align 8, !llfi_index !385
  %43 = getelementptr inbounds i32, i32* %42, i32 1, !llfi_index !386
  store i32* %43, i32** %6, align 8, !llfi_index !387
  br label %18, !llvm.loop !388, !llfi_index !389

44:                                               ; preds = %18, %14
  ret void, !llfi_index !390
}

; Function Attrs: mustprogress noinline uwtable
define linkonce_odr dso_local void @_ZSt26__unguarded_insertion_sortIPiN9__gnu_cxx5__ops15_Iter_less_iterEEvT_S4_T0_(i32* %0, i32* %1) #7 comdat {
  %3 = alloca %"class.std::ios_base::Init", align 1, !llfi_index !391
  %4 = alloca i32*, align 8, !llfi_index !392
  %5 = alloca i32*, align 8, !llfi_index !393
  %6 = alloca i32*, align 8, !llfi_index !394
  %7 = alloca %"class.std::ios_base::Init", align 1, !llfi_index !395
  %8 = alloca %"class.std::ios_base::Init", align 1, !llfi_index !396
  %9 = alloca %"class.std::ios_base::Init", align 1, !llfi_index !397
  store i32* %0, i32** %4, align 8, !llfi_index !398
  store i32* %1, i32** %5, align 8, !llfi_index !399
  %10 = load i32*, i32** %4, align 8, !llfi_index !400
  store i32* %10, i32** %6, align 8, !llfi_index !401
  br label %11, !llfi_index !402

11:                                               ; preds = %17, %2
  %12 = load i32*, i32** %6, align 8, !llfi_index !403
  %13 = load i32*, i32** %5, align 8, !llfi_index !404
  %14 = icmp ne i32* %12, %13, !llfi_index !405
  br i1 %14, label %15, label %20, !llfi_index !406

15:                                               ; preds = %11
  %16 = load i32*, i32** %6, align 8, !llfi_index !407
  call void @_ZN9__gnu_cxx5__ops15__val_comp_iterENS0_15_Iter_less_iterE(), !llfi_index !408
  call void @_ZSt25__unguarded_linear_insertIPiN9__gnu_cxx5__ops14_Val_less_iterEEvT_T0_(i32* %16), !llfi_index !409
  br label %17, !llfi_index !410

17:                                               ; preds = %15
  %18 = load i32*, i32** %6, align 8, !llfi_index !411
  %19 = getelementptr inbounds i32, i32* %18, i32 1, !llfi_index !412
  store i32* %19, i32** %6, align 8, !llfi_index !413
  br label %11, !llvm.loop !414, !llfi_index !415

20:                                               ; preds = %11
  ret void, !llfi_index !416
}

; Function Attrs: mustprogress noinline nounwind uwtable
define linkonce_odr dso_local void @_ZN9__gnu_cxx5__ops15__val_comp_iterENS0_15_Iter_less_iterE() #8 comdat {
  %1 = alloca %"class.std::ios_base::Init", align 1, !llfi_index !417
  ret void, !llfi_index !418
}

; Function Attrs: mustprogress noinline uwtable
define linkonce_odr dso_local void @_ZSt25__unguarded_linear_insertIPiN9__gnu_cxx5__ops14_Val_less_iterEEvT_T0_(i32* %0) #7 comdat {
  %2 = alloca %"class.std::ios_base::Init", align 1, !llfi_index !419
  %3 = alloca i32*, align 8, !llfi_index !420
  %4 = alloca i32, align 4, !llfi_index !421
  %5 = alloca i32*, align 8, !llfi_index !422
  store i32* %0, i32** %3, align 8, !llfi_index !423
  %6 = load i32*, i32** %3, align 8, !llfi_index !424
  %7 = call nonnull align 4 dereferenceable(4) i32* @_ZSt4moveIRiEONSt16remove_referenceIT_E4typeEOS2_(i32* nonnull align 4 dereferenceable(4) %6) #2, !llfi_index !425
  %8 = load i32, i32* %7, align 4, !llfi_index !426
  store i32 %8, i32* %4, align 4, !llfi_index !427
  %9 = load i32*, i32** %3, align 8, !llfi_index !428
  store i32* %9, i32** %5, align 8, !llfi_index !429
  %10 = load i32*, i32** %5, align 8, !llfi_index !430
  %11 = getelementptr inbounds i32, i32* %10, i32 -1, !llfi_index !431
  store i32* %11, i32** %5, align 8, !llfi_index !432
  br label %12, !llfi_index !433

12:                                               ; preds = %15, %1
  %13 = load i32*, i32** %5, align 8, !llfi_index !434
  %14 = call zeroext i1 @_ZNK9__gnu_cxx5__ops14_Val_less_iterclIiPiEEbRT_T0_(%"class.std::ios_base::Init"* nonnull align 1 dereferenceable(1) %2, i32* nonnull align 4 dereferenceable(4) %4, i32* %13), !llfi_index !435
  br i1 %14, label %15, label %23, !llfi_index !436

15:                                               ; preds = %12
  %16 = load i32*, i32** %5, align 8, !llfi_index !437
  %17 = call nonnull align 4 dereferenceable(4) i32* @_ZSt4moveIRiEONSt16remove_referenceIT_E4typeEOS2_(i32* nonnull align 4 dereferenceable(4) %16) #2, !llfi_index !438
  %18 = load i32, i32* %17, align 4, !llfi_index !439
  %19 = load i32*, i32** %3, align 8, !llfi_index !440
  store i32 %18, i32* %19, align 4, !llfi_index !441
  %20 = load i32*, i32** %5, align 8, !llfi_index !442
  store i32* %20, i32** %3, align 8, !llfi_index !443
  %21 = load i32*, i32** %5, align 8, !llfi_index !444
  %22 = getelementptr inbounds i32, i32* %21, i32 -1, !llfi_index !445
  store i32* %22, i32** %5, align 8, !llfi_index !446
  br label %12, !llvm.loop !447, !llfi_index !448

23:                                               ; preds = %12
  %24 = call nonnull align 4 dereferenceable(4) i32* @_ZSt4moveIRiEONSt16remove_referenceIT_E4typeEOS2_(i32* nonnull align 4 dereferenceable(4) %4) #2, !llfi_index !449
  %25 = load i32, i32* %24, align 4, !llfi_index !450
  %26 = load i32*, i32** %3, align 8, !llfi_index !451
  store i32 %25, i32* %26, align 4, !llfi_index !452
  ret void, !llfi_index !453
}

; Function Attrs: mustprogress noinline nounwind uwtable
define linkonce_odr dso_local nonnull align 4 dereferenceable(4) i32* @_ZSt4moveIRiEONSt16remove_referenceIT_E4typeEOS2_(i32* nonnull align 4 dereferenceable(4) %0) #8 comdat {
  %2 = alloca i32*, align 8, !llfi_index !454
  store i32* %0, i32** %2, align 8, !llfi_index !455
  %3 = load i32*, i32** %2, align 8, !llfi_index !456
  ret i32* %3, !llfi_index !457
}

; Function Attrs: mustprogress noinline nounwind uwtable
define linkonce_odr dso_local zeroext i1 @_ZNK9__gnu_cxx5__ops14_Val_less_iterclIiPiEEbRT_T0_(%"class.std::ios_base::Init"* nonnull align 1 dereferenceable(1) %0, i32* nonnull align 4 dereferenceable(4) %1, i32* %2) #8 comdat align 2 {
  %4 = alloca %"class.std::ios_base::Init"*, align 8, !llfi_index !458
  %5 = alloca i32*, align 8, !llfi_index !459
  %6 = alloca i32*, align 8, !llfi_index !460
  store %"class.std::ios_base::Init"* %0, %"class.std::ios_base::Init"** %4, align 8, !llfi_index !461
  store i32* %1, i32** %5, align 8, !llfi_index !462
  store i32* %2, i32** %6, align 8, !llfi_index !463
  %7 = load %"class.std::ios_base::Init"*, %"class.std::ios_base::Init"** %4, align 8, !llfi_index !464
  %8 = load i32*, i32** %5, align 8, !llfi_index !465
  %9 = load i32, i32* %8, align 4, !llfi_index !466
  %10 = load i32*, i32** %6, align 8, !llfi_index !467
  %11 = load i32, i32* %10, align 4, !llfi_index !468
  %12 = icmp slt i32 %9, %11, !llfi_index !469
  ret i1 %12, !llfi_index !470
}

; Function Attrs: mustprogress noinline nounwind uwtable
define linkonce_odr dso_local zeroext i1 @_ZNK9__gnu_cxx5__ops15_Iter_less_iterclIPiS3_EEbT_T0_(%"class.std::ios_base::Init"* nonnull align 1 dereferenceable(1) %0, i32* %1, i32* %2) #8 comdat align 2 {
  %4 = alloca %"class.std::ios_base::Init"*, align 8, !llfi_index !471
  %5 = alloca i32*, align 8, !llfi_index !472
  %6 = alloca i32*, align 8, !llfi_index !473
  store %"class.std::ios_base::Init"* %0, %"class.std::ios_base::Init"** %4, align 8, !llfi_index !474
  store i32* %1, i32** %5, align 8, !llfi_index !475
  store i32* %2, i32** %6, align 8, !llfi_index !476
  %7 = load %"class.std::ios_base::Init"*, %"class.std::ios_base::Init"** %4, align 8, !llfi_index !477
  %8 = load i32*, i32** %5, align 8, !llfi_index !478
  %9 = load i32, i32* %8, align 4, !llfi_index !479
  %10 = load i32*, i32** %6, align 8, !llfi_index !480
  %11 = load i32, i32* %10, align 4, !llfi_index !481
  %12 = icmp slt i32 %9, %11, !llfi_index !482
  ret i1 %12, !llfi_index !483
}

; Function Attrs: mustprogress noinline uwtable
define linkonce_odr dso_local i32* @_ZSt13move_backwardIPiS0_ET0_T_S2_S1_(i32* %0, i32* %1, i32* %2) #7 comdat {
  %4 = alloca i32*, align 8, !llfi_index !484
  %5 = alloca i32*, align 8, !llfi_index !485
  %6 = alloca i32*, align 8, !llfi_index !486
  store i32* %0, i32** %4, align 8, !llfi_index !487
  store i32* %1, i32** %5, align 8, !llfi_index !488
  store i32* %2, i32** %6, align 8, !llfi_index !489
  %7 = load i32*, i32** %4, align 8, !llfi_index !490
  %8 = call i32* @_ZSt12__miter_baseIPiET_S1_(i32* %7), !llfi_index !491
  %9 = load i32*, i32** %5, align 8, !llfi_index !492
  %10 = call i32* @_ZSt12__miter_baseIPiET_S1_(i32* %9), !llfi_index !493
  %11 = load i32*, i32** %6, align 8, !llfi_index !494
  %12 = call i32* @_ZSt23__copy_move_backward_a2ILb1EPiS0_ET1_T0_S2_S1_(i32* %8, i32* %10, i32* %11), !llfi_index !495
  ret i32* %12, !llfi_index !496
}

; Function Attrs: mustprogress noinline nounwind uwtable
define linkonce_odr dso_local i32* @_ZSt12__miter_baseIPiET_S1_(i32* %0) #8 comdat {
  %2 = alloca i32*, align 8, !llfi_index !497
  store i32* %0, i32** %2, align 8, !llfi_index !498
  %3 = load i32*, i32** %2, align 8, !llfi_index !499
  ret i32* %3, !llfi_index !500
}

; Function Attrs: mustprogress noinline uwtable
define linkonce_odr dso_local i32* @_ZSt23__copy_move_backward_a2ILb1EPiS0_ET1_T0_S2_S1_(i32* %0, i32* %1, i32* %2) #7 comdat {
  %4 = alloca i32*, align 8, !llfi_index !501
  %5 = alloca i32*, align 8, !llfi_index !502
  %6 = alloca i32*, align 8, !llfi_index !503
  store i32* %0, i32** %4, align 8, !llfi_index !504
  store i32* %1, i32** %5, align 8, !llfi_index !505
  store i32* %2, i32** %6, align 8, !llfi_index !506
  %7 = load i32*, i32** %4, align 8, !llfi_index !507
  %8 = call i32* @_ZSt12__niter_baseIPiET_S1_(i32* %7) #2, !llfi_index !508
  %9 = load i32*, i32** %5, align 8, !llfi_index !509
  %10 = call i32* @_ZSt12__niter_baseIPiET_S1_(i32* %9) #2, !llfi_index !510
  %11 = load i32*, i32** %6, align 8, !llfi_index !511
  %12 = call i32* @_ZSt12__niter_baseIPiET_S1_(i32* %11) #2, !llfi_index !512
  %13 = call i32* @_ZSt22__copy_move_backward_aILb1EPiS0_ET1_T0_S2_S1_(i32* %8, i32* %10, i32* %12), !llfi_index !513
  %14 = call i32* @_ZSt12__niter_wrapIPiET_RKS1_S1_(i32** nonnull align 8 dereferenceable(8) %6, i32* %13), !llfi_index !514
  ret i32* %14, !llfi_index !515
}

; Function Attrs: mustprogress noinline nounwind uwtable
define linkonce_odr dso_local i32* @_ZSt12__niter_baseIPiET_S1_(i32* %0) #8 comdat {
  %2 = alloca i32*, align 8, !llfi_index !516
  store i32* %0, i32** %2, align 8, !llfi_index !517
  %3 = load i32*, i32** %2, align 8, !llfi_index !518
  ret i32* %3, !llfi_index !519
}

; Function Attrs: mustprogress noinline uwtable
define linkonce_odr dso_local i32* @_ZSt22__copy_move_backward_aILb1EPiS0_ET1_T0_S2_S1_(i32* %0, i32* %1, i32* %2) #7 comdat {
  %4 = alloca i32*, align 8, !llfi_index !520
  %5 = alloca i32*, align 8, !llfi_index !521
  %6 = alloca i32*, align 8, !llfi_index !522
  %7 = alloca i8, align 1, !llfi_index !523
  store i32* %0, i32** %4, align 8, !llfi_index !524
  store i32* %1, i32** %5, align 8, !llfi_index !525
  store i32* %2, i32** %6, align 8, !llfi_index !526
  store i8 1, i8* %7, align 1, !llfi_index !527
  %8 = load i32*, i32** %4, align 8, !llfi_index !528
  %9 = load i32*, i32** %5, align 8, !llfi_index !529
  %10 = load i32*, i32** %6, align 8, !llfi_index !530
  %11 = call i32* @_ZNSt20__copy_move_backwardILb1ELb1ESt26random_access_iterator_tagE13__copy_move_bIiEEPT_PKS3_S6_S4_(i32* %8, i32* %9, i32* %10), !llfi_index !531
  ret i32* %11, !llfi_index !532
}

; Function Attrs: mustprogress noinline nounwind uwtable
define linkonce_odr dso_local i32* @_ZSt12__niter_wrapIPiET_RKS1_S1_(i32** nonnull align 8 dereferenceable(8) %0, i32* %1) #8 comdat {
  %3 = alloca i32**, align 8, !llfi_index !533
  %4 = alloca i32*, align 8, !llfi_index !534
  store i32** %0, i32*** %3, align 8, !llfi_index !535
  store i32* %1, i32** %4, align 8, !llfi_index !536
  %5 = load i32*, i32** %4, align 8, !llfi_index !537
  ret i32* %5, !llfi_index !538
}

; Function Attrs: mustprogress noinline nounwind uwtable
define linkonce_odr dso_local i32* @_ZNSt20__copy_move_backwardILb1ELb1ESt26random_access_iterator_tagE13__copy_move_bIiEEPT_PKS3_S6_S4_(i32* %0, i32* %1, i32* %2) #8 comdat align 2 {
  %4 = alloca i32*, align 8, !llfi_index !539
  %5 = alloca i32*, align 8, !llfi_index !540
  %6 = alloca i32*, align 8, !llfi_index !541
  %7 = alloca i64, align 8, !llfi_index !542
  store i32* %0, i32** %4, align 8, !llfi_index !543
  store i32* %1, i32** %5, align 8, !llfi_index !544
  store i32* %2, i32** %6, align 8, !llfi_index !545
  %8 = load i32*, i32** %5, align 8, !llfi_index !546
  %9 = load i32*, i32** %4, align 8, !llfi_index !547
  %10 = ptrtoint i32* %8 to i64, !llfi_index !548
  %11 = ptrtoint i32* %9 to i64, !llfi_index !549
  %12 = sub i64 %10, %11, !llfi_index !550
  %13 = sdiv exact i64 %12, 4, !llfi_index !551
  store i64 %13, i64* %7, align 8, !llfi_index !552
  %14 = load i64, i64* %7, align 8, !llfi_index !553
  %15 = icmp ne i64 %14, 0, !llfi_index !554
  br i1 %15, label %16, label %26, !llfi_index !555

16:                                               ; preds = %3
  %17 = load i32*, i32** %6, align 8, !llfi_index !556
  %18 = load i64, i64* %7, align 8, !llfi_index !557
  %19 = sub i64 0, %18, !llfi_index !558
  %20 = getelementptr inbounds i32, i32* %17, i64 %19, !llfi_index !559
  %21 = bitcast i32* %20 to i8*, !llfi_index !560
  %22 = load i32*, i32** %4, align 8, !llfi_index !561
  %23 = bitcast i32* %22 to i8*, !llfi_index !562
  %24 = load i64, i64* %7, align 8, !llfi_index !563
  %25 = mul i64 4, %24, !llfi_index !564
  call void @llvm.memmove.p0i8.p0i8.i64(i8* align 4 %21, i8* align 4 %23, i64 %25, i1 false), !llfi_index !565
  br label %26, !llfi_index !566

26:                                               ; preds = %16, %3
  %27 = load i32*, i32** %6, align 8, !llfi_index !567
  %28 = load i64, i64* %7, align 8, !llfi_index !568
  %29 = sub i64 0, %28, !llfi_index !569
  %30 = getelementptr inbounds i32, i32* %27, i64 %29, !llfi_index !570
  ret i32* %30, !llfi_index !571
}

; Function Attrs: argmemonly nofree nounwind willreturn
declare void @llvm.memmove.p0i8.p0i8.i64(i8* nocapture writeonly, i8* nocapture readonly, i64, i1 immarg) #9

; Function Attrs: mustprogress noinline uwtable
define linkonce_odr dso_local void @_ZSt14__partial_sortIPiN9__gnu_cxx5__ops15_Iter_less_iterEEvT_S4_S4_T0_(i32* %0, i32* %1, i32* %2) #7 comdat {
  %4 = alloca %"class.std::ios_base::Init", align 1, !llfi_index !572
  %5 = alloca i32*, align 8, !llfi_index !573
  %6 = alloca i32*, align 8, !llfi_index !574
  %7 = alloca i32*, align 8, !llfi_index !575
  %8 = alloca %"class.std::ios_base::Init", align 1, !llfi_index !576
  store i32* %0, i32** %5, align 8, !llfi_index !577
  store i32* %1, i32** %6, align 8, !llfi_index !578
  store i32* %2, i32** %7, align 8, !llfi_index !579
  %9 = load i32*, i32** %5, align 8, !llfi_index !580
  %10 = load i32*, i32** %6, align 8, !llfi_index !581
  %11 = load i32*, i32** %7, align 8, !llfi_index !582
  call void @_ZSt13__heap_selectIPiN9__gnu_cxx5__ops15_Iter_less_iterEEvT_S4_S4_T0_(i32* %9, i32* %10, i32* %11), !llfi_index !583
  %12 = load i32*, i32** %5, align 8, !llfi_index !584
  %13 = load i32*, i32** %6, align 8, !llfi_index !585
  call void @_ZSt11__sort_heapIPiN9__gnu_cxx5__ops15_Iter_less_iterEEvT_S4_RT0_(i32* %12, i32* %13, %"class.std::ios_base::Init"* nonnull align 1 dereferenceable(1) %4), !llfi_index !586
  ret void, !llfi_index !587
}

; Function Attrs: mustprogress noinline uwtable
define linkonce_odr dso_local i32* @_ZSt27__unguarded_partition_pivotIPiN9__gnu_cxx5__ops15_Iter_less_iterEET_S4_S4_T0_(i32* %0, i32* %1) #7 comdat {
  %3 = alloca %"class.std::ios_base::Init", align 1, !llfi_index !588
  %4 = alloca i32*, align 8, !llfi_index !589
  %5 = alloca i32*, align 8, !llfi_index !590
  %6 = alloca i32*, align 8, !llfi_index !591
  %7 = alloca %"class.std::ios_base::Init", align 1, !llfi_index !592
  %8 = alloca %"class.std::ios_base::Init", align 1, !llfi_index !593
  store i32* %0, i32** %4, align 8, !llfi_index !594
  store i32* %1, i32** %5, align 8, !llfi_index !595
  %9 = load i32*, i32** %4, align 8, !llfi_index !596
  %10 = load i32*, i32** %5, align 8, !llfi_index !597
  %11 = load i32*, i32** %4, align 8, !llfi_index !598
  %12 = ptrtoint i32* %10 to i64, !llfi_index !599
  %13 = ptrtoint i32* %11 to i64, !llfi_index !600
  %14 = sub i64 %12, %13, !llfi_index !601
  %15 = sdiv exact i64 %14, 4, !llfi_index !602
  %16 = sdiv i64 %15, 2, !llfi_index !603
  %17 = getelementptr inbounds i32, i32* %9, i64 %16, !llfi_index !604
  store i32* %17, i32** %6, align 8, !llfi_index !605
  %18 = load i32*, i32** %4, align 8, !llfi_index !606
  %19 = load i32*, i32** %4, align 8, !llfi_index !607
  %20 = getelementptr inbounds i32, i32* %19, i64 1, !llfi_index !608
  %21 = load i32*, i32** %6, align 8, !llfi_index !609
  %22 = load i32*, i32** %5, align 8, !llfi_index !610
  %23 = getelementptr inbounds i32, i32* %22, i64 -1, !llfi_index !611
  call void @_ZSt22__move_median_to_firstIPiN9__gnu_cxx5__ops15_Iter_less_iterEEvT_S4_S4_S4_T0_(i32* %18, i32* %20, i32* %21, i32* %23), !llfi_index !612
  %24 = load i32*, i32** %4, align 8, !llfi_index !613
  %25 = getelementptr inbounds i32, i32* %24, i64 1, !llfi_index !614
  %26 = load i32*, i32** %5, align 8, !llfi_index !615
  %27 = load i32*, i32** %4, align 8, !llfi_index !616
  %28 = call i32* @_ZSt21__unguarded_partitionIPiN9__gnu_cxx5__ops15_Iter_less_iterEET_S4_S4_S4_T0_(i32* %25, i32* %26, i32* %27), !llfi_index !617
  ret i32* %28, !llfi_index !618
}

; Function Attrs: mustprogress noinline uwtable
define linkonce_odr dso_local void @_ZSt22__move_median_to_firstIPiN9__gnu_cxx5__ops15_Iter_less_iterEEvT_S4_S4_S4_T0_(i32* %0, i32* %1, i32* %2, i32* %3) #7 comdat {
  %5 = alloca %"class.std::ios_base::Init", align 1, !llfi_index !619
  %6 = alloca i32*, align 8, !llfi_index !620
  %7 = alloca i32*, align 8, !llfi_index !621
  %8 = alloca i32*, align 8, !llfi_index !622
  %9 = alloca i32*, align 8, !llfi_index !623
  store i32* %0, i32** %6, align 8, !llfi_index !624
  store i32* %1, i32** %7, align 8, !llfi_index !625
  store i32* %2, i32** %8, align 8, !llfi_index !626
  store i32* %3, i32** %9, align 8, !llfi_index !627
  %10 = load i32*, i32** %7, align 8, !llfi_index !628
  %11 = load i32*, i32** %8, align 8, !llfi_index !629
  %12 = call zeroext i1 @_ZNK9__gnu_cxx5__ops15_Iter_less_iterclIPiS3_EEbT_T0_(%"class.std::ios_base::Init"* nonnull align 1 dereferenceable(1) %5, i32* %10, i32* %11), !llfi_index !630
  br i1 %12, label %13, label %32, !llfi_index !631

13:                                               ; preds = %4
  %14 = load i32*, i32** %8, align 8, !llfi_index !632
  %15 = load i32*, i32** %9, align 8, !llfi_index !633
  %16 = call zeroext i1 @_ZNK9__gnu_cxx5__ops15_Iter_less_iterclIPiS3_EEbT_T0_(%"class.std::ios_base::Init"* nonnull align 1 dereferenceable(1) %5, i32* %14, i32* %15), !llfi_index !634
  br i1 %16, label %17, label %20, !llfi_index !635

17:                                               ; preds = %13
  %18 = load i32*, i32** %6, align 8, !llfi_index !636
  %19 = load i32*, i32** %8, align 8, !llfi_index !637
  call void @_ZSt9iter_swapIPiS0_EvT_T0_(i32* %18, i32* %19), !llfi_index !638
  br label %31, !llfi_index !639

20:                                               ; preds = %13
  %21 = load i32*, i32** %7, align 8, !llfi_index !640
  %22 = load i32*, i32** %9, align 8, !llfi_index !641
  %23 = call zeroext i1 @_ZNK9__gnu_cxx5__ops15_Iter_less_iterclIPiS3_EEbT_T0_(%"class.std::ios_base::Init"* nonnull align 1 dereferenceable(1) %5, i32* %21, i32* %22), !llfi_index !642
  br i1 %23, label %24, label %27, !llfi_index !643

24:                                               ; preds = %20
  %25 = load i32*, i32** %6, align 8, !llfi_index !644
  %26 = load i32*, i32** %9, align 8, !llfi_index !645
  call void @_ZSt9iter_swapIPiS0_EvT_T0_(i32* %25, i32* %26), !llfi_index !646
  br label %30, !llfi_index !647

27:                                               ; preds = %20
  %28 = load i32*, i32** %6, align 8, !llfi_index !648
  %29 = load i32*, i32** %7, align 8, !llfi_index !649
  call void @_ZSt9iter_swapIPiS0_EvT_T0_(i32* %28, i32* %29), !llfi_index !650
  br label %30, !llfi_index !651

30:                                               ; preds = %27, %24
  br label %31, !llfi_index !652

31:                                               ; preds = %30, %17
  br label %51, !llfi_index !653

32:                                               ; preds = %4
  %33 = load i32*, i32** %7, align 8, !llfi_index !654
  %34 = load i32*, i32** %9, align 8, !llfi_index !655
  %35 = call zeroext i1 @_ZNK9__gnu_cxx5__ops15_Iter_less_iterclIPiS3_EEbT_T0_(%"class.std::ios_base::Init"* nonnull align 1 dereferenceable(1) %5, i32* %33, i32* %34), !llfi_index !656
  br i1 %35, label %36, label %39, !llfi_index !657

36:                                               ; preds = %32
  %37 = load i32*, i32** %6, align 8, !llfi_index !658
  %38 = load i32*, i32** %7, align 8, !llfi_index !659
  call void @_ZSt9iter_swapIPiS0_EvT_T0_(i32* %37, i32* %38), !llfi_index !660
  br label %50, !llfi_index !661

39:                                               ; preds = %32
  %40 = load i32*, i32** %8, align 8, !llfi_index !662
  %41 = load i32*, i32** %9, align 8, !llfi_index !663
  %42 = call zeroext i1 @_ZNK9__gnu_cxx5__ops15_Iter_less_iterclIPiS3_EEbT_T0_(%"class.std::ios_base::Init"* nonnull align 1 dereferenceable(1) %5, i32* %40, i32* %41), !llfi_index !664
  br i1 %42, label %43, label %46, !llfi_index !665

43:                                               ; preds = %39
  %44 = load i32*, i32** %6, align 8, !llfi_index !666
  %45 = load i32*, i32** %9, align 8, !llfi_index !667
  call void @_ZSt9iter_swapIPiS0_EvT_T0_(i32* %44, i32* %45), !llfi_index !668
  br label %49, !llfi_index !669

46:                                               ; preds = %39
  %47 = load i32*, i32** %6, align 8, !llfi_index !670
  %48 = load i32*, i32** %8, align 8, !llfi_index !671
  call void @_ZSt9iter_swapIPiS0_EvT_T0_(i32* %47, i32* %48), !llfi_index !672
  br label %49, !llfi_index !673

49:                                               ; preds = %46, %43
  br label %50, !llfi_index !674

50:                                               ; preds = %49, %36
  br label %51, !llfi_index !675

51:                                               ; preds = %50, %31
  ret void, !llfi_index !676
}

; Function Attrs: mustprogress noinline nounwind uwtable
define linkonce_odr dso_local i32* @_ZSt21__unguarded_partitionIPiN9__gnu_cxx5__ops15_Iter_less_iterEET_S4_S4_S4_T0_(i32* %0, i32* %1, i32* %2) #8 comdat {
  %4 = alloca %"class.std::ios_base::Init", align 1, !llfi_index !677
  %5 = alloca i32*, align 8, !llfi_index !678
  %6 = alloca i32*, align 8, !llfi_index !679
  %7 = alloca i32*, align 8, !llfi_index !680
  store i32* %0, i32** %5, align 8, !llfi_index !681
  store i32* %1, i32** %6, align 8, !llfi_index !682
  store i32* %2, i32** %7, align 8, !llfi_index !683
  br label %8, !llfi_index !684

8:                                                ; preds = %32, %3
  br label %9, !llfi_index !685

9:                                                ; preds = %13, %8
  %10 = load i32*, i32** %5, align 8, !llfi_index !686
  %11 = load i32*, i32** %7, align 8, !llfi_index !687
  %12 = call zeroext i1 @_ZNK9__gnu_cxx5__ops15_Iter_less_iterclIPiS3_EEbT_T0_(%"class.std::ios_base::Init"* nonnull align 1 dereferenceable(1) %4, i32* %10, i32* %11), !llfi_index !688
  br i1 %12, label %13, label %16, !llfi_index !689

13:                                               ; preds = %9
  %14 = load i32*, i32** %5, align 8, !llfi_index !690
  %15 = getelementptr inbounds i32, i32* %14, i32 1, !llfi_index !691
  store i32* %15, i32** %5, align 8, !llfi_index !692
  br label %9, !llvm.loop !693, !llfi_index !694

16:                                               ; preds = %9
  %17 = load i32*, i32** %6, align 8, !llfi_index !695
  %18 = getelementptr inbounds i32, i32* %17, i32 -1, !llfi_index !696
  store i32* %18, i32** %6, align 8, !llfi_index !697
  br label %19, !llfi_index !698

19:                                               ; preds = %23, %16
  %20 = load i32*, i32** %7, align 8, !llfi_index !699
  %21 = load i32*, i32** %6, align 8, !llfi_index !700
  %22 = call zeroext i1 @_ZNK9__gnu_cxx5__ops15_Iter_less_iterclIPiS3_EEbT_T0_(%"class.std::ios_base::Init"* nonnull align 1 dereferenceable(1) %4, i32* %20, i32* %21), !llfi_index !701
  br i1 %22, label %23, label %26, !llfi_index !702

23:                                               ; preds = %19
  %24 = load i32*, i32** %6, align 8, !llfi_index !703
  %25 = getelementptr inbounds i32, i32* %24, i32 -1, !llfi_index !704
  store i32* %25, i32** %6, align 8, !llfi_index !705
  br label %19, !llvm.loop !706, !llfi_index !707

26:                                               ; preds = %19
  %27 = load i32*, i32** %5, align 8, !llfi_index !708
  %28 = load i32*, i32** %6, align 8, !llfi_index !709
  %29 = icmp ult i32* %27, %28, !llfi_index !710
  br i1 %29, label %32, label %30, !llfi_index !711

30:                                               ; preds = %26
  %31 = load i32*, i32** %5, align 8, !llfi_index !712
  ret i32* %31, !llfi_index !713

32:                                               ; preds = %26
  %33 = load i32*, i32** %5, align 8, !llfi_index !714
  %34 = load i32*, i32** %6, align 8, !llfi_index !715
  call void @_ZSt9iter_swapIPiS0_EvT_T0_(i32* %33, i32* %34), !llfi_index !716
  %35 = load i32*, i32** %5, align 8, !llfi_index !717
  %36 = getelementptr inbounds i32, i32* %35, i32 1, !llfi_index !718
  store i32* %36, i32** %5, align 8, !llfi_index !719
  br label %8, !llvm.loop !720, !llfi_index !721
}

; Function Attrs: mustprogress noinline nounwind uwtable
define linkonce_odr dso_local void @_ZSt9iter_swapIPiS0_EvT_T0_(i32* %0, i32* %1) #8 comdat {
  %3 = alloca i32*, align 8, !llfi_index !722
  %4 = alloca i32*, align 8, !llfi_index !723
  store i32* %0, i32** %3, align 8, !llfi_index !724
  store i32* %1, i32** %4, align 8, !llfi_index !725
  %5 = load i32*, i32** %3, align 8, !llfi_index !726
  %6 = load i32*, i32** %4, align 8, !llfi_index !727
  call void @_ZSt4swapIiENSt9enable_ifIXsr6__and_ISt6__not_ISt15__is_tuple_likeIT_EESt21is_move_constructibleIS3_ESt18is_move_assignableIS3_EEE5valueEvE4typeERS3_SC_(i32* nonnull align 4 dereferenceable(4) %5, i32* nonnull align 4 dereferenceable(4) %6) #2, !llfi_index !728
  ret void, !llfi_index !729
}

; Function Attrs: mustprogress noinline nounwind uwtable
define linkonce_odr dso_local void @_ZSt4swapIiENSt9enable_ifIXsr6__and_ISt6__not_ISt15__is_tuple_likeIT_EESt21is_move_constructibleIS3_ESt18is_move_assignableIS3_EEE5valueEvE4typeERS3_SC_(i32* nonnull align 4 dereferenceable(4) %0, i32* nonnull align 4 dereferenceable(4) %1) #8 comdat {
  %3 = alloca i32*, align 8, !llfi_index !730
  %4 = alloca i32*, align 8, !llfi_index !731
  %5 = alloca i32, align 4, !llfi_index !732
  store i32* %0, i32** %3, align 8, !llfi_index !733
  store i32* %1, i32** %4, align 8, !llfi_index !734
  %6 = load i32*, i32** %3, align 8, !llfi_index !735
  %7 = call nonnull align 4 dereferenceable(4) i32* @_ZSt4moveIRiEONSt16remove_referenceIT_E4typeEOS2_(i32* nonnull align 4 dereferenceable(4) %6) #2, !llfi_index !736
  %8 = load i32, i32* %7, align 4, !llfi_index !737
  store i32 %8, i32* %5, align 4, !llfi_index !738
  %9 = load i32*, i32** %4, align 8, !llfi_index !739
  %10 = call nonnull align 4 dereferenceable(4) i32* @_ZSt4moveIRiEONSt16remove_referenceIT_E4typeEOS2_(i32* nonnull align 4 dereferenceable(4) %9) #2, !llfi_index !740
  %11 = load i32, i32* %10, align 4, !llfi_index !741
  %12 = load i32*, i32** %3, align 8, !llfi_index !742
  store i32 %11, i32* %12, align 4, !llfi_index !743
  %13 = call nonnull align 4 dereferenceable(4) i32* @_ZSt4moveIRiEONSt16remove_referenceIT_E4typeEOS2_(i32* nonnull align 4 dereferenceable(4) %5) #2, !llfi_index !744
  %14 = load i32, i32* %13, align 4, !llfi_index !745
  %15 = load i32*, i32** %4, align 8, !llfi_index !746
  store i32 %14, i32* %15, align 4, !llfi_index !747
  ret void, !llfi_index !748
}

; Function Attrs: mustprogress noinline uwtable
define linkonce_odr dso_local void @_ZSt13__heap_selectIPiN9__gnu_cxx5__ops15_Iter_less_iterEEvT_S4_S4_T0_(i32* %0, i32* %1, i32* %2) #7 comdat {
  %4 = alloca %"class.std::ios_base::Init", align 1, !llfi_index !749
  %5 = alloca i32*, align 8, !llfi_index !750
  %6 = alloca i32*, align 8, !llfi_index !751
  %7 = alloca i32*, align 8, !llfi_index !752
  %8 = alloca i32*, align 8, !llfi_index !753
  store i32* %0, i32** %5, align 8, !llfi_index !754
  store i32* %1, i32** %6, align 8, !llfi_index !755
  store i32* %2, i32** %7, align 8, !llfi_index !756
  %9 = load i32*, i32** %5, align 8, !llfi_index !757
  %10 = load i32*, i32** %6, align 8, !llfi_index !758
  call void @_ZSt11__make_heapIPiN9__gnu_cxx5__ops15_Iter_less_iterEEvT_S4_RT0_(i32* %9, i32* %10, %"class.std::ios_base::Init"* nonnull align 1 dereferenceable(1) %4), !llfi_index !759
  %11 = load i32*, i32** %6, align 8, !llfi_index !760
  store i32* %11, i32** %8, align 8, !llfi_index !761
  br label %12, !llfi_index !762

12:                                               ; preds = %25, %3
  %13 = load i32*, i32** %8, align 8, !llfi_index !763
  %14 = load i32*, i32** %7, align 8, !llfi_index !764
  %15 = icmp ult i32* %13, %14, !llfi_index !765
  br i1 %15, label %16, label %28, !llfi_index !766

16:                                               ; preds = %12
  %17 = load i32*, i32** %8, align 8, !llfi_index !767
  %18 = load i32*, i32** %5, align 8, !llfi_index !768
  %19 = call zeroext i1 @_ZNK9__gnu_cxx5__ops15_Iter_less_iterclIPiS3_EEbT_T0_(%"class.std::ios_base::Init"* nonnull align 1 dereferenceable(1) %4, i32* %17, i32* %18), !llfi_index !769
  br i1 %19, label %20, label %24, !llfi_index !770

20:                                               ; preds = %16
  %21 = load i32*, i32** %5, align 8, !llfi_index !771
  %22 = load i32*, i32** %6, align 8, !llfi_index !772
  %23 = load i32*, i32** %8, align 8, !llfi_index !773
  call void @_ZSt10__pop_heapIPiN9__gnu_cxx5__ops15_Iter_less_iterEEvT_S4_S4_RT0_(i32* %21, i32* %22, i32* %23, %"class.std::ios_base::Init"* nonnull align 1 dereferenceable(1) %4), !llfi_index !774
  br label %24, !llfi_index !775

24:                                               ; preds = %20, %16
  br label %25, !llfi_index !776

25:                                               ; preds = %24
  %26 = load i32*, i32** %8, align 8, !llfi_index !777
  %27 = getelementptr inbounds i32, i32* %26, i32 1, !llfi_index !778
  store i32* %27, i32** %8, align 8, !llfi_index !779
  br label %12, !llvm.loop !780, !llfi_index !781

28:                                               ; preds = %12
  ret void, !llfi_index !782
}

; Function Attrs: mustprogress noinline uwtable
define linkonce_odr dso_local void @_ZSt11__sort_heapIPiN9__gnu_cxx5__ops15_Iter_less_iterEEvT_S4_RT0_(i32* %0, i32* %1, %"class.std::ios_base::Init"* nonnull align 1 dereferenceable(1) %2) #7 comdat {
  %4 = alloca i32*, align 8, !llfi_index !783
  %5 = alloca i32*, align 8, !llfi_index !784
  %6 = alloca %"class.std::ios_base::Init"*, align 8, !llfi_index !785
  store i32* %0, i32** %4, align 8, !llfi_index !786
  store i32* %1, i32** %5, align 8, !llfi_index !787
  store %"class.std::ios_base::Init"* %2, %"class.std::ios_base::Init"** %6, align 8, !llfi_index !788
  br label %7, !llfi_index !789

7:                                                ; preds = %15, %3
  %8 = load i32*, i32** %5, align 8, !llfi_index !790
  %9 = load i32*, i32** %4, align 8, !llfi_index !791
  %10 = ptrtoint i32* %8 to i64, !llfi_index !792
  %11 = ptrtoint i32* %9 to i64, !llfi_index !793
  %12 = sub i64 %10, %11, !llfi_index !794
  %13 = sdiv exact i64 %12, 4, !llfi_index !795
  %14 = icmp sgt i64 %13, 1, !llfi_index !796
  br i1 %14, label %15, label %22, !llfi_index !797

15:                                               ; preds = %7
  %16 = load i32*, i32** %5, align 8, !llfi_index !798
  %17 = getelementptr inbounds i32, i32* %16, i32 -1, !llfi_index !799
  store i32* %17, i32** %5, align 8, !llfi_index !800
  %18 = load i32*, i32** %4, align 8, !llfi_index !801
  %19 = load i32*, i32** %5, align 8, !llfi_index !802
  %20 = load i32*, i32** %5, align 8, !llfi_index !803
  %21 = load %"class.std::ios_base::Init"*, %"class.std::ios_base::Init"** %6, align 8, !llfi_index !804
  call void @_ZSt10__pop_heapIPiN9__gnu_cxx5__ops15_Iter_less_iterEEvT_S4_S4_RT0_(i32* %18, i32* %19, i32* %20, %"class.std::ios_base::Init"* nonnull align 1 dereferenceable(1) %21), !llfi_index !805
  br label %7, !llvm.loop !806, !llfi_index !807

22:                                               ; preds = %7
  ret void, !llfi_index !808
}

; Function Attrs: mustprogress noinline uwtable
define linkonce_odr dso_local void @_ZSt10__pop_heapIPiN9__gnu_cxx5__ops15_Iter_less_iterEEvT_S4_S4_RT0_(i32* %0, i32* %1, i32* %2, %"class.std::ios_base::Init"* nonnull align 1 dereferenceable(1) %3) #7 comdat {
  %5 = alloca i32*, align 8, !llfi_index !809
  %6 = alloca i32*, align 8, !llfi_index !810
  %7 = alloca i32*, align 8, !llfi_index !811
  %8 = alloca %"class.std::ios_base::Init"*, align 8, !llfi_index !812
  %9 = alloca i32, align 4, !llfi_index !813
  %10 = alloca %"class.std::ios_base::Init", align 1, !llfi_index !814
  store i32* %0, i32** %5, align 8, !llfi_index !815
  store i32* %1, i32** %6, align 8, !llfi_index !816
  store i32* %2, i32** %7, align 8, !llfi_index !817
  store %"class.std::ios_base::Init"* %3, %"class.std::ios_base::Init"** %8, align 8, !llfi_index !818
  %11 = load i32*, i32** %7, align 8, !llfi_index !819
  %12 = call nonnull align 4 dereferenceable(4) i32* @_ZSt4moveIRiEONSt16remove_referenceIT_E4typeEOS2_(i32* nonnull align 4 dereferenceable(4) %11) #2, !llfi_index !820
  %13 = load i32, i32* %12, align 4, !llfi_index !821
  store i32 %13, i32* %9, align 4, !llfi_index !822
  %14 = load i32*, i32** %5, align 8, !llfi_index !823
  %15 = call nonnull align 4 dereferenceable(4) i32* @_ZSt4moveIRiEONSt16remove_referenceIT_E4typeEOS2_(i32* nonnull align 4 dereferenceable(4) %14) #2, !llfi_index !824
  %16 = load i32, i32* %15, align 4, !llfi_index !825
  %17 = load i32*, i32** %7, align 8, !llfi_index !826
  store i32 %16, i32* %17, align 4, !llfi_index !827
  %18 = load i32*, i32** %5, align 8, !llfi_index !828
  %19 = load i32*, i32** %6, align 8, !llfi_index !829
  %20 = load i32*, i32** %5, align 8, !llfi_index !830
  %21 = ptrtoint i32* %19 to i64, !llfi_index !831
  %22 = ptrtoint i32* %20 to i64, !llfi_index !832
  %23 = sub i64 %21, %22, !llfi_index !833
  %24 = sdiv exact i64 %23, 4, !llfi_index !834
  %25 = call nonnull align 4 dereferenceable(4) i32* @_ZSt4moveIRiEONSt16remove_referenceIT_E4typeEOS2_(i32* nonnull align 4 dereferenceable(4) %9) #2, !llfi_index !835
  %26 = load i32, i32* %25, align 4, !llfi_index !836
  %27 = load %"class.std::ios_base::Init"*, %"class.std::ios_base::Init"** %8, align 8, !llfi_index !837
  call void @_ZSt13__adjust_heapIPiliN9__gnu_cxx5__ops15_Iter_less_iterEEvT_T0_S5_T1_T2_(i32* %18, i64 0, i64 %24, i32 %26), !llfi_index !838
  ret void, !llfi_index !839
}

; Function Attrs: mustprogress noinline uwtable
define linkonce_odr dso_local void @_ZSt13__adjust_heapIPiliN9__gnu_cxx5__ops15_Iter_less_iterEEvT_T0_S5_T1_T2_(i32* %0, i64 %1, i64 %2, i32 %3) #7 comdat {
  %5 = alloca %"class.std::ios_base::Init", align 1, !llfi_index !840
  %6 = alloca i32*, align 8, !llfi_index !841
  %7 = alloca i64, align 8, !llfi_index !842
  %8 = alloca i64, align 8, !llfi_index !843
  %9 = alloca i32, align 4, !llfi_index !844
  %10 = alloca i64, align 8, !llfi_index !845
  %11 = alloca i64, align 8, !llfi_index !846
  %12 = alloca %"class.std::ios_base::Init", align 1, !llfi_index !847
  %13 = alloca %"class.std::ios_base::Init", align 1, !llfi_index !848
  store i32* %0, i32** %6, align 8, !llfi_index !849
  store i64 %1, i64* %7, align 8, !llfi_index !850
  store i64 %2, i64* %8, align 8, !llfi_index !851
  store i32 %3, i32* %9, align 4, !llfi_index !852
  %14 = load i64, i64* %7, align 8, !llfi_index !853
  store i64 %14, i64* %10, align 8, !llfi_index !854
  %15 = load i64, i64* %7, align 8, !llfi_index !855
  store i64 %15, i64* %11, align 8, !llfi_index !856
  br label %16, !llfi_index !857

16:                                               ; preds = %37, %4
  %17 = load i64, i64* %11, align 8, !llfi_index !858
  %18 = load i64, i64* %8, align 8, !llfi_index !859
  %19 = sub nsw i64 %18, 1, !llfi_index !860
  %20 = sdiv i64 %19, 2, !llfi_index !861
  %21 = icmp slt i64 %17, %20, !llfi_index !862
  br i1 %21, label %22, label %47, !llfi_index !863

22:                                               ; preds = %16
  %23 = load i64, i64* %11, align 8, !llfi_index !864
  %24 = add nsw i64 %23, 1, !llfi_index !865
  %25 = mul nsw i64 2, %24, !llfi_index !866
  store i64 %25, i64* %11, align 8, !llfi_index !867
  %26 = load i32*, i32** %6, align 8, !llfi_index !868
  %27 = load i64, i64* %11, align 8, !llfi_index !869
  %28 = getelementptr inbounds i32, i32* %26, i64 %27, !llfi_index !870
  %29 = load i32*, i32** %6, align 8, !llfi_index !871
  %30 = load i64, i64* %11, align 8, !llfi_index !872
  %31 = sub nsw i64 %30, 1, !llfi_index !873
  %32 = getelementptr inbounds i32, i32* %29, i64 %31, !llfi_index !874
  %33 = call zeroext i1 @_ZNK9__gnu_cxx5__ops15_Iter_less_iterclIPiS3_EEbT_T0_(%"class.std::ios_base::Init"* nonnull align 1 dereferenceable(1) %5, i32* %28, i32* %32), !llfi_index !875
  br i1 %33, label %34, label %37, !llfi_index !876

34:                                               ; preds = %22
  %35 = load i64, i64* %11, align 8, !llfi_index !877
  %36 = add nsw i64 %35, -1, !llfi_index !878
  store i64 %36, i64* %11, align 8, !llfi_index !879
  br label %37, !llfi_index !880

37:                                               ; preds = %34, %22
  %38 = load i32*, i32** %6, align 8, !llfi_index !881
  %39 = load i64, i64* %11, align 8, !llfi_index !882
  %40 = getelementptr inbounds i32, i32* %38, i64 %39, !llfi_index !883
  %41 = call nonnull align 4 dereferenceable(4) i32* @_ZSt4moveIRiEONSt16remove_referenceIT_E4typeEOS2_(i32* nonnull align 4 dereferenceable(4) %40) #2, !llfi_index !884
  %42 = load i32, i32* %41, align 4, !llfi_index !885
  %43 = load i32*, i32** %6, align 8, !llfi_index !886
  %44 = load i64, i64* %7, align 8, !llfi_index !887
  %45 = getelementptr inbounds i32, i32* %43, i64 %44, !llfi_index !888
  store i32 %42, i32* %45, align 4, !llfi_index !889
  %46 = load i64, i64* %11, align 8, !llfi_index !890
  store i64 %46, i64* %7, align 8, !llfi_index !891
  br label %16, !llvm.loop !892, !llfi_index !893

47:                                               ; preds = %16
  %48 = load i64, i64* %8, align 8, !llfi_index !894
  %49 = and i64 %48, 1, !llfi_index !895
  %50 = icmp eq i64 %49, 0, !llfi_index !896
  br i1 %50, label %51, label %72, !llfi_index !897

51:                                               ; preds = %47
  %52 = load i64, i64* %11, align 8, !llfi_index !898
  %53 = load i64, i64* %8, align 8, !llfi_index !899
  %54 = sub nsw i64 %53, 2, !llfi_index !900
  %55 = sdiv i64 %54, 2, !llfi_index !901
  %56 = icmp eq i64 %52, %55, !llfi_index !902
  br i1 %56, label %57, label %72, !llfi_index !903

57:                                               ; preds = %51
  %58 = load i64, i64* %11, align 8, !llfi_index !904
  %59 = add nsw i64 %58, 1, !llfi_index !905
  %60 = mul nsw i64 2, %59, !llfi_index !906
  store i64 %60, i64* %11, align 8, !llfi_index !907
  %61 = load i32*, i32** %6, align 8, !llfi_index !908
  %62 = load i64, i64* %11, align 8, !llfi_index !909
  %63 = sub nsw i64 %62, 1, !llfi_index !910
  %64 = getelementptr inbounds i32, i32* %61, i64 %63, !llfi_index !911
  %65 = call nonnull align 4 dereferenceable(4) i32* @_ZSt4moveIRiEONSt16remove_referenceIT_E4typeEOS2_(i32* nonnull align 4 dereferenceable(4) %64) #2, !llfi_index !912
  %66 = load i32, i32* %65, align 4, !llfi_index !913
  %67 = load i32*, i32** %6, align 8, !llfi_index !914
  %68 = load i64, i64* %7, align 8, !llfi_index !915
  %69 = getelementptr inbounds i32, i32* %67, i64 %68, !llfi_index !916
  store i32 %66, i32* %69, align 4, !llfi_index !917
  %70 = load i64, i64* %11, align 8, !llfi_index !918
  %71 = sub nsw i64 %70, 1, !llfi_index !919
  store i64 %71, i64* %7, align 8, !llfi_index !920
  br label %72, !llfi_index !921

72:                                               ; preds = %57, %51, %47
  %73 = call nonnull align 1 dereferenceable(1) %"class.std::ios_base::Init"* @_ZSt4moveIRN9__gnu_cxx5__ops15_Iter_less_iterEEONSt16remove_referenceIT_E4typeEOS5_(%"class.std::ios_base::Init"* nonnull align 1 dereferenceable(1) %5) #2, !llfi_index !922
  call void @_ZN9__gnu_cxx5__ops14_Iter_less_valC2ENS0_15_Iter_less_iterE(%"class.std::ios_base::Init"* nonnull align 1 dereferenceable(1) %12), !llfi_index !923
  %74 = load i32*, i32** %6, align 8, !llfi_index !924
  %75 = load i64, i64* %7, align 8, !llfi_index !925
  %76 = load i64, i64* %10, align 8, !llfi_index !926
  %77 = call nonnull align 4 dereferenceable(4) i32* @_ZSt4moveIRiEONSt16remove_referenceIT_E4typeEOS2_(i32* nonnull align 4 dereferenceable(4) %9) #2, !llfi_index !927
  %78 = load i32, i32* %77, align 4, !llfi_index !928
  call void @_ZSt11__push_heapIPiliN9__gnu_cxx5__ops14_Iter_less_valEEvT_T0_S5_T1_RT2_(i32* %74, i64 %75, i64 %76, i32 %78, %"class.std::ios_base::Init"* nonnull align 1 dereferenceable(1) %12), !llfi_index !929
  ret void, !llfi_index !930
}

; Function Attrs: mustprogress noinline nounwind uwtable
define linkonce_odr dso_local nonnull align 1 dereferenceable(1) %"class.std::ios_base::Init"* @_ZSt4moveIRN9__gnu_cxx5__ops15_Iter_less_iterEEONSt16remove_referenceIT_E4typeEOS5_(%"class.std::ios_base::Init"* nonnull align 1 dereferenceable(1) %0) #8 comdat {
  %2 = alloca %"class.std::ios_base::Init"*, align 8, !llfi_index !931
  store %"class.std::ios_base::Init"* %0, %"class.std::ios_base::Init"** %2, align 8, !llfi_index !932
  %3 = load %"class.std::ios_base::Init"*, %"class.std::ios_base::Init"** %2, align 8, !llfi_index !933
  ret %"class.std::ios_base::Init"* %3, !llfi_index !934
}

; Function Attrs: noinline nounwind uwtable
define linkonce_odr dso_local void @_ZN9__gnu_cxx5__ops14_Iter_less_valC2ENS0_15_Iter_less_iterE(%"class.std::ios_base::Init"* nonnull align 1 dereferenceable(1) %0) unnamed_addr #10 comdat align 2 {
  %2 = alloca %"class.std::ios_base::Init", align 1, !llfi_index !935
  %3 = alloca %"class.std::ios_base::Init"*, align 8, !llfi_index !936
  store %"class.std::ios_base::Init"* %0, %"class.std::ios_base::Init"** %3, align 8, !llfi_index !937
  %4 = load %"class.std::ios_base::Init"*, %"class.std::ios_base::Init"** %3, align 8, !llfi_index !938
  ret void, !llfi_index !939
}

; Function Attrs: mustprogress noinline uwtable
define linkonce_odr dso_local void @_ZSt11__push_heapIPiliN9__gnu_cxx5__ops14_Iter_less_valEEvT_T0_S5_T1_RT2_(i32* %0, i64 %1, i64 %2, i32 %3, %"class.std::ios_base::Init"* nonnull align 1 dereferenceable(1) %4) #7 comdat {
  %6 = alloca i32*, align 8, !llfi_index !940
  %7 = alloca i64, align 8, !llfi_index !941
  %8 = alloca i64, align 8, !llfi_index !942
  %9 = alloca i32, align 4, !llfi_index !943
  %10 = alloca %"class.std::ios_base::Init"*, align 8, !llfi_index !944
  %11 = alloca i64, align 8, !llfi_index !945
  store i32* %0, i32** %6, align 8, !llfi_index !946
  store i64 %1, i64* %7, align 8, !llfi_index !947
  store i64 %2, i64* %8, align 8, !llfi_index !948
  store i32 %3, i32* %9, align 4, !llfi_index !949
  store %"class.std::ios_base::Init"* %4, %"class.std::ios_base::Init"** %10, align 8, !llfi_index !950
  %12 = load i64, i64* %7, align 8, !llfi_index !951
  %13 = sub nsw i64 %12, 1, !llfi_index !952
  %14 = sdiv i64 %13, 2, !llfi_index !953
  store i64 %14, i64* %11, align 8, !llfi_index !954
  br label %15, !llfi_index !955

15:                                               ; preds = %27, %5
  %16 = load i64, i64* %7, align 8, !llfi_index !956
  %17 = load i64, i64* %8, align 8, !llfi_index !957
  %18 = icmp sgt i64 %16, %17, !llfi_index !958
  br i1 %18, label %19, label %25, !llfi_index !959

19:                                               ; preds = %15
  %20 = load %"class.std::ios_base::Init"*, %"class.std::ios_base::Init"** %10, align 8, !llfi_index !960
  %21 = load i32*, i32** %6, align 8, !llfi_index !961
  %22 = load i64, i64* %11, align 8, !llfi_index !962
  %23 = getelementptr inbounds i32, i32* %21, i64 %22, !llfi_index !963
  %24 = call zeroext i1 @_ZNK9__gnu_cxx5__ops14_Iter_less_valclIPiiEEbT_RT0_(%"class.std::ios_base::Init"* nonnull align 1 dereferenceable(1) %20, i32* %23, i32* nonnull align 4 dereferenceable(4) %9), !llfi_index !964
  br label %25, !llfi_index !965

25:                                               ; preds = %19, %15
  %26 = phi i1 [ false, %15 ], [ %24, %19 ], !llfi_index !966
  br i1 %26, label %27, label %40, !llfi_index !967

27:                                               ; preds = %25
  %28 = load i32*, i32** %6, align 8, !llfi_index !968
  %29 = load i64, i64* %11, align 8, !llfi_index !969
  %30 = getelementptr inbounds i32, i32* %28, i64 %29, !llfi_index !970
  %31 = call nonnull align 4 dereferenceable(4) i32* @_ZSt4moveIRiEONSt16remove_referenceIT_E4typeEOS2_(i32* nonnull align 4 dereferenceable(4) %30) #2, !llfi_index !971
  %32 = load i32, i32* %31, align 4, !llfi_index !972
  %33 = load i32*, i32** %6, align 8, !llfi_index !973
  %34 = load i64, i64* %7, align 8, !llfi_index !974
  %35 = getelementptr inbounds i32, i32* %33, i64 %34, !llfi_index !975
  store i32 %32, i32* %35, align 4, !llfi_index !976
  %36 = load i64, i64* %11, align 8, !llfi_index !977
  store i64 %36, i64* %7, align 8, !llfi_index !978
  %37 = load i64, i64* %7, align 8, !llfi_index !979
  %38 = sub nsw i64 %37, 1, !llfi_index !980
  %39 = sdiv i64 %38, 2, !llfi_index !981
  store i64 %39, i64* %11, align 8, !llfi_index !982
  br label %15, !llvm.loop !983, !llfi_index !984

40:                                               ; preds = %25
  %41 = call nonnull align 4 dereferenceable(4) i32* @_ZSt4moveIRiEONSt16remove_referenceIT_E4typeEOS2_(i32* nonnull align 4 dereferenceable(4) %9) #2, !llfi_index !985
  %42 = load i32, i32* %41, align 4, !llfi_index !986
  %43 = load i32*, i32** %6, align 8, !llfi_index !987
  %44 = load i64, i64* %7, align 8, !llfi_index !988
  %45 = getelementptr inbounds i32, i32* %43, i64 %44, !llfi_index !989
  store i32 %42, i32* %45, align 4, !llfi_index !990
  ret void, !llfi_index !991
}

; Function Attrs: mustprogress noinline nounwind uwtable
define linkonce_odr dso_local zeroext i1 @_ZNK9__gnu_cxx5__ops14_Iter_less_valclIPiiEEbT_RT0_(%"class.std::ios_base::Init"* nonnull align 1 dereferenceable(1) %0, i32* %1, i32* nonnull align 4 dereferenceable(4) %2) #8 comdat align 2 {
  %4 = alloca %"class.std::ios_base::Init"*, align 8, !llfi_index !992
  %5 = alloca i32*, align 8, !llfi_index !993
  %6 = alloca i32*, align 8, !llfi_index !994
  store %"class.std::ios_base::Init"* %0, %"class.std::ios_base::Init"** %4, align 8, !llfi_index !995
  store i32* %1, i32** %5, align 8, !llfi_index !996
  store i32* %2, i32** %6, align 8, !llfi_index !997
  %7 = load %"class.std::ios_base::Init"*, %"class.std::ios_base::Init"** %4, align 8, !llfi_index !998
  %8 = load i32*, i32** %5, align 8, !llfi_index !999
  %9 = load i32, i32* %8, align 4, !llfi_index !1000
  %10 = load i32*, i32** %6, align 8, !llfi_index !1001
  %11 = load i32, i32* %10, align 4, !llfi_index !1002
  %12 = icmp slt i32 %9, %11, !llfi_index !1003
  ret i1 %12, !llfi_index !1004
}

; Function Attrs: mustprogress noinline uwtable
define linkonce_odr dso_local void @_ZSt11__make_heapIPiN9__gnu_cxx5__ops15_Iter_less_iterEEvT_S4_RT0_(i32* %0, i32* %1, %"class.std::ios_base::Init"* nonnull align 1 dereferenceable(1) %2) #7 comdat {
  %4 = alloca i32*, align 8, !llfi_index !1005
  %5 = alloca i32*, align 8, !llfi_index !1006
  %6 = alloca %"class.std::ios_base::Init"*, align 8, !llfi_index !1007
  %7 = alloca i64, align 8, !llfi_index !1008
  %8 = alloca i64, align 8, !llfi_index !1009
  %9 = alloca i32, align 4, !llfi_index !1010
  %10 = alloca %"class.std::ios_base::Init", align 1, !llfi_index !1011
  store i32* %0, i32** %4, align 8, !llfi_index !1012
  store i32* %1, i32** %5, align 8, !llfi_index !1013
  store %"class.std::ios_base::Init"* %2, %"class.std::ios_base::Init"** %6, align 8, !llfi_index !1014
  %11 = load i32*, i32** %5, align 8, !llfi_index !1015
  %12 = load i32*, i32** %4, align 8, !llfi_index !1016
  %13 = ptrtoint i32* %11 to i64, !llfi_index !1017
  %14 = ptrtoint i32* %12 to i64, !llfi_index !1018
  %15 = sub i64 %13, %14, !llfi_index !1019
  %16 = sdiv exact i64 %15, 4, !llfi_index !1020
  %17 = icmp slt i64 %16, 2, !llfi_index !1021
  br i1 %17, label %18, label %19, !llfi_index !1022

18:                                               ; preds = %3
  br label %47, !llfi_index !1023

19:                                               ; preds = %3
  %20 = load i32*, i32** %5, align 8, !llfi_index !1024
  %21 = load i32*, i32** %4, align 8, !llfi_index !1025
  %22 = ptrtoint i32* %20 to i64, !llfi_index !1026
  %23 = ptrtoint i32* %21 to i64, !llfi_index !1027
  %24 = sub i64 %22, %23, !llfi_index !1028
  %25 = sdiv exact i64 %24, 4, !llfi_index !1029
  store i64 %25, i64* %7, align 8, !llfi_index !1030
  %26 = load i64, i64* %7, align 8, !llfi_index !1031
  %27 = sub nsw i64 %26, 2, !llfi_index !1032
  %28 = sdiv i64 %27, 2, !llfi_index !1033
  store i64 %28, i64* %8, align 8, !llfi_index !1034
  br label %29, !llfi_index !1035

29:                                               ; preds = %44, %19
  %30 = load i32*, i32** %4, align 8, !llfi_index !1036
  %31 = load i64, i64* %8, align 8, !llfi_index !1037
  %32 = getelementptr inbounds i32, i32* %30, i64 %31, !llfi_index !1038
  %33 = call nonnull align 4 dereferenceable(4) i32* @_ZSt4moveIRiEONSt16remove_referenceIT_E4typeEOS2_(i32* nonnull align 4 dereferenceable(4) %32) #2, !llfi_index !1039
  %34 = load i32, i32* %33, align 4, !llfi_index !1040
  store i32 %34, i32* %9, align 4, !llfi_index !1041
  %35 = load i32*, i32** %4, align 8, !llfi_index !1042
  %36 = load i64, i64* %8, align 8, !llfi_index !1043
  %37 = load i64, i64* %7, align 8, !llfi_index !1044
  %38 = call nonnull align 4 dereferenceable(4) i32* @_ZSt4moveIRiEONSt16remove_referenceIT_E4typeEOS2_(i32* nonnull align 4 dereferenceable(4) %9) #2, !llfi_index !1045
  %39 = load i32, i32* %38, align 4, !llfi_index !1046
  %40 = load %"class.std::ios_base::Init"*, %"class.std::ios_base::Init"** %6, align 8, !llfi_index !1047
  call void @_ZSt13__adjust_heapIPiliN9__gnu_cxx5__ops15_Iter_less_iterEEvT_T0_S5_T1_T2_(i32* %35, i64 %36, i64 %37, i32 %39), !llfi_index !1048
  %41 = load i64, i64* %8, align 8, !llfi_index !1049
  %42 = icmp eq i64 %41, 0, !llfi_index !1050
  br i1 %42, label %43, label %44, !llfi_index !1051

43:                                               ; preds = %29
  br label %47, !llfi_index !1052

44:                                               ; preds = %29
  %45 = load i64, i64* %8, align 8, !llfi_index !1053
  %46 = add nsw i64 %45, -1, !llfi_index !1054
  store i64 %46, i64* %8, align 8, !llfi_index !1055
  br label %29, !llvm.loop !1056, !llfi_index !1057

47:                                               ; preds = %43, %18
  ret void, !llfi_index !1058
}

; Function Attrs: nofree nosync nounwind readnone speculatable willreturn
declare i64 @llvm.ctlz.i64(i64, i1 immarg) #5

attributes #0 = { noinline uwtable "frame-pointer"="all" "min-legal-vector-width"="0" "no-trapping-math"="true" "stack-protector-buffer-size"="8" "target-cpu"="x86-64" "target-features"="+cx8,+fxsr,+mmx,+sse,+sse2,+x87" "tune-cpu"="generic" }
attributes #1 = { "frame-pointer"="all" "no-trapping-math"="true" "stack-protector-buffer-size"="8" "target-cpu"="x86-64" "target-features"="+cx8,+fxsr,+mmx,+sse,+sse2,+x87" "tune-cpu"="generic" }
attributes #2 = { nounwind }
attributes #3 = { nounwind "frame-pointer"="all" "no-trapping-math"="true" "stack-protector-buffer-size"="8" "target-cpu"="x86-64" "target-features"="+cx8,+fxsr,+mmx,+sse,+sse2,+x87" "tune-cpu"="generic" }
attributes #4 = { mustprogress noinline norecurse uwtable "frame-pointer"="all" "min-legal-vector-width"="0" "no-trapping-math"="true" "stack-protector-buffer-size"="8" "target-cpu"="x86-64" "target-features"="+cx8,+fxsr,+mmx,+sse,+sse2,+x87" "tune-cpu"="generic" }
attributes #5 = { nofree nosync nounwind readnone speculatable willreturn }
attributes #6 = { nobuiltin allocsize(0) "frame-pointer"="all" "no-trapping-math"="true" "stack-protector-buffer-size"="8" "target-cpu"="x86-64" "target-features"="+cx8,+fxsr,+mmx,+sse,+sse2,+x87" "tune-cpu"="generic" }
attributes #7 = { mustprogress noinline uwtable "frame-pointer"="all" "min-legal-vector-width"="0" "no-trapping-math"="true" "stack-protector-buffer-size"="8" "target-cpu"="x86-64" "target-features"="+cx8,+fxsr,+mmx,+sse,+sse2,+x87" "tune-cpu"="generic" }
attributes #8 = { mustprogress noinline nounwind uwtable "frame-pointer"="all" "min-legal-vector-width"="0" "no-trapping-math"="true" "stack-protector-buffer-size"="8" "target-cpu"="x86-64" "target-features"="+cx8,+fxsr,+mmx,+sse,+sse2,+x87" "tune-cpu"="generic" }
attributes #9 = { argmemonly nofree nounwind willreturn }
attributes #10 = { noinline nounwind uwtable "frame-pointer"="all" "min-legal-vector-width"="0" "no-trapping-math"="true" "stack-protector-buffer-size"="8" "target-cpu"="x86-64" "target-features"="+cx8,+fxsr,+mmx,+sse,+sse2,+x87" "tune-cpu"="generic" }
attributes #11 = { builtin allocsize(0) }

!llvm.ident = !{!0}
!llvm.module.flags = !{!1, !2, !3}

!0 = !{!"clang version 13.0.0 (https://github.com/llvm/llvm-project.git d7b669b3a30345cfcdb2fde2af6f48aa4b94845d)"}
!1 = !{i32 1, !"wchar_size", i32 4}
!2 = !{i32 7, !"uwtable", i32 1}
!3 = !{i32 7, !"frame-pointer", i32 2}
!4 = !{i64 1}
!5 = !{i64 2}
!6 = !{i64 3}
!7 = !{i64 4}
!8 = !{i64 5}
!9 = !{i64 6}
!10 = !{i64 7}
!11 = !{i64 8}
!12 = !{i64 9}
!13 = !{i64 10}
!14 = !{i64 11}
!15 = !{i64 12}
!16 = !{i64 13}
!17 = !{i64 14}
!18 = !{i64 15}
!19 = !{i64 16}
!20 = !{i64 17}
!21 = !{i64 18}
!22 = !{i64 19}
!23 = !{i64 20}
!24 = !{i64 21}
!25 = !{i64 22}
!26 = !{i64 23}
!27 = !{i64 24}
!28 = !{i64 25}
!29 = !{i64 26}
!30 = !{i64 27}
!31 = !{i64 28}
!32 = !{i64 29}
!33 = !{i64 30}
!34 = !{i64 31}
!35 = !{i64 32}
!36 = !{i64 33}
!37 = !{i64 34}
!38 = !{i64 35}
!39 = !{i64 36}
!40 = !{i64 37}
!41 = !{i64 38}
!42 = !{i64 39}
!43 = !{i64 40}
!44 = !{i64 41}
!45 = !{i64 42}
!46 = !{i64 43}
!47 = !{i64 44}
!48 = !{i64 45}
!49 = !{i64 46}
!50 = !{i64 47}
!51 = !{i64 48}
!52 = !{i64 49}
!53 = !{i64 50}
!54 = !{i64 51}
!55 = !{i64 52}
!56 = !{i64 53}
!57 = !{i64 54}
!58 = !{i64 55}
!59 = !{i64 56}
!60 = !{i64 57}
!61 = !{i64 58}
!62 = !{i64 59}
!63 = !{i64 60}
!64 = !{i64 61}
!65 = !{i64 62}
!66 = !{i64 63}
!67 = !{i64 64}
!68 = !{i64 65}
!69 = !{i64 66}
!70 = !{i64 67}
!71 = !{i64 68}
!72 = !{i64 69}
!73 = !{i64 70}
!74 = !{i64 71}
!75 = !{i64 72}
!76 = !{i64 73}
!77 = !{i64 74}
!78 = !{i64 75}
!79 = !{i64 76}
!80 = distinct !{!80, !81}
!81 = !{!"llvm.loop.mustprogress"}
!82 = !{i64 77}
!83 = !{i64 78}
!84 = !{i64 79}
!85 = !{i64 80}
!86 = !{i64 81}
!87 = !{i64 82}
!88 = !{i64 83}
!89 = !{i64 84}
!90 = !{i64 85}
!91 = !{i64 86}
!92 = !{i64 87}
!93 = !{i64 88}
!94 = !{i64 89}
!95 = !{i64 90}
!96 = !{i64 91}
!97 = !{i64 92}
!98 = !{i64 93}
!99 = !{i64 94}
!100 = !{i64 95}
!101 = !{i64 96}
!102 = !{i64 97}
!103 = !{i64 98}
!104 = !{i64 99}
!105 = !{i64 100}
!106 = !{i64 101}
!107 = !{i64 102}
!108 = !{i64 103}
!109 = !{i64 104}
!110 = !{i64 105}
!111 = !{i64 106}
!112 = !{i64 107}
!113 = !{i64 108}
!114 = !{i64 109}
!115 = !{i64 110}
!116 = !{i64 111}
!117 = !{i64 112}
!118 = !{i64 113}
!119 = !{i64 114}
!120 = !{i64 115}
!121 = !{i64 116}
!122 = !{i64 117}
!123 = !{i64 118}
!124 = !{i64 119}
!125 = !{i64 120}
!126 = !{i64 121}
!127 = !{i64 122}
!128 = !{i64 123}
!129 = !{i64 124}
!130 = !{i64 125}
!131 = !{i64 126}
!132 = !{i64 127}
!133 = !{i64 128}
!134 = !{i64 129}
!135 = !{i64 130}
!136 = distinct !{!136, !81}
!137 = !{i64 131}
!138 = !{i64 132}
!139 = !{i64 133}
!140 = !{i64 134}
!141 = !{i64 135}
!142 = !{i64 136}
!143 = !{i64 137}
!144 = !{i64 138}
!145 = !{i64 139}
!146 = !{i64 140}
!147 = !{i64 141}
!148 = !{i64 142}
!149 = !{i64 143}
!150 = !{i64 144}
!151 = !{i64 145}
!152 = !{i64 146}
!153 = !{i64 147}
!154 = !{i64 148}
!155 = !{i64 149}
!156 = !{i64 150}
!157 = !{i64 151}
!158 = !{i64 152}
!159 = !{i64 153}
!160 = !{i64 154}
!161 = !{i64 155}
!162 = distinct !{!162, !81}
!163 = !{i64 156}
!164 = !{i64 157}
!165 = !{i64 158}
!166 = !{i64 159}
!167 = !{i64 160}
!168 = !{i64 161}
!169 = !{i64 162}
!170 = !{i64 163}
!171 = !{i64 164}
!172 = !{i64 165}
!173 = !{i64 166}
!174 = !{i64 167}
!175 = !{i64 168}
!176 = !{i64 169}
!177 = !{i64 170}
!178 = !{i64 171}
!179 = !{i64 172}
!180 = !{i64 173}
!181 = !{i64 174}
!182 = !{i64 175}
!183 = !{i64 176}
!184 = !{i64 177}
!185 = !{i64 178}
!186 = !{i64 179}
!187 = !{i64 180}
!188 = !{i64 181}
!189 = !{i64 182}
!190 = !{i64 183}
!191 = !{i64 184}
!192 = distinct !{!192, !81}
!193 = !{i64 185}
!194 = !{i64 186}
!195 = !{i64 187}
!196 = !{i64 188}
!197 = !{i64 189}
!198 = !{i64 190}
!199 = !{i64 191}
!200 = !{i64 192}
!201 = !{i64 193}
!202 = !{i64 194}
!203 = !{i64 195}
!204 = !{i64 196}
!205 = !{i64 197}
!206 = !{i64 198}
!207 = !{i64 199}
!208 = !{i64 200}
!209 = !{i64 201}
!210 = !{i64 202}
!211 = !{i64 203}
!212 = !{i64 204}
!213 = !{i64 205}
!214 = !{i64 206}
!215 = distinct !{!215, !81}
!216 = !{i64 207}
!217 = !{i64 208}
!218 = !{i64 209}
!219 = !{i64 210}
!220 = !{i64 211}
!221 = !{i64 212}
!222 = !{i64 213}
!223 = !{i64 214}
!224 = !{i64 215}
!225 = !{i64 216}
!226 = !{i64 217}
!227 = !{i64 218}
!228 = !{i64 219}
!229 = !{i64 220}
!230 = !{i64 221}
!231 = !{i64 222}
!232 = !{i64 223}
!233 = !{i64 224}
!234 = !{i64 225}
!235 = !{i64 226}
!236 = !{i64 227}
!237 = !{i64 228}
!238 = !{i64 229}
!239 = !{i64 230}
!240 = !{i64 231}
!241 = !{i64 232}
!242 = !{i64 233}
!243 = !{i64 234}
!244 = !{i64 235}
!245 = !{i64 236}
!246 = !{i64 237}
!247 = !{i64 238}
!248 = !{i64 239}
!249 = !{i64 240}
!250 = !{i64 241}
!251 = !{i64 242}
!252 = !{i64 243}
!253 = !{i64 244}
!254 = !{i64 245}
!255 = !{i64 246}
!256 = !{i64 247}
!257 = !{i64 248}
!258 = !{i64 249}
!259 = !{i64 250}
!260 = !{i64 251}
!261 = !{i64 252}
!262 = !{i64 253}
!263 = !{i64 254}
!264 = !{i64 255}
!265 = !{i64 256}
!266 = !{i64 257}
!267 = !{i64 258}
!268 = !{i64 259}
!269 = !{i64 260}
!270 = !{i64 261}
!271 = !{i64 262}
!272 = !{i64 263}
!273 = !{i64 264}
!274 = !{i64 265}
!275 = !{i64 266}
!276 = !{i64 267}
!277 = !{i64 268}
!278 = !{i64 269}
!279 = !{i64 270}
!280 = !{i64 271}
!281 = !{i64 272}
!282 = !{i64 273}
!283 = !{i64 274}
!284 = !{i64 275}
!285 = !{i64 276}
!286 = !{i64 277}
!287 = !{i64 278}
!288 = !{i64 279}
!289 = !{i64 280}
!290 = !{i64 281}
!291 = !{i64 282}
!292 = !{i64 283}
!293 = !{i64 284}
!294 = !{i64 285}
!295 = !{i64 286}
!296 = !{i64 287}
!297 = !{i64 288}
!298 = !{i64 289}
!299 = !{i64 290}
!300 = !{i64 291}
!301 = !{i64 292}
!302 = !{i64 293}
!303 = !{i64 294}
!304 = !{i64 295}
!305 = !{i64 296}
!306 = distinct !{!306, !81}
!307 = !{i64 297}
!308 = !{i64 298}
!309 = !{i64 299}
!310 = !{i64 300}
!311 = !{i64 301}
!312 = !{i64 302}
!313 = !{i64 303}
!314 = !{i64 304}
!315 = !{i64 305}
!316 = !{i64 306}
!317 = !{i64 307}
!318 = !{i64 308}
!319 = !{i64 309}
!320 = !{i64 310}
!321 = !{i64 311}
!322 = !{i64 312}
!323 = !{i64 313}
!324 = !{i64 314}
!325 = !{i64 315}
!326 = !{i64 316}
!327 = !{i64 317}
!328 = !{i64 318}
!329 = !{i64 319}
!330 = !{i64 320}
!331 = !{i64 321}
!332 = !{i64 322}
!333 = !{i64 323}
!334 = !{i64 324}
!335 = !{i64 325}
!336 = !{i64 326}
!337 = !{i64 327}
!338 = !{i64 328}
!339 = !{i64 329}
!340 = !{i64 330}
!341 = !{i64 331}
!342 = !{i64 332}
!343 = !{i64 333}
!344 = !{i64 334}
!345 = !{i64 335}
!346 = !{i64 336}
!347 = !{i64 337}
!348 = !{i64 338}
!349 = !{i64 339}
!350 = !{i64 340}
!351 = !{i64 341}
!352 = !{i64 342}
!353 = !{i64 343}
!354 = !{i64 344}
!355 = !{i64 345}
!356 = !{i64 346}
!357 = !{i64 347}
!358 = !{i64 348}
!359 = !{i64 349}
!360 = !{i64 350}
!361 = !{i64 351}
!362 = !{i64 352}
!363 = !{i64 353}
!364 = !{i64 354}
!365 = !{i64 355}
!366 = !{i64 356}
!367 = !{i64 357}
!368 = !{i64 358}
!369 = !{i64 359}
!370 = !{i64 360}
!371 = !{i64 361}
!372 = !{i64 362}
!373 = !{i64 363}
!374 = !{i64 364}
!375 = !{i64 365}
!376 = !{i64 366}
!377 = !{i64 367}
!378 = !{i64 368}
!379 = !{i64 369}
!380 = !{i64 370}
!381 = !{i64 371}
!382 = !{i64 372}
!383 = !{i64 373}
!384 = !{i64 374}
!385 = !{i64 375}
!386 = !{i64 376}
!387 = !{i64 377}
!388 = distinct !{!388, !81}
!389 = !{i64 378}
!390 = !{i64 379}
!391 = !{i64 380}
!392 = !{i64 381}
!393 = !{i64 382}
!394 = !{i64 383}
!395 = !{i64 384}
!396 = !{i64 385}
!397 = !{i64 386}
!398 = !{i64 387}
!399 = !{i64 388}
!400 = !{i64 389}
!401 = !{i64 390}
!402 = !{i64 391}
!403 = !{i64 392}
!404 = !{i64 393}
!405 = !{i64 394}
!406 = !{i64 395}
!407 = !{i64 396}
!408 = !{i64 397}
!409 = !{i64 398}
!410 = !{i64 399}
!411 = !{i64 400}
!412 = !{i64 401}
!413 = !{i64 402}
!414 = distinct !{!414, !81}
!415 = !{i64 403}
!416 = !{i64 404}
!417 = !{i64 405}
!418 = !{i64 406}
!419 = !{i64 407}
!420 = !{i64 408}
!421 = !{i64 409}
!422 = !{i64 410}
!423 = !{i64 411}
!424 = !{i64 412}
!425 = !{i64 413}
!426 = !{i64 414}
!427 = !{i64 415}
!428 = !{i64 416}
!429 = !{i64 417}
!430 = !{i64 418}
!431 = !{i64 419}
!432 = !{i64 420}
!433 = !{i64 421}
!434 = !{i64 422}
!435 = !{i64 423}
!436 = !{i64 424}
!437 = !{i64 425}
!438 = !{i64 426}
!439 = !{i64 427}
!440 = !{i64 428}
!441 = !{i64 429}
!442 = !{i64 430}
!443 = !{i64 431}
!444 = !{i64 432}
!445 = !{i64 433}
!446 = !{i64 434}
!447 = distinct !{!447, !81}
!448 = !{i64 435}
!449 = !{i64 436}
!450 = !{i64 437}
!451 = !{i64 438}
!452 = !{i64 439}
!453 = !{i64 440}
!454 = !{i64 441}
!455 = !{i64 442}
!456 = !{i64 443}
!457 = !{i64 444}
!458 = !{i64 445}
!459 = !{i64 446}
!460 = !{i64 447}
!461 = !{i64 448}
!462 = !{i64 449}
!463 = !{i64 450}
!464 = !{i64 451}
!465 = !{i64 452}
!466 = !{i64 453}
!467 = !{i64 454}
!468 = !{i64 455}
!469 = !{i64 456}
!470 = !{i64 457}
!471 = !{i64 458}
!472 = !{i64 459}
!473 = !{i64 460}
!474 = !{i64 461}
!475 = !{i64 462}
!476 = !{i64 463}
!477 = !{i64 464}
!478 = !{i64 465}
!479 = !{i64 466}
!480 = !{i64 467}
!481 = !{i64 468}
!482 = !{i64 469}
!483 = !{i64 470}
!484 = !{i64 471}
!485 = !{i64 472}
!486 = !{i64 473}
!487 = !{i64 474}
!488 = !{i64 475}
!489 = !{i64 476}
!490 = !{i64 477}
!491 = !{i64 478}
!492 = !{i64 479}
!493 = !{i64 480}
!494 = !{i64 481}
!495 = !{i64 482}
!496 = !{i64 483}
!497 = !{i64 484}
!498 = !{i64 485}
!499 = !{i64 486}
!500 = !{i64 487}
!501 = !{i64 488}
!502 = !{i64 489}
!503 = !{i64 490}
!504 = !{i64 491}
!505 = !{i64 492}
!506 = !{i64 493}
!507 = !{i64 494}
!508 = !{i64 495}
!509 = !{i64 496}
!510 = !{i64 497}
!511 = !{i64 498}
!512 = !{i64 499}
!513 = !{i64 500}
!514 = !{i64 501}
!515 = !{i64 502}
!516 = !{i64 503}
!517 = !{i64 504}
!518 = !{i64 505}
!519 = !{i64 506}
!520 = !{i64 507}
!521 = !{i64 508}
!522 = !{i64 509}
!523 = !{i64 510}
!524 = !{i64 511}
!525 = !{i64 512}
!526 = !{i64 513}
!527 = !{i64 514}
!528 = !{i64 515}
!529 = !{i64 516}
!530 = !{i64 517}
!531 = !{i64 518}
!532 = !{i64 519}
!533 = !{i64 520}
!534 = !{i64 521}
!535 = !{i64 522}
!536 = !{i64 523}
!537 = !{i64 524}
!538 = !{i64 525}
!539 = !{i64 526}
!540 = !{i64 527}
!541 = !{i64 528}
!542 = !{i64 529}
!543 = !{i64 530}
!544 = !{i64 531}
!545 = !{i64 532}
!546 = !{i64 533}
!547 = !{i64 534}
!548 = !{i64 535}
!549 = !{i64 536}
!550 = !{i64 537}
!551 = !{i64 538}
!552 = !{i64 539}
!553 = !{i64 540}
!554 = !{i64 541}
!555 = !{i64 542}
!556 = !{i64 543}
!557 = !{i64 544}
!558 = !{i64 545}
!559 = !{i64 546}
!560 = !{i64 547}
!561 = !{i64 548}
!562 = !{i64 549}
!563 = !{i64 550}
!564 = !{i64 551}
!565 = !{i64 552}
!566 = !{i64 553}
!567 = !{i64 554}
!568 = !{i64 555}
!569 = !{i64 556}
!570 = !{i64 557}
!571 = !{i64 558}
!572 = !{i64 559}
!573 = !{i64 560}
!574 = !{i64 561}
!575 = !{i64 562}
!576 = !{i64 563}
!577 = !{i64 564}
!578 = !{i64 565}
!579 = !{i64 566}
!580 = !{i64 567}
!581 = !{i64 568}
!582 = !{i64 569}
!583 = !{i64 570}
!584 = !{i64 571}
!585 = !{i64 572}
!586 = !{i64 573}
!587 = !{i64 574}
!588 = !{i64 575}
!589 = !{i64 576}
!590 = !{i64 577}
!591 = !{i64 578}
!592 = !{i64 579}
!593 = !{i64 580}
!594 = !{i64 581}
!595 = !{i64 582}
!596 = !{i64 583}
!597 = !{i64 584}
!598 = !{i64 585}
!599 = !{i64 586}
!600 = !{i64 587}
!601 = !{i64 588}
!602 = !{i64 589}
!603 = !{i64 590}
!604 = !{i64 591}
!605 = !{i64 592}
!606 = !{i64 593}
!607 = !{i64 594}
!608 = !{i64 595}
!609 = !{i64 596}
!610 = !{i64 597}
!611 = !{i64 598}
!612 = !{i64 599}
!613 = !{i64 600}
!614 = !{i64 601}
!615 = !{i64 602}
!616 = !{i64 603}
!617 = !{i64 604}
!618 = !{i64 605}
!619 = !{i64 606}
!620 = !{i64 607}
!621 = !{i64 608}
!622 = !{i64 609}
!623 = !{i64 610}
!624 = !{i64 611}
!625 = !{i64 612}
!626 = !{i64 613}
!627 = !{i64 614}
!628 = !{i64 615}
!629 = !{i64 616}
!630 = !{i64 617}
!631 = !{i64 618}
!632 = !{i64 619}
!633 = !{i64 620}
!634 = !{i64 621}
!635 = !{i64 622}
!636 = !{i64 623}
!637 = !{i64 624}
!638 = !{i64 625}
!639 = !{i64 626}
!640 = !{i64 627}
!641 = !{i64 628}
!642 = !{i64 629}
!643 = !{i64 630}
!644 = !{i64 631}
!645 = !{i64 632}
!646 = !{i64 633}
!647 = !{i64 634}
!648 = !{i64 635}
!649 = !{i64 636}
!650 = !{i64 637}
!651 = !{i64 638}
!652 = !{i64 639}
!653 = !{i64 640}
!654 = !{i64 641}
!655 = !{i64 642}
!656 = !{i64 643}
!657 = !{i64 644}
!658 = !{i64 645}
!659 = !{i64 646}
!660 = !{i64 647}
!661 = !{i64 648}
!662 = !{i64 649}
!663 = !{i64 650}
!664 = !{i64 651}
!665 = !{i64 652}
!666 = !{i64 653}
!667 = !{i64 654}
!668 = !{i64 655}
!669 = !{i64 656}
!670 = !{i64 657}
!671 = !{i64 658}
!672 = !{i64 659}
!673 = !{i64 660}
!674 = !{i64 661}
!675 = !{i64 662}
!676 = !{i64 663}
!677 = !{i64 664}
!678 = !{i64 665}
!679 = !{i64 666}
!680 = !{i64 667}
!681 = !{i64 668}
!682 = !{i64 669}
!683 = !{i64 670}
!684 = !{i64 671}
!685 = !{i64 672}
!686 = !{i64 673}
!687 = !{i64 674}
!688 = !{i64 675}
!689 = !{i64 676}
!690 = !{i64 677}
!691 = !{i64 678}
!692 = !{i64 679}
!693 = distinct !{!693, !81}
!694 = !{i64 680}
!695 = !{i64 681}
!696 = !{i64 682}
!697 = !{i64 683}
!698 = !{i64 684}
!699 = !{i64 685}
!700 = !{i64 686}
!701 = !{i64 687}
!702 = !{i64 688}
!703 = !{i64 689}
!704 = !{i64 690}
!705 = !{i64 691}
!706 = distinct !{!706, !81}
!707 = !{i64 692}
!708 = !{i64 693}
!709 = !{i64 694}
!710 = !{i64 695}
!711 = !{i64 696}
!712 = !{i64 697}
!713 = !{i64 698}
!714 = !{i64 699}
!715 = !{i64 700}
!716 = !{i64 701}
!717 = !{i64 702}
!718 = !{i64 703}
!719 = !{i64 704}
!720 = distinct !{!720, !81}
!721 = !{i64 705}
!722 = !{i64 706}
!723 = !{i64 707}
!724 = !{i64 708}
!725 = !{i64 709}
!726 = !{i64 710}
!727 = !{i64 711}
!728 = !{i64 712}
!729 = !{i64 713}
!730 = !{i64 714}
!731 = !{i64 715}
!732 = !{i64 716}
!733 = !{i64 717}
!734 = !{i64 718}
!735 = !{i64 719}
!736 = !{i64 720}
!737 = !{i64 721}
!738 = !{i64 722}
!739 = !{i64 723}
!740 = !{i64 724}
!741 = !{i64 725}
!742 = !{i64 726}
!743 = !{i64 727}
!744 = !{i64 728}
!745 = !{i64 729}
!746 = !{i64 730}
!747 = !{i64 731}
!748 = !{i64 732}
!749 = !{i64 733}
!750 = !{i64 734}
!751 = !{i64 735}
!752 = !{i64 736}
!753 = !{i64 737}
!754 = !{i64 738}
!755 = !{i64 739}
!756 = !{i64 740}
!757 = !{i64 741}
!758 = !{i64 742}
!759 = !{i64 743}
!760 = !{i64 744}
!761 = !{i64 745}
!762 = !{i64 746}
!763 = !{i64 747}
!764 = !{i64 748}
!765 = !{i64 749}
!766 = !{i64 750}
!767 = !{i64 751}
!768 = !{i64 752}
!769 = !{i64 753}
!770 = !{i64 754}
!771 = !{i64 755}
!772 = !{i64 756}
!773 = !{i64 757}
!774 = !{i64 758}
!775 = !{i64 759}
!776 = !{i64 760}
!777 = !{i64 761}
!778 = !{i64 762}
!779 = !{i64 763}
!780 = distinct !{!780, !81}
!781 = !{i64 764}
!782 = !{i64 765}
!783 = !{i64 766}
!784 = !{i64 767}
!785 = !{i64 768}
!786 = !{i64 769}
!787 = !{i64 770}
!788 = !{i64 771}
!789 = !{i64 772}
!790 = !{i64 773}
!791 = !{i64 774}
!792 = !{i64 775}
!793 = !{i64 776}
!794 = !{i64 777}
!795 = !{i64 778}
!796 = !{i64 779}
!797 = !{i64 780}
!798 = !{i64 781}
!799 = !{i64 782}
!800 = !{i64 783}
!801 = !{i64 784}
!802 = !{i64 785}
!803 = !{i64 786}
!804 = !{i64 787}
!805 = !{i64 788}
!806 = distinct !{!806, !81}
!807 = !{i64 789}
!808 = !{i64 790}
!809 = !{i64 791}
!810 = !{i64 792}
!811 = !{i64 793}
!812 = !{i64 794}
!813 = !{i64 795}
!814 = !{i64 796}
!815 = !{i64 797}
!816 = !{i64 798}
!817 = !{i64 799}
!818 = !{i64 800}
!819 = !{i64 801}
!820 = !{i64 802}
!821 = !{i64 803}
!822 = !{i64 804}
!823 = !{i64 805}
!824 = !{i64 806}
!825 = !{i64 807}
!826 = !{i64 808}
!827 = !{i64 809}
!828 = !{i64 810}
!829 = !{i64 811}
!830 = !{i64 812}
!831 = !{i64 813}
!832 = !{i64 814}
!833 = !{i64 815}
!834 = !{i64 816}
!835 = !{i64 817}
!836 = !{i64 818}
!837 = !{i64 819}
!838 = !{i64 820}
!839 = !{i64 821}
!840 = !{i64 822}
!841 = !{i64 823}
!842 = !{i64 824}
!843 = !{i64 825}
!844 = !{i64 826}
!845 = !{i64 827}
!846 = !{i64 828}
!847 = !{i64 829}
!848 = !{i64 830}
!849 = !{i64 831}
!850 = !{i64 832}
!851 = !{i64 833}
!852 = !{i64 834}
!853 = !{i64 835}
!854 = !{i64 836}
!855 = !{i64 837}
!856 = !{i64 838}
!857 = !{i64 839}
!858 = !{i64 840}
!859 = !{i64 841}
!860 = !{i64 842}
!861 = !{i64 843}
!862 = !{i64 844}
!863 = !{i64 845}
!864 = !{i64 846}
!865 = !{i64 847}
!866 = !{i64 848}
!867 = !{i64 849}
!868 = !{i64 850}
!869 = !{i64 851}
!870 = !{i64 852}
!871 = !{i64 853}
!872 = !{i64 854}
!873 = !{i64 855}
!874 = !{i64 856}
!875 = !{i64 857}
!876 = !{i64 858}
!877 = !{i64 859}
!878 = !{i64 860}
!879 = !{i64 861}
!880 = !{i64 862}
!881 = !{i64 863}
!882 = !{i64 864}
!883 = !{i64 865}
!884 = !{i64 866}
!885 = !{i64 867}
!886 = !{i64 868}
!887 = !{i64 869}
!888 = !{i64 870}
!889 = !{i64 871}
!890 = !{i64 872}
!891 = !{i64 873}
!892 = distinct !{!892, !81}
!893 = !{i64 874}
!894 = !{i64 875}
!895 = !{i64 876}
!896 = !{i64 877}
!897 = !{i64 878}
!898 = !{i64 879}
!899 = !{i64 880}
!900 = !{i64 881}
!901 = !{i64 882}
!902 = !{i64 883}
!903 = !{i64 884}
!904 = !{i64 885}
!905 = !{i64 886}
!906 = !{i64 887}
!907 = !{i64 888}
!908 = !{i64 889}
!909 = !{i64 890}
!910 = !{i64 891}
!911 = !{i64 892}
!912 = !{i64 893}
!913 = !{i64 894}
!914 = !{i64 895}
!915 = !{i64 896}
!916 = !{i64 897}
!917 = !{i64 898}
!918 = !{i64 899}
!919 = !{i64 900}
!920 = !{i64 901}
!921 = !{i64 902}
!922 = !{i64 903}
!923 = !{i64 904}
!924 = !{i64 905}
!925 = !{i64 906}
!926 = !{i64 907}
!927 = !{i64 908}
!928 = !{i64 909}
!929 = !{i64 910}
!930 = !{i64 911}
!931 = !{i64 912}
!932 = !{i64 913}
!933 = !{i64 914}
!934 = !{i64 915}
!935 = !{i64 916}
!936 = !{i64 917}
!937 = !{i64 918}
!938 = !{i64 919}
!939 = !{i64 920}
!940 = !{i64 921}
!941 = !{i64 922}
!942 = !{i64 923}
!943 = !{i64 924}
!944 = !{i64 925}
!945 = !{i64 926}
!946 = !{i64 927}
!947 = !{i64 928}
!948 = !{i64 929}
!949 = !{i64 930}
!950 = !{i64 931}
!951 = !{i64 932}
!952 = !{i64 933}
!953 = !{i64 934}
!954 = !{i64 935}
!955 = !{i64 936}
!956 = !{i64 937}
!957 = !{i64 938}
!958 = !{i64 939}
!959 = !{i64 940}
!960 = !{i64 941}
!961 = !{i64 942}
!962 = !{i64 943}
!963 = !{i64 944}
!964 = !{i64 945}
!965 = !{i64 946}
!966 = !{i64 947}
!967 = !{i64 948}
!968 = !{i64 949}
!969 = !{i64 950}
!970 = !{i64 951}
!971 = !{i64 952}
!972 = !{i64 953}
!973 = !{i64 954}
!974 = !{i64 955}
!975 = !{i64 956}
!976 = !{i64 957}
!977 = !{i64 958}
!978 = !{i64 959}
!979 = !{i64 960}
!980 = !{i64 961}
!981 = !{i64 962}
!982 = !{i64 963}
!983 = distinct !{!983, !81}
!984 = !{i64 964}
!985 = !{i64 965}
!986 = !{i64 966}
!987 = !{i64 967}
!988 = !{i64 968}
!989 = !{i64 969}
!990 = !{i64 970}
!991 = !{i64 971}
!992 = !{i64 972}
!993 = !{i64 973}
!994 = !{i64 974}
!995 = !{i64 975}
!996 = !{i64 976}
!997 = !{i64 977}
!998 = !{i64 978}
!999 = !{i64 979}
!1000 = !{i64 980}
!1001 = !{i64 981}
!1002 = !{i64 982}
!1003 = !{i64 983}
!1004 = !{i64 984}
!1005 = !{i64 985}
!1006 = !{i64 986}
!1007 = !{i64 987}
!1008 = !{i64 988}
!1009 = !{i64 989}
!1010 = !{i64 990}
!1011 = !{i64 991}
!1012 = !{i64 992}
!1013 = !{i64 993}
!1014 = !{i64 994}
!1015 = !{i64 995}
!1016 = !{i64 996}
!1017 = !{i64 997}
!1018 = !{i64 998}
!1019 = !{i64 999}
!1020 = !{i64 1000}
!1021 = !{i64 1001}
!1022 = !{i64 1002}
!1023 = !{i64 1003}
!1024 = !{i64 1004}
!1025 = !{i64 1005}
!1026 = !{i64 1006}
!1027 = !{i64 1007}
!1028 = !{i64 1008}
!1029 = !{i64 1009}
!1030 = !{i64 1010}
!1031 = !{i64 1011}
!1032 = !{i64 1012}
!1033 = !{i64 1013}
!1034 = !{i64 1014}
!1035 = !{i64 1015}
!1036 = !{i64 1016}
!1037 = !{i64 1017}
!1038 = !{i64 1018}
!1039 = !{i64 1019}
!1040 = !{i64 1020}
!1041 = !{i64 1021}
!1042 = !{i64 1022}
!1043 = !{i64 1023}
!1044 = !{i64 1024}
!1045 = !{i64 1025}
!1046 = !{i64 1026}
!1047 = !{i64 1027}
!1048 = !{i64 1028}
!1049 = !{i64 1029}
!1050 = !{i64 1030}
!1051 = !{i64 1031}
!1052 = !{i64 1032}
!1053 = !{i64 1033}
!1054 = !{i64 1034}
!1055 = !{i64 1035}
!1056 = distinct !{!1056, !81}
!1057 = !{i64 1036}
!1058 = !{i64 1037}
