; ModuleID = '/home/hjiang/Computation-Kernel-Dataset/experiments/Fault_injection_0308_parall/O0/ImpressiveTree/ImpressiveTree.ll'
source_filename = "llvm-link"
target datalayout = "e-m:e-p270:32:32-p271:32:32-p272:64:64-i64:64-f80:128-n8:16:32:64-S128"
target triple = "x86_64-unknown-linux-gnu"

%"class.std::allocator" = type { i8 }
%"class.std::vector" = type { %"struct.std::_Vector_base" }
%"struct.std::_Vector_base" = type { %"struct.std::_Vector_base<int, std::allocator<int>>::_Vector_impl" }
%"struct.std::_Vector_base<int, std::allocator<int>>::_Vector_impl" = type { %"struct.std::_Vector_base<int, std::allocator<int>>::_Vector_impl_data" }
%"struct.std::_Vector_base<int, std::allocator<int>>::_Vector_impl_data" = type { i32*, i32*, i32* }
%struct._IO_FILE = type { i32, i8*, i8*, i8*, i8*, i8*, i8*, i8*, i8*, i8*, i8*, i8*, %struct._IO_marker*, %struct._IO_FILE*, i32, i32, i64, i16, i8, [1 x i8], i8*, i64, %struct._IO_codecvt*, %struct._IO_wide_data*, %struct._IO_FILE*, i8*, i64, i32, [20 x i8] }
%struct._IO_marker = type opaque
%struct._IO_codecvt = type opaque
%struct._IO_wide_data = type opaque
%"class.__gnu_cxx::__normal_iterator" = type { i32* }

$_ZNSt6vectorIiSaIiEEC2Ev = comdat any

$_ZNSt6vectorIiSaIiEED2Ev = comdat any

$_ZNSt12_Vector_baseIiSaIiEE19_M_get_Tp_allocatorEv = comdat any

$_ZSt8_DestroyIPiiEvT_S1_RSaIT0_E = comdat any

$_ZNSt12_Vector_baseIiSaIiEED2Ev = comdat any

$__clang_call_terminate = comdat any

$_ZNSt12_Vector_baseIiSaIiEE13_M_deallocateEPim = comdat any

$_ZNSt12_Vector_baseIiSaIiEE12_Vector_implD2Ev = comdat any

$_ZNSaIiED2Ev = comdat any

$_ZN9__gnu_cxx13new_allocatorIiED2Ev = comdat any

$_ZNSt16allocator_traitsISaIiEE10deallocateERS0_Pim = comdat any

$_ZN9__gnu_cxx13new_allocatorIiE10deallocateEPim = comdat any

$_ZSt8_DestroyIPiEvT_S1_ = comdat any

$_ZNSt12_Destroy_auxILb1EE9__destroyIPiEEvT_S3_ = comdat any

$_ZNSt12_Vector_baseIiSaIiEEC2Ev = comdat any

$_ZNSt12_Vector_baseIiSaIiEE12_Vector_implC2Ev = comdat any

$_ZNSaIiEC2Ev = comdat any

$_ZNSt12_Vector_baseIiSaIiEE17_Vector_impl_dataC2Ev = comdat any

$_ZN9__gnu_cxx13new_allocatorIiEC2Ev = comdat any

$_ZNSt6vectorIiSaIiEE5beginEv = comdat any

$_ZNSt6vectorIiSaIiEE3endEv = comdat any

$_ZN9__gnu_cxxneIPiSt6vectorIiSaIiEEEEbRKNS_17__normal_iteratorIT_T0_EESA_ = comdat any

$_ZNK9__gnu_cxx17__normal_iteratorIPiSt6vectorIiSaIiEEEdeEv = comdat any

$_ZN9__gnu_cxx17__normal_iteratorIPiSt6vectorIiSaIiEEEppEv = comdat any

$_ZNK9__gnu_cxx17__normal_iteratorIPiSt6vectorIiSaIiEEE4baseEv = comdat any

$_ZN9__gnu_cxx17__normal_iteratorIPiSt6vectorIiSaIiEEEC2ERKS1_ = comdat any

$_ZSt4swapIiENSt9enable_ifIXsr6__and_ISt6__not_ISt15__is_tuple_likeIT_EESt21is_move_constructibleIS3_ESt18is_move_assignableIS3_EEE5valueEvE4typeERS3_SC_ = comdat any

$_ZSt4moveIRiEONSt16remove_referenceIT_E4typeEOS2_ = comdat any

$_ZNSt6vectorIiSaIiEE9push_backERKi = comdat any

$_ZNSt16allocator_traitsISaIiEE9constructIiJRKiEEEvRS0_PT_DpOT0_ = comdat any

$_ZNSt6vectorIiSaIiEE17_M_realloc_insertIJRKiEEEvN9__gnu_cxx17__normal_iteratorIPiS1_EEDpOT_ = comdat any

$_ZNKSt6vectorIiSaIiEE12_M_check_lenEmPKc = comdat any

$_ZN9__gnu_cxxmiIPiSt6vectorIiSaIiEEEENS_17__normal_iteratorIT_T0_E15difference_typeERKS8_SB_ = comdat any

$_ZNSt12_Vector_baseIiSaIiEE11_M_allocateEm = comdat any

$_ZSt7forwardIRKiEOT_RNSt16remove_referenceIS2_E4typeE = comdat any

$_ZNSt6vectorIiSaIiEE11_S_relocateEPiS2_S2_RS0_ = comdat any

$_ZNSt6vectorIiSaIiEE14_S_do_relocateEPiS2_S2_RS0_St17integral_constantIbLb1EE = comdat any

$_ZSt12__relocate_aIPiS0_SaIiEET0_T_S3_S2_RT1_ = comdat any

$_ZSt12__niter_baseIPiET_S1_ = comdat any

$_ZSt14__relocate_a_1IiiENSt9enable_ifIXsr3std24__is_bitwise_relocatableIT_EE5valueEPS1_E4typeES2_S2_S2_RSaIT0_E = comdat any

$_ZNSt16allocator_traitsISaIiEE8allocateERS0_m = comdat any

$_ZN9__gnu_cxx13new_allocatorIiE8allocateEmPKv = comdat any

$_ZNK9__gnu_cxx13new_allocatorIiE8max_sizeEv = comdat any

$_ZNKSt6vectorIiSaIiEE8max_sizeEv = comdat any

$_ZNKSt6vectorIiSaIiEE4sizeEv = comdat any

$_ZSt3maxImERKT_S2_S2_ = comdat any

$_ZNKSt12_Vector_baseIiSaIiEE19_M_get_Tp_allocatorEv = comdat any

$_ZNSt6vectorIiSaIiEE11_S_max_sizeERKS0_ = comdat any

$_ZNSt16allocator_traitsISaIiEE8max_sizeERKS0_ = comdat any

$_ZSt3minImERKT_S2_S2_ = comdat any

$_ZN9__gnu_cxx13new_allocatorIiE9constructIiJRKiEEEvPT_DpOT0_ = comdat any

@llvm.global_ctors = appending global [1 x { i32, void ()*, i8* }] [{ i32, void ()*, i8* } { i32 65535, void ()* @_GLOBAL__sub_I_ImpressiveTree.cpp, i8* null }]
@_ZStL8__ioinit = internal global %"class.std::allocator" zeroinitializer, align 1
@n = dso_local global i32 0, align 4
@q = dso_local global i32 0, align 4
@eu = dso_local global [100005 x i32] zeroinitializer, align 16
@ev = dso_local global [100005 x i32] zeroinitializer, align 16
@par = dso_local global [100005 x i32] zeroinitializer, align 16
@sub = dso_local global [100005 x i32] zeroinitializer, align 16
@h = dso_local global [100005 x i32] zeroinitializer, align 16
@en = dso_local global [100005 x i32] zeroinitializer, align 16
@ex = dso_local global [100005 x i32] zeroinitializer, align 16
@rev = dso_local global [100005 x i32] zeroinitializer, align 16
@TIME = dso_local global i32 0, align 4
@dp = dso_local global [100005 x i64] zeroinitializer, align 16
@dep = dso_local global [100005 x i64] zeroinitializer, align 16
@ew = dso_local global [100005 x i64] zeroinitializer, align 16
@adj = dso_local global [100005 x %"class.std::vector"] zeroinitializer, align 16
@path = dso_local global [100005 x i32] zeroinitializer, align 16
@.str = private unnamed_addr constant [30 x i8] c"../input_files/ImpressiveTree\00", align 1
@.str.2 = private unnamed_addr constant [2 x i8] c"r\00", align 1
@stdin = external dso_local global %struct._IO_FILE*, align 8
@.str.3 = private unnamed_addr constant [5 x i8] c"%d%d\00", align 1
@.str.4 = private unnamed_addr constant [9 x i8] c"%d%d%lld\00", align 1
@.str.5 = private unnamed_addr constant [3 x i8] c"%d\00", align 1
@.str.6 = private unnamed_addr constant [4 x i8] c"%d\0A\00", align 1
@.str.7 = private unnamed_addr constant [6 x i8] c"false\00", align 1
@.str.8 = private unnamed_addr constant [19 x i8] c"ImpressiveTree.cpp\00", align 1
@__PRETTY_FUNCTION__.main = private unnamed_addr constant [11 x i8] c"int main()\00", align 1
@.str.9 = private unnamed_addr constant [26 x i8] c"vector::_M_realloc_insert\00", align 1

; Function Attrs: noinline uwtable
define internal void @_GLOBAL__sub_I_ImpressiveTree.cpp() #0 section ".text.startup" {
  call void @__cxx_global_var_init(), !llfi_index !4
  call void @__cxx_global_var_init.1(), !llfi_index !5
  ret void, !llfi_index !6
}

; Function Attrs: noinline uwtable
define internal void @__cxx_global_var_init() #0 section ".text.startup" {
  call void @_ZNSt8ios_base4InitC1Ev(%"class.std::allocator"* nonnull align 1 dereferenceable(1) @_ZStL8__ioinit), !llfi_index !7
  %1 = call i32 @atexit(void ()* @__dtor__ZStL8__ioinit) #2, !llfi_index !8
  ret void, !llfi_index !9
}

; Function Attrs: noinline uwtable
define internal void @__cxx_global_var_init.1() #0 section ".text.startup" {
  br label %1, !llfi_index !10

1:                                                ; preds = %1, %0
  %2 = phi %"class.std::vector"* [ getelementptr inbounds ([100005 x %"class.std::vector"], [100005 x %"class.std::vector"]* @adj, i32 0, i32 0), %0 ], [ %3, %1 ], !llfi_index !11
  call void @_ZNSt6vectorIiSaIiEEC2Ev(%"class.std::vector"* nonnull align 8 dereferenceable(24) %2) #2, !llfi_index !12
  %3 = getelementptr inbounds %"class.std::vector", %"class.std::vector"* %2, i64 1, !llfi_index !13
  %4 = icmp eq %"class.std::vector"* %3, getelementptr inbounds (%"class.std::vector", %"class.std::vector"* getelementptr inbounds ([100005 x %"class.std::vector"], [100005 x %"class.std::vector"]* @adj, i32 0, i32 0), i64 100005), !llfi_index !14
  br i1 %4, label %5, label %1, !llfi_index !15

5:                                                ; preds = %1
  %6 = call i32 @atexit(void ()* @__dtor_adj) #2, !llfi_index !16
  ret void, !llfi_index !17
}

; Function Attrs: noinline nounwind uwtable
define linkonce_odr dso_local void @_ZNSt6vectorIiSaIiEEC2Ev(%"class.std::vector"* nonnull align 8 dereferenceable(24) %0) unnamed_addr #1 comdat align 2 {
  %2 = alloca %"class.std::vector"*, align 8, !llfi_index !18
  store %"class.std::vector"* %0, %"class.std::vector"** %2, align 8, !llfi_index !19
  %3 = load %"class.std::vector"*, %"class.std::vector"** %2, align 8, !llfi_index !20
  %4 = bitcast %"class.std::vector"* %3 to %"struct.std::_Vector_base"*, !llfi_index !21
  call void @_ZNSt12_Vector_baseIiSaIiEEC2Ev(%"struct.std::_Vector_base"* nonnull align 8 dereferenceable(24) %4) #2, !llfi_index !22
  ret void, !llfi_index !23
}

; Function Attrs: noinline uwtable
define internal void @__dtor_adj() #0 section ".text.startup" {
  call void @__cxx_global_array_dtor(i8* null), !llfi_index !24
  ret void, !llfi_index !25
}

; Function Attrs: nounwind
declare dso_local i32 @atexit(void ()*) #2

; Function Attrs: noinline uwtable
define internal void @__cxx_global_array_dtor(i8* %0) #0 section ".text.startup" {
  %2 = alloca i8*, align 8, !llfi_index !26
  store i8* %0, i8** %2, align 8, !llfi_index !27
  br label %3, !llfi_index !28

3:                                                ; preds = %3, %1
  %4 = phi %"class.std::vector"* [ getelementptr inbounds (%"class.std::vector", %"class.std::vector"* getelementptr inbounds ([100005 x %"class.std::vector"], [100005 x %"class.std::vector"]* @adj, i32 0, i32 0), i64 100005), %1 ], [ %5, %3 ], !llfi_index !29
  %5 = getelementptr inbounds %"class.std::vector", %"class.std::vector"* %4, i64 -1, !llfi_index !30
  call void @_ZNSt6vectorIiSaIiEED2Ev(%"class.std::vector"* nonnull align 8 dereferenceable(24) %5) #2, !llfi_index !31
  %6 = icmp eq %"class.std::vector"* %5, getelementptr inbounds ([100005 x %"class.std::vector"], [100005 x %"class.std::vector"]* @adj, i32 0, i32 0), !llfi_index !32
  br i1 %6, label %7, label %3, !llfi_index !33

7:                                                ; preds = %3
  ret void, !llfi_index !34
}

; Function Attrs: noinline nounwind uwtable
define linkonce_odr dso_local void @_ZNSt6vectorIiSaIiEED2Ev(%"class.std::vector"* nonnull align 8 dereferenceable(24) %0) unnamed_addr #1 comdat align 2 personality i8* bitcast (i32 (...)* @__gxx_personality_v0 to i8*) {
  %2 = alloca %"class.std::vector"*, align 8, !llfi_index !35
  %3 = alloca i8*, align 8, !llfi_index !36
  %4 = alloca i32, align 4, !llfi_index !37
  store %"class.std::vector"* %0, %"class.std::vector"** %2, align 8, !llfi_index !38
  %5 = load %"class.std::vector"*, %"class.std::vector"** %2, align 8, !llfi_index !39
  %6 = bitcast %"class.std::vector"* %5 to %"struct.std::_Vector_base"*, !llfi_index !40
  %7 = getelementptr inbounds %"struct.std::_Vector_base", %"struct.std::_Vector_base"* %6, i32 0, i32 0, !llfi_index !41
  %8 = bitcast %"struct.std::_Vector_base<int, std::allocator<int>>::_Vector_impl"* %7 to %"struct.std::_Vector_base<int, std::allocator<int>>::_Vector_impl_data"*, !llfi_index !42
  %9 = getelementptr inbounds %"struct.std::_Vector_base<int, std::allocator<int>>::_Vector_impl_data", %"struct.std::_Vector_base<int, std::allocator<int>>::_Vector_impl_data"* %8, i32 0, i32 0, !llfi_index !43
  %10 = load i32*, i32** %9, align 8, !llfi_index !44
  %11 = bitcast %"class.std::vector"* %5 to %"struct.std::_Vector_base"*, !llfi_index !45
  %12 = getelementptr inbounds %"struct.std::_Vector_base", %"struct.std::_Vector_base"* %11, i32 0, i32 0, !llfi_index !46
  %13 = bitcast %"struct.std::_Vector_base<int, std::allocator<int>>::_Vector_impl"* %12 to %"struct.std::_Vector_base<int, std::allocator<int>>::_Vector_impl_data"*, !llfi_index !47
  %14 = getelementptr inbounds %"struct.std::_Vector_base<int, std::allocator<int>>::_Vector_impl_data", %"struct.std::_Vector_base<int, std::allocator<int>>::_Vector_impl_data"* %13, i32 0, i32 1, !llfi_index !48
  %15 = load i32*, i32** %14, align 8, !llfi_index !49
  %16 = bitcast %"class.std::vector"* %5 to %"struct.std::_Vector_base"*, !llfi_index !50
  %17 = call nonnull align 1 dereferenceable(1) %"class.std::allocator"* @_ZNSt12_Vector_baseIiSaIiEE19_M_get_Tp_allocatorEv(%"struct.std::_Vector_base"* nonnull align 8 dereferenceable(24) %16) #2, !llfi_index !51
  invoke void @_ZSt8_DestroyIPiiEvT_S1_RSaIT0_E(i32* %10, i32* %15, %"class.std::allocator"* nonnull align 1 dereferenceable(1) %17)
          to label %18 unwind label %20, !llfi_index !52

18:                                               ; preds = %1
  %19 = bitcast %"class.std::vector"* %5 to %"struct.std::_Vector_base"*, !llfi_index !53
  call void @_ZNSt12_Vector_baseIiSaIiEED2Ev(%"struct.std::_Vector_base"* nonnull align 8 dereferenceable(24) %19) #2, !llfi_index !54
  ret void, !llfi_index !55

20:                                               ; preds = %1
  %21 = landingpad { i8*, i32 }
          catch i8* null, !llfi_index !56
  %22 = extractvalue { i8*, i32 } %21, 0, !llfi_index !57
  store i8* %22, i8** %3, align 8, !llfi_index !58
  %23 = extractvalue { i8*, i32 } %21, 1, !llfi_index !59
  store i32 %23, i32* %4, align 4, !llfi_index !60
  %24 = bitcast %"class.std::vector"* %5 to %"struct.std::_Vector_base"*, !llfi_index !61
  call void @_ZNSt12_Vector_baseIiSaIiEED2Ev(%"struct.std::_Vector_base"* nonnull align 8 dereferenceable(24) %24) #2, !llfi_index !62
  br label %25, !llfi_index !63

25:                                               ; preds = %20
  %26 = load i8*, i8** %3, align 8, !llfi_index !64
  call void @__clang_call_terminate(i8* %26) #14, !llfi_index !65
  unreachable, !llfi_index !66
}

declare dso_local i32 @__gxx_personality_v0(...)

; Function Attrs: mustprogress noinline nounwind uwtable
define linkonce_odr dso_local nonnull align 1 dereferenceable(1) %"class.std::allocator"* @_ZNSt12_Vector_baseIiSaIiEE19_M_get_Tp_allocatorEv(%"struct.std::_Vector_base"* nonnull align 8 dereferenceable(24) %0) #3 comdat align 2 {
  %2 = alloca %"struct.std::_Vector_base"*, align 8, !llfi_index !67
  store %"struct.std::_Vector_base"* %0, %"struct.std::_Vector_base"** %2, align 8, !llfi_index !68
  %3 = load %"struct.std::_Vector_base"*, %"struct.std::_Vector_base"** %2, align 8, !llfi_index !69
  %4 = getelementptr inbounds %"struct.std::_Vector_base", %"struct.std::_Vector_base"* %3, i32 0, i32 0, !llfi_index !70
  %5 = bitcast %"struct.std::_Vector_base<int, std::allocator<int>>::_Vector_impl"* %4 to %"class.std::allocator"*, !llfi_index !71
  ret %"class.std::allocator"* %5, !llfi_index !72
}

; Function Attrs: mustprogress noinline uwtable
define linkonce_odr dso_local void @_ZSt8_DestroyIPiiEvT_S1_RSaIT0_E(i32* %0, i32* %1, %"class.std::allocator"* nonnull align 1 dereferenceable(1) %2) #4 comdat {
  %4 = alloca i32*, align 8, !llfi_index !73
  %5 = alloca i32*, align 8, !llfi_index !74
  %6 = alloca %"class.std::allocator"*, align 8, !llfi_index !75
  store i32* %0, i32** %4, align 8, !llfi_index !76
  store i32* %1, i32** %5, align 8, !llfi_index !77
  store %"class.std::allocator"* %2, %"class.std::allocator"** %6, align 8, !llfi_index !78
  %7 = load i32*, i32** %4, align 8, !llfi_index !79
  %8 = load i32*, i32** %5, align 8, !llfi_index !80
  call void @_ZSt8_DestroyIPiEvT_S1_(i32* %7, i32* %8), !llfi_index !81
  ret void, !llfi_index !82
}

; Function Attrs: noinline nounwind uwtable
define linkonce_odr dso_local void @_ZNSt12_Vector_baseIiSaIiEED2Ev(%"struct.std::_Vector_base"* nonnull align 8 dereferenceable(24) %0) unnamed_addr #1 comdat align 2 personality i8* bitcast (i32 (...)* @__gxx_personality_v0 to i8*) {
  %2 = alloca %"struct.std::_Vector_base"*, align 8, !llfi_index !83
  %3 = alloca i8*, align 8, !llfi_index !84
  %4 = alloca i32, align 4, !llfi_index !85
  store %"struct.std::_Vector_base"* %0, %"struct.std::_Vector_base"** %2, align 8, !llfi_index !86
  %5 = load %"struct.std::_Vector_base"*, %"struct.std::_Vector_base"** %2, align 8, !llfi_index !87
  %6 = getelementptr inbounds %"struct.std::_Vector_base", %"struct.std::_Vector_base"* %5, i32 0, i32 0, !llfi_index !88
  %7 = bitcast %"struct.std::_Vector_base<int, std::allocator<int>>::_Vector_impl"* %6 to %"struct.std::_Vector_base<int, std::allocator<int>>::_Vector_impl_data"*, !llfi_index !89
  %8 = getelementptr inbounds %"struct.std::_Vector_base<int, std::allocator<int>>::_Vector_impl_data", %"struct.std::_Vector_base<int, std::allocator<int>>::_Vector_impl_data"* %7, i32 0, i32 0, !llfi_index !90
  %9 = load i32*, i32** %8, align 8, !llfi_index !91
  %10 = getelementptr inbounds %"struct.std::_Vector_base", %"struct.std::_Vector_base"* %5, i32 0, i32 0, !llfi_index !92
  %11 = bitcast %"struct.std::_Vector_base<int, std::allocator<int>>::_Vector_impl"* %10 to %"struct.std::_Vector_base<int, std::allocator<int>>::_Vector_impl_data"*, !llfi_index !93
  %12 = getelementptr inbounds %"struct.std::_Vector_base<int, std::allocator<int>>::_Vector_impl_data", %"struct.std::_Vector_base<int, std::allocator<int>>::_Vector_impl_data"* %11, i32 0, i32 2, !llfi_index !94
  %13 = load i32*, i32** %12, align 8, !llfi_index !95
  %14 = getelementptr inbounds %"struct.std::_Vector_base", %"struct.std::_Vector_base"* %5, i32 0, i32 0, !llfi_index !96
  %15 = bitcast %"struct.std::_Vector_base<int, std::allocator<int>>::_Vector_impl"* %14 to %"struct.std::_Vector_base<int, std::allocator<int>>::_Vector_impl_data"*, !llfi_index !97
  %16 = getelementptr inbounds %"struct.std::_Vector_base<int, std::allocator<int>>::_Vector_impl_data", %"struct.std::_Vector_base<int, std::allocator<int>>::_Vector_impl_data"* %15, i32 0, i32 0, !llfi_index !98
  %17 = load i32*, i32** %16, align 8, !llfi_index !99
  %18 = ptrtoint i32* %13 to i64, !llfi_index !100
  %19 = ptrtoint i32* %17 to i64, !llfi_index !101
  %20 = sub i64 %18, %19, !llfi_index !102
  %21 = sdiv exact i64 %20, 4, !llfi_index !103
  invoke void @_ZNSt12_Vector_baseIiSaIiEE13_M_deallocateEPim(%"struct.std::_Vector_base"* nonnull align 8 dereferenceable(24) %5, i32* %9, i64 %21)
          to label %22 unwind label %24, !llfi_index !104

22:                                               ; preds = %1
  %23 = getelementptr inbounds %"struct.std::_Vector_base", %"struct.std::_Vector_base"* %5, i32 0, i32 0, !llfi_index !105
  call void @_ZNSt12_Vector_baseIiSaIiEE12_Vector_implD2Ev(%"struct.std::_Vector_base<int, std::allocator<int>>::_Vector_impl"* nonnull align 8 dereferenceable(24) %23) #2, !llfi_index !106
  ret void, !llfi_index !107

24:                                               ; preds = %1
  %25 = landingpad { i8*, i32 }
          catch i8* null, !llfi_index !108
  %26 = extractvalue { i8*, i32 } %25, 0, !llfi_index !109
  store i8* %26, i8** %3, align 8, !llfi_index !110
  %27 = extractvalue { i8*, i32 } %25, 1, !llfi_index !111
  store i32 %27, i32* %4, align 4, !llfi_index !112
  %28 = getelementptr inbounds %"struct.std::_Vector_base", %"struct.std::_Vector_base"* %5, i32 0, i32 0, !llfi_index !113
  call void @_ZNSt12_Vector_baseIiSaIiEE12_Vector_implD2Ev(%"struct.std::_Vector_base<int, std::allocator<int>>::_Vector_impl"* nonnull align 8 dereferenceable(24) %28) #2, !llfi_index !114
  br label %29, !llfi_index !115

29:                                               ; preds = %24
  %30 = load i8*, i8** %3, align 8, !llfi_index !116
  call void @__clang_call_terminate(i8* %30) #14, !llfi_index !117
  unreachable, !llfi_index !118
}

; Function Attrs: noinline noreturn nounwind
define linkonce_odr hidden void @__clang_call_terminate(i8* %0) #5 comdat {
  %2 = call i8* @__cxa_begin_catch(i8* %0) #2, !llfi_index !119
  call void @_ZSt9terminatev() #14, !llfi_index !120
  unreachable, !llfi_index !121
}

declare dso_local i8* @__cxa_begin_catch(i8*)

declare dso_local void @_ZSt9terminatev()

; Function Attrs: mustprogress noinline uwtable
define linkonce_odr dso_local void @_ZNSt12_Vector_baseIiSaIiEE13_M_deallocateEPim(%"struct.std::_Vector_base"* nonnull align 8 dereferenceable(24) %0, i32* %1, i64 %2) #4 comdat align 2 {
  %4 = alloca %"struct.std::_Vector_base"*, align 8, !llfi_index !122
  %5 = alloca i32*, align 8, !llfi_index !123
  %6 = alloca i64, align 8, !llfi_index !124
  store %"struct.std::_Vector_base"* %0, %"struct.std::_Vector_base"** %4, align 8, !llfi_index !125
  store i32* %1, i32** %5, align 8, !llfi_index !126
  store i64 %2, i64* %6, align 8, !llfi_index !127
  %7 = load %"struct.std::_Vector_base"*, %"struct.std::_Vector_base"** %4, align 8, !llfi_index !128
  %8 = load i32*, i32** %5, align 8, !llfi_index !129
  %9 = icmp ne i32* %8, null, !llfi_index !130
  br i1 %9, label %10, label %15, !llfi_index !131

10:                                               ; preds = %3
  %11 = getelementptr inbounds %"struct.std::_Vector_base", %"struct.std::_Vector_base"* %7, i32 0, i32 0, !llfi_index !132
  %12 = bitcast %"struct.std::_Vector_base<int, std::allocator<int>>::_Vector_impl"* %11 to %"class.std::allocator"*, !llfi_index !133
  %13 = load i32*, i32** %5, align 8, !llfi_index !134
  %14 = load i64, i64* %6, align 8, !llfi_index !135
  call void @_ZNSt16allocator_traitsISaIiEE10deallocateERS0_Pim(%"class.std::allocator"* nonnull align 1 dereferenceable(1) %12, i32* %13, i64 %14), !llfi_index !136
  br label %15, !llfi_index !137

15:                                               ; preds = %10, %3
  ret void, !llfi_index !138
}

; Function Attrs: noinline nounwind uwtable
define linkonce_odr dso_local void @_ZNSt12_Vector_baseIiSaIiEE12_Vector_implD2Ev(%"struct.std::_Vector_base<int, std::allocator<int>>::_Vector_impl"* nonnull align 8 dereferenceable(24) %0) unnamed_addr #1 comdat align 2 {
  %2 = alloca %"struct.std::_Vector_base<int, std::allocator<int>>::_Vector_impl"*, align 8, !llfi_index !139
  store %"struct.std::_Vector_base<int, std::allocator<int>>::_Vector_impl"* %0, %"struct.std::_Vector_base<int, std::allocator<int>>::_Vector_impl"** %2, align 8, !llfi_index !140
  %3 = load %"struct.std::_Vector_base<int, std::allocator<int>>::_Vector_impl"*, %"struct.std::_Vector_base<int, std::allocator<int>>::_Vector_impl"** %2, align 8, !llfi_index !141
  %4 = bitcast %"struct.std::_Vector_base<int, std::allocator<int>>::_Vector_impl"* %3 to %"class.std::allocator"*, !llfi_index !142
  call void @_ZNSaIiED2Ev(%"class.std::allocator"* nonnull align 1 dereferenceable(1) %4) #2, !llfi_index !143
  ret void, !llfi_index !144
}

; Function Attrs: noinline nounwind uwtable
define linkonce_odr dso_local void @_ZNSaIiED2Ev(%"class.std::allocator"* nonnull align 1 dereferenceable(1) %0) unnamed_addr #1 comdat align 2 {
  %2 = alloca %"class.std::allocator"*, align 8, !llfi_index !145
  store %"class.std::allocator"* %0, %"class.std::allocator"** %2, align 8, !llfi_index !146
  %3 = load %"class.std::allocator"*, %"class.std::allocator"** %2, align 8, !llfi_index !147
  %4 = bitcast %"class.std::allocator"* %3 to %"class.std::allocator"*, !llfi_index !148
  call void @_ZN9__gnu_cxx13new_allocatorIiED2Ev(%"class.std::allocator"* nonnull align 1 dereferenceable(1) %4) #2, !llfi_index !149
  ret void, !llfi_index !150
}

; Function Attrs: noinline nounwind uwtable
define linkonce_odr dso_local void @_ZN9__gnu_cxx13new_allocatorIiED2Ev(%"class.std::allocator"* nonnull align 1 dereferenceable(1) %0) unnamed_addr #1 comdat align 2 {
  %2 = alloca %"class.std::allocator"*, align 8, !llfi_index !151
  store %"class.std::allocator"* %0, %"class.std::allocator"** %2, align 8, !llfi_index !152
  %3 = load %"class.std::allocator"*, %"class.std::allocator"** %2, align 8, !llfi_index !153
  ret void, !llfi_index !154
}

; Function Attrs: mustprogress noinline uwtable
define linkonce_odr dso_local void @_ZNSt16allocator_traitsISaIiEE10deallocateERS0_Pim(%"class.std::allocator"* nonnull align 1 dereferenceable(1) %0, i32* %1, i64 %2) #4 comdat align 2 {
  %4 = alloca %"class.std::allocator"*, align 8, !llfi_index !155
  %5 = alloca i32*, align 8, !llfi_index !156
  %6 = alloca i64, align 8, !llfi_index !157
  store %"class.std::allocator"* %0, %"class.std::allocator"** %4, align 8, !llfi_index !158
  store i32* %1, i32** %5, align 8, !llfi_index !159
  store i64 %2, i64* %6, align 8, !llfi_index !160
  %7 = load %"class.std::allocator"*, %"class.std::allocator"** %4, align 8, !llfi_index !161
  %8 = bitcast %"class.std::allocator"* %7 to %"class.std::allocator"*, !llfi_index !162
  %9 = load i32*, i32** %5, align 8, !llfi_index !163
  %10 = load i64, i64* %6, align 8, !llfi_index !164
  call void @_ZN9__gnu_cxx13new_allocatorIiE10deallocateEPim(%"class.std::allocator"* nonnull align 1 dereferenceable(1) %8, i32* %9, i64 %10), !llfi_index !165
  ret void, !llfi_index !166
}

; Function Attrs: mustprogress noinline nounwind uwtable
define linkonce_odr dso_local void @_ZN9__gnu_cxx13new_allocatorIiE10deallocateEPim(%"class.std::allocator"* nonnull align 1 dereferenceable(1) %0, i32* %1, i64 %2) #3 comdat align 2 {
  %4 = alloca %"class.std::allocator"*, align 8, !llfi_index !167
  %5 = alloca i32*, align 8, !llfi_index !168
  %6 = alloca i64, align 8, !llfi_index !169
  store %"class.std::allocator"* %0, %"class.std::allocator"** %4, align 8, !llfi_index !170
  store i32* %1, i32** %5, align 8, !llfi_index !171
  store i64 %2, i64* %6, align 8, !llfi_index !172
  %7 = load %"class.std::allocator"*, %"class.std::allocator"** %4, align 8, !llfi_index !173
  %8 = load i32*, i32** %5, align 8, !llfi_index !174
  %9 = bitcast i32* %8 to i8*, !llfi_index !175
  call void @_ZdlPv(i8* %9) #2, !llfi_index !176
  ret void, !llfi_index !177
}

; Function Attrs: nobuiltin nounwind
declare dso_local void @_ZdlPv(i8*) #6

; Function Attrs: mustprogress noinline uwtable
define linkonce_odr dso_local void @_ZSt8_DestroyIPiEvT_S1_(i32* %0, i32* %1) #4 comdat {
  %3 = alloca i32*, align 8, !llfi_index !178
  %4 = alloca i32*, align 8, !llfi_index !179
  store i32* %0, i32** %3, align 8, !llfi_index !180
  store i32* %1, i32** %4, align 8, !llfi_index !181
  %5 = load i32*, i32** %3, align 8, !llfi_index !182
  %6 = load i32*, i32** %4, align 8, !llfi_index !183
  call void @_ZNSt12_Destroy_auxILb1EE9__destroyIPiEEvT_S3_(i32* %5, i32* %6), !llfi_index !184
  ret void, !llfi_index !185
}

; Function Attrs: mustprogress noinline nounwind uwtable
define linkonce_odr dso_local void @_ZNSt12_Destroy_auxILb1EE9__destroyIPiEEvT_S3_(i32* %0, i32* %1) #3 comdat align 2 {
  %3 = alloca i32*, align 8, !llfi_index !186
  %4 = alloca i32*, align 8, !llfi_index !187
  store i32* %0, i32** %3, align 8, !llfi_index !188
  store i32* %1, i32** %4, align 8, !llfi_index !189
  ret void, !llfi_index !190
}

; Function Attrs: noinline nounwind uwtable
define linkonce_odr dso_local void @_ZNSt12_Vector_baseIiSaIiEEC2Ev(%"struct.std::_Vector_base"* nonnull align 8 dereferenceable(24) %0) unnamed_addr #1 comdat align 2 {
  %2 = alloca %"struct.std::_Vector_base"*, align 8, !llfi_index !191
  store %"struct.std::_Vector_base"* %0, %"struct.std::_Vector_base"** %2, align 8, !llfi_index !192
  %3 = load %"struct.std::_Vector_base"*, %"struct.std::_Vector_base"** %2, align 8, !llfi_index !193
  %4 = getelementptr inbounds %"struct.std::_Vector_base", %"struct.std::_Vector_base"* %3, i32 0, i32 0, !llfi_index !194
  call void @_ZNSt12_Vector_baseIiSaIiEE12_Vector_implC2Ev(%"struct.std::_Vector_base<int, std::allocator<int>>::_Vector_impl"* nonnull align 8 dereferenceable(24) %4) #2, !llfi_index !195
  ret void, !llfi_index !196
}

; Function Attrs: noinline nounwind uwtable
define linkonce_odr dso_local void @_ZNSt12_Vector_baseIiSaIiEE12_Vector_implC2Ev(%"struct.std::_Vector_base<int, std::allocator<int>>::_Vector_impl"* nonnull align 8 dereferenceable(24) %0) unnamed_addr #1 comdat align 2 {
  %2 = alloca %"struct.std::_Vector_base<int, std::allocator<int>>::_Vector_impl"*, align 8, !llfi_index !197
  store %"struct.std::_Vector_base<int, std::allocator<int>>::_Vector_impl"* %0, %"struct.std::_Vector_base<int, std::allocator<int>>::_Vector_impl"** %2, align 8, !llfi_index !198
  %3 = load %"struct.std::_Vector_base<int, std::allocator<int>>::_Vector_impl"*, %"struct.std::_Vector_base<int, std::allocator<int>>::_Vector_impl"** %2, align 8, !llfi_index !199
  %4 = bitcast %"struct.std::_Vector_base<int, std::allocator<int>>::_Vector_impl"* %3 to %"class.std::allocator"*, !llfi_index !200
  call void @_ZNSaIiEC2Ev(%"class.std::allocator"* nonnull align 1 dereferenceable(1) %4) #2, !llfi_index !201
  %5 = bitcast %"struct.std::_Vector_base<int, std::allocator<int>>::_Vector_impl"* %3 to %"struct.std::_Vector_base<int, std::allocator<int>>::_Vector_impl_data"*, !llfi_index !202
  call void @_ZNSt12_Vector_baseIiSaIiEE17_Vector_impl_dataC2Ev(%"struct.std::_Vector_base<int, std::allocator<int>>::_Vector_impl_data"* nonnull align 8 dereferenceable(24) %5) #2, !llfi_index !203
  ret void, !llfi_index !204
}

; Function Attrs: noinline nounwind uwtable
define linkonce_odr dso_local void @_ZNSaIiEC2Ev(%"class.std::allocator"* nonnull align 1 dereferenceable(1) %0) unnamed_addr #1 comdat align 2 {
  %2 = alloca %"class.std::allocator"*, align 8, !llfi_index !205
  store %"class.std::allocator"* %0, %"class.std::allocator"** %2, align 8, !llfi_index !206
  %3 = load %"class.std::allocator"*, %"class.std::allocator"** %2, align 8, !llfi_index !207
  %4 = bitcast %"class.std::allocator"* %3 to %"class.std::allocator"*, !llfi_index !208
  call void @_ZN9__gnu_cxx13new_allocatorIiEC2Ev(%"class.std::allocator"* nonnull align 1 dereferenceable(1) %4) #2, !llfi_index !209
  ret void, !llfi_index !210
}

; Function Attrs: noinline nounwind uwtable
define linkonce_odr dso_local void @_ZNSt12_Vector_baseIiSaIiEE17_Vector_impl_dataC2Ev(%"struct.std::_Vector_base<int, std::allocator<int>>::_Vector_impl_data"* nonnull align 8 dereferenceable(24) %0) unnamed_addr #1 comdat align 2 {
  %2 = alloca %"struct.std::_Vector_base<int, std::allocator<int>>::_Vector_impl_data"*, align 8, !llfi_index !211
  store %"struct.std::_Vector_base<int, std::allocator<int>>::_Vector_impl_data"* %0, %"struct.std::_Vector_base<int, std::allocator<int>>::_Vector_impl_data"** %2, align 8, !llfi_index !212
  %3 = load %"struct.std::_Vector_base<int, std::allocator<int>>::_Vector_impl_data"*, %"struct.std::_Vector_base<int, std::allocator<int>>::_Vector_impl_data"** %2, align 8, !llfi_index !213
  %4 = getelementptr inbounds %"struct.std::_Vector_base<int, std::allocator<int>>::_Vector_impl_data", %"struct.std::_Vector_base<int, std::allocator<int>>::_Vector_impl_data"* %3, i32 0, i32 0, !llfi_index !214
  store i32* null, i32** %4, align 8, !llfi_index !215
  %5 = getelementptr inbounds %"struct.std::_Vector_base<int, std::allocator<int>>::_Vector_impl_data", %"struct.std::_Vector_base<int, std::allocator<int>>::_Vector_impl_data"* %3, i32 0, i32 1, !llfi_index !216
  store i32* null, i32** %5, align 8, !llfi_index !217
  %6 = getelementptr inbounds %"struct.std::_Vector_base<int, std::allocator<int>>::_Vector_impl_data", %"struct.std::_Vector_base<int, std::allocator<int>>::_Vector_impl_data"* %3, i32 0, i32 2, !llfi_index !218
  store i32* null, i32** %6, align 8, !llfi_index !219
  ret void, !llfi_index !220
}

; Function Attrs: noinline nounwind uwtable
define linkonce_odr dso_local void @_ZN9__gnu_cxx13new_allocatorIiEC2Ev(%"class.std::allocator"* nonnull align 1 dereferenceable(1) %0) unnamed_addr #1 comdat align 2 {
  %2 = alloca %"class.std::allocator"*, align 8, !llfi_index !221
  store %"class.std::allocator"* %0, %"class.std::allocator"** %2, align 8, !llfi_index !222
  %3 = load %"class.std::allocator"*, %"class.std::allocator"** %2, align 8, !llfi_index !223
  ret void, !llfi_index !224
}

declare dso_local void @_ZNSt8ios_base4InitC1Ev(%"class.std::allocator"* nonnull align 1 dereferenceable(1)) unnamed_addr #7

; Function Attrs: noinline uwtable
define internal void @__dtor__ZStL8__ioinit() #0 section ".text.startup" {
  call void @_ZNSt8ios_base4InitD1Ev(%"class.std::allocator"* @_ZStL8__ioinit), !llfi_index !225
  ret void, !llfi_index !226
}

; Function Attrs: nounwind
declare dso_local void @_ZNSt8ios_base4InitD1Ev(%"class.std::allocator"* nonnull align 1 dereferenceable(1)) unnamed_addr #8

; Function Attrs: mustprogress noinline uwtable
define dso_local void @_Z3dfsii(i32 %0, i32 %1) #4 {
  %3 = alloca i32, align 4, !llfi_index !227
  %4 = alloca i32, align 4, !llfi_index !228
  %5 = alloca %"class.std::vector"*, align 8, !llfi_index !229
  %6 = alloca %"class.__gnu_cxx::__normal_iterator", align 8, !llfi_index !230
  %7 = alloca %"class.__gnu_cxx::__normal_iterator", align 8, !llfi_index !231
  %8 = alloca i32, align 4, !llfi_index !232
  %9 = alloca i32, align 4, !llfi_index !233
  %10 = alloca i64, align 8, !llfi_index !234
  store i32 %0, i32* %3, align 4, !llfi_index !235
  store i32 %1, i32* %4, align 4, !llfi_index !236
  %11 = load i32, i32* %3, align 4, !llfi_index !237
  %12 = load i32, i32* @TIME, align 4, !llfi_index !238
  %13 = sext i32 %12 to i64, !llfi_index !239
  %14 = getelementptr inbounds [100005 x i32], [100005 x i32]* @rev, i64 0, i64 %13, !llfi_index !240
  store i32 %11, i32* %14, align 4, !llfi_index !241
  %15 = load i32, i32* @TIME, align 4, !llfi_index !242
  %16 = add nsw i32 %15, 1, !llfi_index !243
  store i32 %16, i32* @TIME, align 4, !llfi_index !244
  %17 = load i32, i32* %3, align 4, !llfi_index !245
  %18 = sext i32 %17 to i64, !llfi_index !246
  %19 = getelementptr inbounds [100005 x i32], [100005 x i32]* @en, i64 0, i64 %18, !llfi_index !247
  store i32 %15, i32* %19, align 4, !llfi_index !248
  %20 = load i32, i32* %3, align 4, !llfi_index !249
  %21 = sext i32 %20 to i64, !llfi_index !250
  %22 = getelementptr inbounds [100005 x i32], [100005 x i32]* @sub, i64 0, i64 %21, !llfi_index !251
  store i32 1, i32* %22, align 4, !llfi_index !252
  %23 = load i32, i32* %3, align 4, !llfi_index !253
  %24 = sext i32 %23 to i64, !llfi_index !254
  %25 = getelementptr inbounds [100005 x %"class.std::vector"], [100005 x %"class.std::vector"]* @adj, i64 0, i64 %24, !llfi_index !255
  store %"class.std::vector"* %25, %"class.std::vector"** %5, align 8, !llfi_index !256
  %26 = load %"class.std::vector"*, %"class.std::vector"** %5, align 8, !llfi_index !257
  %27 = call i32* @_ZNSt6vectorIiSaIiEE5beginEv(%"class.std::vector"* nonnull align 8 dereferenceable(24) %26) #2, !llfi_index !258
  %28 = getelementptr inbounds %"class.__gnu_cxx::__normal_iterator", %"class.__gnu_cxx::__normal_iterator"* %6, i32 0, i32 0, !llfi_index !259
  store i32* %27, i32** %28, align 8, !llfi_index !260
  %29 = load %"class.std::vector"*, %"class.std::vector"** %5, align 8, !llfi_index !261
  %30 = call i32* @_ZNSt6vectorIiSaIiEE3endEv(%"class.std::vector"* nonnull align 8 dereferenceable(24) %29) #2, !llfi_index !262
  %31 = getelementptr inbounds %"class.__gnu_cxx::__normal_iterator", %"class.__gnu_cxx::__normal_iterator"* %7, i32 0, i32 0, !llfi_index !263
  store i32* %30, i32** %31, align 8, !llfi_index !264
  br label %32, !llfi_index !265

32:                                               ; preds = %117, %2
  %33 = call zeroext i1 @_ZN9__gnu_cxxneIPiSt6vectorIiSaIiEEEEbRKNS_17__normal_iteratorIT_T0_EESA_(%"class.__gnu_cxx::__normal_iterator"* nonnull align 8 dereferenceable(8) %6, %"class.__gnu_cxx::__normal_iterator"* nonnull align 8 dereferenceable(8) %7) #2, !llfi_index !266
  br i1 %33, label %34, label %119, !llfi_index !267

34:                                               ; preds = %32
  %35 = call nonnull align 4 dereferenceable(4) i32* @_ZNK9__gnu_cxx17__normal_iteratorIPiSt6vectorIiSaIiEEEdeEv(%"class.__gnu_cxx::__normal_iterator"* nonnull align 8 dereferenceable(8) %6) #2, !llfi_index !268
  %36 = load i32, i32* %35, align 4, !llfi_index !269
  store i32 %36, i32* %8, align 4, !llfi_index !270
  %37 = load i32, i32* %8, align 4, !llfi_index !271
  %38 = sext i32 %37 to i64, !llfi_index !272
  %39 = getelementptr inbounds [100005 x i32], [100005 x i32]* @eu, i64 0, i64 %38, !llfi_index !273
  %40 = load i32, i32* %39, align 4, !llfi_index !274
  %41 = load i32, i32* %3, align 4, !llfi_index !275
  %42 = icmp eq i32 %40, %41, !llfi_index !276
  br i1 %42, label %43, label %48, !llfi_index !277

43:                                               ; preds = %34
  %44 = load i32, i32* %8, align 4, !llfi_index !278
  %45 = sext i32 %44 to i64, !llfi_index !279
  %46 = getelementptr inbounds [100005 x i32], [100005 x i32]* @ev, i64 0, i64 %45, !llfi_index !280
  %47 = load i32, i32* %46, align 4, !llfi_index !281
  br label %53, !llfi_index !282

48:                                               ; preds = %34
  %49 = load i32, i32* %8, align 4, !llfi_index !283
  %50 = sext i32 %49 to i64, !llfi_index !284
  %51 = getelementptr inbounds [100005 x i32], [100005 x i32]* @eu, i64 0, i64 %50, !llfi_index !285
  %52 = load i32, i32* %51, align 4, !llfi_index !286
  br label %53, !llfi_index !287

53:                                               ; preds = %48, %43
  %54 = phi i32 [ %47, %43 ], [ %52, %48 ], !llfi_index !288
  store i32 %54, i32* %9, align 4, !llfi_index !289
  %55 = load i32, i32* %9, align 4, !llfi_index !290
  %56 = load i32, i32* %4, align 4, !llfi_index !291
  %57 = icmp ne i32 %55, %56, !llfi_index !292
  br i1 %57, label %58, label %116, !llfi_index !293

58:                                               ; preds = %53
  %59 = load i32, i32* %8, align 4, !llfi_index !294
  %60 = sext i32 %59 to i64, !llfi_index !295
  %61 = getelementptr inbounds [100005 x i64], [100005 x i64]* @ew, i64 0, i64 %60, !llfi_index !296
  %62 = load i64, i64* %61, align 8, !llfi_index !297
  store i64 %62, i64* %10, align 8, !llfi_index !298
  %63 = load i32, i32* %3, align 4, !llfi_index !299
  %64 = sext i32 %63 to i64, !llfi_index !300
  %65 = getelementptr inbounds [100005 x i64], [100005 x i64]* @dep, i64 0, i64 %64, !llfi_index !301
  %66 = load i64, i64* %65, align 8, !llfi_index !302
  %67 = load i64, i64* %10, align 8, !llfi_index !303
  %68 = add nsw i64 %66, %67, !llfi_index !304
  %69 = load i32, i32* %9, align 4, !llfi_index !305
  %70 = sext i32 %69 to i64, !llfi_index !306
  %71 = getelementptr inbounds [100005 x i64], [100005 x i64]* @dep, i64 0, i64 %70, !llfi_index !307
  store i64 %68, i64* %71, align 8, !llfi_index !308
  %72 = load i32, i32* %3, align 4, !llfi_index !309
  %73 = sext i32 %72 to i64, !llfi_index !310
  %74 = getelementptr inbounds [100005 x i32], [100005 x i32]* @h, i64 0, i64 %73, !llfi_index !311
  %75 = load i32, i32* %74, align 4, !llfi_index !312
  %76 = add nsw i32 %75, 1, !llfi_index !313
  %77 = load i32, i32* %9, align 4, !llfi_index !314
  %78 = sext i32 %77 to i64, !llfi_index !315
  %79 = getelementptr inbounds [100005 x i32], [100005 x i32]* @h, i64 0, i64 %78, !llfi_index !316
  store i32 %76, i32* %79, align 4, !llfi_index !317
  %80 = load i32, i32* %3, align 4, !llfi_index !318
  %81 = load i32, i32* %9, align 4, !llfi_index !319
  %82 = sext i32 %81 to i64, !llfi_index !320
  %83 = getelementptr inbounds [100005 x i32], [100005 x i32]* @par, i64 0, i64 %82, !llfi_index !321
  store i32 %80, i32* %83, align 4, !llfi_index !322
  %84 = load i32, i32* %9, align 4, !llfi_index !323
  %85 = load i32, i32* %3, align 4, !llfi_index !324
  call void @_Z3dfsii(i32 %84, i32 %85), !llfi_index !325
  %86 = load i32, i32* %9, align 4, !llfi_index !326
  %87 = sext i32 %86 to i64, !llfi_index !327
  %88 = getelementptr inbounds [100005 x i32], [100005 x i32]* @sub, i64 0, i64 %87, !llfi_index !328
  %89 = load i32, i32* %88, align 4, !llfi_index !329
  %90 = load i32, i32* %3, align 4, !llfi_index !330
  %91 = sext i32 %90 to i64, !llfi_index !331
  %92 = getelementptr inbounds [100005 x i32], [100005 x i32]* @sub, i64 0, i64 %91, !llfi_index !332
  %93 = load i32, i32* %92, align 4, !llfi_index !333
  %94 = add nsw i32 %93, %89, !llfi_index !334
  store i32 %94, i32* %92, align 4, !llfi_index !335
  %95 = load i32, i32* %9, align 4, !llfi_index !336
  %96 = sext i32 %95 to i64, !llfi_index !337
  %97 = getelementptr inbounds [100005 x i64], [100005 x i64]* @dp, i64 0, i64 %96, !llfi_index !338
  %98 = load i64, i64* %97, align 8, !llfi_index !339
  %99 = load i64, i64* %10, align 8, !llfi_index !340
  %100 = load i32, i32* %9, align 4, !llfi_index !341
  %101 = sext i32 %100 to i64, !llfi_index !342
  %102 = getelementptr inbounds [100005 x i32], [100005 x i32]* @sub, i64 0, i64 %101, !llfi_index !343
  %103 = load i32, i32* %102, align 4, !llfi_index !344
  %104 = sext i32 %103 to i64, !llfi_index !345
  %105 = mul nsw i64 %99, %104, !llfi_index !346
  %106 = srem i64 %105, 1000000007, !llfi_index !347
  %107 = add nsw i64 %98, %106, !llfi_index !348
  %108 = srem i64 %107, 1000000007, !llfi_index !349
  %109 = load i32, i32* %3, align 4, !llfi_index !350
  %110 = sext i32 %109 to i64, !llfi_index !351
  %111 = getelementptr inbounds [100005 x i64], [100005 x i64]* @dp, i64 0, i64 %110, !llfi_index !352
  %112 = load i64, i64* %111, align 8, !llfi_index !353
  %113 = add nsw i64 %112, %108, !llfi_index !354
  store i64 %113, i64* %111, align 8, !llfi_index !355
  %114 = load i64, i64* %111, align 8, !llfi_index !356
  %115 = srem i64 %114, 1000000007, !llfi_index !357
  store i64 %115, i64* %111, align 8, !llfi_index !358
  br label %116, !llfi_index !359

116:                                              ; preds = %58, %53
  br label %117, !llfi_index !360

117:                                              ; preds = %116
  %118 = call nonnull align 8 dereferenceable(8) %"class.__gnu_cxx::__normal_iterator"* @_ZN9__gnu_cxx17__normal_iteratorIPiSt6vectorIiSaIiEEEppEv(%"class.__gnu_cxx::__normal_iterator"* nonnull align 8 dereferenceable(8) %6) #2, !llfi_index !361
  br label %32, !llfi_index !362

119:                                              ; preds = %32
  %120 = load i32, i32* @TIME, align 4, !llfi_index !363
  %121 = sub nsw i32 %120, 1, !llfi_index !364
  %122 = load i32, i32* %3, align 4, !llfi_index !365
  %123 = sext i32 %122 to i64, !llfi_index !366
  %124 = getelementptr inbounds [100005 x i32], [100005 x i32]* @ex, i64 0, i64 %123, !llfi_index !367
  store i32 %121, i32* %124, align 4, !llfi_index !368
  ret void, !llfi_index !369
}

; Function Attrs: mustprogress noinline nounwind uwtable
define linkonce_odr dso_local i32* @_ZNSt6vectorIiSaIiEE5beginEv(%"class.std::vector"* nonnull align 8 dereferenceable(24) %0) #3 comdat align 2 {
  %2 = alloca %"class.__gnu_cxx::__normal_iterator", align 8, !llfi_index !370
  %3 = alloca %"class.std::vector"*, align 8, !llfi_index !371
  store %"class.std::vector"* %0, %"class.std::vector"** %3, align 8, !llfi_index !372
  %4 = load %"class.std::vector"*, %"class.std::vector"** %3, align 8, !llfi_index !373
  %5 = bitcast %"class.std::vector"* %4 to %"struct.std::_Vector_base"*, !llfi_index !374
  %6 = getelementptr inbounds %"struct.std::_Vector_base", %"struct.std::_Vector_base"* %5, i32 0, i32 0, !llfi_index !375
  %7 = bitcast %"struct.std::_Vector_base<int, std::allocator<int>>::_Vector_impl"* %6 to %"struct.std::_Vector_base<int, std::allocator<int>>::_Vector_impl_data"*, !llfi_index !376
  %8 = getelementptr inbounds %"struct.std::_Vector_base<int, std::allocator<int>>::_Vector_impl_data", %"struct.std::_Vector_base<int, std::allocator<int>>::_Vector_impl_data"* %7, i32 0, i32 0, !llfi_index !377
  call void @_ZN9__gnu_cxx17__normal_iteratorIPiSt6vectorIiSaIiEEEC2ERKS1_(%"class.__gnu_cxx::__normal_iterator"* nonnull align 8 dereferenceable(8) %2, i32** nonnull align 8 dereferenceable(8) %8) #2, !llfi_index !378
  %9 = getelementptr inbounds %"class.__gnu_cxx::__normal_iterator", %"class.__gnu_cxx::__normal_iterator"* %2, i32 0, i32 0, !llfi_index !379
  %10 = load i32*, i32** %9, align 8, !llfi_index !380
  ret i32* %10, !llfi_index !381
}

; Function Attrs: mustprogress noinline nounwind uwtable
define linkonce_odr dso_local i32* @_ZNSt6vectorIiSaIiEE3endEv(%"class.std::vector"* nonnull align 8 dereferenceable(24) %0) #3 comdat align 2 {
  %2 = alloca %"class.__gnu_cxx::__normal_iterator", align 8, !llfi_index !382
  %3 = alloca %"class.std::vector"*, align 8, !llfi_index !383
  store %"class.std::vector"* %0, %"class.std::vector"** %3, align 8, !llfi_index !384
  %4 = load %"class.std::vector"*, %"class.std::vector"** %3, align 8, !llfi_index !385
  %5 = bitcast %"class.std::vector"* %4 to %"struct.std::_Vector_base"*, !llfi_index !386
  %6 = getelementptr inbounds %"struct.std::_Vector_base", %"struct.std::_Vector_base"* %5, i32 0, i32 0, !llfi_index !387
  %7 = bitcast %"struct.std::_Vector_base<int, std::allocator<int>>::_Vector_impl"* %6 to %"struct.std::_Vector_base<int, std::allocator<int>>::_Vector_impl_data"*, !llfi_index !388
  %8 = getelementptr inbounds %"struct.std::_Vector_base<int, std::allocator<int>>::_Vector_impl_data", %"struct.std::_Vector_base<int, std::allocator<int>>::_Vector_impl_data"* %7, i32 0, i32 1, !llfi_index !389
  call void @_ZN9__gnu_cxx17__normal_iteratorIPiSt6vectorIiSaIiEEEC2ERKS1_(%"class.__gnu_cxx::__normal_iterator"* nonnull align 8 dereferenceable(8) %2, i32** nonnull align 8 dereferenceable(8) %8) #2, !llfi_index !390
  %9 = getelementptr inbounds %"class.__gnu_cxx::__normal_iterator", %"class.__gnu_cxx::__normal_iterator"* %2, i32 0, i32 0, !llfi_index !391
  %10 = load i32*, i32** %9, align 8, !llfi_index !392
  ret i32* %10, !llfi_index !393
}

; Function Attrs: mustprogress noinline nounwind uwtable
define linkonce_odr dso_local zeroext i1 @_ZN9__gnu_cxxneIPiSt6vectorIiSaIiEEEEbRKNS_17__normal_iteratorIT_T0_EESA_(%"class.__gnu_cxx::__normal_iterator"* nonnull align 8 dereferenceable(8) %0, %"class.__gnu_cxx::__normal_iterator"* nonnull align 8 dereferenceable(8) %1) #3 comdat {
  %3 = alloca %"class.__gnu_cxx::__normal_iterator"*, align 8, !llfi_index !394
  %4 = alloca %"class.__gnu_cxx::__normal_iterator"*, align 8, !llfi_index !395
  store %"class.__gnu_cxx::__normal_iterator"* %0, %"class.__gnu_cxx::__normal_iterator"** %3, align 8, !llfi_index !396
  store %"class.__gnu_cxx::__normal_iterator"* %1, %"class.__gnu_cxx::__normal_iterator"** %4, align 8, !llfi_index !397
  %5 = load %"class.__gnu_cxx::__normal_iterator"*, %"class.__gnu_cxx::__normal_iterator"** %3, align 8, !llfi_index !398
  %6 = call nonnull align 8 dereferenceable(8) i32** @_ZNK9__gnu_cxx17__normal_iteratorIPiSt6vectorIiSaIiEEE4baseEv(%"class.__gnu_cxx::__normal_iterator"* nonnull align 8 dereferenceable(8) %5) #2, !llfi_index !399
  %7 = load i32*, i32** %6, align 8, !llfi_index !400
  %8 = load %"class.__gnu_cxx::__normal_iterator"*, %"class.__gnu_cxx::__normal_iterator"** %4, align 8, !llfi_index !401
  %9 = call nonnull align 8 dereferenceable(8) i32** @_ZNK9__gnu_cxx17__normal_iteratorIPiSt6vectorIiSaIiEEE4baseEv(%"class.__gnu_cxx::__normal_iterator"* nonnull align 8 dereferenceable(8) %8) #2, !llfi_index !402
  %10 = load i32*, i32** %9, align 8, !llfi_index !403
  %11 = icmp ne i32* %7, %10, !llfi_index !404
  ret i1 %11, !llfi_index !405
}

; Function Attrs: mustprogress noinline nounwind uwtable
define linkonce_odr dso_local nonnull align 4 dereferenceable(4) i32* @_ZNK9__gnu_cxx17__normal_iteratorIPiSt6vectorIiSaIiEEEdeEv(%"class.__gnu_cxx::__normal_iterator"* nonnull align 8 dereferenceable(8) %0) #3 comdat align 2 {
  %2 = alloca %"class.__gnu_cxx::__normal_iterator"*, align 8, !llfi_index !406
  store %"class.__gnu_cxx::__normal_iterator"* %0, %"class.__gnu_cxx::__normal_iterator"** %2, align 8, !llfi_index !407
  %3 = load %"class.__gnu_cxx::__normal_iterator"*, %"class.__gnu_cxx::__normal_iterator"** %2, align 8, !llfi_index !408
  %4 = getelementptr inbounds %"class.__gnu_cxx::__normal_iterator", %"class.__gnu_cxx::__normal_iterator"* %3, i32 0, i32 0, !llfi_index !409
  %5 = load i32*, i32** %4, align 8, !llfi_index !410
  ret i32* %5, !llfi_index !411
}

; Function Attrs: mustprogress noinline nounwind uwtable
define linkonce_odr dso_local nonnull align 8 dereferenceable(8) %"class.__gnu_cxx::__normal_iterator"* @_ZN9__gnu_cxx17__normal_iteratorIPiSt6vectorIiSaIiEEEppEv(%"class.__gnu_cxx::__normal_iterator"* nonnull align 8 dereferenceable(8) %0) #3 comdat align 2 {
  %2 = alloca %"class.__gnu_cxx::__normal_iterator"*, align 8, !llfi_index !412
  store %"class.__gnu_cxx::__normal_iterator"* %0, %"class.__gnu_cxx::__normal_iterator"** %2, align 8, !llfi_index !413
  %3 = load %"class.__gnu_cxx::__normal_iterator"*, %"class.__gnu_cxx::__normal_iterator"** %2, align 8, !llfi_index !414
  %4 = getelementptr inbounds %"class.__gnu_cxx::__normal_iterator", %"class.__gnu_cxx::__normal_iterator"* %3, i32 0, i32 0, !llfi_index !415
  %5 = load i32*, i32** %4, align 8, !llfi_index !416
  %6 = getelementptr inbounds i32, i32* %5, i32 1, !llfi_index !417
  store i32* %6, i32** %4, align 8, !llfi_index !418
  ret %"class.__gnu_cxx::__normal_iterator"* %3, !llfi_index !419
}

; Function Attrs: mustprogress noinline nounwind uwtable
define linkonce_odr dso_local nonnull align 8 dereferenceable(8) i32** @_ZNK9__gnu_cxx17__normal_iteratorIPiSt6vectorIiSaIiEEE4baseEv(%"class.__gnu_cxx::__normal_iterator"* nonnull align 8 dereferenceable(8) %0) #3 comdat align 2 {
  %2 = alloca %"class.__gnu_cxx::__normal_iterator"*, align 8, !llfi_index !420
  store %"class.__gnu_cxx::__normal_iterator"* %0, %"class.__gnu_cxx::__normal_iterator"** %2, align 8, !llfi_index !421
  %3 = load %"class.__gnu_cxx::__normal_iterator"*, %"class.__gnu_cxx::__normal_iterator"** %2, align 8, !llfi_index !422
  %4 = getelementptr inbounds %"class.__gnu_cxx::__normal_iterator", %"class.__gnu_cxx::__normal_iterator"* %3, i32 0, i32 0, !llfi_index !423
  ret i32** %4, !llfi_index !424
}

; Function Attrs: noinline nounwind uwtable
define linkonce_odr dso_local void @_ZN9__gnu_cxx17__normal_iteratorIPiSt6vectorIiSaIiEEEC2ERKS1_(%"class.__gnu_cxx::__normal_iterator"* nonnull align 8 dereferenceable(8) %0, i32** nonnull align 8 dereferenceable(8) %1) unnamed_addr #1 comdat align 2 {
  %3 = alloca %"class.__gnu_cxx::__normal_iterator"*, align 8, !llfi_index !425
  %4 = alloca i32**, align 8, !llfi_index !426
  store %"class.__gnu_cxx::__normal_iterator"* %0, %"class.__gnu_cxx::__normal_iterator"** %3, align 8, !llfi_index !427
  store i32** %1, i32*** %4, align 8, !llfi_index !428
  %5 = load %"class.__gnu_cxx::__normal_iterator"*, %"class.__gnu_cxx::__normal_iterator"** %3, align 8, !llfi_index !429
  %6 = getelementptr inbounds %"class.__gnu_cxx::__normal_iterator", %"class.__gnu_cxx::__normal_iterator"* %5, i32 0, i32 0, !llfi_index !430
  %7 = load i32**, i32*** %4, align 8, !llfi_index !431
  %8 = load i32*, i32** %7, align 8, !llfi_index !432
  store i32* %8, i32** %6, align 8, !llfi_index !433
  ret void, !llfi_index !434
}

; Function Attrs: mustprogress noinline nounwind uwtable
define dso_local i32 @_Z5queryii(i32 %0, i32 %1) #3 {
  %3 = alloca i32, align 4, !llfi_index !435
  %4 = alloca i32, align 4, !llfi_index !436
  %5 = alloca i32, align 4, !llfi_index !437
  %6 = alloca i32, align 4, !llfi_index !438
  %7 = alloca i32, align 4, !llfi_index !439
  %8 = alloca i32, align 4, !llfi_index !440
  %9 = alloca i32, align 4, !llfi_index !441
  %10 = alloca i64, align 8, !llfi_index !442
  %11 = alloca i32, align 4, !llfi_index !443
  %12 = alloca i32, align 4, !llfi_index !444
  %13 = alloca i32, align 4, !llfi_index !445
  %14 = alloca i64, align 8, !llfi_index !446
  %15 = alloca i64, align 8, !llfi_index !447
  %16 = alloca i64, align 8, !llfi_index !448
  store i32 %0, i32* %4, align 4, !llfi_index !449
  store i32 %1, i32* %5, align 4, !llfi_index !450
  %17 = load i32, i32* %4, align 4, !llfi_index !451
  %18 = sext i32 %17 to i64, !llfi_index !452
  %19 = getelementptr inbounds [100005 x i32], [100005 x i32]* @h, i64 0, i64 %18, !llfi_index !453
  %20 = load i32, i32* %19, align 4, !llfi_index !454
  %21 = load i32, i32* %5, align 4, !llfi_index !455
  %22 = sext i32 %21 to i64, !llfi_index !456
  %23 = getelementptr inbounds [100005 x i32], [100005 x i32]* @h, i64 0, i64 %22, !llfi_index !457
  %24 = load i32, i32* %23, align 4, !llfi_index !458
  %25 = icmp sgt i32 %20, %24, !llfi_index !459
  br i1 %25, label %26, label %27, !llfi_index !460

26:                                               ; preds = %2
  call void @_ZSt4swapIiENSt9enable_ifIXsr6__and_ISt6__not_ISt15__is_tuple_likeIT_EESt21is_move_constructibleIS3_ESt18is_move_assignableIS3_EEE5valueEvE4typeERS3_SC_(i32* nonnull align 4 dereferenceable(4) %4, i32* nonnull align 4 dereferenceable(4) %5) #2, !llfi_index !461
  br label %27, !llfi_index !462

27:                                               ; preds = %26, %2
  %28 = load i32, i32* %4, align 4, !llfi_index !463
  %29 = sext i32 %28 to i64, !llfi_index !464
  %30 = getelementptr inbounds [100005 x i32], [100005 x i32]* @en, i64 0, i64 %29, !llfi_index !465
  %31 = load i32, i32* %30, align 4, !llfi_index !466
  %32 = load i32, i32* %5, align 4, !llfi_index !467
  %33 = sext i32 %32 to i64, !llfi_index !468
  %34 = getelementptr inbounds [100005 x i32], [100005 x i32]* @en, i64 0, i64 %33, !llfi_index !469
  %35 = load i32, i32* %34, align 4, !llfi_index !470
  %36 = icmp sle i32 %31, %35, !llfi_index !471
  br i1 %36, label %37, label %298, !llfi_index !472

37:                                               ; preds = %27
  %38 = load i32, i32* %5, align 4, !llfi_index !473
  %39 = sext i32 %38 to i64, !llfi_index !474
  %40 = getelementptr inbounds [100005 x i32], [100005 x i32]* @ex, i64 0, i64 %39, !llfi_index !475
  %41 = load i32, i32* %40, align 4, !llfi_index !476
  %42 = load i32, i32* %4, align 4, !llfi_index !477
  %43 = sext i32 %42 to i64, !llfi_index !478
  %44 = getelementptr inbounds [100005 x i32], [100005 x i32]* @ex, i64 0, i64 %43, !llfi_index !479
  %45 = load i32, i32* %44, align 4, !llfi_index !480
  %46 = icmp sle i32 %41, %45, !llfi_index !481
  br i1 %46, label %47, label %298, !llfi_index !482

47:                                               ; preds = %37
  %48 = load i32, i32* %5, align 4, !llfi_index !483
  %49 = sext i32 %48 to i64, !llfi_index !484
  %50 = getelementptr inbounds [100005 x i32], [100005 x i32]* @h, i64 0, i64 %49, !llfi_index !485
  %51 = load i32, i32* %50, align 4, !llfi_index !486
  %52 = load i32, i32* %4, align 4, !llfi_index !487
  %53 = sext i32 %52 to i64, !llfi_index !488
  %54 = getelementptr inbounds [100005 x i32], [100005 x i32]* @h, i64 0, i64 %53, !llfi_index !489
  %55 = load i32, i32* %54, align 4, !llfi_index !490
  %56 = sub nsw i32 %51, %55, !llfi_index !491
  store i32 %56, i32* %6, align 4, !llfi_index !492
  %57 = load i32, i32* %6, align 4, !llfi_index !493
  store i32 %57, i32* %7, align 4, !llfi_index !494
  %58 = load i32, i32* %5, align 4, !llfi_index !495
  store i32 %58, i32* %8, align 4, !llfi_index !496
  br label %59, !llfi_index !497

59:                                               ; preds = %67, %47
  %60 = load i32, i32* %7, align 4, !llfi_index !498
  %61 = icmp sge i32 %60, 0, !llfi_index !499
  br i1 %61, label %62, label %74, !llfi_index !500

62:                                               ; preds = %59
  %63 = load i32, i32* %8, align 4, !llfi_index !501
  %64 = load i32, i32* %7, align 4, !llfi_index !502
  %65 = sext i32 %64 to i64, !llfi_index !503
  %66 = getelementptr inbounds [100005 x i32], [100005 x i32]* @path, i64 0, i64 %65, !llfi_index !504
  store i32 %63, i32* %66, align 4, !llfi_index !505
  br label %67, !llfi_index !506

67:                                               ; preds = %62
  %68 = load i32, i32* %7, align 4, !llfi_index !507
  %69 = add nsw i32 %68, -1, !llfi_index !508
  store i32 %69, i32* %7, align 4, !llfi_index !509
  %70 = load i32, i32* %8, align 4, !llfi_index !510
  %71 = sext i32 %70 to i64, !llfi_index !511
  %72 = getelementptr inbounds [100005 x i32], [100005 x i32]* @par, i64 0, i64 %71, !llfi_index !512
  %73 = load i32, i32* %72, align 4, !llfi_index !513
  store i32 %73, i32* %8, align 4, !llfi_index !514
  br label %59, !llvm.loop !515, !llfi_index !517

74:                                               ; preds = %59
  store i32 0, i32* %9, align 4, !llfi_index !518
  br label %75, !llfi_index !519

75:                                               ; preds = %111, %74
  %76 = load i32, i32* %9, align 4, !llfi_index !520
  %77 = load i32, i32* %6, align 4, !llfi_index !521
  %78 = icmp sle i32 %76, %77, !llfi_index !522
  br i1 %78, label %79, label %109, !llfi_index !523

79:                                               ; preds = %75
  %80 = load i32, i32* %9, align 4, !llfi_index !524
  %81 = sext i32 %80 to i64, !llfi_index !525
  %82 = getelementptr inbounds [100005 x i32], [100005 x i32]* @path, i64 0, i64 %81, !llfi_index !526
  %83 = load i32, i32* %82, align 4, !llfi_index !527
  %84 = sext i32 %83 to i64, !llfi_index !528
  %85 = getelementptr inbounds [100005 x i64], [100005 x i64]* @dep, i64 0, i64 %84, !llfi_index !529
  %86 = load i64, i64* %85, align 8, !llfi_index !530
  %87 = load i32, i32* getelementptr inbounds ([100005 x i32], [100005 x i32]* @path, i64 0, i64 0), align 16, !llfi_index !531
  %88 = sext i32 %87 to i64, !llfi_index !532
  %89 = getelementptr inbounds [100005 x i64], [100005 x i64]* @dep, i64 0, i64 %88, !llfi_index !533
  %90 = load i64, i64* %89, align 8, !llfi_index !534
  %91 = sub nsw i64 %86, %90, !llfi_index !535
  %92 = add nsw i64 %91, 1, !llfi_index !536
  %93 = load i32, i32* %6, align 4, !llfi_index !537
  %94 = sext i32 %93 to i64, !llfi_index !538
  %95 = getelementptr inbounds [100005 x i32], [100005 x i32]* @path, i64 0, i64 %94, !llfi_index !539
  %96 = load i32, i32* %95, align 4, !llfi_index !540
  %97 = sext i32 %96 to i64, !llfi_index !541
  %98 = getelementptr inbounds [100005 x i64], [100005 x i64]* @dep, i64 0, i64 %97, !llfi_index !542
  %99 = load i64, i64* %98, align 8, !llfi_index !543
  %100 = load i32, i32* %9, align 4, !llfi_index !544
  %101 = sext i32 %100 to i64, !llfi_index !545
  %102 = getelementptr inbounds [100005 x i32], [100005 x i32]* @path, i64 0, i64 %101, !llfi_index !546
  %103 = load i32, i32* %102, align 4, !llfi_index !547
  %104 = sext i32 %103 to i64, !llfi_index !548
  %105 = getelementptr inbounds [100005 x i64], [100005 x i64]* @dep, i64 0, i64 %104, !llfi_index !549
  %106 = load i64, i64* %105, align 8, !llfi_index !550
  %107 = sub nsw i64 %99, %106, !llfi_index !551
  %108 = icmp sle i64 %92, %107, !llfi_index !552
  br label %109, !llfi_index !553

109:                                              ; preds = %79, %75
  %110 = phi i1 [ false, %75 ], [ %108, %79 ], !llfi_index !554
  br i1 %110, label %111, label %114, !llfi_index !555

111:                                              ; preds = %109
  %112 = load i32, i32* %9, align 4, !llfi_index !556
  %113 = add nsw i32 %112, 1, !llfi_index !557
  store i32 %113, i32* %9, align 4, !llfi_index !558
  br label %75, !llvm.loop !559, !llfi_index !560

114:                                              ; preds = %109
  %115 = load i32, i32* %9, align 4, !llfi_index !561
  %116 = add nsw i32 %115, -1, !llfi_index !562
  store i32 %116, i32* %9, align 4, !llfi_index !563
  store i64 0, i64* %10, align 8, !llfi_index !564
  store i32 0, i32* %11, align 4, !llfi_index !565
  br label %117, !llfi_index !566

117:                                              ; preds = %292, %114
  %118 = load i32, i32* %11, align 4, !llfi_index !567
  %119 = load i32, i32* %6, align 4, !llfi_index !568
  %120 = icmp slt i32 %118, %119, !llfi_index !569
  br i1 %120, label %121, label %295, !llfi_index !570

121:                                              ; preds = %117
  %122 = load i32, i32* %11, align 4, !llfi_index !571
  %123 = sext i32 %122 to i64, !llfi_index !572
  %124 = getelementptr inbounds [100005 x i32], [100005 x i32]* @path, i64 0, i64 %123, !llfi_index !573
  %125 = load i32, i32* %124, align 4, !llfi_index !574
  store i32 %125, i32* %12, align 4, !llfi_index !575
  %126 = load i32, i32* %11, align 4, !llfi_index !576
  %127 = add nsw i32 %126, 1, !llfi_index !577
  %128 = sext i32 %127 to i64, !llfi_index !578
  %129 = getelementptr inbounds [100005 x i32], [100005 x i32]* @path, i64 0, i64 %128, !llfi_index !579
  %130 = load i32, i32* %129, align 4, !llfi_index !580
  store i32 %130, i32* %13, align 4, !llfi_index !581
  %131 = load i32, i32* %13, align 4, !llfi_index !582
  %132 = sext i32 %131 to i64, !llfi_index !583
  %133 = getelementptr inbounds [100005 x i64], [100005 x i64]* @dep, i64 0, i64 %132, !llfi_index !584
  %134 = load i64, i64* %133, align 8, !llfi_index !585
  %135 = srem i64 %134, 1000000007, !llfi_index !586
  %136 = load i32, i32* %12, align 4, !llfi_index !587
  %137 = sext i32 %136 to i64, !llfi_index !588
  %138 = getelementptr inbounds [100005 x i64], [100005 x i64]* @dep, i64 0, i64 %137, !llfi_index !589
  %139 = load i64, i64* %138, align 8, !llfi_index !590
  %140 = srem i64 %139, 1000000007, !llfi_index !591
  %141 = sub nsw i64 %135, %140, !llfi_index !592
  %142 = srem i64 %141, 1000000007, !llfi_index !593
  store i64 %142, i64* %14, align 8, !llfi_index !594
  %143 = load i32, i32* %12, align 4, !llfi_index !595
  %144 = sext i32 %143 to i64, !llfi_index !596
  %145 = getelementptr inbounds [100005 x i64], [100005 x i64]* @dp, i64 0, i64 %144, !llfi_index !597
  %146 = load i64, i64* %145, align 8, !llfi_index !598
  %147 = load i32, i32* %13, align 4, !llfi_index !599
  %148 = sext i32 %147 to i64, !llfi_index !600
  %149 = getelementptr inbounds [100005 x i64], [100005 x i64]* @dp, i64 0, i64 %148, !llfi_index !601
  %150 = load i64, i64* %149, align 8, !llfi_index !602
  %151 = sub nsw i64 %146, %150, !llfi_index !603
  %152 = load i64, i64* %14, align 8, !llfi_index !604
  %153 = mul nsw i64 1, %152, !llfi_index !605
  %154 = load i32, i32* %13, align 4, !llfi_index !606
  %155 = sext i32 %154 to i64, !llfi_index !607
  %156 = getelementptr inbounds [100005 x i32], [100005 x i32]* @sub, i64 0, i64 %155, !llfi_index !608
  %157 = load i32, i32* %156, align 4, !llfi_index !609
  %158 = sext i32 %157 to i64, !llfi_index !610
  %159 = mul nsw i64 %153, %158, !llfi_index !611
  %160 = srem i64 %159, 1000000007, !llfi_index !612
  %161 = sub nsw i64 %151, %160, !llfi_index !613
  %162 = srem i64 %161, 1000000007, !llfi_index !614
  store i64 %162, i64* %15, align 8, !llfi_index !615
  %163 = load i32, i32* %12, align 4, !llfi_index !616
  %164 = sext i32 %163 to i64, !llfi_index !617
  %165 = getelementptr inbounds [100005 x i32], [100005 x i32]* @sub, i64 0, i64 %164, !llfi_index !618
  %166 = load i32, i32* %165, align 4, !llfi_index !619
  %167 = load i32, i32* %13, align 4, !llfi_index !620
  %168 = sext i32 %167 to i64, !llfi_index !621
  %169 = getelementptr inbounds [100005 x i32], [100005 x i32]* @sub, i64 0, i64 %168, !llfi_index !622
  %170 = load i32, i32* %169, align 4, !llfi_index !623
  %171 = sub nsw i32 %166, %170, !llfi_index !624
  %172 = srem i32 %171, 1000000007, !llfi_index !625
  %173 = sext i32 %172 to i64, !llfi_index !626
  store i64 %173, i64* %16, align 8, !llfi_index !627
  %174 = load i32, i32* %11, align 4, !llfi_index !628
  %175 = load i32, i32* %9, align 4, !llfi_index !629
  %176 = icmp sle i32 %174, %175, !llfi_index !630
  br i1 %176, label %177, label %235, !llfi_index !631

177:                                              ; preds = %121
  %178 = load i32, i32* %5, align 4, !llfi_index !632
  %179 = sext i32 %178 to i64, !llfi_index !633
  %180 = getelementptr inbounds [100005 x i32], [100005 x i32]* @sub, i64 0, i64 %179, !llfi_index !634
  %181 = load i32, i32* %180, align 4, !llfi_index !635
  %182 = sext i32 %181 to i64, !llfi_index !636
  %183 = mul nsw i64 1, %182, !llfi_index !637
  %184 = load i64, i64* %15, align 8, !llfi_index !638
  %185 = mul nsw i64 %183, %184, !llfi_index !639
  %186 = srem i64 %185, 1000000007, !llfi_index !640
  %187 = load i32, i32* %5, align 4, !llfi_index !641
  %188 = sext i32 %187 to i64, !llfi_index !642
  %189 = getelementptr inbounds [100005 x i64], [100005 x i64]* @dp, i64 0, i64 %188, !llfi_index !643
  %190 = load i64, i64* %189, align 8, !llfi_index !644
  %191 = mul nsw i64 1, %190, !llfi_index !645
  %192 = load i64, i64* %16, align 8, !llfi_index !646
  %193 = mul nsw i64 %191, %192, !llfi_index !647
  %194 = srem i64 %193, 1000000007, !llfi_index !648
  %195 = add nsw i64 %186, %194, !llfi_index !649
  %196 = load i32, i32* %4, align 4, !llfi_index !650
  %197 = sext i32 %196 to i64, !llfi_index !651
  %198 = getelementptr inbounds [100005 x i64], [100005 x i64]* @dep, i64 0, i64 %197, !llfi_index !652
  %199 = load i64, i64* %198, align 8, !llfi_index !653
  %200 = srem i64 %199, 1000000007, !llfi_index !654
  %201 = sub nsw i64 1, %200, !llfi_index !655
  %202 = srem i64 %201, 1000000007, !llfi_index !656
  %203 = load i32, i32* %5, align 4, !llfi_index !657
  %204 = sext i32 %203 to i64, !llfi_index !658
  %205 = getelementptr inbounds [100005 x i32], [100005 x i32]* @sub, i64 0, i64 %204, !llfi_index !659
  %206 = load i32, i32* %205, align 4, !llfi_index !660
  %207 = sext i32 %206 to i64, !llfi_index !661
  %208 = mul nsw i64 %202, %207, !llfi_index !662
  %209 = srem i64 %208, 1000000007, !llfi_index !663
  %210 = load i64, i64* %16, align 8, !llfi_index !664
  %211 = mul nsw i64 %209, %210, !llfi_index !665
  %212 = srem i64 %211, 1000000007, !llfi_index !666
  %213 = add nsw i64 %195, %212, !llfi_index !667
  %214 = load i32, i32* %5, align 4, !llfi_index !668
  %215 = sext i32 %214 to i64, !llfi_index !669
  %216 = getelementptr inbounds [100005 x i32], [100005 x i32]* @sub, i64 0, i64 %215, !llfi_index !670
  %217 = load i32, i32* %216, align 4, !llfi_index !671
  %218 = sext i32 %217 to i64, !llfi_index !672
  %219 = mul nsw i64 1, %218, !llfi_index !673
  %220 = load i64, i64* %16, align 8, !llfi_index !674
  %221 = mul nsw i64 %219, %220, !llfi_index !675
  %222 = srem i64 %221, 1000000007, !llfi_index !676
  %223 = load i32, i32* %12, align 4, !llfi_index !677
  %224 = sext i32 %223 to i64, !llfi_index !678
  %225 = getelementptr inbounds [100005 x i64], [100005 x i64]* @dep, i64 0, i64 %224, !llfi_index !679
  %226 = load i64, i64* %225, align 8, !llfi_index !680
  %227 = srem i64 %226, 1000000007, !llfi_index !681
  %228 = mul nsw i64 %222, %227, !llfi_index !682
  %229 = srem i64 %228, 1000000007, !llfi_index !683
  %230 = add nsw i64 %213, %229, !llfi_index !684
  %231 = load i64, i64* %10, align 8, !llfi_index !685
  %232 = add nsw i64 %231, %230, !llfi_index !686
  store i64 %232, i64* %10, align 8, !llfi_index !687
  %233 = load i64, i64* %10, align 8, !llfi_index !688
  %234 = srem i64 %233, 1000000007, !llfi_index !689
  store i64 %234, i64* %10, align 8, !llfi_index !690
  br label %291, !llfi_index !691

235:                                              ; preds = %121
  %236 = load i32, i32* %5, align 4, !llfi_index !692
  %237 = sext i32 %236 to i64, !llfi_index !693
  %238 = getelementptr inbounds [100005 x i32], [100005 x i32]* @sub, i64 0, i64 %237, !llfi_index !694
  %239 = load i32, i32* %238, align 4, !llfi_index !695
  %240 = sext i32 %239 to i64, !llfi_index !696
  %241 = mul nsw i64 1, %240, !llfi_index !697
  %242 = load i64, i64* %15, align 8, !llfi_index !698
  %243 = mul nsw i64 %241, %242, !llfi_index !699
  %244 = srem i64 %243, 1000000007, !llfi_index !700
  %245 = load i32, i32* %5, align 4, !llfi_index !701
  %246 = sext i32 %245 to i64, !llfi_index !702
  %247 = getelementptr inbounds [100005 x i64], [100005 x i64]* @dp, i64 0, i64 %246, !llfi_index !703
  %248 = load i64, i64* %247, align 8, !llfi_index !704
  %249 = mul nsw i64 1, %248, !llfi_index !705
  %250 = load i64, i64* %16, align 8, !llfi_index !706
  %251 = mul nsw i64 %249, %250, !llfi_index !707
  %252 = srem i64 %251, 1000000007, !llfi_index !708
  %253 = add nsw i64 %244, %252, !llfi_index !709
  %254 = load i32, i32* %5, align 4, !llfi_index !710
  %255 = sext i32 %254 to i64, !llfi_index !711
  %256 = getelementptr inbounds [100005 x i64], [100005 x i64]* @dep, i64 0, i64 %255, !llfi_index !712
  %257 = load i64, i64* %256, align 8, !llfi_index !713
  %258 = srem i64 %257, 1000000007, !llfi_index !714
  %259 = load i32, i32* %5, align 4, !llfi_index !715
  %260 = sext i32 %259 to i64, !llfi_index !716
  %261 = getelementptr inbounds [100005 x i32], [100005 x i32]* @sub, i64 0, i64 %260, !llfi_index !717
  %262 = load i32, i32* %261, align 4, !llfi_index !718
  %263 = sext i32 %262 to i64, !llfi_index !719
  %264 = mul nsw i64 %258, %263, !llfi_index !720
  %265 = srem i64 %264, 1000000007, !llfi_index !721
  %266 = load i64, i64* %16, align 8, !llfi_index !722
  %267 = mul nsw i64 %265, %266, !llfi_index !723
  %268 = srem i64 %267, 1000000007, !llfi_index !724
  %269 = add nsw i64 %253, %268, !llfi_index !725
  %270 = load i32, i32* %5, align 4, !llfi_index !726
  %271 = sext i32 %270 to i64, !llfi_index !727
  %272 = getelementptr inbounds [100005 x i32], [100005 x i32]* @sub, i64 0, i64 %271, !llfi_index !728
  %273 = load i32, i32* %272, align 4, !llfi_index !729
  %274 = sext i32 %273 to i64, !llfi_index !730
  %275 = mul nsw i64 1, %274, !llfi_index !731
  %276 = load i64, i64* %16, align 8, !llfi_index !732
  %277 = mul nsw i64 %275, %276, !llfi_index !733
  %278 = srem i64 %277, 1000000007, !llfi_index !734
  %279 = load i32, i32* %12, align 4, !llfi_index !735
  %280 = sext i32 %279 to i64, !llfi_index !736
  %281 = getelementptr inbounds [100005 x i64], [100005 x i64]* @dep, i64 0, i64 %280, !llfi_index !737
  %282 = load i64, i64* %281, align 8, !llfi_index !738
  %283 = srem i64 %282, 1000000007, !llfi_index !739
  %284 = mul nsw i64 %278, %283, !llfi_index !740
  %285 = srem i64 %284, 1000000007, !llfi_index !741
  %286 = sub nsw i64 %269, %285, !llfi_index !742
  %287 = load i64, i64* %10, align 8, !llfi_index !743
  %288 = add nsw i64 %287, %286, !llfi_index !744
  store i64 %288, i64* %10, align 8, !llfi_index !745
  %289 = load i64, i64* %10, align 8, !llfi_index !746
  %290 = srem i64 %289, 1000000007, !llfi_index !747
  store i64 %290, i64* %10, align 8, !llfi_index !748
  br label %291, !llfi_index !749

291:                                              ; preds = %235, %177
  br label %292, !llfi_index !750

292:                                              ; preds = %291
  %293 = load i32, i32* %11, align 4, !llfi_index !751
  %294 = add nsw i32 %293, 1, !llfi_index !752
  store i32 %294, i32* %11, align 4, !llfi_index !753
  br label %117, !llvm.loop !754, !llfi_index !755

295:                                              ; preds = %117
  %296 = load i64, i64* %10, align 8, !llfi_index !756
  %297 = trunc i64 %296 to i32, !llfi_index !757
  store i32 %297, i32* %3, align 4, !llfi_index !758
  br label %340, !llfi_index !759

298:                                              ; preds = %37, %27
  %299 = load i32, i32* %5, align 4, !llfi_index !760
  %300 = sext i32 %299 to i64, !llfi_index !761
  %301 = getelementptr inbounds [100005 x i64], [100005 x i64]* @dp, i64 0, i64 %300, !llfi_index !762
  %302 = load i64, i64* %301, align 8, !llfi_index !763
  %303 = mul nsw i64 1, %302, !llfi_index !764
  %304 = load i32, i32* %4, align 4, !llfi_index !765
  %305 = sext i32 %304 to i64, !llfi_index !766
  %306 = getelementptr inbounds [100005 x i32], [100005 x i32]* @sub, i64 0, i64 %305, !llfi_index !767
  %307 = load i32, i32* %306, align 4, !llfi_index !768
  %308 = sext i32 %307 to i64, !llfi_index !769
  %309 = mul nsw i64 %303, %308, !llfi_index !770
  %310 = srem i64 %309, 1000000007, !llfi_index !771
  %311 = load i32, i32* %4, align 4, !llfi_index !772
  %312 = sext i32 %311 to i64, !llfi_index !773
  %313 = getelementptr inbounds [100005 x i64], [100005 x i64]* @dp, i64 0, i64 %312, !llfi_index !774
  %314 = load i64, i64* %313, align 8, !llfi_index !775
  %315 = mul nsw i64 1, %314, !llfi_index !776
  %316 = load i32, i32* %5, align 4, !llfi_index !777
  %317 = sext i32 %316 to i64, !llfi_index !778
  %318 = getelementptr inbounds [100005 x i32], [100005 x i32]* @sub, i64 0, i64 %317, !llfi_index !779
  %319 = load i32, i32* %318, align 4, !llfi_index !780
  %320 = sext i32 %319 to i64, !llfi_index !781
  %321 = mul nsw i64 %315, %320, !llfi_index !782
  %322 = srem i64 %321, 1000000007, !llfi_index !783
  %323 = add nsw i64 %310, %322, !llfi_index !784
  %324 = load i32, i32* %4, align 4, !llfi_index !785
  %325 = sext i32 %324 to i64, !llfi_index !786
  %326 = getelementptr inbounds [100005 x i32], [100005 x i32]* @sub, i64 0, i64 %325, !llfi_index !787
  %327 = load i32, i32* %326, align 4, !llfi_index !788
  %328 = sext i32 %327 to i64, !llfi_index !789
  %329 = mul nsw i64 1, %328, !llfi_index !790
  %330 = load i32, i32* %5, align 4, !llfi_index !791
  %331 = sext i32 %330 to i64, !llfi_index !792
  %332 = getelementptr inbounds [100005 x i32], [100005 x i32]* @sub, i64 0, i64 %331, !llfi_index !793
  %333 = load i32, i32* %332, align 4, !llfi_index !794
  %334 = sext i32 %333 to i64, !llfi_index !795
  %335 = mul nsw i64 %329, %334, !llfi_index !796
  %336 = srem i64 %335, 1000000007, !llfi_index !797
  %337 = add nsw i64 %323, %336, !llfi_index !798
  %338 = srem i64 %337, 1000000007, !llfi_index !799
  %339 = trunc i64 %338 to i32, !llfi_index !800
  store i32 %339, i32* %3, align 4, !llfi_index !801
  br label %340, !llfi_index !802

340:                                              ; preds = %298, %295
  %341 = load i32, i32* %3, align 4, !llfi_index !803
  ret i32 %341, !llfi_index !804
}

; Function Attrs: mustprogress noinline nounwind uwtable
define linkonce_odr dso_local void @_ZSt4swapIiENSt9enable_ifIXsr6__and_ISt6__not_ISt15__is_tuple_likeIT_EESt21is_move_constructibleIS3_ESt18is_move_assignableIS3_EEE5valueEvE4typeERS3_SC_(i32* nonnull align 4 dereferenceable(4) %0, i32* nonnull align 4 dereferenceable(4) %1) #3 comdat {
  %3 = alloca i32*, align 8, !llfi_index !805
  %4 = alloca i32*, align 8, !llfi_index !806
  %5 = alloca i32, align 4, !llfi_index !807
  store i32* %0, i32** %3, align 8, !llfi_index !808
  store i32* %1, i32** %4, align 8, !llfi_index !809
  %6 = load i32*, i32** %3, align 8, !llfi_index !810
  %7 = call nonnull align 4 dereferenceable(4) i32* @_ZSt4moveIRiEONSt16remove_referenceIT_E4typeEOS2_(i32* nonnull align 4 dereferenceable(4) %6) #2, !llfi_index !811
  %8 = load i32, i32* %7, align 4, !llfi_index !812
  store i32 %8, i32* %5, align 4, !llfi_index !813
  %9 = load i32*, i32** %4, align 8, !llfi_index !814
  %10 = call nonnull align 4 dereferenceable(4) i32* @_ZSt4moveIRiEONSt16remove_referenceIT_E4typeEOS2_(i32* nonnull align 4 dereferenceable(4) %9) #2, !llfi_index !815
  %11 = load i32, i32* %10, align 4, !llfi_index !816
  %12 = load i32*, i32** %3, align 8, !llfi_index !817
  store i32 %11, i32* %12, align 4, !llfi_index !818
  %13 = call nonnull align 4 dereferenceable(4) i32* @_ZSt4moveIRiEONSt16remove_referenceIT_E4typeEOS2_(i32* nonnull align 4 dereferenceable(4) %5) #2, !llfi_index !819
  %14 = load i32, i32* %13, align 4, !llfi_index !820
  %15 = load i32*, i32** %4, align 8, !llfi_index !821
  store i32 %14, i32* %15, align 4, !llfi_index !822
  ret void, !llfi_index !823
}

; Function Attrs: mustprogress noinline nounwind uwtable
define linkonce_odr dso_local nonnull align 4 dereferenceable(4) i32* @_ZSt4moveIRiEONSt16remove_referenceIT_E4typeEOS2_(i32* nonnull align 4 dereferenceable(4) %0) #3 comdat {
  %2 = alloca i32*, align 8, !llfi_index !824
  store i32* %0, i32** %2, align 8, !llfi_index !825
  %3 = load i32*, i32** %2, align 8, !llfi_index !826
  ret i32* %3, !llfi_index !827
}

; Function Attrs: mustprogress noinline nounwind uwtable
define dso_local void @_Z6updateix(i32 %0, i64 %1) #3 {
  %3 = alloca i32, align 4, !llfi_index !828
  %4 = alloca i64, align 8, !llfi_index !829
  %5 = alloca i32, align 4, !llfi_index !830
  %6 = alloca i32, align 4, !llfi_index !831
  %7 = alloca i32, align 4, !llfi_index !832
  %8 = alloca i32, align 4, !llfi_index !833
  store i32 %0, i32* %3, align 4, !llfi_index !834
  store i64 %1, i64* %4, align 8, !llfi_index !835
  %9 = load i32, i32* %3, align 4, !llfi_index !836
  %10 = sext i32 %9 to i64, !llfi_index !837
  %11 = getelementptr inbounds [100005 x i32], [100005 x i32]* @eu, i64 0, i64 %10, !llfi_index !838
  %12 = load i32, i32* %11, align 4, !llfi_index !839
  store i32 %12, i32* %5, align 4, !llfi_index !840
  %13 = load i32, i32* %3, align 4, !llfi_index !841
  %14 = sext i32 %13 to i64, !llfi_index !842
  %15 = getelementptr inbounds [100005 x i32], [100005 x i32]* @ev, i64 0, i64 %14, !llfi_index !843
  %16 = load i32, i32* %15, align 4, !llfi_index !844
  store i32 %16, i32* %6, align 4, !llfi_index !845
  %17 = load i32, i32* %5, align 4, !llfi_index !846
  %18 = sext i32 %17 to i64, !llfi_index !847
  %19 = getelementptr inbounds [100005 x i32], [100005 x i32]* @h, i64 0, i64 %18, !llfi_index !848
  %20 = load i32, i32* %19, align 4, !llfi_index !849
  %21 = load i32, i32* %6, align 4, !llfi_index !850
  %22 = sext i32 %21 to i64, !llfi_index !851
  %23 = getelementptr inbounds [100005 x i32], [100005 x i32]* @h, i64 0, i64 %22, !llfi_index !852
  %24 = load i32, i32* %23, align 4, !llfi_index !853
  %25 = icmp sgt i32 %20, %24, !llfi_index !854
  br i1 %25, label %26, label %27, !llfi_index !855

26:                                               ; preds = %2
  call void @_ZSt4swapIiENSt9enable_ifIXsr6__and_ISt6__not_ISt15__is_tuple_likeIT_EESt21is_move_constructibleIS3_ESt18is_move_assignableIS3_EEE5valueEvE4typeERS3_SC_(i32* nonnull align 4 dereferenceable(4) %5, i32* nonnull align 4 dereferenceable(4) %6) #2, !llfi_index !856
  br label %27, !llfi_index !857

27:                                               ; preds = %26, %2
  %28 = load i64, i64* %4, align 8, !llfi_index !858
  %29 = load i32, i32* %3, align 4, !llfi_index !859
  %30 = sext i32 %29 to i64, !llfi_index !860
  %31 = getelementptr inbounds [100005 x i64], [100005 x i64]* @ew, i64 0, i64 %30, !llfi_index !861
  %32 = load i64, i64* %31, align 8, !llfi_index !862
  %33 = add nsw i64 %32, %28, !llfi_index !863
  store i64 %33, i64* %31, align 8, !llfi_index !864
  %34 = load i32, i32* %5, align 4, !llfi_index !865
  store i32 %34, i32* %7, align 4, !llfi_index !866
  br label %35, !llfi_index !867

35:                                               ; preds = %55, %27
  %36 = load i32, i32* %7, align 4, !llfi_index !868
  %37 = icmp ne i32 %36, 0, !llfi_index !869
  br i1 %37, label %38, label %60, !llfi_index !870

38:                                               ; preds = %35
  %39 = load i64, i64* %4, align 8, !llfi_index !871
  %40 = mul nsw i64 1, %39, !llfi_index !872
  %41 = load i32, i32* %6, align 4, !llfi_index !873
  %42 = sext i32 %41 to i64, !llfi_index !874
  %43 = getelementptr inbounds [100005 x i32], [100005 x i32]* @sub, i64 0, i64 %42, !llfi_index !875
  %44 = load i32, i32* %43, align 4, !llfi_index !876
  %45 = sext i32 %44 to i64, !llfi_index !877
  %46 = mul nsw i64 %40, %45, !llfi_index !878
  %47 = srem i64 %46, 1000000007, !llfi_index !879
  %48 = load i32, i32* %7, align 4, !llfi_index !880
  %49 = sext i32 %48 to i64, !llfi_index !881
  %50 = getelementptr inbounds [100005 x i64], [100005 x i64]* @dp, i64 0, i64 %49, !llfi_index !882
  %51 = load i64, i64* %50, align 8, !llfi_index !883
  %52 = add nsw i64 %51, %47, !llfi_index !884
  store i64 %52, i64* %50, align 8, !llfi_index !885
  %53 = load i64, i64* %50, align 8, !llfi_index !886
  %54 = srem i64 %53, 1000000007, !llfi_index !887
  store i64 %54, i64* %50, align 8, !llfi_index !888
  br label %55, !llfi_index !889

55:                                               ; preds = %38
  %56 = load i32, i32* %7, align 4, !llfi_index !890
  %57 = sext i32 %56 to i64, !llfi_index !891
  %58 = getelementptr inbounds [100005 x i32], [100005 x i32]* @par, i64 0, i64 %57, !llfi_index !892
  %59 = load i32, i32* %58, align 4, !llfi_index !893
  store i32 %59, i32* %7, align 4, !llfi_index !894
  br label %35, !llvm.loop !895, !llfi_index !896

60:                                               ; preds = %35
  %61 = load i32, i32* %6, align 4, !llfi_index !897
  %62 = sext i32 %61 to i64, !llfi_index !898
  %63 = getelementptr inbounds [100005 x i32], [100005 x i32]* @en, i64 0, i64 %62, !llfi_index !899
  %64 = load i32, i32* %63, align 4, !llfi_index !900
  store i32 %64, i32* %8, align 4, !llfi_index !901
  br label %65, !llfi_index !902

65:                                               ; preds = %82, %60
  %66 = load i32, i32* %8, align 4, !llfi_index !903
  %67 = load i32, i32* %6, align 4, !llfi_index !904
  %68 = sext i32 %67 to i64, !llfi_index !905
  %69 = getelementptr inbounds [100005 x i32], [100005 x i32]* @ex, i64 0, i64 %68, !llfi_index !906
  %70 = load i32, i32* %69, align 4, !llfi_index !907
  %71 = icmp sle i32 %66, %70, !llfi_index !908
  br i1 %71, label %72, label %85, !llfi_index !909

72:                                               ; preds = %65
  %73 = load i64, i64* %4, align 8, !llfi_index !910
  %74 = load i32, i32* %8, align 4, !llfi_index !911
  %75 = sext i32 %74 to i64, !llfi_index !912
  %76 = getelementptr inbounds [100005 x i32], [100005 x i32]* @rev, i64 0, i64 %75, !llfi_index !913
  %77 = load i32, i32* %76, align 4, !llfi_index !914
  %78 = sext i32 %77 to i64, !llfi_index !915
  %79 = getelementptr inbounds [100005 x i64], [100005 x i64]* @dep, i64 0, i64 %78, !llfi_index !916
  %80 = load i64, i64* %79, align 8, !llfi_index !917
  %81 = add nsw i64 %80, %73, !llfi_index !918
  store i64 %81, i64* %79, align 8, !llfi_index !919
  br label %82, !llfi_index !920

82:                                               ; preds = %72
  %83 = load i32, i32* %8, align 4, !llfi_index !921
  %84 = add nsw i32 %83, 1, !llfi_index !922
  store i32 %84, i32* %8, align 4, !llfi_index !923
  br label %65, !llvm.loop !924, !llfi_index !925

85:                                               ; preds = %65
  ret void, !llfi_index !926
}

; Function Attrs: mustprogress noinline norecurse uwtable
define dso_local i32 @main() #9 {
  %1 = alloca i32, align 4, !llfi_index !927
  %2 = alloca i32, align 4, !llfi_index !928
  %3 = alloca i32, align 4, !llfi_index !929
  %4 = alloca i32, align 4, !llfi_index !930
  %5 = alloca i32, align 4, !llfi_index !931
  %6 = alloca i32, align 4, !llfi_index !932
  %7 = alloca i32, align 4, !llfi_index !933
  %8 = alloca i32, align 4, !llfi_index !934
  %9 = alloca i32, align 4, !llfi_index !935
  store i32 0, i32* %1, align 4, !llfi_index !936
  %10 = load %struct._IO_FILE*, %struct._IO_FILE** @stdin, align 8, !llfi_index !937
  %11 = call %struct._IO_FILE* @freopen(i8* getelementptr inbounds ([30 x i8], [30 x i8]* @.str, i64 0, i64 0), i8* getelementptr inbounds ([2 x i8], [2 x i8]* @.str.2, i64 0, i64 0), %struct._IO_FILE* %10), !llfi_index !938
  %12 = call i32 (i8*, ...) @__isoc99_scanf(i8* getelementptr inbounds ([5 x i8], [5 x i8]* @.str.3, i64 0, i64 0), i32* @n, i32* @q), !llfi_index !939
  store i32 89, i32* %2, align 4, !llfi_index !940
  store i32 1, i32* %3, align 4, !llfi_index !941
  br label %13, !llfi_index !942

13:                                               ; preds = %40, %0
  %14 = load i32, i32* %3, align 4, !llfi_index !943
  %15 = load i32, i32* @n, align 4, !llfi_index !944
  %16 = icmp slt i32 %14, %15, !llfi_index !945
  br i1 %16, label %17, label %43, !llfi_index !946

17:                                               ; preds = %13
  %18 = load i32, i32* %3, align 4, !llfi_index !947
  %19 = sext i32 %18 to i64, !llfi_index !948
  %20 = getelementptr inbounds i32, i32* getelementptr inbounds ([100005 x i32], [100005 x i32]* @eu, i64 0, i64 0), i64 %19, !llfi_index !949
  %21 = load i32, i32* %3, align 4, !llfi_index !950
  %22 = sext i32 %21 to i64, !llfi_index !951
  %23 = getelementptr inbounds i32, i32* getelementptr inbounds ([100005 x i32], [100005 x i32]* @ev, i64 0, i64 0), i64 %22, !llfi_index !952
  %24 = load i32, i32* %3, align 4, !llfi_index !953
  %25 = sext i32 %24 to i64, !llfi_index !954
  %26 = getelementptr inbounds i64, i64* getelementptr inbounds ([100005 x i64], [100005 x i64]* @ew, i64 0, i64 0), i64 %25, !llfi_index !955
  %27 = call i32 (i8*, ...) @__isoc99_scanf(i8* getelementptr inbounds ([9 x i8], [9 x i8]* @.str.4, i64 0, i64 0), i32* %20, i32* %23, i64* %26), !llfi_index !956
  %28 = load i32, i32* %3, align 4, !llfi_index !957
  %29 = sext i32 %28 to i64, !llfi_index !958
  %30 = getelementptr inbounds [100005 x i32], [100005 x i32]* @eu, i64 0, i64 %29, !llfi_index !959
  %31 = load i32, i32* %30, align 4, !llfi_index !960
  %32 = sext i32 %31 to i64, !llfi_index !961
  %33 = getelementptr inbounds [100005 x %"class.std::vector"], [100005 x %"class.std::vector"]* @adj, i64 0, i64 %32, !llfi_index !962
  call void @_ZNSt6vectorIiSaIiEE9push_backERKi(%"class.std::vector"* nonnull align 8 dereferenceable(24) %33, i32* nonnull align 4 dereferenceable(4) %3), !llfi_index !963
  %34 = load i32, i32* %3, align 4, !llfi_index !964
  %35 = sext i32 %34 to i64, !llfi_index !965
  %36 = getelementptr inbounds [100005 x i32], [100005 x i32]* @ev, i64 0, i64 %35, !llfi_index !966
  %37 = load i32, i32* %36, align 4, !llfi_index !967
  %38 = sext i32 %37 to i64, !llfi_index !968
  %39 = getelementptr inbounds [100005 x %"class.std::vector"], [100005 x %"class.std::vector"]* @adj, i64 0, i64 %38, !llfi_index !969
  call void @_ZNSt6vectorIiSaIiEE9push_backERKi(%"class.std::vector"* nonnull align 8 dereferenceable(24) %39, i32* nonnull align 4 dereferenceable(4) %3), !llfi_index !970
  br label %40, !llfi_index !971

40:                                               ; preds = %17
  %41 = load i32, i32* %3, align 4, !llfi_index !972
  %42 = add nsw i32 %41, 1, !llfi_index !973
  store i32 %42, i32* %3, align 4, !llfi_index !974
  br label %13, !llvm.loop !975, !llfi_index !976

43:                                               ; preds = %13
  call void @_Z3dfsii(i32 1, i32 -1), !llfi_index !977
  store i32 89, i32* %2, align 4, !llfi_index !978
  br label %44, !llfi_index !979

44:                                               ; preds = %75, %43
  %45 = load i32, i32* @q, align 4, !llfi_index !980
  %46 = add nsw i32 %45, -1, !llfi_index !981
  store i32 %46, i32* @q, align 4, !llfi_index !982
  %47 = icmp ne i32 %45, 0, !llfi_index !983
  br i1 %47, label %48, label %76, !llfi_index !984

48:                                               ; preds = %44
  %49 = call i32 (i8*, ...) @__isoc99_scanf(i8* getelementptr inbounds ([3 x i8], [3 x i8]* @.str.5, i64 0, i64 0), i32* %4), !llfi_index !985
  %50 = load i32, i32* %4, align 4, !llfi_index !986
  %51 = icmp eq i32 %50, 1, !llfi_index !987
  br i1 %51, label %52, label %57, !llfi_index !988

52:                                               ; preds = %48
  %53 = call i32 (i8*, ...) @__isoc99_scanf(i8* getelementptr inbounds ([5 x i8], [5 x i8]* @.str.3, i64 0, i64 0), i32* %5, i32* %6), !llfi_index !989
  %54 = load i32, i32* %5, align 4, !llfi_index !990
  %55 = load i32, i32* %6, align 4, !llfi_index !991
  %56 = sext i32 %55 to i64, !llfi_index !992
  call void @_Z6updateix(i32 %54, i64 %56), !llfi_index !993
  br label %75, !llfi_index !994

57:                                               ; preds = %48
  %58 = load i32, i32* %4, align 4, !llfi_index !995
  %59 = icmp eq i32 %58, 2, !llfi_index !996
  br i1 %59, label %60, label %73, !llfi_index !997

60:                                               ; preds = %57
  %61 = call i32 (i8*, ...) @__isoc99_scanf(i8* getelementptr inbounds ([5 x i8], [5 x i8]* @.str.3, i64 0, i64 0), i32* %7, i32* %8), !llfi_index !998
  %62 = load i32, i32* %7, align 4, !llfi_index !999
  %63 = load i32, i32* %8, align 4, !llfi_index !1000
  %64 = call i32 @_Z5queryii(i32 %62, i32 %63), !llfi_index !1001
  store i32 %64, i32* %9, align 4, !llfi_index !1002
  %65 = load i32, i32* %9, align 4, !llfi_index !1003
  %66 = icmp slt i32 %65, 0, !llfi_index !1004
  br i1 %66, label %67, label %70, !llfi_index !1005

67:                                               ; preds = %60
  %68 = load i32, i32* %9, align 4, !llfi_index !1006
  %69 = add nsw i32 %68, 1000000007, !llfi_index !1007
  store i32 %69, i32* %9, align 4, !llfi_index !1008
  br label %70, !llfi_index !1009

70:                                               ; preds = %67, %60
  %71 = load i32, i32* %9, align 4, !llfi_index !1010
  %72 = call i32 (i8*, ...) @printf(i8* getelementptr inbounds ([4 x i8], [4 x i8]* @.str.6, i64 0, i64 0), i32 %71), !llfi_index !1011
  br label %74, !llfi_index !1012

73:                                               ; preds = %57
  call void @__assert_fail(i8* getelementptr inbounds ([6 x i8], [6 x i8]* @.str.7, i64 0, i64 0), i8* getelementptr inbounds ([19 x i8], [19 x i8]* @.str.8, i64 0, i64 0), i32 115, i8* getelementptr inbounds ([11 x i8], [11 x i8]* @__PRETTY_FUNCTION__.main, i64 0, i64 0)) #14, !llfi_index !1013
  unreachable, !llfi_index !1014

74:                                               ; preds = %70
  br label %75, !llfi_index !1015

75:                                               ; preds = %74, %52
  br label %44, !llvm.loop !1016, !llfi_index !1017

76:                                               ; preds = %44
  ret i32 0, !llfi_index !1018
}

declare dso_local %struct._IO_FILE* @freopen(i8*, i8*, %struct._IO_FILE*) #7

declare dso_local i32 @__isoc99_scanf(i8*, ...) #7

; Function Attrs: mustprogress noinline uwtable
define linkonce_odr dso_local void @_ZNSt6vectorIiSaIiEE9push_backERKi(%"class.std::vector"* nonnull align 8 dereferenceable(24) %0, i32* nonnull align 4 dereferenceable(4) %1) #4 comdat align 2 {
  %3 = alloca %"class.std::vector"*, align 8, !llfi_index !1019
  %4 = alloca i32*, align 8, !llfi_index !1020
  %5 = alloca %"class.__gnu_cxx::__normal_iterator", align 8, !llfi_index !1021
  store %"class.std::vector"* %0, %"class.std::vector"** %3, align 8, !llfi_index !1022
  store i32* %1, i32** %4, align 8, !llfi_index !1023
  %6 = load %"class.std::vector"*, %"class.std::vector"** %3, align 8, !llfi_index !1024
  %7 = bitcast %"class.std::vector"* %6 to %"struct.std::_Vector_base"*, !llfi_index !1025
  %8 = getelementptr inbounds %"struct.std::_Vector_base", %"struct.std::_Vector_base"* %7, i32 0, i32 0, !llfi_index !1026
  %9 = bitcast %"struct.std::_Vector_base<int, std::allocator<int>>::_Vector_impl"* %8 to %"struct.std::_Vector_base<int, std::allocator<int>>::_Vector_impl_data"*, !llfi_index !1027
  %10 = getelementptr inbounds %"struct.std::_Vector_base<int, std::allocator<int>>::_Vector_impl_data", %"struct.std::_Vector_base<int, std::allocator<int>>::_Vector_impl_data"* %9, i32 0, i32 1, !llfi_index !1028
  %11 = load i32*, i32** %10, align 8, !llfi_index !1029
  %12 = bitcast %"class.std::vector"* %6 to %"struct.std::_Vector_base"*, !llfi_index !1030
  %13 = getelementptr inbounds %"struct.std::_Vector_base", %"struct.std::_Vector_base"* %12, i32 0, i32 0, !llfi_index !1031
  %14 = bitcast %"struct.std::_Vector_base<int, std::allocator<int>>::_Vector_impl"* %13 to %"struct.std::_Vector_base<int, std::allocator<int>>::_Vector_impl_data"*, !llfi_index !1032
  %15 = getelementptr inbounds %"struct.std::_Vector_base<int, std::allocator<int>>::_Vector_impl_data", %"struct.std::_Vector_base<int, std::allocator<int>>::_Vector_impl_data"* %14, i32 0, i32 2, !llfi_index !1033
  %16 = load i32*, i32** %15, align 8, !llfi_index !1034
  %17 = icmp ne i32* %11, %16, !llfi_index !1035
  br i1 %17, label %18, label %34, !llfi_index !1036

18:                                               ; preds = %2
  %19 = bitcast %"class.std::vector"* %6 to %"struct.std::_Vector_base"*, !llfi_index !1037
  %20 = getelementptr inbounds %"struct.std::_Vector_base", %"struct.std::_Vector_base"* %19, i32 0, i32 0, !llfi_index !1038
  %21 = bitcast %"struct.std::_Vector_base<int, std::allocator<int>>::_Vector_impl"* %20 to %"class.std::allocator"*, !llfi_index !1039
  %22 = bitcast %"class.std::vector"* %6 to %"struct.std::_Vector_base"*, !llfi_index !1040
  %23 = getelementptr inbounds %"struct.std::_Vector_base", %"struct.std::_Vector_base"* %22, i32 0, i32 0, !llfi_index !1041
  %24 = bitcast %"struct.std::_Vector_base<int, std::allocator<int>>::_Vector_impl"* %23 to %"struct.std::_Vector_base<int, std::allocator<int>>::_Vector_impl_data"*, !llfi_index !1042
  %25 = getelementptr inbounds %"struct.std::_Vector_base<int, std::allocator<int>>::_Vector_impl_data", %"struct.std::_Vector_base<int, std::allocator<int>>::_Vector_impl_data"* %24, i32 0, i32 1, !llfi_index !1043
  %26 = load i32*, i32** %25, align 8, !llfi_index !1044
  %27 = load i32*, i32** %4, align 8, !llfi_index !1045
  call void @_ZNSt16allocator_traitsISaIiEE9constructIiJRKiEEEvRS0_PT_DpOT0_(%"class.std::allocator"* nonnull align 1 dereferenceable(1) %21, i32* %26, i32* nonnull align 4 dereferenceable(4) %27) #2, !llfi_index !1046
  %28 = bitcast %"class.std::vector"* %6 to %"struct.std::_Vector_base"*, !llfi_index !1047
  %29 = getelementptr inbounds %"struct.std::_Vector_base", %"struct.std::_Vector_base"* %28, i32 0, i32 0, !llfi_index !1048
  %30 = bitcast %"struct.std::_Vector_base<int, std::allocator<int>>::_Vector_impl"* %29 to %"struct.std::_Vector_base<int, std::allocator<int>>::_Vector_impl_data"*, !llfi_index !1049
  %31 = getelementptr inbounds %"struct.std::_Vector_base<int, std::allocator<int>>::_Vector_impl_data", %"struct.std::_Vector_base<int, std::allocator<int>>::_Vector_impl_data"* %30, i32 0, i32 1, !llfi_index !1050
  %32 = load i32*, i32** %31, align 8, !llfi_index !1051
  %33 = getelementptr inbounds i32, i32* %32, i32 1, !llfi_index !1052
  store i32* %33, i32** %31, align 8, !llfi_index !1053
  br label %40, !llfi_index !1054

34:                                               ; preds = %2
  %35 = call i32* @_ZNSt6vectorIiSaIiEE3endEv(%"class.std::vector"* nonnull align 8 dereferenceable(24) %6) #2, !llfi_index !1055
  %36 = getelementptr inbounds %"class.__gnu_cxx::__normal_iterator", %"class.__gnu_cxx::__normal_iterator"* %5, i32 0, i32 0, !llfi_index !1056
  store i32* %35, i32** %36, align 8, !llfi_index !1057
  %37 = load i32*, i32** %4, align 8, !llfi_index !1058
  %38 = getelementptr inbounds %"class.__gnu_cxx::__normal_iterator", %"class.__gnu_cxx::__normal_iterator"* %5, i32 0, i32 0, !llfi_index !1059
  %39 = load i32*, i32** %38, align 8, !llfi_index !1060
  call void @_ZNSt6vectorIiSaIiEE17_M_realloc_insertIJRKiEEEvN9__gnu_cxx17__normal_iteratorIPiS1_EEDpOT_(%"class.std::vector"* nonnull align 8 dereferenceable(24) %6, i32* %39, i32* nonnull align 4 dereferenceable(4) %37), !llfi_index !1061
  br label %40, !llfi_index !1062

40:                                               ; preds = %34, %18
  ret void, !llfi_index !1063
}

declare dso_local i32 @printf(i8*, ...) #7

; Function Attrs: noreturn nounwind
declare dso_local void @__assert_fail(i8*, i8*, i32, i8*) #10

; Function Attrs: mustprogress noinline nounwind uwtable
define linkonce_odr dso_local void @_ZNSt16allocator_traitsISaIiEE9constructIiJRKiEEEvRS0_PT_DpOT0_(%"class.std::allocator"* nonnull align 1 dereferenceable(1) %0, i32* %1, i32* nonnull align 4 dereferenceable(4) %2) #3 comdat align 2 {
  %4 = alloca %"class.std::allocator"*, align 8, !llfi_index !1064
  %5 = alloca i32*, align 8, !llfi_index !1065
  %6 = alloca i32*, align 8, !llfi_index !1066
  store %"class.std::allocator"* %0, %"class.std::allocator"** %4, align 8, !llfi_index !1067
  store i32* %1, i32** %5, align 8, !llfi_index !1068
  store i32* %2, i32** %6, align 8, !llfi_index !1069
  %7 = load %"class.std::allocator"*, %"class.std::allocator"** %4, align 8, !llfi_index !1070
  %8 = bitcast %"class.std::allocator"* %7 to %"class.std::allocator"*, !llfi_index !1071
  %9 = load i32*, i32** %5, align 8, !llfi_index !1072
  %10 = load i32*, i32** %6, align 8, !llfi_index !1073
  %11 = call nonnull align 4 dereferenceable(4) i32* @_ZSt7forwardIRKiEOT_RNSt16remove_referenceIS2_E4typeE(i32* nonnull align 4 dereferenceable(4) %10) #2, !llfi_index !1074
  call void @_ZN9__gnu_cxx13new_allocatorIiE9constructIiJRKiEEEvPT_DpOT0_(%"class.std::allocator"* nonnull align 1 dereferenceable(1) %8, i32* %9, i32* nonnull align 4 dereferenceable(4) %11) #2, !llfi_index !1075
  ret void, !llfi_index !1076
}

; Function Attrs: mustprogress noinline uwtable
define linkonce_odr dso_local void @_ZNSt6vectorIiSaIiEE17_M_realloc_insertIJRKiEEEvN9__gnu_cxx17__normal_iteratorIPiS1_EEDpOT_(%"class.std::vector"* nonnull align 8 dereferenceable(24) %0, i32* %1, i32* nonnull align 4 dereferenceable(4) %2) #4 comdat align 2 {
  %4 = alloca %"class.__gnu_cxx::__normal_iterator", align 8, !llfi_index !1077
  %5 = alloca %"class.std::vector"*, align 8, !llfi_index !1078
  %6 = alloca i32*, align 8, !llfi_index !1079
  %7 = alloca i64, align 8, !llfi_index !1080
  %8 = alloca i32*, align 8, !llfi_index !1081
  %9 = alloca i32*, align 8, !llfi_index !1082
  %10 = alloca i64, align 8, !llfi_index !1083
  %11 = alloca %"class.__gnu_cxx::__normal_iterator", align 8, !llfi_index !1084
  %12 = alloca i32*, align 8, !llfi_index !1085
  %13 = alloca i32*, align 8, !llfi_index !1086
  %14 = getelementptr inbounds %"class.__gnu_cxx::__normal_iterator", %"class.__gnu_cxx::__normal_iterator"* %4, i32 0, i32 0, !llfi_index !1087
  store i32* %1, i32** %14, align 8, !llfi_index !1088
  store %"class.std::vector"* %0, %"class.std::vector"** %5, align 8, !llfi_index !1089
  store i32* %2, i32** %6, align 8, !llfi_index !1090
  %15 = load %"class.std::vector"*, %"class.std::vector"** %5, align 8, !llfi_index !1091
  %16 = call i64 @_ZNKSt6vectorIiSaIiEE12_M_check_lenEmPKc(%"class.std::vector"* nonnull align 8 dereferenceable(24) %15, i64 1, i8* getelementptr inbounds ([26 x i8], [26 x i8]* @.str.9, i64 0, i64 0)), !llfi_index !1092
  store i64 %16, i64* %7, align 8, !llfi_index !1093
  %17 = bitcast %"class.std::vector"* %15 to %"struct.std::_Vector_base"*, !llfi_index !1094
  %18 = getelementptr inbounds %"struct.std::_Vector_base", %"struct.std::_Vector_base"* %17, i32 0, i32 0, !llfi_index !1095
  %19 = bitcast %"struct.std::_Vector_base<int, std::allocator<int>>::_Vector_impl"* %18 to %"struct.std::_Vector_base<int, std::allocator<int>>::_Vector_impl_data"*, !llfi_index !1096
  %20 = getelementptr inbounds %"struct.std::_Vector_base<int, std::allocator<int>>::_Vector_impl_data", %"struct.std::_Vector_base<int, std::allocator<int>>::_Vector_impl_data"* %19, i32 0, i32 0, !llfi_index !1097
  %21 = load i32*, i32** %20, align 8, !llfi_index !1098
  store i32* %21, i32** %8, align 8, !llfi_index !1099
  %22 = bitcast %"class.std::vector"* %15 to %"struct.std::_Vector_base"*, !llfi_index !1100
  %23 = getelementptr inbounds %"struct.std::_Vector_base", %"struct.std::_Vector_base"* %22, i32 0, i32 0, !llfi_index !1101
  %24 = bitcast %"struct.std::_Vector_base<int, std::allocator<int>>::_Vector_impl"* %23 to %"struct.std::_Vector_base<int, std::allocator<int>>::_Vector_impl_data"*, !llfi_index !1102
  %25 = getelementptr inbounds %"struct.std::_Vector_base<int, std::allocator<int>>::_Vector_impl_data", %"struct.std::_Vector_base<int, std::allocator<int>>::_Vector_impl_data"* %24, i32 0, i32 1, !llfi_index !1103
  %26 = load i32*, i32** %25, align 8, !llfi_index !1104
  store i32* %26, i32** %9, align 8, !llfi_index !1105
  %27 = call i32* @_ZNSt6vectorIiSaIiEE5beginEv(%"class.std::vector"* nonnull align 8 dereferenceable(24) %15) #2, !llfi_index !1106
  %28 = getelementptr inbounds %"class.__gnu_cxx::__normal_iterator", %"class.__gnu_cxx::__normal_iterator"* %11, i32 0, i32 0, !llfi_index !1107
  store i32* %27, i32** %28, align 8, !llfi_index !1108
  %29 = call i64 @_ZN9__gnu_cxxmiIPiSt6vectorIiSaIiEEEENS_17__normal_iteratorIT_T0_E15difference_typeERKS8_SB_(%"class.__gnu_cxx::__normal_iterator"* nonnull align 8 dereferenceable(8) %4, %"class.__gnu_cxx::__normal_iterator"* nonnull align 8 dereferenceable(8) %11) #2, !llfi_index !1109
  store i64 %29, i64* %10, align 8, !llfi_index !1110
  %30 = bitcast %"class.std::vector"* %15 to %"struct.std::_Vector_base"*, !llfi_index !1111
  %31 = load i64, i64* %7, align 8, !llfi_index !1112
  %32 = call i32* @_ZNSt12_Vector_baseIiSaIiEE11_M_allocateEm(%"struct.std::_Vector_base"* nonnull align 8 dereferenceable(24) %30, i64 %31), !llfi_index !1113
  store i32* %32, i32** %12, align 8, !llfi_index !1114
  %33 = load i32*, i32** %12, align 8, !llfi_index !1115
  store i32* %33, i32** %13, align 8, !llfi_index !1116
  %34 = bitcast %"class.std::vector"* %15 to %"struct.std::_Vector_base"*, !llfi_index !1117
  %35 = getelementptr inbounds %"struct.std::_Vector_base", %"struct.std::_Vector_base"* %34, i32 0, i32 0, !llfi_index !1118
  %36 = bitcast %"struct.std::_Vector_base<int, std::allocator<int>>::_Vector_impl"* %35 to %"class.std::allocator"*, !llfi_index !1119
  %37 = load i32*, i32** %12, align 8, !llfi_index !1120
  %38 = load i64, i64* %10, align 8, !llfi_index !1121
  %39 = getelementptr inbounds i32, i32* %37, i64 %38, !llfi_index !1122
  %40 = load i32*, i32** %6, align 8, !llfi_index !1123
  %41 = call nonnull align 4 dereferenceable(4) i32* @_ZSt7forwardIRKiEOT_RNSt16remove_referenceIS2_E4typeE(i32* nonnull align 4 dereferenceable(4) %40) #2, !llfi_index !1124
  call void @_ZNSt16allocator_traitsISaIiEE9constructIiJRKiEEEvRS0_PT_DpOT0_(%"class.std::allocator"* nonnull align 1 dereferenceable(1) %36, i32* %39, i32* nonnull align 4 dereferenceable(4) %41) #2, !llfi_index !1125
  store i32* null, i32** %13, align 8, !llfi_index !1126
  %42 = load i32*, i32** %8, align 8, !llfi_index !1127
  %43 = call nonnull align 8 dereferenceable(8) i32** @_ZNK9__gnu_cxx17__normal_iteratorIPiSt6vectorIiSaIiEEE4baseEv(%"class.__gnu_cxx::__normal_iterator"* nonnull align 8 dereferenceable(8) %4) #2, !llfi_index !1128
  %44 = load i32*, i32** %43, align 8, !llfi_index !1129
  %45 = load i32*, i32** %12, align 8, !llfi_index !1130
  %46 = bitcast %"class.std::vector"* %15 to %"struct.std::_Vector_base"*, !llfi_index !1131
  %47 = call nonnull align 1 dereferenceable(1) %"class.std::allocator"* @_ZNSt12_Vector_baseIiSaIiEE19_M_get_Tp_allocatorEv(%"struct.std::_Vector_base"* nonnull align 8 dereferenceable(24) %46) #2, !llfi_index !1132
  %48 = call i32* @_ZNSt6vectorIiSaIiEE11_S_relocateEPiS2_S2_RS0_(i32* %42, i32* %44, i32* %45, %"class.std::allocator"* nonnull align 1 dereferenceable(1) %47) #2, !llfi_index !1133
  store i32* %48, i32** %13, align 8, !llfi_index !1134
  %49 = load i32*, i32** %13, align 8, !llfi_index !1135
  %50 = getelementptr inbounds i32, i32* %49, i32 1, !llfi_index !1136
  store i32* %50, i32** %13, align 8, !llfi_index !1137
  %51 = call nonnull align 8 dereferenceable(8) i32** @_ZNK9__gnu_cxx17__normal_iteratorIPiSt6vectorIiSaIiEEE4baseEv(%"class.__gnu_cxx::__normal_iterator"* nonnull align 8 dereferenceable(8) %4) #2, !llfi_index !1138
  %52 = load i32*, i32** %51, align 8, !llfi_index !1139
  %53 = load i32*, i32** %9, align 8, !llfi_index !1140
  %54 = load i32*, i32** %13, align 8, !llfi_index !1141
  %55 = bitcast %"class.std::vector"* %15 to %"struct.std::_Vector_base"*, !llfi_index !1142
  %56 = call nonnull align 1 dereferenceable(1) %"class.std::allocator"* @_ZNSt12_Vector_baseIiSaIiEE19_M_get_Tp_allocatorEv(%"struct.std::_Vector_base"* nonnull align 8 dereferenceable(24) %55) #2, !llfi_index !1143
  %57 = call i32* @_ZNSt6vectorIiSaIiEE11_S_relocateEPiS2_S2_RS0_(i32* %52, i32* %53, i32* %54, %"class.std::allocator"* nonnull align 1 dereferenceable(1) %56) #2, !llfi_index !1144
  store i32* %57, i32** %13, align 8, !llfi_index !1145
  %58 = bitcast %"class.std::vector"* %15 to %"struct.std::_Vector_base"*, !llfi_index !1146
  %59 = load i32*, i32** %8, align 8, !llfi_index !1147
  %60 = bitcast %"class.std::vector"* %15 to %"struct.std::_Vector_base"*, !llfi_index !1148
  %61 = getelementptr inbounds %"struct.std::_Vector_base", %"struct.std::_Vector_base"* %60, i32 0, i32 0, !llfi_index !1149
  %62 = bitcast %"struct.std::_Vector_base<int, std::allocator<int>>::_Vector_impl"* %61 to %"struct.std::_Vector_base<int, std::allocator<int>>::_Vector_impl_data"*, !llfi_index !1150
  %63 = getelementptr inbounds %"struct.std::_Vector_base<int, std::allocator<int>>::_Vector_impl_data", %"struct.std::_Vector_base<int, std::allocator<int>>::_Vector_impl_data"* %62, i32 0, i32 2, !llfi_index !1151
  %64 = load i32*, i32** %63, align 8, !llfi_index !1152
  %65 = load i32*, i32** %8, align 8, !llfi_index !1153
  %66 = ptrtoint i32* %64 to i64, !llfi_index !1154
  %67 = ptrtoint i32* %65 to i64, !llfi_index !1155
  %68 = sub i64 %66, %67, !llfi_index !1156
  %69 = sdiv exact i64 %68, 4, !llfi_index !1157
  call void @_ZNSt12_Vector_baseIiSaIiEE13_M_deallocateEPim(%"struct.std::_Vector_base"* nonnull align 8 dereferenceable(24) %58, i32* %59, i64 %69), !llfi_index !1158
  %70 = load i32*, i32** %12, align 8, !llfi_index !1159
  %71 = bitcast %"class.std::vector"* %15 to %"struct.std::_Vector_base"*, !llfi_index !1160
  %72 = getelementptr inbounds %"struct.std::_Vector_base", %"struct.std::_Vector_base"* %71, i32 0, i32 0, !llfi_index !1161
  %73 = bitcast %"struct.std::_Vector_base<int, std::allocator<int>>::_Vector_impl"* %72 to %"struct.std::_Vector_base<int, std::allocator<int>>::_Vector_impl_data"*, !llfi_index !1162
  %74 = getelementptr inbounds %"struct.std::_Vector_base<int, std::allocator<int>>::_Vector_impl_data", %"struct.std::_Vector_base<int, std::allocator<int>>::_Vector_impl_data"* %73, i32 0, i32 0, !llfi_index !1163
  store i32* %70, i32** %74, align 8, !llfi_index !1164
  %75 = load i32*, i32** %13, align 8, !llfi_index !1165
  %76 = bitcast %"class.std::vector"* %15 to %"struct.std::_Vector_base"*, !llfi_index !1166
  %77 = getelementptr inbounds %"struct.std::_Vector_base", %"struct.std::_Vector_base"* %76, i32 0, i32 0, !llfi_index !1167
  %78 = bitcast %"struct.std::_Vector_base<int, std::allocator<int>>::_Vector_impl"* %77 to %"struct.std::_Vector_base<int, std::allocator<int>>::_Vector_impl_data"*, !llfi_index !1168
  %79 = getelementptr inbounds %"struct.std::_Vector_base<int, std::allocator<int>>::_Vector_impl_data", %"struct.std::_Vector_base<int, std::allocator<int>>::_Vector_impl_data"* %78, i32 0, i32 1, !llfi_index !1169
  store i32* %75, i32** %79, align 8, !llfi_index !1170
  %80 = load i32*, i32** %12, align 8, !llfi_index !1171
  %81 = load i64, i64* %7, align 8, !llfi_index !1172
  %82 = getelementptr inbounds i32, i32* %80, i64 %81, !llfi_index !1173
  %83 = bitcast %"class.std::vector"* %15 to %"struct.std::_Vector_base"*, !llfi_index !1174
  %84 = getelementptr inbounds %"struct.std::_Vector_base", %"struct.std::_Vector_base"* %83, i32 0, i32 0, !llfi_index !1175
  %85 = bitcast %"struct.std::_Vector_base<int, std::allocator<int>>::_Vector_impl"* %84 to %"struct.std::_Vector_base<int, std::allocator<int>>::_Vector_impl_data"*, !llfi_index !1176
  %86 = getelementptr inbounds %"struct.std::_Vector_base<int, std::allocator<int>>::_Vector_impl_data", %"struct.std::_Vector_base<int, std::allocator<int>>::_Vector_impl_data"* %85, i32 0, i32 2, !llfi_index !1177
  store i32* %82, i32** %86, align 8, !llfi_index !1178
  ret void, !llfi_index !1179
}

; Function Attrs: mustprogress noinline uwtable
define linkonce_odr dso_local i64 @_ZNKSt6vectorIiSaIiEE12_M_check_lenEmPKc(%"class.std::vector"* nonnull align 8 dereferenceable(24) %0, i64 %1, i8* %2) #4 comdat align 2 {
  %4 = alloca %"class.std::vector"*, align 8, !llfi_index !1180
  %5 = alloca i64, align 8, !llfi_index !1181
  %6 = alloca i8*, align 8, !llfi_index !1182
  %7 = alloca i64, align 8, !llfi_index !1183
  %8 = alloca i64, align 8, !llfi_index !1184
  store %"class.std::vector"* %0, %"class.std::vector"** %4, align 8, !llfi_index !1185
  store i64 %1, i64* %5, align 8, !llfi_index !1186
  store i8* %2, i8** %6, align 8, !llfi_index !1187
  %9 = load %"class.std::vector"*, %"class.std::vector"** %4, align 8, !llfi_index !1188
  %10 = call i64 @_ZNKSt6vectorIiSaIiEE8max_sizeEv(%"class.std::vector"* nonnull align 8 dereferenceable(24) %9) #2, !llfi_index !1189
  %11 = call i64 @_ZNKSt6vectorIiSaIiEE4sizeEv(%"class.std::vector"* nonnull align 8 dereferenceable(24) %9) #2, !llfi_index !1190
  %12 = sub i64 %10, %11, !llfi_index !1191
  %13 = load i64, i64* %5, align 8, !llfi_index !1192
  %14 = icmp ult i64 %12, %13, !llfi_index !1193
  br i1 %14, label %15, label %17, !llfi_index !1194

15:                                               ; preds = %3
  %16 = load i8*, i8** %6, align 8, !llfi_index !1195
  call void @_ZSt20__throw_length_errorPKc(i8* %16) #15, !llfi_index !1196
  unreachable, !llfi_index !1197

17:                                               ; preds = %3
  %18 = call i64 @_ZNKSt6vectorIiSaIiEE4sizeEv(%"class.std::vector"* nonnull align 8 dereferenceable(24) %9) #2, !llfi_index !1198
  %19 = call i64 @_ZNKSt6vectorIiSaIiEE4sizeEv(%"class.std::vector"* nonnull align 8 dereferenceable(24) %9) #2, !llfi_index !1199
  store i64 %19, i64* %8, align 8, !llfi_index !1200
  %20 = call nonnull align 8 dereferenceable(8) i64* @_ZSt3maxImERKT_S2_S2_(i64* nonnull align 8 dereferenceable(8) %8, i64* nonnull align 8 dereferenceable(8) %5), !llfi_index !1201
  %21 = load i64, i64* %20, align 8, !llfi_index !1202
  %22 = add i64 %18, %21, !llfi_index !1203
  store i64 %22, i64* %7, align 8, !llfi_index !1204
  %23 = load i64, i64* %7, align 8, !llfi_index !1205
  %24 = call i64 @_ZNKSt6vectorIiSaIiEE4sizeEv(%"class.std::vector"* nonnull align 8 dereferenceable(24) %9) #2, !llfi_index !1206
  %25 = icmp ult i64 %23, %24, !llfi_index !1207
  br i1 %25, label %30, label %26, !llfi_index !1208

26:                                               ; preds = %17
  %27 = load i64, i64* %7, align 8, !llfi_index !1209
  %28 = call i64 @_ZNKSt6vectorIiSaIiEE8max_sizeEv(%"class.std::vector"* nonnull align 8 dereferenceable(24) %9) #2, !llfi_index !1210
  %29 = icmp ugt i64 %27, %28, !llfi_index !1211
  br i1 %29, label %30, label %32, !llfi_index !1212

30:                                               ; preds = %26, %17
  %31 = call i64 @_ZNKSt6vectorIiSaIiEE8max_sizeEv(%"class.std::vector"* nonnull align 8 dereferenceable(24) %9) #2, !llfi_index !1213
  br label %34, !llfi_index !1214

32:                                               ; preds = %26
  %33 = load i64, i64* %7, align 8, !llfi_index !1215
  br label %34, !llfi_index !1216

34:                                               ; preds = %32, %30
  %35 = phi i64 [ %31, %30 ], [ %33, %32 ], !llfi_index !1217
  ret i64 %35, !llfi_index !1218
}

; Function Attrs: mustprogress noinline nounwind uwtable
define linkonce_odr dso_local i64 @_ZN9__gnu_cxxmiIPiSt6vectorIiSaIiEEEENS_17__normal_iteratorIT_T0_E15difference_typeERKS8_SB_(%"class.__gnu_cxx::__normal_iterator"* nonnull align 8 dereferenceable(8) %0, %"class.__gnu_cxx::__normal_iterator"* nonnull align 8 dereferenceable(8) %1) #3 comdat {
  %3 = alloca %"class.__gnu_cxx::__normal_iterator"*, align 8, !llfi_index !1219
  %4 = alloca %"class.__gnu_cxx::__normal_iterator"*, align 8, !llfi_index !1220
  store %"class.__gnu_cxx::__normal_iterator"* %0, %"class.__gnu_cxx::__normal_iterator"** %3, align 8, !llfi_index !1221
  store %"class.__gnu_cxx::__normal_iterator"* %1, %"class.__gnu_cxx::__normal_iterator"** %4, align 8, !llfi_index !1222
  %5 = load %"class.__gnu_cxx::__normal_iterator"*, %"class.__gnu_cxx::__normal_iterator"** %3, align 8, !llfi_index !1223
  %6 = call nonnull align 8 dereferenceable(8) i32** @_ZNK9__gnu_cxx17__normal_iteratorIPiSt6vectorIiSaIiEEE4baseEv(%"class.__gnu_cxx::__normal_iterator"* nonnull align 8 dereferenceable(8) %5) #2, !llfi_index !1224
  %7 = load i32*, i32** %6, align 8, !llfi_index !1225
  %8 = load %"class.__gnu_cxx::__normal_iterator"*, %"class.__gnu_cxx::__normal_iterator"** %4, align 8, !llfi_index !1226
  %9 = call nonnull align 8 dereferenceable(8) i32** @_ZNK9__gnu_cxx17__normal_iteratorIPiSt6vectorIiSaIiEEE4baseEv(%"class.__gnu_cxx::__normal_iterator"* nonnull align 8 dereferenceable(8) %8) #2, !llfi_index !1227
  %10 = load i32*, i32** %9, align 8, !llfi_index !1228
  %11 = ptrtoint i32* %7 to i64, !llfi_index !1229
  %12 = ptrtoint i32* %10 to i64, !llfi_index !1230
  %13 = sub i64 %11, %12, !llfi_index !1231
  %14 = sdiv exact i64 %13, 4, !llfi_index !1232
  ret i64 %14, !llfi_index !1233
}

; Function Attrs: mustprogress noinline uwtable
define linkonce_odr dso_local i32* @_ZNSt12_Vector_baseIiSaIiEE11_M_allocateEm(%"struct.std::_Vector_base"* nonnull align 8 dereferenceable(24) %0, i64 %1) #4 comdat align 2 {
  %3 = alloca %"struct.std::_Vector_base"*, align 8, !llfi_index !1234
  %4 = alloca i64, align 8, !llfi_index !1235
  store %"struct.std::_Vector_base"* %0, %"struct.std::_Vector_base"** %3, align 8, !llfi_index !1236
  store i64 %1, i64* %4, align 8, !llfi_index !1237
  %5 = load %"struct.std::_Vector_base"*, %"struct.std::_Vector_base"** %3, align 8, !llfi_index !1238
  %6 = load i64, i64* %4, align 8, !llfi_index !1239
  %7 = icmp ne i64 %6, 0, !llfi_index !1240
  br i1 %7, label %8, label %13, !llfi_index !1241

8:                                                ; preds = %2
  %9 = getelementptr inbounds %"struct.std::_Vector_base", %"struct.std::_Vector_base"* %5, i32 0, i32 0, !llfi_index !1242
  %10 = bitcast %"struct.std::_Vector_base<int, std::allocator<int>>::_Vector_impl"* %9 to %"class.std::allocator"*, !llfi_index !1243
  %11 = load i64, i64* %4, align 8, !llfi_index !1244
  %12 = call i32* @_ZNSt16allocator_traitsISaIiEE8allocateERS0_m(%"class.std::allocator"* nonnull align 1 dereferenceable(1) %10, i64 %11), !llfi_index !1245
  br label %14, !llfi_index !1246

13:                                               ; preds = %2
  br label %14, !llfi_index !1247

14:                                               ; preds = %13, %8
  %15 = phi i32* [ %12, %8 ], [ null, %13 ], !llfi_index !1248
  ret i32* %15, !llfi_index !1249
}

; Function Attrs: mustprogress noinline nounwind uwtable
define linkonce_odr dso_local nonnull align 4 dereferenceable(4) i32* @_ZSt7forwardIRKiEOT_RNSt16remove_referenceIS2_E4typeE(i32* nonnull align 4 dereferenceable(4) %0) #3 comdat {
  %2 = alloca i32*, align 8, !llfi_index !1250
  store i32* %0, i32** %2, align 8, !llfi_index !1251
  %3 = load i32*, i32** %2, align 8, !llfi_index !1252
  ret i32* %3, !llfi_index !1253
}

; Function Attrs: mustprogress noinline nounwind uwtable
define linkonce_odr dso_local i32* @_ZNSt6vectorIiSaIiEE11_S_relocateEPiS2_S2_RS0_(i32* %0, i32* %1, i32* %2, %"class.std::allocator"* nonnull align 1 dereferenceable(1) %3) #3 comdat align 2 {
  %5 = alloca i32*, align 8, !llfi_index !1254
  %6 = alloca i32*, align 8, !llfi_index !1255
  %7 = alloca i32*, align 8, !llfi_index !1256
  %8 = alloca %"class.std::allocator"*, align 8, !llfi_index !1257
  %9 = alloca %"class.std::allocator", align 1, !llfi_index !1258
  store i32* %0, i32** %5, align 8, !llfi_index !1259
  store i32* %1, i32** %6, align 8, !llfi_index !1260
  store i32* %2, i32** %7, align 8, !llfi_index !1261
  store %"class.std::allocator"* %3, %"class.std::allocator"** %8, align 8, !llfi_index !1262
  %10 = load i32*, i32** %5, align 8, !llfi_index !1263
  %11 = load i32*, i32** %6, align 8, !llfi_index !1264
  %12 = load i32*, i32** %7, align 8, !llfi_index !1265
  %13 = load %"class.std::allocator"*, %"class.std::allocator"** %8, align 8, !llfi_index !1266
  %14 = call i32* @_ZNSt6vectorIiSaIiEE14_S_do_relocateEPiS2_S2_RS0_St17integral_constantIbLb1EE(i32* %10, i32* %11, i32* %12, %"class.std::allocator"* nonnull align 1 dereferenceable(1) %13) #2, !llfi_index !1267
  ret i32* %14, !llfi_index !1268
}

; Function Attrs: mustprogress noinline nounwind uwtable
define linkonce_odr dso_local i32* @_ZNSt6vectorIiSaIiEE14_S_do_relocateEPiS2_S2_RS0_St17integral_constantIbLb1EE(i32* %0, i32* %1, i32* %2, %"class.std::allocator"* nonnull align 1 dereferenceable(1) %3) #3 comdat align 2 {
  %5 = alloca %"class.std::allocator", align 1, !llfi_index !1269
  %6 = alloca i32*, align 8, !llfi_index !1270
  %7 = alloca i32*, align 8, !llfi_index !1271
  %8 = alloca i32*, align 8, !llfi_index !1272
  %9 = alloca %"class.std::allocator"*, align 8, !llfi_index !1273
  store i32* %0, i32** %6, align 8, !llfi_index !1274
  store i32* %1, i32** %7, align 8, !llfi_index !1275
  store i32* %2, i32** %8, align 8, !llfi_index !1276
  store %"class.std::allocator"* %3, %"class.std::allocator"** %9, align 8, !llfi_index !1277
  %10 = load i32*, i32** %6, align 8, !llfi_index !1278
  %11 = load i32*, i32** %7, align 8, !llfi_index !1279
  %12 = load i32*, i32** %8, align 8, !llfi_index !1280
  %13 = load %"class.std::allocator"*, %"class.std::allocator"** %9, align 8, !llfi_index !1281
  %14 = call i32* @_ZSt12__relocate_aIPiS0_SaIiEET0_T_S3_S2_RT1_(i32* %10, i32* %11, i32* %12, %"class.std::allocator"* nonnull align 1 dereferenceable(1) %13) #2, !llfi_index !1282
  ret i32* %14, !llfi_index !1283
}

; Function Attrs: mustprogress noinline nounwind uwtable
define linkonce_odr dso_local i32* @_ZSt12__relocate_aIPiS0_SaIiEET0_T_S3_S2_RT1_(i32* %0, i32* %1, i32* %2, %"class.std::allocator"* nonnull align 1 dereferenceable(1) %3) #3 comdat {
  %5 = alloca i32*, align 8, !llfi_index !1284
  %6 = alloca i32*, align 8, !llfi_index !1285
  %7 = alloca i32*, align 8, !llfi_index !1286
  %8 = alloca %"class.std::allocator"*, align 8, !llfi_index !1287
  store i32* %0, i32** %5, align 8, !llfi_index !1288
  store i32* %1, i32** %6, align 8, !llfi_index !1289
  store i32* %2, i32** %7, align 8, !llfi_index !1290
  store %"class.std::allocator"* %3, %"class.std::allocator"** %8, align 8, !llfi_index !1291
  %9 = load i32*, i32** %5, align 8, !llfi_index !1292
  %10 = call i32* @_ZSt12__niter_baseIPiET_S1_(i32* %9) #2, !llfi_index !1293
  %11 = load i32*, i32** %6, align 8, !llfi_index !1294
  %12 = call i32* @_ZSt12__niter_baseIPiET_S1_(i32* %11) #2, !llfi_index !1295
  %13 = load i32*, i32** %7, align 8, !llfi_index !1296
  %14 = call i32* @_ZSt12__niter_baseIPiET_S1_(i32* %13) #2, !llfi_index !1297
  %15 = load %"class.std::allocator"*, %"class.std::allocator"** %8, align 8, !llfi_index !1298
  %16 = call i32* @_ZSt14__relocate_a_1IiiENSt9enable_ifIXsr3std24__is_bitwise_relocatableIT_EE5valueEPS1_E4typeES2_S2_S2_RSaIT0_E(i32* %10, i32* %12, i32* %14, %"class.std::allocator"* nonnull align 1 dereferenceable(1) %15) #2, !llfi_index !1299
  ret i32* %16, !llfi_index !1300
}

; Function Attrs: mustprogress noinline nounwind uwtable
define linkonce_odr dso_local i32* @_ZSt12__niter_baseIPiET_S1_(i32* %0) #3 comdat {
  %2 = alloca i32*, align 8, !llfi_index !1301
  store i32* %0, i32** %2, align 8, !llfi_index !1302
  %3 = load i32*, i32** %2, align 8, !llfi_index !1303
  ret i32* %3, !llfi_index !1304
}

; Function Attrs: mustprogress noinline nounwind uwtable
define linkonce_odr dso_local i32* @_ZSt14__relocate_a_1IiiENSt9enable_ifIXsr3std24__is_bitwise_relocatableIT_EE5valueEPS1_E4typeES2_S2_S2_RSaIT0_E(i32* %0, i32* %1, i32* %2, %"class.std::allocator"* nonnull align 1 dereferenceable(1) %3) #3 comdat {
  %5 = alloca i32*, align 8, !llfi_index !1305
  %6 = alloca i32*, align 8, !llfi_index !1306
  %7 = alloca i32*, align 8, !llfi_index !1307
  %8 = alloca %"class.std::allocator"*, align 8, !llfi_index !1308
  %9 = alloca i64, align 8, !llfi_index !1309
  store i32* %0, i32** %5, align 8, !llfi_index !1310
  store i32* %1, i32** %6, align 8, !llfi_index !1311
  store i32* %2, i32** %7, align 8, !llfi_index !1312
  store %"class.std::allocator"* %3, %"class.std::allocator"** %8, align 8, !llfi_index !1313
  %10 = load i32*, i32** %6, align 8, !llfi_index !1314
  %11 = load i32*, i32** %5, align 8, !llfi_index !1315
  %12 = ptrtoint i32* %10 to i64, !llfi_index !1316
  %13 = ptrtoint i32* %11 to i64, !llfi_index !1317
  %14 = sub i64 %12, %13, !llfi_index !1318
  %15 = sdiv exact i64 %14, 4, !llfi_index !1319
  store i64 %15, i64* %9, align 8, !llfi_index !1320
  %16 = load i64, i64* %9, align 8, !llfi_index !1321
  %17 = icmp sgt i64 %16, 0, !llfi_index !1322
  br i1 %17, label %18, label %25, !llfi_index !1323

18:                                               ; preds = %4
  %19 = load i32*, i32** %7, align 8, !llfi_index !1324
  %20 = bitcast i32* %19 to i8*, !llfi_index !1325
  %21 = load i32*, i32** %5, align 8, !llfi_index !1326
  %22 = bitcast i32* %21 to i8*, !llfi_index !1327
  %23 = load i64, i64* %9, align 8, !llfi_index !1328
  %24 = mul i64 %23, 4, !llfi_index !1329
  call void @llvm.memmove.p0i8.p0i8.i64(i8* align 4 %20, i8* align 4 %22, i64 %24, i1 false), !llfi_index !1330
  br label %25, !llfi_index !1331

25:                                               ; preds = %18, %4
  %26 = load i32*, i32** %7, align 8, !llfi_index !1332
  %27 = load i64, i64* %9, align 8, !llfi_index !1333
  %28 = getelementptr inbounds i32, i32* %26, i64 %27, !llfi_index !1334
  ret i32* %28, !llfi_index !1335
}

; Function Attrs: argmemonly nofree nounwind willreturn
declare void @llvm.memmove.p0i8.p0i8.i64(i8* nocapture writeonly, i8* nocapture readonly, i64, i1 immarg) #11

; Function Attrs: mustprogress noinline uwtable
define linkonce_odr dso_local i32* @_ZNSt16allocator_traitsISaIiEE8allocateERS0_m(%"class.std::allocator"* nonnull align 1 dereferenceable(1) %0, i64 %1) #4 comdat align 2 {
  %3 = alloca %"class.std::allocator"*, align 8, !llfi_index !1336
  %4 = alloca i64, align 8, !llfi_index !1337
  store %"class.std::allocator"* %0, %"class.std::allocator"** %3, align 8, !llfi_index !1338
  store i64 %1, i64* %4, align 8, !llfi_index !1339
  %5 = load %"class.std::allocator"*, %"class.std::allocator"** %3, align 8, !llfi_index !1340
  %6 = bitcast %"class.std::allocator"* %5 to %"class.std::allocator"*, !llfi_index !1341
  %7 = load i64, i64* %4, align 8, !llfi_index !1342
  %8 = call i32* @_ZN9__gnu_cxx13new_allocatorIiE8allocateEmPKv(%"class.std::allocator"* nonnull align 1 dereferenceable(1) %6, i64 %7, i8* null), !llfi_index !1343
  ret i32* %8, !llfi_index !1344
}

; Function Attrs: mustprogress noinline uwtable
define linkonce_odr dso_local i32* @_ZN9__gnu_cxx13new_allocatorIiE8allocateEmPKv(%"class.std::allocator"* nonnull align 1 dereferenceable(1) %0, i64 %1, i8* %2) #4 comdat align 2 {
  %4 = alloca %"class.std::allocator"*, align 8, !llfi_index !1345
  %5 = alloca i64, align 8, !llfi_index !1346
  %6 = alloca i8*, align 8, !llfi_index !1347
  store %"class.std::allocator"* %0, %"class.std::allocator"** %4, align 8, !llfi_index !1348
  store i64 %1, i64* %5, align 8, !llfi_index !1349
  store i8* %2, i8** %6, align 8, !llfi_index !1350
  %7 = load %"class.std::allocator"*, %"class.std::allocator"** %4, align 8, !llfi_index !1351
  %8 = load i64, i64* %5, align 8, !llfi_index !1352
  %9 = call i64 @_ZNK9__gnu_cxx13new_allocatorIiE8max_sizeEv(%"class.std::allocator"* nonnull align 1 dereferenceable(1) %7) #2, !llfi_index !1353
  %10 = icmp ugt i64 %8, %9, !llfi_index !1354
  br i1 %10, label %11, label %12, !llfi_index !1355

11:                                               ; preds = %3
  call void @_ZSt17__throw_bad_allocv() #15, !llfi_index !1356
  unreachable, !llfi_index !1357

12:                                               ; preds = %3
  %13 = load i64, i64* %5, align 8, !llfi_index !1358
  %14 = mul i64 %13, 4, !llfi_index !1359
  %15 = call noalias nonnull i8* @_Znwm(i64 %14) #16, !llfi_index !1360
  %16 = bitcast i8* %15 to i32*, !llfi_index !1361
  ret i32* %16, !llfi_index !1362
}

; Function Attrs: mustprogress noinline nounwind uwtable
define linkonce_odr dso_local i64 @_ZNK9__gnu_cxx13new_allocatorIiE8max_sizeEv(%"class.std::allocator"* nonnull align 1 dereferenceable(1) %0) #3 comdat align 2 {
  %2 = alloca %"class.std::allocator"*, align 8, !llfi_index !1363
  store %"class.std::allocator"* %0, %"class.std::allocator"** %2, align 8, !llfi_index !1364
  %3 = load %"class.std::allocator"*, %"class.std::allocator"** %2, align 8, !llfi_index !1365
  ret i64 2305843009213693951, !llfi_index !1366
}

; Function Attrs: noreturn
declare dso_local void @_ZSt17__throw_bad_allocv() #12

; Function Attrs: nobuiltin allocsize(0)
declare dso_local nonnull i8* @_Znwm(i64) #13

; Function Attrs: mustprogress noinline nounwind uwtable
define linkonce_odr dso_local i64 @_ZNKSt6vectorIiSaIiEE8max_sizeEv(%"class.std::vector"* nonnull align 8 dereferenceable(24) %0) #3 comdat align 2 {
  %2 = alloca %"class.std::vector"*, align 8, !llfi_index !1367
  store %"class.std::vector"* %0, %"class.std::vector"** %2, align 8, !llfi_index !1368
  %3 = load %"class.std::vector"*, %"class.std::vector"** %2, align 8, !llfi_index !1369
  %4 = bitcast %"class.std::vector"* %3 to %"struct.std::_Vector_base"*, !llfi_index !1370
  %5 = call nonnull align 1 dereferenceable(1) %"class.std::allocator"* @_ZNKSt12_Vector_baseIiSaIiEE19_M_get_Tp_allocatorEv(%"struct.std::_Vector_base"* nonnull align 8 dereferenceable(24) %4) #2, !llfi_index !1371
  %6 = call i64 @_ZNSt6vectorIiSaIiEE11_S_max_sizeERKS0_(%"class.std::allocator"* nonnull align 1 dereferenceable(1) %5) #2, !llfi_index !1372
  ret i64 %6, !llfi_index !1373
}

; Function Attrs: mustprogress noinline nounwind uwtable
define linkonce_odr dso_local i64 @_ZNKSt6vectorIiSaIiEE4sizeEv(%"class.std::vector"* nonnull align 8 dereferenceable(24) %0) #3 comdat align 2 {
  %2 = alloca %"class.std::vector"*, align 8, !llfi_index !1374
  store %"class.std::vector"* %0, %"class.std::vector"** %2, align 8, !llfi_index !1375
  %3 = load %"class.std::vector"*, %"class.std::vector"** %2, align 8, !llfi_index !1376
  %4 = bitcast %"class.std::vector"* %3 to %"struct.std::_Vector_base"*, !llfi_index !1377
  %5 = getelementptr inbounds %"struct.std::_Vector_base", %"struct.std::_Vector_base"* %4, i32 0, i32 0, !llfi_index !1378
  %6 = bitcast %"struct.std::_Vector_base<int, std::allocator<int>>::_Vector_impl"* %5 to %"struct.std::_Vector_base<int, std::allocator<int>>::_Vector_impl_data"*, !llfi_index !1379
  %7 = getelementptr inbounds %"struct.std::_Vector_base<int, std::allocator<int>>::_Vector_impl_data", %"struct.std::_Vector_base<int, std::allocator<int>>::_Vector_impl_data"* %6, i32 0, i32 1, !llfi_index !1380
  %8 = load i32*, i32** %7, align 8, !llfi_index !1381
  %9 = bitcast %"class.std::vector"* %3 to %"struct.std::_Vector_base"*, !llfi_index !1382
  %10 = getelementptr inbounds %"struct.std::_Vector_base", %"struct.std::_Vector_base"* %9, i32 0, i32 0, !llfi_index !1383
  %11 = bitcast %"struct.std::_Vector_base<int, std::allocator<int>>::_Vector_impl"* %10 to %"struct.std::_Vector_base<int, std::allocator<int>>::_Vector_impl_data"*, !llfi_index !1384
  %12 = getelementptr inbounds %"struct.std::_Vector_base<int, std::allocator<int>>::_Vector_impl_data", %"struct.std::_Vector_base<int, std::allocator<int>>::_Vector_impl_data"* %11, i32 0, i32 0, !llfi_index !1385
  %13 = load i32*, i32** %12, align 8, !llfi_index !1386
  %14 = ptrtoint i32* %8 to i64, !llfi_index !1387
  %15 = ptrtoint i32* %13 to i64, !llfi_index !1388
  %16 = sub i64 %14, %15, !llfi_index !1389
  %17 = sdiv exact i64 %16, 4, !llfi_index !1390
  ret i64 %17, !llfi_index !1391
}

; Function Attrs: noreturn
declare dso_local void @_ZSt20__throw_length_errorPKc(i8*) #12

; Function Attrs: mustprogress noinline nounwind uwtable
define linkonce_odr dso_local nonnull align 8 dereferenceable(8) i64* @_ZSt3maxImERKT_S2_S2_(i64* nonnull align 8 dereferenceable(8) %0, i64* nonnull align 8 dereferenceable(8) %1) #3 comdat {
  %3 = alloca i64*, align 8, !llfi_index !1392
  %4 = alloca i64*, align 8, !llfi_index !1393
  %5 = alloca i64*, align 8, !llfi_index !1394
  store i64* %0, i64** %4, align 8, !llfi_index !1395
  store i64* %1, i64** %5, align 8, !llfi_index !1396
  %6 = load i64*, i64** %4, align 8, !llfi_index !1397
  %7 = load i64, i64* %6, align 8, !llfi_index !1398
  %8 = load i64*, i64** %5, align 8, !llfi_index !1399
  %9 = load i64, i64* %8, align 8, !llfi_index !1400
  %10 = icmp ult i64 %7, %9, !llfi_index !1401
  br i1 %10, label %11, label %13, !llfi_index !1402

11:                                               ; preds = %2
  %12 = load i64*, i64** %5, align 8, !llfi_index !1403
  store i64* %12, i64** %3, align 8, !llfi_index !1404
  br label %15, !llfi_index !1405

13:                                               ; preds = %2
  %14 = load i64*, i64** %4, align 8, !llfi_index !1406
  store i64* %14, i64** %3, align 8, !llfi_index !1407
  br label %15, !llfi_index !1408

15:                                               ; preds = %13, %11
  %16 = load i64*, i64** %3, align 8, !llfi_index !1409
  ret i64* %16, !llfi_index !1410
}

; Function Attrs: mustprogress noinline nounwind uwtable
define linkonce_odr dso_local nonnull align 1 dereferenceable(1) %"class.std::allocator"* @_ZNKSt12_Vector_baseIiSaIiEE19_M_get_Tp_allocatorEv(%"struct.std::_Vector_base"* nonnull align 8 dereferenceable(24) %0) #3 comdat align 2 {
  %2 = alloca %"struct.std::_Vector_base"*, align 8, !llfi_index !1411
  store %"struct.std::_Vector_base"* %0, %"struct.std::_Vector_base"** %2, align 8, !llfi_index !1412
  %3 = load %"struct.std::_Vector_base"*, %"struct.std::_Vector_base"** %2, align 8, !llfi_index !1413
  %4 = getelementptr inbounds %"struct.std::_Vector_base", %"struct.std::_Vector_base"* %3, i32 0, i32 0, !llfi_index !1414
  %5 = bitcast %"struct.std::_Vector_base<int, std::allocator<int>>::_Vector_impl"* %4 to %"class.std::allocator"*, !llfi_index !1415
  ret %"class.std::allocator"* %5, !llfi_index !1416
}

; Function Attrs: mustprogress noinline nounwind uwtable
define linkonce_odr dso_local i64 @_ZNSt6vectorIiSaIiEE11_S_max_sizeERKS0_(%"class.std::allocator"* nonnull align 1 dereferenceable(1) %0) #3 comdat align 2 personality i8* bitcast (i32 (...)* @__gxx_personality_v0 to i8*) {
  %2 = alloca %"class.std::allocator"*, align 8, !llfi_index !1417
  %3 = alloca i64, align 8, !llfi_index !1418
  %4 = alloca i64, align 8, !llfi_index !1419
  store %"class.std::allocator"* %0, %"class.std::allocator"** %2, align 8, !llfi_index !1420
  store i64 2305843009213693951, i64* %3, align 8, !llfi_index !1421
  %5 = load %"class.std::allocator"*, %"class.std::allocator"** %2, align 8, !llfi_index !1422
  %6 = call i64 @_ZNSt16allocator_traitsISaIiEE8max_sizeERKS0_(%"class.std::allocator"* nonnull align 1 dereferenceable(1) %5) #2, !llfi_index !1423
  store i64 %6, i64* %4, align 8, !llfi_index !1424
  %7 = invoke nonnull align 8 dereferenceable(8) i64* @_ZSt3minImERKT_S2_S2_(i64* nonnull align 8 dereferenceable(8) %3, i64* nonnull align 8 dereferenceable(8) %4)
          to label %8 unwind label %10, !llfi_index !1425

8:                                                ; preds = %1
  %9 = load i64, i64* %7, align 8, !llfi_index !1426
  ret i64 %9, !llfi_index !1427

10:                                               ; preds = %1
  %11 = landingpad { i8*, i32 }
          catch i8* null, !llfi_index !1428
  %12 = extractvalue { i8*, i32 } %11, 0, !llfi_index !1429
  call void @__clang_call_terminate(i8* %12) #14, !llfi_index !1430
  unreachable, !llfi_index !1431
}

; Function Attrs: mustprogress noinline nounwind uwtable
define linkonce_odr dso_local i64 @_ZNSt16allocator_traitsISaIiEE8max_sizeERKS0_(%"class.std::allocator"* nonnull align 1 dereferenceable(1) %0) #3 comdat align 2 {
  %2 = alloca %"class.std::allocator"*, align 8, !llfi_index !1432
  store %"class.std::allocator"* %0, %"class.std::allocator"** %2, align 8, !llfi_index !1433
  %3 = load %"class.std::allocator"*, %"class.std::allocator"** %2, align 8, !llfi_index !1434
  %4 = bitcast %"class.std::allocator"* %3 to %"class.std::allocator"*, !llfi_index !1435
  %5 = call i64 @_ZNK9__gnu_cxx13new_allocatorIiE8max_sizeEv(%"class.std::allocator"* nonnull align 1 dereferenceable(1) %4) #2, !llfi_index !1436
  ret i64 %5, !llfi_index !1437
}

; Function Attrs: mustprogress noinline nounwind uwtable
define linkonce_odr dso_local nonnull align 8 dereferenceable(8) i64* @_ZSt3minImERKT_S2_S2_(i64* nonnull align 8 dereferenceable(8) %0, i64* nonnull align 8 dereferenceable(8) %1) #3 comdat {
  %3 = alloca i64*, align 8, !llfi_index !1438
  %4 = alloca i64*, align 8, !llfi_index !1439
  %5 = alloca i64*, align 8, !llfi_index !1440
  store i64* %0, i64** %4, align 8, !llfi_index !1441
  store i64* %1, i64** %5, align 8, !llfi_index !1442
  %6 = load i64*, i64** %5, align 8, !llfi_index !1443
  %7 = load i64, i64* %6, align 8, !llfi_index !1444
  %8 = load i64*, i64** %4, align 8, !llfi_index !1445
  %9 = load i64, i64* %8, align 8, !llfi_index !1446
  %10 = icmp ult i64 %7, %9, !llfi_index !1447
  br i1 %10, label %11, label %13, !llfi_index !1448

11:                                               ; preds = %2
  %12 = load i64*, i64** %5, align 8, !llfi_index !1449
  store i64* %12, i64** %3, align 8, !llfi_index !1450
  br label %15, !llfi_index !1451

13:                                               ; preds = %2
  %14 = load i64*, i64** %4, align 8, !llfi_index !1452
  store i64* %14, i64** %3, align 8, !llfi_index !1453
  br label %15, !llfi_index !1454

15:                                               ; preds = %13, %11
  %16 = load i64*, i64** %3, align 8, !llfi_index !1455
  ret i64* %16, !llfi_index !1456
}

; Function Attrs: mustprogress noinline nounwind uwtable
define linkonce_odr dso_local void @_ZN9__gnu_cxx13new_allocatorIiE9constructIiJRKiEEEvPT_DpOT0_(%"class.std::allocator"* nonnull align 1 dereferenceable(1) %0, i32* %1, i32* nonnull align 4 dereferenceable(4) %2) #3 comdat align 2 {
  %4 = alloca %"class.std::allocator"*, align 8, !llfi_index !1457
  %5 = alloca i32*, align 8, !llfi_index !1458
  %6 = alloca i32*, align 8, !llfi_index !1459
  store %"class.std::allocator"* %0, %"class.std::allocator"** %4, align 8, !llfi_index !1460
  store i32* %1, i32** %5, align 8, !llfi_index !1461
  store i32* %2, i32** %6, align 8, !llfi_index !1462
  %7 = load %"class.std::allocator"*, %"class.std::allocator"** %4, align 8, !llfi_index !1463
  %8 = load i32*, i32** %5, align 8, !llfi_index !1464
  %9 = bitcast i32* %8 to i8*, !llfi_index !1465
  %10 = bitcast i8* %9 to i32*, !llfi_index !1466
  %11 = load i32*, i32** %6, align 8, !llfi_index !1467
  %12 = call nonnull align 4 dereferenceable(4) i32* @_ZSt7forwardIRKiEOT_RNSt16remove_referenceIS2_E4typeE(i32* nonnull align 4 dereferenceable(4) %11) #2, !llfi_index !1468
  %13 = load i32, i32* %12, align 4, !llfi_index !1469
  store i32 %13, i32* %10, align 4, !llfi_index !1470
  ret void, !llfi_index !1471
}

attributes #0 = { noinline uwtable "frame-pointer"="all" "min-legal-vector-width"="0" "no-trapping-math"="true" "stack-protector-buffer-size"="8" "target-cpu"="x86-64" "target-features"="+cx8,+fxsr,+mmx,+sse,+sse2,+x87" "tune-cpu"="generic" }
attributes #1 = { noinline nounwind uwtable "frame-pointer"="all" "min-legal-vector-width"="0" "no-trapping-math"="true" "stack-protector-buffer-size"="8" "target-cpu"="x86-64" "target-features"="+cx8,+fxsr,+mmx,+sse,+sse2,+x87" "tune-cpu"="generic" }
attributes #2 = { nounwind }
attributes #3 = { mustprogress noinline nounwind uwtable "frame-pointer"="all" "min-legal-vector-width"="0" "no-trapping-math"="true" "stack-protector-buffer-size"="8" "target-cpu"="x86-64" "target-features"="+cx8,+fxsr,+mmx,+sse,+sse2,+x87" "tune-cpu"="generic" }
attributes #4 = { mustprogress noinline uwtable "frame-pointer"="all" "min-legal-vector-width"="0" "no-trapping-math"="true" "stack-protector-buffer-size"="8" "target-cpu"="x86-64" "target-features"="+cx8,+fxsr,+mmx,+sse,+sse2,+x87" "tune-cpu"="generic" }
attributes #5 = { noinline noreturn nounwind }
attributes #6 = { nobuiltin nounwind "frame-pointer"="all" "no-trapping-math"="true" "stack-protector-buffer-size"="8" "target-cpu"="x86-64" "target-features"="+cx8,+fxsr,+mmx,+sse,+sse2,+x87" "tune-cpu"="generic" }
attributes #7 = { "frame-pointer"="all" "no-trapping-math"="true" "stack-protector-buffer-size"="8" "target-cpu"="x86-64" "target-features"="+cx8,+fxsr,+mmx,+sse,+sse2,+x87" "tune-cpu"="generic" }
attributes #8 = { nounwind "frame-pointer"="all" "no-trapping-math"="true" "stack-protector-buffer-size"="8" "target-cpu"="x86-64" "target-features"="+cx8,+fxsr,+mmx,+sse,+sse2,+x87" "tune-cpu"="generic" }
attributes #9 = { mustprogress noinline norecurse uwtable "frame-pointer"="all" "min-legal-vector-width"="0" "no-trapping-math"="true" "stack-protector-buffer-size"="8" "target-cpu"="x86-64" "target-features"="+cx8,+fxsr,+mmx,+sse,+sse2,+x87" "tune-cpu"="generic" }
attributes #10 = { noreturn nounwind "frame-pointer"="all" "no-trapping-math"="true" "stack-protector-buffer-size"="8" "target-cpu"="x86-64" "target-features"="+cx8,+fxsr,+mmx,+sse,+sse2,+x87" "tune-cpu"="generic" }
attributes #11 = { argmemonly nofree nounwind willreturn }
attributes #12 = { noreturn "frame-pointer"="all" "no-trapping-math"="true" "stack-protector-buffer-size"="8" "target-cpu"="x86-64" "target-features"="+cx8,+fxsr,+mmx,+sse,+sse2,+x87" "tune-cpu"="generic" }
attributes #13 = { nobuiltin allocsize(0) "frame-pointer"="all" "no-trapping-math"="true" "stack-protector-buffer-size"="8" "target-cpu"="x86-64" "target-features"="+cx8,+fxsr,+mmx,+sse,+sse2,+x87" "tune-cpu"="generic" }
attributes #14 = { noreturn nounwind }
attributes #15 = { noreturn }
attributes #16 = { allocsize(0) }

!llvm.ident = !{!0}
!llvm.module.flags = !{!1, !2, !3}

!0 = !{!"clang version 13.0.0 (https://github.com/llvm/llvm-project.git d7b669b3a30345cfcdb2fde2af6f48aa4b94845d)"}
!1 = !{i32 1, !"wchar_size", i32 4}
!2 = !{i32 7, !"uwtable", i32 1}
!3 = !{i32 7, !"frame-pointer", i32 2}
!4 = !{i64 1}
!5 = !{i64 2}
!6 = !{i64 3}
!7 = !{i64 4}
!8 = !{i64 5}
!9 = !{i64 6}
!10 = !{i64 7}
!11 = !{i64 8}
!12 = !{i64 9}
!13 = !{i64 10}
!14 = !{i64 11}
!15 = !{i64 12}
!16 = !{i64 13}
!17 = !{i64 14}
!18 = !{i64 15}
!19 = !{i64 16}
!20 = !{i64 17}
!21 = !{i64 18}
!22 = !{i64 19}
!23 = !{i64 20}
!24 = !{i64 21}
!25 = !{i64 22}
!26 = !{i64 23}
!27 = !{i64 24}
!28 = !{i64 25}
!29 = !{i64 26}
!30 = !{i64 27}
!31 = !{i64 28}
!32 = !{i64 29}
!33 = !{i64 30}
!34 = !{i64 31}
!35 = !{i64 32}
!36 = !{i64 33}
!37 = !{i64 34}
!38 = !{i64 35}
!39 = !{i64 36}
!40 = !{i64 37}
!41 = !{i64 38}
!42 = !{i64 39}
!43 = !{i64 40}
!44 = !{i64 41}
!45 = !{i64 42}
!46 = !{i64 43}
!47 = !{i64 44}
!48 = !{i64 45}
!49 = !{i64 46}
!50 = !{i64 47}
!51 = !{i64 48}
!52 = !{i64 49}
!53 = !{i64 50}
!54 = !{i64 51}
!55 = !{i64 52}
!56 = !{i64 53}
!57 = !{i64 54}
!58 = !{i64 55}
!59 = !{i64 56}
!60 = !{i64 57}
!61 = !{i64 58}
!62 = !{i64 59}
!63 = !{i64 60}
!64 = !{i64 61}
!65 = !{i64 62}
!66 = !{i64 63}
!67 = !{i64 64}
!68 = !{i64 65}
!69 = !{i64 66}
!70 = !{i64 67}
!71 = !{i64 68}
!72 = !{i64 69}
!73 = !{i64 70}
!74 = !{i64 71}
!75 = !{i64 72}
!76 = !{i64 73}
!77 = !{i64 74}
!78 = !{i64 75}
!79 = !{i64 76}
!80 = !{i64 77}
!81 = !{i64 78}
!82 = !{i64 79}
!83 = !{i64 80}
!84 = !{i64 81}
!85 = !{i64 82}
!86 = !{i64 83}
!87 = !{i64 84}
!88 = !{i64 85}
!89 = !{i64 86}
!90 = !{i64 87}
!91 = !{i64 88}
!92 = !{i64 89}
!93 = !{i64 90}
!94 = !{i64 91}
!95 = !{i64 92}
!96 = !{i64 93}
!97 = !{i64 94}
!98 = !{i64 95}
!99 = !{i64 96}
!100 = !{i64 97}
!101 = !{i64 98}
!102 = !{i64 99}
!103 = !{i64 100}
!104 = !{i64 101}
!105 = !{i64 102}
!106 = !{i64 103}
!107 = !{i64 104}
!108 = !{i64 105}
!109 = !{i64 106}
!110 = !{i64 107}
!111 = !{i64 108}
!112 = !{i64 109}
!113 = !{i64 110}
!114 = !{i64 111}
!115 = !{i64 112}
!116 = !{i64 113}
!117 = !{i64 114}
!118 = !{i64 115}
!119 = !{i64 116}
!120 = !{i64 117}
!121 = !{i64 118}
!122 = !{i64 119}
!123 = !{i64 120}
!124 = !{i64 121}
!125 = !{i64 122}
!126 = !{i64 123}
!127 = !{i64 124}
!128 = !{i64 125}
!129 = !{i64 126}
!130 = !{i64 127}
!131 = !{i64 128}
!132 = !{i64 129}
!133 = !{i64 130}
!134 = !{i64 131}
!135 = !{i64 132}
!136 = !{i64 133}
!137 = !{i64 134}
!138 = !{i64 135}
!139 = !{i64 136}
!140 = !{i64 137}
!141 = !{i64 138}
!142 = !{i64 139}
!143 = !{i64 140}
!144 = !{i64 141}
!145 = !{i64 142}
!146 = !{i64 143}
!147 = !{i64 144}
!148 = !{i64 145}
!149 = !{i64 146}
!150 = !{i64 147}
!151 = !{i64 148}
!152 = !{i64 149}
!153 = !{i64 150}
!154 = !{i64 151}
!155 = !{i64 152}
!156 = !{i64 153}
!157 = !{i64 154}
!158 = !{i64 155}
!159 = !{i64 156}
!160 = !{i64 157}
!161 = !{i64 158}
!162 = !{i64 159}
!163 = !{i64 160}
!164 = !{i64 161}
!165 = !{i64 162}
!166 = !{i64 163}
!167 = !{i64 164}
!168 = !{i64 165}
!169 = !{i64 166}
!170 = !{i64 167}
!171 = !{i64 168}
!172 = !{i64 169}
!173 = !{i64 170}
!174 = !{i64 171}
!175 = !{i64 172}
!176 = !{i64 173}
!177 = !{i64 174}
!178 = !{i64 175}
!179 = !{i64 176}
!180 = !{i64 177}
!181 = !{i64 178}
!182 = !{i64 179}
!183 = !{i64 180}
!184 = !{i64 181}
!185 = !{i64 182}
!186 = !{i64 183}
!187 = !{i64 184}
!188 = !{i64 185}
!189 = !{i64 186}
!190 = !{i64 187}
!191 = !{i64 188}
!192 = !{i64 189}
!193 = !{i64 190}
!194 = !{i64 191}
!195 = !{i64 192}
!196 = !{i64 193}
!197 = !{i64 194}
!198 = !{i64 195}
!199 = !{i64 196}
!200 = !{i64 197}
!201 = !{i64 198}
!202 = !{i64 199}
!203 = !{i64 200}
!204 = !{i64 201}
!205 = !{i64 202}
!206 = !{i64 203}
!207 = !{i64 204}
!208 = !{i64 205}
!209 = !{i64 206}
!210 = !{i64 207}
!211 = !{i64 208}
!212 = !{i64 209}
!213 = !{i64 210}
!214 = !{i64 211}
!215 = !{i64 212}
!216 = !{i64 213}
!217 = !{i64 214}
!218 = !{i64 215}
!219 = !{i64 216}
!220 = !{i64 217}
!221 = !{i64 218}
!222 = !{i64 219}
!223 = !{i64 220}
!224 = !{i64 221}
!225 = !{i64 222}
!226 = !{i64 223}
!227 = !{i64 224}
!228 = !{i64 225}
!229 = !{i64 226}
!230 = !{i64 227}
!231 = !{i64 228}
!232 = !{i64 229}
!233 = !{i64 230}
!234 = !{i64 231}
!235 = !{i64 232}
!236 = !{i64 233}
!237 = !{i64 234}
!238 = !{i64 235}
!239 = !{i64 236}
!240 = !{i64 237}
!241 = !{i64 238}
!242 = !{i64 239}
!243 = !{i64 240}
!244 = !{i64 241}
!245 = !{i64 242}
!246 = !{i64 243}
!247 = !{i64 244}
!248 = !{i64 245}
!249 = !{i64 246}
!250 = !{i64 247}
!251 = !{i64 248}
!252 = !{i64 249}
!253 = !{i64 250}
!254 = !{i64 251}
!255 = !{i64 252}
!256 = !{i64 253}
!257 = !{i64 254}
!258 = !{i64 255}
!259 = !{i64 256}
!260 = !{i64 257}
!261 = !{i64 258}
!262 = !{i64 259}
!263 = !{i64 260}
!264 = !{i64 261}
!265 = !{i64 262}
!266 = !{i64 263}
!267 = !{i64 264}
!268 = !{i64 265}
!269 = !{i64 266}
!270 = !{i64 267}
!271 = !{i64 268}
!272 = !{i64 269}
!273 = !{i64 270}
!274 = !{i64 271}
!275 = !{i64 272}
!276 = !{i64 273}
!277 = !{i64 274}
!278 = !{i64 275}
!279 = !{i64 276}
!280 = !{i64 277}
!281 = !{i64 278}
!282 = !{i64 279}
!283 = !{i64 280}
!284 = !{i64 281}
!285 = !{i64 282}
!286 = !{i64 283}
!287 = !{i64 284}
!288 = !{i64 285}
!289 = !{i64 286}
!290 = !{i64 287}
!291 = !{i64 288}
!292 = !{i64 289}
!293 = !{i64 290}
!294 = !{i64 291}
!295 = !{i64 292}
!296 = !{i64 293}
!297 = !{i64 294}
!298 = !{i64 295}
!299 = !{i64 296}
!300 = !{i64 297}
!301 = !{i64 298}
!302 = !{i64 299}
!303 = !{i64 300}
!304 = !{i64 301}
!305 = !{i64 302}
!306 = !{i64 303}
!307 = !{i64 304}
!308 = !{i64 305}
!309 = !{i64 306}
!310 = !{i64 307}
!311 = !{i64 308}
!312 = !{i64 309}
!313 = !{i64 310}
!314 = !{i64 311}
!315 = !{i64 312}
!316 = !{i64 313}
!317 = !{i64 314}
!318 = !{i64 315}
!319 = !{i64 316}
!320 = !{i64 317}
!321 = !{i64 318}
!322 = !{i64 319}
!323 = !{i64 320}
!324 = !{i64 321}
!325 = !{i64 322}
!326 = !{i64 323}
!327 = !{i64 324}
!328 = !{i64 325}
!329 = !{i64 326}
!330 = !{i64 327}
!331 = !{i64 328}
!332 = !{i64 329}
!333 = !{i64 330}
!334 = !{i64 331}
!335 = !{i64 332}
!336 = !{i64 333}
!337 = !{i64 334}
!338 = !{i64 335}
!339 = !{i64 336}
!340 = !{i64 337}
!341 = !{i64 338}
!342 = !{i64 339}
!343 = !{i64 340}
!344 = !{i64 341}
!345 = !{i64 342}
!346 = !{i64 343}
!347 = !{i64 344}
!348 = !{i64 345}
!349 = !{i64 346}
!350 = !{i64 347}
!351 = !{i64 348}
!352 = !{i64 349}
!353 = !{i64 350}
!354 = !{i64 351}
!355 = !{i64 352}
!356 = !{i64 353}
!357 = !{i64 354}
!358 = !{i64 355}
!359 = !{i64 356}
!360 = !{i64 357}
!361 = !{i64 358}
!362 = !{i64 359}
!363 = !{i64 360}
!364 = !{i64 361}
!365 = !{i64 362}
!366 = !{i64 363}
!367 = !{i64 364}
!368 = !{i64 365}
!369 = !{i64 366}
!370 = !{i64 367}
!371 = !{i64 368}
!372 = !{i64 369}
!373 = !{i64 370}
!374 = !{i64 371}
!375 = !{i64 372}
!376 = !{i64 373}
!377 = !{i64 374}
!378 = !{i64 375}
!379 = !{i64 376}
!380 = !{i64 377}
!381 = !{i64 378}
!382 = !{i64 379}
!383 = !{i64 380}
!384 = !{i64 381}
!385 = !{i64 382}
!386 = !{i64 383}
!387 = !{i64 384}
!388 = !{i64 385}
!389 = !{i64 386}
!390 = !{i64 387}
!391 = !{i64 388}
!392 = !{i64 389}
!393 = !{i64 390}
!394 = !{i64 391}
!395 = !{i64 392}
!396 = !{i64 393}
!397 = !{i64 394}
!398 = !{i64 395}
!399 = !{i64 396}
!400 = !{i64 397}
!401 = !{i64 398}
!402 = !{i64 399}
!403 = !{i64 400}
!404 = !{i64 401}
!405 = !{i64 402}
!406 = !{i64 403}
!407 = !{i64 404}
!408 = !{i64 405}
!409 = !{i64 406}
!410 = !{i64 407}
!411 = !{i64 408}
!412 = !{i64 409}
!413 = !{i64 410}
!414 = !{i64 411}
!415 = !{i64 412}
!416 = !{i64 413}
!417 = !{i64 414}
!418 = !{i64 415}
!419 = !{i64 416}
!420 = !{i64 417}
!421 = !{i64 418}
!422 = !{i64 419}
!423 = !{i64 420}
!424 = !{i64 421}
!425 = !{i64 422}
!426 = !{i64 423}
!427 = !{i64 424}
!428 = !{i64 425}
!429 = !{i64 426}
!430 = !{i64 427}
!431 = !{i64 428}
!432 = !{i64 429}
!433 = !{i64 430}
!434 = !{i64 431}
!435 = !{i64 432}
!436 = !{i64 433}
!437 = !{i64 434}
!438 = !{i64 435}
!439 = !{i64 436}
!440 = !{i64 437}
!441 = !{i64 438}
!442 = !{i64 439}
!443 = !{i64 440}
!444 = !{i64 441}
!445 = !{i64 442}
!446 = !{i64 443}
!447 = !{i64 444}
!448 = !{i64 445}
!449 = !{i64 446}
!450 = !{i64 447}
!451 = !{i64 448}
!452 = !{i64 449}
!453 = !{i64 450}
!454 = !{i64 451}
!455 = !{i64 452}
!456 = !{i64 453}
!457 = !{i64 454}
!458 = !{i64 455}
!459 = !{i64 456}
!460 = !{i64 457}
!461 = !{i64 458}
!462 = !{i64 459}
!463 = !{i64 460}
!464 = !{i64 461}
!465 = !{i64 462}
!466 = !{i64 463}
!467 = !{i64 464}
!468 = !{i64 465}
!469 = !{i64 466}
!470 = !{i64 467}
!471 = !{i64 468}
!472 = !{i64 469}
!473 = !{i64 470}
!474 = !{i64 471}
!475 = !{i64 472}
!476 = !{i64 473}
!477 = !{i64 474}
!478 = !{i64 475}
!479 = !{i64 476}
!480 = !{i64 477}
!481 = !{i64 478}
!482 = !{i64 479}
!483 = !{i64 480}
!484 = !{i64 481}
!485 = !{i64 482}
!486 = !{i64 483}
!487 = !{i64 484}
!488 = !{i64 485}
!489 = !{i64 486}
!490 = !{i64 487}
!491 = !{i64 488}
!492 = !{i64 489}
!493 = !{i64 490}
!494 = !{i64 491}
!495 = !{i64 492}
!496 = !{i64 493}
!497 = !{i64 494}
!498 = !{i64 495}
!499 = !{i64 496}
!500 = !{i64 497}
!501 = !{i64 498}
!502 = !{i64 499}
!503 = !{i64 500}
!504 = !{i64 501}
!505 = !{i64 502}
!506 = !{i64 503}
!507 = !{i64 504}
!508 = !{i64 505}
!509 = !{i64 506}
!510 = !{i64 507}
!511 = !{i64 508}
!512 = !{i64 509}
!513 = !{i64 510}
!514 = !{i64 511}
!515 = distinct !{!515, !516}
!516 = !{!"llvm.loop.mustprogress"}
!517 = !{i64 512}
!518 = !{i64 513}
!519 = !{i64 514}
!520 = !{i64 515}
!521 = !{i64 516}
!522 = !{i64 517}
!523 = !{i64 518}
!524 = !{i64 519}
!525 = !{i64 520}
!526 = !{i64 521}
!527 = !{i64 522}
!528 = !{i64 523}
!529 = !{i64 524}
!530 = !{i64 525}
!531 = !{i64 526}
!532 = !{i64 527}
!533 = !{i64 528}
!534 = !{i64 529}
!535 = !{i64 530}
!536 = !{i64 531}
!537 = !{i64 532}
!538 = !{i64 533}
!539 = !{i64 534}
!540 = !{i64 535}
!541 = !{i64 536}
!542 = !{i64 537}
!543 = !{i64 538}
!544 = !{i64 539}
!545 = !{i64 540}
!546 = !{i64 541}
!547 = !{i64 542}
!548 = !{i64 543}
!549 = !{i64 544}
!550 = !{i64 545}
!551 = !{i64 546}
!552 = !{i64 547}
!553 = !{i64 548}
!554 = !{i64 549}
!555 = !{i64 550}
!556 = !{i64 551}
!557 = !{i64 552}
!558 = !{i64 553}
!559 = distinct !{!559, !516}
!560 = !{i64 554}
!561 = !{i64 555}
!562 = !{i64 556}
!563 = !{i64 557}
!564 = !{i64 558}
!565 = !{i64 559}
!566 = !{i64 560}
!567 = !{i64 561}
!568 = !{i64 562}
!569 = !{i64 563}
!570 = !{i64 564}
!571 = !{i64 565}
!572 = !{i64 566}
!573 = !{i64 567}
!574 = !{i64 568}
!575 = !{i64 569}
!576 = !{i64 570}
!577 = !{i64 571}
!578 = !{i64 572}
!579 = !{i64 573}
!580 = !{i64 574}
!581 = !{i64 575}
!582 = !{i64 576}
!583 = !{i64 577}
!584 = !{i64 578}
!585 = !{i64 579}
!586 = !{i64 580}
!587 = !{i64 581}
!588 = !{i64 582}
!589 = !{i64 583}
!590 = !{i64 584}
!591 = !{i64 585}
!592 = !{i64 586}
!593 = !{i64 587}
!594 = !{i64 588}
!595 = !{i64 589}
!596 = !{i64 590}
!597 = !{i64 591}
!598 = !{i64 592}
!599 = !{i64 593}
!600 = !{i64 594}
!601 = !{i64 595}
!602 = !{i64 596}
!603 = !{i64 597}
!604 = !{i64 598}
!605 = !{i64 599}
!606 = !{i64 600}
!607 = !{i64 601}
!608 = !{i64 602}
!609 = !{i64 603}
!610 = !{i64 604}
!611 = !{i64 605}
!612 = !{i64 606}
!613 = !{i64 607}
!614 = !{i64 608}
!615 = !{i64 609}
!616 = !{i64 610}
!617 = !{i64 611}
!618 = !{i64 612}
!619 = !{i64 613}
!620 = !{i64 614}
!621 = !{i64 615}
!622 = !{i64 616}
!623 = !{i64 617}
!624 = !{i64 618}
!625 = !{i64 619}
!626 = !{i64 620}
!627 = !{i64 621}
!628 = !{i64 622}
!629 = !{i64 623}
!630 = !{i64 624}
!631 = !{i64 625}
!632 = !{i64 626}
!633 = !{i64 627}
!634 = !{i64 628}
!635 = !{i64 629}
!636 = !{i64 630}
!637 = !{i64 631}
!638 = !{i64 632}
!639 = !{i64 633}
!640 = !{i64 634}
!641 = !{i64 635}
!642 = !{i64 636}
!643 = !{i64 637}
!644 = !{i64 638}
!645 = !{i64 639}
!646 = !{i64 640}
!647 = !{i64 641}
!648 = !{i64 642}
!649 = !{i64 643}
!650 = !{i64 644}
!651 = !{i64 645}
!652 = !{i64 646}
!653 = !{i64 647}
!654 = !{i64 648}
!655 = !{i64 649}
!656 = !{i64 650}
!657 = !{i64 651}
!658 = !{i64 652}
!659 = !{i64 653}
!660 = !{i64 654}
!661 = !{i64 655}
!662 = !{i64 656}
!663 = !{i64 657}
!664 = !{i64 658}
!665 = !{i64 659}
!666 = !{i64 660}
!667 = !{i64 661}
!668 = !{i64 662}
!669 = !{i64 663}
!670 = !{i64 664}
!671 = !{i64 665}
!672 = !{i64 666}
!673 = !{i64 667}
!674 = !{i64 668}
!675 = !{i64 669}
!676 = !{i64 670}
!677 = !{i64 671}
!678 = !{i64 672}
!679 = !{i64 673}
!680 = !{i64 674}
!681 = !{i64 675}
!682 = !{i64 676}
!683 = !{i64 677}
!684 = !{i64 678}
!685 = !{i64 679}
!686 = !{i64 680}
!687 = !{i64 681}
!688 = !{i64 682}
!689 = !{i64 683}
!690 = !{i64 684}
!691 = !{i64 685}
!692 = !{i64 686}
!693 = !{i64 687}
!694 = !{i64 688}
!695 = !{i64 689}
!696 = !{i64 690}
!697 = !{i64 691}
!698 = !{i64 692}
!699 = !{i64 693}
!700 = !{i64 694}
!701 = !{i64 695}
!702 = !{i64 696}
!703 = !{i64 697}
!704 = !{i64 698}
!705 = !{i64 699}
!706 = !{i64 700}
!707 = !{i64 701}
!708 = !{i64 702}
!709 = !{i64 703}
!710 = !{i64 704}
!711 = !{i64 705}
!712 = !{i64 706}
!713 = !{i64 707}
!714 = !{i64 708}
!715 = !{i64 709}
!716 = !{i64 710}
!717 = !{i64 711}
!718 = !{i64 712}
!719 = !{i64 713}
!720 = !{i64 714}
!721 = !{i64 715}
!722 = !{i64 716}
!723 = !{i64 717}
!724 = !{i64 718}
!725 = !{i64 719}
!726 = !{i64 720}
!727 = !{i64 721}
!728 = !{i64 722}
!729 = !{i64 723}
!730 = !{i64 724}
!731 = !{i64 725}
!732 = !{i64 726}
!733 = !{i64 727}
!734 = !{i64 728}
!735 = !{i64 729}
!736 = !{i64 730}
!737 = !{i64 731}
!738 = !{i64 732}
!739 = !{i64 733}
!740 = !{i64 734}
!741 = !{i64 735}
!742 = !{i64 736}
!743 = !{i64 737}
!744 = !{i64 738}
!745 = !{i64 739}
!746 = !{i64 740}
!747 = !{i64 741}
!748 = !{i64 742}
!749 = !{i64 743}
!750 = !{i64 744}
!751 = !{i64 745}
!752 = !{i64 746}
!753 = !{i64 747}
!754 = distinct !{!754, !516}
!755 = !{i64 748}
!756 = !{i64 749}
!757 = !{i64 750}
!758 = !{i64 751}
!759 = !{i64 752}
!760 = !{i64 753}
!761 = !{i64 754}
!762 = !{i64 755}
!763 = !{i64 756}
!764 = !{i64 757}
!765 = !{i64 758}
!766 = !{i64 759}
!767 = !{i64 760}
!768 = !{i64 761}
!769 = !{i64 762}
!770 = !{i64 763}
!771 = !{i64 764}
!772 = !{i64 765}
!773 = !{i64 766}
!774 = !{i64 767}
!775 = !{i64 768}
!776 = !{i64 769}
!777 = !{i64 770}
!778 = !{i64 771}
!779 = !{i64 772}
!780 = !{i64 773}
!781 = !{i64 774}
!782 = !{i64 775}
!783 = !{i64 776}
!784 = !{i64 777}
!785 = !{i64 778}
!786 = !{i64 779}
!787 = !{i64 780}
!788 = !{i64 781}
!789 = !{i64 782}
!790 = !{i64 783}
!791 = !{i64 784}
!792 = !{i64 785}
!793 = !{i64 786}
!794 = !{i64 787}
!795 = !{i64 788}
!796 = !{i64 789}
!797 = !{i64 790}
!798 = !{i64 791}
!799 = !{i64 792}
!800 = !{i64 793}
!801 = !{i64 794}
!802 = !{i64 795}
!803 = !{i64 796}
!804 = !{i64 797}
!805 = !{i64 798}
!806 = !{i64 799}
!807 = !{i64 800}
!808 = !{i64 801}
!809 = !{i64 802}
!810 = !{i64 803}
!811 = !{i64 804}
!812 = !{i64 805}
!813 = !{i64 806}
!814 = !{i64 807}
!815 = !{i64 808}
!816 = !{i64 809}
!817 = !{i64 810}
!818 = !{i64 811}
!819 = !{i64 812}
!820 = !{i64 813}
!821 = !{i64 814}
!822 = !{i64 815}
!823 = !{i64 816}
!824 = !{i64 817}
!825 = !{i64 818}
!826 = !{i64 819}
!827 = !{i64 820}
!828 = !{i64 821}
!829 = !{i64 822}
!830 = !{i64 823}
!831 = !{i64 824}
!832 = !{i64 825}
!833 = !{i64 826}
!834 = !{i64 827}
!835 = !{i64 828}
!836 = !{i64 829}
!837 = !{i64 830}
!838 = !{i64 831}
!839 = !{i64 832}
!840 = !{i64 833}
!841 = !{i64 834}
!842 = !{i64 835}
!843 = !{i64 836}
!844 = !{i64 837}
!845 = !{i64 838}
!846 = !{i64 839}
!847 = !{i64 840}
!848 = !{i64 841}
!849 = !{i64 842}
!850 = !{i64 843}
!851 = !{i64 844}
!852 = !{i64 845}
!853 = !{i64 846}
!854 = !{i64 847}
!855 = !{i64 848}
!856 = !{i64 849}
!857 = !{i64 850}
!858 = !{i64 851}
!859 = !{i64 852}
!860 = !{i64 853}
!861 = !{i64 854}
!862 = !{i64 855}
!863 = !{i64 856}
!864 = !{i64 857}
!865 = !{i64 858}
!866 = !{i64 859}
!867 = !{i64 860}
!868 = !{i64 861}
!869 = !{i64 862}
!870 = !{i64 863}
!871 = !{i64 864}
!872 = !{i64 865}
!873 = !{i64 866}
!874 = !{i64 867}
!875 = !{i64 868}
!876 = !{i64 869}
!877 = !{i64 870}
!878 = !{i64 871}
!879 = !{i64 872}
!880 = !{i64 873}
!881 = !{i64 874}
!882 = !{i64 875}
!883 = !{i64 876}
!884 = !{i64 877}
!885 = !{i64 878}
!886 = !{i64 879}
!887 = !{i64 880}
!888 = !{i64 881}
!889 = !{i64 882}
!890 = !{i64 883}
!891 = !{i64 884}
!892 = !{i64 885}
!893 = !{i64 886}
!894 = !{i64 887}
!895 = distinct !{!895, !516}
!896 = !{i64 888}
!897 = !{i64 889}
!898 = !{i64 890}
!899 = !{i64 891}
!900 = !{i64 892}
!901 = !{i64 893}
!902 = !{i64 894}
!903 = !{i64 895}
!904 = !{i64 896}
!905 = !{i64 897}
!906 = !{i64 898}
!907 = !{i64 899}
!908 = !{i64 900}
!909 = !{i64 901}
!910 = !{i64 902}
!911 = !{i64 903}
!912 = !{i64 904}
!913 = !{i64 905}
!914 = !{i64 906}
!915 = !{i64 907}
!916 = !{i64 908}
!917 = !{i64 909}
!918 = !{i64 910}
!919 = !{i64 911}
!920 = !{i64 912}
!921 = !{i64 913}
!922 = !{i64 914}
!923 = !{i64 915}
!924 = distinct !{!924, !516}
!925 = !{i64 916}
!926 = !{i64 917}
!927 = !{i64 918}
!928 = !{i64 919}
!929 = !{i64 920}
!930 = !{i64 921}
!931 = !{i64 922}
!932 = !{i64 923}
!933 = !{i64 924}
!934 = !{i64 925}
!935 = !{i64 926}
!936 = !{i64 927}
!937 = !{i64 928}
!938 = !{i64 929}
!939 = !{i64 930}
!940 = !{i64 931}
!941 = !{i64 932}
!942 = !{i64 933}
!943 = !{i64 934}
!944 = !{i64 935}
!945 = !{i64 936}
!946 = !{i64 937}
!947 = !{i64 938}
!948 = !{i64 939}
!949 = !{i64 940}
!950 = !{i64 941}
!951 = !{i64 942}
!952 = !{i64 943}
!953 = !{i64 944}
!954 = !{i64 945}
!955 = !{i64 946}
!956 = !{i64 947}
!957 = !{i64 948}
!958 = !{i64 949}
!959 = !{i64 950}
!960 = !{i64 951}
!961 = !{i64 952}
!962 = !{i64 953}
!963 = !{i64 954}
!964 = !{i64 955}
!965 = !{i64 956}
!966 = !{i64 957}
!967 = !{i64 958}
!968 = !{i64 959}
!969 = !{i64 960}
!970 = !{i64 961}
!971 = !{i64 962}
!972 = !{i64 963}
!973 = !{i64 964}
!974 = !{i64 965}
!975 = distinct !{!975, !516}
!976 = !{i64 966}
!977 = !{i64 967}
!978 = !{i64 968}
!979 = !{i64 969}
!980 = !{i64 970}
!981 = !{i64 971}
!982 = !{i64 972}
!983 = !{i64 973}
!984 = !{i64 974}
!985 = !{i64 975}
!986 = !{i64 976}
!987 = !{i64 977}
!988 = !{i64 978}
!989 = !{i64 979}
!990 = !{i64 980}
!991 = !{i64 981}
!992 = !{i64 982}
!993 = !{i64 983}
!994 = !{i64 984}
!995 = !{i64 985}
!996 = !{i64 986}
!997 = !{i64 987}
!998 = !{i64 988}
!999 = !{i64 989}
!1000 = !{i64 990}
!1001 = !{i64 991}
!1002 = !{i64 992}
!1003 = !{i64 993}
!1004 = !{i64 994}
!1005 = !{i64 995}
!1006 = !{i64 996}
!1007 = !{i64 997}
!1008 = !{i64 998}
!1009 = !{i64 999}
!1010 = !{i64 1000}
!1011 = !{i64 1001}
!1012 = !{i64 1002}
!1013 = !{i64 1003}
!1014 = !{i64 1004}
!1015 = !{i64 1005}
!1016 = distinct !{!1016, !516}
!1017 = !{i64 1006}
!1018 = !{i64 1007}
!1019 = !{i64 1008}
!1020 = !{i64 1009}
!1021 = !{i64 1010}
!1022 = !{i64 1011}
!1023 = !{i64 1012}
!1024 = !{i64 1013}
!1025 = !{i64 1014}
!1026 = !{i64 1015}
!1027 = !{i64 1016}
!1028 = !{i64 1017}
!1029 = !{i64 1018}
!1030 = !{i64 1019}
!1031 = !{i64 1020}
!1032 = !{i64 1021}
!1033 = !{i64 1022}
!1034 = !{i64 1023}
!1035 = !{i64 1024}
!1036 = !{i64 1025}
!1037 = !{i64 1026}
!1038 = !{i64 1027}
!1039 = !{i64 1028}
!1040 = !{i64 1029}
!1041 = !{i64 1030}
!1042 = !{i64 1031}
!1043 = !{i64 1032}
!1044 = !{i64 1033}
!1045 = !{i64 1034}
!1046 = !{i64 1035}
!1047 = !{i64 1036}
!1048 = !{i64 1037}
!1049 = !{i64 1038}
!1050 = !{i64 1039}
!1051 = !{i64 1040}
!1052 = !{i64 1041}
!1053 = !{i64 1042}
!1054 = !{i64 1043}
!1055 = !{i64 1044}
!1056 = !{i64 1045}
!1057 = !{i64 1046}
!1058 = !{i64 1047}
!1059 = !{i64 1048}
!1060 = !{i64 1049}
!1061 = !{i64 1050}
!1062 = !{i64 1051}
!1063 = !{i64 1052}
!1064 = !{i64 1053}
!1065 = !{i64 1054}
!1066 = !{i64 1055}
!1067 = !{i64 1056}
!1068 = !{i64 1057}
!1069 = !{i64 1058}
!1070 = !{i64 1059}
!1071 = !{i64 1060}
!1072 = !{i64 1061}
!1073 = !{i64 1062}
!1074 = !{i64 1063}
!1075 = !{i64 1064}
!1076 = !{i64 1065}
!1077 = !{i64 1066}
!1078 = !{i64 1067}
!1079 = !{i64 1068}
!1080 = !{i64 1069}
!1081 = !{i64 1070}
!1082 = !{i64 1071}
!1083 = !{i64 1072}
!1084 = !{i64 1073}
!1085 = !{i64 1074}
!1086 = !{i64 1075}
!1087 = !{i64 1076}
!1088 = !{i64 1077}
!1089 = !{i64 1078}
!1090 = !{i64 1079}
!1091 = !{i64 1080}
!1092 = !{i64 1081}
!1093 = !{i64 1082}
!1094 = !{i64 1083}
!1095 = !{i64 1084}
!1096 = !{i64 1085}
!1097 = !{i64 1086}
!1098 = !{i64 1087}
!1099 = !{i64 1088}
!1100 = !{i64 1089}
!1101 = !{i64 1090}
!1102 = !{i64 1091}
!1103 = !{i64 1092}
!1104 = !{i64 1093}
!1105 = !{i64 1094}
!1106 = !{i64 1095}
!1107 = !{i64 1096}
!1108 = !{i64 1097}
!1109 = !{i64 1098}
!1110 = !{i64 1099}
!1111 = !{i64 1100}
!1112 = !{i64 1101}
!1113 = !{i64 1102}
!1114 = !{i64 1103}
!1115 = !{i64 1104}
!1116 = !{i64 1105}
!1117 = !{i64 1106}
!1118 = !{i64 1107}
!1119 = !{i64 1108}
!1120 = !{i64 1109}
!1121 = !{i64 1110}
!1122 = !{i64 1111}
!1123 = !{i64 1112}
!1124 = !{i64 1113}
!1125 = !{i64 1114}
!1126 = !{i64 1115}
!1127 = !{i64 1116}
!1128 = !{i64 1117}
!1129 = !{i64 1118}
!1130 = !{i64 1119}
!1131 = !{i64 1120}
!1132 = !{i64 1121}
!1133 = !{i64 1122}
!1134 = !{i64 1123}
!1135 = !{i64 1124}
!1136 = !{i64 1125}
!1137 = !{i64 1126}
!1138 = !{i64 1127}
!1139 = !{i64 1128}
!1140 = !{i64 1129}
!1141 = !{i64 1130}
!1142 = !{i64 1131}
!1143 = !{i64 1132}
!1144 = !{i64 1133}
!1145 = !{i64 1134}
!1146 = !{i64 1135}
!1147 = !{i64 1136}
!1148 = !{i64 1137}
!1149 = !{i64 1138}
!1150 = !{i64 1139}
!1151 = !{i64 1140}
!1152 = !{i64 1141}
!1153 = !{i64 1142}
!1154 = !{i64 1143}
!1155 = !{i64 1144}
!1156 = !{i64 1145}
!1157 = !{i64 1146}
!1158 = !{i64 1147}
!1159 = !{i64 1148}
!1160 = !{i64 1149}
!1161 = !{i64 1150}
!1162 = !{i64 1151}
!1163 = !{i64 1152}
!1164 = !{i64 1153}
!1165 = !{i64 1154}
!1166 = !{i64 1155}
!1167 = !{i64 1156}
!1168 = !{i64 1157}
!1169 = !{i64 1158}
!1170 = !{i64 1159}
!1171 = !{i64 1160}
!1172 = !{i64 1161}
!1173 = !{i64 1162}
!1174 = !{i64 1163}
!1175 = !{i64 1164}
!1176 = !{i64 1165}
!1177 = !{i64 1166}
!1178 = !{i64 1167}
!1179 = !{i64 1168}
!1180 = !{i64 1169}
!1181 = !{i64 1170}
!1182 = !{i64 1171}
!1183 = !{i64 1172}
!1184 = !{i64 1173}
!1185 = !{i64 1174}
!1186 = !{i64 1175}
!1187 = !{i64 1176}
!1188 = !{i64 1177}
!1189 = !{i64 1178}
!1190 = !{i64 1179}
!1191 = !{i64 1180}
!1192 = !{i64 1181}
!1193 = !{i64 1182}
!1194 = !{i64 1183}
!1195 = !{i64 1184}
!1196 = !{i64 1185}
!1197 = !{i64 1186}
!1198 = !{i64 1187}
!1199 = !{i64 1188}
!1200 = !{i64 1189}
!1201 = !{i64 1190}
!1202 = !{i64 1191}
!1203 = !{i64 1192}
!1204 = !{i64 1193}
!1205 = !{i64 1194}
!1206 = !{i64 1195}
!1207 = !{i64 1196}
!1208 = !{i64 1197}
!1209 = !{i64 1198}
!1210 = !{i64 1199}
!1211 = !{i64 1200}
!1212 = !{i64 1201}
!1213 = !{i64 1202}
!1214 = !{i64 1203}
!1215 = !{i64 1204}
!1216 = !{i64 1205}
!1217 = !{i64 1206}
!1218 = !{i64 1207}
!1219 = !{i64 1208}
!1220 = !{i64 1209}
!1221 = !{i64 1210}
!1222 = !{i64 1211}
!1223 = !{i64 1212}
!1224 = !{i64 1213}
!1225 = !{i64 1214}
!1226 = !{i64 1215}
!1227 = !{i64 1216}
!1228 = !{i64 1217}
!1229 = !{i64 1218}
!1230 = !{i64 1219}
!1231 = !{i64 1220}
!1232 = !{i64 1221}
!1233 = !{i64 1222}
!1234 = !{i64 1223}
!1235 = !{i64 1224}
!1236 = !{i64 1225}
!1237 = !{i64 1226}
!1238 = !{i64 1227}
!1239 = !{i64 1228}
!1240 = !{i64 1229}
!1241 = !{i64 1230}
!1242 = !{i64 1231}
!1243 = !{i64 1232}
!1244 = !{i64 1233}
!1245 = !{i64 1234}
!1246 = !{i64 1235}
!1247 = !{i64 1236}
!1248 = !{i64 1237}
!1249 = !{i64 1238}
!1250 = !{i64 1239}
!1251 = !{i64 1240}
!1252 = !{i64 1241}
!1253 = !{i64 1242}
!1254 = !{i64 1243}
!1255 = !{i64 1244}
!1256 = !{i64 1245}
!1257 = !{i64 1246}
!1258 = !{i64 1247}
!1259 = !{i64 1248}
!1260 = !{i64 1249}
!1261 = !{i64 1250}
!1262 = !{i64 1251}
!1263 = !{i64 1252}
!1264 = !{i64 1253}
!1265 = !{i64 1254}
!1266 = !{i64 1255}
!1267 = !{i64 1256}
!1268 = !{i64 1257}
!1269 = !{i64 1258}
!1270 = !{i64 1259}
!1271 = !{i64 1260}
!1272 = !{i64 1261}
!1273 = !{i64 1262}
!1274 = !{i64 1263}
!1275 = !{i64 1264}
!1276 = !{i64 1265}
!1277 = !{i64 1266}
!1278 = !{i64 1267}
!1279 = !{i64 1268}
!1280 = !{i64 1269}
!1281 = !{i64 1270}
!1282 = !{i64 1271}
!1283 = !{i64 1272}
!1284 = !{i64 1273}
!1285 = !{i64 1274}
!1286 = !{i64 1275}
!1287 = !{i64 1276}
!1288 = !{i64 1277}
!1289 = !{i64 1278}
!1290 = !{i64 1279}
!1291 = !{i64 1280}
!1292 = !{i64 1281}
!1293 = !{i64 1282}
!1294 = !{i64 1283}
!1295 = !{i64 1284}
!1296 = !{i64 1285}
!1297 = !{i64 1286}
!1298 = !{i64 1287}
!1299 = !{i64 1288}
!1300 = !{i64 1289}
!1301 = !{i64 1290}
!1302 = !{i64 1291}
!1303 = !{i64 1292}
!1304 = !{i64 1293}
!1305 = !{i64 1294}
!1306 = !{i64 1295}
!1307 = !{i64 1296}
!1308 = !{i64 1297}
!1309 = !{i64 1298}
!1310 = !{i64 1299}
!1311 = !{i64 1300}
!1312 = !{i64 1301}
!1313 = !{i64 1302}
!1314 = !{i64 1303}
!1315 = !{i64 1304}
!1316 = !{i64 1305}
!1317 = !{i64 1306}
!1318 = !{i64 1307}
!1319 = !{i64 1308}
!1320 = !{i64 1309}
!1321 = !{i64 1310}
!1322 = !{i64 1311}
!1323 = !{i64 1312}
!1324 = !{i64 1313}
!1325 = !{i64 1314}
!1326 = !{i64 1315}
!1327 = !{i64 1316}
!1328 = !{i64 1317}
!1329 = !{i64 1318}
!1330 = !{i64 1319}
!1331 = !{i64 1320}
!1332 = !{i64 1321}
!1333 = !{i64 1322}
!1334 = !{i64 1323}
!1335 = !{i64 1324}
!1336 = !{i64 1325}
!1337 = !{i64 1326}
!1338 = !{i64 1327}
!1339 = !{i64 1328}
!1340 = !{i64 1329}
!1341 = !{i64 1330}
!1342 = !{i64 1331}
!1343 = !{i64 1332}
!1344 = !{i64 1333}
!1345 = !{i64 1334}
!1346 = !{i64 1335}
!1347 = !{i64 1336}
!1348 = !{i64 1337}
!1349 = !{i64 1338}
!1350 = !{i64 1339}
!1351 = !{i64 1340}
!1352 = !{i64 1341}
!1353 = !{i64 1342}
!1354 = !{i64 1343}
!1355 = !{i64 1344}
!1356 = !{i64 1345}
!1357 = !{i64 1346}
!1358 = !{i64 1347}
!1359 = !{i64 1348}
!1360 = !{i64 1349}
!1361 = !{i64 1350}
!1362 = !{i64 1351}
!1363 = !{i64 1352}
!1364 = !{i64 1353}
!1365 = !{i64 1354}
!1366 = !{i64 1355}
!1367 = !{i64 1356}
!1368 = !{i64 1357}
!1369 = !{i64 1358}
!1370 = !{i64 1359}
!1371 = !{i64 1360}
!1372 = !{i64 1361}
!1373 = !{i64 1362}
!1374 = !{i64 1363}
!1375 = !{i64 1364}
!1376 = !{i64 1365}
!1377 = !{i64 1366}
!1378 = !{i64 1367}
!1379 = !{i64 1368}
!1380 = !{i64 1369}
!1381 = !{i64 1370}
!1382 = !{i64 1371}
!1383 = !{i64 1372}
!1384 = !{i64 1373}
!1385 = !{i64 1374}
!1386 = !{i64 1375}
!1387 = !{i64 1376}
!1388 = !{i64 1377}
!1389 = !{i64 1378}
!1390 = !{i64 1379}
!1391 = !{i64 1380}
!1392 = !{i64 1381}
!1393 = !{i64 1382}
!1394 = !{i64 1383}
!1395 = !{i64 1384}
!1396 = !{i64 1385}
!1397 = !{i64 1386}
!1398 = !{i64 1387}
!1399 = !{i64 1388}
!1400 = !{i64 1389}
!1401 = !{i64 1390}
!1402 = !{i64 1391}
!1403 = !{i64 1392}
!1404 = !{i64 1393}
!1405 = !{i64 1394}
!1406 = !{i64 1395}
!1407 = !{i64 1396}
!1408 = !{i64 1397}
!1409 = !{i64 1398}
!1410 = !{i64 1399}
!1411 = !{i64 1400}
!1412 = !{i64 1401}
!1413 = !{i64 1402}
!1414 = !{i64 1403}
!1415 = !{i64 1404}
!1416 = !{i64 1405}
!1417 = !{i64 1406}
!1418 = !{i64 1407}
!1419 = !{i64 1408}
!1420 = !{i64 1409}
!1421 = !{i64 1410}
!1422 = !{i64 1411}
!1423 = !{i64 1412}
!1424 = !{i64 1413}
!1425 = !{i64 1414}
!1426 = !{i64 1415}
!1427 = !{i64 1416}
!1428 = !{i64 1417}
!1429 = !{i64 1418}
!1430 = !{i64 1419}
!1431 = !{i64 1420}
!1432 = !{i64 1421}
!1433 = !{i64 1422}
!1434 = !{i64 1423}
!1435 = !{i64 1424}
!1436 = !{i64 1425}
!1437 = !{i64 1426}
!1438 = !{i64 1427}
!1439 = !{i64 1428}
!1440 = !{i64 1429}
!1441 = !{i64 1430}
!1442 = !{i64 1431}
!1443 = !{i64 1432}
!1444 = !{i64 1433}
!1445 = !{i64 1434}
!1446 = !{i64 1435}
!1447 = !{i64 1436}
!1448 = !{i64 1437}
!1449 = !{i64 1438}
!1450 = !{i64 1439}
!1451 = !{i64 1440}
!1452 = !{i64 1441}
!1453 = !{i64 1442}
!1454 = !{i64 1443}
!1455 = !{i64 1444}
!1456 = !{i64 1445}
!1457 = !{i64 1446}
!1458 = !{i64 1447}
!1459 = !{i64 1448}
!1460 = !{i64 1449}
!1461 = !{i64 1450}
!1462 = !{i64 1451}
!1463 = !{i64 1452}
!1464 = !{i64 1453}
!1465 = !{i64 1454}
!1466 = !{i64 1455}
!1467 = !{i64 1456}
!1468 = !{i64 1457}
!1469 = !{i64 1458}
!1470 = !{i64 1459}
!1471 = !{i64 1460}
