; ModuleID = '/home/hjiang/Computation-Kernel-Dataset/experiments/Fault_injection_0308_parall/O0/KekotheBrilliant/KekotheBrilliant.cpp.ll'
source_filename = "llvm-link"
target datalayout = "e-m:e-p270:32:32-p271:32:32-p272:64:64-i64:64-f80:128-n8:16:32:64-S128"
target triple = "x86_64-unknown-linux-gnu"

%"struct.std::less" = type { i8 }
%"class.std::vector" = type { %"struct.std::_Vector_base" }
%"struct.std::_Vector_base" = type { %"struct.std::_Vector_base<int, std::allocator<int>>::_Vector_impl" }
%"struct.std::_Vector_base<int, std::allocator<int>>::_Vector_impl" = type { %"struct.std::_Vector_base<int, std::allocator<int>>::_Vector_impl_data" }
%"struct.std::_Vector_base<int, std::allocator<int>>::_Vector_impl_data" = type { i32*, i32*, i32* }
%"class.std::multiset" = type { %"class.std::_Rb_tree" }
%"class.std::_Rb_tree" = type { %"struct.std::_Rb_tree<int, int, std::_Identity<int>, std::less<int>>::_Rb_tree_impl" }
%"struct.std::_Rb_tree<int, int, std::_Identity<int>, std::less<int>>::_Rb_tree_impl" = type { %"struct.std::_Rb_tree_key_compare", %"struct.std::_Rb_tree_header" }
%"struct.std::_Rb_tree_key_compare" = type { %"struct.std::less" }
%"struct.std::_Rb_tree_header" = type { %"struct.std::_Rb_tree_node_base", i64 }
%"struct.std::_Rb_tree_node_base" = type { i32, %"struct.std::_Rb_tree_node_base"*, %"struct.std::_Rb_tree_node_base"*, %"struct.std::_Rb_tree_node_base"* }
%struct._IO_FILE = type { i32, i8*, i8*, i8*, i8*, i8*, i8*, i8*, i8*, i8*, i8*, i8*, %struct._IO_marker*, %struct._IO_FILE*, i32, i32, i64, i16, i8, [1 x i8], i8*, i64, %struct._IO_codecvt*, %struct._IO_wide_data*, %struct._IO_FILE*, i8*, i64, i32, [20 x i8] }
%struct._IO_marker = type opaque
%struct._IO_codecvt = type opaque
%struct._IO_wide_data = type opaque
%"struct.std::_Rb_tree_node" = type <{ %"struct.std::_Rb_tree_node_base", %"struct.__gnu_cxx::__aligned_membuf", [4 x i8] }>
%"struct.__gnu_cxx::__aligned_membuf" = type { [4 x i8] }
%"class.__gnu_cxx::__normal_iterator" = type { i32* }
%"struct.std::_Rb_tree_const_iterator" = type { %"struct.std::_Rb_tree_node_base"* }
%"struct.std::pair" = type { %"struct.std::_Rb_tree_node_base"*, %"struct.std::_Rb_tree_node_base"* }
%"struct.std::_Rb_tree<int, int, std::_Identity<int>, std::less<int>>::_Alloc_node" = type { %"class.std::_Rb_tree"* }

$_ZNSt8multisetIiSt4lessIiESaIiEEC2Ev = comdat any

$_ZNSt8multisetIiSt4lessIiESaIiEED2Ev = comdat any

$_ZNSt8_Rb_treeIiiSt9_IdentityIiESt4lessIiESaIiEED2Ev = comdat any

$_ZNSt8_Rb_treeIiiSt9_IdentityIiESt4lessIiESaIiEE8_M_beginEv = comdat any

$_ZNSt8_Rb_treeIiiSt9_IdentityIiESt4lessIiESaIiEE8_M_eraseEPSt13_Rb_tree_nodeIiE = comdat any

$_ZNSt8_Rb_treeIiiSt9_IdentityIiESt4lessIiESaIiEE13_Rb_tree_implIS3_Lb1EED2Ev = comdat any

$__clang_call_terminate = comdat any

$_ZNSaISt13_Rb_tree_nodeIiEED2Ev = comdat any

$_ZN9__gnu_cxx13new_allocatorISt13_Rb_tree_nodeIiEED2Ev = comdat any

$_ZNSt8_Rb_treeIiiSt9_IdentityIiESt4lessIiESaIiEE8_S_rightEPSt18_Rb_tree_node_base = comdat any

$_ZNSt8_Rb_treeIiiSt9_IdentityIiESt4lessIiESaIiEE7_S_leftEPSt18_Rb_tree_node_base = comdat any

$_ZNSt8_Rb_treeIiiSt9_IdentityIiESt4lessIiESaIiEE12_M_drop_nodeEPSt13_Rb_tree_nodeIiE = comdat any

$_ZNSt8_Rb_treeIiiSt9_IdentityIiESt4lessIiESaIiEE15_M_destroy_nodeEPSt13_Rb_tree_nodeIiE = comdat any

$_ZNSt8_Rb_treeIiiSt9_IdentityIiESt4lessIiESaIiEE11_M_put_nodeEPSt13_Rb_tree_nodeIiE = comdat any

$_ZNSt8_Rb_treeIiiSt9_IdentityIiESt4lessIiESaIiEE21_M_get_Node_allocatorEv = comdat any

$_ZNSt16allocator_traitsISaISt13_Rb_tree_nodeIiEEE10deallocateERS2_PS1_m = comdat any

$_ZN9__gnu_cxx13new_allocatorISt13_Rb_tree_nodeIiEE10deallocateEPS2_m = comdat any

$_ZNSt13_Rb_tree_nodeIiE9_M_valptrEv = comdat any

$_ZNSt16allocator_traitsISaISt13_Rb_tree_nodeIiEEE7destroyIiEEvRS2_PT_ = comdat any

$_ZN9__gnu_cxx13new_allocatorISt13_Rb_tree_nodeIiEE7destroyIiEEvPT_ = comdat any

$_ZN9__gnu_cxx16__aligned_membufIiE6_M_ptrEv = comdat any

$_ZN9__gnu_cxx16__aligned_membufIiE7_M_addrEv = comdat any

$_ZNSt8_Rb_treeIiiSt9_IdentityIiESt4lessIiESaIiEEC2Ev = comdat any

$_ZNSt8_Rb_treeIiiSt9_IdentityIiESt4lessIiESaIiEE13_Rb_tree_implIS3_Lb1EEC2Ev = comdat any

$_ZNSaISt13_Rb_tree_nodeIiEEC2Ev = comdat any

$_ZNSt20_Rb_tree_key_compareISt4lessIiEEC2Ev = comdat any

$_ZNSt15_Rb_tree_headerC2Ev = comdat any

$_ZNSt15_Rb_tree_header8_M_resetEv = comdat any

$_ZN9__gnu_cxx13new_allocatorISt13_Rb_tree_nodeIiEEC2Ev = comdat any

$_ZNSt6vectorIiSaIiEEC2Ev = comdat any

$_ZNSt6vectorIiSaIiEED2Ev = comdat any

$_ZNSt12_Vector_baseIiSaIiEE19_M_get_Tp_allocatorEv = comdat any

$_ZSt8_DestroyIPiiEvT_S1_RSaIT0_E = comdat any

$_ZNSt12_Vector_baseIiSaIiEED2Ev = comdat any

$_ZNSt12_Vector_baseIiSaIiEE13_M_deallocateEPim = comdat any

$_ZNSt12_Vector_baseIiSaIiEE12_Vector_implD2Ev = comdat any

$_ZNSaIiED2Ev = comdat any

$_ZN9__gnu_cxx13new_allocatorIiED2Ev = comdat any

$_ZNSt16allocator_traitsISaIiEE10deallocateERS0_Pim = comdat any

$_ZN9__gnu_cxx13new_allocatorIiE10deallocateEPim = comdat any

$_ZSt8_DestroyIPiEvT_S1_ = comdat any

$_ZNSt12_Destroy_auxILb1EE9__destroyIPiEEvT_S3_ = comdat any

$_ZNSt12_Vector_baseIiSaIiEEC2Ev = comdat any

$_ZNSt12_Vector_baseIiSaIiEE12_Vector_implC2Ev = comdat any

$_ZNSaIiEC2Ev = comdat any

$_ZNSt12_Vector_baseIiSaIiEE17_Vector_impl_dataC2Ev = comdat any

$_ZN9__gnu_cxx13new_allocatorIiEC2Ev = comdat any

$_ZNSt6vectorIiSaIiEE5beginEv = comdat any

$_ZNSt6vectorIiSaIiEE3endEv = comdat any

$_ZN9__gnu_cxxneIPiSt6vectorIiSaIiEEEEbRKNS_17__normal_iteratorIT_T0_EESA_ = comdat any

$_ZNK9__gnu_cxx17__normal_iteratorIPiSt6vectorIiSaIiEEEdeEv = comdat any

$_ZNKSt8multisetIiSt4lessIiESaIiEE4sizeEv = comdat any

$_ZSt4swapIiSt4lessIiESaIiEEvRSt8multisetIT_T0_T1_ES8_ = comdat any

$_ZNKSt8multisetIiSt4lessIiESaIiEE5emptyEv = comdat any

$_ZNKSt8multisetIiSt4lessIiESaIiEE5beginEv = comdat any

$_ZNKSt23_Rb_tree_const_iteratorIiEdeEv = comdat any

$_ZNSt8multisetIiSt4lessIiESaIiEE6insertERKi = comdat any

$_ZNSt8multisetIiSt4lessIiESaIiEE5eraseB5cxx11ESt23_Rb_tree_const_iteratorIiE = comdat any

$_ZN9__gnu_cxx17__normal_iteratorIPiSt6vectorIiSaIiEEEppEv = comdat any

$_ZNSt8multisetIiSt4lessIiESaIiEE11lower_boundERKi = comdat any

$_ZNKSt8multisetIiSt4lessIiESaIiEE3endEv = comdat any

$_ZStneRKSt23_Rb_tree_const_iteratorIiES2_ = comdat any

$_ZNSt8multisetIiSt4lessIiESaIiEE6insertEOi = comdat any

$_ZSt4moveIRiEONSt16remove_referenceIT_E4typeEOS2_ = comdat any

$_ZNSt8_Rb_treeIiiSt9_IdentityIiESt4lessIiESaIiEE15_M_insert_equalIiEESt17_Rb_tree_iteratorIiEOT_ = comdat any

$_ZNSt23_Rb_tree_const_iteratorIiEC2ERKSt17_Rb_tree_iteratorIiE = comdat any

$_ZNKSt9_IdentityIiEclERi = comdat any

$_ZNSt8_Rb_treeIiiSt9_IdentityIiESt4lessIiESaIiEE23_M_get_insert_equal_posERKi = comdat any

$_ZNSt8_Rb_treeIiiSt9_IdentityIiESt4lessIiESaIiEE11_Alloc_nodeC2ERS5_ = comdat any

$_ZSt7forwardIiEOT_RNSt16remove_referenceIS0_E4typeE = comdat any

$_ZNSt8_Rb_treeIiiSt9_IdentityIiESt4lessIiESaIiEE10_M_insert_IiNS5_11_Alloc_nodeEEESt17_Rb_tree_iteratorIiEPSt18_Rb_tree_node_baseSB_OT_RT0_ = comdat any

$_ZNSt8_Rb_treeIiiSt9_IdentityIiESt4lessIiESaIiEE6_M_endEv = comdat any

$_ZNSt8_Rb_treeIiiSt9_IdentityIiESt4lessIiESaIiEE6_S_keyEPKSt18_Rb_tree_node_base = comdat any

$_ZNKSt4lessIiEclERKiS2_ = comdat any

$_ZNKSt8_Rb_treeIiiSt9_IdentityIiESt4lessIiESaIiEE11_Alloc_nodeclIiEEPSt13_Rb_tree_nodeIiEOT_ = comdat any

$_ZNSt17_Rb_tree_iteratorIiEC2EPSt18_Rb_tree_node_base = comdat any

$_ZNSt8_Rb_treeIiiSt9_IdentityIiESt4lessIiESaIiEE14_M_create_nodeIJiEEEPSt13_Rb_tree_nodeIiEDpOT_ = comdat any

$_ZNSt8_Rb_treeIiiSt9_IdentityIiESt4lessIiESaIiEE11_M_get_nodeEv = comdat any

$_ZNSt8_Rb_treeIiiSt9_IdentityIiESt4lessIiESaIiEE17_M_construct_nodeIJiEEEvPSt13_Rb_tree_nodeIiEDpOT_ = comdat any

$_ZNSt16allocator_traitsISaISt13_Rb_tree_nodeIiEEE9constructIiJiEEEvRS2_PT_DpOT0_ = comdat any

$_ZN9__gnu_cxx13new_allocatorISt13_Rb_tree_nodeIiEE9constructIiJiEEEvPT_DpOT0_ = comdat any

$_ZNSt16allocator_traitsISaISt13_Rb_tree_nodeIiEEE8allocateERS2_m = comdat any

$_ZN9__gnu_cxx13new_allocatorISt13_Rb_tree_nodeIiEE8allocateEmPKv = comdat any

$_ZNK9__gnu_cxx13new_allocatorISt13_Rb_tree_nodeIiEE8max_sizeEv = comdat any

$_ZNSt8_Rb_treeIiiSt9_IdentityIiESt4lessIiESaIiEE6_S_keyEPKSt13_Rb_tree_nodeIiE = comdat any

$_ZNKSt13_Rb_tree_nodeIiE9_M_valptrEv = comdat any

$_ZNKSt9_IdentityIiEclERKi = comdat any

$_ZNK9__gnu_cxx16__aligned_membufIiE6_M_ptrEv = comdat any

$_ZNK9__gnu_cxx16__aligned_membufIiE7_M_addrEv = comdat any

$_ZNSt4pairIPSt18_Rb_tree_node_baseS1_EC2IRPSt13_Rb_tree_nodeIiERS1_Lb1EEEOT_OT0_ = comdat any

$_ZSt7forwardIRPSt13_Rb_tree_nodeIiEEOT_RNSt16remove_referenceIS4_E4typeE = comdat any

$_ZSt7forwardIRPSt18_Rb_tree_node_baseEOT_RNSt16remove_referenceIS3_E4typeE = comdat any

$_ZNKSt8_Rb_treeIiiSt9_IdentityIiESt4lessIiESaIiEE3endEv = comdat any

$_ZNSt23_Rb_tree_const_iteratorIiEC2EPKSt18_Rb_tree_node_base = comdat any

$_ZNSt8_Rb_treeIiiSt9_IdentityIiESt4lessIiESaIiEE11lower_boundERKi = comdat any

$_ZNSt8_Rb_treeIiiSt9_IdentityIiESt4lessIiESaIiEE14_M_lower_boundEPSt13_Rb_tree_nodeIiEPSt18_Rb_tree_node_baseRKi = comdat any

$_ZNSt8_Rb_treeIiiSt9_IdentityIiESt4lessIiESaIiEE5eraseB5cxx11ESt23_Rb_tree_const_iteratorIiE = comdat any

$_ZNSt23_Rb_tree_const_iteratorIiEppEv = comdat any

$_ZNSt8_Rb_treeIiiSt9_IdentityIiESt4lessIiESaIiEE12_M_erase_auxESt23_Rb_tree_const_iteratorIiE = comdat any

$_ZNKSt23_Rb_tree_const_iteratorIiE13_M_const_castEv = comdat any

$_ZNSt8_Rb_treeIiiSt9_IdentityIiESt4lessIiESaIiEE15_M_insert_equalIRKiEESt17_Rb_tree_iteratorIiEOT_ = comdat any

$_ZSt7forwardIRKiEOT_RNSt16remove_referenceIS2_E4typeE = comdat any

$_ZNSt8_Rb_treeIiiSt9_IdentityIiESt4lessIiESaIiEE10_M_insert_IRKiNS5_11_Alloc_nodeEEESt17_Rb_tree_iteratorIiEPSt18_Rb_tree_node_baseSD_OT_RT0_ = comdat any

$_ZNKSt8_Rb_treeIiiSt9_IdentityIiESt4lessIiESaIiEE11_Alloc_nodeclIRKiEEPSt13_Rb_tree_nodeIiEOT_ = comdat any

$_ZNSt8_Rb_treeIiiSt9_IdentityIiESt4lessIiESaIiEE14_M_create_nodeIJRKiEEEPSt13_Rb_tree_nodeIiEDpOT_ = comdat any

$_ZNSt8_Rb_treeIiiSt9_IdentityIiESt4lessIiESaIiEE17_M_construct_nodeIJRKiEEEvPSt13_Rb_tree_nodeIiEDpOT_ = comdat any

$_ZNSt16allocator_traitsISaISt13_Rb_tree_nodeIiEEE9constructIiJRKiEEEvRS2_PT_DpOT0_ = comdat any

$_ZN9__gnu_cxx13new_allocatorISt13_Rb_tree_nodeIiEE9constructIiJRKiEEEvPT_DpOT0_ = comdat any

$_ZNKSt8_Rb_treeIiiSt9_IdentityIiESt4lessIiESaIiEE5beginEv = comdat any

$_ZNKSt8_Rb_treeIiiSt9_IdentityIiESt4lessIiESaIiEE5emptyEv = comdat any

$_ZNSt8multisetIiSt4lessIiESaIiEE4swapERS3_ = comdat any

$_ZNSt8_Rb_treeIiiSt9_IdentityIiESt4lessIiESaIiEE4swapERS5_ = comdat any

$_ZNSt8_Rb_treeIiiSt9_IdentityIiESt4lessIiESaIiEE7_M_rootEv = comdat any

$_ZNSt15_Rb_tree_header12_M_move_dataERS_ = comdat any

$_ZSt4swapIPSt18_Rb_tree_node_baseENSt9enable_ifIXsr6__and_ISt6__not_ISt15__is_tuple_likeIT_EESt21is_move_constructibleIS5_ESt18is_move_assignableIS5_EEE5valueEvE4typeERS5_SE_ = comdat any

$_ZNSt8_Rb_treeIiiSt9_IdentityIiESt4lessIiESaIiEE11_M_leftmostEv = comdat any

$_ZNSt8_Rb_treeIiiSt9_IdentityIiESt4lessIiESaIiEE12_M_rightmostEv = comdat any

$_ZSt4swapImENSt9enable_ifIXsr6__and_ISt6__not_ISt15__is_tuple_likeIT_EESt21is_move_constructibleIS3_ESt18is_move_assignableIS3_EEE5valueEvE4typeERS3_SC_ = comdat any

$_ZSt4swapISt4lessIiEENSt9enable_ifIXsr6__and_ISt6__not_ISt15__is_tuple_likeIT_EESt21is_move_constructibleIS5_ESt18is_move_assignableIS5_EEE5valueEvE4typeERS5_SE_ = comdat any

$_ZN9__gnu_cxx14__alloc_traitsISaISt13_Rb_tree_nodeIiEES2_E10_S_on_swapERS3_S5_ = comdat any

$_ZSt15__alloc_on_swapISaISt13_Rb_tree_nodeIiEEEvRT_S4_ = comdat any

$_ZSt18__do_alloc_on_swapISaISt13_Rb_tree_nodeIiEEEvRT_S4_St17integral_constantIbLb0EE = comdat any

$_ZSt4moveIRSt4lessIiEEONSt16remove_referenceIT_E4typeEOS4_ = comdat any

$_ZSt4moveIRmEONSt16remove_referenceIT_E4typeEOS2_ = comdat any

$_ZSt4moveIRPSt18_Rb_tree_node_baseEONSt16remove_referenceIT_E4typeEOS4_ = comdat any

$_ZNKSt8_Rb_treeIiiSt9_IdentityIiESt4lessIiESaIiEE4sizeEv = comdat any

$_ZNK9__gnu_cxx17__normal_iteratorIPiSt6vectorIiSaIiEEE4baseEv = comdat any

$_ZN9__gnu_cxx17__normal_iteratorIPiSt6vectorIiSaIiEEEC2ERKS1_ = comdat any

$_ZNSt6vectorIiSaIiEE9push_backERKi = comdat any

$_ZNSt16allocator_traitsISaIiEE9constructIiJRKiEEEvRS0_PT_DpOT0_ = comdat any

$_ZNSt6vectorIiSaIiEE17_M_realloc_insertIJRKiEEEvN9__gnu_cxx17__normal_iteratorIPiS1_EEDpOT_ = comdat any

$_ZNKSt6vectorIiSaIiEE12_M_check_lenEmPKc = comdat any

$_ZN9__gnu_cxxmiIPiSt6vectorIiSaIiEEEENS_17__normal_iteratorIT_T0_E15difference_typeERKS8_SB_ = comdat any

$_ZNSt12_Vector_baseIiSaIiEE11_M_allocateEm = comdat any

$_ZNSt6vectorIiSaIiEE11_S_relocateEPiS2_S2_RS0_ = comdat any

$_ZNSt6vectorIiSaIiEE14_S_do_relocateEPiS2_S2_RS0_St17integral_constantIbLb1EE = comdat any

$_ZSt12__relocate_aIPiS0_SaIiEET0_T_S3_S2_RT1_ = comdat any

$_ZSt12__niter_baseIPiET_S1_ = comdat any

$_ZSt14__relocate_a_1IiiENSt9enable_ifIXsr3std24__is_bitwise_relocatableIT_EE5valueEPS1_E4typeES2_S2_S2_RSaIT0_E = comdat any

$_ZNSt16allocator_traitsISaIiEE8allocateERS0_m = comdat any

$_ZN9__gnu_cxx13new_allocatorIiE8allocateEmPKv = comdat any

$_ZNK9__gnu_cxx13new_allocatorIiE8max_sizeEv = comdat any

$_ZNKSt6vectorIiSaIiEE8max_sizeEv = comdat any

$_ZNKSt6vectorIiSaIiEE4sizeEv = comdat any

$_ZSt3maxImERKT_S2_S2_ = comdat any

$_ZNKSt12_Vector_baseIiSaIiEE19_M_get_Tp_allocatorEv = comdat any

$_ZNSt6vectorIiSaIiEE11_S_max_sizeERKS0_ = comdat any

$_ZNSt16allocator_traitsISaIiEE8max_sizeERKS0_ = comdat any

$_ZSt3minImERKT_S2_S2_ = comdat any

$_ZN9__gnu_cxx13new_allocatorIiE9constructIiJRKiEEEvPT_DpOT0_ = comdat any

@llvm.global_ctors = appending global [1 x { i32, void ()*, i8* }] [{ i32, void ()*, i8* } { i32 65535, void ()* @_GLOBAL__sub_I_KekotheBrilliant.cpp, i8* null }]
@_ZStL8__ioinit = internal global %"struct.std::less" zeroinitializer, align 1
@a = dso_local global [223456 x i32] zeroinitializer, align 16
@g = dso_local global [223456 x %"class.std::vector"] zeroinitializer, align 16
@s = dso_local global [223456 x %"class.std::multiset"] zeroinitializer, align 16
@.str = private unnamed_addr constant [32 x i8] c"../input_files/KekotheBrilliant\00", align 1
@.str.4 = private unnamed_addr constant [2 x i8] c"r\00", align 1
@stdin = external dso_local global %struct._IO_FILE*, align 8
@.str.5 = private unnamed_addr constant [3 x i8] c"%d\00", align 1
@.str.6 = private unnamed_addr constant [6 x i8] c"%d %d\00", align 1
@.str.7 = private unnamed_addr constant [4 x i8] c"%d\0A\00", align 1
@.str.8 = private unnamed_addr constant [26 x i8] c"vector::_M_realloc_insert\00", align 1

; Function Attrs: noinline uwtable
define internal void @_GLOBAL__sub_I_KekotheBrilliant.cpp() #0 section ".text.startup" {
  call void @__cxx_global_var_init(), !llfi_index !4
  call void @__cxx_global_var_init.1(), !llfi_index !5
  call void @__cxx_global_var_init.2(), !llfi_index !6
  ret void, !llfi_index !7
}

; Function Attrs: noinline uwtable
define internal void @__cxx_global_var_init() #0 section ".text.startup" {
  call void @_ZNSt8ios_base4InitC1Ev(%"struct.std::less"* nonnull align 1 dereferenceable(1) @_ZStL8__ioinit), !llfi_index !8
  %1 = call i32 @atexit(void ()* @__dtor__ZStL8__ioinit) #2, !llfi_index !9
  ret void, !llfi_index !10
}

; Function Attrs: noinline uwtable
define internal void @__cxx_global_var_init.1() #0 section ".text.startup" {
  br label %1, !llfi_index !11

1:                                                ; preds = %1, %0
  %2 = phi %"class.std::vector"* [ getelementptr inbounds ([223456 x %"class.std::vector"], [223456 x %"class.std::vector"]* @g, i32 0, i32 0), %0 ], [ %3, %1 ], !llfi_index !12
  call void @_ZNSt6vectorIiSaIiEEC2Ev(%"class.std::vector"* nonnull align 8 dereferenceable(24) %2) #2, !llfi_index !13
  %3 = getelementptr inbounds %"class.std::vector", %"class.std::vector"* %2, i64 1, !llfi_index !14
  %4 = icmp eq %"class.std::vector"* %3, getelementptr inbounds (%"class.std::vector", %"class.std::vector"* getelementptr inbounds ([223456 x %"class.std::vector"], [223456 x %"class.std::vector"]* @g, i32 0, i32 0), i64 223456), !llfi_index !15
  br i1 %4, label %5, label %1, !llfi_index !16

5:                                                ; preds = %1
  %6 = call i32 @atexit(void ()* @__dtor_g) #2, !llfi_index !17
  ret void, !llfi_index !18
}

; Function Attrs: noinline uwtable
define internal void @__cxx_global_var_init.2() #0 section ".text.startup" {
  br label %1, !llfi_index !19

1:                                                ; preds = %1, %0
  %2 = phi %"class.std::multiset"* [ getelementptr inbounds ([223456 x %"class.std::multiset"], [223456 x %"class.std::multiset"]* @s, i32 0, i32 0), %0 ], [ %3, %1 ], !llfi_index !20
  call void @_ZNSt8multisetIiSt4lessIiESaIiEEC2Ev(%"class.std::multiset"* nonnull align 8 dereferenceable(48) %2) #2, !llfi_index !21
  %3 = getelementptr inbounds %"class.std::multiset", %"class.std::multiset"* %2, i64 1, !llfi_index !22
  %4 = icmp eq %"class.std::multiset"* %3, getelementptr inbounds (%"class.std::multiset", %"class.std::multiset"* getelementptr inbounds ([223456 x %"class.std::multiset"], [223456 x %"class.std::multiset"]* @s, i32 0, i32 0), i64 223456), !llfi_index !23
  br i1 %4, label %5, label %1, !llfi_index !24

5:                                                ; preds = %1
  %6 = call i32 @atexit(void ()* @__dtor_s) #2, !llfi_index !25
  ret void, !llfi_index !26
}

; Function Attrs: noinline nounwind uwtable
define linkonce_odr dso_local void @_ZNSt8multisetIiSt4lessIiESaIiEEC2Ev(%"class.std::multiset"* nonnull align 8 dereferenceable(48) %0) unnamed_addr #1 comdat align 2 {
  %2 = alloca %"class.std::multiset"*, align 8, !llfi_index !27
  store %"class.std::multiset"* %0, %"class.std::multiset"** %2, align 8, !llfi_index !28
  %3 = load %"class.std::multiset"*, %"class.std::multiset"** %2, align 8, !llfi_index !29
  %4 = getelementptr inbounds %"class.std::multiset", %"class.std::multiset"* %3, i32 0, i32 0, !llfi_index !30
  call void @_ZNSt8_Rb_treeIiiSt9_IdentityIiESt4lessIiESaIiEEC2Ev(%"class.std::_Rb_tree"* nonnull align 8 dereferenceable(48) %4) #2, !llfi_index !31
  ret void, !llfi_index !32
}

; Function Attrs: noinline uwtable
define internal void @__dtor_s() #0 section ".text.startup" {
  call void @__cxx_global_array_dtor.3(i8* null), !llfi_index !33
  ret void, !llfi_index !34
}

; Function Attrs: nounwind
declare dso_local i32 @atexit(void ()*) #2

; Function Attrs: noinline uwtable
define internal void @__cxx_global_array_dtor.3(i8* %0) #0 section ".text.startup" {
  %2 = alloca i8*, align 8, !llfi_index !35
  store i8* %0, i8** %2, align 8, !llfi_index !36
  br label %3, !llfi_index !37

3:                                                ; preds = %3, %1
  %4 = phi %"class.std::multiset"* [ getelementptr inbounds (%"class.std::multiset", %"class.std::multiset"* getelementptr inbounds ([223456 x %"class.std::multiset"], [223456 x %"class.std::multiset"]* @s, i32 0, i32 0), i64 223456), %1 ], [ %5, %3 ], !llfi_index !38
  %5 = getelementptr inbounds %"class.std::multiset", %"class.std::multiset"* %4, i64 -1, !llfi_index !39
  call void @_ZNSt8multisetIiSt4lessIiESaIiEED2Ev(%"class.std::multiset"* nonnull align 8 dereferenceable(48) %5) #2, !llfi_index !40
  %6 = icmp eq %"class.std::multiset"* %5, getelementptr inbounds ([223456 x %"class.std::multiset"], [223456 x %"class.std::multiset"]* @s, i32 0, i32 0), !llfi_index !41
  br i1 %6, label %7, label %3, !llfi_index !42

7:                                                ; preds = %3
  ret void, !llfi_index !43
}

; Function Attrs: noinline nounwind uwtable
define linkonce_odr dso_local void @_ZNSt8multisetIiSt4lessIiESaIiEED2Ev(%"class.std::multiset"* nonnull align 8 dereferenceable(48) %0) unnamed_addr #1 comdat align 2 {
  %2 = alloca %"class.std::multiset"*, align 8, !llfi_index !44
  store %"class.std::multiset"* %0, %"class.std::multiset"** %2, align 8, !llfi_index !45
  %3 = load %"class.std::multiset"*, %"class.std::multiset"** %2, align 8, !llfi_index !46
  %4 = getelementptr inbounds %"class.std::multiset", %"class.std::multiset"* %3, i32 0, i32 0, !llfi_index !47
  call void @_ZNSt8_Rb_treeIiiSt9_IdentityIiESt4lessIiESaIiEED2Ev(%"class.std::_Rb_tree"* nonnull align 8 dereferenceable(48) %4) #2, !llfi_index !48
  ret void, !llfi_index !49
}

; Function Attrs: noinline nounwind uwtable
define linkonce_odr dso_local void @_ZNSt8_Rb_treeIiiSt9_IdentityIiESt4lessIiESaIiEED2Ev(%"class.std::_Rb_tree"* nonnull align 8 dereferenceable(48) %0) unnamed_addr #1 comdat align 2 personality i8* bitcast (i32 (...)* @__gxx_personality_v0 to i8*) {
  %2 = alloca %"class.std::_Rb_tree"*, align 8, !llfi_index !50
  %3 = alloca i8*, align 8, !llfi_index !51
  %4 = alloca i32, align 4, !llfi_index !52
  store %"class.std::_Rb_tree"* %0, %"class.std::_Rb_tree"** %2, align 8, !llfi_index !53
  %5 = load %"class.std::_Rb_tree"*, %"class.std::_Rb_tree"** %2, align 8, !llfi_index !54
  %6 = call %"struct.std::_Rb_tree_node"* @_ZNSt8_Rb_treeIiiSt9_IdentityIiESt4lessIiESaIiEE8_M_beginEv(%"class.std::_Rb_tree"* nonnull align 8 dereferenceable(48) %5) #2, !llfi_index !55
  invoke void @_ZNSt8_Rb_treeIiiSt9_IdentityIiESt4lessIiESaIiEE8_M_eraseEPSt13_Rb_tree_nodeIiE(%"class.std::_Rb_tree"* nonnull align 8 dereferenceable(48) %5, %"struct.std::_Rb_tree_node"* %6)
          to label %7 unwind label %9, !llfi_index !56

7:                                                ; preds = %1
  %8 = getelementptr inbounds %"class.std::_Rb_tree", %"class.std::_Rb_tree"* %5, i32 0, i32 0, !llfi_index !57
  call void @_ZNSt8_Rb_treeIiiSt9_IdentityIiESt4lessIiESaIiEE13_Rb_tree_implIS3_Lb1EED2Ev(%"struct.std::_Rb_tree<int, int, std::_Identity<int>, std::less<int>>::_Rb_tree_impl"* nonnull align 8 dereferenceable(48) %8) #2, !llfi_index !58
  ret void, !llfi_index !59

9:                                                ; preds = %1
  %10 = landingpad { i8*, i32 }
          catch i8* null, !llfi_index !60
  %11 = extractvalue { i8*, i32 } %10, 0, !llfi_index !61
  store i8* %11, i8** %3, align 8, !llfi_index !62
  %12 = extractvalue { i8*, i32 } %10, 1, !llfi_index !63
  store i32 %12, i32* %4, align 4, !llfi_index !64
  %13 = getelementptr inbounds %"class.std::_Rb_tree", %"class.std::_Rb_tree"* %5, i32 0, i32 0, !llfi_index !65
  call void @_ZNSt8_Rb_treeIiiSt9_IdentityIiESt4lessIiESaIiEE13_Rb_tree_implIS3_Lb1EED2Ev(%"struct.std::_Rb_tree<int, int, std::_Identity<int>, std::less<int>>::_Rb_tree_impl"* nonnull align 8 dereferenceable(48) %13) #2, !llfi_index !66
  br label %14, !llfi_index !67

14:                                               ; preds = %9
  %15 = load i8*, i8** %3, align 8, !llfi_index !68
  call void @__clang_call_terminate(i8* %15) #14, !llfi_index !69
  unreachable, !llfi_index !70
}

declare dso_local i32 @__gxx_personality_v0(...)

; Function Attrs: mustprogress noinline nounwind uwtable
define linkonce_odr dso_local %"struct.std::_Rb_tree_node"* @_ZNSt8_Rb_treeIiiSt9_IdentityIiESt4lessIiESaIiEE8_M_beginEv(%"class.std::_Rb_tree"* nonnull align 8 dereferenceable(48) %0) #3 comdat align 2 {
  %2 = alloca %"class.std::_Rb_tree"*, align 8, !llfi_index !71
  store %"class.std::_Rb_tree"* %0, %"class.std::_Rb_tree"** %2, align 8, !llfi_index !72
  %3 = load %"class.std::_Rb_tree"*, %"class.std::_Rb_tree"** %2, align 8, !llfi_index !73
  %4 = getelementptr inbounds %"class.std::_Rb_tree", %"class.std::_Rb_tree"* %3, i32 0, i32 0, !llfi_index !74
  %5 = bitcast %"struct.std::_Rb_tree<int, int, std::_Identity<int>, std::less<int>>::_Rb_tree_impl"* %4 to i8*, !llfi_index !75
  %6 = getelementptr inbounds i8, i8* %5, i64 8, !llfi_index !76
  %7 = bitcast i8* %6 to %"struct.std::_Rb_tree_header"*, !llfi_index !77
  %8 = getelementptr inbounds %"struct.std::_Rb_tree_header", %"struct.std::_Rb_tree_header"* %7, i32 0, i32 0, !llfi_index !78
  %9 = getelementptr inbounds %"struct.std::_Rb_tree_node_base", %"struct.std::_Rb_tree_node_base"* %8, i32 0, i32 1, !llfi_index !79
  %10 = load %"struct.std::_Rb_tree_node_base"*, %"struct.std::_Rb_tree_node_base"** %9, align 8, !llfi_index !80
  %11 = bitcast %"struct.std::_Rb_tree_node_base"* %10 to %"struct.std::_Rb_tree_node"*, !llfi_index !81
  ret %"struct.std::_Rb_tree_node"* %11, !llfi_index !82
}

; Function Attrs: mustprogress noinline uwtable
define linkonce_odr dso_local void @_ZNSt8_Rb_treeIiiSt9_IdentityIiESt4lessIiESaIiEE8_M_eraseEPSt13_Rb_tree_nodeIiE(%"class.std::_Rb_tree"* nonnull align 8 dereferenceable(48) %0, %"struct.std::_Rb_tree_node"* %1) #4 comdat align 2 {
  %3 = alloca %"class.std::_Rb_tree"*, align 8, !llfi_index !83
  %4 = alloca %"struct.std::_Rb_tree_node"*, align 8, !llfi_index !84
  %5 = alloca %"struct.std::_Rb_tree_node"*, align 8, !llfi_index !85
  store %"class.std::_Rb_tree"* %0, %"class.std::_Rb_tree"** %3, align 8, !llfi_index !86
  store %"struct.std::_Rb_tree_node"* %1, %"struct.std::_Rb_tree_node"** %4, align 8, !llfi_index !87
  %6 = load %"class.std::_Rb_tree"*, %"class.std::_Rb_tree"** %3, align 8, !llfi_index !88
  br label %7, !llfi_index !89

7:                                                ; preds = %10, %2
  %8 = load %"struct.std::_Rb_tree_node"*, %"struct.std::_Rb_tree_node"** %4, align 8, !llfi_index !90
  %9 = icmp ne %"struct.std::_Rb_tree_node"* %8, null, !llfi_index !91
  br i1 %9, label %10, label %19, !llfi_index !92

10:                                               ; preds = %7
  %11 = load %"struct.std::_Rb_tree_node"*, %"struct.std::_Rb_tree_node"** %4, align 8, !llfi_index !93
  %12 = bitcast %"struct.std::_Rb_tree_node"* %11 to %"struct.std::_Rb_tree_node_base"*, !llfi_index !94
  %13 = call %"struct.std::_Rb_tree_node"* @_ZNSt8_Rb_treeIiiSt9_IdentityIiESt4lessIiESaIiEE8_S_rightEPSt18_Rb_tree_node_base(%"struct.std::_Rb_tree_node_base"* %12) #2, !llfi_index !95
  call void @_ZNSt8_Rb_treeIiiSt9_IdentityIiESt4lessIiESaIiEE8_M_eraseEPSt13_Rb_tree_nodeIiE(%"class.std::_Rb_tree"* nonnull align 8 dereferenceable(48) %6, %"struct.std::_Rb_tree_node"* %13), !llfi_index !96
  %14 = load %"struct.std::_Rb_tree_node"*, %"struct.std::_Rb_tree_node"** %4, align 8, !llfi_index !97
  %15 = bitcast %"struct.std::_Rb_tree_node"* %14 to %"struct.std::_Rb_tree_node_base"*, !llfi_index !98
  %16 = call %"struct.std::_Rb_tree_node"* @_ZNSt8_Rb_treeIiiSt9_IdentityIiESt4lessIiESaIiEE7_S_leftEPSt18_Rb_tree_node_base(%"struct.std::_Rb_tree_node_base"* %15) #2, !llfi_index !99
  store %"struct.std::_Rb_tree_node"* %16, %"struct.std::_Rb_tree_node"** %5, align 8, !llfi_index !100
  %17 = load %"struct.std::_Rb_tree_node"*, %"struct.std::_Rb_tree_node"** %4, align 8, !llfi_index !101
  call void @_ZNSt8_Rb_treeIiiSt9_IdentityIiESt4lessIiESaIiEE12_M_drop_nodeEPSt13_Rb_tree_nodeIiE(%"class.std::_Rb_tree"* nonnull align 8 dereferenceable(48) %6, %"struct.std::_Rb_tree_node"* %17) #2, !llfi_index !102
  %18 = load %"struct.std::_Rb_tree_node"*, %"struct.std::_Rb_tree_node"** %5, align 8, !llfi_index !103
  store %"struct.std::_Rb_tree_node"* %18, %"struct.std::_Rb_tree_node"** %4, align 8, !llfi_index !104
  br label %7, !llvm.loop !105, !llfi_index !107

19:                                               ; preds = %7
  ret void, !llfi_index !108
}

; Function Attrs: noinline nounwind uwtable
define linkonce_odr dso_local void @_ZNSt8_Rb_treeIiiSt9_IdentityIiESt4lessIiESaIiEE13_Rb_tree_implIS3_Lb1EED2Ev(%"struct.std::_Rb_tree<int, int, std::_Identity<int>, std::less<int>>::_Rb_tree_impl"* nonnull align 8 dereferenceable(48) %0) unnamed_addr #1 comdat align 2 {
  %2 = alloca %"struct.std::_Rb_tree<int, int, std::_Identity<int>, std::less<int>>::_Rb_tree_impl"*, align 8, !llfi_index !109
  store %"struct.std::_Rb_tree<int, int, std::_Identity<int>, std::less<int>>::_Rb_tree_impl"* %0, %"struct.std::_Rb_tree<int, int, std::_Identity<int>, std::less<int>>::_Rb_tree_impl"** %2, align 8, !llfi_index !110
  %3 = load %"struct.std::_Rb_tree<int, int, std::_Identity<int>, std::less<int>>::_Rb_tree_impl"*, %"struct.std::_Rb_tree<int, int, std::_Identity<int>, std::less<int>>::_Rb_tree_impl"** %2, align 8, !llfi_index !111
  %4 = bitcast %"struct.std::_Rb_tree<int, int, std::_Identity<int>, std::less<int>>::_Rb_tree_impl"* %3 to %"struct.std::less"*, !llfi_index !112
  call void @_ZNSaISt13_Rb_tree_nodeIiEED2Ev(%"struct.std::less"* nonnull align 1 dereferenceable(1) %4) #2, !llfi_index !113
  ret void, !llfi_index !114
}

; Function Attrs: noinline noreturn nounwind
define linkonce_odr hidden void @__clang_call_terminate(i8* %0) #5 comdat {
  %2 = call i8* @__cxa_begin_catch(i8* %0) #2, !llfi_index !115
  call void @_ZSt9terminatev() #14, !llfi_index !116
  unreachable, !llfi_index !117
}

declare dso_local i8* @__cxa_begin_catch(i8*)

declare dso_local void @_ZSt9terminatev()

; Function Attrs: noinline nounwind uwtable
define linkonce_odr dso_local void @_ZNSaISt13_Rb_tree_nodeIiEED2Ev(%"struct.std::less"* nonnull align 1 dereferenceable(1) %0) unnamed_addr #1 comdat align 2 {
  %2 = alloca %"struct.std::less"*, align 8, !llfi_index !118
  store %"struct.std::less"* %0, %"struct.std::less"** %2, align 8, !llfi_index !119
  %3 = load %"struct.std::less"*, %"struct.std::less"** %2, align 8, !llfi_index !120
  %4 = bitcast %"struct.std::less"* %3 to %"struct.std::less"*, !llfi_index !121
  call void @_ZN9__gnu_cxx13new_allocatorISt13_Rb_tree_nodeIiEED2Ev(%"struct.std::less"* nonnull align 1 dereferenceable(1) %4) #2, !llfi_index !122
  ret void, !llfi_index !123
}

; Function Attrs: noinline nounwind uwtable
define linkonce_odr dso_local void @_ZN9__gnu_cxx13new_allocatorISt13_Rb_tree_nodeIiEED2Ev(%"struct.std::less"* nonnull align 1 dereferenceable(1) %0) unnamed_addr #1 comdat align 2 {
  %2 = alloca %"struct.std::less"*, align 8, !llfi_index !124
  store %"struct.std::less"* %0, %"struct.std::less"** %2, align 8, !llfi_index !125
  %3 = load %"struct.std::less"*, %"struct.std::less"** %2, align 8, !llfi_index !126
  ret void, !llfi_index !127
}

; Function Attrs: mustprogress noinline nounwind uwtable
define linkonce_odr dso_local %"struct.std::_Rb_tree_node"* @_ZNSt8_Rb_treeIiiSt9_IdentityIiESt4lessIiESaIiEE8_S_rightEPSt18_Rb_tree_node_base(%"struct.std::_Rb_tree_node_base"* %0) #3 comdat align 2 {
  %2 = alloca %"struct.std::_Rb_tree_node_base"*, align 8, !llfi_index !128
  store %"struct.std::_Rb_tree_node_base"* %0, %"struct.std::_Rb_tree_node_base"** %2, align 8, !llfi_index !129
  %3 = load %"struct.std::_Rb_tree_node_base"*, %"struct.std::_Rb_tree_node_base"** %2, align 8, !llfi_index !130
  %4 = getelementptr inbounds %"struct.std::_Rb_tree_node_base", %"struct.std::_Rb_tree_node_base"* %3, i32 0, i32 3, !llfi_index !131
  %5 = load %"struct.std::_Rb_tree_node_base"*, %"struct.std::_Rb_tree_node_base"** %4, align 8, !llfi_index !132
  %6 = bitcast %"struct.std::_Rb_tree_node_base"* %5 to %"struct.std::_Rb_tree_node"*, !llfi_index !133
  ret %"struct.std::_Rb_tree_node"* %6, !llfi_index !134
}

; Function Attrs: mustprogress noinline nounwind uwtable
define linkonce_odr dso_local %"struct.std::_Rb_tree_node"* @_ZNSt8_Rb_treeIiiSt9_IdentityIiESt4lessIiESaIiEE7_S_leftEPSt18_Rb_tree_node_base(%"struct.std::_Rb_tree_node_base"* %0) #3 comdat align 2 {
  %2 = alloca %"struct.std::_Rb_tree_node_base"*, align 8, !llfi_index !135
  store %"struct.std::_Rb_tree_node_base"* %0, %"struct.std::_Rb_tree_node_base"** %2, align 8, !llfi_index !136
  %3 = load %"struct.std::_Rb_tree_node_base"*, %"struct.std::_Rb_tree_node_base"** %2, align 8, !llfi_index !137
  %4 = getelementptr inbounds %"struct.std::_Rb_tree_node_base", %"struct.std::_Rb_tree_node_base"* %3, i32 0, i32 2, !llfi_index !138
  %5 = load %"struct.std::_Rb_tree_node_base"*, %"struct.std::_Rb_tree_node_base"** %4, align 8, !llfi_index !139
  %6 = bitcast %"struct.std::_Rb_tree_node_base"* %5 to %"struct.std::_Rb_tree_node"*, !llfi_index !140
  ret %"struct.std::_Rb_tree_node"* %6, !llfi_index !141
}

; Function Attrs: mustprogress noinline nounwind uwtable
define linkonce_odr dso_local void @_ZNSt8_Rb_treeIiiSt9_IdentityIiESt4lessIiESaIiEE12_M_drop_nodeEPSt13_Rb_tree_nodeIiE(%"class.std::_Rb_tree"* nonnull align 8 dereferenceable(48) %0, %"struct.std::_Rb_tree_node"* %1) #3 comdat align 2 {
  %3 = alloca %"class.std::_Rb_tree"*, align 8, !llfi_index !142
  %4 = alloca %"struct.std::_Rb_tree_node"*, align 8, !llfi_index !143
  store %"class.std::_Rb_tree"* %0, %"class.std::_Rb_tree"** %3, align 8, !llfi_index !144
  store %"struct.std::_Rb_tree_node"* %1, %"struct.std::_Rb_tree_node"** %4, align 8, !llfi_index !145
  %5 = load %"class.std::_Rb_tree"*, %"class.std::_Rb_tree"** %3, align 8, !llfi_index !146
  %6 = load %"struct.std::_Rb_tree_node"*, %"struct.std::_Rb_tree_node"** %4, align 8, !llfi_index !147
  call void @_ZNSt8_Rb_treeIiiSt9_IdentityIiESt4lessIiESaIiEE15_M_destroy_nodeEPSt13_Rb_tree_nodeIiE(%"class.std::_Rb_tree"* nonnull align 8 dereferenceable(48) %5, %"struct.std::_Rb_tree_node"* %6) #2, !llfi_index !148
  %7 = load %"struct.std::_Rb_tree_node"*, %"struct.std::_Rb_tree_node"** %4, align 8, !llfi_index !149
  call void @_ZNSt8_Rb_treeIiiSt9_IdentityIiESt4lessIiESaIiEE11_M_put_nodeEPSt13_Rb_tree_nodeIiE(%"class.std::_Rb_tree"* nonnull align 8 dereferenceable(48) %5, %"struct.std::_Rb_tree_node"* %7) #2, !llfi_index !150
  ret void, !llfi_index !151
}

; Function Attrs: mustprogress noinline nounwind uwtable
define linkonce_odr dso_local void @_ZNSt8_Rb_treeIiiSt9_IdentityIiESt4lessIiESaIiEE15_M_destroy_nodeEPSt13_Rb_tree_nodeIiE(%"class.std::_Rb_tree"* nonnull align 8 dereferenceable(48) %0, %"struct.std::_Rb_tree_node"* %1) #3 comdat align 2 personality i8* bitcast (i32 (...)* @__gxx_personality_v0 to i8*) {
  %3 = alloca %"class.std::_Rb_tree"*, align 8, !llfi_index !152
  %4 = alloca %"struct.std::_Rb_tree_node"*, align 8, !llfi_index !153
  store %"class.std::_Rb_tree"* %0, %"class.std::_Rb_tree"** %3, align 8, !llfi_index !154
  store %"struct.std::_Rb_tree_node"* %1, %"struct.std::_Rb_tree_node"** %4, align 8, !llfi_index !155
  %5 = load %"class.std::_Rb_tree"*, %"class.std::_Rb_tree"** %3, align 8, !llfi_index !156
  %6 = call nonnull align 1 dereferenceable(1) %"struct.std::less"* @_ZNSt8_Rb_treeIiiSt9_IdentityIiESt4lessIiESaIiEE21_M_get_Node_allocatorEv(%"class.std::_Rb_tree"* nonnull align 8 dereferenceable(48) %5) #2, !llfi_index !157
  %7 = load %"struct.std::_Rb_tree_node"*, %"struct.std::_Rb_tree_node"** %4, align 8, !llfi_index !158
  %8 = invoke i32* @_ZNSt13_Rb_tree_nodeIiE9_M_valptrEv(%"struct.std::_Rb_tree_node"* nonnull align 8 dereferenceable(36) %7)
          to label %9 unwind label %11, !llfi_index !159

9:                                                ; preds = %2
  call void @_ZNSt16allocator_traitsISaISt13_Rb_tree_nodeIiEEE7destroyIiEEvRS2_PT_(%"struct.std::less"* nonnull align 1 dereferenceable(1) %6, i32* %8) #2, !llfi_index !160
  %10 = load %"struct.std::_Rb_tree_node"*, %"struct.std::_Rb_tree_node"** %4, align 8, !llfi_index !161
  ret void, !llfi_index !162

11:                                               ; preds = %2
  %12 = landingpad { i8*, i32 }
          catch i8* null, !llfi_index !163
  %13 = extractvalue { i8*, i32 } %12, 0, !llfi_index !164
  call void @__clang_call_terminate(i8* %13) #14, !llfi_index !165
  unreachable, !llfi_index !166
}

; Function Attrs: mustprogress noinline nounwind uwtable
define linkonce_odr dso_local void @_ZNSt8_Rb_treeIiiSt9_IdentityIiESt4lessIiESaIiEE11_M_put_nodeEPSt13_Rb_tree_nodeIiE(%"class.std::_Rb_tree"* nonnull align 8 dereferenceable(48) %0, %"struct.std::_Rb_tree_node"* %1) #3 comdat align 2 personality i8* bitcast (i32 (...)* @__gxx_personality_v0 to i8*) {
  %3 = alloca %"class.std::_Rb_tree"*, align 8, !llfi_index !167
  %4 = alloca %"struct.std::_Rb_tree_node"*, align 8, !llfi_index !168
  store %"class.std::_Rb_tree"* %0, %"class.std::_Rb_tree"** %3, align 8, !llfi_index !169
  store %"struct.std::_Rb_tree_node"* %1, %"struct.std::_Rb_tree_node"** %4, align 8, !llfi_index !170
  %5 = load %"class.std::_Rb_tree"*, %"class.std::_Rb_tree"** %3, align 8, !llfi_index !171
  %6 = call nonnull align 1 dereferenceable(1) %"struct.std::less"* @_ZNSt8_Rb_treeIiiSt9_IdentityIiESt4lessIiESaIiEE21_M_get_Node_allocatorEv(%"class.std::_Rb_tree"* nonnull align 8 dereferenceable(48) %5) #2, !llfi_index !172
  %7 = load %"struct.std::_Rb_tree_node"*, %"struct.std::_Rb_tree_node"** %4, align 8, !llfi_index !173
  invoke void @_ZNSt16allocator_traitsISaISt13_Rb_tree_nodeIiEEE10deallocateERS2_PS1_m(%"struct.std::less"* nonnull align 1 dereferenceable(1) %6, %"struct.std::_Rb_tree_node"* %7, i64 1)
          to label %8 unwind label %9, !llfi_index !174

8:                                                ; preds = %2
  ret void, !llfi_index !175

9:                                                ; preds = %2
  %10 = landingpad { i8*, i32 }
          catch i8* null, !llfi_index !176
  %11 = extractvalue { i8*, i32 } %10, 0, !llfi_index !177
  call void @__clang_call_terminate(i8* %11) #14, !llfi_index !178
  unreachable, !llfi_index !179
}

; Function Attrs: mustprogress noinline nounwind uwtable
define linkonce_odr dso_local nonnull align 1 dereferenceable(1) %"struct.std::less"* @_ZNSt8_Rb_treeIiiSt9_IdentityIiESt4lessIiESaIiEE21_M_get_Node_allocatorEv(%"class.std::_Rb_tree"* nonnull align 8 dereferenceable(48) %0) #3 comdat align 2 {
  %2 = alloca %"class.std::_Rb_tree"*, align 8, !llfi_index !180
  store %"class.std::_Rb_tree"* %0, %"class.std::_Rb_tree"** %2, align 8, !llfi_index !181
  %3 = load %"class.std::_Rb_tree"*, %"class.std::_Rb_tree"** %2, align 8, !llfi_index !182
  %4 = getelementptr inbounds %"class.std::_Rb_tree", %"class.std::_Rb_tree"* %3, i32 0, i32 0, !llfi_index !183
  %5 = bitcast %"struct.std::_Rb_tree<int, int, std::_Identity<int>, std::less<int>>::_Rb_tree_impl"* %4 to %"struct.std::less"*, !llfi_index !184
  ret %"struct.std::less"* %5, !llfi_index !185
}

; Function Attrs: mustprogress noinline uwtable
define linkonce_odr dso_local void @_ZNSt16allocator_traitsISaISt13_Rb_tree_nodeIiEEE10deallocateERS2_PS1_m(%"struct.std::less"* nonnull align 1 dereferenceable(1) %0, %"struct.std::_Rb_tree_node"* %1, i64 %2) #4 comdat align 2 {
  %4 = alloca %"struct.std::less"*, align 8, !llfi_index !186
  %5 = alloca %"struct.std::_Rb_tree_node"*, align 8, !llfi_index !187
  %6 = alloca i64, align 8, !llfi_index !188
  store %"struct.std::less"* %0, %"struct.std::less"** %4, align 8, !llfi_index !189
  store %"struct.std::_Rb_tree_node"* %1, %"struct.std::_Rb_tree_node"** %5, align 8, !llfi_index !190
  store i64 %2, i64* %6, align 8, !llfi_index !191
  %7 = load %"struct.std::less"*, %"struct.std::less"** %4, align 8, !llfi_index !192
  %8 = bitcast %"struct.std::less"* %7 to %"struct.std::less"*, !llfi_index !193
  %9 = load %"struct.std::_Rb_tree_node"*, %"struct.std::_Rb_tree_node"** %5, align 8, !llfi_index !194
  %10 = load i64, i64* %6, align 8, !llfi_index !195
  call void @_ZN9__gnu_cxx13new_allocatorISt13_Rb_tree_nodeIiEE10deallocateEPS2_m(%"struct.std::less"* nonnull align 1 dereferenceable(1) %8, %"struct.std::_Rb_tree_node"* %9, i64 %10), !llfi_index !196
  ret void, !llfi_index !197
}

; Function Attrs: mustprogress noinline nounwind uwtable
define linkonce_odr dso_local void @_ZN9__gnu_cxx13new_allocatorISt13_Rb_tree_nodeIiEE10deallocateEPS2_m(%"struct.std::less"* nonnull align 1 dereferenceable(1) %0, %"struct.std::_Rb_tree_node"* %1, i64 %2) #3 comdat align 2 {
  %4 = alloca %"struct.std::less"*, align 8, !llfi_index !198
  %5 = alloca %"struct.std::_Rb_tree_node"*, align 8, !llfi_index !199
  %6 = alloca i64, align 8, !llfi_index !200
  store %"struct.std::less"* %0, %"struct.std::less"** %4, align 8, !llfi_index !201
  store %"struct.std::_Rb_tree_node"* %1, %"struct.std::_Rb_tree_node"** %5, align 8, !llfi_index !202
  store i64 %2, i64* %6, align 8, !llfi_index !203
  %7 = load %"struct.std::less"*, %"struct.std::less"** %4, align 8, !llfi_index !204
  %8 = load %"struct.std::_Rb_tree_node"*, %"struct.std::_Rb_tree_node"** %5, align 8, !llfi_index !205
  %9 = bitcast %"struct.std::_Rb_tree_node"* %8 to i8*, !llfi_index !206
  call void @_ZdlPv(i8* %9) #2, !llfi_index !207
  ret void, !llfi_index !208
}

; Function Attrs: nobuiltin nounwind
declare dso_local void @_ZdlPv(i8*) #6

; Function Attrs: mustprogress noinline nounwind uwtable
define linkonce_odr dso_local i32* @_ZNSt13_Rb_tree_nodeIiE9_M_valptrEv(%"struct.std::_Rb_tree_node"* nonnull align 8 dereferenceable(36) %0) #3 comdat align 2 {
  %2 = alloca %"struct.std::_Rb_tree_node"*, align 8, !llfi_index !209
  store %"struct.std::_Rb_tree_node"* %0, %"struct.std::_Rb_tree_node"** %2, align 8, !llfi_index !210
  %3 = load %"struct.std::_Rb_tree_node"*, %"struct.std::_Rb_tree_node"** %2, align 8, !llfi_index !211
  %4 = getelementptr inbounds %"struct.std::_Rb_tree_node", %"struct.std::_Rb_tree_node"* %3, i32 0, i32 1, !llfi_index !212
  %5 = call i32* @_ZN9__gnu_cxx16__aligned_membufIiE6_M_ptrEv(%"struct.__gnu_cxx::__aligned_membuf"* nonnull align 4 dereferenceable(4) %4) #2, !llfi_index !213
  ret i32* %5, !llfi_index !214
}

; Function Attrs: mustprogress noinline nounwind uwtable
define linkonce_odr dso_local void @_ZNSt16allocator_traitsISaISt13_Rb_tree_nodeIiEEE7destroyIiEEvRS2_PT_(%"struct.std::less"* nonnull align 1 dereferenceable(1) %0, i32* %1) #3 comdat align 2 {
  %3 = alloca %"struct.std::less"*, align 8, !llfi_index !215
  %4 = alloca i32*, align 8, !llfi_index !216
  store %"struct.std::less"* %0, %"struct.std::less"** %3, align 8, !llfi_index !217
  store i32* %1, i32** %4, align 8, !llfi_index !218
  %5 = load %"struct.std::less"*, %"struct.std::less"** %3, align 8, !llfi_index !219
  %6 = bitcast %"struct.std::less"* %5 to %"struct.std::less"*, !llfi_index !220
  %7 = load i32*, i32** %4, align 8, !llfi_index !221
  call void @_ZN9__gnu_cxx13new_allocatorISt13_Rb_tree_nodeIiEE7destroyIiEEvPT_(%"struct.std::less"* nonnull align 1 dereferenceable(1) %6, i32* %7) #2, !llfi_index !222
  ret void, !llfi_index !223
}

; Function Attrs: mustprogress noinline nounwind uwtable
define linkonce_odr dso_local void @_ZN9__gnu_cxx13new_allocatorISt13_Rb_tree_nodeIiEE7destroyIiEEvPT_(%"struct.std::less"* nonnull align 1 dereferenceable(1) %0, i32* %1) #3 comdat align 2 {
  %3 = alloca %"struct.std::less"*, align 8, !llfi_index !224
  %4 = alloca i32*, align 8, !llfi_index !225
  store %"struct.std::less"* %0, %"struct.std::less"** %3, align 8, !llfi_index !226
  store i32* %1, i32** %4, align 8, !llfi_index !227
  %5 = load %"struct.std::less"*, %"struct.std::less"** %3, align 8, !llfi_index !228
  %6 = load i32*, i32** %4, align 8, !llfi_index !229
  ret void, !llfi_index !230
}

; Function Attrs: mustprogress noinline nounwind uwtable
define linkonce_odr dso_local i32* @_ZN9__gnu_cxx16__aligned_membufIiE6_M_ptrEv(%"struct.__gnu_cxx::__aligned_membuf"* nonnull align 4 dereferenceable(4) %0) #3 comdat align 2 {
  %2 = alloca %"struct.__gnu_cxx::__aligned_membuf"*, align 8, !llfi_index !231
  store %"struct.__gnu_cxx::__aligned_membuf"* %0, %"struct.__gnu_cxx::__aligned_membuf"** %2, align 8, !llfi_index !232
  %3 = load %"struct.__gnu_cxx::__aligned_membuf"*, %"struct.__gnu_cxx::__aligned_membuf"** %2, align 8, !llfi_index !233
  %4 = call i8* @_ZN9__gnu_cxx16__aligned_membufIiE7_M_addrEv(%"struct.__gnu_cxx::__aligned_membuf"* nonnull align 4 dereferenceable(4) %3) #2, !llfi_index !234
  %5 = bitcast i8* %4 to i32*, !llfi_index !235
  ret i32* %5, !llfi_index !236
}

; Function Attrs: mustprogress noinline nounwind uwtable
define linkonce_odr dso_local i8* @_ZN9__gnu_cxx16__aligned_membufIiE7_M_addrEv(%"struct.__gnu_cxx::__aligned_membuf"* nonnull align 4 dereferenceable(4) %0) #3 comdat align 2 {
  %2 = alloca %"struct.__gnu_cxx::__aligned_membuf"*, align 8, !llfi_index !237
  store %"struct.__gnu_cxx::__aligned_membuf"* %0, %"struct.__gnu_cxx::__aligned_membuf"** %2, align 8, !llfi_index !238
  %3 = load %"struct.__gnu_cxx::__aligned_membuf"*, %"struct.__gnu_cxx::__aligned_membuf"** %2, align 8, !llfi_index !239
  %4 = getelementptr inbounds %"struct.__gnu_cxx::__aligned_membuf", %"struct.__gnu_cxx::__aligned_membuf"* %3, i32 0, i32 0, !llfi_index !240
  %5 = bitcast [4 x i8]* %4 to i8*, !llfi_index !241
  ret i8* %5, !llfi_index !242
}

; Function Attrs: noinline nounwind uwtable
define linkonce_odr dso_local void @_ZNSt8_Rb_treeIiiSt9_IdentityIiESt4lessIiESaIiEEC2Ev(%"class.std::_Rb_tree"* nonnull align 8 dereferenceable(48) %0) unnamed_addr #1 comdat align 2 {
  %2 = alloca %"class.std::_Rb_tree"*, align 8, !llfi_index !243
  store %"class.std::_Rb_tree"* %0, %"class.std::_Rb_tree"** %2, align 8, !llfi_index !244
  %3 = load %"class.std::_Rb_tree"*, %"class.std::_Rb_tree"** %2, align 8, !llfi_index !245
  %4 = getelementptr inbounds %"class.std::_Rb_tree", %"class.std::_Rb_tree"* %3, i32 0, i32 0, !llfi_index !246
  call void @_ZNSt8_Rb_treeIiiSt9_IdentityIiESt4lessIiESaIiEE13_Rb_tree_implIS3_Lb1EEC2Ev(%"struct.std::_Rb_tree<int, int, std::_Identity<int>, std::less<int>>::_Rb_tree_impl"* nonnull align 8 dereferenceable(48) %4) #2, !llfi_index !247
  ret void, !llfi_index !248
}

; Function Attrs: noinline nounwind uwtable
define linkonce_odr dso_local void @_ZNSt8_Rb_treeIiiSt9_IdentityIiESt4lessIiESaIiEE13_Rb_tree_implIS3_Lb1EEC2Ev(%"struct.std::_Rb_tree<int, int, std::_Identity<int>, std::less<int>>::_Rb_tree_impl"* nonnull align 8 dereferenceable(48) %0) unnamed_addr #1 comdat align 2 {
  %2 = alloca %"struct.std::_Rb_tree<int, int, std::_Identity<int>, std::less<int>>::_Rb_tree_impl"*, align 8, !llfi_index !249
  store %"struct.std::_Rb_tree<int, int, std::_Identity<int>, std::less<int>>::_Rb_tree_impl"* %0, %"struct.std::_Rb_tree<int, int, std::_Identity<int>, std::less<int>>::_Rb_tree_impl"** %2, align 8, !llfi_index !250
  %3 = load %"struct.std::_Rb_tree<int, int, std::_Identity<int>, std::less<int>>::_Rb_tree_impl"*, %"struct.std::_Rb_tree<int, int, std::_Identity<int>, std::less<int>>::_Rb_tree_impl"** %2, align 8, !llfi_index !251
  %4 = bitcast %"struct.std::_Rb_tree<int, int, std::_Identity<int>, std::less<int>>::_Rb_tree_impl"* %3 to %"struct.std::less"*, !llfi_index !252
  call void @_ZNSaISt13_Rb_tree_nodeIiEEC2Ev(%"struct.std::less"* nonnull align 1 dereferenceable(1) %4) #2, !llfi_index !253
  %5 = bitcast %"struct.std::_Rb_tree<int, int, std::_Identity<int>, std::less<int>>::_Rb_tree_impl"* %3 to %"struct.std::_Rb_tree_key_compare"*, !llfi_index !254
  call void @_ZNSt20_Rb_tree_key_compareISt4lessIiEEC2Ev(%"struct.std::_Rb_tree_key_compare"* nonnull align 1 dereferenceable(1) %5) #2, !llfi_index !255
  %6 = bitcast %"struct.std::_Rb_tree<int, int, std::_Identity<int>, std::less<int>>::_Rb_tree_impl"* %3 to i8*, !llfi_index !256
  %7 = getelementptr inbounds i8, i8* %6, i64 8, !llfi_index !257
  %8 = bitcast i8* %7 to %"struct.std::_Rb_tree_header"*, !llfi_index !258
  call void @_ZNSt15_Rb_tree_headerC2Ev(%"struct.std::_Rb_tree_header"* nonnull align 8 dereferenceable(40) %8) #2, !llfi_index !259
  ret void, !llfi_index !260
}

; Function Attrs: noinline nounwind uwtable
define linkonce_odr dso_local void @_ZNSaISt13_Rb_tree_nodeIiEEC2Ev(%"struct.std::less"* nonnull align 1 dereferenceable(1) %0) unnamed_addr #1 comdat align 2 {
  %2 = alloca %"struct.std::less"*, align 8, !llfi_index !261
  store %"struct.std::less"* %0, %"struct.std::less"** %2, align 8, !llfi_index !262
  %3 = load %"struct.std::less"*, %"struct.std::less"** %2, align 8, !llfi_index !263
  %4 = bitcast %"struct.std::less"* %3 to %"struct.std::less"*, !llfi_index !264
  call void @_ZN9__gnu_cxx13new_allocatorISt13_Rb_tree_nodeIiEEC2Ev(%"struct.std::less"* nonnull align 1 dereferenceable(1) %4) #2, !llfi_index !265
  ret void, !llfi_index !266
}

; Function Attrs: noinline nounwind uwtable
define linkonce_odr dso_local void @_ZNSt20_Rb_tree_key_compareISt4lessIiEEC2Ev(%"struct.std::_Rb_tree_key_compare"* nonnull align 1 dereferenceable(1) %0) unnamed_addr #1 comdat align 2 {
  %2 = alloca %"struct.std::_Rb_tree_key_compare"*, align 8, !llfi_index !267
  store %"struct.std::_Rb_tree_key_compare"* %0, %"struct.std::_Rb_tree_key_compare"** %2, align 8, !llfi_index !268
  %3 = load %"struct.std::_Rb_tree_key_compare"*, %"struct.std::_Rb_tree_key_compare"** %2, align 8, !llfi_index !269
  %4 = getelementptr inbounds %"struct.std::_Rb_tree_key_compare", %"struct.std::_Rb_tree_key_compare"* %3, i32 0, i32 0, !llfi_index !270
  ret void, !llfi_index !271
}

; Function Attrs: noinline nounwind uwtable
define linkonce_odr dso_local void @_ZNSt15_Rb_tree_headerC2Ev(%"struct.std::_Rb_tree_header"* nonnull align 8 dereferenceable(40) %0) unnamed_addr #1 comdat align 2 personality i8* bitcast (i32 (...)* @__gxx_personality_v0 to i8*) {
  %2 = alloca %"struct.std::_Rb_tree_header"*, align 8, !llfi_index !272
  store %"struct.std::_Rb_tree_header"* %0, %"struct.std::_Rb_tree_header"** %2, align 8, !llfi_index !273
  %3 = load %"struct.std::_Rb_tree_header"*, %"struct.std::_Rb_tree_header"** %2, align 8, !llfi_index !274
  %4 = getelementptr inbounds %"struct.std::_Rb_tree_header", %"struct.std::_Rb_tree_header"* %3, i32 0, i32 0, !llfi_index !275
  %5 = getelementptr inbounds %"struct.std::_Rb_tree_header", %"struct.std::_Rb_tree_header"* %3, i32 0, i32 0, !llfi_index !276
  %6 = getelementptr inbounds %"struct.std::_Rb_tree_node_base", %"struct.std::_Rb_tree_node_base"* %5, i32 0, i32 0, !llfi_index !277
  store i32 0, i32* %6, align 8, !llfi_index !278
  invoke void @_ZNSt15_Rb_tree_header8_M_resetEv(%"struct.std::_Rb_tree_header"* nonnull align 8 dereferenceable(40) %3)
          to label %7 unwind label %8, !llfi_index !279

7:                                                ; preds = %1
  ret void, !llfi_index !280

8:                                                ; preds = %1
  %9 = landingpad { i8*, i32 }
          catch i8* null, !llfi_index !281
  %10 = extractvalue { i8*, i32 } %9, 0, !llfi_index !282
  call void @__clang_call_terminate(i8* %10) #14, !llfi_index !283
  unreachable, !llfi_index !284
}

; Function Attrs: mustprogress noinline nounwind uwtable
define linkonce_odr dso_local void @_ZNSt15_Rb_tree_header8_M_resetEv(%"struct.std::_Rb_tree_header"* nonnull align 8 dereferenceable(40) %0) #3 comdat align 2 {
  %2 = alloca %"struct.std::_Rb_tree_header"*, align 8, !llfi_index !285
  store %"struct.std::_Rb_tree_header"* %0, %"struct.std::_Rb_tree_header"** %2, align 8, !llfi_index !286
  %3 = load %"struct.std::_Rb_tree_header"*, %"struct.std::_Rb_tree_header"** %2, align 8, !llfi_index !287
  %4 = getelementptr inbounds %"struct.std::_Rb_tree_header", %"struct.std::_Rb_tree_header"* %3, i32 0, i32 0, !llfi_index !288
  %5 = getelementptr inbounds %"struct.std::_Rb_tree_node_base", %"struct.std::_Rb_tree_node_base"* %4, i32 0, i32 1, !llfi_index !289
  store %"struct.std::_Rb_tree_node_base"* null, %"struct.std::_Rb_tree_node_base"** %5, align 8, !llfi_index !290
  %6 = getelementptr inbounds %"struct.std::_Rb_tree_header", %"struct.std::_Rb_tree_header"* %3, i32 0, i32 0, !llfi_index !291
  %7 = getelementptr inbounds %"struct.std::_Rb_tree_header", %"struct.std::_Rb_tree_header"* %3, i32 0, i32 0, !llfi_index !292
  %8 = getelementptr inbounds %"struct.std::_Rb_tree_node_base", %"struct.std::_Rb_tree_node_base"* %7, i32 0, i32 2, !llfi_index !293
  store %"struct.std::_Rb_tree_node_base"* %6, %"struct.std::_Rb_tree_node_base"** %8, align 8, !llfi_index !294
  %9 = getelementptr inbounds %"struct.std::_Rb_tree_header", %"struct.std::_Rb_tree_header"* %3, i32 0, i32 0, !llfi_index !295
  %10 = getelementptr inbounds %"struct.std::_Rb_tree_header", %"struct.std::_Rb_tree_header"* %3, i32 0, i32 0, !llfi_index !296
  %11 = getelementptr inbounds %"struct.std::_Rb_tree_node_base", %"struct.std::_Rb_tree_node_base"* %10, i32 0, i32 3, !llfi_index !297
  store %"struct.std::_Rb_tree_node_base"* %9, %"struct.std::_Rb_tree_node_base"** %11, align 8, !llfi_index !298
  %12 = getelementptr inbounds %"struct.std::_Rb_tree_header", %"struct.std::_Rb_tree_header"* %3, i32 0, i32 1, !llfi_index !299
  store i64 0, i64* %12, align 8, !llfi_index !300
  ret void, !llfi_index !301
}

; Function Attrs: noinline nounwind uwtable
define linkonce_odr dso_local void @_ZN9__gnu_cxx13new_allocatorISt13_Rb_tree_nodeIiEEC2Ev(%"struct.std::less"* nonnull align 1 dereferenceable(1) %0) unnamed_addr #1 comdat align 2 {
  %2 = alloca %"struct.std::less"*, align 8, !llfi_index !302
  store %"struct.std::less"* %0, %"struct.std::less"** %2, align 8, !llfi_index !303
  %3 = load %"struct.std::less"*, %"struct.std::less"** %2, align 8, !llfi_index !304
  ret void, !llfi_index !305
}

; Function Attrs: noinline nounwind uwtable
define linkonce_odr dso_local void @_ZNSt6vectorIiSaIiEEC2Ev(%"class.std::vector"* nonnull align 8 dereferenceable(24) %0) unnamed_addr #1 comdat align 2 {
  %2 = alloca %"class.std::vector"*, align 8, !llfi_index !306
  store %"class.std::vector"* %0, %"class.std::vector"** %2, align 8, !llfi_index !307
  %3 = load %"class.std::vector"*, %"class.std::vector"** %2, align 8, !llfi_index !308
  %4 = bitcast %"class.std::vector"* %3 to %"struct.std::_Vector_base"*, !llfi_index !309
  call void @_ZNSt12_Vector_baseIiSaIiEEC2Ev(%"struct.std::_Vector_base"* nonnull align 8 dereferenceable(24) %4) #2, !llfi_index !310
  ret void, !llfi_index !311
}

; Function Attrs: noinline uwtable
define internal void @__dtor_g() #0 section ".text.startup" {
  call void @__cxx_global_array_dtor(i8* null), !llfi_index !312
  ret void, !llfi_index !313
}

; Function Attrs: noinline uwtable
define internal void @__cxx_global_array_dtor(i8* %0) #0 section ".text.startup" {
  %2 = alloca i8*, align 8, !llfi_index !314
  store i8* %0, i8** %2, align 8, !llfi_index !315
  br label %3, !llfi_index !316

3:                                                ; preds = %3, %1
  %4 = phi %"class.std::vector"* [ getelementptr inbounds (%"class.std::vector", %"class.std::vector"* getelementptr inbounds ([223456 x %"class.std::vector"], [223456 x %"class.std::vector"]* @g, i32 0, i32 0), i64 223456), %1 ], [ %5, %3 ], !llfi_index !317
  %5 = getelementptr inbounds %"class.std::vector", %"class.std::vector"* %4, i64 -1, !llfi_index !318
  call void @_ZNSt6vectorIiSaIiEED2Ev(%"class.std::vector"* nonnull align 8 dereferenceable(24) %5) #2, !llfi_index !319
  %6 = icmp eq %"class.std::vector"* %5, getelementptr inbounds ([223456 x %"class.std::vector"], [223456 x %"class.std::vector"]* @g, i32 0, i32 0), !llfi_index !320
  br i1 %6, label %7, label %3, !llfi_index !321

7:                                                ; preds = %3
  ret void, !llfi_index !322
}

; Function Attrs: noinline nounwind uwtable
define linkonce_odr dso_local void @_ZNSt6vectorIiSaIiEED2Ev(%"class.std::vector"* nonnull align 8 dereferenceable(24) %0) unnamed_addr #1 comdat align 2 personality i8* bitcast (i32 (...)* @__gxx_personality_v0 to i8*) {
  %2 = alloca %"class.std::vector"*, align 8, !llfi_index !323
  %3 = alloca i8*, align 8, !llfi_index !324
  %4 = alloca i32, align 4, !llfi_index !325
  store %"class.std::vector"* %0, %"class.std::vector"** %2, align 8, !llfi_index !326
  %5 = load %"class.std::vector"*, %"class.std::vector"** %2, align 8, !llfi_index !327
  %6 = bitcast %"class.std::vector"* %5 to %"struct.std::_Vector_base"*, !llfi_index !328
  %7 = getelementptr inbounds %"struct.std::_Vector_base", %"struct.std::_Vector_base"* %6, i32 0, i32 0, !llfi_index !329
  %8 = bitcast %"struct.std::_Vector_base<int, std::allocator<int>>::_Vector_impl"* %7 to %"struct.std::_Vector_base<int, std::allocator<int>>::_Vector_impl_data"*, !llfi_index !330
  %9 = getelementptr inbounds %"struct.std::_Vector_base<int, std::allocator<int>>::_Vector_impl_data", %"struct.std::_Vector_base<int, std::allocator<int>>::_Vector_impl_data"* %8, i32 0, i32 0, !llfi_index !331
  %10 = load i32*, i32** %9, align 8, !llfi_index !332
  %11 = bitcast %"class.std::vector"* %5 to %"struct.std::_Vector_base"*, !llfi_index !333
  %12 = getelementptr inbounds %"struct.std::_Vector_base", %"struct.std::_Vector_base"* %11, i32 0, i32 0, !llfi_index !334
  %13 = bitcast %"struct.std::_Vector_base<int, std::allocator<int>>::_Vector_impl"* %12 to %"struct.std::_Vector_base<int, std::allocator<int>>::_Vector_impl_data"*, !llfi_index !335
  %14 = getelementptr inbounds %"struct.std::_Vector_base<int, std::allocator<int>>::_Vector_impl_data", %"struct.std::_Vector_base<int, std::allocator<int>>::_Vector_impl_data"* %13, i32 0, i32 1, !llfi_index !336
  %15 = load i32*, i32** %14, align 8, !llfi_index !337
  %16 = bitcast %"class.std::vector"* %5 to %"struct.std::_Vector_base"*, !llfi_index !338
  %17 = call nonnull align 1 dereferenceable(1) %"struct.std::less"* @_ZNSt12_Vector_baseIiSaIiEE19_M_get_Tp_allocatorEv(%"struct.std::_Vector_base"* nonnull align 8 dereferenceable(24) %16) #2, !llfi_index !339
  invoke void @_ZSt8_DestroyIPiiEvT_S1_RSaIT0_E(i32* %10, i32* %15, %"struct.std::less"* nonnull align 1 dereferenceable(1) %17)
          to label %18 unwind label %20, !llfi_index !340

18:                                               ; preds = %1
  %19 = bitcast %"class.std::vector"* %5 to %"struct.std::_Vector_base"*, !llfi_index !341
  call void @_ZNSt12_Vector_baseIiSaIiEED2Ev(%"struct.std::_Vector_base"* nonnull align 8 dereferenceable(24) %19) #2, !llfi_index !342
  ret void, !llfi_index !343

20:                                               ; preds = %1
  %21 = landingpad { i8*, i32 }
          catch i8* null, !llfi_index !344
  %22 = extractvalue { i8*, i32 } %21, 0, !llfi_index !345
  store i8* %22, i8** %3, align 8, !llfi_index !346
  %23 = extractvalue { i8*, i32 } %21, 1, !llfi_index !347
  store i32 %23, i32* %4, align 4, !llfi_index !348
  %24 = bitcast %"class.std::vector"* %5 to %"struct.std::_Vector_base"*, !llfi_index !349
  call void @_ZNSt12_Vector_baseIiSaIiEED2Ev(%"struct.std::_Vector_base"* nonnull align 8 dereferenceable(24) %24) #2, !llfi_index !350
  br label %25, !llfi_index !351

25:                                               ; preds = %20
  %26 = load i8*, i8** %3, align 8, !llfi_index !352
  call void @__clang_call_terminate(i8* %26) #14, !llfi_index !353
  unreachable, !llfi_index !354
}

; Function Attrs: mustprogress noinline nounwind uwtable
define linkonce_odr dso_local nonnull align 1 dereferenceable(1) %"struct.std::less"* @_ZNSt12_Vector_baseIiSaIiEE19_M_get_Tp_allocatorEv(%"struct.std::_Vector_base"* nonnull align 8 dereferenceable(24) %0) #3 comdat align 2 {
  %2 = alloca %"struct.std::_Vector_base"*, align 8, !llfi_index !355
  store %"struct.std::_Vector_base"* %0, %"struct.std::_Vector_base"** %2, align 8, !llfi_index !356
  %3 = load %"struct.std::_Vector_base"*, %"struct.std::_Vector_base"** %2, align 8, !llfi_index !357
  %4 = getelementptr inbounds %"struct.std::_Vector_base", %"struct.std::_Vector_base"* %3, i32 0, i32 0, !llfi_index !358
  %5 = bitcast %"struct.std::_Vector_base<int, std::allocator<int>>::_Vector_impl"* %4 to %"struct.std::less"*, !llfi_index !359
  ret %"struct.std::less"* %5, !llfi_index !360
}

; Function Attrs: mustprogress noinline uwtable
define linkonce_odr dso_local void @_ZSt8_DestroyIPiiEvT_S1_RSaIT0_E(i32* %0, i32* %1, %"struct.std::less"* nonnull align 1 dereferenceable(1) %2) #4 comdat {
  %4 = alloca i32*, align 8, !llfi_index !361
  %5 = alloca i32*, align 8, !llfi_index !362
  %6 = alloca %"struct.std::less"*, align 8, !llfi_index !363
  store i32* %0, i32** %4, align 8, !llfi_index !364
  store i32* %1, i32** %5, align 8, !llfi_index !365
  store %"struct.std::less"* %2, %"struct.std::less"** %6, align 8, !llfi_index !366
  %7 = load i32*, i32** %4, align 8, !llfi_index !367
  %8 = load i32*, i32** %5, align 8, !llfi_index !368
  call void @_ZSt8_DestroyIPiEvT_S1_(i32* %7, i32* %8), !llfi_index !369
  ret void, !llfi_index !370
}

; Function Attrs: noinline nounwind uwtable
define linkonce_odr dso_local void @_ZNSt12_Vector_baseIiSaIiEED2Ev(%"struct.std::_Vector_base"* nonnull align 8 dereferenceable(24) %0) unnamed_addr #1 comdat align 2 personality i8* bitcast (i32 (...)* @__gxx_personality_v0 to i8*) {
  %2 = alloca %"struct.std::_Vector_base"*, align 8, !llfi_index !371
  %3 = alloca i8*, align 8, !llfi_index !372
  %4 = alloca i32, align 4, !llfi_index !373
  store %"struct.std::_Vector_base"* %0, %"struct.std::_Vector_base"** %2, align 8, !llfi_index !374
  %5 = load %"struct.std::_Vector_base"*, %"struct.std::_Vector_base"** %2, align 8, !llfi_index !375
  %6 = getelementptr inbounds %"struct.std::_Vector_base", %"struct.std::_Vector_base"* %5, i32 0, i32 0, !llfi_index !376
  %7 = bitcast %"struct.std::_Vector_base<int, std::allocator<int>>::_Vector_impl"* %6 to %"struct.std::_Vector_base<int, std::allocator<int>>::_Vector_impl_data"*, !llfi_index !377
  %8 = getelementptr inbounds %"struct.std::_Vector_base<int, std::allocator<int>>::_Vector_impl_data", %"struct.std::_Vector_base<int, std::allocator<int>>::_Vector_impl_data"* %7, i32 0, i32 0, !llfi_index !378
  %9 = load i32*, i32** %8, align 8, !llfi_index !379
  %10 = getelementptr inbounds %"struct.std::_Vector_base", %"struct.std::_Vector_base"* %5, i32 0, i32 0, !llfi_index !380
  %11 = bitcast %"struct.std::_Vector_base<int, std::allocator<int>>::_Vector_impl"* %10 to %"struct.std::_Vector_base<int, std::allocator<int>>::_Vector_impl_data"*, !llfi_index !381
  %12 = getelementptr inbounds %"struct.std::_Vector_base<int, std::allocator<int>>::_Vector_impl_data", %"struct.std::_Vector_base<int, std::allocator<int>>::_Vector_impl_data"* %11, i32 0, i32 2, !llfi_index !382
  %13 = load i32*, i32** %12, align 8, !llfi_index !383
  %14 = getelementptr inbounds %"struct.std::_Vector_base", %"struct.std::_Vector_base"* %5, i32 0, i32 0, !llfi_index !384
  %15 = bitcast %"struct.std::_Vector_base<int, std::allocator<int>>::_Vector_impl"* %14 to %"struct.std::_Vector_base<int, std::allocator<int>>::_Vector_impl_data"*, !llfi_index !385
  %16 = getelementptr inbounds %"struct.std::_Vector_base<int, std::allocator<int>>::_Vector_impl_data", %"struct.std::_Vector_base<int, std::allocator<int>>::_Vector_impl_data"* %15, i32 0, i32 0, !llfi_index !386
  %17 = load i32*, i32** %16, align 8, !llfi_index !387
  %18 = ptrtoint i32* %13 to i64, !llfi_index !388
  %19 = ptrtoint i32* %17 to i64, !llfi_index !389
  %20 = sub i64 %18, %19, !llfi_index !390
  %21 = sdiv exact i64 %20, 4, !llfi_index !391
  invoke void @_ZNSt12_Vector_baseIiSaIiEE13_M_deallocateEPim(%"struct.std::_Vector_base"* nonnull align 8 dereferenceable(24) %5, i32* %9, i64 %21)
          to label %22 unwind label %24, !llfi_index !392

22:                                               ; preds = %1
  %23 = getelementptr inbounds %"struct.std::_Vector_base", %"struct.std::_Vector_base"* %5, i32 0, i32 0, !llfi_index !393
  call void @_ZNSt12_Vector_baseIiSaIiEE12_Vector_implD2Ev(%"struct.std::_Vector_base<int, std::allocator<int>>::_Vector_impl"* nonnull align 8 dereferenceable(24) %23) #2, !llfi_index !394
  ret void, !llfi_index !395

24:                                               ; preds = %1
  %25 = landingpad { i8*, i32 }
          catch i8* null, !llfi_index !396
  %26 = extractvalue { i8*, i32 } %25, 0, !llfi_index !397
  store i8* %26, i8** %3, align 8, !llfi_index !398
  %27 = extractvalue { i8*, i32 } %25, 1, !llfi_index !399
  store i32 %27, i32* %4, align 4, !llfi_index !400
  %28 = getelementptr inbounds %"struct.std::_Vector_base", %"struct.std::_Vector_base"* %5, i32 0, i32 0, !llfi_index !401
  call void @_ZNSt12_Vector_baseIiSaIiEE12_Vector_implD2Ev(%"struct.std::_Vector_base<int, std::allocator<int>>::_Vector_impl"* nonnull align 8 dereferenceable(24) %28) #2, !llfi_index !402
  br label %29, !llfi_index !403

29:                                               ; preds = %24
  %30 = load i8*, i8** %3, align 8, !llfi_index !404
  call void @__clang_call_terminate(i8* %30) #14, !llfi_index !405
  unreachable, !llfi_index !406
}

; Function Attrs: mustprogress noinline uwtable
define linkonce_odr dso_local void @_ZNSt12_Vector_baseIiSaIiEE13_M_deallocateEPim(%"struct.std::_Vector_base"* nonnull align 8 dereferenceable(24) %0, i32* %1, i64 %2) #4 comdat align 2 {
  %4 = alloca %"struct.std::_Vector_base"*, align 8, !llfi_index !407
  %5 = alloca i32*, align 8, !llfi_index !408
  %6 = alloca i64, align 8, !llfi_index !409
  store %"struct.std::_Vector_base"* %0, %"struct.std::_Vector_base"** %4, align 8, !llfi_index !410
  store i32* %1, i32** %5, align 8, !llfi_index !411
  store i64 %2, i64* %6, align 8, !llfi_index !412
  %7 = load %"struct.std::_Vector_base"*, %"struct.std::_Vector_base"** %4, align 8, !llfi_index !413
  %8 = load i32*, i32** %5, align 8, !llfi_index !414
  %9 = icmp ne i32* %8, null, !llfi_index !415
  br i1 %9, label %10, label %15, !llfi_index !416

10:                                               ; preds = %3
  %11 = getelementptr inbounds %"struct.std::_Vector_base", %"struct.std::_Vector_base"* %7, i32 0, i32 0, !llfi_index !417
  %12 = bitcast %"struct.std::_Vector_base<int, std::allocator<int>>::_Vector_impl"* %11 to %"struct.std::less"*, !llfi_index !418
  %13 = load i32*, i32** %5, align 8, !llfi_index !419
  %14 = load i64, i64* %6, align 8, !llfi_index !420
  call void @_ZNSt16allocator_traitsISaIiEE10deallocateERS0_Pim(%"struct.std::less"* nonnull align 1 dereferenceable(1) %12, i32* %13, i64 %14), !llfi_index !421
  br label %15, !llfi_index !422

15:                                               ; preds = %10, %3
  ret void, !llfi_index !423
}

; Function Attrs: noinline nounwind uwtable
define linkonce_odr dso_local void @_ZNSt12_Vector_baseIiSaIiEE12_Vector_implD2Ev(%"struct.std::_Vector_base<int, std::allocator<int>>::_Vector_impl"* nonnull align 8 dereferenceable(24) %0) unnamed_addr #1 comdat align 2 {
  %2 = alloca %"struct.std::_Vector_base<int, std::allocator<int>>::_Vector_impl"*, align 8, !llfi_index !424
  store %"struct.std::_Vector_base<int, std::allocator<int>>::_Vector_impl"* %0, %"struct.std::_Vector_base<int, std::allocator<int>>::_Vector_impl"** %2, align 8, !llfi_index !425
  %3 = load %"struct.std::_Vector_base<int, std::allocator<int>>::_Vector_impl"*, %"struct.std::_Vector_base<int, std::allocator<int>>::_Vector_impl"** %2, align 8, !llfi_index !426
  %4 = bitcast %"struct.std::_Vector_base<int, std::allocator<int>>::_Vector_impl"* %3 to %"struct.std::less"*, !llfi_index !427
  call void @_ZNSaIiED2Ev(%"struct.std::less"* nonnull align 1 dereferenceable(1) %4) #2, !llfi_index !428
  ret void, !llfi_index !429
}

; Function Attrs: noinline nounwind uwtable
define linkonce_odr dso_local void @_ZNSaIiED2Ev(%"struct.std::less"* nonnull align 1 dereferenceable(1) %0) unnamed_addr #1 comdat align 2 {
  %2 = alloca %"struct.std::less"*, align 8, !llfi_index !430
  store %"struct.std::less"* %0, %"struct.std::less"** %2, align 8, !llfi_index !431
  %3 = load %"struct.std::less"*, %"struct.std::less"** %2, align 8, !llfi_index !432
  %4 = bitcast %"struct.std::less"* %3 to %"struct.std::less"*, !llfi_index !433
  call void @_ZN9__gnu_cxx13new_allocatorIiED2Ev(%"struct.std::less"* nonnull align 1 dereferenceable(1) %4) #2, !llfi_index !434
  ret void, !llfi_index !435
}

; Function Attrs: noinline nounwind uwtable
define linkonce_odr dso_local void @_ZN9__gnu_cxx13new_allocatorIiED2Ev(%"struct.std::less"* nonnull align 1 dereferenceable(1) %0) unnamed_addr #1 comdat align 2 {
  %2 = alloca %"struct.std::less"*, align 8, !llfi_index !436
  store %"struct.std::less"* %0, %"struct.std::less"** %2, align 8, !llfi_index !437
  %3 = load %"struct.std::less"*, %"struct.std::less"** %2, align 8, !llfi_index !438
  ret void, !llfi_index !439
}

; Function Attrs: mustprogress noinline uwtable
define linkonce_odr dso_local void @_ZNSt16allocator_traitsISaIiEE10deallocateERS0_Pim(%"struct.std::less"* nonnull align 1 dereferenceable(1) %0, i32* %1, i64 %2) #4 comdat align 2 {
  %4 = alloca %"struct.std::less"*, align 8, !llfi_index !440
  %5 = alloca i32*, align 8, !llfi_index !441
  %6 = alloca i64, align 8, !llfi_index !442
  store %"struct.std::less"* %0, %"struct.std::less"** %4, align 8, !llfi_index !443
  store i32* %1, i32** %5, align 8, !llfi_index !444
  store i64 %2, i64* %6, align 8, !llfi_index !445
  %7 = load %"struct.std::less"*, %"struct.std::less"** %4, align 8, !llfi_index !446
  %8 = bitcast %"struct.std::less"* %7 to %"struct.std::less"*, !llfi_index !447
  %9 = load i32*, i32** %5, align 8, !llfi_index !448
  %10 = load i64, i64* %6, align 8, !llfi_index !449
  call void @_ZN9__gnu_cxx13new_allocatorIiE10deallocateEPim(%"struct.std::less"* nonnull align 1 dereferenceable(1) %8, i32* %9, i64 %10), !llfi_index !450
  ret void, !llfi_index !451
}

; Function Attrs: mustprogress noinline nounwind uwtable
define linkonce_odr dso_local void @_ZN9__gnu_cxx13new_allocatorIiE10deallocateEPim(%"struct.std::less"* nonnull align 1 dereferenceable(1) %0, i32* %1, i64 %2) #3 comdat align 2 {
  %4 = alloca %"struct.std::less"*, align 8, !llfi_index !452
  %5 = alloca i32*, align 8, !llfi_index !453
  %6 = alloca i64, align 8, !llfi_index !454
  store %"struct.std::less"* %0, %"struct.std::less"** %4, align 8, !llfi_index !455
  store i32* %1, i32** %5, align 8, !llfi_index !456
  store i64 %2, i64* %6, align 8, !llfi_index !457
  %7 = load %"struct.std::less"*, %"struct.std::less"** %4, align 8, !llfi_index !458
  %8 = load i32*, i32** %5, align 8, !llfi_index !459
  %9 = bitcast i32* %8 to i8*, !llfi_index !460
  call void @_ZdlPv(i8* %9) #2, !llfi_index !461
  ret void, !llfi_index !462
}

; Function Attrs: mustprogress noinline uwtable
define linkonce_odr dso_local void @_ZSt8_DestroyIPiEvT_S1_(i32* %0, i32* %1) #4 comdat {
  %3 = alloca i32*, align 8, !llfi_index !463
  %4 = alloca i32*, align 8, !llfi_index !464
  store i32* %0, i32** %3, align 8, !llfi_index !465
  store i32* %1, i32** %4, align 8, !llfi_index !466
  %5 = load i32*, i32** %3, align 8, !llfi_index !467
  %6 = load i32*, i32** %4, align 8, !llfi_index !468
  call void @_ZNSt12_Destroy_auxILb1EE9__destroyIPiEEvT_S3_(i32* %5, i32* %6), !llfi_index !469
  ret void, !llfi_index !470
}

; Function Attrs: mustprogress noinline nounwind uwtable
define linkonce_odr dso_local void @_ZNSt12_Destroy_auxILb1EE9__destroyIPiEEvT_S3_(i32* %0, i32* %1) #3 comdat align 2 {
  %3 = alloca i32*, align 8, !llfi_index !471
  %4 = alloca i32*, align 8, !llfi_index !472
  store i32* %0, i32** %3, align 8, !llfi_index !473
  store i32* %1, i32** %4, align 8, !llfi_index !474
  ret void, !llfi_index !475
}

; Function Attrs: noinline nounwind uwtable
define linkonce_odr dso_local void @_ZNSt12_Vector_baseIiSaIiEEC2Ev(%"struct.std::_Vector_base"* nonnull align 8 dereferenceable(24) %0) unnamed_addr #1 comdat align 2 {
  %2 = alloca %"struct.std::_Vector_base"*, align 8, !llfi_index !476
  store %"struct.std::_Vector_base"* %0, %"struct.std::_Vector_base"** %2, align 8, !llfi_index !477
  %3 = load %"struct.std::_Vector_base"*, %"struct.std::_Vector_base"** %2, align 8, !llfi_index !478
  %4 = getelementptr inbounds %"struct.std::_Vector_base", %"struct.std::_Vector_base"* %3, i32 0, i32 0, !llfi_index !479
  call void @_ZNSt12_Vector_baseIiSaIiEE12_Vector_implC2Ev(%"struct.std::_Vector_base<int, std::allocator<int>>::_Vector_impl"* nonnull align 8 dereferenceable(24) %4) #2, !llfi_index !480
  ret void, !llfi_index !481
}

; Function Attrs: noinline nounwind uwtable
define linkonce_odr dso_local void @_ZNSt12_Vector_baseIiSaIiEE12_Vector_implC2Ev(%"struct.std::_Vector_base<int, std::allocator<int>>::_Vector_impl"* nonnull align 8 dereferenceable(24) %0) unnamed_addr #1 comdat align 2 {
  %2 = alloca %"struct.std::_Vector_base<int, std::allocator<int>>::_Vector_impl"*, align 8, !llfi_index !482
  store %"struct.std::_Vector_base<int, std::allocator<int>>::_Vector_impl"* %0, %"struct.std::_Vector_base<int, std::allocator<int>>::_Vector_impl"** %2, align 8, !llfi_index !483
  %3 = load %"struct.std::_Vector_base<int, std::allocator<int>>::_Vector_impl"*, %"struct.std::_Vector_base<int, std::allocator<int>>::_Vector_impl"** %2, align 8, !llfi_index !484
  %4 = bitcast %"struct.std::_Vector_base<int, std::allocator<int>>::_Vector_impl"* %3 to %"struct.std::less"*, !llfi_index !485
  call void @_ZNSaIiEC2Ev(%"struct.std::less"* nonnull align 1 dereferenceable(1) %4) #2, !llfi_index !486
  %5 = bitcast %"struct.std::_Vector_base<int, std::allocator<int>>::_Vector_impl"* %3 to %"struct.std::_Vector_base<int, std::allocator<int>>::_Vector_impl_data"*, !llfi_index !487
  call void @_ZNSt12_Vector_baseIiSaIiEE17_Vector_impl_dataC2Ev(%"struct.std::_Vector_base<int, std::allocator<int>>::_Vector_impl_data"* nonnull align 8 dereferenceable(24) %5) #2, !llfi_index !488
  ret void, !llfi_index !489
}

; Function Attrs: noinline nounwind uwtable
define linkonce_odr dso_local void @_ZNSaIiEC2Ev(%"struct.std::less"* nonnull align 1 dereferenceable(1) %0) unnamed_addr #1 comdat align 2 {
  %2 = alloca %"struct.std::less"*, align 8, !llfi_index !490
  store %"struct.std::less"* %0, %"struct.std::less"** %2, align 8, !llfi_index !491
  %3 = load %"struct.std::less"*, %"struct.std::less"** %2, align 8, !llfi_index !492
  %4 = bitcast %"struct.std::less"* %3 to %"struct.std::less"*, !llfi_index !493
  call void @_ZN9__gnu_cxx13new_allocatorIiEC2Ev(%"struct.std::less"* nonnull align 1 dereferenceable(1) %4) #2, !llfi_index !494
  ret void, !llfi_index !495
}

; Function Attrs: noinline nounwind uwtable
define linkonce_odr dso_local void @_ZNSt12_Vector_baseIiSaIiEE17_Vector_impl_dataC2Ev(%"struct.std::_Vector_base<int, std::allocator<int>>::_Vector_impl_data"* nonnull align 8 dereferenceable(24) %0) unnamed_addr #1 comdat align 2 {
  %2 = alloca %"struct.std::_Vector_base<int, std::allocator<int>>::_Vector_impl_data"*, align 8, !llfi_index !496
  store %"struct.std::_Vector_base<int, std::allocator<int>>::_Vector_impl_data"* %0, %"struct.std::_Vector_base<int, std::allocator<int>>::_Vector_impl_data"** %2, align 8, !llfi_index !497
  %3 = load %"struct.std::_Vector_base<int, std::allocator<int>>::_Vector_impl_data"*, %"struct.std::_Vector_base<int, std::allocator<int>>::_Vector_impl_data"** %2, align 8, !llfi_index !498
  %4 = getelementptr inbounds %"struct.std::_Vector_base<int, std::allocator<int>>::_Vector_impl_data", %"struct.std::_Vector_base<int, std::allocator<int>>::_Vector_impl_data"* %3, i32 0, i32 0, !llfi_index !499
  store i32* null, i32** %4, align 8, !llfi_index !500
  %5 = getelementptr inbounds %"struct.std::_Vector_base<int, std::allocator<int>>::_Vector_impl_data", %"struct.std::_Vector_base<int, std::allocator<int>>::_Vector_impl_data"* %3, i32 0, i32 1, !llfi_index !501
  store i32* null, i32** %5, align 8, !llfi_index !502
  %6 = getelementptr inbounds %"struct.std::_Vector_base<int, std::allocator<int>>::_Vector_impl_data", %"struct.std::_Vector_base<int, std::allocator<int>>::_Vector_impl_data"* %3, i32 0, i32 2, !llfi_index !503
  store i32* null, i32** %6, align 8, !llfi_index !504
  ret void, !llfi_index !505
}

; Function Attrs: noinline nounwind uwtable
define linkonce_odr dso_local void @_ZN9__gnu_cxx13new_allocatorIiEC2Ev(%"struct.std::less"* nonnull align 1 dereferenceable(1) %0) unnamed_addr #1 comdat align 2 {
  %2 = alloca %"struct.std::less"*, align 8, !llfi_index !506
  store %"struct.std::less"* %0, %"struct.std::less"** %2, align 8, !llfi_index !507
  %3 = load %"struct.std::less"*, %"struct.std::less"** %2, align 8, !llfi_index !508
  ret void, !llfi_index !509
}

declare dso_local void @_ZNSt8ios_base4InitC1Ev(%"struct.std::less"* nonnull align 1 dereferenceable(1)) unnamed_addr #7

; Function Attrs: noinline uwtable
define internal void @__dtor__ZStL8__ioinit() #0 section ".text.startup" {
  call void @_ZNSt8ios_base4InitD1Ev(%"struct.std::less"* @_ZStL8__ioinit), !llfi_index !510
  ret void, !llfi_index !511
}

; Function Attrs: nounwind
declare dso_local void @_ZNSt8ios_base4InitD1Ev(%"struct.std::less"* nonnull align 1 dereferenceable(1)) unnamed_addr #8

; Function Attrs: mustprogress noinline uwtable
define dso_local void @_Z3dfsii(i32 %0, i32 %1) #4 {
  %3 = alloca i32, align 4, !llfi_index !512
  %4 = alloca i32, align 4, !llfi_index !513
  %5 = alloca %"class.std::vector"*, align 8, !llfi_index !514
  %6 = alloca %"class.__gnu_cxx::__normal_iterator", align 8, !llfi_index !515
  %7 = alloca %"class.__gnu_cxx::__normal_iterator", align 8, !llfi_index !516
  %8 = alloca i32, align 4, !llfi_index !517
  %9 = alloca %"struct.std::_Rb_tree_const_iterator", align 8, !llfi_index !518
  %10 = alloca %"struct.std::_Rb_tree_const_iterator", align 8, !llfi_index !519
  %11 = alloca %"struct.std::_Rb_tree_const_iterator", align 8, !llfi_index !520
  %12 = alloca %"struct.std::_Rb_tree_const_iterator", align 8, !llfi_index !521
  %13 = alloca %"struct.std::_Rb_tree_const_iterator", align 8, !llfi_index !522
  %14 = alloca i32, align 4, !llfi_index !523
  %15 = alloca %"struct.std::_Rb_tree_const_iterator", align 8, !llfi_index !524
  %16 = alloca %"struct.std::_Rb_tree_const_iterator", align 8, !llfi_index !525
  %17 = alloca %"struct.std::_Rb_tree_const_iterator", align 8, !llfi_index !526
  %18 = alloca i32, align 4, !llfi_index !527
  %19 = alloca %"struct.std::_Rb_tree_const_iterator", align 8, !llfi_index !528
  store i32 %0, i32* %3, align 4, !llfi_index !529
  store i32 %1, i32* %4, align 4, !llfi_index !530
  %20 = load i32, i32* %3, align 4, !llfi_index !531
  %21 = sext i32 %20 to i64, !llfi_index !532
  %22 = getelementptr inbounds [223456 x %"class.std::vector"], [223456 x %"class.std::vector"]* @g, i64 0, i64 %21, !llfi_index !533
  store %"class.std::vector"* %22, %"class.std::vector"** %5, align 8, !llfi_index !534
  %23 = load %"class.std::vector"*, %"class.std::vector"** %5, align 8, !llfi_index !535
  %24 = call i32* @_ZNSt6vectorIiSaIiEE5beginEv(%"class.std::vector"* nonnull align 8 dereferenceable(24) %23) #2, !llfi_index !536
  %25 = getelementptr inbounds %"class.__gnu_cxx::__normal_iterator", %"class.__gnu_cxx::__normal_iterator"* %6, i32 0, i32 0, !llfi_index !537
  store i32* %24, i32** %25, align 8, !llfi_index !538
  %26 = load %"class.std::vector"*, %"class.std::vector"** %5, align 8, !llfi_index !539
  %27 = call i32* @_ZNSt6vectorIiSaIiEE3endEv(%"class.std::vector"* nonnull align 8 dereferenceable(24) %26) #2, !llfi_index !540
  %28 = getelementptr inbounds %"class.__gnu_cxx::__normal_iterator", %"class.__gnu_cxx::__normal_iterator"* %7, i32 0, i32 0, !llfi_index !541
  store i32* %27, i32** %28, align 8, !llfi_index !542
  br label %29, !llfi_index !543

29:                                               ; preds = %89, %2
  %30 = call zeroext i1 @_ZN9__gnu_cxxneIPiSt6vectorIiSaIiEEEEbRKNS_17__normal_iteratorIT_T0_EESA_(%"class.__gnu_cxx::__normal_iterator"* nonnull align 8 dereferenceable(8) %6, %"class.__gnu_cxx::__normal_iterator"* nonnull align 8 dereferenceable(8) %7) #2, !llfi_index !544
  br i1 %30, label %31, label %91, !llfi_index !545

31:                                               ; preds = %29
  %32 = call nonnull align 4 dereferenceable(4) i32* @_ZNK9__gnu_cxx17__normal_iteratorIPiSt6vectorIiSaIiEEEdeEv(%"class.__gnu_cxx::__normal_iterator"* nonnull align 8 dereferenceable(8) %6) #2, !llfi_index !546
  %33 = load i32, i32* %32, align 4, !llfi_index !547
  store i32 %33, i32* %8, align 4, !llfi_index !548
  %34 = load i32, i32* %8, align 4, !llfi_index !549
  %35 = load i32, i32* %4, align 4, !llfi_index !550
  %36 = icmp eq i32 %34, %35, !llfi_index !551
  br i1 %36, label %37, label %38, !llfi_index !552

37:                                               ; preds = %31
  br label %89, !llfi_index !553

38:                                               ; preds = %31
  %39 = load i32, i32* %8, align 4, !llfi_index !554
  %40 = load i32, i32* %3, align 4, !llfi_index !555
  call void @_Z3dfsii(i32 %39, i32 %40), !llfi_index !556
  %41 = load i32, i32* %8, align 4, !llfi_index !557
  %42 = sext i32 %41 to i64, !llfi_index !558
  %43 = getelementptr inbounds [223456 x %"class.std::multiset"], [223456 x %"class.std::multiset"]* @s, i64 0, i64 %42, !llfi_index !559
  %44 = call i64 @_ZNKSt8multisetIiSt4lessIiESaIiEE4sizeEv(%"class.std::multiset"* nonnull align 8 dereferenceable(48) %43) #2, !llfi_index !560
  %45 = load i32, i32* %3, align 4, !llfi_index !561
  %46 = sext i32 %45 to i64, !llfi_index !562
  %47 = getelementptr inbounds [223456 x %"class.std::multiset"], [223456 x %"class.std::multiset"]* @s, i64 0, i64 %46, !llfi_index !563
  %48 = call i64 @_ZNKSt8multisetIiSt4lessIiESaIiEE4sizeEv(%"class.std::multiset"* nonnull align 8 dereferenceable(48) %47) #2, !llfi_index !564
  %49 = icmp ugt i64 %44, %48, !llfi_index !565
  br i1 %49, label %50, label %57, !llfi_index !566

50:                                               ; preds = %38
  %51 = load i32, i32* %3, align 4, !llfi_index !567
  %52 = sext i32 %51 to i64, !llfi_index !568
  %53 = getelementptr inbounds [223456 x %"class.std::multiset"], [223456 x %"class.std::multiset"]* @s, i64 0, i64 %52, !llfi_index !569
  %54 = load i32, i32* %8, align 4, !llfi_index !570
  %55 = sext i32 %54 to i64, !llfi_index !571
  %56 = getelementptr inbounds [223456 x %"class.std::multiset"], [223456 x %"class.std::multiset"]* @s, i64 0, i64 %55, !llfi_index !572
  call void @_ZSt4swapIiSt4lessIiESaIiEEvRSt8multisetIT_T0_T1_ES8_(%"class.std::multiset"* nonnull align 8 dereferenceable(48) %53, %"class.std::multiset"* nonnull align 8 dereferenceable(48) %56) #2, !llfi_index !573
  br label %57, !llfi_index !574

57:                                               ; preds = %50, %38
  br label %58, !llfi_index !575

58:                                               ; preds = %64, %57
  %59 = load i32, i32* %8, align 4, !llfi_index !576
  %60 = sext i32 %59 to i64, !llfi_index !577
  %61 = getelementptr inbounds [223456 x %"class.std::multiset"], [223456 x %"class.std::multiset"]* @s, i64 0, i64 %60, !llfi_index !578
  %62 = call zeroext i1 @_ZNKSt8multisetIiSt4lessIiESaIiEE5emptyEv(%"class.std::multiset"* nonnull align 8 dereferenceable(48) %61) #2, !llfi_index !579
  %63 = xor i1 %62, true, !llfi_index !580
  br i1 %63, label %64, label %88, !llfi_index !581

64:                                               ; preds = %58
  %65 = load i32, i32* %3, align 4, !llfi_index !582
  %66 = sext i32 %65 to i64, !llfi_index !583
  %67 = getelementptr inbounds [223456 x %"class.std::multiset"], [223456 x %"class.std::multiset"]* @s, i64 0, i64 %66, !llfi_index !584
  %68 = load i32, i32* %8, align 4, !llfi_index !585
  %69 = sext i32 %68 to i64, !llfi_index !586
  %70 = getelementptr inbounds [223456 x %"class.std::multiset"], [223456 x %"class.std::multiset"]* @s, i64 0, i64 %69, !llfi_index !587
  %71 = call %"struct.std::_Rb_tree_node_base"* @_ZNKSt8multisetIiSt4lessIiESaIiEE5beginEv(%"class.std::multiset"* nonnull align 8 dereferenceable(48) %70) #2, !llfi_index !588
  %72 = getelementptr inbounds %"struct.std::_Rb_tree_const_iterator", %"struct.std::_Rb_tree_const_iterator"* %9, i32 0, i32 0, !llfi_index !589
  store %"struct.std::_Rb_tree_node_base"* %71, %"struct.std::_Rb_tree_node_base"** %72, align 8, !llfi_index !590
  %73 = call nonnull align 4 dereferenceable(4) i32* @_ZNKSt23_Rb_tree_const_iteratorIiEdeEv(%"struct.std::_Rb_tree_const_iterator"* nonnull align 8 dereferenceable(8) %9) #2, !llfi_index !591
  %74 = call %"struct.std::_Rb_tree_node_base"* @_ZNSt8multisetIiSt4lessIiESaIiEE6insertERKi(%"class.std::multiset"* nonnull align 8 dereferenceable(48) %67, i32* nonnull align 4 dereferenceable(4) %73), !llfi_index !592
  %75 = getelementptr inbounds %"struct.std::_Rb_tree_const_iterator", %"struct.std::_Rb_tree_const_iterator"* %10, i32 0, i32 0, !llfi_index !593
  store %"struct.std::_Rb_tree_node_base"* %74, %"struct.std::_Rb_tree_node_base"** %75, align 8, !llfi_index !594
  %76 = load i32, i32* %8, align 4, !llfi_index !595
  %77 = sext i32 %76 to i64, !llfi_index !596
  %78 = getelementptr inbounds [223456 x %"class.std::multiset"], [223456 x %"class.std::multiset"]* @s, i64 0, i64 %77, !llfi_index !597
  %79 = load i32, i32* %8, align 4, !llfi_index !598
  %80 = sext i32 %79 to i64, !llfi_index !599
  %81 = getelementptr inbounds [223456 x %"class.std::multiset"], [223456 x %"class.std::multiset"]* @s, i64 0, i64 %80, !llfi_index !600
  %82 = call %"struct.std::_Rb_tree_node_base"* @_ZNKSt8multisetIiSt4lessIiESaIiEE5beginEv(%"class.std::multiset"* nonnull align 8 dereferenceable(48) %81) #2, !llfi_index !601
  %83 = getelementptr inbounds %"struct.std::_Rb_tree_const_iterator", %"struct.std::_Rb_tree_const_iterator"* %11, i32 0, i32 0, !llfi_index !602
  store %"struct.std::_Rb_tree_node_base"* %82, %"struct.std::_Rb_tree_node_base"** %83, align 8, !llfi_index !603
  %84 = getelementptr inbounds %"struct.std::_Rb_tree_const_iterator", %"struct.std::_Rb_tree_const_iterator"* %11, i32 0, i32 0, !llfi_index !604
  %85 = load %"struct.std::_Rb_tree_node_base"*, %"struct.std::_Rb_tree_node_base"** %84, align 8, !llfi_index !605
  %86 = call %"struct.std::_Rb_tree_node_base"* @_ZNSt8multisetIiSt4lessIiESaIiEE5eraseB5cxx11ESt23_Rb_tree_const_iteratorIiE(%"class.std::multiset"* nonnull align 8 dereferenceable(48) %78, %"struct.std::_Rb_tree_node_base"* %85), !llfi_index !606
  %87 = getelementptr inbounds %"struct.std::_Rb_tree_const_iterator", %"struct.std::_Rb_tree_const_iterator"* %12, i32 0, i32 0, !llfi_index !607
  store %"struct.std::_Rb_tree_node_base"* %86, %"struct.std::_Rb_tree_node_base"** %87, align 8, !llfi_index !608
  br label %58, !llvm.loop !609, !llfi_index !610

88:                                               ; preds = %58
  br label %89, !llfi_index !611

89:                                               ; preds = %88, %37
  %90 = call nonnull align 8 dereferenceable(8) %"class.__gnu_cxx::__normal_iterator"* @_ZN9__gnu_cxx17__normal_iteratorIPiSt6vectorIiSaIiEEEppEv(%"class.__gnu_cxx::__normal_iterator"* nonnull align 8 dereferenceable(8) %6) #2, !llfi_index !612
  br label %29, !llfi_index !613

91:                                               ; preds = %29
  %92 = load i32, i32* %3, align 4, !llfi_index !614
  %93 = sext i32 %92 to i64, !llfi_index !615
  %94 = getelementptr inbounds [223456 x %"class.std::multiset"], [223456 x %"class.std::multiset"]* @s, i64 0, i64 %93, !llfi_index !616
  %95 = load i32, i32* %3, align 4, !llfi_index !617
  %96 = sext i32 %95 to i64, !llfi_index !618
  %97 = getelementptr inbounds [223456 x i32], [223456 x i32]* @a, i64 0, i64 %96, !llfi_index !619
  %98 = load i32, i32* %97, align 4, !llfi_index !620
  %99 = sub nsw i32 0, %98, !llfi_index !621
  %100 = add nsw i32 %99, 1, !llfi_index !622
  store i32 %100, i32* %14, align 4, !llfi_index !623
  %101 = call %"struct.std::_Rb_tree_node_base"* @_ZNSt8multisetIiSt4lessIiESaIiEE11lower_boundERKi(%"class.std::multiset"* nonnull align 8 dereferenceable(48) %94, i32* nonnull align 4 dereferenceable(4) %14), !llfi_index !624
  %102 = getelementptr inbounds %"struct.std::_Rb_tree_const_iterator", %"struct.std::_Rb_tree_const_iterator"* %13, i32 0, i32 0, !llfi_index !625
  store %"struct.std::_Rb_tree_node_base"* %101, %"struct.std::_Rb_tree_node_base"** %102, align 8, !llfi_index !626
  %103 = load i32, i32* %3, align 4, !llfi_index !627
  %104 = sext i32 %103 to i64, !llfi_index !628
  %105 = getelementptr inbounds [223456 x %"class.std::multiset"], [223456 x %"class.std::multiset"]* @s, i64 0, i64 %104, !llfi_index !629
  %106 = call %"struct.std::_Rb_tree_node_base"* @_ZNKSt8multisetIiSt4lessIiESaIiEE3endEv(%"class.std::multiset"* nonnull align 8 dereferenceable(48) %105) #2, !llfi_index !630
  %107 = getelementptr inbounds %"struct.std::_Rb_tree_const_iterator", %"struct.std::_Rb_tree_const_iterator"* %15, i32 0, i32 0, !llfi_index !631
  store %"struct.std::_Rb_tree_node_base"* %106, %"struct.std::_Rb_tree_node_base"** %107, align 8, !llfi_index !632
  %108 = call zeroext i1 @_ZStneRKSt23_Rb_tree_const_iteratorIiES2_(%"struct.std::_Rb_tree_const_iterator"* nonnull align 8 dereferenceable(8) %13, %"struct.std::_Rb_tree_const_iterator"* nonnull align 8 dereferenceable(8) %15) #2, !llfi_index !633
  br i1 %108, label %109, label %119, !llfi_index !634

109:                                              ; preds = %91
  %110 = load i32, i32* %3, align 4, !llfi_index !635
  %111 = sext i32 %110 to i64, !llfi_index !636
  %112 = getelementptr inbounds [223456 x %"class.std::multiset"], [223456 x %"class.std::multiset"]* @s, i64 0, i64 %111, !llfi_index !637
  %113 = bitcast %"struct.std::_Rb_tree_const_iterator"* %16 to i8*, !llfi_index !638
  %114 = bitcast %"struct.std::_Rb_tree_const_iterator"* %13 to i8*, !llfi_index !639
  call void @llvm.memcpy.p0i8.p0i8.i64(i8* align 8 %113, i8* align 8 %114, i64 8, i1 false), !llfi_index !640
  %115 = getelementptr inbounds %"struct.std::_Rb_tree_const_iterator", %"struct.std::_Rb_tree_const_iterator"* %16, i32 0, i32 0, !llfi_index !641
  %116 = load %"struct.std::_Rb_tree_node_base"*, %"struct.std::_Rb_tree_node_base"** %115, align 8, !llfi_index !642
  %117 = call %"struct.std::_Rb_tree_node_base"* @_ZNSt8multisetIiSt4lessIiESaIiEE5eraseB5cxx11ESt23_Rb_tree_const_iteratorIiE(%"class.std::multiset"* nonnull align 8 dereferenceable(48) %112, %"struct.std::_Rb_tree_node_base"* %116), !llfi_index !643
  %118 = getelementptr inbounds %"struct.std::_Rb_tree_const_iterator", %"struct.std::_Rb_tree_const_iterator"* %17, i32 0, i32 0, !llfi_index !644
  store %"struct.std::_Rb_tree_node_base"* %117, %"struct.std::_Rb_tree_node_base"** %118, align 8, !llfi_index !645
  br label %119, !llfi_index !646

119:                                              ; preds = %109, %91
  %120 = load i32, i32* %3, align 4, !llfi_index !647
  %121 = sext i32 %120 to i64, !llfi_index !648
  %122 = getelementptr inbounds [223456 x %"class.std::multiset"], [223456 x %"class.std::multiset"]* @s, i64 0, i64 %121, !llfi_index !649
  %123 = load i32, i32* %3, align 4, !llfi_index !650
  %124 = sext i32 %123 to i64, !llfi_index !651
  %125 = getelementptr inbounds [223456 x i32], [223456 x i32]* @a, i64 0, i64 %124, !llfi_index !652
  %126 = load i32, i32* %125, align 4, !llfi_index !653
  %127 = sub nsw i32 0, %126, !llfi_index !654
  store i32 %127, i32* %18, align 4, !llfi_index !655
  %128 = call %"struct.std::_Rb_tree_node_base"* @_ZNSt8multisetIiSt4lessIiESaIiEE6insertEOi(%"class.std::multiset"* nonnull align 8 dereferenceable(48) %122, i32* nonnull align 4 dereferenceable(4) %18), !llfi_index !656
  %129 = getelementptr inbounds %"struct.std::_Rb_tree_const_iterator", %"struct.std::_Rb_tree_const_iterator"* %19, i32 0, i32 0, !llfi_index !657
  store %"struct.std::_Rb_tree_node_base"* %128, %"struct.std::_Rb_tree_node_base"** %129, align 8, !llfi_index !658
  ret void, !llfi_index !659
}

; Function Attrs: mustprogress noinline nounwind uwtable
define linkonce_odr dso_local i32* @_ZNSt6vectorIiSaIiEE5beginEv(%"class.std::vector"* nonnull align 8 dereferenceable(24) %0) #3 comdat align 2 {
  %2 = alloca %"class.__gnu_cxx::__normal_iterator", align 8, !llfi_index !660
  %3 = alloca %"class.std::vector"*, align 8, !llfi_index !661
  store %"class.std::vector"* %0, %"class.std::vector"** %3, align 8, !llfi_index !662
  %4 = load %"class.std::vector"*, %"class.std::vector"** %3, align 8, !llfi_index !663
  %5 = bitcast %"class.std::vector"* %4 to %"struct.std::_Vector_base"*, !llfi_index !664
  %6 = getelementptr inbounds %"struct.std::_Vector_base", %"struct.std::_Vector_base"* %5, i32 0, i32 0, !llfi_index !665
  %7 = bitcast %"struct.std::_Vector_base<int, std::allocator<int>>::_Vector_impl"* %6 to %"struct.std::_Vector_base<int, std::allocator<int>>::_Vector_impl_data"*, !llfi_index !666
  %8 = getelementptr inbounds %"struct.std::_Vector_base<int, std::allocator<int>>::_Vector_impl_data", %"struct.std::_Vector_base<int, std::allocator<int>>::_Vector_impl_data"* %7, i32 0, i32 0, !llfi_index !667
  call void @_ZN9__gnu_cxx17__normal_iteratorIPiSt6vectorIiSaIiEEEC2ERKS1_(%"class.__gnu_cxx::__normal_iterator"* nonnull align 8 dereferenceable(8) %2, i32** nonnull align 8 dereferenceable(8) %8) #2, !llfi_index !668
  %9 = getelementptr inbounds %"class.__gnu_cxx::__normal_iterator", %"class.__gnu_cxx::__normal_iterator"* %2, i32 0, i32 0, !llfi_index !669
  %10 = load i32*, i32** %9, align 8, !llfi_index !670
  ret i32* %10, !llfi_index !671
}

; Function Attrs: mustprogress noinline nounwind uwtable
define linkonce_odr dso_local i32* @_ZNSt6vectorIiSaIiEE3endEv(%"class.std::vector"* nonnull align 8 dereferenceable(24) %0) #3 comdat align 2 {
  %2 = alloca %"class.__gnu_cxx::__normal_iterator", align 8, !llfi_index !672
  %3 = alloca %"class.std::vector"*, align 8, !llfi_index !673
  store %"class.std::vector"* %0, %"class.std::vector"** %3, align 8, !llfi_index !674
  %4 = load %"class.std::vector"*, %"class.std::vector"** %3, align 8, !llfi_index !675
  %5 = bitcast %"class.std::vector"* %4 to %"struct.std::_Vector_base"*, !llfi_index !676
  %6 = getelementptr inbounds %"struct.std::_Vector_base", %"struct.std::_Vector_base"* %5, i32 0, i32 0, !llfi_index !677
  %7 = bitcast %"struct.std::_Vector_base<int, std::allocator<int>>::_Vector_impl"* %6 to %"struct.std::_Vector_base<int, std::allocator<int>>::_Vector_impl_data"*, !llfi_index !678
  %8 = getelementptr inbounds %"struct.std::_Vector_base<int, std::allocator<int>>::_Vector_impl_data", %"struct.std::_Vector_base<int, std::allocator<int>>::_Vector_impl_data"* %7, i32 0, i32 1, !llfi_index !679
  call void @_ZN9__gnu_cxx17__normal_iteratorIPiSt6vectorIiSaIiEEEC2ERKS1_(%"class.__gnu_cxx::__normal_iterator"* nonnull align 8 dereferenceable(8) %2, i32** nonnull align 8 dereferenceable(8) %8) #2, !llfi_index !680
  %9 = getelementptr inbounds %"class.__gnu_cxx::__normal_iterator", %"class.__gnu_cxx::__normal_iterator"* %2, i32 0, i32 0, !llfi_index !681
  %10 = load i32*, i32** %9, align 8, !llfi_index !682
  ret i32* %10, !llfi_index !683
}

; Function Attrs: mustprogress noinline nounwind uwtable
define linkonce_odr dso_local zeroext i1 @_ZN9__gnu_cxxneIPiSt6vectorIiSaIiEEEEbRKNS_17__normal_iteratorIT_T0_EESA_(%"class.__gnu_cxx::__normal_iterator"* nonnull align 8 dereferenceable(8) %0, %"class.__gnu_cxx::__normal_iterator"* nonnull align 8 dereferenceable(8) %1) #3 comdat {
  %3 = alloca %"class.__gnu_cxx::__normal_iterator"*, align 8, !llfi_index !684
  %4 = alloca %"class.__gnu_cxx::__normal_iterator"*, align 8, !llfi_index !685
  store %"class.__gnu_cxx::__normal_iterator"* %0, %"class.__gnu_cxx::__normal_iterator"** %3, align 8, !llfi_index !686
  store %"class.__gnu_cxx::__normal_iterator"* %1, %"class.__gnu_cxx::__normal_iterator"** %4, align 8, !llfi_index !687
  %5 = load %"class.__gnu_cxx::__normal_iterator"*, %"class.__gnu_cxx::__normal_iterator"** %3, align 8, !llfi_index !688
  %6 = call nonnull align 8 dereferenceable(8) i32** @_ZNK9__gnu_cxx17__normal_iteratorIPiSt6vectorIiSaIiEEE4baseEv(%"class.__gnu_cxx::__normal_iterator"* nonnull align 8 dereferenceable(8) %5) #2, !llfi_index !689
  %7 = load i32*, i32** %6, align 8, !llfi_index !690
  %8 = load %"class.__gnu_cxx::__normal_iterator"*, %"class.__gnu_cxx::__normal_iterator"** %4, align 8, !llfi_index !691
  %9 = call nonnull align 8 dereferenceable(8) i32** @_ZNK9__gnu_cxx17__normal_iteratorIPiSt6vectorIiSaIiEEE4baseEv(%"class.__gnu_cxx::__normal_iterator"* nonnull align 8 dereferenceable(8) %8) #2, !llfi_index !692
  %10 = load i32*, i32** %9, align 8, !llfi_index !693
  %11 = icmp ne i32* %7, %10, !llfi_index !694
  ret i1 %11, !llfi_index !695
}

; Function Attrs: mustprogress noinline nounwind uwtable
define linkonce_odr dso_local nonnull align 4 dereferenceable(4) i32* @_ZNK9__gnu_cxx17__normal_iteratorIPiSt6vectorIiSaIiEEEdeEv(%"class.__gnu_cxx::__normal_iterator"* nonnull align 8 dereferenceable(8) %0) #3 comdat align 2 {
  %2 = alloca %"class.__gnu_cxx::__normal_iterator"*, align 8, !llfi_index !696
  store %"class.__gnu_cxx::__normal_iterator"* %0, %"class.__gnu_cxx::__normal_iterator"** %2, align 8, !llfi_index !697
  %3 = load %"class.__gnu_cxx::__normal_iterator"*, %"class.__gnu_cxx::__normal_iterator"** %2, align 8, !llfi_index !698
  %4 = getelementptr inbounds %"class.__gnu_cxx::__normal_iterator", %"class.__gnu_cxx::__normal_iterator"* %3, i32 0, i32 0, !llfi_index !699
  %5 = load i32*, i32** %4, align 8, !llfi_index !700
  ret i32* %5, !llfi_index !701
}

; Function Attrs: mustprogress noinline nounwind uwtable
define linkonce_odr dso_local i64 @_ZNKSt8multisetIiSt4lessIiESaIiEE4sizeEv(%"class.std::multiset"* nonnull align 8 dereferenceable(48) %0) #3 comdat align 2 {
  %2 = alloca %"class.std::multiset"*, align 8, !llfi_index !702
  store %"class.std::multiset"* %0, %"class.std::multiset"** %2, align 8, !llfi_index !703
  %3 = load %"class.std::multiset"*, %"class.std::multiset"** %2, align 8, !llfi_index !704
  %4 = getelementptr inbounds %"class.std::multiset", %"class.std::multiset"* %3, i32 0, i32 0, !llfi_index !705
  %5 = call i64 @_ZNKSt8_Rb_treeIiiSt9_IdentityIiESt4lessIiESaIiEE4sizeEv(%"class.std::_Rb_tree"* nonnull align 8 dereferenceable(48) %4) #2, !llfi_index !706
  ret i64 %5, !llfi_index !707
}

; Function Attrs: mustprogress noinline nounwind uwtable
define linkonce_odr dso_local void @_ZSt4swapIiSt4lessIiESaIiEEvRSt8multisetIT_T0_T1_ES8_(%"class.std::multiset"* nonnull align 8 dereferenceable(48) %0, %"class.std::multiset"* nonnull align 8 dereferenceable(48) %1) #3 comdat {
  %3 = alloca %"class.std::multiset"*, align 8, !llfi_index !708
  %4 = alloca %"class.std::multiset"*, align 8, !llfi_index !709
  store %"class.std::multiset"* %0, %"class.std::multiset"** %3, align 8, !llfi_index !710
  store %"class.std::multiset"* %1, %"class.std::multiset"** %4, align 8, !llfi_index !711
  %5 = load %"class.std::multiset"*, %"class.std::multiset"** %3, align 8, !llfi_index !712
  %6 = load %"class.std::multiset"*, %"class.std::multiset"** %4, align 8, !llfi_index !713
  call void @_ZNSt8multisetIiSt4lessIiESaIiEE4swapERS3_(%"class.std::multiset"* nonnull align 8 dereferenceable(48) %5, %"class.std::multiset"* nonnull align 8 dereferenceable(48) %6) #2, !llfi_index !714
  ret void, !llfi_index !715
}

; Function Attrs: mustprogress noinline nounwind uwtable
define linkonce_odr dso_local zeroext i1 @_ZNKSt8multisetIiSt4lessIiESaIiEE5emptyEv(%"class.std::multiset"* nonnull align 8 dereferenceable(48) %0) #3 comdat align 2 {
  %2 = alloca %"class.std::multiset"*, align 8, !llfi_index !716
  store %"class.std::multiset"* %0, %"class.std::multiset"** %2, align 8, !llfi_index !717
  %3 = load %"class.std::multiset"*, %"class.std::multiset"** %2, align 8, !llfi_index !718
  %4 = getelementptr inbounds %"class.std::multiset", %"class.std::multiset"* %3, i32 0, i32 0, !llfi_index !719
  %5 = call zeroext i1 @_ZNKSt8_Rb_treeIiiSt9_IdentityIiESt4lessIiESaIiEE5emptyEv(%"class.std::_Rb_tree"* nonnull align 8 dereferenceable(48) %4) #2, !llfi_index !720
  ret i1 %5, !llfi_index !721
}

; Function Attrs: mustprogress noinline nounwind uwtable
define linkonce_odr dso_local %"struct.std::_Rb_tree_node_base"* @_ZNKSt8multisetIiSt4lessIiESaIiEE5beginEv(%"class.std::multiset"* nonnull align 8 dereferenceable(48) %0) #3 comdat align 2 {
  %2 = alloca %"struct.std::_Rb_tree_const_iterator", align 8, !llfi_index !722
  %3 = alloca %"class.std::multiset"*, align 8, !llfi_index !723
  store %"class.std::multiset"* %0, %"class.std::multiset"** %3, align 8, !llfi_index !724
  %4 = load %"class.std::multiset"*, %"class.std::multiset"** %3, align 8, !llfi_index !725
  %5 = getelementptr inbounds %"class.std::multiset", %"class.std::multiset"* %4, i32 0, i32 0, !llfi_index !726
  %6 = call %"struct.std::_Rb_tree_node_base"* @_ZNKSt8_Rb_treeIiiSt9_IdentityIiESt4lessIiESaIiEE5beginEv(%"class.std::_Rb_tree"* nonnull align 8 dereferenceable(48) %5) #2, !llfi_index !727
  %7 = getelementptr inbounds %"struct.std::_Rb_tree_const_iterator", %"struct.std::_Rb_tree_const_iterator"* %2, i32 0, i32 0, !llfi_index !728
  store %"struct.std::_Rb_tree_node_base"* %6, %"struct.std::_Rb_tree_node_base"** %7, align 8, !llfi_index !729
  %8 = getelementptr inbounds %"struct.std::_Rb_tree_const_iterator", %"struct.std::_Rb_tree_const_iterator"* %2, i32 0, i32 0, !llfi_index !730
  %9 = load %"struct.std::_Rb_tree_node_base"*, %"struct.std::_Rb_tree_node_base"** %8, align 8, !llfi_index !731
  ret %"struct.std::_Rb_tree_node_base"* %9, !llfi_index !732
}

; Function Attrs: mustprogress noinline nounwind uwtable
define linkonce_odr dso_local nonnull align 4 dereferenceable(4) i32* @_ZNKSt23_Rb_tree_const_iteratorIiEdeEv(%"struct.std::_Rb_tree_const_iterator"* nonnull align 8 dereferenceable(8) %0) #3 comdat align 2 personality i8* bitcast (i32 (...)* @__gxx_personality_v0 to i8*) {
  %2 = alloca %"struct.std::_Rb_tree_const_iterator"*, align 8, !llfi_index !733
  store %"struct.std::_Rb_tree_const_iterator"* %0, %"struct.std::_Rb_tree_const_iterator"** %2, align 8, !llfi_index !734
  %3 = load %"struct.std::_Rb_tree_const_iterator"*, %"struct.std::_Rb_tree_const_iterator"** %2, align 8, !llfi_index !735
  %4 = getelementptr inbounds %"struct.std::_Rb_tree_const_iterator", %"struct.std::_Rb_tree_const_iterator"* %3, i32 0, i32 0, !llfi_index !736
  %5 = load %"struct.std::_Rb_tree_node_base"*, %"struct.std::_Rb_tree_node_base"** %4, align 8, !llfi_index !737
  %6 = bitcast %"struct.std::_Rb_tree_node_base"* %5 to %"struct.std::_Rb_tree_node"*, !llfi_index !738
  %7 = invoke i32* @_ZNKSt13_Rb_tree_nodeIiE9_M_valptrEv(%"struct.std::_Rb_tree_node"* nonnull align 8 dereferenceable(36) %6)
          to label %8 unwind label %9, !llfi_index !739

8:                                                ; preds = %1
  ret i32* %7, !llfi_index !740

9:                                                ; preds = %1
  %10 = landingpad { i8*, i32 }
          catch i8* null, !llfi_index !741
  %11 = extractvalue { i8*, i32 } %10, 0, !llfi_index !742
  call void @__clang_call_terminate(i8* %11) #14, !llfi_index !743
  unreachable, !llfi_index !744
}

; Function Attrs: mustprogress noinline uwtable
define linkonce_odr dso_local %"struct.std::_Rb_tree_node_base"* @_ZNSt8multisetIiSt4lessIiESaIiEE6insertERKi(%"class.std::multiset"* nonnull align 8 dereferenceable(48) %0, i32* nonnull align 4 dereferenceable(4) %1) #4 comdat align 2 {
  %3 = alloca %"struct.std::_Rb_tree_const_iterator", align 8, !llfi_index !745
  %4 = alloca %"class.std::multiset"*, align 8, !llfi_index !746
  %5 = alloca i32*, align 8, !llfi_index !747
  %6 = alloca %"struct.std::_Rb_tree_const_iterator", align 8, !llfi_index !748
  store %"class.std::multiset"* %0, %"class.std::multiset"** %4, align 8, !llfi_index !749
  store i32* %1, i32** %5, align 8, !llfi_index !750
  %7 = load %"class.std::multiset"*, %"class.std::multiset"** %4, align 8, !llfi_index !751
  %8 = getelementptr inbounds %"class.std::multiset", %"class.std::multiset"* %7, i32 0, i32 0, !llfi_index !752
  %9 = load i32*, i32** %5, align 8, !llfi_index !753
  %10 = call %"struct.std::_Rb_tree_node_base"* @_ZNSt8_Rb_treeIiiSt9_IdentityIiESt4lessIiESaIiEE15_M_insert_equalIRKiEESt17_Rb_tree_iteratorIiEOT_(%"class.std::_Rb_tree"* nonnull align 8 dereferenceable(48) %8, i32* nonnull align 4 dereferenceable(4) %9), !llfi_index !754
  %11 = getelementptr inbounds %"struct.std::_Rb_tree_const_iterator", %"struct.std::_Rb_tree_const_iterator"* %6, i32 0, i32 0, !llfi_index !755
  store %"struct.std::_Rb_tree_node_base"* %10, %"struct.std::_Rb_tree_node_base"** %11, align 8, !llfi_index !756
  call void @_ZNSt23_Rb_tree_const_iteratorIiEC2ERKSt17_Rb_tree_iteratorIiE(%"struct.std::_Rb_tree_const_iterator"* nonnull align 8 dereferenceable(8) %3, %"struct.std::_Rb_tree_const_iterator"* nonnull align 8 dereferenceable(8) %6) #2, !llfi_index !757
  %12 = getelementptr inbounds %"struct.std::_Rb_tree_const_iterator", %"struct.std::_Rb_tree_const_iterator"* %3, i32 0, i32 0, !llfi_index !758
  %13 = load %"struct.std::_Rb_tree_node_base"*, %"struct.std::_Rb_tree_node_base"** %12, align 8, !llfi_index !759
  ret %"struct.std::_Rb_tree_node_base"* %13, !llfi_index !760
}

; Function Attrs: mustprogress noinline uwtable
define linkonce_odr dso_local %"struct.std::_Rb_tree_node_base"* @_ZNSt8multisetIiSt4lessIiESaIiEE5eraseB5cxx11ESt23_Rb_tree_const_iteratorIiE(%"class.std::multiset"* nonnull align 8 dereferenceable(48) %0, %"struct.std::_Rb_tree_node_base"* %1) #4 comdat align 2 {
  %3 = alloca %"struct.std::_Rb_tree_const_iterator", align 8, !llfi_index !761
  %4 = alloca %"struct.std::_Rb_tree_const_iterator", align 8, !llfi_index !762
  %5 = alloca %"class.std::multiset"*, align 8, !llfi_index !763
  %6 = alloca %"struct.std::_Rb_tree_const_iterator", align 8, !llfi_index !764
  %7 = alloca %"struct.std::_Rb_tree_const_iterator", align 8, !llfi_index !765
  %8 = getelementptr inbounds %"struct.std::_Rb_tree_const_iterator", %"struct.std::_Rb_tree_const_iterator"* %4, i32 0, i32 0, !llfi_index !766
  store %"struct.std::_Rb_tree_node_base"* %1, %"struct.std::_Rb_tree_node_base"** %8, align 8, !llfi_index !767
  store %"class.std::multiset"* %0, %"class.std::multiset"** %5, align 8, !llfi_index !768
  %9 = load %"class.std::multiset"*, %"class.std::multiset"** %5, align 8, !llfi_index !769
  %10 = getelementptr inbounds %"class.std::multiset", %"class.std::multiset"* %9, i32 0, i32 0, !llfi_index !770
  %11 = bitcast %"struct.std::_Rb_tree_const_iterator"* %7 to i8*, !llfi_index !771
  %12 = bitcast %"struct.std::_Rb_tree_const_iterator"* %4 to i8*, !llfi_index !772
  call void @llvm.memcpy.p0i8.p0i8.i64(i8* align 8 %11, i8* align 8 %12, i64 8, i1 false), !llfi_index !773
  %13 = getelementptr inbounds %"struct.std::_Rb_tree_const_iterator", %"struct.std::_Rb_tree_const_iterator"* %7, i32 0, i32 0, !llfi_index !774
  %14 = load %"struct.std::_Rb_tree_node_base"*, %"struct.std::_Rb_tree_node_base"** %13, align 8, !llfi_index !775
  %15 = call %"struct.std::_Rb_tree_node_base"* @_ZNSt8_Rb_treeIiiSt9_IdentityIiESt4lessIiESaIiEE5eraseB5cxx11ESt23_Rb_tree_const_iteratorIiE(%"class.std::_Rb_tree"* nonnull align 8 dereferenceable(48) %10, %"struct.std::_Rb_tree_node_base"* %14), !llfi_index !776
  %16 = getelementptr inbounds %"struct.std::_Rb_tree_const_iterator", %"struct.std::_Rb_tree_const_iterator"* %6, i32 0, i32 0, !llfi_index !777
  store %"struct.std::_Rb_tree_node_base"* %15, %"struct.std::_Rb_tree_node_base"** %16, align 8, !llfi_index !778
  call void @_ZNSt23_Rb_tree_const_iteratorIiEC2ERKSt17_Rb_tree_iteratorIiE(%"struct.std::_Rb_tree_const_iterator"* nonnull align 8 dereferenceable(8) %3, %"struct.std::_Rb_tree_const_iterator"* nonnull align 8 dereferenceable(8) %6) #2, !llfi_index !779
  %17 = getelementptr inbounds %"struct.std::_Rb_tree_const_iterator", %"struct.std::_Rb_tree_const_iterator"* %3, i32 0, i32 0, !llfi_index !780
  %18 = load %"struct.std::_Rb_tree_node_base"*, %"struct.std::_Rb_tree_node_base"** %17, align 8, !llfi_index !781
  ret %"struct.std::_Rb_tree_node_base"* %18, !llfi_index !782
}

; Function Attrs: mustprogress noinline nounwind uwtable
define linkonce_odr dso_local nonnull align 8 dereferenceable(8) %"class.__gnu_cxx::__normal_iterator"* @_ZN9__gnu_cxx17__normal_iteratorIPiSt6vectorIiSaIiEEEppEv(%"class.__gnu_cxx::__normal_iterator"* nonnull align 8 dereferenceable(8) %0) #3 comdat align 2 {
  %2 = alloca %"class.__gnu_cxx::__normal_iterator"*, align 8, !llfi_index !783
  store %"class.__gnu_cxx::__normal_iterator"* %0, %"class.__gnu_cxx::__normal_iterator"** %2, align 8, !llfi_index !784
  %3 = load %"class.__gnu_cxx::__normal_iterator"*, %"class.__gnu_cxx::__normal_iterator"** %2, align 8, !llfi_index !785
  %4 = getelementptr inbounds %"class.__gnu_cxx::__normal_iterator", %"class.__gnu_cxx::__normal_iterator"* %3, i32 0, i32 0, !llfi_index !786
  %5 = load i32*, i32** %4, align 8, !llfi_index !787
  %6 = getelementptr inbounds i32, i32* %5, i32 1, !llfi_index !788
  store i32* %6, i32** %4, align 8, !llfi_index !789
  ret %"class.__gnu_cxx::__normal_iterator"* %3, !llfi_index !790
}

; Function Attrs: mustprogress noinline uwtable
define linkonce_odr dso_local %"struct.std::_Rb_tree_node_base"* @_ZNSt8multisetIiSt4lessIiESaIiEE11lower_boundERKi(%"class.std::multiset"* nonnull align 8 dereferenceable(48) %0, i32* nonnull align 4 dereferenceable(4) %1) #4 comdat align 2 {
  %3 = alloca %"struct.std::_Rb_tree_const_iterator", align 8, !llfi_index !791
  %4 = alloca %"class.std::multiset"*, align 8, !llfi_index !792
  %5 = alloca i32*, align 8, !llfi_index !793
  %6 = alloca %"struct.std::_Rb_tree_const_iterator", align 8, !llfi_index !794
  store %"class.std::multiset"* %0, %"class.std::multiset"** %4, align 8, !llfi_index !795
  store i32* %1, i32** %5, align 8, !llfi_index !796
  %7 = load %"class.std::multiset"*, %"class.std::multiset"** %4, align 8, !llfi_index !797
  %8 = getelementptr inbounds %"class.std::multiset", %"class.std::multiset"* %7, i32 0, i32 0, !llfi_index !798
  %9 = load i32*, i32** %5, align 8, !llfi_index !799
  %10 = call %"struct.std::_Rb_tree_node_base"* @_ZNSt8_Rb_treeIiiSt9_IdentityIiESt4lessIiESaIiEE11lower_boundERKi(%"class.std::_Rb_tree"* nonnull align 8 dereferenceable(48) %8, i32* nonnull align 4 dereferenceable(4) %9), !llfi_index !800
  %11 = getelementptr inbounds %"struct.std::_Rb_tree_const_iterator", %"struct.std::_Rb_tree_const_iterator"* %6, i32 0, i32 0, !llfi_index !801
  store %"struct.std::_Rb_tree_node_base"* %10, %"struct.std::_Rb_tree_node_base"** %11, align 8, !llfi_index !802
  call void @_ZNSt23_Rb_tree_const_iteratorIiEC2ERKSt17_Rb_tree_iteratorIiE(%"struct.std::_Rb_tree_const_iterator"* nonnull align 8 dereferenceable(8) %3, %"struct.std::_Rb_tree_const_iterator"* nonnull align 8 dereferenceable(8) %6) #2, !llfi_index !803
  %12 = getelementptr inbounds %"struct.std::_Rb_tree_const_iterator", %"struct.std::_Rb_tree_const_iterator"* %3, i32 0, i32 0, !llfi_index !804
  %13 = load %"struct.std::_Rb_tree_node_base"*, %"struct.std::_Rb_tree_node_base"** %12, align 8, !llfi_index !805
  ret %"struct.std::_Rb_tree_node_base"* %13, !llfi_index !806
}

; Function Attrs: mustprogress noinline nounwind uwtable
define linkonce_odr dso_local %"struct.std::_Rb_tree_node_base"* @_ZNKSt8multisetIiSt4lessIiESaIiEE3endEv(%"class.std::multiset"* nonnull align 8 dereferenceable(48) %0) #3 comdat align 2 {
  %2 = alloca %"struct.std::_Rb_tree_const_iterator", align 8, !llfi_index !807
  %3 = alloca %"class.std::multiset"*, align 8, !llfi_index !808
  store %"class.std::multiset"* %0, %"class.std::multiset"** %3, align 8, !llfi_index !809
  %4 = load %"class.std::multiset"*, %"class.std::multiset"** %3, align 8, !llfi_index !810
  %5 = getelementptr inbounds %"class.std::multiset", %"class.std::multiset"* %4, i32 0, i32 0, !llfi_index !811
  %6 = call %"struct.std::_Rb_tree_node_base"* @_ZNKSt8_Rb_treeIiiSt9_IdentityIiESt4lessIiESaIiEE3endEv(%"class.std::_Rb_tree"* nonnull align 8 dereferenceable(48) %5) #2, !llfi_index !812
  %7 = getelementptr inbounds %"struct.std::_Rb_tree_const_iterator", %"struct.std::_Rb_tree_const_iterator"* %2, i32 0, i32 0, !llfi_index !813
  store %"struct.std::_Rb_tree_node_base"* %6, %"struct.std::_Rb_tree_node_base"** %7, align 8, !llfi_index !814
  %8 = getelementptr inbounds %"struct.std::_Rb_tree_const_iterator", %"struct.std::_Rb_tree_const_iterator"* %2, i32 0, i32 0, !llfi_index !815
  %9 = load %"struct.std::_Rb_tree_node_base"*, %"struct.std::_Rb_tree_node_base"** %8, align 8, !llfi_index !816
  ret %"struct.std::_Rb_tree_node_base"* %9, !llfi_index !817
}

; Function Attrs: mustprogress noinline nounwind uwtable
define linkonce_odr dso_local zeroext i1 @_ZStneRKSt23_Rb_tree_const_iteratorIiES2_(%"struct.std::_Rb_tree_const_iterator"* nonnull align 8 dereferenceable(8) %0, %"struct.std::_Rb_tree_const_iterator"* nonnull align 8 dereferenceable(8) %1) #3 comdat {
  %3 = alloca %"struct.std::_Rb_tree_const_iterator"*, align 8, !llfi_index !818
  %4 = alloca %"struct.std::_Rb_tree_const_iterator"*, align 8, !llfi_index !819
  store %"struct.std::_Rb_tree_const_iterator"* %0, %"struct.std::_Rb_tree_const_iterator"** %3, align 8, !llfi_index !820
  store %"struct.std::_Rb_tree_const_iterator"* %1, %"struct.std::_Rb_tree_const_iterator"** %4, align 8, !llfi_index !821
  %5 = load %"struct.std::_Rb_tree_const_iterator"*, %"struct.std::_Rb_tree_const_iterator"** %3, align 8, !llfi_index !822
  %6 = getelementptr inbounds %"struct.std::_Rb_tree_const_iterator", %"struct.std::_Rb_tree_const_iterator"* %5, i32 0, i32 0, !llfi_index !823
  %7 = load %"struct.std::_Rb_tree_node_base"*, %"struct.std::_Rb_tree_node_base"** %6, align 8, !llfi_index !824
  %8 = load %"struct.std::_Rb_tree_const_iterator"*, %"struct.std::_Rb_tree_const_iterator"** %4, align 8, !llfi_index !825
  %9 = getelementptr inbounds %"struct.std::_Rb_tree_const_iterator", %"struct.std::_Rb_tree_const_iterator"* %8, i32 0, i32 0, !llfi_index !826
  %10 = load %"struct.std::_Rb_tree_node_base"*, %"struct.std::_Rb_tree_node_base"** %9, align 8, !llfi_index !827
  %11 = icmp ne %"struct.std::_Rb_tree_node_base"* %7, %10, !llfi_index !828
  ret i1 %11, !llfi_index !829
}

; Function Attrs: argmemonly nofree nounwind willreturn
declare void @llvm.memcpy.p0i8.p0i8.i64(i8* noalias nocapture writeonly, i8* noalias nocapture readonly, i64, i1 immarg) #9

; Function Attrs: mustprogress noinline uwtable
define linkonce_odr dso_local %"struct.std::_Rb_tree_node_base"* @_ZNSt8multisetIiSt4lessIiESaIiEE6insertEOi(%"class.std::multiset"* nonnull align 8 dereferenceable(48) %0, i32* nonnull align 4 dereferenceable(4) %1) #4 comdat align 2 {
  %3 = alloca %"struct.std::_Rb_tree_const_iterator", align 8, !llfi_index !830
  %4 = alloca %"class.std::multiset"*, align 8, !llfi_index !831
  %5 = alloca i32*, align 8, !llfi_index !832
  %6 = alloca %"struct.std::_Rb_tree_const_iterator", align 8, !llfi_index !833
  store %"class.std::multiset"* %0, %"class.std::multiset"** %4, align 8, !llfi_index !834
  store i32* %1, i32** %5, align 8, !llfi_index !835
  %7 = load %"class.std::multiset"*, %"class.std::multiset"** %4, align 8, !llfi_index !836
  %8 = getelementptr inbounds %"class.std::multiset", %"class.std::multiset"* %7, i32 0, i32 0, !llfi_index !837
  %9 = load i32*, i32** %5, align 8, !llfi_index !838
  %10 = call nonnull align 4 dereferenceable(4) i32* @_ZSt4moveIRiEONSt16remove_referenceIT_E4typeEOS2_(i32* nonnull align 4 dereferenceable(4) %9) #2, !llfi_index !839
  %11 = call %"struct.std::_Rb_tree_node_base"* @_ZNSt8_Rb_treeIiiSt9_IdentityIiESt4lessIiESaIiEE15_M_insert_equalIiEESt17_Rb_tree_iteratorIiEOT_(%"class.std::_Rb_tree"* nonnull align 8 dereferenceable(48) %8, i32* nonnull align 4 dereferenceable(4) %10), !llfi_index !840
  %12 = getelementptr inbounds %"struct.std::_Rb_tree_const_iterator", %"struct.std::_Rb_tree_const_iterator"* %6, i32 0, i32 0, !llfi_index !841
  store %"struct.std::_Rb_tree_node_base"* %11, %"struct.std::_Rb_tree_node_base"** %12, align 8, !llfi_index !842
  call void @_ZNSt23_Rb_tree_const_iteratorIiEC2ERKSt17_Rb_tree_iteratorIiE(%"struct.std::_Rb_tree_const_iterator"* nonnull align 8 dereferenceable(8) %3, %"struct.std::_Rb_tree_const_iterator"* nonnull align 8 dereferenceable(8) %6) #2, !llfi_index !843
  %13 = getelementptr inbounds %"struct.std::_Rb_tree_const_iterator", %"struct.std::_Rb_tree_const_iterator"* %3, i32 0, i32 0, !llfi_index !844
  %14 = load %"struct.std::_Rb_tree_node_base"*, %"struct.std::_Rb_tree_node_base"** %13, align 8, !llfi_index !845
  ret %"struct.std::_Rb_tree_node_base"* %14, !llfi_index !846
}

; Function Attrs: mustprogress noinline nounwind uwtable
define linkonce_odr dso_local nonnull align 4 dereferenceable(4) i32* @_ZSt4moveIRiEONSt16remove_referenceIT_E4typeEOS2_(i32* nonnull align 4 dereferenceable(4) %0) #3 comdat {
  %2 = alloca i32*, align 8, !llfi_index !847
  store i32* %0, i32** %2, align 8, !llfi_index !848
  %3 = load i32*, i32** %2, align 8, !llfi_index !849
  ret i32* %3, !llfi_index !850
}

; Function Attrs: mustprogress noinline uwtable
define linkonce_odr dso_local %"struct.std::_Rb_tree_node_base"* @_ZNSt8_Rb_treeIiiSt9_IdentityIiESt4lessIiESaIiEE15_M_insert_equalIiEESt17_Rb_tree_iteratorIiEOT_(%"class.std::_Rb_tree"* nonnull align 8 dereferenceable(48) %0, i32* nonnull align 4 dereferenceable(4) %1) #4 comdat align 2 {
  %3 = alloca %"struct.std::_Rb_tree_const_iterator", align 8, !llfi_index !851
  %4 = alloca %"class.std::_Rb_tree"*, align 8, !llfi_index !852
  %5 = alloca i32*, align 8, !llfi_index !853
  %6 = alloca %"struct.std::pair", align 8, !llfi_index !854
  %7 = alloca %"struct.std::less", align 1, !llfi_index !855
  %8 = alloca %"struct.std::_Rb_tree<int, int, std::_Identity<int>, std::less<int>>::_Alloc_node", align 8, !llfi_index !856
  store %"class.std::_Rb_tree"* %0, %"class.std::_Rb_tree"** %4, align 8, !llfi_index !857
  store i32* %1, i32** %5, align 8, !llfi_index !858
  %9 = load %"class.std::_Rb_tree"*, %"class.std::_Rb_tree"** %4, align 8, !llfi_index !859
  %10 = load i32*, i32** %5, align 8, !llfi_index !860
  %11 = call nonnull align 4 dereferenceable(4) i32* @_ZNKSt9_IdentityIiEclERi(%"struct.std::less"* nonnull align 1 dereferenceable(1) %7, i32* nonnull align 4 dereferenceable(4) %10), !llfi_index !861
  %12 = call { %"struct.std::_Rb_tree_node_base"*, %"struct.std::_Rb_tree_node_base"* } @_ZNSt8_Rb_treeIiiSt9_IdentityIiESt4lessIiESaIiEE23_M_get_insert_equal_posERKi(%"class.std::_Rb_tree"* nonnull align 8 dereferenceable(48) %9, i32* nonnull align 4 dereferenceable(4) %11), !llfi_index !862
  %13 = bitcast %"struct.std::pair"* %6 to { %"struct.std::_Rb_tree_node_base"*, %"struct.std::_Rb_tree_node_base"* }*, !llfi_index !863
  %14 = getelementptr inbounds { %"struct.std::_Rb_tree_node_base"*, %"struct.std::_Rb_tree_node_base"* }, { %"struct.std::_Rb_tree_node_base"*, %"struct.std::_Rb_tree_node_base"* }* %13, i32 0, i32 0, !llfi_index !864
  %15 = extractvalue { %"struct.std::_Rb_tree_node_base"*, %"struct.std::_Rb_tree_node_base"* } %12, 0, !llfi_index !865
  store %"struct.std::_Rb_tree_node_base"* %15, %"struct.std::_Rb_tree_node_base"** %14, align 8, !llfi_index !866
  %16 = getelementptr inbounds { %"struct.std::_Rb_tree_node_base"*, %"struct.std::_Rb_tree_node_base"* }, { %"struct.std::_Rb_tree_node_base"*, %"struct.std::_Rb_tree_node_base"* }* %13, i32 0, i32 1, !llfi_index !867
  %17 = extractvalue { %"struct.std::_Rb_tree_node_base"*, %"struct.std::_Rb_tree_node_base"* } %12, 1, !llfi_index !868
  store %"struct.std::_Rb_tree_node_base"* %17, %"struct.std::_Rb_tree_node_base"** %16, align 8, !llfi_index !869
  call void @_ZNSt8_Rb_treeIiiSt9_IdentityIiESt4lessIiESaIiEE11_Alloc_nodeC2ERS5_(%"struct.std::_Rb_tree<int, int, std::_Identity<int>, std::less<int>>::_Alloc_node"* nonnull align 8 dereferenceable(8) %8, %"class.std::_Rb_tree"* nonnull align 8 dereferenceable(48) %9), !llfi_index !870
  %18 = getelementptr inbounds %"struct.std::pair", %"struct.std::pair"* %6, i32 0, i32 0, !llfi_index !871
  %19 = load %"struct.std::_Rb_tree_node_base"*, %"struct.std::_Rb_tree_node_base"** %18, align 8, !llfi_index !872
  %20 = getelementptr inbounds %"struct.std::pair", %"struct.std::pair"* %6, i32 0, i32 1, !llfi_index !873
  %21 = load %"struct.std::_Rb_tree_node_base"*, %"struct.std::_Rb_tree_node_base"** %20, align 8, !llfi_index !874
  %22 = load i32*, i32** %5, align 8, !llfi_index !875
  %23 = call nonnull align 4 dereferenceable(4) i32* @_ZSt7forwardIiEOT_RNSt16remove_referenceIS0_E4typeE(i32* nonnull align 4 dereferenceable(4) %22) #2, !llfi_index !876
  %24 = call %"struct.std::_Rb_tree_node_base"* @_ZNSt8_Rb_treeIiiSt9_IdentityIiESt4lessIiESaIiEE10_M_insert_IiNS5_11_Alloc_nodeEEESt17_Rb_tree_iteratorIiEPSt18_Rb_tree_node_baseSB_OT_RT0_(%"class.std::_Rb_tree"* nonnull align 8 dereferenceable(48) %9, %"struct.std::_Rb_tree_node_base"* %19, %"struct.std::_Rb_tree_node_base"* %21, i32* nonnull align 4 dereferenceable(4) %23, %"struct.std::_Rb_tree<int, int, std::_Identity<int>, std::less<int>>::_Alloc_node"* nonnull align 8 dereferenceable(8) %8), !llfi_index !877
  %25 = getelementptr inbounds %"struct.std::_Rb_tree_const_iterator", %"struct.std::_Rb_tree_const_iterator"* %3, i32 0, i32 0, !llfi_index !878
  store %"struct.std::_Rb_tree_node_base"* %24, %"struct.std::_Rb_tree_node_base"** %25, align 8, !llfi_index !879
  %26 = getelementptr inbounds %"struct.std::_Rb_tree_const_iterator", %"struct.std::_Rb_tree_const_iterator"* %3, i32 0, i32 0, !llfi_index !880
  %27 = load %"struct.std::_Rb_tree_node_base"*, %"struct.std::_Rb_tree_node_base"** %26, align 8, !llfi_index !881
  ret %"struct.std::_Rb_tree_node_base"* %27, !llfi_index !882
}

; Function Attrs: noinline nounwind uwtable
define linkonce_odr dso_local void @_ZNSt23_Rb_tree_const_iteratorIiEC2ERKSt17_Rb_tree_iteratorIiE(%"struct.std::_Rb_tree_const_iterator"* nonnull align 8 dereferenceable(8) %0, %"struct.std::_Rb_tree_const_iterator"* nonnull align 8 dereferenceable(8) %1) unnamed_addr #1 comdat align 2 {
  %3 = alloca %"struct.std::_Rb_tree_const_iterator"*, align 8, !llfi_index !883
  %4 = alloca %"struct.std::_Rb_tree_const_iterator"*, align 8, !llfi_index !884
  store %"struct.std::_Rb_tree_const_iterator"* %0, %"struct.std::_Rb_tree_const_iterator"** %3, align 8, !llfi_index !885
  store %"struct.std::_Rb_tree_const_iterator"* %1, %"struct.std::_Rb_tree_const_iterator"** %4, align 8, !llfi_index !886
  %5 = load %"struct.std::_Rb_tree_const_iterator"*, %"struct.std::_Rb_tree_const_iterator"** %3, align 8, !llfi_index !887
  %6 = getelementptr inbounds %"struct.std::_Rb_tree_const_iterator", %"struct.std::_Rb_tree_const_iterator"* %5, i32 0, i32 0, !llfi_index !888
  %7 = load %"struct.std::_Rb_tree_const_iterator"*, %"struct.std::_Rb_tree_const_iterator"** %4, align 8, !llfi_index !889
  %8 = getelementptr inbounds %"struct.std::_Rb_tree_const_iterator", %"struct.std::_Rb_tree_const_iterator"* %7, i32 0, i32 0, !llfi_index !890
  %9 = load %"struct.std::_Rb_tree_node_base"*, %"struct.std::_Rb_tree_node_base"** %8, align 8, !llfi_index !891
  store %"struct.std::_Rb_tree_node_base"* %9, %"struct.std::_Rb_tree_node_base"** %6, align 8, !llfi_index !892
  ret void, !llfi_index !893
}

; Function Attrs: mustprogress noinline nounwind uwtable
define linkonce_odr dso_local nonnull align 4 dereferenceable(4) i32* @_ZNKSt9_IdentityIiEclERi(%"struct.std::less"* nonnull align 1 dereferenceable(1) %0, i32* nonnull align 4 dereferenceable(4) %1) #3 comdat align 2 {
  %3 = alloca %"struct.std::less"*, align 8, !llfi_index !894
  %4 = alloca i32*, align 8, !llfi_index !895
  store %"struct.std::less"* %0, %"struct.std::less"** %3, align 8, !llfi_index !896
  store i32* %1, i32** %4, align 8, !llfi_index !897
  %5 = load %"struct.std::less"*, %"struct.std::less"** %3, align 8, !llfi_index !898
  %6 = load i32*, i32** %4, align 8, !llfi_index !899
  ret i32* %6, !llfi_index !900
}

; Function Attrs: mustprogress noinline uwtable
define linkonce_odr dso_local { %"struct.std::_Rb_tree_node_base"*, %"struct.std::_Rb_tree_node_base"* } @_ZNSt8_Rb_treeIiiSt9_IdentityIiESt4lessIiESaIiEE23_M_get_insert_equal_posERKi(%"class.std::_Rb_tree"* nonnull align 8 dereferenceable(48) %0, i32* nonnull align 4 dereferenceable(4) %1) #4 comdat align 2 {
  %3 = alloca %"struct.std::pair", align 8, !llfi_index !901
  %4 = alloca %"class.std::_Rb_tree"*, align 8, !llfi_index !902
  %5 = alloca i32*, align 8, !llfi_index !903
  %6 = alloca %"struct.std::_Rb_tree_node"*, align 8, !llfi_index !904
  %7 = alloca %"struct.std::_Rb_tree_node_base"*, align 8, !llfi_index !905
  store %"class.std::_Rb_tree"* %0, %"class.std::_Rb_tree"** %4, align 8, !llfi_index !906
  store i32* %1, i32** %5, align 8, !llfi_index !907
  %8 = load %"class.std::_Rb_tree"*, %"class.std::_Rb_tree"** %4, align 8, !llfi_index !908
  %9 = call %"struct.std::_Rb_tree_node"* @_ZNSt8_Rb_treeIiiSt9_IdentityIiESt4lessIiESaIiEE8_M_beginEv(%"class.std::_Rb_tree"* nonnull align 8 dereferenceable(48) %8) #2, !llfi_index !909
  store %"struct.std::_Rb_tree_node"* %9, %"struct.std::_Rb_tree_node"** %6, align 8, !llfi_index !910
  %10 = call %"struct.std::_Rb_tree_node_base"* @_ZNSt8_Rb_treeIiiSt9_IdentityIiESt4lessIiESaIiEE6_M_endEv(%"class.std::_Rb_tree"* nonnull align 8 dereferenceable(48) %8) #2, !llfi_index !911
  store %"struct.std::_Rb_tree_node_base"* %10, %"struct.std::_Rb_tree_node_base"** %7, align 8, !llfi_index !912
  br label %11, !llfi_index !913

11:                                               ; preds = %32, %2
  %12 = load %"struct.std::_Rb_tree_node"*, %"struct.std::_Rb_tree_node"** %6, align 8, !llfi_index !914
  %13 = icmp ne %"struct.std::_Rb_tree_node"* %12, null, !llfi_index !915
  br i1 %13, label %14, label %34, !llfi_index !916

14:                                               ; preds = %11
  %15 = load %"struct.std::_Rb_tree_node"*, %"struct.std::_Rb_tree_node"** %6, align 8, !llfi_index !917
  %16 = bitcast %"struct.std::_Rb_tree_node"* %15 to %"struct.std::_Rb_tree_node_base"*, !llfi_index !918
  store %"struct.std::_Rb_tree_node_base"* %16, %"struct.std::_Rb_tree_node_base"** %7, align 8, !llfi_index !919
  %17 = getelementptr inbounds %"class.std::_Rb_tree", %"class.std::_Rb_tree"* %8, i32 0, i32 0, !llfi_index !920
  %18 = bitcast %"struct.std::_Rb_tree<int, int, std::_Identity<int>, std::less<int>>::_Rb_tree_impl"* %17 to %"struct.std::_Rb_tree_key_compare"*, !llfi_index !921
  %19 = getelementptr inbounds %"struct.std::_Rb_tree_key_compare", %"struct.std::_Rb_tree_key_compare"* %18, i32 0, i32 0, !llfi_index !922
  %20 = load i32*, i32** %5, align 8, !llfi_index !923
  %21 = load %"struct.std::_Rb_tree_node"*, %"struct.std::_Rb_tree_node"** %6, align 8, !llfi_index !924
  %22 = call nonnull align 4 dereferenceable(4) i32* @_ZNSt8_Rb_treeIiiSt9_IdentityIiESt4lessIiESaIiEE6_S_keyEPKSt13_Rb_tree_nodeIiE(%"struct.std::_Rb_tree_node"* %21), !llfi_index !925
  %23 = call zeroext i1 @_ZNKSt4lessIiEclERKiS2_(%"struct.std::less"* nonnull align 1 dereferenceable(1) %19, i32* nonnull align 4 dereferenceable(4) %20, i32* nonnull align 4 dereferenceable(4) %22), !llfi_index !926
  br i1 %23, label %24, label %28, !llfi_index !927

24:                                               ; preds = %14
  %25 = load %"struct.std::_Rb_tree_node"*, %"struct.std::_Rb_tree_node"** %6, align 8, !llfi_index !928
  %26 = bitcast %"struct.std::_Rb_tree_node"* %25 to %"struct.std::_Rb_tree_node_base"*, !llfi_index !929
  %27 = call %"struct.std::_Rb_tree_node"* @_ZNSt8_Rb_treeIiiSt9_IdentityIiESt4lessIiESaIiEE7_S_leftEPSt18_Rb_tree_node_base(%"struct.std::_Rb_tree_node_base"* %26) #2, !llfi_index !930
  br label %32, !llfi_index !931

28:                                               ; preds = %14
  %29 = load %"struct.std::_Rb_tree_node"*, %"struct.std::_Rb_tree_node"** %6, align 8, !llfi_index !932
  %30 = bitcast %"struct.std::_Rb_tree_node"* %29 to %"struct.std::_Rb_tree_node_base"*, !llfi_index !933
  %31 = call %"struct.std::_Rb_tree_node"* @_ZNSt8_Rb_treeIiiSt9_IdentityIiESt4lessIiESaIiEE8_S_rightEPSt18_Rb_tree_node_base(%"struct.std::_Rb_tree_node_base"* %30) #2, !llfi_index !934
  br label %32, !llfi_index !935

32:                                               ; preds = %28, %24
  %33 = phi %"struct.std::_Rb_tree_node"* [ %27, %24 ], [ %31, %28 ], !llfi_index !936
  store %"struct.std::_Rb_tree_node"* %33, %"struct.std::_Rb_tree_node"** %6, align 8, !llfi_index !937
  br label %11, !llvm.loop !938, !llfi_index !939

34:                                               ; preds = %11
  call void @_ZNSt4pairIPSt18_Rb_tree_node_baseS1_EC2IRPSt13_Rb_tree_nodeIiERS1_Lb1EEEOT_OT0_(%"struct.std::pair"* nonnull align 8 dereferenceable(16) %3, %"struct.std::_Rb_tree_node"** nonnull align 8 dereferenceable(8) %6, %"struct.std::_Rb_tree_node_base"** nonnull align 8 dereferenceable(8) %7), !llfi_index !940
  %35 = bitcast %"struct.std::pair"* %3 to { %"struct.std::_Rb_tree_node_base"*, %"struct.std::_Rb_tree_node_base"* }*, !llfi_index !941
  %36 = load { %"struct.std::_Rb_tree_node_base"*, %"struct.std::_Rb_tree_node_base"* }, { %"struct.std::_Rb_tree_node_base"*, %"struct.std::_Rb_tree_node_base"* }* %35, align 8, !llfi_index !942
  ret { %"struct.std::_Rb_tree_node_base"*, %"struct.std::_Rb_tree_node_base"* } %36, !llfi_index !943
}

; Function Attrs: noinline nounwind uwtable
define linkonce_odr dso_local void @_ZNSt8_Rb_treeIiiSt9_IdentityIiESt4lessIiESaIiEE11_Alloc_nodeC2ERS5_(%"struct.std::_Rb_tree<int, int, std::_Identity<int>, std::less<int>>::_Alloc_node"* nonnull align 8 dereferenceable(8) %0, %"class.std::_Rb_tree"* nonnull align 8 dereferenceable(48) %1) unnamed_addr #1 comdat align 2 {
  %3 = alloca %"struct.std::_Rb_tree<int, int, std::_Identity<int>, std::less<int>>::_Alloc_node"*, align 8, !llfi_index !944
  %4 = alloca %"class.std::_Rb_tree"*, align 8, !llfi_index !945
  store %"struct.std::_Rb_tree<int, int, std::_Identity<int>, std::less<int>>::_Alloc_node"* %0, %"struct.std::_Rb_tree<int, int, std::_Identity<int>, std::less<int>>::_Alloc_node"** %3, align 8, !llfi_index !946
  store %"class.std::_Rb_tree"* %1, %"class.std::_Rb_tree"** %4, align 8, !llfi_index !947
  %5 = load %"struct.std::_Rb_tree<int, int, std::_Identity<int>, std::less<int>>::_Alloc_node"*, %"struct.std::_Rb_tree<int, int, std::_Identity<int>, std::less<int>>::_Alloc_node"** %3, align 8, !llfi_index !948
  %6 = getelementptr inbounds %"struct.std::_Rb_tree<int, int, std::_Identity<int>, std::less<int>>::_Alloc_node", %"struct.std::_Rb_tree<int, int, std::_Identity<int>, std::less<int>>::_Alloc_node"* %5, i32 0, i32 0, !llfi_index !949
  %7 = load %"class.std::_Rb_tree"*, %"class.std::_Rb_tree"** %4, align 8, !llfi_index !950
  store %"class.std::_Rb_tree"* %7, %"class.std::_Rb_tree"** %6, align 8, !llfi_index !951
  ret void, !llfi_index !952
}

; Function Attrs: mustprogress noinline nounwind uwtable
define linkonce_odr dso_local nonnull align 4 dereferenceable(4) i32* @_ZSt7forwardIiEOT_RNSt16remove_referenceIS0_E4typeE(i32* nonnull align 4 dereferenceable(4) %0) #3 comdat {
  %2 = alloca i32*, align 8, !llfi_index !953
  store i32* %0, i32** %2, align 8, !llfi_index !954
  %3 = load i32*, i32** %2, align 8, !llfi_index !955
  ret i32* %3, !llfi_index !956
}

; Function Attrs: mustprogress noinline uwtable
define linkonce_odr dso_local %"struct.std::_Rb_tree_node_base"* @_ZNSt8_Rb_treeIiiSt9_IdentityIiESt4lessIiESaIiEE10_M_insert_IiNS5_11_Alloc_nodeEEESt17_Rb_tree_iteratorIiEPSt18_Rb_tree_node_baseSB_OT_RT0_(%"class.std::_Rb_tree"* nonnull align 8 dereferenceable(48) %0, %"struct.std::_Rb_tree_node_base"* %1, %"struct.std::_Rb_tree_node_base"* %2, i32* nonnull align 4 dereferenceable(4) %3, %"struct.std::_Rb_tree<int, int, std::_Identity<int>, std::less<int>>::_Alloc_node"* nonnull align 8 dereferenceable(8) %4) #4 comdat align 2 {
  %6 = alloca %"struct.std::_Rb_tree_const_iterator", align 8, !llfi_index !957
  %7 = alloca %"class.std::_Rb_tree"*, align 8, !llfi_index !958
  %8 = alloca %"struct.std::_Rb_tree_node_base"*, align 8, !llfi_index !959
  %9 = alloca %"struct.std::_Rb_tree_node_base"*, align 8, !llfi_index !960
  %10 = alloca i32*, align 8, !llfi_index !961
  %11 = alloca %"struct.std::_Rb_tree<int, int, std::_Identity<int>, std::less<int>>::_Alloc_node"*, align 8, !llfi_index !962
  %12 = alloca i8, align 1, !llfi_index !963
  %13 = alloca %"struct.std::less", align 1, !llfi_index !964
  %14 = alloca %"struct.std::_Rb_tree_node"*, align 8, !llfi_index !965
  store %"class.std::_Rb_tree"* %0, %"class.std::_Rb_tree"** %7, align 8, !llfi_index !966
  store %"struct.std::_Rb_tree_node_base"* %1, %"struct.std::_Rb_tree_node_base"** %8, align 8, !llfi_index !967
  store %"struct.std::_Rb_tree_node_base"* %2, %"struct.std::_Rb_tree_node_base"** %9, align 8, !llfi_index !968
  store i32* %3, i32** %10, align 8, !llfi_index !969
  store %"struct.std::_Rb_tree<int, int, std::_Identity<int>, std::less<int>>::_Alloc_node"* %4, %"struct.std::_Rb_tree<int, int, std::_Identity<int>, std::less<int>>::_Alloc_node"** %11, align 8, !llfi_index !970
  %15 = load %"class.std::_Rb_tree"*, %"class.std::_Rb_tree"** %7, align 8, !llfi_index !971
  %16 = load %"struct.std::_Rb_tree_node_base"*, %"struct.std::_Rb_tree_node_base"** %8, align 8, !llfi_index !972
  %17 = icmp ne %"struct.std::_Rb_tree_node_base"* %16, null, !llfi_index !973
  br i1 %17, label %31, label %18, !llfi_index !974

18:                                               ; preds = %5
  %19 = load %"struct.std::_Rb_tree_node_base"*, %"struct.std::_Rb_tree_node_base"** %9, align 8, !llfi_index !975
  %20 = call %"struct.std::_Rb_tree_node_base"* @_ZNSt8_Rb_treeIiiSt9_IdentityIiESt4lessIiESaIiEE6_M_endEv(%"class.std::_Rb_tree"* nonnull align 8 dereferenceable(48) %15) #2, !llfi_index !976
  %21 = icmp eq %"struct.std::_Rb_tree_node_base"* %19, %20, !llfi_index !977
  br i1 %21, label %31, label %22, !llfi_index !978

22:                                               ; preds = %18
  %23 = getelementptr inbounds %"class.std::_Rb_tree", %"class.std::_Rb_tree"* %15, i32 0, i32 0, !llfi_index !979
  %24 = bitcast %"struct.std::_Rb_tree<int, int, std::_Identity<int>, std::less<int>>::_Rb_tree_impl"* %23 to %"struct.std::_Rb_tree_key_compare"*, !llfi_index !980
  %25 = getelementptr inbounds %"struct.std::_Rb_tree_key_compare", %"struct.std::_Rb_tree_key_compare"* %24, i32 0, i32 0, !llfi_index !981
  %26 = load i32*, i32** %10, align 8, !llfi_index !982
  %27 = call nonnull align 4 dereferenceable(4) i32* @_ZNKSt9_IdentityIiEclERi(%"struct.std::less"* nonnull align 1 dereferenceable(1) %13, i32* nonnull align 4 dereferenceable(4) %26), !llfi_index !983
  %28 = load %"struct.std::_Rb_tree_node_base"*, %"struct.std::_Rb_tree_node_base"** %9, align 8, !llfi_index !984
  %29 = call nonnull align 4 dereferenceable(4) i32* @_ZNSt8_Rb_treeIiiSt9_IdentityIiESt4lessIiESaIiEE6_S_keyEPKSt18_Rb_tree_node_base(%"struct.std::_Rb_tree_node_base"* %28), !llfi_index !985
  %30 = call zeroext i1 @_ZNKSt4lessIiEclERKiS2_(%"struct.std::less"* nonnull align 1 dereferenceable(1) %25, i32* nonnull align 4 dereferenceable(4) %27, i32* nonnull align 4 dereferenceable(4) %29), !llfi_index !986
  br label %31, !llfi_index !987

31:                                               ; preds = %22, %18, %5
  %32 = phi i1 [ true, %18 ], [ true, %5 ], [ %30, %22 ], !llfi_index !988
  %33 = zext i1 %32 to i8, !llfi_index !989
  store i8 %33, i8* %12, align 1, !llfi_index !990
  %34 = load %"struct.std::_Rb_tree<int, int, std::_Identity<int>, std::less<int>>::_Alloc_node"*, %"struct.std::_Rb_tree<int, int, std::_Identity<int>, std::less<int>>::_Alloc_node"** %11, align 8, !llfi_index !991
  %35 = load i32*, i32** %10, align 8, !llfi_index !992
  %36 = call nonnull align 4 dereferenceable(4) i32* @_ZSt7forwardIiEOT_RNSt16remove_referenceIS0_E4typeE(i32* nonnull align 4 dereferenceable(4) %35) #2, !llfi_index !993
  %37 = call %"struct.std::_Rb_tree_node"* @_ZNKSt8_Rb_treeIiiSt9_IdentityIiESt4lessIiESaIiEE11_Alloc_nodeclIiEEPSt13_Rb_tree_nodeIiEOT_(%"struct.std::_Rb_tree<int, int, std::_Identity<int>, std::less<int>>::_Alloc_node"* nonnull align 8 dereferenceable(8) %34, i32* nonnull align 4 dereferenceable(4) %36), !llfi_index !994
  store %"struct.std::_Rb_tree_node"* %37, %"struct.std::_Rb_tree_node"** %14, align 8, !llfi_index !995
  %38 = load i8, i8* %12, align 1, !llfi_index !996
  %39 = trunc i8 %38 to i1, !llfi_index !997
  %40 = load %"struct.std::_Rb_tree_node"*, %"struct.std::_Rb_tree_node"** %14, align 8, !llfi_index !998
  %41 = bitcast %"struct.std::_Rb_tree_node"* %40 to %"struct.std::_Rb_tree_node_base"*, !llfi_index !999
  %42 = load %"struct.std::_Rb_tree_node_base"*, %"struct.std::_Rb_tree_node_base"** %9, align 8, !llfi_index !1000
  %43 = getelementptr inbounds %"class.std::_Rb_tree", %"class.std::_Rb_tree"* %15, i32 0, i32 0, !llfi_index !1001
  %44 = bitcast %"struct.std::_Rb_tree<int, int, std::_Identity<int>, std::less<int>>::_Rb_tree_impl"* %43 to i8*, !llfi_index !1002
  %45 = getelementptr inbounds i8, i8* %44, i64 8, !llfi_index !1003
  %46 = bitcast i8* %45 to %"struct.std::_Rb_tree_header"*, !llfi_index !1004
  %47 = getelementptr inbounds %"struct.std::_Rb_tree_header", %"struct.std::_Rb_tree_header"* %46, i32 0, i32 0, !llfi_index !1005
  call void @_ZSt29_Rb_tree_insert_and_rebalancebPSt18_Rb_tree_node_baseS0_RS_(i1 zeroext %39, %"struct.std::_Rb_tree_node_base"* %41, %"struct.std::_Rb_tree_node_base"* %42, %"struct.std::_Rb_tree_node_base"* nonnull align 8 dereferenceable(32) %47) #2, !llfi_index !1006
  %48 = getelementptr inbounds %"class.std::_Rb_tree", %"class.std::_Rb_tree"* %15, i32 0, i32 0, !llfi_index !1007
  %49 = bitcast %"struct.std::_Rb_tree<int, int, std::_Identity<int>, std::less<int>>::_Rb_tree_impl"* %48 to i8*, !llfi_index !1008
  %50 = getelementptr inbounds i8, i8* %49, i64 8, !llfi_index !1009
  %51 = bitcast i8* %50 to %"struct.std::_Rb_tree_header"*, !llfi_index !1010
  %52 = getelementptr inbounds %"struct.std::_Rb_tree_header", %"struct.std::_Rb_tree_header"* %51, i32 0, i32 1, !llfi_index !1011
  %53 = load i64, i64* %52, align 8, !llfi_index !1012
  %54 = add i64 %53, 1, !llfi_index !1013
  store i64 %54, i64* %52, align 8, !llfi_index !1014
  %55 = load %"struct.std::_Rb_tree_node"*, %"struct.std::_Rb_tree_node"** %14, align 8, !llfi_index !1015
  %56 = bitcast %"struct.std::_Rb_tree_node"* %55 to %"struct.std::_Rb_tree_node_base"*, !llfi_index !1016
  call void @_ZNSt17_Rb_tree_iteratorIiEC2EPSt18_Rb_tree_node_base(%"struct.std::_Rb_tree_const_iterator"* nonnull align 8 dereferenceable(8) %6, %"struct.std::_Rb_tree_node_base"* %56) #2, !llfi_index !1017
  %57 = getelementptr inbounds %"struct.std::_Rb_tree_const_iterator", %"struct.std::_Rb_tree_const_iterator"* %6, i32 0, i32 0, !llfi_index !1018
  %58 = load %"struct.std::_Rb_tree_node_base"*, %"struct.std::_Rb_tree_node_base"** %57, align 8, !llfi_index !1019
  ret %"struct.std::_Rb_tree_node_base"* %58, !llfi_index !1020
}

; Function Attrs: mustprogress noinline nounwind uwtable
define linkonce_odr dso_local %"struct.std::_Rb_tree_node_base"* @_ZNSt8_Rb_treeIiiSt9_IdentityIiESt4lessIiESaIiEE6_M_endEv(%"class.std::_Rb_tree"* nonnull align 8 dereferenceable(48) %0) #3 comdat align 2 {
  %2 = alloca %"class.std::_Rb_tree"*, align 8, !llfi_index !1021
  store %"class.std::_Rb_tree"* %0, %"class.std::_Rb_tree"** %2, align 8, !llfi_index !1022
  %3 = load %"class.std::_Rb_tree"*, %"class.std::_Rb_tree"** %2, align 8, !llfi_index !1023
  %4 = getelementptr inbounds %"class.std::_Rb_tree", %"class.std::_Rb_tree"* %3, i32 0, i32 0, !llfi_index !1024
  %5 = bitcast %"struct.std::_Rb_tree<int, int, std::_Identity<int>, std::less<int>>::_Rb_tree_impl"* %4 to i8*, !llfi_index !1025
  %6 = getelementptr inbounds i8, i8* %5, i64 8, !llfi_index !1026
  %7 = bitcast i8* %6 to %"struct.std::_Rb_tree_header"*, !llfi_index !1027
  %8 = getelementptr inbounds %"struct.std::_Rb_tree_header", %"struct.std::_Rb_tree_header"* %7, i32 0, i32 0, !llfi_index !1028
  ret %"struct.std::_Rb_tree_node_base"* %8, !llfi_index !1029
}

; Function Attrs: mustprogress noinline uwtable
define linkonce_odr dso_local nonnull align 4 dereferenceable(4) i32* @_ZNSt8_Rb_treeIiiSt9_IdentityIiESt4lessIiESaIiEE6_S_keyEPKSt18_Rb_tree_node_base(%"struct.std::_Rb_tree_node_base"* %0) #4 comdat align 2 {
  %2 = alloca %"struct.std::_Rb_tree_node_base"*, align 8, !llfi_index !1030
  store %"struct.std::_Rb_tree_node_base"* %0, %"struct.std::_Rb_tree_node_base"** %2, align 8, !llfi_index !1031
  %3 = load %"struct.std::_Rb_tree_node_base"*, %"struct.std::_Rb_tree_node_base"** %2, align 8, !llfi_index !1032
  %4 = bitcast %"struct.std::_Rb_tree_node_base"* %3 to %"struct.std::_Rb_tree_node"*, !llfi_index !1033
  %5 = call nonnull align 4 dereferenceable(4) i32* @_ZNSt8_Rb_treeIiiSt9_IdentityIiESt4lessIiESaIiEE6_S_keyEPKSt13_Rb_tree_nodeIiE(%"struct.std::_Rb_tree_node"* %4), !llfi_index !1034
  ret i32* %5, !llfi_index !1035
}

; Function Attrs: mustprogress noinline nounwind uwtable
define linkonce_odr dso_local zeroext i1 @_ZNKSt4lessIiEclERKiS2_(%"struct.std::less"* nonnull align 1 dereferenceable(1) %0, i32* nonnull align 4 dereferenceable(4) %1, i32* nonnull align 4 dereferenceable(4) %2) #3 comdat align 2 {
  %4 = alloca %"struct.std::less"*, align 8, !llfi_index !1036
  %5 = alloca i32*, align 8, !llfi_index !1037
  %6 = alloca i32*, align 8, !llfi_index !1038
  store %"struct.std::less"* %0, %"struct.std::less"** %4, align 8, !llfi_index !1039
  store i32* %1, i32** %5, align 8, !llfi_index !1040
  store i32* %2, i32** %6, align 8, !llfi_index !1041
  %7 = load %"struct.std::less"*, %"struct.std::less"** %4, align 8, !llfi_index !1042
  %8 = load i32*, i32** %5, align 8, !llfi_index !1043
  %9 = load i32, i32* %8, align 4, !llfi_index !1044
  %10 = load i32*, i32** %6, align 8, !llfi_index !1045
  %11 = load i32, i32* %10, align 4, !llfi_index !1046
  %12 = icmp slt i32 %9, %11, !llfi_index !1047
  ret i1 %12, !llfi_index !1048
}

; Function Attrs: mustprogress noinline uwtable
define linkonce_odr dso_local %"struct.std::_Rb_tree_node"* @_ZNKSt8_Rb_treeIiiSt9_IdentityIiESt4lessIiESaIiEE11_Alloc_nodeclIiEEPSt13_Rb_tree_nodeIiEOT_(%"struct.std::_Rb_tree<int, int, std::_Identity<int>, std::less<int>>::_Alloc_node"* nonnull align 8 dereferenceable(8) %0, i32* nonnull align 4 dereferenceable(4) %1) #4 comdat align 2 {
  %3 = alloca %"struct.std::_Rb_tree<int, int, std::_Identity<int>, std::less<int>>::_Alloc_node"*, align 8, !llfi_index !1049
  %4 = alloca i32*, align 8, !llfi_index !1050
  store %"struct.std::_Rb_tree<int, int, std::_Identity<int>, std::less<int>>::_Alloc_node"* %0, %"struct.std::_Rb_tree<int, int, std::_Identity<int>, std::less<int>>::_Alloc_node"** %3, align 8, !llfi_index !1051
  store i32* %1, i32** %4, align 8, !llfi_index !1052
  %5 = load %"struct.std::_Rb_tree<int, int, std::_Identity<int>, std::less<int>>::_Alloc_node"*, %"struct.std::_Rb_tree<int, int, std::_Identity<int>, std::less<int>>::_Alloc_node"** %3, align 8, !llfi_index !1053
  %6 = getelementptr inbounds %"struct.std::_Rb_tree<int, int, std::_Identity<int>, std::less<int>>::_Alloc_node", %"struct.std::_Rb_tree<int, int, std::_Identity<int>, std::less<int>>::_Alloc_node"* %5, i32 0, i32 0, !llfi_index !1054
  %7 = load %"class.std::_Rb_tree"*, %"class.std::_Rb_tree"** %6, align 8, !llfi_index !1055
  %8 = load i32*, i32** %4, align 8, !llfi_index !1056
  %9 = call nonnull align 4 dereferenceable(4) i32* @_ZSt7forwardIiEOT_RNSt16remove_referenceIS0_E4typeE(i32* nonnull align 4 dereferenceable(4) %8) #2, !llfi_index !1057
  %10 = call %"struct.std::_Rb_tree_node"* @_ZNSt8_Rb_treeIiiSt9_IdentityIiESt4lessIiESaIiEE14_M_create_nodeIJiEEEPSt13_Rb_tree_nodeIiEDpOT_(%"class.std::_Rb_tree"* nonnull align 8 dereferenceable(48) %7, i32* nonnull align 4 dereferenceable(4) %9), !llfi_index !1058
  ret %"struct.std::_Rb_tree_node"* %10, !llfi_index !1059
}

; Function Attrs: nounwind
declare dso_local void @_ZSt29_Rb_tree_insert_and_rebalancebPSt18_Rb_tree_node_baseS0_RS_(i1 zeroext, %"struct.std::_Rb_tree_node_base"*, %"struct.std::_Rb_tree_node_base"*, %"struct.std::_Rb_tree_node_base"* nonnull align 8 dereferenceable(32)) #8

; Function Attrs: noinline nounwind uwtable
define linkonce_odr dso_local void @_ZNSt17_Rb_tree_iteratorIiEC2EPSt18_Rb_tree_node_base(%"struct.std::_Rb_tree_const_iterator"* nonnull align 8 dereferenceable(8) %0, %"struct.std::_Rb_tree_node_base"* %1) unnamed_addr #1 comdat align 2 {
  %3 = alloca %"struct.std::_Rb_tree_const_iterator"*, align 8, !llfi_index !1060
  %4 = alloca %"struct.std::_Rb_tree_node_base"*, align 8, !llfi_index !1061
  store %"struct.std::_Rb_tree_const_iterator"* %0, %"struct.std::_Rb_tree_const_iterator"** %3, align 8, !llfi_index !1062
  store %"struct.std::_Rb_tree_node_base"* %1, %"struct.std::_Rb_tree_node_base"** %4, align 8, !llfi_index !1063
  %5 = load %"struct.std::_Rb_tree_const_iterator"*, %"struct.std::_Rb_tree_const_iterator"** %3, align 8, !llfi_index !1064
  %6 = getelementptr inbounds %"struct.std::_Rb_tree_const_iterator", %"struct.std::_Rb_tree_const_iterator"* %5, i32 0, i32 0, !llfi_index !1065
  %7 = load %"struct.std::_Rb_tree_node_base"*, %"struct.std::_Rb_tree_node_base"** %4, align 8, !llfi_index !1066
  store %"struct.std::_Rb_tree_node_base"* %7, %"struct.std::_Rb_tree_node_base"** %6, align 8, !llfi_index !1067
  ret void, !llfi_index !1068
}

; Function Attrs: mustprogress noinline uwtable
define linkonce_odr dso_local %"struct.std::_Rb_tree_node"* @_ZNSt8_Rb_treeIiiSt9_IdentityIiESt4lessIiESaIiEE14_M_create_nodeIJiEEEPSt13_Rb_tree_nodeIiEDpOT_(%"class.std::_Rb_tree"* nonnull align 8 dereferenceable(48) %0, i32* nonnull align 4 dereferenceable(4) %1) #4 comdat align 2 {
  %3 = alloca %"class.std::_Rb_tree"*, align 8, !llfi_index !1069
  %4 = alloca i32*, align 8, !llfi_index !1070
  %5 = alloca %"struct.std::_Rb_tree_node"*, align 8, !llfi_index !1071
  store %"class.std::_Rb_tree"* %0, %"class.std::_Rb_tree"** %3, align 8, !llfi_index !1072
  store i32* %1, i32** %4, align 8, !llfi_index !1073
  %6 = load %"class.std::_Rb_tree"*, %"class.std::_Rb_tree"** %3, align 8, !llfi_index !1074
  %7 = call %"struct.std::_Rb_tree_node"* @_ZNSt8_Rb_treeIiiSt9_IdentityIiESt4lessIiESaIiEE11_M_get_nodeEv(%"class.std::_Rb_tree"* nonnull align 8 dereferenceable(48) %6), !llfi_index !1075
  store %"struct.std::_Rb_tree_node"* %7, %"struct.std::_Rb_tree_node"** %5, align 8, !llfi_index !1076
  %8 = load %"struct.std::_Rb_tree_node"*, %"struct.std::_Rb_tree_node"** %5, align 8, !llfi_index !1077
  %9 = load i32*, i32** %4, align 8, !llfi_index !1078
  %10 = call nonnull align 4 dereferenceable(4) i32* @_ZSt7forwardIiEOT_RNSt16remove_referenceIS0_E4typeE(i32* nonnull align 4 dereferenceable(4) %9) #2, !llfi_index !1079
  call void @_ZNSt8_Rb_treeIiiSt9_IdentityIiESt4lessIiESaIiEE17_M_construct_nodeIJiEEEvPSt13_Rb_tree_nodeIiEDpOT_(%"class.std::_Rb_tree"* nonnull align 8 dereferenceable(48) %6, %"struct.std::_Rb_tree_node"* %8, i32* nonnull align 4 dereferenceable(4) %10), !llfi_index !1080
  %11 = load %"struct.std::_Rb_tree_node"*, %"struct.std::_Rb_tree_node"** %5, align 8, !llfi_index !1081
  ret %"struct.std::_Rb_tree_node"* %11, !llfi_index !1082
}

; Function Attrs: mustprogress noinline uwtable
define linkonce_odr dso_local %"struct.std::_Rb_tree_node"* @_ZNSt8_Rb_treeIiiSt9_IdentityIiESt4lessIiESaIiEE11_M_get_nodeEv(%"class.std::_Rb_tree"* nonnull align 8 dereferenceable(48) %0) #4 comdat align 2 {
  %2 = alloca %"class.std::_Rb_tree"*, align 8, !llfi_index !1083
  store %"class.std::_Rb_tree"* %0, %"class.std::_Rb_tree"** %2, align 8, !llfi_index !1084
  %3 = load %"class.std::_Rb_tree"*, %"class.std::_Rb_tree"** %2, align 8, !llfi_index !1085
  %4 = call nonnull align 1 dereferenceable(1) %"struct.std::less"* @_ZNSt8_Rb_treeIiiSt9_IdentityIiESt4lessIiESaIiEE21_M_get_Node_allocatorEv(%"class.std::_Rb_tree"* nonnull align 8 dereferenceable(48) %3) #2, !llfi_index !1086
  %5 = call %"struct.std::_Rb_tree_node"* @_ZNSt16allocator_traitsISaISt13_Rb_tree_nodeIiEEE8allocateERS2_m(%"struct.std::less"* nonnull align 1 dereferenceable(1) %4, i64 1), !llfi_index !1087
  ret %"struct.std::_Rb_tree_node"* %5, !llfi_index !1088
}

; Function Attrs: mustprogress noinline nounwind uwtable
define linkonce_odr dso_local void @_ZNSt8_Rb_treeIiiSt9_IdentityIiESt4lessIiESaIiEE17_M_construct_nodeIJiEEEvPSt13_Rb_tree_nodeIiEDpOT_(%"class.std::_Rb_tree"* nonnull align 8 dereferenceable(48) %0, %"struct.std::_Rb_tree_node"* %1, i32* nonnull align 4 dereferenceable(4) %2) #3 comdat align 2 {
  %4 = alloca %"class.std::_Rb_tree"*, align 8, !llfi_index !1089
  %5 = alloca %"struct.std::_Rb_tree_node"*, align 8, !llfi_index !1090
  %6 = alloca i32*, align 8, !llfi_index !1091
  store %"class.std::_Rb_tree"* %0, %"class.std::_Rb_tree"** %4, align 8, !llfi_index !1092
  store %"struct.std::_Rb_tree_node"* %1, %"struct.std::_Rb_tree_node"** %5, align 8, !llfi_index !1093
  store i32* %2, i32** %6, align 8, !llfi_index !1094
  %7 = load %"class.std::_Rb_tree"*, %"class.std::_Rb_tree"** %4, align 8, !llfi_index !1095
  %8 = load %"struct.std::_Rb_tree_node"*, %"struct.std::_Rb_tree_node"** %5, align 8, !llfi_index !1096
  %9 = bitcast %"struct.std::_Rb_tree_node"* %8 to i8*, !llfi_index !1097
  %10 = bitcast i8* %9 to %"struct.std::_Rb_tree_node"*, !llfi_index !1098
  %11 = call nonnull align 1 dereferenceable(1) %"struct.std::less"* @_ZNSt8_Rb_treeIiiSt9_IdentityIiESt4lessIiESaIiEE21_M_get_Node_allocatorEv(%"class.std::_Rb_tree"* nonnull align 8 dereferenceable(48) %7) #2, !llfi_index !1099
  %12 = load %"struct.std::_Rb_tree_node"*, %"struct.std::_Rb_tree_node"** %5, align 8, !llfi_index !1100
  %13 = call i32* @_ZNSt13_Rb_tree_nodeIiE9_M_valptrEv(%"struct.std::_Rb_tree_node"* nonnull align 8 dereferenceable(36) %12), !llfi_index !1101
  %14 = load i32*, i32** %6, align 8, !llfi_index !1102
  %15 = call nonnull align 4 dereferenceable(4) i32* @_ZSt7forwardIiEOT_RNSt16remove_referenceIS0_E4typeE(i32* nonnull align 4 dereferenceable(4) %14) #2, !llfi_index !1103
  call void @_ZNSt16allocator_traitsISaISt13_Rb_tree_nodeIiEEE9constructIiJiEEEvRS2_PT_DpOT0_(%"struct.std::less"* nonnull align 1 dereferenceable(1) %11, i32* %13, i32* nonnull align 4 dereferenceable(4) %15) #2, !llfi_index !1104
  ret void, !llfi_index !1105
}

; Function Attrs: mustprogress noinline nounwind uwtable
define linkonce_odr dso_local void @_ZNSt16allocator_traitsISaISt13_Rb_tree_nodeIiEEE9constructIiJiEEEvRS2_PT_DpOT0_(%"struct.std::less"* nonnull align 1 dereferenceable(1) %0, i32* %1, i32* nonnull align 4 dereferenceable(4) %2) #3 comdat align 2 {
  %4 = alloca %"struct.std::less"*, align 8, !llfi_index !1106
  %5 = alloca i32*, align 8, !llfi_index !1107
  %6 = alloca i32*, align 8, !llfi_index !1108
  store %"struct.std::less"* %0, %"struct.std::less"** %4, align 8, !llfi_index !1109
  store i32* %1, i32** %5, align 8, !llfi_index !1110
  store i32* %2, i32** %6, align 8, !llfi_index !1111
  %7 = load %"struct.std::less"*, %"struct.std::less"** %4, align 8, !llfi_index !1112
  %8 = bitcast %"struct.std::less"* %7 to %"struct.std::less"*, !llfi_index !1113
  %9 = load i32*, i32** %5, align 8, !llfi_index !1114
  %10 = load i32*, i32** %6, align 8, !llfi_index !1115
  %11 = call nonnull align 4 dereferenceable(4) i32* @_ZSt7forwardIiEOT_RNSt16remove_referenceIS0_E4typeE(i32* nonnull align 4 dereferenceable(4) %10) #2, !llfi_index !1116
  call void @_ZN9__gnu_cxx13new_allocatorISt13_Rb_tree_nodeIiEE9constructIiJiEEEvPT_DpOT0_(%"struct.std::less"* nonnull align 1 dereferenceable(1) %8, i32* %9, i32* nonnull align 4 dereferenceable(4) %11) #2, !llfi_index !1117
  ret void, !llfi_index !1118
}

; Function Attrs: mustprogress noinline nounwind uwtable
define linkonce_odr dso_local void @_ZN9__gnu_cxx13new_allocatorISt13_Rb_tree_nodeIiEE9constructIiJiEEEvPT_DpOT0_(%"struct.std::less"* nonnull align 1 dereferenceable(1) %0, i32* %1, i32* nonnull align 4 dereferenceable(4) %2) #3 comdat align 2 {
  %4 = alloca %"struct.std::less"*, align 8, !llfi_index !1119
  %5 = alloca i32*, align 8, !llfi_index !1120
  %6 = alloca i32*, align 8, !llfi_index !1121
  store %"struct.std::less"* %0, %"struct.std::less"** %4, align 8, !llfi_index !1122
  store i32* %1, i32** %5, align 8, !llfi_index !1123
  store i32* %2, i32** %6, align 8, !llfi_index !1124
  %7 = load %"struct.std::less"*, %"struct.std::less"** %4, align 8, !llfi_index !1125
  %8 = load i32*, i32** %5, align 8, !llfi_index !1126
  %9 = bitcast i32* %8 to i8*, !llfi_index !1127
  %10 = bitcast i8* %9 to i32*, !llfi_index !1128
  %11 = load i32*, i32** %6, align 8, !llfi_index !1129
  %12 = call nonnull align 4 dereferenceable(4) i32* @_ZSt7forwardIiEOT_RNSt16remove_referenceIS0_E4typeE(i32* nonnull align 4 dereferenceable(4) %11) #2, !llfi_index !1130
  %13 = load i32, i32* %12, align 4, !llfi_index !1131
  store i32 %13, i32* %10, align 4, !llfi_index !1132
  ret void, !llfi_index !1133
}

; Function Attrs: mustprogress noinline uwtable
define linkonce_odr dso_local %"struct.std::_Rb_tree_node"* @_ZNSt16allocator_traitsISaISt13_Rb_tree_nodeIiEEE8allocateERS2_m(%"struct.std::less"* nonnull align 1 dereferenceable(1) %0, i64 %1) #4 comdat align 2 {
  %3 = alloca %"struct.std::less"*, align 8, !llfi_index !1134
  %4 = alloca i64, align 8, !llfi_index !1135
  store %"struct.std::less"* %0, %"struct.std::less"** %3, align 8, !llfi_index !1136
  store i64 %1, i64* %4, align 8, !llfi_index !1137
  %5 = load %"struct.std::less"*, %"struct.std::less"** %3, align 8, !llfi_index !1138
  %6 = bitcast %"struct.std::less"* %5 to %"struct.std::less"*, !llfi_index !1139
  %7 = load i64, i64* %4, align 8, !llfi_index !1140
  %8 = call %"struct.std::_Rb_tree_node"* @_ZN9__gnu_cxx13new_allocatorISt13_Rb_tree_nodeIiEE8allocateEmPKv(%"struct.std::less"* nonnull align 1 dereferenceable(1) %6, i64 %7, i8* null), !llfi_index !1141
  ret %"struct.std::_Rb_tree_node"* %8, !llfi_index !1142
}

; Function Attrs: mustprogress noinline uwtable
define linkonce_odr dso_local %"struct.std::_Rb_tree_node"* @_ZN9__gnu_cxx13new_allocatorISt13_Rb_tree_nodeIiEE8allocateEmPKv(%"struct.std::less"* nonnull align 1 dereferenceable(1) %0, i64 %1, i8* %2) #4 comdat align 2 {
  %4 = alloca %"struct.std::less"*, align 8, !llfi_index !1143
  %5 = alloca i64, align 8, !llfi_index !1144
  %6 = alloca i8*, align 8, !llfi_index !1145
  store %"struct.std::less"* %0, %"struct.std::less"** %4, align 8, !llfi_index !1146
  store i64 %1, i64* %5, align 8, !llfi_index !1147
  store i8* %2, i8** %6, align 8, !llfi_index !1148
  %7 = load %"struct.std::less"*, %"struct.std::less"** %4, align 8, !llfi_index !1149
  %8 = load i64, i64* %5, align 8, !llfi_index !1150
  %9 = call i64 @_ZNK9__gnu_cxx13new_allocatorISt13_Rb_tree_nodeIiEE8max_sizeEv(%"struct.std::less"* nonnull align 1 dereferenceable(1) %7) #2, !llfi_index !1151
  %10 = icmp ugt i64 %8, %9, !llfi_index !1152
  br i1 %10, label %11, label %12, !llfi_index !1153

11:                                               ; preds = %3
  call void @_ZSt17__throw_bad_allocv() #15, !llfi_index !1154
  unreachable, !llfi_index !1155

12:                                               ; preds = %3
  %13 = load i64, i64* %5, align 8, !llfi_index !1156
  %14 = mul i64 %13, 40, !llfi_index !1157
  %15 = call noalias nonnull i8* @_Znwm(i64 %14) #16, !llfi_index !1158
  %16 = bitcast i8* %15 to %"struct.std::_Rb_tree_node"*, !llfi_index !1159
  ret %"struct.std::_Rb_tree_node"* %16, !llfi_index !1160
}

; Function Attrs: mustprogress noinline nounwind uwtable
define linkonce_odr dso_local i64 @_ZNK9__gnu_cxx13new_allocatorISt13_Rb_tree_nodeIiEE8max_sizeEv(%"struct.std::less"* nonnull align 1 dereferenceable(1) %0) #3 comdat align 2 {
  %2 = alloca %"struct.std::less"*, align 8, !llfi_index !1161
  store %"struct.std::less"* %0, %"struct.std::less"** %2, align 8, !llfi_index !1162
  %3 = load %"struct.std::less"*, %"struct.std::less"** %2, align 8, !llfi_index !1163
  ret i64 230584300921369395, !llfi_index !1164
}

; Function Attrs: noreturn
declare dso_local void @_ZSt17__throw_bad_allocv() #10

; Function Attrs: nobuiltin allocsize(0)
declare dso_local nonnull i8* @_Znwm(i64) #11

; Function Attrs: mustprogress noinline uwtable
define linkonce_odr dso_local nonnull align 4 dereferenceable(4) i32* @_ZNSt8_Rb_treeIiiSt9_IdentityIiESt4lessIiESaIiEE6_S_keyEPKSt13_Rb_tree_nodeIiE(%"struct.std::_Rb_tree_node"* %0) #4 comdat align 2 {
  %2 = alloca %"struct.std::_Rb_tree_node"*, align 8, !llfi_index !1165
  %3 = alloca %"struct.std::less", align 1, !llfi_index !1166
  store %"struct.std::_Rb_tree_node"* %0, %"struct.std::_Rb_tree_node"** %2, align 8, !llfi_index !1167
  %4 = load %"struct.std::_Rb_tree_node"*, %"struct.std::_Rb_tree_node"** %2, align 8, !llfi_index !1168
  %5 = call i32* @_ZNKSt13_Rb_tree_nodeIiE9_M_valptrEv(%"struct.std::_Rb_tree_node"* nonnull align 8 dereferenceable(36) %4), !llfi_index !1169
  %6 = call nonnull align 4 dereferenceable(4) i32* @_ZNKSt9_IdentityIiEclERKi(%"struct.std::less"* nonnull align 1 dereferenceable(1) %3, i32* nonnull align 4 dereferenceable(4) %5), !llfi_index !1170
  ret i32* %6, !llfi_index !1171
}

; Function Attrs: mustprogress noinline nounwind uwtable
define linkonce_odr dso_local i32* @_ZNKSt13_Rb_tree_nodeIiE9_M_valptrEv(%"struct.std::_Rb_tree_node"* nonnull align 8 dereferenceable(36) %0) #3 comdat align 2 {
  %2 = alloca %"struct.std::_Rb_tree_node"*, align 8, !llfi_index !1172
  store %"struct.std::_Rb_tree_node"* %0, %"struct.std::_Rb_tree_node"** %2, align 8, !llfi_index !1173
  %3 = load %"struct.std::_Rb_tree_node"*, %"struct.std::_Rb_tree_node"** %2, align 8, !llfi_index !1174
  %4 = getelementptr inbounds %"struct.std::_Rb_tree_node", %"struct.std::_Rb_tree_node"* %3, i32 0, i32 1, !llfi_index !1175
  %5 = call i32* @_ZNK9__gnu_cxx16__aligned_membufIiE6_M_ptrEv(%"struct.__gnu_cxx::__aligned_membuf"* nonnull align 4 dereferenceable(4) %4) #2, !llfi_index !1176
  ret i32* %5, !llfi_index !1177
}

; Function Attrs: mustprogress noinline nounwind uwtable
define linkonce_odr dso_local nonnull align 4 dereferenceable(4) i32* @_ZNKSt9_IdentityIiEclERKi(%"struct.std::less"* nonnull align 1 dereferenceable(1) %0, i32* nonnull align 4 dereferenceable(4) %1) #3 comdat align 2 {
  %3 = alloca %"struct.std::less"*, align 8, !llfi_index !1178
  %4 = alloca i32*, align 8, !llfi_index !1179
  store %"struct.std::less"* %0, %"struct.std::less"** %3, align 8, !llfi_index !1180
  store i32* %1, i32** %4, align 8, !llfi_index !1181
  %5 = load %"struct.std::less"*, %"struct.std::less"** %3, align 8, !llfi_index !1182
  %6 = load i32*, i32** %4, align 8, !llfi_index !1183
  ret i32* %6, !llfi_index !1184
}

; Function Attrs: mustprogress noinline nounwind uwtable
define linkonce_odr dso_local i32* @_ZNK9__gnu_cxx16__aligned_membufIiE6_M_ptrEv(%"struct.__gnu_cxx::__aligned_membuf"* nonnull align 4 dereferenceable(4) %0) #3 comdat align 2 {
  %2 = alloca %"struct.__gnu_cxx::__aligned_membuf"*, align 8, !llfi_index !1185
  store %"struct.__gnu_cxx::__aligned_membuf"* %0, %"struct.__gnu_cxx::__aligned_membuf"** %2, align 8, !llfi_index !1186
  %3 = load %"struct.__gnu_cxx::__aligned_membuf"*, %"struct.__gnu_cxx::__aligned_membuf"** %2, align 8, !llfi_index !1187
  %4 = call i8* @_ZNK9__gnu_cxx16__aligned_membufIiE7_M_addrEv(%"struct.__gnu_cxx::__aligned_membuf"* nonnull align 4 dereferenceable(4) %3) #2, !llfi_index !1188
  %5 = bitcast i8* %4 to i32*, !llfi_index !1189
  ret i32* %5, !llfi_index !1190
}

; Function Attrs: mustprogress noinline nounwind uwtable
define linkonce_odr dso_local i8* @_ZNK9__gnu_cxx16__aligned_membufIiE7_M_addrEv(%"struct.__gnu_cxx::__aligned_membuf"* nonnull align 4 dereferenceable(4) %0) #3 comdat align 2 {
  %2 = alloca %"struct.__gnu_cxx::__aligned_membuf"*, align 8, !llfi_index !1191
  store %"struct.__gnu_cxx::__aligned_membuf"* %0, %"struct.__gnu_cxx::__aligned_membuf"** %2, align 8, !llfi_index !1192
  %3 = load %"struct.__gnu_cxx::__aligned_membuf"*, %"struct.__gnu_cxx::__aligned_membuf"** %2, align 8, !llfi_index !1193
  %4 = getelementptr inbounds %"struct.__gnu_cxx::__aligned_membuf", %"struct.__gnu_cxx::__aligned_membuf"* %3, i32 0, i32 0, !llfi_index !1194
  %5 = bitcast [4 x i8]* %4 to i8*, !llfi_index !1195
  ret i8* %5, !llfi_index !1196
}

; Function Attrs: noinline nounwind uwtable
define linkonce_odr dso_local void @_ZNSt4pairIPSt18_Rb_tree_node_baseS1_EC2IRPSt13_Rb_tree_nodeIiERS1_Lb1EEEOT_OT0_(%"struct.std::pair"* nonnull align 8 dereferenceable(16) %0, %"struct.std::_Rb_tree_node"** nonnull align 8 dereferenceable(8) %1, %"struct.std::_Rb_tree_node_base"** nonnull align 8 dereferenceable(8) %2) unnamed_addr #1 comdat align 2 {
  %4 = alloca %"struct.std::pair"*, align 8, !llfi_index !1197
  %5 = alloca %"struct.std::_Rb_tree_node"**, align 8, !llfi_index !1198
  %6 = alloca %"struct.std::_Rb_tree_node_base"**, align 8, !llfi_index !1199
  store %"struct.std::pair"* %0, %"struct.std::pair"** %4, align 8, !llfi_index !1200
  store %"struct.std::_Rb_tree_node"** %1, %"struct.std::_Rb_tree_node"*** %5, align 8, !llfi_index !1201
  store %"struct.std::_Rb_tree_node_base"** %2, %"struct.std::_Rb_tree_node_base"*** %6, align 8, !llfi_index !1202
  %7 = load %"struct.std::pair"*, %"struct.std::pair"** %4, align 8, !llfi_index !1203
  %8 = bitcast %"struct.std::pair"* %7 to %"struct.std::less"*, !llfi_index !1204
  %9 = getelementptr inbounds %"struct.std::pair", %"struct.std::pair"* %7, i32 0, i32 0, !llfi_index !1205
  %10 = load %"struct.std::_Rb_tree_node"**, %"struct.std::_Rb_tree_node"*** %5, align 8, !llfi_index !1206
  %11 = call nonnull align 8 dereferenceable(8) %"struct.std::_Rb_tree_node"** @_ZSt7forwardIRPSt13_Rb_tree_nodeIiEEOT_RNSt16remove_referenceIS4_E4typeE(%"struct.std::_Rb_tree_node"** nonnull align 8 dereferenceable(8) %10) #2, !llfi_index !1207
  %12 = load %"struct.std::_Rb_tree_node"*, %"struct.std::_Rb_tree_node"** %11, align 8, !llfi_index !1208
  %13 = bitcast %"struct.std::_Rb_tree_node"* %12 to %"struct.std::_Rb_tree_node_base"*, !llfi_index !1209
  store %"struct.std::_Rb_tree_node_base"* %13, %"struct.std::_Rb_tree_node_base"** %9, align 8, !llfi_index !1210
  %14 = getelementptr inbounds %"struct.std::pair", %"struct.std::pair"* %7, i32 0, i32 1, !llfi_index !1211
  %15 = load %"struct.std::_Rb_tree_node_base"**, %"struct.std::_Rb_tree_node_base"*** %6, align 8, !llfi_index !1212
  %16 = call nonnull align 8 dereferenceable(8) %"struct.std::_Rb_tree_node_base"** @_ZSt7forwardIRPSt18_Rb_tree_node_baseEOT_RNSt16remove_referenceIS3_E4typeE(%"struct.std::_Rb_tree_node_base"** nonnull align 8 dereferenceable(8) %15) #2, !llfi_index !1213
  %17 = load %"struct.std::_Rb_tree_node_base"*, %"struct.std::_Rb_tree_node_base"** %16, align 8, !llfi_index !1214
  store %"struct.std::_Rb_tree_node_base"* %17, %"struct.std::_Rb_tree_node_base"** %14, align 8, !llfi_index !1215
  ret void, !llfi_index !1216
}

; Function Attrs: mustprogress noinline nounwind uwtable
define linkonce_odr dso_local nonnull align 8 dereferenceable(8) %"struct.std::_Rb_tree_node"** @_ZSt7forwardIRPSt13_Rb_tree_nodeIiEEOT_RNSt16remove_referenceIS4_E4typeE(%"struct.std::_Rb_tree_node"** nonnull align 8 dereferenceable(8) %0) #3 comdat {
  %2 = alloca %"struct.std::_Rb_tree_node"**, align 8, !llfi_index !1217
  store %"struct.std::_Rb_tree_node"** %0, %"struct.std::_Rb_tree_node"*** %2, align 8, !llfi_index !1218
  %3 = load %"struct.std::_Rb_tree_node"**, %"struct.std::_Rb_tree_node"*** %2, align 8, !llfi_index !1219
  ret %"struct.std::_Rb_tree_node"** %3, !llfi_index !1220
}

; Function Attrs: mustprogress noinline nounwind uwtable
define linkonce_odr dso_local nonnull align 8 dereferenceable(8) %"struct.std::_Rb_tree_node_base"** @_ZSt7forwardIRPSt18_Rb_tree_node_baseEOT_RNSt16remove_referenceIS3_E4typeE(%"struct.std::_Rb_tree_node_base"** nonnull align 8 dereferenceable(8) %0) #3 comdat {
  %2 = alloca %"struct.std::_Rb_tree_node_base"**, align 8, !llfi_index !1221
  store %"struct.std::_Rb_tree_node_base"** %0, %"struct.std::_Rb_tree_node_base"*** %2, align 8, !llfi_index !1222
  %3 = load %"struct.std::_Rb_tree_node_base"**, %"struct.std::_Rb_tree_node_base"*** %2, align 8, !llfi_index !1223
  ret %"struct.std::_Rb_tree_node_base"** %3, !llfi_index !1224
}

; Function Attrs: mustprogress noinline nounwind uwtable
define linkonce_odr dso_local %"struct.std::_Rb_tree_node_base"* @_ZNKSt8_Rb_treeIiiSt9_IdentityIiESt4lessIiESaIiEE3endEv(%"class.std::_Rb_tree"* nonnull align 8 dereferenceable(48) %0) #3 comdat align 2 {
  %2 = alloca %"struct.std::_Rb_tree_const_iterator", align 8, !llfi_index !1225
  %3 = alloca %"class.std::_Rb_tree"*, align 8, !llfi_index !1226
  store %"class.std::_Rb_tree"* %0, %"class.std::_Rb_tree"** %3, align 8, !llfi_index !1227
  %4 = load %"class.std::_Rb_tree"*, %"class.std::_Rb_tree"** %3, align 8, !llfi_index !1228
  %5 = getelementptr inbounds %"class.std::_Rb_tree", %"class.std::_Rb_tree"* %4, i32 0, i32 0, !llfi_index !1229
  %6 = bitcast %"struct.std::_Rb_tree<int, int, std::_Identity<int>, std::less<int>>::_Rb_tree_impl"* %5 to i8*, !llfi_index !1230
  %7 = getelementptr inbounds i8, i8* %6, i64 8, !llfi_index !1231
  %8 = bitcast i8* %7 to %"struct.std::_Rb_tree_header"*, !llfi_index !1232
  %9 = getelementptr inbounds %"struct.std::_Rb_tree_header", %"struct.std::_Rb_tree_header"* %8, i32 0, i32 0, !llfi_index !1233
  call void @_ZNSt23_Rb_tree_const_iteratorIiEC2EPKSt18_Rb_tree_node_base(%"struct.std::_Rb_tree_const_iterator"* nonnull align 8 dereferenceable(8) %2, %"struct.std::_Rb_tree_node_base"* %9) #2, !llfi_index !1234
  %10 = getelementptr inbounds %"struct.std::_Rb_tree_const_iterator", %"struct.std::_Rb_tree_const_iterator"* %2, i32 0, i32 0, !llfi_index !1235
  %11 = load %"struct.std::_Rb_tree_node_base"*, %"struct.std::_Rb_tree_node_base"** %10, align 8, !llfi_index !1236
  ret %"struct.std::_Rb_tree_node_base"* %11, !llfi_index !1237
}

; Function Attrs: noinline nounwind uwtable
define linkonce_odr dso_local void @_ZNSt23_Rb_tree_const_iteratorIiEC2EPKSt18_Rb_tree_node_base(%"struct.std::_Rb_tree_const_iterator"* nonnull align 8 dereferenceable(8) %0, %"struct.std::_Rb_tree_node_base"* %1) unnamed_addr #1 comdat align 2 {
  %3 = alloca %"struct.std::_Rb_tree_const_iterator"*, align 8, !llfi_index !1238
  %4 = alloca %"struct.std::_Rb_tree_node_base"*, align 8, !llfi_index !1239
  store %"struct.std::_Rb_tree_const_iterator"* %0, %"struct.std::_Rb_tree_const_iterator"** %3, align 8, !llfi_index !1240
  store %"struct.std::_Rb_tree_node_base"* %1, %"struct.std::_Rb_tree_node_base"** %4, align 8, !llfi_index !1241
  %5 = load %"struct.std::_Rb_tree_const_iterator"*, %"struct.std::_Rb_tree_const_iterator"** %3, align 8, !llfi_index !1242
  %6 = getelementptr inbounds %"struct.std::_Rb_tree_const_iterator", %"struct.std::_Rb_tree_const_iterator"* %5, i32 0, i32 0, !llfi_index !1243
  %7 = load %"struct.std::_Rb_tree_node_base"*, %"struct.std::_Rb_tree_node_base"** %4, align 8, !llfi_index !1244
  store %"struct.std::_Rb_tree_node_base"* %7, %"struct.std::_Rb_tree_node_base"** %6, align 8, !llfi_index !1245
  ret void, !llfi_index !1246
}

; Function Attrs: mustprogress noinline uwtable
define linkonce_odr dso_local %"struct.std::_Rb_tree_node_base"* @_ZNSt8_Rb_treeIiiSt9_IdentityIiESt4lessIiESaIiEE11lower_boundERKi(%"class.std::_Rb_tree"* nonnull align 8 dereferenceable(48) %0, i32* nonnull align 4 dereferenceable(4) %1) #4 comdat align 2 {
  %3 = alloca %"struct.std::_Rb_tree_const_iterator", align 8, !llfi_index !1247
  %4 = alloca %"class.std::_Rb_tree"*, align 8, !llfi_index !1248
  %5 = alloca i32*, align 8, !llfi_index !1249
  store %"class.std::_Rb_tree"* %0, %"class.std::_Rb_tree"** %4, align 8, !llfi_index !1250
  store i32* %1, i32** %5, align 8, !llfi_index !1251
  %6 = load %"class.std::_Rb_tree"*, %"class.std::_Rb_tree"** %4, align 8, !llfi_index !1252
  %7 = call %"struct.std::_Rb_tree_node"* @_ZNSt8_Rb_treeIiiSt9_IdentityIiESt4lessIiESaIiEE8_M_beginEv(%"class.std::_Rb_tree"* nonnull align 8 dereferenceable(48) %6) #2, !llfi_index !1253
  %8 = call %"struct.std::_Rb_tree_node_base"* @_ZNSt8_Rb_treeIiiSt9_IdentityIiESt4lessIiESaIiEE6_M_endEv(%"class.std::_Rb_tree"* nonnull align 8 dereferenceable(48) %6) #2, !llfi_index !1254
  %9 = load i32*, i32** %5, align 8, !llfi_index !1255
  %10 = call %"struct.std::_Rb_tree_node_base"* @_ZNSt8_Rb_treeIiiSt9_IdentityIiESt4lessIiESaIiEE14_M_lower_boundEPSt13_Rb_tree_nodeIiEPSt18_Rb_tree_node_baseRKi(%"class.std::_Rb_tree"* nonnull align 8 dereferenceable(48) %6, %"struct.std::_Rb_tree_node"* %7, %"struct.std::_Rb_tree_node_base"* %8, i32* nonnull align 4 dereferenceable(4) %9), !llfi_index !1256
  %11 = getelementptr inbounds %"struct.std::_Rb_tree_const_iterator", %"struct.std::_Rb_tree_const_iterator"* %3, i32 0, i32 0, !llfi_index !1257
  store %"struct.std::_Rb_tree_node_base"* %10, %"struct.std::_Rb_tree_node_base"** %11, align 8, !llfi_index !1258
  %12 = getelementptr inbounds %"struct.std::_Rb_tree_const_iterator", %"struct.std::_Rb_tree_const_iterator"* %3, i32 0, i32 0, !llfi_index !1259
  %13 = load %"struct.std::_Rb_tree_node_base"*, %"struct.std::_Rb_tree_node_base"** %12, align 8, !llfi_index !1260
  ret %"struct.std::_Rb_tree_node_base"* %13, !llfi_index !1261
}

; Function Attrs: mustprogress noinline uwtable
define linkonce_odr dso_local %"struct.std::_Rb_tree_node_base"* @_ZNSt8_Rb_treeIiiSt9_IdentityIiESt4lessIiESaIiEE14_M_lower_boundEPSt13_Rb_tree_nodeIiEPSt18_Rb_tree_node_baseRKi(%"class.std::_Rb_tree"* nonnull align 8 dereferenceable(48) %0, %"struct.std::_Rb_tree_node"* %1, %"struct.std::_Rb_tree_node_base"* %2, i32* nonnull align 4 dereferenceable(4) %3) #4 comdat align 2 {
  %5 = alloca %"struct.std::_Rb_tree_const_iterator", align 8, !llfi_index !1262
  %6 = alloca %"class.std::_Rb_tree"*, align 8, !llfi_index !1263
  %7 = alloca %"struct.std::_Rb_tree_node"*, align 8, !llfi_index !1264
  %8 = alloca %"struct.std::_Rb_tree_node_base"*, align 8, !llfi_index !1265
  %9 = alloca i32*, align 8, !llfi_index !1266
  store %"class.std::_Rb_tree"* %0, %"class.std::_Rb_tree"** %6, align 8, !llfi_index !1267
  store %"struct.std::_Rb_tree_node"* %1, %"struct.std::_Rb_tree_node"** %7, align 8, !llfi_index !1268
  store %"struct.std::_Rb_tree_node_base"* %2, %"struct.std::_Rb_tree_node_base"** %8, align 8, !llfi_index !1269
  store i32* %3, i32** %9, align 8, !llfi_index !1270
  %10 = load %"class.std::_Rb_tree"*, %"class.std::_Rb_tree"** %6, align 8, !llfi_index !1271
  br label %11, !llfi_index !1272

11:                                               ; preds = %32, %4
  %12 = load %"struct.std::_Rb_tree_node"*, %"struct.std::_Rb_tree_node"** %7, align 8, !llfi_index !1273
  %13 = icmp ne %"struct.std::_Rb_tree_node"* %12, null, !llfi_index !1274
  br i1 %13, label %14, label %33, !llfi_index !1275

14:                                               ; preds = %11
  %15 = getelementptr inbounds %"class.std::_Rb_tree", %"class.std::_Rb_tree"* %10, i32 0, i32 0, !llfi_index !1276
  %16 = bitcast %"struct.std::_Rb_tree<int, int, std::_Identity<int>, std::less<int>>::_Rb_tree_impl"* %15 to %"struct.std::_Rb_tree_key_compare"*, !llfi_index !1277
  %17 = getelementptr inbounds %"struct.std::_Rb_tree_key_compare", %"struct.std::_Rb_tree_key_compare"* %16, i32 0, i32 0, !llfi_index !1278
  %18 = load %"struct.std::_Rb_tree_node"*, %"struct.std::_Rb_tree_node"** %7, align 8, !llfi_index !1279
  %19 = call nonnull align 4 dereferenceable(4) i32* @_ZNSt8_Rb_treeIiiSt9_IdentityIiESt4lessIiESaIiEE6_S_keyEPKSt13_Rb_tree_nodeIiE(%"struct.std::_Rb_tree_node"* %18), !llfi_index !1280
  %20 = load i32*, i32** %9, align 8, !llfi_index !1281
  %21 = call zeroext i1 @_ZNKSt4lessIiEclERKiS2_(%"struct.std::less"* nonnull align 1 dereferenceable(1) %17, i32* nonnull align 4 dereferenceable(4) %19, i32* nonnull align 4 dereferenceable(4) %20), !llfi_index !1282
  br i1 %21, label %28, label %22, !llfi_index !1283

22:                                               ; preds = %14
  %23 = load %"struct.std::_Rb_tree_node"*, %"struct.std::_Rb_tree_node"** %7, align 8, !llfi_index !1284
  %24 = bitcast %"struct.std::_Rb_tree_node"* %23 to %"struct.std::_Rb_tree_node_base"*, !llfi_index !1285
  store %"struct.std::_Rb_tree_node_base"* %24, %"struct.std::_Rb_tree_node_base"** %8, align 8, !llfi_index !1286
  %25 = load %"struct.std::_Rb_tree_node"*, %"struct.std::_Rb_tree_node"** %7, align 8, !llfi_index !1287
  %26 = bitcast %"struct.std::_Rb_tree_node"* %25 to %"struct.std::_Rb_tree_node_base"*, !llfi_index !1288
  %27 = call %"struct.std::_Rb_tree_node"* @_ZNSt8_Rb_treeIiiSt9_IdentityIiESt4lessIiESaIiEE7_S_leftEPSt18_Rb_tree_node_base(%"struct.std::_Rb_tree_node_base"* %26) #2, !llfi_index !1289
  store %"struct.std::_Rb_tree_node"* %27, %"struct.std::_Rb_tree_node"** %7, align 8, !llfi_index !1290
  br label %32, !llfi_index !1291

28:                                               ; preds = %14
  %29 = load %"struct.std::_Rb_tree_node"*, %"struct.std::_Rb_tree_node"** %7, align 8, !llfi_index !1292
  %30 = bitcast %"struct.std::_Rb_tree_node"* %29 to %"struct.std::_Rb_tree_node_base"*, !llfi_index !1293
  %31 = call %"struct.std::_Rb_tree_node"* @_ZNSt8_Rb_treeIiiSt9_IdentityIiESt4lessIiESaIiEE8_S_rightEPSt18_Rb_tree_node_base(%"struct.std::_Rb_tree_node_base"* %30) #2, !llfi_index !1294
  store %"struct.std::_Rb_tree_node"* %31, %"struct.std::_Rb_tree_node"** %7, align 8, !llfi_index !1295
  br label %32, !llfi_index !1296

32:                                               ; preds = %28, %22
  br label %11, !llvm.loop !1297, !llfi_index !1298

33:                                               ; preds = %11
  %34 = load %"struct.std::_Rb_tree_node_base"*, %"struct.std::_Rb_tree_node_base"** %8, align 8, !llfi_index !1299
  call void @_ZNSt17_Rb_tree_iteratorIiEC2EPSt18_Rb_tree_node_base(%"struct.std::_Rb_tree_const_iterator"* nonnull align 8 dereferenceable(8) %5, %"struct.std::_Rb_tree_node_base"* %34) #2, !llfi_index !1300
  %35 = getelementptr inbounds %"struct.std::_Rb_tree_const_iterator", %"struct.std::_Rb_tree_const_iterator"* %5, i32 0, i32 0, !llfi_index !1301
  %36 = load %"struct.std::_Rb_tree_node_base"*, %"struct.std::_Rb_tree_node_base"** %35, align 8, !llfi_index !1302
  ret %"struct.std::_Rb_tree_node_base"* %36, !llfi_index !1303
}

; Function Attrs: mustprogress noinline uwtable
define linkonce_odr dso_local %"struct.std::_Rb_tree_node_base"* @_ZNSt8_Rb_treeIiiSt9_IdentityIiESt4lessIiESaIiEE5eraseB5cxx11ESt23_Rb_tree_const_iteratorIiE(%"class.std::_Rb_tree"* nonnull align 8 dereferenceable(48) %0, %"struct.std::_Rb_tree_node_base"* %1) #4 comdat align 2 {
  %3 = alloca %"struct.std::_Rb_tree_const_iterator", align 8, !llfi_index !1304
  %4 = alloca %"struct.std::_Rb_tree_const_iterator", align 8, !llfi_index !1305
  %5 = alloca %"class.std::_Rb_tree"*, align 8, !llfi_index !1306
  %6 = alloca %"struct.std::_Rb_tree_const_iterator", align 8, !llfi_index !1307
  %7 = alloca %"struct.std::_Rb_tree_const_iterator", align 8, !llfi_index !1308
  %8 = getelementptr inbounds %"struct.std::_Rb_tree_const_iterator", %"struct.std::_Rb_tree_const_iterator"* %4, i32 0, i32 0, !llfi_index !1309
  store %"struct.std::_Rb_tree_node_base"* %1, %"struct.std::_Rb_tree_node_base"** %8, align 8, !llfi_index !1310
  store %"class.std::_Rb_tree"* %0, %"class.std::_Rb_tree"** %5, align 8, !llfi_index !1311
  %9 = load %"class.std::_Rb_tree"*, %"class.std::_Rb_tree"** %5, align 8, !llfi_index !1312
  %10 = bitcast %"struct.std::_Rb_tree_const_iterator"* %6 to i8*, !llfi_index !1313
  %11 = bitcast %"struct.std::_Rb_tree_const_iterator"* %4 to i8*, !llfi_index !1314
  call void @llvm.memcpy.p0i8.p0i8.i64(i8* align 8 %10, i8* align 8 %11, i64 8, i1 false), !llfi_index !1315
  %12 = call nonnull align 8 dereferenceable(8) %"struct.std::_Rb_tree_const_iterator"* @_ZNSt23_Rb_tree_const_iteratorIiEppEv(%"struct.std::_Rb_tree_const_iterator"* nonnull align 8 dereferenceable(8) %6) #2, !llfi_index !1316
  %13 = bitcast %"struct.std::_Rb_tree_const_iterator"* %7 to i8*, !llfi_index !1317
  %14 = bitcast %"struct.std::_Rb_tree_const_iterator"* %4 to i8*, !llfi_index !1318
  call void @llvm.memcpy.p0i8.p0i8.i64(i8* align 8 %13, i8* align 8 %14, i64 8, i1 false), !llfi_index !1319
  %15 = getelementptr inbounds %"struct.std::_Rb_tree_const_iterator", %"struct.std::_Rb_tree_const_iterator"* %7, i32 0, i32 0, !llfi_index !1320
  %16 = load %"struct.std::_Rb_tree_node_base"*, %"struct.std::_Rb_tree_node_base"** %15, align 8, !llfi_index !1321
  call void @_ZNSt8_Rb_treeIiiSt9_IdentityIiESt4lessIiESaIiEE12_M_erase_auxESt23_Rb_tree_const_iteratorIiE(%"class.std::_Rb_tree"* nonnull align 8 dereferenceable(48) %9, %"struct.std::_Rb_tree_node_base"* %16), !llfi_index !1322
  %17 = call %"struct.std::_Rb_tree_node_base"* @_ZNKSt23_Rb_tree_const_iteratorIiE13_M_const_castEv(%"struct.std::_Rb_tree_const_iterator"* nonnull align 8 dereferenceable(8) %6) #2, !llfi_index !1323
  %18 = getelementptr inbounds %"struct.std::_Rb_tree_const_iterator", %"struct.std::_Rb_tree_const_iterator"* %3, i32 0, i32 0, !llfi_index !1324
  store %"struct.std::_Rb_tree_node_base"* %17, %"struct.std::_Rb_tree_node_base"** %18, align 8, !llfi_index !1325
  %19 = getelementptr inbounds %"struct.std::_Rb_tree_const_iterator", %"struct.std::_Rb_tree_const_iterator"* %3, i32 0, i32 0, !llfi_index !1326
  %20 = load %"struct.std::_Rb_tree_node_base"*, %"struct.std::_Rb_tree_node_base"** %19, align 8, !llfi_index !1327
  ret %"struct.std::_Rb_tree_node_base"* %20, !llfi_index !1328
}

; Function Attrs: mustprogress noinline nounwind uwtable
define linkonce_odr dso_local nonnull align 8 dereferenceable(8) %"struct.std::_Rb_tree_const_iterator"* @_ZNSt23_Rb_tree_const_iteratorIiEppEv(%"struct.std::_Rb_tree_const_iterator"* nonnull align 8 dereferenceable(8) %0) #3 comdat align 2 {
  %2 = alloca %"struct.std::_Rb_tree_const_iterator"*, align 8, !llfi_index !1329
  store %"struct.std::_Rb_tree_const_iterator"* %0, %"struct.std::_Rb_tree_const_iterator"** %2, align 8, !llfi_index !1330
  %3 = load %"struct.std::_Rb_tree_const_iterator"*, %"struct.std::_Rb_tree_const_iterator"** %2, align 8, !llfi_index !1331
  %4 = getelementptr inbounds %"struct.std::_Rb_tree_const_iterator", %"struct.std::_Rb_tree_const_iterator"* %3, i32 0, i32 0, !llfi_index !1332
  %5 = load %"struct.std::_Rb_tree_node_base"*, %"struct.std::_Rb_tree_node_base"** %4, align 8, !llfi_index !1333
  %6 = call %"struct.std::_Rb_tree_node_base"* @_ZSt18_Rb_tree_incrementPKSt18_Rb_tree_node_base(%"struct.std::_Rb_tree_node_base"* %5) #17, !llfi_index !1334
  %7 = getelementptr inbounds %"struct.std::_Rb_tree_const_iterator", %"struct.std::_Rb_tree_const_iterator"* %3, i32 0, i32 0, !llfi_index !1335
  store %"struct.std::_Rb_tree_node_base"* %6, %"struct.std::_Rb_tree_node_base"** %7, align 8, !llfi_index !1336
  ret %"struct.std::_Rb_tree_const_iterator"* %3, !llfi_index !1337
}

; Function Attrs: mustprogress noinline nounwind uwtable
define linkonce_odr dso_local void @_ZNSt8_Rb_treeIiiSt9_IdentityIiESt4lessIiESaIiEE12_M_erase_auxESt23_Rb_tree_const_iteratorIiE(%"class.std::_Rb_tree"* nonnull align 8 dereferenceable(48) %0, %"struct.std::_Rb_tree_node_base"* %1) #3 comdat align 2 {
  %3 = alloca %"struct.std::_Rb_tree_const_iterator", align 8, !llfi_index !1338
  %4 = alloca %"class.std::_Rb_tree"*, align 8, !llfi_index !1339
  %5 = alloca %"struct.std::_Rb_tree_node"*, align 8, !llfi_index !1340
  %6 = getelementptr inbounds %"struct.std::_Rb_tree_const_iterator", %"struct.std::_Rb_tree_const_iterator"* %3, i32 0, i32 0, !llfi_index !1341
  store %"struct.std::_Rb_tree_node_base"* %1, %"struct.std::_Rb_tree_node_base"** %6, align 8, !llfi_index !1342
  store %"class.std::_Rb_tree"* %0, %"class.std::_Rb_tree"** %4, align 8, !llfi_index !1343
  %7 = load %"class.std::_Rb_tree"*, %"class.std::_Rb_tree"** %4, align 8, !llfi_index !1344
  %8 = getelementptr inbounds %"struct.std::_Rb_tree_const_iterator", %"struct.std::_Rb_tree_const_iterator"* %3, i32 0, i32 0, !llfi_index !1345
  %9 = load %"struct.std::_Rb_tree_node_base"*, %"struct.std::_Rb_tree_node_base"** %8, align 8, !llfi_index !1346
  %10 = getelementptr inbounds %"class.std::_Rb_tree", %"class.std::_Rb_tree"* %7, i32 0, i32 0, !llfi_index !1347
  %11 = bitcast %"struct.std::_Rb_tree<int, int, std::_Identity<int>, std::less<int>>::_Rb_tree_impl"* %10 to i8*, !llfi_index !1348
  %12 = getelementptr inbounds i8, i8* %11, i64 8, !llfi_index !1349
  %13 = bitcast i8* %12 to %"struct.std::_Rb_tree_header"*, !llfi_index !1350
  %14 = getelementptr inbounds %"struct.std::_Rb_tree_header", %"struct.std::_Rb_tree_header"* %13, i32 0, i32 0, !llfi_index !1351
  %15 = call %"struct.std::_Rb_tree_node_base"* @_ZSt28_Rb_tree_rebalance_for_erasePSt18_Rb_tree_node_baseRS_(%"struct.std::_Rb_tree_node_base"* %9, %"struct.std::_Rb_tree_node_base"* nonnull align 8 dereferenceable(32) %14) #2, !llfi_index !1352
  %16 = bitcast %"struct.std::_Rb_tree_node_base"* %15 to %"struct.std::_Rb_tree_node"*, !llfi_index !1353
  store %"struct.std::_Rb_tree_node"* %16, %"struct.std::_Rb_tree_node"** %5, align 8, !llfi_index !1354
  %17 = load %"struct.std::_Rb_tree_node"*, %"struct.std::_Rb_tree_node"** %5, align 8, !llfi_index !1355
  call void @_ZNSt8_Rb_treeIiiSt9_IdentityIiESt4lessIiESaIiEE12_M_drop_nodeEPSt13_Rb_tree_nodeIiE(%"class.std::_Rb_tree"* nonnull align 8 dereferenceable(48) %7, %"struct.std::_Rb_tree_node"* %17) #2, !llfi_index !1356
  %18 = getelementptr inbounds %"class.std::_Rb_tree", %"class.std::_Rb_tree"* %7, i32 0, i32 0, !llfi_index !1357
  %19 = bitcast %"struct.std::_Rb_tree<int, int, std::_Identity<int>, std::less<int>>::_Rb_tree_impl"* %18 to i8*, !llfi_index !1358
  %20 = getelementptr inbounds i8, i8* %19, i64 8, !llfi_index !1359
  %21 = bitcast i8* %20 to %"struct.std::_Rb_tree_header"*, !llfi_index !1360
  %22 = getelementptr inbounds %"struct.std::_Rb_tree_header", %"struct.std::_Rb_tree_header"* %21, i32 0, i32 1, !llfi_index !1361
  %23 = load i64, i64* %22, align 8, !llfi_index !1362
  %24 = add i64 %23, -1, !llfi_index !1363
  store i64 %24, i64* %22, align 8, !llfi_index !1364
  ret void, !llfi_index !1365
}

; Function Attrs: mustprogress noinline nounwind uwtable
define linkonce_odr dso_local %"struct.std::_Rb_tree_node_base"* @_ZNKSt23_Rb_tree_const_iteratorIiE13_M_const_castEv(%"struct.std::_Rb_tree_const_iterator"* nonnull align 8 dereferenceable(8) %0) #3 comdat align 2 {
  %2 = alloca %"struct.std::_Rb_tree_const_iterator", align 8, !llfi_index !1366
  %3 = alloca %"struct.std::_Rb_tree_const_iterator"*, align 8, !llfi_index !1367
  store %"struct.std::_Rb_tree_const_iterator"* %0, %"struct.std::_Rb_tree_const_iterator"** %3, align 8, !llfi_index !1368
  %4 = load %"struct.std::_Rb_tree_const_iterator"*, %"struct.std::_Rb_tree_const_iterator"** %3, align 8, !llfi_index !1369
  %5 = getelementptr inbounds %"struct.std::_Rb_tree_const_iterator", %"struct.std::_Rb_tree_const_iterator"* %4, i32 0, i32 0, !llfi_index !1370
  %6 = load %"struct.std::_Rb_tree_node_base"*, %"struct.std::_Rb_tree_node_base"** %5, align 8, !llfi_index !1371
  call void @_ZNSt17_Rb_tree_iteratorIiEC2EPSt18_Rb_tree_node_base(%"struct.std::_Rb_tree_const_iterator"* nonnull align 8 dereferenceable(8) %2, %"struct.std::_Rb_tree_node_base"* %6) #2, !llfi_index !1372
  %7 = getelementptr inbounds %"struct.std::_Rb_tree_const_iterator", %"struct.std::_Rb_tree_const_iterator"* %2, i32 0, i32 0, !llfi_index !1373
  %8 = load %"struct.std::_Rb_tree_node_base"*, %"struct.std::_Rb_tree_node_base"** %7, align 8, !llfi_index !1374
  ret %"struct.std::_Rb_tree_node_base"* %8, !llfi_index !1375
}

; Function Attrs: nounwind
declare dso_local %"struct.std::_Rb_tree_node_base"* @_ZSt28_Rb_tree_rebalance_for_erasePSt18_Rb_tree_node_baseRS_(%"struct.std::_Rb_tree_node_base"*, %"struct.std::_Rb_tree_node_base"* nonnull align 8 dereferenceable(32)) #8

; Function Attrs: nounwind readonly willreturn
declare dso_local %"struct.std::_Rb_tree_node_base"* @_ZSt18_Rb_tree_incrementPKSt18_Rb_tree_node_base(%"struct.std::_Rb_tree_node_base"*) #12

; Function Attrs: mustprogress noinline uwtable
define linkonce_odr dso_local %"struct.std::_Rb_tree_node_base"* @_ZNSt8_Rb_treeIiiSt9_IdentityIiESt4lessIiESaIiEE15_M_insert_equalIRKiEESt17_Rb_tree_iteratorIiEOT_(%"class.std::_Rb_tree"* nonnull align 8 dereferenceable(48) %0, i32* nonnull align 4 dereferenceable(4) %1) #4 comdat align 2 {
  %3 = alloca %"struct.std::_Rb_tree_const_iterator", align 8, !llfi_index !1376
  %4 = alloca %"class.std::_Rb_tree"*, align 8, !llfi_index !1377
  %5 = alloca i32*, align 8, !llfi_index !1378
  %6 = alloca %"struct.std::pair", align 8, !llfi_index !1379
  %7 = alloca %"struct.std::less", align 1, !llfi_index !1380
  %8 = alloca %"struct.std::_Rb_tree<int, int, std::_Identity<int>, std::less<int>>::_Alloc_node", align 8, !llfi_index !1381
  store %"class.std::_Rb_tree"* %0, %"class.std::_Rb_tree"** %4, align 8, !llfi_index !1382
  store i32* %1, i32** %5, align 8, !llfi_index !1383
  %9 = load %"class.std::_Rb_tree"*, %"class.std::_Rb_tree"** %4, align 8, !llfi_index !1384
  %10 = load i32*, i32** %5, align 8, !llfi_index !1385
  %11 = call nonnull align 4 dereferenceable(4) i32* @_ZNKSt9_IdentityIiEclERKi(%"struct.std::less"* nonnull align 1 dereferenceable(1) %7, i32* nonnull align 4 dereferenceable(4) %10), !llfi_index !1386
  %12 = call { %"struct.std::_Rb_tree_node_base"*, %"struct.std::_Rb_tree_node_base"* } @_ZNSt8_Rb_treeIiiSt9_IdentityIiESt4lessIiESaIiEE23_M_get_insert_equal_posERKi(%"class.std::_Rb_tree"* nonnull align 8 dereferenceable(48) %9, i32* nonnull align 4 dereferenceable(4) %11), !llfi_index !1387
  %13 = bitcast %"struct.std::pair"* %6 to { %"struct.std::_Rb_tree_node_base"*, %"struct.std::_Rb_tree_node_base"* }*, !llfi_index !1388
  %14 = getelementptr inbounds { %"struct.std::_Rb_tree_node_base"*, %"struct.std::_Rb_tree_node_base"* }, { %"struct.std::_Rb_tree_node_base"*, %"struct.std::_Rb_tree_node_base"* }* %13, i32 0, i32 0, !llfi_index !1389
  %15 = extractvalue { %"struct.std::_Rb_tree_node_base"*, %"struct.std::_Rb_tree_node_base"* } %12, 0, !llfi_index !1390
  store %"struct.std::_Rb_tree_node_base"* %15, %"struct.std::_Rb_tree_node_base"** %14, align 8, !llfi_index !1391
  %16 = getelementptr inbounds { %"struct.std::_Rb_tree_node_base"*, %"struct.std::_Rb_tree_node_base"* }, { %"struct.std::_Rb_tree_node_base"*, %"struct.std::_Rb_tree_node_base"* }* %13, i32 0, i32 1, !llfi_index !1392
  %17 = extractvalue { %"struct.std::_Rb_tree_node_base"*, %"struct.std::_Rb_tree_node_base"* } %12, 1, !llfi_index !1393
  store %"struct.std::_Rb_tree_node_base"* %17, %"struct.std::_Rb_tree_node_base"** %16, align 8, !llfi_index !1394
  call void @_ZNSt8_Rb_treeIiiSt9_IdentityIiESt4lessIiESaIiEE11_Alloc_nodeC2ERS5_(%"struct.std::_Rb_tree<int, int, std::_Identity<int>, std::less<int>>::_Alloc_node"* nonnull align 8 dereferenceable(8) %8, %"class.std::_Rb_tree"* nonnull align 8 dereferenceable(48) %9), !llfi_index !1395
  %18 = getelementptr inbounds %"struct.std::pair", %"struct.std::pair"* %6, i32 0, i32 0, !llfi_index !1396
  %19 = load %"struct.std::_Rb_tree_node_base"*, %"struct.std::_Rb_tree_node_base"** %18, align 8, !llfi_index !1397
  %20 = getelementptr inbounds %"struct.std::pair", %"struct.std::pair"* %6, i32 0, i32 1, !llfi_index !1398
  %21 = load %"struct.std::_Rb_tree_node_base"*, %"struct.std::_Rb_tree_node_base"** %20, align 8, !llfi_index !1399
  %22 = load i32*, i32** %5, align 8, !llfi_index !1400
  %23 = call nonnull align 4 dereferenceable(4) i32* @_ZSt7forwardIRKiEOT_RNSt16remove_referenceIS2_E4typeE(i32* nonnull align 4 dereferenceable(4) %22) #2, !llfi_index !1401
  %24 = call %"struct.std::_Rb_tree_node_base"* @_ZNSt8_Rb_treeIiiSt9_IdentityIiESt4lessIiESaIiEE10_M_insert_IRKiNS5_11_Alloc_nodeEEESt17_Rb_tree_iteratorIiEPSt18_Rb_tree_node_baseSD_OT_RT0_(%"class.std::_Rb_tree"* nonnull align 8 dereferenceable(48) %9, %"struct.std::_Rb_tree_node_base"* %19, %"struct.std::_Rb_tree_node_base"* %21, i32* nonnull align 4 dereferenceable(4) %23, %"struct.std::_Rb_tree<int, int, std::_Identity<int>, std::less<int>>::_Alloc_node"* nonnull align 8 dereferenceable(8) %8), !llfi_index !1402
  %25 = getelementptr inbounds %"struct.std::_Rb_tree_const_iterator", %"struct.std::_Rb_tree_const_iterator"* %3, i32 0, i32 0, !llfi_index !1403
  store %"struct.std::_Rb_tree_node_base"* %24, %"struct.std::_Rb_tree_node_base"** %25, align 8, !llfi_index !1404
  %26 = getelementptr inbounds %"struct.std::_Rb_tree_const_iterator", %"struct.std::_Rb_tree_const_iterator"* %3, i32 0, i32 0, !llfi_index !1405
  %27 = load %"struct.std::_Rb_tree_node_base"*, %"struct.std::_Rb_tree_node_base"** %26, align 8, !llfi_index !1406
  ret %"struct.std::_Rb_tree_node_base"* %27, !llfi_index !1407
}

; Function Attrs: mustprogress noinline nounwind uwtable
define linkonce_odr dso_local nonnull align 4 dereferenceable(4) i32* @_ZSt7forwardIRKiEOT_RNSt16remove_referenceIS2_E4typeE(i32* nonnull align 4 dereferenceable(4) %0) #3 comdat {
  %2 = alloca i32*, align 8, !llfi_index !1408
  store i32* %0, i32** %2, align 8, !llfi_index !1409
  %3 = load i32*, i32** %2, align 8, !llfi_index !1410
  ret i32* %3, !llfi_index !1411
}

; Function Attrs: mustprogress noinline uwtable
define linkonce_odr dso_local %"struct.std::_Rb_tree_node_base"* @_ZNSt8_Rb_treeIiiSt9_IdentityIiESt4lessIiESaIiEE10_M_insert_IRKiNS5_11_Alloc_nodeEEESt17_Rb_tree_iteratorIiEPSt18_Rb_tree_node_baseSD_OT_RT0_(%"class.std::_Rb_tree"* nonnull align 8 dereferenceable(48) %0, %"struct.std::_Rb_tree_node_base"* %1, %"struct.std::_Rb_tree_node_base"* %2, i32* nonnull align 4 dereferenceable(4) %3, %"struct.std::_Rb_tree<int, int, std::_Identity<int>, std::less<int>>::_Alloc_node"* nonnull align 8 dereferenceable(8) %4) #4 comdat align 2 {
  %6 = alloca %"struct.std::_Rb_tree_const_iterator", align 8, !llfi_index !1412
  %7 = alloca %"class.std::_Rb_tree"*, align 8, !llfi_index !1413
  %8 = alloca %"struct.std::_Rb_tree_node_base"*, align 8, !llfi_index !1414
  %9 = alloca %"struct.std::_Rb_tree_node_base"*, align 8, !llfi_index !1415
  %10 = alloca i32*, align 8, !llfi_index !1416
  %11 = alloca %"struct.std::_Rb_tree<int, int, std::_Identity<int>, std::less<int>>::_Alloc_node"*, align 8, !llfi_index !1417
  %12 = alloca i8, align 1, !llfi_index !1418
  %13 = alloca %"struct.std::less", align 1, !llfi_index !1419
  %14 = alloca %"struct.std::_Rb_tree_node"*, align 8, !llfi_index !1420
  store %"class.std::_Rb_tree"* %0, %"class.std::_Rb_tree"** %7, align 8, !llfi_index !1421
  store %"struct.std::_Rb_tree_node_base"* %1, %"struct.std::_Rb_tree_node_base"** %8, align 8, !llfi_index !1422
  store %"struct.std::_Rb_tree_node_base"* %2, %"struct.std::_Rb_tree_node_base"** %9, align 8, !llfi_index !1423
  store i32* %3, i32** %10, align 8, !llfi_index !1424
  store %"struct.std::_Rb_tree<int, int, std::_Identity<int>, std::less<int>>::_Alloc_node"* %4, %"struct.std::_Rb_tree<int, int, std::_Identity<int>, std::less<int>>::_Alloc_node"** %11, align 8, !llfi_index !1425
  %15 = load %"class.std::_Rb_tree"*, %"class.std::_Rb_tree"** %7, align 8, !llfi_index !1426
  %16 = load %"struct.std::_Rb_tree_node_base"*, %"struct.std::_Rb_tree_node_base"** %8, align 8, !llfi_index !1427
  %17 = icmp ne %"struct.std::_Rb_tree_node_base"* %16, null, !llfi_index !1428
  br i1 %17, label %31, label %18, !llfi_index !1429

18:                                               ; preds = %5
  %19 = load %"struct.std::_Rb_tree_node_base"*, %"struct.std::_Rb_tree_node_base"** %9, align 8, !llfi_index !1430
  %20 = call %"struct.std::_Rb_tree_node_base"* @_ZNSt8_Rb_treeIiiSt9_IdentityIiESt4lessIiESaIiEE6_M_endEv(%"class.std::_Rb_tree"* nonnull align 8 dereferenceable(48) %15) #2, !llfi_index !1431
  %21 = icmp eq %"struct.std::_Rb_tree_node_base"* %19, %20, !llfi_index !1432
  br i1 %21, label %31, label %22, !llfi_index !1433

22:                                               ; preds = %18
  %23 = getelementptr inbounds %"class.std::_Rb_tree", %"class.std::_Rb_tree"* %15, i32 0, i32 0, !llfi_index !1434
  %24 = bitcast %"struct.std::_Rb_tree<int, int, std::_Identity<int>, std::less<int>>::_Rb_tree_impl"* %23 to %"struct.std::_Rb_tree_key_compare"*, !llfi_index !1435
  %25 = getelementptr inbounds %"struct.std::_Rb_tree_key_compare", %"struct.std::_Rb_tree_key_compare"* %24, i32 0, i32 0, !llfi_index !1436
  %26 = load i32*, i32** %10, align 8, !llfi_index !1437
  %27 = call nonnull align 4 dereferenceable(4) i32* @_ZNKSt9_IdentityIiEclERKi(%"struct.std::less"* nonnull align 1 dereferenceable(1) %13, i32* nonnull align 4 dereferenceable(4) %26), !llfi_index !1438
  %28 = load %"struct.std::_Rb_tree_node_base"*, %"struct.std::_Rb_tree_node_base"** %9, align 8, !llfi_index !1439
  %29 = call nonnull align 4 dereferenceable(4) i32* @_ZNSt8_Rb_treeIiiSt9_IdentityIiESt4lessIiESaIiEE6_S_keyEPKSt18_Rb_tree_node_base(%"struct.std::_Rb_tree_node_base"* %28), !llfi_index !1440
  %30 = call zeroext i1 @_ZNKSt4lessIiEclERKiS2_(%"struct.std::less"* nonnull align 1 dereferenceable(1) %25, i32* nonnull align 4 dereferenceable(4) %27, i32* nonnull align 4 dereferenceable(4) %29), !llfi_index !1441
  br label %31, !llfi_index !1442

31:                                               ; preds = %22, %18, %5
  %32 = phi i1 [ true, %18 ], [ true, %5 ], [ %30, %22 ], !llfi_index !1443
  %33 = zext i1 %32 to i8, !llfi_index !1444
  store i8 %33, i8* %12, align 1, !llfi_index !1445
  %34 = load %"struct.std::_Rb_tree<int, int, std::_Identity<int>, std::less<int>>::_Alloc_node"*, %"struct.std::_Rb_tree<int, int, std::_Identity<int>, std::less<int>>::_Alloc_node"** %11, align 8, !llfi_index !1446
  %35 = load i32*, i32** %10, align 8, !llfi_index !1447
  %36 = call nonnull align 4 dereferenceable(4) i32* @_ZSt7forwardIRKiEOT_RNSt16remove_referenceIS2_E4typeE(i32* nonnull align 4 dereferenceable(4) %35) #2, !llfi_index !1448
  %37 = call %"struct.std::_Rb_tree_node"* @_ZNKSt8_Rb_treeIiiSt9_IdentityIiESt4lessIiESaIiEE11_Alloc_nodeclIRKiEEPSt13_Rb_tree_nodeIiEOT_(%"struct.std::_Rb_tree<int, int, std::_Identity<int>, std::less<int>>::_Alloc_node"* nonnull align 8 dereferenceable(8) %34, i32* nonnull align 4 dereferenceable(4) %36), !llfi_index !1449
  store %"struct.std::_Rb_tree_node"* %37, %"struct.std::_Rb_tree_node"** %14, align 8, !llfi_index !1450
  %38 = load i8, i8* %12, align 1, !llfi_index !1451
  %39 = trunc i8 %38 to i1, !llfi_index !1452
  %40 = load %"struct.std::_Rb_tree_node"*, %"struct.std::_Rb_tree_node"** %14, align 8, !llfi_index !1453
  %41 = bitcast %"struct.std::_Rb_tree_node"* %40 to %"struct.std::_Rb_tree_node_base"*, !llfi_index !1454
  %42 = load %"struct.std::_Rb_tree_node_base"*, %"struct.std::_Rb_tree_node_base"** %9, align 8, !llfi_index !1455
  %43 = getelementptr inbounds %"class.std::_Rb_tree", %"class.std::_Rb_tree"* %15, i32 0, i32 0, !llfi_index !1456
  %44 = bitcast %"struct.std::_Rb_tree<int, int, std::_Identity<int>, std::less<int>>::_Rb_tree_impl"* %43 to i8*, !llfi_index !1457
  %45 = getelementptr inbounds i8, i8* %44, i64 8, !llfi_index !1458
  %46 = bitcast i8* %45 to %"struct.std::_Rb_tree_header"*, !llfi_index !1459
  %47 = getelementptr inbounds %"struct.std::_Rb_tree_header", %"struct.std::_Rb_tree_header"* %46, i32 0, i32 0, !llfi_index !1460
  call void @_ZSt29_Rb_tree_insert_and_rebalancebPSt18_Rb_tree_node_baseS0_RS_(i1 zeroext %39, %"struct.std::_Rb_tree_node_base"* %41, %"struct.std::_Rb_tree_node_base"* %42, %"struct.std::_Rb_tree_node_base"* nonnull align 8 dereferenceable(32) %47) #2, !llfi_index !1461
  %48 = getelementptr inbounds %"class.std::_Rb_tree", %"class.std::_Rb_tree"* %15, i32 0, i32 0, !llfi_index !1462
  %49 = bitcast %"struct.std::_Rb_tree<int, int, std::_Identity<int>, std::less<int>>::_Rb_tree_impl"* %48 to i8*, !llfi_index !1463
  %50 = getelementptr inbounds i8, i8* %49, i64 8, !llfi_index !1464
  %51 = bitcast i8* %50 to %"struct.std::_Rb_tree_header"*, !llfi_index !1465
  %52 = getelementptr inbounds %"struct.std::_Rb_tree_header", %"struct.std::_Rb_tree_header"* %51, i32 0, i32 1, !llfi_index !1466
  %53 = load i64, i64* %52, align 8, !llfi_index !1467
  %54 = add i64 %53, 1, !llfi_index !1468
  store i64 %54, i64* %52, align 8, !llfi_index !1469
  %55 = load %"struct.std::_Rb_tree_node"*, %"struct.std::_Rb_tree_node"** %14, align 8, !llfi_index !1470
  %56 = bitcast %"struct.std::_Rb_tree_node"* %55 to %"struct.std::_Rb_tree_node_base"*, !llfi_index !1471
  call void @_ZNSt17_Rb_tree_iteratorIiEC2EPSt18_Rb_tree_node_base(%"struct.std::_Rb_tree_const_iterator"* nonnull align 8 dereferenceable(8) %6, %"struct.std::_Rb_tree_node_base"* %56) #2, !llfi_index !1472
  %57 = getelementptr inbounds %"struct.std::_Rb_tree_const_iterator", %"struct.std::_Rb_tree_const_iterator"* %6, i32 0, i32 0, !llfi_index !1473
  %58 = load %"struct.std::_Rb_tree_node_base"*, %"struct.std::_Rb_tree_node_base"** %57, align 8, !llfi_index !1474
  ret %"struct.std::_Rb_tree_node_base"* %58, !llfi_index !1475
}

; Function Attrs: mustprogress noinline uwtable
define linkonce_odr dso_local %"struct.std::_Rb_tree_node"* @_ZNKSt8_Rb_treeIiiSt9_IdentityIiESt4lessIiESaIiEE11_Alloc_nodeclIRKiEEPSt13_Rb_tree_nodeIiEOT_(%"struct.std::_Rb_tree<int, int, std::_Identity<int>, std::less<int>>::_Alloc_node"* nonnull align 8 dereferenceable(8) %0, i32* nonnull align 4 dereferenceable(4) %1) #4 comdat align 2 {
  %3 = alloca %"struct.std::_Rb_tree<int, int, std::_Identity<int>, std::less<int>>::_Alloc_node"*, align 8, !llfi_index !1476
  %4 = alloca i32*, align 8, !llfi_index !1477
  store %"struct.std::_Rb_tree<int, int, std::_Identity<int>, std::less<int>>::_Alloc_node"* %0, %"struct.std::_Rb_tree<int, int, std::_Identity<int>, std::less<int>>::_Alloc_node"** %3, align 8, !llfi_index !1478
  store i32* %1, i32** %4, align 8, !llfi_index !1479
  %5 = load %"struct.std::_Rb_tree<int, int, std::_Identity<int>, std::less<int>>::_Alloc_node"*, %"struct.std::_Rb_tree<int, int, std::_Identity<int>, std::less<int>>::_Alloc_node"** %3, align 8, !llfi_index !1480
  %6 = getelementptr inbounds %"struct.std::_Rb_tree<int, int, std::_Identity<int>, std::less<int>>::_Alloc_node", %"struct.std::_Rb_tree<int, int, std::_Identity<int>, std::less<int>>::_Alloc_node"* %5, i32 0, i32 0, !llfi_index !1481
  %7 = load %"class.std::_Rb_tree"*, %"class.std::_Rb_tree"** %6, align 8, !llfi_index !1482
  %8 = load i32*, i32** %4, align 8, !llfi_index !1483
  %9 = call nonnull align 4 dereferenceable(4) i32* @_ZSt7forwardIRKiEOT_RNSt16remove_referenceIS2_E4typeE(i32* nonnull align 4 dereferenceable(4) %8) #2, !llfi_index !1484
  %10 = call %"struct.std::_Rb_tree_node"* @_ZNSt8_Rb_treeIiiSt9_IdentityIiESt4lessIiESaIiEE14_M_create_nodeIJRKiEEEPSt13_Rb_tree_nodeIiEDpOT_(%"class.std::_Rb_tree"* nonnull align 8 dereferenceable(48) %7, i32* nonnull align 4 dereferenceable(4) %9), !llfi_index !1485
  ret %"struct.std::_Rb_tree_node"* %10, !llfi_index !1486
}

; Function Attrs: mustprogress noinline uwtable
define linkonce_odr dso_local %"struct.std::_Rb_tree_node"* @_ZNSt8_Rb_treeIiiSt9_IdentityIiESt4lessIiESaIiEE14_M_create_nodeIJRKiEEEPSt13_Rb_tree_nodeIiEDpOT_(%"class.std::_Rb_tree"* nonnull align 8 dereferenceable(48) %0, i32* nonnull align 4 dereferenceable(4) %1) #4 comdat align 2 {
  %3 = alloca %"class.std::_Rb_tree"*, align 8, !llfi_index !1487
  %4 = alloca i32*, align 8, !llfi_index !1488
  %5 = alloca %"struct.std::_Rb_tree_node"*, align 8, !llfi_index !1489
  store %"class.std::_Rb_tree"* %0, %"class.std::_Rb_tree"** %3, align 8, !llfi_index !1490
  store i32* %1, i32** %4, align 8, !llfi_index !1491
  %6 = load %"class.std::_Rb_tree"*, %"class.std::_Rb_tree"** %3, align 8, !llfi_index !1492
  %7 = call %"struct.std::_Rb_tree_node"* @_ZNSt8_Rb_treeIiiSt9_IdentityIiESt4lessIiESaIiEE11_M_get_nodeEv(%"class.std::_Rb_tree"* nonnull align 8 dereferenceable(48) %6), !llfi_index !1493
  store %"struct.std::_Rb_tree_node"* %7, %"struct.std::_Rb_tree_node"** %5, align 8, !llfi_index !1494
  %8 = load %"struct.std::_Rb_tree_node"*, %"struct.std::_Rb_tree_node"** %5, align 8, !llfi_index !1495
  %9 = load i32*, i32** %4, align 8, !llfi_index !1496
  %10 = call nonnull align 4 dereferenceable(4) i32* @_ZSt7forwardIRKiEOT_RNSt16remove_referenceIS2_E4typeE(i32* nonnull align 4 dereferenceable(4) %9) #2, !llfi_index !1497
  call void @_ZNSt8_Rb_treeIiiSt9_IdentityIiESt4lessIiESaIiEE17_M_construct_nodeIJRKiEEEvPSt13_Rb_tree_nodeIiEDpOT_(%"class.std::_Rb_tree"* nonnull align 8 dereferenceable(48) %6, %"struct.std::_Rb_tree_node"* %8, i32* nonnull align 4 dereferenceable(4) %10), !llfi_index !1498
  %11 = load %"struct.std::_Rb_tree_node"*, %"struct.std::_Rb_tree_node"** %5, align 8, !llfi_index !1499
  ret %"struct.std::_Rb_tree_node"* %11, !llfi_index !1500
}

; Function Attrs: mustprogress noinline nounwind uwtable
define linkonce_odr dso_local void @_ZNSt8_Rb_treeIiiSt9_IdentityIiESt4lessIiESaIiEE17_M_construct_nodeIJRKiEEEvPSt13_Rb_tree_nodeIiEDpOT_(%"class.std::_Rb_tree"* nonnull align 8 dereferenceable(48) %0, %"struct.std::_Rb_tree_node"* %1, i32* nonnull align 4 dereferenceable(4) %2) #3 comdat align 2 {
  %4 = alloca %"class.std::_Rb_tree"*, align 8, !llfi_index !1501
  %5 = alloca %"struct.std::_Rb_tree_node"*, align 8, !llfi_index !1502
  %6 = alloca i32*, align 8, !llfi_index !1503
  store %"class.std::_Rb_tree"* %0, %"class.std::_Rb_tree"** %4, align 8, !llfi_index !1504
  store %"struct.std::_Rb_tree_node"* %1, %"struct.std::_Rb_tree_node"** %5, align 8, !llfi_index !1505
  store i32* %2, i32** %6, align 8, !llfi_index !1506
  %7 = load %"class.std::_Rb_tree"*, %"class.std::_Rb_tree"** %4, align 8, !llfi_index !1507
  %8 = load %"struct.std::_Rb_tree_node"*, %"struct.std::_Rb_tree_node"** %5, align 8, !llfi_index !1508
  %9 = bitcast %"struct.std::_Rb_tree_node"* %8 to i8*, !llfi_index !1509
  %10 = bitcast i8* %9 to %"struct.std::_Rb_tree_node"*, !llfi_index !1510
  %11 = call nonnull align 1 dereferenceable(1) %"struct.std::less"* @_ZNSt8_Rb_treeIiiSt9_IdentityIiESt4lessIiESaIiEE21_M_get_Node_allocatorEv(%"class.std::_Rb_tree"* nonnull align 8 dereferenceable(48) %7) #2, !llfi_index !1511
  %12 = load %"struct.std::_Rb_tree_node"*, %"struct.std::_Rb_tree_node"** %5, align 8, !llfi_index !1512
  %13 = call i32* @_ZNSt13_Rb_tree_nodeIiE9_M_valptrEv(%"struct.std::_Rb_tree_node"* nonnull align 8 dereferenceable(36) %12), !llfi_index !1513
  %14 = load i32*, i32** %6, align 8, !llfi_index !1514
  %15 = call nonnull align 4 dereferenceable(4) i32* @_ZSt7forwardIRKiEOT_RNSt16remove_referenceIS2_E4typeE(i32* nonnull align 4 dereferenceable(4) %14) #2, !llfi_index !1515
  call void @_ZNSt16allocator_traitsISaISt13_Rb_tree_nodeIiEEE9constructIiJRKiEEEvRS2_PT_DpOT0_(%"struct.std::less"* nonnull align 1 dereferenceable(1) %11, i32* %13, i32* nonnull align 4 dereferenceable(4) %15) #2, !llfi_index !1516
  ret void, !llfi_index !1517
}

; Function Attrs: mustprogress noinline nounwind uwtable
define linkonce_odr dso_local void @_ZNSt16allocator_traitsISaISt13_Rb_tree_nodeIiEEE9constructIiJRKiEEEvRS2_PT_DpOT0_(%"struct.std::less"* nonnull align 1 dereferenceable(1) %0, i32* %1, i32* nonnull align 4 dereferenceable(4) %2) #3 comdat align 2 {
  %4 = alloca %"struct.std::less"*, align 8, !llfi_index !1518
  %5 = alloca i32*, align 8, !llfi_index !1519
  %6 = alloca i32*, align 8, !llfi_index !1520
  store %"struct.std::less"* %0, %"struct.std::less"** %4, align 8, !llfi_index !1521
  store i32* %1, i32** %5, align 8, !llfi_index !1522
  store i32* %2, i32** %6, align 8, !llfi_index !1523
  %7 = load %"struct.std::less"*, %"struct.std::less"** %4, align 8, !llfi_index !1524
  %8 = bitcast %"struct.std::less"* %7 to %"struct.std::less"*, !llfi_index !1525
  %9 = load i32*, i32** %5, align 8, !llfi_index !1526
  %10 = load i32*, i32** %6, align 8, !llfi_index !1527
  %11 = call nonnull align 4 dereferenceable(4) i32* @_ZSt7forwardIRKiEOT_RNSt16remove_referenceIS2_E4typeE(i32* nonnull align 4 dereferenceable(4) %10) #2, !llfi_index !1528
  call void @_ZN9__gnu_cxx13new_allocatorISt13_Rb_tree_nodeIiEE9constructIiJRKiEEEvPT_DpOT0_(%"struct.std::less"* nonnull align 1 dereferenceable(1) %8, i32* %9, i32* nonnull align 4 dereferenceable(4) %11) #2, !llfi_index !1529
  ret void, !llfi_index !1530
}

; Function Attrs: mustprogress noinline nounwind uwtable
define linkonce_odr dso_local void @_ZN9__gnu_cxx13new_allocatorISt13_Rb_tree_nodeIiEE9constructIiJRKiEEEvPT_DpOT0_(%"struct.std::less"* nonnull align 1 dereferenceable(1) %0, i32* %1, i32* nonnull align 4 dereferenceable(4) %2) #3 comdat align 2 {
  %4 = alloca %"struct.std::less"*, align 8, !llfi_index !1531
  %5 = alloca i32*, align 8, !llfi_index !1532
  %6 = alloca i32*, align 8, !llfi_index !1533
  store %"struct.std::less"* %0, %"struct.std::less"** %4, align 8, !llfi_index !1534
  store i32* %1, i32** %5, align 8, !llfi_index !1535
  store i32* %2, i32** %6, align 8, !llfi_index !1536
  %7 = load %"struct.std::less"*, %"struct.std::less"** %4, align 8, !llfi_index !1537
  %8 = load i32*, i32** %5, align 8, !llfi_index !1538
  %9 = bitcast i32* %8 to i8*, !llfi_index !1539
  %10 = bitcast i8* %9 to i32*, !llfi_index !1540
  %11 = load i32*, i32** %6, align 8, !llfi_index !1541
  %12 = call nonnull align 4 dereferenceable(4) i32* @_ZSt7forwardIRKiEOT_RNSt16remove_referenceIS2_E4typeE(i32* nonnull align 4 dereferenceable(4) %11) #2, !llfi_index !1542
  %13 = load i32, i32* %12, align 4, !llfi_index !1543
  store i32 %13, i32* %10, align 4, !llfi_index !1544
  ret void, !llfi_index !1545
}

; Function Attrs: mustprogress noinline nounwind uwtable
define linkonce_odr dso_local %"struct.std::_Rb_tree_node_base"* @_ZNKSt8_Rb_treeIiiSt9_IdentityIiESt4lessIiESaIiEE5beginEv(%"class.std::_Rb_tree"* nonnull align 8 dereferenceable(48) %0) #3 comdat align 2 {
  %2 = alloca %"struct.std::_Rb_tree_const_iterator", align 8, !llfi_index !1546
  %3 = alloca %"class.std::_Rb_tree"*, align 8, !llfi_index !1547
  store %"class.std::_Rb_tree"* %0, %"class.std::_Rb_tree"** %3, align 8, !llfi_index !1548
  %4 = load %"class.std::_Rb_tree"*, %"class.std::_Rb_tree"** %3, align 8, !llfi_index !1549
  %5 = getelementptr inbounds %"class.std::_Rb_tree", %"class.std::_Rb_tree"* %4, i32 0, i32 0, !llfi_index !1550
  %6 = bitcast %"struct.std::_Rb_tree<int, int, std::_Identity<int>, std::less<int>>::_Rb_tree_impl"* %5 to i8*, !llfi_index !1551
  %7 = getelementptr inbounds i8, i8* %6, i64 8, !llfi_index !1552
  %8 = bitcast i8* %7 to %"struct.std::_Rb_tree_header"*, !llfi_index !1553
  %9 = getelementptr inbounds %"struct.std::_Rb_tree_header", %"struct.std::_Rb_tree_header"* %8, i32 0, i32 0, !llfi_index !1554
  %10 = getelementptr inbounds %"struct.std::_Rb_tree_node_base", %"struct.std::_Rb_tree_node_base"* %9, i32 0, i32 2, !llfi_index !1555
  %11 = load %"struct.std::_Rb_tree_node_base"*, %"struct.std::_Rb_tree_node_base"** %10, align 8, !llfi_index !1556
  call void @_ZNSt23_Rb_tree_const_iteratorIiEC2EPKSt18_Rb_tree_node_base(%"struct.std::_Rb_tree_const_iterator"* nonnull align 8 dereferenceable(8) %2, %"struct.std::_Rb_tree_node_base"* %11) #2, !llfi_index !1557
  %12 = getelementptr inbounds %"struct.std::_Rb_tree_const_iterator", %"struct.std::_Rb_tree_const_iterator"* %2, i32 0, i32 0, !llfi_index !1558
  %13 = load %"struct.std::_Rb_tree_node_base"*, %"struct.std::_Rb_tree_node_base"** %12, align 8, !llfi_index !1559
  ret %"struct.std::_Rb_tree_node_base"* %13, !llfi_index !1560
}

; Function Attrs: mustprogress noinline nounwind uwtable
define linkonce_odr dso_local zeroext i1 @_ZNKSt8_Rb_treeIiiSt9_IdentityIiESt4lessIiESaIiEE5emptyEv(%"class.std::_Rb_tree"* nonnull align 8 dereferenceable(48) %0) #3 comdat align 2 {
  %2 = alloca %"class.std::_Rb_tree"*, align 8, !llfi_index !1561
  store %"class.std::_Rb_tree"* %0, %"class.std::_Rb_tree"** %2, align 8, !llfi_index !1562
  %3 = load %"class.std::_Rb_tree"*, %"class.std::_Rb_tree"** %2, align 8, !llfi_index !1563
  %4 = getelementptr inbounds %"class.std::_Rb_tree", %"class.std::_Rb_tree"* %3, i32 0, i32 0, !llfi_index !1564
  %5 = bitcast %"struct.std::_Rb_tree<int, int, std::_Identity<int>, std::less<int>>::_Rb_tree_impl"* %4 to i8*, !llfi_index !1565
  %6 = getelementptr inbounds i8, i8* %5, i64 8, !llfi_index !1566
  %7 = bitcast i8* %6 to %"struct.std::_Rb_tree_header"*, !llfi_index !1567
  %8 = getelementptr inbounds %"struct.std::_Rb_tree_header", %"struct.std::_Rb_tree_header"* %7, i32 0, i32 1, !llfi_index !1568
  %9 = load i64, i64* %8, align 8, !llfi_index !1569
  %10 = icmp eq i64 %9, 0, !llfi_index !1570
  ret i1 %10, !llfi_index !1571
}

; Function Attrs: mustprogress noinline nounwind uwtable
define linkonce_odr dso_local void @_ZNSt8multisetIiSt4lessIiESaIiEE4swapERS3_(%"class.std::multiset"* nonnull align 8 dereferenceable(48) %0, %"class.std::multiset"* nonnull align 8 dereferenceable(48) %1) #3 comdat align 2 {
  %3 = alloca %"class.std::multiset"*, align 8, !llfi_index !1572
  %4 = alloca %"class.std::multiset"*, align 8, !llfi_index !1573
  store %"class.std::multiset"* %0, %"class.std::multiset"** %3, align 8, !llfi_index !1574
  store %"class.std::multiset"* %1, %"class.std::multiset"** %4, align 8, !llfi_index !1575
  %5 = load %"class.std::multiset"*, %"class.std::multiset"** %3, align 8, !llfi_index !1576
  %6 = getelementptr inbounds %"class.std::multiset", %"class.std::multiset"* %5, i32 0, i32 0, !llfi_index !1577
  %7 = load %"class.std::multiset"*, %"class.std::multiset"** %4, align 8, !llfi_index !1578
  %8 = getelementptr inbounds %"class.std::multiset", %"class.std::multiset"* %7, i32 0, i32 0, !llfi_index !1579
  call void @_ZNSt8_Rb_treeIiiSt9_IdentityIiESt4lessIiESaIiEE4swapERS5_(%"class.std::_Rb_tree"* nonnull align 8 dereferenceable(48) %6, %"class.std::_Rb_tree"* nonnull align 8 dereferenceable(48) %8) #2, !llfi_index !1580
  ret void, !llfi_index !1581
}

; Function Attrs: mustprogress noinline nounwind uwtable
define linkonce_odr dso_local void @_ZNSt8_Rb_treeIiiSt9_IdentityIiESt4lessIiESaIiEE4swapERS5_(%"class.std::_Rb_tree"* nonnull align 8 dereferenceable(48) %0, %"class.std::_Rb_tree"* nonnull align 8 dereferenceable(48) %1) #3 comdat align 2 personality i8* bitcast (i32 (...)* @__gxx_personality_v0 to i8*) {
  %3 = alloca %"class.std::_Rb_tree"*, align 8, !llfi_index !1582
  %4 = alloca %"class.std::_Rb_tree"*, align 8, !llfi_index !1583
  store %"class.std::_Rb_tree"* %0, %"class.std::_Rb_tree"** %3, align 8, !llfi_index !1584
  store %"class.std::_Rb_tree"* %1, %"class.std::_Rb_tree"** %4, align 8, !llfi_index !1585
  %5 = load %"class.std::_Rb_tree"*, %"class.std::_Rb_tree"** %3, align 8, !llfi_index !1586
  %6 = call nonnull align 8 dereferenceable(8) %"struct.std::_Rb_tree_node_base"** @_ZNSt8_Rb_treeIiiSt9_IdentityIiESt4lessIiESaIiEE7_M_rootEv(%"class.std::_Rb_tree"* nonnull align 8 dereferenceable(48) %5) #2, !llfi_index !1587
  %7 = load %"struct.std::_Rb_tree_node_base"*, %"struct.std::_Rb_tree_node_base"** %6, align 8, !llfi_index !1588
  %8 = icmp eq %"struct.std::_Rb_tree_node_base"* %7, null, !llfi_index !1589
  br i1 %8, label %9, label %26, !llfi_index !1590

9:                                                ; preds = %2
  %10 = load %"class.std::_Rb_tree"*, %"class.std::_Rb_tree"** %4, align 8, !llfi_index !1591
  %11 = call nonnull align 8 dereferenceable(8) %"struct.std::_Rb_tree_node_base"** @_ZNSt8_Rb_treeIiiSt9_IdentityIiESt4lessIiESaIiEE7_M_rootEv(%"class.std::_Rb_tree"* nonnull align 8 dereferenceable(48) %10) #2, !llfi_index !1592
  %12 = load %"struct.std::_Rb_tree_node_base"*, %"struct.std::_Rb_tree_node_base"** %11, align 8, !llfi_index !1593
  %13 = icmp ne %"struct.std::_Rb_tree_node_base"* %12, null, !llfi_index !1594
  br i1 %13, label %14, label %25, !llfi_index !1595

14:                                               ; preds = %9
  %15 = getelementptr inbounds %"class.std::_Rb_tree", %"class.std::_Rb_tree"* %5, i32 0, i32 0, !llfi_index !1596
  %16 = bitcast %"struct.std::_Rb_tree<int, int, std::_Identity<int>, std::less<int>>::_Rb_tree_impl"* %15 to i8*, !llfi_index !1597
  %17 = getelementptr inbounds i8, i8* %16, i64 8, !llfi_index !1598
  %18 = bitcast i8* %17 to %"struct.std::_Rb_tree_header"*, !llfi_index !1599
  %19 = load %"class.std::_Rb_tree"*, %"class.std::_Rb_tree"** %4, align 8, !llfi_index !1600
  %20 = getelementptr inbounds %"class.std::_Rb_tree", %"class.std::_Rb_tree"* %19, i32 0, i32 0, !llfi_index !1601
  %21 = bitcast %"struct.std::_Rb_tree<int, int, std::_Identity<int>, std::less<int>>::_Rb_tree_impl"* %20 to i8*, !llfi_index !1602
  %22 = getelementptr inbounds i8, i8* %21, i64 8, !llfi_index !1603
  %23 = bitcast i8* %22 to %"struct.std::_Rb_tree_header"*, !llfi_index !1604
  invoke void @_ZNSt15_Rb_tree_header12_M_move_dataERS_(%"struct.std::_Rb_tree_header"* nonnull align 8 dereferenceable(40) %18, %"struct.std::_Rb_tree_header"* nonnull align 8 dereferenceable(40) %23)
          to label %24 unwind label %86, !llfi_index !1605

24:                                               ; preds = %14
  br label %25, !llfi_index !1606

25:                                               ; preds = %24, %9
  br label %74, !llfi_index !1607

26:                                               ; preds = %2
  %27 = load %"class.std::_Rb_tree"*, %"class.std::_Rb_tree"** %4, align 8, !llfi_index !1608
  %28 = call nonnull align 8 dereferenceable(8) %"struct.std::_Rb_tree_node_base"** @_ZNSt8_Rb_treeIiiSt9_IdentityIiESt4lessIiESaIiEE7_M_rootEv(%"class.std::_Rb_tree"* nonnull align 8 dereferenceable(48) %27) #2, !llfi_index !1609
  %29 = load %"struct.std::_Rb_tree_node_base"*, %"struct.std::_Rb_tree_node_base"** %28, align 8, !llfi_index !1610
  %30 = icmp eq %"struct.std::_Rb_tree_node_base"* %29, null, !llfi_index !1611
  br i1 %30, label %31, label %42, !llfi_index !1612

31:                                               ; preds = %26
  %32 = load %"class.std::_Rb_tree"*, %"class.std::_Rb_tree"** %4, align 8, !llfi_index !1613
  %33 = getelementptr inbounds %"class.std::_Rb_tree", %"class.std::_Rb_tree"* %32, i32 0, i32 0, !llfi_index !1614
  %34 = bitcast %"struct.std::_Rb_tree<int, int, std::_Identity<int>, std::less<int>>::_Rb_tree_impl"* %33 to i8*, !llfi_index !1615
  %35 = getelementptr inbounds i8, i8* %34, i64 8, !llfi_index !1616
  %36 = bitcast i8* %35 to %"struct.std::_Rb_tree_header"*, !llfi_index !1617
  %37 = getelementptr inbounds %"class.std::_Rb_tree", %"class.std::_Rb_tree"* %5, i32 0, i32 0, !llfi_index !1618
  %38 = bitcast %"struct.std::_Rb_tree<int, int, std::_Identity<int>, std::less<int>>::_Rb_tree_impl"* %37 to i8*, !llfi_index !1619
  %39 = getelementptr inbounds i8, i8* %38, i64 8, !llfi_index !1620
  %40 = bitcast i8* %39 to %"struct.std::_Rb_tree_header"*, !llfi_index !1621
  invoke void @_ZNSt15_Rb_tree_header12_M_move_dataERS_(%"struct.std::_Rb_tree_header"* nonnull align 8 dereferenceable(40) %36, %"struct.std::_Rb_tree_header"* nonnull align 8 dereferenceable(40) %40)
          to label %41 unwind label %86, !llfi_index !1622

41:                                               ; preds = %31
  br label %73, !llfi_index !1623

42:                                               ; preds = %26
  %43 = call nonnull align 8 dereferenceable(8) %"struct.std::_Rb_tree_node_base"** @_ZNSt8_Rb_treeIiiSt9_IdentityIiESt4lessIiESaIiEE7_M_rootEv(%"class.std::_Rb_tree"* nonnull align 8 dereferenceable(48) %5) #2, !llfi_index !1624
  %44 = load %"class.std::_Rb_tree"*, %"class.std::_Rb_tree"** %4, align 8, !llfi_index !1625
  %45 = call nonnull align 8 dereferenceable(8) %"struct.std::_Rb_tree_node_base"** @_ZNSt8_Rb_treeIiiSt9_IdentityIiESt4lessIiESaIiEE7_M_rootEv(%"class.std::_Rb_tree"* nonnull align 8 dereferenceable(48) %44) #2, !llfi_index !1626
  call void @_ZSt4swapIPSt18_Rb_tree_node_baseENSt9enable_ifIXsr6__and_ISt6__not_ISt15__is_tuple_likeIT_EESt21is_move_constructibleIS5_ESt18is_move_assignableIS5_EEE5valueEvE4typeERS5_SE_(%"struct.std::_Rb_tree_node_base"** nonnull align 8 dereferenceable(8) %43, %"struct.std::_Rb_tree_node_base"** nonnull align 8 dereferenceable(8) %45) #2, !llfi_index !1627
  %46 = call nonnull align 8 dereferenceable(8) %"struct.std::_Rb_tree_node_base"** @_ZNSt8_Rb_treeIiiSt9_IdentityIiESt4lessIiESaIiEE11_M_leftmostEv(%"class.std::_Rb_tree"* nonnull align 8 dereferenceable(48) %5) #2, !llfi_index !1628
  %47 = load %"class.std::_Rb_tree"*, %"class.std::_Rb_tree"** %4, align 8, !llfi_index !1629
  %48 = call nonnull align 8 dereferenceable(8) %"struct.std::_Rb_tree_node_base"** @_ZNSt8_Rb_treeIiiSt9_IdentityIiESt4lessIiESaIiEE11_M_leftmostEv(%"class.std::_Rb_tree"* nonnull align 8 dereferenceable(48) %47) #2, !llfi_index !1630
  call void @_ZSt4swapIPSt18_Rb_tree_node_baseENSt9enable_ifIXsr6__and_ISt6__not_ISt15__is_tuple_likeIT_EESt21is_move_constructibleIS5_ESt18is_move_assignableIS5_EEE5valueEvE4typeERS5_SE_(%"struct.std::_Rb_tree_node_base"** nonnull align 8 dereferenceable(8) %46, %"struct.std::_Rb_tree_node_base"** nonnull align 8 dereferenceable(8) %48) #2, !llfi_index !1631
  %49 = call nonnull align 8 dereferenceable(8) %"struct.std::_Rb_tree_node_base"** @_ZNSt8_Rb_treeIiiSt9_IdentityIiESt4lessIiESaIiEE12_M_rightmostEv(%"class.std::_Rb_tree"* nonnull align 8 dereferenceable(48) %5) #2, !llfi_index !1632
  %50 = load %"class.std::_Rb_tree"*, %"class.std::_Rb_tree"** %4, align 8, !llfi_index !1633
  %51 = call nonnull align 8 dereferenceable(8) %"struct.std::_Rb_tree_node_base"** @_ZNSt8_Rb_treeIiiSt9_IdentityIiESt4lessIiESaIiEE12_M_rightmostEv(%"class.std::_Rb_tree"* nonnull align 8 dereferenceable(48) %50) #2, !llfi_index !1634
  call void @_ZSt4swapIPSt18_Rb_tree_node_baseENSt9enable_ifIXsr6__and_ISt6__not_ISt15__is_tuple_likeIT_EESt21is_move_constructibleIS5_ESt18is_move_assignableIS5_EEE5valueEvE4typeERS5_SE_(%"struct.std::_Rb_tree_node_base"** nonnull align 8 dereferenceable(8) %49, %"struct.std::_Rb_tree_node_base"** nonnull align 8 dereferenceable(8) %51) #2, !llfi_index !1635
  %52 = call %"struct.std::_Rb_tree_node_base"* @_ZNSt8_Rb_treeIiiSt9_IdentityIiESt4lessIiESaIiEE6_M_endEv(%"class.std::_Rb_tree"* nonnull align 8 dereferenceable(48) %5) #2, !llfi_index !1636
  %53 = call nonnull align 8 dereferenceable(8) %"struct.std::_Rb_tree_node_base"** @_ZNSt8_Rb_treeIiiSt9_IdentityIiESt4lessIiESaIiEE7_M_rootEv(%"class.std::_Rb_tree"* nonnull align 8 dereferenceable(48) %5) #2, !llfi_index !1637
  %54 = load %"struct.std::_Rb_tree_node_base"*, %"struct.std::_Rb_tree_node_base"** %53, align 8, !llfi_index !1638
  %55 = getelementptr inbounds %"struct.std::_Rb_tree_node_base", %"struct.std::_Rb_tree_node_base"* %54, i32 0, i32 1, !llfi_index !1639
  store %"struct.std::_Rb_tree_node_base"* %52, %"struct.std::_Rb_tree_node_base"** %55, align 8, !llfi_index !1640
  %56 = load %"class.std::_Rb_tree"*, %"class.std::_Rb_tree"** %4, align 8, !llfi_index !1641
  %57 = call %"struct.std::_Rb_tree_node_base"* @_ZNSt8_Rb_treeIiiSt9_IdentityIiESt4lessIiESaIiEE6_M_endEv(%"class.std::_Rb_tree"* nonnull align 8 dereferenceable(48) %56) #2, !llfi_index !1642
  %58 = load %"class.std::_Rb_tree"*, %"class.std::_Rb_tree"** %4, align 8, !llfi_index !1643
  %59 = call nonnull align 8 dereferenceable(8) %"struct.std::_Rb_tree_node_base"** @_ZNSt8_Rb_treeIiiSt9_IdentityIiESt4lessIiESaIiEE7_M_rootEv(%"class.std::_Rb_tree"* nonnull align 8 dereferenceable(48) %58) #2, !llfi_index !1644
  %60 = load %"struct.std::_Rb_tree_node_base"*, %"struct.std::_Rb_tree_node_base"** %59, align 8, !llfi_index !1645
  %61 = getelementptr inbounds %"struct.std::_Rb_tree_node_base", %"struct.std::_Rb_tree_node_base"* %60, i32 0, i32 1, !llfi_index !1646
  store %"struct.std::_Rb_tree_node_base"* %57, %"struct.std::_Rb_tree_node_base"** %61, align 8, !llfi_index !1647
  %62 = getelementptr inbounds %"class.std::_Rb_tree", %"class.std::_Rb_tree"* %5, i32 0, i32 0, !llfi_index !1648
  %63 = bitcast %"struct.std::_Rb_tree<int, int, std::_Identity<int>, std::less<int>>::_Rb_tree_impl"* %62 to i8*, !llfi_index !1649
  %64 = getelementptr inbounds i8, i8* %63, i64 8, !llfi_index !1650
  %65 = bitcast i8* %64 to %"struct.std::_Rb_tree_header"*, !llfi_index !1651
  %66 = getelementptr inbounds %"struct.std::_Rb_tree_header", %"struct.std::_Rb_tree_header"* %65, i32 0, i32 1, !llfi_index !1652
  %67 = load %"class.std::_Rb_tree"*, %"class.std::_Rb_tree"** %4, align 8, !llfi_index !1653
  %68 = getelementptr inbounds %"class.std::_Rb_tree", %"class.std::_Rb_tree"* %67, i32 0, i32 0, !llfi_index !1654
  %69 = bitcast %"struct.std::_Rb_tree<int, int, std::_Identity<int>, std::less<int>>::_Rb_tree_impl"* %68 to i8*, !llfi_index !1655
  %70 = getelementptr inbounds i8, i8* %69, i64 8, !llfi_index !1656
  %71 = bitcast i8* %70 to %"struct.std::_Rb_tree_header"*, !llfi_index !1657
  %72 = getelementptr inbounds %"struct.std::_Rb_tree_header", %"struct.std::_Rb_tree_header"* %71, i32 0, i32 1, !llfi_index !1658
  call void @_ZSt4swapImENSt9enable_ifIXsr6__and_ISt6__not_ISt15__is_tuple_likeIT_EESt21is_move_constructibleIS3_ESt18is_move_assignableIS3_EEE5valueEvE4typeERS3_SC_(i64* nonnull align 8 dereferenceable(8) %66, i64* nonnull align 8 dereferenceable(8) %72) #2, !llfi_index !1659
  br label %73, !llfi_index !1660

73:                                               ; preds = %42, %41
  br label %74, !llfi_index !1661

74:                                               ; preds = %73, %25
  %75 = getelementptr inbounds %"class.std::_Rb_tree", %"class.std::_Rb_tree"* %5, i32 0, i32 0, !llfi_index !1662
  %76 = bitcast %"struct.std::_Rb_tree<int, int, std::_Identity<int>, std::less<int>>::_Rb_tree_impl"* %75 to %"struct.std::_Rb_tree_key_compare"*, !llfi_index !1663
  %77 = getelementptr inbounds %"struct.std::_Rb_tree_key_compare", %"struct.std::_Rb_tree_key_compare"* %76, i32 0, i32 0, !llfi_index !1664
  %78 = load %"class.std::_Rb_tree"*, %"class.std::_Rb_tree"** %4, align 8, !llfi_index !1665
  %79 = getelementptr inbounds %"class.std::_Rb_tree", %"class.std::_Rb_tree"* %78, i32 0, i32 0, !llfi_index !1666
  %80 = bitcast %"struct.std::_Rb_tree<int, int, std::_Identity<int>, std::less<int>>::_Rb_tree_impl"* %79 to %"struct.std::_Rb_tree_key_compare"*, !llfi_index !1667
  %81 = getelementptr inbounds %"struct.std::_Rb_tree_key_compare", %"struct.std::_Rb_tree_key_compare"* %80, i32 0, i32 0, !llfi_index !1668
  call void @_ZSt4swapISt4lessIiEENSt9enable_ifIXsr6__and_ISt6__not_ISt15__is_tuple_likeIT_EESt21is_move_constructibleIS5_ESt18is_move_assignableIS5_EEE5valueEvE4typeERS5_SE_(%"struct.std::less"* nonnull align 1 dereferenceable(1) %77, %"struct.std::less"* nonnull align 1 dereferenceable(1) %81) #2, !llfi_index !1669
  %82 = call nonnull align 1 dereferenceable(1) %"struct.std::less"* @_ZNSt8_Rb_treeIiiSt9_IdentityIiESt4lessIiESaIiEE21_M_get_Node_allocatorEv(%"class.std::_Rb_tree"* nonnull align 8 dereferenceable(48) %5) #2, !llfi_index !1670
  %83 = load %"class.std::_Rb_tree"*, %"class.std::_Rb_tree"** %4, align 8, !llfi_index !1671
  %84 = call nonnull align 1 dereferenceable(1) %"struct.std::less"* @_ZNSt8_Rb_treeIiiSt9_IdentityIiESt4lessIiESaIiEE21_M_get_Node_allocatorEv(%"class.std::_Rb_tree"* nonnull align 8 dereferenceable(48) %83) #2, !llfi_index !1672
  invoke void @_ZN9__gnu_cxx14__alloc_traitsISaISt13_Rb_tree_nodeIiEES2_E10_S_on_swapERS3_S5_(%"struct.std::less"* nonnull align 1 dereferenceable(1) %82, %"struct.std::less"* nonnull align 1 dereferenceable(1) %84)
          to label %85 unwind label %86, !llfi_index !1673

85:                                               ; preds = %74
  ret void, !llfi_index !1674

86:                                               ; preds = %74, %31, %14
  %87 = landingpad { i8*, i32 }
          catch i8* null, !llfi_index !1675
  %88 = extractvalue { i8*, i32 } %87, 0, !llfi_index !1676
  call void @__clang_call_terminate(i8* %88) #14, !llfi_index !1677
  unreachable, !llfi_index !1678
}

; Function Attrs: mustprogress noinline nounwind uwtable
define linkonce_odr dso_local nonnull align 8 dereferenceable(8) %"struct.std::_Rb_tree_node_base"** @_ZNSt8_Rb_treeIiiSt9_IdentityIiESt4lessIiESaIiEE7_M_rootEv(%"class.std::_Rb_tree"* nonnull align 8 dereferenceable(48) %0) #3 comdat align 2 {
  %2 = alloca %"class.std::_Rb_tree"*, align 8, !llfi_index !1679
  store %"class.std::_Rb_tree"* %0, %"class.std::_Rb_tree"** %2, align 8, !llfi_index !1680
  %3 = load %"class.std::_Rb_tree"*, %"class.std::_Rb_tree"** %2, align 8, !llfi_index !1681
  %4 = getelementptr inbounds %"class.std::_Rb_tree", %"class.std::_Rb_tree"* %3, i32 0, i32 0, !llfi_index !1682
  %5 = bitcast %"struct.std::_Rb_tree<int, int, std::_Identity<int>, std::less<int>>::_Rb_tree_impl"* %4 to i8*, !llfi_index !1683
  %6 = getelementptr inbounds i8, i8* %5, i64 8, !llfi_index !1684
  %7 = bitcast i8* %6 to %"struct.std::_Rb_tree_header"*, !llfi_index !1685
  %8 = getelementptr inbounds %"struct.std::_Rb_tree_header", %"struct.std::_Rb_tree_header"* %7, i32 0, i32 0, !llfi_index !1686
  %9 = getelementptr inbounds %"struct.std::_Rb_tree_node_base", %"struct.std::_Rb_tree_node_base"* %8, i32 0, i32 1, !llfi_index !1687
  ret %"struct.std::_Rb_tree_node_base"** %9, !llfi_index !1688
}

; Function Attrs: mustprogress noinline nounwind uwtable
define linkonce_odr dso_local void @_ZNSt15_Rb_tree_header12_M_move_dataERS_(%"struct.std::_Rb_tree_header"* nonnull align 8 dereferenceable(40) %0, %"struct.std::_Rb_tree_header"* nonnull align 8 dereferenceable(40) %1) #3 comdat align 2 {
  %3 = alloca %"struct.std::_Rb_tree_header"*, align 8, !llfi_index !1689
  %4 = alloca %"struct.std::_Rb_tree_header"*, align 8, !llfi_index !1690
  store %"struct.std::_Rb_tree_header"* %0, %"struct.std::_Rb_tree_header"** %3, align 8, !llfi_index !1691
  store %"struct.std::_Rb_tree_header"* %1, %"struct.std::_Rb_tree_header"** %4, align 8, !llfi_index !1692
  %5 = load %"struct.std::_Rb_tree_header"*, %"struct.std::_Rb_tree_header"** %3, align 8, !llfi_index !1693
  %6 = load %"struct.std::_Rb_tree_header"*, %"struct.std::_Rb_tree_header"** %4, align 8, !llfi_index !1694
  %7 = getelementptr inbounds %"struct.std::_Rb_tree_header", %"struct.std::_Rb_tree_header"* %6, i32 0, i32 0, !llfi_index !1695
  %8 = getelementptr inbounds %"struct.std::_Rb_tree_node_base", %"struct.std::_Rb_tree_node_base"* %7, i32 0, i32 0, !llfi_index !1696
  %9 = load i32, i32* %8, align 8, !llfi_index !1697
  %10 = getelementptr inbounds %"struct.std::_Rb_tree_header", %"struct.std::_Rb_tree_header"* %5, i32 0, i32 0, !llfi_index !1698
  %11 = getelementptr inbounds %"struct.std::_Rb_tree_node_base", %"struct.std::_Rb_tree_node_base"* %10, i32 0, i32 0, !llfi_index !1699
  store i32 %9, i32* %11, align 8, !llfi_index !1700
  %12 = load %"struct.std::_Rb_tree_header"*, %"struct.std::_Rb_tree_header"** %4, align 8, !llfi_index !1701
  %13 = getelementptr inbounds %"struct.std::_Rb_tree_header", %"struct.std::_Rb_tree_header"* %12, i32 0, i32 0, !llfi_index !1702
  %14 = getelementptr inbounds %"struct.std::_Rb_tree_node_base", %"struct.std::_Rb_tree_node_base"* %13, i32 0, i32 1, !llfi_index !1703
  %15 = load %"struct.std::_Rb_tree_node_base"*, %"struct.std::_Rb_tree_node_base"** %14, align 8, !llfi_index !1704
  %16 = getelementptr inbounds %"struct.std::_Rb_tree_header", %"struct.std::_Rb_tree_header"* %5, i32 0, i32 0, !llfi_index !1705
  %17 = getelementptr inbounds %"struct.std::_Rb_tree_node_base", %"struct.std::_Rb_tree_node_base"* %16, i32 0, i32 1, !llfi_index !1706
  store %"struct.std::_Rb_tree_node_base"* %15, %"struct.std::_Rb_tree_node_base"** %17, align 8, !llfi_index !1707
  %18 = load %"struct.std::_Rb_tree_header"*, %"struct.std::_Rb_tree_header"** %4, align 8, !llfi_index !1708
  %19 = getelementptr inbounds %"struct.std::_Rb_tree_header", %"struct.std::_Rb_tree_header"* %18, i32 0, i32 0, !llfi_index !1709
  %20 = getelementptr inbounds %"struct.std::_Rb_tree_node_base", %"struct.std::_Rb_tree_node_base"* %19, i32 0, i32 2, !llfi_index !1710
  %21 = load %"struct.std::_Rb_tree_node_base"*, %"struct.std::_Rb_tree_node_base"** %20, align 8, !llfi_index !1711
  %22 = getelementptr inbounds %"struct.std::_Rb_tree_header", %"struct.std::_Rb_tree_header"* %5, i32 0, i32 0, !llfi_index !1712
  %23 = getelementptr inbounds %"struct.std::_Rb_tree_node_base", %"struct.std::_Rb_tree_node_base"* %22, i32 0, i32 2, !llfi_index !1713
  store %"struct.std::_Rb_tree_node_base"* %21, %"struct.std::_Rb_tree_node_base"** %23, align 8, !llfi_index !1714
  %24 = load %"struct.std::_Rb_tree_header"*, %"struct.std::_Rb_tree_header"** %4, align 8, !llfi_index !1715
  %25 = getelementptr inbounds %"struct.std::_Rb_tree_header", %"struct.std::_Rb_tree_header"* %24, i32 0, i32 0, !llfi_index !1716
  %26 = getelementptr inbounds %"struct.std::_Rb_tree_node_base", %"struct.std::_Rb_tree_node_base"* %25, i32 0, i32 3, !llfi_index !1717
  %27 = load %"struct.std::_Rb_tree_node_base"*, %"struct.std::_Rb_tree_node_base"** %26, align 8, !llfi_index !1718
  %28 = getelementptr inbounds %"struct.std::_Rb_tree_header", %"struct.std::_Rb_tree_header"* %5, i32 0, i32 0, !llfi_index !1719
  %29 = getelementptr inbounds %"struct.std::_Rb_tree_node_base", %"struct.std::_Rb_tree_node_base"* %28, i32 0, i32 3, !llfi_index !1720
  store %"struct.std::_Rb_tree_node_base"* %27, %"struct.std::_Rb_tree_node_base"** %29, align 8, !llfi_index !1721
  %30 = getelementptr inbounds %"struct.std::_Rb_tree_header", %"struct.std::_Rb_tree_header"* %5, i32 0, i32 0, !llfi_index !1722
  %31 = getelementptr inbounds %"struct.std::_Rb_tree_header", %"struct.std::_Rb_tree_header"* %5, i32 0, i32 0, !llfi_index !1723
  %32 = getelementptr inbounds %"struct.std::_Rb_tree_node_base", %"struct.std::_Rb_tree_node_base"* %31, i32 0, i32 1, !llfi_index !1724
  %33 = load %"struct.std::_Rb_tree_node_base"*, %"struct.std::_Rb_tree_node_base"** %32, align 8, !llfi_index !1725
  %34 = getelementptr inbounds %"struct.std::_Rb_tree_node_base", %"struct.std::_Rb_tree_node_base"* %33, i32 0, i32 1, !llfi_index !1726
  store %"struct.std::_Rb_tree_node_base"* %30, %"struct.std::_Rb_tree_node_base"** %34, align 8, !llfi_index !1727
  %35 = load %"struct.std::_Rb_tree_header"*, %"struct.std::_Rb_tree_header"** %4, align 8, !llfi_index !1728
  %36 = getelementptr inbounds %"struct.std::_Rb_tree_header", %"struct.std::_Rb_tree_header"* %35, i32 0, i32 1, !llfi_index !1729
  %37 = load i64, i64* %36, align 8, !llfi_index !1730
  %38 = getelementptr inbounds %"struct.std::_Rb_tree_header", %"struct.std::_Rb_tree_header"* %5, i32 0, i32 1, !llfi_index !1731
  store i64 %37, i64* %38, align 8, !llfi_index !1732
  %39 = load %"struct.std::_Rb_tree_header"*, %"struct.std::_Rb_tree_header"** %4, align 8, !llfi_index !1733
  call void @_ZNSt15_Rb_tree_header8_M_resetEv(%"struct.std::_Rb_tree_header"* nonnull align 8 dereferenceable(40) %39), !llfi_index !1734
  ret void, !llfi_index !1735
}

; Function Attrs: mustprogress noinline nounwind uwtable
define linkonce_odr dso_local void @_ZSt4swapIPSt18_Rb_tree_node_baseENSt9enable_ifIXsr6__and_ISt6__not_ISt15__is_tuple_likeIT_EESt21is_move_constructibleIS5_ESt18is_move_assignableIS5_EEE5valueEvE4typeERS5_SE_(%"struct.std::_Rb_tree_node_base"** nonnull align 8 dereferenceable(8) %0, %"struct.std::_Rb_tree_node_base"** nonnull align 8 dereferenceable(8) %1) #3 comdat {
  %3 = alloca %"struct.std::_Rb_tree_node_base"**, align 8, !llfi_index !1736
  %4 = alloca %"struct.std::_Rb_tree_node_base"**, align 8, !llfi_index !1737
  %5 = alloca %"struct.std::_Rb_tree_node_base"*, align 8, !llfi_index !1738
  store %"struct.std::_Rb_tree_node_base"** %0, %"struct.std::_Rb_tree_node_base"*** %3, align 8, !llfi_index !1739
  store %"struct.std::_Rb_tree_node_base"** %1, %"struct.std::_Rb_tree_node_base"*** %4, align 8, !llfi_index !1740
  %6 = load %"struct.std::_Rb_tree_node_base"**, %"struct.std::_Rb_tree_node_base"*** %3, align 8, !llfi_index !1741
  %7 = call nonnull align 8 dereferenceable(8) %"struct.std::_Rb_tree_node_base"** @_ZSt4moveIRPSt18_Rb_tree_node_baseEONSt16remove_referenceIT_E4typeEOS4_(%"struct.std::_Rb_tree_node_base"** nonnull align 8 dereferenceable(8) %6) #2, !llfi_index !1742
  %8 = load %"struct.std::_Rb_tree_node_base"*, %"struct.std::_Rb_tree_node_base"** %7, align 8, !llfi_index !1743
  store %"struct.std::_Rb_tree_node_base"* %8, %"struct.std::_Rb_tree_node_base"** %5, align 8, !llfi_index !1744
  %9 = load %"struct.std::_Rb_tree_node_base"**, %"struct.std::_Rb_tree_node_base"*** %4, align 8, !llfi_index !1745
  %10 = call nonnull align 8 dereferenceable(8) %"struct.std::_Rb_tree_node_base"** @_ZSt4moveIRPSt18_Rb_tree_node_baseEONSt16remove_referenceIT_E4typeEOS4_(%"struct.std::_Rb_tree_node_base"** nonnull align 8 dereferenceable(8) %9) #2, !llfi_index !1746
  %11 = load %"struct.std::_Rb_tree_node_base"*, %"struct.std::_Rb_tree_node_base"** %10, align 8, !llfi_index !1747
  %12 = load %"struct.std::_Rb_tree_node_base"**, %"struct.std::_Rb_tree_node_base"*** %3, align 8, !llfi_index !1748
  store %"struct.std::_Rb_tree_node_base"* %11, %"struct.std::_Rb_tree_node_base"** %12, align 8, !llfi_index !1749
  %13 = call nonnull align 8 dereferenceable(8) %"struct.std::_Rb_tree_node_base"** @_ZSt4moveIRPSt18_Rb_tree_node_baseEONSt16remove_referenceIT_E4typeEOS4_(%"struct.std::_Rb_tree_node_base"** nonnull align 8 dereferenceable(8) %5) #2, !llfi_index !1750
  %14 = load %"struct.std::_Rb_tree_node_base"*, %"struct.std::_Rb_tree_node_base"** %13, align 8, !llfi_index !1751
  %15 = load %"struct.std::_Rb_tree_node_base"**, %"struct.std::_Rb_tree_node_base"*** %4, align 8, !llfi_index !1752
  store %"struct.std::_Rb_tree_node_base"* %14, %"struct.std::_Rb_tree_node_base"** %15, align 8, !llfi_index !1753
  ret void, !llfi_index !1754
}

; Function Attrs: mustprogress noinline nounwind uwtable
define linkonce_odr dso_local nonnull align 8 dereferenceable(8) %"struct.std::_Rb_tree_node_base"** @_ZNSt8_Rb_treeIiiSt9_IdentityIiESt4lessIiESaIiEE11_M_leftmostEv(%"class.std::_Rb_tree"* nonnull align 8 dereferenceable(48) %0) #3 comdat align 2 {
  %2 = alloca %"class.std::_Rb_tree"*, align 8, !llfi_index !1755
  store %"class.std::_Rb_tree"* %0, %"class.std::_Rb_tree"** %2, align 8, !llfi_index !1756
  %3 = load %"class.std::_Rb_tree"*, %"class.std::_Rb_tree"** %2, align 8, !llfi_index !1757
  %4 = getelementptr inbounds %"class.std::_Rb_tree", %"class.std::_Rb_tree"* %3, i32 0, i32 0, !llfi_index !1758
  %5 = bitcast %"struct.std::_Rb_tree<int, int, std::_Identity<int>, std::less<int>>::_Rb_tree_impl"* %4 to i8*, !llfi_index !1759
  %6 = getelementptr inbounds i8, i8* %5, i64 8, !llfi_index !1760
  %7 = bitcast i8* %6 to %"struct.std::_Rb_tree_header"*, !llfi_index !1761
  %8 = getelementptr inbounds %"struct.std::_Rb_tree_header", %"struct.std::_Rb_tree_header"* %7, i32 0, i32 0, !llfi_index !1762
  %9 = getelementptr inbounds %"struct.std::_Rb_tree_node_base", %"struct.std::_Rb_tree_node_base"* %8, i32 0, i32 2, !llfi_index !1763
  ret %"struct.std::_Rb_tree_node_base"** %9, !llfi_index !1764
}

; Function Attrs: mustprogress noinline nounwind uwtable
define linkonce_odr dso_local nonnull align 8 dereferenceable(8) %"struct.std::_Rb_tree_node_base"** @_ZNSt8_Rb_treeIiiSt9_IdentityIiESt4lessIiESaIiEE12_M_rightmostEv(%"class.std::_Rb_tree"* nonnull align 8 dereferenceable(48) %0) #3 comdat align 2 {
  %2 = alloca %"class.std::_Rb_tree"*, align 8, !llfi_index !1765
  store %"class.std::_Rb_tree"* %0, %"class.std::_Rb_tree"** %2, align 8, !llfi_index !1766
  %3 = load %"class.std::_Rb_tree"*, %"class.std::_Rb_tree"** %2, align 8, !llfi_index !1767
  %4 = getelementptr inbounds %"class.std::_Rb_tree", %"class.std::_Rb_tree"* %3, i32 0, i32 0, !llfi_index !1768
  %5 = bitcast %"struct.std::_Rb_tree<int, int, std::_Identity<int>, std::less<int>>::_Rb_tree_impl"* %4 to i8*, !llfi_index !1769
  %6 = getelementptr inbounds i8, i8* %5, i64 8, !llfi_index !1770
  %7 = bitcast i8* %6 to %"struct.std::_Rb_tree_header"*, !llfi_index !1771
  %8 = getelementptr inbounds %"struct.std::_Rb_tree_header", %"struct.std::_Rb_tree_header"* %7, i32 0, i32 0, !llfi_index !1772
  %9 = getelementptr inbounds %"struct.std::_Rb_tree_node_base", %"struct.std::_Rb_tree_node_base"* %8, i32 0, i32 3, !llfi_index !1773
  ret %"struct.std::_Rb_tree_node_base"** %9, !llfi_index !1774
}

; Function Attrs: mustprogress noinline nounwind uwtable
define linkonce_odr dso_local void @_ZSt4swapImENSt9enable_ifIXsr6__and_ISt6__not_ISt15__is_tuple_likeIT_EESt21is_move_constructibleIS3_ESt18is_move_assignableIS3_EEE5valueEvE4typeERS3_SC_(i64* nonnull align 8 dereferenceable(8) %0, i64* nonnull align 8 dereferenceable(8) %1) #3 comdat {
  %3 = alloca i64*, align 8, !llfi_index !1775
  %4 = alloca i64*, align 8, !llfi_index !1776
  %5 = alloca i64, align 8, !llfi_index !1777
  store i64* %0, i64** %3, align 8, !llfi_index !1778
  store i64* %1, i64** %4, align 8, !llfi_index !1779
  %6 = load i64*, i64** %3, align 8, !llfi_index !1780
  %7 = call nonnull align 8 dereferenceable(8) i64* @_ZSt4moveIRmEONSt16remove_referenceIT_E4typeEOS2_(i64* nonnull align 8 dereferenceable(8) %6) #2, !llfi_index !1781
  %8 = load i64, i64* %7, align 8, !llfi_index !1782
  store i64 %8, i64* %5, align 8, !llfi_index !1783
  %9 = load i64*, i64** %4, align 8, !llfi_index !1784
  %10 = call nonnull align 8 dereferenceable(8) i64* @_ZSt4moveIRmEONSt16remove_referenceIT_E4typeEOS2_(i64* nonnull align 8 dereferenceable(8) %9) #2, !llfi_index !1785
  %11 = load i64, i64* %10, align 8, !llfi_index !1786
  %12 = load i64*, i64** %3, align 8, !llfi_index !1787
  store i64 %11, i64* %12, align 8, !llfi_index !1788
  %13 = call nonnull align 8 dereferenceable(8) i64* @_ZSt4moveIRmEONSt16remove_referenceIT_E4typeEOS2_(i64* nonnull align 8 dereferenceable(8) %5) #2, !llfi_index !1789
  %14 = load i64, i64* %13, align 8, !llfi_index !1790
  %15 = load i64*, i64** %4, align 8, !llfi_index !1791
  store i64 %14, i64* %15, align 8, !llfi_index !1792
  ret void, !llfi_index !1793
}

; Function Attrs: mustprogress noinline nounwind uwtable
define linkonce_odr dso_local void @_ZSt4swapISt4lessIiEENSt9enable_ifIXsr6__and_ISt6__not_ISt15__is_tuple_likeIT_EESt21is_move_constructibleIS5_ESt18is_move_assignableIS5_EEE5valueEvE4typeERS5_SE_(%"struct.std::less"* nonnull align 1 dereferenceable(1) %0, %"struct.std::less"* nonnull align 1 dereferenceable(1) %1) #3 comdat {
  %3 = alloca %"struct.std::less"*, align 8, !llfi_index !1794
  %4 = alloca %"struct.std::less"*, align 8, !llfi_index !1795
  %5 = alloca %"struct.std::less", align 1, !llfi_index !1796
  store %"struct.std::less"* %0, %"struct.std::less"** %3, align 8, !llfi_index !1797
  store %"struct.std::less"* %1, %"struct.std::less"** %4, align 8, !llfi_index !1798
  %6 = load %"struct.std::less"*, %"struct.std::less"** %3, align 8, !llfi_index !1799
  %7 = call nonnull align 1 dereferenceable(1) %"struct.std::less"* @_ZSt4moveIRSt4lessIiEEONSt16remove_referenceIT_E4typeEOS4_(%"struct.std::less"* nonnull align 1 dereferenceable(1) %6) #2, !llfi_index !1800
  %8 = load %"struct.std::less"*, %"struct.std::less"** %4, align 8, !llfi_index !1801
  %9 = call nonnull align 1 dereferenceable(1) %"struct.std::less"* @_ZSt4moveIRSt4lessIiEEONSt16remove_referenceIT_E4typeEOS4_(%"struct.std::less"* nonnull align 1 dereferenceable(1) %8) #2, !llfi_index !1802
  %10 = load %"struct.std::less"*, %"struct.std::less"** %3, align 8, !llfi_index !1803
  %11 = call nonnull align 1 dereferenceable(1) %"struct.std::less"* @_ZSt4moveIRSt4lessIiEEONSt16remove_referenceIT_E4typeEOS4_(%"struct.std::less"* nonnull align 1 dereferenceable(1) %5) #2, !llfi_index !1804
  %12 = load %"struct.std::less"*, %"struct.std::less"** %4, align 8, !llfi_index !1805
  ret void, !llfi_index !1806
}

; Function Attrs: mustprogress noinline uwtable
define linkonce_odr dso_local void @_ZN9__gnu_cxx14__alloc_traitsISaISt13_Rb_tree_nodeIiEES2_E10_S_on_swapERS3_S5_(%"struct.std::less"* nonnull align 1 dereferenceable(1) %0, %"struct.std::less"* nonnull align 1 dereferenceable(1) %1) #4 comdat align 2 {
  %3 = alloca %"struct.std::less"*, align 8, !llfi_index !1807
  %4 = alloca %"struct.std::less"*, align 8, !llfi_index !1808
  store %"struct.std::less"* %0, %"struct.std::less"** %3, align 8, !llfi_index !1809
  store %"struct.std::less"* %1, %"struct.std::less"** %4, align 8, !llfi_index !1810
  %5 = load %"struct.std::less"*, %"struct.std::less"** %3, align 8, !llfi_index !1811
  %6 = load %"struct.std::less"*, %"struct.std::less"** %4, align 8, !llfi_index !1812
  call void @_ZSt15__alloc_on_swapISaISt13_Rb_tree_nodeIiEEEvRT_S4_(%"struct.std::less"* nonnull align 1 dereferenceable(1) %5, %"struct.std::less"* nonnull align 1 dereferenceable(1) %6), !llfi_index !1813
  ret void, !llfi_index !1814
}

; Function Attrs: mustprogress noinline uwtable
define linkonce_odr dso_local void @_ZSt15__alloc_on_swapISaISt13_Rb_tree_nodeIiEEEvRT_S4_(%"struct.std::less"* nonnull align 1 dereferenceable(1) %0, %"struct.std::less"* nonnull align 1 dereferenceable(1) %1) #4 comdat {
  %3 = alloca %"struct.std::less"*, align 8, !llfi_index !1815
  %4 = alloca %"struct.std::less"*, align 8, !llfi_index !1816
  %5 = alloca %"struct.std::less", align 1, !llfi_index !1817
  store %"struct.std::less"* %0, %"struct.std::less"** %3, align 8, !llfi_index !1818
  store %"struct.std::less"* %1, %"struct.std::less"** %4, align 8, !llfi_index !1819
  %6 = load %"struct.std::less"*, %"struct.std::less"** %3, align 8, !llfi_index !1820
  %7 = load %"struct.std::less"*, %"struct.std::less"** %4, align 8, !llfi_index !1821
  call void @_ZSt18__do_alloc_on_swapISaISt13_Rb_tree_nodeIiEEEvRT_S4_St17integral_constantIbLb0EE(%"struct.std::less"* nonnull align 1 dereferenceable(1) %6, %"struct.std::less"* nonnull align 1 dereferenceable(1) %7), !llfi_index !1822
  ret void, !llfi_index !1823
}

; Function Attrs: mustprogress noinline nounwind uwtable
define linkonce_odr dso_local void @_ZSt18__do_alloc_on_swapISaISt13_Rb_tree_nodeIiEEEvRT_S4_St17integral_constantIbLb0EE(%"struct.std::less"* nonnull align 1 dereferenceable(1) %0, %"struct.std::less"* nonnull align 1 dereferenceable(1) %1) #3 comdat {
  %3 = alloca %"struct.std::less", align 1, !llfi_index !1824
  %4 = alloca %"struct.std::less"*, align 8, !llfi_index !1825
  %5 = alloca %"struct.std::less"*, align 8, !llfi_index !1826
  store %"struct.std::less"* %0, %"struct.std::less"** %4, align 8, !llfi_index !1827
  store %"struct.std::less"* %1, %"struct.std::less"** %5, align 8, !llfi_index !1828
  ret void, !llfi_index !1829
}

; Function Attrs: mustprogress noinline nounwind uwtable
define linkonce_odr dso_local nonnull align 1 dereferenceable(1) %"struct.std::less"* @_ZSt4moveIRSt4lessIiEEONSt16remove_referenceIT_E4typeEOS4_(%"struct.std::less"* nonnull align 1 dereferenceable(1) %0) #3 comdat {
  %2 = alloca %"struct.std::less"*, align 8, !llfi_index !1830
  store %"struct.std::less"* %0, %"struct.std::less"** %2, align 8, !llfi_index !1831
  %3 = load %"struct.std::less"*, %"struct.std::less"** %2, align 8, !llfi_index !1832
  ret %"struct.std::less"* %3, !llfi_index !1833
}

; Function Attrs: mustprogress noinline nounwind uwtable
define linkonce_odr dso_local nonnull align 8 dereferenceable(8) i64* @_ZSt4moveIRmEONSt16remove_referenceIT_E4typeEOS2_(i64* nonnull align 8 dereferenceable(8) %0) #3 comdat {
  %2 = alloca i64*, align 8, !llfi_index !1834
  store i64* %0, i64** %2, align 8, !llfi_index !1835
  %3 = load i64*, i64** %2, align 8, !llfi_index !1836
  ret i64* %3, !llfi_index !1837
}

; Function Attrs: mustprogress noinline nounwind uwtable
define linkonce_odr dso_local nonnull align 8 dereferenceable(8) %"struct.std::_Rb_tree_node_base"** @_ZSt4moveIRPSt18_Rb_tree_node_baseEONSt16remove_referenceIT_E4typeEOS4_(%"struct.std::_Rb_tree_node_base"** nonnull align 8 dereferenceable(8) %0) #3 comdat {
  %2 = alloca %"struct.std::_Rb_tree_node_base"**, align 8, !llfi_index !1838
  store %"struct.std::_Rb_tree_node_base"** %0, %"struct.std::_Rb_tree_node_base"*** %2, align 8, !llfi_index !1839
  %3 = load %"struct.std::_Rb_tree_node_base"**, %"struct.std::_Rb_tree_node_base"*** %2, align 8, !llfi_index !1840
  ret %"struct.std::_Rb_tree_node_base"** %3, !llfi_index !1841
}

; Function Attrs: mustprogress noinline nounwind uwtable
define linkonce_odr dso_local i64 @_ZNKSt8_Rb_treeIiiSt9_IdentityIiESt4lessIiESaIiEE4sizeEv(%"class.std::_Rb_tree"* nonnull align 8 dereferenceable(48) %0) #3 comdat align 2 {
  %2 = alloca %"class.std::_Rb_tree"*, align 8, !llfi_index !1842
  store %"class.std::_Rb_tree"* %0, %"class.std::_Rb_tree"** %2, align 8, !llfi_index !1843
  %3 = load %"class.std::_Rb_tree"*, %"class.std::_Rb_tree"** %2, align 8, !llfi_index !1844
  %4 = getelementptr inbounds %"class.std::_Rb_tree", %"class.std::_Rb_tree"* %3, i32 0, i32 0, !llfi_index !1845
  %5 = bitcast %"struct.std::_Rb_tree<int, int, std::_Identity<int>, std::less<int>>::_Rb_tree_impl"* %4 to i8*, !llfi_index !1846
  %6 = getelementptr inbounds i8, i8* %5, i64 8, !llfi_index !1847
  %7 = bitcast i8* %6 to %"struct.std::_Rb_tree_header"*, !llfi_index !1848
  %8 = getelementptr inbounds %"struct.std::_Rb_tree_header", %"struct.std::_Rb_tree_header"* %7, i32 0, i32 1, !llfi_index !1849
  %9 = load i64, i64* %8, align 8, !llfi_index !1850
  ret i64 %9, !llfi_index !1851
}

; Function Attrs: mustprogress noinline nounwind uwtable
define linkonce_odr dso_local nonnull align 8 dereferenceable(8) i32** @_ZNK9__gnu_cxx17__normal_iteratorIPiSt6vectorIiSaIiEEE4baseEv(%"class.__gnu_cxx::__normal_iterator"* nonnull align 8 dereferenceable(8) %0) #3 comdat align 2 {
  %2 = alloca %"class.__gnu_cxx::__normal_iterator"*, align 8, !llfi_index !1852
  store %"class.__gnu_cxx::__normal_iterator"* %0, %"class.__gnu_cxx::__normal_iterator"** %2, align 8, !llfi_index !1853
  %3 = load %"class.__gnu_cxx::__normal_iterator"*, %"class.__gnu_cxx::__normal_iterator"** %2, align 8, !llfi_index !1854
  %4 = getelementptr inbounds %"class.__gnu_cxx::__normal_iterator", %"class.__gnu_cxx::__normal_iterator"* %3, i32 0, i32 0, !llfi_index !1855
  ret i32** %4, !llfi_index !1856
}

; Function Attrs: noinline nounwind uwtable
define linkonce_odr dso_local void @_ZN9__gnu_cxx17__normal_iteratorIPiSt6vectorIiSaIiEEEC2ERKS1_(%"class.__gnu_cxx::__normal_iterator"* nonnull align 8 dereferenceable(8) %0, i32** nonnull align 8 dereferenceable(8) %1) unnamed_addr #1 comdat align 2 {
  %3 = alloca %"class.__gnu_cxx::__normal_iterator"*, align 8, !llfi_index !1857
  %4 = alloca i32**, align 8, !llfi_index !1858
  store %"class.__gnu_cxx::__normal_iterator"* %0, %"class.__gnu_cxx::__normal_iterator"** %3, align 8, !llfi_index !1859
  store i32** %1, i32*** %4, align 8, !llfi_index !1860
  %5 = load %"class.__gnu_cxx::__normal_iterator"*, %"class.__gnu_cxx::__normal_iterator"** %3, align 8, !llfi_index !1861
  %6 = getelementptr inbounds %"class.__gnu_cxx::__normal_iterator", %"class.__gnu_cxx::__normal_iterator"* %5, i32 0, i32 0, !llfi_index !1862
  %7 = load i32**, i32*** %4, align 8, !llfi_index !1863
  %8 = load i32*, i32** %7, align 8, !llfi_index !1864
  store i32* %8, i32** %6, align 8, !llfi_index !1865
  ret void, !llfi_index !1866
}

; Function Attrs: mustprogress noinline norecurse uwtable
define dso_local i32 @main() #13 {
  %1 = alloca i32, align 4, !llfi_index !1867
  %2 = alloca i32, align 4, !llfi_index !1868
  %3 = alloca i32, align 4, !llfi_index !1869
  %4 = alloca i32, align 4, !llfi_index !1870
  %5 = alloca i32, align 4, !llfi_index !1871
  %6 = alloca i32, align 4, !llfi_index !1872
  %7 = alloca i32, align 4, !llfi_index !1873
  store i32 0, i32* %1, align 4, !llfi_index !1874
  %8 = load %struct._IO_FILE*, %struct._IO_FILE** @stdin, align 8, !llfi_index !1875
  %9 = call %struct._IO_FILE* @freopen(i8* getelementptr inbounds ([32 x i8], [32 x i8]* @.str, i64 0, i64 0), i8* getelementptr inbounds ([2 x i8], [2 x i8]* @.str.4, i64 0, i64 0), %struct._IO_FILE* %8), !llfi_index !1876
  %10 = call i32 (i8*, ...) @__isoc99_scanf(i8* getelementptr inbounds ([3 x i8], [3 x i8]* @.str.5, i64 0, i64 0), i32* %2), !llfi_index !1877
  store i32 89, i32* %3, align 4, !llfi_index !1878
  store i32 0, i32* %4, align 4, !llfi_index !1879
  br label %11, !llfi_index !1880

11:                                               ; preds = %20, %0
  %12 = load i32, i32* %4, align 4, !llfi_index !1881
  %13 = load i32, i32* %2, align 4, !llfi_index !1882
  %14 = icmp slt i32 %12, %13, !llfi_index !1883
  br i1 %14, label %15, label %23, !llfi_index !1884

15:                                               ; preds = %11
  %16 = load i32, i32* %4, align 4, !llfi_index !1885
  %17 = sext i32 %16 to i64, !llfi_index !1886
  %18 = getelementptr inbounds [223456 x i32], [223456 x i32]* @a, i64 0, i64 %17, !llfi_index !1887
  %19 = call i32 (i8*, ...) @__isoc99_scanf(i8* getelementptr inbounds ([3 x i8], [3 x i8]* @.str.5, i64 0, i64 0), i32* %18), !llfi_index !1888
  br label %20, !llfi_index !1889

20:                                               ; preds = %15
  %21 = load i32, i32* %4, align 4, !llfi_index !1890
  %22 = add nsw i32 %21, 1, !llfi_index !1891
  store i32 %22, i32* %4, align 4, !llfi_index !1892
  br label %11, !llvm.loop !1893, !llfi_index !1894

23:                                               ; preds = %11
  store i32 89, i32* %3, align 4, !llfi_index !1895
  store i32 0, i32* %5, align 4, !llfi_index !1896
  br label %24, !llfi_index !1897

24:                                               ; preds = %41, %23
  %25 = load i32, i32* %5, align 4, !llfi_index !1898
  %26 = load i32, i32* %2, align 4, !llfi_index !1899
  %27 = sub nsw i32 %26, 1, !llfi_index !1900
  %28 = icmp slt i32 %25, %27, !llfi_index !1901
  br i1 %28, label %29, label %44, !llfi_index !1902

29:                                               ; preds = %24
  %30 = call i32 (i8*, ...) @__isoc99_scanf(i8* getelementptr inbounds ([6 x i8], [6 x i8]* @.str.6, i64 0, i64 0), i32* %6, i32* %7), !llfi_index !1903
  %31 = load i32, i32* %6, align 4, !llfi_index !1904
  %32 = add nsw i32 %31, -1, !llfi_index !1905
  store i32 %32, i32* %6, align 4, !llfi_index !1906
  %33 = load i32, i32* %7, align 4, !llfi_index !1907
  %34 = add nsw i32 %33, -1, !llfi_index !1908
  store i32 %34, i32* %7, align 4, !llfi_index !1909
  %35 = load i32, i32* %6, align 4, !llfi_index !1910
  %36 = sext i32 %35 to i64, !llfi_index !1911
  %37 = getelementptr inbounds [223456 x %"class.std::vector"], [223456 x %"class.std::vector"]* @g, i64 0, i64 %36, !llfi_index !1912
  call void @_ZNSt6vectorIiSaIiEE9push_backERKi(%"class.std::vector"* nonnull align 8 dereferenceable(24) %37, i32* nonnull align 4 dereferenceable(4) %7), !llfi_index !1913
  %38 = load i32, i32* %7, align 4, !llfi_index !1914
  %39 = sext i32 %38 to i64, !llfi_index !1915
