; ModuleID = '/home/hjiang/Computation-Kernel-Dataset/experiments/Fault_injection_0308_parall/O0/Keywords/Keywords.ll'
source_filename = "llvm-link"
target datalayout = "e-m:e-p270:32:32-p271:32:32-p272:64:64-i64:64-f80:128-n8:16:32:64-S128"
target triple = "x86_64-unknown-linux-gnu"

%"class.std::ios_base::Init" = type { i8 }
%struct._IO_FILE = type { i32, i8*, i8*, i8*, i8*, i8*, i8*, i8*, i8*, i8*, i8*, i8*, %struct._IO_marker*, %struct._IO_FILE*, i32, i32, i64, i16, i8, [1 x i8], i8*, i64, %struct._IO_codecvt*, %struct._IO_wide_data*, %struct._IO_FILE*, i8*, i64, i32, [20 x i8] }
%struct._IO_marker = type opaque
%struct._IO_codecvt = type opaque
%struct._IO_wide_data = type opaque
%"class.std::basic_istream" = type { i32 (...)**, i64, %"class.std::basic_ios" }
%"class.std::basic_ios" = type { %"class.std::ios_base", %"class.std::basic_ostream"*, i8, i8, %"class.std::basic_streambuf"*, %"class.std::ctype"*, %"class.std::num_put"*, %"class.std::num_put"* }
%"class.std::ios_base" = type { i32 (...)**, i64, i64, i32, i32, i32, %"struct.std::ios_base::_Callback_list"*, %"struct.std::ios_base::_Words", [8 x %"struct.std::ios_base::_Words"], i32, %"struct.std::ios_base::_Words"*, %"class.std::locale" }
%"struct.std::ios_base::_Callback_list" = type { %"struct.std::ios_base::_Callback_list"*, void (i32, %"class.std::ios_base"*, i32)*, i32, i32 }
%"struct.std::ios_base::_Words" = type { i8*, i64 }
%"class.std::locale" = type { %"class.std::locale::_Impl"* }
%"class.std::locale::_Impl" = type { i32, %"class.std::locale::facet"**, i64, %"class.std::locale::facet"**, i8** }
%"class.std::locale::facet" = type <{ i32 (...)**, i32, [4 x i8] }>
%"class.std::basic_ostream" = type { i32 (...)**, %"class.std::basic_ios" }
%"class.std::basic_streambuf" = type { i32 (...)**, i8*, i8*, i8*, i8*, i8*, i8*, %"class.std::locale" }
%"class.std::ctype" = type <{ %"class.std::locale::facet.base", [4 x i8], %struct.__locale_struct*, i8, [7 x i8], i32*, i32*, i16*, i8, [256 x i8], [256 x i8], i8, [6 x i8] }>
%"class.std::locale::facet.base" = type <{ i32 (...)**, i32 }>
%struct.__locale_struct = type { [13 x %struct.__locale_data*], i16*, i32*, i32*, [13 x i8*] }
%struct.__locale_data = type opaque
%"class.std::num_put" = type { %"class.std::locale::facet.base", [4 x i8] }
%"class.std::__cxx11::basic_string" = type { %"struct.std::__cxx11::basic_string<char>::_Alloc_hider", i64, %union.anon }
%"struct.std::__cxx11::basic_string<char>::_Alloc_hider" = type { i8* }
%union.anon = type { i64, [8 x i8] }
%"class.std::vector" = type { %"struct.std::_Vector_base" }
%"struct.std::_Vector_base" = type { %"struct.std::_Vector_base<std::__cxx11::basic_string<char>, std::allocator<std::__cxx11::basic_string<char>>>::_Vector_impl" }
%"struct.std::_Vector_base<std::__cxx11::basic_string<char>, std::allocator<std::__cxx11::basic_string<char>>>::_Vector_impl" = type { %"struct.std::_Vector_base<std::__cxx11::basic_string<char>, std::allocator<std::__cxx11::basic_string<char>>>::_Vector_impl_data" }
%"struct.std::_Vector_base<std::__cxx11::basic_string<char>, std::allocator<std::__cxx11::basic_string<char>>>::_Vector_impl_data" = type { %"class.std::__cxx11::basic_string"*, %"class.std::__cxx11::basic_string"*, %"class.std::__cxx11::basic_string"* }
%"class.std::map" = type { %"class.std::_Rb_tree" }
%"class.std::_Rb_tree" = type { %"struct.std::_Rb_tree<std::__cxx11::basic_string<char>, std::pair<const std::__cxx11::basic_string<char>, int>, std::_Select1st<std::pair<const std::__cxx11::basic_string<char>, int>>, std::less<std::__cxx11::basic_string<char>>>::_Rb_tree_impl" }
%"struct.std::_Rb_tree<std::__cxx11::basic_string<char>, std::pair<const std::__cxx11::basic_string<char>, int>, std::_Select1st<std::pair<const std::__cxx11::basic_string<char>, int>>, std::less<std::__cxx11::basic_string<char>>>::_Rb_tree_impl" = type { %"struct.std::_Rb_tree_key_compare", %"struct.std::_Rb_tree_header" }
%"struct.std::_Rb_tree_key_compare" = type { %"class.std::ios_base::Init" }
%"struct.std::_Rb_tree_header" = type { %"struct.std::_Rb_tree_node_base", i64 }
%"struct.std::_Rb_tree_node_base" = type { i32, %"struct.std::_Rb_tree_node_base"*, %"struct.std::_Rb_tree_node_base"*, %"struct.std::_Rb_tree_node_base"* }
%"struct.std::_Rb_tree_iterator" = type { %"struct.std::_Rb_tree_node_base"* }
%"struct.std::pair" = type { i32, %"class.std::__cxx11::basic_string" }
%"class.std::tuple" = type { %"struct.std::_Tuple_impl" }
%"struct.std::_Tuple_impl" = type { %"struct.std::_Head_base" }
%"struct.std::_Head_base" = type { %"class.std::__cxx11::basic_string"* }
%"struct.std::pair.17" = type <{ %"class.std::__cxx11::basic_string", i32, [4 x i8] }>
%"class.std::tuple.31" = type { %"struct.std::_Tuple_impl.32" }
%"struct.std::_Tuple_impl.32" = type { %"struct.std::_Head_base.33" }
%"struct.std::_Head_base.33" = type { i32* }
%"struct.std::_Rb_tree_node.15" = type { %"struct.std::_Rb_tree_node_base", %"struct.__gnu_cxx::__aligned_membuf.16" }
%"struct.__gnu_cxx::__aligned_membuf.16" = type { [40 x i8] }
%"struct.std::pair.21" = type { %"struct.std::_Rb_tree_node_base"*, %"struct.std::_Rb_tree_node_base"* }
%"struct.std::pair.25" = type { %"struct.std::_Rb_tree_iterator", %"struct.std::_Rb_tree_iterator" }

$_ZNSt3mapINSt7__cxx1112basic_stringIcSt11char_traitsIcESaIcEEEiSt4lessIS5_ESaISt4pairIKS5_iEEEC2Ev = comdat any

$_ZNSt3mapIiNSt7__cxx1112basic_stringIcSt11char_traitsIcESaIcEEESt4lessIiESaISt4pairIKiS5_EEEC2Ev = comdat any

$_ZNKSt6vectorINSt7__cxx1112basic_stringIcSt11char_traitsIcESaIcEEESaIS5_EE4sizeEv = comdat any

$_ZNSt6vectorINSt7__cxx1112basic_stringIcSt11char_traitsIcESaIcEEESaIS5_EEixEm = comdat any

$_ZSteqIcEN9__gnu_cxx11__enable_ifIXsr9__is_charIT_EE7__valueEbE6__typeERKNSt7__cxx1112basic_stringIS2_St11char_traitsIS2_ESaIS2_EEESC_ = comdat any

$_ZNSt3mapINSt7__cxx1112basic_stringIcSt11char_traitsIcESaIcEEEiSt4lessIS5_ESaISt4pairIKS5_iEEE4findERS9_ = comdat any

$_ZNSt3mapINSt7__cxx1112basic_stringIcSt11char_traitsIcESaIcEEEiSt4lessIS5_ESaISt4pairIKS5_iEEE3endEv = comdat any

$_ZStneRKSt17_Rb_tree_iteratorISt4pairIKNSt7__cxx1112basic_stringIcSt11char_traitsIcESaIcEEEiEESB_ = comdat any

$_ZNSt3mapINSt7__cxx1112basic_stringIcSt11char_traitsIcESaIcEEEiSt4lessIS5_ESaISt4pairIKS5_iEEEixERS9_ = comdat any

$_ZNSt3mapIiNSt7__cxx1112basic_stringIcSt11char_traitsIcESaIcEEESt4lessIiESaISt4pairIKiS5_EEE5eraseERS9_ = comdat any

$_ZNSt3mapIiNSt7__cxx1112basic_stringIcSt11char_traitsIcESaIcEEESt4lessIiESaISt4pairIKiS5_EEEixERS9_ = comdat any

$_ZNKSt3mapINSt7__cxx1112basic_stringIcSt11char_traitsIcESaIcEEEiSt4lessIS5_ESaISt4pairIKS5_iEEE4sizeEv = comdat any

$_ZNSt3mapIiNSt7__cxx1112basic_stringIcSt11char_traitsIcESaIcEEESt4lessIiESaISt4pairIKiS5_EEE5beginEv = comdat any

$_ZNKSt17_Rb_tree_iteratorISt4pairIKiNSt7__cxx1112basic_stringIcSt11char_traitsIcESaIcEEEEEptEv = comdat any

$_ZSt3minIiERKT_S2_S2_ = comdat any

$_ZNSt3mapIiNSt7__cxx1112basic_stringIcSt11char_traitsIcESaIcEEESt4lessIiESaISt4pairIKiS5_EEED2Ev = comdat any

$_ZNSt3mapINSt7__cxx1112basic_stringIcSt11char_traitsIcESaIcEEEiSt4lessIS5_ESaISt4pairIKS5_iEEED2Ev = comdat any

$_ZNSt8_Rb_treeINSt7__cxx1112basic_stringIcSt11char_traitsIcESaIcEEESt4pairIKS5_iESt10_Select1stIS8_ESt4lessIS5_ESaIS8_EED2Ev = comdat any

$_ZNSt8_Rb_treeINSt7__cxx1112basic_stringIcSt11char_traitsIcESaIcEEESt4pairIKS5_iESt10_Select1stIS8_ESt4lessIS5_ESaIS8_EE8_M_beginEv = comdat any

$_ZNSt8_Rb_treeINSt7__cxx1112basic_stringIcSt11char_traitsIcESaIcEEESt4pairIKS5_iESt10_Select1stIS8_ESt4lessIS5_ESaIS8_EE8_M_eraseEPSt13_Rb_tree_nodeIS8_E = comdat any

$_ZNSt8_Rb_treeINSt7__cxx1112basic_stringIcSt11char_traitsIcESaIcEEESt4pairIKS5_iESt10_Select1stIS8_ESt4lessIS5_ESaIS8_EE13_Rb_tree_implISC_Lb1EED2Ev = comdat any

$__clang_call_terminate = comdat any

$_ZNSaISt13_Rb_tree_nodeISt4pairIKNSt7__cxx1112basic_stringIcSt11char_traitsIcESaIcEEEiEEED2Ev = comdat any

$_ZN9__gnu_cxx13new_allocatorISt13_Rb_tree_nodeISt4pairIKNSt7__cxx1112basic_stringIcSt11char_traitsIcESaIcEEEiEEED2Ev = comdat any

$_ZNSt8_Rb_treeINSt7__cxx1112basic_stringIcSt11char_traitsIcESaIcEEESt4pairIKS5_iESt10_Select1stIS8_ESt4lessIS5_ESaIS8_EE8_S_rightEPSt18_Rb_tree_node_base = comdat any

$_ZNSt8_Rb_treeINSt7__cxx1112basic_stringIcSt11char_traitsIcESaIcEEESt4pairIKS5_iESt10_Select1stIS8_ESt4lessIS5_ESaIS8_EE7_S_leftEPSt18_Rb_tree_node_base = comdat any

$_ZNSt8_Rb_treeINSt7__cxx1112basic_stringIcSt11char_traitsIcESaIcEEESt4pairIKS5_iESt10_Select1stIS8_ESt4lessIS5_ESaIS8_EE12_M_drop_nodeEPSt13_Rb_tree_nodeIS8_E = comdat any

$_ZNSt8_Rb_treeINSt7__cxx1112basic_stringIcSt11char_traitsIcESaIcEEESt4pairIKS5_iESt10_Select1stIS8_ESt4lessIS5_ESaIS8_EE15_M_destroy_nodeEPSt13_Rb_tree_nodeIS8_E = comdat any

$_ZNSt8_Rb_treeINSt7__cxx1112basic_stringIcSt11char_traitsIcESaIcEEESt4pairIKS5_iESt10_Select1stIS8_ESt4lessIS5_ESaIS8_EE11_M_put_nodeEPSt13_Rb_tree_nodeIS8_E = comdat any

$_ZNSt8_Rb_treeINSt7__cxx1112basic_stringIcSt11char_traitsIcESaIcEEESt4pairIKS5_iESt10_Select1stIS8_ESt4lessIS5_ESaIS8_EE21_M_get_Node_allocatorEv = comdat any

$_ZNSt16allocator_traitsISaISt13_Rb_tree_nodeISt4pairIKNSt7__cxx1112basic_stringIcSt11char_traitsIcESaIcEEEiEEEE10deallocateERSB_PSA_m = comdat any

$_ZN9__gnu_cxx13new_allocatorISt13_Rb_tree_nodeISt4pairIKNSt7__cxx1112basic_stringIcSt11char_traitsIcESaIcEEEiEEE10deallocateEPSB_m = comdat any

$_ZNSt13_Rb_tree_nodeISt4pairIKNSt7__cxx1112basic_stringIcSt11char_traitsIcESaIcEEEiEE9_M_valptrEv = comdat any

$_ZNSt16allocator_traitsISaISt13_Rb_tree_nodeISt4pairIKNSt7__cxx1112basic_stringIcSt11char_traitsIcESaIcEEEiEEEE7destroyIS9_EEvRSB_PT_ = comdat any

$_ZN9__gnu_cxx13new_allocatorISt13_Rb_tree_nodeISt4pairIKNSt7__cxx1112basic_stringIcSt11char_traitsIcESaIcEEEiEEE7destroyISA_EEvPT_ = comdat any

$_ZNSt4pairIKNSt7__cxx1112basic_stringIcSt11char_traitsIcESaIcEEEiED2Ev = comdat any

$_ZN9__gnu_cxx16__aligned_membufISt4pairIKNSt7__cxx1112basic_stringIcSt11char_traitsIcESaIcEEEiEE6_M_ptrEv = comdat any

$_ZN9__gnu_cxx16__aligned_membufISt4pairIKNSt7__cxx1112basic_stringIcSt11char_traitsIcESaIcEEEiEE7_M_addrEv = comdat any

$_ZNSt8_Rb_treeIiSt4pairIKiNSt7__cxx1112basic_stringIcSt11char_traitsIcESaIcEEEESt10_Select1stIS8_ESt4lessIiESaIS8_EED2Ev = comdat any

$_ZNSt8_Rb_treeIiSt4pairIKiNSt7__cxx1112basic_stringIcSt11char_traitsIcESaIcEEEESt10_Select1stIS8_ESt4lessIiESaIS8_EE8_M_beginEv = comdat any

$_ZNSt8_Rb_treeIiSt4pairIKiNSt7__cxx1112basic_stringIcSt11char_traitsIcESaIcEEEESt10_Select1stIS8_ESt4lessIiESaIS8_EE8_M_eraseEPSt13_Rb_tree_nodeIS8_E = comdat any

$_ZNSt8_Rb_treeIiSt4pairIKiNSt7__cxx1112basic_stringIcSt11char_traitsIcESaIcEEEESt10_Select1stIS8_ESt4lessIiESaIS8_EE13_Rb_tree_implISC_Lb1EED2Ev = comdat any

$_ZNSaISt13_Rb_tree_nodeISt4pairIKiNSt7__cxx1112basic_stringIcSt11char_traitsIcESaIcEEEEEED2Ev = comdat any

$_ZN9__gnu_cxx13new_allocatorISt13_Rb_tree_nodeISt4pairIKiNSt7__cxx1112basic_stringIcSt11char_traitsIcESaIcEEEEEED2Ev = comdat any

$_ZNSt8_Rb_treeIiSt4pairIKiNSt7__cxx1112basic_stringIcSt11char_traitsIcESaIcEEEESt10_Select1stIS8_ESt4lessIiESaIS8_EE8_S_rightEPSt18_Rb_tree_node_base = comdat any

$_ZNSt8_Rb_treeIiSt4pairIKiNSt7__cxx1112basic_stringIcSt11char_traitsIcESaIcEEEESt10_Select1stIS8_ESt4lessIiESaIS8_EE7_S_leftEPSt18_Rb_tree_node_base = comdat any

$_ZNSt8_Rb_treeIiSt4pairIKiNSt7__cxx1112basic_stringIcSt11char_traitsIcESaIcEEEESt10_Select1stIS8_ESt4lessIiESaIS8_EE12_M_drop_nodeEPSt13_Rb_tree_nodeIS8_E = comdat any

$_ZNSt8_Rb_treeIiSt4pairIKiNSt7__cxx1112basic_stringIcSt11char_traitsIcESaIcEEEESt10_Select1stIS8_ESt4lessIiESaIS8_EE15_M_destroy_nodeEPSt13_Rb_tree_nodeIS8_E = comdat any

$_ZNSt8_Rb_treeIiSt4pairIKiNSt7__cxx1112basic_stringIcSt11char_traitsIcESaIcEEEESt10_Select1stIS8_ESt4lessIiESaIS8_EE11_M_put_nodeEPSt13_Rb_tree_nodeIS8_E = comdat any

$_ZNSt8_Rb_treeIiSt4pairIKiNSt7__cxx1112basic_stringIcSt11char_traitsIcESaIcEEEESt10_Select1stIS8_ESt4lessIiESaIS8_EE21_M_get_Node_allocatorEv = comdat any

$_ZNSt16allocator_traitsISaISt13_Rb_tree_nodeISt4pairIKiNSt7__cxx1112basic_stringIcSt11char_traitsIcESaIcEEEEEEE10deallocateERSB_PSA_m = comdat any

$_ZN9__gnu_cxx13new_allocatorISt13_Rb_tree_nodeISt4pairIKiNSt7__cxx1112basic_stringIcSt11char_traitsIcESaIcEEEEEE10deallocateEPSB_m = comdat any

$_ZNSt13_Rb_tree_nodeISt4pairIKiNSt7__cxx1112basic_stringIcSt11char_traitsIcESaIcEEEEE9_M_valptrEv = comdat any

$_ZNSt16allocator_traitsISaISt13_Rb_tree_nodeISt4pairIKiNSt7__cxx1112basic_stringIcSt11char_traitsIcESaIcEEEEEEE7destroyIS9_EEvRSB_PT_ = comdat any

$_ZN9__gnu_cxx13new_allocatorISt13_Rb_tree_nodeISt4pairIKiNSt7__cxx1112basic_stringIcSt11char_traitsIcESaIcEEEEEE7destroyISA_EEvPT_ = comdat any

$_ZNSt4pairIKiNSt7__cxx1112basic_stringIcSt11char_traitsIcESaIcEEEED2Ev = comdat any

$_ZN9__gnu_cxx16__aligned_membufISt4pairIKiNSt7__cxx1112basic_stringIcSt11char_traitsIcESaIcEEEEE6_M_ptrEv = comdat any

$_ZN9__gnu_cxx16__aligned_membufISt4pairIKiNSt7__cxx1112basic_stringIcSt11char_traitsIcESaIcEEEEE7_M_addrEv = comdat any

$_ZNSt8_Rb_treeIiSt4pairIKiNSt7__cxx1112basic_stringIcSt11char_traitsIcESaIcEEEESt10_Select1stIS8_ESt4lessIiESaIS8_EE5beginEv = comdat any

$_ZNSt17_Rb_tree_iteratorISt4pairIKiNSt7__cxx1112basic_stringIcSt11char_traitsIcESaIcEEEEEC2EPSt18_Rb_tree_node_base = comdat any

$_ZNKSt8_Rb_treeINSt7__cxx1112basic_stringIcSt11char_traitsIcESaIcEEESt4pairIKS5_iESt10_Select1stIS8_ESt4lessIS5_ESaIS8_EE4sizeEv = comdat any

$_ZNSt3mapIiNSt7__cxx1112basic_stringIcSt11char_traitsIcESaIcEEESt4lessIiESaISt4pairIKiS5_EEE11lower_boundERS9_ = comdat any

$_ZNSt3mapIiNSt7__cxx1112basic_stringIcSt11char_traitsIcESaIcEEESt4lessIiESaISt4pairIKiS5_EEE3endEv = comdat any

$_ZSteqRKSt17_Rb_tree_iteratorISt4pairIKiNSt7__cxx1112basic_stringIcSt11char_traitsIcESaIcEEEEESB_ = comdat any

$_ZNKSt3mapIiNSt7__cxx1112basic_stringIcSt11char_traitsIcESaIcEEESt4lessIiESaISt4pairIKiS5_EEE8key_compEv = comdat any

$_ZNKSt17_Rb_tree_iteratorISt4pairIKiNSt7__cxx1112basic_stringIcSt11char_traitsIcESaIcEEEEEdeEv = comdat any

$_ZNKSt4lessIiEclERKiS2_ = comdat any

$_ZNSt23_Rb_tree_const_iteratorISt4pairIKiNSt7__cxx1112basic_stringIcSt11char_traitsIcESaIcEEEEEC2ERKSt17_Rb_tree_iteratorIS8_E = comdat any

$_ZNSt5tupleIJRKiEEC2IvLb1EEES1_ = comdat any

$_ZNSt8_Rb_treeIiSt4pairIKiNSt7__cxx1112basic_stringIcSt11char_traitsIcESaIcEEEESt10_Select1stIS8_ESt4lessIiESaIS8_EE22_M_emplace_hint_uniqueIJRKSt21piecewise_construct_tSt5tupleIJRS1_EESJ_IJEEEEESt17_Rb_tree_iteratorIS8_ESt23_Rb_tree_const_iteratorIS8_EDpOT_ = comdat any

$_ZSt7forwardIRKSt21piecewise_construct_tEOT_RNSt16remove_referenceIS3_E4typeE = comdat any

$_ZSt7forwardISt5tupleIJRKiEEEOT_RNSt16remove_referenceIS4_E4typeE = comdat any

$_ZSt7forwardISt5tupleIJEEEOT_RNSt16remove_referenceIS2_E4typeE = comdat any

$_ZNSt8_Rb_treeIiSt4pairIKiNSt7__cxx1112basic_stringIcSt11char_traitsIcESaIcEEEESt10_Select1stIS8_ESt4lessIiESaIS8_EE14_M_create_nodeIJRKSt21piecewise_construct_tSt5tupleIJRS1_EESJ_IJEEEEEPSt13_Rb_tree_nodeIS8_EDpOT_ = comdat any

$_ZNSt8_Rb_treeIiSt4pairIKiNSt7__cxx1112basic_stringIcSt11char_traitsIcESaIcEEEESt10_Select1stIS8_ESt4lessIiESaIS8_EE6_S_keyEPKSt13_Rb_tree_nodeIS8_E = comdat any

$_ZNSt8_Rb_treeIiSt4pairIKiNSt7__cxx1112basic_stringIcSt11char_traitsIcESaIcEEEESt10_Select1stIS8_ESt4lessIiESaIS8_EE29_M_get_insert_hint_unique_posESt23_Rb_tree_const_iteratorIS8_ERS1_ = comdat any

$_ZNSt8_Rb_treeIiSt4pairIKiNSt7__cxx1112basic_stringIcSt11char_traitsIcESaIcEEEESt10_Select1stIS8_ESt4lessIiESaIS8_EE14_M_insert_nodeEPSt18_Rb_tree_node_baseSG_PSt13_Rb_tree_nodeIS8_E = comdat any

$_ZNSt8_Rb_treeIiSt4pairIKiNSt7__cxx1112basic_stringIcSt11char_traitsIcESaIcEEEESt10_Select1stIS8_ESt4lessIiESaIS8_EE6_M_endEv = comdat any

$_ZNSt8_Rb_treeIiSt4pairIKiNSt7__cxx1112basic_stringIcSt11char_traitsIcESaIcEEEESt10_Select1stIS8_ESt4lessIiESaIS8_EE6_S_keyEPKSt18_Rb_tree_node_base = comdat any

$_ZNKSt23_Rb_tree_const_iteratorISt4pairIKiNSt7__cxx1112basic_stringIcSt11char_traitsIcESaIcEEEEE13_M_const_castEv = comdat any

$_ZNKSt8_Rb_treeIiSt4pairIKiNSt7__cxx1112basic_stringIcSt11char_traitsIcESaIcEEEESt10_Select1stIS8_ESt4lessIiESaIS8_EE4sizeEv = comdat any

$_ZNSt8_Rb_treeIiSt4pairIKiNSt7__cxx1112basic_stringIcSt11char_traitsIcESaIcEEEESt10_Select1stIS8_ESt4lessIiESaIS8_EE12_M_rightmostEv = comdat any

$_ZNSt4pairIPSt18_Rb_tree_node_baseS1_EC2IRS1_Lb1EEERKS1_OT_ = comdat any

$_ZNSt8_Rb_treeIiSt4pairIKiNSt7__cxx1112basic_stringIcSt11char_traitsIcESaIcEEEESt10_Select1stIS8_ESt4lessIiESaIS8_EE24_M_get_insert_unique_posERS1_ = comdat any

$_ZNSt8_Rb_treeIiSt4pairIKiNSt7__cxx1112basic_stringIcSt11char_traitsIcESaIcEEEESt10_Select1stIS8_ESt4lessIiESaIS8_EE11_M_leftmostEv = comdat any

$_ZNSt4pairIPSt18_Rb_tree_node_baseS1_EC2IRS1_S4_Lb1EEEOT_OT0_ = comdat any

$_ZNSt17_Rb_tree_iteratorISt4pairIKiNSt7__cxx1112basic_stringIcSt11char_traitsIcESaIcEEEEEmmEv = comdat any

$_ZNSt17_Rb_tree_iteratorISt4pairIKiNSt7__cxx1112basic_stringIcSt11char_traitsIcESaIcEEEEEppEv = comdat any

$_ZNSt4pairIPSt18_Rb_tree_node_baseS1_EC2IRS1_Lb1EEEOT_RKS1_ = comdat any

$_ZSt7forwardIRPSt18_Rb_tree_node_baseEOT_RNSt16remove_referenceIS3_E4typeE = comdat any

$_ZNSt4pairIPSt18_Rb_tree_node_baseS1_EC2IRPSt13_Rb_tree_nodeIS_IKiNSt7__cxx1112basic_stringIcSt11char_traitsIcESaIcEEEEERS1_Lb1EEEOT_OT0_ = comdat any

$_ZSt7forwardIRPSt13_Rb_tree_nodeISt4pairIKiNSt7__cxx1112basic_stringIcSt11char_traitsIcESaIcEEEEEEOT_RNSt16remove_referenceISD_E4typeE = comdat any

$_ZNKSt13_Rb_tree_nodeISt4pairIKiNSt7__cxx1112basic_stringIcSt11char_traitsIcESaIcEEEEE9_M_valptrEv = comdat any

$_ZNKSt10_Select1stISt4pairIKiNSt7__cxx1112basic_stringIcSt11char_traitsIcESaIcEEEEEclERKS8_ = comdat any

$_ZNK9__gnu_cxx16__aligned_membufISt4pairIKiNSt7__cxx1112basic_stringIcSt11char_traitsIcESaIcEEEEE6_M_ptrEv = comdat any

$_ZNK9__gnu_cxx16__aligned_membufISt4pairIKiNSt7__cxx1112basic_stringIcSt11char_traitsIcESaIcEEEEE7_M_addrEv = comdat any

$_ZNSt8_Rb_treeIiSt4pairIKiNSt7__cxx1112basic_stringIcSt11char_traitsIcESaIcEEEESt10_Select1stIS8_ESt4lessIiESaIS8_EE11_M_get_nodeEv = comdat any

$_ZNSt8_Rb_treeIiSt4pairIKiNSt7__cxx1112basic_stringIcSt11char_traitsIcESaIcEEEESt10_Select1stIS8_ESt4lessIiESaIS8_EE17_M_construct_nodeIJRKSt21piecewise_construct_tSt5tupleIJRS1_EESJ_IJEEEEEvPSt13_Rb_tree_nodeIS8_EDpOT_ = comdat any

$_ZNSt16allocator_traitsISaISt13_Rb_tree_nodeISt4pairIKiNSt7__cxx1112basic_stringIcSt11char_traitsIcESaIcEEEEEEE9constructIS9_JRKSt21piecewise_construct_tSt5tupleIJRS2_EESH_IJEEEEEvRSB_PT_DpOT0_ = comdat any

$_ZN9__gnu_cxx13new_allocatorISt13_Rb_tree_nodeISt4pairIKiNSt7__cxx1112basic_stringIcSt11char_traitsIcESaIcEEEEEE9constructISA_JRKSt21piecewise_construct_tSt5tupleIJRS3_EESH_IJEEEEEvPT_DpOT0_ = comdat any

$_ZNSt5tupleIJRKiEEC2EOS2_ = comdat any

$_ZNSt4pairIKiNSt7__cxx1112basic_stringIcSt11char_traitsIcESaIcEEEEC2IJRS0_EJEEESt21piecewise_construct_tSt5tupleIJDpT_EESB_IJDpT0_EE = comdat any

$_ZNSt4pairIKiNSt7__cxx1112basic_stringIcSt11char_traitsIcESaIcEEEEC2IJRS0_EJLm0EEJEJEEERSt5tupleIJDpT_EERSA_IJDpT1_EESt12_Index_tupleIJXspT0_EEESJ_IJXspT2_EEE = comdat any

$_ZSt3getILm0EJRKiEERNSt13tuple_elementIXT_ESt5tupleIJDpT0_EEE4typeERS6_ = comdat any

$_ZSt7forwardIRKiEOT_RNSt16remove_referenceIS2_E4typeE = comdat any

$_ZSt12__get_helperILm0ERKiJEERT0_RSt11_Tuple_implIXT_EJS2_DpT1_EE = comdat any

$_ZNSt11_Tuple_implILm0EJRKiEE7_M_headERS2_ = comdat any

$_ZNSt10_Head_baseILm0ERKiLb0EE7_M_headERS2_ = comdat any

$_ZNSt11_Tuple_implILm0EJRKiEEC2EOS2_ = comdat any

$_ZNSt10_Head_baseILm0ERKiLb0EEC2ES1_ = comdat any

$_ZNSt16allocator_traitsISaISt13_Rb_tree_nodeISt4pairIKiNSt7__cxx1112basic_stringIcSt11char_traitsIcESaIcEEEEEEE8allocateERSB_m = comdat any

$_ZN9__gnu_cxx13new_allocatorISt13_Rb_tree_nodeISt4pairIKiNSt7__cxx1112basic_stringIcSt11char_traitsIcESaIcEEEEEE8allocateEmPKv = comdat any

$_ZNK9__gnu_cxx13new_allocatorISt13_Rb_tree_nodeISt4pairIKiNSt7__cxx1112basic_stringIcSt11char_traitsIcESaIcEEEEEE8max_sizeEv = comdat any

$_ZNSt11_Tuple_implILm0EJRKiEEC2ES1_ = comdat any

$_ZNKSt8_Rb_treeIiSt4pairIKiNSt7__cxx1112basic_stringIcSt11char_traitsIcESaIcEEEESt10_Select1stIS8_ESt4lessIiESaIS8_EE8key_compEv = comdat any

$_ZNSt8_Rb_treeIiSt4pairIKiNSt7__cxx1112basic_stringIcSt11char_traitsIcESaIcEEEESt10_Select1stIS8_ESt4lessIiESaIS8_EE3endEv = comdat any

$_ZNSt8_Rb_treeIiSt4pairIKiNSt7__cxx1112basic_stringIcSt11char_traitsIcESaIcEEEESt10_Select1stIS8_ESt4lessIiESaIS8_EE11lower_boundERS1_ = comdat any

$_ZNSt8_Rb_treeIiSt4pairIKiNSt7__cxx1112basic_stringIcSt11char_traitsIcESaIcEEEESt10_Select1stIS8_ESt4lessIiESaIS8_EE14_M_lower_boundEPSt13_Rb_tree_nodeIS8_EPSt18_Rb_tree_node_baseRS1_ = comdat any

$_ZNSt8_Rb_treeIiSt4pairIKiNSt7__cxx1112basic_stringIcSt11char_traitsIcESaIcEEEESt10_Select1stIS8_ESt4lessIiESaIS8_EE5eraseERS1_ = comdat any

$_ZNSt8_Rb_treeIiSt4pairIKiNSt7__cxx1112basic_stringIcSt11char_traitsIcESaIcEEEESt10_Select1stIS8_ESt4lessIiESaIS8_EE11equal_rangeERS1_ = comdat any

$_ZNSt8_Rb_treeIiSt4pairIKiNSt7__cxx1112basic_stringIcSt11char_traitsIcESaIcEEEESt10_Select1stIS8_ESt4lessIiESaIS8_EE12_M_erase_auxESt23_Rb_tree_const_iteratorIS8_ESG_ = comdat any

$_ZSteqRKSt23_Rb_tree_const_iteratorISt4pairIKiNSt7__cxx1112basic_stringIcSt11char_traitsIcESaIcEEEEESB_ = comdat any

$_ZNSt8_Rb_treeIiSt4pairIKiNSt7__cxx1112basic_stringIcSt11char_traitsIcESaIcEEEESt10_Select1stIS8_ESt4lessIiESaIS8_EE5clearEv = comdat any

$_ZStneRKSt23_Rb_tree_const_iteratorISt4pairIKiNSt7__cxx1112basic_stringIcSt11char_traitsIcESaIcEEEEESB_ = comdat any

$_ZNSt23_Rb_tree_const_iteratorISt4pairIKiNSt7__cxx1112basic_stringIcSt11char_traitsIcESaIcEEEEEppEi = comdat any

$_ZNSt8_Rb_treeIiSt4pairIKiNSt7__cxx1112basic_stringIcSt11char_traitsIcESaIcEEEESt10_Select1stIS8_ESt4lessIiESaIS8_EE12_M_erase_auxESt23_Rb_tree_const_iteratorIS8_E = comdat any

$_ZNSt15_Rb_tree_header8_M_resetEv = comdat any

$_ZNSt8_Rb_treeIiSt4pairIKiNSt7__cxx1112basic_stringIcSt11char_traitsIcESaIcEEEESt10_Select1stIS8_ESt4lessIiESaIS8_EE14_M_upper_boundEPSt13_Rb_tree_nodeIS8_EPSt18_Rb_tree_node_baseRS1_ = comdat any

$_ZNSt4pairISt17_Rb_tree_iteratorIS_IKiNSt7__cxx1112basic_stringIcSt11char_traitsIcESaIcEEEEES9_EC2IS9_S9_Lb1EEEOT_OT0_ = comdat any

$_ZSt7forwardISt17_Rb_tree_iteratorISt4pairIKiNSt7__cxx1112basic_stringIcSt11char_traitsIcESaIcEEEEEEOT_RNSt16remove_referenceISB_E4typeE = comdat any

$_ZNSt3mapINSt7__cxx1112basic_stringIcSt11char_traitsIcESaIcEEEiSt4lessIS5_ESaISt4pairIKS5_iEEE11lower_boundERS9_ = comdat any

$_ZSteqRKSt17_Rb_tree_iteratorISt4pairIKNSt7__cxx1112basic_stringIcSt11char_traitsIcESaIcEEEiEESB_ = comdat any

$_ZNKSt3mapINSt7__cxx1112basic_stringIcSt11char_traitsIcESaIcEEEiSt4lessIS5_ESaISt4pairIKS5_iEEE8key_compEv = comdat any

$_ZNKSt17_Rb_tree_iteratorISt4pairIKNSt7__cxx1112basic_stringIcSt11char_traitsIcESaIcEEEiEEdeEv = comdat any

$_ZNKSt4lessINSt7__cxx1112basic_stringIcSt11char_traitsIcESaIcEEEEclERKS5_S8_ = comdat any

$_ZNSt23_Rb_tree_const_iteratorISt4pairIKNSt7__cxx1112basic_stringIcSt11char_traitsIcESaIcEEEiEEC2ERKSt17_Rb_tree_iteratorIS8_E = comdat any

$_ZNSt5tupleIJRKNSt7__cxx1112basic_stringIcSt11char_traitsIcESaIcEEEEEC2IvLb1EEES7_ = comdat any

$_ZNSt8_Rb_treeINSt7__cxx1112basic_stringIcSt11char_traitsIcESaIcEEESt4pairIKS5_iESt10_Select1stIS8_ESt4lessIS5_ESaIS8_EE22_M_emplace_hint_uniqueIJRKSt21piecewise_construct_tSt5tupleIJRS7_EESJ_IJEEEEESt17_Rb_tree_iteratorIS8_ESt23_Rb_tree_const_iteratorIS8_EDpOT_ = comdat any

$_ZSt7forwardISt5tupleIJRKNSt7__cxx1112basic_stringIcSt11char_traitsIcESaIcEEEEEEOT_RNSt16remove_referenceISA_E4typeE = comdat any

$_ZNSt8_Rb_treeINSt7__cxx1112basic_stringIcSt11char_traitsIcESaIcEEESt4pairIKS5_iESt10_Select1stIS8_ESt4lessIS5_ESaIS8_EE14_M_create_nodeIJRKSt21piecewise_construct_tSt5tupleIJRS7_EESJ_IJEEEEEPSt13_Rb_tree_nodeIS8_EDpOT_ = comdat any

$_ZNSt8_Rb_treeINSt7__cxx1112basic_stringIcSt11char_traitsIcESaIcEEESt4pairIKS5_iESt10_Select1stIS8_ESt4lessIS5_ESaIS8_EE6_S_keyEPKSt13_Rb_tree_nodeIS8_E = comdat any

$_ZNSt8_Rb_treeINSt7__cxx1112basic_stringIcSt11char_traitsIcESaIcEEESt4pairIKS5_iESt10_Select1stIS8_ESt4lessIS5_ESaIS8_EE29_M_get_insert_hint_unique_posESt23_Rb_tree_const_iteratorIS8_ERS7_ = comdat any

$_ZNSt8_Rb_treeINSt7__cxx1112basic_stringIcSt11char_traitsIcESaIcEEESt4pairIKS5_iESt10_Select1stIS8_ESt4lessIS5_ESaIS8_EE14_M_insert_nodeEPSt18_Rb_tree_node_baseSG_PSt13_Rb_tree_nodeIS8_E = comdat any

$_ZNSt17_Rb_tree_iteratorISt4pairIKNSt7__cxx1112basic_stringIcSt11char_traitsIcESaIcEEEiEEC2EPSt18_Rb_tree_node_base = comdat any

$_ZNSt8_Rb_treeINSt7__cxx1112basic_stringIcSt11char_traitsIcESaIcEEESt4pairIKS5_iESt10_Select1stIS8_ESt4lessIS5_ESaIS8_EE6_M_endEv = comdat any

$_ZNSt8_Rb_treeINSt7__cxx1112basic_stringIcSt11char_traitsIcESaIcEEESt4pairIKS5_iESt10_Select1stIS8_ESt4lessIS5_ESaIS8_EE6_S_keyEPKSt18_Rb_tree_node_base = comdat any

$_ZNKSt23_Rb_tree_const_iteratorISt4pairIKNSt7__cxx1112basic_stringIcSt11char_traitsIcESaIcEEEiEE13_M_const_castEv = comdat any

$_ZNSt8_Rb_treeINSt7__cxx1112basic_stringIcSt11char_traitsIcESaIcEEESt4pairIKS5_iESt10_Select1stIS8_ESt4lessIS5_ESaIS8_EE12_M_rightmostEv = comdat any

$_ZNSt8_Rb_treeINSt7__cxx1112basic_stringIcSt11char_traitsIcESaIcEEESt4pairIKS5_iESt10_Select1stIS8_ESt4lessIS5_ESaIS8_EE24_M_get_insert_unique_posERS7_ = comdat any

$_ZNSt8_Rb_treeINSt7__cxx1112basic_stringIcSt11char_traitsIcESaIcEEESt4pairIKS5_iESt10_Select1stIS8_ESt4lessIS5_ESaIS8_EE11_M_leftmostEv = comdat any

$_ZNSt17_Rb_tree_iteratorISt4pairIKNSt7__cxx1112basic_stringIcSt11char_traitsIcESaIcEEEiEEmmEv = comdat any

$_ZNSt17_Rb_tree_iteratorISt4pairIKNSt7__cxx1112basic_stringIcSt11char_traitsIcESaIcEEEiEEppEv = comdat any

$_ZNSt8_Rb_treeINSt7__cxx1112basic_stringIcSt11char_traitsIcESaIcEEESt4pairIKS5_iESt10_Select1stIS8_ESt4lessIS5_ESaIS8_EE5beginEv = comdat any

$_ZNSt4pairIPSt18_Rb_tree_node_baseS1_EC2IRPSt13_Rb_tree_nodeIS_IKNSt7__cxx1112basic_stringIcSt11char_traitsIcESaIcEEEiEERS1_Lb1EEEOT_OT0_ = comdat any

$_ZSt7forwardIRPSt13_Rb_tree_nodeISt4pairIKNSt7__cxx1112basic_stringIcSt11char_traitsIcESaIcEEEiEEEOT_RNSt16remove_referenceISD_E4typeE = comdat any

$_ZNKSt13_Rb_tree_nodeISt4pairIKNSt7__cxx1112basic_stringIcSt11char_traitsIcESaIcEEEiEE9_M_valptrEv = comdat any

$_ZNKSt10_Select1stISt4pairIKNSt7__cxx1112basic_stringIcSt11char_traitsIcESaIcEEEiEEclERKS8_ = comdat any

$_ZNK9__gnu_cxx16__aligned_membufISt4pairIKNSt7__cxx1112basic_stringIcSt11char_traitsIcESaIcEEEiEE6_M_ptrEv = comdat any

$_ZNK9__gnu_cxx16__aligned_membufISt4pairIKNSt7__cxx1112basic_stringIcSt11char_traitsIcESaIcEEEiEE7_M_addrEv = comdat any

$_ZNSt8_Rb_treeINSt7__cxx1112basic_stringIcSt11char_traitsIcESaIcEEESt4pairIKS5_iESt10_Select1stIS8_ESt4lessIS5_ESaIS8_EE11_M_get_nodeEv = comdat any

$_ZNSt8_Rb_treeINSt7__cxx1112basic_stringIcSt11char_traitsIcESaIcEEESt4pairIKS5_iESt10_Select1stIS8_ESt4lessIS5_ESaIS8_EE17_M_construct_nodeIJRKSt21piecewise_construct_tSt5tupleIJRS7_EESJ_IJEEEEEvPSt13_Rb_tree_nodeIS8_EDpOT_ = comdat any

$_ZNSt16allocator_traitsISaISt13_Rb_tree_nodeISt4pairIKNSt7__cxx1112basic_stringIcSt11char_traitsIcESaIcEEEiEEEE9constructIS9_JRKSt21piecewise_construct_tSt5tupleIJRS8_EESH_IJEEEEEvRSB_PT_DpOT0_ = comdat any

$_ZN9__gnu_cxx13new_allocatorISt13_Rb_tree_nodeISt4pairIKNSt7__cxx1112basic_stringIcSt11char_traitsIcESaIcEEEiEEE9constructISA_JRKSt21piecewise_construct_tSt5tupleIJRS9_EESH_IJEEEEEvPT_DpOT0_ = comdat any

$_ZNSt5tupleIJRKNSt7__cxx1112basic_stringIcSt11char_traitsIcESaIcEEEEEC2EOS8_ = comdat any

$_ZNSt4pairIKNSt7__cxx1112basic_stringIcSt11char_traitsIcESaIcEEEiEC2IJRS6_EJEEESt21piecewise_construct_tSt5tupleIJDpT_EESB_IJDpT0_EE = comdat any

$_ZNSt4pairIKNSt7__cxx1112basic_stringIcSt11char_traitsIcESaIcEEEiEC2IJRS6_EJLm0EEJEJEEERSt5tupleIJDpT_EERSA_IJDpT1_EESt12_Index_tupleIJXspT0_EEESJ_IJXspT2_EEE = comdat any

$_ZSt3getILm0EJRKNSt7__cxx1112basic_stringIcSt11char_traitsIcESaIcEEEEERNSt13tuple_elementIXT_ESt5tupleIJDpT0_EEE4typeERSC_ = comdat any

$_ZSt7forwardIRKNSt7__cxx1112basic_stringIcSt11char_traitsIcESaIcEEEEOT_RNSt16remove_referenceIS8_E4typeE = comdat any

$_ZSt12__get_helperILm0ERKNSt7__cxx1112basic_stringIcSt11char_traitsIcESaIcEEEJEERT0_RSt11_Tuple_implIXT_EJS8_DpT1_EE = comdat any

$_ZNSt11_Tuple_implILm0EJRKNSt7__cxx1112basic_stringIcSt11char_traitsIcESaIcEEEEE7_M_headERS8_ = comdat any

$_ZNSt10_Head_baseILm0ERKNSt7__cxx1112basic_stringIcSt11char_traitsIcESaIcEEELb0EE7_M_headERS8_ = comdat any

$_ZNSt11_Tuple_implILm0EJRKNSt7__cxx1112basic_stringIcSt11char_traitsIcESaIcEEEEEC2EOS8_ = comdat any

$_ZNSt10_Head_baseILm0ERKNSt7__cxx1112basic_stringIcSt11char_traitsIcESaIcEEELb0EEC2ES7_ = comdat any

$_ZNSt16allocator_traitsISaISt13_Rb_tree_nodeISt4pairIKNSt7__cxx1112basic_stringIcSt11char_traitsIcESaIcEEEiEEEE8allocateERSB_m = comdat any

$_ZN9__gnu_cxx13new_allocatorISt13_Rb_tree_nodeISt4pairIKNSt7__cxx1112basic_stringIcSt11char_traitsIcESaIcEEEiEEE8allocateEmPKv = comdat any

$_ZNK9__gnu_cxx13new_allocatorISt13_Rb_tree_nodeISt4pairIKNSt7__cxx1112basic_stringIcSt11char_traitsIcESaIcEEEiEEE8max_sizeEv = comdat any

$_ZNSt11_Tuple_implILm0EJRKNSt7__cxx1112basic_stringIcSt11char_traitsIcESaIcEEEEEC2ES7_ = comdat any

$_ZStltIcSt11char_traitsIcESaIcEEbRKNSt7__cxx1112basic_stringIT_T0_T1_EESA_ = comdat any

$_ZNKSt8_Rb_treeINSt7__cxx1112basic_stringIcSt11char_traitsIcESaIcEEESt4pairIKS5_iESt10_Select1stIS8_ESt4lessIS5_ESaIS8_EE8key_compEv = comdat any

$_ZNSt8_Rb_treeINSt7__cxx1112basic_stringIcSt11char_traitsIcESaIcEEESt4pairIKS5_iESt10_Select1stIS8_ESt4lessIS5_ESaIS8_EE11lower_boundERS7_ = comdat any

$_ZNSt8_Rb_treeINSt7__cxx1112basic_stringIcSt11char_traitsIcESaIcEEESt4pairIKS5_iESt10_Select1stIS8_ESt4lessIS5_ESaIS8_EE14_M_lower_boundEPSt13_Rb_tree_nodeIS8_EPSt18_Rb_tree_node_baseRS7_ = comdat any

$_ZNSt8_Rb_treeINSt7__cxx1112basic_stringIcSt11char_traitsIcESaIcEEESt4pairIKS5_iESt10_Select1stIS8_ESt4lessIS5_ESaIS8_EE3endEv = comdat any

$_ZNSt8_Rb_treeINSt7__cxx1112basic_stringIcSt11char_traitsIcESaIcEEESt4pairIKS5_iESt10_Select1stIS8_ESt4lessIS5_ESaIS8_EE4findERS7_ = comdat any

$_ZNSt11char_traitsIcE7compareEPKcS2_m = comdat any

$_ZNSt8_Rb_treeIiSt4pairIKiNSt7__cxx1112basic_stringIcSt11char_traitsIcESaIcEEEESt10_Select1stIS8_ESt4lessIiESaIS8_EEC2Ev = comdat any

$_ZNSt8_Rb_treeIiSt4pairIKiNSt7__cxx1112basic_stringIcSt11char_traitsIcESaIcEEEESt10_Select1stIS8_ESt4lessIiESaIS8_EE13_Rb_tree_implISC_Lb1EEC2Ev = comdat any

$_ZNSaISt13_Rb_tree_nodeISt4pairIKiNSt7__cxx1112basic_stringIcSt11char_traitsIcESaIcEEEEEEC2Ev = comdat any

$_ZNSt20_Rb_tree_key_compareISt4lessIiEEC2Ev = comdat any

$_ZNSt15_Rb_tree_headerC2Ev = comdat any

$_ZN9__gnu_cxx13new_allocatorISt13_Rb_tree_nodeISt4pairIKiNSt7__cxx1112basic_stringIcSt11char_traitsIcESaIcEEEEEEC2Ev = comdat any

$_ZNSt8_Rb_treeINSt7__cxx1112basic_stringIcSt11char_traitsIcESaIcEEESt4pairIKS5_iESt10_Select1stIS8_ESt4lessIS5_ESaIS8_EEC2Ev = comdat any

$_ZNSt8_Rb_treeINSt7__cxx1112basic_stringIcSt11char_traitsIcESaIcEEESt4pairIKS5_iESt10_Select1stIS8_ESt4lessIS5_ESaIS8_EE13_Rb_tree_implISC_Lb1EEC2Ev = comdat any

$_ZNSaISt13_Rb_tree_nodeISt4pairIKNSt7__cxx1112basic_stringIcSt11char_traitsIcESaIcEEEiEEEC2Ev = comdat any

$_ZNSt20_Rb_tree_key_compareISt4lessINSt7__cxx1112basic_stringIcSt11char_traitsIcESaIcEEEEEC2Ev = comdat any

$_ZN9__gnu_cxx13new_allocatorISt13_Rb_tree_nodeISt4pairIKNSt7__cxx1112basic_stringIcSt11char_traitsIcESaIcEEEiEEEC2Ev = comdat any

$_ZNSt6vectorINSt7__cxx1112basic_stringIcSt11char_traitsIcESaIcEEESaIS5_EEC2Ev = comdat any

$_ZNSt6vectorINSt7__cxx1112basic_stringIcSt11char_traitsIcESaIcEEESaIS5_EE9push_backERKS5_ = comdat any

$_ZNSt6vectorINSt7__cxx1112basic_stringIcSt11char_traitsIcESaIcEEESaIS5_EEC2ERKS7_ = comdat any

$_ZNSt6vectorINSt7__cxx1112basic_stringIcSt11char_traitsIcESaIcEEESaIS5_EED2Ev = comdat any

$_ZNSt12_Vector_baseINSt7__cxx1112basic_stringIcSt11char_traitsIcESaIcEEESaIS5_EE19_M_get_Tp_allocatorEv = comdat any

$_ZSt8_DestroyIPNSt7__cxx1112basic_stringIcSt11char_traitsIcESaIcEEES5_EvT_S7_RSaIT0_E = comdat any

$_ZNSt12_Vector_baseINSt7__cxx1112basic_stringIcSt11char_traitsIcESaIcEEESaIS5_EED2Ev = comdat any

$_ZNSt12_Vector_baseINSt7__cxx1112basic_stringIcSt11char_traitsIcESaIcEEESaIS5_EE13_M_deallocateEPS5_m = comdat any

$_ZNSt12_Vector_baseINSt7__cxx1112basic_stringIcSt11char_traitsIcESaIcEEESaIS5_EE12_Vector_implD2Ev = comdat any

$_ZNSaINSt7__cxx1112basic_stringIcSt11char_traitsIcESaIcEEEED2Ev = comdat any

$_ZN9__gnu_cxx13new_allocatorINSt7__cxx1112basic_stringIcSt11char_traitsIcESaIcEEEED2Ev = comdat any

$_ZNSt16allocator_traitsISaINSt7__cxx1112basic_stringIcSt11char_traitsIcESaIcEEEEE10deallocateERS6_PS5_m = comdat any

$_ZN9__gnu_cxx13new_allocatorINSt7__cxx1112basic_stringIcSt11char_traitsIcESaIcEEEE10deallocateEPS6_m = comdat any

$_ZSt8_DestroyIPNSt7__cxx1112basic_stringIcSt11char_traitsIcESaIcEEEEvT_S7_ = comdat any

$_ZNSt12_Destroy_auxILb0EE9__destroyIPNSt7__cxx1112basic_stringIcSt11char_traitsIcESaIcEEEEEvT_S9_ = comdat any

$_ZSt11__addressofINSt7__cxx1112basic_stringIcSt11char_traitsIcESaIcEEEEPT_RS6_ = comdat any

$_ZSt8_DestroyINSt7__cxx1112basic_stringIcSt11char_traitsIcESaIcEEEEvPT_ = comdat any

$_ZNKSt12_Vector_baseINSt7__cxx1112basic_stringIcSt11char_traitsIcESaIcEEESaIS5_EE19_M_get_Tp_allocatorEv = comdat any

$_ZN9__gnu_cxx14__alloc_traitsISaINSt7__cxx1112basic_stringIcSt11char_traitsIcESaIcEEEES6_E17_S_select_on_copyERKS7_ = comdat any

$_ZNSt12_Vector_baseINSt7__cxx1112basic_stringIcSt11char_traitsIcESaIcEEESaIS5_EEC2EmRKS6_ = comdat any

$_ZNKSt6vectorINSt7__cxx1112basic_stringIcSt11char_traitsIcESaIcEEESaIS5_EE5beginEv = comdat any

$_ZNKSt6vectorINSt7__cxx1112basic_stringIcSt11char_traitsIcESaIcEEESaIS5_EE3endEv = comdat any

$_ZSt22__uninitialized_copy_aIN9__gnu_cxx17__normal_iteratorIPKNSt7__cxx1112basic_stringIcSt11char_traitsIcESaIcEEESt6vectorIS7_SaIS7_EEEEPS7_S7_ET0_T_SG_SF_RSaIT1_E = comdat any

$_ZSt18uninitialized_copyIN9__gnu_cxx17__normal_iteratorIPKNSt7__cxx1112basic_stringIcSt11char_traitsIcESaIcEEESt6vectorIS7_SaIS7_EEEEPS7_ET0_T_SG_SF_ = comdat any

$_ZNSt20__uninitialized_copyILb0EE13__uninit_copyIN9__gnu_cxx17__normal_iteratorIPKNSt7__cxx1112basic_stringIcSt11char_traitsIcESaIcEEESt6vectorIS9_SaIS9_EEEEPS9_EET0_T_SI_SH_ = comdat any

$_ZN9__gnu_cxxneIPKNSt7__cxx1112basic_stringIcSt11char_traitsIcESaIcEEESt6vectorIS6_SaIS6_EEEEbRKNS_17__normal_iteratorIT_T0_EESH_ = comdat any

$_ZNK9__gnu_cxx17__normal_iteratorIPKNSt7__cxx1112basic_stringIcSt11char_traitsIcESaIcEEESt6vectorIS6_SaIS6_EEEdeEv = comdat any

$_ZSt10_ConstructINSt7__cxx1112basic_stringIcSt11char_traitsIcESaIcEEEJRKS5_EEvPT_DpOT0_ = comdat any

$_ZN9__gnu_cxx17__normal_iteratorIPKNSt7__cxx1112basic_stringIcSt11char_traitsIcESaIcEEESt6vectorIS6_SaIS6_EEEppEv = comdat any

$_ZNK9__gnu_cxx17__normal_iteratorIPKNSt7__cxx1112basic_stringIcSt11char_traitsIcESaIcEEESt6vectorIS6_SaIS6_EEE4baseEv = comdat any

$_ZN9__gnu_cxx17__normal_iteratorIPKNSt7__cxx1112basic_stringIcSt11char_traitsIcESaIcEEESt6vectorIS6_SaIS6_EEEC2ERKS8_ = comdat any

$_ZNSt12_Vector_baseINSt7__cxx1112basic_stringIcSt11char_traitsIcESaIcEEESaIS5_EE12_Vector_implC2ERKS6_ = comdat any

$_ZNSt12_Vector_baseINSt7__cxx1112basic_stringIcSt11char_traitsIcESaIcEEESaIS5_EE17_M_create_storageEm = comdat any

$_ZNSt12_Vector_baseINSt7__cxx1112basic_stringIcSt11char_traitsIcESaIcEEESaIS5_EE11_M_allocateEm = comdat any

$_ZNSt16allocator_traitsISaINSt7__cxx1112basic_stringIcSt11char_traitsIcESaIcEEEEE8allocateERS6_m = comdat any

$_ZN9__gnu_cxx13new_allocatorINSt7__cxx1112basic_stringIcSt11char_traitsIcESaIcEEEE8allocateEmPKv = comdat any

$_ZNK9__gnu_cxx13new_allocatorINSt7__cxx1112basic_stringIcSt11char_traitsIcESaIcEEEE8max_sizeEv = comdat any

$_ZNSaINSt7__cxx1112basic_stringIcSt11char_traitsIcESaIcEEEEC2ERKS5_ = comdat any

$_ZNSt12_Vector_baseINSt7__cxx1112basic_stringIcSt11char_traitsIcESaIcEEESaIS5_EE17_Vector_impl_dataC2Ev = comdat any

$_ZN9__gnu_cxx13new_allocatorINSt7__cxx1112basic_stringIcSt11char_traitsIcESaIcEEEEC2ERKS7_ = comdat any

$_ZNSt16allocator_traitsISaINSt7__cxx1112basic_stringIcSt11char_traitsIcESaIcEEEEE37select_on_container_copy_constructionERKS6_ = comdat any

$_ZNSt16allocator_traitsISaINSt7__cxx1112basic_stringIcSt11char_traitsIcESaIcEEEEE9constructIS5_JRKS5_EEEvRS6_PT_DpOT0_ = comdat any

$_ZNSt6vectorINSt7__cxx1112basic_stringIcSt11char_traitsIcESaIcEEESaIS5_EE3endEv = comdat any

$_ZNSt6vectorINSt7__cxx1112basic_stringIcSt11char_traitsIcESaIcEEESaIS5_EE17_M_realloc_insertIJRKS5_EEEvN9__gnu_cxx17__normal_iteratorIPS5_S7_EEDpOT_ = comdat any

$_ZNKSt6vectorINSt7__cxx1112basic_stringIcSt11char_traitsIcESaIcEEESaIS5_EE12_M_check_lenEmPKc = comdat any

$_ZNSt6vectorINSt7__cxx1112basic_stringIcSt11char_traitsIcESaIcEEESaIS5_EE5beginEv = comdat any

$_ZN9__gnu_cxxmiIPNSt7__cxx1112basic_stringIcSt11char_traitsIcESaIcEEESt6vectorIS6_SaIS6_EEEENS_17__normal_iteratorIT_T0_E15difference_typeERKSE_SH_ = comdat any

$_ZNK9__gnu_cxx17__normal_iteratorIPNSt7__cxx1112basic_stringIcSt11char_traitsIcESaIcEEESt6vectorIS6_SaIS6_EEE4baseEv = comdat any

$_ZNSt6vectorINSt7__cxx1112basic_stringIcSt11char_traitsIcESaIcEEESaIS5_EE11_S_relocateEPS5_S8_S8_RS6_ = comdat any

$_ZNSt16allocator_traitsISaINSt7__cxx1112basic_stringIcSt11char_traitsIcESaIcEEEEE7destroyIS5_EEvRS6_PT_ = comdat any

$_ZN9__gnu_cxx13new_allocatorINSt7__cxx1112basic_stringIcSt11char_traitsIcESaIcEEEE7destroyIS6_EEvPT_ = comdat any

$_ZNSt6vectorINSt7__cxx1112basic_stringIcSt11char_traitsIcESaIcEEESaIS5_EE14_S_do_relocateEPS5_S8_S8_RS6_St17integral_constantIbLb1EE = comdat any

$_ZSt12__relocate_aIPNSt7__cxx1112basic_stringIcSt11char_traitsIcESaIcEEES6_SaIS5_EET0_T_S9_S8_RT1_ = comdat any

$_ZSt12__niter_baseIPNSt7__cxx1112basic_stringIcSt11char_traitsIcESaIcEEEET_S7_ = comdat any

$_ZSt14__relocate_a_1IPNSt7__cxx1112basic_stringIcSt11char_traitsIcESaIcEEES6_SaIS5_EET0_T_S9_S8_RT1_ = comdat any

$_ZSt19__relocate_object_aINSt7__cxx1112basic_stringIcSt11char_traitsIcESaIcEEES5_SaIS5_EEvPT_PT0_RT1_ = comdat any

$_ZSt4moveIRNSt7__cxx1112basic_stringIcSt11char_traitsIcESaIcEEEEONSt16remove_referenceIT_E4typeEOS8_ = comdat any

$_ZNSt16allocator_traitsISaINSt7__cxx1112basic_stringIcSt11char_traitsIcESaIcEEEEE9constructIS5_JS5_EEEvRS6_PT_DpOT0_ = comdat any

$_ZSt7forwardINSt7__cxx1112basic_stringIcSt11char_traitsIcESaIcEEEEOT_RNSt16remove_referenceIS6_E4typeE = comdat any

$_ZN9__gnu_cxx13new_allocatorINSt7__cxx1112basic_stringIcSt11char_traitsIcESaIcEEEE9constructIS6_JS6_EEEvPT_DpOT0_ = comdat any

$_ZN9__gnu_cxx17__normal_iteratorIPNSt7__cxx1112basic_stringIcSt11char_traitsIcESaIcEEESt6vectorIS6_SaIS6_EEEC2ERKS7_ = comdat any

$_ZNKSt6vectorINSt7__cxx1112basic_stringIcSt11char_traitsIcESaIcEEESaIS5_EE8max_sizeEv = comdat any

$_ZSt3maxImERKT_S2_S2_ = comdat any

$_ZNSt6vectorINSt7__cxx1112basic_stringIcSt11char_traitsIcESaIcEEESaIS5_EE11_S_max_sizeERKS6_ = comdat any

$_ZNSt16allocator_traitsISaINSt7__cxx1112basic_stringIcSt11char_traitsIcESaIcEEEEE8max_sizeERKS6_ = comdat any

$_ZSt3minImERKT_S2_S2_ = comdat any

$_ZN9__gnu_cxx13new_allocatorINSt7__cxx1112basic_stringIcSt11char_traitsIcESaIcEEEE9constructIS6_JRKS6_EEEvPT_DpOT0_ = comdat any

$_ZNSt12_Vector_baseINSt7__cxx1112basic_stringIcSt11char_traitsIcESaIcEEESaIS5_EEC2Ev = comdat any

$_ZNSt12_Vector_baseINSt7__cxx1112basic_stringIcSt11char_traitsIcESaIcEEESaIS5_EE12_Vector_implC2Ev = comdat any

$_ZNSaINSt7__cxx1112basic_stringIcSt11char_traitsIcESaIcEEEEC2Ev = comdat any

$_ZN9__gnu_cxx13new_allocatorINSt7__cxx1112basic_stringIcSt11char_traitsIcESaIcEEEEC2Ev = comdat any

@llvm.global_ctors = appending global [1 x { i32, void ()*, i8* }] [{ i32, void ()*, i8* } { i32 65535, void ()* @_GLOBAL__sub_I_Keywords.cpp, i8* null }]
@_ZStL8__ioinit = internal global %"class.std::ios_base::Init" zeroinitializer, align 1
@.str = private unnamed_addr constant [3 x i8] c" $\00", align 1
@.str.1 = private unnamed_addr constant [1 x i8] zeroinitializer, align 1
@.str.2 = private unnamed_addr constant [24 x i8] c"../input_files/Keywords\00", align 1
@.str.3 = private unnamed_addr constant [2 x i8] c"r\00", align 1
@stdin = external dso_local global %struct._IO_FILE*, align 8
@_ZSt3cin = external dso_local global %"class.std::basic_istream", align 8
@_ZSt4cout = external dso_local global %"class.std::basic_ostream", align 8
@_ZStL19piecewise_construct = internal constant %"class.std::ios_base::Init" undef, align 1
@.str.4 = private unnamed_addr constant [26 x i8] c"vector::_M_realloc_insert\00", align 1

; Function Attrs: noinline uwtable
define internal void @_GLOBAL__sub_I_Keywords.cpp() #0 section ".text.startup" {
  call void @__cxx_global_var_init(), !llfi_index !4
  ret void, !llfi_index !5
}

; Function Attrs: noinline uwtable
define internal void @__cxx_global_var_init() #0 section ".text.startup" {
  call void @_ZNSt8ios_base4InitC1Ev(%"class.std::ios_base::Init"* nonnull align 1 dereferenceable(1) @_ZStL8__ioinit), !llfi_index !6
  %1 = call i32 @atexit(void ()* @__dtor__ZStL8__ioinit) #2, !llfi_index !7
  ret void, !llfi_index !8
}

declare dso_local void @_ZNSt8ios_base4InitC1Ev(%"class.std::ios_base::Init"* nonnull align 1 dereferenceable(1)) unnamed_addr #1

; Function Attrs: noinline uwtable
define internal void @__dtor__ZStL8__ioinit() #0 section ".text.startup" {
  call void @_ZNSt8ios_base4InitD1Ev(%"class.std::ios_base::Init"* @_ZStL8__ioinit), !llfi_index !9
  ret void, !llfi_index !10
}

; Function Attrs: nounwind
declare dso_local i32 @atexit(void ()*) #2

; Function Attrs: nounwind
declare dso_local void @_ZNSt8ios_base4InitD1Ev(%"class.std::ios_base::Init"* nonnull align 1 dereferenceable(1)) unnamed_addr #3

; Function Attrs: mustprogress noinline uwtable
define dso_local i32 @_Z13minimumLengthNSt7__cxx1112basic_stringIcSt11char_traitsIcESaIcEEESt6vectorIS4_SaIS4_EE(%"class.std::__cxx11::basic_string"* %0, %"class.std::vector"* %1) #4 personality i8* bitcast (i32 (...)* @__gxx_personality_v0 to i8*) {
  %3 = alloca i32, align 4, !llfi_index !11
  %4 = alloca %"class.std::map", align 8, !llfi_index !12
  %5 = alloca %"class.std::map", align 8, !llfi_index !13
  %6 = alloca %"class.std::__cxx11::basic_string", align 8, !llfi_index !14
  %7 = alloca %"class.std::ios_base::Init", align 1, !llfi_index !15
  %8 = alloca i8*, align 8, !llfi_index !16
  %9 = alloca i32, align 4, !llfi_index !17
  %10 = alloca i32, align 4, !llfi_index !18
  %11 = alloca i32, align 4, !llfi_index !19
  %12 = alloca %"struct.std::_Rb_tree_iterator", align 8, !llfi_index !20
  %13 = alloca %"struct.std::_Rb_tree_iterator", align 8, !llfi_index !21
  %14 = alloca i32, align 4, !llfi_index !22
  %15 = alloca %"struct.std::_Rb_tree_iterator", align 8, !llfi_index !23
  %16 = alloca i32, align 4, !llfi_index !24
  %17 = alloca %"struct.std::_Rb_tree_iterator", align 8, !llfi_index !25
  %18 = alloca i32, align 4, !llfi_index !26
  store i32 1000000000, i32* %3, align 4, !llfi_index !27
  %19 = call nonnull align 8 dereferenceable(32) %"class.std::__cxx11::basic_string"* @_ZNSt7__cxx1112basic_stringIcSt11char_traitsIcESaIcEEpLEPKc(%"class.std::__cxx11::basic_string"* nonnull align 8 dereferenceable(32) %0, i8* getelementptr inbounds ([3 x i8], [3 x i8]* @.str, i64 0, i64 0)), !llfi_index !28
  call void @_ZNSt3mapINSt7__cxx1112basic_stringIcSt11char_traitsIcESaIcEEEiSt4lessIS5_ESaISt4pairIKS5_iEEEC2Ev(%"class.std::map"* nonnull align 8 dereferenceable(48) %4) #2, !llfi_index !29
  call void @_ZNSt3mapIiNSt7__cxx1112basic_stringIcSt11char_traitsIcESaIcEEESt4lessIiESaISt4pairIKiS5_EEEC2Ev(%"class.std::map"* nonnull align 8 dereferenceable(48) %5) #2, !llfi_index !30
  call void @_ZNSaIcEC1Ev(%"class.std::ios_base::Init"* nonnull align 1 dereferenceable(1) %7) #2, !llfi_index !31
  invoke void @_ZNSt7__cxx1112basic_stringIcSt11char_traitsIcESaIcEEC1EPKcRKS3_(%"class.std::__cxx11::basic_string"* nonnull align 8 dereferenceable(32) %6, i8* getelementptr inbounds ([1 x i8], [1 x i8]* @.str.1, i64 0, i64 0), %"class.std::ios_base::Init"* nonnull align 1 dereferenceable(1) %7)
          to label %20 unwind label %57, !llfi_index !32

20:                                               ; preds = %2
  call void @_ZNSaIcED1Ev(%"class.std::ios_base::Init"* nonnull align 1 dereferenceable(1) %7) #2, !llfi_index !33
  store i32 0, i32* %10, align 4, !llfi_index !34
  br label %21, !llfi_index !35

21:                                               ; preds = %115, %20
  %22 = load i32, i32* %10, align 4, !llfi_index !36
  %23 = sext i32 %22 to i64, !llfi_index !37
  %24 = call i64 @_ZNKSt7__cxx1112basic_stringIcSt11char_traitsIcESaIcEE4sizeEv(%"class.std::__cxx11::basic_string"* nonnull align 8 dereferenceable(32) %0) #2, !llfi_index !38
  %25 = icmp ult i64 %23, %24, !llfi_index !39
  br i1 %25, label %26, label %118, !llfi_index !40

26:                                               ; preds = %21
  %27 = load i32, i32* %10, align 4, !llfi_index !41
  %28 = sext i32 %27 to i64, !llfi_index !42
  %29 = invoke nonnull align 1 dereferenceable(1) i8* @_ZNSt7__cxx1112basic_stringIcSt11char_traitsIcESaIcEEixEm(%"class.std::__cxx11::basic_string"* nonnull align 8 dereferenceable(32) %0, i64 %28)
          to label %30 unwind label %61, !llfi_index !43

30:                                               ; preds = %26
  %31 = load i8, i8* %29, align 1, !llfi_index !44
  %32 = sext i8 %31 to i32, !llfi_index !45
  %33 = icmp eq i32 %32, 32, !llfi_index !46
  br i1 %33, label %34, label %80, !llfi_index !47

34:                                               ; preds = %30
  store i32 0, i32* %11, align 4, !llfi_index !48
  br label %35, !llfi_index !49

35:                                               ; preds = %74, %34
  %36 = load i32, i32* %11, align 4, !llfi_index !50
  %37 = sext i32 %36 to i64, !llfi_index !51
  %38 = call i64 @_ZNKSt6vectorINSt7__cxx1112basic_stringIcSt11char_traitsIcESaIcEEESaIS5_EE4sizeEv(%"class.std::vector"* nonnull align 8 dereferenceable(24) %1) #2, !llfi_index !52
  %39 = icmp ult i64 %37, %38, !llfi_index !53
  br i1 %39, label %40, label %77, !llfi_index !54

40:                                               ; preds = %35
  %41 = load i32, i32* %11, align 4, !llfi_index !55
  %42 = sext i32 %41 to i64, !llfi_index !56
  %43 = call nonnull align 8 dereferenceable(32) %"class.std::__cxx11::basic_string"* @_ZNSt6vectorINSt7__cxx1112basic_stringIcSt11char_traitsIcESaIcEEESaIS5_EEixEm(%"class.std::vector"* nonnull align 8 dereferenceable(24) %1, i64 %42) #2, !llfi_index !57
  %44 = call zeroext i1 @_ZSteqIcEN9__gnu_cxx11__enable_ifIXsr9__is_charIT_EE7__valueEbE6__typeERKNSt7__cxx1112basic_stringIS2_St11char_traitsIS2_ESaIS2_EEESC_(%"class.std::__cxx11::basic_string"* nonnull align 8 dereferenceable(32) %43, %"class.std::__cxx11::basic_string"* nonnull align 8 dereferenceable(32) %6) #2, !llfi_index !58
  br i1 %44, label %45, label %73, !llfi_index !59

45:                                               ; preds = %40
  %46 = invoke %"struct.std::_Rb_tree_node_base"* @_ZNSt3mapINSt7__cxx1112basic_stringIcSt11char_traitsIcESaIcEEEiSt4lessIS5_ESaISt4pairIKS5_iEEE4findERS9_(%"class.std::map"* nonnull align 8 dereferenceable(48) %4, %"class.std::__cxx11::basic_string"* nonnull align 8 dereferenceable(32) %6)
          to label %47 unwind label %61, !llfi_index !60

47:                                               ; preds = %45
  %48 = getelementptr inbounds %"struct.std::_Rb_tree_iterator", %"struct.std::_Rb_tree_iterator"* %12, i32 0, i32 0, !llfi_index !61
  store %"struct.std::_Rb_tree_node_base"* %46, %"struct.std::_Rb_tree_node_base"** %48, align 8, !llfi_index !62
  %49 = call %"struct.std::_Rb_tree_node_base"* @_ZNSt3mapINSt7__cxx1112basic_stringIcSt11char_traitsIcESaIcEEEiSt4lessIS5_ESaISt4pairIKS5_iEEE3endEv(%"class.std::map"* nonnull align 8 dereferenceable(48) %4) #2, !llfi_index !63
  %50 = getelementptr inbounds %"struct.std::_Rb_tree_iterator", %"struct.std::_Rb_tree_iterator"* %13, i32 0, i32 0, !llfi_index !64
  store %"struct.std::_Rb_tree_node_base"* %49, %"struct.std::_Rb_tree_node_base"** %50, align 8, !llfi_index !65
  %51 = call zeroext i1 @_ZStneRKSt17_Rb_tree_iteratorISt4pairIKNSt7__cxx1112basic_stringIcSt11char_traitsIcESaIcEEEiEESB_(%"struct.std::_Rb_tree_iterator"* nonnull align 8 dereferenceable(8) %12, %"struct.std::_Rb_tree_iterator"* nonnull align 8 dereferenceable(8) %13) #2, !llfi_index !66
  br i1 %51, label %52, label %65, !llfi_index !67

52:                                               ; preds = %47
  %53 = invoke nonnull align 4 dereferenceable(4) i32* @_ZNSt3mapINSt7__cxx1112basic_stringIcSt11char_traitsIcESaIcEEEiSt4lessIS5_ESaISt4pairIKS5_iEEEixERS9_(%"class.std::map"* nonnull align 8 dereferenceable(48) %4, %"class.std::__cxx11::basic_string"* nonnull align 8 dereferenceable(32) %6)
          to label %54 unwind label %61, !llfi_index !68

54:                                               ; preds = %52
  %55 = invoke i64 @_ZNSt3mapIiNSt7__cxx1112basic_stringIcSt11char_traitsIcESaIcEEESt4lessIiESaISt4pairIKiS5_EEE5eraseERS9_(%"class.std::map"* nonnull align 8 dereferenceable(48) %5, i32* nonnull align 4 dereferenceable(4) %53)
          to label %56 unwind label %61, !llfi_index !69

56:                                               ; preds = %54
  br label %65, !llfi_index !70

57:                                               ; preds = %2
  %58 = landingpad { i8*, i32 }
          cleanup, !llfi_index !71
  %59 = extractvalue { i8*, i32 } %58, 0, !llfi_index !72
  store i8* %59, i8** %8, align 8, !llfi_index !73
  %60 = extractvalue { i8*, i32 } %58, 1, !llfi_index !74
  store i32 %60, i32* %9, align 4, !llfi_index !75
  call void @_ZNSaIcED1Ev(%"class.std::ios_base::Init"* nonnull align 1 dereferenceable(1) %7) #2, !llfi_index !76
  br label %124, !llfi_index !77

61:                                               ; preds = %94, %84, %80, %77, %70, %68, %65, %54, %52, %45, %26
  %62 = landingpad { i8*, i32 }
          cleanup, !llfi_index !78
  %63 = extractvalue { i8*, i32 } %62, 0, !llfi_index !79
  store i8* %63, i8** %8, align 8, !llfi_index !80
  %64 = extractvalue { i8*, i32 } %62, 1, !llfi_index !81
  store i32 %64, i32* %9, align 4, !llfi_index !82
  call void @_ZNSt7__cxx1112basic_stringIcSt11char_traitsIcESaIcEED1Ev(%"class.std::__cxx11::basic_string"* nonnull align 8 dereferenceable(32) %6) #2, !llfi_index !83
  br label %124, !llfi_index !84

65:                                               ; preds = %56, %47
  %66 = load i32, i32* %10, align 4, !llfi_index !85
  %67 = invoke nonnull align 4 dereferenceable(4) i32* @_ZNSt3mapINSt7__cxx1112basic_stringIcSt11char_traitsIcESaIcEEEiSt4lessIS5_ESaISt4pairIKS5_iEEEixERS9_(%"class.std::map"* nonnull align 8 dereferenceable(48) %4, %"class.std::__cxx11::basic_string"* nonnull align 8 dereferenceable(32) %6)
          to label %68 unwind label %61, !llfi_index !86

68:                                               ; preds = %65
  store i32 %66, i32* %67, align 4, !llfi_index !87
  %69 = invoke nonnull align 8 dereferenceable(32) %"class.std::__cxx11::basic_string"* @_ZNSt3mapIiNSt7__cxx1112basic_stringIcSt11char_traitsIcESaIcEEESt4lessIiESaISt4pairIKiS5_EEEixERS9_(%"class.std::map"* nonnull align 8 dereferenceable(48) %5, i32* nonnull align 4 dereferenceable(4) %10)
          to label %70 unwind label %61, !llfi_index !88

70:                                               ; preds = %68
  %71 = invoke nonnull align 8 dereferenceable(32) %"class.std::__cxx11::basic_string"* @_ZNSt7__cxx1112basic_stringIcSt11char_traitsIcESaIcEEaSERKS4_(%"class.std::__cxx11::basic_string"* nonnull align 8 dereferenceable(32) %69, %"class.std::__cxx11::basic_string"* nonnull align 8 dereferenceable(32) %6)
          to label %72 unwind label %61, !llfi_index !89

72:                                               ; preds = %70
  br label %73, !llfi_index !90

73:                                               ; preds = %72, %40
  br label %74, !llfi_index !91

74:                                               ; preds = %73
  %75 = load i32, i32* %11, align 4, !llfi_index !92
  %76 = add nsw i32 %75, 1, !llfi_index !93
  store i32 %76, i32* %11, align 4, !llfi_index !94
  br label %35, !llvm.loop !95, !llfi_index !97

77:                                               ; preds = %35
  %78 = invoke nonnull align 8 dereferenceable(32) %"class.std::__cxx11::basic_string"* @_ZNSt7__cxx1112basic_stringIcSt11char_traitsIcESaIcEEaSEPKc(%"class.std::__cxx11::basic_string"* nonnull align 8 dereferenceable(32) %6, i8* getelementptr inbounds ([1 x i8], [1 x i8]* @.str.1, i64 0, i64 0))
          to label %79 unwind label %61, !llfi_index !98

79:                                               ; preds = %77
  br label %88, !llfi_index !99

80:                                               ; preds = %30
  %81 = load i32, i32* %10, align 4, !llfi_index !100
  %82 = sext i32 %81 to i64, !llfi_index !101
  %83 = invoke nonnull align 1 dereferenceable(1) i8* @_ZNSt7__cxx1112basic_stringIcSt11char_traitsIcESaIcEEixEm(%"class.std::__cxx11::basic_string"* nonnull align 8 dereferenceable(32) %0, i64 %82)
          to label %84 unwind label %61, !llfi_index !102

84:                                               ; preds = %80
  %85 = load i8, i8* %83, align 1, !llfi_index !103
  %86 = invoke nonnull align 8 dereferenceable(32) %"class.std::__cxx11::basic_string"* @_ZNSt7__cxx1112basic_stringIcSt11char_traitsIcESaIcEEpLEc(%"class.std::__cxx11::basic_string"* nonnull align 8 dereferenceable(32) %6, i8 signext %85)
          to label %87 unwind label %61, !llfi_index !104

87:                                               ; preds = %84
  br label %88, !llfi_index !105

88:                                               ; preds = %87, %79
  %89 = call i64 @_ZNKSt3mapINSt7__cxx1112basic_stringIcSt11char_traitsIcESaIcEEEiSt4lessIS5_ESaISt4pairIKS5_iEEE4sizeEv(%"class.std::map"* nonnull align 8 dereferenceable(48) %4) #2, !llfi_index !106
  %90 = trunc i64 %89 to i32, !llfi_index !107
  %91 = sext i32 %90 to i64, !llfi_index !108
  %92 = call i64 @_ZNKSt6vectorINSt7__cxx1112basic_stringIcSt11char_traitsIcESaIcEEESaIS5_EE4sizeEv(%"class.std::vector"* nonnull align 8 dereferenceable(24) %1) #2, !llfi_index !109
  %93 = icmp eq i64 %91, %92, !llfi_index !110
  br i1 %93, label %94, label %114, !llfi_index !111

94:                                               ; preds = %88
  %95 = call %"struct.std::_Rb_tree_node_base"* @_ZNSt3mapIiNSt7__cxx1112basic_stringIcSt11char_traitsIcESaIcEEESt4lessIiESaISt4pairIKiS5_EEE5beginEv(%"class.std::map"* nonnull align 8 dereferenceable(48) %5) #2, !llfi_index !112
  %96 = getelementptr inbounds %"struct.std::_Rb_tree_iterator", %"struct.std::_Rb_tree_iterator"* %15, i32 0, i32 0, !llfi_index !113
  store %"struct.std::_Rb_tree_node_base"* %95, %"struct.std::_Rb_tree_node_base"** %96, align 8, !llfi_index !114
  %97 = call %"struct.std::pair"* @_ZNKSt17_Rb_tree_iteratorISt4pairIKiNSt7__cxx1112basic_stringIcSt11char_traitsIcESaIcEEEEEptEv(%"struct.std::_Rb_tree_iterator"* nonnull align 8 dereferenceable(8) %15) #2, !llfi_index !115
  %98 = getelementptr inbounds %"struct.std::pair", %"struct.std::pair"* %97, i32 0, i32 0, !llfi_index !116
  %99 = load i32, i32* %98, align 8, !llfi_index !117
  store i32 %99, i32* %14, align 4, !llfi_index !118
  %100 = call %"struct.std::_Rb_tree_node_base"* @_ZNSt3mapIiNSt7__cxx1112basic_stringIcSt11char_traitsIcESaIcEEESt4lessIiESaISt4pairIKiS5_EEE5beginEv(%"class.std::map"* nonnull align 8 dereferenceable(48) %5) #2, !llfi_index !119
  %101 = getelementptr inbounds %"struct.std::_Rb_tree_iterator", %"struct.std::_Rb_tree_iterator"* %17, i32 0, i32 0, !llfi_index !120
  store %"struct.std::_Rb_tree_node_base"* %100, %"struct.std::_Rb_tree_node_base"** %101, align 8, !llfi_index !121
  %102 = call %"struct.std::pair"* @_ZNKSt17_Rb_tree_iteratorISt4pairIKiNSt7__cxx1112basic_stringIcSt11char_traitsIcESaIcEEEEEptEv(%"struct.std::_Rb_tree_iterator"* nonnull align 8 dereferenceable(8) %17) #2, !llfi_index !122
  %103 = getelementptr inbounds %"struct.std::pair", %"struct.std::pair"* %102, i32 0, i32 1, !llfi_index !123
  %104 = call i64 @_ZNKSt7__cxx1112basic_stringIcSt11char_traitsIcESaIcEE4sizeEv(%"class.std::__cxx11::basic_string"* nonnull align 8 dereferenceable(32) %103) #2, !llfi_index !124
  %105 = trunc i64 %104 to i32, !llfi_index !125
  store i32 %105, i32* %16, align 4, !llfi_index !126
  %106 = load i32, i32* %10, align 4, !llfi_index !127
  %107 = load i32, i32* %14, align 4, !llfi_index !128
  %108 = sub nsw i32 %106, %107, !llfi_index !129
  %109 = load i32, i32* %16, align 4, !llfi_index !130
  %110 = add nsw i32 %108, %109, !llfi_index !131
  store i32 %110, i32* %18, align 4, !llfi_index !132
  %111 = invoke nonnull align 4 dereferenceable(4) i32* @_ZSt3minIiERKT_S2_S2_(i32* nonnull align 4 dereferenceable(4) %3, i32* nonnull align 4 dereferenceable(4) %18)
          to label %112 unwind label %61, !llfi_index !133

112:                                              ; preds = %94
  %113 = load i32, i32* %111, align 4, !llfi_index !134
  store i32 %113, i32* %3, align 4, !llfi_index !135
  br label %114, !llfi_index !136

114:                                              ; preds = %112, %88
  br label %115, !llfi_index !137

115:                                              ; preds = %114
  %116 = load i32, i32* %10, align 4, !llfi_index !138
  %117 = add nsw i32 %116, 1, !llfi_index !139
  store i32 %117, i32* %10, align 4, !llfi_index !140
  br label %21, !llvm.loop !141, !llfi_index !142

118:                                              ; preds = %21
  %119 = load i32, i32* %3, align 4, !llfi_index !143
  %120 = icmp eq i32 %119, 1000000000, !llfi_index !144
  br i1 %120, label %121, label %122, !llfi_index !145

121:                                              ; preds = %118
  store i32 -1, i32* %3, align 4, !llfi_index !146
  br label %122, !llfi_index !147

122:                                              ; preds = %121, %118
  %123 = load i32, i32* %3, align 4, !llfi_index !148
  call void @_ZNSt7__cxx1112basic_stringIcSt11char_traitsIcESaIcEED1Ev(%"class.std::__cxx11::basic_string"* nonnull align 8 dereferenceable(32) %6) #2, !llfi_index !149
  call void @_ZNSt3mapIiNSt7__cxx1112basic_stringIcSt11char_traitsIcESaIcEEESt4lessIiESaISt4pairIKiS5_EEED2Ev(%"class.std::map"* nonnull align 8 dereferenceable(48) %5) #2, !llfi_index !150
  call void @_ZNSt3mapINSt7__cxx1112basic_stringIcSt11char_traitsIcESaIcEEEiSt4lessIS5_ESaISt4pairIKS5_iEEED2Ev(%"class.std::map"* nonnull align 8 dereferenceable(48) %4) #2, !llfi_index !151
  ret i32 %123, !llfi_index !152

124:                                              ; preds = %61, %57
  call void @_ZNSt3mapIiNSt7__cxx1112basic_stringIcSt11char_traitsIcESaIcEEESt4lessIiESaISt4pairIKiS5_EEED2Ev(%"class.std::map"* nonnull align 8 dereferenceable(48) %5) #2, !llfi_index !153
  call void @_ZNSt3mapINSt7__cxx1112basic_stringIcSt11char_traitsIcESaIcEEEiSt4lessIS5_ESaISt4pairIKS5_iEEED2Ev(%"class.std::map"* nonnull align 8 dereferenceable(48) %4) #2, !llfi_index !154
  br label %125, !llfi_index !155

125:                                              ; preds = %124
  %126 = load i8*, i8** %8, align 8, !llfi_index !156
  %127 = load i32, i32* %9, align 4, !llfi_index !157
  %128 = insertvalue { i8*, i32 } undef, i8* %126, 0, !llfi_index !158
  %129 = insertvalue { i8*, i32 } %128, i32 %127, 1, !llfi_index !159
  resume { i8*, i32 } %129, !llfi_index !160
}

declare dso_local i32 @__gxx_personality_v0(...)

declare dso_local nonnull align 8 dereferenceable(32) %"class.std::__cxx11::basic_string"* @_ZNSt7__cxx1112basic_stringIcSt11char_traitsIcESaIcEEpLEPKc(%"class.std::__cxx11::basic_string"* nonnull align 8 dereferenceable(32), i8*) #1

; Function Attrs: noinline nounwind uwtable
define linkonce_odr dso_local void @_ZNSt3mapINSt7__cxx1112basic_stringIcSt11char_traitsIcESaIcEEEiSt4lessIS5_ESaISt4pairIKS5_iEEEC2Ev(%"class.std::map"* nonnull align 8 dereferenceable(48) %0) unnamed_addr #5 comdat align 2 {
  %2 = alloca %"class.std::map"*, align 8, !llfi_index !161
  store %"class.std::map"* %0, %"class.std::map"** %2, align 8, !llfi_index !162
  %3 = load %"class.std::map"*, %"class.std::map"** %2, align 8, !llfi_index !163
  %4 = getelementptr inbounds %"class.std::map", %"class.std::map"* %3, i32 0, i32 0, !llfi_index !164
  call void @_ZNSt8_Rb_treeINSt7__cxx1112basic_stringIcSt11char_traitsIcESaIcEEESt4pairIKS5_iESt10_Select1stIS8_ESt4lessIS5_ESaIS8_EEC2Ev(%"class.std::_Rb_tree"* nonnull align 8 dereferenceable(48) %4) #2, !llfi_index !165
  ret void, !llfi_index !166
}

; Function Attrs: noinline nounwind uwtable
define linkonce_odr dso_local void @_ZNSt3mapIiNSt7__cxx1112basic_stringIcSt11char_traitsIcESaIcEEESt4lessIiESaISt4pairIKiS5_EEEC2Ev(%"class.std::map"* nonnull align 8 dereferenceable(48) %0) unnamed_addr #5 comdat align 2 {
  %2 = alloca %"class.std::map"*, align 8, !llfi_index !167
  store %"class.std::map"* %0, %"class.std::map"** %2, align 8, !llfi_index !168
  %3 = load %"class.std::map"*, %"class.std::map"** %2, align 8, !llfi_index !169
  %4 = getelementptr inbounds %"class.std::map", %"class.std::map"* %3, i32 0, i32 0, !llfi_index !170
  call void @_ZNSt8_Rb_treeIiSt4pairIKiNSt7__cxx1112basic_stringIcSt11char_traitsIcESaIcEEEESt10_Select1stIS8_ESt4lessIiESaIS8_EEC2Ev(%"class.std::_Rb_tree"* nonnull align 8 dereferenceable(48) %4) #2, !llfi_index !171
  ret void, !llfi_index !172
}

; Function Attrs: nounwind
declare dso_local void @_ZNSaIcEC1Ev(%"class.std::ios_base::Init"* nonnull align 1 dereferenceable(1)) unnamed_addr #3

declare dso_local void @_ZNSt7__cxx1112basic_stringIcSt11char_traitsIcESaIcEEC1EPKcRKS3_(%"class.std::__cxx11::basic_string"* nonnull align 8 dereferenceable(32), i8*, %"class.std::ios_base::Init"* nonnull align 1 dereferenceable(1)) unnamed_addr #1

; Function Attrs: nounwind
declare dso_local void @_ZNSaIcED1Ev(%"class.std::ios_base::Init"* nonnull align 1 dereferenceable(1)) unnamed_addr #3

; Function Attrs: nounwind
declare dso_local i64 @_ZNKSt7__cxx1112basic_stringIcSt11char_traitsIcESaIcEE4sizeEv(%"class.std::__cxx11::basic_string"* nonnull align 8 dereferenceable(32)) #3

declare dso_local nonnull align 1 dereferenceable(1) i8* @_ZNSt7__cxx1112basic_stringIcSt11char_traitsIcESaIcEEixEm(%"class.std::__cxx11::basic_string"* nonnull align 8 dereferenceable(32), i64) #1

; Function Attrs: mustprogress noinline nounwind uwtable
define linkonce_odr dso_local i64 @_ZNKSt6vectorINSt7__cxx1112basic_stringIcSt11char_traitsIcESaIcEEESaIS5_EE4sizeEv(%"class.std::vector"* nonnull align 8 dereferenceable(24) %0) #6 comdat align 2 {
  %2 = alloca %"class.std::vector"*, align 8, !llfi_index !173
  store %"class.std::vector"* %0, %"class.std::vector"** %2, align 8, !llfi_index !174
  %3 = load %"class.std::vector"*, %"class.std::vector"** %2, align 8, !llfi_index !175
  %4 = bitcast %"class.std::vector"* %3 to %"struct.std::_Vector_base"*, !llfi_index !176
  %5 = getelementptr inbounds %"struct.std::_Vector_base", %"struct.std::_Vector_base"* %4, i32 0, i32 0, !llfi_index !177
  %6 = bitcast %"struct.std::_Vector_base<std::__cxx11::basic_string<char>, std::allocator<std::__cxx11::basic_string<char>>>::_Vector_impl"* %5 to %"struct.std::_Vector_base<std::__cxx11::basic_string<char>, std::allocator<std::__cxx11::basic_string<char>>>::_Vector_impl_data"*, !llfi_index !178
  %7 = getelementptr inbounds %"struct.std::_Vector_base<std::__cxx11::basic_string<char>, std::allocator<std::__cxx11::basic_string<char>>>::_Vector_impl_data", %"struct.std::_Vector_base<std::__cxx11::basic_string<char>, std::allocator<std::__cxx11::basic_string<char>>>::_Vector_impl_data"* %6, i32 0, i32 1, !llfi_index !179
  %8 = load %"class.std::__cxx11::basic_string"*, %"class.std::__cxx11::basic_string"** %7, align 8, !llfi_index !180
  %9 = bitcast %"class.std::vector"* %3 to %"struct.std::_Vector_base"*, !llfi_index !181
  %10 = getelementptr inbounds %"struct.std::_Vector_base", %"struct.std::_Vector_base"* %9, i32 0, i32 0, !llfi_index !182
  %11 = bitcast %"struct.std::_Vector_base<std::__cxx11::basic_string<char>, std::allocator<std::__cxx11::basic_string<char>>>::_Vector_impl"* %10 to %"struct.std::_Vector_base<std::__cxx11::basic_string<char>, std::allocator<std::__cxx11::basic_string<char>>>::_Vector_impl_data"*, !llfi_index !183
  %12 = getelementptr inbounds %"struct.std::_Vector_base<std::__cxx11::basic_string<char>, std::allocator<std::__cxx11::basic_string<char>>>::_Vector_impl_data", %"struct.std::_Vector_base<std::__cxx11::basic_string<char>, std::allocator<std::__cxx11::basic_string<char>>>::_Vector_impl_data"* %11, i32 0, i32 0, !llfi_index !184
  %13 = load %"class.std::__cxx11::basic_string"*, %"class.std::__cxx11::basic_string"** %12, align 8, !llfi_index !185
  %14 = ptrtoint %"class.std::__cxx11::basic_string"* %8 to i64, !llfi_index !186
  %15 = ptrtoint %"class.std::__cxx11::basic_string"* %13 to i64, !llfi_index !187
  %16 = sub i64 %14, %15, !llfi_index !188
  %17 = sdiv exact i64 %16, 32, !llfi_index !189
  ret i64 %17, !llfi_index !190
}

; Function Attrs: mustprogress noinline nounwind uwtable
define linkonce_odr dso_local nonnull align 8 dereferenceable(32) %"class.std::__cxx11::basic_string"* @_ZNSt6vectorINSt7__cxx1112basic_stringIcSt11char_traitsIcESaIcEEESaIS5_EEixEm(%"class.std::vector"* nonnull align 8 dereferenceable(24) %0, i64 %1) #6 comdat align 2 {
  %3 = alloca %"class.std::vector"*, align 8, !llfi_index !191
  %4 = alloca i64, align 8, !llfi_index !192
  store %"class.std::vector"* %0, %"class.std::vector"** %3, align 8, !llfi_index !193
  store i64 %1, i64* %4, align 8, !llfi_index !194
  %5 = load %"class.std::vector"*, %"class.std::vector"** %3, align 8, !llfi_index !195
  %6 = bitcast %"class.std::vector"* %5 to %"struct.std::_Vector_base"*, !llfi_index !196
  %7 = getelementptr inbounds %"struct.std::_Vector_base", %"struct.std::_Vector_base"* %6, i32 0, i32 0, !llfi_index !197
  %8 = bitcast %"struct.std::_Vector_base<std::__cxx11::basic_string<char>, std::allocator<std::__cxx11::basic_string<char>>>::_Vector_impl"* %7 to %"struct.std::_Vector_base<std::__cxx11::basic_string<char>, std::allocator<std::__cxx11::basic_string<char>>>::_Vector_impl_data"*, !llfi_index !198
  %9 = getelementptr inbounds %"struct.std::_Vector_base<std::__cxx11::basic_string<char>, std::allocator<std::__cxx11::basic_string<char>>>::_Vector_impl_data", %"struct.std::_Vector_base<std::__cxx11::basic_string<char>, std::allocator<std::__cxx11::basic_string<char>>>::_Vector_impl_data"* %8, i32 0, i32 0, !llfi_index !199
  %10 = load %"class.std::__cxx11::basic_string"*, %"class.std::__cxx11::basic_string"** %9, align 8, !llfi_index !200
  %11 = load i64, i64* %4, align 8, !llfi_index !201
  %12 = getelementptr inbounds %"class.std::__cxx11::basic_string", %"class.std::__cxx11::basic_string"* %10, i64 %11, !llfi_index !202
  ret %"class.std::__cxx11::basic_string"* %12, !llfi_index !203
}

; Function Attrs: mustprogress noinline nounwind uwtable
define linkonce_odr dso_local zeroext i1 @_ZSteqIcEN9__gnu_cxx11__enable_ifIXsr9__is_charIT_EE7__valueEbE6__typeERKNSt7__cxx1112basic_stringIS2_St11char_traitsIS2_ESaIS2_EEESC_(%"class.std::__cxx11::basic_string"* nonnull align 8 dereferenceable(32) %0, %"class.std::__cxx11::basic_string"* nonnull align 8 dereferenceable(32) %1) #6 comdat personality i8* bitcast (i32 (...)* @__gxx_personality_v0 to i8*) {
  %3 = alloca %"class.std::__cxx11::basic_string"*, align 8, !llfi_index !204
  %4 = alloca %"class.std::__cxx11::basic_string"*, align 8, !llfi_index !205
  store %"class.std::__cxx11::basic_string"* %0, %"class.std::__cxx11::basic_string"** %3, align 8, !llfi_index !206
  store %"class.std::__cxx11::basic_string"* %1, %"class.std::__cxx11::basic_string"** %4, align 8, !llfi_index !207
  %5 = load %"class.std::__cxx11::basic_string"*, %"class.std::__cxx11::basic_string"** %3, align 8, !llfi_index !208
  %6 = call i64 @_ZNKSt7__cxx1112basic_stringIcSt11char_traitsIcESaIcEE4sizeEv(%"class.std::__cxx11::basic_string"* nonnull align 8 dereferenceable(32) %5) #2, !llfi_index !209
  %7 = load %"class.std::__cxx11::basic_string"*, %"class.std::__cxx11::basic_string"** %4, align 8, !llfi_index !210
  %8 = call i64 @_ZNKSt7__cxx1112basic_stringIcSt11char_traitsIcESaIcEE4sizeEv(%"class.std::__cxx11::basic_string"* nonnull align 8 dereferenceable(32) %7) #2, !llfi_index !211
  %9 = icmp eq i64 %6, %8, !llfi_index !212
  br i1 %9, label %10, label %21, !llfi_index !213

10:                                               ; preds = %2
  %11 = load %"class.std::__cxx11::basic_string"*, %"class.std::__cxx11::basic_string"** %3, align 8, !llfi_index !214
  %12 = call i8* @_ZNKSt7__cxx1112basic_stringIcSt11char_traitsIcESaIcEE4dataEv(%"class.std::__cxx11::basic_string"* nonnull align 8 dereferenceable(32) %11) #2, !llfi_index !215
  %13 = load %"class.std::__cxx11::basic_string"*, %"class.std::__cxx11::basic_string"** %4, align 8, !llfi_index !216
  %14 = call i8* @_ZNKSt7__cxx1112basic_stringIcSt11char_traitsIcESaIcEE4dataEv(%"class.std::__cxx11::basic_string"* nonnull align 8 dereferenceable(32) %13) #2, !llfi_index !217
  %15 = load %"class.std::__cxx11::basic_string"*, %"class.std::__cxx11::basic_string"** %3, align 8, !llfi_index !218
  %16 = call i64 @_ZNKSt7__cxx1112basic_stringIcSt11char_traitsIcESaIcEE4sizeEv(%"class.std::__cxx11::basic_string"* nonnull align 8 dereferenceable(32) %15) #2, !llfi_index !219
  %17 = invoke i32 @_ZNSt11char_traitsIcE7compareEPKcS2_m(i8* %12, i8* %14, i64 %16)
          to label %18 unwind label %23, !llfi_index !220

18:                                               ; preds = %10
  %19 = icmp ne i32 %17, 0, !llfi_index !221
  %20 = xor i1 %19, true, !llfi_index !222
  br label %21, !llfi_index !223

21:                                               ; preds = %18, %2
  %22 = phi i1 [ false, %2 ], [ %20, %18 ], !llfi_index !224
  ret i1 %22, !llfi_index !225

23:                                               ; preds = %10
  %24 = landingpad { i8*, i32 }
          catch i8* null, !llfi_index !226
  %25 = extractvalue { i8*, i32 } %24, 0, !llfi_index !227
  call void @__clang_call_terminate(i8* %25) #15, !llfi_index !228
  unreachable, !llfi_index !229
}

; Function Attrs: mustprogress noinline uwtable
define linkonce_odr dso_local %"struct.std::_Rb_tree_node_base"* @_ZNSt3mapINSt7__cxx1112basic_stringIcSt11char_traitsIcESaIcEEEiSt4lessIS5_ESaISt4pairIKS5_iEEE4findERS9_(%"class.std::map"* nonnull align 8 dereferenceable(48) %0, %"class.std::__cxx11::basic_string"* nonnull align 8 dereferenceable(32) %1) #4 comdat align 2 {
  %3 = alloca %"struct.std::_Rb_tree_iterator", align 8, !llfi_index !230
  %4 = alloca %"class.std::map"*, align 8, !llfi_index !231
  %5 = alloca %"class.std::__cxx11::basic_string"*, align 8, !llfi_index !232
  store %"class.std::map"* %0, %"class.std::map"** %4, align 8, !llfi_index !233
  store %"class.std::__cxx11::basic_string"* %1, %"class.std::__cxx11::basic_string"** %5, align 8, !llfi_index !234
  %6 = load %"class.std::map"*, %"class.std::map"** %4, align 8, !llfi_index !235
  %7 = getelementptr inbounds %"class.std::map", %"class.std::map"* %6, i32 0, i32 0, !llfi_index !236
  %8 = load %"class.std::__cxx11::basic_string"*, %"class.std::__cxx11::basic_string"** %5, align 8, !llfi_index !237
  %9 = call %"struct.std::_Rb_tree_node_base"* @_ZNSt8_Rb_treeINSt7__cxx1112basic_stringIcSt11char_traitsIcESaIcEEESt4pairIKS5_iESt10_Select1stIS8_ESt4lessIS5_ESaIS8_EE4findERS7_(%"class.std::_Rb_tree"* nonnull align 8 dereferenceable(48) %7, %"class.std::__cxx11::basic_string"* nonnull align 8 dereferenceable(32) %8), !llfi_index !238
  %10 = getelementptr inbounds %"struct.std::_Rb_tree_iterator", %"struct.std::_Rb_tree_iterator"* %3, i32 0, i32 0, !llfi_index !239
  store %"struct.std::_Rb_tree_node_base"* %9, %"struct.std::_Rb_tree_node_base"** %10, align 8, !llfi_index !240
  %11 = getelementptr inbounds %"struct.std::_Rb_tree_iterator", %"struct.std::_Rb_tree_iterator"* %3, i32 0, i32 0, !llfi_index !241
  %12 = load %"struct.std::_Rb_tree_node_base"*, %"struct.std::_Rb_tree_node_base"** %11, align 8, !llfi_index !242
  ret %"struct.std::_Rb_tree_node_base"* %12, !llfi_index !243
}

; Function Attrs: mustprogress noinline nounwind uwtable
define linkonce_odr dso_local %"struct.std::_Rb_tree_node_base"* @_ZNSt3mapINSt7__cxx1112basic_stringIcSt11char_traitsIcESaIcEEEiSt4lessIS5_ESaISt4pairIKS5_iEEE3endEv(%"class.std::map"* nonnull align 8 dereferenceable(48) %0) #6 comdat align 2 {
  %2 = alloca %"struct.std::_Rb_tree_iterator", align 8, !llfi_index !244
  %3 = alloca %"class.std::map"*, align 8, !llfi_index !245
  store %"class.std::map"* %0, %"class.std::map"** %3, align 8, !llfi_index !246
  %4 = load %"class.std::map"*, %"class.std::map"** %3, align 8, !llfi_index !247
  %5 = getelementptr inbounds %"class.std::map", %"class.std::map"* %4, i32 0, i32 0, !llfi_index !248
  %6 = call %"struct.std::_Rb_tree_node_base"* @_ZNSt8_Rb_treeINSt7__cxx1112basic_stringIcSt11char_traitsIcESaIcEEESt4pairIKS5_iESt10_Select1stIS8_ESt4lessIS5_ESaIS8_EE3endEv(%"class.std::_Rb_tree"* nonnull align 8 dereferenceable(48) %5) #2, !llfi_index !249
  %7 = getelementptr inbounds %"struct.std::_Rb_tree_iterator", %"struct.std::_Rb_tree_iterator"* %2, i32 0, i32 0, !llfi_index !250
  store %"struct.std::_Rb_tree_node_base"* %6, %"struct.std::_Rb_tree_node_base"** %7, align 8, !llfi_index !251
  %8 = getelementptr inbounds %"struct.std::_Rb_tree_iterator", %"struct.std::_Rb_tree_iterator"* %2, i32 0, i32 0, !llfi_index !252
  %9 = load %"struct.std::_Rb_tree_node_base"*, %"struct.std::_Rb_tree_node_base"** %8, align 8, !llfi_index !253
  ret %"struct.std::_Rb_tree_node_base"* %9, !llfi_index !254
}

; Function Attrs: mustprogress noinline nounwind uwtable
define linkonce_odr dso_local zeroext i1 @_ZStneRKSt17_Rb_tree_iteratorISt4pairIKNSt7__cxx1112basic_stringIcSt11char_traitsIcESaIcEEEiEESB_(%"struct.std::_Rb_tree_iterator"* nonnull align 8 dereferenceable(8) %0, %"struct.std::_Rb_tree_iterator"* nonnull align 8 dereferenceable(8) %1) #6 comdat {
  %3 = alloca %"struct.std::_Rb_tree_iterator"*, align 8, !llfi_index !255
  %4 = alloca %"struct.std::_Rb_tree_iterator"*, align 8, !llfi_index !256
  store %"struct.std::_Rb_tree_iterator"* %0, %"struct.std::_Rb_tree_iterator"** %3, align 8, !llfi_index !257
  store %"struct.std::_Rb_tree_iterator"* %1, %"struct.std::_Rb_tree_iterator"** %4, align 8, !llfi_index !258
  %5 = load %"struct.std::_Rb_tree_iterator"*, %"struct.std::_Rb_tree_iterator"** %3, align 8, !llfi_index !259
  %6 = getelementptr inbounds %"struct.std::_Rb_tree_iterator", %"struct.std::_Rb_tree_iterator"* %5, i32 0, i32 0, !llfi_index !260
  %7 = load %"struct.std::_Rb_tree_node_base"*, %"struct.std::_Rb_tree_node_base"** %6, align 8, !llfi_index !261
  %8 = load %"struct.std::_Rb_tree_iterator"*, %"struct.std::_Rb_tree_iterator"** %4, align 8, !llfi_index !262
  %9 = getelementptr inbounds %"struct.std::_Rb_tree_iterator", %"struct.std::_Rb_tree_iterator"* %8, i32 0, i32 0, !llfi_index !263
  %10 = load %"struct.std::_Rb_tree_node_base"*, %"struct.std::_Rb_tree_node_base"** %9, align 8, !llfi_index !264
  %11 = icmp ne %"struct.std::_Rb_tree_node_base"* %7, %10, !llfi_index !265
  ret i1 %11, !llfi_index !266
}

; Function Attrs: mustprogress noinline uwtable
define linkonce_odr dso_local nonnull align 4 dereferenceable(4) i32* @_ZNSt3mapINSt7__cxx1112basic_stringIcSt11char_traitsIcESaIcEEEiSt4lessIS5_ESaISt4pairIKS5_iEEEixERS9_(%"class.std::map"* nonnull align 8 dereferenceable(48) %0, %"class.std::__cxx11::basic_string"* nonnull align 8 dereferenceable(32) %1) #4 comdat align 2 {
  %3 = alloca %"class.std::map"*, align 8, !llfi_index !267
  %4 = alloca %"class.std::__cxx11::basic_string"*, align 8, !llfi_index !268
  %5 = alloca %"struct.std::_Rb_tree_iterator", align 8, !llfi_index !269
  %6 = alloca %"struct.std::_Rb_tree_iterator", align 8, !llfi_index !270
  %7 = alloca %"class.std::ios_base::Init", align 1, !llfi_index !271
  %8 = alloca %"class.std::ios_base::Init", align 1, !llfi_index !272
  %9 = alloca %"struct.std::_Rb_tree_iterator", align 8, !llfi_index !273
  %10 = alloca %"struct.std::_Rb_tree_iterator", align 8, !llfi_index !274
  %11 = alloca %"class.std::tuple", align 8, !llfi_index !275
  %12 = alloca %"class.std::ios_base::Init", align 1, !llfi_index !276
  store %"class.std::map"* %0, %"class.std::map"** %3, align 8, !llfi_index !277
  store %"class.std::__cxx11::basic_string"* %1, %"class.std::__cxx11::basic_string"** %4, align 8, !llfi_index !278
  %13 = load %"class.std::map"*, %"class.std::map"** %3, align 8, !llfi_index !279
  %14 = load %"class.std::__cxx11::basic_string"*, %"class.std::__cxx11::basic_string"** %4, align 8, !llfi_index !280
  %15 = call %"struct.std::_Rb_tree_node_base"* @_ZNSt3mapINSt7__cxx1112basic_stringIcSt11char_traitsIcESaIcEEEiSt4lessIS5_ESaISt4pairIKS5_iEEE11lower_boundERS9_(%"class.std::map"* nonnull align 8 dereferenceable(48) %13, %"class.std::__cxx11::basic_string"* nonnull align 8 dereferenceable(32) %14), !llfi_index !281
  %16 = getelementptr inbounds %"struct.std::_Rb_tree_iterator", %"struct.std::_Rb_tree_iterator"* %5, i32 0, i32 0, !llfi_index !282
  store %"struct.std::_Rb_tree_node_base"* %15, %"struct.std::_Rb_tree_node_base"** %16, align 8, !llfi_index !283
  %17 = call %"struct.std::_Rb_tree_node_base"* @_ZNSt3mapINSt7__cxx1112basic_stringIcSt11char_traitsIcESaIcEEEiSt4lessIS5_ESaISt4pairIKS5_iEEE3endEv(%"class.std::map"* nonnull align 8 dereferenceable(48) %13) #2, !llfi_index !284
  %18 = getelementptr inbounds %"struct.std::_Rb_tree_iterator", %"struct.std::_Rb_tree_iterator"* %6, i32 0, i32 0, !llfi_index !285
  store %"struct.std::_Rb_tree_node_base"* %17, %"struct.std::_Rb_tree_node_base"** %18, align 8, !llfi_index !286
  %19 = call zeroext i1 @_ZSteqRKSt17_Rb_tree_iteratorISt4pairIKNSt7__cxx1112basic_stringIcSt11char_traitsIcESaIcEEEiEESB_(%"struct.std::_Rb_tree_iterator"* nonnull align 8 dereferenceable(8) %5, %"struct.std::_Rb_tree_iterator"* nonnull align 8 dereferenceable(8) %6) #2, !llfi_index !287
  br i1 %19, label %25, label %20, !llfi_index !288

20:                                               ; preds = %2
  call void @_ZNKSt3mapINSt7__cxx1112basic_stringIcSt11char_traitsIcESaIcEEEiSt4lessIS5_ESaISt4pairIKS5_iEEE8key_compEv(%"class.std::map"* nonnull align 8 dereferenceable(48) %13), !llfi_index !289
  %21 = load %"class.std::__cxx11::basic_string"*, %"class.std::__cxx11::basic_string"** %4, align 8, !llfi_index !290
  %22 = call nonnull align 8 dereferenceable(36) %"struct.std::pair.17"* @_ZNKSt17_Rb_tree_iteratorISt4pairIKNSt7__cxx1112basic_stringIcSt11char_traitsIcESaIcEEEiEEdeEv(%"struct.std::_Rb_tree_iterator"* nonnull align 8 dereferenceable(8) %5) #2, !llfi_index !291
  %23 = getelementptr inbounds %"struct.std::pair.17", %"struct.std::pair.17"* %22, i32 0, i32 0, !llfi_index !292
  %24 = call zeroext i1 @_ZNKSt4lessINSt7__cxx1112basic_stringIcSt11char_traitsIcESaIcEEEEclERKS5_S8_(%"class.std::ios_base::Init"* nonnull align 1 dereferenceable(1) %7, %"class.std::__cxx11::basic_string"* nonnull align 8 dereferenceable(32) %21, %"class.std::__cxx11::basic_string"* nonnull align 8 dereferenceable(32) %23), !llfi_index !293
  br label %25, !llfi_index !294

25:                                               ; preds = %20, %2
  %26 = phi i1 [ true, %2 ], [ %24, %20 ], !llfi_index !295
  br i1 %26, label %27, label %36, !llfi_index !296

27:                                               ; preds = %25
  %28 = getelementptr inbounds %"class.std::map", %"class.std::map"* %13, i32 0, i32 0, !llfi_index !297
  call void @_ZNSt23_Rb_tree_const_iteratorISt4pairIKNSt7__cxx1112basic_stringIcSt11char_traitsIcESaIcEEEiEEC2ERKSt17_Rb_tree_iteratorIS8_E(%"struct.std::_Rb_tree_iterator"* nonnull align 8 dereferenceable(8) %10, %"struct.std::_Rb_tree_iterator"* nonnull align 8 dereferenceable(8) %5) #2, !llfi_index !298
  %29 = load %"class.std::__cxx11::basic_string"*, %"class.std::__cxx11::basic_string"** %4, align 8, !llfi_index !299
  call void @_ZNSt5tupleIJRKNSt7__cxx1112basic_stringIcSt11char_traitsIcESaIcEEEEEC2IvLb1EEES7_(%"class.std::tuple"* nonnull align 8 dereferenceable(8) %11, %"class.std::__cxx11::basic_string"* nonnull align 8 dereferenceable(32) %29), !llfi_index !300
  %30 = getelementptr inbounds %"struct.std::_Rb_tree_iterator", %"struct.std::_Rb_tree_iterator"* %10, i32 0, i32 0, !llfi_index !301
  %31 = load %"struct.std::_Rb_tree_node_base"*, %"struct.std::_Rb_tree_node_base"** %30, align 8, !llfi_index !302
  %32 = call %"struct.std::_Rb_tree_node_base"* @_ZNSt8_Rb_treeINSt7__cxx1112basic_stringIcSt11char_traitsIcESaIcEEESt4pairIKS5_iESt10_Select1stIS8_ESt4lessIS5_ESaIS8_EE22_M_emplace_hint_uniqueIJRKSt21piecewise_construct_tSt5tupleIJRS7_EESJ_IJEEEEESt17_Rb_tree_iteratorIS8_ESt23_Rb_tree_const_iteratorIS8_EDpOT_(%"class.std::_Rb_tree"* nonnull align 8 dereferenceable(48) %28, %"struct.std::_Rb_tree_node_base"* %31, %"class.std::ios_base::Init"* nonnull align 1 dereferenceable(1) @_ZStL19piecewise_construct, %"class.std::tuple"* nonnull align 8 dereferenceable(8) %11, %"class.std::ios_base::Init"* nonnull align 1 dereferenceable(1) %12), !llfi_index !303
  %33 = getelementptr inbounds %"struct.std::_Rb_tree_iterator", %"struct.std::_Rb_tree_iterator"* %9, i32 0, i32 0, !llfi_index !304
  store %"struct.std::_Rb_tree_node_base"* %32, %"struct.std::_Rb_tree_node_base"** %33, align 8, !llfi_index !305
  %34 = bitcast %"struct.std::_Rb_tree_iterator"* %5 to i8*, !llfi_index !306
  %35 = bitcast %"struct.std::_Rb_tree_iterator"* %9 to i8*, !llfi_index !307
  call void @llvm.memcpy.p0i8.p0i8.i64(i8* align 8 %34, i8* align 8 %35, i64 8, i1 false), !llfi_index !308
  br label %36, !llfi_index !309

36:                                               ; preds = %27, %25
  %37 = call nonnull align 8 dereferenceable(36) %"struct.std::pair.17"* @_ZNKSt17_Rb_tree_iteratorISt4pairIKNSt7__cxx1112basic_stringIcSt11char_traitsIcESaIcEEEiEEdeEv(%"struct.std::_Rb_tree_iterator"* nonnull align 8 dereferenceable(8) %5) #2, !llfi_index !310
  %38 = getelementptr inbounds %"struct.std::pair.17", %"struct.std::pair.17"* %37, i32 0, i32 1, !llfi_index !311
  ret i32* %38, !llfi_index !312
}

; Function Attrs: mustprogress noinline uwtable
define linkonce_odr dso_local i64 @_ZNSt3mapIiNSt7__cxx1112basic_stringIcSt11char_traitsIcESaIcEEESt4lessIiESaISt4pairIKiS5_EEE5eraseERS9_(%"class.std::map"* nonnull align 8 dereferenceable(48) %0, i32* nonnull align 4 dereferenceable(4) %1) #4 comdat align 2 {
  %3 = alloca %"class.std::map"*, align 8, !llfi_index !313
  %4 = alloca i32*, align 8, !llfi_index !314
  store %"class.std::map"* %0, %"class.std::map"** %3, align 8, !llfi_index !315
  store i32* %1, i32** %4, align 8, !llfi_index !316
  %5 = load %"class.std::map"*, %"class.std::map"** %3, align 8, !llfi_index !317
  %6 = getelementptr inbounds %"class.std::map", %"class.std::map"* %5, i32 0, i32 0, !llfi_index !318
  %7 = load i32*, i32** %4, align 8, !llfi_index !319
  %8 = call i64 @_ZNSt8_Rb_treeIiSt4pairIKiNSt7__cxx1112basic_stringIcSt11char_traitsIcESaIcEEEESt10_Select1stIS8_ESt4lessIiESaIS8_EE5eraseERS1_(%"class.std::_Rb_tree"* nonnull align 8 dereferenceable(48) %6, i32* nonnull align 4 dereferenceable(4) %7), !llfi_index !320
  ret i64 %8, !llfi_index !321
}

; Function Attrs: nounwind
declare dso_local void @_ZNSt7__cxx1112basic_stringIcSt11char_traitsIcESaIcEED1Ev(%"class.std::__cxx11::basic_string"* nonnull align 8 dereferenceable(32)) unnamed_addr #3

; Function Attrs: mustprogress noinline uwtable
define linkonce_odr dso_local nonnull align 8 dereferenceable(32) %"class.std::__cxx11::basic_string"* @_ZNSt3mapIiNSt7__cxx1112basic_stringIcSt11char_traitsIcESaIcEEESt4lessIiESaISt4pairIKiS5_EEEixERS9_(%"class.std::map"* nonnull align 8 dereferenceable(48) %0, i32* nonnull align 4 dereferenceable(4) %1) #4 comdat align 2 {
  %3 = alloca %"class.std::map"*, align 8, !llfi_index !322
  %4 = alloca i32*, align 8, !llfi_index !323
  %5 = alloca %"struct.std::_Rb_tree_iterator", align 8, !llfi_index !324
  %6 = alloca %"struct.std::_Rb_tree_iterator", align 8, !llfi_index !325
  %7 = alloca %"class.std::ios_base::Init", align 1, !llfi_index !326
  %8 = alloca %"class.std::ios_base::Init", align 1, !llfi_index !327
  %9 = alloca %"struct.std::_Rb_tree_iterator", align 8, !llfi_index !328
  %10 = alloca %"struct.std::_Rb_tree_iterator", align 8, !llfi_index !329
  %11 = alloca %"class.std::tuple.31", align 8, !llfi_index !330
  %12 = alloca %"class.std::ios_base::Init", align 1, !llfi_index !331
  store %"class.std::map"* %0, %"class.std::map"** %3, align 8, !llfi_index !332
  store i32* %1, i32** %4, align 8, !llfi_index !333
  %13 = load %"class.std::map"*, %"class.std::map"** %3, align 8, !llfi_index !334
  %14 = load i32*, i32** %4, align 8, !llfi_index !335
  %15 = call %"struct.std::_Rb_tree_node_base"* @_ZNSt3mapIiNSt7__cxx1112basic_stringIcSt11char_traitsIcESaIcEEESt4lessIiESaISt4pairIKiS5_EEE11lower_boundERS9_(%"class.std::map"* nonnull align 8 dereferenceable(48) %13, i32* nonnull align 4 dereferenceable(4) %14), !llfi_index !336
  %16 = getelementptr inbounds %"struct.std::_Rb_tree_iterator", %"struct.std::_Rb_tree_iterator"* %5, i32 0, i32 0, !llfi_index !337
  store %"struct.std::_Rb_tree_node_base"* %15, %"struct.std::_Rb_tree_node_base"** %16, align 8, !llfi_index !338
  %17 = call %"struct.std::_Rb_tree_node_base"* @_ZNSt3mapIiNSt7__cxx1112basic_stringIcSt11char_traitsIcESaIcEEESt4lessIiESaISt4pairIKiS5_EEE3endEv(%"class.std::map"* nonnull align 8 dereferenceable(48) %13) #2, !llfi_index !339
  %18 = getelementptr inbounds %"struct.std::_Rb_tree_iterator", %"struct.std::_Rb_tree_iterator"* %6, i32 0, i32 0, !llfi_index !340
  store %"struct.std::_Rb_tree_node_base"* %17, %"struct.std::_Rb_tree_node_base"** %18, align 8, !llfi_index !341
  %19 = call zeroext i1 @_ZSteqRKSt17_Rb_tree_iteratorISt4pairIKiNSt7__cxx1112basic_stringIcSt11char_traitsIcESaIcEEEEESB_(%"struct.std::_Rb_tree_iterator"* nonnull align 8 dereferenceable(8) %5, %"struct.std::_Rb_tree_iterator"* nonnull align 8 dereferenceable(8) %6) #2, !llfi_index !342
  br i1 %19, label %25, label %20, !llfi_index !343

20:                                               ; preds = %2
  call void @_ZNKSt3mapIiNSt7__cxx1112basic_stringIcSt11char_traitsIcESaIcEEESt4lessIiESaISt4pairIKiS5_EEE8key_compEv(%"class.std::map"* nonnull align 8 dereferenceable(48) %13), !llfi_index !344
  %21 = load i32*, i32** %4, align 8, !llfi_index !345
  %22 = call nonnull align 8 dereferenceable(40) %"struct.std::pair"* @_ZNKSt17_Rb_tree_iteratorISt4pairIKiNSt7__cxx1112basic_stringIcSt11char_traitsIcESaIcEEEEEdeEv(%"struct.std::_Rb_tree_iterator"* nonnull align 8 dereferenceable(8) %5) #2, !llfi_index !346
  %23 = getelementptr inbounds %"struct.std::pair", %"struct.std::pair"* %22, i32 0, i32 0, !llfi_index !347
  %24 = call zeroext i1 @_ZNKSt4lessIiEclERKiS2_(%"class.std::ios_base::Init"* nonnull align 1 dereferenceable(1) %7, i32* nonnull align 4 dereferenceable(4) %21, i32* nonnull align 4 dereferenceable(4) %23), !llfi_index !348
  br label %25, !llfi_index !349

25:                                               ; preds = %20, %2
  %26 = phi i1 [ true, %2 ], [ %24, %20 ], !llfi_index !350
  br i1 %26, label %27, label %36, !llfi_index !351

27:                                               ; preds = %25
  %28 = getelementptr inbounds %"class.std::map", %"class.std::map"* %13, i32 0, i32 0, !llfi_index !352
  call void @_ZNSt23_Rb_tree_const_iteratorISt4pairIKiNSt7__cxx1112basic_stringIcSt11char_traitsIcESaIcEEEEEC2ERKSt17_Rb_tree_iteratorIS8_E(%"struct.std::_Rb_tree_iterator"* nonnull align 8 dereferenceable(8) %10, %"struct.std::_Rb_tree_iterator"* nonnull align 8 dereferenceable(8) %5) #2, !llfi_index !353
  %29 = load i32*, i32** %4, align 8, !llfi_index !354
  call void @_ZNSt5tupleIJRKiEEC2IvLb1EEES1_(%"class.std::tuple.31"* nonnull align 8 dereferenceable(8) %11, i32* nonnull align 4 dereferenceable(4) %29), !llfi_index !355
  %30 = getelementptr inbounds %"struct.std::_Rb_tree_iterator", %"struct.std::_Rb_tree_iterator"* %10, i32 0, i32 0, !llfi_index !356
  %31 = load %"struct.std::_Rb_tree_node_base"*, %"struct.std::_Rb_tree_node_base"** %30, align 8, !llfi_index !357
  %32 = call %"struct.std::_Rb_tree_node_base"* @_ZNSt8_Rb_treeIiSt4pairIKiNSt7__cxx1112basic_stringIcSt11char_traitsIcESaIcEEEESt10_Select1stIS8_ESt4lessIiESaIS8_EE22_M_emplace_hint_uniqueIJRKSt21piecewise_construct_tSt5tupleIJRS1_EESJ_IJEEEEESt17_Rb_tree_iteratorIS8_ESt23_Rb_tree_const_iteratorIS8_EDpOT_(%"class.std::_Rb_tree"* nonnull align 8 dereferenceable(48) %28, %"struct.std::_Rb_tree_node_base"* %31, %"class.std::ios_base::Init"* nonnull align 1 dereferenceable(1) @_ZStL19piecewise_construct, %"class.std::tuple.31"* nonnull align 8 dereferenceable(8) %11, %"class.std::ios_base::Init"* nonnull align 1 dereferenceable(1) %12), !llfi_index !358
  %33 = getelementptr inbounds %"struct.std::_Rb_tree_iterator", %"struct.std::_Rb_tree_iterator"* %9, i32 0, i32 0, !llfi_index !359
  store %"struct.std::_Rb_tree_node_base"* %32, %"struct.std::_Rb_tree_node_base"** %33, align 8, !llfi_index !360
  %34 = bitcast %"struct.std::_Rb_tree_iterator"* %5 to i8*, !llfi_index !361
  %35 = bitcast %"struct.std::_Rb_tree_iterator"* %9 to i8*, !llfi_index !362
  call void @llvm.memcpy.p0i8.p0i8.i64(i8* align 8 %34, i8* align 8 %35, i64 8, i1 false), !llfi_index !363
  br label %36, !llfi_index !364

36:                                               ; preds = %27, %25
  %37 = call nonnull align 8 dereferenceable(40) %"struct.std::pair"* @_ZNKSt17_Rb_tree_iteratorISt4pairIKiNSt7__cxx1112basic_stringIcSt11char_traitsIcESaIcEEEEEdeEv(%"struct.std::_Rb_tree_iterator"* nonnull align 8 dereferenceable(8) %5) #2, !llfi_index !365
  %38 = getelementptr inbounds %"struct.std::pair", %"struct.std::pair"* %37, i32 0, i32 1, !llfi_index !366
  ret %"class.std::__cxx11::basic_string"* %38, !llfi_index !367
}

declare dso_local nonnull align 8 dereferenceable(32) %"class.std::__cxx11::basic_string"* @_ZNSt7__cxx1112basic_stringIcSt11char_traitsIcESaIcEEaSERKS4_(%"class.std::__cxx11::basic_string"* nonnull align 8 dereferenceable(32), %"class.std::__cxx11::basic_string"* nonnull align 8 dereferenceable(32)) #1

declare dso_local nonnull align 8 dereferenceable(32) %"class.std::__cxx11::basic_string"* @_ZNSt7__cxx1112basic_stringIcSt11char_traitsIcESaIcEEaSEPKc(%"class.std::__cxx11::basic_string"* nonnull align 8 dereferenceable(32), i8*) #1

declare dso_local nonnull align 8 dereferenceable(32) %"class.std::__cxx11::basic_string"* @_ZNSt7__cxx1112basic_stringIcSt11char_traitsIcESaIcEEpLEc(%"class.std::__cxx11::basic_string"* nonnull align 8 dereferenceable(32), i8 signext) #1

; Function Attrs: mustprogress noinline nounwind uwtable
define linkonce_odr dso_local i64 @_ZNKSt3mapINSt7__cxx1112basic_stringIcSt11char_traitsIcESaIcEEEiSt4lessIS5_ESaISt4pairIKS5_iEEE4sizeEv(%"class.std::map"* nonnull align 8 dereferenceable(48) %0) #6 comdat align 2 {
  %2 = alloca %"class.std::map"*, align 8, !llfi_index !368
  store %"class.std::map"* %0, %"class.std::map"** %2, align 8, !llfi_index !369
  %3 = load %"class.std::map"*, %"class.std::map"** %2, align 8, !llfi_index !370
  %4 = getelementptr inbounds %"class.std::map", %"class.std::map"* %3, i32 0, i32 0, !llfi_index !371
  %5 = call i64 @_ZNKSt8_Rb_treeINSt7__cxx1112basic_stringIcSt11char_traitsIcESaIcEEESt4pairIKS5_iESt10_Select1stIS8_ESt4lessIS5_ESaIS8_EE4sizeEv(%"class.std::_Rb_tree"* nonnull align 8 dereferenceable(48) %4) #2, !llfi_index !372
  ret i64 %5, !llfi_index !373
}

; Function Attrs: mustprogress noinline nounwind uwtable
define linkonce_odr dso_local %"struct.std::_Rb_tree_node_base"* @_ZNSt3mapIiNSt7__cxx1112basic_stringIcSt11char_traitsIcESaIcEEESt4lessIiESaISt4pairIKiS5_EEE5beginEv(%"class.std::map"* nonnull align 8 dereferenceable(48) %0) #6 comdat align 2 {
  %2 = alloca %"struct.std::_Rb_tree_iterator", align 8, !llfi_index !374
  %3 = alloca %"class.std::map"*, align 8, !llfi_index !375
  store %"class.std::map"* %0, %"class.std::map"** %3, align 8, !llfi_index !376
  %4 = load %"class.std::map"*, %"class.std::map"** %3, align 8, !llfi_index !377
  %5 = getelementptr inbounds %"class.std::map", %"class.std::map"* %4, i32 0, i32 0, !llfi_index !378
  %6 = call %"struct.std::_Rb_tree_node_base"* @_ZNSt8_Rb_treeIiSt4pairIKiNSt7__cxx1112basic_stringIcSt11char_traitsIcESaIcEEEESt10_Select1stIS8_ESt4lessIiESaIS8_EE5beginEv(%"class.std::_Rb_tree"* nonnull align 8 dereferenceable(48) %5) #2, !llfi_index !379
  %7 = getelementptr inbounds %"struct.std::_Rb_tree_iterator", %"struct.std::_Rb_tree_iterator"* %2, i32 0, i32 0, !llfi_index !380
  store %"struct.std::_Rb_tree_node_base"* %6, %"struct.std::_Rb_tree_node_base"** %7, align 8, !llfi_index !381
  %8 = getelementptr inbounds %"struct.std::_Rb_tree_iterator", %"struct.std::_Rb_tree_iterator"* %2, i32 0, i32 0, !llfi_index !382
  %9 = load %"struct.std::_Rb_tree_node_base"*, %"struct.std::_Rb_tree_node_base"** %8, align 8, !llfi_index !383
  ret %"struct.std::_Rb_tree_node_base"* %9, !llfi_index !384
}

; Function Attrs: mustprogress noinline nounwind uwtable
define linkonce_odr dso_local %"struct.std::pair"* @_ZNKSt17_Rb_tree_iteratorISt4pairIKiNSt7__cxx1112basic_stringIcSt11char_traitsIcESaIcEEEEEptEv(%"struct.std::_Rb_tree_iterator"* nonnull align 8 dereferenceable(8) %0) #6 comdat align 2 {
  %2 = alloca %"struct.std::_Rb_tree_iterator"*, align 8, !llfi_index !385
  store %"struct.std::_Rb_tree_iterator"* %0, %"struct.std::_Rb_tree_iterator"** %2, align 8, !llfi_index !386
  %3 = load %"struct.std::_Rb_tree_iterator"*, %"struct.std::_Rb_tree_iterator"** %2, align 8, !llfi_index !387
  %4 = getelementptr inbounds %"struct.std::_Rb_tree_iterator", %"struct.std::_Rb_tree_iterator"* %3, i32 0, i32 0, !llfi_index !388
  %5 = load %"struct.std::_Rb_tree_node_base"*, %"struct.std::_Rb_tree_node_base"** %4, align 8, !llfi_index !389
  %6 = bitcast %"struct.std::_Rb_tree_node_base"* %5 to %"struct.std::_Rb_tree_node.15"*, !llfi_index !390
  %7 = call %"struct.std::pair"* @_ZNSt13_Rb_tree_nodeISt4pairIKiNSt7__cxx1112basic_stringIcSt11char_traitsIcESaIcEEEEE9_M_valptrEv(%"struct.std::_Rb_tree_node.15"* nonnull align 8 dereferenceable(72) %6), !llfi_index !391
  ret %"struct.std::pair"* %7, !llfi_index !392
}

; Function Attrs: mustprogress noinline nounwind uwtable
define linkonce_odr dso_local nonnull align 4 dereferenceable(4) i32* @_ZSt3minIiERKT_S2_S2_(i32* nonnull align 4 dereferenceable(4) %0, i32* nonnull align 4 dereferenceable(4) %1) #6 comdat {
  %3 = alloca i32*, align 8, !llfi_index !393
  %4 = alloca i32*, align 8, !llfi_index !394
  %5 = alloca i32*, align 8, !llfi_index !395
  store i32* %0, i32** %4, align 8, !llfi_index !396
  store i32* %1, i32** %5, align 8, !llfi_index !397
  %6 = load i32*, i32** %5, align 8, !llfi_index !398
  %7 = load i32, i32* %6, align 4, !llfi_index !399
  %8 = load i32*, i32** %4, align 8, !llfi_index !400
  %9 = load i32, i32* %8, align 4, !llfi_index !401
  %10 = icmp slt i32 %7, %9, !llfi_index !402
  br i1 %10, label %11, label %13, !llfi_index !403

11:                                               ; preds = %2
  %12 = load i32*, i32** %5, align 8, !llfi_index !404
  store i32* %12, i32** %3, align 8, !llfi_index !405
  br label %15, !llfi_index !406

13:                                               ; preds = %2
  %14 = load i32*, i32** %4, align 8, !llfi_index !407
  store i32* %14, i32** %3, align 8, !llfi_index !408
  br label %15, !llfi_index !409

15:                                               ; preds = %13, %11
  %16 = load i32*, i32** %3, align 8, !llfi_index !410
  ret i32* %16, !llfi_index !411
}

; Function Attrs: noinline nounwind uwtable
define linkonce_odr dso_local void @_ZNSt3mapIiNSt7__cxx1112basic_stringIcSt11char_traitsIcESaIcEEESt4lessIiESaISt4pairIKiS5_EEED2Ev(%"class.std::map"* nonnull align 8 dereferenceable(48) %0) unnamed_addr #5 comdat align 2 {
  %2 = alloca %"class.std::map"*, align 8, !llfi_index !412
  store %"class.std::map"* %0, %"class.std::map"** %2, align 8, !llfi_index !413
  %3 = load %"class.std::map"*, %"class.std::map"** %2, align 8, !llfi_index !414
  %4 = getelementptr inbounds %"class.std::map", %"class.std::map"* %3, i32 0, i32 0, !llfi_index !415
  call void @_ZNSt8_Rb_treeIiSt4pairIKiNSt7__cxx1112basic_stringIcSt11char_traitsIcESaIcEEEESt10_Select1stIS8_ESt4lessIiESaIS8_EED2Ev(%"class.std::_Rb_tree"* nonnull align 8 dereferenceable(48) %4) #2, !llfi_index !416
  ret void, !llfi_index !417
}

; Function Attrs: noinline nounwind uwtable
define linkonce_odr dso_local void @_ZNSt3mapINSt7__cxx1112basic_stringIcSt11char_traitsIcESaIcEEEiSt4lessIS5_ESaISt4pairIKS5_iEEED2Ev(%"class.std::map"* nonnull align 8 dereferenceable(48) %0) unnamed_addr #5 comdat align 2 {
  %2 = alloca %"class.std::map"*, align 8, !llfi_index !418
  store %"class.std::map"* %0, %"class.std::map"** %2, align 8, !llfi_index !419
  %3 = load %"class.std::map"*, %"class.std::map"** %2, align 8, !llfi_index !420
  %4 = getelementptr inbounds %"class.std::map", %"class.std::map"* %3, i32 0, i32 0, !llfi_index !421
  call void @_ZNSt8_Rb_treeINSt7__cxx1112basic_stringIcSt11char_traitsIcESaIcEEESt4pairIKS5_iESt10_Select1stIS8_ESt4lessIS5_ESaIS8_EED2Ev(%"class.std::_Rb_tree"* nonnull align 8 dereferenceable(48) %4) #2, !llfi_index !422
  ret void, !llfi_index !423
}

; Function Attrs: noinline nounwind uwtable
define linkonce_odr dso_local void @_ZNSt8_Rb_treeINSt7__cxx1112basic_stringIcSt11char_traitsIcESaIcEEESt4pairIKS5_iESt10_Select1stIS8_ESt4lessIS5_ESaIS8_EED2Ev(%"class.std::_Rb_tree"* nonnull align 8 dereferenceable(48) %0) unnamed_addr #5 comdat align 2 personality i8* bitcast (i32 (...)* @__gxx_personality_v0 to i8*) {
  %2 = alloca %"class.std::_Rb_tree"*, align 8, !llfi_index !424
  %3 = alloca i8*, align 8, !llfi_index !425
  %4 = alloca i32, align 4, !llfi_index !426
  store %"class.std::_Rb_tree"* %0, %"class.std::_Rb_tree"** %2, align 8, !llfi_index !427
  %5 = load %"class.std::_Rb_tree"*, %"class.std::_Rb_tree"** %2, align 8, !llfi_index !428
  %6 = call %"struct.std::_Rb_tree_node.15"* @_ZNSt8_Rb_treeINSt7__cxx1112basic_stringIcSt11char_traitsIcESaIcEEESt4pairIKS5_iESt10_Select1stIS8_ESt4lessIS5_ESaIS8_EE8_M_beginEv(%"class.std::_Rb_tree"* nonnull align 8 dereferenceable(48) %5) #2, !llfi_index !429
  invoke void @_ZNSt8_Rb_treeINSt7__cxx1112basic_stringIcSt11char_traitsIcESaIcEEESt4pairIKS5_iESt10_Select1stIS8_ESt4lessIS5_ESaIS8_EE8_M_eraseEPSt13_Rb_tree_nodeIS8_E(%"class.std::_Rb_tree"* nonnull align 8 dereferenceable(48) %5, %"struct.std::_Rb_tree_node.15"* %6)
          to label %7 unwind label %9, !llfi_index !430

7:                                                ; preds = %1
  %8 = getelementptr inbounds %"class.std::_Rb_tree", %"class.std::_Rb_tree"* %5, i32 0, i32 0, !llfi_index !431
  call void @_ZNSt8_Rb_treeINSt7__cxx1112basic_stringIcSt11char_traitsIcESaIcEEESt4pairIKS5_iESt10_Select1stIS8_ESt4lessIS5_ESaIS8_EE13_Rb_tree_implISC_Lb1EED2Ev(%"struct.std::_Rb_tree<std::__cxx11::basic_string<char>, std::pair<const std::__cxx11::basic_string<char>, int>, std::_Select1st<std::pair<const std::__cxx11::basic_string<char>, int>>, std::less<std::__cxx11::basic_string<char>>>::_Rb_tree_impl"* nonnull align 8 dereferenceable(48) %8) #2, !llfi_index !432
  ret void, !llfi_index !433

9:                                                ; preds = %1
  %10 = landingpad { i8*, i32 }
          catch i8* null, !llfi_index !434
  %11 = extractvalue { i8*, i32 } %10, 0, !llfi_index !435
  store i8* %11, i8** %3, align 8, !llfi_index !436
  %12 = extractvalue { i8*, i32 } %10, 1, !llfi_index !437
  store i32 %12, i32* %4, align 4, !llfi_index !438
  %13 = getelementptr inbounds %"class.std::_Rb_tree", %"class.std::_Rb_tree"* %5, i32 0, i32 0, !llfi_index !439
  call void @_ZNSt8_Rb_treeINSt7__cxx1112basic_stringIcSt11char_traitsIcESaIcEEESt4pairIKS5_iESt10_Select1stIS8_ESt4lessIS5_ESaIS8_EE13_Rb_tree_implISC_Lb1EED2Ev(%"struct.std::_Rb_tree<std::__cxx11::basic_string<char>, std::pair<const std::__cxx11::basic_string<char>, int>, std::_Select1st<std::pair<const std::__cxx11::basic_string<char>, int>>, std::less<std::__cxx11::basic_string<char>>>::_Rb_tree_impl"* nonnull align 8 dereferenceable(48) %13) #2, !llfi_index !440
  br label %14, !llfi_index !441

14:                                               ; preds = %9
  %15 = load i8*, i8** %3, align 8, !llfi_index !442
  call void @__clang_call_terminate(i8* %15) #15, !llfi_index !443
  unreachable, !llfi_index !444
}

; Function Attrs: mustprogress noinline nounwind uwtable
define linkonce_odr dso_local %"struct.std::_Rb_tree_node.15"* @_ZNSt8_Rb_treeINSt7__cxx1112basic_stringIcSt11char_traitsIcESaIcEEESt4pairIKS5_iESt10_Select1stIS8_ESt4lessIS5_ESaIS8_EE8_M_beginEv(%"class.std::_Rb_tree"* nonnull align 8 dereferenceable(48) %0) #6 comdat align 2 {
  %2 = alloca %"class.std::_Rb_tree"*, align 8, !llfi_index !445
  store %"class.std::_Rb_tree"* %0, %"class.std::_Rb_tree"** %2, align 8, !llfi_index !446
  %3 = load %"class.std::_Rb_tree"*, %"class.std::_Rb_tree"** %2, align 8, !llfi_index !447
  %4 = getelementptr inbounds %"class.std::_Rb_tree", %"class.std::_Rb_tree"* %3, i32 0, i32 0, !llfi_index !448
  %5 = bitcast %"struct.std::_Rb_tree<std::__cxx11::basic_string<char>, std::pair<const std::__cxx11::basic_string<char>, int>, std::_Select1st<std::pair<const std::__cxx11::basic_string<char>, int>>, std::less<std::__cxx11::basic_string<char>>>::_Rb_tree_impl"* %4 to i8*, !llfi_index !449
  %6 = getelementptr inbounds i8, i8* %5, i64 8, !llfi_index !450
  %7 = bitcast i8* %6 to %"struct.std::_Rb_tree_header"*, !llfi_index !451
  %8 = getelementptr inbounds %"struct.std::_Rb_tree_header", %"struct.std::_Rb_tree_header"* %7, i32 0, i32 0, !llfi_index !452
  %9 = getelementptr inbounds %"struct.std::_Rb_tree_node_base", %"struct.std::_Rb_tree_node_base"* %8, i32 0, i32 1, !llfi_index !453
  %10 = load %"struct.std::_Rb_tree_node_base"*, %"struct.std::_Rb_tree_node_base"** %9, align 8, !llfi_index !454
  %11 = bitcast %"struct.std::_Rb_tree_node_base"* %10 to %"struct.std::_Rb_tree_node.15"*, !llfi_index !455
  ret %"struct.std::_Rb_tree_node.15"* %11, !llfi_index !456
}

; Function Attrs: mustprogress noinline uwtable
define linkonce_odr dso_local void @_ZNSt8_Rb_treeINSt7__cxx1112basic_stringIcSt11char_traitsIcESaIcEEESt4pairIKS5_iESt10_Select1stIS8_ESt4lessIS5_ESaIS8_EE8_M_eraseEPSt13_Rb_tree_nodeIS8_E(%"class.std::_Rb_tree"* nonnull align 8 dereferenceable(48) %0, %"struct.std::_Rb_tree_node.15"* %1) #4 comdat align 2 {
  %3 = alloca %"class.std::_Rb_tree"*, align 8, !llfi_index !457
  %4 = alloca %"struct.std::_Rb_tree_node.15"*, align 8, !llfi_index !458
  %5 = alloca %"struct.std::_Rb_tree_node.15"*, align 8, !llfi_index !459
  store %"class.std::_Rb_tree"* %0, %"class.std::_Rb_tree"** %3, align 8, !llfi_index !460
  store %"struct.std::_Rb_tree_node.15"* %1, %"struct.std::_Rb_tree_node.15"** %4, align 8, !llfi_index !461
  %6 = load %"class.std::_Rb_tree"*, %"class.std::_Rb_tree"** %3, align 8, !llfi_index !462
  br label %7, !llfi_index !463

7:                                                ; preds = %10, %2
  %8 = load %"struct.std::_Rb_tree_node.15"*, %"struct.std::_Rb_tree_node.15"** %4, align 8, !llfi_index !464
  %9 = icmp ne %"struct.std::_Rb_tree_node.15"* %8, null, !llfi_index !465
  br i1 %9, label %10, label %19, !llfi_index !466

10:                                               ; preds = %7
  %11 = load %"struct.std::_Rb_tree_node.15"*, %"struct.std::_Rb_tree_node.15"** %4, align 8, !llfi_index !467
  %12 = bitcast %"struct.std::_Rb_tree_node.15"* %11 to %"struct.std::_Rb_tree_node_base"*, !llfi_index !468
  %13 = call %"struct.std::_Rb_tree_node.15"* @_ZNSt8_Rb_treeINSt7__cxx1112basic_stringIcSt11char_traitsIcESaIcEEESt4pairIKS5_iESt10_Select1stIS8_ESt4lessIS5_ESaIS8_EE8_S_rightEPSt18_Rb_tree_node_base(%"struct.std::_Rb_tree_node_base"* %12) #2, !llfi_index !469
  call void @_ZNSt8_Rb_treeINSt7__cxx1112basic_stringIcSt11char_traitsIcESaIcEEESt4pairIKS5_iESt10_Select1stIS8_ESt4lessIS5_ESaIS8_EE8_M_eraseEPSt13_Rb_tree_nodeIS8_E(%"class.std::_Rb_tree"* nonnull align 8 dereferenceable(48) %6, %"struct.std::_Rb_tree_node.15"* %13), !llfi_index !470
  %14 = load %"struct.std::_Rb_tree_node.15"*, %"struct.std::_Rb_tree_node.15"** %4, align 8, !llfi_index !471
  %15 = bitcast %"struct.std::_Rb_tree_node.15"* %14 to %"struct.std::_Rb_tree_node_base"*, !llfi_index !472
  %16 = call %"struct.std::_Rb_tree_node.15"* @_ZNSt8_Rb_treeINSt7__cxx1112basic_stringIcSt11char_traitsIcESaIcEEESt4pairIKS5_iESt10_Select1stIS8_ESt4lessIS5_ESaIS8_EE7_S_leftEPSt18_Rb_tree_node_base(%"struct.std::_Rb_tree_node_base"* %15) #2, !llfi_index !473
  store %"struct.std::_Rb_tree_node.15"* %16, %"struct.std::_Rb_tree_node.15"** %5, align 8, !llfi_index !474
  %17 = load %"struct.std::_Rb_tree_node.15"*, %"struct.std::_Rb_tree_node.15"** %4, align 8, !llfi_index !475
  call void @_ZNSt8_Rb_treeINSt7__cxx1112basic_stringIcSt11char_traitsIcESaIcEEESt4pairIKS5_iESt10_Select1stIS8_ESt4lessIS5_ESaIS8_EE12_M_drop_nodeEPSt13_Rb_tree_nodeIS8_E(%"class.std::_Rb_tree"* nonnull align 8 dereferenceable(48) %6, %"struct.std::_Rb_tree_node.15"* %17) #2, !llfi_index !476
  %18 = load %"struct.std::_Rb_tree_node.15"*, %"struct.std::_Rb_tree_node.15"** %5, align 8, !llfi_index !477
  store %"struct.std::_Rb_tree_node.15"* %18, %"struct.std::_Rb_tree_node.15"** %4, align 8, !llfi_index !478
  br label %7, !llvm.loop !479, !llfi_index !480

19:                                               ; preds = %7
  ret void, !llfi_index !481
}

; Function Attrs: noinline nounwind uwtable
define linkonce_odr dso_local void @_ZNSt8_Rb_treeINSt7__cxx1112basic_stringIcSt11char_traitsIcESaIcEEESt4pairIKS5_iESt10_Select1stIS8_ESt4lessIS5_ESaIS8_EE13_Rb_tree_implISC_Lb1EED2Ev(%"struct.std::_Rb_tree<std::__cxx11::basic_string<char>, std::pair<const std::__cxx11::basic_string<char>, int>, std::_Select1st<std::pair<const std::__cxx11::basic_string<char>, int>>, std::less<std::__cxx11::basic_string<char>>>::_Rb_tree_impl"* nonnull align 8 dereferenceable(48) %0) unnamed_addr #5 comdat align 2 {
  %2 = alloca %"struct.std::_Rb_tree<std::__cxx11::basic_string<char>, std::pair<const std::__cxx11::basic_string<char>, int>, std::_Select1st<std::pair<const std::__cxx11::basic_string<char>, int>>, std::less<std::__cxx11::basic_string<char>>>::_Rb_tree_impl"*, align 8, !llfi_index !482
  store %"struct.std::_Rb_tree<std::__cxx11::basic_string<char>, std::pair<const std::__cxx11::basic_string<char>, int>, std::_Select1st<std::pair<const std::__cxx11::basic_string<char>, int>>, std::less<std::__cxx11::basic_string<char>>>::_Rb_tree_impl"* %0, %"struct.std::_Rb_tree<std::__cxx11::basic_string<char>, std::pair<const std::__cxx11::basic_string<char>, int>, std::_Select1st<std::pair<const std::__cxx11::basic_string<char>, int>>, std::less<std::__cxx11::basic_string<char>>>::_Rb_tree_impl"** %2, align 8, !llfi_index !483
  %3 = load %"struct.std::_Rb_tree<std::__cxx11::basic_string<char>, std::pair<const std::__cxx11::basic_string<char>, int>, std::_Select1st<std::pair<const std::__cxx11::basic_string<char>, int>>, std::less<std::__cxx11::basic_string<char>>>::_Rb_tree_impl"*, %"struct.std::_Rb_tree<std::__cxx11::basic_string<char>, std::pair<const std::__cxx11::basic_string<char>, int>, std::_Select1st<std::pair<const std::__cxx11::basic_string<char>, int>>, std::less<std::__cxx11::basic_string<char>>>::_Rb_tree_impl"** %2, align 8, !llfi_index !484
  %4 = bitcast %"struct.std::_Rb_tree<std::__cxx11::basic_string<char>, std::pair<const std::__cxx11::basic_string<char>, int>, std::_Select1st<std::pair<const std::__cxx11::basic_string<char>, int>>, std::less<std::__cxx11::basic_string<char>>>::_Rb_tree_impl"* %3 to %"class.std::ios_base::Init"*, !llfi_index !485
  call void @_ZNSaISt13_Rb_tree_nodeISt4pairIKNSt7__cxx1112basic_stringIcSt11char_traitsIcESaIcEEEiEEED2Ev(%"class.std::ios_base::Init"* nonnull align 1 dereferenceable(1) %4) #2, !llfi_index !486
  ret void, !llfi_index !487
}

; Function Attrs: noinline noreturn nounwind
define linkonce_odr hidden void @__clang_call_terminate(i8* %0) #7 comdat {
  %2 = call i8* @__cxa_begin_catch(i8* %0) #2, !llfi_index !488
  call void @_ZSt9terminatev() #15, !llfi_index !489
  unreachable, !llfi_index !490
}

declare dso_local i8* @__cxa_begin_catch(i8*)

declare dso_local void @_ZSt9terminatev()

; Function Attrs: noinline nounwind uwtable
define linkonce_odr dso_local void @_ZNSaISt13_Rb_tree_nodeISt4pairIKNSt7__cxx1112basic_stringIcSt11char_traitsIcESaIcEEEiEEED2Ev(%"class.std::ios_base::Init"* nonnull align 1 dereferenceable(1) %0) unnamed_addr #5 comdat align 2 {
  %2 = alloca %"class.std::ios_base::Init"*, align 8, !llfi_index !491
  store %"class.std::ios_base::Init"* %0, %"class.std::ios_base::Init"** %2, align 8, !llfi_index !492
  %3 = load %"class.std::ios_base::Init"*, %"class.std::ios_base::Init"** %2, align 8, !llfi_index !493
  %4 = bitcast %"class.std::ios_base::Init"* %3 to %"class.std::ios_base::Init"*, !llfi_index !494
  call void @_ZN9__gnu_cxx13new_allocatorISt13_Rb_tree_nodeISt4pairIKNSt7__cxx1112basic_stringIcSt11char_traitsIcESaIcEEEiEEED2Ev(%"class.std::ios_base::Init"* nonnull align 1 dereferenceable(1) %4) #2, !llfi_index !495
  ret void, !llfi_index !496
}

; Function Attrs: noinline nounwind uwtable
define linkonce_odr dso_local void @_ZN9__gnu_cxx13new_allocatorISt13_Rb_tree_nodeISt4pairIKNSt7__cxx1112basic_stringIcSt11char_traitsIcESaIcEEEiEEED2Ev(%"class.std::ios_base::Init"* nonnull align 1 dereferenceable(1) %0) unnamed_addr #5 comdat align 2 {
  %2 = alloca %"class.std::ios_base::Init"*, align 8, !llfi_index !497
  store %"class.std::ios_base::Init"* %0, %"class.std::ios_base::Init"** %2, align 8, !llfi_index !498
  %3 = load %"class.std::ios_base::Init"*, %"class.std::ios_base::Init"** %2, align 8, !llfi_index !499
  ret void, !llfi_index !500
}

; Function Attrs: mustprogress noinline nounwind uwtable
define linkonce_odr dso_local %"struct.std::_Rb_tree_node.15"* @_ZNSt8_Rb_treeINSt7__cxx1112basic_stringIcSt11char_traitsIcESaIcEEESt4pairIKS5_iESt10_Select1stIS8_ESt4lessIS5_ESaIS8_EE8_S_rightEPSt18_Rb_tree_node_base(%"struct.std::_Rb_tree_node_base"* %0) #6 comdat align 2 {
  %2 = alloca %"struct.std::_Rb_tree_node_base"*, align 8, !llfi_index !501
  store %"struct.std::_Rb_tree_node_base"* %0, %"struct.std::_Rb_tree_node_base"** %2, align 8, !llfi_index !502
  %3 = load %"struct.std::_Rb_tree_node_base"*, %"struct.std::_Rb_tree_node_base"** %2, align 8, !llfi_index !503
  %4 = getelementptr inbounds %"struct.std::_Rb_tree_node_base", %"struct.std::_Rb_tree_node_base"* %3, i32 0, i32 3, !llfi_index !504
  %5 = load %"struct.std::_Rb_tree_node_base"*, %"struct.std::_Rb_tree_node_base"** %4, align 8, !llfi_index !505
  %6 = bitcast %"struct.std::_Rb_tree_node_base"* %5 to %"struct.std::_Rb_tree_node.15"*, !llfi_index !506
  ret %"struct.std::_Rb_tree_node.15"* %6, !llfi_index !507
}

; Function Attrs: mustprogress noinline nounwind uwtable
define linkonce_odr dso_local %"struct.std::_Rb_tree_node.15"* @_ZNSt8_Rb_treeINSt7__cxx1112basic_stringIcSt11char_traitsIcESaIcEEESt4pairIKS5_iESt10_Select1stIS8_ESt4lessIS5_ESaIS8_EE7_S_leftEPSt18_Rb_tree_node_base(%"struct.std::_Rb_tree_node_base"* %0) #6 comdat align 2 {
  %2 = alloca %"struct.std::_Rb_tree_node_base"*, align 8, !llfi_index !508
  store %"struct.std::_Rb_tree_node_base"* %0, %"struct.std::_Rb_tree_node_base"** %2, align 8, !llfi_index !509
  %3 = load %"struct.std::_Rb_tree_node_base"*, %"struct.std::_Rb_tree_node_base"** %2, align 8, !llfi_index !510
  %4 = getelementptr inbounds %"struct.std::_Rb_tree_node_base", %"struct.std::_Rb_tree_node_base"* %3, i32 0, i32 2, !llfi_index !511
  %5 = load %"struct.std::_Rb_tree_node_base"*, %"struct.std::_Rb_tree_node_base"** %4, align 8, !llfi_index !512
  %6 = bitcast %"struct.std::_Rb_tree_node_base"* %5 to %"struct.std::_Rb_tree_node.15"*, !llfi_index !513
  ret %"struct.std::_Rb_tree_node.15"* %6, !llfi_index !514
}

; Function Attrs: mustprogress noinline nounwind uwtable
define linkonce_odr dso_local void @_ZNSt8_Rb_treeINSt7__cxx1112basic_stringIcSt11char_traitsIcESaIcEEESt4pairIKS5_iESt10_Select1stIS8_ESt4lessIS5_ESaIS8_EE12_M_drop_nodeEPSt13_Rb_tree_nodeIS8_E(%"class.std::_Rb_tree"* nonnull align 8 dereferenceable(48) %0, %"struct.std::_Rb_tree_node.15"* %1) #6 comdat align 2 {
  %3 = alloca %"class.std::_Rb_tree"*, align 8, !llfi_index !515
  %4 = alloca %"struct.std::_Rb_tree_node.15"*, align 8, !llfi_index !516
  store %"class.std::_Rb_tree"* %0, %"class.std::_Rb_tree"** %3, align 8, !llfi_index !517
  store %"struct.std::_Rb_tree_node.15"* %1, %"struct.std::_Rb_tree_node.15"** %4, align 8, !llfi_index !518
  %5 = load %"class.std::_Rb_tree"*, %"class.std::_Rb_tree"** %3, align 8, !llfi_index !519
  %6 = load %"struct.std::_Rb_tree_node.15"*, %"struct.std::_Rb_tree_node.15"** %4, align 8, !llfi_index !520
  call void @_ZNSt8_Rb_treeINSt7__cxx1112basic_stringIcSt11char_traitsIcESaIcEEESt4pairIKS5_iESt10_Select1stIS8_ESt4lessIS5_ESaIS8_EE15_M_destroy_nodeEPSt13_Rb_tree_nodeIS8_E(%"class.std::_Rb_tree"* nonnull align 8 dereferenceable(48) %5, %"struct.std::_Rb_tree_node.15"* %6) #2, !llfi_index !521
  %7 = load %"struct.std::_Rb_tree_node.15"*, %"struct.std::_Rb_tree_node.15"** %4, align 8, !llfi_index !522
  call void @_ZNSt8_Rb_treeINSt7__cxx1112basic_stringIcSt11char_traitsIcESaIcEEESt4pairIKS5_iESt10_Select1stIS8_ESt4lessIS5_ESaIS8_EE11_M_put_nodeEPSt13_Rb_tree_nodeIS8_E(%"class.std::_Rb_tree"* nonnull align 8 dereferenceable(48) %5, %"struct.std::_Rb_tree_node.15"* %7) #2, !llfi_index !523
  ret void, !llfi_index !524
}

; Function Attrs: mustprogress noinline nounwind uwtable
define linkonce_odr dso_local void @_ZNSt8_Rb_treeINSt7__cxx1112basic_stringIcSt11char_traitsIcESaIcEEESt4pairIKS5_iESt10_Select1stIS8_ESt4lessIS5_ESaIS8_EE15_M_destroy_nodeEPSt13_Rb_tree_nodeIS8_E(%"class.std::_Rb_tree"* nonnull align 8 dereferenceable(48) %0, %"struct.std::_Rb_tree_node.15"* %1) #6 comdat align 2 personality i8* bitcast (i32 (...)* @__gxx_personality_v0 to i8*) {
  %3 = alloca %"class.std::_Rb_tree"*, align 8, !llfi_index !525
  %4 = alloca %"struct.std::_Rb_tree_node.15"*, align 8, !llfi_index !526
  store %"class.std::_Rb_tree"* %0, %"class.std::_Rb_tree"** %3, align 8, !llfi_index !527
  store %"struct.std::_Rb_tree_node.15"* %1, %"struct.std::_Rb_tree_node.15"** %4, align 8, !llfi_index !528
  %5 = load %"class.std::_Rb_tree"*, %"class.std::_Rb_tree"** %3, align 8, !llfi_index !529
  %6 = call nonnull align 1 dereferenceable(1) %"class.std::ios_base::Init"* @_ZNSt8_Rb_treeINSt7__cxx1112basic_stringIcSt11char_traitsIcESaIcEEESt4pairIKS5_iESt10_Select1stIS8_ESt4lessIS5_ESaIS8_EE21_M_get_Node_allocatorEv(%"class.std::_Rb_tree"* nonnull align 8 dereferenceable(48) %5) #2, !llfi_index !530
  %7 = load %"struct.std::_Rb_tree_node.15"*, %"struct.std::_Rb_tree_node.15"** %4, align 8, !llfi_index !531
  %8 = invoke %"struct.std::pair.17"* @_ZNSt13_Rb_tree_nodeISt4pairIKNSt7__cxx1112basic_stringIcSt11char_traitsIcESaIcEEEiEE9_M_valptrEv(%"struct.std::_Rb_tree_node.15"* nonnull align 8 dereferenceable(72) %7)
          to label %9 unwind label %11, !llfi_index !532

9:                                                ; preds = %2
  call void @_ZNSt16allocator_traitsISaISt13_Rb_tree_nodeISt4pairIKNSt7__cxx1112basic_stringIcSt11char_traitsIcESaIcEEEiEEEE7destroyIS9_EEvRSB_PT_(%"class.std::ios_base::Init"* nonnull align 1 dereferenceable(1) %6, %"struct.std::pair.17"* %8) #2, !llfi_index !533
  %10 = load %"struct.std::_Rb_tree_node.15"*, %"struct.std::_Rb_tree_node.15"** %4, align 8, !llfi_index !534
  ret void, !llfi_index !535

11:                                               ; preds = %2
  %12 = landingpad { i8*, i32 }
          catch i8* null, !llfi_index !536
  %13 = extractvalue { i8*, i32 } %12, 0, !llfi_index !537
  call void @__clang_call_terminate(i8* %13) #15, !llfi_index !538
  unreachable, !llfi_index !539
}

; Function Attrs: mustprogress noinline nounwind uwtable
define linkonce_odr dso_local void @_ZNSt8_Rb_treeINSt7__cxx1112basic_stringIcSt11char_traitsIcESaIcEEESt4pairIKS5_iESt10_Select1stIS8_ESt4lessIS5_ESaIS8_EE11_M_put_nodeEPSt13_Rb_tree_nodeIS8_E(%"class.std::_Rb_tree"* nonnull align 8 dereferenceable(48) %0, %"struct.std::_Rb_tree_node.15"* %1) #6 comdat align 2 personality i8* bitcast (i32 (...)* @__gxx_personality_v0 to i8*) {
  %3 = alloca %"class.std::_Rb_tree"*, align 8, !llfi_index !540
  %4 = alloca %"struct.std::_Rb_tree_node.15"*, align 8, !llfi_index !541
  store %"class.std::_Rb_tree"* %0, %"class.std::_Rb_tree"** %3, align 8, !llfi_index !542
  store %"struct.std::_Rb_tree_node.15"* %1, %"struct.std::_Rb_tree_node.15"** %4, align 8, !llfi_index !543
  %5 = load %"class.std::_Rb_tree"*, %"class.std::_Rb_tree"** %3, align 8, !llfi_index !544
  %6 = call nonnull align 1 dereferenceable(1) %"class.std::ios_base::Init"* @_ZNSt8_Rb_treeINSt7__cxx1112basic_stringIcSt11char_traitsIcESaIcEEESt4pairIKS5_iESt10_Select1stIS8_ESt4lessIS5_ESaIS8_EE21_M_get_Node_allocatorEv(%"class.std::_Rb_tree"* nonnull align 8 dereferenceable(48) %5) #2, !llfi_index !545
  %7 = load %"struct.std::_Rb_tree_node.15"*, %"struct.std::_Rb_tree_node.15"** %4, align 8, !llfi_index !546
  invoke void @_ZNSt16allocator_traitsISaISt13_Rb_tree_nodeISt4pairIKNSt7__cxx1112basic_stringIcSt11char_traitsIcESaIcEEEiEEEE10deallocateERSB_PSA_m(%"class.std::ios_base::Init"* nonnull align 1 dereferenceable(1) %6, %"struct.std::_Rb_tree_node.15"* %7, i64 1)
          to label %8 unwind label %9, !llfi_index !547

8:                                                ; preds = %2
  ret void, !llfi_index !548

9:                                                ; preds = %2
  %10 = landingpad { i8*, i32 }
          catch i8* null, !llfi_index !549
  %11 = extractvalue { i8*, i32 } %10, 0, !llfi_index !550
  call void @__clang_call_terminate(i8* %11) #15, !llfi_index !551
  unreachable, !llfi_index !552
}

; Function Attrs: mustprogress noinline nounwind uwtable
define linkonce_odr dso_local nonnull align 1 dereferenceable(1) %"class.std::ios_base::Init"* @_ZNSt8_Rb_treeINSt7__cxx1112basic_stringIcSt11char_traitsIcESaIcEEESt4pairIKS5_iESt10_Select1stIS8_ESt4lessIS5_ESaIS8_EE21_M_get_Node_allocatorEv(%"class.std::_Rb_tree"* nonnull align 8 dereferenceable(48) %0) #6 comdat align 2 {
  %2 = alloca %"class.std::_Rb_tree"*, align 8, !llfi_index !553
  store %"class.std::_Rb_tree"* %0, %"class.std::_Rb_tree"** %2, align 8, !llfi_index !554
  %3 = load %"class.std::_Rb_tree"*, %"class.std::_Rb_tree"** %2, align 8, !llfi_index !555
  %4 = getelementptr inbounds %"class.std::_Rb_tree", %"class.std::_Rb_tree"* %3, i32 0, i32 0, !llfi_index !556
  %5 = bitcast %"struct.std::_Rb_tree<std::__cxx11::basic_string<char>, std::pair<const std::__cxx11::basic_string<char>, int>, std::_Select1st<std::pair<const std::__cxx11::basic_string<char>, int>>, std::less<std::__cxx11::basic_string<char>>>::_Rb_tree_impl"* %4 to %"class.std::ios_base::Init"*, !llfi_index !557
  ret %"class.std::ios_base::Init"* %5, !llfi_index !558
}

; Function Attrs: mustprogress noinline uwtable
define linkonce_odr dso_local void @_ZNSt16allocator_traitsISaISt13_Rb_tree_nodeISt4pairIKNSt7__cxx1112basic_stringIcSt11char_traitsIcESaIcEEEiEEEE10deallocateERSB_PSA_m(%"class.std::ios_base::Init"* nonnull align 1 dereferenceable(1) %0, %"struct.std::_Rb_tree_node.15"* %1, i64 %2) #4 comdat align 2 {
  %4 = alloca %"class.std::ios_base::Init"*, align 8, !llfi_index !559
  %5 = alloca %"struct.std::_Rb_tree_node.15"*, align 8, !llfi_index !560
  %6 = alloca i64, align 8, !llfi_index !561
  store %"class.std::ios_base::Init"* %0, %"class.std::ios_base::Init"** %4, align 8, !llfi_index !562
  store %"struct.std::_Rb_tree_node.15"* %1, %"struct.std::_Rb_tree_node.15"** %5, align 8, !llfi_index !563
  store i64 %2, i64* %6, align 8, !llfi_index !564
  %7 = load %"class.std::ios_base::Init"*, %"class.std::ios_base::Init"** %4, align 8, !llfi_index !565
  %8 = bitcast %"class.std::ios_base::Init"* %7 to %"class.std::ios_base::Init"*, !llfi_index !566
  %9 = load %"struct.std::_Rb_tree_node.15"*, %"struct.std::_Rb_tree_node.15"** %5, align 8, !llfi_index !567
  %10 = load i64, i64* %6, align 8, !llfi_index !568
  call void @_ZN9__gnu_cxx13new_allocatorISt13_Rb_tree_nodeISt4pairIKNSt7__cxx1112basic_stringIcSt11char_traitsIcESaIcEEEiEEE10deallocateEPSB_m(%"class.std::ios_base::Init"* nonnull align 1 dereferenceable(1) %8, %"struct.std::_Rb_tree_node.15"* %9, i64 %10), !llfi_index !569
  ret void, !llfi_index !570
}

; Function Attrs: mustprogress noinline nounwind uwtable
define linkonce_odr dso_local void @_ZN9__gnu_cxx13new_allocatorISt13_Rb_tree_nodeISt4pairIKNSt7__cxx1112basic_stringIcSt11char_traitsIcESaIcEEEiEEE10deallocateEPSB_m(%"class.std::ios_base::Init"* nonnull align 1 dereferenceable(1) %0, %"struct.std::_Rb_tree_node.15"* %1, i64 %2) #6 comdat align 2 {
  %4 = alloca %"class.std::ios_base::Init"*, align 8, !llfi_index !571
  %5 = alloca %"struct.std::_Rb_tree_node.15"*, align 8, !llfi_index !572
  %6 = alloca i64, align 8, !llfi_index !573
  store %"class.std::ios_base::Init"* %0, %"class.std::ios_base::Init"** %4, align 8, !llfi_index !574
  store %"struct.std::_Rb_tree_node.15"* %1, %"struct.std::_Rb_tree_node.15"** %5, align 8, !llfi_index !575
  store i64 %2, i64* %6, align 8, !llfi_index !576
  %7 = load %"class.std::ios_base::Init"*, %"class.std::ios_base::Init"** %4, align 8, !llfi_index !577
  %8 = load %"struct.std::_Rb_tree_node.15"*, %"struct.std::_Rb_tree_node.15"** %5, align 8, !llfi_index !578
  %9 = bitcast %"struct.std::_Rb_tree_node.15"* %8 to i8*, !llfi_index !579
  call void @_ZdlPv(i8* %9) #2, !llfi_index !580
  ret void, !llfi_index !581
}

; Function Attrs: nobuiltin nounwind
declare dso_local void @_ZdlPv(i8*) #8

; Function Attrs: mustprogress noinline nounwind uwtable
define linkonce_odr dso_local %"struct.std::pair.17"* @_ZNSt13_Rb_tree_nodeISt4pairIKNSt7__cxx1112basic_stringIcSt11char_traitsIcESaIcEEEiEE9_M_valptrEv(%"struct.std::_Rb_tree_node.15"* nonnull align 8 dereferenceable(72) %0) #6 comdat align 2 {
  %2 = alloca %"struct.std::_Rb_tree_node.15"*, align 8, !llfi_index !582
  store %"struct.std::_Rb_tree_node.15"* %0, %"struct.std::_Rb_tree_node.15"** %2, align 8, !llfi_index !583
  %3 = load %"struct.std::_Rb_tree_node.15"*, %"struct.std::_Rb_tree_node.15"** %2, align 8, !llfi_index !584
  %4 = getelementptr inbounds %"struct.std::_Rb_tree_node.15", %"struct.std::_Rb_tree_node.15"* %3, i32 0, i32 1, !llfi_index !585
  %5 = call %"struct.std::pair.17"* @_ZN9__gnu_cxx16__aligned_membufISt4pairIKNSt7__cxx1112basic_stringIcSt11char_traitsIcESaIcEEEiEE6_M_ptrEv(%"struct.__gnu_cxx::__aligned_membuf.16"* nonnull align 8 dereferenceable(40) %4) #2, !llfi_index !586
  ret %"struct.std::pair.17"* %5, !llfi_index !587
}

; Function Attrs: mustprogress noinline nounwind uwtable
define linkonce_odr dso_local void @_ZNSt16allocator_traitsISaISt13_Rb_tree_nodeISt4pairIKNSt7__cxx1112basic_stringIcSt11char_traitsIcESaIcEEEiEEEE7destroyIS9_EEvRSB_PT_(%"class.std::ios_base::Init"* nonnull align 1 dereferenceable(1) %0, %"struct.std::pair.17"* %1) #6 comdat align 2 {
  %3 = alloca %"class.std::ios_base::Init"*, align 8, !llfi_index !588
  %4 = alloca %"struct.std::pair.17"*, align 8, !llfi_index !589
  store %"class.std::ios_base::Init"* %0, %"class.std::ios_base::Init"** %3, align 8, !llfi_index !590
  store %"struct.std::pair.17"* %1, %"struct.std::pair.17"** %4, align 8, !llfi_index !591
  %5 = load %"class.std::ios_base::Init"*, %"class.std::ios_base::Init"** %3, align 8, !llfi_index !592
  %6 = bitcast %"class.std::ios_base::Init"* %5 to %"class.std::ios_base::Init"*, !llfi_index !593
  %7 = load %"struct.std::pair.17"*, %"struct.std::pair.17"** %4, align 8, !llfi_index !594
  call void @_ZN9__gnu_cxx13new_allocatorISt13_Rb_tree_nodeISt4pairIKNSt7__cxx1112basic_stringIcSt11char_traitsIcESaIcEEEiEEE7destroyISA_EEvPT_(%"class.std::ios_base::Init"* nonnull align 1 dereferenceable(1) %6, %"struct.std::pair.17"* %7) #2, !llfi_index !595
  ret void, !llfi_index !596
}

; Function Attrs: mustprogress noinline nounwind uwtable
define linkonce_odr dso_local void @_ZN9__gnu_cxx13new_allocatorISt13_Rb_tree_nodeISt4pairIKNSt7__cxx1112basic_stringIcSt11char_traitsIcESaIcEEEiEEE7destroyISA_EEvPT_(%"class.std::ios_base::Init"* nonnull align 1 dereferenceable(1) %0, %"struct.std::pair.17"* %1) #6 comdat align 2 {
  %3 = alloca %"class.std::ios_base::Init"*, align 8, !llfi_index !597
  %4 = alloca %"struct.std::pair.17"*, align 8, !llfi_index !598
  store %"class.std::ios_base::Init"* %0, %"class.std::ios_base::Init"** %3, align 8, !llfi_index !599
  store %"struct.std::pair.17"* %1, %"struct.std::pair.17"** %4, align 8, !llfi_index !600
  %5 = load %"class.std::ios_base::Init"*, %"class.std::ios_base::Init"** %3, align 8, !llfi_index !601
  %6 = load %"struct.std::pair.17"*, %"struct.std::pair.17"** %4, align 8, !llfi_index !602
  call void @_ZNSt4pairIKNSt7__cxx1112basic_stringIcSt11char_traitsIcESaIcEEEiED2Ev(%"struct.std::pair.17"* nonnull align 8 dereferenceable(36) %6) #2, !llfi_index !603
  ret void, !llfi_index !604
}

; Function Attrs: noinline nounwind uwtable
define linkonce_odr dso_local void @_ZNSt4pairIKNSt7__cxx1112basic_stringIcSt11char_traitsIcESaIcEEEiED2Ev(%"struct.std::pair.17"* nonnull align 8 dereferenceable(36) %0) unnamed_addr #5 comdat align 2 {
  %2 = alloca %"struct.std::pair.17"*, align 8, !llfi_index !605
  store %"struct.std::pair.17"* %0, %"struct.std::pair.17"** %2, align 8, !llfi_index !606
  %3 = load %"struct.std::pair.17"*, %"struct.std::pair.17"** %2, align 8, !llfi_index !607
  %4 = getelementptr inbounds %"struct.std::pair.17", %"struct.std::pair.17"* %3, i32 0, i32 0, !llfi_index !608
  call void @_ZNSt7__cxx1112basic_stringIcSt11char_traitsIcESaIcEED1Ev(%"class.std::__cxx11::basic_string"* nonnull align 8 dereferenceable(32) %4) #2, !llfi_index !609
  ret void, !llfi_index !610
}

; Function Attrs: mustprogress noinline nounwind uwtable
define linkonce_odr dso_local %"struct.std::pair.17"* @_ZN9__gnu_cxx16__aligned_membufISt4pairIKNSt7__cxx1112basic_stringIcSt11char_traitsIcESaIcEEEiEE6_M_ptrEv(%"struct.__gnu_cxx::__aligned_membuf.16"* nonnull align 8 dereferenceable(40) %0) #6 comdat align 2 {
  %2 = alloca %"struct.__gnu_cxx::__aligned_membuf.16"*, align 8, !llfi_index !611
  store %"struct.__gnu_cxx::__aligned_membuf.16"* %0, %"struct.__gnu_cxx::__aligned_membuf.16"** %2, align 8, !llfi_index !612
  %3 = load %"struct.__gnu_cxx::__aligned_membuf.16"*, %"struct.__gnu_cxx::__aligned_membuf.16"** %2, align 8, !llfi_index !613
  %4 = call i8* @_ZN9__gnu_cxx16__aligned_membufISt4pairIKNSt7__cxx1112basic_stringIcSt11char_traitsIcESaIcEEEiEE7_M_addrEv(%"struct.__gnu_cxx::__aligned_membuf.16"* nonnull align 8 dereferenceable(40) %3) #2, !llfi_index !614
  %5 = bitcast i8* %4 to %"struct.std::pair.17"*, !llfi_index !615
  ret %"struct.std::pair.17"* %5, !llfi_index !616
}

; Function Attrs: mustprogress noinline nounwind uwtable
define linkonce_odr dso_local i8* @_ZN9__gnu_cxx16__aligned_membufISt4pairIKNSt7__cxx1112basic_stringIcSt11char_traitsIcESaIcEEEiEE7_M_addrEv(%"struct.__gnu_cxx::__aligned_membuf.16"* nonnull align 8 dereferenceable(40) %0) #6 comdat align 2 {
  %2 = alloca %"struct.__gnu_cxx::__aligned_membuf.16"*, align 8, !llfi_index !617
  store %"struct.__gnu_cxx::__aligned_membuf.16"* %0, %"struct.__gnu_cxx::__aligned_membuf.16"** %2, align 8, !llfi_index !618
  %3 = load %"struct.__gnu_cxx::__aligned_membuf.16"*, %"struct.__gnu_cxx::__aligned_membuf.16"** %2, align 8, !llfi_index !619
  %4 = getelementptr inbounds %"struct.__gnu_cxx::__aligned_membuf.16", %"struct.__gnu_cxx::__aligned_membuf.16"* %3, i32 0, i32 0, !llfi_index !620
  %5 = bitcast [40 x i8]* %4 to i8*, !llfi_index !621
  ret i8* %5, !llfi_index !622
}

; Function Attrs: noinline nounwind uwtable
define linkonce_odr dso_local void @_ZNSt8_Rb_treeIiSt4pairIKiNSt7__cxx1112basic_stringIcSt11char_traitsIcESaIcEEEESt10_Select1stIS8_ESt4lessIiESaIS8_EED2Ev(%"class.std::_Rb_tree"* nonnull align 8 dereferenceable(48) %0) unnamed_addr #5 comdat align 2 personality i8* bitcast (i32 (...)* @__gxx_personality_v0 to i8*) {
  %2 = alloca %"class.std::_Rb_tree"*, align 8, !llfi_index !623
  %3 = alloca i8*, align 8, !llfi_index !624
  %4 = alloca i32, align 4, !llfi_index !625
  store %"class.std::_Rb_tree"* %0, %"class.std::_Rb_tree"** %2, align 8, !llfi_index !626
  %5 = load %"class.std::_Rb_tree"*, %"class.std::_Rb_tree"** %2, align 8, !llfi_index !627
  %6 = call %"struct.std::_Rb_tree_node.15"* @_ZNSt8_Rb_treeIiSt4pairIKiNSt7__cxx1112basic_stringIcSt11char_traitsIcESaIcEEEESt10_Select1stIS8_ESt4lessIiESaIS8_EE8_M_beginEv(%"class.std::_Rb_tree"* nonnull align 8 dereferenceable(48) %5) #2, !llfi_index !628
  invoke void @_ZNSt8_Rb_treeIiSt4pairIKiNSt7__cxx1112basic_stringIcSt11char_traitsIcESaIcEEEESt10_Select1stIS8_ESt4lessIiESaIS8_EE8_M_eraseEPSt13_Rb_tree_nodeIS8_E(%"class.std::_Rb_tree"* nonnull align 8 dereferenceable(48) %5, %"struct.std::_Rb_tree_node.15"* %6)
          to label %7 unwind label %9, !llfi_index !629

7:                                                ; preds = %1
  %8 = getelementptr inbounds %"class.std::_Rb_tree", %"class.std::_Rb_tree"* %5, i32 0, i32 0, !llfi_index !630
  call void @_ZNSt8_Rb_treeIiSt4pairIKiNSt7__cxx1112basic_stringIcSt11char_traitsIcESaIcEEEESt10_Select1stIS8_ESt4lessIiESaIS8_EE13_Rb_tree_implISC_Lb1EED2Ev(%"struct.std::_Rb_tree<std::__cxx11::basic_string<char>, std::pair<const std::__cxx11::basic_string<char>, int>, std::_Select1st<std::pair<const std::__cxx11::basic_string<char>, int>>, std::less<std::__cxx11::basic_string<char>>>::_Rb_tree_impl"* nonnull align 8 dereferenceable(48) %8) #2, !llfi_index !631
  ret void, !llfi_index !632

9:                                                ; preds = %1
  %10 = landingpad { i8*, i32 }
          catch i8* null, !llfi_index !633
  %11 = extractvalue { i8*, i32 } %10, 0, !llfi_index !634
  store i8* %11, i8** %3, align 8, !llfi_index !635
  %12 = extractvalue { i8*, i32 } %10, 1, !llfi_index !636
  store i32 %12, i32* %4, align 4, !llfi_index !637
  %13 = getelementptr inbounds %"class.std::_Rb_tree", %"class.std::_Rb_tree"* %5, i32 0, i32 0, !llfi_index !638
  call void @_ZNSt8_Rb_treeIiSt4pairIKiNSt7__cxx1112basic_stringIcSt11char_traitsIcESaIcEEEESt10_Select1stIS8_ESt4lessIiESaIS8_EE13_Rb_tree_implISC_Lb1EED2Ev(%"struct.std::_Rb_tree<std::__cxx11::basic_string<char>, std::pair<const std::__cxx11::basic_string<char>, int>, std::_Select1st<std::pair<const std::__cxx11::basic_string<char>, int>>, std::less<std::__cxx11::basic_string<char>>>::_Rb_tree_impl"* nonnull align 8 dereferenceable(48) %13) #2, !llfi_index !639
  br label %14, !llfi_index !640

14:                                               ; preds = %9
  %15 = load i8*, i8** %3, align 8, !llfi_index !641
  call void @__clang_call_terminate(i8* %15) #15, !llfi_index !642
  unreachable, !llfi_index !643
}

; Function Attrs: mustprogress noinline nounwind uwtable
define linkonce_odr dso_local %"struct.std::_Rb_tree_node.15"* @_ZNSt8_Rb_treeIiSt4pairIKiNSt7__cxx1112basic_stringIcSt11char_traitsIcESaIcEEEESt10_Select1stIS8_ESt4lessIiESaIS8_EE8_M_beginEv(%"class.std::_Rb_tree"* nonnull align 8 dereferenceable(48) %0) #6 comdat align 2 {
  %2 = alloca %"class.std::_Rb_tree"*, align 8, !llfi_index !644
  store %"class.std::_Rb_tree"* %0, %"class.std::_Rb_tree"** %2, align 8, !llfi_index !645
  %3 = load %"class.std::_Rb_tree"*, %"class.std::_Rb_tree"** %2, align 8, !llfi_index !646
  %4 = getelementptr inbounds %"class.std::_Rb_tree", %"class.std::_Rb_tree"* %3, i32 0, i32 0, !llfi_index !647
  %5 = bitcast %"struct.std::_Rb_tree<std::__cxx11::basic_string<char>, std::pair<const std::__cxx11::basic_string<char>, int>, std::_Select1st<std::pair<const std::__cxx11::basic_string<char>, int>>, std::less<std::__cxx11::basic_string<char>>>::_Rb_tree_impl"* %4 to i8*, !llfi_index !648
  %6 = getelementptr inbounds i8, i8* %5, i64 8, !llfi_index !649
  %7 = bitcast i8* %6 to %"struct.std::_Rb_tree_header"*, !llfi_index !650
  %8 = getelementptr inbounds %"struct.std::_Rb_tree_header", %"struct.std::_Rb_tree_header"* %7, i32 0, i32 0, !llfi_index !651
  %9 = getelementptr inbounds %"struct.std::_Rb_tree_node_base", %"struct.std::_Rb_tree_node_base"* %8, i32 0, i32 1, !llfi_index !652
  %10 = load %"struct.std::_Rb_tree_node_base"*, %"struct.std::_Rb_tree_node_base"** %9, align 8, !llfi_index !653
  %11 = bitcast %"struct.std::_Rb_tree_node_base"* %10 to %"struct.std::_Rb_tree_node.15"*, !llfi_index !654
  ret %"struct.std::_Rb_tree_node.15"* %11, !llfi_index !655
}

; Function Attrs: mustprogress noinline uwtable
define linkonce_odr dso_local void @_ZNSt8_Rb_treeIiSt4pairIKiNSt7__cxx1112basic_stringIcSt11char_traitsIcESaIcEEEESt10_Select1stIS8_ESt4lessIiESaIS8_EE8_M_eraseEPSt13_Rb_tree_nodeIS8_E(%"class.std::_Rb_tree"* nonnull align 8 dereferenceable(48) %0, %"struct.std::_Rb_tree_node.15"* %1) #4 comdat align 2 {
  %3 = alloca %"class.std::_Rb_tree"*, align 8, !llfi_index !656
  %4 = alloca %"struct.std::_Rb_tree_node.15"*, align 8, !llfi_index !657
  %5 = alloca %"struct.std::_Rb_tree_node.15"*, align 8, !llfi_index !658
  store %"class.std::_Rb_tree"* %0, %"class.std::_Rb_tree"** %3, align 8, !llfi_index !659
  store %"struct.std::_Rb_tree_node.15"* %1, %"struct.std::_Rb_tree_node.15"** %4, align 8, !llfi_index !660
  %6 = load %"class.std::_Rb_tree"*, %"class.std::_Rb_tree"** %3, align 8, !llfi_index !661
  br label %7, !llfi_index !662

7:                                                ; preds = %10, %2
  %8 = load %"struct.std::_Rb_tree_node.15"*, %"struct.std::_Rb_tree_node.15"** %4, align 8, !llfi_index !663
  %9 = icmp ne %"struct.std::_Rb_tree_node.15"* %8, null, !llfi_index !664
  br i1 %9, label %10, label %19, !llfi_index !665

10:                                               ; preds = %7
  %11 = load %"struct.std::_Rb_tree_node.15"*, %"struct.std::_Rb_tree_node.15"** %4, align 8, !llfi_index !666
  %12 = bitcast %"struct.std::_Rb_tree_node.15"* %11 to %"struct.std::_Rb_tree_node_base"*, !llfi_index !667
  %13 = call %"struct.std::_Rb_tree_node.15"* @_ZNSt8_Rb_treeIiSt4pairIKiNSt7__cxx1112basic_stringIcSt11char_traitsIcESaIcEEEESt10_Select1stIS8_ESt4lessIiESaIS8_EE8_S_rightEPSt18_Rb_tree_node_base(%"struct.std::_Rb_tree_node_base"* %12) #2, !llfi_index !668
  call void @_ZNSt8_Rb_treeIiSt4pairIKiNSt7__cxx1112basic_stringIcSt11char_traitsIcESaIcEEEESt10_Select1stIS8_ESt4lessIiESaIS8_EE8_M_eraseEPSt13_Rb_tree_nodeIS8_E(%"class.std::_Rb_tree"* nonnull align 8 dereferenceable(48) %6, %"struct.std::_Rb_tree_node.15"* %13), !llfi_index !669
  %14 = load %"struct.std::_Rb_tree_node.15"*, %"struct.std::_Rb_tree_node.15"** %4, align 8, !llfi_index !670
  %15 = bitcast %"struct.std::_Rb_tree_node.15"* %14 to %"struct.std::_Rb_tree_node_base"*, !llfi_index !671
  %16 = call %"struct.std::_Rb_tree_node.15"* @_ZNSt8_Rb_treeIiSt4pairIKiNSt7__cxx1112basic_stringIcSt11char_traitsIcESaIcEEEESt10_Select1stIS8_ESt4lessIiESaIS8_EE7_S_leftEPSt18_Rb_tree_node_base(%"struct.std::_Rb_tree_node_base"* %15) #2, !llfi_index !672
  store %"struct.std::_Rb_tree_node.15"* %16, %"struct.std::_Rb_tree_node.15"** %5, align 8, !llfi_index !673
  %17 = load %"struct.std::_Rb_tree_node.15"*, %"struct.std::_Rb_tree_node.15"** %4, align 8, !llfi_index !674
  call void @_ZNSt8_Rb_treeIiSt4pairIKiNSt7__cxx1112basic_stringIcSt11char_traitsIcESaIcEEEESt10_Select1stIS8_ESt4lessIiESaIS8_EE12_M_drop_nodeEPSt13_Rb_tree_nodeIS8_E(%"class.std::_Rb_tree"* nonnull align 8 dereferenceable(48) %6, %"struct.std::_Rb_tree_node.15"* %17) #2, !llfi_index !675
  %18 = load %"struct.std::_Rb_tree_node.15"*, %"struct.std::_Rb_tree_node.15"** %5, align 8, !llfi_index !676
  store %"struct.std::_Rb_tree_node.15"* %18, %"struct.std::_Rb_tree_node.15"** %4, align 8, !llfi_index !677
  br label %7, !llvm.loop !678, !llfi_index !679

19:                                               ; preds = %7
  ret void, !llfi_index !680
}

; Function Attrs: noinline nounwind uwtable
define linkonce_odr dso_local void @_ZNSt8_Rb_treeIiSt4pairIKiNSt7__cxx1112basic_stringIcSt11char_traitsIcESaIcEEEESt10_Select1stIS8_ESt4lessIiESaIS8_EE13_Rb_tree_implISC_Lb1EED2Ev(%"struct.std::_Rb_tree<std::__cxx11::basic_string<char>, std::pair<const std::__cxx11::basic_string<char>, int>, std::_Select1st<std::pair<const std::__cxx11::basic_string<char>, int>>, std::less<std::__cxx11::basic_string<char>>>::_Rb_tree_impl"* nonnull align 8 dereferenceable(48) %0) unnamed_addr #5 comdat align 2 {
  %2 = alloca %"struct.std::_Rb_tree<std::__cxx11::basic_string<char>, std::pair<const std::__cxx11::basic_string<char>, int>, std::_Select1st<std::pair<const std::__cxx11::basic_string<char>, int>>, std::less<std::__cxx11::basic_string<char>>>::_Rb_tree_impl"*, align 8, !llfi_index !681
  store %"struct.std::_Rb_tree<std::__cxx11::basic_string<char>, std::pair<const std::__cxx11::basic_string<char>, int>, std::_Select1st<std::pair<const std::__cxx11::basic_string<char>, int>>, std::less<std::__cxx11::basic_string<char>>>::_Rb_tree_impl"* %0, %"struct.std::_Rb_tree<std::__cxx11::basic_string<char>, std::pair<const std::__cxx11::basic_string<char>, int>, std::_Select1st<std::pair<const std::__cxx11::basic_string<char>, int>>, std::less<std::__cxx11::basic_string<char>>>::_Rb_tree_impl"** %2, align 8, !llfi_index !682
  %3 = load %"struct.std::_Rb_tree<std::__cxx11::basic_string<char>, std::pair<const std::__cxx11::basic_string<char>, int>, std::_Select1st<std::pair<const std::__cxx11::basic_string<char>, int>>, std::less<std::__cxx11::basic_string<char>>>::_Rb_tree_impl"*, %"struct.std::_Rb_tree<std::__cxx11::basic_string<char>, std::pair<const std::__cxx11::basic_string<char>, int>, std::_Select1st<std::pair<const std::__cxx11::basic_string<char>, int>>, std::less<std::__cxx11::basic_string<char>>>::_Rb_tree_impl"** %2, align 8, !llfi_index !683
  %4 = bitcast %"struct.std::_Rb_tree<std::__cxx11::basic_string<char>, std::pair<const std::__cxx11::basic_string<char>, int>, std::_Select1st<std::pair<const std::__cxx11::basic_string<char>, int>>, std::less<std::__cxx11::basic_string<char>>>::_Rb_tree_impl"* %3 to %"class.std::ios_base::Init"*, !llfi_index !684
  call void @_ZNSaISt13_Rb_tree_nodeISt4pairIKiNSt7__cxx1112basic_stringIcSt11char_traitsIcESaIcEEEEEED2Ev(%"class.std::ios_base::Init"* nonnull align 1 dereferenceable(1) %4) #2, !llfi_index !685
  ret void, !llfi_index !686
}

; Function Attrs: noinline nounwind uwtable
define linkonce_odr dso_local void @_ZNSaISt13_Rb_tree_nodeISt4pairIKiNSt7__cxx1112basic_stringIcSt11char_traitsIcESaIcEEEEEED2Ev(%"class.std::ios_base::Init"* nonnull align 1 dereferenceable(1) %0) unnamed_addr #5 comdat align 2 {
  %2 = alloca %"class.std::ios_base::Init"*, align 8, !llfi_index !687
  store %"class.std::ios_base::Init"* %0, %"class.std::ios_base::Init"** %2, align 8, !llfi_index !688
  %3 = load %"class.std::ios_base::Init"*, %"class.std::ios_base::Init"** %2, align 8, !llfi_index !689
  %4 = bitcast %"class.std::ios_base::Init"* %3 to %"class.std::ios_base::Init"*, !llfi_index !690
  call void @_ZN9__gnu_cxx13new_allocatorISt13_Rb_tree_nodeISt4pairIKiNSt7__cxx1112basic_stringIcSt11char_traitsIcESaIcEEEEEED2Ev(%"class.std::ios_base::Init"* nonnull align 1 dereferenceable(1) %4) #2, !llfi_index !691
  ret void, !llfi_index !692
}

; Function Attrs: noinline nounwind uwtable
define linkonce_odr dso_local void @_ZN9__gnu_cxx13new_allocatorISt13_Rb_tree_nodeISt4pairIKiNSt7__cxx1112basic_stringIcSt11char_traitsIcESaIcEEEEEED2Ev(%"class.std::ios_base::Init"* nonnull align 1 dereferenceable(1) %0) unnamed_addr #5 comdat align 2 {
  %2 = alloca %"class.std::ios_base::Init"*, align 8, !llfi_index !693
  store %"class.std::ios_base::Init"* %0, %"class.std::ios_base::Init"** %2, align 8, !llfi_index !694
  %3 = load %"class.std::ios_base::Init"*, %"class.std::ios_base::Init"** %2, align 8, !llfi_index !695
  ret void, !llfi_index !696
}

; Function Attrs: mustprogress noinline nounwind uwtable
define linkonce_odr dso_local %"struct.std::_Rb_tree_node.15"* @_ZNSt8_Rb_treeIiSt4pairIKiNSt7__cxx1112basic_stringIcSt11char_traitsIcESaIcEEEESt10_Select1stIS8_ESt4lessIiESaIS8_EE8_S_rightEPSt18_Rb_tree_node_base(%"struct.std::_Rb_tree_node_base"* %0) #6 comdat align 2 {
  %2 = alloca %"struct.std::_Rb_tree_node_base"*, align 8, !llfi_index !697
  store %"struct.std::_Rb_tree_node_base"* %0, %"struct.std::_Rb_tree_node_base"** %2, align 8, !llfi_index !698
  %3 = load %"struct.std::_Rb_tree_node_base"*, %"struct.std::_Rb_tree_node_base"** %2, align 8, !llfi_index !699
  %4 = getelementptr inbounds %"struct.std::_Rb_tree_node_base", %"struct.std::_Rb_tree_node_base"* %3, i32 0, i32 3, !llfi_index !700
  %5 = load %"struct.std::_Rb_tree_node_base"*, %"struct.std::_Rb_tree_node_base"** %4, align 8, !llfi_index !701
  %6 = bitcast %"struct.std::_Rb_tree_node_base"* %5 to %"struct.std::_Rb_tree_node.15"*, !llfi_index !702
  ret %"struct.std::_Rb_tree_node.15"* %6, !llfi_index !703
}

; Function Attrs: mustprogress noinline nounwind uwtable
define linkonce_odr dso_local %"struct.std::_Rb_tree_node.15"* @_ZNSt8_Rb_treeIiSt4pairIKiNSt7__cxx1112basic_stringIcSt11char_traitsIcESaIcEEEESt10_Select1stIS8_ESt4lessIiESaIS8_EE7_S_leftEPSt18_Rb_tree_node_base(%"struct.std::_Rb_tree_node_base"* %0) #6 comdat align 2 {
  %2 = alloca %"struct.std::_Rb_tree_node_base"*, align 8, !llfi_index !704
  store %"struct.std::_Rb_tree_node_base"* %0, %"struct.std::_Rb_tree_node_base"** %2, align 8, !llfi_index !705
  %3 = load %"struct.std::_Rb_tree_node_base"*, %"struct.std::_Rb_tree_node_base"** %2, align 8, !llfi_index !706
  %4 = getelementptr inbounds %"struct.std::_Rb_tree_node_base", %"struct.std::_Rb_tree_node_base"* %3, i32 0, i32 2, !llfi_index !707
  %5 = load %"struct.std::_Rb_tree_node_base"*, %"struct.std::_Rb_tree_node_base"** %4, align 8, !llfi_index !708
  %6 = bitcast %"struct.std::_Rb_tree_node_base"* %5 to %"struct.std::_Rb_tree_node.15"*, !llfi_index !709
  ret %"struct.std::_Rb_tree_node.15"* %6, !llfi_index !710
}

; Function Attrs: mustprogress noinline nounwind uwtable
define linkonce_odr dso_local void @_ZNSt8_Rb_treeIiSt4pairIKiNSt7__cxx1112basic_stringIcSt11char_traitsIcESaIcEEEESt10_Select1stIS8_ESt4lessIiESaIS8_EE12_M_drop_nodeEPSt13_Rb_tree_nodeIS8_E(%"class.std::_Rb_tree"* nonnull align 8 dereferenceable(48) %0, %"struct.std::_Rb_tree_node.15"* %1) #6 comdat align 2 {
  %3 = alloca %"class.std::_Rb_tree"*, align 8, !llfi_index !711
  %4 = alloca %"struct.std::_Rb_tree_node.15"*, align 8, !llfi_index !712
  store %"class.std::_Rb_tree"* %0, %"class.std::_Rb_tree"** %3, align 8, !llfi_index !713
  store %"struct.std::_Rb_tree_node.15"* %1, %"struct.std::_Rb_tree_node.15"** %4, align 8, !llfi_index !714
  %5 = load %"class.std::_Rb_tree"*, %"class.std::_Rb_tree"** %3, align 8, !llfi_index !715
  %6 = load %"struct.std::_Rb_tree_node.15"*, %"struct.std::_Rb_tree_node.15"** %4, align 8, !llfi_index !716
  call void @_ZNSt8_Rb_treeIiSt4pairIKiNSt7__cxx1112basic_stringIcSt11char_traitsIcESaIcEEEESt10_Select1stIS8_ESt4lessIiESaIS8_EE15_M_destroy_nodeEPSt13_Rb_tree_nodeIS8_E(%"class.std::_Rb_tree"* nonnull align 8 dereferenceable(48) %5, %"struct.std::_Rb_tree_node.15"* %6) #2, !llfi_index !717
  %7 = load %"struct.std::_Rb_tree_node.15"*, %"struct.std::_Rb_tree_node.15"** %4, align 8, !llfi_index !718
  call void @_ZNSt8_Rb_treeIiSt4pairIKiNSt7__cxx1112basic_stringIcSt11char_traitsIcESaIcEEEESt10_Select1stIS8_ESt4lessIiESaIS8_EE11_M_put_nodeEPSt13_Rb_tree_nodeIS8_E(%"class.std::_Rb_tree"* nonnull align 8 dereferenceable(48) %5, %"struct.std::_Rb_tree_node.15"* %7) #2, !llfi_index !719
  ret void, !llfi_index !720
}

; Function Attrs: mustprogress noinline nounwind uwtable
define linkonce_odr dso_local void @_ZNSt8_Rb_treeIiSt4pairIKiNSt7__cxx1112basic_stringIcSt11char_traitsIcESaIcEEEESt10_Select1stIS8_ESt4lessIiESaIS8_EE15_M_destroy_nodeEPSt13_Rb_tree_nodeIS8_E(%"class.std::_Rb_tree"* nonnull align 8 dereferenceable(48) %0, %"struct.std::_Rb_tree_node.15"* %1) #6 comdat align 2 personality i8* bitcast (i32 (...)* @__gxx_personality_v0 to i8*) {
  %3 = alloca %"class.std::_Rb_tree"*, align 8, !llfi_index !721
  %4 = alloca %"struct.std::_Rb_tree_node.15"*, align 8, !llfi_index !722
  store %"class.std::_Rb_tree"* %0, %"class.std::_Rb_tree"** %3, align 8, !llfi_index !723
  store %"struct.std::_Rb_tree_node.15"* %1, %"struct.std::_Rb_tree_node.15"** %4, align 8, !llfi_index !724
  %5 = load %"class.std::_Rb_tree"*, %"class.std::_Rb_tree"** %3, align 8, !llfi_index !725
  %6 = call nonnull align 1 dereferenceable(1) %"class.std::ios_base::Init"* @_ZNSt8_Rb_treeIiSt4pairIKiNSt7__cxx1112basic_stringIcSt11char_traitsIcESaIcEEEESt10_Select1stIS8_ESt4lessIiESaIS8_EE21_M_get_Node_allocatorEv(%"class.std::_Rb_tree"* nonnull align 8 dereferenceable(48) %5) #2, !llfi_index !726
  %7 = load %"struct.std::_Rb_tree_node.15"*, %"struct.std::_Rb_tree_node.15"** %4, align 8, !llfi_index !727
  %8 = invoke %"struct.std::pair"* @_ZNSt13_Rb_tree_nodeISt4pairIKiNSt7__cxx1112basic_stringIcSt11char_traitsIcESaIcEEEEE9_M_valptrEv(%"struct.std::_Rb_tree_node.15"* nonnull align 8 dereferenceable(72) %7)
          to label %9 unwind label %11, !llfi_index !728

9:                                                ; preds = %2
  call void @_ZNSt16allocator_traitsISaISt13_Rb_tree_nodeISt4pairIKiNSt7__cxx1112basic_stringIcSt11char_traitsIcESaIcEEEEEEE7destroyIS9_EEvRSB_PT_(%"class.std::ios_base::Init"* nonnull align 1 dereferenceable(1) %6, %"struct.std::pair"* %8) #2, !llfi_index !729
  %10 = load %"struct.std::_Rb_tree_node.15"*, %"struct.std::_Rb_tree_node.15"** %4, align 8, !llfi_index !730
  ret void, !llfi_index !731

11:                                               ; preds = %2
  %12 = landingpad { i8*, i32 }
          catch i8* null, !llfi_index !732
  %13 = extractvalue { i8*, i32 } %12, 0, !llfi_index !733
  call void @__clang_call_terminate(i8* %13) #15, !llfi_index !734
  unreachable, !llfi_index !735
}

; Function Attrs: mustprogress noinline nounwind uwtable
define linkonce_odr dso_local void @_ZNSt8_Rb_treeIiSt4pairIKiNSt7__cxx1112basic_stringIcSt11char_traitsIcESaIcEEEESt10_Select1stIS8_ESt4lessIiESaIS8_EE11_M_put_nodeEPSt13_Rb_tree_nodeIS8_E(%"class.std::_Rb_tree"* nonnull align 8 dereferenceable(48) %0, %"struct.std::_Rb_tree_node.15"* %1) #6 comdat align 2 personality i8* bitcast (i32 (...)* @__gxx_personality_v0 to i8*) {
  %3 = alloca %"class.std::_Rb_tree"*, align 8, !llfi_index !736
  %4 = alloca %"struct.std::_Rb_tree_node.15"*, align 8, !llfi_index !737
  store %"class.std::_Rb_tree"* %0, %"class.std::_Rb_tree"** %3, align 8, !llfi_index !738
  store %"struct.std::_Rb_tree_node.15"* %1, %"struct.std::_Rb_tree_node.15"** %4, align 8, !llfi_index !739
  %5 = load %"class.std::_Rb_tree"*, %"class.std::_Rb_tree"** %3, align 8, !llfi_index !740
  %6 = call nonnull align 1 dereferenceable(1) %"class.std::ios_base::Init"* @_ZNSt8_Rb_treeIiSt4pairIKiNSt7__cxx1112basic_stringIcSt11char_traitsIcESaIcEEEESt10_Select1stIS8_ESt4lessIiESaIS8_EE21_M_get_Node_allocatorEv(%"class.std::_Rb_tree"* nonnull align 8 dereferenceable(48) %5) #2, !llfi_index !741
  %7 = load %"struct.std::_Rb_tree_node.15"*, %"struct.std::_Rb_tree_node.15"** %4, align 8, !llfi_index !742
  invoke void @_ZNSt16allocator_traitsISaISt13_Rb_tree_nodeISt4pairIKiNSt7__cxx1112basic_stringIcSt11char_traitsIcESaIcEEEEEEE10deallocateERSB_PSA_m(%"class.std::ios_base::Init"* nonnull align 1 dereferenceable(1) %6, %"struct.std::_Rb_tree_node.15"* %7, i64 1)
          to label %8 unwind label %9, !llfi_index !743

8:                                                ; preds = %2
  ret void, !llfi_index !744

9:                                                ; preds = %2
  %10 = landingpad { i8*, i32 }
          catch i8* null, !llfi_index !745
  %11 = extractvalue { i8*, i32 } %10, 0, !llfi_index !746
  call void @__clang_call_terminate(i8* %11) #15, !llfi_index !747
  unreachable, !llfi_index !748
}

; Function Attrs: mustprogress noinline nounwind uwtable
define linkonce_odr dso_local nonnull align 1 dereferenceable(1) %"class.std::ios_base::Init"* @_ZNSt8_Rb_treeIiSt4pairIKiNSt7__cxx1112basic_stringIcSt11char_traitsIcESaIcEEEESt10_Select1stIS8_ESt4lessIiESaIS8_EE21_M_get_Node_allocatorEv(%"class.std::_Rb_tree"* nonnull align 8 dereferenceable(48) %0) #6 comdat align 2 {
  %2 = alloca %"class.std::_Rb_tree"*, align 8, !llfi_index !749
  store %"class.std::_Rb_tree"* %0, %"class.std::_Rb_tree"** %2, align 8, !llfi_index !750
  %3 = load %"class.std::_Rb_tree"*, %"class.std::_Rb_tree"** %2, align 8, !llfi_index !751
  %4 = getelementptr inbounds %"class.std::_Rb_tree", %"class.std::_Rb_tree"* %3, i32 0, i32 0, !llfi_index !752
  %5 = bitcast %"struct.std::_Rb_tree<std::__cxx11::basic_string<char>, std::pair<const std::__cxx11::basic_string<char>, int>, std::_Select1st<std::pair<const std::__cxx11::basic_string<char>, int>>, std::less<std::__cxx11::basic_string<char>>>::_Rb_tree_impl"* %4 to %"class.std::ios_base::Init"*, !llfi_index !753
  ret %"class.std::ios_base::Init"* %5, !llfi_index !754
}

; Function Attrs: mustprogress noinline uwtable
define linkonce_odr dso_local void @_ZNSt16allocator_traitsISaISt13_Rb_tree_nodeISt4pairIKiNSt7__cxx1112basic_stringIcSt11char_traitsIcESaIcEEEEEEE10deallocateERSB_PSA_m(%"class.std::ios_base::Init"* nonnull align 1 dereferenceable(1) %0, %"struct.std::_Rb_tree_node.15"* %1, i64 %2) #4 comdat align 2 {
  %4 = alloca %"class.std::ios_base::Init"*, align 8, !llfi_index !755
  %5 = alloca %"struct.std::_Rb_tree_node.15"*, align 8, !llfi_index !756
  %6 = alloca i64, align 8, !llfi_index !757
  store %"class.std::ios_base::Init"* %0, %"class.std::ios_base::Init"** %4, align 8, !llfi_index !758
  store %"struct.std::_Rb_tree_node.15"* %1, %"struct.std::_Rb_tree_node.15"** %5, align 8, !llfi_index !759
  store i64 %2, i64* %6, align 8, !llfi_index !760
  %7 = load %"class.std::ios_base::Init"*, %"class.std::ios_base::Init"** %4, align 8, !llfi_index !761
  %8 = bitcast %"class.std::ios_base::Init"* %7 to %"class.std::ios_base::Init"*, !llfi_index !762
  %9 = load %"struct.std::_Rb_tree_node.15"*, %"struct.std::_Rb_tree_node.15"** %5, align 8, !llfi_index !763
  %10 = load i64, i64* %6, align 8, !llfi_index !764
  call void @_ZN9__gnu_cxx13new_allocatorISt13_Rb_tree_nodeISt4pairIKiNSt7__cxx1112basic_stringIcSt11char_traitsIcESaIcEEEEEE10deallocateEPSB_m(%"class.std::ios_base::Init"* nonnull align 1 dereferenceable(1) %8, %"struct.std::_Rb_tree_node.15"* %9, i64 %10), !llfi_index !765
  ret void, !llfi_index !766
}

; Function Attrs: mustprogress noinline nounwind uwtable
define linkonce_odr dso_local void @_ZN9__gnu_cxx13new_allocatorISt13_Rb_tree_nodeISt4pairIKiNSt7__cxx1112basic_stringIcSt11char_traitsIcESaIcEEEEEE10deallocateEPSB_m(%"class.std::ios_base::Init"* nonnull align 1 dereferenceable(1) %0, %"struct.std::_Rb_tree_node.15"* %1, i64 %2) #6 comdat align 2 {
  %4 = alloca %"class.std::ios_base::Init"*, align 8, !llfi_index !767
  %5 = alloca %"struct.std::_Rb_tree_node.15"*, align 8, !llfi_index !768
  %6 = alloca i64, align 8, !llfi_index !769
  store %"class.std::ios_base::Init"* %0, %"class.std::ios_base::Init"** %4, align 8, !llfi_index !770
  store %"struct.std::_Rb_tree_node.15"* %1, %"struct.std::_Rb_tree_node.15"** %5, align 8, !llfi_index !771
  store i64 %2, i64* %6, align 8, !llfi_index !772
  %7 = load %"class.std::ios_base::Init"*, %"class.std::ios_base::Init"** %4, align 8, !llfi_index !773
  %8 = load %"struct.std::_Rb_tree_node.15"*, %"struct.std::_Rb_tree_node.15"** %5, align 8, !llfi_index !774
  %9 = bitcast %"struct.std::_Rb_tree_node.15"* %8 to i8*, !llfi_index !775
  call void @_ZdlPv(i8* %9) #2, !llfi_index !776
  ret void, !llfi_index !777
}

; Function Attrs: mustprogress noinline nounwind uwtable
define linkonce_odr dso_local %"struct.std::pair"* @_ZNSt13_Rb_tree_nodeISt4pairIKiNSt7__cxx1112basic_stringIcSt11char_traitsIcESaIcEEEEE9_M_valptrEv(%"struct.std::_Rb_tree_node.15"* nonnull align 8 dereferenceable(72) %0) #6 comdat align 2 {
  %2 = alloca %"struct.std::_Rb_tree_node.15"*, align 8, !llfi_index !778
  store %"struct.std::_Rb_tree_node.15"* %0, %"struct.std::_Rb_tree_node.15"** %2, align 8, !llfi_index !779
  %3 = load %"struct.std::_Rb_tree_node.15"*, %"struct.std::_Rb_tree_node.15"** %2, align 8, !llfi_index !780
  %4 = getelementptr inbounds %"struct.std::_Rb_tree_node.15", %"struct.std::_Rb_tree_node.15"* %3, i32 0, i32 1, !llfi_index !781
  %5 = call %"struct.std::pair"* @_ZN9__gnu_cxx16__aligned_membufISt4pairIKiNSt7__cxx1112basic_stringIcSt11char_traitsIcESaIcEEEEE6_M_ptrEv(%"struct.__gnu_cxx::__aligned_membuf.16"* nonnull align 8 dereferenceable(40) %4) #2, !llfi_index !782
  ret %"struct.std::pair"* %5, !llfi_index !783
}

; Function Attrs: mustprogress noinline nounwind uwtable
define linkonce_odr dso_local void @_ZNSt16allocator_traitsISaISt13_Rb_tree_nodeISt4pairIKiNSt7__cxx1112basic_stringIcSt11char_traitsIcESaIcEEEEEEE7destroyIS9_EEvRSB_PT_(%"class.std::ios_base::Init"* nonnull align 1 dereferenceable(1) %0, %"struct.std::pair"* %1) #6 comdat align 2 {
  %3 = alloca %"class.std::ios_base::Init"*, align 8, !llfi_index !784
  %4 = alloca %"struct.std::pair"*, align 8, !llfi_index !785
  store %"class.std::ios_base::Init"* %0, %"class.std::ios_base::Init"** %3, align 8, !llfi_index !786
  store %"struct.std::pair"* %1, %"struct.std::pair"** %4, align 8, !llfi_index !787
  %5 = load %"class.std::ios_base::Init"*, %"class.std::ios_base::Init"** %3, align 8, !llfi_index !788
  %6 = bitcast %"class.std::ios_base::Init"* %5 to %"class.std::ios_base::Init"*, !llfi_index !789
  %7 = load %"struct.std::pair"*, %"struct.std::pair"** %4, align 8, !llfi_index !790
  call void @_ZN9__gnu_cxx13new_allocatorISt13_Rb_tree_nodeISt4pairIKiNSt7__cxx1112basic_stringIcSt11char_traitsIcESaIcEEEEEE7destroyISA_EEvPT_(%"class.std::ios_base::Init"* nonnull align 1 dereferenceable(1) %6, %"struct.std::pair"* %7) #2, !llfi_index !791
  ret void, !llfi_index !792
}

; Function Attrs: mustprogress noinline nounwind uwtable
define linkonce_odr dso_local void @_ZN9__gnu_cxx13new_allocatorISt13_Rb_tree_nodeISt4pairIKiNSt7__cxx1112basic_stringIcSt11char_traitsIcESaIcEEEEEE7destroyISA_EEvPT_(%"class.std::ios_base::Init"* nonnull align 1 dereferenceable(1) %0, %"struct.std::pair"* %1) #6 comdat align 2 {
  %3 = alloca %"class.std::ios_base::Init"*, align 8, !llfi_index !793
  %4 = alloca %"struct.std::pair"*, align 8, !llfi_index !794
  store %"class.std::ios_base::Init"* %0, %"class.std::ios_base::Init"** %3, align 8, !llfi_index !795
  store %"struct.std::pair"* %1, %"struct.std::pair"** %4, align 8, !llfi_index !796
  %5 = load %"class.std::ios_base::Init"*, %"class.std::ios_base::Init"** %3, align 8, !llfi_index !797
  %6 = load %"struct.std::pair"*, %"struct.std::pair"** %4, align 8, !llfi_index !798
  call void @_ZNSt4pairIKiNSt7__cxx1112basic_stringIcSt11char_traitsIcESaIcEEEED2Ev(%"struct.std::pair"* nonnull align 8 dereferenceable(40) %6) #2, !llfi_index !799
  ret void, !llfi_index !800
}

; Function Attrs: noinline nounwind uwtable
define linkonce_odr dso_local void @_ZNSt4pairIKiNSt7__cxx1112basic_stringIcSt11char_traitsIcESaIcEEEED2Ev(%"struct.std::pair"* nonnull align 8 dereferenceable(40) %0) unnamed_addr #5 comdat align 2 {
  %2 = alloca %"struct.std::pair"*, align 8, !llfi_index !801
  store %"struct.std::pair"* %0, %"struct.std::pair"** %2, align 8, !llfi_index !802
  %3 = load %"struct.std::pair"*, %"struct.std::pair"** %2, align 8, !llfi_index !803
  %4 = getelementptr inbounds %"struct.std::pair", %"struct.std::pair"* %3, i32 0, i32 1, !llfi_index !804
  call void @_ZNSt7__cxx1112basic_stringIcSt11char_traitsIcESaIcEED1Ev(%"class.std::__cxx11::basic_string"* nonnull align 8 dereferenceable(32) %4) #2, !llfi_index !805
  ret void, !llfi_index !806
}

; Function Attrs: mustprogress noinline nounwind uwtable
define linkonce_odr dso_local %"struct.std::pair"* @_ZN9__gnu_cxx16__aligned_membufISt4pairIKiNSt7__cxx1112basic_stringIcSt11char_traitsIcESaIcEEEEE6_M_ptrEv(%"struct.__gnu_cxx::__aligned_membuf.16"* nonnull align 8 dereferenceable(40) %0) #6 comdat align 2 {
  %2 = alloca %"struct.__gnu_cxx::__aligned_membuf.16"*, align 8, !llfi_index !807
  store %"struct.__gnu_cxx::__aligned_membuf.16"* %0, %"struct.__gnu_cxx::__aligned_membuf.16"** %2, align 8, !llfi_index !808
  %3 = load %"struct.__gnu_cxx::__aligned_membuf.16"*, %"struct.__gnu_cxx::__aligned_membuf.16"** %2, align 8, !llfi_index !809
  %4 = call i8* @_ZN9__gnu_cxx16__aligned_membufISt4pairIKiNSt7__cxx1112basic_stringIcSt11char_traitsIcESaIcEEEEE7_M_addrEv(%"struct.__gnu_cxx::__aligned_membuf.16"* nonnull align 8 dereferenceable(40) %3) #2, !llfi_index !810
  %5 = bitcast i8* %4 to %"struct.std::pair"*, !llfi_index !811
  ret %"struct.std::pair"* %5, !llfi_index !812
}

; Function Attrs: mustprogress noinline nounwind uwtable
define linkonce_odr dso_local i8* @_ZN9__gnu_cxx16__aligned_membufISt4pairIKiNSt7__cxx1112basic_stringIcSt11char_traitsIcESaIcEEEEE7_M_addrEv(%"struct.__gnu_cxx::__aligned_membuf.16"* nonnull align 8 dereferenceable(40) %0) #6 comdat align 2 {
  %2 = alloca %"struct.__gnu_cxx::__aligned_membuf.16"*, align 8, !llfi_index !813
  store %"struct.__gnu_cxx::__aligned_membuf.16"* %0, %"struct.__gnu_cxx::__aligned_membuf.16"** %2, align 8, !llfi_index !814
  %3 = load %"struct.__gnu_cxx::__aligned_membuf.16"*, %"struct.__gnu_cxx::__aligned_membuf.16"** %2, align 8, !llfi_index !815
  %4 = getelementptr inbounds %"struct.__gnu_cxx::__aligned_membuf.16", %"struct.__gnu_cxx::__aligned_membuf.16"* %3, i32 0, i32 0, !llfi_index !816
  %5 = bitcast [40 x i8]* %4 to i8*, !llfi_index !817
  ret i8* %5, !llfi_index !818
}

; Function Attrs: mustprogress noinline nounwind uwtable
define linkonce_odr dso_local %"struct.std::_Rb_tree_node_base"* @_ZNSt8_Rb_treeIiSt4pairIKiNSt7__cxx1112basic_stringIcSt11char_traitsIcESaIcEEEESt10_Select1stIS8_ESt4lessIiESaIS8_EE5beginEv(%"class.std::_Rb_tree"* nonnull align 8 dereferenceable(48) %0) #6 comdat align 2 {
  %2 = alloca %"struct.std::_Rb_tree_iterator", align 8, !llfi_index !819
  %3 = alloca %"class.std::_Rb_tree"*, align 8, !llfi_index !820
  store %"class.std::_Rb_tree"* %0, %"class.std::_Rb_tree"** %3, align 8, !llfi_index !821
  %4 = load %"class.std::_Rb_tree"*, %"class.std::_Rb_tree"** %3, align 8, !llfi_index !822
  %5 = getelementptr inbounds %"class.std::_Rb_tree", %"class.std::_Rb_tree"* %4, i32 0, i32 0, !llfi_index !823
  %6 = bitcast %"struct.std::_Rb_tree<std::__cxx11::basic_string<char>, std::pair<const std::__cxx11::basic_string<char>, int>, std::_Select1st<std::pair<const std::__cxx11::basic_string<char>, int>>, std::less<std::__cxx11::basic_string<char>>>::_Rb_tree_impl"* %5 to i8*, !llfi_index !824
  %7 = getelementptr inbounds i8, i8* %6, i64 8, !llfi_index !825
  %8 = bitcast i8* %7 to %"struct.std::_Rb_tree_header"*, !llfi_index !826
  %9 = getelementptr inbounds %"struct.std::_Rb_tree_header", %"struct.std::_Rb_tree_header"* %8, i32 0, i32 0, !llfi_index !827
  %10 = getelementptr inbounds %"struct.std::_Rb_tree_node_base", %"struct.std::_Rb_tree_node_base"* %9, i32 0, i32 2, !llfi_index !828
  %11 = load %"struct.std::_Rb_tree_node_base"*, %"struct.std::_Rb_tree_node_base"** %10, align 8, !llfi_index !829
  call void @_ZNSt17_Rb_tree_iteratorISt4pairIKiNSt7__cxx1112basic_stringIcSt11char_traitsIcESaIcEEEEEC2EPSt18_Rb_tree_node_base(%"struct.std::_Rb_tree_iterator"* nonnull align 8 dereferenceable(8) %2, %"struct.std::_Rb_tree_node_base"* %11) #2, !llfi_index !830
  %12 = getelementptr inbounds %"struct.std::_Rb_tree_iterator", %"struct.std::_Rb_tree_iterator"* %2, i32 0, i32 0, !llfi_index !831
  %13 = load %"struct.std::_Rb_tree_node_base"*, %"struct.std::_Rb_tree_node_base"** %12, align 8, !llfi_index !832
  ret %"struct.std::_Rb_tree_node_base"* %13, !llfi_index !833
}

; Function Attrs: noinline nounwind uwtable
define linkonce_odr dso_local void @_ZNSt17_Rb_tree_iteratorISt4pairIKiNSt7__cxx1112basic_stringIcSt11char_traitsIcESaIcEEEEEC2EPSt18_Rb_tree_node_base(%"struct.std::_Rb_tree_iterator"* nonnull align 8 dereferenceable(8) %0, %"struct.std::_Rb_tree_node_base"* %1) unnamed_addr #5 comdat align 2 {
  %3 = alloca %"struct.std::_Rb_tree_iterator"*, align 8, !llfi_index !834
  %4 = alloca %"struct.std::_Rb_tree_node_base"*, align 8, !llfi_index !835
  store %"struct.std::_Rb_tree_iterator"* %0, %"struct.std::_Rb_tree_iterator"** %3, align 8, !llfi_index !836
  store %"struct.std::_Rb_tree_node_base"* %1, %"struct.std::_Rb_tree_node_base"** %4, align 8, !llfi_index !837
  %5 = load %"struct.std::_Rb_tree_iterator"*, %"struct.std::_Rb_tree_iterator"** %3, align 8, !llfi_index !838
  %6 = getelementptr inbounds %"struct.std::_Rb_tree_iterator", %"struct.std::_Rb_tree_iterator"* %5, i32 0, i32 0, !llfi_index !839
  %7 = load %"struct.std::_Rb_tree_node_base"*, %"struct.std::_Rb_tree_node_base"** %4, align 8, !llfi_index !840
  store %"struct.std::_Rb_tree_node_base"* %7, %"struct.std::_Rb_tree_node_base"** %6, align 8, !llfi_index !841
  ret void, !llfi_index !842
}

; Function Attrs: mustprogress noinline nounwind uwtable
define linkonce_odr dso_local i64 @_ZNKSt8_Rb_treeINSt7__cxx1112basic_stringIcSt11char_traitsIcESaIcEEESt4pairIKS5_iESt10_Select1stIS8_ESt4lessIS5_ESaIS8_EE4sizeEv(%"class.std::_Rb_tree"* nonnull align 8 dereferenceable(48) %0) #6 comdat align 2 {
  %2 = alloca %"class.std::_Rb_tree"*, align 8, !llfi_index !843
  store %"class.std::_Rb_tree"* %0, %"class.std::_Rb_tree"** %2, align 8, !llfi_index !844
  %3 = load %"class.std::_Rb_tree"*, %"class.std::_Rb_tree"** %2, align 8, !llfi_index !845
  %4 = getelementptr inbounds %"class.std::_Rb_tree", %"class.std::_Rb_tree"* %3, i32 0, i32 0, !llfi_index !846
  %5 = bitcast %"struct.std::_Rb_tree<std::__cxx11::basic_string<char>, std::pair<const std::__cxx11::basic_string<char>, int>, std::_Select1st<std::pair<const std::__cxx11::basic_string<char>, int>>, std::less<std::__cxx11::basic_string<char>>>::_Rb_tree_impl"* %4 to i8*, !llfi_index !847
  %6 = getelementptr inbounds i8, i8* %5, i64 8, !llfi_index !848
  %7 = bitcast i8* %6 to %"struct.std::_Rb_tree_header"*, !llfi_index !849
  %8 = getelementptr inbounds %"struct.std::_Rb_tree_header", %"struct.std::_Rb_tree_header"* %7, i32 0, i32 1, !llfi_index !850
  %9 = load i64, i64* %8, align 8, !llfi_index !851
  ret i64 %9, !llfi_index !852
}

; Function Attrs: mustprogress noinline uwtable
define linkonce_odr dso_local %"struct.std::_Rb_tree_node_base"* @_ZNSt3mapIiNSt7__cxx1112basic_stringIcSt11char_traitsIcESaIcEEESt4lessIiESaISt4pairIKiS5_EEE11lower_boundERS9_(%"class.std::map"* nonnull align 8 dereferenceable(48) %0, i32* nonnull align 4 dereferenceable(4) %1) #4 comdat align 2 {
  %3 = alloca %"struct.std::_Rb_tree_iterator", align 8, !llfi_index !853
  %4 = alloca %"class.std::map"*, align 8, !llfi_index !854
  %5 = alloca i32*, align 8, !llfi_index !855
  store %"class.std::map"* %0, %"class.std::map"** %4, align 8, !llfi_index !856
  store i32* %1, i32** %5, align 8, !llfi_index !857
  %6 = load %"class.std::map"*, %"class.std::map"** %4, align 8, !llfi_index !858
  %7 = getelementptr inbounds %"class.std::map", %"class.std::map"* %6, i32 0, i32 0, !llfi_index !859
  %8 = load i32*, i32** %5, align 8, !llfi_index !860
  %9 = call %"struct.std::_Rb_tree_node_base"* @_ZNSt8_Rb_treeIiSt4pairIKiNSt7__cxx1112basic_stringIcSt11char_traitsIcESaIcEEEESt10_Select1stIS8_ESt4lessIiESaIS8_EE11lower_boundERS1_(%"class.std::_Rb_tree"* nonnull align 8 dereferenceable(48) %7, i32* nonnull align 4 dereferenceable(4) %8), !llfi_index !861
  %10 = getelementptr inbounds %"struct.std::_Rb_tree_iterator", %"struct.std::_Rb_tree_iterator"* %3, i32 0, i32 0, !llfi_index !862
  store %"struct.std::_Rb_tree_node_base"* %9, %"struct.std::_Rb_tree_node_base"** %10, align 8, !llfi_index !863
  %11 = getelementptr inbounds %"struct.std::_Rb_tree_iterator", %"struct.std::_Rb_tree_iterator"* %3, i32 0, i32 0, !llfi_index !864
  %12 = load %"struct.std::_Rb_tree_node_base"*, %"struct.std::_Rb_tree_node_base"** %11, align 8, !llfi_index !865
  ret %"struct.std::_Rb_tree_node_base"* %12, !llfi_index !866
}

; Function Attrs: mustprogress noinline nounwind uwtable
define linkonce_odr dso_local %"struct.std::_Rb_tree_node_base"* @_ZNSt3mapIiNSt7__cxx1112basic_stringIcSt11char_traitsIcESaIcEEESt4lessIiESaISt4pairIKiS5_EEE3endEv(%"class.std::map"* nonnull align 8 dereferenceable(48) %0) #6 comdat align 2 {
  %2 = alloca %"struct.std::_Rb_tree_iterator", align 8, !llfi_index !867
  %3 = alloca %"class.std::map"*, align 8, !llfi_index !868
  store %"class.std::map"* %0, %"class.std::map"** %3, align 8, !llfi_index !869
  %4 = load %"class.std::map"*, %"class.std::map"** %3, align 8, !llfi_index !870
  %5 = getelementptr inbounds %"class.std::map", %"class.std::map"* %4, i32 0, i32 0, !llfi_index !871
  %6 = call %"struct.std::_Rb_tree_node_base"* @_ZNSt8_Rb_treeIiSt4pairIKiNSt7__cxx1112basic_stringIcSt11char_traitsIcESaIcEEEESt10_Select1stIS8_ESt4lessIiESaIS8_EE3endEv(%"class.std::_Rb_tree"* nonnull align 8 dereferenceable(48) %5) #2, !llfi_index !872
  %7 = getelementptr inbounds %"struct.std::_Rb_tree_iterator", %"struct.std::_Rb_tree_iterator"* %2, i32 0, i32 0, !llfi_index !873
  store %"struct.std::_Rb_tree_node_base"* %6, %"struct.std::_Rb_tree_node_base"** %7, align 8, !llfi_index !874
  %8 = getelementptr inbounds %"struct.std::_Rb_tree_iterator", %"struct.std::_Rb_tree_iterator"* %2, i32 0, i32 0, !llfi_index !875
  %9 = load %"struct.std::_Rb_tree_node_base"*, %"struct.std::_Rb_tree_node_base"** %8, align 8, !llfi_index !876
  ret %"struct.std::_Rb_tree_node_base"* %9, !llfi_index !877
}

; Function Attrs: mustprogress noinline nounwind uwtable
define linkonce_odr dso_local zeroext i1 @_ZSteqRKSt17_Rb_tree_iteratorISt4pairIKiNSt7__cxx1112basic_stringIcSt11char_traitsIcESaIcEEEEESB_(%"struct.std::_Rb_tree_iterator"* nonnull align 8 dereferenceable(8) %0, %"struct.std::_Rb_tree_iterator"* nonnull align 8 dereferenceable(8) %1) #6 comdat {
  %3 = alloca %"struct.std::_Rb_tree_iterator"*, align 8, !llfi_index !878
  %4 = alloca %"struct.std::_Rb_tree_iterator"*, align 8, !llfi_index !879
  store %"struct.std::_Rb_tree_iterator"* %0, %"struct.std::_Rb_tree_iterator"** %3, align 8, !llfi_index !880
  store %"struct.std::_Rb_tree_iterator"* %1, %"struct.std::_Rb_tree_iterator"** %4, align 8, !llfi_index !881
  %5 = load %"struct.std::_Rb_tree_iterator"*, %"struct.std::_Rb_tree_iterator"** %3, align 8, !llfi_index !882
  %6 = getelementptr inbounds %"struct.std::_Rb_tree_iterator", %"struct.std::_Rb_tree_iterator"* %5, i32 0, i32 0, !llfi_index !883
  %7 = load %"struct.std::_Rb_tree_node_base"*, %"struct.std::_Rb_tree_node_base"** %6, align 8, !llfi_index !884
  %8 = load %"struct.std::_Rb_tree_iterator"*, %"struct.std::_Rb_tree_iterator"** %4, align 8, !llfi_index !885
  %9 = getelementptr inbounds %"struct.std::_Rb_tree_iterator", %"struct.std::_Rb_tree_iterator"* %8, i32 0, i32 0, !llfi_index !886
  %10 = load %"struct.std::_Rb_tree_node_base"*, %"struct.std::_Rb_tree_node_base"** %9, align 8, !llfi_index !887
  %11 = icmp eq %"struct.std::_Rb_tree_node_base"* %7, %10, !llfi_index !888
  ret i1 %11, !llfi_index !889
}

; Function Attrs: mustprogress noinline uwtable
define linkonce_odr dso_local void @_ZNKSt3mapIiNSt7__cxx1112basic_stringIcSt11char_traitsIcESaIcEEESt4lessIiESaISt4pairIKiS5_EEE8key_compEv(%"class.std::map"* nonnull align 8 dereferenceable(48) %0) #4 comdat align 2 {
  %2 = alloca %"class.std::map"*, align 8, !llfi_index !890
  %3 = alloca %"class.std::ios_base::Init", align 1, !llfi_index !891
  store %"class.std::map"* %0, %"class.std::map"** %2, align 8, !llfi_index !892
  %4 = load %"class.std::map"*, %"class.std::map"** %2, align 8, !llfi_index !893
  %5 = getelementptr inbounds %"class.std::map", %"class.std::map"* %4, i32 0, i32 0, !llfi_index !894
  call void @_ZNKSt8_Rb_treeIiSt4pairIKiNSt7__cxx1112basic_stringIcSt11char_traitsIcESaIcEEEESt10_Select1stIS8_ESt4lessIiESaIS8_EE8key_compEv(%"class.std::_Rb_tree"* nonnull align 8 dereferenceable(48) %5), !llfi_index !895
  ret void, !llfi_index !896
}

; Function Attrs: mustprogress noinline nounwind uwtable
define linkonce_odr dso_local nonnull align 8 dereferenceable(40) %"struct.std::pair"* @_ZNKSt17_Rb_tree_iteratorISt4pairIKiNSt7__cxx1112basic_stringIcSt11char_traitsIcESaIcEEEEEdeEv(%"struct.std::_Rb_tree_iterator"* nonnull align 8 dereferenceable(8) %0) #6 comdat align 2 {
  %2 = alloca %"struct.std::_Rb_tree_iterator"*, align 8, !llfi_index !897
  store %"struct.std::_Rb_tree_iterator"* %0, %"struct.std::_Rb_tree_iterator"** %2, align 8, !llfi_index !898
  %3 = load %"struct.std::_Rb_tree_iterator"*, %"struct.std::_Rb_tree_iterator"** %2, align 8, !llfi_index !899
  %4 = getelementptr inbounds %"struct.std::_Rb_tree_iterator", %"struct.std::_Rb_tree_iterator"* %3, i32 0, i32 0, !llfi_index !900
  %5 = load %"struct.std::_Rb_tree_node_base"*, %"struct.std::_Rb_tree_node_base"** %4, align 8, !llfi_index !901
  %6 = bitcast %"struct.std::_Rb_tree_node_base"* %5 to %"struct.std::_Rb_tree_node.15"*, !llfi_index !902
  %7 = call %"struct.std::pair"* @_ZNSt13_Rb_tree_nodeISt4pairIKiNSt7__cxx1112basic_stringIcSt11char_traitsIcESaIcEEEEE9_M_valptrEv(%"struct.std::_Rb_tree_node.15"* nonnull align 8 dereferenceable(72) %6), !llfi_index !903
  ret %"struct.std::pair"* %7, !llfi_index !904
}

; Function Attrs: mustprogress noinline nounwind uwtable
define linkonce_odr dso_local zeroext i1 @_ZNKSt4lessIiEclERKiS2_(%"class.std::ios_base::Init"* nonnull align 1 dereferenceable(1) %0, i32* nonnull align 4 dereferenceable(4) %1, i32* nonnull align 4 dereferenceable(4) %2) #6 comdat align 2 {
  %4 = alloca %"class.std::ios_base::Init"*, align 8, !llfi_index !905
  %5 = alloca i32*, align 8, !llfi_index !906
  %6 = alloca i32*, align 8, !llfi_index !907
  store %"class.std::ios_base::Init"* %0, %"class.std::ios_base::Init"** %4, align 8, !llfi_index !908
  store i32* %1, i32** %5, align 8, !llfi_index !909
  store i32* %2, i32** %6, align 8, !llfi_index !910
  %7 = load %"class.std::ios_base::Init"*, %"class.std::ios_base::Init"** %4, align 8, !llfi_index !911
  %8 = load i32*, i32** %5, align 8, !llfi_index !912
  %9 = load i32, i32* %8, align 4, !llfi_index !913
  %10 = load i32*, i32** %6, align 8, !llfi_index !914
  %11 = load i32, i32* %10, align 4, !llfi_index !915
  %12 = icmp slt i32 %9, %11, !llfi_index !916
  ret i1 %12, !llfi_index !917
}

; Function Attrs: noinline nounwind uwtable
define linkonce_odr dso_local void @_ZNSt23_Rb_tree_const_iteratorISt4pairIKiNSt7__cxx1112basic_stringIcSt11char_traitsIcESaIcEEEEEC2ERKSt17_Rb_tree_iteratorIS8_E(%"struct.std::_Rb_tree_iterator"* nonnull align 8 dereferenceable(8) %0, %"struct.std::_Rb_tree_iterator"* nonnull align 8 dereferenceable(8) %1) unnamed_addr #5 comdat align 2 {
  %3 = alloca %"struct.std::_Rb_tree_iterator"*, align 8, !llfi_index !918
  %4 = alloca %"struct.std::_Rb_tree_iterator"*, align 8, !llfi_index !919
  store %"struct.std::_Rb_tree_iterator"* %0, %"struct.std::_Rb_tree_iterator"** %3, align 8, !llfi_index !920
  store %"struct.std::_Rb_tree_iterator"* %1, %"struct.std::_Rb_tree_iterator"** %4, align 8, !llfi_index !921
  %5 = load %"struct.std::_Rb_tree_iterator"*, %"struct.std::_Rb_tree_iterator"** %3, align 8, !llfi_index !922
  %6 = getelementptr inbounds %"struct.std::_Rb_tree_iterator", %"struct.std::_Rb_tree_iterator"* %5, i32 0, i32 0, !llfi_index !923
  %7 = load %"struct.std::_Rb_tree_iterator"*, %"struct.std::_Rb_tree_iterator"** %4, align 8, !llfi_index !924
  %8 = getelementptr inbounds %"struct.std::_Rb_tree_iterator", %"struct.std::_Rb_tree_iterator"* %7, i32 0, i32 0, !llfi_index !925
  %9 = load %"struct.std::_Rb_tree_node_base"*, %"struct.std::_Rb_tree_node_base"** %8, align 8, !llfi_index !926
  store %"struct.std::_Rb_tree_node_base"* %9, %"struct.std::_Rb_tree_node_base"** %6, align 8, !llfi_index !927
  ret void, !llfi_index !928
}

; Function Attrs: noinline uwtable
define linkonce_odr dso_local void @_ZNSt5tupleIJRKiEEC2IvLb1EEES1_(%"class.std::tuple.31"* nonnull align 8 dereferenceable(8) %0, i32* nonnull align 4 dereferenceable(4) %1) unnamed_addr #0 comdat align 2 {
  %3 = alloca %"class.std::tuple.31"*, align 8, !llfi_index !929
  %4 = alloca i32*, align 8, !llfi_index !930
  store %"class.std::tuple.31"* %0, %"class.std::tuple.31"** %3, align 8, !llfi_index !931
  store i32* %1, i32** %4, align 8, !llfi_index !932
  %5 = load %"class.std::tuple.31"*, %"class.std::tuple.31"** %3, align 8, !llfi_index !933
  %6 = bitcast %"class.std::tuple.31"* %5 to %"struct.std::_Tuple_impl.32"*, !llfi_index !934
  %7 = load i32*, i32** %4, align 8, !llfi_index !935
  call void @_ZNSt11_Tuple_implILm0EJRKiEEC2ES1_(%"struct.std::_Tuple_impl.32"* nonnull align 8 dereferenceable(8) %6, i32* nonnull align 4 dereferenceable(4) %7), !llfi_index !936
  ret void, !llfi_index !937
}

; Function Attrs: mustprogress noinline uwtable
define linkonce_odr dso_local %"struct.std::_Rb_tree_node_base"* @_ZNSt8_Rb_treeIiSt4pairIKiNSt7__cxx1112basic_stringIcSt11char_traitsIcESaIcEEEESt10_Select1stIS8_ESt4lessIiESaIS8_EE22_M_emplace_hint_uniqueIJRKSt21piecewise_construct_tSt5tupleIJRS1_EESJ_IJEEEEESt17_Rb_tree_iteratorIS8_ESt23_Rb_tree_const_iteratorIS8_EDpOT_(%"class.std::_Rb_tree"* nonnull align 8 dereferenceable(48) %0, %"struct.std::_Rb_tree_node_base"* %1, %"class.std::ios_base::Init"* nonnull align 1 dereferenceable(1) %2, %"class.std::tuple.31"* nonnull align 8 dereferenceable(8) %3, %"class.std::ios_base::Init"* nonnull align 1 dereferenceable(1) %4) #4 comdat align 2 personality i8* bitcast (i32 (...)* @__gxx_personality_v0 to i8*) {
  %6 = alloca %"struct.std::_Rb_tree_iterator", align 8, !llfi_index !938
  %7 = alloca %"struct.std::_Rb_tree_iterator", align 8, !llfi_index !939
  %8 = alloca %"class.std::_Rb_tree"*, align 8, !llfi_index !940
  %9 = alloca %"class.std::ios_base::Init"*, align 8, !llfi_index !941
  %10 = alloca %"class.std::tuple.31"*, align 8, !llfi_index !942
  %11 = alloca %"class.std::ios_base::Init"*, align 8, !llfi_index !943
  %12 = alloca %"struct.std::_Rb_tree_node.15"*, align 8, !llfi_index !944
  %13 = alloca %"struct.std::pair.21", align 8, !llfi_index !945
  %14 = alloca %"struct.std::_Rb_tree_iterator", align 8, !llfi_index !946
  %15 = alloca i8*, align 8, !llfi_index !947
  %16 = alloca i32, align 4, !llfi_index !948
  %17 = getelementptr inbounds %"struct.std::_Rb_tree_iterator", %"struct.std::_Rb_tree_iterator"* %7, i32 0, i32 0, !llfi_index !949
  store %"struct.std::_Rb_tree_node_base"* %1, %"struct.std::_Rb_tree_node_base"** %17, align 8, !llfi_index !950
  store %"class.std::_Rb_tree"* %0, %"class.std::_Rb_tree"** %8, align 8, !llfi_index !951
  store %"class.std::ios_base::Init"* %2, %"class.std::ios_base::Init"** %9, align 8, !llfi_index !952
  store %"class.std::tuple.31"* %3, %"class.std::tuple.31"** %10, align 8, !llfi_index !953
  store %"class.std::ios_base::Init"* %4, %"class.std::ios_base::Init"** %11, align 8, !llfi_index !954
  %18 = load %"class.std::_Rb_tree"*, %"class.std::_Rb_tree"** %8, align 8, !llfi_index !955
  %19 = load %"class.std::ios_base::Init"*, %"class.std::ios_base::Init"** %9, align 8, !llfi_index !956
  %20 = call nonnull align 1 dereferenceable(1) %"class.std::ios_base::Init"* @_ZSt7forwardIRKSt21piecewise_construct_tEOT_RNSt16remove_referenceIS3_E4typeE(%"class.std::ios_base::Init"* nonnull align 1 dereferenceable(1) %19) #2, !llfi_index !957
  %21 = load %"class.std::tuple.31"*, %"class.std::tuple.31"** %10, align 8, !llfi_index !958
  %22 = call nonnull align 8 dereferenceable(8) %"class.std::tuple.31"* @_ZSt7forwardISt5tupleIJRKiEEEOT_RNSt16remove_referenceIS4_E4typeE(%"class.std::tuple.31"* nonnull align 8 dereferenceable(8) %21) #2, !llfi_index !959
  %23 = load %"class.std::ios_base::Init"*, %"class.std::ios_base::Init"** %11, align 8, !llfi_index !960
  %24 = call nonnull align 1 dereferenceable(1) %"class.std::ios_base::Init"* @_ZSt7forwardISt5tupleIJEEEOT_RNSt16remove_referenceIS2_E4typeE(%"class.std::ios_base::Init"* nonnull align 1 dereferenceable(1) %23) #2, !llfi_index !961
  %25 = call %"struct.std::_Rb_tree_node.15"* @_ZNSt8_Rb_treeIiSt4pairIKiNSt7__cxx1112basic_stringIcSt11char_traitsIcESaIcEEEESt10_Select1stIS8_ESt4lessIiESaIS8_EE14_M_create_nodeIJRKSt21piecewise_construct_tSt5tupleIJRS1_EESJ_IJEEEEEPSt13_Rb_tree_nodeIS8_EDpOT_(%"class.std::_Rb_tree"* nonnull align 8 dereferenceable(48) %18, %"class.std::ios_base::Init"* nonnull align 1 dereferenceable(1) %20, %"class.std::tuple.31"* nonnull align 8 dereferenceable(8) %22, %"class.std::ios_base::Init"* nonnull align 1 dereferenceable(1) %24), !llfi_index !962
  store %"struct.std::_Rb_tree_node.15"* %25, %"struct.std::_Rb_tree_node.15"** %12, align 8, !llfi_index !963
  %26 = bitcast %"struct.std::_Rb_tree_iterator"* %14 to i8*, !llfi_index !964
  %27 = bitcast %"struct.std::_Rb_tree_iterator"* %7 to i8*, !llfi_index !965
  call void @llvm.memcpy.p0i8.p0i8.i64(i8* align 8 %26, i8* align 8 %27, i64 8, i1 false), !llfi_index !966
  %28 = load %"struct.std::_Rb_tree_node.15"*, %"struct.std::_Rb_tree_node.15"** %12, align 8, !llfi_index !967
  %29 = invoke nonnull align 4 dereferenceable(4) i32* @_ZNSt8_Rb_treeIiSt4pairIKiNSt7__cxx1112basic_stringIcSt11char_traitsIcESaIcEEEESt10_Select1stIS8_ESt4lessIiESaIS8_EE6_S_keyEPKSt13_Rb_tree_nodeIS8_E(%"struct.std::_Rb_tree_node.15"* %28)
          to label %30 unwind label %52, !llfi_index !968

30:                                               ; preds = %5
  %31 = getelementptr inbounds %"struct.std::_Rb_tree_iterator", %"struct.std::_Rb_tree_iterator"* %14, i32 0, i32 0, !llfi_index !969
  %32 = load %"struct.std::_Rb_tree_node_base"*, %"struct.std::_Rb_tree_node_base"** %31, align 8, !llfi_index !970
  %33 = invoke { %"struct.std::_Rb_tree_node_base"*, %"struct.std::_Rb_tree_node_base"* } @_ZNSt8_Rb_treeIiSt4pairIKiNSt7__cxx1112basic_stringIcSt11char_traitsIcESaIcEEEESt10_Select1stIS8_ESt4lessIiESaIS8_EE29_M_get_insert_hint_unique_posESt23_Rb_tree_const_iteratorIS8_ERS1_(%"class.std::_Rb_tree"* nonnull align 8 dereferenceable(48) %18, %"struct.std::_Rb_tree_node_base"* %32, i32* nonnull align 4 dereferenceable(4) %29)
          to label %34 unwind label %52, !llfi_index !971

34:                                               ; preds = %30
  %35 = bitcast %"struct.std::pair.21"* %13 to { %"struct.std::_Rb_tree_node_base"*, %"struct.std::_Rb_tree_node_base"* }*, !llfi_index !972
  %36 = getelementptr inbounds { %"struct.std::_Rb_tree_node_base"*, %"struct.std::_Rb_tree_node_base"* }, { %"struct.std::_Rb_tree_node_base"*, %"struct.std::_Rb_tree_node_base"* }* %35, i32 0, i32 0, !llfi_index !973
  %37 = extractvalue { %"struct.std::_Rb_tree_node_base"*, %"struct.std::_Rb_tree_node_base"* } %33, 0, !llfi_index !974
  store %"struct.std::_Rb_tree_node_base"* %37, %"struct.std::_Rb_tree_node_base"** %36, align 8, !llfi_index !975
  %38 = getelementptr inbounds { %"struct.std::_Rb_tree_node_base"*, %"struct.std::_Rb_tree_node_base"* }, { %"struct.std::_Rb_tree_node_base"*, %"struct.std::_Rb_tree_node_base"* }* %35, i32 0, i32 1, !llfi_index !976
  %39 = extractvalue { %"struct.std::_Rb_tree_node_base"*, %"struct.std::_Rb_tree_node_base"* } %33, 1, !llfi_index !977
  store %"struct.std::_Rb_tree_node_base"* %39, %"struct.std::_Rb_tree_node_base"** %38, align 8, !llfi_index !978
  %40 = getelementptr inbounds %"struct.std::pair.21", %"struct.std::pair.21"* %13, i32 0, i32 1, !llfi_index !979
  %41 = load %"struct.std::_Rb_tree_node_base"*, %"struct.std::_Rb_tree_node_base"** %40, align 8, !llfi_index !980
  %42 = icmp ne %"struct.std::_Rb_tree_node_base"* %41, null, !llfi_index !981
  br i1 %42, label %43, label %60, !llfi_index !982

43:                                               ; preds = %34
  %44 = getelementptr inbounds %"struct.std::pair.21", %"struct.std::pair.21"* %13, i32 0, i32 0, !llfi_index !983
  %45 = load %"struct.std::_Rb_tree_node_base"*, %"struct.std::_Rb_tree_node_base"** %44, align 8, !llfi_index !984
  %46 = getelementptr inbounds %"struct.std::pair.21", %"struct.std::pair.21"* %13, i32 0, i32 1, !llfi_index !985
  %47 = load %"struct.std::_Rb_tree_node_base"*, %"struct.std::_Rb_tree_node_base"** %46, align 8, !llfi_index !986
  %48 = load %"struct.std::_Rb_tree_node.15"*, %"struct.std::_Rb_tree_node.15"** %12, align 8, !llfi_index !987
  %49 = invoke %"struct.std::_Rb_tree_node_base"* @_ZNSt8_Rb_treeIiSt4pairIKiNSt7__cxx1112basic_stringIcSt11char_traitsIcESaIcEEEESt10_Select1stIS8_ESt4lessIiESaIS8_EE14_M_insert_nodeEPSt18_Rb_tree_node_baseSG_PSt13_Rb_tree_nodeIS8_E(%"class.std::_Rb_tree"* nonnull align 8 dereferenceable(48) %18, %"struct.std::_Rb_tree_node_base"* %45, %"struct.std::_Rb_tree_node_base"* %47, %"struct.std::_Rb_tree_node.15"* %48)
          to label %50 unwind label %52, !llfi_index !988

50:                                               ; preds = %43
  %51 = getelementptr inbounds %"struct.std::_Rb_tree_iterator", %"struct.std::_Rb_tree_iterator"* %6, i32 0, i32 0, !llfi_index !989
  store %"struct.std::_Rb_tree_node_base"* %49, %"struct.std::_Rb_tree_node_base"** %51, align 8, !llfi_index !990
  br label %70, !llfi_index !991

52:                                               ; preds = %43, %30, %5
  %53 = landingpad { i8*, i32 }
          catch i8* null, !llfi_index !992
  %54 = extractvalue { i8*, i32 } %53, 0, !llfi_index !993
  store i8* %54, i8** %15, align 8, !llfi_index !994
  %55 = extractvalue { i8*, i32 } %53, 1, !llfi_index !995
  store i32 %55, i32* %16, align 4, !llfi_index !996
  br label %56, !llfi_index !997

56:                                               ; preds = %52
  %57 = load i8*, i8** %15, align 8, !llfi_index !998
  %58 = call i8* @__cxa_begin_catch(i8* %57) #2, !llfi_index !999
  %59 = load %"struct.std::_Rb_tree_node.15"*, %"struct.std::_Rb_tree_node.15"** %12, align 8, !llfi_index !1000
  call void @_ZNSt8_Rb_treeIiSt4pairIKiNSt7__cxx1112basic_stringIcSt11char_traitsIcESaIcEEEESt10_Select1stIS8_ESt4lessIiESaIS8_EE12_M_drop_nodeEPSt13_Rb_tree_nodeIS8_E(%"class.std::_Rb_tree"* nonnull align 8 dereferenceable(48) %18, %"struct.std::_Rb_tree_node.15"* %59) #2, !llfi_index !1001
  invoke void @__cxa_rethrow() #16
          to label %81 unwind label %64, !llfi_index !1002

60:                                               ; preds = %34
  %61 = load %"struct.std::_Rb_tree_node.15"*, %"struct.std::_Rb_tree_node.15"** %12, align 8, !llfi_index !1003
  call void @_ZNSt8_Rb_treeIiSt4pairIKiNSt7__cxx1112basic_stringIcSt11char_traitsIcESaIcEEEESt10_Select1stIS8_ESt4lessIiESaIS8_EE12_M_drop_nodeEPSt13_Rb_tree_nodeIS8_E(%"class.std::_Rb_tree"* nonnull align 8 dereferenceable(48) %18, %"struct.std::_Rb_tree_node.15"* %61) #2, !llfi_index !1004
  %62 = getelementptr inbounds %"struct.std::pair.21", %"struct.std::pair.21"* %13, i32 0, i32 0, !llfi_index !1005
  %63 = load %"struct.std::_Rb_tree_node_base"*, %"struct.std::_Rb_tree_node_base"** %62, align 8, !llfi_index !1006
  call void @_ZNSt17_Rb_tree_iteratorISt4pairIKiNSt7__cxx1112basic_stringIcSt11char_traitsIcESaIcEEEEEC2EPSt18_Rb_tree_node_base(%"struct.std::_Rb_tree_iterator"* nonnull align 8 dereferenceable(8) %6, %"struct.std::_Rb_tree_node_base"* %63) #2, !llfi_index !1007
  br label %70, !llfi_index !1008

64:                                               ; preds = %56
  %65 = landingpad { i8*, i32 }
          cleanup, !llfi_index !1009
  %66 = extractvalue { i8*, i32 } %65, 0, !llfi_index !1010
  store i8* %66, i8** %15, align 8, !llfi_index !1011
  %67 = extractvalue { i8*, i32 } %65, 1, !llfi_index !1012
  store i32 %67, i32* %16, align 4, !llfi_index !1013
  invoke void @__cxa_end_catch()
          to label %68 unwind label %78, !llfi_index !1014

68:                                               ; preds = %64
  br label %73, !llfi_index !1015

69:                                               ; No predecessors!
  call void @llvm.trap(), !llfi_index !1016
  unreachable, !llfi_index !1017

70:                                               ; preds = %60, %50
  %71 = getelementptr inbounds %"struct.std::_Rb_tree_iterator", %"struct.std::_Rb_tree_iterator"* %6, i32 0, i32 0, !llfi_index !1018
  %72 = load %"struct.std::_Rb_tree_node_base"*, %"struct.std::_Rb_tree_node_base"** %71, align 8, !llfi_index !1019
  ret %"struct.std::_Rb_tree_node_base"* %72, !llfi_index !1020

73:                                               ; preds = %68
  %74 = load i8*, i8** %15, align 8, !llfi_index !1021
  %75 = load i32, i32* %16, align 4, !llfi_index !1022
  %76 = insertvalue { i8*, i32 } undef, i8* %74, 0, !llfi_index !1023
  %77 = insertvalue { i8*, i32 } %76, i32 %75, 1, !llfi_index !1024
  resume { i8*, i32 } %77, !llfi_index !1025

78:                                               ; preds = %64
  %79 = landingpad { i8*, i32 }
          catch i8* null, !llfi_index !1026
  %80 = extractvalue { i8*, i32 } %79, 0, !llfi_index !1027
  call void @__clang_call_terminate(i8* %80) #15, !llfi_index !1028
  unreachable, !llfi_index !1029

81:                                               ; preds = %56
  unreachable, !llfi_index !1030
}

; Function Attrs: argmemonly nofree nounwind willreturn
declare void @llvm.memcpy.p0i8.p0i8.i64(i8* noalias nocapture writeonly, i8* noalias nocapture readonly, i64, i1 immarg) #9

; Function Attrs: mustprogress noinline nounwind uwtable
define linkonce_odr dso_local nonnull align 1 dereferenceable(1) %"class.std::ios_base::Init"* @_ZSt7forwardIRKSt21piecewise_construct_tEOT_RNSt16remove_referenceIS3_E4typeE(%"class.std::ios_base::Init"* nonnull align 1 dereferenceable(1) %0) #6 comdat {
  %2 = alloca %"class.std::ios_base::Init"*, align 8, !llfi_index !1031
  store %"class.std::ios_base::Init"* %0, %"class.std::ios_base::Init"** %2, align 8, !llfi_index !1032
  %3 = load %"class.std::ios_base::Init"*, %"class.std::ios_base::Init"** %2, align 8, !llfi_index !1033
  ret %"class.std::ios_base::Init"* %3, !llfi_index !1034
}

; Function Attrs: mustprogress noinline nounwind uwtable
define linkonce_odr dso_local nonnull align 8 dereferenceable(8) %"class.std::tuple.31"* @_ZSt7forwardISt5tupleIJRKiEEEOT_RNSt16remove_referenceIS4_E4typeE(%"class.std::tuple.31"* nonnull align 8 dereferenceable(8) %0) #6 comdat {
  %2 = alloca %"class.std::tuple.31"*, align 8, !llfi_index !1035
  store %"class.std::tuple.31"* %0, %"class.std::tuple.31"** %2, align 8, !llfi_index !1036
  %3 = load %"class.std::tuple.31"*, %"class.std::tuple.31"** %2, align 8, !llfi_index !1037
  ret %"class.std::tuple.31"* %3, !llfi_index !1038
}

; Function Attrs: mustprogress noinline nounwind uwtable
define linkonce_odr dso_local nonnull align 1 dereferenceable(1) %"class.std::ios_base::Init"* @_ZSt7forwardISt5tupleIJEEEOT_RNSt16remove_referenceIS2_E4typeE(%"class.std::ios_base::Init"* nonnull align 1 dereferenceable(1) %0) #6 comdat {
  %2 = alloca %"class.std::ios_base::Init"*, align 8, !llfi_index !1039
  store %"class.std::ios_base::Init"* %0, %"class.std::ios_base::Init"** %2, align 8, !llfi_index !1040
  %3 = load %"class.std::ios_base::Init"*, %"class.std::ios_base::Init"** %2, align 8, !llfi_index !1041
  ret %"class.std::ios_base::Init"* %3, !llfi_index !1042
}

; Function Attrs: mustprogress noinline uwtable
define linkonce_odr dso_local %"struct.std::_Rb_tree_node.15"* @_ZNSt8_Rb_treeIiSt4pairIKiNSt7__cxx1112basic_stringIcSt11char_traitsIcESaIcEEEESt10_Select1stIS8_ESt4lessIiESaIS8_EE14_M_create_nodeIJRKSt21piecewise_construct_tSt5tupleIJRS1_EESJ_IJEEEEEPSt13_Rb_tree_nodeIS8_EDpOT_(%"class.std::_Rb_tree"* nonnull align 8 dereferenceable(48) %0, %"class.std::ios_base::Init"* nonnull align 1 dereferenceable(1) %1, %"class.std::tuple.31"* nonnull align 8 dereferenceable(8) %2, %"class.std::ios_base::Init"* nonnull align 1 dereferenceable(1) %3) #4 comdat align 2 {
  %5 = alloca %"class.std::_Rb_tree"*, align 8, !llfi_index !1043
  %6 = alloca %"class.std::ios_base::Init"*, align 8, !llfi_index !1044
  %7 = alloca %"class.std::tuple.31"*, align 8, !llfi_index !1045
  %8 = alloca %"class.std::ios_base::Init"*, align 8, !llfi_index !1046
  %9 = alloca %"struct.std::_Rb_tree_node.15"*, align 8, !llfi_index !1047
  store %"class.std::_Rb_tree"* %0, %"class.std::_Rb_tree"** %5, align 8, !llfi_index !1048
  store %"class.std::ios_base::Init"* %1, %"class.std::ios_base::Init"** %6, align 8, !llfi_index !1049
  store %"class.std::tuple.31"* %2, %"class.std::tuple.31"** %7, align 8, !llfi_index !1050
  store %"class.std::ios_base::Init"* %3, %"class.std::ios_base::Init"** %8, align 8, !llfi_index !1051
  %10 = load %"class.std::_Rb_tree"*, %"class.std::_Rb_tree"** %5, align 8, !llfi_index !1052
  %11 = call %"struct.std::_Rb_tree_node.15"* @_ZNSt8_Rb_treeIiSt4pairIKiNSt7__cxx1112basic_stringIcSt11char_traitsIcESaIcEEEESt10_Select1stIS8_ESt4lessIiESaIS8_EE11_M_get_nodeEv(%"class.std::_Rb_tree"* nonnull align 8 dereferenceable(48) %10), !llfi_index !1053
  store %"struct.std::_Rb_tree_node.15"* %11, %"struct.std::_Rb_tree_node.15"** %9, align 8, !llfi_index !1054
  %12 = load %"struct.std::_Rb_tree_node.15"*, %"struct.std::_Rb_tree_node.15"** %9, align 8, !llfi_index !1055
  %13 = load %"class.std::ios_base::Init"*, %"class.std::ios_base::Init"** %6, align 8, !llfi_index !1056
  %14 = call nonnull align 1 dereferenceable(1) %"class.std::ios_base::Init"* @_ZSt7forwardIRKSt21piecewise_construct_tEOT_RNSt16remove_referenceIS3_E4typeE(%"class.std::ios_base::Init"* nonnull align 1 dereferenceable(1) %13) #2, !llfi_index !1057
  %15 = load %"class.std::tuple.31"*, %"class.std::tuple.31"** %7, align 8, !llfi_index !1058
  %16 = call nonnull align 8 dereferenceable(8) %"class.std::tuple.31"* @_ZSt7forwardISt5tupleIJRKiEEEOT_RNSt16remove_referenceIS4_E4typeE(%"class.std::tuple.31"* nonnull align 8 dereferenceable(8) %15) #2, !llfi_index !1059
  %17 = load %"class.std::ios_base::Init"*, %"class.std::ios_base::Init"** %8, align 8, !llfi_index !1060
  %18 = call nonnull align 1 dereferenceable(1) %"class.std::ios_base::Init"* @_ZSt7forwardISt5tupleIJEEEOT_RNSt16remove_referenceIS2_E4typeE(%"class.std::ios_base::Init"* nonnull align 1 dereferenceable(1) %17) #2, !llfi_index !1061
  call void @_ZNSt8_Rb_treeIiSt4pairIKiNSt7__cxx1112basic_stringIcSt11char_traitsIcESaIcEEEESt10_Select1stIS8_ESt4lessIiESaIS8_EE17_M_construct_nodeIJRKSt21piecewise_construct_tSt5tupleIJRS1_EESJ_IJEEEEEvPSt13_Rb_tree_nodeIS8_EDpOT_(%"class.std::_Rb_tree"* nonnull align 8 dereferenceable(48) %10, %"struct.std::_Rb_tree_node.15"* %12, %"class.std::ios_base::Init"* nonnull align 1 dereferenceable(1) %14, %"class.std::tuple.31"* nonnull align 8 dereferenceable(8) %16, %"class.std::ios_base::Init"* nonnull align 1 dereferenceable(1) %18), !llfi_index !1062
  %19 = load %"struct.std::_Rb_tree_node.15"*, %"struct.std::_Rb_tree_node.15"** %9, align 8, !llfi_index !1063
  ret %"struct.std::_Rb_tree_node.15"* %19, !llfi_index !1064
}

; Function Attrs: mustprogress noinline uwtable
define linkonce_odr dso_local nonnull align 4 dereferenceable(4) i32* @_ZNSt8_Rb_treeIiSt4pairIKiNSt7__cxx1112basic_stringIcSt11char_traitsIcESaIcEEEESt10_Select1stIS8_ESt4lessIiESaIS8_EE6_S_keyEPKSt13_Rb_tree_nodeIS8_E(%"struct.std::_Rb_tree_node.15"* %0) #4 comdat align 2 {
  %2 = alloca %"struct.std::_Rb_tree_node.15"*, align 8, !llfi_index !1065
  %3 = alloca %"class.std::ios_base::Init", align 1, !llfi_index !1066
  store %"struct.std::_Rb_tree_node.15"* %0, %"struct.std::_Rb_tree_node.15"** %2, align 8, !llfi_index !1067
  %4 = load %"struct.std::_Rb_tree_node.15"*, %"struct.std::_Rb_tree_node.15"** %2, align 8, !llfi_index !1068
  %5 = call %"struct.std::pair"* @_ZNKSt13_Rb_tree_nodeISt4pairIKiNSt7__cxx1112basic_stringIcSt11char_traitsIcESaIcEEEEE9_M_valptrEv(%"struct.std::_Rb_tree_node.15"* nonnull align 8 dereferenceable(72) %4), !llfi_index !1069
  %6 = call nonnull align 4 dereferenceable(4) i32* @_ZNKSt10_Select1stISt4pairIKiNSt7__cxx1112basic_stringIcSt11char_traitsIcESaIcEEEEEclERKS8_(%"class.std::ios_base::Init"* nonnull align 1 dereferenceable(1) %3, %"struct.std::pair"* nonnull align 8 dereferenceable(40) %5), !llfi_index !1070
  ret i32* %6, !llfi_index !1071
}

; Function Attrs: mustprogress noinline uwtable
define linkonce_odr dso_local { %"struct.std::_Rb_tree_node_base"*, %"struct.std::_Rb_tree_node_base"* } @_ZNSt8_Rb_treeIiSt4pairIKiNSt7__cxx1112basic_stringIcSt11char_traitsIcESaIcEEEESt10_Select1stIS8_ESt4lessIiESaIS8_EE29_M_get_insert_hint_unique_posESt23_Rb_tree_const_iteratorIS8_ERS1_(%"class.std::_Rb_tree"* nonnull align 8 dereferenceable(48) %0, %"struct.std::_Rb_tree_node_base"* %1, i32* nonnull align 4 dereferenceable(4) %2) #4 comdat align 2 {
  %4 = alloca %"struct.std::pair.21", align 8, !llfi_index !1072
  %5 = alloca %"struct.std::_Rb_tree_iterator", align 8, !llfi_index !1073
  %6 = alloca %"class.std::_Rb_tree"*, align 8, !llfi_index !1074
  %7 = alloca i32*, align 8, !llfi_index !1075
  %8 = alloca %"struct.std::_Rb_tree_iterator", align 8, !llfi_index !1076
  %9 = alloca %"struct.std::_Rb_tree_node_base"*, align 8, !llfi_index !1077
  %10 = alloca %"struct.std::_Rb_tree_iterator", align 8, !llfi_index !1078
  %11 = alloca %"struct.std::_Rb_tree_node_base"*, align 8, !llfi_index !1079
  %12 = alloca %"struct.std::_Rb_tree_iterator", align 8, !llfi_index !1080
  %13 = alloca %"struct.std::_Rb_tree_node_base"*, align 8, !llfi_index !1081
  %14 = alloca %"struct.std::_Rb_tree_node_base"*, align 8, !llfi_index !1082
  %15 = alloca %"struct.std::_Rb_tree_node_base"*, align 8, !llfi_index !1083
  %16 = getelementptr inbounds %"struct.std::_Rb_tree_iterator", %"struct.std::_Rb_tree_iterator"* %5, i32 0, i32 0, !llfi_index !1084
  store %"struct.std::_Rb_tree_node_base"* %1, %"struct.std::_Rb_tree_node_base"** %16, align 8, !llfi_index !1085
  store %"class.std::_Rb_tree"* %0, %"class.std::_Rb_tree"** %6, align 8, !llfi_index !1086
  store i32* %2, i32** %7, align 8, !llfi_index !1087
  %17 = load %"class.std::_Rb_tree"*, %"class.std::_Rb_tree"** %6, align 8, !llfi_index !1088
  %18 = call %"struct.std::_Rb_tree_node_base"* @_ZNKSt23_Rb_tree_const_iteratorISt4pairIKiNSt7__cxx1112basic_stringIcSt11char_traitsIcESaIcEEEEE13_M_const_castEv(%"struct.std::_Rb_tree_iterator"* nonnull align 8 dereferenceable(8) %5) #2, !llfi_index !1089
  %19 = getelementptr inbounds %"struct.std::_Rb_tree_iterator", %"struct.std::_Rb_tree_iterator"* %8, i32 0, i32 0, !llfi_index !1090
  store %"struct.std::_Rb_tree_node_base"* %18, %"struct.std::_Rb_tree_node_base"** %19, align 8, !llfi_index !1091
  %20 = getelementptr inbounds %"struct.std::_Rb_tree_iterator", %"struct.std::_Rb_tree_iterator"* %8, i32 0, i32 0, !llfi_index !1092
  %21 = load %"struct.std::_Rb_tree_node_base"*, %"struct.std::_Rb_tree_node_base"** %20, align 8, !llfi_index !1093
  %22 = call %"struct.std::_Rb_tree_node_base"* @_ZNSt8_Rb_treeIiSt4pairIKiNSt7__cxx1112basic_stringIcSt11char_traitsIcESaIcEEEESt10_Select1stIS8_ESt4lessIiESaIS8_EE6_M_endEv(%"class.std::_Rb_tree"* nonnull align 8 dereferenceable(48) %17) #2, !llfi_index !1094
  %23 = icmp eq %"struct.std::_Rb_tree_node_base"* %21, %22, !llfi_index !1095
  br i1 %23, label %24, label %46, !llfi_index !1096

24:                                               ; preds = %3
  %25 = call i64 @_ZNKSt8_Rb_treeIiSt4pairIKiNSt7__cxx1112basic_stringIcSt11char_traitsIcESaIcEEEESt10_Select1stIS8_ESt4lessIiESaIS8_EE4sizeEv(%"class.std::_Rb_tree"* nonnull align 8 dereferenceable(48) %17) #2, !llfi_index !1097
  %26 = icmp ugt i64 %25, 0, !llfi_index !1098
  br i1 %26, label %27, label %38, !llfi_index !1099

27:                                               ; preds = %24
  %28 = getelementptr inbounds %"class.std::_Rb_tree", %"class.std::_Rb_tree"* %17, i32 0, i32 0, !llfi_index !1100
  %29 = bitcast %"struct.std::_Rb_tree<std::__cxx11::basic_string<char>, std::pair<const std::__cxx11::basic_string<char>, int>, std::_Select1st<std::pair<const std::__cxx11::basic_string<char>, int>>, std::less<std::__cxx11::basic_string<char>>>::_Rb_tree_impl"* %28 to %"struct.std::_Rb_tree_key_compare"*, !llfi_index !1101
  %30 = getelementptr inbounds %"struct.std::_Rb_tree_key_compare", %"struct.std::_Rb_tree_key_compare"* %29, i32 0, i32 0, !llfi_index !1102
  %31 = call nonnull align 8 dereferenceable(8) %"struct.std::_Rb_tree_node_base"** @_ZNSt8_Rb_treeIiSt4pairIKiNSt7__cxx1112basic_stringIcSt11char_traitsIcESaIcEEEESt10_Select1stIS8_ESt4lessIiESaIS8_EE12_M_rightmostEv(%"class.std::_Rb_tree"* nonnull align 8 dereferenceable(48) %17) #2, !llfi_index !1103
  %32 = load %"struct.std::_Rb_tree_node_base"*, %"struct.std::_Rb_tree_node_base"** %31, align 8, !llfi_index !1104
  %33 = call nonnull align 4 dereferenceable(4) i32* @_ZNSt8_Rb_treeIiSt4pairIKiNSt7__cxx1112basic_stringIcSt11char_traitsIcESaIcEEEESt10_Select1stIS8_ESt4lessIiESaIS8_EE6_S_keyEPKSt18_Rb_tree_node_base(%"struct.std::_Rb_tree_node_base"* %32), !llfi_index !1105
  %34 = load i32*, i32** %7, align 8, !llfi_index !1106
  %35 = call zeroext i1 @_ZNKSt4lessIiEclERKiS2_(%"class.std::ios_base::Init"* nonnull align 1 dereferenceable(1) %30, i32* nonnull align 4 dereferenceable(4) %33, i32* nonnull align 4 dereferenceable(4) %34), !llfi_index !1107
  br i1 %35, label %36, label %38, !llfi_index !1108

36:                                               ; preds = %27
  store %"struct.std::_Rb_tree_node_base"* null, %"struct.std::_Rb_tree_node_base"** %9, align 8, !llfi_index !1109
  %37 = call nonnull align 8 dereferenceable(8) %"struct.std::_Rb_tree_node_base"** @_ZNSt8_Rb_treeIiSt4pairIKiNSt7__cxx1112basic_stringIcSt11char_traitsIcESaIcEEEESt10_Select1stIS8_ESt4lessIiESaIS8_EE12_M_rightmostEv(%"class.std::_Rb_tree"* nonnull align 8 dereferenceable(48) %17) #2, !llfi_index !1110
  call void @_ZNSt4pairIPSt18_Rb_tree_node_baseS1_EC2IRS1_Lb1EEERKS1_OT_(%"struct.std::pair.21"* nonnull align 8 dereferenceable(16) %4, %"struct.std::_Rb_tree_node_base"** nonnull align 8 dereferenceable(8) %9, %"struct.std::_Rb_tree_node_base"** nonnull align 8 dereferenceable(8) %37), !llfi_index !1111
  br label %143, !llfi_index !1112

38:                                               ; preds = %27, %24
  %39 = load i32*, i32** %7, align 8, !llfi_index !1113
  %40 = call { %"struct.std::_Rb_tree_node_base"*, %"struct.std::_Rb_tree_node_base"* } @_ZNSt8_Rb_treeIiSt4pairIKiNSt7__cxx1112basic_stringIcSt11char_traitsIcESaIcEEEESt10_Select1stIS8_ESt4lessIiESaIS8_EE24_M_get_insert_unique_posERS1_(%"class.std::_Rb_tree"* nonnull align 8 dereferenceable(48) %17, i32* nonnull align 4 dereferenceable(4) %39), !llfi_index !1114
  %41 = bitcast %"struct.std::pair.21"* %4 to { %"struct.std::_Rb_tree_node_base"*, %"struct.std::_Rb_tree_node_base"* }*, !llfi_index !1115
  %42 = getelementptr inbounds { %"struct.std::_Rb_tree_node_base"*, %"struct.std::_Rb_tree_node_base"* }, { %"struct.std::_Rb_tree_node_base"*, %"struct.std::_Rb_tree_node_base"* }* %41, i32 0, i32 0, !llfi_index !1116
  %43 = extractvalue { %"struct.std::_Rb_tree_node_base"*, %"struct.std::_Rb_tree_node_base"* } %40, 0, !llfi_index !1117
  store %"struct.std::_Rb_tree_node_base"* %43, %"struct.std::_Rb_tree_node_base"** %42, align 8, !llfi_index !1118
  %44 = getelementptr inbounds { %"struct.std::_Rb_tree_node_base"*, %"struct.std::_Rb_tree_node_base"* }, { %"struct.std::_Rb_tree_node_base"*, %"struct.std::_Rb_tree_node_base"* }* %41, i32 0, i32 1, !llfi_index !1119
  %45 = extractvalue { %"struct.std::_Rb_tree_node_base"*, %"struct.std::_Rb_tree_node_base"* } %40, 1, !llfi_index !1120
  store %"struct.std::_Rb_tree_node_base"* %45, %"struct.std::_Rb_tree_node_base"** %44, align 8, !llfi_index !1121
  br label %143, !llfi_index !1122

46:                                               ; preds = %3
  %47 = getelementptr inbounds %"class.std::_Rb_tree", %"class.std::_Rb_tree"* %17, i32 0, i32 0, !llfi_index !1123
  %48 = bitcast %"struct.std::_Rb_tree<std::__cxx11::basic_string<char>, std::pair<const std::__cxx11::basic_string<char>, int>, std::_Select1st<std::pair<const std::__cxx11::basic_string<char>, int>>, std::less<std::__cxx11::basic_string<char>>>::_Rb_tree_impl"* %47 to %"struct.std::_Rb_tree_key_compare"*, !llfi_index !1124
  %49 = getelementptr inbounds %"struct.std::_Rb_tree_key_compare", %"struct.std::_Rb_tree_key_compare"* %48, i32 0, i32 0, !llfi_index !1125
  %50 = load i32*, i32** %7, align 8, !llfi_index !1126
  %51 = getelementptr inbounds %"struct.std::_Rb_tree_iterator", %"struct.std::_Rb_tree_iterator"* %8, i32 0, i32 0, !llfi_index !1127
  %52 = load %"struct.std::_Rb_tree_node_base"*, %"struct.std::_Rb_tree_node_base"** %51, align 8, !llfi_index !1128
  %53 = call nonnull align 4 dereferenceable(4) i32* @_ZNSt8_Rb_treeIiSt4pairIKiNSt7__cxx1112basic_stringIcSt11char_traitsIcESaIcEEEESt10_Select1stIS8_ESt4lessIiESaIS8_EE6_S_keyEPKSt18_Rb_tree_node_base(%"struct.std::_Rb_tree_node_base"* %52), !llfi_index !1129
  %54 = call zeroext i1 @_ZNKSt4lessIiEclERKiS2_(%"class.std::ios_base::Init"* nonnull align 1 dereferenceable(1) %49, i32* nonnull align 4 dereferenceable(4) %50, i32* nonnull align 4 dereferenceable(4) %53), !llfi_index !1130
  br i1 %54, label %55, label %94, !llfi_index !1131

55:                                               ; preds = %46
  %56 = bitcast %"struct.std::_Rb_tree_iterator"* %10 to i8*, !llfi_index !1132
  %57 = bitcast %"struct.std::_Rb_tree_iterator"* %8 to i8*, !llfi_index !1133
  call void @llvm.memcpy.p0i8.p0i8.i64(i8* align 8 %56, i8* align 8 %57, i64 8, i1 false), !llfi_index !1134
  %58 = getelementptr inbounds %"struct.std::_Rb_tree_iterator", %"struct.std::_Rb_tree_iterator"* %8, i32 0, i32 0, !llfi_index !1135
  %59 = load %"struct.std::_Rb_tree_node_base"*, %"struct.std::_Rb_tree_node_base"** %58, align 8, !llfi_index !1136
  %60 = call nonnull align 8 dereferenceable(8) %"struct.std::_Rb_tree_node_base"** @_ZNSt8_Rb_treeIiSt4pairIKiNSt7__cxx1112basic_stringIcSt11char_traitsIcESaIcEEEESt10_Select1stIS8_ESt4lessIiESaIS8_EE11_M_leftmostEv(%"class.std::_Rb_tree"* nonnull align 8 dereferenceable(48) %17) #2, !llfi_index !1137
  %61 = load %"struct.std::_Rb_tree_node_base"*, %"struct.std::_Rb_tree_node_base"** %60, align 8, !llfi_index !1138
  %62 = icmp eq %"struct.std::_Rb_tree_node_base"* %59, %61, !llfi_index !1139
  br i1 %62, label %63, label %66, !llfi_index !1140

63:                                               ; preds = %55
  %64 = call nonnull align 8 dereferenceable(8) %"struct.std::_Rb_tree_node_base"** @_ZNSt8_Rb_treeIiSt4pairIKiNSt7__cxx1112basic_stringIcSt11char_traitsIcESaIcEEEESt10_Select1stIS8_ESt4lessIiESaIS8_EE11_M_leftmostEv(%"class.std::_Rb_tree"* nonnull align 8 dereferenceable(48) %17) #2, !llfi_index !1141
  %65 = call nonnull align 8 dereferenceable(8) %"struct.std::_Rb_tree_node_base"** @_ZNSt8_Rb_treeIiSt4pairIKiNSt7__cxx1112basic_stringIcSt11char_traitsIcESaIcEEEESt10_Select1stIS8_ESt4lessIiESaIS8_EE11_M_leftmostEv(%"class.std::_Rb_tree"* nonnull align 8 dereferenceable(48) %17) #2, !llfi_index !1142
  call void @_ZNSt4pairIPSt18_Rb_tree_node_baseS1_EC2IRS1_S4_Lb1EEEOT_OT0_(%"struct.std::pair.21"* nonnull align 8 dereferenceable(16) %4, %"struct.std::_Rb_tree_node_base"** nonnull align 8 dereferenceable(8) %64, %"struct.std::_Rb_tree_node_base"** nonnull align 8 dereferenceable(8) %65), !llfi_index !1143
  br label %143, !llfi_index !1144

66:                                               ; preds = %55
  %67 = getelementptr inbounds %"class.std::_Rb_tree", %"class.std::_Rb_tree"* %17, i32 0, i32 0, !llfi_index !1145
  %68 = bitcast %"struct.std::_Rb_tree<std::__cxx11::basic_string<char>, std::pair<const std::__cxx11::basic_string<char>, int>, std::_Select1st<std::pair<const std::__cxx11::basic_string<char>, int>>, std::less<std::__cxx11::basic_string<char>>>::_Rb_tree_impl"* %67 to %"struct.std::_Rb_tree_key_compare"*, !llfi_index !1146
  %69 = getelementptr inbounds %"struct.std::_Rb_tree_key_compare", %"struct.std::_Rb_tree_key_compare"* %68, i32 0, i32 0, !llfi_index !1147
  %70 = call nonnull align 8 dereferenceable(8) %"struct.std::_Rb_tree_iterator"* @_ZNSt17_Rb_tree_iteratorISt4pairIKiNSt7__cxx1112basic_stringIcSt11char_traitsIcESaIcEEEEEmmEv(%"struct.std::_Rb_tree_iterator"* nonnull align 8 dereferenceable(8) %10) #2, !llfi_index !1148
  %71 = getelementptr inbounds %"struct.std::_Rb_tree_iterator", %"struct.std::_Rb_tree_iterator"* %70, i32 0, i32 0, !llfi_index !1149
  %72 = load %"struct.std::_Rb_tree_node_base"*, %"struct.std::_Rb_tree_node_base"** %71, align 8, !llfi_index !1150
  %73 = call nonnull align 4 dereferenceable(4) i32* @_ZNSt8_Rb_treeIiSt4pairIKiNSt7__cxx1112basic_stringIcSt11char_traitsIcESaIcEEEESt10_Select1stIS8_ESt4lessIiESaIS8_EE6_S_keyEPKSt18_Rb_tree_node_base(%"struct.std::_Rb_tree_node_base"* %72), !llfi_index !1151
  %74 = load i32*, i32** %7, align 8, !llfi_index !1152
  %75 = call zeroext i1 @_ZNKSt4lessIiEclERKiS2_(%"class.std::ios_base::Init"* nonnull align 1 dereferenceable(1) %69, i32* nonnull align 4 dereferenceable(4) %73, i32* nonnull align 4 dereferenceable(4) %74), !llfi_index !1153
  br i1 %75, label %76, label %86, !llfi_index !1154

76:                                               ; preds = %66
  %77 = getelementptr inbounds %"struct.std::_Rb_tree_iterator", %"struct.std::_Rb_tree_iterator"* %10, i32 0, i32 0, !llfi_index !1155
  %78 = load %"struct.std::_Rb_tree_node_base"*, %"struct.std::_Rb_tree_node_base"** %77, align 8, !llfi_index !1156
  %79 = call %"struct.std::_Rb_tree_node.15"* @_ZNSt8_Rb_treeIiSt4pairIKiNSt7__cxx1112basic_stringIcSt11char_traitsIcESaIcEEEESt10_Select1stIS8_ESt4lessIiESaIS8_EE8_S_rightEPSt18_Rb_tree_node_base(%"struct.std::_Rb_tree_node_base"* %78) #2, !llfi_index !1157
  %80 = icmp eq %"struct.std::_Rb_tree_node.15"* %79, null, !llfi_index !1158
  br i1 %80, label %81, label %83, !llfi_index !1159

81:                                               ; preds = %76
  store %"struct.std::_Rb_tree_node_base"* null, %"struct.std::_Rb_tree_node_base"** %11, align 8, !llfi_index !1160
  %82 = getelementptr inbounds %"struct.std::_Rb_tree_iterator", %"struct.std::_Rb_tree_iterator"* %10, i32 0, i32 0, !llfi_index !1161
  call void @_ZNSt4pairIPSt18_Rb_tree_node_baseS1_EC2IRS1_Lb1EEERKS1_OT_(%"struct.std::pair.21"* nonnull align 8 dereferenceable(16) %4, %"struct.std::_Rb_tree_node_base"** nonnull align 8 dereferenceable(8) %11, %"struct.std::_Rb_tree_node_base"** nonnull align 8 dereferenceable(8) %82), !llfi_index !1162
  br label %143, !llfi_index !1163

83:                                               ; preds = %76
  %84 = getelementptr inbounds %"struct.std::_Rb_tree_iterator", %"struct.std::_Rb_tree_iterator"* %8, i32 0, i32 0, !llfi_index !1164
  %85 = getelementptr inbounds %"struct.std::_Rb_tree_iterator", %"struct.std::_Rb_tree_iterator"* %8, i32 0, i32 0, !llfi_index !1165
  call void @_ZNSt4pairIPSt18_Rb_tree_node_baseS1_EC2IRS1_S4_Lb1EEEOT_OT0_(%"struct.std::pair.21"* nonnull align 8 dereferenceable(16) %4, %"struct.std::_Rb_tree_node_base"** nonnull align 8 dereferenceable(8) %84, %"struct.std::_Rb_tree_node_base"** nonnull align 8 dereferenceable(8) %85), !llfi_index !1166
  br label %143, !llfi_index !1167

86:                                               ; preds = %66
  %87 = load i32*, i32** %7, align 8, !llfi_index !1168
  %88 = call { %"struct.std::_Rb_tree_node_base"*, %"struct.std::_Rb_tree_node_base"* } @_ZNSt8_Rb_treeIiSt4pairIKiNSt7__cxx1112basic_stringIcSt11char_traitsIcESaIcEEEESt10_Select1stIS8_ESt4lessIiESaIS8_EE24_M_get_insert_unique_posERS1_(%"class.std::_Rb_tree"* nonnull align 8 dereferenceable(48) %17, i32* nonnull align 4 dereferenceable(4) %87), !llfi_index !1169
  %89 = bitcast %"struct.std::pair.21"* %4 to { %"struct.std::_Rb_tree_node_base"*, %"struct.std::_Rb_tree_node_base"* }*, !llfi_index !1170
  %90 = getelementptr inbounds { %"struct.std::_Rb_tree_node_base"*, %"struct.std::_Rb_tree_node_base"* }, { %"struct.std::_Rb_tree_node_base"*, %"struct.std::_Rb_tree_node_base"* }* %89, i32 0, i32 0, !llfi_index !1171
  %91 = extractvalue { %"struct.std::_Rb_tree_node_base"*, %"struct.std::_Rb_tree_node_base"* } %88, 0, !llfi_index !1172
  store %"struct.std::_Rb_tree_node_base"* %91, %"struct.std::_Rb_tree_node_base"** %90, align 8, !llfi_index !1173
  %92 = getelementptr inbounds { %"struct.std::_Rb_tree_node_base"*, %"struct.std::_Rb_tree_node_base"* }, { %"struct.std::_Rb_tree_node_base"*, %"struct.std::_Rb_tree_node_base"* }* %89, i32 0, i32 1, !llfi_index !1174
  %93 = extractvalue { %"struct.std::_Rb_tree_node_base"*, %"struct.std::_Rb_tree_node_base"* } %88, 1, !llfi_index !1175
  store %"struct.std::_Rb_tree_node_base"* %93, %"struct.std::_Rb_tree_node_base"** %92, align 8, !llfi_index !1176
  br label %143, !llfi_index !1177

94:                                               ; preds = %46
  %95 = getelementptr inbounds %"class.std::_Rb_tree", %"class.std::_Rb_tree"* %17, i32 0, i32 0, !llfi_index !1178
  %96 = bitcast %"struct.std::_Rb_tree<std::__cxx11::basic_string<char>, std::pair<const std::__cxx11::basic_string<char>, int>, std::_Select1st<std::pair<const std::__cxx11::basic_string<char>, int>>, std::less<std::__cxx11::basic_string<char>>>::_Rb_tree_impl"* %95 to %"struct.std::_Rb_tree_key_compare"*, !llfi_index !1179
  %97 = getelementptr inbounds %"struct.std::_Rb_tree_key_compare", %"struct.std::_Rb_tree_key_compare"* %96, i32 0, i32 0, !llfi_index !1180
  %98 = getelementptr inbounds %"struct.std::_Rb_tree_iterator", %"struct.std::_Rb_tree_iterator"* %8, i32 0, i32 0, !llfi_index !1181
  %99 = load %"struct.std::_Rb_tree_node_base"*, %"struct.std::_Rb_tree_node_base"** %98, align 8, !llfi_index !1182
  %100 = call nonnull align 4 dereferenceable(4) i32* @_ZNSt8_Rb_treeIiSt4pairIKiNSt7__cxx1112basic_stringIcSt11char_traitsIcESaIcEEEESt10_Select1stIS8_ESt4lessIiESaIS8_EE6_S_keyEPKSt18_Rb_tree_node_base(%"struct.std::_Rb_tree_node_base"* %99), !llfi_index !1183
  %101 = load i32*, i32** %7, align 8, !llfi_index !1184
  %102 = call zeroext i1 @_ZNKSt4lessIiEclERKiS2_(%"class.std::ios_base::Init"* nonnull align 1 dereferenceable(1) %97, i32* nonnull align 4 dereferenceable(4) %100, i32* nonnull align 4 dereferenceable(4) %101), !llfi_index !1185
  br i1 %102, label %103, label %141, !llfi_index !1186

103:                                              ; preds = %94
  %104 = bitcast %"struct.std::_Rb_tree_iterator"* %12 to i8*, !llfi_index !1187
  %105 = bitcast %"struct.std::_Rb_tree_iterator"* %8 to i8*, !llfi_index !1188
  call void @llvm.memcpy.p0i8.p0i8.i64(i8* align 8 %104, i8* align 8 %105, i64 8, i1 false), !llfi_index !1189
  %106 = getelementptr inbounds %"struct.std::_Rb_tree_iterator", %"struct.std::_Rb_tree_iterator"* %8, i32 0, i32 0, !llfi_index !1190
  %107 = load %"struct.std::_Rb_tree_node_base"*, %"struct.std::_Rb_tree_node_base"** %106, align 8, !llfi_index !1191
  %108 = call nonnull align 8 dereferenceable(8) %"struct.std::_Rb_tree_node_base"** @_ZNSt8_Rb_treeIiSt4pairIKiNSt7__cxx1112basic_stringIcSt11char_traitsIcESaIcEEEESt10_Select1stIS8_ESt4lessIiESaIS8_EE12_M_rightmostEv(%"class.std::_Rb_tree"* nonnull align 8 dereferenceable(48) %17) #2, !llfi_index !1192
  %109 = load %"struct.std::_Rb_tree_node_base"*, %"struct.std::_Rb_tree_node_base"** %108, align 8, !llfi_index !1193
  %110 = icmp eq %"struct.std::_Rb_tree_node_base"* %107, %109, !llfi_index !1194
  br i1 %110, label %111, label %113, !llfi_index !1195

111:                                              ; preds = %103
  store %"struct.std::_Rb_tree_node_base"* null, %"struct.std::_Rb_tree_node_base"** %13, align 8, !llfi_index !1196
  %112 = call nonnull align 8 dereferenceable(8) %"struct.std::_Rb_tree_node_base"** @_ZNSt8_Rb_treeIiSt4pairIKiNSt7__cxx1112basic_stringIcSt11char_traitsIcESaIcEEEESt10_Select1stIS8_ESt4lessIiESaIS8_EE12_M_rightmostEv(%"class.std::_Rb_tree"* nonnull align 8 dereferenceable(48) %17) #2, !llfi_index !1197
  call void @_ZNSt4pairIPSt18_Rb_tree_node_baseS1_EC2IRS1_Lb1EEERKS1_OT_(%"struct.std::pair.21"* nonnull align 8 dereferenceable(16) %4, %"struct.std::_Rb_tree_node_base"** nonnull align 8 dereferenceable(8) %13, %"struct.std::_Rb_tree_node_base"** nonnull align 8 dereferenceable(8) %112), !llfi_index !1198
  br label %143, !llfi_index !1199

113:                                              ; preds = %103
  %114 = getelementptr inbounds %"class.std::_Rb_tree", %"class.std::_Rb_tree"* %17, i32 0, i32 0, !llfi_index !1200
  %115 = bitcast %"struct.std::_Rb_tree<std::__cxx11::basic_string<char>, std::pair<const std::__cxx11::basic_string<char>, int>, std::_Select1st<std::pair<const std::__cxx11::basic_string<char>, int>>, std::less<std::__cxx11::basic_string<char>>>::_Rb_tree_impl"* %114 to %"struct.std::_Rb_tree_key_compare"*, !llfi_index !1201
  %116 = getelementptr inbounds %"struct.std::_Rb_tree_key_compare", %"struct.std::_Rb_tree_key_compare"* %115, i32 0, i32 0, !llfi_index !1202
  %117 = load i32*, i32** %7, align 8, !llfi_index !1203
  %118 = call nonnull align 8 dereferenceable(8) %"struct.std::_Rb_tree_iterator"* @_ZNSt17_Rb_tree_iteratorISt4pairIKiNSt7__cxx1112basic_stringIcSt11char_traitsIcESaIcEEEEEppEv(%"struct.std::_Rb_tree_iterator"* nonnull align 8 dereferenceable(8) %12) #2, !llfi_index !1204
  %119 = getelementptr inbounds %"struct.std::_Rb_tree_iterator", %"struct.std::_Rb_tree_iterator"* %118, i32 0, i32 0, !llfi_index !1205
  %120 = load %"struct.std::_Rb_tree_node_base"*, %"struct.std::_Rb_tree_node_base"** %119, align 8, !llfi_index !1206
  %121 = call nonnull align 4 dereferenceable(4) i32* @_ZNSt8_Rb_treeIiSt4pairIKiNSt7__cxx1112basic_stringIcSt11char_traitsIcESaIcEEEESt10_Select1stIS8_ESt4lessIiESaIS8_EE6_S_keyEPKSt18_Rb_tree_node_base(%"struct.std::_Rb_tree_node_base"* %120), !llfi_index !1207
  %122 = call zeroext i1 @_ZNKSt4lessIiEclERKiS2_(%"class.std::ios_base::Init"* nonnull align 1 dereferenceable(1) %116, i32* nonnull align 4 dereferenceable(4) %117, i32* nonnull align 4 dereferenceable(4) %121), !llfi_index !1208
  br i1 %122, label %123, label %133, !llfi_index !1209

123:                                              ; preds = %113
  %124 = getelementptr inbounds %"struct.std::_Rb_tree_iterator", %"struct.std::_Rb_tree_iterator"* %8, i32 0, i32 0, !llfi_index !1210
  %125 = load %"struct.std::_Rb_tree_node_base"*, %"struct.std::_Rb_tree_node_base"** %124, align 8, !llfi_index !1211
  %126 = call %"struct.std::_Rb_tree_node.15"* @_ZNSt8_Rb_treeIiSt4pairIKiNSt7__cxx1112basic_stringIcSt11char_traitsIcESaIcEEEESt10_Select1stIS8_ESt4lessIiESaIS8_EE8_S_rightEPSt18_Rb_tree_node_base(%"struct.std::_Rb_tree_node_base"* %125) #2, !llfi_index !1212
  %127 = icmp eq %"struct.std::_Rb_tree_node.15"* %126, null, !llfi_index !1213
  br i1 %127, label %128, label %130, !llfi_index !1214

128:                                              ; preds = %123
  store %"struct.std::_Rb_tree_node_base"* null, %"struct.std::_Rb_tree_node_base"** %14, align 8, !llfi_index !1215
  %129 = getelementptr inbounds %"struct.std::_Rb_tree_iterator", %"struct.std::_Rb_tree_iterator"* %8, i32 0, i32 0, !llfi_index !1216
  call void @_ZNSt4pairIPSt18_Rb_tree_node_baseS1_EC2IRS1_Lb1EEERKS1_OT_(%"struct.std::pair.21"* nonnull align 8 dereferenceable(16) %4, %"struct.std::_Rb_tree_node_base"** nonnull align 8 dereferenceable(8) %14, %"struct.std::_Rb_tree_node_base"** nonnull align 8 dereferenceable(8) %129), !llfi_index !1217
  br label %143, !llfi_index !1218

130:                                              ; preds = %123
  %131 = getelementptr inbounds %"struct.std::_Rb_tree_iterator", %"struct.std::_Rb_tree_iterator"* %12, i32 0, i32 0, !llfi_index !1219
  %132 = getelementptr inbounds %"struct.std::_Rb_tree_iterator", %"struct.std::_Rb_tree_iterator"* %12, i32 0, i32 0, !llfi_index !1220
  call void @_ZNSt4pairIPSt18_Rb_tree_node_baseS1_EC2IRS1_S4_Lb1EEEOT_OT0_(%"struct.std::pair.21"* nonnull align 8 dereferenceable(16) %4, %"struct.std::_Rb_tree_node_base"** nonnull align 8 dereferenceable(8) %131, %"struct.std::_Rb_tree_node_base"** nonnull align 8 dereferenceable(8) %132), !llfi_index !1221
  br label %143, !llfi_index !1222

133:                                              ; preds = %113
  %134 = load i32*, i32** %7, align 8, !llfi_index !1223
  %135 = call { %"struct.std::_Rb_tree_node_base"*, %"struct.std::_Rb_tree_node_base"* } @_ZNSt8_Rb_treeIiSt4pairIKiNSt7__cxx1112basic_stringIcSt11char_traitsIcESaIcEEEESt10_Select1stIS8_ESt4lessIiESaIS8_EE24_M_get_insert_unique_posERS1_(%"class.std::_Rb_tree"* nonnull align 8 dereferenceable(48) %17, i32* nonnull align 4 dereferenceable(4) %134), !llfi_index !1224
  %136 = bitcast %"struct.std::pair.21"* %4 to { %"struct.std::_Rb_tree_node_base"*, %"struct.std::_Rb_tree_node_base"* }*, !llfi_index !1225
  %137 = getelementptr inbounds { %"struct.std::_Rb_tree_node_base"*, %"struct.std::_Rb_tree_node_base"* }, { %"struct.std::_Rb_tree_node_base"*, %"struct.std::_Rb_tree_node_base"* }* %136, i32 0, i32 0, !llfi_index !1226
  %138 = extractvalue { %"struct.std::_Rb_tree_node_base"*, %"struct.std::_Rb_tree_node_base"* } %135, 0, !llfi_index !1227
  store %"struct.std::_Rb_tree_node_base"* %138, %"struct.std::_Rb_tree_node_base"** %137, align 8, !llfi_index !1228
  %139 = getelementptr inbounds { %"struct.std::_Rb_tree_node_base"*, %"struct.std::_Rb_tree_node_base"* }, { %"struct.std::_Rb_tree_node_base"*, %"struct.std::_Rb_tree_node_base"* }* %136, i32 0, i32 1, !llfi_index !1229
  %140 = extractvalue { %"struct.std::_Rb_tree_node_base"*, %"struct.std::_Rb_tree_node_base"* } %135, 1, !llfi_index !1230
  store %"struct.std::_Rb_tree_node_base"* %140, %"struct.std::_Rb_tree_node_base"** %139, align 8, !llfi_index !1231
  br label %143, !llfi_index !1232

141:                                              ; preds = %94
  %142 = getelementptr inbounds %"struct.std::_Rb_tree_iterator", %"struct.std::_Rb_tree_iterator"* %8, i32 0, i32 0, !llfi_index !1233
  store %"struct.std::_Rb_tree_node_base"* null, %"struct.std::_Rb_tree_node_base"** %15, align 8, !llfi_index !1234
  call void @_ZNSt4pairIPSt18_Rb_tree_node_baseS1_EC2IRS1_Lb1EEEOT_RKS1_(%"struct.std::pair.21"* nonnull align 8 dereferenceable(16) %4, %"struct.std::_Rb_tree_node_base"** nonnull align 8 dereferenceable(8) %142, %"struct.std::_Rb_tree_node_base"** nonnull align 8 dereferenceable(8) %15), !llfi_index !1235
  br label %143, !llfi_index !1236

143:                                              ; preds = %141, %133, %130, %128, %111, %86, %83, %81, %63, %38, %36
  %144 = bitcast %"struct.std::pair.21"* %4 to { %"struct.std::_Rb_tree_node_base"*, %"struct.std::_Rb_tree_node_base"* }*, !llfi_index !1237
  %145 = load { %"struct.std::_Rb_tree_node_base"*, %"struct.std::_Rb_tree_node_base"* }, { %"struct.std::_Rb_tree_node_base"*, %"struct.std::_Rb_tree_node_base"* }* %144, align 8, !llfi_index !1238
  ret { %"struct.std::_Rb_tree_node_base"*, %"struct.std::_Rb_tree_node_base"* } %145, !llfi_index !1239
}

; Function Attrs: mustprogress noinline uwtable
define linkonce_odr dso_local %"struct.std::_Rb_tree_node_base"* @_ZNSt8_Rb_treeIiSt4pairIKiNSt7__cxx1112basic_stringIcSt11char_traitsIcESaIcEEEESt10_Select1stIS8_ESt4lessIiESaIS8_EE14_M_insert_nodeEPSt18_Rb_tree_node_baseSG_PSt13_Rb_tree_nodeIS8_E(%"class.std::_Rb_tree"* nonnull align 8 dereferenceable(48) %0, %"struct.std::_Rb_tree_node_base"* %1, %"struct.std::_Rb_tree_node_base"* %2, %"struct.std::_Rb_tree_node.15"* %3) #4 comdat align 2 {
  %5 = alloca %"struct.std::_Rb_tree_iterator", align 8, !llfi_index !1240
  %6 = alloca %"class.std::_Rb_tree"*, align 8, !llfi_index !1241
  %7 = alloca %"struct.std::_Rb_tree_node_base"*, align 8, !llfi_index !1242
  %8 = alloca %"struct.std::_Rb_tree_node_base"*, align 8, !llfi_index !1243
  %9 = alloca %"struct.std::_Rb_tree_node.15"*, align 8, !llfi_index !1244
  %10 = alloca i8, align 1, !llfi_index !1245
  store %"class.std::_Rb_tree"* %0, %"class.std::_Rb_tree"** %6, align 8, !llfi_index !1246
  store %"struct.std::_Rb_tree_node_base"* %1, %"struct.std::_Rb_tree_node_base"** %7, align 8, !llfi_index !1247
  store %"struct.std::_Rb_tree_node_base"* %2, %"struct.std::_Rb_tree_node_base"** %8, align 8, !llfi_index !1248
  store %"struct.std::_Rb_tree_node.15"* %3, %"struct.std::_Rb_tree_node.15"** %9, align 8, !llfi_index !1249
  %11 = load %"class.std::_Rb_tree"*, %"class.std::_Rb_tree"** %6, align 8, !llfi_index !1250
  %12 = load %"struct.std::_Rb_tree_node_base"*, %"struct.std::_Rb_tree_node_base"** %7, align 8, !llfi_index !1251
  %13 = icmp ne %"struct.std::_Rb_tree_node_base"* %12, null, !llfi_index !1252
  br i1 %13, label %27, label %14, !llfi_index !1253

14:                                               ; preds = %4
  %15 = load %"struct.std::_Rb_tree_node_base"*, %"struct.std::_Rb_tree_node_base"** %8, align 8, !llfi_index !1254
  %16 = call %"struct.std::_Rb_tree_node_base"* @_ZNSt8_Rb_treeIiSt4pairIKiNSt7__cxx1112basic_stringIcSt11char_traitsIcESaIcEEEESt10_Select1stIS8_ESt4lessIiESaIS8_EE6_M_endEv(%"class.std::_Rb_tree"* nonnull align 8 dereferenceable(48) %11) #2, !llfi_index !1255
  %17 = icmp eq %"struct.std::_Rb_tree_node_base"* %15, %16, !llfi_index !1256
  br i1 %17, label %27, label %18, !llfi_index !1257

18:                                               ; preds = %14
  %19 = getelementptr inbounds %"class.std::_Rb_tree", %"class.std::_Rb_tree"* %11, i32 0, i32 0, !llfi_index !1258
  %20 = bitcast %"struct.std::_Rb_tree<std::__cxx11::basic_string<char>, std::pair<const std::__cxx11::basic_string<char>, int>, std::_Select1st<std::pair<const std::__cxx11::basic_string<char>, int>>, std::less<std::__cxx11::basic_string<char>>>::_Rb_tree_impl"* %19 to %"struct.std::_Rb_tree_key_compare"*, !llfi_index !1259
  %21 = getelementptr inbounds %"struct.std::_Rb_tree_key_compare", %"struct.std::_Rb_tree_key_compare"* %20, i32 0, i32 0, !llfi_index !1260
  %22 = load %"struct.std::_Rb_tree_node.15"*, %"struct.std::_Rb_tree_node.15"** %9, align 8, !llfi_index !1261
  %23 = call nonnull align 4 dereferenceable(4) i32* @_ZNSt8_Rb_treeIiSt4pairIKiNSt7__cxx1112basic_stringIcSt11char_traitsIcESaIcEEEESt10_Select1stIS8_ESt4lessIiESaIS8_EE6_S_keyEPKSt13_Rb_tree_nodeIS8_E(%"struct.std::_Rb_tree_node.15"* %22), !llfi_index !1262
  %24 = load %"struct.std::_Rb_tree_node_base"*, %"struct.std::_Rb_tree_node_base"** %8, align 8, !llfi_index !1263
  %25 = call nonnull align 4 dereferenceable(4) i32* @_ZNSt8_Rb_treeIiSt4pairIKiNSt7__cxx1112basic_stringIcSt11char_traitsIcESaIcEEEESt10_Select1stIS8_ESt4lessIiESaIS8_EE6_S_keyEPKSt18_Rb_tree_node_base(%"struct.std::_Rb_tree_node_base"* %24), !llfi_index !1264
  %26 = call zeroext i1 @_ZNKSt4lessIiEclERKiS2_(%"class.std::ios_base::Init"* nonnull align 1 dereferenceable(1) %21, i32* nonnull align 4 dereferenceable(4) %23, i32* nonnull align 4 dereferenceable(4) %25), !llfi_index !1265
  br label %27, !llfi_index !1266

27:                                               ; preds = %18, %14, %4
  %28 = phi i1 [ true, %14 ], [ true, %4 ], [ %26, %18 ], !llfi_index !1267
  %29 = zext i1 %28 to i8, !llfi_index !1268
  store i8 %29, i8* %10, align 1, !llfi_index !1269
  %30 = load i8, i8* %10, align 1, !llfi_index !1270
  %31 = trunc i8 %30 to i1, !llfi_index !1271
  %32 = load %"struct.std::_Rb_tree_node.15"*, %"struct.std::_Rb_tree_node.15"** %9, align 8, !llfi_index !1272
  %33 = bitcast %"struct.std::_Rb_tree_node.15"* %32 to %"struct.std::_Rb_tree_node_base"*, !llfi_index !1273
  %34 = load %"struct.std::_Rb_tree_node_base"*, %"struct.std::_Rb_tree_node_base"** %8, align 8, !llfi_index !1274
  %35 = getelementptr inbounds %"class.std::_Rb_tree", %"class.std::_Rb_tree"* %11, i32 0, i32 0, !llfi_index !1275
  %36 = bitcast %"struct.std::_Rb_tree<std::__cxx11::basic_string<char>, std::pair<const std::__cxx11::basic_string<char>, int>, std::_Select1st<std::pair<const std::__cxx11::basic_string<char>, int>>, std::less<std::__cxx11::basic_string<char>>>::_Rb_tree_impl"* %35 to i8*, !llfi_index !1276
  %37 = getelementptr inbounds i8, i8* %36, i64 8, !llfi_index !1277
  %38 = bitcast i8* %37 to %"struct.std::_Rb_tree_header"*, !llfi_index !1278
  %39 = getelementptr inbounds %"struct.std::_Rb_tree_header", %"struct.std::_Rb_tree_header"* %38, i32 0, i32 0, !llfi_index !1279
  call void @_ZSt29_Rb_tree_insert_and_rebalancebPSt18_Rb_tree_node_baseS0_RS_(i1 zeroext %31, %"struct.std::_Rb_tree_node_base"* %33, %"struct.std::_Rb_tree_node_base"* %34, %"struct.std::_Rb_tree_node_base"* nonnull align 8 dereferenceable(32) %39) #2, !llfi_index !1280
  %40 = getelementptr inbounds %"class.std::_Rb_tree", %"class.std::_Rb_tree"* %11, i32 0, i32 0, !llfi_index !1281
  %41 = bitcast %"struct.std::_Rb_tree<std::__cxx11::basic_string<char>, std::pair<const std::__cxx11::basic_string<char>, int>, std::_Select1st<std::pair<const std::__cxx11::basic_string<char>, int>>, std::less<std::__cxx11::basic_string<char>>>::_Rb_tree_impl"* %40 to i8*, !llfi_index !1282
  %42 = getelementptr inbounds i8, i8* %41, i64 8, !llfi_index !1283
  %43 = bitcast i8* %42 to %"struct.std::_Rb_tree_header"*, !llfi_index !1284
  %44 = getelementptr inbounds %"struct.std::_Rb_tree_header", %"struct.std::_Rb_tree_header"* %43, i32 0, i32 1, !llfi_index !1285
  %45 = load i64, i64* %44, align 8, !llfi_index !1286
  %46 = add i64 %45, 1, !llfi_index !1287
  store i64 %46, i64* %44, align 8, !llfi_index !1288
  %47 = load %"struct.std::_Rb_tree_node.15"*, %"struct.std::_Rb_tree_node.15"** %9, align 8, !llfi_index !1289
  %48 = bitcast %"struct.std::_Rb_tree_node.15"* %47 to %"struct.std::_Rb_tree_node_base"*, !llfi_index !1290
  call void @_ZNSt17_Rb_tree_iteratorISt4pairIKiNSt7__cxx1112basic_stringIcSt11char_traitsIcESaIcEEEEEC2EPSt18_Rb_tree_node_base(%"struct.std::_Rb_tree_iterator"* nonnull align 8 dereferenceable(8) %5, %"struct.std::_Rb_tree_node_base"* %48) #2, !llfi_index !1291
  %49 = getelementptr inbounds %"struct.std::_Rb_tree_iterator", %"struct.std::_Rb_tree_iterator"* %5, i32 0, i32 0, !llfi_index !1292
  %50 = load %"struct.std::_Rb_tree_node_base"*, %"struct.std::_Rb_tree_node_base"** %49, align 8, !llfi_index !1293
  ret %"struct.std::_Rb_tree_node_base"* %50, !llfi_index !1294
}

declare dso_local void @__cxa_rethrow()

declare dso_local void @__cxa_end_catch()

; Function Attrs: cold noreturn nounwind
declare void @llvm.trap() #10

; Function Attrs: mustprogress noinline nounwind uwtable
define linkonce_odr dso_local %"struct.std::_Rb_tree_node_base"* @_ZNSt8_Rb_treeIiSt4pairIKiNSt7__cxx1112basic_stringIcSt11char_traitsIcESaIcEEEESt10_Select1stIS8_ESt4lessIiESaIS8_EE6_M_endEv(%"class.std::_Rb_tree"* nonnull align 8 dereferenceable(48) %0) #6 comdat align 2 {
  %2 = alloca %"class.std::_Rb_tree"*, align 8, !llfi_index !1295
  store %"class.std::_Rb_tree"* %0, %"class.std::_Rb_tree"** %2, align 8, !llfi_index !1296
  %3 = load %"class.std::_Rb_tree"*, %"class.std::_Rb_tree"** %2, align 8, !llfi_index !1297
  %4 = getelementptr inbounds %"class.std::_Rb_tree", %"class.std::_Rb_tree"* %3, i32 0, i32 0, !llfi_index !1298
  %5 = bitcast %"struct.std::_Rb_tree<std::__cxx11::basic_string<char>, std::pair<const std::__cxx11::basic_string<char>, int>, std::_Select1st<std::pair<const std::__cxx11::basic_string<char>, int>>, std::less<std::__cxx11::basic_string<char>>>::_Rb_tree_impl"* %4 to i8*, !llfi_index !1299
  %6 = getelementptr inbounds i8, i8* %5, i64 8, !llfi_index !1300
  %7 = bitcast i8* %6 to %"struct.std::_Rb_tree_header"*, !llfi_index !1301
  %8 = getelementptr inbounds %"struct.std::_Rb_tree_header", %"struct.std::_Rb_tree_header"* %7, i32 0, i32 0, !llfi_index !1302
  ret %"struct.std::_Rb_tree_node_base"* %8, !llfi_index !1303
}

; Function Attrs: mustprogress noinline uwtable
define linkonce_odr dso_local nonnull align 4 dereferenceable(4) i32* @_ZNSt8_Rb_treeIiSt4pairIKiNSt7__cxx1112basic_stringIcSt11char_traitsIcESaIcEEEESt10_Select1stIS8_ESt4lessIiESaIS8_EE6_S_keyEPKSt18_Rb_tree_node_base(%"struct.std::_Rb_tree_node_base"* %0) #4 comdat align 2 {
  %2 = alloca %"struct.std::_Rb_tree_node_base"*, align 8, !llfi_index !1304
  store %"struct.std::_Rb_tree_node_base"* %0, %"struct.std::_Rb_tree_node_base"** %2, align 8, !llfi_index !1305
  %3 = load %"struct.std::_Rb_tree_node_base"*, %"struct.std::_Rb_tree_node_base"** %2, align 8, !llfi_index !1306
  %4 = bitcast %"struct.std::_Rb_tree_node_base"* %3 to %"struct.std::_Rb_tree_node.15"*, !llfi_index !1307
  %5 = call nonnull align 4 dereferenceable(4) i32* @_ZNSt8_Rb_treeIiSt4pairIKiNSt7__cxx1112basic_stringIcSt11char_traitsIcESaIcEEEESt10_Select1stIS8_ESt4lessIiESaIS8_EE6_S_keyEPKSt13_Rb_tree_nodeIS8_E(%"struct.std::_Rb_tree_node.15"* %4), !llfi_index !1308
  ret i32* %5, !llfi_index !1309
}

; Function Attrs: nounwind
declare dso_local void @_ZSt29_Rb_tree_insert_and_rebalancebPSt18_Rb_tree_node_baseS0_RS_(i1 zeroext, %"struct.std::_Rb_tree_node_base"*, %"struct.std::_Rb_tree_node_base"*, %"struct.std::_Rb_tree_node_base"* nonnull align 8 dereferenceable(32)) #3

; Function Attrs: mustprogress noinline nounwind uwtable
define linkonce_odr dso_local %"struct.std::_Rb_tree_node_base"* @_ZNKSt23_Rb_tree_const_iteratorISt4pairIKiNSt7__cxx1112basic_stringIcSt11char_traitsIcESaIcEEEEE13_M_const_castEv(%"struct.std::_Rb_tree_iterator"* nonnull align 8 dereferenceable(8) %0) #6 comdat align 2 {
  %2 = alloca %"struct.std::_Rb_tree_iterator", align 8, !llfi_index !1310
  %3 = alloca %"struct.std::_Rb_tree_iterator"*, align 8, !llfi_index !1311
  store %"struct.std::_Rb_tree_iterator"* %0, %"struct.std::_Rb_tree_iterator"** %3, align 8, !llfi_index !1312
  %4 = load %"struct.std::_Rb_tree_iterator"*, %"struct.std::_Rb_tree_iterator"** %3, align 8, !llfi_index !1313
  %5 = getelementptr inbounds %"struct.std::_Rb_tree_iterator", %"struct.std::_Rb_tree_iterator"* %4, i32 0, i32 0, !llfi_index !1314
  %6 = load %"struct.std::_Rb_tree_node_base"*, %"struct.std::_Rb_tree_node_base"** %5, align 8, !llfi_index !1315
  call void @_ZNSt17_Rb_tree_iteratorISt4pairIKiNSt7__cxx1112basic_stringIcSt11char_traitsIcESaIcEEEEEC2EPSt18_Rb_tree_node_base(%"struct.std::_Rb_tree_iterator"* nonnull align 8 dereferenceable(8) %2, %"struct.std::_Rb_tree_node_base"* %6) #2, !llfi_index !1316
  %7 = getelementptr inbounds %"struct.std::_Rb_tree_iterator", %"struct.std::_Rb_tree_iterator"* %2, i32 0, i32 0, !llfi_index !1317
  %8 = load %"struct.std::_Rb_tree_node_base"*, %"struct.std::_Rb_tree_node_base"** %7, align 8, !llfi_index !1318
  ret %"struct.std::_Rb_tree_node_base"* %8, !llfi_index !1319
}

; Function Attrs: mustprogress noinline nounwind uwtable
define linkonce_odr dso_local i64 @_ZNKSt8_Rb_treeIiSt4pairIKiNSt7__cxx1112basic_stringIcSt11char_traitsIcESaIcEEEESt10_Select1stIS8_ESt4lessIiESaIS8_EE4sizeEv(%"class.std::_Rb_tree"* nonnull align 8 dereferenceable(48) %0) #6 comdat align 2 {
  %2 = alloca %"class.std::_Rb_tree"*, align 8, !llfi_index !1320
  store %"class.std::_Rb_tree"* %0, %"class.std::_Rb_tree"** %2, align 8, !llfi_index !1321
  %3 = load %"class.std::_Rb_tree"*, %"class.std::_Rb_tree"** %2, align 8, !llfi_index !1322
  %4 = getelementptr inbounds %"class.std::_Rb_tree", %"class.std::_Rb_tree"* %3, i32 0, i32 0, !llfi_index !1323
  %5 = bitcast %"struct.std::_Rb_tree<std::__cxx11::basic_string<char>, std::pair<const std::__cxx11::basic_string<char>, int>, std::_Select1st<std::pair<const std::__cxx11::basic_string<char>, int>>, std::less<std::__cxx11::basic_string<char>>>::_Rb_tree_impl"* %4 to i8*, !llfi_index !1324
  %6 = getelementptr inbounds i8, i8* %5, i64 8, !llfi_index !1325
  %7 = bitcast i8* %6 to %"struct.std::_Rb_tree_header"*, !llfi_index !1326
  %8 = getelementptr inbounds %"struct.std::_Rb_tree_header", %"struct.std::_Rb_tree_header"* %7, i32 0, i32 1, !llfi_index !1327
  %9 = load i64, i64* %8, align 8, !llfi_index !1328
  ret i64 %9, !llfi_index !1329
}

; Function Attrs: mustprogress noinline nounwind uwtable
define linkonce_odr dso_local nonnull align 8 dereferenceable(8) %"struct.std::_Rb_tree_node_base"** @_ZNSt8_Rb_treeIiSt4pairIKiNSt7__cxx1112basic_stringIcSt11char_traitsIcESaIcEEEESt10_Select1stIS8_ESt4lessIiESaIS8_EE12_M_rightmostEv(%"class.std::_Rb_tree"* nonnull align 8 dereferenceable(48) %0) #6 comdat align 2 {
  %2 = alloca %"class.std::_Rb_tree"*, align 8, !llfi_index !1330
  store %"class.std::_Rb_tree"* %0, %"class.std::_Rb_tree"** %2, align 8, !llfi_index !1331
  %3 = load %"class.std::_Rb_tree"*, %"class.std::_Rb_tree"** %2, align 8, !llfi_index !1332
  %4 = getelementptr inbounds %"class.std::_Rb_tree", %"class.std::_Rb_tree"* %3, i32 0, i32 0, !llfi_index !1333
  %5 = bitcast %"struct.std::_Rb_tree<std::__cxx11::basic_string<char>, std::pair<const std::__cxx11::basic_string<char>, int>, std::_Select1st<std::pair<const std::__cxx11::basic_string<char>, int>>, std::less<std::__cxx11::basic_string<char>>>::_Rb_tree_impl"* %4 to i8*, !llfi_index !1334
  %6 = getelementptr inbounds i8, i8* %5, i64 8, !llfi_index !1335
  %7 = bitcast i8* %6 to %"struct.std::_Rb_tree_header"*, !llfi_index !1336
  %8 = getelementptr inbounds %"struct.std::_Rb_tree_header", %"struct.std::_Rb_tree_header"* %7, i32 0, i32 0, !llfi_index !1337
  %9 = getelementptr inbounds %"struct.std::_Rb_tree_node_base", %"struct.std::_Rb_tree_node_base"* %8, i32 0, i32 3, !llfi_index !1338
  ret %"struct.std::_Rb_tree_node_base"** %9, !llfi_index !1339
}

; Function Attrs: noinline nounwind uwtable
define linkonce_odr dso_local void @_ZNSt4pairIPSt18_Rb_tree_node_baseS1_EC2IRS1_Lb1EEERKS1_OT_(%"struct.std::pair.21"* nonnull align 8 dereferenceable(16) %0, %"struct.std::_Rb_tree_node_base"** nonnull align 8 dereferenceable(8) %1, %"struct.std::_Rb_tree_node_base"** nonnull align 8 dereferenceable(8) %2) unnamed_addr #5 comdat align 2 {
  %4 = alloca %"struct.std::pair.21"*, align 8, !llfi_index !1340
  %5 = alloca %"struct.std::_Rb_tree_node_base"**, align 8, !llfi_index !1341
  %6 = alloca %"struct.std::_Rb_tree_node_base"**, align 8, !llfi_index !1342
  store %"struct.std::pair.21"* %0, %"struct.std::pair.21"** %4, align 8, !llfi_index !1343
  store %"struct.std::_Rb_tree_node_base"** %1, %"struct.std::_Rb_tree_node_base"*** %5, align 8, !llfi_index !1344
  store %"struct.std::_Rb_tree_node_base"** %2, %"struct.std::_Rb_tree_node_base"*** %6, align 8, !llfi_index !1345
  %7 = load %"struct.std::pair.21"*, %"struct.std::pair.21"** %4, align 8, !llfi_index !1346
  %8 = bitcast %"struct.std::pair.21"* %7 to %"class.std::ios_base::Init"*, !llfi_index !1347
  %9 = getelementptr inbounds %"struct.std::pair.21", %"struct.std::pair.21"* %7, i32 0, i32 0, !llfi_index !1348
  %10 = load %"struct.std::_Rb_tree_node_base"**, %"struct.std::_Rb_tree_node_base"*** %5, align 8, !llfi_index !1349
  %11 = load %"struct.std::_Rb_tree_node_base"*, %"struct.std::_Rb_tree_node_base"** %10, align 8, !llfi_index !1350
  store %"struct.std::_Rb_tree_node_base"* %11, %"struct.std::_Rb_tree_node_base"** %9, align 8, !llfi_index !1351
  %12 = getelementptr inbounds %"struct.std::pair.21", %"struct.std::pair.21"* %7, i32 0, i32 1, !llfi_index !1352
  %13 = load %"struct.std::_Rb_tree_node_base"**, %"struct.std::_Rb_tree_node_base"*** %6, align 8, !llfi_index !1353
  %14 = call nonnull align 8 dereferenceable(8) %"struct.std::_Rb_tree_node_base"** @_ZSt7forwardIRPSt18_Rb_tree_node_baseEOT_RNSt16remove_referenceIS3_E4typeE(%"struct.std::_Rb_tree_node_base"** nonnull align 8 dereferenceable(8) %13) #2, !llfi_index !1354
  %15 = load %"struct.std::_Rb_tree_node_base"*, %"struct.std::_Rb_tree_node_base"** %14, align 8, !llfi_index !1355
  store %"struct.std::_Rb_tree_node_base"* %15, %"struct.std::_Rb_tree_node_base"** %12, align 8, !llfi_index !1356
  ret void, !llfi_index !1357
}

; Function Attrs: mustprogress noinline uwtable
define linkonce_odr dso_local { %"struct.std::_Rb_tree_node_base"*, %"struct.std::_Rb_tree_node_base"* } @_ZNSt8_Rb_treeIiSt4pairIKiNSt7__cxx1112basic_stringIcSt11char_traitsIcESaIcEEEESt10_Select1stIS8_ESt4lessIiESaIS8_EE24_M_get_insert_unique_posERS1_(%"class.std::_Rb_tree"* nonnull align 8 dereferenceable(48) %0, i32* nonnull align 4 dereferenceable(4) %1) #4 comdat align 2 {
  %3 = alloca %"struct.std::pair.21", align 8, !llfi_index !1358
  %4 = alloca %"class.std::_Rb_tree"*, align 8, !llfi_index !1359
  %5 = alloca i32*, align 8, !llfi_index !1360
  %6 = alloca %"struct.std::_Rb_tree_node.15"*, align 8, !llfi_index !1361
  %7 = alloca %"struct.std::_Rb_tree_node_base"*, align 8, !llfi_index !1362
  %8 = alloca i8, align 1, !llfi_index !1363
  %9 = alloca %"struct.std::_Rb_tree_iterator", align 8, !llfi_index !1364
  %10 = alloca %"struct.std::_Rb_tree_iterator", align 8, !llfi_index !1365
  %11 = alloca %"struct.std::_Rb_tree_node_base"*, align 8, !llfi_index !1366
  store %"class.std::_Rb_tree"* %0, %"class.std::_Rb_tree"** %4, align 8, !llfi_index !1367
  store i32* %1, i32** %5, align 8, !llfi_index !1368
  %12 = load %"class.std::_Rb_tree"*, %"class.std::_Rb_tree"** %4, align 8, !llfi_index !1369
  %13 = call %"struct.std::_Rb_tree_node.15"* @_ZNSt8_Rb_treeIiSt4pairIKiNSt7__cxx1112basic_stringIcSt11char_traitsIcESaIcEEEESt10_Select1stIS8_ESt4lessIiESaIS8_EE8_M_beginEv(%"class.std::_Rb_tree"* nonnull align 8 dereferenceable(48) %12) #2, !llfi_index !1370
  store %"struct.std::_Rb_tree_node.15"* %13, %"struct.std::_Rb_tree_node.15"** %6, align 8, !llfi_index !1371
  %14 = call %"struct.std::_Rb_tree_node_base"* @_ZNSt8_Rb_treeIiSt4pairIKiNSt7__cxx1112basic_stringIcSt11char_traitsIcESaIcEEEESt10_Select1stIS8_ESt4lessIiESaIS8_EE6_M_endEv(%"class.std::_Rb_tree"* nonnull align 8 dereferenceable(48) %12) #2, !llfi_index !1372
  store %"struct.std::_Rb_tree_node_base"* %14, %"struct.std::_Rb_tree_node_base"** %7, align 8, !llfi_index !1373
  store i8 1, i8* %8, align 1, !llfi_index !1374
  br label %15, !llfi_index !1375

15:                                               ; preds = %39, %2
  %16 = load %"struct.std::_Rb_tree_node.15"*, %"struct.std::_Rb_tree_node.15"** %6, align 8, !llfi_index !1376
  %17 = icmp ne %"struct.std::_Rb_tree_node.15"* %16, null, !llfi_index !1377
  br i1 %17, label %18, label %41, !llfi_index !1378

18:                                               ; preds = %15
  %19 = load %"struct.std::_Rb_tree_node.15"*, %"struct.std::_Rb_tree_node.15"** %6, align 8, !llfi_index !1379
  %20 = bitcast %"struct.std::_Rb_tree_node.15"* %19 to %"struct.std::_Rb_tree_node_base"*, !llfi_index !1380
  store %"struct.std::_Rb_tree_node_base"* %20, %"struct.std::_Rb_tree_node_base"** %7, align 8, !llfi_index !1381
  %21 = getelementptr inbounds %"class.std::_Rb_tree", %"class.std::_Rb_tree"* %12, i32 0, i32 0, !llfi_index !1382
  %22 = bitcast %"struct.std::_Rb_tree<std::__cxx11::basic_string<char>, std::pair<const std::__cxx11::basic_string<char>, int>, std::_Select1st<std::pair<const std::__cxx11::basic_string<char>, int>>, std::less<std::__cxx11::basic_string<char>>>::_Rb_tree_impl"* %21 to %"struct.std::_Rb_tree_key_compare"*, !llfi_index !1383
  %23 = getelementptr inbounds %"struct.std::_Rb_tree_key_compare", %"struct.std::_Rb_tree_key_compare"* %22, i32 0, i32 0, !llfi_index !1384
  %24 = load i32*, i32** %5, align 8, !llfi_index !1385
  %25 = load %"struct.std::_Rb_tree_node.15"*, %"struct.std::_Rb_tree_node.15"** %6, align 8, !llfi_index !1386
  %26 = call nonnull align 4 dereferenceable(4) i32* @_ZNSt8_Rb_treeIiSt4pairIKiNSt7__cxx1112basic_stringIcSt11char_traitsIcESaIcEEEESt10_Select1stIS8_ESt4lessIiESaIS8_EE6_S_keyEPKSt13_Rb_tree_nodeIS8_E(%"struct.std::_Rb_tree_node.15"* %25), !llfi_index !1387
  %27 = call zeroext i1 @_ZNKSt4lessIiEclERKiS2_(%"class.std::ios_base::Init"* nonnull align 1 dereferenceable(1) %23, i32* nonnull align 4 dereferenceable(4) %24, i32* nonnull align 4 dereferenceable(4) %26), !llfi_index !1388
  %28 = zext i1 %27 to i8, !llfi_index !1389
  store i8 %28, i8* %8, align 1, !llfi_index !1390
  %29 = load i8, i8* %8, align 1, !llfi_index !1391
  %30 = trunc i8 %29 to i1, !llfi_index !1392
  br i1 %30, label %31, label %35, !llfi_index !1393

31:                                               ; preds = %18
  %32 = load %"struct.std::_Rb_tree_node.15"*, %"struct.std::_Rb_tree_node.15"** %6, align 8, !llfi_index !1394
  %33 = bitcast %"struct.std::_Rb_tree_node.15"* %32 to %"struct.std::_Rb_tree_node_base"*, !llfi_index !1395
  %34 = call %"struct.std::_Rb_tree_node.15"* @_ZNSt8_Rb_treeIiSt4pairIKiNSt7__cxx1112basic_stringIcSt11char_traitsIcESaIcEEEESt10_Select1stIS8_ESt4lessIiESaIS8_EE7_S_leftEPSt18_Rb_tree_node_base(%"struct.std::_Rb_tree_node_base"* %33) #2, !llfi_index !1396
  br label %39, !llfi_index !1397

35:                                               ; preds = %18
  %36 = load %"struct.std::_Rb_tree_node.15"*, %"struct.std::_Rb_tree_node.15"** %6, align 8, !llfi_index !1398
  %37 = bitcast %"struct.std::_Rb_tree_node.15"* %36 to %"struct.std::_Rb_tree_node_base"*, !llfi_index !1399
  %38 = call %"struct.std::_Rb_tree_node.15"* @_ZNSt8_Rb_treeIiSt4pairIKiNSt7__cxx1112basic_stringIcSt11char_traitsIcESaIcEEEESt10_Select1stIS8_ESt4lessIiESaIS8_EE8_S_rightEPSt18_Rb_tree_node_base(%"struct.std::_Rb_tree_node_base"* %37) #2, !llfi_index !1400
  br label %39, !llfi_index !1401

39:                                               ; preds = %35, %31
  %40 = phi %"struct.std::_Rb_tree_node.15"* [ %34, %31 ], [ %38, %35 ], !llfi_index !1402
  store %"struct.std::_Rb_tree_node.15"* %40, %"struct.std::_Rb_tree_node.15"** %6, align 8, !llfi_index !1403
  br label %15, !llvm.loop !1404, !llfi_index !1405

41:                                               ; preds = %15
  %42 = load %"struct.std::_Rb_tree_node_base"*, %"struct.std::_Rb_tree_node_base"** %7, align 8, !llfi_index !1406
  call void @_ZNSt17_Rb_tree_iteratorISt4pairIKiNSt7__cxx1112basic_stringIcSt11char_traitsIcESaIcEEEEEC2EPSt18_Rb_tree_node_base(%"struct.std::_Rb_tree_iterator"* nonnull align 8 dereferenceable(8) %9, %"struct.std::_Rb_tree_node_base"* %42) #2, !llfi_index !1407
  %43 = load i8, i8* %8, align 1, !llfi_index !1408
  %44 = trunc i8 %43 to i1, !llfi_index !1409
  br i1 %44, label %45, label %53, !llfi_index !1410

45:                                               ; preds = %41
  %46 = call %"struct.std::_Rb_tree_node_base"* @_ZNSt8_Rb_treeIiSt4pairIKiNSt7__cxx1112basic_stringIcSt11char_traitsIcESaIcEEEESt10_Select1stIS8_ESt4lessIiESaIS8_EE5beginEv(%"class.std::_Rb_tree"* nonnull align 8 dereferenceable(48) %12) #2, !llfi_index !1411
  %47 = getelementptr inbounds %"struct.std::_Rb_tree_iterator", %"struct.std::_Rb_tree_iterator"* %10, i32 0, i32 0, !llfi_index !1412
  store %"struct.std::_Rb_tree_node_base"* %46, %"struct.std::_Rb_tree_node_base"** %47, align 8, !llfi_index !1413
  %48 = call zeroext i1 @_ZSteqRKSt17_Rb_tree_iteratorISt4pairIKiNSt7__cxx1112basic_stringIcSt11char_traitsIcESaIcEEEEESB_(%"struct.std::_Rb_tree_iterator"* nonnull align 8 dereferenceable(8) %9, %"struct.std::_Rb_tree_iterator"* nonnull align 8 dereferenceable(8) %10) #2, !llfi_index !1414
  br i1 %48, label %49, label %50, !llfi_index !1415

49:                                               ; preds = %45
  call void @_ZNSt4pairIPSt18_Rb_tree_node_baseS1_EC2IRPSt13_Rb_tree_nodeIS_IKiNSt7__cxx1112basic_stringIcSt11char_traitsIcESaIcEEEEERS1_Lb1EEEOT_OT0_(%"struct.std::pair.21"* nonnull align 8 dereferenceable(16) %3, %"struct.std::_Rb_tree_node.15"** nonnull align 8 dereferenceable(8) %6, %"struct.std::_Rb_tree_node_base"** nonnull align 8 dereferenceable(8) %7), !llfi_index !1416
  br label %65, !llfi_index !1417

50:                                               ; preds = %45
  %51 = call nonnull align 8 dereferenceable(8) %"struct.std::_Rb_tree_iterator"* @_ZNSt17_Rb_tree_iteratorISt4pairIKiNSt7__cxx1112basic_stringIcSt11char_traitsIcESaIcEEEEEmmEv(%"struct.std::_Rb_tree_iterator"* nonnull align 8 dereferenceable(8) %9) #2, !llfi_index !1418
  br label %52, !llfi_index !1419

52:                                               ; preds = %50
  br label %53, !llfi_index !1420

53:                                               ; preds = %52, %41
  %54 = getelementptr inbounds %"class.std::_Rb_tree", %"class.std::_Rb_tree"* %12, i32 0, i32 0, !llfi_index !1421
  %55 = bitcast %"struct.std::_Rb_tree<std::__cxx11::basic_string<char>, std::pair<const std::__cxx11::basic_string<char>, int>, std::_Select1st<std::pair<const std::__cxx11::basic_string<char>, int>>, std::less<std::__cxx11::basic_string<char>>>::_Rb_tree_impl"* %54 to %"struct.std::_Rb_tree_key_compare"*, !llfi_index !1422
  %56 = getelementptr inbounds %"struct.std::_Rb_tree_key_compare", %"struct.std::_Rb_tree_key_compare"* %55, i32 0, i32 0, !llfi_index !1423
  %57 = getelementptr inbounds %"struct.std::_Rb_tree_iterator", %"struct.std::_Rb_tree_iterator"* %9, i32 0, i32 0, !llfi_index !1424
  %58 = load %"struct.std::_Rb_tree_node_base"*, %"struct.std::_Rb_tree_node_base"** %57, align 8, !llfi_index !1425
  %59 = call nonnull align 4 dereferenceable(4) i32* @_ZNSt8_Rb_treeIiSt4pairIKiNSt7__cxx1112basic_stringIcSt11char_traitsIcESaIcEEEESt10_Select1stIS8_ESt4lessIiESaIS8_EE6_S_keyEPKSt18_Rb_tree_node_base(%"struct.std::_Rb_tree_node_base"* %58), !llfi_index !1426
  %60 = load i32*, i32** %5, align 8, !llfi_index !1427
  %61 = call zeroext i1 @_ZNKSt4lessIiEclERKiS2_(%"class.std::ios_base::Init"* nonnull align 1 dereferenceable(1) %56, i32* nonnull align 4 dereferenceable(4) %59, i32* nonnull align 4 dereferenceable(4) %60), !llfi_index !1428
  br i1 %61, label %62, label %63, !llfi_index !1429

62:                                               ; preds = %53
  call void @_ZNSt4pairIPSt18_Rb_tree_node_baseS1_EC2IRPSt13_Rb_tree_nodeIS_IKiNSt7__cxx1112basic_stringIcSt11char_traitsIcESaIcEEEEERS1_Lb1EEEOT_OT0_(%"struct.std::pair.21"* nonnull align 8 dereferenceable(16) %3, %"struct.std::_Rb_tree_node.15"** nonnull align 8 dereferenceable(8) %6, %"struct.std::_Rb_tree_node_base"** nonnull align 8 dereferenceable(8) %7), !llfi_index !1430
  br label %65, !llfi_index !1431

63:                                               ; preds = %53
  %64 = getelementptr inbounds %"struct.std::_Rb_tree_iterator", %"struct.std::_Rb_tree_iterator"* %9, i32 0, i32 0, !llfi_index !1432
  store %"struct.std::_Rb_tree_node_base"* null, %"struct.std::_Rb_tree_node_base"** %11, align 8, !llfi_index !1433
  call void @_ZNSt4pairIPSt18_Rb_tree_node_baseS1_EC2IRS1_Lb1EEEOT_RKS1_(%"struct.std::pair.21"* nonnull align 8 dereferenceable(16) %3, %"struct.std::_Rb_tree_node_base"** nonnull align 8 dereferenceable(8) %64, %"struct.std::_Rb_tree_node_base"** nonnull align 8 dereferenceable(8) %11), !llfi_index !1434
  br label %65, !llfi_index !1435

65:                                               ; preds = %63, %62, %49
  %66 = bitcast %"struct.std::pair.21"* %3 to { %"struct.std::_Rb_tree_node_base"*, %"struct.std::_Rb_tree_node_base"* }*, !llfi_index !1436
  %67 = load { %"struct.std::_Rb_tree_node_base"*, %"struct.std::_Rb_tree_node_base"* }, { %"struct.std::_Rb_tree_node_base"*, %"struct.std::_Rb_tree_node_base"* }* %66, align 8, !llfi_index !1437
  ret { %"struct.std::_Rb_tree_node_base"*, %"struct.std::_Rb_tree_node_base"* } %67, !llfi_index !1438
}

; Function Attrs: mustprogress noinline nounwind uwtable
define linkonce_odr dso_local nonnull align 8 dereferenceable(8) %"struct.std::_Rb_tree_node_base"** @_ZNSt8_Rb_treeIiSt4pairIKiNSt7__cxx1112basic_stringIcSt11char_traitsIcESaIcEEEESt10_Select1stIS8_ESt4lessIiESaIS8_EE11_M_leftmostEv(%"class.std::_Rb_tree"* nonnull align 8 dereferenceable(48) %0) #6 comdat align 2 {
  %2 = alloca %"class.std::_Rb_tree"*, align 8, !llfi_index !1439
  store %"class.std::_Rb_tree"* %0, %"class.std::_Rb_tree"** %2, align 8, !llfi_index !1440
  %3 = load %"class.std::_Rb_tree"*, %"class.std::_Rb_tree"** %2, align 8, !llfi_index !1441
  %4 = getelementptr inbounds %"class.std::_Rb_tree", %"class.std::_Rb_tree"* %3, i32 0, i32 0, !llfi_index !1442
  %5 = bitcast %"struct.std::_Rb_tree<std::__cxx11::basic_string<char>, std::pair<const std::__cxx11::basic_string<char>, int>, std::_Select1st<std::pair<const std::__cxx11::basic_string<char>, int>>, std::less<std::__cxx11::basic_string<char>>>::_Rb_tree_impl"* %4 to i8*, !llfi_index !1443
  %6 = getelementptr inbounds i8, i8* %5, i64 8, !llfi_index !1444
  %7 = bitcast i8* %6 to %"struct.std::_Rb_tree_header"*, !llfi_index !1445
  %8 = getelementptr inbounds %"struct.std::_Rb_tree_header", %"struct.std::_Rb_tree_header"* %7, i32 0, i32 0, !llfi_index !1446
  %9 = getelementptr inbounds %"struct.std::_Rb_tree_node_base", %"struct.std::_Rb_tree_node_base"* %8, i32 0, i32 2, !llfi_index !1447
  ret %"struct.std::_Rb_tree_node_base"** %9, !llfi_index !1448
}

; Function Attrs: noinline nounwind uwtable
define linkonce_odr dso_local void @_ZNSt4pairIPSt18_Rb_tree_node_baseS1_EC2IRS1_S4_Lb1EEEOT_OT0_(%"struct.std::pair.21"* nonnull align 8 dereferenceable(16) %0, %"struct.std::_Rb_tree_node_base"** nonnull align 8 dereferenceable(8) %1, %"struct.std::_Rb_tree_node_base"** nonnull align 8 dereferenceable(8) %2) unnamed_addr #5 comdat align 2 {
  %4 = alloca %"struct.std::pair.21"*, align 8, !llfi_index !1449
  %5 = alloca %"struct.std::_Rb_tree_node_base"**, align 8, !llfi_index !1450
  %6 = alloca %"struct.std::_Rb_tree_node_base"**, align 8, !llfi_index !1451
  store %"struct.std::pair.21"* %0, %"struct.std::pair.21"** %4, align 8, !llfi_index !1452
  store %"struct.std::_Rb_tree_node_base"** %1, %"struct.std::_Rb_tree_node_base"*** %5, align 8, !llfi_index !1453
  store %"struct.std::_Rb_tree_node_base"** %2, %"struct.std::_Rb_tree_node_base"*** %6, align 8, !llfi_index !1454
  %7 = load %"struct.std::pair.21"*, %"struct.std::pair.21"** %4, align 8, !llfi_index !1455
  %8 = bitcast %"struct.std::pair.21"* %7 to %"class.std::ios_base::Init"*, !llfi_index !1456
  %9 = getelementptr inbounds %"struct.std::pair.21", %"struct.std::pair.21"* %7, i32 0, i32 0, !llfi_index !1457
