; ModuleID = '/home/hjiang/Computation-Kernel-Dataset/experiments/Fault_injection_0308_parall/O0/KthMinimum/KthMinimum.ll'
source_filename = "llvm-link"
target datalayout = "e-m:e-p270:32:32-p271:32:32-p272:64:64-i64:64-f80:128-n8:16:32:64-S128"
target triple = "x86_64-unknown-linux-gnu"

%"class.std::ios_base::Init" = type { i8 }
%struct._IO_FILE = type { i32, i8*, i8*, i8*, i8*, i8*, i8*, i8*, i8*, i8*, i8*, i8*, %struct._IO_marker*, %struct._IO_FILE*, i32, i32, i64, i16, i8, [1 x i8], i8*, i64, %struct._IO_codecvt*, %struct._IO_wide_data*, %struct._IO_FILE*, i8*, i64, i32, [20 x i8] }
%struct._IO_marker = type opaque
%struct._IO_codecvt = type opaque
%struct._IO_wide_data = type opaque
%"class.std::basic_istream" = type { i32 (...)**, i64, %"class.std::basic_ios" }
%"class.std::basic_ios" = type { %"class.std::ios_base", %"class.std::basic_ostream"*, i8, i8, %"class.std::basic_streambuf"*, %"class.std::ctype"*, %"class.std::num_put"*, %"class.std::num_put"* }
%"class.std::ios_base" = type { i32 (...)**, i64, i64, i32, i32, i32, %"struct.std::ios_base::_Callback_list"*, %"struct.std::ios_base::_Words", [8 x %"struct.std::ios_base::_Words"], i32, %"struct.std::ios_base::_Words"*, %"class.std::locale" }
%"struct.std::ios_base::_Callback_list" = type { %"struct.std::ios_base::_Callback_list"*, void (i32, %"class.std::ios_base"*, i32)*, i32, i32 }
%"struct.std::ios_base::_Words" = type { i8*, i64 }
%"class.std::locale" = type { %"class.std::locale::_Impl"* }
%"class.std::locale::_Impl" = type { i32, %"class.std::locale::facet"**, i64, %"class.std::locale::facet"**, i8** }
%"class.std::locale::facet" = type <{ i32 (...)**, i32, [4 x i8] }>
%"class.std::basic_ostream" = type { i32 (...)**, %"class.std::basic_ios" }
%"class.std::basic_streambuf" = type { i32 (...)**, i8*, i8*, i8*, i8*, i8*, i8*, %"class.std::locale" }
%"class.std::ctype" = type <{ %"class.std::locale::facet.base", [4 x i8], %struct.__locale_struct*, i8, [7 x i8], i32*, i32*, i16*, i8, [256 x i8], [256 x i8], i8, [6 x i8] }>
%"class.std::locale::facet.base" = type <{ i32 (...)**, i32 }>
%struct.__locale_struct = type { [13 x %struct.__locale_data*], i16*, i32*, i32*, [13 x i8*] }
%struct.__locale_data = type opaque
%"class.std::num_put" = type { %"class.std::locale::facet.base", [4 x i8] }

$_ZSt3minIxERKT_S2_S2_ = comdat any

@llvm.global_ctors = appending global [1 x { i32, void ()*, i8* }] [{ i32, void ()*, i8* } { i32 65535, void ()* @_GLOBAL__sub_I_KthMinimum.cpp, i8* null }]
@_ZStL8__ioinit = internal global %"class.std::ios_base::Init" zeroinitializer, align 1
@_ZL2pi = internal global double 0.000000e+00, align 8
@n1 = dso_local global i32 0, align 4
@n2 = dso_local global i32 0, align 4
@d = dso_local global i32 0, align 4
@a1 = dso_local global [262160 x i32] zeroinitializer, align 16
@a2 = dso_local global [262160 x i32] zeroinitializer, align 16
@s1 = dso_local global [262160 x i32] zeroinitializer, align 16
@s2 = dso_local global [262160 x i32] zeroinitializer, align 16
@.str = private unnamed_addr constant [26 x i8] c"../input_files/KthMinimum\00", align 1
@.str.2 = private unnamed_addr constant [2 x i8] c"r\00", align 1
@stdin = external dso_local global %struct._IO_FILE*, align 8
@_ZSt3cin = external dso_local global %"class.std::basic_istream", align 8
@_ZSt4cout = external dso_local global %"class.std::basic_ostream", align 8

; Function Attrs: noinline uwtable
define internal void @_GLOBAL__sub_I_KthMinimum.cpp() #0 section ".text.startup" {
  call void @__cxx_global_var_init(), !llfi_index !4
  call void @__cxx_global_var_init.1(), !llfi_index !5
  ret void, !llfi_index !6
}

; Function Attrs: noinline uwtable
define internal void @__cxx_global_var_init() #0 section ".text.startup" {
  call void @_ZNSt8ios_base4InitC1Ev(%"class.std::ios_base::Init"* nonnull align 1 dereferenceable(1) @_ZStL8__ioinit), !llfi_index !7
  %1 = call i32 @atexit(void ()* @__dtor__ZStL8__ioinit) #3, !llfi_index !8
  ret void, !llfi_index !9
}

; Function Attrs: noinline uwtable
define internal void @__cxx_global_var_init.1() #0 section ".text.startup" {
  %1 = call double @acos(double -1.000000e+00) #3, !llfi_index !10
  store double %1, double* @_ZL2pi, align 8, !llfi_index !11
  ret void, !llfi_index !12
}

; Function Attrs: nounwind
declare dso_local double @acos(double) #1

declare dso_local void @_ZNSt8ios_base4InitC1Ev(%"class.std::ios_base::Init"* nonnull align 1 dereferenceable(1)) unnamed_addr #2

; Function Attrs: noinline uwtable
define internal void @__dtor__ZStL8__ioinit() #0 section ".text.startup" {
  call void @_ZNSt8ios_base4InitD1Ev(%"class.std::ios_base::Init"* @_ZStL8__ioinit), !llfi_index !13
  ret void, !llfi_index !14
}

; Function Attrs: nounwind
declare dso_local i32 @atexit(void ()*) #3

; Function Attrs: nounwind
declare dso_local void @_ZNSt8ios_base4InitD1Ev(%"class.std::ios_base::Init"* nonnull align 1 dereferenceable(1)) unnamed_addr #1

; Function Attrs: mustprogress noinline nounwind uwtable
define dso_local void @_Z3addPiii(i32* %0, i32 %1, i32 %2) #4 {
  %4 = alloca i32*, align 8, !llfi_index !15
  %5 = alloca i32, align 4, !llfi_index !16
  %6 = alloca i32, align 4, !llfi_index !17
  store i32* %0, i32** %4, align 8, !llfi_index !18
  store i32 %1, i32* %5, align 4, !llfi_index !19
  store i32 %2, i32* %6, align 4, !llfi_index !20
  br label %7, !llfi_index !21

7:                                                ; preds = %18, %3
  %8 = load i32, i32* %5, align 4, !llfi_index !22
  %9 = icmp sle i32 %8, 262144, !llfi_index !23
  br i1 %9, label %10, label %24, !llfi_index !24

10:                                               ; preds = %7
  %11 = load i32, i32* %6, align 4, !llfi_index !25
  %12 = load i32*, i32** %4, align 8, !llfi_index !26
  %13 = load i32, i32* %5, align 4, !llfi_index !27
  %14 = sext i32 %13 to i64, !llfi_index !28
  %15 = getelementptr inbounds i32, i32* %12, i64 %14, !llfi_index !29
  %16 = load i32, i32* %15, align 4, !llfi_index !30
  %17 = add nsw i32 %16, %11, !llfi_index !31
  store i32 %17, i32* %15, align 4, !llfi_index !32
  br label %18, !llfi_index !33

18:                                               ; preds = %10
  %19 = load i32, i32* %5, align 4, !llfi_index !34
  %20 = load i32, i32* %5, align 4, !llfi_index !35
  %21 = sub nsw i32 %20, 1, !llfi_index !36
  %22 = or i32 %19, %21, !llfi_index !37
  %23 = add nsw i32 %22, 1, !llfi_index !38
  store i32 %23, i32* %5, align 4, !llfi_index !39
  br label %7, !llvm.loop !40, !llfi_index !42

24:                                               ; preds = %7
  ret void, !llfi_index !43
}

; Function Attrs: mustprogress noinline uwtable
define dso_local i32 @_Z4calcPix(i32* %0, i64 %1) #5 {
  %3 = alloca i32, align 4, !llfi_index !44
  %4 = alloca i32*, align 8, !llfi_index !45
  %5 = alloca i64, align 8, !llfi_index !46
  %6 = alloca i32, align 4, !llfi_index !47
  %7 = alloca i64, align 8, !llfi_index !48
  %8 = alloca i32, align 4, !llfi_index !49
  store i32* %0, i32** %4, align 8, !llfi_index !50
  store i64 %1, i64* %5, align 8, !llfi_index !51
  %9 = load i64, i64* %5, align 8, !llfi_index !52
  %10 = icmp sle i64 %9, 0, !llfi_index !53
  br i1 %10, label %11, label %12, !llfi_index !54

11:                                               ; preds = %2
  store i32 0, i32* %3, align 4, !llfi_index !55
  br label %34, !llfi_index !56

12:                                               ; preds = %2
  store i64 262144, i64* %7, align 8, !llfi_index !57
  %13 = call nonnull align 8 dereferenceable(8) i64* @_ZSt3minIxERKT_S2_S2_(i64* nonnull align 8 dereferenceable(8) %5, i64* nonnull align 8 dereferenceable(8) %7), !llfi_index !58
  %14 = load i64, i64* %13, align 8, !llfi_index !59
  %15 = trunc i64 %14 to i32, !llfi_index !60
  store i32 %15, i32* %6, align 4, !llfi_index !61
  store i32 0, i32* %8, align 4, !llfi_index !62
  br label %16, !llfi_index !63

16:                                               ; preds = %27, %12
  %17 = load i32, i32* %6, align 4, !llfi_index !64
  %18 = icmp sgt i32 %17, 0, !llfi_index !65
  br i1 %18, label %19, label %32, !llfi_index !66

19:                                               ; preds = %16
  %20 = load i32*, i32** %4, align 8, !llfi_index !67
  %21 = load i32, i32* %6, align 4, !llfi_index !68
  %22 = sext i32 %21 to i64, !llfi_index !69
  %23 = getelementptr inbounds i32, i32* %20, i64 %22, !llfi_index !70
  %24 = load i32, i32* %23, align 4, !llfi_index !71
  %25 = load i32, i32* %8, align 4, !llfi_index !72
  %26 = add nsw i32 %25, %24, !llfi_index !73
  store i32 %26, i32* %8, align 4, !llfi_index !74
  br label %27, !llfi_index !75

27:                                               ; preds = %19
  %28 = load i32, i32* %6, align 4, !llfi_index !76
  %29 = sub nsw i32 %28, 1, !llfi_index !77
  %30 = load i32, i32* %6, align 4, !llfi_index !78
  %31 = and i32 %30, %29, !llfi_index !79
  store i32 %31, i32* %6, align 4, !llfi_index !80
  br label %16, !llvm.loop !81, !llfi_index !82

32:                                               ; preds = %16
  %33 = load i32, i32* %8, align 4, !llfi_index !83
  store i32 %33, i32* %3, align 4, !llfi_index !84
  br label %34, !llfi_index !85

34:                                               ; preds = %32, %11
  %35 = load i32, i32* %3, align 4, !llfi_index !86
  ret i32 %35, !llfi_index !87
}

; Function Attrs: mustprogress noinline nounwind uwtable
define linkonce_odr dso_local nonnull align 8 dereferenceable(8) i64* @_ZSt3minIxERKT_S2_S2_(i64* nonnull align 8 dereferenceable(8) %0, i64* nonnull align 8 dereferenceable(8) %1) #4 comdat {
  %3 = alloca i64*, align 8, !llfi_index !88
  %4 = alloca i64*, align 8, !llfi_index !89
  %5 = alloca i64*, align 8, !llfi_index !90
  store i64* %0, i64** %4, align 8, !llfi_index !91
  store i64* %1, i64** %5, align 8, !llfi_index !92
  %6 = load i64*, i64** %5, align 8, !llfi_index !93
  %7 = load i64, i64* %6, align 8, !llfi_index !94
  %8 = load i64*, i64** %4, align 8, !llfi_index !95
  %9 = load i64, i64* %8, align 8, !llfi_index !96
  %10 = icmp slt i64 %7, %9, !llfi_index !97
  br i1 %10, label %11, label %13, !llfi_index !98

11:                                               ; preds = %2
  %12 = load i64*, i64** %5, align 8, !llfi_index !99
  store i64* %12, i64** %3, align 8, !llfi_index !100
  br label %15, !llfi_index !101

13:                                               ; preds = %2
  %14 = load i64*, i64** %4, align 8, !llfi_index !102
  store i64* %14, i64** %3, align 8, !llfi_index !103
  br label %15, !llfi_index !104

15:                                               ; preds = %13, %11
  %16 = load i64*, i64** %3, align 8, !llfi_index !105
  ret i64* %16, !llfi_index !106
}

; Function Attrs: mustprogress noinline uwtable
define dso_local i64 @_Z5solvex(i64 %0) #5 {
  %2 = alloca i64, align 8, !llfi_index !107
  %3 = alloca i32, align 4, !llfi_index !108
  %4 = alloca i32, align 4, !llfi_index !109
  %5 = alloca i64, align 8, !llfi_index !110
  %6 = alloca i32, align 4, !llfi_index !111
  %7 = alloca i32, align 4, !llfi_index !112
  %8 = alloca i32, align 4, !llfi_index !113
  store i64 %0, i64* %2, align 8, !llfi_index !114
  store i32 0, i32* %3, align 4, !llfi_index !115
  call void @llvm.memset.p0i8.i64(i8* align 16 bitcast ([262160 x i32]* @s1 to i8*), i8 0, i64 1048640, i1 false), !llfi_index !116
  call void @llvm.memset.p0i8.i64(i8* align 16 bitcast ([262160 x i32]* @s2 to i8*), i8 0, i64 1048640, i1 false), !llfi_index !117
  store i32 0, i32* %4, align 4, !llfi_index !118
  br label %9, !llfi_index !119

9:                                                ; preds = %41, %1
  %10 = load i32, i32* %4, align 4, !llfi_index !120
  %11 = load i32, i32* @n2, align 4, !llfi_index !121
  %12 = icmp slt i32 %10, %11, !llfi_index !122
  br i1 %12, label %13, label %44, !llfi_index !123

13:                                               ; preds = %9
  %14 = load i32, i32* %4, align 4, !llfi_index !124
  %15 = sext i32 %14 to i64, !llfi_index !125
  %16 = getelementptr inbounds [262160 x i32], [262160 x i32]* @a2, i64 0, i64 %15, !llfi_index !126
  %17 = load i32, i32* %16, align 4, !llfi_index !127
  %18 = icmp slt i32 %17, 0, !llfi_index !128
  br i1 %18, label %19, label %25, !llfi_index !129

19:                                               ; preds = %13
  %20 = load i32, i32* %4, align 4, !llfi_index !130
  %21 = sext i32 %20 to i64, !llfi_index !131
  %22 = getelementptr inbounds [262160 x i32], [262160 x i32]* @a2, i64 0, i64 %21, !llfi_index !132
  %23 = load i32, i32* %22, align 4, !llfi_index !133
  %24 = sub nsw i32 0, %23, !llfi_index !134
  call void @_Z3addPiii(i32* getelementptr inbounds ([262160 x i32], [262160 x i32]* @s1, i64 0, i64 0), i32 %24, i32 1), !llfi_index !135
  br label %40, !llfi_index !136

25:                                               ; preds = %13
  %26 = load i32, i32* %4, align 4, !llfi_index !137
  %27 = sext i32 %26 to i64, !llfi_index !138
  %28 = getelementptr inbounds [262160 x i32], [262160 x i32]* @a2, i64 0, i64 %27, !llfi_index !139
  %29 = load i32, i32* %28, align 4, !llfi_index !140
  %30 = icmp sgt i32 %29, 0, !llfi_index !141
  br i1 %30, label %31, label %36, !llfi_index !142

31:                                               ; preds = %25
  %32 = load i32, i32* %4, align 4, !llfi_index !143
  %33 = sext i32 %32 to i64, !llfi_index !144
  %34 = getelementptr inbounds [262160 x i32], [262160 x i32]* @a2, i64 0, i64 %33, !llfi_index !145
  %35 = load i32, i32* %34, align 4, !llfi_index !146
  call void @_Z3addPiii(i32* getelementptr inbounds ([262160 x i32], [262160 x i32]* @s2, i64 0, i64 0), i32 %35, i32 1), !llfi_index !147
  br label %39, !llfi_index !148

36:                                               ; preds = %25
  %37 = load i32, i32* %3, align 4, !llfi_index !149
  %38 = add nsw i32 %37, 1, !llfi_index !150
  store i32 %38, i32* %3, align 4, !llfi_index !151
  br label %39, !llfi_index !152

39:                                               ; preds = %36, %31
  br label %40, !llfi_index !153

40:                                               ; preds = %39, %19
  br label %41, !llfi_index !154

41:                                               ; preds = %40
  %42 = load i32, i32* %4, align 4, !llfi_index !155
  %43 = add nsw i32 %42, 1, !llfi_index !156
  store i32 %43, i32* %4, align 4, !llfi_index !157
  br label %9, !llvm.loop !158, !llfi_index !159

44:                                               ; preds = %9
  store i64 0, i64* %5, align 8, !llfi_index !160
  store i32 0, i32* %6, align 4, !llfi_index !161
  store i32 0, i32* %7, align 4, !llfi_index !162
  br label %45, !llfi_index !163

45:                                               ; preds = %194, %44
  %46 = load i32, i32* %7, align 4, !llfi_index !164
  %47 = load i32, i32* @n1, align 4, !llfi_index !165
  %48 = icmp slt i32 %46, %47, !llfi_index !166
  br i1 %48, label %49, label %197, !llfi_index !167

49:                                               ; preds = %45
  br label %50, !llfi_index !168

50:                                               ; preds = %90, %49
  %51 = load i32, i32* %6, align 4, !llfi_index !169
  %52 = load i32, i32* %7, align 4, !llfi_index !170
  %53 = load i32, i32* @d, align 4, !llfi_index !171
  %54 = add nsw i32 %52, %53, !llfi_index !172
  %55 = icmp slt i32 %51, %54, !llfi_index !173
  br i1 %55, label %56, label %60, !llfi_index !174

56:                                               ; preds = %50
  %57 = load i32, i32* %6, align 4, !llfi_index !175
  %58 = load i32, i32* @n2, align 4, !llfi_index !176
  %59 = icmp slt i32 %57, %58, !llfi_index !177
  br label %60, !llfi_index !178

60:                                               ; preds = %56, %50
  %61 = phi i1 [ false, %50 ], [ %59, %56 ], !llfi_index !179
  br i1 %61, label %62, label %93, !llfi_index !180

62:                                               ; preds = %60
  %63 = load i32, i32* %6, align 4, !llfi_index !181
  %64 = sext i32 %63 to i64, !llfi_index !182
  %65 = getelementptr inbounds [262160 x i32], [262160 x i32]* @a2, i64 0, i64 %64, !llfi_index !183
  %66 = load i32, i32* %65, align 4, !llfi_index !184
  %67 = icmp slt i32 %66, 0, !llfi_index !185
  br i1 %67, label %68, label %74, !llfi_index !186

68:                                               ; preds = %62
  %69 = load i32, i32* %6, align 4, !llfi_index !187
  %70 = sext i32 %69 to i64, !llfi_index !188
  %71 = getelementptr inbounds [262160 x i32], [262160 x i32]* @a2, i64 0, i64 %70, !llfi_index !189
  %72 = load i32, i32* %71, align 4, !llfi_index !190
  %73 = sub nsw i32 0, %72, !llfi_index !191
  call void @_Z3addPiii(i32* getelementptr inbounds ([262160 x i32], [262160 x i32]* @s1, i64 0, i64 0), i32 %73, i32 -1), !llfi_index !192
  br label %89, !llfi_index !193

74:                                               ; preds = %62
  %75 = load i32, i32* %6, align 4, !llfi_index !194
  %76 = sext i32 %75 to i64, !llfi_index !195
  %77 = getelementptr inbounds [262160 x i32], [262160 x i32]* @a2, i64 0, i64 %76, !llfi_index !196
  %78 = load i32, i32* %77, align 4, !llfi_index !197
  %79 = icmp sgt i32 %78, 0, !llfi_index !198
  br i1 %79, label %80, label %85, !llfi_index !199

80:                                               ; preds = %74
  %81 = load i32, i32* %6, align 4, !llfi_index !200
  %82 = sext i32 %81 to i64, !llfi_index !201
  %83 = getelementptr inbounds [262160 x i32], [262160 x i32]* @a2, i64 0, i64 %82, !llfi_index !202
  %84 = load i32, i32* %83, align 4, !llfi_index !203
  call void @_Z3addPiii(i32* getelementptr inbounds ([262160 x i32], [262160 x i32]* @s2, i64 0, i64 0), i32 %84, i32 -1), !llfi_index !204
  br label %88, !llfi_index !205

85:                                               ; preds = %74
  %86 = load i32, i32* %3, align 4, !llfi_index !206
  %87 = add nsw i32 %86, -1, !llfi_index !207
  store i32 %87, i32* %3, align 4, !llfi_index !208
  br label %88, !llfi_index !209

88:                                               ; preds = %85, %80
  br label %89, !llfi_index !210

89:                                               ; preds = %88, %68
  br label %90, !llfi_index !211

90:                                               ; preds = %89
  %91 = load i32, i32* %6, align 4, !llfi_index !212
  %92 = add nsw i32 %91, 1, !llfi_index !213
  store i32 %92, i32* %6, align 4, !llfi_index !214
  br label %50, !llvm.loop !215, !llfi_index !216

93:                                               ; preds = %60
  %94 = load i32, i32* %7, align 4, !llfi_index !217
  %95 = sext i32 %94 to i64, !llfi_index !218
  %96 = getelementptr inbounds [262160 x i32], [262160 x i32]* @a1, i64 0, i64 %95, !llfi_index !219
  %97 = load i32, i32* %96, align 4, !llfi_index !220
  store i32 %97, i32* %8, align 4, !llfi_index !221
  %98 = load i64, i64* %2, align 8, !llfi_index !222
  %99 = icmp sle i64 0, %98, !llfi_index !223
  br i1 %99, label %100, label %105, !llfi_index !224

100:                                              ; preds = %93
  %101 = load i32, i32* %3, align 4, !llfi_index !225
  %102 = sext i32 %101 to i64, !llfi_index !226
  %103 = load i64, i64* %5, align 8, !llfi_index !227
  %104 = add nsw i64 %103, %102, !llfi_index !228
  store i64 %104, i64* %5, align 8, !llfi_index !229
  br label %105, !llfi_index !230

105:                                              ; preds = %100, %93
  %106 = load i32, i32* %8, align 4, !llfi_index !231
  %107 = icmp eq i32 %106, 0, !llfi_index !232
  br i1 %107, label %108, label %119, !llfi_index !233

108:                                              ; preds = %105
  %109 = load i64, i64* %2, align 8, !llfi_index !234
  %110 = icmp sle i64 0, %109, !llfi_index !235
  br i1 %110, label %111, label %118, !llfi_index !236

111:                                              ; preds = %108
  %112 = call i32 @_Z4calcPix(i32* getelementptr inbounds ([262160 x i32], [262160 x i32]* @s1, i64 0, i64 0), i64 262144), !llfi_index !237
  %113 = call i32 @_Z4calcPix(i32* getelementptr inbounds ([262160 x i32], [262160 x i32]* @s2, i64 0, i64 0), i64 262144), !llfi_index !238
  %114 = add nsw i32 %112, %113, !llfi_index !239
  %115 = sext i32 %114 to i64, !llfi_index !240
  %116 = load i64, i64* %5, align 8, !llfi_index !241
  %117 = add nsw i64 %116, %115, !llfi_index !242
  store i64 %117, i64* %5, align 8, !llfi_index !243
  br label %118, !llfi_index !244

118:                                              ; preds = %111, %108
  br label %193, !llfi_index !245

119:                                              ; preds = %105
  %120 = load i32, i32* %8, align 4, !llfi_index !246
  %121 = icmp slt i32 %120, 0, !llfi_index !247
  br i1 %121, label %122, label %158, !llfi_index !248

122:                                              ; preds = %119
  %123 = load i64, i64* %2, align 8, !llfi_index !249
  %124 = icmp sge i64 %123, 0, !llfi_index !250
  br i1 %124, label %125, label %135, !llfi_index !251

125:                                              ; preds = %122
  %126 = load i64, i64* %2, align 8, !llfi_index !252
  %127 = load i32, i32* %8, align 4, !llfi_index !253
  %128 = sub nsw i32 0, %127, !llfi_index !254
  %129 = sext i32 %128 to i64, !llfi_index !255
  %130 = sdiv i64 %126, %129, !llfi_index !256
  %131 = call i32 @_Z4calcPix(i32* getelementptr inbounds ([262160 x i32], [262160 x i32]* @s1, i64 0, i64 0), i64 %130), !llfi_index !257
  %132 = sext i32 %131 to i64, !llfi_index !258
  %133 = load i64, i64* %5, align 8, !llfi_index !259
  %134 = add nsw i64 %133, %132, !llfi_index !260
  store i64 %134, i64* %5, align 8, !llfi_index !261
  br label %135, !llfi_index !262

135:                                              ; preds = %125, %122
  %136 = load i64, i64* %2, align 8, !llfi_index !263
  %137 = icmp sge i64 %136, 0, !llfi_index !264
  br i1 %137, label %138, label %143, !llfi_index !265

138:                                              ; preds = %135
  %139 = call i32 @_Z4calcPix(i32* getelementptr inbounds ([262160 x i32], [262160 x i32]* @s2, i64 0, i64 0), i64 262144), !llfi_index !266
  %140 = sext i32 %139 to i64, !llfi_index !267
  %141 = load i64, i64* %5, align 8, !llfi_index !268
  %142 = add nsw i64 %141, %140, !llfi_index !269
  store i64 %142, i64* %5, align 8, !llfi_index !270
  br label %157, !llfi_index !271

143:                                              ; preds = %135
  %144 = call i32 @_Z4calcPix(i32* getelementptr inbounds ([262160 x i32], [262160 x i32]* @s2, i64 0, i64 0), i64 262144), !llfi_index !272
  %145 = load i64, i64* %2, align 8, !llfi_index !273
  %146 = sub nsw i64 0, %145, !llfi_index !274
  %147 = sub nsw i64 %146, 1, !llfi_index !275
  %148 = load i32, i32* %8, align 4, !llfi_index !276
  %149 = sub nsw i32 0, %148, !llfi_index !277
  %150 = sext i32 %149 to i64, !llfi_index !278
  %151 = sdiv i64 %147, %150, !llfi_index !279
  %152 = call i32 @_Z4calcPix(i32* getelementptr inbounds ([262160 x i32], [262160 x i32]* @s2, i64 0, i64 0), i64 %151), !llfi_index !280
  %153 = sub nsw i32 %144, %152, !llfi_index !281
  %154 = sext i32 %153 to i64, !llfi_index !282
  %155 = load i64, i64* %5, align 8, !llfi_index !283
  %156 = add nsw i64 %155, %154, !llfi_index !284
  store i64 %156, i64* %5, align 8, !llfi_index !285
  br label %157, !llfi_index !286

157:                                              ; preds = %143, %138
  br label %192, !llfi_index !287

158:                                              ; preds = %119
  %159 = load i64, i64* %2, align 8, !llfi_index !288
  %160 = icmp sge i64 %159, 0, !llfi_index !289
  br i1 %160, label %161, label %166, !llfi_index !290

161:                                              ; preds = %158
  %162 = call i32 @_Z4calcPix(i32* getelementptr inbounds ([262160 x i32], [262160 x i32]* @s1, i64 0, i64 0), i64 262144), !llfi_index !291
  %163 = sext i32 %162 to i64, !llfi_index !292
  %164 = load i64, i64* %5, align 8, !llfi_index !293
  %165 = add nsw i64 %164, %163, !llfi_index !294
  store i64 %165, i64* %5, align 8, !llfi_index !295
  br label %179, !llfi_index !296

166:                                              ; preds = %158
  %167 = call i32 @_Z4calcPix(i32* getelementptr inbounds ([262160 x i32], [262160 x i32]* @s1, i64 0, i64 0), i64 262144), !llfi_index !297
  %168 = load i64, i64* %2, align 8, !llfi_index !298
  %169 = sub nsw i64 0, %168, !llfi_index !299
  %170 = sub nsw i64 %169, 1, !llfi_index !300
  %171 = load i32, i32* %8, align 4, !llfi_index !301
  %172 = sext i32 %171 to i64, !llfi_index !302
  %173 = sdiv i64 %170, %172, !llfi_index !303
  %174 = call i32 @_Z4calcPix(i32* getelementptr inbounds ([262160 x i32], [262160 x i32]* @s1, i64 0, i64 0), i64 %173), !llfi_index !304
  %175 = sub nsw i32 %167, %174, !llfi_index !305
  %176 = sext i32 %175 to i64, !llfi_index !306
  %177 = load i64, i64* %5, align 8, !llfi_index !307
  %178 = add nsw i64 %177, %176, !llfi_index !308
  store i64 %178, i64* %5, align 8, !llfi_index !309
  br label %179, !llfi_index !310

179:                                              ; preds = %166, %161
  %180 = load i64, i64* %2, align 8, !llfi_index !311
  %181 = icmp sge i64 %180, 0, !llfi_index !312
  br i1 %181, label %182, label %191, !llfi_index !313

182:                                              ; preds = %179
  %183 = load i64, i64* %2, align 8, !llfi_index !314
  %184 = load i32, i32* %8, align 4, !llfi_index !315
  %185 = sext i32 %184 to i64, !llfi_index !316
  %186 = sdiv i64 %183, %185, !llfi_index !317
  %187 = call i32 @_Z4calcPix(i32* getelementptr inbounds ([262160 x i32], [262160 x i32]* @s2, i64 0, i64 0), i64 %186), !llfi_index !318
  %188 = sext i32 %187 to i64, !llfi_index !319
  %189 = load i64, i64* %5, align 8, !llfi_index !320
  %190 = add nsw i64 %189, %188, !llfi_index !321
  store i64 %190, i64* %5, align 8, !llfi_index !322
  br label %191, !llfi_index !323

191:                                              ; preds = %182, %179
  br label %192, !llfi_index !324

192:                                              ; preds = %191, %157
  br label %193, !llfi_index !325

193:                                              ; preds = %192, %118
  br label %194, !llfi_index !326

194:                                              ; preds = %193
  %195 = load i32, i32* %7, align 4, !llfi_index !327
  %196 = add nsw i32 %195, 1, !llfi_index !328
  store i32 %196, i32* %7, align 4, !llfi_index !329
  br label %45, !llvm.loop !330, !llfi_index !331

197:                                              ; preds = %45
  %198 = load i64, i64* %5, align 8, !llfi_index !332
  ret i64 %198, !llfi_index !333
}

; Function Attrs: argmemonly nofree nounwind willreturn writeonly
declare void @llvm.memset.p0i8.i64(i8* nocapture writeonly, i8, i64, i1 immarg) #6

; Function Attrs: mustprogress noinline norecurse uwtable
define dso_local i32 @main() #7 {
  %1 = alloca i32, align 4, !llfi_index !334
  %2 = alloca i64, align 8, !llfi_index !335
  %3 = alloca i32, align 4, !llfi_index !336
  %4 = alloca i32, align 4, !llfi_index !337
  %5 = alloca i32, align 4, !llfi_index !338
  %6 = alloca i64, align 8, !llfi_index !339
  %7 = alloca i64, align 8, !llfi_index !340
  %8 = alloca i64, align 8, !llfi_index !341
  store i32 0, i32* %1, align 4, !llfi_index !342
  %9 = load %struct._IO_FILE*, %struct._IO_FILE** @stdin, align 8, !llfi_index !343
  %10 = call %struct._IO_FILE* @freopen(i8* getelementptr inbounds ([26 x i8], [26 x i8]* @.str, i64 0, i64 0), i8* getelementptr inbounds ([2 x i8], [2 x i8]* @.str.2, i64 0, i64 0), %struct._IO_FILE* %9), !llfi_index !344
  %11 = call zeroext i1 @_ZNSt8ios_base15sync_with_stdioEb(i1 zeroext false), !llfi_index !345
  %12 = call nonnull align 8 dereferenceable(16) %"class.std::basic_istream"* @_ZNSirsERi(%"class.std::basic_istream"* nonnull align 8 dereferenceable(16) @_ZSt3cin, i32* nonnull align 4 dereferenceable(4) @n1), !llfi_index !346
  %13 = call nonnull align 8 dereferenceable(16) %"class.std::basic_istream"* @_ZNSirsERi(%"class.std::basic_istream"* nonnull align 8 dereferenceable(16) %12, i32* nonnull align 4 dereferenceable(4) @n2), !llfi_index !347
  %14 = call nonnull align 8 dereferenceable(16) %"class.std::basic_istream"* @_ZNSirsERi(%"class.std::basic_istream"* nonnull align 8 dereferenceable(16) %13, i32* nonnull align 4 dereferenceable(4) @d), !llfi_index !348
  %15 = call nonnull align 8 dereferenceable(16) %"class.std::basic_istream"* @_ZNSirsERx(%"class.std::basic_istream"* nonnull align 8 dereferenceable(16) %14, i64* nonnull align 8 dereferenceable(8) %2), !llfi_index !349
  store i32 89, i32* %3, align 4, !llfi_index !350
  store i32 0, i32* %4, align 4, !llfi_index !351
  br label %16, !llfi_index !352

16:                                               ; preds = %25, %0
  %17 = load i32, i32* %4, align 4, !llfi_index !353
  %18 = load i32, i32* @n1, align 4, !llfi_index !354
  %19 = icmp slt i32 %17, %18, !llfi_index !355
  br i1 %19, label %20, label %28, !llfi_index !356

20:                                               ; preds = %16
  %21 = load i32, i32* %4, align 4, !llfi_index !357
  %22 = sext i32 %21 to i64, !llfi_index !358
  %23 = getelementptr inbounds [262160 x i32], [262160 x i32]* @a1, i64 0, i64 %22, !llfi_index !359
  %24 = call nonnull align 8 dereferenceable(16) %"class.std::basic_istream"* @_ZNSirsERi(%"class.std::basic_istream"* nonnull align 8 dereferenceable(16) @_ZSt3cin, i32* nonnull align 4 dereferenceable(4) %23), !llfi_index !360
  br label %25, !llfi_index !361

25:                                               ; preds = %20
  %26 = load i32, i32* %4, align 4, !llfi_index !362
  %27 = add nsw i32 %26, 1, !llfi_index !363
  store i32 %27, i32* %4, align 4, !llfi_index !364
  br label %16, !llvm.loop !365, !llfi_index !366

28:                                               ; preds = %16
  store i32 89, i32* %3, align 4, !llfi_index !367
  store i32 0, i32* %5, align 4, !llfi_index !368
  br label %29, !llfi_index !369

29:                                               ; preds = %38, %28
  %30 = load i32, i32* %5, align 4, !llfi_index !370
  %31 = load i32, i32* @n2, align 4, !llfi_index !371
  %32 = icmp slt i32 %30, %31, !llfi_index !372
  br i1 %32, label %33, label %41, !llfi_index !373

33:                                               ; preds = %29
  %34 = load i32, i32* %5, align 4, !llfi_index !374
  %35 = sext i32 %34 to i64, !llfi_index !375
  %36 = getelementptr inbounds [262160 x i32], [262160 x i32]* @a2, i64 0, i64 %35, !llfi_index !376
  %37 = call nonnull align 8 dereferenceable(16) %"class.std::basic_istream"* @_ZNSirsERi(%"class.std::basic_istream"* nonnull align 8 dereferenceable(16) @_ZSt3cin, i32* nonnull align 4 dereferenceable(4) %36), !llfi_index !377
  br label %38, !llfi_index !378

38:                                               ; preds = %33
  %39 = load i32, i32* %5, align 4, !llfi_index !379
  %40 = add nsw i32 %39, 1, !llfi_index !380
  store i32 %40, i32* %5, align 4, !llfi_index !381
  br label %29, !llvm.loop !382, !llfi_index !383

41:                                               ; preds = %29
  store i64 -68719476737, i64* %6, align 8, !llfi_index !384
  store i64 68719476737, i64* %7, align 8, !llfi_index !385
  store i32 89, i32* %3, align 4, !llfi_index !386
  br label %42, !llfi_index !387

42:                                               ; preds = %60, %41
  %43 = load i64, i64* %6, align 8, !llfi_index !388
  %44 = add nsw i64 %43, 1, !llfi_index !389
  %45 = load i64, i64* %7, align 8, !llfi_index !390
  %46 = icmp slt i64 %44, %45, !llfi_index !391
  br i1 %46, label %47, label %61, !llfi_index !392

47:                                               ; preds = %42
  %48 = load i64, i64* %6, align 8, !llfi_index !393
  %49 = load i64, i64* %7, align 8, !llfi_index !394
  %50 = add nsw i64 %48, %49, !llfi_index !395
  %51 = sdiv i64 %50, 2, !llfi_index !396
  store i64 %51, i64* %8, align 8, !llfi_index !397
  %52 = load i64, i64* %8, align 8, !llfi_index !398
  %53 = call i64 @_Z5solvex(i64 %52), !llfi_index !399
  %54 = load i64, i64* %2, align 8, !llfi_index !400
  %55 = icmp sge i64 %53, %54, !llfi_index !401
  br i1 %55, label %56, label %58, !llfi_index !402

56:                                               ; preds = %47
  %57 = load i64, i64* %8, align 8, !llfi_index !403
  store i64 %57, i64* %7, align 8, !llfi_index !404
  br label %60, !llfi_index !405

58:                                               ; preds = %47
  %59 = load i64, i64* %8, align 8, !llfi_index !406
  store i64 %59, i64* %6, align 8, !llfi_index !407
  br label %60, !llfi_index !408

60:                                               ; preds = %58, %56
  br label %42, !llvm.loop !409, !llfi_index !410

61:                                               ; preds = %42
  %62 = load i64, i64* %7, align 8, !llfi_index !411
  %63 = call nonnull align 8 dereferenceable(8) %"class.std::basic_ostream"* @_ZNSolsEx(%"class.std::basic_ostream"* nonnull align 8 dereferenceable(8) @_ZSt4cout, i64 %62), !llfi_index !412
  %64 = call nonnull align 8 dereferenceable(8) %"class.std::basic_ostream"* @_ZNSolsEPFRSoS_E(%"class.std::basic_ostream"* nonnull align 8 dereferenceable(8) %63, %"class.std::basic_ostream"* (%"class.std::basic_ostream"*)* @_ZSt4endlIcSt11char_traitsIcEERSt13basic_ostreamIT_T0_ES6_), !llfi_index !413
  ret i32 0, !llfi_index !414
}

declare dso_local %struct._IO_FILE* @freopen(i8*, i8*, %struct._IO_FILE*) #2

declare dso_local zeroext i1 @_ZNSt8ios_base15sync_with_stdioEb(i1 zeroext) #2

declare dso_local nonnull align 8 dereferenceable(16) %"class.std::basic_istream"* @_ZNSirsERi(%"class.std::basic_istream"* nonnull align 8 dereferenceable(16), i32* nonnull align 4 dereferenceable(4)) #2

declare dso_local nonnull align 8 dereferenceable(16) %"class.std::basic_istream"* @_ZNSirsERx(%"class.std::basic_istream"* nonnull align 8 dereferenceable(16), i64* nonnull align 8 dereferenceable(8)) #2

declare dso_local nonnull align 8 dereferenceable(8) %"class.std::basic_ostream"* @_ZNSolsEx(%"class.std::basic_ostream"* nonnull align 8 dereferenceable(8), i64) #2

declare dso_local nonnull align 8 dereferenceable(8) %"class.std::basic_ostream"* @_ZSt4endlIcSt11char_traitsIcEERSt13basic_ostreamIT_T0_ES6_(%"class.std::basic_ostream"* nonnull align 8 dereferenceable(8)) #2

declare dso_local nonnull align 8 dereferenceable(8) %"class.std::basic_ostream"* @_ZNSolsEPFRSoS_E(%"class.std::basic_ostream"* nonnull align 8 dereferenceable(8), %"class.std::basic_ostream"* (%"class.std::basic_ostream"*)*) #2

attributes #0 = { noinline uwtable "frame-pointer"="all" "min-legal-vector-width"="0" "no-trapping-math"="true" "stack-protector-buffer-size"="8" "target-cpu"="x86-64" "target-features"="+cx8,+fxsr,+mmx,+sse,+sse2,+x87" "tune-cpu"="generic" }
attributes #1 = { nounwind "frame-pointer"="all" "no-trapping-math"="true" "stack-protector-buffer-size"="8" "target-cpu"="x86-64" "target-features"="+cx8,+fxsr,+mmx,+sse,+sse2,+x87" "tune-cpu"="generic" }
attributes #2 = { "frame-pointer"="all" "no-trapping-math"="true" "stack-protector-buffer-size"="8" "target-cpu"="x86-64" "target-features"="+cx8,+fxsr,+mmx,+sse,+sse2,+x87" "tune-cpu"="generic" }
attributes #3 = { nounwind }
attributes #4 = { mustprogress noinline nounwind uwtable "frame-pointer"="all" "min-legal-vector-width"="0" "no-trapping-math"="true" "stack-protector-buffer-size"="8" "target-cpu"="x86-64" "target-features"="+cx8,+fxsr,+mmx,+sse,+sse2,+x87" "tune-cpu"="generic" }
attributes #5 = { mustprogress noinline uwtable "frame-pointer"="all" "min-legal-vector-width"="0" "no-trapping-math"="true" "stack-protector-buffer-size"="8" "target-cpu"="x86-64" "target-features"="+cx8,+fxsr,+mmx,+sse,+sse2,+x87" "tune-cpu"="generic" }
attributes #6 = { argmemonly nofree nounwind willreturn writeonly }
attributes #7 = { mustprogress noinline norecurse uwtable "frame-pointer"="all" "min-legal-vector-width"="0" "no-trapping-math"="true" "stack-protector-buffer-size"="8" "target-cpu"="x86-64" "target-features"="+cx8,+fxsr,+mmx,+sse,+sse2,+x87" "tune-cpu"="generic" }

!llvm.ident = !{!0}
!llvm.module.flags = !{!1, !2, !3}

!0 = !{!"clang version 13.0.0 (https://github.com/llvm/llvm-project.git d7b669b3a30345cfcdb2fde2af6f48aa4b94845d)"}
!1 = !{i32 1, !"wchar_size", i32 4}
!2 = !{i32 7, !"uwtable", i32 1}
!3 = !{i32 7, !"frame-pointer", i32 2}
!4 = !{i64 1}
!5 = !{i64 2}
!6 = !{i64 3}
!7 = !{i64 4}
!8 = !{i64 5}
!9 = !{i64 6}
!10 = !{i64 7}
!11 = !{i64 8}
!12 = !{i64 9}
!13 = !{i64 10}
!14 = !{i64 11}
!15 = !{i64 12}
!16 = !{i64 13}
!17 = !{i64 14}
!18 = !{i64 15}
!19 = !{i64 16}
!20 = !{i64 17}
!21 = !{i64 18}
!22 = !{i64 19}
!23 = !{i64 20}
!24 = !{i64 21}
!25 = !{i64 22}
!26 = !{i64 23}
!27 = !{i64 24}
!28 = !{i64 25}
!29 = !{i64 26}
!30 = !{i64 27}
!31 = !{i64 28}
!32 = !{i64 29}
!33 = !{i64 30}
!34 = !{i64 31}
!35 = !{i64 32}
!36 = !{i64 33}
!37 = !{i64 34}
!38 = !{i64 35}
!39 = !{i64 36}
!40 = distinct !{!40, !41}
!41 = !{!"llvm.loop.mustprogress"}
!42 = !{i64 37}
!43 = !{i64 38}
!44 = !{i64 39}
!45 = !{i64 40}
!46 = !{i64 41}
!47 = !{i64 42}
!48 = !{i64 43}
!49 = !{i64 44}
!50 = !{i64 45}
!51 = !{i64 46}
!52 = !{i64 47}
!53 = !{i64 48}
!54 = !{i64 49}
!55 = !{i64 50}
!56 = !{i64 51}
!57 = !{i64 52}
!58 = !{i64 53}
!59 = !{i64 54}
!60 = !{i64 55}
!61 = !{i64 56}
!62 = !{i64 57}
!63 = !{i64 58}
!64 = !{i64 59}
!65 = !{i64 60}
!66 = !{i64 61}
!67 = !{i64 62}
!68 = !{i64 63}
!69 = !{i64 64}
!70 = !{i64 65}
!71 = !{i64 66}
!72 = !{i64 67}
!73 = !{i64 68}
!74 = !{i64 69}
!75 = !{i64 70}
!76 = !{i64 71}
!77 = !{i64 72}
!78 = !{i64 73}
!79 = !{i64 74}
!80 = !{i64 75}
!81 = distinct !{!81, !41}
!82 = !{i64 76}
!83 = !{i64 77}
!84 = !{i64 78}
!85 = !{i64 79}
!86 = !{i64 80}
!87 = !{i64 81}
!88 = !{i64 82}
!89 = !{i64 83}
!90 = !{i64 84}
!91 = !{i64 85}
!92 = !{i64 86}
!93 = !{i64 87}
!94 = !{i64 88}
!95 = !{i64 89}
!96 = !{i64 90}
!97 = !{i64 91}
!98 = !{i64 92}
!99 = !{i64 93}
!100 = !{i64 94}
!101 = !{i64 95}
!102 = !{i64 96}
!103 = !{i64 97}
!104 = !{i64 98}
!105 = !{i64 99}
!106 = !{i64 100}
!107 = !{i64 101}
!108 = !{i64 102}
!109 = !{i64 103}
!110 = !{i64 104}
!111 = !{i64 105}
!112 = !{i64 106}
!113 = !{i64 107}
!114 = !{i64 108}
!115 = !{i64 109}
!116 = !{i64 110}
!117 = !{i64 111}
!118 = !{i64 112}
!119 = !{i64 113}
!120 = !{i64 114}
!121 = !{i64 115}
!122 = !{i64 116}
!123 = !{i64 117}
!124 = !{i64 118}
!125 = !{i64 119}
!126 = !{i64 120}
!127 = !{i64 121}
!128 = !{i64 122}
!129 = !{i64 123}
!130 = !{i64 124}
!131 = !{i64 125}
!132 = !{i64 126}
!133 = !{i64 127}
!134 = !{i64 128}
!135 = !{i64 129}
!136 = !{i64 130}
!137 = !{i64 131}
!138 = !{i64 132}
!139 = !{i64 133}
!140 = !{i64 134}
!141 = !{i64 135}
!142 = !{i64 136}
!143 = !{i64 137}
!144 = !{i64 138}
!145 = !{i64 139}
!146 = !{i64 140}
!147 = !{i64 141}
!148 = !{i64 142}
!149 = !{i64 143}
!150 = !{i64 144}
!151 = !{i64 145}
!152 = !{i64 146}
!153 = !{i64 147}
!154 = !{i64 148}
!155 = !{i64 149}
!156 = !{i64 150}
!157 = !{i64 151}
!158 = distinct !{!158, !41}
!159 = !{i64 152}
!160 = !{i64 153}
!161 = !{i64 154}
!162 = !{i64 155}
!163 = !{i64 156}
!164 = !{i64 157}
!165 = !{i64 158}
!166 = !{i64 159}
!167 = !{i64 160}
!168 = !{i64 161}
!169 = !{i64 162}
!170 = !{i64 163}
!171 = !{i64 164}
!172 = !{i64 165}
!173 = !{i64 166}
!174 = !{i64 167}
!175 = !{i64 168}
!176 = !{i64 169}
!177 = !{i64 170}
!178 = !{i64 171}
!179 = !{i64 172}
!180 = !{i64 173}
!181 = !{i64 174}
!182 = !{i64 175}
!183 = !{i64 176}
!184 = !{i64 177}
!185 = !{i64 178}
!186 = !{i64 179}
!187 = !{i64 180}
!188 = !{i64 181}
!189 = !{i64 182}
!190 = !{i64 183}
!191 = !{i64 184}
!192 = !{i64 185}
!193 = !{i64 186}
!194 = !{i64 187}
!195 = !{i64 188}
!196 = !{i64 189}
!197 = !{i64 190}
!198 = !{i64 191}
!199 = !{i64 192}
!200 = !{i64 193}
!201 = !{i64 194}
!202 = !{i64 195}
!203 = !{i64 196}
!204 = !{i64 197}
!205 = !{i64 198}
!206 = !{i64 199}
!207 = !{i64 200}
!208 = !{i64 201}
!209 = !{i64 202}
!210 = !{i64 203}
!211 = !{i64 204}
!212 = !{i64 205}
!213 = !{i64 206}
!214 = !{i64 207}
!215 = distinct !{!215, !41}
!216 = !{i64 208}
!217 = !{i64 209}
!218 = !{i64 210}
!219 = !{i64 211}
!220 = !{i64 212}
!221 = !{i64 213}
!222 = !{i64 214}
!223 = !{i64 215}
!224 = !{i64 216}
!225 = !{i64 217}
!226 = !{i64 218}
!227 = !{i64 219}
!228 = !{i64 220}
!229 = !{i64 221}
!230 = !{i64 222}
!231 = !{i64 223}
!232 = !{i64 224}
!233 = !{i64 225}
!234 = !{i64 226}
!235 = !{i64 227}
!236 = !{i64 228}
!237 = !{i64 229}
!238 = !{i64 230}
!239 = !{i64 231}
!240 = !{i64 232}
!241 = !{i64 233}
!242 = !{i64 234}
!243 = !{i64 235}
!244 = !{i64 236}
!245 = !{i64 237}
!246 = !{i64 238}
!247 = !{i64 239}
!248 = !{i64 240}
!249 = !{i64 241}
!250 = !{i64 242}
!251 = !{i64 243}
!252 = !{i64 244}
!253 = !{i64 245}
!254 = !{i64 246}
!255 = !{i64 247}
!256 = !{i64 248}
!257 = !{i64 249}
!258 = !{i64 250}
!259 = !{i64 251}
!260 = !{i64 252}
!261 = !{i64 253}
!262 = !{i64 254}
!263 = !{i64 255}
!264 = !{i64 256}
!265 = !{i64 257}
!266 = !{i64 258}
!267 = !{i64 259}
!268 = !{i64 260}
!269 = !{i64 261}
!270 = !{i64 262}
!271 = !{i64 263}
!272 = !{i64 264}
!273 = !{i64 265}
!274 = !{i64 266}
!275 = !{i64 267}
!276 = !{i64 268}
!277 = !{i64 269}
!278 = !{i64 270}
!279 = !{i64 271}
!280 = !{i64 272}
!281 = !{i64 273}
!282 = !{i64 274}
!283 = !{i64 275}
!284 = !{i64 276}
!285 = !{i64 277}
!286 = !{i64 278}
!287 = !{i64 279}
!288 = !{i64 280}
!289 = !{i64 281}
!290 = !{i64 282}
!291 = !{i64 283}
!292 = !{i64 284}
!293 = !{i64 285}
!294 = !{i64 286}
!295 = !{i64 287}
!296 = !{i64 288}
!297 = !{i64 289}
!298 = !{i64 290}
!299 = !{i64 291}
!300 = !{i64 292}
!301 = !{i64 293}
!302 = !{i64 294}
!303 = !{i64 295}
!304 = !{i64 296}
!305 = !{i64 297}
!306 = !{i64 298}
!307 = !{i64 299}
!308 = !{i64 300}
!309 = !{i64 301}
!310 = !{i64 302}
!311 = !{i64 303}
!312 = !{i64 304}
!313 = !{i64 305}
!314 = !{i64 306}
!315 = !{i64 307}
!316 = !{i64 308}
!317 = !{i64 309}
!318 = !{i64 310}
!319 = !{i64 311}
!320 = !{i64 312}
!321 = !{i64 313}
!322 = !{i64 314}
!323 = !{i64 315}
!324 = !{i64 316}
!325 = !{i64 317}
!326 = !{i64 318}
!327 = !{i64 319}
!328 = !{i64 320}
!329 = !{i64 321}
!330 = distinct !{!330, !41}
!331 = !{i64 322}
!332 = !{i64 323}
!333 = !{i64 324}
!334 = !{i64 325}
!335 = !{i64 326}
!336 = !{i64 327}
!337 = !{i64 328}
!338 = !{i64 329}
!339 = !{i64 330}
!340 = !{i64 331}
!341 = !{i64 332}
!342 = !{i64 333}
!343 = !{i64 334}
!344 = !{i64 335}
!345 = !{i64 336}
!346 = !{i64 337}
!347 = !{i64 338}
!348 = !{i64 339}
!349 = !{i64 340}
!350 = !{i64 341}
!351 = !{i64 342}
!352 = !{i64 343}
!353 = !{i64 344}
!354 = !{i64 345}
!355 = !{i64 346}
!356 = !{i64 347}
!357 = !{i64 348}
!358 = !{i64 349}
!359 = !{i64 350}
!360 = !{i64 351}
!361 = !{i64 352}
!362 = !{i64 353}
!363 = !{i64 354}
!364 = !{i64 355}
!365 = distinct !{!365, !41}
!366 = !{i64 356}
!367 = !{i64 357}
!368 = !{i64 358}
!369 = !{i64 359}
!370 = !{i64 360}
!371 = !{i64 361}
!372 = !{i64 362}
!373 = !{i64 363}
!374 = !{i64 364}
!375 = !{i64 365}
!376 = !{i64 366}
!377 = !{i64 367}
!378 = !{i64 368}
!379 = !{i64 369}
!380 = !{i64 370}
!381 = !{i64 371}
!382 = distinct !{!382, !41}
!383 = !{i64 372}
!384 = !{i64 373}
!385 = !{i64 374}
!386 = !{i64 375}
!387 = !{i64 376}
!388 = !{i64 377}
!389 = !{i64 378}
!390 = !{i64 379}
!391 = !{i64 380}
!392 = !{i64 381}
!393 = !{i64 382}
!394 = !{i64 383}
!395 = !{i64 384}
!396 = !{i64 385}
!397 = !{i64 386}
!398 = !{i64 387}
!399 = !{i64 388}
!400 = !{i64 389}
!401 = !{i64 390}
!402 = !{i64 391}
!403 = !{i64 392}
!404 = !{i64 393}
!405 = !{i64 394}
!406 = !{i64 395}
!407 = !{i64 396}
!408 = !{i64 397}
!409 = distinct !{!409, !41}
!410 = !{i64 398}
!411 = !{i64 399}
!412 = !{i64 400}
!413 = !{i64 401}
!414 = !{i64 402}
