; ModuleID = '/home/hjiang/Computation-Kernel-Dataset/experiments/Fault_injection_0308_parall/O0/LetPlayaGame/LetPlayaGame.ll'
source_filename = "llvm-link"
target datalayout = "e-m:e-p270:32:32-p271:32:32-p272:64:64-i64:64-f80:128-n8:16:32:64-S128"
target triple = "x86_64-unknown-linux-gnu"

%"class.std::allocator" = type { i8 }
%"class.std::vector" = type { %"struct.std::_Vector_base" }
%"struct.std::_Vector_base" = type { %"struct.std::_Vector_base<int, std::allocator<int>>::_Vector_impl" }
%"struct.std::_Vector_base<int, std::allocator<int>>::_Vector_impl" = type { %"struct.std::_Vector_base<int, std::allocator<int>>::_Vector_impl_data" }
%"struct.std::_Vector_base<int, std::allocator<int>>::_Vector_impl_data" = type { i32*, i32*, i32* }
%struct._IO_FILE = type { i32, i8*, i8*, i8*, i8*, i8*, i8*, i8*, i8*, i8*, i8*, i8*, %struct._IO_marker*, %struct._IO_FILE*, i32, i32, i64, i16, i8, [1 x i8], i8*, i64, %struct._IO_codecvt*, %struct._IO_wide_data*, %struct._IO_FILE*, i8*, i64, i32, [20 x i8] }
%struct._IO_marker = type opaque
%struct._IO_codecvt = type opaque
%struct._IO_wide_data = type opaque
%"class.std::basic_istream" = type { i32 (...)**, i64, %"class.std::basic_ios" }
%"class.std::basic_ios" = type { %"class.std::ios_base", %"class.std::basic_ostream"*, i8, i8, %"class.std::basic_streambuf"*, %"class.std::ctype"*, %"class.std::num_put"*, %"class.std::num_put"* }
%"class.std::ios_base" = type { i32 (...)**, i64, i64, i32, i32, i32, %"struct.std::ios_base::_Callback_list"*, %"struct.std::ios_base::_Words", [8 x %"struct.std::ios_base::_Words"], i32, %"struct.std::ios_base::_Words"*, %"class.std::locale" }
%"struct.std::ios_base::_Callback_list" = type { %"struct.std::ios_base::_Callback_list"*, void (i32, %"class.std::ios_base"*, i32)*, i32, i32 }
%"struct.std::ios_base::_Words" = type { i8*, i64 }
%"class.std::locale" = type { %"class.std::locale::_Impl"* }
%"class.std::locale::_Impl" = type { i32, %"class.std::locale::facet"**, i64, %"class.std::locale::facet"**, i8** }
%"class.std::locale::facet" = type <{ i32 (...)**, i32, [4 x i8] }>
%"class.std::basic_ostream" = type { i32 (...)**, %"class.std::basic_ios" }
%"class.std::basic_streambuf" = type { i32 (...)**, i8*, i8*, i8*, i8*, i8*, i8*, %"class.std::locale" }
%"class.std::ctype" = type <{ %"class.std::locale::facet.base", [4 x i8], %struct.__locale_struct*, i8, [7 x i8], i32*, i32*, i16*, i8, [256 x i8], [256 x i8], i8, [6 x i8] }>
%"class.std::locale::facet.base" = type <{ i32 (...)**, i32 }>
%struct.__locale_struct = type { [13 x %struct.__locale_data*], i16*, i32*, i32*, [13 x i8*] }
%struct.__locale_data = type opaque
%"class.std::num_put" = type { %"class.std::locale::facet.base", [4 x i8] }
%"class.std::__cxx11::basic_string" = type { %"struct.std::__cxx11::basic_string<char>::_Alloc_hider", i64, %union.anon }
%"struct.std::__cxx11::basic_string<char>::_Alloc_hider" = type { i8* }
%union.anon = type { i64, [8 x i8] }
%"class.__gnu_cxx::__normal_iterator" = type { i32* }

$_ZNSt6vectorIiSaIiEEC2Ev = comdat any

$_ZNSt6vectorIiSaIiEED2Ev = comdat any

$_ZNSt12_Vector_baseIiSaIiEE19_M_get_Tp_allocatorEv = comdat any

$_ZSt8_DestroyIPiiEvT_S1_RSaIT0_E = comdat any

$_ZNSt12_Vector_baseIiSaIiEED2Ev = comdat any

$__clang_call_terminate = comdat any

$_ZNSt12_Vector_baseIiSaIiEE13_M_deallocateEPim = comdat any

$_ZNSt12_Vector_baseIiSaIiEE12_Vector_implD2Ev = comdat any

$_ZNSaIiED2Ev = comdat any

$_ZN9__gnu_cxx13new_allocatorIiED2Ev = comdat any

$_ZNSt16allocator_traitsISaIiEE10deallocateERS0_Pim = comdat any

$_ZN9__gnu_cxx13new_allocatorIiE10deallocateEPim = comdat any

$_ZSt8_DestroyIPiEvT_S1_ = comdat any

$_ZNSt12_Destroy_auxILb1EE9__destroyIPiEEvT_S3_ = comdat any

$_ZNSt12_Vector_baseIiSaIiEEC2Ev = comdat any

$_ZNSt12_Vector_baseIiSaIiEE12_Vector_implC2Ev = comdat any

$_ZNSaIiEC2Ev = comdat any

$_ZNSt12_Vector_baseIiSaIiEE17_Vector_impl_dataC2Ev = comdat any

$_ZN9__gnu_cxx13new_allocatorIiEC2Ev = comdat any

$_ZNSt6vectorIiSaIiEE9push_backERKi = comdat any

$_ZNKSt6vectorIiSaIiEE4sizeEv = comdat any

$_ZNSt6vectorIiSaIiEE5beginEv = comdat any

$_ZNSt6vectorIiSaIiEE3endEv = comdat any

$_ZSt4sortIN9__gnu_cxx17__normal_iteratorIPiSt6vectorIiSaIiEEEEEvT_S7_ = comdat any

$_ZSt4swapIiSaIiEEvRSt6vectorIT_T0_ES5_ = comdat any

$_ZSt4swapIiENSt9enable_ifIXsr6__and_ISt6__not_ISt15__is_tuple_likeIT_EESt21is_move_constructibleIS3_ESt18is_move_assignableIS3_EEE5valueEvE4typeERS3_SC_ = comdat any

$_ZNSt6vectorIiSaIiEEixEm = comdat any

$_ZSt4moveIRiEONSt16remove_referenceIT_E4typeEOS2_ = comdat any

$_ZNSt6vectorIiSaIiEE4swapERS1_ = comdat any

$_ZNSt12_Vector_baseIiSaIiEE17_Vector_impl_data12_M_swap_dataERS2_ = comdat any

$_ZN9__gnu_cxx14__alloc_traitsISaIiEiE10_S_on_swapERS1_S3_ = comdat any

$_ZSt15__alloc_on_swapISaIiEEvRT_S2_ = comdat any

$_ZSt18__do_alloc_on_swapISaIiEEvRT_S2_St17integral_constantIbLb0EE = comdat any

$_ZNSt12_Vector_baseIiSaIiEE17_Vector_impl_data12_M_copy_dataERKS2_ = comdat any

$_ZN9__gnu_cxx5__ops16__iter_less_iterEv = comdat any

$_ZSt6__sortIN9__gnu_cxx17__normal_iteratorIPiSt6vectorIiSaIiEEEENS0_5__ops15_Iter_less_iterEEvT_S9_T0_ = comdat any

$_ZN9__gnu_cxxneIPiSt6vectorIiSaIiEEEEbRKNS_17__normal_iteratorIT_T0_EESA_ = comdat any

$_ZN9__gnu_cxxmiIPiSt6vectorIiSaIiEEEENS_17__normal_iteratorIT_T0_E15difference_typeERKS8_SB_ = comdat any

$_ZSt4__lgl = comdat any

$_ZSt16__introsort_loopIN9__gnu_cxx17__normal_iteratorIPiSt6vectorIiSaIiEEEElNS0_5__ops15_Iter_less_iterEEvT_S9_T0_T1_ = comdat any

$_ZSt22__final_insertion_sortIN9__gnu_cxx17__normal_iteratorIPiSt6vectorIiSaIiEEEENS0_5__ops15_Iter_less_iterEEvT_S9_T0_ = comdat any

$_ZNK9__gnu_cxx17__normal_iteratorIPiSt6vectorIiSaIiEEEplEl = comdat any

$_ZSt16__insertion_sortIN9__gnu_cxx17__normal_iteratorIPiSt6vectorIiSaIiEEEENS0_5__ops15_Iter_less_iterEEvT_S9_T0_ = comdat any

$_ZSt26__unguarded_insertion_sortIN9__gnu_cxx17__normal_iteratorIPiSt6vectorIiSaIiEEEENS0_5__ops15_Iter_less_iterEEvT_S9_T0_ = comdat any

$_ZN9__gnu_cxx5__ops15__val_comp_iterENS0_15_Iter_less_iterE = comdat any

$_ZSt25__unguarded_linear_insertIN9__gnu_cxx17__normal_iteratorIPiSt6vectorIiSaIiEEEENS0_5__ops14_Val_less_iterEEvT_T0_ = comdat any

$_ZN9__gnu_cxx17__normal_iteratorIPiSt6vectorIiSaIiEEEppEv = comdat any

$_ZNK9__gnu_cxx17__normal_iteratorIPiSt6vectorIiSaIiEEEdeEv = comdat any

$_ZN9__gnu_cxx17__normal_iteratorIPiSt6vectorIiSaIiEEEmmEv = comdat any

$_ZNK9__gnu_cxx5__ops14_Val_less_iterclIiNS_17__normal_iteratorIPiSt6vectorIiSaIiEEEEEEbRT_T0_ = comdat any

$_ZN9__gnu_cxxeqIPiSt6vectorIiSaIiEEEEbRKNS_17__normal_iteratorIT_T0_EESA_ = comdat any

$_ZNK9__gnu_cxx5__ops15_Iter_less_iterclINS_17__normal_iteratorIPiSt6vectorIiSaIiEEEES8_EEbT_T0_ = comdat any

$_ZSt13move_backwardIN9__gnu_cxx17__normal_iteratorIPiSt6vectorIiSaIiEEEES6_ET0_T_S8_S7_ = comdat any

$_ZSt12__miter_baseIN9__gnu_cxx17__normal_iteratorIPiSt6vectorIiSaIiEEEEET_S7_ = comdat any

$_ZSt23__copy_move_backward_a2ILb1EN9__gnu_cxx17__normal_iteratorIPiSt6vectorIiSaIiEEEES6_ET1_T0_S8_S7_ = comdat any

$_ZSt12__niter_baseIPiSt6vectorIiSaIiEEET_N9__gnu_cxx17__normal_iteratorIS4_T0_EE = comdat any

$_ZSt22__copy_move_backward_aILb1EPiS0_ET1_T0_S2_S1_ = comdat any

$_ZSt12__niter_wrapIN9__gnu_cxx17__normal_iteratorIPiSt6vectorIiSaIiEEEES2_ET_S7_T0_ = comdat any

$_ZNSt20__copy_move_backwardILb1ELb1ESt26random_access_iterator_tagE13__copy_move_bIiEEPT_PKS3_S6_S4_ = comdat any

$_ZNK9__gnu_cxx17__normal_iteratorIPiSt6vectorIiSaIiEEE4baseEv = comdat any

$_ZN9__gnu_cxx17__normal_iteratorIPiSt6vectorIiSaIiEEEC2ERKS1_ = comdat any

$_ZSt14__partial_sortIN9__gnu_cxx17__normal_iteratorIPiSt6vectorIiSaIiEEEENS0_5__ops15_Iter_less_iterEEvT_S9_S9_T0_ = comdat any

$_ZSt27__unguarded_partition_pivotIN9__gnu_cxx17__normal_iteratorIPiSt6vectorIiSaIiEEEENS0_5__ops15_Iter_less_iterEET_S9_S9_T0_ = comdat any

$_ZNK9__gnu_cxx17__normal_iteratorIPiSt6vectorIiSaIiEEEmiEl = comdat any

$_ZSt22__move_median_to_firstIN9__gnu_cxx17__normal_iteratorIPiSt6vectorIiSaIiEEEENS0_5__ops15_Iter_less_iterEEvT_S9_S9_S9_T0_ = comdat any

$_ZSt21__unguarded_partitionIN9__gnu_cxx17__normal_iteratorIPiSt6vectorIiSaIiEEEENS0_5__ops15_Iter_less_iterEET_S9_S9_S9_T0_ = comdat any

$_ZN9__gnu_cxxltIPiSt6vectorIiSaIiEEEEbRKNS_17__normal_iteratorIT_T0_EESA_ = comdat any

$_ZSt9iter_swapIN9__gnu_cxx17__normal_iteratorIPiSt6vectorIiSaIiEEEES6_EvT_T0_ = comdat any

$_ZSt13__heap_selectIN9__gnu_cxx17__normal_iteratorIPiSt6vectorIiSaIiEEEENS0_5__ops15_Iter_less_iterEEvT_S9_S9_T0_ = comdat any

$_ZSt11__sort_heapIN9__gnu_cxx17__normal_iteratorIPiSt6vectorIiSaIiEEEENS0_5__ops15_Iter_less_iterEEvT_S9_RT0_ = comdat any

$_ZSt10__pop_heapIN9__gnu_cxx17__normal_iteratorIPiSt6vectorIiSaIiEEEENS0_5__ops15_Iter_less_iterEEvT_S9_S9_RT0_ = comdat any

$_ZSt13__adjust_heapIN9__gnu_cxx17__normal_iteratorIPiSt6vectorIiSaIiEEEEliNS0_5__ops15_Iter_less_iterEEvT_T0_SA_T1_T2_ = comdat any

$_ZSt4moveIRN9__gnu_cxx5__ops15_Iter_less_iterEEONSt16remove_referenceIT_E4typeEOS5_ = comdat any

$_ZN9__gnu_cxx5__ops14_Iter_less_valC2ENS0_15_Iter_less_iterE = comdat any

$_ZSt11__push_heapIN9__gnu_cxx17__normal_iteratorIPiSt6vectorIiSaIiEEEEliNS0_5__ops14_Iter_less_valEEvT_T0_SA_T1_RT2_ = comdat any

$_ZNK9__gnu_cxx5__ops14_Iter_less_valclINS_17__normal_iteratorIPiSt6vectorIiSaIiEEEEiEEbT_RT0_ = comdat any

$_ZSt11__make_heapIN9__gnu_cxx17__normal_iteratorIPiSt6vectorIiSaIiEEEENS0_5__ops15_Iter_less_iterEEvT_S9_RT0_ = comdat any

$_ZNSt16allocator_traitsISaIiEE9constructIiJRKiEEEvRS0_PT_DpOT0_ = comdat any

$_ZNSt6vectorIiSaIiEE17_M_realloc_insertIJRKiEEEvN9__gnu_cxx17__normal_iteratorIPiS1_EEDpOT_ = comdat any

$_ZNKSt6vectorIiSaIiEE12_M_check_lenEmPKc = comdat any

$_ZNSt12_Vector_baseIiSaIiEE11_M_allocateEm = comdat any

$_ZSt7forwardIRKiEOT_RNSt16remove_referenceIS2_E4typeE = comdat any

$_ZNSt6vectorIiSaIiEE11_S_relocateEPiS2_S2_RS0_ = comdat any

$_ZNSt6vectorIiSaIiEE14_S_do_relocateEPiS2_S2_RS0_St17integral_constantIbLb1EE = comdat any

$_ZSt12__relocate_aIPiS0_SaIiEET0_T_S3_S2_RT1_ = comdat any

$_ZSt12__niter_baseIPiET_S1_ = comdat any

$_ZSt14__relocate_a_1IiiENSt9enable_ifIXsr3std24__is_bitwise_relocatableIT_EE5valueEPS1_E4typeES2_S2_S2_RSaIT0_E = comdat any

$_ZNSt16allocator_traitsISaIiEE8allocateERS0_m = comdat any

$_ZN9__gnu_cxx13new_allocatorIiE8allocateEmPKv = comdat any

$_ZNK9__gnu_cxx13new_allocatorIiE8max_sizeEv = comdat any

$_ZNKSt6vectorIiSaIiEE8max_sizeEv = comdat any

$_ZSt3maxImERKT_S2_S2_ = comdat any

$_ZNKSt12_Vector_baseIiSaIiEE19_M_get_Tp_allocatorEv = comdat any

$_ZNSt6vectorIiSaIiEE11_S_max_sizeERKS0_ = comdat any

$_ZNSt16allocator_traitsISaIiEE8max_sizeERKS0_ = comdat any

$_ZSt3minImERKT_S2_S2_ = comdat any

$_ZN9__gnu_cxx13new_allocatorIiE9constructIiJRKiEEEvPT_DpOT0_ = comdat any

@llvm.global_ctors = appending global [1 x { i32, void ()*, i8* }] [{ i32, void ()*, i8* } { i32 65535, void ()* @_GLOBAL__sub_I_LetPlayaGame.cpp, i8* null }]
@_ZStL8__ioinit = internal global %"class.std::allocator" zeroinitializer, align 1
@wx = dso_local global %"class.std::vector" zeroinitializer, align 8
@wy = dso_local global %"class.std::vector" zeroinitializer, align 8
@.str = private unnamed_addr constant [28 x i8] c"../input_files/LetPlayaGame\00", align 1
@.str.3 = private unnamed_addr constant [2 x i8] c"r\00", align 1
@stdin = external dso_local global %struct._IO_FILE*, align 8
@.str.4 = private unnamed_addr constant [3 x i8] c"%d\00", align 1
@_ZSt3cin = external dso_local global %"class.std::basic_istream", align 8
@_ZSt4cout = external dso_local global %"class.std::basic_ostream", align 8
@.str.5 = private unnamed_addr constant [4 x i8] c"%d\0A\00", align 1
@.str.6 = private unnamed_addr constant [26 x i8] c"vector::_M_realloc_insert\00", align 1

; Function Attrs: noinline uwtable
define internal void @_GLOBAL__sub_I_LetPlayaGame.cpp() #0 section ".text.startup" {
  call void @__cxx_global_var_init(), !llfi_index !4
  call void @__cxx_global_var_init.1(), !llfi_index !5
  call void @__cxx_global_var_init.2(), !llfi_index !6
  ret void, !llfi_index !7
}

; Function Attrs: noinline uwtable
define internal void @__cxx_global_var_init() #0 section ".text.startup" {
  call void @_ZNSt8ios_base4InitC1Ev(%"class.std::allocator"* nonnull align 1 dereferenceable(1) @_ZStL8__ioinit), !llfi_index !8
  %1 = call i32 @atexit(void ()* @__dtor__ZStL8__ioinit) #2, !llfi_index !9
  ret void, !llfi_index !10
}

; Function Attrs: noinline uwtable
define internal void @__cxx_global_var_init.1() #0 section ".text.startup" {
  call void @_ZNSt6vectorIiSaIiEEC2Ev(%"class.std::vector"* nonnull align 8 dereferenceable(24) @wx) #2, !llfi_index !11
  %1 = call i32 @atexit(void ()* @__dtor_wx) #2, !llfi_index !12
  ret void, !llfi_index !13
}

; Function Attrs: noinline uwtable
define internal void @__cxx_global_var_init.2() #0 section ".text.startup" {
  call void @_ZNSt6vectorIiSaIiEEC2Ev(%"class.std::vector"* nonnull align 8 dereferenceable(24) @wy) #2, !llfi_index !14
  %1 = call i32 @atexit(void ()* @__dtor_wy) #2, !llfi_index !15
  ret void, !llfi_index !16
}

; Function Attrs: noinline nounwind uwtable
define linkonce_odr dso_local void @_ZNSt6vectorIiSaIiEEC2Ev(%"class.std::vector"* nonnull align 8 dereferenceable(24) %0) unnamed_addr #1 comdat align 2 {
  %2 = alloca %"class.std::vector"*, align 8, !llfi_index !17
  store %"class.std::vector"* %0, %"class.std::vector"** %2, align 8, !llfi_index !18
  %3 = load %"class.std::vector"*, %"class.std::vector"** %2, align 8, !llfi_index !19
  %4 = bitcast %"class.std::vector"* %3 to %"struct.std::_Vector_base"*, !llfi_index !20
  call void @_ZNSt12_Vector_baseIiSaIiEEC2Ev(%"struct.std::_Vector_base"* nonnull align 8 dereferenceable(24) %4) #2, !llfi_index !21
  ret void, !llfi_index !22
}

; Function Attrs: noinline uwtable
define internal void @__dtor_wy() #0 section ".text.startup" {
  call void @_ZNSt6vectorIiSaIiEED2Ev(%"class.std::vector"* @wy), !llfi_index !23
  ret void, !llfi_index !24
}

; Function Attrs: nounwind
declare dso_local i32 @atexit(void ()*) #2

; Function Attrs: noinline nounwind uwtable
define linkonce_odr dso_local void @_ZNSt6vectorIiSaIiEED2Ev(%"class.std::vector"* nonnull align 8 dereferenceable(24) %0) unnamed_addr #1 comdat align 2 personality i8* bitcast (i32 (...)* @__gxx_personality_v0 to i8*) {
  %2 = alloca %"class.std::vector"*, align 8, !llfi_index !25
  %3 = alloca i8*, align 8, !llfi_index !26
  %4 = alloca i32, align 4, !llfi_index !27
  store %"class.std::vector"* %0, %"class.std::vector"** %2, align 8, !llfi_index !28
  %5 = load %"class.std::vector"*, %"class.std::vector"** %2, align 8, !llfi_index !29
  %6 = bitcast %"class.std::vector"* %5 to %"struct.std::_Vector_base"*, !llfi_index !30
  %7 = getelementptr inbounds %"struct.std::_Vector_base", %"struct.std::_Vector_base"* %6, i32 0, i32 0, !llfi_index !31
  %8 = bitcast %"struct.std::_Vector_base<int, std::allocator<int>>::_Vector_impl"* %7 to %"struct.std::_Vector_base<int, std::allocator<int>>::_Vector_impl_data"*, !llfi_index !32
  %9 = getelementptr inbounds %"struct.std::_Vector_base<int, std::allocator<int>>::_Vector_impl_data", %"struct.std::_Vector_base<int, std::allocator<int>>::_Vector_impl_data"* %8, i32 0, i32 0, !llfi_index !33
  %10 = load i32*, i32** %9, align 8, !llfi_index !34
  %11 = bitcast %"class.std::vector"* %5 to %"struct.std::_Vector_base"*, !llfi_index !35
  %12 = getelementptr inbounds %"struct.std::_Vector_base", %"struct.std::_Vector_base"* %11, i32 0, i32 0, !llfi_index !36
  %13 = bitcast %"struct.std::_Vector_base<int, std::allocator<int>>::_Vector_impl"* %12 to %"struct.std::_Vector_base<int, std::allocator<int>>::_Vector_impl_data"*, !llfi_index !37
  %14 = getelementptr inbounds %"struct.std::_Vector_base<int, std::allocator<int>>::_Vector_impl_data", %"struct.std::_Vector_base<int, std::allocator<int>>::_Vector_impl_data"* %13, i32 0, i32 1, !llfi_index !38
  %15 = load i32*, i32** %14, align 8, !llfi_index !39
  %16 = bitcast %"class.std::vector"* %5 to %"struct.std::_Vector_base"*, !llfi_index !40
  %17 = call nonnull align 1 dereferenceable(1) %"class.std::allocator"* @_ZNSt12_Vector_baseIiSaIiEE19_M_get_Tp_allocatorEv(%"struct.std::_Vector_base"* nonnull align 8 dereferenceable(24) %16) #2, !llfi_index !41
  invoke void @_ZSt8_DestroyIPiiEvT_S1_RSaIT0_E(i32* %10, i32* %15, %"class.std::allocator"* nonnull align 1 dereferenceable(1) %17)
          to label %18 unwind label %20, !llfi_index !42

18:                                               ; preds = %1
  %19 = bitcast %"class.std::vector"* %5 to %"struct.std::_Vector_base"*, !llfi_index !43
  call void @_ZNSt12_Vector_baseIiSaIiEED2Ev(%"struct.std::_Vector_base"* nonnull align 8 dereferenceable(24) %19) #2, !llfi_index !44
  ret void, !llfi_index !45

20:                                               ; preds = %1
  %21 = landingpad { i8*, i32 }
          catch i8* null, !llfi_index !46
  %22 = extractvalue { i8*, i32 } %21, 0, !llfi_index !47
  store i8* %22, i8** %3, align 8, !llfi_index !48
  %23 = extractvalue { i8*, i32 } %21, 1, !llfi_index !49
  store i32 %23, i32* %4, align 4, !llfi_index !50
  %24 = bitcast %"class.std::vector"* %5 to %"struct.std::_Vector_base"*, !llfi_index !51
  call void @_ZNSt12_Vector_baseIiSaIiEED2Ev(%"struct.std::_Vector_base"* nonnull align 8 dereferenceable(24) %24) #2, !llfi_index !52
  br label %25, !llfi_index !53

25:                                               ; preds = %20
  %26 = load i8*, i8** %3, align 8, !llfi_index !54
  call void @__clang_call_terminate(i8* %26) #14, !llfi_index !55
  unreachable, !llfi_index !56
}

declare dso_local i32 @__gxx_personality_v0(...)

; Function Attrs: mustprogress noinline nounwind uwtable
define linkonce_odr dso_local nonnull align 1 dereferenceable(1) %"class.std::allocator"* @_ZNSt12_Vector_baseIiSaIiEE19_M_get_Tp_allocatorEv(%"struct.std::_Vector_base"* nonnull align 8 dereferenceable(24) %0) #3 comdat align 2 {
  %2 = alloca %"struct.std::_Vector_base"*, align 8, !llfi_index !57
  store %"struct.std::_Vector_base"* %0, %"struct.std::_Vector_base"** %2, align 8, !llfi_index !58
  %3 = load %"struct.std::_Vector_base"*, %"struct.std::_Vector_base"** %2, align 8, !llfi_index !59
  %4 = getelementptr inbounds %"struct.std::_Vector_base", %"struct.std::_Vector_base"* %3, i32 0, i32 0, !llfi_index !60
  %5 = bitcast %"struct.std::_Vector_base<int, std::allocator<int>>::_Vector_impl"* %4 to %"class.std::allocator"*, !llfi_index !61
  ret %"class.std::allocator"* %5, !llfi_index !62
}

; Function Attrs: mustprogress noinline uwtable
define linkonce_odr dso_local void @_ZSt8_DestroyIPiiEvT_S1_RSaIT0_E(i32* %0, i32* %1, %"class.std::allocator"* nonnull align 1 dereferenceable(1) %2) #4 comdat {
  %4 = alloca i32*, align 8, !llfi_index !63
  %5 = alloca i32*, align 8, !llfi_index !64
  %6 = alloca %"class.std::allocator"*, align 8, !llfi_index !65
  store i32* %0, i32** %4, align 8, !llfi_index !66
  store i32* %1, i32** %5, align 8, !llfi_index !67
  store %"class.std::allocator"* %2, %"class.std::allocator"** %6, align 8, !llfi_index !68
  %7 = load i32*, i32** %4, align 8, !llfi_index !69
  %8 = load i32*, i32** %5, align 8, !llfi_index !70
  call void @_ZSt8_DestroyIPiEvT_S1_(i32* %7, i32* %8), !llfi_index !71
  ret void, !llfi_index !72
}

; Function Attrs: noinline nounwind uwtable
define linkonce_odr dso_local void @_ZNSt12_Vector_baseIiSaIiEED2Ev(%"struct.std::_Vector_base"* nonnull align 8 dereferenceable(24) %0) unnamed_addr #1 comdat align 2 personality i8* bitcast (i32 (...)* @__gxx_personality_v0 to i8*) {
  %2 = alloca %"struct.std::_Vector_base"*, align 8, !llfi_index !73
  %3 = alloca i8*, align 8, !llfi_index !74
  %4 = alloca i32, align 4, !llfi_index !75
  store %"struct.std::_Vector_base"* %0, %"struct.std::_Vector_base"** %2, align 8, !llfi_index !76
  %5 = load %"struct.std::_Vector_base"*, %"struct.std::_Vector_base"** %2, align 8, !llfi_index !77
  %6 = getelementptr inbounds %"struct.std::_Vector_base", %"struct.std::_Vector_base"* %5, i32 0, i32 0, !llfi_index !78
  %7 = bitcast %"struct.std::_Vector_base<int, std::allocator<int>>::_Vector_impl"* %6 to %"struct.std::_Vector_base<int, std::allocator<int>>::_Vector_impl_data"*, !llfi_index !79
  %8 = getelementptr inbounds %"struct.std::_Vector_base<int, std::allocator<int>>::_Vector_impl_data", %"struct.std::_Vector_base<int, std::allocator<int>>::_Vector_impl_data"* %7, i32 0, i32 0, !llfi_index !80
  %9 = load i32*, i32** %8, align 8, !llfi_index !81
  %10 = getelementptr inbounds %"struct.std::_Vector_base", %"struct.std::_Vector_base"* %5, i32 0, i32 0, !llfi_index !82
  %11 = bitcast %"struct.std::_Vector_base<int, std::allocator<int>>::_Vector_impl"* %10 to %"struct.std::_Vector_base<int, std::allocator<int>>::_Vector_impl_data"*, !llfi_index !83
  %12 = getelementptr inbounds %"struct.std::_Vector_base<int, std::allocator<int>>::_Vector_impl_data", %"struct.std::_Vector_base<int, std::allocator<int>>::_Vector_impl_data"* %11, i32 0, i32 2, !llfi_index !84
  %13 = load i32*, i32** %12, align 8, !llfi_index !85
  %14 = getelementptr inbounds %"struct.std::_Vector_base", %"struct.std::_Vector_base"* %5, i32 0, i32 0, !llfi_index !86
  %15 = bitcast %"struct.std::_Vector_base<int, std::allocator<int>>::_Vector_impl"* %14 to %"struct.std::_Vector_base<int, std::allocator<int>>::_Vector_impl_data"*, !llfi_index !87
  %16 = getelementptr inbounds %"struct.std::_Vector_base<int, std::allocator<int>>::_Vector_impl_data", %"struct.std::_Vector_base<int, std::allocator<int>>::_Vector_impl_data"* %15, i32 0, i32 0, !llfi_index !88
  %17 = load i32*, i32** %16, align 8, !llfi_index !89
  %18 = ptrtoint i32* %13 to i64, !llfi_index !90
  %19 = ptrtoint i32* %17 to i64, !llfi_index !91
  %20 = sub i64 %18, %19, !llfi_index !92
  %21 = sdiv exact i64 %20, 4, !llfi_index !93
  invoke void @_ZNSt12_Vector_baseIiSaIiEE13_M_deallocateEPim(%"struct.std::_Vector_base"* nonnull align 8 dereferenceable(24) %5, i32* %9, i64 %21)
          to label %22 unwind label %24, !llfi_index !94

22:                                               ; preds = %1
  %23 = getelementptr inbounds %"struct.std::_Vector_base", %"struct.std::_Vector_base"* %5, i32 0, i32 0, !llfi_index !95
  call void @_ZNSt12_Vector_baseIiSaIiEE12_Vector_implD2Ev(%"struct.std::_Vector_base<int, std::allocator<int>>::_Vector_impl"* nonnull align 8 dereferenceable(24) %23) #2, !llfi_index !96
  ret void, !llfi_index !97

24:                                               ; preds = %1
  %25 = landingpad { i8*, i32 }
          catch i8* null, !llfi_index !98
  %26 = extractvalue { i8*, i32 } %25, 0, !llfi_index !99
  store i8* %26, i8** %3, align 8, !llfi_index !100
  %27 = extractvalue { i8*, i32 } %25, 1, !llfi_index !101
  store i32 %27, i32* %4, align 4, !llfi_index !102
  %28 = getelementptr inbounds %"struct.std::_Vector_base", %"struct.std::_Vector_base"* %5, i32 0, i32 0, !llfi_index !103
  call void @_ZNSt12_Vector_baseIiSaIiEE12_Vector_implD2Ev(%"struct.std::_Vector_base<int, std::allocator<int>>::_Vector_impl"* nonnull align 8 dereferenceable(24) %28) #2, !llfi_index !104
  br label %29, !llfi_index !105

29:                                               ; preds = %24
  %30 = load i8*, i8** %3, align 8, !llfi_index !106
  call void @__clang_call_terminate(i8* %30) #14, !llfi_index !107
  unreachable, !llfi_index !108
}

; Function Attrs: noinline noreturn nounwind
define linkonce_odr hidden void @__clang_call_terminate(i8* %0) #5 comdat {
  %2 = call i8* @__cxa_begin_catch(i8* %0) #2, !llfi_index !109
  call void @_ZSt9terminatev() #14, !llfi_index !110
  unreachable, !llfi_index !111
}

declare dso_local i8* @__cxa_begin_catch(i8*)

declare dso_local void @_ZSt9terminatev()

; Function Attrs: mustprogress noinline uwtable
define linkonce_odr dso_local void @_ZNSt12_Vector_baseIiSaIiEE13_M_deallocateEPim(%"struct.std::_Vector_base"* nonnull align 8 dereferenceable(24) %0, i32* %1, i64 %2) #4 comdat align 2 {
  %4 = alloca %"struct.std::_Vector_base"*, align 8, !llfi_index !112
  %5 = alloca i32*, align 8, !llfi_index !113
  %6 = alloca i64, align 8, !llfi_index !114
  store %"struct.std::_Vector_base"* %0, %"struct.std::_Vector_base"** %4, align 8, !llfi_index !115
  store i32* %1, i32** %5, align 8, !llfi_index !116
  store i64 %2, i64* %6, align 8, !llfi_index !117
  %7 = load %"struct.std::_Vector_base"*, %"struct.std::_Vector_base"** %4, align 8, !llfi_index !118
  %8 = load i32*, i32** %5, align 8, !llfi_index !119
  %9 = icmp ne i32* %8, null, !llfi_index !120
  br i1 %9, label %10, label %15, !llfi_index !121

10:                                               ; preds = %3
  %11 = getelementptr inbounds %"struct.std::_Vector_base", %"struct.std::_Vector_base"* %7, i32 0, i32 0, !llfi_index !122
  %12 = bitcast %"struct.std::_Vector_base<int, std::allocator<int>>::_Vector_impl"* %11 to %"class.std::allocator"*, !llfi_index !123
  %13 = load i32*, i32** %5, align 8, !llfi_index !124
  %14 = load i64, i64* %6, align 8, !llfi_index !125
  call void @_ZNSt16allocator_traitsISaIiEE10deallocateERS0_Pim(%"class.std::allocator"* nonnull align 1 dereferenceable(1) %12, i32* %13, i64 %14), !llfi_index !126
  br label %15, !llfi_index !127

15:                                               ; preds = %10, %3
  ret void, !llfi_index !128
}

; Function Attrs: noinline nounwind uwtable
define linkonce_odr dso_local void @_ZNSt12_Vector_baseIiSaIiEE12_Vector_implD2Ev(%"struct.std::_Vector_base<int, std::allocator<int>>::_Vector_impl"* nonnull align 8 dereferenceable(24) %0) unnamed_addr #1 comdat align 2 {
  %2 = alloca %"struct.std::_Vector_base<int, std::allocator<int>>::_Vector_impl"*, align 8, !llfi_index !129
  store %"struct.std::_Vector_base<int, std::allocator<int>>::_Vector_impl"* %0, %"struct.std::_Vector_base<int, std::allocator<int>>::_Vector_impl"** %2, align 8, !llfi_index !130
  %3 = load %"struct.std::_Vector_base<int, std::allocator<int>>::_Vector_impl"*, %"struct.std::_Vector_base<int, std::allocator<int>>::_Vector_impl"** %2, align 8, !llfi_index !131
  %4 = bitcast %"struct.std::_Vector_base<int, std::allocator<int>>::_Vector_impl"* %3 to %"class.std::allocator"*, !llfi_index !132
  call void @_ZNSaIiED2Ev(%"class.std::allocator"* nonnull align 1 dereferenceable(1) %4) #2, !llfi_index !133
  ret void, !llfi_index !134
}

; Function Attrs: noinline nounwind uwtable
define linkonce_odr dso_local void @_ZNSaIiED2Ev(%"class.std::allocator"* nonnull align 1 dereferenceable(1) %0) unnamed_addr #1 comdat align 2 {
  %2 = alloca %"class.std::allocator"*, align 8, !llfi_index !135
  store %"class.std::allocator"* %0, %"class.std::allocator"** %2, align 8, !llfi_index !136
  %3 = load %"class.std::allocator"*, %"class.std::allocator"** %2, align 8, !llfi_index !137
  %4 = bitcast %"class.std::allocator"* %3 to %"class.std::allocator"*, !llfi_index !138
  call void @_ZN9__gnu_cxx13new_allocatorIiED2Ev(%"class.std::allocator"* nonnull align 1 dereferenceable(1) %4) #2, !llfi_index !139
  ret void, !llfi_index !140
}

; Function Attrs: noinline nounwind uwtable
define linkonce_odr dso_local void @_ZN9__gnu_cxx13new_allocatorIiED2Ev(%"class.std::allocator"* nonnull align 1 dereferenceable(1) %0) unnamed_addr #1 comdat align 2 {
  %2 = alloca %"class.std::allocator"*, align 8, !llfi_index !141
  store %"class.std::allocator"* %0, %"class.std::allocator"** %2, align 8, !llfi_index !142
  %3 = load %"class.std::allocator"*, %"class.std::allocator"** %2, align 8, !llfi_index !143
  ret void, !llfi_index !144
}

; Function Attrs: mustprogress noinline uwtable
define linkonce_odr dso_local void @_ZNSt16allocator_traitsISaIiEE10deallocateERS0_Pim(%"class.std::allocator"* nonnull align 1 dereferenceable(1) %0, i32* %1, i64 %2) #4 comdat align 2 {
  %4 = alloca %"class.std::allocator"*, align 8, !llfi_index !145
  %5 = alloca i32*, align 8, !llfi_index !146
  %6 = alloca i64, align 8, !llfi_index !147
  store %"class.std::allocator"* %0, %"class.std::allocator"** %4, align 8, !llfi_index !148
  store i32* %1, i32** %5, align 8, !llfi_index !149
  store i64 %2, i64* %6, align 8, !llfi_index !150
  %7 = load %"class.std::allocator"*, %"class.std::allocator"** %4, align 8, !llfi_index !151
  %8 = bitcast %"class.std::allocator"* %7 to %"class.std::allocator"*, !llfi_index !152
  %9 = load i32*, i32** %5, align 8, !llfi_index !153
  %10 = load i64, i64* %6, align 8, !llfi_index !154
  call void @_ZN9__gnu_cxx13new_allocatorIiE10deallocateEPim(%"class.std::allocator"* nonnull align 1 dereferenceable(1) %8, i32* %9, i64 %10), !llfi_index !155
  ret void, !llfi_index !156
}

; Function Attrs: mustprogress noinline nounwind uwtable
define linkonce_odr dso_local void @_ZN9__gnu_cxx13new_allocatorIiE10deallocateEPim(%"class.std::allocator"* nonnull align 1 dereferenceable(1) %0, i32* %1, i64 %2) #3 comdat align 2 {
  %4 = alloca %"class.std::allocator"*, align 8, !llfi_index !157
  %5 = alloca i32*, align 8, !llfi_index !158
  %6 = alloca i64, align 8, !llfi_index !159
  store %"class.std::allocator"* %0, %"class.std::allocator"** %4, align 8, !llfi_index !160
  store i32* %1, i32** %5, align 8, !llfi_index !161
  store i64 %2, i64* %6, align 8, !llfi_index !162
  %7 = load %"class.std::allocator"*, %"class.std::allocator"** %4, align 8, !llfi_index !163
  %8 = load i32*, i32** %5, align 8, !llfi_index !164
  %9 = bitcast i32* %8 to i8*, !llfi_index !165
  call void @_ZdlPv(i8* %9) #2, !llfi_index !166
  ret void, !llfi_index !167
}

; Function Attrs: nobuiltin nounwind
declare dso_local void @_ZdlPv(i8*) #6

; Function Attrs: mustprogress noinline uwtable
define linkonce_odr dso_local void @_ZSt8_DestroyIPiEvT_S1_(i32* %0, i32* %1) #4 comdat {
  %3 = alloca i32*, align 8, !llfi_index !168
  %4 = alloca i32*, align 8, !llfi_index !169
  store i32* %0, i32** %3, align 8, !llfi_index !170
  store i32* %1, i32** %4, align 8, !llfi_index !171
  %5 = load i32*, i32** %3, align 8, !llfi_index !172
  %6 = load i32*, i32** %4, align 8, !llfi_index !173
  call void @_ZNSt12_Destroy_auxILb1EE9__destroyIPiEEvT_S3_(i32* %5, i32* %6), !llfi_index !174
  ret void, !llfi_index !175
}

; Function Attrs: mustprogress noinline nounwind uwtable
define linkonce_odr dso_local void @_ZNSt12_Destroy_auxILb1EE9__destroyIPiEEvT_S3_(i32* %0, i32* %1) #3 comdat align 2 {
  %3 = alloca i32*, align 8, !llfi_index !176
  %4 = alloca i32*, align 8, !llfi_index !177
  store i32* %0, i32** %3, align 8, !llfi_index !178
  store i32* %1, i32** %4, align 8, !llfi_index !179
  ret void, !llfi_index !180
}

; Function Attrs: noinline nounwind uwtable
define linkonce_odr dso_local void @_ZNSt12_Vector_baseIiSaIiEEC2Ev(%"struct.std::_Vector_base"* nonnull align 8 dereferenceable(24) %0) unnamed_addr #1 comdat align 2 {
  %2 = alloca %"struct.std::_Vector_base"*, align 8, !llfi_index !181
  store %"struct.std::_Vector_base"* %0, %"struct.std::_Vector_base"** %2, align 8, !llfi_index !182
  %3 = load %"struct.std::_Vector_base"*, %"struct.std::_Vector_base"** %2, align 8, !llfi_index !183
  %4 = getelementptr inbounds %"struct.std::_Vector_base", %"struct.std::_Vector_base"* %3, i32 0, i32 0, !llfi_index !184
  call void @_ZNSt12_Vector_baseIiSaIiEE12_Vector_implC2Ev(%"struct.std::_Vector_base<int, std::allocator<int>>::_Vector_impl"* nonnull align 8 dereferenceable(24) %4) #2, !llfi_index !185
  ret void, !llfi_index !186
}

; Function Attrs: noinline nounwind uwtable
define linkonce_odr dso_local void @_ZNSt12_Vector_baseIiSaIiEE12_Vector_implC2Ev(%"struct.std::_Vector_base<int, std::allocator<int>>::_Vector_impl"* nonnull align 8 dereferenceable(24) %0) unnamed_addr #1 comdat align 2 {
  %2 = alloca %"struct.std::_Vector_base<int, std::allocator<int>>::_Vector_impl"*, align 8, !llfi_index !187
  store %"struct.std::_Vector_base<int, std::allocator<int>>::_Vector_impl"* %0, %"struct.std::_Vector_base<int, std::allocator<int>>::_Vector_impl"** %2, align 8, !llfi_index !188
  %3 = load %"struct.std::_Vector_base<int, std::allocator<int>>::_Vector_impl"*, %"struct.std::_Vector_base<int, std::allocator<int>>::_Vector_impl"** %2, align 8, !llfi_index !189
  %4 = bitcast %"struct.std::_Vector_base<int, std::allocator<int>>::_Vector_impl"* %3 to %"class.std::allocator"*, !llfi_index !190
  call void @_ZNSaIiEC2Ev(%"class.std::allocator"* nonnull align 1 dereferenceable(1) %4) #2, !llfi_index !191
  %5 = bitcast %"struct.std::_Vector_base<int, std::allocator<int>>::_Vector_impl"* %3 to %"struct.std::_Vector_base<int, std::allocator<int>>::_Vector_impl_data"*, !llfi_index !192
  call void @_ZNSt12_Vector_baseIiSaIiEE17_Vector_impl_dataC2Ev(%"struct.std::_Vector_base<int, std::allocator<int>>::_Vector_impl_data"* nonnull align 8 dereferenceable(24) %5) #2, !llfi_index !193
  ret void, !llfi_index !194
}

; Function Attrs: noinline nounwind uwtable
define linkonce_odr dso_local void @_ZNSaIiEC2Ev(%"class.std::allocator"* nonnull align 1 dereferenceable(1) %0) unnamed_addr #1 comdat align 2 {
  %2 = alloca %"class.std::allocator"*, align 8, !llfi_index !195
  store %"class.std::allocator"* %0, %"class.std::allocator"** %2, align 8, !llfi_index !196
  %3 = load %"class.std::allocator"*, %"class.std::allocator"** %2, align 8, !llfi_index !197
  %4 = bitcast %"class.std::allocator"* %3 to %"class.std::allocator"*, !llfi_index !198
  call void @_ZN9__gnu_cxx13new_allocatorIiEC2Ev(%"class.std::allocator"* nonnull align 1 dereferenceable(1) %4) #2, !llfi_index !199
  ret void, !llfi_index !200
}

; Function Attrs: noinline nounwind uwtable
define linkonce_odr dso_local void @_ZNSt12_Vector_baseIiSaIiEE17_Vector_impl_dataC2Ev(%"struct.std::_Vector_base<int, std::allocator<int>>::_Vector_impl_data"* nonnull align 8 dereferenceable(24) %0) unnamed_addr #1 comdat align 2 {
  %2 = alloca %"struct.std::_Vector_base<int, std::allocator<int>>::_Vector_impl_data"*, align 8, !llfi_index !201
  store %"struct.std::_Vector_base<int, std::allocator<int>>::_Vector_impl_data"* %0, %"struct.std::_Vector_base<int, std::allocator<int>>::_Vector_impl_data"** %2, align 8, !llfi_index !202
  %3 = load %"struct.std::_Vector_base<int, std::allocator<int>>::_Vector_impl_data"*, %"struct.std::_Vector_base<int, std::allocator<int>>::_Vector_impl_data"** %2, align 8, !llfi_index !203
  %4 = getelementptr inbounds %"struct.std::_Vector_base<int, std::allocator<int>>::_Vector_impl_data", %"struct.std::_Vector_base<int, std::allocator<int>>::_Vector_impl_data"* %3, i32 0, i32 0, !llfi_index !204
  store i32* null, i32** %4, align 8, !llfi_index !205
  %5 = getelementptr inbounds %"struct.std::_Vector_base<int, std::allocator<int>>::_Vector_impl_data", %"struct.std::_Vector_base<int, std::allocator<int>>::_Vector_impl_data"* %3, i32 0, i32 1, !llfi_index !206
  store i32* null, i32** %5, align 8, !llfi_index !207
  %6 = getelementptr inbounds %"struct.std::_Vector_base<int, std::allocator<int>>::_Vector_impl_data", %"struct.std::_Vector_base<int, std::allocator<int>>::_Vector_impl_data"* %3, i32 0, i32 2, !llfi_index !208
  store i32* null, i32** %6, align 8, !llfi_index !209
  ret void, !llfi_index !210
}

; Function Attrs: noinline nounwind uwtable
define linkonce_odr dso_local void @_ZN9__gnu_cxx13new_allocatorIiEC2Ev(%"class.std::allocator"* nonnull align 1 dereferenceable(1) %0) unnamed_addr #1 comdat align 2 {
  %2 = alloca %"class.std::allocator"*, align 8, !llfi_index !211
  store %"class.std::allocator"* %0, %"class.std::allocator"** %2, align 8, !llfi_index !212
  %3 = load %"class.std::allocator"*, %"class.std::allocator"** %2, align 8, !llfi_index !213
  ret void, !llfi_index !214
}

; Function Attrs: noinline uwtable
define internal void @__dtor_wx() #0 section ".text.startup" {
  call void @_ZNSt6vectorIiSaIiEED2Ev(%"class.std::vector"* @wx), !llfi_index !215
  ret void, !llfi_index !216
}

declare dso_local void @_ZNSt8ios_base4InitC1Ev(%"class.std::allocator"* nonnull align 1 dereferenceable(1)) unnamed_addr #7

; Function Attrs: noinline uwtable
define internal void @__dtor__ZStL8__ioinit() #0 section ".text.startup" {
  call void @_ZNSt8ios_base4InitD1Ev(%"class.std::allocator"* @_ZStL8__ioinit), !llfi_index !217
  ret void, !llfi_index !218
}

; Function Attrs: nounwind
declare dso_local void @_ZNSt8ios_base4InitD1Ev(%"class.std::allocator"* nonnull align 1 dereferenceable(1)) unnamed_addr #8

; Function Attrs: mustprogress noinline norecurse uwtable
define dso_local i32 @main() #9 personality i8* bitcast (i32 (...)* @__gxx_personality_v0 to i8*) {
  %1 = alloca i32, align 4, !llfi_index !219
  %2 = alloca i32, align 4, !llfi_index !220
  %3 = alloca i32, align 4, !llfi_index !221
  %4 = alloca i32, align 4, !llfi_index !222
  %5 = alloca i32, align 4, !llfi_index !223
  %6 = alloca i32, align 4, !llfi_index !224
  %7 = alloca %"class.std::__cxx11::basic_string", align 8, !llfi_index !225
  %8 = alloca i8*, align 8, !llfi_index !226
  %9 = alloca i32, align 4, !llfi_index !227
  %10 = alloca i32, align 4, !llfi_index !228
  %11 = alloca %"class.__gnu_cxx::__normal_iterator", align 8, !llfi_index !229
  %12 = alloca %"class.__gnu_cxx::__normal_iterator", align 8, !llfi_index !230
  %13 = alloca %"class.__gnu_cxx::__normal_iterator", align 8, !llfi_index !231
  %14 = alloca %"class.__gnu_cxx::__normal_iterator", align 8, !llfi_index !232
  %15 = alloca i32, align 4, !llfi_index !233
  store i32 0, i32* %1, align 4, !llfi_index !234
  %16 = load %struct._IO_FILE*, %struct._IO_FILE** @stdin, align 8, !llfi_index !235
  %17 = call %struct._IO_FILE* @freopen(i8* getelementptr inbounds ([28 x i8], [28 x i8]* @.str, i64 0, i64 0), i8* getelementptr inbounds ([2 x i8], [2 x i8]* @.str.3, i64 0, i64 0), %struct._IO_FILE* %16), !llfi_index !236
  store i32 0, i32* %5, align 4, !llfi_index !237
  call void @_ZNSt7__cxx1112basic_stringIcSt11char_traitsIcESaIcEEC1Ev(%"class.std::__cxx11::basic_string"* nonnull align 8 dereferenceable(32) %7) #2, !llfi_index !238
  %18 = invoke i32 (i8*, ...) @__isoc99_scanf(i8* getelementptr inbounds ([3 x i8], [3 x i8]* @.str.4, i64 0, i64 0), i32* %2)
          to label %19 unwind label %46, !llfi_index !239

19:                                               ; preds = %0
  %20 = invoke nonnull align 8 dereferenceable(16) %"class.std::basic_istream"* @_ZStrsIcSt11char_traitsIcESaIcEERSt13basic_istreamIT_T0_ES7_RNSt7__cxx1112basic_stringIS4_S5_T1_EE(%"class.std::basic_istream"* nonnull align 8 dereferenceable(16) @_ZSt3cin, %"class.std::__cxx11::basic_string"* nonnull align 8 dereferenceable(32) %7)
          to label %21 unwind label %46, !llfi_index !240

21:                                               ; preds = %19
  store i32 89, i32* %10, align 4, !llfi_index !241
  store i32 0, i32* %3, align 4, !llfi_index !242
  br label %22, !llfi_index !243

22:                                               ; preds = %53, %21
  %23 = load i32, i32* %3, align 4, !llfi_index !244
  %24 = load i32, i32* %2, align 4, !llfi_index !245
  %25 = icmp slt i32 %23, %24, !llfi_index !246
  br i1 %25, label %26, label %56, !llfi_index !247

26:                                               ; preds = %22
  %27 = invoke i32 (i8*, ...) @__isoc99_scanf(i8* getelementptr inbounds ([3 x i8], [3 x i8]* @.str.4, i64 0, i64 0), i32* %4)
          to label %28 unwind label %46, !llfi_index !248

28:                                               ; preds = %26
  %29 = load i32, i32* %3, align 4, !llfi_index !249
  %30 = sext i32 %29 to i64, !llfi_index !250
  %31 = invoke nonnull align 1 dereferenceable(1) i8* @_ZNSt7__cxx1112basic_stringIcSt11char_traitsIcESaIcEEixEm(%"class.std::__cxx11::basic_string"* nonnull align 8 dereferenceable(32) %7, i64 %30)
          to label %32 unwind label %46, !llfi_index !251

32:                                               ; preds = %28
  %33 = load i8, i8* %31, align 1, !llfi_index !252
  %34 = sext i8 %33 to i32, !llfi_index !253
  %35 = icmp eq i32 %34, 82, !llfi_index !254
  br i1 %35, label %44, label %36, !llfi_index !255

36:                                               ; preds = %32
  %37 = load i32, i32* %3, align 4, !llfi_index !256
  %38 = sext i32 %37 to i64, !llfi_index !257
  %39 = invoke nonnull align 1 dereferenceable(1) i8* @_ZNSt7__cxx1112basic_stringIcSt11char_traitsIcESaIcEEixEm(%"class.std::__cxx11::basic_string"* nonnull align 8 dereferenceable(32) %7, i64 %38)
          to label %40 unwind label %46, !llfi_index !258

40:                                               ; preds = %36
  %41 = load i8, i8* %39, align 1, !llfi_index !259
  %42 = sext i8 %41 to i32, !llfi_index !260
  %43 = icmp eq i32 %42, 66, !llfi_index !261
  br i1 %43, label %44, label %50, !llfi_index !262

44:                                               ; preds = %40, %32
  invoke void @_ZNSt6vectorIiSaIiEE9push_backERKi(%"class.std::vector"* nonnull align 8 dereferenceable(24) @wx, i32* nonnull align 4 dereferenceable(4) %4)
          to label %45 unwind label %46, !llfi_index !263

45:                                               ; preds = %44
  br label %52, !llfi_index !264

46:                                               ; preds = %209, %88, %86, %69, %56, %50, %44, %36, %28, %26, %19, %0
  %47 = landingpad { i8*, i32 }
          cleanup, !llfi_index !265
  %48 = extractvalue { i8*, i32 } %47, 0, !llfi_index !266
  store i8* %48, i8** %8, align 8, !llfi_index !267
  %49 = extractvalue { i8*, i32 } %47, 1, !llfi_index !268
  store i32 %49, i32* %9, align 4, !llfi_index !269
  call void @_ZNSt7__cxx1112basic_stringIcSt11char_traitsIcESaIcEED1Ev(%"class.std::__cxx11::basic_string"* nonnull align 8 dereferenceable(32) %7) #2, !llfi_index !270
  br label %215, !llfi_index !271

50:                                               ; preds = %40
  invoke void @_ZNSt6vectorIiSaIiEE9push_backERKi(%"class.std::vector"* nonnull align 8 dereferenceable(24) @wy, i32* nonnull align 4 dereferenceable(4) %4)
          to label %51 unwind label %46, !llfi_index !272

51:                                               ; preds = %50
  br label %52, !llfi_index !273

52:                                               ; preds = %51, %45
  br label %53, !llfi_index !274

53:                                               ; preds = %52
  %54 = load i32, i32* %3, align 4, !llfi_index !275
  %55 = add nsw i32 %54, 1, !llfi_index !276
  store i32 %55, i32* %3, align 4, !llfi_index !277
  br label %22, !llvm.loop !278, !llfi_index !280

56:                                               ; preds = %22
  %57 = call i64 @_ZNKSt6vectorIiSaIiEE4sizeEv(%"class.std::vector"* nonnull align 8 dereferenceable(24) @wx) #2, !llfi_index !281
  %58 = trunc i64 %57 to i32, !llfi_index !282
  store i32 %58, i32* %2, align 4, !llfi_index !283
  %59 = call i64 @_ZNKSt6vectorIiSaIiEE4sizeEv(%"class.std::vector"* nonnull align 8 dereferenceable(24) @wy) #2, !llfi_index !284
  %60 = trunc i64 %59 to i32, !llfi_index !285
  store i32 %60, i32* %6, align 4, !llfi_index !286
  %61 = call i32* @_ZNSt6vectorIiSaIiEE5beginEv(%"class.std::vector"* nonnull align 8 dereferenceable(24) @wx) #2, !llfi_index !287
  %62 = getelementptr inbounds %"class.__gnu_cxx::__normal_iterator", %"class.__gnu_cxx::__normal_iterator"* %11, i32 0, i32 0, !llfi_index !288
  store i32* %61, i32** %62, align 8, !llfi_index !289
  %63 = call i32* @_ZNSt6vectorIiSaIiEE3endEv(%"class.std::vector"* nonnull align 8 dereferenceable(24) @wx) #2, !llfi_index !290
  %64 = getelementptr inbounds %"class.__gnu_cxx::__normal_iterator", %"class.__gnu_cxx::__normal_iterator"* %12, i32 0, i32 0, !llfi_index !291
  store i32* %63, i32** %64, align 8, !llfi_index !292
  %65 = getelementptr inbounds %"class.__gnu_cxx::__normal_iterator", %"class.__gnu_cxx::__normal_iterator"* %11, i32 0, i32 0, !llfi_index !293
  %66 = load i32*, i32** %65, align 8, !llfi_index !294
  %67 = getelementptr inbounds %"class.__gnu_cxx::__normal_iterator", %"class.__gnu_cxx::__normal_iterator"* %12, i32 0, i32 0, !llfi_index !295
  %68 = load i32*, i32** %67, align 8, !llfi_index !296
  invoke void @_ZSt4sortIN9__gnu_cxx17__normal_iteratorIPiSt6vectorIiSaIiEEEEEvT_S7_(i32* %66, i32* %68)
          to label %69 unwind label %46, !llfi_index !297

69:                                               ; preds = %56
  %70 = call i32* @_ZNSt6vectorIiSaIiEE5beginEv(%"class.std::vector"* nonnull align 8 dereferenceable(24) @wy) #2, !llfi_index !298
  %71 = getelementptr inbounds %"class.__gnu_cxx::__normal_iterator", %"class.__gnu_cxx::__normal_iterator"* %13, i32 0, i32 0, !llfi_index !299
  store i32* %70, i32** %71, align 8, !llfi_index !300
  %72 = call i32* @_ZNSt6vectorIiSaIiEE3endEv(%"class.std::vector"* nonnull align 8 dereferenceable(24) @wy) #2, !llfi_index !301
  %73 = getelementptr inbounds %"class.__gnu_cxx::__normal_iterator", %"class.__gnu_cxx::__normal_iterator"* %14, i32 0, i32 0, !llfi_index !302
  store i32* %72, i32** %73, align 8, !llfi_index !303
  %74 = getelementptr inbounds %"class.__gnu_cxx::__normal_iterator", %"class.__gnu_cxx::__normal_iterator"* %13, i32 0, i32 0, !llfi_index !304
  %75 = load i32*, i32** %74, align 8, !llfi_index !305
  %76 = getelementptr inbounds %"class.__gnu_cxx::__normal_iterator", %"class.__gnu_cxx::__normal_iterator"* %14, i32 0, i32 0, !llfi_index !306
  %77 = load i32*, i32** %76, align 8, !llfi_index !307
  invoke void @_ZSt4sortIN9__gnu_cxx17__normal_iteratorIPiSt6vectorIiSaIiEEEEEvT_S7_(i32* %75, i32* %77)
          to label %78 unwind label %46, !llfi_index !308

78:                                               ; preds = %69
  %79 = load i32, i32* %2, align 4, !llfi_index !309
  %80 = load i32, i32* %6, align 4, !llfi_index !310
  %81 = icmp slt i32 %79, %80, !llfi_index !311
  br i1 %81, label %82, label %83, !llfi_index !312

82:                                               ; preds = %78
  call void @_ZSt4swapIiSaIiEEvRSt6vectorIT_T0_ES5_(%"class.std::vector"* nonnull align 8 dereferenceable(24) @wx, %"class.std::vector"* nonnull align 8 dereferenceable(24) @wy) #2, !llfi_index !313
  call void @_ZSt4swapIiENSt9enable_ifIXsr6__and_ISt6__not_ISt15__is_tuple_likeIT_EESt21is_move_constructibleIS3_ESt18is_move_assignableIS3_EEE5valueEvE4typeERS3_SC_(i32* nonnull align 4 dereferenceable(4) %2, i32* nonnull align 4 dereferenceable(4) %6) #2, !llfi_index !314
  br label %83, !llfi_index !315

83:                                               ; preds = %82, %78
  %84 = load i32, i32* %6, align 4, !llfi_index !316
  %85 = icmp eq i32 %84, 0, !llfi_index !317
  br i1 %85, label %86, label %91, !llfi_index !318

86:                                               ; preds = %83
  %87 = invoke nonnull align 8 dereferenceable(8) %"class.std::basic_ostream"* @_ZNSolsEi(%"class.std::basic_ostream"* nonnull align 8 dereferenceable(8) @_ZSt4cout, i32 1)
          to label %88 unwind label %46, !llfi_index !319

88:                                               ; preds = %86
  %89 = invoke nonnull align 8 dereferenceable(8) %"class.std::basic_ostream"* @_ZNSolsEPFRSoS_E(%"class.std::basic_ostream"* nonnull align 8 dereferenceable(8) %87, %"class.std::basic_ostream"* (%"class.std::basic_ostream"*)* @_ZSt4endlIcSt11char_traitsIcEERSt13basic_ostreamIT_T0_ES6_)
          to label %90 unwind label %46, !llfi_index !320

90:                                               ; preds = %88
  store i32 0, i32* %1, align 4, !llfi_index !321
  store i32 1, i32* %15, align 4, !llfi_index !322
  br label %213, !llfi_index !323

91:                                               ; preds = %83
  %92 = load i32, i32* %6, align 4, !llfi_index !324
  store i32 %92, i32* %5, align 4, !llfi_index !325
  store i32 0, i32* %4, align 4, !llfi_index !326
  %93 = load i32, i32* %2, align 4, !llfi_index !327
  %94 = load i32, i32* %6, align 4, !llfi_index !328
  %95 = icmp sgt i32 %93, %94, !llfi_index !329
  br i1 %95, label %96, label %123, !llfi_index !330

96:                                               ; preds = %91
  %97 = call nonnull align 4 dereferenceable(4) i32* @_ZNSt6vectorIiSaIiEEixEm(%"class.std::vector"* nonnull align 8 dereferenceable(24) @wx, i64 0) #2, !llfi_index !331
  %98 = load i32, i32* %97, align 4, !llfi_index !332
  %99 = call nonnull align 4 dereferenceable(4) i32* @_ZNSt6vectorIiSaIiEEixEm(%"class.std::vector"* nonnull align 8 dereferenceable(24) @wy, i64 0) #2, !llfi_index !333
  %100 = load i32, i32* %99, align 4, !llfi_index !334
  %101 = icmp slt i32 %98, %100, !llfi_index !335
  br i1 %101, label %102, label %107, !llfi_index !336

102:                                              ; preds = %96
  %103 = load i32, i32* %5, align 4, !llfi_index !337
  %104 = add nsw i32 %103, 1, !llfi_index !338
  store i32 %104, i32* %5, align 4, !llfi_index !339
  %105 = load i32, i32* %4, align 4, !llfi_index !340
  %106 = add nsw i32 %105, 1, !llfi_index !341
  store i32 %106, i32* %4, align 4, !llfi_index !342
  br label %107, !llfi_index !343

107:                                              ; preds = %102, %96
  %108 = load i32, i32* %2, align 4, !llfi_index !344
  %109 = sub nsw i32 %108, 1, !llfi_index !345
  %110 = sext i32 %109 to i64, !llfi_index !346
  %111 = call nonnull align 4 dereferenceable(4) i32* @_ZNSt6vectorIiSaIiEEixEm(%"class.std::vector"* nonnull align 8 dereferenceable(24) @wx, i64 %110) #2, !llfi_index !347
  %112 = load i32, i32* %111, align 4, !llfi_index !348
  %113 = load i32, i32* %6, align 4, !llfi_index !349
  %114 = sub nsw i32 %113, 1, !llfi_index !350
  %115 = sext i32 %114 to i64, !llfi_index !351
  %116 = call nonnull align 4 dereferenceable(4) i32* @_ZNSt6vectorIiSaIiEEixEm(%"class.std::vector"* nonnull align 8 dereferenceable(24) @wy, i64 %115) #2, !llfi_index !352
  %117 = load i32, i32* %116, align 4, !llfi_index !353
  %118 = icmp sgt i32 %112, %117, !llfi_index !354
  br i1 %118, label %119, label %122, !llfi_index !355

119:                                              ; preds = %107
  %120 = load i32, i32* %5, align 4, !llfi_index !356
  %121 = add nsw i32 %120, 1, !llfi_index !357
  store i32 %121, i32* %5, align 4, !llfi_index !358
  br label %122, !llfi_index !359

122:                                              ; preds = %119, %107
  br label %151, !llfi_index !360

123:                                              ; preds = %91
  %124 = call nonnull align 4 dereferenceable(4) i32* @_ZNSt6vectorIiSaIiEEixEm(%"class.std::vector"* nonnull align 8 dereferenceable(24) @wx, i64 0) #2, !llfi_index !361
  %125 = load i32, i32* %124, align 4, !llfi_index !362
  %126 = call nonnull align 4 dereferenceable(4) i32* @_ZNSt6vectorIiSaIiEEixEm(%"class.std::vector"* nonnull align 8 dereferenceable(24) @wy, i64 0) #2, !llfi_index !363
  %127 = load i32, i32* %126, align 4, !llfi_index !364
  %128 = icmp slt i32 %125, %127, !llfi_index !365
  br i1 %128, label %129, label %134, !llfi_index !366

129:                                              ; preds = %123
  %130 = load i32, i32* %5, align 4, !llfi_index !367
  %131 = add nsw i32 %130, 1, !llfi_index !368
  store i32 %131, i32* %5, align 4, !llfi_index !369
  %132 = load i32, i32* %4, align 4, !llfi_index !370
  %133 = add nsw i32 %132, 1, !llfi_index !371
  store i32 %133, i32* %4, align 4, !llfi_index !372
  br label %150, !llfi_index !373

134:                                              ; preds = %123
  %135 = load i32, i32* %2, align 4, !llfi_index !374
  %136 = sub nsw i32 %135, 1, !llfi_index !375
  %137 = sext i32 %136 to i64, !llfi_index !376
  %138 = call nonnull align 4 dereferenceable(4) i32* @_ZNSt6vectorIiSaIiEEixEm(%"class.std::vector"* nonnull align 8 dereferenceable(24) @wx, i64 %137) #2, !llfi_index !377
  %139 = load i32, i32* %138, align 4, !llfi_index !378
  %140 = load i32, i32* %6, align 4, !llfi_index !379
  %141 = sub nsw i32 %140, 1, !llfi_index !380
  %142 = sext i32 %141 to i64, !llfi_index !381
  %143 = call nonnull align 4 dereferenceable(4) i32* @_ZNSt6vectorIiSaIiEEixEm(%"class.std::vector"* nonnull align 8 dereferenceable(24) @wy, i64 %142) #2, !llfi_index !382
  %144 = load i32, i32* %143, align 4, !llfi_index !383
  %145 = icmp sgt i32 %139, %144, !llfi_index !384
  br i1 %145, label %146, label %149, !llfi_index !385

146:                                              ; preds = %134
  %147 = load i32, i32* %5, align 4, !llfi_index !386
  %148 = add nsw i32 %147, 1, !llfi_index !387
  store i32 %148, i32* %5, align 4, !llfi_index !388
  br label %149, !llfi_index !389

149:                                              ; preds = %146, %134
  br label %150, !llfi_index !390

150:                                              ; preds = %149, %129
  br label %151, !llfi_index !391

151:                                              ; preds = %150, %122
  store i32 89, i32* %10, align 4, !llfi_index !392
  store i32 0, i32* %3, align 4, !llfi_index !393
  br label %152, !llfi_index !394

152:                                              ; preds = %206, %151
  %153 = load i32, i32* %3, align 4, !llfi_index !395
  %154 = load i32, i32* %6, align 4, !llfi_index !396
  %155 = sub nsw i32 %154, 1, !llfi_index !397
  %156 = icmp slt i32 %153, %155, !llfi_index !398
  br i1 %156, label %157, label %209, !llfi_index !399

157:                                              ; preds = %152
  br label %158, !llfi_index !400

158:                                              ; preds = %174, %157
  %159 = load i32, i32* %4, align 4, !llfi_index !401
  %160 = load i32, i32* %2, align 4, !llfi_index !402
  %161 = icmp slt i32 %159, %160, !llfi_index !403
  br i1 %161, label %162, label %172, !llfi_index !404

162:                                              ; preds = %158
  %163 = load i32, i32* %4, align 4, !llfi_index !405
  %164 = sext i32 %163 to i64, !llfi_index !406
  %165 = call nonnull align 4 dereferenceable(4) i32* @_ZNSt6vectorIiSaIiEEixEm(%"class.std::vector"* nonnull align 8 dereferenceable(24) @wx, i64 %164) #2, !llfi_index !407
  %166 = load i32, i32* %165, align 4, !llfi_index !408
  %167 = load i32, i32* %3, align 4, !llfi_index !409
  %168 = sext i32 %167 to i64, !llfi_index !410
  %169 = call nonnull align 4 dereferenceable(4) i32* @_ZNSt6vectorIiSaIiEEixEm(%"class.std::vector"* nonnull align 8 dereferenceable(24) @wy, i64 %168) #2, !llfi_index !411
  %170 = load i32, i32* %169, align 4, !llfi_index !412
  %171 = icmp slt i32 %166, %170, !llfi_index !413
  br label %172, !llfi_index !414

172:                                              ; preds = %162, %158
  %173 = phi i1 [ false, %158 ], [ %171, %162 ], !llfi_index !415
  br i1 %173, label %174, label %177, !llfi_index !416

174:                                              ; preds = %172
  %175 = load i32, i32* %4, align 4, !llfi_index !417
  %176 = add nsw i32 %175, 1, !llfi_index !418
  store i32 %176, i32* %4, align 4, !llfi_index !419
  br label %158, !llvm.loop !420, !llfi_index !421

177:                                              ; preds = %172
  %178 = load i32, i32* %4, align 4, !llfi_index !422
  %179 = load i32, i32* %2, align 4, !llfi_index !423
  %180 = icmp slt i32 %178, %179, !llfi_index !424
  br i1 %180, label %181, label %205, !llfi_index !425

181:                                              ; preds = %177
  %182 = load i32, i32* %4, align 4, !llfi_index !426
  %183 = sext i32 %182 to i64, !llfi_index !427
  %184 = call nonnull align 4 dereferenceable(4) i32* @_ZNSt6vectorIiSaIiEEixEm(%"class.std::vector"* nonnull align 8 dereferenceable(24) @wx, i64 %183) #2, !llfi_index !428
  %185 = load i32, i32* %184, align 4, !llfi_index !429
  %186 = load i32, i32* %3, align 4, !llfi_index !430
  %187 = sext i32 %186 to i64, !llfi_index !431
  %188 = call nonnull align 4 dereferenceable(4) i32* @_ZNSt6vectorIiSaIiEEixEm(%"class.std::vector"* nonnull align 8 dereferenceable(24) @wy, i64 %187) #2, !llfi_index !432
  %189 = load i32, i32* %188, align 4, !llfi_index !433
  %190 = icmp sgt i32 %185, %189, !llfi_index !434
  br i1 %190, label %191, label %205, !llfi_index !435

191:                                              ; preds = %181
  %192 = load i32, i32* %4, align 4, !llfi_index !436
  %193 = sext i32 %192 to i64, !llfi_index !437
  %194 = call nonnull align 4 dereferenceable(4) i32* @_ZNSt6vectorIiSaIiEEixEm(%"class.std::vector"* nonnull align 8 dereferenceable(24) @wx, i64 %193) #2, !llfi_index !438
  %195 = load i32, i32* %194, align 4, !llfi_index !439
  %196 = load i32, i32* %3, align 4, !llfi_index !440
  %197 = add nsw i32 %196, 1, !llfi_index !441
  %198 = sext i32 %197 to i64, !llfi_index !442
  %199 = call nonnull align 4 dereferenceable(4) i32* @_ZNSt6vectorIiSaIiEEixEm(%"class.std::vector"* nonnull align 8 dereferenceable(24) @wy, i64 %198) #2, !llfi_index !443
  %200 = load i32, i32* %199, align 4, !llfi_index !444
  %201 = icmp slt i32 %195, %200, !llfi_index !445
  br i1 %201, label %202, label %205, !llfi_index !446

202:                                              ; preds = %191
  %203 = load i32, i32* %5, align 4, !llfi_index !447
  %204 = add nsw i32 %203, 1, !llfi_index !448
  store i32 %204, i32* %5, align 4, !llfi_index !449
  br label %205, !llfi_index !450

205:                                              ; preds = %202, %191, %181, %177
  br label %206, !llfi_index !451

206:                                              ; preds = %205
  %207 = load i32, i32* %3, align 4, !llfi_index !452
  %208 = add nsw i32 %207, 1, !llfi_index !453
  store i32 %208, i32* %3, align 4, !llfi_index !454
  br label %152, !llvm.loop !455, !llfi_index !456

209:                                              ; preds = %152
  %210 = load i32, i32* %5, align 4, !llfi_index !457
  %211 = invoke i32 (i8*, ...) @printf(i8* getelementptr inbounds ([4 x i8], [4 x i8]* @.str.5, i64 0, i64 0), i32 %210)
          to label %212 unwind label %46, !llfi_index !458

212:                                              ; preds = %209
  store i32 0, i32* %1, align 4, !llfi_index !459
  store i32 1, i32* %15, align 4, !llfi_index !460
  br label %213, !llfi_index !461

213:                                              ; preds = %212, %90
  call void @_ZNSt7__cxx1112basic_stringIcSt11char_traitsIcESaIcEED1Ev(%"class.std::__cxx11::basic_string"* nonnull align 8 dereferenceable(32) %7) #2, !llfi_index !462
  %214 = load i32, i32* %1, align 4, !llfi_index !463
  ret i32 %214, !llfi_index !464

215:                                              ; preds = %46
  %216 = load i8*, i8** %8, align 8, !llfi_index !465
  %217 = load i32, i32* %9, align 4, !llfi_index !466
  %218 = insertvalue { i8*, i32 } undef, i8* %216, 0, !llfi_index !467
  %219 = insertvalue { i8*, i32 } %218, i32 %217, 1, !llfi_index !468
  resume { i8*, i32 } %219, !llfi_index !469
}

declare dso_local %struct._IO_FILE* @freopen(i8*, i8*, %struct._IO_FILE*) #7

; Function Attrs: nounwind
declare dso_local void @_ZNSt7__cxx1112basic_stringIcSt11char_traitsIcESaIcEEC1Ev(%"class.std::__cxx11::basic_string"* nonnull align 8 dereferenceable(32)) unnamed_addr #8

declare dso_local i32 @__isoc99_scanf(i8*, ...) #7

declare dso_local nonnull align 8 dereferenceable(16) %"class.std::basic_istream"* @_ZStrsIcSt11char_traitsIcESaIcEERSt13basic_istreamIT_T0_ES7_RNSt7__cxx1112basic_stringIS4_S5_T1_EE(%"class.std::basic_istream"* nonnull align 8 dereferenceable(16), %"class.std::__cxx11::basic_string"* nonnull align 8 dereferenceable(32)) #7

declare dso_local nonnull align 1 dereferenceable(1) i8* @_ZNSt7__cxx1112basic_stringIcSt11char_traitsIcESaIcEEixEm(%"class.std::__cxx11::basic_string"* nonnull align 8 dereferenceable(32), i64) #7

; Function Attrs: mustprogress noinline uwtable
define linkonce_odr dso_local void @_ZNSt6vectorIiSaIiEE9push_backERKi(%"class.std::vector"* nonnull align 8 dereferenceable(24) %0, i32* nonnull align 4 dereferenceable(4) %1) #4 comdat align 2 {
  %3 = alloca %"class.std::vector"*, align 8, !llfi_index !470
  %4 = alloca i32*, align 8, !llfi_index !471
  %5 = alloca %"class.__gnu_cxx::__normal_iterator", align 8, !llfi_index !472
  store %"class.std::vector"* %0, %"class.std::vector"** %3, align 8, !llfi_index !473
  store i32* %1, i32** %4, align 8, !llfi_index !474
  %6 = load %"class.std::vector"*, %"class.std::vector"** %3, align 8, !llfi_index !475
  %7 = bitcast %"class.std::vector"* %6 to %"struct.std::_Vector_base"*, !llfi_index !476
  %8 = getelementptr inbounds %"struct.std::_Vector_base", %"struct.std::_Vector_base"* %7, i32 0, i32 0, !llfi_index !477
  %9 = bitcast %"struct.std::_Vector_base<int, std::allocator<int>>::_Vector_impl"* %8 to %"struct.std::_Vector_base<int, std::allocator<int>>::_Vector_impl_data"*, !llfi_index !478
  %10 = getelementptr inbounds %"struct.std::_Vector_base<int, std::allocator<int>>::_Vector_impl_data", %"struct.std::_Vector_base<int, std::allocator<int>>::_Vector_impl_data"* %9, i32 0, i32 1, !llfi_index !479
  %11 = load i32*, i32** %10, align 8, !llfi_index !480
  %12 = bitcast %"class.std::vector"* %6 to %"struct.std::_Vector_base"*, !llfi_index !481
  %13 = getelementptr inbounds %"struct.std::_Vector_base", %"struct.std::_Vector_base"* %12, i32 0, i32 0, !llfi_index !482
  %14 = bitcast %"struct.std::_Vector_base<int, std::allocator<int>>::_Vector_impl"* %13 to %"struct.std::_Vector_base<int, std::allocator<int>>::_Vector_impl_data"*, !llfi_index !483
  %15 = getelementptr inbounds %"struct.std::_Vector_base<int, std::allocator<int>>::_Vector_impl_data", %"struct.std::_Vector_base<int, std::allocator<int>>::_Vector_impl_data"* %14, i32 0, i32 2, !llfi_index !484
  %16 = load i32*, i32** %15, align 8, !llfi_index !485
  %17 = icmp ne i32* %11, %16, !llfi_index !486
  br i1 %17, label %18, label %34, !llfi_index !487

18:                                               ; preds = %2
  %19 = bitcast %"class.std::vector"* %6 to %"struct.std::_Vector_base"*, !llfi_index !488
  %20 = getelementptr inbounds %"struct.std::_Vector_base", %"struct.std::_Vector_base"* %19, i32 0, i32 0, !llfi_index !489
  %21 = bitcast %"struct.std::_Vector_base<int, std::allocator<int>>::_Vector_impl"* %20 to %"class.std::allocator"*, !llfi_index !490
  %22 = bitcast %"class.std::vector"* %6 to %"struct.std::_Vector_base"*, !llfi_index !491
  %23 = getelementptr inbounds %"struct.std::_Vector_base", %"struct.std::_Vector_base"* %22, i32 0, i32 0, !llfi_index !492
  %24 = bitcast %"struct.std::_Vector_base<int, std::allocator<int>>::_Vector_impl"* %23 to %"struct.std::_Vector_base<int, std::allocator<int>>::_Vector_impl_data"*, !llfi_index !493
  %25 = getelementptr inbounds %"struct.std::_Vector_base<int, std::allocator<int>>::_Vector_impl_data", %"struct.std::_Vector_base<int, std::allocator<int>>::_Vector_impl_data"* %24, i32 0, i32 1, !llfi_index !494
  %26 = load i32*, i32** %25, align 8, !llfi_index !495
  %27 = load i32*, i32** %4, align 8, !llfi_index !496
  call void @_ZNSt16allocator_traitsISaIiEE9constructIiJRKiEEEvRS0_PT_DpOT0_(%"class.std::allocator"* nonnull align 1 dereferenceable(1) %21, i32* %26, i32* nonnull align 4 dereferenceable(4) %27) #2, !llfi_index !497
  %28 = bitcast %"class.std::vector"* %6 to %"struct.std::_Vector_base"*, !llfi_index !498
  %29 = getelementptr inbounds %"struct.std::_Vector_base", %"struct.std::_Vector_base"* %28, i32 0, i32 0, !llfi_index !499
  %30 = bitcast %"struct.std::_Vector_base<int, std::allocator<int>>::_Vector_impl"* %29 to %"struct.std::_Vector_base<int, std::allocator<int>>::_Vector_impl_data"*, !llfi_index !500
  %31 = getelementptr inbounds %"struct.std::_Vector_base<int, std::allocator<int>>::_Vector_impl_data", %"struct.std::_Vector_base<int, std::allocator<int>>::_Vector_impl_data"* %30, i32 0, i32 1, !llfi_index !501
  %32 = load i32*, i32** %31, align 8, !llfi_index !502
  %33 = getelementptr inbounds i32, i32* %32, i32 1, !llfi_index !503
  store i32* %33, i32** %31, align 8, !llfi_index !504
  br label %40, !llfi_index !505

34:                                               ; preds = %2
  %35 = call i32* @_ZNSt6vectorIiSaIiEE3endEv(%"class.std::vector"* nonnull align 8 dereferenceable(24) %6) #2, !llfi_index !506
  %36 = getelementptr inbounds %"class.__gnu_cxx::__normal_iterator", %"class.__gnu_cxx::__normal_iterator"* %5, i32 0, i32 0, !llfi_index !507
  store i32* %35, i32** %36, align 8, !llfi_index !508
  %37 = load i32*, i32** %4, align 8, !llfi_index !509
  %38 = getelementptr inbounds %"class.__gnu_cxx::__normal_iterator", %"class.__gnu_cxx::__normal_iterator"* %5, i32 0, i32 0, !llfi_index !510
  %39 = load i32*, i32** %38, align 8, !llfi_index !511
  call void @_ZNSt6vectorIiSaIiEE17_M_realloc_insertIJRKiEEEvN9__gnu_cxx17__normal_iteratorIPiS1_EEDpOT_(%"class.std::vector"* nonnull align 8 dereferenceable(24) %6, i32* %39, i32* nonnull align 4 dereferenceable(4) %37), !llfi_index !512
  br label %40, !llfi_index !513

40:                                               ; preds = %34, %18
  ret void, !llfi_index !514
}

; Function Attrs: nounwind
declare dso_local void @_ZNSt7__cxx1112basic_stringIcSt11char_traitsIcESaIcEED1Ev(%"class.std::__cxx11::basic_string"* nonnull align 8 dereferenceable(32)) unnamed_addr #8

; Function Attrs: mustprogress noinline nounwind uwtable
define linkonce_odr dso_local i64 @_ZNKSt6vectorIiSaIiEE4sizeEv(%"class.std::vector"* nonnull align 8 dereferenceable(24) %0) #3 comdat align 2 {
  %2 = alloca %"class.std::vector"*, align 8, !llfi_index !515
  store %"class.std::vector"* %0, %"class.std::vector"** %2, align 8, !llfi_index !516
  %3 = load %"class.std::vector"*, %"class.std::vector"** %2, align 8, !llfi_index !517
  %4 = bitcast %"class.std::vector"* %3 to %"struct.std::_Vector_base"*, !llfi_index !518
  %5 = getelementptr inbounds %"struct.std::_Vector_base", %"struct.std::_Vector_base"* %4, i32 0, i32 0, !llfi_index !519
  %6 = bitcast %"struct.std::_Vector_base<int, std::allocator<int>>::_Vector_impl"* %5 to %"struct.std::_Vector_base<int, std::allocator<int>>::_Vector_impl_data"*, !llfi_index !520
  %7 = getelementptr inbounds %"struct.std::_Vector_base<int, std::allocator<int>>::_Vector_impl_data", %"struct.std::_Vector_base<int, std::allocator<int>>::_Vector_impl_data"* %6, i32 0, i32 1, !llfi_index !521
  %8 = load i32*, i32** %7, align 8, !llfi_index !522
  %9 = bitcast %"class.std::vector"* %3 to %"struct.std::_Vector_base"*, !llfi_index !523
  %10 = getelementptr inbounds %"struct.std::_Vector_base", %"struct.std::_Vector_base"* %9, i32 0, i32 0, !llfi_index !524
  %11 = bitcast %"struct.std::_Vector_base<int, std::allocator<int>>::_Vector_impl"* %10 to %"struct.std::_Vector_base<int, std::allocator<int>>::_Vector_impl_data"*, !llfi_index !525
  %12 = getelementptr inbounds %"struct.std::_Vector_base<int, std::allocator<int>>::_Vector_impl_data", %"struct.std::_Vector_base<int, std::allocator<int>>::_Vector_impl_data"* %11, i32 0, i32 0, !llfi_index !526
  %13 = load i32*, i32** %12, align 8, !llfi_index !527
  %14 = ptrtoint i32* %8 to i64, !llfi_index !528
  %15 = ptrtoint i32* %13 to i64, !llfi_index !529
  %16 = sub i64 %14, %15, !llfi_index !530
  %17 = sdiv exact i64 %16, 4, !llfi_index !531
  ret i64 %17, !llfi_index !532
}

; Function Attrs: mustprogress noinline nounwind uwtable
define linkonce_odr dso_local i32* @_ZNSt6vectorIiSaIiEE5beginEv(%"class.std::vector"* nonnull align 8 dereferenceable(24) %0) #3 comdat align 2 {
  %2 = alloca %"class.__gnu_cxx::__normal_iterator", align 8, !llfi_index !533
  %3 = alloca %"class.std::vector"*, align 8, !llfi_index !534
  store %"class.std::vector"* %0, %"class.std::vector"** %3, align 8, !llfi_index !535
  %4 = load %"class.std::vector"*, %"class.std::vector"** %3, align 8, !llfi_index !536
  %5 = bitcast %"class.std::vector"* %4 to %"struct.std::_Vector_base"*, !llfi_index !537
  %6 = getelementptr inbounds %"struct.std::_Vector_base", %"struct.std::_Vector_base"* %5, i32 0, i32 0, !llfi_index !538
  %7 = bitcast %"struct.std::_Vector_base<int, std::allocator<int>>::_Vector_impl"* %6 to %"struct.std::_Vector_base<int, std::allocator<int>>::_Vector_impl_data"*, !llfi_index !539
  %8 = getelementptr inbounds %"struct.std::_Vector_base<int, std::allocator<int>>::_Vector_impl_data", %"struct.std::_Vector_base<int, std::allocator<int>>::_Vector_impl_data"* %7, i32 0, i32 0, !llfi_index !540
  call void @_ZN9__gnu_cxx17__normal_iteratorIPiSt6vectorIiSaIiEEEC2ERKS1_(%"class.__gnu_cxx::__normal_iterator"* nonnull align 8 dereferenceable(8) %2, i32** nonnull align 8 dereferenceable(8) %8) #2, !llfi_index !541
  %9 = getelementptr inbounds %"class.__gnu_cxx::__normal_iterator", %"class.__gnu_cxx::__normal_iterator"* %2, i32 0, i32 0, !llfi_index !542
  %10 = load i32*, i32** %9, align 8, !llfi_index !543
  ret i32* %10, !llfi_index !544
}

; Function Attrs: mustprogress noinline nounwind uwtable
define linkonce_odr dso_local i32* @_ZNSt6vectorIiSaIiEE3endEv(%"class.std::vector"* nonnull align 8 dereferenceable(24) %0) #3 comdat align 2 {
  %2 = alloca %"class.__gnu_cxx::__normal_iterator", align 8, !llfi_index !545
  %3 = alloca %"class.std::vector"*, align 8, !llfi_index !546
  store %"class.std::vector"* %0, %"class.std::vector"** %3, align 8, !llfi_index !547
  %4 = load %"class.std::vector"*, %"class.std::vector"** %3, align 8, !llfi_index !548
  %5 = bitcast %"class.std::vector"* %4 to %"struct.std::_Vector_base"*, !llfi_index !549
  %6 = getelementptr inbounds %"struct.std::_Vector_base", %"struct.std::_Vector_base"* %5, i32 0, i32 0, !llfi_index !550
  %7 = bitcast %"struct.std::_Vector_base<int, std::allocator<int>>::_Vector_impl"* %6 to %"struct.std::_Vector_base<int, std::allocator<int>>::_Vector_impl_data"*, !llfi_index !551
  %8 = getelementptr inbounds %"struct.std::_Vector_base<int, std::allocator<int>>::_Vector_impl_data", %"struct.std::_Vector_base<int, std::allocator<int>>::_Vector_impl_data"* %7, i32 0, i32 1, !llfi_index !552
  call void @_ZN9__gnu_cxx17__normal_iteratorIPiSt6vectorIiSaIiEEEC2ERKS1_(%"class.__gnu_cxx::__normal_iterator"* nonnull align 8 dereferenceable(8) %2, i32** nonnull align 8 dereferenceable(8) %8) #2, !llfi_index !553
  %9 = getelementptr inbounds %"class.__gnu_cxx::__normal_iterator", %"class.__gnu_cxx::__normal_iterator"* %2, i32 0, i32 0, !llfi_index !554
  %10 = load i32*, i32** %9, align 8, !llfi_index !555
  ret i32* %10, !llfi_index !556
}

; Function Attrs: mustprogress noinline uwtable
define linkonce_odr dso_local void @_ZSt4sortIN9__gnu_cxx17__normal_iteratorIPiSt6vectorIiSaIiEEEEEvT_S7_(i32* %0, i32* %1) #4 comdat {
  %3 = alloca %"class.__gnu_cxx::__normal_iterator", align 8, !llfi_index !557
  %4 = alloca %"class.__gnu_cxx::__normal_iterator", align 8, !llfi_index !558
  %5 = alloca %"class.__gnu_cxx::__normal_iterator", align 8, !llfi_index !559
  %6 = alloca %"class.__gnu_cxx::__normal_iterator", align 8, !llfi_index !560
  %7 = alloca %"class.std::allocator", align 1, !llfi_index !561
  %8 = alloca %"class.std::allocator", align 1, !llfi_index !562
  %9 = getelementptr inbounds %"class.__gnu_cxx::__normal_iterator", %"class.__gnu_cxx::__normal_iterator"* %3, i32 0, i32 0, !llfi_index !563
  store i32* %0, i32** %9, align 8, !llfi_index !564
  %10 = getelementptr inbounds %"class.__gnu_cxx::__normal_iterator", %"class.__gnu_cxx::__normal_iterator"* %4, i32 0, i32 0, !llfi_index !565
  store i32* %1, i32** %10, align 8, !llfi_index !566
  %11 = bitcast %"class.__gnu_cxx::__normal_iterator"* %5 to i8*, !llfi_index !567
  %12 = bitcast %"class.__gnu_cxx::__normal_iterator"* %3 to i8*, !llfi_index !568
  call void @llvm.memcpy.p0i8.p0i8.i64(i8* align 8 %11, i8* align 8 %12, i64 8, i1 false), !llfi_index !569
  %13 = bitcast %"class.__gnu_cxx::__normal_iterator"* %6 to i8*, !llfi_index !570
  %14 = bitcast %"class.__gnu_cxx::__normal_iterator"* %4 to i8*, !llfi_index !571
  call void @llvm.memcpy.p0i8.p0i8.i64(i8* align 8 %13, i8* align 8 %14, i64 8, i1 false), !llfi_index !572
  call void @_ZN9__gnu_cxx5__ops16__iter_less_iterEv(), !llfi_index !573
  %15 = getelementptr inbounds %"class.__gnu_cxx::__normal_iterator", %"class.__gnu_cxx::__normal_iterator"* %5, i32 0, i32 0, !llfi_index !574
  %16 = load i32*, i32** %15, align 8, !llfi_index !575
  %17 = getelementptr inbounds %"class.__gnu_cxx::__normal_iterator", %"class.__gnu_cxx::__normal_iterator"* %6, i32 0, i32 0, !llfi_index !576
  %18 = load i32*, i32** %17, align 8, !llfi_index !577
  call void @_ZSt6__sortIN9__gnu_cxx17__normal_iteratorIPiSt6vectorIiSaIiEEEENS0_5__ops15_Iter_less_iterEEvT_S9_T0_(i32* %16, i32* %18), !llfi_index !578
  ret void, !llfi_index !579
}

; Function Attrs: mustprogress noinline nounwind uwtable
define linkonce_odr dso_local void @_ZSt4swapIiSaIiEEvRSt6vectorIT_T0_ES5_(%"class.std::vector"* nonnull align 8 dereferenceable(24) %0, %"class.std::vector"* nonnull align 8 dereferenceable(24) %1) #3 comdat {
  %3 = alloca %"class.std::vector"*, align 8, !llfi_index !580
  %4 = alloca %"class.std::vector"*, align 8, !llfi_index !581
  store %"class.std::vector"* %0, %"class.std::vector"** %3, align 8, !llfi_index !582
  store %"class.std::vector"* %1, %"class.std::vector"** %4, align 8, !llfi_index !583
  %5 = load %"class.std::vector"*, %"class.std::vector"** %3, align 8, !llfi_index !584
  %6 = load %"class.std::vector"*, %"class.std::vector"** %4, align 8, !llfi_index !585
  call void @_ZNSt6vectorIiSaIiEE4swapERS1_(%"class.std::vector"* nonnull align 8 dereferenceable(24) %5, %"class.std::vector"* nonnull align 8 dereferenceable(24) %6) #2, !llfi_index !586
  ret void, !llfi_index !587
}

; Function Attrs: mustprogress noinline nounwind uwtable
define linkonce_odr dso_local void @_ZSt4swapIiENSt9enable_ifIXsr6__and_ISt6__not_ISt15__is_tuple_likeIT_EESt21is_move_constructibleIS3_ESt18is_move_assignableIS3_EEE5valueEvE4typeERS3_SC_(i32* nonnull align 4 dereferenceable(4) %0, i32* nonnull align 4 dereferenceable(4) %1) #3 comdat {
  %3 = alloca i32*, align 8, !llfi_index !588
  %4 = alloca i32*, align 8, !llfi_index !589
  %5 = alloca i32, align 4, !llfi_index !590
  store i32* %0, i32** %3, align 8, !llfi_index !591
  store i32* %1, i32** %4, align 8, !llfi_index !592
  %6 = load i32*, i32** %3, align 8, !llfi_index !593
  %7 = call nonnull align 4 dereferenceable(4) i32* @_ZSt4moveIRiEONSt16remove_referenceIT_E4typeEOS2_(i32* nonnull align 4 dereferenceable(4) %6) #2, !llfi_index !594
  %8 = load i32, i32* %7, align 4, !llfi_index !595
  store i32 %8, i32* %5, align 4, !llfi_index !596
  %9 = load i32*, i32** %4, align 8, !llfi_index !597
  %10 = call nonnull align 4 dereferenceable(4) i32* @_ZSt4moveIRiEONSt16remove_referenceIT_E4typeEOS2_(i32* nonnull align 4 dereferenceable(4) %9) #2, !llfi_index !598
  %11 = load i32, i32* %10, align 4, !llfi_index !599
  %12 = load i32*, i32** %3, align 8, !llfi_index !600
  store i32 %11, i32* %12, align 4, !llfi_index !601
  %13 = call nonnull align 4 dereferenceable(4) i32* @_ZSt4moveIRiEONSt16remove_referenceIT_E4typeEOS2_(i32* nonnull align 4 dereferenceable(4) %5) #2, !llfi_index !602
  %14 = load i32, i32* %13, align 4, !llfi_index !603
  %15 = load i32*, i32** %4, align 8, !llfi_index !604
  store i32 %14, i32* %15, align 4, !llfi_index !605
  ret void, !llfi_index !606
}

declare dso_local nonnull align 8 dereferenceable(8) %"class.std::basic_ostream"* @_ZNSolsEi(%"class.std::basic_ostream"* nonnull align 8 dereferenceable(8), i32) #7

declare dso_local nonnull align 8 dereferenceable(8) %"class.std::basic_ostream"* @_ZSt4endlIcSt11char_traitsIcEERSt13basic_ostreamIT_T0_ES6_(%"class.std::basic_ostream"* nonnull align 8 dereferenceable(8)) #7

declare dso_local nonnull align 8 dereferenceable(8) %"class.std::basic_ostream"* @_ZNSolsEPFRSoS_E(%"class.std::basic_ostream"* nonnull align 8 dereferenceable(8), %"class.std::basic_ostream"* (%"class.std::basic_ostream"*)*) #7

; Function Attrs: mustprogress noinline nounwind uwtable
define linkonce_odr dso_local nonnull align 4 dereferenceable(4) i32* @_ZNSt6vectorIiSaIiEEixEm(%"class.std::vector"* nonnull align 8 dereferenceable(24) %0, i64 %1) #3 comdat align 2 {
  %3 = alloca %"class.std::vector"*, align 8, !llfi_index !607
  %4 = alloca i64, align 8, !llfi_index !608
  store %"class.std::vector"* %0, %"class.std::vector"** %3, align 8, !llfi_index !609
  store i64 %1, i64* %4, align 8, !llfi_index !610
  %5 = load %"class.std::vector"*, %"class.std::vector"** %3, align 8, !llfi_index !611
  %6 = bitcast %"class.std::vector"* %5 to %"struct.std::_Vector_base"*, !llfi_index !612
  %7 = getelementptr inbounds %"struct.std::_Vector_base", %"struct.std::_Vector_base"* %6, i32 0, i32 0, !llfi_index !613
  %8 = bitcast %"struct.std::_Vector_base<int, std::allocator<int>>::_Vector_impl"* %7 to %"struct.std::_Vector_base<int, std::allocator<int>>::_Vector_impl_data"*, !llfi_index !614
  %9 = getelementptr inbounds %"struct.std::_Vector_base<int, std::allocator<int>>::_Vector_impl_data", %"struct.std::_Vector_base<int, std::allocator<int>>::_Vector_impl_data"* %8, i32 0, i32 0, !llfi_index !615
  %10 = load i32*, i32** %9, align 8, !llfi_index !616
  %11 = load i64, i64* %4, align 8, !llfi_index !617
  %12 = getelementptr inbounds i32, i32* %10, i64 %11, !llfi_index !618
  ret i32* %12, !llfi_index !619
}

declare dso_local i32 @printf(i8*, ...) #7

; Function Attrs: mustprogress noinline nounwind uwtable
define linkonce_odr dso_local nonnull align 4 dereferenceable(4) i32* @_ZSt4moveIRiEONSt16remove_referenceIT_E4typeEOS2_(i32* nonnull align 4 dereferenceable(4) %0) #3 comdat {
  %2 = alloca i32*, align 8, !llfi_index !620
  store i32* %0, i32** %2, align 8, !llfi_index !621
  %3 = load i32*, i32** %2, align 8, !llfi_index !622
  ret i32* %3, !llfi_index !623
}

; Function Attrs: mustprogress noinline nounwind uwtable
define linkonce_odr dso_local void @_ZNSt6vectorIiSaIiEE4swapERS1_(%"class.std::vector"* nonnull align 8 dereferenceable(24) %0, %"class.std::vector"* nonnull align 8 dereferenceable(24) %1) #3 comdat align 2 personality i8* bitcast (i32 (...)* @__gxx_personality_v0 to i8*) {
  %3 = alloca %"class.std::vector"*, align 8, !llfi_index !624
  %4 = alloca %"class.std::vector"*, align 8, !llfi_index !625
  store %"class.std::vector"* %0, %"class.std::vector"** %3, align 8, !llfi_index !626
  store %"class.std::vector"* %1, %"class.std::vector"** %4, align 8, !llfi_index !627
  %5 = load %"class.std::vector"*, %"class.std::vector"** %3, align 8, !llfi_index !628
  %6 = bitcast %"class.std::vector"* %5 to %"struct.std::_Vector_base"*, !llfi_index !629
  %7 = getelementptr inbounds %"struct.std::_Vector_base", %"struct.std::_Vector_base"* %6, i32 0, i32 0, !llfi_index !630
  %8 = bitcast %"struct.std::_Vector_base<int, std::allocator<int>>::_Vector_impl"* %7 to %"struct.std::_Vector_base<int, std::allocator<int>>::_Vector_impl_data"*, !llfi_index !631
  %9 = load %"class.std::vector"*, %"class.std::vector"** %4, align 8, !llfi_index !632
  %10 = bitcast %"class.std::vector"* %9 to %"struct.std::_Vector_base"*, !llfi_index !633
  %11 = getelementptr inbounds %"struct.std::_Vector_base", %"struct.std::_Vector_base"* %10, i32 0, i32 0, !llfi_index !634
  %12 = bitcast %"struct.std::_Vector_base<int, std::allocator<int>>::_Vector_impl"* %11 to %"struct.std::_Vector_base<int, std::allocator<int>>::_Vector_impl_data"*, !llfi_index !635
  call void @_ZNSt12_Vector_baseIiSaIiEE17_Vector_impl_data12_M_swap_dataERS2_(%"struct.std::_Vector_base<int, std::allocator<int>>::_Vector_impl_data"* nonnull align 8 dereferenceable(24) %8, %"struct.std::_Vector_base<int, std::allocator<int>>::_Vector_impl_data"* nonnull align 8 dereferenceable(24) %12) #2, !llfi_index !636
  %13 = bitcast %"class.std::vector"* %5 to %"struct.std::_Vector_base"*, !llfi_index !637
  %14 = call nonnull align 1 dereferenceable(1) %"class.std::allocator"* @_ZNSt12_Vector_baseIiSaIiEE19_M_get_Tp_allocatorEv(%"struct.std::_Vector_base"* nonnull align 8 dereferenceable(24) %13) #2, !llfi_index !638
  %15 = load %"class.std::vector"*, %"class.std::vector"** %4, align 8, !llfi_index !639
  %16 = bitcast %"class.std::vector"* %15 to %"struct.std::_Vector_base"*, !llfi_index !640
  %17 = call nonnull align 1 dereferenceable(1) %"class.std::allocator"* @_ZNSt12_Vector_baseIiSaIiEE19_M_get_Tp_allocatorEv(%"struct.std::_Vector_base"* nonnull align 8 dereferenceable(24) %16) #2, !llfi_index !641
  invoke void @_ZN9__gnu_cxx14__alloc_traitsISaIiEiE10_S_on_swapERS1_S3_(%"class.std::allocator"* nonnull align 1 dereferenceable(1) %14, %"class.std::allocator"* nonnull align 1 dereferenceable(1) %17)
          to label %18 unwind label %19, !llfi_index !642

18:                                               ; preds = %2
  ret void, !llfi_index !643

19:                                               ; preds = %2
  %20 = landingpad { i8*, i32 }
          catch i8* null, !llfi_index !644
  %21 = extractvalue { i8*, i32 } %20, 0, !llfi_index !645
  call void @__clang_call_terminate(i8* %21) #14, !llfi_index !646
  unreachable, !llfi_index !647
}

; Function Attrs: mustprogress noinline nounwind uwtable
define linkonce_odr dso_local void @_ZNSt12_Vector_baseIiSaIiEE17_Vector_impl_data12_M_swap_dataERS2_(%"struct.std::_Vector_base<int, std::allocator<int>>::_Vector_impl_data"* nonnull align 8 dereferenceable(24) %0, %"struct.std::_Vector_base<int, std::allocator<int>>::_Vector_impl_data"* nonnull align 8 dereferenceable(24) %1) #3 comdat align 2 {
  %3 = alloca %"struct.std::_Vector_base<int, std::allocator<int>>::_Vector_impl_data"*, align 8, !llfi_index !648
  %4 = alloca %"struct.std::_Vector_base<int, std::allocator<int>>::_Vector_impl_data"*, align 8, !llfi_index !649
  %5 = alloca %"struct.std::_Vector_base<int, std::allocator<int>>::_Vector_impl_data", align 8, !llfi_index !650
  store %"struct.std::_Vector_base<int, std::allocator<int>>::_Vector_impl_data"* %0, %"struct.std::_Vector_base<int, std::allocator<int>>::_Vector_impl_data"** %3, align 8, !llfi_index !651
  store %"struct.std::_Vector_base<int, std::allocator<int>>::_Vector_impl_data"* %1, %"struct.std::_Vector_base<int, std::allocator<int>>::_Vector_impl_data"** %4, align 8, !llfi_index !652
  %6 = load %"struct.std::_Vector_base<int, std::allocator<int>>::_Vector_impl_data"*, %"struct.std::_Vector_base<int, std::allocator<int>>::_Vector_impl_data"** %3, align 8, !llfi_index !653
  call void @_ZNSt12_Vector_baseIiSaIiEE17_Vector_impl_dataC2Ev(%"struct.std::_Vector_base<int, std::allocator<int>>::_Vector_impl_data"* nonnull align 8 dereferenceable(24) %5) #2, !llfi_index !654
  call void @_ZNSt12_Vector_baseIiSaIiEE17_Vector_impl_data12_M_copy_dataERKS2_(%"struct.std::_Vector_base<int, std::allocator<int>>::_Vector_impl_data"* nonnull align 8 dereferenceable(24) %5, %"struct.std::_Vector_base<int, std::allocator<int>>::_Vector_impl_data"* nonnull align 8 dereferenceable(24) %6) #2, !llfi_index !655
  %7 = load %"struct.std::_Vector_base<int, std::allocator<int>>::_Vector_impl_data"*, %"struct.std::_Vector_base<int, std::allocator<int>>::_Vector_impl_data"** %4, align 8, !llfi_index !656
  call void @_ZNSt12_Vector_baseIiSaIiEE17_Vector_impl_data12_M_copy_dataERKS2_(%"struct.std::_Vector_base<int, std::allocator<int>>::_Vector_impl_data"* nonnull align 8 dereferenceable(24) %6, %"struct.std::_Vector_base<int, std::allocator<int>>::_Vector_impl_data"* nonnull align 8 dereferenceable(24) %7) #2, !llfi_index !657
  %8 = load %"struct.std::_Vector_base<int, std::allocator<int>>::_Vector_impl_data"*, %"struct.std::_Vector_base<int, std::allocator<int>>::_Vector_impl_data"** %4, align 8, !llfi_index !658
  call void @_ZNSt12_Vector_baseIiSaIiEE17_Vector_impl_data12_M_copy_dataERKS2_(%"struct.std::_Vector_base<int, std::allocator<int>>::_Vector_impl_data"* nonnull align 8 dereferenceable(24) %8, %"struct.std::_Vector_base<int, std::allocator<int>>::_Vector_impl_data"* nonnull align 8 dereferenceable(24) %5) #2, !llfi_index !659
  ret void, !llfi_index !660
}

; Function Attrs: mustprogress noinline uwtable
define linkonce_odr dso_local void @_ZN9__gnu_cxx14__alloc_traitsISaIiEiE10_S_on_swapERS1_S3_(%"class.std::allocator"* nonnull align 1 dereferenceable(1) %0, %"class.std::allocator"* nonnull align 1 dereferenceable(1) %1) #4 comdat align 2 {
  %3 = alloca %"class.std::allocator"*, align 8, !llfi_index !661
  %4 = alloca %"class.std::allocator"*, align 8, !llfi_index !662
  store %"class.std::allocator"* %0, %"class.std::allocator"** %3, align 8, !llfi_index !663
  store %"class.std::allocator"* %1, %"class.std::allocator"** %4, align 8, !llfi_index !664
  %5 = load %"class.std::allocator"*, %"class.std::allocator"** %3, align 8, !llfi_index !665
  %6 = load %"class.std::allocator"*, %"class.std::allocator"** %4, align 8, !llfi_index !666
  call void @_ZSt15__alloc_on_swapISaIiEEvRT_S2_(%"class.std::allocator"* nonnull align 1 dereferenceable(1) %5, %"class.std::allocator"* nonnull align 1 dereferenceable(1) %6), !llfi_index !667
  ret void, !llfi_index !668
}

; Function Attrs: mustprogress noinline uwtable
define linkonce_odr dso_local void @_ZSt15__alloc_on_swapISaIiEEvRT_S2_(%"class.std::allocator"* nonnull align 1 dereferenceable(1) %0, %"class.std::allocator"* nonnull align 1 dereferenceable(1) %1) #4 comdat {
  %3 = alloca %"class.std::allocator"*, align 8, !llfi_index !669
  %4 = alloca %"class.std::allocator"*, align 8, !llfi_index !670
  %5 = alloca %"class.std::allocator", align 1, !llfi_index !671
  store %"class.std::allocator"* %0, %"class.std::allocator"** %3, align 8, !llfi_index !672
  store %"class.std::allocator"* %1, %"class.std::allocator"** %4, align 8, !llfi_index !673
  %6 = load %"class.std::allocator"*, %"class.std::allocator"** %3, align 8, !llfi_index !674
  %7 = load %"class.std::allocator"*, %"class.std::allocator"** %4, align 8, !llfi_index !675
  call void @_ZSt18__do_alloc_on_swapISaIiEEvRT_S2_St17integral_constantIbLb0EE(%"class.std::allocator"* nonnull align 1 dereferenceable(1) %6, %"class.std::allocator"* nonnull align 1 dereferenceable(1) %7), !llfi_index !676
  ret void, !llfi_index !677
}

; Function Attrs: mustprogress noinline nounwind uwtable
define linkonce_odr dso_local void @_ZSt18__do_alloc_on_swapISaIiEEvRT_S2_St17integral_constantIbLb0EE(%"class.std::allocator"* nonnull align 1 dereferenceable(1) %0, %"class.std::allocator"* nonnull align 1 dereferenceable(1) %1) #3 comdat {
  %3 = alloca %"class.std::allocator", align 1, !llfi_index !678
  %4 = alloca %"class.std::allocator"*, align 8, !llfi_index !679
  %5 = alloca %"class.std::allocator"*, align 8, !llfi_index !680
  store %"class.std::allocator"* %0, %"class.std::allocator"** %4, align 8, !llfi_index !681
  store %"class.std::allocator"* %1, %"class.std::allocator"** %5, align 8, !llfi_index !682
  ret void, !llfi_index !683
}

; Function Attrs: mustprogress noinline nounwind uwtable
define linkonce_odr dso_local void @_ZNSt12_Vector_baseIiSaIiEE17_Vector_impl_data12_M_copy_dataERKS2_(%"struct.std::_Vector_base<int, std::allocator<int>>::_Vector_impl_data"* nonnull align 8 dereferenceable(24) %0, %"struct.std::_Vector_base<int, std::allocator<int>>::_Vector_impl_data"* nonnull align 8 dereferenceable(24) %1) #3 comdat align 2 {
  %3 = alloca %"struct.std::_Vector_base<int, std::allocator<int>>::_Vector_impl_data"*, align 8, !llfi_index !684
  %4 = alloca %"struct.std::_Vector_base<int, std::allocator<int>>::_Vector_impl_data"*, align 8, !llfi_index !685
  store %"struct.std::_Vector_base<int, std::allocator<int>>::_Vector_impl_data"* %0, %"struct.std::_Vector_base<int, std::allocator<int>>::_Vector_impl_data"** %3, align 8, !llfi_index !686
  store %"struct.std::_Vector_base<int, std::allocator<int>>::_Vector_impl_data"* %1, %"struct.std::_Vector_base<int, std::allocator<int>>::_Vector_impl_data"** %4, align 8, !llfi_index !687
  %5 = load %"struct.std::_Vector_base<int, std::allocator<int>>::_Vector_impl_data"*, %"struct.std::_Vector_base<int, std::allocator<int>>::_Vector_impl_data"** %3, align 8, !llfi_index !688
  %6 = load %"struct.std::_Vector_base<int, std::allocator<int>>::_Vector_impl_data"*, %"struct.std::_Vector_base<int, std::allocator<int>>::_Vector_impl_data"** %4, align 8, !llfi_index !689
  %7 = getelementptr inbounds %"struct.std::_Vector_base<int, std::allocator<int>>::_Vector_impl_data", %"struct.std::_Vector_base<int, std::allocator<int>>::_Vector_impl_data"* %6, i32 0, i32 0, !llfi_index !690
  %8 = load i32*, i32** %7, align 8, !llfi_index !691
  %9 = getelementptr inbounds %"struct.std::_Vector_base<int, std::allocator<int>>::_Vector_impl_data", %"struct.std::_Vector_base<int, std::allocator<int>>::_Vector_impl_data"* %5, i32 0, i32 0, !llfi_index !692
  store i32* %8, i32** %9, align 8, !llfi_index !693
  %10 = load %"struct.std::_Vector_base<int, std::allocator<int>>::_Vector_impl_data"*, %"struct.std::_Vector_base<int, std::allocator<int>>::_Vector_impl_data"** %4, align 8, !llfi_index !694
  %11 = getelementptr inbounds %"struct.std::_Vector_base<int, std::allocator<int>>::_Vector_impl_data", %"struct.std::_Vector_base<int, std::allocator<int>>::_Vector_impl_data"* %10, i32 0, i32 1, !llfi_index !695
  %12 = load i32*, i32** %11, align 8, !llfi_index !696
  %13 = getelementptr inbounds %"struct.std::_Vector_base<int, std::allocator<int>>::_Vector_impl_data", %"struct.std::_Vector_base<int, std::allocator<int>>::_Vector_impl_data"* %5, i32 0, i32 1, !llfi_index !697
  store i32* %12, i32** %13, align 8, !llfi_index !698
  %14 = load %"struct.std::_Vector_base<int, std::allocator<int>>::_Vector_impl_data"*, %"struct.std::_Vector_base<int, std::allocator<int>>::_Vector_impl_data"** %4, align 8, !llfi_index !699
  %15 = getelementptr inbounds %"struct.std::_Vector_base<int, std::allocator<int>>::_Vector_impl_data", %"struct.std::_Vector_base<int, std::allocator<int>>::_Vector_impl_data"* %14, i32 0, i32 2, !llfi_index !700
  %16 = load i32*, i32** %15, align 8, !llfi_index !701
  %17 = getelementptr inbounds %"struct.std::_Vector_base<int, std::allocator<int>>::_Vector_impl_data", %"struct.std::_Vector_base<int, std::allocator<int>>::_Vector_impl_data"* %5, i32 0, i32 2, !llfi_index !702
  store i32* %16, i32** %17, align 8, !llfi_index !703
  ret void, !llfi_index !704
}

; Function Attrs: argmemonly nofree nounwind willreturn
declare void @llvm.memcpy.p0i8.p0i8.i64(i8* noalias nocapture writeonly, i8* noalias nocapture readonly, i64, i1 immarg) #10

; Function Attrs: mustprogress noinline nounwind uwtable
define linkonce_odr dso_local void @_ZN9__gnu_cxx5__ops16__iter_less_iterEv() #3 comdat {
  ret void, !llfi_index !705
}

; Function Attrs: mustprogress noinline uwtable
define linkonce_odr dso_local void @_ZSt6__sortIN9__gnu_cxx17__normal_iteratorIPiSt6vectorIiSaIiEEEENS0_5__ops15_Iter_less_iterEEvT_S9_T0_(i32* %0, i32* %1) #4 comdat {
  %3 = alloca %"class.__gnu_cxx::__normal_iterator", align 8, !llfi_index !706
  %4 = alloca %"class.__gnu_cxx::__normal_iterator", align 8, !llfi_index !707
  %5 = alloca %"class.std::allocator", align 1, !llfi_index !708
  %6 = alloca %"class.__gnu_cxx::__normal_iterator", align 8, !llfi_index !709
  %7 = alloca %"class.__gnu_cxx::__normal_iterator", align 8, !llfi_index !710
  %8 = alloca %"class.std::allocator", align 1, !llfi_index !711
  %9 = alloca %"class.__gnu_cxx::__normal_iterator", align 8, !llfi_index !712
  %10 = alloca %"class.__gnu_cxx::__normal_iterator", align 8, !llfi_index !713
  %11 = alloca %"class.std::allocator", align 1, !llfi_index !714
  %12 = getelementptr inbounds %"class.__gnu_cxx::__normal_iterator", %"class.__gnu_cxx::__normal_iterator"* %3, i32 0, i32 0, !llfi_index !715
  store i32* %0, i32** %12, align 8, !llfi_index !716
  %13 = getelementptr inbounds %"class.__gnu_cxx::__normal_iterator", %"class.__gnu_cxx::__normal_iterator"* %4, i32 0, i32 0, !llfi_index !717
  store i32* %1, i32** %13, align 8, !llfi_index !718
  %14 = call zeroext i1 @_ZN9__gnu_cxxneIPiSt6vectorIiSaIiEEEEbRKNS_17__normal_iteratorIT_T0_EESA_(%"class.__gnu_cxx::__normal_iterator"* nonnull align 8 dereferenceable(8) %3, %"class.__gnu_cxx::__normal_iterator"* nonnull align 8 dereferenceable(8) %4) #2, !llfi_index !719
  br i1 %14, label %15, label %35, !llfi_index !720

15:                                               ; preds = %2
  %16 = bitcast %"class.__gnu_cxx::__normal_iterator"* %6 to i8*, !llfi_index !721
  %17 = bitcast %"class.__gnu_cxx::__normal_iterator"* %3 to i8*, !llfi_index !722
  call void @llvm.memcpy.p0i8.p0i8.i64(i8* align 8 %16, i8* align 8 %17, i64 8, i1 false), !llfi_index !723
  %18 = bitcast %"class.__gnu_cxx::__normal_iterator"* %7 to i8*, !llfi_index !724
  %19 = bitcast %"class.__gnu_cxx::__normal_iterator"* %4 to i8*, !llfi_index !725
  call void @llvm.memcpy.p0i8.p0i8.i64(i8* align 8 %18, i8* align 8 %19, i64 8, i1 false), !llfi_index !726
  %20 = call i64 @_ZN9__gnu_cxxmiIPiSt6vectorIiSaIiEEEENS_17__normal_iteratorIT_T0_E15difference_typeERKS8_SB_(%"class.__gnu_cxx::__normal_iterator"* nonnull align 8 dereferenceable(8) %4, %"class.__gnu_cxx::__normal_iterator"* nonnull align 8 dereferenceable(8) %3) #2, !llfi_index !727
  %21 = call i64 @_ZSt4__lgl(i64 %20), !llfi_index !728
  %22 = mul nsw i64 %21, 2, !llfi_index !729
  %23 = getelementptr inbounds %"class.__gnu_cxx::__normal_iterator", %"class.__gnu_cxx::__normal_iterator"* %6, i32 0, i32 0, !llfi_index !730
  %24 = load i32*, i32** %23, align 8, !llfi_index !731
  %25 = getelementptr inbounds %"class.__gnu_cxx::__normal_iterator", %"class.__gnu_cxx::__normal_iterator"* %7, i32 0, i32 0, !llfi_index !732
  %26 = load i32*, i32** %25, align 8, !llfi_index !733
  call void @_ZSt16__introsort_loopIN9__gnu_cxx17__normal_iteratorIPiSt6vectorIiSaIiEEEElNS0_5__ops15_Iter_less_iterEEvT_S9_T0_T1_(i32* %24, i32* %26, i64 %22), !llfi_index !734
  %27 = bitcast %"class.__gnu_cxx::__normal_iterator"* %9 to i8*, !llfi_index !735
  %28 = bitcast %"class.__gnu_cxx::__normal_iterator"* %3 to i8*, !llfi_index !736
  call void @llvm.memcpy.p0i8.p0i8.i64(i8* align 8 %27, i8* align 8 %28, i64 8, i1 false), !llfi_index !737
  %29 = bitcast %"class.__gnu_cxx::__normal_iterator"* %10 to i8*, !llfi_index !738
  %30 = bitcast %"class.__gnu_cxx::__normal_iterator"* %4 to i8*, !llfi_index !739
  call void @llvm.memcpy.p0i8.p0i8.i64(i8* align 8 %29, i8* align 8 %30, i64 8, i1 false), !llfi_index !740
  %31 = getelementptr inbounds %"class.__gnu_cxx::__normal_iterator", %"class.__gnu_cxx::__normal_iterator"* %9, i32 0, i32 0, !llfi_index !741
  %32 = load i32*, i32** %31, align 8, !llfi_index !742
  %33 = getelementptr inbounds %"class.__gnu_cxx::__normal_iterator", %"class.__gnu_cxx::__normal_iterator"* %10, i32 0, i32 0, !llfi_index !743
  %34 = load i32*, i32** %33, align 8, !llfi_index !744
  call void @_ZSt22__final_insertion_sortIN9__gnu_cxx17__normal_iteratorIPiSt6vectorIiSaIiEEEENS0_5__ops15_Iter_less_iterEEvT_S9_T0_(i32* %32, i32* %34), !llfi_index !745
  br label %35, !llfi_index !746

35:                                               ; preds = %15, %2
  ret void, !llfi_index !747
}

; Function Attrs: mustprogress noinline nounwind uwtable
define linkonce_odr dso_local zeroext i1 @_ZN9__gnu_cxxneIPiSt6vectorIiSaIiEEEEbRKNS_17__normal_iteratorIT_T0_EESA_(%"class.__gnu_cxx::__normal_iterator"* nonnull align 8 dereferenceable(8) %0, %"class.__gnu_cxx::__normal_iterator"* nonnull align 8 dereferenceable(8) %1) #3 comdat {
  %3 = alloca %"class.__gnu_cxx::__normal_iterator"*, align 8, !llfi_index !748
  %4 = alloca %"class.__gnu_cxx::__normal_iterator"*, align 8, !llfi_index !749
  store %"class.__gnu_cxx::__normal_iterator"* %0, %"class.__gnu_cxx::__normal_iterator"** %3, align 8, !llfi_index !750
  store %"class.__gnu_cxx::__normal_iterator"* %1, %"class.__gnu_cxx::__normal_iterator"** %4, align 8, !llfi_index !751
  %5 = load %"class.__gnu_cxx::__normal_iterator"*, %"class.__gnu_cxx::__normal_iterator"** %3, align 8, !llfi_index !752
  %6 = call nonnull align 8 dereferenceable(8) i32** @_ZNK9__gnu_cxx17__normal_iteratorIPiSt6vectorIiSaIiEEE4baseEv(%"class.__gnu_cxx::__normal_iterator"* nonnull align 8 dereferenceable(8) %5) #2, !llfi_index !753
  %7 = load i32*, i32** %6, align 8, !llfi_index !754
  %8 = load %"class.__gnu_cxx::__normal_iterator"*, %"class.__gnu_cxx::__normal_iterator"** %4, align 8, !llfi_index !755
  %9 = call nonnull align 8 dereferenceable(8) i32** @_ZNK9__gnu_cxx17__normal_iteratorIPiSt6vectorIiSaIiEEE4baseEv(%"class.__gnu_cxx::__normal_iterator"* nonnull align 8 dereferenceable(8) %8) #2, !llfi_index !756
  %10 = load i32*, i32** %9, align 8, !llfi_index !757
  %11 = icmp ne i32* %7, %10, !llfi_index !758
  ret i1 %11, !llfi_index !759
}

; Function Attrs: mustprogress noinline nounwind uwtable
define linkonce_odr dso_local i64 @_ZN9__gnu_cxxmiIPiSt6vectorIiSaIiEEEENS_17__normal_iteratorIT_T0_E15difference_typeERKS8_SB_(%"class.__gnu_cxx::__normal_iterator"* nonnull align 8 dereferenceable(8) %0, %"class.__gnu_cxx::__normal_iterator"* nonnull align 8 dereferenceable(8) %1) #3 comdat {
  %3 = alloca %"class.__gnu_cxx::__normal_iterator"*, align 8, !llfi_index !760
  %4 = alloca %"class.__gnu_cxx::__normal_iterator"*, align 8, !llfi_index !761
  store %"class.__gnu_cxx::__normal_iterator"* %0, %"class.__gnu_cxx::__normal_iterator"** %3, align 8, !llfi_index !762
  store %"class.__gnu_cxx::__normal_iterator"* %1, %"class.__gnu_cxx::__normal_iterator"** %4, align 8, !llfi_index !763
  %5 = load %"class.__gnu_cxx::__normal_iterator"*, %"class.__gnu_cxx::__normal_iterator"** %3, align 8, !llfi_index !764
  %6 = call nonnull align 8 dereferenceable(8) i32** @_ZNK9__gnu_cxx17__normal_iteratorIPiSt6vectorIiSaIiEEE4baseEv(%"class.__gnu_cxx::__normal_iterator"* nonnull align 8 dereferenceable(8) %5) #2, !llfi_index !765
  %7 = load i32*, i32** %6, align 8, !llfi_index !766
  %8 = load %"class.__gnu_cxx::__normal_iterator"*, %"class.__gnu_cxx::__normal_iterator"** %4, align 8, !llfi_index !767
  %9 = call nonnull align 8 dereferenceable(8) i32** @_ZNK9__gnu_cxx17__normal_iteratorIPiSt6vectorIiSaIiEEE4baseEv(%"class.__gnu_cxx::__normal_iterator"* nonnull align 8 dereferenceable(8) %8) #2, !llfi_index !768
  %10 = load i32*, i32** %9, align 8, !llfi_index !769
  %11 = ptrtoint i32* %7 to i64, !llfi_index !770
  %12 = ptrtoint i32* %10 to i64, !llfi_index !771
  %13 = sub i64 %11, %12, !llfi_index !772
  %14 = sdiv exact i64 %13, 4, !llfi_index !773
  ret i64 %14, !llfi_index !774
}

; Function Attrs: mustprogress noinline nounwind uwtable
define linkonce_odr dso_local i64 @_ZSt4__lgl(i64 %0) #3 comdat {
  %2 = alloca i64, align 8, !llfi_index !775
  store i64 %0, i64* %2, align 8, !llfi_index !776
  %3 = load i64, i64* %2, align 8, !llfi_index !777
  %4 = call i64 @llvm.ctlz.i64(i64 %3, i1 true), !llfi_index !778
  %5 = trunc i64 %4 to i32, !llfi_index !779
  %6 = sub nsw i32 63, %5, !llfi_index !780
  %7 = sext i32 %6 to i64, !llfi_index !781
  ret i64 %7, !llfi_index !782
}

; Function Attrs: mustprogress noinline uwtable
define linkonce_odr dso_local void @_ZSt16__introsort_loopIN9__gnu_cxx17__normal_iteratorIPiSt6vectorIiSaIiEEEElNS0_5__ops15_Iter_less_iterEEvT_S9_T0_T1_(i32* %0, i32* %1, i64 %2) #4 comdat {
  %4 = alloca %"class.__gnu_cxx::__normal_iterator", align 8, !llfi_index !783
  %5 = alloca %"class.__gnu_cxx::__normal_iterator", align 8, !llfi_index !784
  %6 = alloca %"class.std::allocator", align 1, !llfi_index !785
  %7 = alloca i64, align 8, !llfi_index !786
  %8 = alloca %"class.__gnu_cxx::__normal_iterator", align 8, !llfi_index !787
  %9 = alloca %"class.__gnu_cxx::__normal_iterator", align 8, !llfi_index !788
  %10 = alloca %"class.__gnu_cxx::__normal_iterator", align 8, !llfi_index !789
  %11 = alloca %"class.std::allocator", align 1, !llfi_index !790
  %12 = alloca %"class.__gnu_cxx::__normal_iterator", align 8, !llfi_index !791
  %13 = alloca %"class.__gnu_cxx::__normal_iterator", align 8, !llfi_index !792
  %14 = alloca %"class.__gnu_cxx::__normal_iterator", align 8, !llfi_index !793
  %15 = alloca %"class.std::allocator", align 1, !llfi_index !794
  %16 = alloca %"class.__gnu_cxx::__normal_iterator", align 8, !llfi_index !795
  %17 = alloca %"class.__gnu_cxx::__normal_iterator", align 8, !llfi_index !796
  %18 = alloca %"class.std::allocator", align 1, !llfi_index !797
  %19 = getelementptr inbounds %"class.__gnu_cxx::__normal_iterator", %"class.__gnu_cxx::__normal_iterator"* %4, i32 0, i32 0, !llfi_index !798
  store i32* %0, i32** %19, align 8, !llfi_index !799
  %20 = getelementptr inbounds %"class.__gnu_cxx::__normal_iterator", %"class.__gnu_cxx::__normal_iterator"* %5, i32 0, i32 0, !llfi_index !800
  store i32* %1, i32** %20, align 8, !llfi_index !801
  store i64 %2, i64* %7, align 8, !llfi_index !802
  br label %21, !llfi_index !803

21:                                               ; preds = %40, %3
  %22 = call i64 @_ZN9__gnu_cxxmiIPiSt6vectorIiSaIiEEEENS_17__normal_iteratorIT_T0_E15difference_typeERKS8_SB_(%"class.__gnu_cxx::__normal_iterator"* nonnull align 8 dereferenceable(8) %5, %"class.__gnu_cxx::__normal_iterator"* nonnull align 8 dereferenceable(8) %4) #2, !llfi_index !804
  %23 = icmp sgt i64 %22, 16, !llfi_index !805
  br i1 %23, label %24, label %64, !llfi_index !806

24:                                               ; preds = %21
  %25 = load i64, i64* %7, align 8, !llfi_index !807
  %26 = icmp eq i64 %25, 0, !llfi_index !808
  br i1 %26, label %27, label %40, !llfi_index !809

27:                                               ; preds = %24
  %28 = bitcast %"class.__gnu_cxx::__normal_iterator"* %8 to i8*, !llfi_index !810
  %29 = bitcast %"class.__gnu_cxx::__normal_iterator"* %4 to i8*, !llfi_index !811
  call void @llvm.memcpy.p0i8.p0i8.i64(i8* align 8 %28, i8* align 8 %29, i64 8, i1 false), !llfi_index !812
  %30 = bitcast %"class.__gnu_cxx::__normal_iterator"* %9 to i8*, !llfi_index !813
  %31 = bitcast %"class.__gnu_cxx::__normal_iterator"* %5 to i8*, !llfi_index !814
  call void @llvm.memcpy.p0i8.p0i8.i64(i8* align 8 %30, i8* align 8 %31, i64 8, i1 false), !llfi_index !815
  %32 = bitcast %"class.__gnu_cxx::__normal_iterator"* %10 to i8*, !llfi_index !816
  %33 = bitcast %"class.__gnu_cxx::__normal_iterator"* %5 to i8*, !llfi_index !817
  call void @llvm.memcpy.p0i8.p0i8.i64(i8* align 8 %32, i8* align 8 %33, i64 8, i1 false), !llfi_index !818
  %34 = getelementptr inbounds %"class.__gnu_cxx::__normal_iterator", %"class.__gnu_cxx::__normal_iterator"* %8, i32 0, i32 0, !llfi_index !819
  %35 = load i32*, i32** %34, align 8, !llfi_index !820
  %36 = getelementptr inbounds %"class.__gnu_cxx::__normal_iterator", %"class.__gnu_cxx::__normal_iterator"* %9, i32 0, i32 0, !llfi_index !821
  %37 = load i32*, i32** %36, align 8, !llfi_index !822
  %38 = getelementptr inbounds %"class.__gnu_cxx::__normal_iterator", %"class.__gnu_cxx::__normal_iterator"* %10, i32 0, i32 0, !llfi_index !823
  %39 = load i32*, i32** %38, align 8, !llfi_index !824
  call void @_ZSt14__partial_sortIN9__gnu_cxx17__normal_iteratorIPiSt6vectorIiSaIiEEEENS0_5__ops15_Iter_less_iterEEvT_S9_S9_T0_(i32* %35, i32* %37, i32* %39), !llfi_index !825
  br label %64, !llfi_index !826

40:                                               ; preds = %24
  %41 = load i64, i64* %7, align 8, !llfi_index !827
  %42 = add nsw i64 %41, -1, !llfi_index !828
  store i64 %42, i64* %7, align 8, !llfi_index !829
  %43 = bitcast %"class.__gnu_cxx::__normal_iterator"* %13 to i8*, !llfi_index !830
  %44 = bitcast %"class.__gnu_cxx::__normal_iterator"* %4 to i8*, !llfi_index !831
  call void @llvm.memcpy.p0i8.p0i8.i64(i8* align 8 %43, i8* align 8 %44, i64 8, i1 false), !llfi_index !832
  %45 = bitcast %"class.__gnu_cxx::__normal_iterator"* %14 to i8*, !llfi_index !833
  %46 = bitcast %"class.__gnu_cxx::__normal_iterator"* %5 to i8*, !llfi_index !834
  call void @llvm.memcpy.p0i8.p0i8.i64(i8* align 8 %45, i8* align 8 %46, i64 8, i1 false), !llfi_index !835
  %47 = getelementptr inbounds %"class.__gnu_cxx::__normal_iterator", %"class.__gnu_cxx::__normal_iterator"* %13, i32 0, i32 0, !llfi_index !836
  %48 = load i32*, i32** %47, align 8, !llfi_index !837
  %49 = getelementptr inbounds %"class.__gnu_cxx::__normal_iterator", %"class.__gnu_cxx::__normal_iterator"* %14, i32 0, i32 0, !llfi_index !838
  %50 = load i32*, i32** %49, align 8, !llfi_index !839
  %51 = call i32* @_ZSt27__unguarded_partition_pivotIN9__gnu_cxx17__normal_iteratorIPiSt6vectorIiSaIiEEEENS0_5__ops15_Iter_less_iterEET_S9_S9_T0_(i32* %48, i32* %50), !llfi_index !840
  %52 = getelementptr inbounds %"class.__gnu_cxx::__normal_iterator", %"class.__gnu_cxx::__normal_iterator"* %12, i32 0, i32 0, !llfi_index !841
  store i32* %51, i32** %52, align 8, !llfi_index !842
  %53 = bitcast %"class.__gnu_cxx::__normal_iterator"* %16 to i8*, !llfi_index !843
  %54 = bitcast %"class.__gnu_cxx::__normal_iterator"* %12 to i8*, !llfi_index !844
  call void @llvm.memcpy.p0i8.p0i8.i64(i8* align 8 %53, i8* align 8 %54, i64 8, i1 false), !llfi_index !845
  %55 = bitcast %"class.__gnu_cxx::__normal_iterator"* %17 to i8*, !llfi_index !846
  %56 = bitcast %"class.__gnu_cxx::__normal_iterator"* %5 to i8*, !llfi_index !847
  call void @llvm.memcpy.p0i8.p0i8.i64(i8* align 8 %55, i8* align 8 %56, i64 8, i1 false), !llfi_index !848
  %57 = load i64, i64* %7, align 8, !llfi_index !849
  %58 = getelementptr inbounds %"class.__gnu_cxx::__normal_iterator", %"class.__gnu_cxx::__normal_iterator"* %16, i32 0, i32 0, !llfi_index !850
  %59 = load i32*, i32** %58, align 8, !llfi_index !851
  %60 = getelementptr inbounds %"class.__gnu_cxx::__normal_iterator", %"class.__gnu_cxx::__normal_iterator"* %17, i32 0, i32 0, !llfi_index !852
  %61 = load i32*, i32** %60, align 8, !llfi_index !853
  call void @_ZSt16__introsort_loopIN9__gnu_cxx17__normal_iteratorIPiSt6vectorIiSaIiEEEElNS0_5__ops15_Iter_less_iterEEvT_S9_T0_T1_(i32* %59, i32* %61, i64 %57), !llfi_index !854
  %62 = bitcast %"class.__gnu_cxx::__normal_iterator"* %5 to i8*, !llfi_index !855
  %63 = bitcast %"class.__gnu_cxx::__normal_iterator"* %12 to i8*, !llfi_index !856
  call void @llvm.memcpy.p0i8.p0i8.i64(i8* align 8 %62, i8* align 8 %63, i64 8, i1 false), !llfi_index !857
  br label %21, !llvm.loop !858, !llfi_index !859

64:                                               ; preds = %27, %21
  ret void, !llfi_index !860
}

; Function Attrs: mustprogress noinline uwtable
define linkonce_odr dso_local void @_ZSt22__final_insertion_sortIN9__gnu_cxx17__normal_iteratorIPiSt6vectorIiSaIiEEEENS0_5__ops15_Iter_less_iterEEvT_S9_T0_(i32* %0, i32* %1) #4 comdat {
  %3 = alloca %"class.__gnu_cxx::__normal_iterator", align 8, !llfi_index !861
  %4 = alloca %"class.__gnu_cxx::__normal_iterator", align 8, !llfi_index !862
  %5 = alloca %"class.std::allocator", align 1, !llfi_index !863
  %6 = alloca %"class.__gnu_cxx::__normal_iterator", align 8, !llfi_index !864
  %7 = alloca %"class.__gnu_cxx::__normal_iterator", align 8, !llfi_index !865
  %8 = alloca %"class.std::allocator", align 1, !llfi_index !866
  %9 = alloca %"class.__gnu_cxx::__normal_iterator", align 8, !llfi_index !867
  %10 = alloca %"class.__gnu_cxx::__normal_iterator", align 8, !llfi_index !868
  %11 = alloca %"class.std::allocator", align 1, !llfi_index !869
  %12 = alloca %"class.__gnu_cxx::__normal_iterator", align 8, !llfi_index !870
  %13 = alloca %"class.__gnu_cxx::__normal_iterator", align 8, !llfi_index !871
  %14 = alloca %"class.std::allocator", align 1, !llfi_index !872
  %15 = getelementptr inbounds %"class.__gnu_cxx::__normal_iterator", %"class.__gnu_cxx::__normal_iterator"* %3, i32 0, i32 0, !llfi_index !873
  store i32* %0, i32** %15, align 8, !llfi_index !874
  %16 = getelementptr inbounds %"class.__gnu_cxx::__normal_iterator", %"class.__gnu_cxx::__normal_iterator"* %4, i32 0, i32 0, !llfi_index !875
  store i32* %1, i32** %16, align 8, !llfi_index !876
  %17 = call i64 @_ZN9__gnu_cxxmiIPiSt6vectorIiSaIiEEEENS_17__normal_iteratorIT_T0_E15difference_typeERKS8_SB_(%"class.__gnu_cxx::__normal_iterator"* nonnull align 8 dereferenceable(8) %4, %"class.__gnu_cxx::__normal_iterator"* nonnull align 8 dereferenceable(8) %3) #2, !llfi_index !877
  %18 = icmp sgt i64 %17, 16, !llfi_index !878
  br i1 %18, label %19, label %36, !llfi_index !879

19:                                               ; preds = %2
  %20 = bitcast %"class.__gnu_cxx::__normal_iterator"* %6 to i8*, !llfi_index !880
  %21 = bitcast %"class.__gnu_cxx::__normal_iterator"* %3 to i8*, !llfi_index !881
  call void @llvm.memcpy.p0i8.p0i8.i64(i8* align 8 %20, i8* align 8 %21, i64 8, i1 false), !llfi_index !882
  %22 = call i32* @_ZNK9__gnu_cxx17__normal_iteratorIPiSt6vectorIiSaIiEEEplEl(%"class.__gnu_cxx::__normal_iterator"* nonnull align 8 dereferenceable(8) %3, i64 16) #2, !llfi_index !883
  %23 = getelementptr inbounds %"class.__gnu_cxx::__normal_iterator", %"class.__gnu_cxx::__normal_iterator"* %7, i32 0, i32 0, !llfi_index !884
  store i32* %22, i32** %23, align 8, !llfi_index !885
  %24 = getelementptr inbounds %"class.__gnu_cxx::__normal_iterator", %"class.__gnu_cxx::__normal_iterator"* %6, i32 0, i32 0, !llfi_index !886
  %25 = load i32*, i32** %24, align 8, !llfi_index !887
  %26 = getelementptr inbounds %"class.__gnu_cxx::__normal_iterator", %"class.__gnu_cxx::__normal_iterator"* %7, i32 0, i32 0, !llfi_index !888
  %27 = load i32*, i32** %26, align 8, !llfi_index !889
  call void @_ZSt16__insertion_sortIN9__gnu_cxx17__normal_iteratorIPiSt6vectorIiSaIiEEEENS0_5__ops15_Iter_less_iterEEvT_S9_T0_(i32* %25, i32* %27), !llfi_index !890
  %28 = call i32* @_ZNK9__gnu_cxx17__normal_iteratorIPiSt6vectorIiSaIiEEEplEl(%"class.__gnu_cxx::__normal_iterator"* nonnull align 8 dereferenceable(8) %3, i64 16) #2, !llfi_index !891
  %29 = getelementptr inbounds %"class.__gnu_cxx::__normal_iterator", %"class.__gnu_cxx::__normal_iterator"* %9, i32 0, i32 0, !llfi_index !892
  store i32* %28, i32** %29, align 8, !llfi_index !893
  %30 = bitcast %"class.__gnu_cxx::__normal_iterator"* %10 to i8*, !llfi_index !894
  %31 = bitcast %"class.__gnu_cxx::__normal_iterator"* %4 to i8*, !llfi_index !895
  call void @llvm.memcpy.p0i8.p0i8.i64(i8* align 8 %30, i8* align 8 %31, i64 8, i1 false), !llfi_index !896
  %32 = getelementptr inbounds %"class.__gnu_cxx::__normal_iterator", %"class.__gnu_cxx::__normal_iterator"* %9, i32 0, i32 0, !llfi_index !897
  %33 = load i32*, i32** %32, align 8, !llfi_index !898
  %34 = getelementptr inbounds %"class.__gnu_cxx::__normal_iterator", %"class.__gnu_cxx::__normal_iterator"* %10, i32 0, i32 0, !llfi_index !899
  %35 = load i32*, i32** %34, align 8, !llfi_index !900
  call void @_ZSt26__unguarded_insertion_sortIN9__gnu_cxx17__normal_iteratorIPiSt6vectorIiSaIiEEEENS0_5__ops15_Iter_less_iterEEvT_S9_T0_(i32* %33, i32* %35), !llfi_index !901
  br label %45, !llfi_index !902

36:                                               ; preds = %2
  %37 = bitcast %"class.__gnu_cxx::__normal_iterator"* %12 to i8*, !llfi_index !903
  %38 = bitcast %"class.__gnu_cxx::__normal_iterator"* %3 to i8*, !llfi_index !904
  call void @llvm.memcpy.p0i8.p0i8.i64(i8* align 8 %37, i8* align 8 %38, i64 8, i1 false), !llfi_index !905
  %39 = bitcast %"class.__gnu_cxx::__normal_iterator"* %13 to i8*, !llfi_index !906
  %40 = bitcast %"class.__gnu_cxx::__normal_iterator"* %4 to i8*, !llfi_index !907
  call void @llvm.memcpy.p0i8.p0i8.i64(i8* align 8 %39, i8* align 8 %40, i64 8, i1 false), !llfi_index !908
  %41 = getelementptr inbounds %"class.__gnu_cxx::__normal_iterator", %"class.__gnu_cxx::__normal_iterator"* %12, i32 0, i32 0, !llfi_index !909
  %42 = load i32*, i32** %41, align 8, !llfi_index !910
  %43 = getelementptr inbounds %"class.__gnu_cxx::__normal_iterator", %"class.__gnu_cxx::__normal_iterator"* %13, i32 0, i32 0, !llfi_index !911
  %44 = load i32*, i32** %43, align 8, !llfi_index !912
  call void @_ZSt16__insertion_sortIN9__gnu_cxx17__normal_iteratorIPiSt6vectorIiSaIiEEEENS0_5__ops15_Iter_less_iterEEvT_S9_T0_(i32* %42, i32* %44), !llfi_index !913
  br label %45, !llfi_index !914

45:                                               ; preds = %36, %19
  ret void, !llfi_index !915
}

; Function Attrs: mustprogress noinline nounwind uwtable
define linkonce_odr dso_local i32* @_ZNK9__gnu_cxx17__normal_iteratorIPiSt6vectorIiSaIiEEEplEl(%"class.__gnu_cxx::__normal_iterator"* nonnull align 8 dereferenceable(8) %0, i64 %1) #3 comdat align 2 {
  %3 = alloca %"class.__gnu_cxx::__normal_iterator", align 8, !llfi_index !916
  %4 = alloca %"class.__gnu_cxx::__normal_iterator"*, align 8, !llfi_index !917
  %5 = alloca i64, align 8, !llfi_index !918
  %6 = alloca i32*, align 8, !llfi_index !919
  store %"class.__gnu_cxx::__normal_iterator"* %0, %"class.__gnu_cxx::__normal_iterator"** %4, align 8, !llfi_index !920
  store i64 %1, i64* %5, align 8, !llfi_index !921
  %7 = load %"class.__gnu_cxx::__normal_iterator"*, %"class.__gnu_cxx::__normal_iterator"** %4, align 8, !llfi_index !922
  %8 = getelementptr inbounds %"class.__gnu_cxx::__normal_iterator", %"class.__gnu_cxx::__normal_iterator"* %7, i32 0, i32 0, !llfi_index !923
  %9 = load i32*, i32** %8, align 8, !llfi_index !924
  %10 = load i64, i64* %5, align 8, !llfi_index !925
  %11 = getelementptr inbounds i32, i32* %9, i64 %10, !llfi_index !926
  store i32* %11, i32** %6, align 8, !llfi_index !927
  call void @_ZN9__gnu_cxx17__normal_iteratorIPiSt6vectorIiSaIiEEEC2ERKS1_(%"class.__gnu_cxx::__normal_iterator"* nonnull align 8 dereferenceable(8) %3, i32** nonnull align 8 dereferenceable(8) %6) #2, !llfi_index !928
  %12 = getelementptr inbounds %"class.__gnu_cxx::__normal_iterator", %"class.__gnu_cxx::__normal_iterator"* %3, i32 0, i32 0, !llfi_index !929
  %13 = load i32*, i32** %12, align 8, !llfi_index !930
  ret i32* %13, !llfi_index !931
}

; Function Attrs: mustprogress noinline uwtable
define linkonce_odr dso_local void @_ZSt16__insertion_sortIN9__gnu_cxx17__normal_iteratorIPiSt6vectorIiSaIiEEEENS0_5__ops15_Iter_less_iterEEvT_S9_T0_(i32* %0, i32* %1) #4 comdat {
  %3 = alloca %"class.__gnu_cxx::__normal_iterator", align 8, !llfi_index !932
  %4 = alloca %"class.__gnu_cxx::__normal_iterator", align 8, !llfi_index !933
  %5 = alloca %"class.std::allocator", align 1, !llfi_index !934
  %6 = alloca %"class.__gnu_cxx::__normal_iterator", align 8, !llfi_index !935
  %7 = alloca %"class.__gnu_cxx::__normal_iterator", align 8, !llfi_index !936
  %8 = alloca %"class.__gnu_cxx::__normal_iterator", align 8, !llfi_index !937
  %9 = alloca i32, align 4, !llfi_index !938
  %10 = alloca %"class.__gnu_cxx::__normal_iterator", align 8, !llfi_index !939
  %11 = alloca %"class.__gnu_cxx::__normal_iterator", align 8, !llfi_index !940
  %12 = alloca %"class.__gnu_cxx::__normal_iterator", align 8, !llfi_index !941
  %13 = alloca %"class.__gnu_cxx::__normal_iterator", align 8, !llfi_index !942
  %14 = alloca %"class.__gnu_cxx::__normal_iterator", align 8, !llfi_index !943
  %15 = alloca %"class.std::allocator", align 1, !llfi_index !944
  %16 = alloca %"class.std::allocator", align 1, !llfi_index !945
  %17 = alloca %"class.std::allocator", align 1, !llfi_index !946
  %18 = getelementptr inbounds %"class.__gnu_cxx::__normal_iterator", %"class.__gnu_cxx::__normal_iterator"* %3, i32 0, i32 0, !llfi_index !947
  store i32* %0, i32** %18, align 8, !llfi_index !948
  %19 = getelementptr inbounds %"class.__gnu_cxx::__normal_iterator", %"class.__gnu_cxx::__normal_iterator"* %4, i32 0, i32 0, !llfi_index !949
  store i32* %1, i32** %19, align 8, !llfi_index !950
  %20 = call zeroext i1 @_ZN9__gnu_cxxeqIPiSt6vectorIiSaIiEEEEbRKNS_17__normal_iteratorIT_T0_EESA_(%"class.__gnu_cxx::__normal_iterator"* nonnull align 8 dereferenceable(8) %3, %"class.__gnu_cxx::__normal_iterator"* nonnull align 8 dereferenceable(8) %4) #2, !llfi_index !951
  br i1 %20, label %21, label %22, !llfi_index !952

21:                                               ; preds = %2
  br label %66, !llfi_index !953

22:                                               ; preds = %2
  %23 = call i32* @_ZNK9__gnu_cxx17__normal_iteratorIPiSt6vectorIiSaIiEEEplEl(%"class.__gnu_cxx::__normal_iterator"* nonnull align 8 dereferenceable(8) %3, i64 1) #2, !llfi_index !954
  %24 = getelementptr inbounds %"class.__gnu_cxx::__normal_iterator", %"class.__gnu_cxx::__normal_iterator"* %6, i32 0, i32 0, !llfi_index !955
  store i32* %23, i32** %24, align 8, !llfi_index !956
  br label %25, !llfi_index !957

25:                                               ; preds = %64, %22
  %26 = call zeroext i1 @_ZN9__gnu_cxxneIPiSt6vectorIiSaIiEEEEbRKNS_17__normal_iteratorIT_T0_EESA_(%"class.__gnu_cxx::__normal_iterator"* nonnull align 8 dereferenceable(8) %6, %"class.__gnu_cxx::__normal_iterator"* nonnull align 8 dereferenceable(8) %4) #2, !llfi_index !958
  br i1 %26, label %27, label %66, !llfi_index !959

27:                                               ; preds = %25
  %28 = bitcast %"class.__gnu_cxx::__normal_iterator"* %7 to i8*, !llfi_index !960
  %29 = bitcast %"class.__gnu_cxx::__normal_iterator"* %6 to i8*, !llfi_index !961
  call void @llvm.memcpy.p0i8.p0i8.i64(i8* align 8 %28, i8* align 8 %29, i64 8, i1 false), !llfi_index !962
  %30 = bitcast %"class.__gnu_cxx::__normal_iterator"* %8 to i8*, !llfi_index !963
  %31 = bitcast %"class.__gnu_cxx::__normal_iterator"* %3 to i8*, !llfi_index !964
  call void @llvm.memcpy.p0i8.p0i8.i64(i8* align 8 %30, i8* align 8 %31, i64 8, i1 false), !llfi_index !965
  %32 = getelementptr inbounds %"class.__gnu_cxx::__normal_iterator", %"class.__gnu_cxx::__normal_iterator"* %7, i32 0, i32 0, !llfi_index !966
  %33 = load i32*, i32** %32, align 8, !llfi_index !967
  %34 = getelementptr inbounds %"class.__gnu_cxx::__normal_iterator", %"class.__gnu_cxx::__normal_iterator"* %8, i32 0, i32 0, !llfi_index !968
  %35 = load i32*, i32** %34, align 8, !llfi_index !969
  %36 = call zeroext i1 @_ZNK9__gnu_cxx5__ops15_Iter_less_iterclINS_17__normal_iteratorIPiSt6vectorIiSaIiEEEES8_EEbT_T0_(%"class.std::allocator"* nonnull align 1 dereferenceable(1) %5, i32* %33, i32* %35), !llfi_index !970
  br i1 %36, label %37, label %58, !llfi_index !971

37:                                               ; preds = %27
  %38 = call nonnull align 4 dereferenceable(4) i32* @_ZNK9__gnu_cxx17__normal_iteratorIPiSt6vectorIiSaIiEEEdeEv(%"class.__gnu_cxx::__normal_iterator"* nonnull align 8 dereferenceable(8) %6) #2, !llfi_index !972
  %39 = call nonnull align 4 dereferenceable(4) i32* @_ZSt4moveIRiEONSt16remove_referenceIT_E4typeEOS2_(i32* nonnull align 4 dereferenceable(4) %38) #2, !llfi_index !973
  %40 = load i32, i32* %39, align 4, !llfi_index !974
  store i32 %40, i32* %9, align 4, !llfi_index !975
  %41 = bitcast %"class.__gnu_cxx::__normal_iterator"* %10 to i8*, !llfi_index !976
  %42 = bitcast %"class.__gnu_cxx::__normal_iterator"* %3 to i8*, !llfi_index !977
  call void @llvm.memcpy.p0i8.p0i8.i64(i8* align 8 %41, i8* align 8 %42, i64 8, i1 false), !llfi_index !978
  %43 = bitcast %"class.__gnu_cxx::__normal_iterator"* %11 to i8*, !llfi_index !979
  %44 = bitcast %"class.__gnu_cxx::__normal_iterator"* %6 to i8*, !llfi_index !980
  call void @llvm.memcpy.p0i8.p0i8.i64(i8* align 8 %43, i8* align 8 %44, i64 8, i1 false), !llfi_index !981
  %45 = call i32* @_ZNK9__gnu_cxx17__normal_iteratorIPiSt6vectorIiSaIiEEEplEl(%"class.__gnu_cxx::__normal_iterator"* nonnull align 8 dereferenceable(8) %6, i64 1) #2, !llfi_index !982
  %46 = getelementptr inbounds %"class.__gnu_cxx::__normal_iterator", %"class.__gnu_cxx::__normal_iterator"* %12, i32 0, i32 0, !llfi_index !983
  store i32* %45, i32** %46, align 8, !llfi_index !984
  %47 = getelementptr inbounds %"class.__gnu_cxx::__normal_iterator", %"class.__gnu_cxx::__normal_iterator"* %10, i32 0, i32 0, !llfi_index !985
  %48 = load i32*, i32** %47, align 8, !llfi_index !986
  %49 = getelementptr inbounds %"class.__gnu_cxx::__normal_iterator", %"class.__gnu_cxx::__normal_iterator"* %11, i32 0, i32 0, !llfi_index !987
  %50 = load i32*, i32** %49, align 8, !llfi_index !988
  %51 = getelementptr inbounds %"class.__gnu_cxx::__normal_iterator", %"class.__gnu_cxx::__normal_iterator"* %12, i32 0, i32 0, !llfi_index !989
  %52 = load i32*, i32** %51, align 8, !llfi_index !990
  %53 = call i32* @_ZSt13move_backwardIN9__gnu_cxx17__normal_iteratorIPiSt6vectorIiSaIiEEEES6_ET0_T_S8_S7_(i32* %48, i32* %50, i32* %52), !llfi_index !991
  %54 = getelementptr inbounds %"class.__gnu_cxx::__normal_iterator", %"class.__gnu_cxx::__normal_iterator"* %13, i32 0, i32 0, !llfi_index !992
  store i32* %53, i32** %54, align 8, !llfi_index !993
  %55 = call nonnull align 4 dereferenceable(4) i32* @_ZSt4moveIRiEONSt16remove_referenceIT_E4typeEOS2_(i32* nonnull align 4 dereferenceable(4) %9) #2, !llfi_index !994
  %56 = load i32, i32* %55, align 4, !llfi_index !995
  %57 = call nonnull align 4 dereferenceable(4) i32* @_ZNK9__gnu_cxx17__normal_iteratorIPiSt6vectorIiSaIiEEEdeEv(%"class.__gnu_cxx::__normal_iterator"* nonnull align 8 dereferenceable(8) %3) #2, !llfi_index !996
  store i32 %56, i32* %57, align 4, !llfi_index !997
  br label %63, !llfi_index !998

58:                                               ; preds = %27
  %59 = bitcast %"class.__gnu_cxx::__normal_iterator"* %14 to i8*, !llfi_index !999
  %60 = bitcast %"class.__gnu_cxx::__normal_iterator"* %6 to i8*, !llfi_index !1000
  call void @llvm.memcpy.p0i8.p0i8.i64(i8* align 8 %59, i8* align 8 %60, i64 8, i1 false), !llfi_index !1001
  call void @_ZN9__gnu_cxx5__ops15__val_comp_iterENS0_15_Iter_less_iterE(), !llfi_index !1002
  %61 = getelementptr inbounds %"class.__gnu_cxx::__normal_iterator", %"class.__gnu_cxx::__normal_iterator"* %14, i32 0, i32 0, !llfi_index !1003
  %62 = load i32*, i32** %61, align 8, !llfi_index !1004
  call void @_ZSt25__unguarded_linear_insertIN9__gnu_cxx17__normal_iteratorIPiSt6vectorIiSaIiEEEENS0_5__ops14_Val_less_iterEEvT_T0_(i32* %62), !llfi_index !1005
  br label %63, !llfi_index !1006

63:                                               ; preds = %58, %37
  br label %64, !llfi_index !1007

64:                                               ; preds = %63
  %65 = call nonnull align 8 dereferenceable(8) %"class.__gnu_cxx::__normal_iterator"* @_ZN9__gnu_cxx17__normal_iteratorIPiSt6vectorIiSaIiEEEppEv(%"class.__gnu_cxx::__normal_iterator"* nonnull align 8 dereferenceable(8) %6) #2, !llfi_index !1008
  br label %25, !llvm.loop !1009, !llfi_index !1010

66:                                               ; preds = %25, %21
  ret void, !llfi_index !1011
}

; Function Attrs: mustprogress noinline uwtable
define linkonce_odr dso_local void @_ZSt26__unguarded_insertion_sortIN9__gnu_cxx17__normal_iteratorIPiSt6vectorIiSaIiEEEENS0_5__ops15_Iter_less_iterEEvT_S9_T0_(i32* %0, i32* %1) #4 comdat {
  %3 = alloca %"class.__gnu_cxx::__normal_iterator", align 8, !llfi_index !1012
  %4 = alloca %"class.__gnu_cxx::__normal_iterator", align 8, !llfi_index !1013
  %5 = alloca %"class.std::allocator", align 1, !llfi_index !1014
  %6 = alloca %"class.__gnu_cxx::__normal_iterator", align 8, !llfi_index !1015
  %7 = alloca %"class.__gnu_cxx::__normal_iterator", align 8, !llfi_index !1016
  %8 = alloca %"class.std::allocator", align 1, !llfi_index !1017
  %9 = alloca %"class.std::allocator", align 1, !llfi_index !1018
  %10 = alloca %"class.std::allocator", align 1, !llfi_index !1019
  %11 = getelementptr inbounds %"class.__gnu_cxx::__normal_iterator", %"class.__gnu_cxx::__normal_iterator"* %3, i32 0, i32 0, !llfi_index !1020
  store i32* %0, i32** %11, align 8, !llfi_index !1021
  %12 = getelementptr inbounds %"class.__gnu_cxx::__normal_iterator", %"class.__gnu_cxx::__normal_iterator"* %4, i32 0, i32 0, !llfi_index !1022
  store i32* %1, i32** %12, align 8, !llfi_index !1023
  %13 = bitcast %"class.__gnu_cxx::__normal_iterator"* %6 to i8*, !llfi_index !1024
  %14 = bitcast %"class.__gnu_cxx::__normal_iterator"* %3 to i8*, !llfi_index !1025
  call void @llvm.memcpy.p0i8.p0i8.i64(i8* align 8 %13, i8* align 8 %14, i64 8, i1 false), !llfi_index !1026
  br label %15, !llfi_index !1027

15:                                               ; preds = %22, %2
  %16 = call zeroext i1 @_ZN9__gnu_cxxneIPiSt6vectorIiSaIiEEEEbRKNS_17__normal_iteratorIT_T0_EESA_(%"class.__gnu_cxx::__normal_iterator"* nonnull align 8 dereferenceable(8) %6, %"class.__gnu_cxx::__normal_iterator"* nonnull align 8 dereferenceable(8) %4) #2, !llfi_index !1028
  br i1 %16, label %17, label %24, !llfi_index !1029

17:                                               ; preds = %15
  %18 = bitcast %"class.__gnu_cxx::__normal_iterator"* %7 to i8*, !llfi_index !1030
  %19 = bitcast %"class.__gnu_cxx::__normal_iterator"* %6 to i8*, !llfi_index !1031
  call void @llvm.memcpy.p0i8.p0i8.i64(i8* align 8 %18, i8* align 8 %19, i64 8, i1 false), !llfi_index !1032
  call void @_ZN9__gnu_cxx5__ops15__val_comp_iterENS0_15_Iter_less_iterE(), !llfi_index !1033
  %20 = getelementptr inbounds %"class.__gnu_cxx::__normal_iterator", %"class.__gnu_cxx::__normal_iterator"* %7, i32 0, i32 0, !llfi_index !1034
  %21 = load i32*, i32** %20, align 8, !llfi_index !1035
  call void @_ZSt25__unguarded_linear_insertIN9__gnu_cxx17__normal_iteratorIPiSt6vectorIiSaIiEEEENS0_5__ops14_Val_less_iterEEvT_T0_(i32* %21), !llfi_index !1036
  br label %22, !llfi_index !1037

22:                                               ; preds = %17
  %23 = call nonnull align 8 dereferenceable(8) %"class.__gnu_cxx::__normal_iterator"* @_ZN9__gnu_cxx17__normal_iteratorIPiSt6vectorIiSaIiEEEppEv(%"class.__gnu_cxx::__normal_iterator"* nonnull align 8 dereferenceable(8) %6) #2, !llfi_index !1038
  br label %15, !llvm.loop !1039, !llfi_index !1040

24:                                               ; preds = %15
  ret void, !llfi_index !1041
}

; Function Attrs: mustprogress noinline nounwind uwtable
define linkonce_odr dso_local void @_ZN9__gnu_cxx5__ops15__val_comp_iterENS0_15_Iter_less_iterE() #3 comdat {
  %1 = alloca %"class.std::allocator", align 1, !llfi_index !1042
  ret void, !llfi_index !1043
}

; Function Attrs: mustprogress noinline uwtable
define linkonce_odr dso_local void @_ZSt25__unguarded_linear_insertIN9__gnu_cxx17__normal_iteratorIPiSt6vectorIiSaIiEEEENS0_5__ops14_Val_less_iterEEvT_T0_(i32* %0) #4 comdat {
  %2 = alloca %"class.__gnu_cxx::__normal_iterator", align 8, !llfi_index !1044
  %3 = alloca %"class.std::allocator", align 1, !llfi_index !1045
  %4 = alloca i32, align 4, !llfi_index !1046
  %5 = alloca %"class.__gnu_cxx::__normal_iterator", align 8, !llfi_index !1047
  %6 = alloca %"class.__gnu_cxx::__normal_iterator", align 8, !llfi_index !1048
  %7 = getelementptr inbounds %"class.__gnu_cxx::__normal_iterator", %"class.__gnu_cxx::__normal_iterator"* %2, i32 0, i32 0, !llfi_index !1049
  store i32* %0, i32** %7, align 8, !llfi_index !1050
  %8 = call nonnull align 4 dereferenceable(4) i32* @_ZNK9__gnu_cxx17__normal_iteratorIPiSt6vectorIiSaIiEEEdeEv(%"class.__gnu_cxx::__normal_iterator"* nonnull align 8 dereferenceable(8) %2) #2, !llfi_index !1051
  %9 = call nonnull align 4 dereferenceable(4) i32* @_ZSt4moveIRiEONSt16remove_referenceIT_E4typeEOS2_(i32* nonnull align 4 dereferenceable(4) %8) #2, !llfi_index !1052
  %10 = load i32, i32* %9, align 4, !llfi_index !1053
  store i32 %10, i32* %4, align 4, !llfi_index !1054
  %11 = bitcast %"class.__gnu_cxx::__normal_iterator"* %5 to i8*, !llfi_index !1055
  %12 = bitcast %"class.__gnu_cxx::__normal_iterator"* %2 to i8*, !llfi_index !1056
  call void @llvm.memcpy.p0i8.p0i8.i64(i8* align 8 %11, i8* align 8 %12, i64 8, i1 false), !llfi_index !1057
  %13 = call nonnull align 8 dereferenceable(8) %"class.__gnu_cxx::__normal_iterator"* @_ZN9__gnu_cxx17__normal_iteratorIPiSt6vectorIiSaIiEEEmmEv(%"class.__gnu_cxx::__normal_iterator"* nonnull align 8 dereferenceable(8) %5) #2, !llfi_index !1058
  br label %14, !llfi_index !1059

14:                                               ; preds = %20, %1
  %15 = bitcast %"class.__gnu_cxx::__normal_iterator"* %6 to i8*, !llfi_index !1060
  %16 = bitcast %"class.__gnu_cxx::__normal_iterator"* %5 to i8*, !llfi_index !1061
  call void @llvm.memcpy.p0i8.p0i8.i64(i8* align 8 %15, i8* align 8 %16, i64 8, i1 false), !llfi_index !1062
  %17 = getelementptr inbounds %"class.__gnu_cxx::__normal_iterator", %"class.__gnu_cxx::__normal_iterator"* %6, i32 0, i32 0, !llfi_index !1063
  %18 = load i32*, i32** %17, align 8, !llfi_index !1064
  %19 = call zeroext i1 @_ZNK9__gnu_cxx5__ops14_Val_less_iterclIiNS_17__normal_iteratorIPiSt6vectorIiSaIiEEEEEEbRT_T0_(%"class.std::allocator"* nonnull align 1 dereferenceable(1) %3, i32* nonnull align 4 dereferenceable(4) %4, i32* %18), !llfi_index !1065
  br i1 %19, label %20, label %28, !llfi_index !1066

20:                                               ; preds = %14
  %21 = call nonnull align 4 dereferenceable(4) i32* @_ZNK9__gnu_cxx17__normal_iteratorIPiSt6vectorIiSaIiEEEdeEv(%"class.__gnu_cxx::__normal_iterator"* nonnull align 8 dereferenceable(8) %5) #2, !llfi_index !1067
  %22 = call nonnull align 4 dereferenceable(4) i32* @_ZSt4moveIRiEONSt16remove_referenceIT_E4typeEOS2_(i32* nonnull align 4 dereferenceable(4) %21) #2, !llfi_index !1068
  %23 = load i32, i32* %22, align 4, !llfi_index !1069
  %24 = call nonnull align 4 dereferenceable(4) i32* @_ZNK9__gnu_cxx17__normal_iteratorIPiSt6vectorIiSaIiEEEdeEv(%"class.__gnu_cxx::__normal_iterator"* nonnull align 8 dereferenceable(8) %2) #2, !llfi_index !1070
  store i32 %23, i32* %24, align 4, !llfi_index !1071
  %25 = bitcast %"class.__gnu_cxx::__normal_iterator"* %2 to i8*, !llfi_index !1072
  %26 = bitcast %"class.__gnu_cxx::__normal_iterator"* %5 to i8*, !llfi_index !1073
  call void @llvm.memcpy.p0i8.p0i8.i64(i8* align 8 %25, i8* align 8 %26, i64 8, i1 false), !llfi_index !1074
  %27 = call nonnull align 8 dereferenceable(8) %"class.__gnu_cxx::__normal_iterator"* @_ZN9__gnu_cxx17__normal_iteratorIPiSt6vectorIiSaIiEEEmmEv(%"class.__gnu_cxx::__normal_iterator"* nonnull align 8 dereferenceable(8) %5) #2, !llfi_index !1075
  br label %14, !llvm.loop !1076, !llfi_index !1077

28:                                               ; preds = %14
  %29 = call nonnull align 4 dereferenceable(4) i32* @_ZSt4moveIRiEONSt16remove_referenceIT_E4typeEOS2_(i32* nonnull align 4 dereferenceable(4) %4) #2, !llfi_index !1078
  %30 = load i32, i32* %29, align 4, !llfi_index !1079
  %31 = call nonnull align 4 dereferenceable(4) i32* @_ZNK9__gnu_cxx17__normal_iteratorIPiSt6vectorIiSaIiEEEdeEv(%"class.__gnu_cxx::__normal_iterator"* nonnull align 8 dereferenceable(8) %2) #2, !llfi_index !1080
  store i32 %30, i32* %31, align 4, !llfi_index !1081
  ret void, !llfi_index !1082
}

; Function Attrs: mustprogress noinline nounwind uwtable
define linkonce_odr dso_local nonnull align 8 dereferenceable(8) %"class.__gnu_cxx::__normal_iterator"* @_ZN9__gnu_cxx17__normal_iteratorIPiSt6vectorIiSaIiEEEppEv(%"class.__gnu_cxx::__normal_iterator"* nonnull align 8 dereferenceable(8) %0) #3 comdat align 2 {
  %2 = alloca %"class.__gnu_cxx::__normal_iterator"*, align 8, !llfi_index !1083
  store %"class.__gnu_cxx::__normal_iterator"* %0, %"class.__gnu_cxx::__normal_iterator"** %2, align 8, !llfi_index !1084
  %3 = load %"class.__gnu_cxx::__normal_iterator"*, %"class.__gnu_cxx::__normal_iterator"** %2, align 8, !llfi_index !1085
  %4 = getelementptr inbounds %"class.__gnu_cxx::__normal_iterator", %"class.__gnu_cxx::__normal_iterator"* %3, i32 0, i32 0, !llfi_index !1086
  %5 = load i32*, i32** %4, align 8, !llfi_index !1087
  %6 = getelementptr inbounds i32, i32* %5, i32 1, !llfi_index !1088
  store i32* %6, i32** %4, align 8, !llfi_index !1089
  ret %"class.__gnu_cxx::__normal_iterator"* %3, !llfi_index !1090
}

; Function Attrs: mustprogress noinline nounwind uwtable
define linkonce_odr dso_local nonnull align 4 dereferenceable(4) i32* @_ZNK9__gnu_cxx17__normal_iteratorIPiSt6vectorIiSaIiEEEdeEv(%"class.__gnu_cxx::__normal_iterator"* nonnull align 8 dereferenceable(8) %0) #3 comdat align 2 {
  %2 = alloca %"class.__gnu_cxx::__normal_iterator"*, align 8, !llfi_index !1091
  store %"class.__gnu_cxx::__normal_iterator"* %0, %"class.__gnu_cxx::__normal_iterator"** %2, align 8, !llfi_index !1092
  %3 = load %"class.__gnu_cxx::__normal_iterator"*, %"class.__gnu_cxx::__normal_iterator"** %2, align 8, !llfi_index !1093
  %4 = getelementptr inbounds %"class.__gnu_cxx::__normal_iterator", %"class.__gnu_cxx::__normal_iterator"* %3, i32 0, i32 0, !llfi_index !1094
  %5 = load i32*, i32** %4, align 8, !llfi_index !1095
  ret i32* %5, !llfi_index !1096
}

; Function Attrs: mustprogress noinline nounwind uwtable
define linkonce_odr dso_local nonnull align 8 dereferenceable(8) %"class.__gnu_cxx::__normal_iterator"* @_ZN9__gnu_cxx17__normal_iteratorIPiSt6vectorIiSaIiEEEmmEv(%"class.__gnu_cxx::__normal_iterator"* nonnull align 8 dereferenceable(8) %0) #3 comdat align 2 {
  %2 = alloca %"class.__gnu_cxx::__normal_iterator"*, align 8, !llfi_index !1097
  store %"class.__gnu_cxx::__normal_iterator"* %0, %"class.__gnu_cxx::__normal_iterator"** %2, align 8, !llfi_index !1098
  %3 = load %"class.__gnu_cxx::__normal_iterator"*, %"class.__gnu_cxx::__normal_iterator"** %2, align 8, !llfi_index !1099
  %4 = getelementptr inbounds %"class.__gnu_cxx::__normal_iterator", %"class.__gnu_cxx::__normal_iterator"* %3, i32 0, i32 0, !llfi_index !1100
  %5 = load i32*, i32** %4, align 8, !llfi_index !1101
  %6 = getelementptr inbounds i32, i32* %5, i32 -1, !llfi_index !1102
  store i32* %6, i32** %4, align 8, !llfi_index !1103
  ret %"class.__gnu_cxx::__normal_iterator"* %3, !llfi_index !1104
}

; Function Attrs: mustprogress noinline nounwind uwtable
define linkonce_odr dso_local zeroext i1 @_ZNK9__gnu_cxx5__ops14_Val_less_iterclIiNS_17__normal_iteratorIPiSt6vectorIiSaIiEEEEEEbRT_T0_(%"class.std::allocator"* nonnull align 1 dereferenceable(1) %0, i32* nonnull align 4 dereferenceable(4) %1, i32* %2) #3 comdat align 2 {
  %4 = alloca %"class.__gnu_cxx::__normal_iterator", align 8, !llfi_index !1105
  %5 = alloca %"class.std::allocator"*, align 8, !llfi_index !1106
  %6 = alloca i32*, align 8, !llfi_index !1107
  %7 = getelementptr inbounds %"class.__gnu_cxx::__normal_iterator", %"class.__gnu_cxx::__normal_iterator"* %4, i32 0, i32 0, !llfi_index !1108
  store i32* %2, i32** %7, align 8, !llfi_index !1109
  store %"class.std::allocator"* %0, %"class.std::allocator"** %5, align 8, !llfi_index !1110
  store i32* %1, i32** %6, align 8, !llfi_index !1111
  %8 = load %"class.std::allocator"*, %"class.std::allocator"** %5, align 8, !llfi_index !1112
  %9 = load i32*, i32** %6, align 8, !llfi_index !1113
  %10 = load i32, i32* %9, align 4, !llfi_index !1114
  %11 = call nonnull align 4 dereferenceable(4) i32* @_ZNK9__gnu_cxx17__normal_iteratorIPiSt6vectorIiSaIiEEEdeEv(%"class.__gnu_cxx::__normal_iterator"* nonnull align 8 dereferenceable(8) %4) #2, !llfi_index !1115
  %12 = load i32, i32* %11, align 4, !llfi_index !1116
  %13 = icmp slt i32 %10, %12, !llfi_index !1117
  ret i1 %13, !llfi_index !1118
}

; Function Attrs: mustprogress noinline nounwind uwtable
define linkonce_odr dso_local zeroext i1 @_ZN9__gnu_cxxeqIPiSt6vectorIiSaIiEEEEbRKNS_17__normal_iteratorIT_T0_EESA_(%"class.__gnu_cxx::__normal_iterator"* nonnull align 8 dereferenceable(8) %0, %"class.__gnu_cxx::__normal_iterator"* nonnull align 8 dereferenceable(8) %1) #3 comdat {
  %3 = alloca %"class.__gnu_cxx::__normal_iterator"*, align 8, !llfi_index !1119
  %4 = alloca %"class.__gnu_cxx::__normal_iterator"*, align 8, !llfi_index !1120
  store %"class.__gnu_cxx::__normal_iterator"* %0, %"class.__gnu_cxx::__normal_iterator"** %3, align 8, !llfi_index !1121
  store %"class.__gnu_cxx::__normal_iterator"* %1, %"class.__gnu_cxx::__normal_iterator"** %4, align 8, !llfi_index !1122
  %5 = load %"class.__gnu_cxx::__normal_iterator"*, %"class.__gnu_cxx::__normal_iterator"** %3, align 8, !llfi_index !1123
  %6 = call nonnull align 8 dereferenceable(8) i32** @_ZNK9__gnu_cxx17__normal_iteratorIPiSt6vectorIiSaIiEEE4baseEv(%"class.__gnu_cxx::__normal_iterator"* nonnull align 8 dereferenceable(8) %5) #2, !llfi_index !1124
  %7 = load i32*, i32** %6, align 8, !llfi_index !1125
  %8 = load %"class.__gnu_cxx::__normal_iterator"*, %"class.__gnu_cxx::__normal_iterator"** %4, align 8, !llfi_index !1126
  %9 = call nonnull align 8 dereferenceable(8) i32** @_ZNK9__gnu_cxx17__normal_iteratorIPiSt6vectorIiSaIiEEE4baseEv(%"class.__gnu_cxx::__normal_iterator"* nonnull align 8 dereferenceable(8) %8) #2, !llfi_index !1127
  %10 = load i32*, i32** %9, align 8, !llfi_index !1128
  %11 = icmp eq i32* %7, %10, !llfi_index !1129
  ret i1 %11, !llfi_index !1130
}

; Function Attrs: mustprogress noinline nounwind uwtable
define linkonce_odr dso_local zeroext i1 @_ZNK9__gnu_cxx5__ops15_Iter_less_iterclINS_17__normal_iteratorIPiSt6vectorIiSaIiEEEES8_EEbT_T0_(%"class.std::allocator"* nonnull align 1 dereferenceable(1) %0, i32* %1, i32* %2) #3 comdat align 2 {
  %4 = alloca %"class.__gnu_cxx::__normal_iterator", align 8, !llfi_index !1131
  %5 = alloca %"class.__gnu_cxx::__normal_iterator", align 8, !llfi_index !1132
  %6 = alloca %"class.std::allocator"*, align 8, !llfi_index !1133
  %7 = getelementptr inbounds %"class.__gnu_cxx::__normal_iterator", %"class.__gnu_cxx::__normal_iterator"* %4, i32 0, i32 0, !llfi_index !1134
  store i32* %1, i32** %7, align 8, !llfi_index !1135
  %8 = getelementptr inbounds %"class.__gnu_cxx::__normal_iterator", %"class.__gnu_cxx::__normal_iterator"* %5, i32 0, i32 0, !llfi_index !1136
  store i32* %2, i32** %8, align 8, !llfi_index !1137
  store %"class.std::allocator"* %0, %"class.std::allocator"** %6, align 8, !llfi_index !1138
  %9 = load %"class.std::allocator"*, %"class.std::allocator"** %6, align 8, !llfi_index !1139
  %10 = call nonnull align 4 dereferenceable(4) i32* @_ZNK9__gnu_cxx17__normal_iteratorIPiSt6vectorIiSaIiEEEdeEv(%"class.__gnu_cxx::__normal_iterator"* nonnull align 8 dereferenceable(8) %4) #2, !llfi_index !1140
  %11 = load i32, i32* %10, align 4, !llfi_index !1141
  %12 = call nonnull align 4 dereferenceable(4) i32* @_ZNK9__gnu_cxx17__normal_iteratorIPiSt6vectorIiSaIiEEEdeEv(%"class.__gnu_cxx::__normal_iterator"* nonnull align 8 dereferenceable(8) %5) #2, !llfi_index !1142
  %13 = load i32, i32* %12, align 4, !llfi_index !1143
  %14 = icmp slt i32 %11, %13, !llfi_index !1144
  ret i1 %14, !llfi_index !1145
}

; Function Attrs: mustprogress noinline uwtable
define linkonce_odr dso_local i32* @_ZSt13move_backwardIN9__gnu_cxx17__normal_iteratorIPiSt6vectorIiSaIiEEEES6_ET0_T_S8_S7_(i32* %0, i32* %1, i32* %2) #4 comdat {
  %4 = alloca %"class.__gnu_cxx::__normal_iterator", align 8, !llfi_index !1146
  %5 = alloca %"class.__gnu_cxx::__normal_iterator", align 8, !llfi_index !1147
  %6 = alloca %"class.__gnu_cxx::__normal_iterator", align 8, !llfi_index !1148
  %7 = alloca %"class.__gnu_cxx::__normal_iterator", align 8, !llfi_index !1149
  %8 = alloca %"class.__gnu_cxx::__normal_iterator", align 8, !llfi_index !1150
  %9 = alloca %"class.__gnu_cxx::__normal_iterator", align 8, !llfi_index !1151
  %10 = alloca %"class.__gnu_cxx::__normal_iterator", align 8, !llfi_index !1152
  %11 = alloca %"class.__gnu_cxx::__normal_iterator", align 8, !llfi_index !1153
  %12 = alloca %"class.__gnu_cxx::__normal_iterator", align 8, !llfi_index !1154
  %13 = getelementptr inbounds %"class.__gnu_cxx::__normal_iterator", %"class.__gnu_cxx::__normal_iterator"* %5, i32 0, i32 0, !llfi_index !1155
  store i32* %0, i32** %13, align 8, !llfi_index !1156
  %14 = getelementptr inbounds %"class.__gnu_cxx::__normal_iterator", %"class.__gnu_cxx::__normal_iterator"* %6, i32 0, i32 0, !llfi_index !1157
  store i32* %1, i32** %14, align 8, !llfi_index !1158
  %15 = getelementptr inbounds %"class.__gnu_cxx::__normal_iterator", %"class.__gnu_cxx::__normal_iterator"* %7, i32 0, i32 0, !llfi_index !1159
  store i32* %2, i32** %15, align 8, !llfi_index !1160
  %16 = bitcast %"class.__gnu_cxx::__normal_iterator"* %9 to i8*, !llfi_index !1161
  %17 = bitcast %"class.__gnu_cxx::__normal_iterator"* %5 to i8*, !llfi_index !1162
  call void @llvm.memcpy.p0i8.p0i8.i64(i8* align 8 %16, i8* align 8 %17, i64 8, i1 false), !llfi_index !1163
  %18 = getelementptr inbounds %"class.__gnu_cxx::__normal_iterator", %"class.__gnu_cxx::__normal_iterator"* %9, i32 0, i32 0, !llfi_index !1164
  %19 = load i32*, i32** %18, align 8, !llfi_index !1165
  %20 = call i32* @_ZSt12__miter_baseIN9__gnu_cxx17__normal_iteratorIPiSt6vectorIiSaIiEEEEET_S7_(i32* %19), !llfi_index !1166
  %21 = getelementptr inbounds %"class.__gnu_cxx::__normal_iterator", %"class.__gnu_cxx::__normal_iterator"* %8, i32 0, i32 0, !llfi_index !1167
  store i32* %20, i32** %21, align 8, !llfi_index !1168
  %22 = bitcast %"class.__gnu_cxx::__normal_iterator"* %11 to i8*, !llfi_index !1169
  %23 = bitcast %"class.__gnu_cxx::__normal_iterator"* %6 to i8*, !llfi_index !1170
  call void @llvm.memcpy.p0i8.p0i8.i64(i8* align 8 %22, i8* align 8 %23, i64 8, i1 false), !llfi_index !1171
  %24 = getelementptr inbounds %"class.__gnu_cxx::__normal_iterator", %"class.__gnu_cxx::__normal_iterator"* %11, i32 0, i32 0, !llfi_index !1172
  %25 = load i32*, i32** %24, align 8, !llfi_index !1173
  %26 = call i32* @_ZSt12__miter_baseIN9__gnu_cxx17__normal_iteratorIPiSt6vectorIiSaIiEEEEET_S7_(i32* %25), !llfi_index !1174
  %27 = getelementptr inbounds %"class.__gnu_cxx::__normal_iterator", %"class.__gnu_cxx::__normal_iterator"* %10, i32 0, i32 0, !llfi_index !1175
  store i32* %26, i32** %27, align 8, !llfi_index !1176
  %28 = bitcast %"class.__gnu_cxx::__normal_iterator"* %12 to i8*, !llfi_index !1177
  %29 = bitcast %"class.__gnu_cxx::__normal_iterator"* %7 to i8*, !llfi_index !1178
  call void @llvm.memcpy.p0i8.p0i8.i64(i8* align 8 %28, i8* align 8 %29, i64 8, i1 false), !llfi_index !1179
  %30 = getelementptr inbounds %"class.__gnu_cxx::__normal_iterator", %"class.__gnu_cxx::__normal_iterator"* %8, i32 0, i32 0, !llfi_index !1180
  %31 = load i32*, i32** %30, align 8, !llfi_index !1181
  %32 = getelementptr inbounds %"class.__gnu_cxx::__normal_iterator", %"class.__gnu_cxx::__normal_iterator"* %10, i32 0, i32 0, !llfi_index !1182
  %33 = load i32*, i32** %32, align 8, !llfi_index !1183
  %34 = getelementptr inbounds %"class.__gnu_cxx::__normal_iterator", %"class.__gnu_cxx::__normal_iterator"* %12, i32 0, i32 0, !llfi_index !1184
  %35 = load i32*, i32** %34, align 8, !llfi_index !1185
  %36 = call i32* @_ZSt23__copy_move_backward_a2ILb1EN9__gnu_cxx17__normal_iteratorIPiSt6vectorIiSaIiEEEES6_ET1_T0_S8_S7_(i32* %31, i32* %33, i32* %35), !llfi_index !1186
  %37 = getelementptr inbounds %"class.__gnu_cxx::__normal_iterator", %"class.__gnu_cxx::__normal_iterator"* %4, i32 0, i32 0, !llfi_index !1187
  store i32* %36, i32** %37, align 8, !llfi_index !1188
  %38 = getelementptr inbounds %"class.__gnu_cxx::__normal_iterator", %"class.__gnu_cxx::__normal_iterator"* %4, i32 0, i32 0, !llfi_index !1189
  %39 = load i32*, i32** %38, align 8, !llfi_index !1190
  ret i32* %39, !llfi_index !1191
}

; Function Attrs: mustprogress noinline nounwind uwtable
define linkonce_odr dso_local i32* @_ZSt12__miter_baseIN9__gnu_cxx17__normal_iteratorIPiSt6vectorIiSaIiEEEEET_S7_(i32* %0) #3 comdat {
  %2 = alloca %"class.__gnu_cxx::__normal_iterator", align 8, !llfi_index !1192
  %3 = alloca %"class.__gnu_cxx::__normal_iterator", align 8, !llfi_index !1193
  %4 = getelementptr inbounds %"class.__gnu_cxx::__normal_iterator", %"class.__gnu_cxx::__normal_iterator"* %3, i32 0, i32 0, !llfi_index !1194
  store i32* %0, i32** %4, align 8, !llfi_index !1195
  %5 = bitcast %"class.__gnu_cxx::__normal_iterator"* %2 to i8*, !llfi_index !1196
  %6 = bitcast %"class.__gnu_cxx::__normal_iterator"* %3 to i8*, !llfi_index !1197
  call void @llvm.memcpy.p0i8.p0i8.i64(i8* align 8 %5, i8* align 8 %6, i64 8, i1 false), !llfi_index !1198
  %7 = getelementptr inbounds %"class.__gnu_cxx::__normal_iterator", %"class.__gnu_cxx::__normal_iterator"* %2, i32 0, i32 0, !llfi_index !1199
  %8 = load i32*, i32** %7, align 8, !llfi_index !1200
  ret i32* %8, !llfi_index !1201
}

; Function Attrs: mustprogress noinline uwtable
define linkonce_odr dso_local i32* @_ZSt23__copy_move_backward_a2ILb1EN9__gnu_cxx17__normal_iteratorIPiSt6vectorIiSaIiEEEES6_ET1_T0_S8_S7_(i32* %0, i32* %1, i32* %2) #4 comdat {
  %4 = alloca %"class.__gnu_cxx::__normal_iterator", align 8, !llfi_index !1202
  %5 = alloca %"class.__gnu_cxx::__normal_iterator", align 8, !llfi_index !1203
  %6 = alloca %"class.__gnu_cxx::__normal_iterator", align 8, !llfi_index !1204
  %7 = alloca %"class.__gnu_cxx::__normal_iterator", align 8, !llfi_index !1205
  %8 = alloca %"class.__gnu_cxx::__normal_iterator", align 8, !llfi_index !1206
  %9 = alloca %"class.__gnu_cxx::__normal_iterator", align 8, !llfi_index !1207
  %10 = alloca %"class.__gnu_cxx::__normal_iterator", align 8, !llfi_index !1208
  %11 = alloca %"class.__gnu_cxx::__normal_iterator", align 8, !llfi_index !1209
  %12 = getelementptr inbounds %"class.__gnu_cxx::__normal_iterator", %"class.__gnu_cxx::__normal_iterator"* %5, i32 0, i32 0, !llfi_index !1210
  store i32* %0, i32** %12, align 8, !llfi_index !1211
  %13 = getelementptr inbounds %"class.__gnu_cxx::__normal_iterator", %"class.__gnu_cxx::__normal_iterator"* %6, i32 0, i32 0, !llfi_index !1212
  store i32* %1, i32** %13, align 8, !llfi_index !1213
  %14 = getelementptr inbounds %"class.__gnu_cxx::__normal_iterator", %"class.__gnu_cxx::__normal_iterator"* %7, i32 0, i32 0, !llfi_index !1214
  store i32* %2, i32** %14, align 8, !llfi_index !1215
  %15 = bitcast %"class.__gnu_cxx::__normal_iterator"* %8 to i8*, !llfi_index !1216
  %16 = bitcast %"class.__gnu_cxx::__normal_iterator"* %7 to i8*, !llfi_index !1217
  call void @llvm.memcpy.p0i8.p0i8.i64(i8* align 8 %15, i8* align 8 %16, i64 8, i1 false), !llfi_index !1218
  %17 = bitcast %"class.__gnu_cxx::__normal_iterator"* %9 to i8*, !llfi_index !1219
  %18 = bitcast %"class.__gnu_cxx::__normal_iterator"* %5 to i8*, !llfi_index !1220
  call void @llvm.memcpy.p0i8.p0i8.i64(i8* align 8 %17, i8* align 8 %18, i64 8, i1 false), !llfi_index !1221
  %19 = getelementptr inbounds %"class.__gnu_cxx::__normal_iterator", %"class.__gnu_cxx::__normal_iterator"* %9, i32 0, i32 0, !llfi_index !1222
  %20 = load i32*, i32** %19, align 8, !llfi_index !1223
  %21 = call i32* @_ZSt12__niter_baseIPiSt6vectorIiSaIiEEET_N9__gnu_cxx17__normal_iteratorIS4_T0_EE(i32* %20) #2, !llfi_index !1224
  %22 = bitcast %"class.__gnu_cxx::__normal_iterator"* %10 to i8*, !llfi_index !1225
  %23 = bitcast %"class.__gnu_cxx::__normal_iterator"* %6 to i8*, !llfi_index !1226
  call void @llvm.memcpy.p0i8.p0i8.i64(i8* align 8 %22, i8* align 8 %23, i64 8, i1 false), !llfi_index !1227
  %24 = getelementptr inbounds %"class.__gnu_cxx::__normal_iterator", %"class.__gnu_cxx::__normal_iterator"* %10, i32 0, i32 0, !llfi_index !1228
  %25 = load i32*, i32** %24, align 8, !llfi_index !1229
  %26 = call i32* @_ZSt12__niter_baseIPiSt6vectorIiSaIiEEET_N9__gnu_cxx17__normal_iteratorIS4_T0_EE(i32* %25) #2, !llfi_index !1230
  %27 = bitcast %"class.__gnu_cxx::__normal_iterator"* %11 to i8*, !llfi_index !1231
  %28 = bitcast %"class.__gnu_cxx::__normal_iterator"* %7 to i8*, !llfi_index !1232
  call void @llvm.memcpy.p0i8.p0i8.i64(i8* align 8 %27, i8* align 8 %28, i64 8, i1 false), !llfi_index !1233
  %29 = getelementptr inbounds %"class.__gnu_cxx::__normal_iterator", %"class.__gnu_cxx::__normal_iterator"* %11, i32 0, i32 0, !llfi_index !1234
  %30 = load i32*, i32** %29, align 8, !llfi_index !1235
  %31 = call i32* @_ZSt12__niter_baseIPiSt6vectorIiSaIiEEET_N9__gnu_cxx17__normal_iteratorIS4_T0_EE(i32* %30) #2, !llfi_index !1236
  %32 = call i32* @_ZSt22__copy_move_backward_aILb1EPiS0_ET1_T0_S2_S1_(i32* %21, i32* %26, i32* %31), !llfi_index !1237
  %33 = getelementptr inbounds %"class.__gnu_cxx::__normal_iterator", %"class.__gnu_cxx::__normal_iterator"* %8, i32 0, i32 0, !llfi_index !1238
  %34 = load i32*, i32** %33, align 8, !llfi_index !1239
  %35 = call i32* @_ZSt12__niter_wrapIN9__gnu_cxx17__normal_iteratorIPiSt6vectorIiSaIiEEEES2_ET_S7_T0_(i32* %34, i32* %32), !llfi_index !1240
  %36 = getelementptr inbounds %"class.__gnu_cxx::__normal_iterator", %"class.__gnu_cxx::__normal_iterator"* %4, i32 0, i32 0, !llfi_index !1241
  store i32* %35, i32** %36, align 8, !llfi_index !1242
  %37 = getelementptr inbounds %"class.__gnu_cxx::__normal_iterator", %"class.__gnu_cxx::__normal_iterator"* %4, i32 0, i32 0, !llfi_index !1243
  %38 = load i32*, i32** %37, align 8, !llfi_index !1244
  ret i32* %38, !llfi_index !1245
}

; Function Attrs: mustprogress noinline nounwind uwtable
define linkonce_odr dso_local i32* @_ZSt12__niter_baseIPiSt6vectorIiSaIiEEET_N9__gnu_cxx17__normal_iteratorIS4_T0_EE(i32* %0) #3 comdat {
  %2 = alloca %"class.__gnu_cxx::__normal_iterator", align 8, !llfi_index !1246
  %3 = getelementptr inbounds %"class.__gnu_cxx::__normal_iterator", %"class.__gnu_cxx::__normal_iterator"* %2, i32 0, i32 0, !llfi_index !1247
  store i32* %0, i32** %3, align 8, !llfi_index !1248
  %4 = call nonnull align 8 dereferenceable(8) i32** @_ZNK9__gnu_cxx17__normal_iteratorIPiSt6vectorIiSaIiEEE4baseEv(%"class.__gnu_cxx::__normal_iterator"* nonnull align 8 dereferenceable(8) %2) #2, !llfi_index !1249
  %5 = load i32*, i32** %4, align 8, !llfi_index !1250
  ret i32* %5, !llfi_index !1251
}

; Function Attrs: mustprogress noinline uwtable
define linkonce_odr dso_local i32* @_ZSt22__copy_move_backward_aILb1EPiS0_ET1_T0_S2_S1_(i32* %0, i32* %1, i32* %2) #4 comdat {
  %4 = alloca i32*, align 8, !llfi_index !1252
  %5 = alloca i32*, align 8, !llfi_index !1253
  %6 = alloca i32*, align 8, !llfi_index !1254
  %7 = alloca i8, align 1, !llfi_index !1255
  store i32* %0, i32** %4, align 8, !llfi_index !1256
  store i32* %1, i32** %5, align 8, !llfi_index !1257
  store i32* %2, i32** %6, align 8, !llfi_index !1258
  store i8 1, i8* %7, align 1, !llfi_index !1259
  %8 = load i32*, i32** %4, align 8, !llfi_index !1260
  %9 = load i32*, i32** %5, align 8, !llfi_index !1261
  %10 = load i32*, i32** %6, align 8, !llfi_index !1262
  %11 = call i32* @_ZNSt20__copy_move_backwardILb1ELb1ESt26random_access_iterator_tagE13__copy_move_bIiEEPT_PKS3_S6_S4_(i32* %8, i32* %9, i32* %10), !llfi_index !1263
  ret i32* %11, !llfi_index !1264
}

; Function Attrs: mustprogress noinline nounwind uwtable
define linkonce_odr dso_local i32* @_ZSt12__niter_wrapIN9__gnu_cxx17__normal_iteratorIPiSt6vectorIiSaIiEEEES2_ET_S7_T0_(i32* %0, i32* %1) #3 comdat {
  %3 = alloca %"class.__gnu_cxx::__normal_iterator", align 8, !llfi_index !1265
  %4 = alloca %"class.__gnu_cxx::__normal_iterator", align 8, !llfi_index !1266
  %5 = alloca i32*, align 8, !llfi_index !1267
  %6 = alloca %"class.__gnu_cxx::__normal_iterator", align 8, !llfi_index !1268
  %7 = getelementptr inbounds %"class.__gnu_cxx::__normal_iterator", %"class.__gnu_cxx::__normal_iterator"* %4, i32 0, i32 0, !llfi_index !1269
  store i32* %0, i32** %7, align 8, !llfi_index !1270
  store i32* %1, i32** %5, align 8, !llfi_index !1271
  %8 = load i32*, i32** %5, align 8, !llfi_index !1272
  %9 = bitcast %"class.__gnu_cxx::__normal_iterator"* %6 to i8*, !llfi_index !1273
  %10 = bitcast %"class.__gnu_cxx::__normal_iterator"* %4 to i8*, !llfi_index !1274
  call void @llvm.memcpy.p0i8.p0i8.i64(i8* align 8 %9, i8* align 8 %10, i64 8, i1 false), !llfi_index !1275
  %11 = getelementptr inbounds %"class.__gnu_cxx::__normal_iterator", %"class.__gnu_cxx::__normal_iterator"* %6, i32 0, i32 0, !llfi_index !1276
  %12 = load i32*, i32** %11, align 8, !llfi_index !1277
  %13 = call i32* @_ZSt12__niter_baseIPiSt6vectorIiSaIiEEET_N9__gnu_cxx17__normal_iteratorIS4_T0_EE(i32* %12) #2, !llfi_index !1278
  %14 = ptrtoint i32* %8 to i64, !llfi_index !1279
  %15 = ptrtoint i32* %13 to i64, !llfi_index !1280
  %16 = sub i64 %14, %15, !llfi_index !1281
  %17 = sdiv exact i64 %16, 4, !llfi_index !1282
  %18 = call i32* @_ZNK9__gnu_cxx17__normal_iteratorIPiSt6vectorIiSaIiEEEplEl(%"class.__gnu_cxx::__normal_iterator"* nonnull align 8 dereferenceable(8) %4, i64 %17) #2, !llfi_index !1283
  %19 = getelementptr inbounds %"class.__gnu_cxx::__normal_iterator", %"class.__gnu_cxx::__normal_iterator"* %3, i32 0, i32 0, !llfi_index !1284
  store i32* %18, i32** %19, align 8, !llfi_index !1285
  %20 = getelementptr inbounds %"class.__gnu_cxx::__normal_iterator", %"class.__gnu_cxx::__normal_iterator"* %3, i32 0, i32 0, !llfi_index !1286
  %21 = load i32*, i32** %20, align 8, !llfi_index !1287
  ret i32* %21, !llfi_index !1288
}

; Function Attrs: mustprogress noinline nounwind uwtable
define linkonce_odr dso_local i32* @_ZNSt20__copy_move_backwardILb1ELb1ESt26random_access_iterator_tagE13__copy_move_bIiEEPT_PKS3_S6_S4_(i32* %0, i32* %1, i32* %2) #3 comdat align 2 {
  %4 = alloca i32*, align 8, !llfi_index !1289
  %5 = alloca i32*, align 8, !llfi_index !1290
  %6 = alloca i32*, align 8, !llfi_index !1291
  %7 = alloca i64, align 8, !llfi_index !1292
  store i32* %0, i32** %4, align 8, !llfi_index !1293
  store i32* %1, i32** %5, align 8, !llfi_index !1294
  store i32* %2, i32** %6, align 8, !llfi_index !1295
  %8 = load i32*, i32** %5, align 8, !llfi_index !1296
  %9 = load i32*, i32** %4, align 8, !llfi_index !1297
  %10 = ptrtoint i32* %8 to i64, !llfi_index !1298
  %11 = ptrtoint i32* %9 to i64, !llfi_index !1299
  %12 = sub i64 %10, %11, !llfi_index !1300
  %13 = sdiv exact i64 %12, 4, !llfi_index !1301
  store i64 %13, i64* %7, align 8, !llfi_index !1302
  %14 = load i64, i64* %7, align 8, !llfi_index !1303
  %15 = icmp ne i64 %14, 0, !llfi_index !1304
  br i1 %15, label %16, label %26, !llfi_index !1305

16:                                               ; preds = %3
  %17 = load i32*, i32** %6, align 8, !llfi_index !1306
  %18 = load i64, i64* %7, align 8, !llfi_index !1307
  %19 = sub i64 0, %18, !llfi_index !1308
  %20 = getelementptr inbounds i32, i32* %17, i64 %19, !llfi_index !1309
  %21 = bitcast i32* %20 to i8*, !llfi_index !1310
  %22 = load i32*, i32** %4, align 8, !llfi_index !1311
  %23 = bitcast i32* %22 to i8*, !llfi_index !1312
  %24 = load i64, i64* %7, align 8, !llfi_index !1313
  %25 = mul i64 4, %24, !llfi_index !1314
  call void @llvm.memmove.p0i8.p0i8.i64(i8* align 4 %21, i8* align 4 %23, i64 %25, i1 false), !llfi_index !1315
  br label %26, !llfi_index !1316

26:                                               ; preds = %16, %3
  %27 = load i32*, i32** %6, align 8, !llfi_index !1317
  %28 = load i64, i64* %7, align 8, !llfi_index !1318
  %29 = sub i64 0, %28, !llfi_index !1319
  %30 = getelementptr inbounds i32, i32* %27, i64 %29, !llfi_index !1320
  ret i32* %30, !llfi_index !1321
}

; Function Attrs: argmemonly nofree nounwind willreturn
declare void @llvm.memmove.p0i8.p0i8.i64(i8* nocapture writeonly, i8* nocapture readonly, i64, i1 immarg) #10

; Function Attrs: mustprogress noinline nounwind uwtable
define linkonce_odr dso_local nonnull align 8 dereferenceable(8) i32** @_ZNK9__gnu_cxx17__normal_iteratorIPiSt6vectorIiSaIiEEE4baseEv(%"class.__gnu_cxx::__normal_iterator"* nonnull align 8 dereferenceable(8) %0) #3 comdat align 2 {
  %2 = alloca %"class.__gnu_cxx::__normal_iterator"*, align 8, !llfi_index !1322
  store %"class.__gnu_cxx::__normal_iterator"* %0, %"class.__gnu_cxx::__normal_iterator"** %2, align 8, !llfi_index !1323
  %3 = load %"class.__gnu_cxx::__normal_iterator"*, %"class.__gnu_cxx::__normal_iterator"** %2, align 8, !llfi_index !1324
  %4 = getelementptr inbounds %"class.__gnu_cxx::__normal_iterator", %"class.__gnu_cxx::__normal_iterator"* %3, i32 0, i32 0, !llfi_index !1325
  ret i32** %4, !llfi_index !1326
}

; Function Attrs: noinline nounwind uwtable
define linkonce_odr dso_local void @_ZN9__gnu_cxx17__normal_iteratorIPiSt6vectorIiSaIiEEEC2ERKS1_(%"class.__gnu_cxx::__normal_iterator"* nonnull align 8 dereferenceable(8) %0, i32** nonnull align 8 dereferenceable(8) %1) unnamed_addr #1 comdat align 2 {
  %3 = alloca %"class.__gnu_cxx::__normal_iterator"*, align 8, !llfi_index !1327
  %4 = alloca i32**, align 8, !llfi_index !1328
  store %"class.__gnu_cxx::__normal_iterator"* %0, %"class.__gnu_cxx::__normal_iterator"** %3, align 8, !llfi_index !1329
  store i32** %1, i32*** %4, align 8, !llfi_index !1330
  %5 = load %"class.__gnu_cxx::__normal_iterator"*, %"class.__gnu_cxx::__normal_iterator"** %3, align 8, !llfi_index !1331
  %6 = getelementptr inbounds %"class.__gnu_cxx::__normal_iterator", %"class.__gnu_cxx::__normal_iterator"* %5, i32 0, i32 0, !llfi_index !1332
  %7 = load i32**, i32*** %4, align 8, !llfi_index !1333
  %8 = load i32*, i32** %7, align 8, !llfi_index !1334
  store i32* %8, i32** %6, align 8, !llfi_index !1335
  ret void, !llfi_index !1336
}

; Function Attrs: mustprogress noinline uwtable
define linkonce_odr dso_local void @_ZSt14__partial_sortIN9__gnu_cxx17__normal_iteratorIPiSt6vectorIiSaIiEEEENS0_5__ops15_Iter_less_iterEEvT_S9_S9_T0_(i32* %0, i32* %1, i32* %2) #4 comdat {
  %4 = alloca %"class.__gnu_cxx::__normal_iterator", align 8, !llfi_index !1337
  %5 = alloca %"class.__gnu_cxx::__normal_iterator", align 8, !llfi_index !1338
  %6 = alloca %"class.__gnu_cxx::__normal_iterator", align 8, !llfi_index !1339
  %7 = alloca %"class.std::allocator", align 1, !llfi_index !1340
  %8 = alloca %"class.__gnu_cxx::__normal_iterator", align 8, !llfi_index !1341
  %9 = alloca %"class.__gnu_cxx::__normal_iterator", align 8, !llfi_index !1342
  %10 = alloca %"class.__gnu_cxx::__normal_iterator", align 8, !llfi_index !1343
  %11 = alloca %"class.std::allocator", align 1, !llfi_index !1344
  %12 = alloca %"class.__gnu_cxx::__normal_iterator", align 8, !llfi_index !1345
  %13 = alloca %"class.__gnu_cxx::__normal_iterator", align 8, !llfi_index !1346
  %14 = getelementptr inbounds %"class.__gnu_cxx::__normal_iterator", %"class.__gnu_cxx::__normal_iterator"* %4, i32 0, i32 0, !llfi_index !1347
  store i32* %0, i32** %14, align 8, !llfi_index !1348
  %15 = getelementptr inbounds %"class.__gnu_cxx::__normal_iterator", %"class.__gnu_cxx::__normal_iterator"* %5, i32 0, i32 0, !llfi_index !1349
  store i32* %1, i32** %15, align 8, !llfi_index !1350
  %16 = getelementptr inbounds %"class.__gnu_cxx::__normal_iterator", %"class.__gnu_cxx::__normal_iterator"* %6, i32 0, i32 0, !llfi_index !1351
  store i32* %2, i32** %16, align 8, !llfi_index !1352
  %17 = bitcast %"class.__gnu_cxx::__normal_iterator"* %8 to i8*, !llfi_index !1353
  %18 = bitcast %"class.__gnu_cxx::__normal_iterator"* %4 to i8*, !llfi_index !1354
  call void @llvm.memcpy.p0i8.p0i8.i64(i8* align 8 %17, i8* align 8 %18, i64 8, i1 false), !llfi_index !1355
  %19 = bitcast %"class.__gnu_cxx::__normal_iterator"* %9 to i8*, !llfi_index !1356
  %20 = bitcast %"class.__gnu_cxx::__normal_iterator"* %5 to i8*, !llfi_index !1357
  call void @llvm.memcpy.p0i8.p0i8.i64(i8* align 8 %19, i8* align 8 %20, i64 8, i1 false), !llfi_index !1358
  %21 = bitcast %"class.__gnu_cxx::__normal_iterator"* %10 to i8*, !llfi_index !1359
  %22 = bitcast %"class.__gnu_cxx::__normal_iterator"* %6 to i8*, !llfi_index !1360
  call void @llvm.memcpy.p0i8.p0i8.i64(i8* align 8 %21, i8* align 8 %22, i64 8, i1 false), !llfi_index !1361
  %23 = getelementptr inbounds %"class.__gnu_cxx::__normal_iterator", %"class.__gnu_cxx::__normal_iterator"* %8, i32 0, i32 0, !llfi_index !1362
  %24 = load i32*, i32** %23, align 8, !llfi_index !1363
  %25 = getelementptr inbounds %"class.__gnu_cxx::__normal_iterator", %"class.__gnu_cxx::__normal_iterator"* %9, i32 0, i32 0, !llfi_index !1364
  %26 = load i32*, i32** %25, align 8, !llfi_index !1365
  %27 = getelementptr inbounds %"class.__gnu_cxx::__normal_iterator", %"class.__gnu_cxx::__normal_iterator"* %10, i32 0, i32 0, !llfi_index !1366
  %28 = load i32*, i32** %27, align 8, !llfi_index !1367
  call void @_ZSt13__heap_selectIN9__gnu_cxx17__normal_iteratorIPiSt6vectorIiSaIiEEEENS0_5__ops15_Iter_less_iterEEvT_S9_S9_T0_(i32* %24, i32* %26, i32* %28), !llfi_index !1368
  %29 = bitcast %"class.__gnu_cxx::__normal_iterator"* %12 to i8*, !llfi_index !1369
  %30 = bitcast %"class.__gnu_cxx::__normal_iterator"* %4 to i8*, !llfi_index !1370
  call void @llvm.memcpy.p0i8.p0i8.i64(i8* align 8 %29, i8* align 8 %30, i64 8, i1 false), !llfi_index !1371
  %31 = bitcast %"class.__gnu_cxx::__normal_iterator"* %13 to i8*, !llfi_index !1372
  %32 = bitcast %"class.__gnu_cxx::__normal_iterator"* %5 to i8*, !llfi_index !1373
  call void @llvm.memcpy.p0i8.p0i8.i64(i8* align 8 %31, i8* align 8 %32, i64 8, i1 false), !llfi_index !1374
  %33 = getelementptr inbounds %"class.__gnu_cxx::__normal_iterator", %"class.__gnu_cxx::__normal_iterator"* %12, i32 0, i32 0, !llfi_index !1375
  %34 = load i32*, i32** %33, align 8, !llfi_index !1376
  %35 = getelementptr inbounds %"class.__gnu_cxx::__normal_iterator", %"class.__gnu_cxx::__normal_iterator"* %13, i32 0, i32 0, !llfi_index !1377
  %36 = load i32*, i32** %35, align 8, !llfi_index !1378
  call void @_ZSt11__sort_heapIN9__gnu_cxx17__normal_iteratorIPiSt6vectorIiSaIiEEEENS0_5__ops15_Iter_less_iterEEvT_S9_RT0_(i32* %34, i32* %36, %"class.std::allocator"* nonnull align 1 dereferenceable(1) %7), !llfi_index !1379
  ret void, !llfi_index !1380
}

; Function Attrs: mustprogress noinline uwtable
define linkonce_odr dso_local i32* @_ZSt27__unguarded_partition_pivotIN9__gnu_cxx17__normal_iteratorIPiSt6vectorIiSaIiEEEENS0_5__ops15_Iter_less_iterEET_S9_S9_T0_(i32* %0, i32* %1) #4 comdat {
  %3 = alloca %"class.__gnu_cxx::__normal_iterator", align 8, !llfi_index !1381
  %4 = alloca %"class.__gnu_cxx::__normal_iterator", align 8, !llfi_index !1382
  %5 = alloca %"class.__gnu_cxx::__normal_iterator", align 8, !llfi_index !1383
  %6 = alloca %"class.std::allocator", align 1, !llfi_index !1384
  %7 = alloca %"class.__gnu_cxx::__normal_iterator", align 8, !llfi_index !1385
  %8 = alloca %"class.__gnu_cxx::__normal_iterator", align 8, !llfi_index !1386
  %9 = alloca %"class.__gnu_cxx::__normal_iterator", align 8, !llfi_index !1387
  %10 = alloca %"class.__gnu_cxx::__normal_iterator", align 8, !llfi_index !1388
  %11 = alloca %"class.__gnu_cxx::__normal_iterator", align 8, !llfi_index !1389
  %12 = alloca %"class.std::allocator", align 1, !llfi_index !1390
  %13 = alloca %"class.__gnu_cxx::__normal_iterator", align 8, !llfi_index !1391
  %14 = alloca %"class.__gnu_cxx::__normal_iterator", align 8, !llfi_index !1392
  %15 = alloca %"class.__gnu_cxx::__normal_iterator", align 8, !llfi_index !1393
  %16 = alloca %"class.std::allocator", align 1, !llfi_index !1394
  %17 = getelementptr inbounds %"class.__gnu_cxx::__normal_iterator", %"class.__gnu_cxx::__normal_iterator"* %4, i32 0, i32 0, !llfi_index !1395
  store i32* %0, i32** %17, align 8, !llfi_index !1396
  %18 = getelementptr inbounds %"class.__gnu_cxx::__normal_iterator", %"class.__gnu_cxx::__normal_iterator"* %5, i32 0, i32 0, !llfi_index !1397
  store i32* %1, i32** %18, align 8, !llfi_index !1398
  %19 = call i64 @_ZN9__gnu_cxxmiIPiSt6vectorIiSaIiEEEENS_17__normal_iteratorIT_T0_E15difference_typeERKS8_SB_(%"class.__gnu_cxx::__normal_iterator"* nonnull align 8 dereferenceable(8) %5, %"class.__gnu_cxx::__normal_iterator"* nonnull align 8 dereferenceable(8) %4) #2, !llfi_index !1399
  %20 = sdiv i64 %19, 2, !llfi_index !1400
  %21 = call i32* @_ZNK9__gnu_cxx17__normal_iteratorIPiSt6vectorIiSaIiEEEplEl(%"class.__gnu_cxx::__normal_iterator"* nonnull align 8 dereferenceable(8) %4, i64 %20) #2, !llfi_index !1401
  %22 = getelementptr inbounds %"class.__gnu_cxx::__normal_iterator", %"class.__gnu_cxx::__normal_iterator"* %7, i32 0, i32 0, !llfi_index !1402
  store i32* %21, i32** %22, align 8, !llfi_index !1403
  %23 = bitcast %"class.__gnu_cxx::__normal_iterator"* %8 to i8*, !llfi_index !1404
  %24 = bitcast %"class.__gnu_cxx::__normal_iterator"* %4 to i8*, !llfi_index !1405
  call void @llvm.memcpy.p0i8.p0i8.i64(i8* align 8 %23, i8* align 8 %24, i64 8, i1 false), !llfi_index !1406
  %25 = call i32* @_ZNK9__gnu_cxx17__normal_iteratorIPiSt6vectorIiSaIiEEEplEl(%"class.__gnu_cxx::__normal_iterator"* nonnull align 8 dereferenceable(8) %4, i64 1) #2, !llfi_index !1407
  %26 = getelementptr inbounds %"class.__gnu_cxx::__normal_iterator", %"class.__gnu_cxx::__normal_iterator"* %9, i32 0, i32 0, !llfi_index !1408
  store i32* %25, i32** %26, align 8, !llfi_index !1409
  %27 = bitcast %"class.__gnu_cxx::__normal_iterator"* %10 to i8*, !llfi_index !1410
  %28 = bitcast %"class.__gnu_cxx::__normal_iterator"* %7 to i8*, !llfi_index !1411
  call void @llvm.memcpy.p0i8.p0i8.i64(i8* align 8 %27, i8* align 8 %28, i64 8, i1 false), !llfi_index !1412
  %29 = call i32* @_ZNK9__gnu_cxx17__normal_iteratorIPiSt6vectorIiSaIiEEEmiEl(%"class.__gnu_cxx::__normal_iterator"* nonnull align 8 dereferenceable(8) %5, i64 1) #2, !llfi_index !1413
  %30 = getelementptr inbounds %"class.__gnu_cxx::__normal_iterator", %"class.__gnu_cxx::__normal_iterator"* %11, i32 0, i32 0, !llfi_index !1414
  store i32* %29, i32** %30, align 8, !llfi_index !1415
  %31 = getelementptr inbounds %"class.__gnu_cxx::__normal_iterator", %"class.__gnu_cxx::__normal_iterator"* %8, i32 0, i32 0, !llfi_index !1416
  %32 = load i32*, i32** %31, align 8, !llfi_index !1417
  %33 = getelementptr inbounds %"class.__gnu_cxx::__normal_iterator", %"class.__gnu_cxx::__normal_iterator"* %9, i32 0, i32 0, !llfi_index !1418
  %34 = load i32*, i32** %33, align 8, !llfi_index !1419
  %35 = getelementptr inbounds %"class.__gnu_cxx::__normal_iterator", %"class.__gnu_cxx::__normal_iterator"* %10, i32 0, i32 0, !llfi_index !1420
  %36 = load i32*, i32** %35, align 8, !llfi_index !1421
  %37 = getelementptr inbounds %"class.__gnu_cxx::__normal_iterator", %"class.__gnu_cxx::__normal_iterator"* %11, i32 0, i32 0, !llfi_index !1422
  %38 = load i32*, i32** %37, align 8, !llfi_index !1423
  call void @_ZSt22__move_median_to_firstIN9__gnu_cxx17__normal_iteratorIPiSt6vectorIiSaIiEEEENS0_5__ops15_Iter_less_iterEEvT_S9_S9_S9_T0_(i32* %32, i32* %34, i32* %36, i32* %38), !llfi_index !1424
  %39 = call i32* @_ZNK9__gnu_cxx17__normal_iteratorIPiSt6vectorIiSaIiEEEplEl(%"class.__gnu_cxx::__normal_iterator"* nonnull align 8 dereferenceable(8) %4, i64 1) #2, !llfi_index !1425
  %40 = getelementptr inbounds %"class.__gnu_cxx::__normal_iterator", %"class.__gnu_cxx::__normal_iterator"* %13, i32 0, i32 0, !llfi_index !1426
  store i32* %39, i32** %40, align 8, !llfi_index !1427
  %41 = bitcast %"class.__gnu_cxx::__normal_iterator"* %14 to i8*, !llfi_index !1428
  %42 = bitcast %"class.__gnu_cxx::__normal_iterator"* %5 to i8*, !llfi_index !1429
  call void @llvm.memcpy.p0i8.p0i8.i64(i8* align 8 %41, i8* align 8 %42, i64 8, i1 false), !llfi_index !1430
  %43 = bitcast %"class.__gnu_cxx::__normal_iterator"* %15 to i8*, !llfi_index !1431
  %44 = bitcast %"class.__gnu_cxx::__normal_iterator"* %4 to i8*, !llfi_index !1432
  call void @llvm.memcpy.p0i8.p0i8.i64(i8* align 8 %43, i8* align 8 %44, i64 8, i1 false), !llfi_index !1433
  %45 = getelementptr inbounds %"class.__gnu_cxx::__normal_iterator", %"class.__gnu_cxx::__normal_iterator"* %13, i32 0, i32 0, !llfi_index !1434
  %46 = load i32*, i32** %45, align 8, !llfi_index !1435
  %47 = getelementptr inbounds %"class.__gnu_cxx::__normal_iterator", %"class.__gnu_cxx::__normal_iterator"* %14, i32 0, i32 0, !llfi_index !1436
  %48 = load i32*, i32** %47, align 8, !llfi_index !1437
  %49 = getelementptr inbounds %"class.__gnu_cxx::__normal_iterator", %"class.__gnu_cxx::__normal_iterator"* %15, i32 0, i32 0, !llfi_index !1438
  %50 = load i32*, i32** %49, align 8, !llfi_index !1439
  %51 = call i32* @_ZSt21__unguarded_partitionIN9__gnu_cxx17__normal_iteratorIPiSt6vectorIiSaIiEEEENS0_5__ops15_Iter_less_iterEET_S9_S9_S9_T0_(i32* %46, i32* %48, i32* %50), !llfi_index !1440
  %52 = getelementptr inbounds %"class.__gnu_cxx::__normal_iterator", %"class.__gnu_cxx::__normal_iterator"* %3, i32 0, i32 0, !llfi_index !1441
  store i32* %51, i32** %52, align 8, !llfi_index !1442
  %53 = getelementptr inbounds %"class.__gnu_cxx::__normal_iterator", %"class.__gnu_cxx::__normal_iterator"* %3, i32 0, i32 0, !llfi_index !1443
  %54 = load i32*, i32** %53, align 8, !llfi_index !1444
  ret i32* %54, !llfi_index !1445
}

; Function Attrs: mustprogress noinline nounwind uwtable
define linkonce_odr dso_local i32* @_ZNK9__gnu_cxx17__normal_iteratorIPiSt6vectorIiSaIiEEEmiEl(%"class.__gnu_cxx::__normal_iterator"* nonnull align 8 dereferenceable(8) %0, i64 %1) #3 comdat align 2 {
  %3 = alloca %"class.__gnu_cxx::__normal_iterator", align 8, !llfi_index !1446
  %4 = alloca %"class.__gnu_cxx::__normal_iterator"*, align 8, !llfi_index !1447
  %5 = alloca i64, align 8, !llfi_index !1448
  %6 = alloca i32*, align 8, !llfi_index !1449
  store %"class.__gnu_cxx::__normal_iterator"* %0, %"class.__gnu_cxx::__normal_iterator"** %4, align 8, !llfi_index !1450
  store i64 %1, i64* %5, align 8, !llfi_index !1451
  %7 = load %"class.__gnu_cxx::__normal_iterator"*, %"class.__gnu_cxx::__normal_iterator"** %4, align 8, !llfi_index !1452
  %8 = getelementptr inbounds %"class.__gnu_cxx::__normal_iterator", %"class.__gnu_cxx::__normal_iterator"* %7, i32 0, i32 0, !llfi_index !1453
  %9 = load i32*, i32** %8, align 8, !llfi_index !1454
  %10 = load i64, i64* %5, align 8, !llfi_index !1455
  %11 = sub i64 0, %10, !llfi_index !1456
  %12 = getelementptr inbounds i32, i32* %9, i64 %11, !llfi_index !1457
  store i32* %12, i32** %6, align 8, !llfi_index !1458
  call void @_ZN9__gnu_cxx17__normal_iteratorIPiSt6vectorIiSaIiEEEC2ERKS1_(%"class.__gnu_cxx::__normal_iterator"* nonnull align 8 dereferenceable(8) %3, i32** nonnull align 8 dereferenceable(8) %6) #2, !llfi_index !1459
  %13 = getelementptr inbounds %"class.__gnu_cxx::__normal_iterator", %"class.__gnu_cxx::__normal_iterator"* %3, i32 0, i32 0, !llfi_index !1460
  %14 = load i32*, i32** %13, align 8, !llfi_index !1461
  ret i32* %14, !llfi_index !1462
}

; Function Attrs: mustprogress noinline uwtable
define linkonce_odr dso_local void @_ZSt22__move_median_to_firstIN9__gnu_cxx17__normal_iteratorIPiSt6vectorIiSaIiEEEENS0_5__ops15_Iter_less_iterEEvT_S9_S9_S9_T0_(i32* %0, i32* %1, i32* %2, i32* %3) #4 comdat {
  %5 = alloca %"class.__gnu_cxx::__normal_iterator", align 8, !llfi_index !1463
  %6 = alloca %"class.__gnu_cxx::__normal_iterator", align 8, !llfi_index !1464
  %7 = alloca %"class.__gnu_cxx::__normal_iterator", align 8, !llfi_index !1465
  %8 = alloca %"class.__gnu_cxx::__normal_iterator", align 8, !llfi_index !1466
  %9 = alloca %"class.std::allocator", align 1, !llfi_index !1467
  %10 = alloca %"class.__gnu_cxx::__normal_iterator", align 8, !llfi_index !1468
  %11 = alloca %"class.__gnu_cxx::__normal_iterator", align 8, !llfi_index !1469
  %12 = alloca %"class.__gnu_cxx::__normal_iterator", align 8, !llfi_index !1470
  %13 = alloca %"class.__gnu_cxx::__normal_iterator", align 8, !llfi_index !1471
  %14 = alloca %"class.__gnu_cxx::__normal_iterator", align 8, !llfi_index !1472
  %15 = alloca %"class.__gnu_cxx::__normal_iterator", align 8, !llfi_index !1473
  %16 = alloca %"class.__gnu_cxx::__normal_iterator", align 8, !llfi_index !1474
  %17 = alloca %"class.__gnu_cxx::__normal_iterator", align 8, !llfi_index !1475
  %18 = alloca %"class.__gnu_cxx::__normal_iterator", align 8, !llfi_index !1476
  %19 = alloca %"class.__gnu_cxx::__normal_iterator", align 8, !llfi_index !1477
  %20 = alloca %"class.__gnu_cxx::__normal_iterator", align 8, !llfi_index !1478
  %21 = alloca %"class.__gnu_cxx::__normal_iterator", align 8, !llfi_index !1479
  %22 = alloca %"class.__gnu_cxx::__normal_iterator", align 8, !llfi_index !1480
  %23 = alloca %"class.__gnu_cxx::__normal_iterator", align 8, !llfi_index !1481
  %24 = alloca %"class.__gnu_cxx::__normal_iterator", align 8, !llfi_index !1482
  %25 = alloca %"class.__gnu_cxx::__normal_iterator", align 8, !llfi_index !1483
  %26 = alloca %"class.__gnu_cxx::__normal_iterator", align 8, !llfi_index !1484
  %27 = alloca %"class.__gnu_cxx::__normal_iterator", align 8, !llfi_index !1485
  %28 = alloca %"class.__gnu_cxx::__normal_iterator", align 8, !llfi_index !1486
  %29 = alloca %"class.__gnu_cxx::__normal_iterator", align 8, !llfi_index !1487
  %30 = alloca %"class.__gnu_cxx::__normal_iterator", align 8, !llfi_index !1488
  %31 = alloca %"class.__gnu_cxx::__normal_iterator", align 8, !llfi_index !1489
  %32 = getelementptr inbounds %"class.__gnu_cxx::__normal_iterator", %"class.__gnu_cxx::__normal_iterator"* %5, i32 0, i32 0, !llfi_index !1490
  store i32* %0, i32** %32, align 8, !llfi_index !1491
  %33 = getelementptr inbounds %"class.__gnu_cxx::__normal_iterator", %"class.__gnu_cxx::__normal_iterator"* %6, i32 0, i32 0, !llfi_index !1492
  store i32* %1, i32** %33, align 8, !llfi_index !1493
  %34 = getelementptr inbounds %"class.__gnu_cxx::__normal_iterator", %"class.__gnu_cxx::__normal_iterator"* %7, i32 0, i32 0, !llfi_index !1494
  store i32* %2, i32** %34, align 8, !llfi_index !1495
  %35 = getelementptr inbounds %"class.__gnu_cxx::__normal_iterator", %"class.__gnu_cxx::__normal_iterator"* %8, i32 0, i32 0, !llfi_index !1496
  store i32* %3, i32** %35, align 8, !llfi_index !1497
  %36 = bitcast %"class.__gnu_cxx::__normal_iterator"* %10 to i8*, !llfi_index !1498
  %37 = bitcast %"class.__gnu_cxx::__normal_iterator"* %6 to i8*, !llfi_index !1499
  call void @llvm.memcpy.p0i8.p0i8.i64(i8* align 8 %36, i8* align 8 %37, i64 8, i1 false), !llfi_index !1500
  %38 = bitcast %"class.__gnu_cxx::__normal_iterator"* %11 to i8*, !llfi_index !1501
  %39 = bitcast %"class.__gnu_cxx::__normal_iterator"* %7 to i8*, !llfi_index !1502
  call void @llvm.memcpy.p0i8.p0i8.i64(i8* align 8 %38, i8* align 8 %39, i64 8, i1 false), !llfi_index !1503
  %40 = getelementptr inbounds %"class.__gnu_cxx::__normal_iterator", %"class.__gnu_cxx::__normal_iterator"* %10, i32 0, i32 0, !llfi_index !1504
  %41 = load i32*, i32** %40, align 8, !llfi_index !1505
  %42 = getelementptr inbounds %"class.__gnu_cxx::__normal_iterator", %"class.__gnu_cxx::__normal_iterator"* %11, i32 0, i32 0, !llfi_index !1506
  %43 = load i32*, i32** %42, align 8, !llfi_index !1507
  %44 = call zeroext i1 @_ZNK9__gnu_cxx5__ops15_Iter_less_iterclINS_17__normal_iteratorIPiSt6vectorIiSaIiEEEES8_EEbT_T0_(%"class.std::allocator"* nonnull align 1 dereferenceable(1) %9, i32* %41, i32* %43), !llfi_index !1508
  br i1 %44, label %45, label %94, !llfi_index !1509

45:                                               ; preds = %4
  %46 = bitcast %"class.__gnu_cxx::__normal_iterator"* %12 to i8*, !llfi_index !1510
  %47 = bitcast %"class.__gnu_cxx::__normal_iterator"* %7 to i8*, !llfi_index !1511
  call void @llvm.memcpy.p0i8.p0i8.i64(i8* align 8 %46, i8* align 8 %47, i64 8, i1 false), !llfi_index !1512
  %48 = bitcast %"class.__gnu_cxx::__normal_iterator"* %13 to i8*, !llfi_index !1513
  %49 = bitcast %"class.__gnu_cxx::__normal_iterator"* %8 to i8*, !llfi_index !1514
  call void @llvm.memcpy.p0i8.p0i8.i64(i8* align 8 %48, i8* align 8 %49, i64 8, i1 false), !llfi_index !1515
  %50 = getelementptr inbounds %"class.__gnu_cxx::__normal_iterator", %"class.__gnu_cxx::__normal_iterator"* %12, i32 0, i32 0, !llfi_index !1516
  %51 = load i32*, i32** %50, align 8, !llfi_index !1517
  %52 = getelementptr inbounds %"class.__gnu_cxx::__normal_iterator", %"class.__gnu_cxx::__normal_iterator"* %13, i32 0, i32 0, !llfi_index !1518
  %53 = load i32*, i32** %52, align 8, !llfi_index !1519
  %54 = call zeroext i1 @_ZNK9__gnu_cxx5__ops15_Iter_less_iterclINS_17__normal_iteratorIPiSt6vectorIiSaIiEEEES8_EEbT_T0_(%"class.std::allocator"* nonnull align 1 dereferenceable(1) %9, i32* %51, i32* %53), !llfi_index !1520
  br i1 %54, label %55, label %64, !llfi_index !1521

55:                                               ; preds = %45
  %56 = bitcast %"class.__gnu_cxx::__normal_iterator"* %14 to i8*, !llfi_index !1522
  %57 = bitcast %"class.__gnu_cxx::__normal_iterator"* %5 to i8*, !llfi_index !1523
  call void @llvm.memcpy.p0i8.p0i8.i64(i8* align 8 %56, i8* align 8 %57, i64 8, i1 false), !llfi_index !1524
  %58 = bitcast %"class.__gnu_cxx::__normal_iterator"* %15 to i8*, !llfi_index !1525
  %59 = bitcast %"class.__gnu_cxx::__normal_iterator"* %7 to i8*, !llfi_index !1526
  call void @llvm.memcpy.p0i8.p0i8.i64(i8* align 8 %58, i8* align 8 %59, i64 8, i1 false), !llfi_index !1527
  %60 = getelementptr inbounds %"class.__gnu_cxx::__normal_iterator", %"class.__gnu_cxx::__normal_iterator"* %14, i32 0, i32 0, !llfi_index !1528
  %61 = load i32*, i32** %60, align 8, !llfi_index !1529
  %62 = getelementptr inbounds %"class.__gnu_cxx::__normal_iterator", %"class.__gnu_cxx::__normal_iterator"* %15, i32 0, i32 0, !llfi_index !1530
  %63 = load i32*, i32** %62, align 8, !llfi_index !1531
  call void @_ZSt9iter_swapIN9__gnu_cxx17__normal_iteratorIPiSt6vectorIiSaIiEEEES6_EvT_T0_(i32* %61, i32* %63), !llfi_index !1532
  br label %93, !llfi_index !1533

64:                                               ; preds = %45
  %65 = bitcast %"class.__gnu_cxx::__normal_iterator"* %16 to i8*, !llfi_index !1534
  %66 = bitcast %"class.__gnu_cxx::__normal_iterator"* %6 to i8*, !llfi_index !1535
  call void @llvm.memcpy.p0i8.p0i8.i64(i8* align 8 %65, i8* align 8 %66, i64 8, i1 false), !llfi_index !1536
  %67 = bitcast %"class.__gnu_cxx::__normal_iterator"* %17 to i8*, !llfi_index !1537
  %68 = bitcast %"class.__gnu_cxx::__normal_iterator"* %8 to i8*, !llfi_index !1538
  call void @llvm.memcpy.p0i8.p0i8.i64(i8* align 8 %67, i8* align 8 %68, i64 8, i1 false), !llfi_index !1539
  %69 = getelementptr inbounds %"class.__gnu_cxx::__normal_iterator", %"class.__gnu_cxx::__normal_iterator"* %16, i32 0, i32 0, !llfi_index !1540
  %70 = load i32*, i32** %69, align 8, !llfi_index !1541
  %71 = getelementptr inbounds %"class.__gnu_cxx::__normal_iterator", %"class.__gnu_cxx::__normal_iterator"* %17, i32 0, i32 0, !llfi_index !1542
  %72 = load i32*, i32** %71, align 8, !llfi_index !1543
  %73 = call zeroext i1 @_ZNK9__gnu_cxx5__ops15_Iter_less_iterclINS_17__normal_iteratorIPiSt6vectorIiSaIiEEEES8_EEbT_T0_(%"class.std::allocator"* nonnull align 1 dereferenceable(1) %9, i32* %70, i32* %72), !llfi_index !1544
  br i1 %73, label %74, label %83, !llfi_index !1545

74:                                               ; preds = %64
  %75 = bitcast %"class.__gnu_cxx::__normal_iterator"* %18 to i8*, !llfi_index !1546
  %76 = bitcast %"class.__gnu_cxx::__normal_iterator"* %5 to i8*, !llfi_index !1547
  call void @llvm.memcpy.p0i8.p0i8.i64(i8* align 8 %75, i8* align 8 %76, i64 8, i1 false), !llfi_index !1548
  %77 = bitcast %"class.__gnu_cxx::__normal_iterator"* %19 to i8*, !llfi_index !1549
  %78 = bitcast %"class.__gnu_cxx::__normal_iterator"* %8 to i8*, !llfi_index !1550
  call void @llvm.memcpy.p0i8.p0i8.i64(i8* align 8 %77, i8* align 8 %78, i64 8, i1 false), !llfi_index !1551
  %79 = getelementptr inbounds %"class.__gnu_cxx::__normal_iterator", %"class.__gnu_cxx::__normal_iterator"* %18, i32 0, i32 0, !llfi_index !1552
  %80 = load i32*, i32** %79, align 8, !llfi_index !1553
  %81 = getelementptr inbounds %"class.__gnu_cxx::__normal_iterator", %"class.__gnu_cxx::__normal_iterator"* %19, i32 0, i32 0, !llfi_index !1554
  %82 = load i32*, i32** %81, align 8, !llfi_index !1555
  call void @_ZSt9iter_swapIN9__gnu_cxx17__normal_iteratorIPiSt6vectorIiSaIiEEEES6_EvT_T0_(i32* %80, i32* %82), !llfi_index !1556
  br label %92, !llfi_index !1557

83:                                               ; preds = %64
  %84 = bitcast %"class.__gnu_cxx::__normal_iterator"* %20 to i8*, !llfi_index !1558
  %85 = bitcast %"class.__gnu_cxx::__normal_iterator"* %5 to i8*, !llfi_index !1559
  call void @llvm.memcpy.p0i8.p0i8.i64(i8* align 8 %84, i8* align 8 %85, i64 8, i1 false), !llfi_index !1560
  %86 = bitcast %"class.__gnu_cxx::__normal_iterator"* %21 to i8*, !llfi_index !1561
  %87 = bitcast %"class.__gnu_cxx::__normal_iterator"* %6 to i8*, !llfi_index !1562
  call void @llvm.memcpy.p0i8.p0i8.i64(i8* align 8 %86, i8* align 8 %87, i64 8, i1 false), !llfi_index !1563
  %88 = getelementptr inbounds %"class.__gnu_cxx::__normal_iterator", %"class.__gnu_cxx::__normal_iterator"* %20, i32 0, i32 0, !llfi_index !1564
  %89 = load i32*, i32** %88, align 8, !llfi_index !1565
  %90 = getelementptr inbounds %"class.__gnu_cxx::__normal_iterator", %"class.__gnu_cxx::__normal_iterator"* %21, i32 0, i32 0, !llfi_index !1566
  %91 = load i32*, i32** %90, align 8, !llfi_index !1567
  call void @_ZSt9iter_swapIN9__gnu_cxx17__normal_iteratorIPiSt6vectorIiSaIiEEEES6_EvT_T0_(i32* %89, i32* %91), !llfi_index !1568
  br label %92, !llfi_index !1569

92:                                               ; preds = %83, %74
  br label %93, !llfi_index !1570

93:                                               ; preds = %92, %55
  br label %143, !llfi_index !1571

94:                                               ; preds = %4
  %95 = bitcast %"class.__gnu_cxx::__normal_iterator"* %22 to i8*, !llfi_index !1572
  %96 = bitcast %"class.__gnu_cxx::__normal_iterator"* %6 to i8*, !llfi_index !1573
  call void @llvm.memcpy.p0i8.p0i8.i64(i8* align 8 %95, i8* align 8 %96, i64 8, i1 false), !llfi_index !1574
  %97 = bitcast %"class.__gnu_cxx::__normal_iterator"* %23 to i8*, !llfi_index !1575
  %98 = bitcast %"class.__gnu_cxx::__normal_iterator"* %8 to i8*, !llfi_index !1576
  call void @llvm.memcpy.p0i8.p0i8.i64(i8* align 8 %97, i8* align 8 %98, i64 8, i1 false), !llfi_index !1577
  %99 = getelementptr inbounds %"class.__gnu_cxx::__normal_iterator", %"class.__gnu_cxx::__normal_iterator"* %22, i32 0, i32 0, !llfi_index !1578
  %100 = load i32*, i32** %99, align 8, !llfi_index !1579
  %101 = getelementptr inbounds %"class.__gnu_cxx::__normal_iterator", %"class.__gnu_cxx::__normal_iterator"* %23, i32 0, i32 0, !llfi_index !1580
  %102 = load i32*, i32** %101, align 8, !llfi_index !1581
  %103 = call zeroext i1 @_ZNK9__gnu_cxx5__ops15_Iter_less_iterclINS_17__normal_iteratorIPiSt6vectorIiSaIiEEEES8_EEbT_T0_(%"class.std::allocator"* nonnull align 1 dereferenceable(1) %9, i32* %100, i32* %102), !llfi_index !1582
  br i1 %103, label %104, label %113, !llfi_index !1583

104:                                              ; preds = %94
  %105 = bitcast %"class.__gnu_cxx::__normal_iterator"* %24 to i8*, !llfi_index !1584
  %106 = bitcast %"class.__gnu_cxx::__normal_iterator"* %5 to i8*, !llfi_index !1585
  call void @llvm.memcpy.p0i8.p0i8.i64(i8* align 8 %105, i8* align 8 %106, i64 8, i1 false), !llfi_index !1586
  %107 = bitcast %"class.__gnu_cxx::__normal_iterator"* %25 to i8*, !llfi_index !1587
  %108 = bitcast %"class.__gnu_cxx::__normal_iterator"* %6 to i8*, !llfi_index !1588
  call void @llvm.memcpy.p0i8.p0i8.i64(i8* align 8 %107, i8* align 8 %108, i64 8, i1 false), !llfi_index !1589
  %109 = getelementptr inbounds %"class.__gnu_cxx::__normal_iterator", %"class.__gnu_cxx::__normal_iterator"* %24, i32 0, i32 0, !llfi_index !1590
  %110 = load i32*, i32** %109, align 8, !llfi_index !1591
  %111 = getelementptr inbounds %"class.__gnu_cxx::__normal_iterator", %"class.__gnu_cxx::__normal_iterator"* %25, i32 0, i32 0, !llfi_index !1592
  %112 = load i32*, i32** %111, align 8, !llfi_index !1593
  call void @_ZSt9iter_swapIN9__gnu_cxx17__normal_iteratorIPiSt6vectorIiSaIiEEEES6_EvT_T0_(i32* %110, i32* %112), !llfi_index !1594
  br label %142, !llfi_index !1595

113:                                              ; preds = %94
  %114 = bitcast %"class.__gnu_cxx::__normal_iterator"* %26 to i8*, !llfi_index !1596
  %115 = bitcast %"class.__gnu_cxx::__normal_iterator"* %7 to i8*, !llfi_index !1597
  call void @llvm.memcpy.p0i8.p0i8.i64(i8* align 8 %114, i8* align 8 %115, i64 8, i1 false), !llfi_index !1598
  %116 = bitcast %"class.__gnu_cxx::__normal_iterator"* %27 to i8*, !llfi_index !1599
  %117 = bitcast %"class.__gnu_cxx::__normal_iterator"* %8 to i8*, !llfi_index !1600
  call void @llvm.memcpy.p0i8.p0i8.i64(i8* align 8 %116, i8* align 8 %117, i64 8, i1 false), !llfi_index !1601
  %118 = getelementptr inbounds %"class.__gnu_cxx::__normal_iterator", %"class.__gnu_cxx::__normal_iterator"* %26, i32 0, i32 0, !llfi_index !1602
  %119 = load i32*, i32** %118, align 8, !llfi_index !1603
  %120 = getelementptr inbounds %"class.__gnu_cxx::__normal_iterator", %"class.__gnu_cxx::__normal_iterator"* %27, i32 0, i32 0, !llfi_index !1604
  %121 = load i32*, i32** %120, align 8, !llfi_index !1605
  %122 = call zeroext i1 @_ZNK9__gnu_cxx5__ops15_Iter_less_iterclINS_17__normal_iteratorIPiSt6vectorIiSaIiEEEES8_EEbT_T0_(%"class.std::allocator"* nonnull align 1 dereferenceable(1) %9, i32* %119, i32* %121), !llfi_index !1606
  br i1 %122, label %123, label %132, !llfi_index !1607

123:                                              ; preds = %113
  %124 = bitcast %"class.__gnu_cxx::__normal_iterator"* %28 to i8*, !llfi_index !1608
  %125 = bitcast %"class.__gnu_cxx::__normal_iterator"* %5 to i8*, !llfi_index !1609
  call void @llvm.memcpy.p0i8.p0i8.i64(i8* align 8 %124, i8* align 8 %125, i64 8, i1 false), !llfi_index !1610
  %126 = bitcast %"class.__gnu_cxx::__normal_iterator"* %29 to i8*, !llfi_index !1611
  %127 = bitcast %"class.__gnu_cxx::__normal_iterator"* %8 to i8*, !llfi_index !1612
  call void @llvm.memcpy.p0i8.p0i8.i64(i8* align 8 %126, i8* align 8 %127, i64 8, i1 false), !llfi_index !1613
  %128 = getelementptr inbounds %"class.__gnu_cxx::__normal_iterator", %"class.__gnu_cxx::__normal_iterator"* %28, i32 0, i32 0, !llfi_index !1614
  %129 = load i32*, i32** %128, align 8, !llfi_index !1615
  %130 = getelementptr inbounds %"class.__gnu_cxx::__normal_iterator", %"class.__gnu_cxx::__normal_iterator"* %29, i32 0, i32 0, !llfi_index !1616
  %131 = load i32*, i32** %130, align 8, !llfi_index !1617
  call void @_ZSt9iter_swapIN9__gnu_cxx17__normal_iteratorIPiSt6vectorIiSaIiEEEES6_EvT_T0_(i32* %129, i32* %131), !llfi_index !1618
  br label %141, !llfi_index !1619

132:                                              ; preds = %113
  %133 = bitcast %"class.__gnu_cxx::__normal_iterator"* %30 to i8*, !llfi_index !1620
  %134 = bitcast %"class.__gnu_cxx::__normal_iterator"* %5 to i8*, !llfi_index !1621
  call void @llvm.memcpy.p0i8.p0i8.i64(i8* align 8 %133, i8* align 8 %134, i64 8, i1 false), !llfi_index !1622
  %135 = bitcast %"class.__gnu_cxx::__normal_iterator"* %31 to i8*, !llfi_index !1623
  %136 = bitcast %"class.__gnu_cxx::__normal_iterator"* %7 to i8*, !llfi_index !1624
  call void @llvm.memcpy.p0i8.p0i8.i64(i8* align 8 %135, i8* align 8 %136, i64 8, i1 false), !llfi_index !1625
  %137 = getelementptr inbounds %"class.__gnu_cxx::__normal_iterator", %"class.__gnu_cxx::__normal_iterator"* %30, i32 0, i32 0, !llfi_index !1626
  %138 = load i32*, i32** %137, align 8, !llfi_index !1627
  %139 = getelementptr inbounds %"class.__gnu_cxx::__normal_iterator", %"class.__gnu_cxx::__normal_iterator"* %31, i32 0, i32 0, !llfi_index !1628
  %140 = load i32*, i32** %139, align 8, !llfi_index !1629
  call void @_ZSt9iter_swapIN9__gnu_cxx17__normal_iteratorIPiSt6vectorIiSaIiEEEES6_EvT_T0_(i32* %138, i32* %140), !llfi_index !1630
  br label %141, !llfi_index !1631

141:                                              ; preds = %132, %123
  br label %142, !llfi_index !1632

142:                                              ; preds = %141, %104
  br label %143, !llfi_index !1633

143:                                              ; preds = %142, %93
  ret void, !llfi_index !1634
}

; Function Attrs: mustprogress noinline nounwind uwtable
define linkonce_odr dso_local i32* @_ZSt21__unguarded_partitionIN9__gnu_cxx17__normal_iteratorIPiSt6vectorIiSaIiEEEENS0_5__ops15_Iter_less_iterEET_S9_S9_S9_T0_(i32* %0, i32* %1, i32* %2) #3 comdat {
  %4 = alloca %"class.__gnu_cxx::__normal_iterator", align 8, !llfi_index !1635
  %5 = alloca %"class.__gnu_cxx::__normal_iterator", align 8, !llfi_index !1636
  %6 = alloca %"class.__gnu_cxx::__normal_iterator", align 8, !llfi_index !1637
  %7 = alloca %"class.__gnu_cxx::__normal_iterator", align 8, !llfi_index !1638
  %8 = alloca %"class.std::allocator", align 1, !llfi_index !1639
  %9 = alloca %"class.__gnu_cxx::__normal_iterator", align 8, !llfi_index !1640
  %10 = alloca %"class.__gnu_cxx::__normal_iterator", align 8, !llfi_index !1641
  %11 = alloca %"class.__gnu_cxx::__normal_iterator", align 8, !llfi_index !1642
  %12 = alloca %"class.__gnu_cxx::__normal_iterator", align 8, !llfi_index !1643
  %13 = alloca %"class.__gnu_cxx::__normal_iterator", align 8, !llfi_index !1644
  %14 = alloca %"class.__gnu_cxx::__normal_iterator", align 8, !llfi_index !1645
  %15 = getelementptr inbounds %"class.__gnu_cxx::__normal_iterator", %"class.__gnu_cxx::__normal_iterator"* %5, i32 0, i32 0, !llfi_index !1646
  store i32* %0, i32** %15, align 8, !llfi_index !1647
  %16 = getelementptr inbounds %"class.__gnu_cxx::__normal_iterator", %"class.__gnu_cxx::__normal_iterator"* %6, i32 0, i32 0, !llfi_index !1648
  store i32* %1, i32** %16, align 8, !llfi_index !1649
  %17 = getelementptr inbounds %"class.__gnu_cxx::__normal_iterator", %"class.__gnu_cxx::__normal_iterator"* %7, i32 0, i32 0, !llfi_index !1650
  store i32* %2, i32** %17, align 8, !llfi_index !1651
  br label %18, !llfi_index !1652

18:                                               ; preds = %52, %3
  br label %19, !llfi_index !1653

19:                                               ; preds = %29, %18
  %20 = bitcast %"class.__gnu_cxx::__normal_iterator"* %9 to i8*, !llfi_index !1654
  %21 = bitcast %"class.__gnu_cxx::__normal_iterator"* %5 to i8*, !llfi_index !1655
  call void @llvm.memcpy.p0i8.p0i8.i64(i8* align 8 %20, i8* align 8 %21, i64 8, i1 false), !llfi_index !1656
  %22 = bitcast %"class.__gnu_cxx::__normal_iterator"* %10 to i8*, !llfi_index !1657
  %23 = bitcast %"class.__gnu_cxx::__normal_iterator"* %7 to i8*, !llfi_index !1658
  call void @llvm.memcpy.p0i8.p0i8.i64(i8* align 8 %22, i8* align 8 %23, i64 8, i1 false), !llfi_index !1659
  %24 = getelementptr inbounds %"class.__gnu_cxx::__normal_iterator", %"class.__gnu_cxx::__normal_iterator"* %9, i32 0, i32 0, !llfi_index !1660
  %25 = load i32*, i32** %24, align 8, !llfi_index !1661
  %26 = getelementptr inbounds %"class.__gnu_cxx::__normal_iterator", %"class.__gnu_cxx::__normal_iterator"* %10, i32 0, i32 0, !llfi_index !1662
  %27 = load i32*, i32** %26, align 8, !llfi_index !1663
  %28 = call zeroext i1 @_ZNK9__gnu_cxx5__ops15_Iter_less_iterclINS_17__normal_iteratorIPiSt6vectorIiSaIiEEEES8_EEbT_T0_(%"class.std::allocator"* nonnull align 1 dereferenceable(1) %8, i32* %25, i32* %27), !llfi_index !1664
  br i1 %28, label %29, label %31, !llfi_index !1665

29:                                               ; preds = %19
  %30 = call nonnull align 8 dereferenceable(8) %"class.__gnu_cxx::__normal_iterator"* @_ZN9__gnu_cxx17__normal_iteratorIPiSt6vectorIiSaIiEEEppEv(%"class.__gnu_cxx::__normal_iterator"* nonnull align 8 dereferenceable(8) %5) #2, !llfi_index !1666
  br label %19, !llvm.loop !1667, !llfi_index !1668

31:                                               ; preds = %19
  %32 = call nonnull align 8 dereferenceable(8) %"class.__gnu_cxx::__normal_iterator"* @_ZN9__gnu_cxx17__normal_iteratorIPiSt6vectorIiSaIiEEEmmEv(%"class.__gnu_cxx::__normal_iterator"* nonnull align 8 dereferenceable(8) %6) #2, !llfi_index !1669
  br label %33, !llfi_index !1670

33:                                               ; preds = %43, %31
  %34 = bitcast %"class.__gnu_cxx::__normal_iterator"* %11 to i8*, !llfi_index !1671
  %35 = bitcast %"class.__gnu_cxx::__normal_iterator"* %7 to i8*, !llfi_index !1672
  call void @llvm.memcpy.p0i8.p0i8.i64(i8* align 8 %34, i8* align 8 %35, i64 8, i1 false), !llfi_index !1673
  %36 = bitcast %"class.__gnu_cxx::__normal_iterator"* %12 to i8*, !llfi_index !1674
  %37 = bitcast %"class.__gnu_cxx::__normal_iterator"* %6 to i8*, !llfi_index !1675
  call void @llvm.memcpy.p0i8.p0i8.i64(i8* align 8 %36, i8* align 8 %37, i64 8, i1 false), !llfi_index !1676
  %38 = getelementptr inbounds %"class.__gnu_cxx::__normal_iterator", %"class.__gnu_cxx::__normal_iterator"* %11, i32 0, i32 0, !llfi_index !1677
  %39 = load i32*, i32** %38, align 8, !llfi_index !1678
  %40 = getelementptr inbounds %"class.__gnu_cxx::__normal_iterator", %"class.__gnu_cxx::__normal_iterator"* %12, i32 0, i32 0, !llfi_index !1679
  %41 = load i32*, i32** %40, align 8, !llfi_index !1680
  %42 = call zeroext i1 @_ZNK9__gnu_cxx5__ops15_Iter_less_iterclINS_17__normal_iteratorIPiSt6vectorIiSaIiEEEES8_EEbT_T0_(%"class.std::allocator"* nonnull align 1 dereferenceable(1) %8, i32* %39, i32* %41), !llfi_index !1681
  br i1 %42, label %43, label %45, !llfi_index !1682

43:                                               ; preds = %33
  %44 = call nonnull align 8 dereferenceable(8) %"class.__gnu_cxx::__normal_iterator"* @_ZN9__gnu_cxx17__normal_iteratorIPiSt6vectorIiSaIiEEEmmEv(%"class.__gnu_cxx::__normal_iterator"* nonnull align 8 dereferenceable(8) %6) #2, !llfi_index !1683
  br label %33, !llvm.loop !1684, !llfi_index !1685

45:                                               ; preds = %33
  %46 = call zeroext i1 @_ZN9__gnu_cxxltIPiSt6vectorIiSaIiEEEEbRKNS_17__normal_iteratorIT_T0_EESA_(%"class.__gnu_cxx::__normal_iterator"* nonnull align 8 dereferenceable(8) %5, %"class.__gnu_cxx::__normal_iterator"* nonnull align 8 dereferenceable(8) %6) #2, !llfi_index !1686
  br i1 %46, label %52, label %47, !llfi_index !1687

47:                                               ; preds = %45
  %48 = bitcast %"class.__gnu_cxx::__normal_iterator"* %4 to i8*, !llfi_index !1688
  %49 = bitcast %"class.__gnu_cxx::__normal_iterator"* %5 to i8*, !llfi_index !1689
  call void @llvm.memcpy.p0i8.p0i8.i64(i8* align 8 %48, i8* align 8 %49, i64 8, i1 false), !llfi_index !1690
  %50 = getelementptr inbounds %"class.__gnu_cxx::__normal_iterator", %"class.__gnu_cxx::__normal_iterator"* %4, i32 0, i32 0, !llfi_index !1691
  %51 = load i32*, i32** %50, align 8, !llfi_index !1692
  ret i32* %51, !llfi_index !1693

52:                                               ; preds = %45
  %53 = bitcast %"class.__gnu_cxx::__normal_iterator"* %13 to i8*, !llfi_index !1694
  %54 = bitcast %"class.__gnu_cxx::__normal_iterator"* %5 to i8*, !llfi_index !1695
  call void @llvm.memcpy.p0i8.p0i8.i64(i8* align 8 %53, i8* align 8 %54, i64 8, i1 false), !llfi_index !1696
  %55 = bitcast %"class.__gnu_cxx::__normal_iterator"* %14 to i8*, !llfi_index !1697
  %56 = bitcast %"class.__gnu_cxx::__normal_iterator"* %6 to i8*, !llfi_index !1698
  call void @llvm.memcpy.p0i8.p0i8.i64(i8* align 8 %55, i8* align 8 %56, i64 8, i1 false), !llfi_index !1699
  %57 = getelementptr inbounds %"class.__gnu_cxx::__normal_iterator", %"class.__gnu_cxx::__normal_iterator"* %13, i32 0, i32 0, !llfi_index !1700
  %58 = load i32*, i32** %57, align 8, !llfi_index !1701
  %59 = getelementptr inbounds %"class.__gnu_cxx::__normal_iterator", %"class.__gnu_cxx::__normal_iterator"* %14, i32 0, i32 0, !llfi_index !1702
  %60 = load i32*, i32** %59, align 8, !llfi_index !1703
  call void @_ZSt9iter_swapIN9__gnu_cxx17__normal_iteratorIPiSt6vectorIiSaIiEEEES6_EvT_T0_(i32* %58, i32* %60), !llfi_index !1704
  %61 = call nonnull align 8 dereferenceable(8) %"class.__gnu_cxx::__normal_iterator"* @_ZN9__gnu_cxx17__normal_iteratorIPiSt6vectorIiSaIiEEEppEv(%"class.__gnu_cxx::__normal_iterator"* nonnull align 8 dereferenceable(8) %5) #2, !llfi_index !1705
  br label %18, !llvm.loop !1706, !llfi_index !1707
}

; Function Attrs: mustprogress noinline nounwind uwtable
define linkonce_odr dso_local zeroext i1 @_ZN9__gnu_cxxltIPiSt6vectorIiSaIiEEEEbRKNS_17__normal_iteratorIT_T0_EESA_(%"class.__gnu_cxx::__normal_iterator"* nonnull align 8 dereferenceable(8) %0, %"class.__gnu_cxx::__normal_iterator"* nonnull align 8 dereferenceable(8) %1) #3 comdat {
  %3 = alloca %"class.__gnu_cxx::__normal_iterator"*, align 8, !llfi_index !1708
  %4 = alloca %"class.__gnu_cxx::__normal_iterator"*, align 8, !llfi_index !1709
  store %"class.__gnu_cxx::__normal_iterator"* %0, %"class.__gnu_cxx::__normal_iterator"** %3, align 8, !llfi_index !1710
  store %"class.__gnu_cxx::__normal_iterator"* %1, %"class.__gnu_cxx::__normal_iterator"** %4, align 8, !llfi_index !1711
  %5 = load %"class.__gnu_cxx::__normal_iterator"*, %"class.__gnu_cxx::__normal_iterator"** %3, align 8, !llfi_index !1712
  %6 = call nonnull align 8 dereferenceable(8) i32** @_ZNK9__gnu_cxx17__normal_iteratorIPiSt6vectorIiSaIiEEE4baseEv(%"class.__gnu_cxx::__normal_iterator"* nonnull align 8 dereferenceable(8) %5) #2, !llfi_index !1713
  %7 = load i32*, i32** %6, align 8, !llfi_index !1714
  %8 = load %"class.__gnu_cxx::__normal_iterator"*, %"class.__gnu_cxx::__normal_iterator"** %4, align 8, !llfi_index !1715
  %9 = call nonnull align 8 dereferenceable(8) i32** @_ZNK9__gnu_cxx17__normal_iteratorIPiSt6vectorIiSaIiEEE4baseEv(%"class.__gnu_cxx::__normal_iterator"* nonnull align 8 dereferenceable(8) %8) #2, !llfi_index !1716
  %10 = load i32*, i32** %9, align 8, !llfi_index !1717
  %11 = icmp ult i32* %7, %10, !llfi_index !1718
  ret i1 %11, !llfi_index !1719
}

; Function Attrs: mustprogress noinline nounwind uwtable
define linkonce_odr dso_local void @_ZSt9iter_swapIN9__gnu_cxx17__normal_iteratorIPiSt6vectorIiSaIiEEEES6_EvT_T0_(i32* %0, i32* %1) #3 comdat {
  %3 = alloca %"class.__gnu_cxx::__normal_iterator", align 8, !llfi_index !1720
  %4 = alloca %"class.__gnu_cxx::__normal_iterator", align 8, !llfi_index !1721
  %5 = getelementptr inbounds %"class.__gnu_cxx::__normal_iterator", %"class.__gnu_cxx::__normal_iterator"* %3, i32 0, i32 0, !llfi_index !1722
  store i32* %0, i32** %5, align 8, !llfi_index !1723
  %6 = getelementptr inbounds %"class.__gnu_cxx::__normal_iterator", %"class.__gnu_cxx::__normal_iterator"* %4, i32 0, i32 0, !llfi_index !1724
  store i32* %1, i32** %6, align 8, !llfi_index !1725
  %7 = call nonnull align 4 dereferenceable(4) i32* @_ZNK9__gnu_cxx17__normal_iteratorIPiSt6vectorIiSaIiEEEdeEv(%"class.__gnu_cxx::__normal_iterator"* nonnull align 8 dereferenceable(8) %3) #2, !llfi_index !1726
  %8 = call nonnull align 4 dereferenceable(4) i32* @_ZNK9__gnu_cxx17__normal_iteratorIPiSt6vectorIiSaIiEEEdeEv(%"class.__gnu_cxx::__normal_iterator"* nonnull align 8 dereferenceable(8) %4) #2, !llfi_index !1727
  call void @_ZSt4swapIiENSt9enable_ifIXsr6__and_ISt6__not_ISt15__is_tuple_likeIT_EESt21is_move_constructibleIS3_ESt18is_move_assignableIS3_EEE5valueEvE4typeERS3_SC_(i32* nonnull align 4 dereferenceable(4) %7, i32* nonnull align 4 dereferenceable(4) %8) #2, !llfi_index !1728
  ret void, !llfi_index !1729
}

; Function Attrs: mustprogress noinline uwtable
define linkonce_odr dso_local void @_ZSt13__heap_selectIN9__gnu_cxx17__normal_iteratorIPiSt6vectorIiSaIiEEEENS0_5__ops15_Iter_less_iterEEvT_S9_S9_T0_(i32* %0, i32* %1, i32* %2) #4 comdat {
  %4 = alloca %"class.__gnu_cxx::__normal_iterator", align 8, !llfi_index !1730
  %5 = alloca %"class.__gnu_cxx::__normal_iterator", align 8, !llfi_index !1731
  %6 = alloca %"class.__gnu_cxx::__normal_iterator", align 8, !llfi_index !1732
  %7 = alloca %"class.std::allocator", align 1, !llfi_index !1733
  %8 = alloca %"class.__gnu_cxx::__normal_iterator", align 8, !llfi_index !1734
  %9 = alloca %"class.__gnu_cxx::__normal_iterator", align 8, !llfi_index !1735
  %10 = alloca %"class.__gnu_cxx::__normal_iterator", align 8, !llfi_index !1736
  %11 = alloca %"class.__gnu_cxx::__normal_iterator", align 8, !llfi_index !1737
  %12 = alloca %"class.__gnu_cxx::__normal_iterator", align 8, !llfi_index !1738
  %13 = alloca %"class.__gnu_cxx::__normal_iterator", align 8, !llfi_index !1739
  %14 = alloca %"class.__gnu_cxx::__normal_iterator", align 8, !llfi_index !1740
  %15 = alloca %"class.__gnu_cxx::__normal_iterator", align 8, !llfi_index !1741
  %16 = getelementptr inbounds %"class.__gnu_cxx::__normal_iterator", %"class.__gnu_cxx::__normal_iterator"* %4, i32 0, i32 0, !llfi_index !1742
  store i32* %0, i32** %16, align 8, !llfi_index !1743
  %17 = getelementptr inbounds %"class.__gnu_cxx::__normal_iterator", %"class.__gnu_cxx::__normal_iterator"* %5, i32 0, i32 0, !llfi_index !1744
  store i32* %1, i32** %17, align 8, !llfi_index !1745
  %18 = getelementptr inbounds %"class.__gnu_cxx::__normal_iterator", %"class.__gnu_cxx::__normal_iterator"* %6, i32 0, i32 0, !llfi_index !1746
  store i32* %2, i32** %18, align 8, !llfi_index !1747
  %19 = bitcast %"class.__gnu_cxx::__normal_iterator"* %8 to i8*, !llfi_index !1748
  %20 = bitcast %"class.__gnu_cxx::__normal_iterator"* %4 to i8*, !llfi_index !1749
  call void @llvm.memcpy.p0i8.p0i8.i64(i8* align 8 %19, i8* align 8 %20, i64 8, i1 false), !llfi_index !1750
  %21 = bitcast %"class.__gnu_cxx::__normal_iterator"* %9 to i8*, !llfi_index !1751
  %22 = bitcast %"class.__gnu_cxx::__normal_iterator"* %5 to i8*, !llfi_index !1752
  call void @llvm.memcpy.p0i8.p0i8.i64(i8* align 8 %21, i8* align 8 %22, i64 8, i1 false), !llfi_index !1753
  %23 = getelementptr inbounds %"class.__gnu_cxx::__normal_iterator", %"class.__gnu_cxx::__normal_iterator"* %8, i32 0, i32 0, !llfi_index !1754
  %24 = load i32*, i32** %23, align 8, !llfi_index !1755
  %25 = getelementptr inbounds %"class.__gnu_cxx::__normal_iterator", %"class.__gnu_cxx::__normal_iterator"* %9, i32 0, i32 0, !llfi_index !1756
  %26 = load i32*, i32** %25, align 8, !llfi_index !1757
  call void @_ZSt11__make_heapIN9__gnu_cxx17__normal_iteratorIPiSt6vectorIiSaIiEEEENS0_5__ops15_Iter_less_iterEEvT_S9_RT0_(i32* %24, i32* %26, %"class.std::allocator"* nonnull align 1 dereferenceable(1) %7), !llfi_index !1758
  %27 = bitcast %"class.__gnu_cxx::__normal_iterator"* %10 to i8*, !llfi_index !1759
  %28 = bitcast %"class.__gnu_cxx::__normal_iterator"* %5 to i8*, !llfi_index !1760
  call void @llvm.memcpy.p0i8.p0i8.i64(i8* align 8 %27, i8* align 8 %28, i64 8, i1 false), !llfi_index !1761
  br label %29, !llfi_index !1762

29:                                               ; preds = %55, %3
  %30 = call zeroext i1 @_ZN9__gnu_cxxltIPiSt6vectorIiSaIiEEEEbRKNS_17__normal_iteratorIT_T0_EESA_(%"class.__gnu_cxx::__normal_iterator"* nonnull align 8 dereferenceable(8) %10, %"class.__gnu_cxx::__normal_iterator"* nonnull align 8 dereferenceable(8) %6) #2, !llfi_index !1763
  br i1 %30, label %31, label %57, !llfi_index !1764

31:                                               ; preds = %29
  %32 = bitcast %"class.__gnu_cxx::__normal_iterator"* %11 to i8*, !llfi_index !1765
  %33 = bitcast %"class.__gnu_cxx::__normal_iterator"* %10 to i8*, !llfi_index !1766
  call void @llvm.memcpy.p0i8.p0i8.i64(i8* align 8 %32, i8* align 8 %33, i64 8, i1 false), !llfi_index !1767
  %34 = bitcast %"class.__gnu_cxx::__normal_iterator"* %12 to i8*, !llfi_index !1768
  %35 = bitcast %"class.__gnu_cxx::__normal_iterator"* %4 to i8*, !llfi_index !1769
  call void @llvm.memcpy.p0i8.p0i8.i64(i8* align 8 %34, i8* align 8 %35, i64 8, i1 false), !llfi_index !1770
  %36 = getelementptr inbounds %"class.__gnu_cxx::__normal_iterator", %"class.__gnu_cxx::__normal_iterator"* %11, i32 0, i32 0, !llfi_index !1771
  %37 = load i32*, i32** %36, align 8, !llfi_index !1772
  %38 = getelementptr inbounds %"class.__gnu_cxx::__normal_iterator", %"class.__gnu_cxx::__normal_iterator"* %12, i32 0, i32 0, !llfi_index !1773
  %39 = load i32*, i32** %38, align 8, !llfi_index !1774
  %40 = call zeroext i1 @_ZNK9__gnu_cxx5__ops15_Iter_less_iterclINS_17__normal_iteratorIPiSt6vectorIiSaIiEEEES8_EEbT_T0_(%"class.std::allocator"* nonnull align 1 dereferenceable(1) %7, i32* %37, i32* %39), !llfi_index !1775
  br i1 %40, label %41, label %54, !llfi_index !1776

41:                                               ; preds = %31
  %42 = bitcast %"class.__gnu_cxx::__normal_iterator"* %13 to i8*, !llfi_index !1777
  %43 = bitcast %"class.__gnu_cxx::__normal_iterator"* %4 to i8*, !llfi_index !1778
  call void @llvm.memcpy.p0i8.p0i8.i64(i8* align 8 %42, i8* align 8 %43, i64 8, i1 false), !llfi_index !1779
  %44 = bitcast %"class.__gnu_cxx::__normal_iterator"* %14 to i8*, !llfi_index !1780
  %45 = bitcast %"class.__gnu_cxx::__normal_iterator"* %5 to i8*, !llfi_index !1781
  call void @llvm.memcpy.p0i8.p0i8.i64(i8* align 8 %44, i8* align 8 %45, i64 8, i1 false), !llfi_index !1782
  %46 = bitcast %"class.__gnu_cxx::__normal_iterator"* %15 to i8*, !llfi_index !1783
  %47 = bitcast %"class.__gnu_cxx::__normal_iterator"* %10 to i8*, !llfi_index !1784
  call void @llvm.memcpy.p0i8.p0i8.i64(i8* align 8 %46, i8* align 8 %47, i64 8, i1 false), !llfi_index !1785
  %48 = getelementptr inbounds %"class.__gnu_cxx::__normal_iterator", %"class.__gnu_cxx::__normal_iterator"* %13, i32 0, i32 0, !llfi_index !1786
  %49 = load i32*, i32** %48, align 8, !llfi_index !1787
  %50 = getelementptr inbounds %"class.__gnu_cxx::__normal_iterator", %"class.__gnu_cxx::__normal_iterator"* %14, i32 0, i32 0, !llfi_index !1788
  %51 = load i32*, i32** %50, align 8, !llfi_index !1789
  %52 = getelementptr inbounds %"class.__gnu_cxx::__normal_iterator", %"class.__gnu_cxx::__normal_iterator"* %15, i32 0, i32 0, !llfi_index !1790
  %53 = load i32*, i32** %52, align 8, !llfi_index !1791
  call void @_ZSt10__pop_heapIN9__gnu_cxx17__normal_iteratorIPiSt6vectorIiSaIiEEEENS0_5__ops15_Iter_less_iterEEvT_S9_S9_RT0_(i32* %49, i32* %51, i32* %53, %"class.std::allocator"* nonnull align 1 dereferenceable(1) %7), !llfi_index !1792
  br label %54, !llfi_index !1793

54:                                               ; preds = %41, %31
  br label %55, !llfi_index !1794

55:                                               ; preds = %54
  %56 = call nonnull align 8 dereferenceable(8) %"class.__gnu_cxx::__normal_iterator"* @_ZN9__gnu_cxx17__normal_iteratorIPiSt6vectorIiSaIiEEEppEv(%"class.__gnu_cxx::__normal_iterator"* nonnull align 8 dereferenceable(8) %10) #2, !llfi_index !1795
  br label %29, !llvm.loop !1796, !llfi_index !1797

57:                                               ; preds = %29
  ret void, !llfi_index !1798
}

; Function Attrs: mustprogress noinline uwtable
define linkonce_odr dso_local void @_ZSt11__sort_heapIN9__gnu_cxx17__normal_iteratorIPiSt6vectorIiSaIiEEEENS0_5__ops15_Iter_less_iterEEvT_S9_RT0_(i32* %0, i32* %1, %"class.std::allocator"* nonnull align 1 dereferenceable(1) %2) #4 comdat {
  %4 = alloca %"class.__gnu_cxx::__normal_iterator", align 8, !llfi_index !1799
  %5 = alloca %"class.__gnu_cxx::__normal_iterator", align 8, !llfi_index !1800
  %6 = alloca %"class.std::allocator"*, align 8, !llfi_index !1801
  %7 = alloca %"class.__gnu_cxx::__normal_iterator", align 8, !llfi_index !1802
  %8 = alloca %"class.__gnu_cxx::__normal_iterator", align 8, !llfi_index !1803
  %9 = alloca %"class.__gnu_cxx::__normal_iterator", align 8, !llfi_index !1804
  %10 = getelementptr inbounds %"class.__gnu_cxx::__normal_iterator", %"class.__gnu_cxx::__normal_iterator"* %4, i32 0, i32 0, !llfi_index !1805
  store i32* %0, i32** %10, align 8, !llfi_index !1806
  %11 = getelementptr inbounds %"class.__gnu_cxx::__normal_iterator", %"class.__gnu_cxx::__normal_iterator"* %5, i32 0, i32 0, !llfi_index !1807
  store i32* %1, i32** %11, align 8, !llfi_index !1808
  store %"class.std::allocator"* %2, %"class.std::allocator"** %6, align 8, !llfi_index !1809
  br label %12, !llfi_index !1810

12:                                               ; preds = %15, %3
  %13 = call i64 @_ZN9__gnu_cxxmiIPiSt6vectorIiSaIiEEEENS_17__normal_iteratorIT_T0_E15difference_typeERKS8_SB_(%"class.__gnu_cxx::__normal_iterator"* nonnull align 8 dereferenceable(8) %5, %"class.__gnu_cxx::__normal_iterator"* nonnull align 8 dereferenceable(8) %4) #2, !llfi_index !1811
  %14 = icmp sgt i64 %13, 1, !llfi_index !1812
  br i1 %14, label %15, label %30, !llfi_index !1813

15:                                               ; preds = %12
  %16 = call nonnull align 8 dereferenceable(8) %"class.__gnu_cxx::__normal_iterator"* @_ZN9__gnu_cxx17__normal_iteratorIPiSt6vectorIiSaIiEEEmmEv(%"class.__gnu_cxx::__normal_iterator"* nonnull align 8 dereferenceable(8) %5) #2, !llfi_index !1814
  %17 = bitcast %"class.__gnu_cxx::__normal_iterator"* %7 to i8*, !llfi_index !1815
  %18 = bitcast %"class.__gnu_cxx::__normal_iterator"* %4 to i8*, !llfi_index !1816
  call void @llvm.memcpy.p0i8.p0i8.i64(i8* align 8 %17, i8* align 8 %18, i64 8, i1 false), !llfi_index !1817
  %19 = bitcast %"class.__gnu_cxx::__normal_iterator"* %8 to i8*, !llfi_index !1818
  %20 = bitcast %"class.__gnu_cxx::__normal_iterator"* %5 to i8*, !llfi_index !1819
  call void @llvm.memcpy.p0i8.p0i8.i64(i8* align 8 %19, i8* align 8 %20, i64 8, i1 false), !llfi_index !1820
  %21 = bitcast %"class.__gnu_cxx::__normal_iterator"* %9 to i8*, !llfi_index !1821
  %22 = bitcast %"class.__gnu_cxx::__normal_iterator"* %5 to i8*, !llfi_index !1822
  call void @llvm.memcpy.p0i8.p0i8.i64(i8* align 8 %21, i8* align 8 %22, i64 8, i1 false), !llfi_index !1823
  %23 = load %"class.std::allocator"*, %"class.std::allocator"** %6, align 8, !llfi_index !1824
  %24 = getelementptr inbounds %"class.__gnu_cxx::__normal_iterator", %"class.__gnu_cxx::__normal_iterator"* %7, i32 0, i32 0, !llfi_index !1825
  %25 = load i32*, i32** %24, align 8, !llfi_index !1826
  %26 = getelementptr inbounds %"class.__gnu_cxx::__normal_iterator", %"class.__gnu_cxx::__normal_iterator"* %8, i32 0, i32 0, !llfi_index !1827
  %27 = load i32*, i32** %26, align 8, !llfi_index !1828
  %28 = getelementptr inbounds %"class.__gnu_cxx::__normal_iterator", %"class.__gnu_cxx::__normal_iterator"* %9, i32 0, i32 0, !llfi_index !1829
  %29 = load i32*, i32** %28, align 8, !llfi_index !1830
  call void @_ZSt10__pop_heapIN9__gnu_cxx17__normal_iteratorIPiSt6vectorIiSaIiEEEENS0_5__ops15_Iter_less_iterEEvT_S9_S9_RT0_(i32* %25, i32* %27, i32* %29, %"class.std::allocator"* nonnull align 1 dereferenceable(1) %23), !llfi_index !1831
  br label %12, !llvm.loop !1832, !llfi_index !1833

30:                                               ; preds = %12
  ret void, !llfi_index !1834
}

; Function Attrs: mustprogress noinline uwtable
define linkonce_odr dso_local void @_ZSt10__pop_heapIN9__gnu_cxx17__normal_iteratorIPiSt6vectorIiSaIiEEEENS0_5__ops15_Iter_less_iterEEvT_S9_S9_RT0_(i32* %0, i32* %1, i32* %2, %"class.std::allocator"* nonnull align 1 dereferenceable(1) %3) #4 comdat {
  %5 = alloca %"class.__gnu_cxx::__normal_iterator", align 8, !llfi_index !1835
  %6 = alloca %"class.__gnu_cxx::__normal_iterator", align 8, !llfi_index !1836
  %7 = alloca %"class.__gnu_cxx::__normal_iterator", align 8, !llfi_index !1837
  %8 = alloca %"class.std::allocator"*, align 8, !llfi_index !1838
  %9 = alloca i32, align 4, !llfi_index !1839
  %10 = alloca %"class.__gnu_cxx::__normal_iterator", align 8, !llfi_index !1840
  %11 = alloca %"class.std::allocator", align 1, !llfi_index !1841
  %12 = getelementptr inbounds %"class.__gnu_cxx::__normal_iterator", %"class.__gnu_cxx::__normal_iterator"* %5, i32 0, i32 0, !llfi_index !1842
  store i32* %0, i32** %12, align 8, !llfi_index !1843
  %13 = getelementptr inbounds %"class.__gnu_cxx::__normal_iterator", %"class.__gnu_cxx::__normal_iterator"* %6, i32 0, i32 0, !llfi_index !1844
  store i32* %1, i32** %13, align 8, !llfi_index !1845
  %14 = getelementptr inbounds %"class.__gnu_cxx::__normal_iterator", %"class.__gnu_cxx::__normal_iterator"* %7, i32 0, i32 0, !llfi_index !1846
  store i32* %2, i32** %14, align 8, !llfi_index !1847
  store %"class.std::allocator"* %3, %"class.std::allocator"** %8, align 8, !llfi_index !1848
  %15 = call nonnull align 4 dereferenceable(4) i32* @_ZNK9__gnu_cxx17__normal_iteratorIPiSt6vectorIiSaIiEEEdeEv(%"class.__gnu_cxx::__normal_iterator"* nonnull align 8 dereferenceable(8) %7) #2, !llfi_index !1849
  %16 = call nonnull align 4 dereferenceable(4) i32* @_ZSt4moveIRiEONSt16remove_referenceIT_E4typeEOS2_(i32* nonnull align 4 dereferenceable(4) %15) #2, !llfi_index !1850
  %17 = load i32, i32* %16, align 4, !llfi_index !1851
  store i32 %17, i32* %9, align 4, !llfi_index !1852
  %18 = call nonnull align 4 dereferenceable(4) i32* @_ZNK9__gnu_cxx17__normal_iteratorIPiSt6vectorIiSaIiEEEdeEv(%"class.__gnu_cxx::__normal_iterator"* nonnull align 8 dereferenceable(8) %5) #2, !llfi_index !1853
  %19 = call nonnull align 4 dereferenceable(4) i32* @_ZSt4moveIRiEONSt16remove_referenceIT_E4typeEOS2_(i32* nonnull align 4 dereferenceable(4) %18) #2, !llfi_index !1854
  %20 = load i32, i32* %19, align 4, !llfi_index !1855
  %21 = call nonnull align 4 dereferenceable(4) i32* @_ZNK9__gnu_cxx17__normal_iteratorIPiSt6vectorIiSaIiEEEdeEv(%"class.__gnu_cxx::__normal_iterator"* nonnull align 8 dereferenceable(8) %7) #2, !llfi_index !1856
  store i32 %20, i32* %21, align 4, !llfi_index !1857
  %22 = bitcast %"class.__gnu_cxx::__normal_iterator"* %10 to i8*, !llfi_index !1858
  %23 = bitcast %"class.__gnu_cxx::__normal_iterator"* %5 to i8*, !llfi_index !1859
  call void @llvm.memcpy.p0i8.p0i8.i64(i8* align 8 %22, i8* align 8 %23, i64 8, i1 false), !llfi_index !1860
  %24 = call i64 @_ZN9__gnu_cxxmiIPiSt6vectorIiSaIiEEEENS_17__normal_iteratorIT_T0_E15difference_typeERKS8_SB_(%"class.__gnu_cxx::__normal_iterator"* nonnull align 8 dereferenceable(8) %6, %"class.__gnu_cxx::__normal_iterator"* nonnull align 8 dereferenceable(8) %5) #2, !llfi_index !1861
  %25 = call nonnull align 4 dereferenceable(4) i32* @_ZSt4moveIRiEONSt16remove_referenceIT_E4typeEOS2_(i32* nonnull align 4 dereferenceable(4) %9) #2, !llfi_index !1862
  %26 = load i32, i32* %25, align 4, !llfi_index !1863
  %27 = load %"class.std::allocator"*, %"class.std::allocator"** %8, align 8, !llfi_index !1864
  %28 = getelementptr inbounds %"class.__gnu_cxx::__normal_iterator", %"class.__gnu_cxx::__normal_iterator"* %10, i32 0, i32 0, !llfi_index !1865
  %29 = load i32*, i32** %28, align 8, !llfi_index !1866
  call void @_ZSt13__adjust_heapIN9__gnu_cxx17__normal_iteratorIPiSt6vectorIiSaIiEEEEliNS0_5__ops15_Iter_less_iterEEvT_T0_SA_T1_T2_(i32* %29, i64 0, i64 %24, i32 %26), !llfi_index !1867
  ret void, !llfi_index !1868
}

; Function Attrs: mustprogress noinline uwtable
define linkonce_odr dso_local void @_ZSt13__adjust_heapIN9__gnu_cxx17__normal_iteratorIPiSt6vectorIiSaIiEEEEliNS0_5__ops15_Iter_less_iterEEvT_T0_SA_T1_T2_(i32* %0, i64 %1, i64 %2, i32 %3) #4 comdat {
  %5 = alloca %"class.__gnu_cxx::__normal_iterator", align 8, !llfi_index !1869
  %6 = alloca %"class.std::allocator", align 1, !llfi_index !1870
  %7 = alloca i64, align 8, !llfi_index !1871
  %8 = alloca i64, align 8, !llfi_index !1872
  %9 = alloca i32, align 4, !llfi_index !1873
  %10 = alloca i64, align 8, !llfi_index !1874
  %11 = alloca i64, align 8, !llfi_index !1875
  %12 = alloca %"class.__gnu_cxx::__normal_iterator", align 8, !llfi_index !1876
  %13 = alloca %"class.__gnu_cxx::__normal_iterator", align 8, !llfi_index !1877
  %14 = alloca %"class.__gnu_cxx::__normal_iterator", align 8, !llfi_index !1878
  %15 = alloca %"class.__gnu_cxx::__normal_iterator", align 8, !llfi_index !1879
  %16 = alloca %"class.__gnu_cxx::__normal_iterator", align 8, !llfi_index !1880
  %17 = alloca %"class.__gnu_cxx::__normal_iterator", align 8, !llfi_index !1881
  %18 = alloca %"class.std::allocator", align 1, !llfi_index !1882
  %19 = alloca %"class.std::allocator", align 1, !llfi_index !1883
  %20 = alloca %"class.__gnu_cxx::__normal_iterator", align 8, !llfi_index !1884
  %21 = getelementptr inbounds %"class.__gnu_cxx::__normal_iterator", %"class.__gnu_cxx::__normal_iterator"* %5, i32 0, i32 0, !llfi_index !1885
  store i32* %0, i32** %21, align 8, !llfi_index !1886
  store i64 %1, i64* %7, align 8, !llfi_index !1887
  store i64 %2, i64* %8, align 8, !llfi_index !1888
  store i32 %3, i32* %9, align 4, !llfi_index !1889
  %22 = load i64, i64* %7, align 8, !llfi_index !1890
  store i64 %22, i64* %10, align 8, !llfi_index !1891
  %23 = load i64, i64* %7, align 8, !llfi_index !1892
  store i64 %23, i64* %11, align 8, !llfi_index !1893
  br label %24, !llfi_index !1894

24:                                               ; preds = %49, %4
  %25 = load i64, i64* %11, align 8, !llfi_index !1895
  %26 = load i64, i64* %8, align 8, !llfi_index !1896
  %27 = sub nsw i64 %26, 1, !llfi_index !1897
  %28 = sdiv i64 %27, 2, !llfi_index !1898
  %29 = icmp slt i64 %25, %28, !llfi_index !1899
  br i1 %29, label %30, label %61, !llfi_index !1900

30:                                               ; preds = %24
  %31 = load i64, i64* %11, align 8, !llfi_index !1901
  %32 = add nsw i64 %31, 1, !llfi_index !1902
  %33 = mul nsw i64 2, %32, !llfi_index !1903
  store i64 %33, i64* %11, align 8, !llfi_index !1904
  %34 = load i64, i64* %11, align 8, !llfi_index !1905
  %35 = call i32* @_ZNK9__gnu_cxx17__normal_iteratorIPiSt6vectorIiSaIiEEEplEl(%"class.__gnu_cxx::__normal_iterator"* nonnull align 8 dereferenceable(8) %5, i64 %34) #2, !llfi_index !1906
  %36 = getelementptr inbounds %"class.__gnu_cxx::__normal_iterator", %"class.__gnu_cxx::__normal_iterator"* %12, i32 0, i32 0, !llfi_index !1907
  store i32* %35, i32** %36, align 8, !llfi_index !1908
  %37 = load i64, i64* %11, align 8, !llfi_index !1909
  %38 = sub nsw i64 %37, 1, !llfi_index !1910
  %39 = call i32* @_ZNK9__gnu_cxx17__normal_iteratorIPiSt6vectorIiSaIiEEEplEl(%"class.__gnu_cxx::__normal_iterator"* nonnull align 8 dereferenceable(8) %5, i64 %38) #2, !llfi_index !1911
  %40 = getelementptr inbounds %"class.__gnu_cxx::__normal_iterator", %"class.__gnu_cxx::__normal_iterator"* %13, i32 0, i32 0, !llfi_index !1912
  store i32* %39, i32** %40, align 8, !llfi_index !1913
  %41 = getelementptr inbounds %"class.__gnu_cxx::__normal_iterator", %"class.__gnu_cxx::__normal_iterator"* %12, i32 0, i32 0, !llfi_index !1914
  %42 = load i32*, i32** %41, align 8, !llfi_index !1915
  %43 = getelementptr inbounds %"class.__gnu_cxx::__normal_iterator", %"class.__gnu_cxx::__normal_iterator"* %13, i32 0, i32 0, !llfi_index !1916
  %44 = load i32*, i32** %43, align 8, !llfi_index !1917
  %45 = call zeroext i1 @_ZNK9__gnu_cxx5__ops15_Iter_less_iterclINS_17__normal_iteratorIPiSt6vectorIiSaIiEEEES8_EEbT_T0_(%"class.std::allocator"* nonnull align 1 dereferenceable(1) %6, i32* %42, i32* %44), !llfi_index !1918
  br i1 %45, label %46, label %49, !llfi_index !1919

46:                                               ; preds = %30
  %47 = load i64, i64* %11, align 8, !llfi_index !1920
  %48 = add nsw i64 %47, -1, !llfi_index !1921
  store i64 %48, i64* %11, align 8, !llfi_index !1922
  br label %49, !llfi_index !1923

49:                                               ; preds = %46, %30
  %50 = load i64, i64* %11, align 8, !llfi_index !1924
  %51 = call i32* @_ZNK9__gnu_cxx17__normal_iteratorIPiSt6vectorIiSaIiEEEplEl(%"class.__gnu_cxx::__normal_iterator"* nonnull align 8 dereferenceable(8) %5, i64 %50) #2, !llfi_index !1925
  %52 = getelementptr inbounds %"class.__gnu_cxx::__normal_iterator", %"class.__gnu_cxx::__normal_iterator"* %14, i32 0, i32 0, !llfi_index !1926
  store i32* %51, i32** %52, align 8, !llfi_index !1927
  %53 = call nonnull align 4 dereferenceable(4) i32* @_ZNK9__gnu_cxx17__normal_iteratorIPiSt6vectorIiSaIiEEEdeEv(%"class.__gnu_cxx::__normal_iterator"* nonnull align 8 dereferenceable(8) %14) #2, !llfi_index !1928
  %54 = call nonnull align 4 dereferenceable(4) i32* @_ZSt4moveIRiEONSt16remove_referenceIT_E4typeEOS2_(i32* nonnull align 4 dereferenceable(4) %53) #2, !llfi_index !1929
  %55 = load i32, i32* %54, align 4, !llfi_index !1930
  %56 = load i64, i64* %7, align 8, !llfi_index !1931
  %57 = call i32* @_ZNK9__gnu_cxx17__normal_iteratorIPiSt6vectorIiSaIiEEEplEl(%"class.__gnu_cxx::__normal_iterator"* nonnull align 8 dereferenceable(8) %5, i64 %56) #2, !llfi_index !1932
  %58 = getelementptr inbounds %"class.__gnu_cxx::__normal_iterator", %"class.__gnu_cxx::__normal_iterator"* %15, i32 0, i32 0, !llfi_index !1933
  store i32* %57, i32** %58, align 8, !llfi_index !1934
  %59 = call nonnull align 4 dereferenceable(4) i32* @_ZNK9__gnu_cxx17__normal_iteratorIPiSt6vectorIiSaIiEEEdeEv(%"class.__gnu_cxx::__normal_iterator"* nonnull align 8 dereferenceable(8) %15) #2, !llfi_index !1935
  store i32 %55, i32* %59, align 4, !llfi_index !1936
  %60 = load i64, i64* %11, align 8, !llfi_index !1937
  store i64 %60, i64* %7, align 8, !llfi_index !1938
  br label %24, !llvm.loop !1939, !llfi_index !1940

61:                                               ; preds = %24
  %62 = load i64, i64* %8, align 8, !llfi_index !1941
  %63 = and i64 %62, 1, !llfi_index !1942
  %64 = icmp eq i64 %63, 0, !llfi_index !1943
  br i1 %64, label %65, label %88, !llfi_index !1944

65:                                               ; preds = %61
  %66 = load i64, i64* %11, align 8, !llfi_index !1945
  %67 = load i64, i64* %8, align 8, !llfi_index !1946
  %68 = sub nsw i64 %67, 2, !llfi_index !1947
  %69 = sdiv i64 %68, 2, !llfi_index !1948
  %70 = icmp eq i64 %66, %69, !llfi_index !1949
  br i1 %70, label %71, label %88, !llfi_index !1950

71:                                               ; preds = %65
  %72 = load i64, i64* %11, align 8, !llfi_index !1951
  %73 = add nsw i64 %72, 1, !llfi_index !1952
  %74 = mul nsw i64 2, %73, !llfi_index !1953
  store i64 %74, i64* %11, align 8, !llfi_index !1954
  %75 = load i64, i64* %11, align 8, !llfi_index !1955
  %76 = sub nsw i64 %75, 1, !llfi_index !1956
  %77 = call i32* @_ZNK9__gnu_cxx17__normal_iteratorIPiSt6vectorIiSaIiEEEplEl(%"class.__gnu_cxx::__normal_iterator"* nonnull align 8 dereferenceable(8) %5, i64 %76) #2, !llfi_index !1957
  %78 = getelementptr inbounds %"class.__gnu_cxx::__normal_iterator", %"class.__gnu_cxx::__normal_iterator"* %16, i32 0, i32 0, !llfi_index !1958
  store i32* %77, i32** %78, align 8, !llfi_index !1959
  %79 = call nonnull align 4 dereferenceable(4) i32* @_ZNK9__gnu_cxx17__normal_iteratorIPiSt6vectorIiSaIiEEEdeEv(%"class.__gnu_cxx::__normal_iterator"* nonnull align 8 dereferenceable(8) %16) #2, !llfi_index !1960
  %80 = call nonnull align 4 dereferenceable(4) i32* @_ZSt4moveIRiEONSt16remove_referenceIT_E4typeEOS2_(i32* nonnull align 4 dereferenceable(4) %79) #2, !llfi_index !1961
  %81 = load i32, i32* %80, align 4, !llfi_index !1962
  %82 = load i64, i64* %7, align 8, !llfi_index !1963
  %83 = call i32* @_ZNK9__gnu_cxx17__normal_iteratorIPiSt6vectorIiSaIiEEEplEl(%"class.__gnu_cxx::__normal_iterator"* nonnull align 8 dereferenceable(8) %5, i64 %82) #2, !llfi_index !1964
  %84 = getelementptr inbounds %"class.__gnu_cxx::__normal_iterator", %"class.__gnu_cxx::__normal_iterator"* %17, i32 0, i32 0, !llfi_index !1965
  store i32* %83, i32** %84, align 8, !llfi_index !1966
  %85 = call nonnull align 4 dereferenceable(4) i32* @_ZNK9__gnu_cxx17__normal_iteratorIPiSt6vectorIiSaIiEEEdeEv(%"class.__gnu_cxx::__normal_iterator"* nonnull align 8 dereferenceable(8) %17) #2, !llfi_index !1967
  store i32 %81, i32* %85, align 4, !llfi_index !1968
  %86 = load i64, i64* %11, align 8, !llfi_index !1969
  %87 = sub nsw i64 %86, 1, !llfi_index !1970
  store i64 %87, i64* %7, align 8, !llfi_index !1971
  br label %88, !llfi_index !1972

88:                                               ; preds = %71, %65, %61
  %89 = call nonnull align 1 dereferenceable(1) %"class.std::allocator"* @_ZSt4moveIRN9__gnu_cxx5__ops15_Iter_less_iterEEONSt16remove_referenceIT_E4typeEOS5_(%"class.std::allocator"* nonnull align 1 dereferenceable(1) %6) #2, !llfi_index !1973
  call void @_ZN9__gnu_cxx5__ops14_Iter_less_valC2ENS0_15_Iter_less_iterE(%"class.std::allocator"* nonnull align 1 dereferenceable(1) %18), !llfi_index !1974
  %90 = bitcast %"class.__gnu_cxx::__normal_iterator"* %20 to i8*, !llfi_index !1975
  %91 = bitcast %"class.__gnu_cxx::__normal_iterator"* %5 to i8*, !llfi_index !1976
  call void @llvm.memcpy.p0i8.p0i8.i64(i8* align 8 %90, i8* align 8 %91, i64 8, i1 false), !llfi_index !1977
  %92 = load i64, i64* %7, align 8, !llfi_index !1978
  %93 = load i64, i64* %10, align 8, !llfi_index !1979
  %94 = call nonnull align 4 dereferenceable(4) i32* @_ZSt4moveIRiEONSt16remove_referenceIT_E4typeEOS2_(i32* nonnull align 4 dereferenceable(4) %9) #2, !llfi_index !1980
  %95 = load i32, i32* %94, align 4, !llfi_index !1981
  %96 = getelementptr inbounds %"class.__gnu_cxx::__normal_iterator", %"class.__gnu_cxx::__normal_iterator"* %20, i32 0, i32 0, !llfi_index !1982
  %97 = load i32*, i32** %96, align 8, !llfi_index !1983
  call void @_ZSt11__push_heapIN9__gnu_cxx17__normal_iteratorIPiSt6vectorIiSaIiEEEEliNS0_5__ops14_Iter_less_valEEvT_T0_SA_T1_RT2_(i32* %97, i64 %92, i64 %93, i32 %95, %"class.std::allocator"* nonnull align 1 dereferenceable(1) %18), !llfi_index !1984
  ret void, !llfi_index !1985
}

; Function Attrs: mustprogress noinline nounwind uwtable
define linkonce_odr dso_local nonnull align 1 dereferenceable(1) %"class.std::allocator"* @_ZSt4moveIRN9__gnu_cxx5__ops15_Iter_less_iterEEONSt16remove_referenceIT_E4typeEOS5_(%"class.std::allocator"* nonnull align 1 dereferenceable(1) %0) #3 comdat {
  %2 = alloca %"class.std::allocator"*, align 8, !llfi_index !1986
  store %"class.std::allocator"* %0, %"class.std::allocator"** %2, align 8, !llfi_index !1987
  %3 = load %"class.std::allocator"*, %"class.std::allocator"** %2, align 8, !llfi_index !1988
  ret %"class.std::allocator"* %3, !llfi_index !1989
}

; Function Attrs: noinline nounwind uwtable
define linkonce_odr dso_local void @_ZN9__gnu_cxx5__ops14_Iter_less_valC2ENS0_15_Iter_less_iterE(%"class.std::allocator"* nonnull align 1 dereferenceable(1) %0) unnamed_addr #1 comdat align 2 {
  %2 = alloca %"class.std::allocator", align 1, !llfi_index !1990
  %3 = alloca %"class.std::allocator"*, align 8, !llfi_index !1991
  store %"class.std::allocator"* %0, %"class.std::allocator"** %3, align 8, !llfi_index !1992
  %4 = load %"class.std::allocator"*, %"class.std::allocator"** %3, align 8, !llfi_index !1993
  ret void, !llfi_index !1994
}

; Function Attrs: mustprogress noinline uwtable
define linkonce_odr dso_local void @_ZSt11__push_heapIN9__gnu_cxx17__normal_iteratorIPiSt6vectorIiSaIiEEEEliNS0_5__ops14_Iter_less_valEEvT_T0_SA_T1_RT2_(i32* %0, i64 %1, i64 %2, i32 %3, %"class.std::allocator"* nonnull align 1 dereferenceable(1) %4) #4 comdat {
  %6 = alloca %"class.__gnu_cxx::__normal_iterator", align 8, !llfi_index !1995
  %7 = alloca i64, align 8, !llfi_index !1996
  %8 = alloca i64, align 8, !llfi_index !1997
  %9 = alloca i32, align 4, !llfi_index !1998
  %10 = alloca %"class.std::allocator"*, align 8, !llfi_index !1999
  %11 = alloca i64, align 8, !llfi_index !2000
  %12 = alloca %"class.__gnu_cxx::__normal_iterator", align 8, !llfi_index !2001
  %13 = alloca %"class.__gnu_cxx::__normal_iterator", align 8, !llfi_index !2002
  %14 = alloca %"class.__gnu_cxx::__normal_iterator", align 8, !llfi_index !2003
  %15 = alloca %"class.__gnu_cxx::__normal_iterator", align 8, !llfi_index !2004
  %16 = getelementptr inbounds %"class.__gnu_cxx::__normal_iterator", %"class.__gnu_cxx::__normal_iterator"* %6, i32 0, i32 0, !llfi_index !2005
  store i32* %0, i32** %16, align 8, !llfi_index !2006
  store i64 %1, i64* %7, align 8, !llfi_index !2007
  store i64 %2, i64* %8, align 8, !llfi_index !2008
  store i32 %3, i32* %9, align 4, !llfi_index !2009
  store %"class.std::allocator"* %4, %"class.std::allocator"** %10, align 8, !llfi_index !2010
  %17 = load i64, i64* %7, align 8, !llfi_index !2011
  %18 = sub nsw i64 %17, 1, !llfi_index !2012
  %19 = sdiv i64 %18, 2, !llfi_index !2013
  store i64 %19, i64* %11, align 8, !llfi_index !2014
  br label %20, !llfi_index !2015

20:                                               ; preds = %34, %5
  %21 = load i64, i64* %7, align 8, !llfi_index !2016
  %22 = load i64, i64* %8, align 8, !llfi_index !2017
  %23 = icmp sgt i64 %21, %22, !llfi_index !2018
  br i1 %23, label %24, label %32, !llfi_index !2019

24:                                               ; preds = %20
  %25 = load %"class.std::allocator"*, %"class.std::allocator"** %10, align 8, !llfi_index !2020
  %26 = load i64, i64* %11, align 8, !llfi_index !2021
  %27 = call i32* @_ZNK9__gnu_cxx17__normal_iteratorIPiSt6vectorIiSaIiEEEplEl(%"class.__gnu_cxx::__normal_iterator"* nonnull align 8 dereferenceable(8) %6, i64 %26) #2, !llfi_index !2022
  %28 = getelementptr inbounds %"class.__gnu_cxx::__normal_iterator", %"class.__gnu_cxx::__normal_iterator"* %12, i32 0, i32 0, !llfi_index !2023
  store i32* %27, i32** %28, align 8, !llfi_index !2024
  %29 = getelementptr inbounds %"class.__gnu_cxx::__normal_iterator", %"class.__gnu_cxx::__normal_iterator"* %12, i32 0, i32 0, !llfi_index !2025
  %30 = load i32*, i32** %29, align 8, !llfi_index !2026
  %31 = call zeroext i1 @_ZNK9__gnu_cxx5__ops14_Iter_less_valclINS_17__normal_iteratorIPiSt6vectorIiSaIiEEEEiEEbT_RT0_(%"class.std::allocator"* nonnull align 1 dereferenceable(1) %25, i32* %30, i32* nonnull align 4 dereferenceable(4) %9), !llfi_index !2027
  br label %32, !llfi_index !2028

32:                                               ; preds = %24, %20
  %33 = phi i1 [ false, %20 ], [ %31, %24 ], !llfi_index !2029
  br i1 %33, label %34, label %49, !llfi_index !2030

34:                                               ; preds = %32
  %35 = load i64, i64* %11, align 8, !llfi_index !2031
  %36 = call i32* @_ZNK9__gnu_cxx17__normal_iteratorIPiSt6vectorIiSaIiEEEplEl(%"class.__gnu_cxx::__normal_iterator"* nonnull align 8 dereferenceable(8) %6, i64 %35) #2, !llfi_index !2032
  %37 = getelementptr inbounds %"class.__gnu_cxx::__normal_iterator", %"class.__gnu_cxx::__normal_iterator"* %13, i32 0, i32 0, !llfi_index !2033
  store i32* %36, i32** %37, align 8, !llfi_index !2034
  %38 = call nonnull align 4 dereferenceable(4) i32* @_ZNK9__gnu_cxx17__normal_iteratorIPiSt6vectorIiSaIiEEEdeEv(%"class.__gnu_cxx::__normal_iterator"* nonnull align 8 dereferenceable(8) %13) #2, !llfi_index !2035
  %39 = call nonnull align 4 dereferenceable(4) i32* @_ZSt4moveIRiEONSt16remove_referenceIT_E4typeEOS2_(i32* nonnull align 4 dereferenceable(4) %38) #2, !llfi_index !2036
  %40 = load i32, i32* %39, align 4, !llfi_index !2037
  %41 = load i64, i64* %7, align 8, !llfi_index !2038
  %42 = call i32* @_ZNK9__gnu_cxx17__normal_iteratorIPiSt6vectorIiSaIiEEEplEl(%"class.__gnu_cxx::__normal_iterator"* nonnull align 8 dereferenceable(8) %6, i64 %41) #2, !llfi_index !2039
  %43 = getelementptr inbounds %"class.__gnu_cxx::__normal_iterator", %"class.__gnu_cxx::__normal_iterator"* %14, i32 0, i32 0, !llfi_index !2040
  store i32* %42, i32** %43, align 8, !llfi_index !2041
  %44 = call nonnull align 4 dereferenceable(4) i32* @_ZNK9__gnu_cxx17__normal_iteratorIPiSt6vectorIiSaIiEEEdeEv(%"class.__gnu_cxx::__normal_iterator"* nonnull align 8 dereferenceable(8) %14) #2, !llfi_index !2042
  store i32 %40, i32* %44, align 4, !llfi_index !2043
  %45 = load i64, i64* %11, align 8, !llfi_index !2044
  store i64 %45, i64* %7, align 8, !llfi_index !2045
  %46 = load i64, i64* %7, align 8, !llfi_index !2046
  %47 = sub nsw i64 %46, 1, !llfi_index !2047
  %48 = sdiv i64 %47, 2, !llfi_index !2048
  store i64 %48, i64* %11, align 8, !llfi_index !2049
  br label %20, !llvm.loop !2050, !llfi_index !2051

49:                                               ; preds = %32
  %50 = call nonnull align 4 dereferenceable(4) i32* @_ZSt4moveIRiEONSt16remove_referenceIT_E4typeEOS2_(i32* nonnull align 4 dereferenceable(4) %9) #2, !llfi_index !2052
  %51 = load i32, i32* %50, align 4, !llfi_index !2053
  %52 = load i64, i64* %7, align 8, !llfi_index !2054
  %53 = call i32* @_ZNK9__gnu_cxx17__normal_iteratorIPiSt6vectorIiSaIiEEEplEl(%"class.__gnu_cxx::__normal_iterator"* nonnull align 8 dereferenceable(8) %6, i64 %52) #2, !llfi_index !2055
  %54 = getelementptr inbounds %"class.__gnu_cxx::__normal_iterator", %"class.__gnu_cxx::__normal_iterator"* %15, i32 0, i32 0, !llfi_index !2056
  store i32* %53, i32** %54, align 8, !llfi_index !2057
  %55 = call nonnull align 4 dereferenceable(4) i32* @_ZNK9__gnu_cxx17__normal_iteratorIPiSt6vectorIiSaIiEEEdeEv(%"class.__gnu_cxx::__normal_iterator"* nonnull align 8 dereferenceable(8) %15) #2, !llfi_index !2058
  store i32 %51, i32* %55, align 4, !llfi_index !2059
  ret void, !llfi_index !2060
}

; Function Attrs: mustprogress noinline nounwind uwtable
define linkonce_odr dso_local zeroext i1 @_ZNK9__gnu_cxx5__ops14_Iter_less_valclINS_17__normal_iteratorIPiSt6vectorIiSaIiEEEEiEEbT_RT0_(%"class.std::allocator"* nonnull align 1 dereferenceable(1) %0, i32* %1, i32* nonnull align 4 dereferenceable(4) %2) #3 comdat align 2 {
  %4 = alloca %"class.__gnu_cxx::__normal_iterator", align 8, !llfi_index !2061
  %5 = alloca %"class.std::allocator"*, align 8, !llfi_index !2062
  %6 = alloca i32*, align 8, !llfi_index !2063
  %7 = getelementptr inbounds %"class.__gnu_cxx::__normal_iterator", %"class.__gnu_cxx::__normal_iterator"* %4, i32 0, i32 0, !llfi_index !2064
  store i32* %1, i32** %7, align 8, !llfi_index !2065
  store %"class.std::allocator"* %0, %"class.std::allocator"** %5, align 8, !llfi_index !2066
  store i32* %2, i32** %6, align 8, !llfi_index !2067
  %8 = load %"class.std::allocator"*, %"class.std::allocator"** %5, align 8, !llfi_index !2068
  %9 = call nonnull align 4 dereferenceable(4) i32* @_ZNK9__gnu_cxx17__normal_iteratorIPiSt6vectorIiSaIiEEEdeEv(%"class.__gnu_cxx::__normal_iterator"* nonnull align 8 dereferenceable(8) %4) #2, !llfi_index !2069
  %10 = load i32, i32* %9, align 4, !llfi_index !2070
  %11 = load i32*, i32** %6, align 8, !llfi_index !2071
  %12 = load i32, i32* %11, align 4, !llfi_index !2072
  %13 = icmp slt i32 %10, %12, !llfi_index !2073
  ret i1 %13, !llfi_index !2074
}

; Function Attrs: mustprogress noinline uwtable
define linkonce_odr dso_local void @_ZSt11__make_heapIN9__gnu_cxx17__normal_iteratorIPiSt6vectorIiSaIiEEEENS0_5__ops15_Iter_less_iterEEvT_S9_RT0_(i32* %0, i32* %1, %"class.std::allocator"* nonnull align 1 dereferenceable(1) %2) #4 comdat {
  %4 = alloca %"class.__gnu_cxx::__normal_iterator", align 8, !llfi_index !2075
  %5 = alloca %"class.__gnu_cxx::__normal_iterator", align 8, !llfi_index !2076
  %6 = alloca %"class.std::allocator"*, align 8, !llfi_index !2077
  %7 = alloca i64, align 8, !llfi_index !2078
  %8 = alloca i64, align 8, !llfi_index !2079
  %9 = alloca i32, align 4, !llfi_index !2080
  %10 = alloca %"class.__gnu_cxx::__normal_iterator", align 8, !llfi_index !2081
  %11 = alloca %"class.__gnu_cxx::__normal_iterator", align 8, !llfi_index !2082
  %12 = alloca %"class.std::allocator", align 1, !llfi_index !2083
  %13 = getelementptr inbounds %"class.__gnu_cxx::__normal_iterator", %"class.__gnu_cxx::__normal_iterator"* %4, i32 0, i32 0, !llfi_index !2084
  store i32* %0, i32** %13, align 8, !llfi_index !2085
  %14 = getelementptr inbounds %"class.__gnu_cxx::__normal_iterator", %"class.__gnu_cxx::__normal_iterator"* %5, i32 0, i32 0, !llfi_index !2086
  store i32* %1, i32** %14, align 8, !llfi_index !2087
  store %"class.std::allocator"* %2, %"class.std::allocator"** %6, align 8, !llfi_index !2088
  %15 = call i64 @_ZN9__gnu_cxxmiIPiSt6vectorIiSaIiEEEENS_17__normal_iteratorIT_T0_E15difference_typeERKS8_SB_(%"class.__gnu_cxx::__normal_iterator"* nonnull align 8 dereferenceable(8) %5, %"class.__gnu_cxx::__normal_iterator"* nonnull align 8 dereferenceable(8) %4) #2, !llfi_index !2089
  %16 = icmp slt i64 %15, 2, !llfi_index !2090
  br i1 %16, label %17, label %18, !llfi_index !2091

17:                                               ; preds = %3
  br label %45, !llfi_index !2092

18:                                               ; preds = %3
  %19 = call i64 @_ZN9__gnu_cxxmiIPiSt6vectorIiSaIiEEEENS_17__normal_iteratorIT_T0_E15difference_typeERKS8_SB_(%"class.__gnu_cxx::__normal_iterator"* nonnull align 8 dereferenceable(8) %5, %"class.__gnu_cxx::__normal_iterator"* nonnull align 8 dereferenceable(8) %4) #2, !llfi_index !2093
  store i64 %19, i64* %7, align 8, !llfi_index !2094
  %20 = load i64, i64* %7, align 8, !llfi_index !2095
  %21 = sub nsw i64 %20, 2, !llfi_index !2096
  %22 = sdiv i64 %21, 2, !llfi_index !2097
  store i64 %22, i64* %8, align 8, !llfi_index !2098
  br label %23, !llfi_index !2099

23:                                               ; preds = %42, %18
  %24 = load i64, i64* %8, align 8, !llfi_index !2100
  %25 = call i32* @_ZNK9__gnu_cxx17__normal_iteratorIPiSt6vectorIiSaIiEEEplEl(%"class.__gnu_cxx::__normal_iterator"* nonnull align 8 dereferenceable(8) %4, i64 %24) #2, !llfi_index !2101
  %26 = getelementptr inbounds %"class.__gnu_cxx::__normal_iterator", %"class.__gnu_cxx::__normal_iterator"* %10, i32 0, i32 0, !llfi_index !2102
  store i32* %25, i32** %26, align 8, !llfi_index !2103
  %27 = call nonnull align 4 dereferenceable(4) i32* @_ZNK9__gnu_cxx17__normal_iteratorIPiSt6vectorIiSaIiEEEdeEv(%"class.__gnu_cxx::__normal_iterator"* nonnull align 8 dereferenceable(8) %10) #2, !llfi_index !2104
  %28 = call nonnull align 4 dereferenceable(4) i32* @_ZSt4moveIRiEONSt16remove_referenceIT_E4typeEOS2_(i32* nonnull align 4 dereferenceable(4) %27) #2, !llfi_index !2105
  %29 = load i32, i32* %28, align 4, !llfi_index !2106
  store i32 %29, i32* %9, align 4, !llfi_index !2107
  %30 = bitcast %"class.__gnu_cxx::__normal_iterator"* %11 to i8*, !llfi_index !2108
  %31 = bitcast %"class.__gnu_cxx::__normal_iterator"* %4 to i8*, !llfi_index !2109
  call void @llvm.memcpy.p0i8.p0i8.i64(i8* align 8 %30, i8* align 8 %31, i64 8, i1 false), !llfi_index !2110
  %32 = load i64, i64* %8, align 8, !llfi_index !2111
  %33 = load i64, i64* %7, align 8, !llfi_index !2112
  %34 = call nonnull align 4 dereferenceable(4) i32* @_ZSt4moveIRiEONSt16remove_referenceIT_E4typeEOS2_(i32* nonnull align 4 dereferenceable(4) %9) #2, !llfi_index !2113
  %35 = load i32, i32* %34, align 4, !llfi_index !2114
  %36 = load %"class.std::allocator"*, %"class.std::allocator"** %6, align 8, !llfi_index !2115
  %37 = getelementptr inbounds %"class.__gnu_cxx::__normal_iterator", %"class.__gnu_cxx::__normal_iterator"* %11, i32 0, i32 0, !llfi_index !2116
  %38 = load i32*, i32** %37, align 8, !llfi_index !2117
  call void @_ZSt13__adjust_heapIN9__gnu_cxx17__normal_iteratorIPiSt6vectorIiSaIiEEEEliNS0_5__ops15_Iter_less_iterEEvT_T0_SA_T1_T2_(i32* %38, i64 %32, i64 %33, i32 %35), !llfi_index !2118
  %39 = load i64, i64* %8, align 8, !llfi_index !2119
  %40 = icmp eq i64 %39, 0, !llfi_index !2120
  br i1 %40, label %41, label %42, !llfi_index !2121

41:                                               ; preds = %23
  br label %45, !llfi_index !2122

42:                                               ; preds = %23
  %43 = load i64, i64* %8, align 8, !llfi_index !2123
  %44 = add nsw i64 %43, -1, !llfi_index !2124
  store i64 %44, i64* %8, align 8, !llfi_index !2125
  br label %23, !llvm.loop !2126, !llfi_index !2127

45:                                               ; preds = %41, %17
  ret void, !llfi_index !2128
}

; Function Attrs: nofree nosync nounwind readnone speculatable willreturn
declare i64 @llvm.ctlz.i64(i64, i1 immarg) #11

; Function Attrs: mustprogress noinline nounwind uwtable
define linkonce_odr dso_local void @_ZNSt16allocator_traitsISaIiEE9constructIiJRKiEEEvRS0_PT_DpOT0_(%"class.std::allocator"* nonnull align 1 dereferenceable(1) %0, i32* %1, i32* nonnull align 4 dereferenceable(4) %2) #3 comdat align 2 {
  %4 = alloca %"class.std::allocator"*, align 8, !llfi_index !2129
  %5 = alloca i32*, align 8, !llfi_index !2130
  %6 = alloca i32*, align 8, !llfi_index !2131
  store %"class.std::allocator"* %0, %"class.std::allocator"** %4, align 8, !llfi_index !2132
  store i32* %1, i32** %5, align 8, !llfi_index !2133
  store i32* %2, i32** %6, align 8, !llfi_index !2134
  %7 = load %"class.std::allocator"*, %"class.std::allocator"** %4, align 8, !llfi_index !2135
  %8 = bitcast %"class.std::allocator"* %7 to %"class.std::allocator"*, !llfi_index !2136
  %9 = load i32*, i32** %5, align 8, !llfi_index !2137
  %10 = load i32*, i32** %6, align 8, !llfi_index !2138
  %11 = call nonnull align 4 dereferenceable(4) i32* @_ZSt7forwardIRKiEOT_RNSt16remove_referenceIS2_E4typeE(i32* nonnull align 4 dereferenceable(4) %10) #2, !llfi_index !2139
  call void @_ZN9__gnu_cxx13new_allocatorIiE9constructIiJRKiEEEvPT_DpOT0_(%"class.std::allocator"* nonnull align 1 dereferenceable(1) %8, i32* %9, i32* nonnull align 4 dereferenceable(4) %11) #2, !llfi_index !2140
  ret void, !llfi_index !2141
}

; Function Attrs: mustprogress noinline uwtable
define linkonce_odr dso_local void @_ZNSt6vectorIiSaIiEE17_M_realloc_insertIJRKiEEEvN9__gnu_cxx17__normal_iteratorIPiS1_EEDpOT_(%"class.std::vector"* nonnull align 8 dereferenceable(24) %0, i32* %1, i32* nonnull align 4 dereferenceable(4) %2) #4 comdat align 2 {
  %4 = alloca %"class.__gnu_cxx::__normal_iterator", align 8, !llfi_index !2142
  %5 = alloca %"class.std::vector"*, align 8, !llfi_index !2143
  %6 = alloca i32*, align 8, !llfi_index !2144
  %7 = alloca i64, align 8, !llfi_index !2145
  %8 = alloca i32*, align 8, !llfi_index !2146
  %9 = alloca i32*, align 8, !llfi_index !2147
  %10 = alloca i64, align 8, !llfi_index !2148
  %11 = alloca %"class.__gnu_cxx::__normal_iterator", align 8, !llfi_index !2149
  %12 = alloca i32*, align 8, !llfi_index !2150
  %13 = alloca i32*, align 8, !llfi_index !2151
  %14 = getelementptr inbounds %"class.__gnu_cxx::__normal_iterator", %"class.__gnu_cxx::__normal_iterator"* %4, i32 0, i32 0, !llfi_index !2152
  store i32* %1, i32** %14, align 8, !llfi_index !2153
  store %"class.std::vector"* %0, %"class.std::vector"** %5, align 8, !llfi_index !2154
  store i32* %2, i32** %6, align 8, !llfi_index !2155
  %15 = load %"class.std::vector"*, %"class.std::vector"** %5, align 8, !llfi_index !2156
  %16 = call i64 @_ZNKSt6vectorIiSaIiEE12_M_check_lenEmPKc(%"class.std::vector"* nonnull align 8 dereferenceable(24) %15, i64 1, i8* getelementptr inbounds ([26 x i8], [26 x i8]* @.str.6, i64 0, i64 0)), !llfi_index !2157
  store i64 %16, i64* %7, align 8, !llfi_index !2158
  %17 = bitcast %"class.std::vector"* %15 to %"struct.std::_Vector_base"*, !llfi_index !2159
  %18 = getelementptr inbounds %"struct.std::_Vector_base", %"struct.std::_Vector_base"* %17, i32 0, i32 0, !llfi_index !2160
  %19 = bitcast %"struct.std::_Vector_base<int, std::allocator<int>>::_Vector_impl"* %18 to %"struct.std::_Vector_base<int, std::allocator<int>>::_Vector_impl_data"*, !llfi_index !2161
  %20 = getelementptr inbounds %"struct.std::_Vector_base<int, std::allocator<int>>::_Vector_impl_data", %"struct.std::_Vector_base<int, std::allocator<int>>::_Vector_impl_data"* %19, i32 0, i32 0, !llfi_index !2162
  %21 = load i32*, i32** %20, align 8, !llfi_index !2163
  store i32* %21, i32** %8, align 8, !llfi_index !2164
  %22 = bitcast %"class.std::vector"* %15 to %"struct.std::_Vector_base"*, !llfi_index !2165
  %23 = getelementptr inbounds %"struct.std::_Vector_base", %"struct.std::_Vector_base"* %22, i32 0, i32 0, !llfi_index !2166
  %24 = bitcast %"struct.std::_Vector_base<int, std::allocator<int>>::_Vector_impl"* %23 to %"struct.std::_Vector_base<int, std::allocator<int>>::_Vector_impl_data"*, !llfi_index !2167
  %25 = getelementptr inbounds %"struct.std::_Vector_base<int, std::allocator<int>>::_Vector_impl_data", %"struct.std::_Vector_base<int, std::allocator<int>>::_Vector_impl_data"* %24, i32 0, i32 1, !llfi_index !2168
  %26 = load i32*, i32** %25, align 8, !llfi_index !2169
  store i32* %26, i32** %9, align 8, !llfi_index !2170
  %27 = call i32* @_ZNSt6vectorIiSaIiEE5beginEv(%"class.std::vector"* nonnull align 8 dereferenceable(24) %15) #2, !llfi_index !2171
  %28 = getelementptr inbounds %"class.__gnu_cxx::__normal_iterator", %"class.__gnu_cxx::__normal_iterator"* %11, i32 0, i32 0, !llfi_index !2172
  store i32* %27, i32** %28, align 8, !llfi_index !2173
  %29 = call i64 @_ZN9__gnu_cxxmiIPiSt6vectorIiSaIiEEEENS_17__normal_iteratorIT_T0_E15difference_typeERKS8_SB_(%"class.__gnu_cxx::__normal_iterator"* nonnull align 8 dereferenceable(8) %4, %"class.__gnu_cxx::__normal_iterator"* nonnull align 8 dereferenceable(8) %11) #2, !llfi_index !2174
  store i64 %29, i64* %10, align 8, !llfi_index !2175
  %30 = bitcast %"class.std::vector"* %15 to %"struct.std::_Vector_base"*, !llfi_index !2176
  %31 = load i64, i64* %7, align 8, !llfi_index !2177
  %32 = call i32* @_ZNSt12_Vector_baseIiSaIiEE11_M_allocateEm(%"struct.std::_Vector_base"* nonnull align 8 dereferenceable(24) %30, i64 %31), !llfi_index !2178
  store i32* %32, i32** %12, align 8, !llfi_index !2179
  %33 = load i32*, i32** %12, align 8, !llfi_index !2180
  store i32* %33, i32** %13, align 8, !llfi_index !2181
  %34 = bitcast %"class.std::vector"* %15 to %"struct.std::_Vector_base"*, !llfi_index !2182
  %35 = getelementptr inbounds %"struct.std::_Vector_base", %"struct.std::_Vector_base"* %34, i32 0, i32 0, !llfi_index !2183
  %36 = bitcast %"struct.std::_Vector_base<int, std::allocator<int>>::_Vector_impl"* %35 to %"class.std::allocator"*, !llfi_index !2184
  %37 = load i32*, i32** %12, align 8, !llfi_index !2185
  %38 = load i64, i64* %10, align 8, !llfi_index !2186
  %39 = getelementptr inbounds i32, i32* %37, i64 %38, !llfi_index !2187
  %40 = load i32*, i32** %6, align 8, !llfi_index !2188
  %41 = call nonnull align 4 dereferenceable(4) i32* @_ZSt7forwardIRKiEOT_RNSt16remove_referenceIS2_E4typeE(i32* nonnull align 4 dereferenceable(4) %40) #2, !llfi_index !2189
  call void @_ZNSt16allocator_traitsISaIiEE9constructIiJRKiEEEvRS0_PT_DpOT0_(%"class.std::allocator"* nonnull align 1 dereferenceable(1) %36, i32* %39, i32* nonnull align 4 dereferenceable(4) %41) #2, !llfi_index !2190
  store i32* null, i32** %13, align 8, !llfi_index !2191
  %42 = load i32*, i32** %8, align 8, !llfi_index !2192
  %43 = call nonnull align 8 dereferenceable(8) i32** @_ZNK9__gnu_cxx17__normal_iteratorIPiSt6vectorIiSaIiEEE4baseEv(%"class.__gnu_cxx::__normal_iterator"* nonnull align 8 dereferenceable(8) %4) #2, !llfi_index !2193
  %44 = load i32*, i32** %43, align 8, !llfi_index !2194
  %45 = load i32*, i32** %12, align 8, !llfi_index !2195
  %46 = bitcast %"class.std::vector"* %15 to %"struct.std::_Vector_base"*, !llfi_index !2196
  %47 = call nonnull align 1 dereferenceable(1) %"class.std::allocator"* @_ZNSt12_Vector_baseIiSaIiEE19_M_get_Tp_allocatorEv(%"struct.std::_Vector_base"* nonnull align 8 dereferenceable(24) %46) #2, !llfi_index !2197
  %48 = call i32* @_ZNSt6vectorIiSaIiEE11_S_relocateEPiS2_S2_RS0_(i32* %42, i32* %44, i32* %45, %"class.std::allocator"* nonnull align 1 dereferenceable(1) %47) #2, !llfi_index !2198
  store i32* %48, i32** %13, align 8, !llfi_index !2199
  %49 = load i32*, i32** %13, align 8, !llfi_index !2200
  %50 = getelementptr inbounds i32, i32* %49, i32 1, !llfi_index !2201
  store i32* %50, i32** %13, align 8, !llfi_index !2202
  %51 = call nonnull align 8 dereferenceable(8) i32** @_ZNK9__gnu_cxx17__normal_iteratorIPiSt6vectorIiSaIiEEE4baseEv(%"class.__gnu_cxx::__normal_iterator"* nonnull align 8 dereferenceable(8) %4) #2, !llfi_index !2203
  %52 = load i32*, i32** %51, align 8, !llfi_index !2204
  %53 = load i32*, i32** %9, align 8, !llfi_index !2205
  %54 = load i32*, i32** %13, align 8, !llfi_index !2206
  %55 = bitcast %"class.std::vector"* %15 to %"struct.std::_Vector_base"*, !llfi_index !2207
  %56 = call nonnull align 1 dereferenceable(1) %"class.std::allocator"* @_ZNSt12_Vector_baseIiSaIiEE19_M_get_Tp_allocatorEv(%"struct.std::_Vector_base"* nonnull align 8 dereferenceable(24) %55) #2, !llfi_index !2208
  %57 = call i32* @_ZNSt6vectorIiSaIiEE11_S_relocateEPiS2_S2_RS0_(i32* %52, i32* %53, i32* %54, %"class.std::allocator"* nonnull align 1 dereferenceable(1) %56) #2, !llfi_index !2209
  store i32* %57, i32** %13, align 8, !llfi_index !2210
  %58 = bitcast %"class.std::vector"* %15 to %"struct.std::_Vector_base"*, !llfi_index !2211
  %59 = load i32*, i32** %8, align 8, !llfi_index !2212
  %60 = bitcast %"class.std::vector"* %15 to %"struct.std::_Vector_base"*, !llfi_index !2213
  %61 = getelementptr inbounds %"struct.std::_Vector_base", %"struct.std::_Vector_base"* %60, i32 0, i32 0, !llfi_index !2214
  %62 = bitcast %"struct.std::_Vector_base<int, std::allocator<int>>::_Vector_impl"* %61 to %"struct.std::_Vector_base<int, std::allocator<int>>::_Vector_impl_data"*, !llfi_index !2215
  %63 = getelementptr inbounds %"struct.std::_Vector_base<int, std::allocator<int>>::_Vector_impl_data", %"struct.std::_Vector_base<int, std::allocator<int>>::_Vector_impl_data"* %62, i32 0, i32 2, !llfi_index !2216
  %64 = load i32*, i32** %63, align 8, !llfi_index !2217
  %65 = load i32*, i32** %8, align 8, !llfi_index !2218
  %66 = ptrtoint i32* %64 to i64, !llfi_index !2219
  %67 = ptrtoint i32* %65 to i64, !llfi_index !2220
  %68 = sub i64 %66, %67, !llfi_index !2221
  %69 = sdiv exact i64 %68, 4, !llfi_index !2222
  call void @_ZNSt12_Vector_baseIiSaIiEE13_M_deallocateEPim(%"struct.std::_Vector_base"* nonnull align 8 dereferenceable(24) %58, i32* %59, i64 %69), !llfi_index !2223
  %70 = load i32*, i32** %12, align 8, !llfi_index !2224
  %71 = bitcast %"class.std::vector"* %15 to %"struct.std::_Vector_base"*, !llfi_index !2225
  %72 = getelementptr inbounds %"struct.std::_Vector_base", %"struct.std::_Vector_base"* %71, i32 0, i32 0, !llfi_index !2226
  %73 = bitcast %"struct.std::_Vector_base<int, std::allocator<int>>::_Vector_impl"* %72 to %"struct.std::_Vector_base<int, std::allocator<int>>::_Vector_impl_data"*, !llfi_index !2227
  %74 = getelementptr inbounds %"struct.std::_Vector_base<int, std::allocator<int>>::_Vector_impl_data", %"struct.std::_Vector_base<int, std::allocator<int>>::_Vector_impl_data"* %73, i32 0, i32 0, !llfi_index !2228
  store i32* %70, i32** %74, align 8, !llfi_index !2229
  %75 = load i32*, i32** %13, align 8, !llfi_index !2230
  %76 = bitcast %"class.std::vector"* %15 to %"struct.std::_Vector_base"*, !llfi_index !2231
  %77 = getelementptr inbounds %"struct.std::_Vector_base", %"struct.std::_Vector_base"* %76, i32 0, i32 0, !llfi_index !2232
  %78 = bitcast %"struct.std::_Vector_base<int, std::allocator<int>>::_Vector_impl"* %77 to %"struct.std::_Vector_base<int, std::allocator<int>>::_Vector_impl_data"*, !llfi_index !2233
  %79 = getelementptr inbounds %"struct.std::_Vector_base<int, std::allocator<int>>::_Vector_impl_data", %"struct.std::_Vector_base<int, std::allocator<int>>::_Vector_impl_data"* %78, i32 0, i32 1, !llfi_index !2234
  store i32* %75, i32** %79, align 8, !llfi_index !2235
  %80 = load i32*, i32** %12, align 8, !llfi_index !2236
  %81 = load i64, i64* %7, align 8, !llfi_index !2237
  %82 = getelementptr inbounds i32, i32* %80, i64 %81, !llfi_index !2238
  %83 = bitcast %"class.std::vector"* %15 to %"struct.std::_Vector_base"*, !llfi_index !2239
  %84 = getelementptr inbounds %"struct.std::_Vector_base", %"struct.std::_Vector_base"* %83, i32 0, i32 0, !llfi_index !2240
  %85 = bitcast %"struct.std::_Vector_base<int, std::allocator<int>>::_Vector_impl"* %84 to %"struct.std::_Vector_base<int, std::allocator<int>>::_Vector_impl_data"*, !llfi_index !2241
