; ModuleID = '/home/hjiang/Computation-Kernel-Dataset/experiments/Fault_injection_0308_parall/O0/LexicographicallySmallerorEqualStrings/LexicographicallySmallerorEqualStrings.ll'
source_filename = "llvm-link"
target datalayout = "e-m:e-p270:32:32-p271:32:32-p272:64:64-i64:64-f80:128-n8:16:32:64-S128"
target triple = "x86_64-unknown-linux-gnu"

%"class.std::ios_base::Init" = type { i8 }
%struct.SS = type <{ %"class.std::__cxx11::basic_string", i32, i32, i32, [4 x i8] }>
%"class.std::__cxx11::basic_string" = type { %"struct.std::__cxx11::basic_string<char>::_Alloc_hider", i64, %union.anon }
%"struct.std::__cxx11::basic_string<char>::_Alloc_hider" = type { i8* }
%union.anon = type { i64, [8 x i8] }
%struct._IO_FILE = type { i32, i8*, i8*, i8*, i8*, i8*, i8*, i8*, i8*, i8*, i8*, i8*, %struct._IO_marker*, %struct._IO_FILE*, i32, i32, i64, i16, i8, [1 x i8], i8*, i64, %struct._IO_codecvt*, %struct._IO_wide_data*, %struct._IO_FILE*, i8*, i64, i32, [20 x i8] }
%struct._IO_marker = type opaque
%struct._IO_codecvt = type opaque
%struct._IO_wide_data = type opaque
%"class.std::basic_istream" = type { i32 (...)**, i64, %"class.std::basic_ios" }
%"class.std::basic_ios" = type { %"class.std::ios_base", %"class.std::basic_ostream"*, i8, i8, %"class.std::basic_streambuf"*, %"class.std::ctype"*, %"class.std::num_put"*, %"class.std::num_put"* }
%"class.std::ios_base" = type { i32 (...)**, i64, i64, i32, i32, i32, %"struct.std::ios_base::_Callback_list"*, %"struct.std::ios_base::_Words", [8 x %"struct.std::ios_base::_Words"], i32, %"struct.std::ios_base::_Words"*, %"class.std::locale" }
%"struct.std::ios_base::_Callback_list" = type { %"struct.std::ios_base::_Callback_list"*, void (i32, %"class.std::ios_base"*, i32)*, i32, i32 }
%"struct.std::ios_base::_Words" = type { i8*, i64 }
%"class.std::locale" = type { %"class.std::locale::_Impl"* }
%"class.std::locale::_Impl" = type { i32, %"class.std::locale::facet"**, i64, %"class.std::locale::facet"**, i8** }
%"class.std::locale::facet" = type <{ i32 (...)**, i32, [4 x i8] }>
%"class.std::basic_ostream" = type { i32 (...)**, %"class.std::basic_ios" }
%"class.std::basic_streambuf" = type { i32 (...)**, i8*, i8*, i8*, i8*, i8*, i8*, %"class.std::locale" }
%"class.std::ctype" = type <{ %"class.std::locale::facet.base", [4 x i8], %struct.__locale_struct*, i8, [7 x i8], i32*, i32*, i16*, i8, [256 x i8], [256 x i8], i8, [6 x i8] }>
%"class.std::locale::facet.base" = type <{ i32 (...)**, i32 }>
%struct.__locale_struct = type { [13 x %struct.__locale_data*], i16*, i32*, i32*, [13 x i8*] }
%struct.__locale_data = type opaque
%"class.std::num_put" = type { %"class.std::locale::facet.base", [4 x i8] }

$_ZN2SSC2Ev = comdat any

$_ZN2SSD2Ev = comdat any

$_ZSt4sortIP2SSEvT_S2_ = comdat any

$_ZN2SSC2ERKS_ = comdat any

$_ZN9__gnu_cxx5__ops16__iter_less_iterEv = comdat any

$_ZSt6__sortIP2SSN9__gnu_cxx5__ops15_Iter_less_iterEEvT_S5_T0_ = comdat any

$_ZSt4__lgl = comdat any

$_ZSt16__introsort_loopIP2SSlN9__gnu_cxx5__ops15_Iter_less_iterEEvT_S5_T0_T1_ = comdat any

$_ZSt22__final_insertion_sortIP2SSN9__gnu_cxx5__ops15_Iter_less_iterEEvT_S5_T0_ = comdat any

$_ZSt16__insertion_sortIP2SSN9__gnu_cxx5__ops15_Iter_less_iterEEvT_S5_T0_ = comdat any

$_ZSt26__unguarded_insertion_sortIP2SSN9__gnu_cxx5__ops15_Iter_less_iterEEvT_S5_T0_ = comdat any

$_ZN9__gnu_cxx5__ops15__val_comp_iterENS0_15_Iter_less_iterE = comdat any

$_ZSt25__unguarded_linear_insertIP2SSN9__gnu_cxx5__ops14_Val_less_iterEEvT_T0_ = comdat any

$_ZSt4moveIR2SSEONSt16remove_referenceIT_E4typeEOS3_ = comdat any

$_ZN2SSC2EOS_ = comdat any

$_ZNK9__gnu_cxx5__ops14_Val_less_iterclI2SSPS3_EEbRT_T0_ = comdat any

$_ZN2SSaSEOS_ = comdat any

$_ZNK2SSltERKS_ = comdat any

$_ZNK9__gnu_cxx5__ops15_Iter_less_iterclIP2SSS4_EEbT_T0_ = comdat any

$_ZSt13move_backwardIP2SSS1_ET0_T_S3_S2_ = comdat any

$_ZSt12__miter_baseIP2SSET_S2_ = comdat any

$_ZSt23__copy_move_backward_a2ILb1EP2SSS1_ET1_T0_S3_S2_ = comdat any

$_ZSt12__niter_baseIP2SSET_S2_ = comdat any

$_ZSt22__copy_move_backward_aILb1EP2SSS1_ET1_T0_S3_S2_ = comdat any

$_ZSt12__niter_wrapIP2SSET_RKS2_S2_ = comdat any

$_ZNSt20__copy_move_backwardILb1ELb0ESt26random_access_iterator_tagE13__copy_move_bIP2SSS4_EET0_T_S6_S5_ = comdat any

$_ZSt14__partial_sortIP2SSN9__gnu_cxx5__ops15_Iter_less_iterEEvT_S5_S5_T0_ = comdat any

$_ZSt27__unguarded_partition_pivotIP2SSN9__gnu_cxx5__ops15_Iter_less_iterEET_S5_S5_T0_ = comdat any

$_ZSt22__move_median_to_firstIP2SSN9__gnu_cxx5__ops15_Iter_less_iterEEvT_S5_S5_S5_T0_ = comdat any

$_ZSt21__unguarded_partitionIP2SSN9__gnu_cxx5__ops15_Iter_less_iterEET_S5_S5_S5_T0_ = comdat any

$_ZSt9iter_swapIP2SSS1_EvT_T0_ = comdat any

$_ZSt4swapI2SSENSt9enable_ifIXsr6__and_ISt6__not_ISt15__is_tuple_likeIT_EESt21is_move_constructibleIS4_ESt18is_move_assignableIS4_EEE5valueEvE4typeERS4_SD_ = comdat any

$_ZSt13__heap_selectIP2SSN9__gnu_cxx5__ops15_Iter_less_iterEEvT_S5_S5_T0_ = comdat any

$_ZSt11__sort_heapIP2SSN9__gnu_cxx5__ops15_Iter_less_iterEEvT_S5_RT0_ = comdat any

$_ZSt10__pop_heapIP2SSN9__gnu_cxx5__ops15_Iter_less_iterEEvT_S5_S5_RT0_ = comdat any

$_ZSt13__adjust_heapIP2SSlS0_N9__gnu_cxx5__ops15_Iter_less_iterEEvT_T0_S6_T1_T2_ = comdat any

$_ZSt4moveIRN9__gnu_cxx5__ops15_Iter_less_iterEEONSt16remove_referenceIT_E4typeEOS5_ = comdat any

$_ZN9__gnu_cxx5__ops14_Iter_less_valC2ENS0_15_Iter_less_iterE = comdat any

$_ZSt11__push_heapIP2SSlS0_N9__gnu_cxx5__ops14_Iter_less_valEEvT_T0_S6_T1_RT2_ = comdat any

$_ZNK9__gnu_cxx5__ops14_Iter_less_valclIP2SSS3_EEbT_RT0_ = comdat any

$_ZSt11__make_heapIP2SSN9__gnu_cxx5__ops15_Iter_less_iterEEvT_S5_RT0_ = comdat any

@llvm.global_ctors = appending global [1 x { i32, void ()*, i8* }] [{ i32, void ()*, i8* } { i32 65535, void ()* @_GLOBAL__sub_I_LexicographicallySmallerorEqualStrings.cpp, i8* null }]
@_ZStL8__ioinit = internal global %"class.std::ios_base::Init" zeroinitializer, align 1
@n = dso_local global i32 0, align 4
@i = dso_local global i32 0, align 4
@q = dso_local global i32 0, align 4
@ans = dso_local global [200005 x i32] zeroinitializer, align 16
@aib = dso_local global [200005 x i32] zeroinitializer, align 16
@s = dso_local global [200005 x %struct.SS] zeroinitializer, align 16
@.str = private unnamed_addr constant [54 x i8] c"../input_files/LexicographicallySmallerorEqualStrings\00", align 1
@.str.2 = private unnamed_addr constant [2 x i8] c"r\00", align 1
@stdin = external dso_local global %struct._IO_FILE*, align 8
@_ZSt3cin = external dso_local global %"class.std::basic_istream", align 8
@_ZSt4cout = external dso_local global %"class.std::basic_ostream", align 8

; Function Attrs: noinline uwtable
define internal void @_GLOBAL__sub_I_LexicographicallySmallerorEqualStrings.cpp() #0 section ".text.startup" {
  call void @__cxx_global_var_init(), !llfi_index !4
  call void @__cxx_global_var_init.1(), !llfi_index !5
  ret void, !llfi_index !6
}

; Function Attrs: noinline uwtable
define internal void @__cxx_global_var_init() #0 section ".text.startup" {
  call void @_ZNSt8ios_base4InitC1Ev(%"class.std::ios_base::Init"* nonnull align 1 dereferenceable(1) @_ZStL8__ioinit), !llfi_index !7
  %1 = call i32 @atexit(void ()* @__dtor__ZStL8__ioinit) #2, !llfi_index !8
  ret void, !llfi_index !9
}

; Function Attrs: noinline uwtable
define internal void @__cxx_global_var_init.1() #0 section ".text.startup" {
  br label %1, !llfi_index !10

1:                                                ; preds = %1, %0
  %2 = phi %struct.SS* [ getelementptr inbounds ([200005 x %struct.SS], [200005 x %struct.SS]* @s, i32 0, i32 0), %0 ], [ %3, %1 ], !llfi_index !11
  call void @_ZN2SSC2Ev(%struct.SS* nonnull align 8 dereferenceable(44) %2) #2, !llfi_index !12
  %3 = getelementptr inbounds %struct.SS, %struct.SS* %2, i64 1, !llfi_index !13
  %4 = icmp eq %struct.SS* %3, getelementptr inbounds (%struct.SS, %struct.SS* getelementptr inbounds ([200005 x %struct.SS], [200005 x %struct.SS]* @s, i32 0, i32 0), i64 200005), !llfi_index !14
  br i1 %4, label %5, label %1, !llfi_index !15

5:                                                ; preds = %1
  %6 = call i32 @atexit(void ()* @__dtor_s) #2, !llfi_index !16
  ret void, !llfi_index !17
}

; Function Attrs: noinline nounwind uwtable
define linkonce_odr dso_local void @_ZN2SSC2Ev(%struct.SS* nonnull align 8 dereferenceable(44) %0) unnamed_addr #1 comdat align 2 {
  %2 = alloca %struct.SS*, align 8, !llfi_index !18
  store %struct.SS* %0, %struct.SS** %2, align 8, !llfi_index !19
  %3 = load %struct.SS*, %struct.SS** %2, align 8, !llfi_index !20
  %4 = getelementptr inbounds %struct.SS, %struct.SS* %3, i32 0, i32 0, !llfi_index !21
  call void @_ZNSt7__cxx1112basic_stringIcSt11char_traitsIcESaIcEEC1Ev(%"class.std::__cxx11::basic_string"* nonnull align 8 dereferenceable(32) %4) #2, !llfi_index !22
  ret void, !llfi_index !23
}

; Function Attrs: noinline uwtable
define internal void @__dtor_s() #0 section ".text.startup" {
  call void @__cxx_global_array_dtor(i8* null), !llfi_index !24
  ret void, !llfi_index !25
}

; Function Attrs: nounwind
declare dso_local i32 @atexit(void ()*) #2

; Function Attrs: noinline uwtable
define internal void @__cxx_global_array_dtor(i8* %0) #0 section ".text.startup" {
  %2 = alloca i8*, align 8, !llfi_index !26
  store i8* %0, i8** %2, align 8, !llfi_index !27
  br label %3, !llfi_index !28

3:                                                ; preds = %3, %1
  %4 = phi %struct.SS* [ getelementptr inbounds (%struct.SS, %struct.SS* getelementptr inbounds ([200005 x %struct.SS], [200005 x %struct.SS]* @s, i32 0, i32 0), i64 200005), %1 ], [ %5, %3 ], !llfi_index !29
  %5 = getelementptr inbounds %struct.SS, %struct.SS* %4, i64 -1, !llfi_index !30
  call void @_ZN2SSD2Ev(%struct.SS* nonnull align 8 dereferenceable(44) %5) #2, !llfi_index !31
  %6 = icmp eq %struct.SS* %5, getelementptr inbounds ([200005 x %struct.SS], [200005 x %struct.SS]* @s, i32 0, i32 0), !llfi_index !32
  br i1 %6, label %7, label %3, !llfi_index !33

7:                                                ; preds = %3
  ret void, !llfi_index !34
}

; Function Attrs: noinline nounwind uwtable
define linkonce_odr dso_local void @_ZN2SSD2Ev(%struct.SS* nonnull align 8 dereferenceable(44) %0) unnamed_addr #1 comdat align 2 {
  %2 = alloca %struct.SS*, align 8, !llfi_index !35
  store %struct.SS* %0, %struct.SS** %2, align 8, !llfi_index !36
  %3 = load %struct.SS*, %struct.SS** %2, align 8, !llfi_index !37
  %4 = getelementptr inbounds %struct.SS, %struct.SS* %3, i32 0, i32 0, !llfi_index !38
  call void @_ZNSt7__cxx1112basic_stringIcSt11char_traitsIcESaIcEED1Ev(%"class.std::__cxx11::basic_string"* nonnull align 8 dereferenceable(32) %4) #2, !llfi_index !39
  ret void, !llfi_index !40
}

; Function Attrs: nounwind
declare dso_local void @_ZNSt7__cxx1112basic_stringIcSt11char_traitsIcESaIcEED1Ev(%"class.std::__cxx11::basic_string"* nonnull align 8 dereferenceable(32)) unnamed_addr #3

; Function Attrs: nounwind
declare dso_local void @_ZNSt7__cxx1112basic_stringIcSt11char_traitsIcESaIcEEC1Ev(%"class.std::__cxx11::basic_string"* nonnull align 8 dereferenceable(32)) unnamed_addr #3

declare dso_local void @_ZNSt8ios_base4InitC1Ev(%"class.std::ios_base::Init"* nonnull align 1 dereferenceable(1)) unnamed_addr #4

; Function Attrs: noinline uwtable
define internal void @__dtor__ZStL8__ioinit() #0 section ".text.startup" {
  call void @_ZNSt8ios_base4InitD1Ev(%"class.std::ios_base::Init"* @_ZStL8__ioinit), !llfi_index !41
  ret void, !llfi_index !42
}

; Function Attrs: nounwind
declare dso_local void @_ZNSt8ios_base4InitD1Ev(%"class.std::ios_base::Init"* nonnull align 1 dereferenceable(1)) unnamed_addr #3

; Function Attrs: mustprogress noinline nounwind uwtable
define dso_local i32 @_Z2ubi(i32 %0) #5 {
  %2 = alloca i32, align 4, !llfi_index !43
  store i32 %0, i32* %2, align 4, !llfi_index !44
  %3 = load i32, i32* %2, align 4, !llfi_index !45
  %4 = load i32, i32* %2, align 4, !llfi_index !46
  %5 = sub nsw i32 0, %4, !llfi_index !47
  %6 = and i32 %3, %5, !llfi_index !48
  ret i32 %6, !llfi_index !49
}

; Function Attrs: mustprogress noinline nounwind uwtable
define dso_local void @_Z6updatei(i32 %0) #5 {
  %2 = alloca i32, align 4, !llfi_index !50
  store i32 %0, i32* %2, align 4, !llfi_index !51
  br label %3, !llfi_index !52

3:                                                ; preds = %13, %1
  %4 = load i32, i32* %2, align 4, !llfi_index !53
  %5 = load i32, i32* @n, align 4, !llfi_index !54
  %6 = icmp sle i32 %4, %5, !llfi_index !55
  br i1 %6, label %7, label %18, !llfi_index !56

7:                                                ; preds = %3
  %8 = load i32, i32* %2, align 4, !llfi_index !57
  %9 = sext i32 %8 to i64, !llfi_index !58
  %10 = getelementptr inbounds [200005 x i32], [200005 x i32]* @aib, i64 0, i64 %9, !llfi_index !59
  %11 = load i32, i32* %10, align 4, !llfi_index !60
  %12 = add nsw i32 %11, 1, !llfi_index !61
  store i32 %12, i32* %10, align 4, !llfi_index !62
  br label %13, !llfi_index !63

13:                                               ; preds = %7
  %14 = load i32, i32* %2, align 4, !llfi_index !64
  %15 = call i32 @_Z2ubi(i32 %14), !llfi_index !65
  %16 = load i32, i32* %2, align 4, !llfi_index !66
  %17 = add nsw i32 %16, %15, !llfi_index !67
  store i32 %17, i32* %2, align 4, !llfi_index !68
  br label %3, !llvm.loop !69, !llfi_index !71

18:                                               ; preds = %3
  ret void, !llfi_index !72
}

; Function Attrs: mustprogress noinline nounwind uwtable
define dso_local i32 @_Z5queryii(i32 %0, i32 %1) #5 {
  %3 = alloca i32, align 4, !llfi_index !73
  %4 = alloca i32, align 4, !llfi_index !74
  %5 = alloca i32, align 4, !llfi_index !75
  store i32 %0, i32* %3, align 4, !llfi_index !76
  store i32 %1, i32* %4, align 4, !llfi_index !77
  store i32 0, i32* %5, align 4, !llfi_index !78
  br label %6, !llfi_index !79

6:                                                ; preds = %16, %2
  %7 = load i32, i32* %4, align 4, !llfi_index !80
  %8 = icmp ne i32 %7, 0, !llfi_index !81
  br i1 %8, label %9, label %21, !llfi_index !82

9:                                                ; preds = %6
  %10 = load i32, i32* %4, align 4, !llfi_index !83
  %11 = sext i32 %10 to i64, !llfi_index !84
  %12 = getelementptr inbounds [200005 x i32], [200005 x i32]* @aib, i64 0, i64 %11, !llfi_index !85
  %13 = load i32, i32* %12, align 4, !llfi_index !86
  %14 = load i32, i32* %5, align 4, !llfi_index !87
  %15 = add nsw i32 %14, %13, !llfi_index !88
  store i32 %15, i32* %5, align 4, !llfi_index !89
  br label %16, !llfi_index !90

16:                                               ; preds = %9
  %17 = load i32, i32* %4, align 4, !llfi_index !91
  %18 = call i32 @_Z2ubi(i32 %17), !llfi_index !92
  %19 = load i32, i32* %4, align 4, !llfi_index !93
  %20 = sub nsw i32 %19, %18, !llfi_index !94
  store i32 %20, i32* %4, align 4, !llfi_index !95
  br label %6, !llvm.loop !96, !llfi_index !97

21:                                               ; preds = %6
  %22 = load i32, i32* %3, align 4, !llfi_index !98
  %23 = add nsw i32 %22, -1, !llfi_index !99
  store i32 %23, i32* %3, align 4, !llfi_index !100
  br label %24, !llfi_index !101

24:                                               ; preds = %34, %21
  %25 = load i32, i32* %3, align 4, !llfi_index !102
  %26 = icmp ne i32 %25, 0, !llfi_index !103
  br i1 %26, label %27, label %39, !llfi_index !104

27:                                               ; preds = %24
  %28 = load i32, i32* %3, align 4, !llfi_index !105
  %29 = sext i32 %28 to i64, !llfi_index !106
  %30 = getelementptr inbounds [200005 x i32], [200005 x i32]* @aib, i64 0, i64 %29, !llfi_index !107
  %31 = load i32, i32* %30, align 4, !llfi_index !108
  %32 = load i32, i32* %5, align 4, !llfi_index !109
  %33 = sub nsw i32 %32, %31, !llfi_index !110
  store i32 %33, i32* %5, align 4, !llfi_index !111
  br label %34, !llfi_index !112

34:                                               ; preds = %27
  %35 = load i32, i32* %3, align 4, !llfi_index !113
  %36 = call i32 @_Z2ubi(i32 %35), !llfi_index !114
  %37 = load i32, i32* %3, align 4, !llfi_index !115
  %38 = sub nsw i32 %37, %36, !llfi_index !116
  store i32 %38, i32* %3, align 4, !llfi_index !117
  br label %24, !llvm.loop !118, !llfi_index !119

39:                                               ; preds = %24
  %40 = load i32, i32* %5, align 4, !llfi_index !120
  ret i32 %40, !llfi_index !121
}

; Function Attrs: mustprogress noinline norecurse uwtable
define dso_local i32 @main() #6 {
  %1 = alloca i32, align 4, !llfi_index !122
  %2 = alloca i32, align 4, !llfi_index !123
  %3 = alloca %struct.SS, align 8, !llfi_index !124
  %4 = alloca i32, align 4, !llfi_index !125
  store i32 0, i32* %1, align 4, !llfi_index !126
  %5 = load %struct._IO_FILE*, %struct._IO_FILE** @stdin, align 8, !llfi_index !127
  %6 = call %struct._IO_FILE* @freopen(i8* getelementptr inbounds ([54 x i8], [54 x i8]* @.str, i64 0, i64 0), i8* getelementptr inbounds ([2 x i8], [2 x i8]* @.str.2, i64 0, i64 0), %struct._IO_FILE* %5), !llfi_index !128
  %7 = call zeroext i1 @_ZNSt8ios_base15sync_with_stdioEb(i1 zeroext false), !llfi_index !129
  %8 = call nonnull align 8 dereferenceable(16) %"class.std::basic_istream"* @_ZNSirsERi(%"class.std::basic_istream"* nonnull align 8 dereferenceable(16) @_ZSt3cin, i32* nonnull align 4 dereferenceable(4) @n), !llfi_index !130
  store i32 89, i32* %2, align 4, !llfi_index !131
  store i32 1, i32* @i, align 4, !llfi_index !132
  br label %9, !llfi_index !133

9:                                                ; preds = %32, %0
  %10 = load i32, i32* @i, align 4, !llfi_index !134
  %11 = load i32, i32* @n, align 4, !llfi_index !135
  %12 = icmp sle i32 %10, %11, !llfi_index !136
  br i1 %12, label %13, label %35, !llfi_index !137

13:                                               ; preds = %9
  %14 = load i32, i32* @i, align 4, !llfi_index !138
  %15 = sext i32 %14 to i64, !llfi_index !139
  %16 = getelementptr inbounds [200005 x %struct.SS], [200005 x %struct.SS]* @s, i64 0, i64 %15, !llfi_index !140
  %17 = getelementptr inbounds %struct.SS, %struct.SS* %16, i32 0, i32 0, !llfi_index !141
  %18 = call nonnull align 8 dereferenceable(16) %"class.std::basic_istream"* @_ZStrsIcSt11char_traitsIcESaIcEERSt13basic_istreamIT_T0_ES7_RNSt7__cxx1112basic_stringIS4_S5_T1_EE(%"class.std::basic_istream"* nonnull align 8 dereferenceable(16) @_ZSt3cin, %"class.std::__cxx11::basic_string"* nonnull align 8 dereferenceable(32) %17), !llfi_index !142
  %19 = load i32, i32* @i, align 4, !llfi_index !143
  %20 = load i32, i32* @i, align 4, !llfi_index !144
  %21 = sext i32 %20 to i64, !llfi_index !145
  %22 = getelementptr inbounds [200005 x %struct.SS], [200005 x %struct.SS]* @s, i64 0, i64 %21, !llfi_index !146
  %23 = getelementptr inbounds %struct.SS, %struct.SS* %22, i32 0, i32 1, !llfi_index !147
  store i32 %19, i32* %23, align 16, !llfi_index !148
  %24 = load i32, i32* @i, align 4, !llfi_index !149
  %25 = sext i32 %24 to i64, !llfi_index !150
  %26 = getelementptr inbounds [200005 x %struct.SS], [200005 x %struct.SS]* @s, i64 0, i64 %25, !llfi_index !151
  %27 = getelementptr inbounds %struct.SS, %struct.SS* %26, i32 0, i32 3, !llfi_index !152
  store i32 -1, i32* %27, align 8, !llfi_index !153
  %28 = load i32, i32* @i, align 4, !llfi_index !154
  %29 = sext i32 %28 to i64, !llfi_index !155
  %30 = getelementptr inbounds [200005 x %struct.SS], [200005 x %struct.SS]* @s, i64 0, i64 %29, !llfi_index !156
  %31 = getelementptr inbounds %struct.SS, %struct.SS* %30, i32 0, i32 2, !llfi_index !157
  store i32 -1, i32* %31, align 4, !llfi_index !158
  br label %32, !llfi_index !159

32:                                               ; preds = %13
  %33 = load i32, i32* @i, align 4, !llfi_index !160
  %34 = add nsw i32 %33, 1, !llfi_index !161
  store i32 %34, i32* @i, align 4, !llfi_index !162
  br label %9, !llvm.loop !163, !llfi_index !164

35:                                               ; preds = %9
  %36 = call nonnull align 8 dereferenceable(16) %"class.std::basic_istream"* @_ZNSirsERi(%"class.std::basic_istream"* nonnull align 8 dereferenceable(16) @_ZSt3cin, i32* nonnull align 4 dereferenceable(4) @q), !llfi_index !165
  store i32 89, i32* %2, align 4, !llfi_index !166
  store i32 1, i32* @i, align 4, !llfi_index !167
  br label %37, !llfi_index !168

37:                                               ; preds = %70, %35
  %38 = load i32, i32* @i, align 4, !llfi_index !169
  %39 = load i32, i32* @q, align 4, !llfi_index !170
  %40 = icmp sle i32 %38, %39, !llfi_index !171
  br i1 %40, label %41, label %73, !llfi_index !172

41:                                               ; preds = %37
  %42 = load i32, i32* @n, align 4, !llfi_index !173
  %43 = load i32, i32* @i, align 4, !llfi_index !174
  %44 = add nsw i32 %42, %43, !llfi_index !175
  %45 = sext i32 %44 to i64, !llfi_index !176
  %46 = getelementptr inbounds [200005 x %struct.SS], [200005 x %struct.SS]* @s, i64 0, i64 %45, !llfi_index !177
  %47 = getelementptr inbounds %struct.SS, %struct.SS* %46, i32 0, i32 2, !llfi_index !178
  %48 = call nonnull align 8 dereferenceable(16) %"class.std::basic_istream"* @_ZNSirsERi(%"class.std::basic_istream"* nonnull align 8 dereferenceable(16) @_ZSt3cin, i32* nonnull align 4 dereferenceable(4) %47), !llfi_index !179
  %49 = load i32, i32* @n, align 4, !llfi_index !180
  %50 = load i32, i32* @i, align 4, !llfi_index !181
  %51 = add nsw i32 %49, %50, !llfi_index !182
  %52 = sext i32 %51 to i64, !llfi_index !183
  %53 = getelementptr inbounds [200005 x %struct.SS], [200005 x %struct.SS]* @s, i64 0, i64 %52, !llfi_index !184
  %54 = getelementptr inbounds %struct.SS, %struct.SS* %53, i32 0, i32 3, !llfi_index !185
  %55 = call nonnull align 8 dereferenceable(16) %"class.std::basic_istream"* @_ZNSirsERi(%"class.std::basic_istream"* nonnull align 8 dereferenceable(16) %48, i32* nonnull align 4 dereferenceable(4) %54), !llfi_index !186
  %56 = load i32, i32* @n, align 4, !llfi_index !187
  %57 = load i32, i32* @i, align 4, !llfi_index !188
  %58 = add nsw i32 %56, %57, !llfi_index !189
  %59 = sext i32 %58 to i64, !llfi_index !190
  %60 = getelementptr inbounds [200005 x %struct.SS], [200005 x %struct.SS]* @s, i64 0, i64 %59, !llfi_index !191
  %61 = getelementptr inbounds %struct.SS, %struct.SS* %60, i32 0, i32 0, !llfi_index !192
  %62 = call nonnull align 8 dereferenceable(16) %"class.std::basic_istream"* @_ZStrsIcSt11char_traitsIcESaIcEERSt13basic_istreamIT_T0_ES7_RNSt7__cxx1112basic_stringIS4_S5_T1_EE(%"class.std::basic_istream"* nonnull align 8 dereferenceable(16) %55, %"class.std::__cxx11::basic_string"* nonnull align 8 dereferenceable(32) %61), !llfi_index !193
  %63 = load i32, i32* @i, align 4, !llfi_index !194
  %64 = load i32, i32* @n, align 4, !llfi_index !195
  %65 = load i32, i32* @i, align 4, !llfi_index !196
  %66 = add nsw i32 %64, %65, !llfi_index !197
  %67 = sext i32 %66 to i64, !llfi_index !198
  %68 = getelementptr inbounds [200005 x %struct.SS], [200005 x %struct.SS]* @s, i64 0, i64 %67, !llfi_index !199
  %69 = getelementptr inbounds %struct.SS, %struct.SS* %68, i32 0, i32 1, !llfi_index !200
  store i32 %63, i32* %69, align 16, !llfi_index !201
  br label %70, !llfi_index !202

70:                                               ; preds = %41
  %71 = load i32, i32* @i, align 4, !llfi_index !203
  %72 = add nsw i32 %71, 1, !llfi_index !204
  store i32 %72, i32* @i, align 4, !llfi_index !205
  br label %37, !llvm.loop !206, !llfi_index !207

73:                                               ; preds = %37
  %74 = load i32, i32* @n, align 4, !llfi_index !208
  %75 = sext i32 %74 to i64, !llfi_index !209
  %76 = getelementptr inbounds %struct.SS, %struct.SS* getelementptr inbounds ([200005 x %struct.SS], [200005 x %struct.SS]* @s, i64 0, i64 0), i64 %75, !llfi_index !210
  %77 = load i32, i32* @q, align 4, !llfi_index !211
  %78 = sext i32 %77 to i64, !llfi_index !212
  %79 = getelementptr inbounds %struct.SS, %struct.SS* %76, i64 %78, !llfi_index !213
  %80 = getelementptr inbounds %struct.SS, %struct.SS* %79, i64 1, !llfi_index !214
  call void @_ZSt4sortIP2SSEvT_S2_(%struct.SS* getelementptr inbounds ([200005 x %struct.SS], [200005 x %struct.SS]* @s, i64 0, i64 1), %struct.SS* %80), !llfi_index !215
  store i32 89, i32* %2, align 4, !llfi_index !216
  store i32 1, i32* @i, align 4, !llfi_index !217
  br label %81, !llfi_index !218

81:                                               ; preds = %110, %73
  %82 = load i32, i32* @i, align 4, !llfi_index !219
  %83 = load i32, i32* @n, align 4, !llfi_index !220
  %84 = load i32, i32* @q, align 4, !llfi_index !221
  %85 = add nsw i32 %83, %84, !llfi_index !222
  %86 = icmp sle i32 %82, %85, !llfi_index !223
  br i1 %86, label %87, label %113, !llfi_index !224

87:                                               ; preds = %81
  %88 = load i32, i32* @i, align 4, !llfi_index !225
  %89 = sext i32 %88 to i64, !llfi_index !226
  %90 = getelementptr inbounds [200005 x %struct.SS], [200005 x %struct.SS]* @s, i64 0, i64 %89, !llfi_index !227
  call void @_ZN2SSC2ERKS_(%struct.SS* nonnull align 8 dereferenceable(44) %3, %struct.SS* nonnull align 8 dereferenceable(44) %90), !llfi_index !228
  %91 = getelementptr inbounds %struct.SS, %struct.SS* %3, i32 0, i32 2, !llfi_index !229
  %92 = load i32, i32* %91, align 4, !llfi_index !230
  %93 = icmp ne i32 %92, -1, !llfi_index !231
  br i1 %93, label %94, label %104, !llfi_index !232

94:                                               ; preds = %87
  %95 = getelementptr inbounds %struct.SS, %struct.SS* %3, i32 0, i32 2, !llfi_index !233
  %96 = load i32, i32* %95, align 4, !llfi_index !234
  %97 = getelementptr inbounds %struct.SS, %struct.SS* %3, i32 0, i32 3, !llfi_index !235
  %98 = load i32, i32* %97, align 8, !llfi_index !236
  %99 = call i32 @_Z5queryii(i32 %96, i32 %98), !llfi_index !237
  %100 = getelementptr inbounds %struct.SS, %struct.SS* %3, i32 0, i32 1, !llfi_index !238
  %101 = load i32, i32* %100, align 8, !llfi_index !239
  %102 = sext i32 %101 to i64, !llfi_index !240
  %103 = getelementptr inbounds [200005 x i32], [200005 x i32]* @ans, i64 0, i64 %102, !llfi_index !241
  store i32 %99, i32* %103, align 4, !llfi_index !242
  store i32 10, i32* %4, align 4, !llfi_index !243
  br label %107, !llfi_index !244

104:                                              ; preds = %87
  %105 = getelementptr inbounds %struct.SS, %struct.SS* %3, i32 0, i32 1, !llfi_index !245
  %106 = load i32, i32* %105, align 8, !llfi_index !246
  call void @_Z6updatei(i32 %106), !llfi_index !247
  store i32 0, i32* %4, align 4, !llfi_index !248
  br label %107, !llfi_index !249

107:                                              ; preds = %104, %94
  call void @_ZN2SSD2Ev(%struct.SS* nonnull align 8 dereferenceable(44) %3) #2, !llfi_index !250
  %108 = load i32, i32* %4, align 4, !llfi_index !251
  switch i32 %108, label %129 [
    i32 0, label %109
    i32 10, label %110
  ], !llfi_index !252

109:                                              ; preds = %107
  br label %110, !llfi_index !253

110:                                              ; preds = %109, %107
  %111 = load i32, i32* @i, align 4, !llfi_index !254
  %112 = add nsw i32 %111, 1, !llfi_index !255
  store i32 %112, i32* @i, align 4, !llfi_index !256
  br label %81, !llvm.loop !257, !llfi_index !258

113:                                              ; preds = %81
  store i32 89, i32* %2, align 4, !llfi_index !259
  store i32 1, i32* @i, align 4, !llfi_index !260
  br label %114, !llfi_index !261

114:                                              ; preds = %125, %113
  %115 = load i32, i32* @i, align 4, !llfi_index !262
  %116 = load i32, i32* @q, align 4, !llfi_index !263
  %117 = icmp sle i32 %115, %116, !llfi_index !264
  br i1 %117, label %118, label %128, !llfi_index !265

118:                                              ; preds = %114
  %119 = load i32, i32* @i, align 4, !llfi_index !266
  %120 = sext i32 %119 to i64, !llfi_index !267
  %121 = getelementptr inbounds [200005 x i32], [200005 x i32]* @ans, i64 0, i64 %120, !llfi_index !268
  %122 = load i32, i32* %121, align 4, !llfi_index !269
  %123 = call nonnull align 8 dereferenceable(8) %"class.std::basic_ostream"* @_ZNSolsEi(%"class.std::basic_ostream"* nonnull align 8 dereferenceable(8) @_ZSt4cout, i32 %122), !llfi_index !270
  %124 = call nonnull align 8 dereferenceable(8) %"class.std::basic_ostream"* @_ZStlsISt11char_traitsIcEERSt13basic_ostreamIcT_ES5_c(%"class.std::basic_ostream"* nonnull align 8 dereferenceable(8) %123, i8 signext 10), !llfi_index !271
  br label %125, !llfi_index !272

125:                                              ; preds = %118
  %126 = load i32, i32* @i, align 4, !llfi_index !273
  %127 = add nsw i32 %126, 1, !llfi_index !274
  store i32 %127, i32* @i, align 4, !llfi_index !275
  br label %114, !llvm.loop !276, !llfi_index !277

128:                                              ; preds = %114
  ret i32 0, !llfi_index !278

129:                                              ; preds = %107
  unreachable, !llfi_index !279
}

declare dso_local %struct._IO_FILE* @freopen(i8*, i8*, %struct._IO_FILE*) #4

declare dso_local zeroext i1 @_ZNSt8ios_base15sync_with_stdioEb(i1 zeroext) #4

declare dso_local nonnull align 8 dereferenceable(16) %"class.std::basic_istream"* @_ZNSirsERi(%"class.std::basic_istream"* nonnull align 8 dereferenceable(16), i32* nonnull align 4 dereferenceable(4)) #4

declare dso_local nonnull align 8 dereferenceable(16) %"class.std::basic_istream"* @_ZStrsIcSt11char_traitsIcESaIcEERSt13basic_istreamIT_T0_ES7_RNSt7__cxx1112basic_stringIS4_S5_T1_EE(%"class.std::basic_istream"* nonnull align 8 dereferenceable(16), %"class.std::__cxx11::basic_string"* nonnull align 8 dereferenceable(32)) #4

; Function Attrs: mustprogress noinline uwtable
define linkonce_odr dso_local void @_ZSt4sortIP2SSEvT_S2_(%struct.SS* %0, %struct.SS* %1) #7 comdat {
  %3 = alloca %struct.SS*, align 8, !llfi_index !280
  %4 = alloca %struct.SS*, align 8, !llfi_index !281
  %5 = alloca %"class.std::ios_base::Init", align 1, !llfi_index !282
  %6 = alloca %"class.std::ios_base::Init", align 1, !llfi_index !283
  store %struct.SS* %0, %struct.SS** %3, align 8, !llfi_index !284
  store %struct.SS* %1, %struct.SS** %4, align 8, !llfi_index !285
  %7 = load %struct.SS*, %struct.SS** %3, align 8, !llfi_index !286
  %8 = load %struct.SS*, %struct.SS** %4, align 8, !llfi_index !287
  call void @_ZN9__gnu_cxx5__ops16__iter_less_iterEv(), !llfi_index !288
  call void @_ZSt6__sortIP2SSN9__gnu_cxx5__ops15_Iter_less_iterEEvT_S5_T0_(%struct.SS* %7, %struct.SS* %8), !llfi_index !289
  ret void, !llfi_index !290
}

; Function Attrs: noinline uwtable
define linkonce_odr dso_local void @_ZN2SSC2ERKS_(%struct.SS* nonnull align 8 dereferenceable(44) %0, %struct.SS* nonnull align 8 dereferenceable(44) %1) unnamed_addr #0 comdat align 2 {
  %3 = alloca %struct.SS*, align 8, !llfi_index !291
  %4 = alloca %struct.SS*, align 8, !llfi_index !292
  store %struct.SS* %0, %struct.SS** %3, align 8, !llfi_index !293
  store %struct.SS* %1, %struct.SS** %4, align 8, !llfi_index !294
  %5 = load %struct.SS*, %struct.SS** %3, align 8, !llfi_index !295
  %6 = getelementptr inbounds %struct.SS, %struct.SS* %5, i32 0, i32 0, !llfi_index !296
  %7 = load %struct.SS*, %struct.SS** %4, align 8, !llfi_index !297
  %8 = getelementptr inbounds %struct.SS, %struct.SS* %7, i32 0, i32 0, !llfi_index !298
  call void @_ZNSt7__cxx1112basic_stringIcSt11char_traitsIcESaIcEEC1ERKS4_(%"class.std::__cxx11::basic_string"* nonnull align 8 dereferenceable(32) %6, %"class.std::__cxx11::basic_string"* nonnull align 8 dereferenceable(32) %8), !llfi_index !299
  %9 = getelementptr inbounds %struct.SS, %struct.SS* %5, i32 0, i32 1, !llfi_index !300
  %10 = load %struct.SS*, %struct.SS** %4, align 8, !llfi_index !301
  %11 = getelementptr inbounds %struct.SS, %struct.SS* %10, i32 0, i32 1, !llfi_index !302
  %12 = bitcast i32* %9 to i8*, !llfi_index !303
  %13 = bitcast i32* %11 to i8*, !llfi_index !304
  call void @llvm.memcpy.p0i8.p0i8.i64(i8* align 8 %12, i8* align 8 %13, i64 12, i1 false), !llfi_index !305
  ret void, !llfi_index !306
}

declare dso_local nonnull align 8 dereferenceable(8) %"class.std::basic_ostream"* @_ZNSolsEi(%"class.std::basic_ostream"* nonnull align 8 dereferenceable(8), i32) #4

declare dso_local nonnull align 8 dereferenceable(8) %"class.std::basic_ostream"* @_ZStlsISt11char_traitsIcEERSt13basic_ostreamIcT_ES5_c(%"class.std::basic_ostream"* nonnull align 8 dereferenceable(8), i8 signext) #4

declare dso_local void @_ZNSt7__cxx1112basic_stringIcSt11char_traitsIcESaIcEEC1ERKS4_(%"class.std::__cxx11::basic_string"* nonnull align 8 dereferenceable(32), %"class.std::__cxx11::basic_string"* nonnull align 8 dereferenceable(32)) unnamed_addr #4

; Function Attrs: argmemonly nofree nounwind willreturn
declare void @llvm.memcpy.p0i8.p0i8.i64(i8* noalias nocapture writeonly, i8* noalias nocapture readonly, i64, i1 immarg) #8

; Function Attrs: mustprogress noinline nounwind uwtable
define linkonce_odr dso_local void @_ZN9__gnu_cxx5__ops16__iter_less_iterEv() #5 comdat {
  ret void, !llfi_index !307
}

; Function Attrs: mustprogress noinline uwtable
define linkonce_odr dso_local void @_ZSt6__sortIP2SSN9__gnu_cxx5__ops15_Iter_less_iterEEvT_S5_T0_(%struct.SS* %0, %struct.SS* %1) #7 comdat {
  %3 = alloca %"class.std::ios_base::Init", align 1, !llfi_index !308
  %4 = alloca %struct.SS*, align 8, !llfi_index !309
  %5 = alloca %struct.SS*, align 8, !llfi_index !310
  %6 = alloca %"class.std::ios_base::Init", align 1, !llfi_index !311
  %7 = alloca %"class.std::ios_base::Init", align 1, !llfi_index !312
  store %struct.SS* %0, %struct.SS** %4, align 8, !llfi_index !313
  store %struct.SS* %1, %struct.SS** %5, align 8, !llfi_index !314
  %8 = load %struct.SS*, %struct.SS** %4, align 8, !llfi_index !315
  %9 = load %struct.SS*, %struct.SS** %5, align 8, !llfi_index !316
  %10 = icmp ne %struct.SS* %8, %9, !llfi_index !317
  br i1 %10, label %11, label %24, !llfi_index !318

11:                                               ; preds = %2
  %12 = load %struct.SS*, %struct.SS** %4, align 8, !llfi_index !319
  %13 = load %struct.SS*, %struct.SS** %5, align 8, !llfi_index !320
  %14 = load %struct.SS*, %struct.SS** %5, align 8, !llfi_index !321
  %15 = load %struct.SS*, %struct.SS** %4, align 8, !llfi_index !322
  %16 = ptrtoint %struct.SS* %14 to i64, !llfi_index !323
  %17 = ptrtoint %struct.SS* %15 to i64, !llfi_index !324
  %18 = sub i64 %16, %17, !llfi_index !325
  %19 = sdiv exact i64 %18, 48, !llfi_index !326
  %20 = call i64 @_ZSt4__lgl(i64 %19), !llfi_index !327
  %21 = mul nsw i64 %20, 2, !llfi_index !328
  call void @_ZSt16__introsort_loopIP2SSlN9__gnu_cxx5__ops15_Iter_less_iterEEvT_S5_T0_T1_(%struct.SS* %12, %struct.SS* %13, i64 %21), !llfi_index !329
  %22 = load %struct.SS*, %struct.SS** %4, align 8, !llfi_index !330
  %23 = load %struct.SS*, %struct.SS** %5, align 8, !llfi_index !331
  call void @_ZSt22__final_insertion_sortIP2SSN9__gnu_cxx5__ops15_Iter_less_iterEEvT_S5_T0_(%struct.SS* %22, %struct.SS* %23), !llfi_index !332
  br label %24, !llfi_index !333

24:                                               ; preds = %11, %2
  ret void, !llfi_index !334
}

; Function Attrs: mustprogress noinline nounwind uwtable
define linkonce_odr dso_local i64 @_ZSt4__lgl(i64 %0) #5 comdat {
  %2 = alloca i64, align 8, !llfi_index !335
  store i64 %0, i64* %2, align 8, !llfi_index !336
  %3 = load i64, i64* %2, align 8, !llfi_index !337
  %4 = call i64 @llvm.ctlz.i64(i64 %3, i1 true), !llfi_index !338
  %5 = trunc i64 %4 to i32, !llfi_index !339
  %6 = sub nsw i32 63, %5, !llfi_index !340
  %7 = sext i32 %6 to i64, !llfi_index !341
  ret i64 %7, !llfi_index !342
}

; Function Attrs: mustprogress noinline uwtable
define linkonce_odr dso_local void @_ZSt16__introsort_loopIP2SSlN9__gnu_cxx5__ops15_Iter_less_iterEEvT_S5_T0_T1_(%struct.SS* %0, %struct.SS* %1, i64 %2) #7 comdat {
  %4 = alloca %"class.std::ios_base::Init", align 1, !llfi_index !343
  %5 = alloca %struct.SS*, align 8, !llfi_index !344
  %6 = alloca %struct.SS*, align 8, !llfi_index !345
  %7 = alloca i64, align 8, !llfi_index !346
  %8 = alloca %"class.std::ios_base::Init", align 1, !llfi_index !347
  %9 = alloca %struct.SS*, align 8, !llfi_index !348
  %10 = alloca %"class.std::ios_base::Init", align 1, !llfi_index !349
  %11 = alloca %"class.std::ios_base::Init", align 1, !llfi_index !350
  store %struct.SS* %0, %struct.SS** %5, align 8, !llfi_index !351
  store %struct.SS* %1, %struct.SS** %6, align 8, !llfi_index !352
  store i64 %2, i64* %7, align 8, !llfi_index !353
  br label %12, !llfi_index !354

12:                                               ; preds = %27, %3
  %13 = load %struct.SS*, %struct.SS** %6, align 8, !llfi_index !355
  %14 = load %struct.SS*, %struct.SS** %5, align 8, !llfi_index !356
  %15 = ptrtoint %struct.SS* %13 to i64, !llfi_index !357
  %16 = ptrtoint %struct.SS* %14 to i64, !llfi_index !358
  %17 = sub i64 %15, %16, !llfi_index !359
  %18 = sdiv exact i64 %17, 48, !llfi_index !360
  %19 = icmp sgt i64 %18, 16, !llfi_index !361
  br i1 %19, label %20, label %37, !llfi_index !362

20:                                               ; preds = %12
  %21 = load i64, i64* %7, align 8, !llfi_index !363
  %22 = icmp eq i64 %21, 0, !llfi_index !364
  br i1 %22, label %23, label %27, !llfi_index !365

23:                                               ; preds = %20
  %24 = load %struct.SS*, %struct.SS** %5, align 8, !llfi_index !366
  %25 = load %struct.SS*, %struct.SS** %6, align 8, !llfi_index !367
  %26 = load %struct.SS*, %struct.SS** %6, align 8, !llfi_index !368
  call void @_ZSt14__partial_sortIP2SSN9__gnu_cxx5__ops15_Iter_less_iterEEvT_S5_S5_T0_(%struct.SS* %24, %struct.SS* %25, %struct.SS* %26), !llfi_index !369
  br label %37, !llfi_index !370

27:                                               ; preds = %20
  %28 = load i64, i64* %7, align 8, !llfi_index !371
  %29 = add nsw i64 %28, -1, !llfi_index !372
  store i64 %29, i64* %7, align 8, !llfi_index !373
  %30 = load %struct.SS*, %struct.SS** %5, align 8, !llfi_index !374
  %31 = load %struct.SS*, %struct.SS** %6, align 8, !llfi_index !375
  %32 = call %struct.SS* @_ZSt27__unguarded_partition_pivotIP2SSN9__gnu_cxx5__ops15_Iter_less_iterEET_S5_S5_T0_(%struct.SS* %30, %struct.SS* %31), !llfi_index !376
  store %struct.SS* %32, %struct.SS** %9, align 8, !llfi_index !377
  %33 = load %struct.SS*, %struct.SS** %9, align 8, !llfi_index !378
  %34 = load %struct.SS*, %struct.SS** %6, align 8, !llfi_index !379
  %35 = load i64, i64* %7, align 8, !llfi_index !380
  call void @_ZSt16__introsort_loopIP2SSlN9__gnu_cxx5__ops15_Iter_less_iterEEvT_S5_T0_T1_(%struct.SS* %33, %struct.SS* %34, i64 %35), !llfi_index !381
  %36 = load %struct.SS*, %struct.SS** %9, align 8, !llfi_index !382
  store %struct.SS* %36, %struct.SS** %6, align 8, !llfi_index !383
  br label %12, !llvm.loop !384, !llfi_index !385

37:                                               ; preds = %23, %12
  ret void, !llfi_index !386
}

; Function Attrs: mustprogress noinline uwtable
define linkonce_odr dso_local void @_ZSt22__final_insertion_sortIP2SSN9__gnu_cxx5__ops15_Iter_less_iterEEvT_S5_T0_(%struct.SS* %0, %struct.SS* %1) #7 comdat {
  %3 = alloca %"class.std::ios_base::Init", align 1, !llfi_index !387
  %4 = alloca %struct.SS*, align 8, !llfi_index !388
  %5 = alloca %struct.SS*, align 8, !llfi_index !389
  %6 = alloca %"class.std::ios_base::Init", align 1, !llfi_index !390
  %7 = alloca %"class.std::ios_base::Init", align 1, !llfi_index !391
  %8 = alloca %"class.std::ios_base::Init", align 1, !llfi_index !392
  store %struct.SS* %0, %struct.SS** %4, align 8, !llfi_index !393
  store %struct.SS* %1, %struct.SS** %5, align 8, !llfi_index !394
  %9 = load %struct.SS*, %struct.SS** %5, align 8, !llfi_index !395
  %10 = load %struct.SS*, %struct.SS** %4, align 8, !llfi_index !396
  %11 = ptrtoint %struct.SS* %9 to i64, !llfi_index !397
  %12 = ptrtoint %struct.SS* %10 to i64, !llfi_index !398
  %13 = sub i64 %11, %12, !llfi_index !399
  %14 = sdiv exact i64 %13, 48, !llfi_index !400
  %15 = icmp sgt i64 %14, 16, !llfi_index !401
  br i1 %15, label %16, label %23, !llfi_index !402

16:                                               ; preds = %2
  %17 = load %struct.SS*, %struct.SS** %4, align 8, !llfi_index !403
  %18 = load %struct.SS*, %struct.SS** %4, align 8, !llfi_index !404
  %19 = getelementptr inbounds %struct.SS, %struct.SS* %18, i64 16, !llfi_index !405
  call void @_ZSt16__insertion_sortIP2SSN9__gnu_cxx5__ops15_Iter_less_iterEEvT_S5_T0_(%struct.SS* %17, %struct.SS* %19), !llfi_index !406
  %20 = load %struct.SS*, %struct.SS** %4, align 8, !llfi_index !407
  %21 = getelementptr inbounds %struct.SS, %struct.SS* %20, i64 16, !llfi_index !408
  %22 = load %struct.SS*, %struct.SS** %5, align 8, !llfi_index !409
  call void @_ZSt26__unguarded_insertion_sortIP2SSN9__gnu_cxx5__ops15_Iter_less_iterEEvT_S5_T0_(%struct.SS* %21, %struct.SS* %22), !llfi_index !410
  br label %26, !llfi_index !411

23:                                               ; preds = %2
  %24 = load %struct.SS*, %struct.SS** %4, align 8, !llfi_index !412
  %25 = load %struct.SS*, %struct.SS** %5, align 8, !llfi_index !413
  call void @_ZSt16__insertion_sortIP2SSN9__gnu_cxx5__ops15_Iter_less_iterEEvT_S5_T0_(%struct.SS* %24, %struct.SS* %25), !llfi_index !414
  br label %26, !llfi_index !415

26:                                               ; preds = %23, %16
  ret void, !llfi_index !416
}

; Function Attrs: mustprogress noinline uwtable
define linkonce_odr dso_local void @_ZSt16__insertion_sortIP2SSN9__gnu_cxx5__ops15_Iter_less_iterEEvT_S5_T0_(%struct.SS* %0, %struct.SS* %1) #7 comdat personality i8* bitcast (i32 (...)* @__gxx_personality_v0 to i8*) {
  %3 = alloca %"class.std::ios_base::Init", align 1, !llfi_index !417
  %4 = alloca %struct.SS*, align 8, !llfi_index !418
  %5 = alloca %struct.SS*, align 8, !llfi_index !419
  %6 = alloca %struct.SS*, align 8, !llfi_index !420
  %7 = alloca %struct.SS, align 8, !llfi_index !421
  %8 = alloca i8*, align 8, !llfi_index !422
  %9 = alloca i32, align 4, !llfi_index !423
  %10 = alloca %"class.std::ios_base::Init", align 1, !llfi_index !424
  %11 = alloca %"class.std::ios_base::Init", align 1, !llfi_index !425
  %12 = alloca %"class.std::ios_base::Init", align 1, !llfi_index !426
  store %struct.SS* %0, %struct.SS** %4, align 8, !llfi_index !427
  store %struct.SS* %1, %struct.SS** %5, align 8, !llfi_index !428
  %13 = load %struct.SS*, %struct.SS** %4, align 8, !llfi_index !429
  %14 = load %struct.SS*, %struct.SS** %5, align 8, !llfi_index !430
  %15 = icmp eq %struct.SS* %13, %14, !llfi_index !431
  br i1 %15, label %16, label %17, !llfi_index !432

16:                                               ; preds = %2
  br label %50, !llfi_index !433

17:                                               ; preds = %2
  %18 = load %struct.SS*, %struct.SS** %4, align 8, !llfi_index !434
  %19 = getelementptr inbounds %struct.SS, %struct.SS* %18, i64 1, !llfi_index !435
  store %struct.SS* %19, %struct.SS** %6, align 8, !llfi_index !436
  br label %20, !llfi_index !437

20:                                               ; preds = %47, %17
  %21 = load %struct.SS*, %struct.SS** %6, align 8, !llfi_index !438
  %22 = load %struct.SS*, %struct.SS** %5, align 8, !llfi_index !439
  %23 = icmp ne %struct.SS* %21, %22, !llfi_index !440
  br i1 %23, label %24, label %50, !llfi_index !441

24:                                               ; preds = %20
  %25 = load %struct.SS*, %struct.SS** %6, align 8, !llfi_index !442
  %26 = load %struct.SS*, %struct.SS** %4, align 8, !llfi_index !443
  %27 = call zeroext i1 @_ZNK9__gnu_cxx5__ops15_Iter_less_iterclIP2SSS4_EEbT_T0_(%"class.std::ios_base::Init"* nonnull align 1 dereferenceable(1) %3, %struct.SS* %25, %struct.SS* %26), !llfi_index !444
  br i1 %27, label %28, label %44, !llfi_index !445

28:                                               ; preds = %24
  %29 = load %struct.SS*, %struct.SS** %6, align 8, !llfi_index !446
  %30 = call nonnull align 8 dereferenceable(44) %struct.SS* @_ZSt4moveIR2SSEONSt16remove_referenceIT_E4typeEOS3_(%struct.SS* nonnull align 8 dereferenceable(44) %29) #2, !llfi_index !447
  call void @_ZN2SSC2EOS_(%struct.SS* nonnull align 8 dereferenceable(44) %7, %struct.SS* nonnull align 8 dereferenceable(44) %30) #2, !llfi_index !448
  %31 = load %struct.SS*, %struct.SS** %4, align 8, !llfi_index !449
  %32 = load %struct.SS*, %struct.SS** %6, align 8, !llfi_index !450
  %33 = load %struct.SS*, %struct.SS** %6, align 8, !llfi_index !451
  %34 = getelementptr inbounds %struct.SS, %struct.SS* %33, i64 1, !llfi_index !452
  %35 = invoke %struct.SS* @_ZSt13move_backwardIP2SSS1_ET0_T_S3_S2_(%struct.SS* %31, %struct.SS* %32, %struct.SS* %34)
          to label %36 unwind label %40, !llfi_index !453

36:                                               ; preds = %28
  %37 = call nonnull align 8 dereferenceable(44) %struct.SS* @_ZSt4moveIR2SSEONSt16remove_referenceIT_E4typeEOS3_(%struct.SS* nonnull align 8 dereferenceable(44) %7) #2, !llfi_index !454
  %38 = load %struct.SS*, %struct.SS** %4, align 8, !llfi_index !455
  %39 = call nonnull align 8 dereferenceable(44) %struct.SS* @_ZN2SSaSEOS_(%struct.SS* nonnull align 8 dereferenceable(44) %38, %struct.SS* nonnull align 8 dereferenceable(44) %37) #2, !llfi_index !456
  call void @_ZN2SSD2Ev(%struct.SS* nonnull align 8 dereferenceable(44) %7) #2, !llfi_index !457
  br label %46, !llfi_index !458

40:                                               ; preds = %28
  %41 = landingpad { i8*, i32 }
          cleanup, !llfi_index !459
  %42 = extractvalue { i8*, i32 } %41, 0, !llfi_index !460
  store i8* %42, i8** %8, align 8, !llfi_index !461
  %43 = extractvalue { i8*, i32 } %41, 1, !llfi_index !462
  store i32 %43, i32* %9, align 4, !llfi_index !463
  call void @_ZN2SSD2Ev(%struct.SS* nonnull align 8 dereferenceable(44) %7) #2, !llfi_index !464
  br label %51, !llfi_index !465

44:                                               ; preds = %24
  %45 = load %struct.SS*, %struct.SS** %6, align 8, !llfi_index !466
  call void @_ZN9__gnu_cxx5__ops15__val_comp_iterENS0_15_Iter_less_iterE(), !llfi_index !467
  call void @_ZSt25__unguarded_linear_insertIP2SSN9__gnu_cxx5__ops14_Val_less_iterEEvT_T0_(%struct.SS* %45), !llfi_index !468
  br label %46, !llfi_index !469

46:                                               ; preds = %44, %36
  br label %47, !llfi_index !470

47:                                               ; preds = %46
  %48 = load %struct.SS*, %struct.SS** %6, align 8, !llfi_index !471
  %49 = getelementptr inbounds %struct.SS, %struct.SS* %48, i32 1, !llfi_index !472
  store %struct.SS* %49, %struct.SS** %6, align 8, !llfi_index !473
  br label %20, !llvm.loop !474, !llfi_index !475

50:                                               ; preds = %20, %16
  ret void, !llfi_index !476

51:                                               ; preds = %40
  %52 = load i8*, i8** %8, align 8, !llfi_index !477
  %53 = load i32, i32* %9, align 4, !llfi_index !478
  %54 = insertvalue { i8*, i32 } undef, i8* %52, 0, !llfi_index !479
  %55 = insertvalue { i8*, i32 } %54, i32 %53, 1, !llfi_index !480
  resume { i8*, i32 } %55, !llfi_index !481
}

; Function Attrs: mustprogress noinline uwtable
define linkonce_odr dso_local void @_ZSt26__unguarded_insertion_sortIP2SSN9__gnu_cxx5__ops15_Iter_less_iterEEvT_S5_T0_(%struct.SS* %0, %struct.SS* %1) #7 comdat {
  %3 = alloca %"class.std::ios_base::Init", align 1, !llfi_index !482
  %4 = alloca %struct.SS*, align 8, !llfi_index !483
  %5 = alloca %struct.SS*, align 8, !llfi_index !484
  %6 = alloca %struct.SS*, align 8, !llfi_index !485
  %7 = alloca %"class.std::ios_base::Init", align 1, !llfi_index !486
  %8 = alloca %"class.std::ios_base::Init", align 1, !llfi_index !487
  %9 = alloca %"class.std::ios_base::Init", align 1, !llfi_index !488
  store %struct.SS* %0, %struct.SS** %4, align 8, !llfi_index !489
  store %struct.SS* %1, %struct.SS** %5, align 8, !llfi_index !490
  %10 = load %struct.SS*, %struct.SS** %4, align 8, !llfi_index !491
  store %struct.SS* %10, %struct.SS** %6, align 8, !llfi_index !492
  br label %11, !llfi_index !493

11:                                               ; preds = %17, %2
  %12 = load %struct.SS*, %struct.SS** %6, align 8, !llfi_index !494
  %13 = load %struct.SS*, %struct.SS** %5, align 8, !llfi_index !495
  %14 = icmp ne %struct.SS* %12, %13, !llfi_index !496
  br i1 %14, label %15, label %20, !llfi_index !497

15:                                               ; preds = %11
  %16 = load %struct.SS*, %struct.SS** %6, align 8, !llfi_index !498
  call void @_ZN9__gnu_cxx5__ops15__val_comp_iterENS0_15_Iter_less_iterE(), !llfi_index !499
  call void @_ZSt25__unguarded_linear_insertIP2SSN9__gnu_cxx5__ops14_Val_less_iterEEvT_T0_(%struct.SS* %16), !llfi_index !500
  br label %17, !llfi_index !501

17:                                               ; preds = %15
  %18 = load %struct.SS*, %struct.SS** %6, align 8, !llfi_index !502
  %19 = getelementptr inbounds %struct.SS, %struct.SS* %18, i32 1, !llfi_index !503
  store %struct.SS* %19, %struct.SS** %6, align 8, !llfi_index !504
  br label %11, !llvm.loop !505, !llfi_index !506

20:                                               ; preds = %11
  ret void, !llfi_index !507
}

; Function Attrs: mustprogress noinline nounwind uwtable
define linkonce_odr dso_local void @_ZN9__gnu_cxx5__ops15__val_comp_iterENS0_15_Iter_less_iterE() #5 comdat {
  %1 = alloca %"class.std::ios_base::Init", align 1, !llfi_index !508
  ret void, !llfi_index !509
}

; Function Attrs: mustprogress noinline uwtable
define linkonce_odr dso_local void @_ZSt25__unguarded_linear_insertIP2SSN9__gnu_cxx5__ops14_Val_less_iterEEvT_T0_(%struct.SS* %0) #7 comdat personality i8* bitcast (i32 (...)* @__gxx_personality_v0 to i8*) {
  %2 = alloca %"class.std::ios_base::Init", align 1, !llfi_index !510
  %3 = alloca %struct.SS*, align 8, !llfi_index !511
  %4 = alloca %struct.SS, align 8, !llfi_index !512
  %5 = alloca %struct.SS*, align 8, !llfi_index !513
  %6 = alloca i8*, align 8, !llfi_index !514
  %7 = alloca i32, align 4, !llfi_index !515
  store %struct.SS* %0, %struct.SS** %3, align 8, !llfi_index !516
  %8 = load %struct.SS*, %struct.SS** %3, align 8, !llfi_index !517
  %9 = call nonnull align 8 dereferenceable(44) %struct.SS* @_ZSt4moveIR2SSEONSt16remove_referenceIT_E4typeEOS3_(%struct.SS* nonnull align 8 dereferenceable(44) %8) #2, !llfi_index !518
  call void @_ZN2SSC2EOS_(%struct.SS* nonnull align 8 dereferenceable(44) %4, %struct.SS* nonnull align 8 dereferenceable(44) %9) #2, !llfi_index !519
  %10 = load %struct.SS*, %struct.SS** %3, align 8, !llfi_index !520
  store %struct.SS* %10, %struct.SS** %5, align 8, !llfi_index !521
  %11 = load %struct.SS*, %struct.SS** %5, align 8, !llfi_index !522
  %12 = getelementptr inbounds %struct.SS, %struct.SS* %11, i32 -1, !llfi_index !523
  store %struct.SS* %12, %struct.SS** %5, align 8, !llfi_index !524
  br label %13, !llfi_index !525

13:                                               ; preds = %17, %1
  %14 = load %struct.SS*, %struct.SS** %5, align 8, !llfi_index !526
  %15 = invoke zeroext i1 @_ZNK9__gnu_cxx5__ops14_Val_less_iterclI2SSPS3_EEbRT_T0_(%"class.std::ios_base::Init"* nonnull align 1 dereferenceable(1) %2, %struct.SS* nonnull align 8 dereferenceable(44) %4, %struct.SS* %14)
          to label %16 unwind label %25, !llfi_index !527

16:                                               ; preds = %13
  br i1 %15, label %17, label %29, !llfi_index !528

17:                                               ; preds = %16
  %18 = load %struct.SS*, %struct.SS** %5, align 8, !llfi_index !529
  %19 = call nonnull align 8 dereferenceable(44) %struct.SS* @_ZSt4moveIR2SSEONSt16remove_referenceIT_E4typeEOS3_(%struct.SS* nonnull align 8 dereferenceable(44) %18) #2, !llfi_index !530
  %20 = load %struct.SS*, %struct.SS** %3, align 8, !llfi_index !531
  %21 = call nonnull align 8 dereferenceable(44) %struct.SS* @_ZN2SSaSEOS_(%struct.SS* nonnull align 8 dereferenceable(44) %20, %struct.SS* nonnull align 8 dereferenceable(44) %19) #2, !llfi_index !532
  %22 = load %struct.SS*, %struct.SS** %5, align 8, !llfi_index !533
  store %struct.SS* %22, %struct.SS** %3, align 8, !llfi_index !534
  %23 = load %struct.SS*, %struct.SS** %5, align 8, !llfi_index !535
  %24 = getelementptr inbounds %struct.SS, %struct.SS* %23, i32 -1, !llfi_index !536
  store %struct.SS* %24, %struct.SS** %5, align 8, !llfi_index !537
  br label %13, !llvm.loop !538, !llfi_index !539

25:                                               ; preds = %13
  %26 = landingpad { i8*, i32 }
          cleanup, !llfi_index !540
  %27 = extractvalue { i8*, i32 } %26, 0, !llfi_index !541
  store i8* %27, i8** %6, align 8, !llfi_index !542
  %28 = extractvalue { i8*, i32 } %26, 1, !llfi_index !543
  store i32 %28, i32* %7, align 4, !llfi_index !544
  call void @_ZN2SSD2Ev(%struct.SS* nonnull align 8 dereferenceable(44) %4) #2, !llfi_index !545
  br label %33, !llfi_index !546

29:                                               ; preds = %16
  %30 = call nonnull align 8 dereferenceable(44) %struct.SS* @_ZSt4moveIR2SSEONSt16remove_referenceIT_E4typeEOS3_(%struct.SS* nonnull align 8 dereferenceable(44) %4) #2, !llfi_index !547
  %31 = load %struct.SS*, %struct.SS** %3, align 8, !llfi_index !548
  %32 = call nonnull align 8 dereferenceable(44) %struct.SS* @_ZN2SSaSEOS_(%struct.SS* nonnull align 8 dereferenceable(44) %31, %struct.SS* nonnull align 8 dereferenceable(44) %30) #2, !llfi_index !549
  call void @_ZN2SSD2Ev(%struct.SS* nonnull align 8 dereferenceable(44) %4) #2, !llfi_index !550
  ret void, !llfi_index !551

33:                                               ; preds = %25
  %34 = load i8*, i8** %6, align 8, !llfi_index !552
  %35 = load i32, i32* %7, align 4, !llfi_index !553
  %36 = insertvalue { i8*, i32 } undef, i8* %34, 0, !llfi_index !554
  %37 = insertvalue { i8*, i32 } %36, i32 %35, 1, !llfi_index !555
  resume { i8*, i32 } %37, !llfi_index !556
}

declare dso_local i32 @__gxx_personality_v0(...)

; Function Attrs: mustprogress noinline nounwind uwtable
define linkonce_odr dso_local nonnull align 8 dereferenceable(44) %struct.SS* @_ZSt4moveIR2SSEONSt16remove_referenceIT_E4typeEOS3_(%struct.SS* nonnull align 8 dereferenceable(44) %0) #5 comdat {
  %2 = alloca %struct.SS*, align 8, !llfi_index !557
  store %struct.SS* %0, %struct.SS** %2, align 8, !llfi_index !558
  %3 = load %struct.SS*, %struct.SS** %2, align 8, !llfi_index !559
  ret %struct.SS* %3, !llfi_index !560
}

; Function Attrs: noinline nounwind uwtable
define linkonce_odr dso_local void @_ZN2SSC2EOS_(%struct.SS* nonnull align 8 dereferenceable(44) %0, %struct.SS* nonnull align 8 dereferenceable(44) %1) unnamed_addr #1 comdat align 2 {
  %3 = alloca %struct.SS*, align 8, !llfi_index !561
  %4 = alloca %struct.SS*, align 8, !llfi_index !562
  store %struct.SS* %0, %struct.SS** %3, align 8, !llfi_index !563
  store %struct.SS* %1, %struct.SS** %4, align 8, !llfi_index !564
  %5 = load %struct.SS*, %struct.SS** %3, align 8, !llfi_index !565
  %6 = getelementptr inbounds %struct.SS, %struct.SS* %5, i32 0, i32 0, !llfi_index !566
  %7 = load %struct.SS*, %struct.SS** %4, align 8, !llfi_index !567
  %8 = getelementptr inbounds %struct.SS, %struct.SS* %7, i32 0, i32 0, !llfi_index !568
  call void @_ZNSt7__cxx1112basic_stringIcSt11char_traitsIcESaIcEEC1EOS4_(%"class.std::__cxx11::basic_string"* nonnull align 8 dereferenceable(32) %6, %"class.std::__cxx11::basic_string"* nonnull align 8 dereferenceable(32) %8) #2, !llfi_index !569
  %9 = getelementptr inbounds %struct.SS, %struct.SS* %5, i32 0, i32 1, !llfi_index !570
  %10 = load %struct.SS*, %struct.SS** %4, align 8, !llfi_index !571
  %11 = getelementptr inbounds %struct.SS, %struct.SS* %10, i32 0, i32 1, !llfi_index !572
  %12 = bitcast i32* %9 to i8*, !llfi_index !573
  %13 = bitcast i32* %11 to i8*, !llfi_index !574
  call void @llvm.memcpy.p0i8.p0i8.i64(i8* align 8 %12, i8* align 8 %13, i64 12, i1 false), !llfi_index !575
  ret void, !llfi_index !576
}

; Function Attrs: mustprogress noinline uwtable
define linkonce_odr dso_local zeroext i1 @_ZNK9__gnu_cxx5__ops14_Val_less_iterclI2SSPS3_EEbRT_T0_(%"class.std::ios_base::Init"* nonnull align 1 dereferenceable(1) %0, %struct.SS* nonnull align 8 dereferenceable(44) %1, %struct.SS* %2) #7 comdat align 2 {
  %4 = alloca %"class.std::ios_base::Init"*, align 8, !llfi_index !577
  %5 = alloca %struct.SS*, align 8, !llfi_index !578
  %6 = alloca %struct.SS*, align 8, !llfi_index !579
  store %"class.std::ios_base::Init"* %0, %"class.std::ios_base::Init"** %4, align 8, !llfi_index !580
  store %struct.SS* %1, %struct.SS** %5, align 8, !llfi_index !581
  store %struct.SS* %2, %struct.SS** %6, align 8, !llfi_index !582
  %7 = load %"class.std::ios_base::Init"*, %"class.std::ios_base::Init"** %4, align 8, !llfi_index !583
  %8 = load %struct.SS*, %struct.SS** %5, align 8, !llfi_index !584
  %9 = load %struct.SS*, %struct.SS** %6, align 8, !llfi_index !585
  %10 = call zeroext i1 @_ZNK2SSltERKS_(%struct.SS* nonnull align 8 dereferenceable(44) %8, %struct.SS* nonnull align 8 dereferenceable(44) %9), !llfi_index !586
  ret i1 %10, !llfi_index !587
}

; Function Attrs: noinline nounwind uwtable
define linkonce_odr dso_local nonnull align 8 dereferenceable(44) %struct.SS* @_ZN2SSaSEOS_(%struct.SS* nonnull align 8 dereferenceable(44) %0, %struct.SS* nonnull align 8 dereferenceable(44) %1) #1 comdat align 2 {
  %3 = alloca %struct.SS*, align 8, !llfi_index !588
  %4 = alloca %struct.SS*, align 8, !llfi_index !589
  store %struct.SS* %0, %struct.SS** %3, align 8, !llfi_index !590
  store %struct.SS* %1, %struct.SS** %4, align 8, !llfi_index !591
  %5 = load %struct.SS*, %struct.SS** %3, align 8, !llfi_index !592
  %6 = getelementptr inbounds %struct.SS, %struct.SS* %5, i32 0, i32 0, !llfi_index !593
  %7 = load %struct.SS*, %struct.SS** %4, align 8, !llfi_index !594
  %8 = getelementptr inbounds %struct.SS, %struct.SS* %7, i32 0, i32 0, !llfi_index !595
  %9 = call nonnull align 8 dereferenceable(32) %"class.std::__cxx11::basic_string"* @_ZNSt7__cxx1112basic_stringIcSt11char_traitsIcESaIcEEaSEOS4_(%"class.std::__cxx11::basic_string"* nonnull align 8 dereferenceable(32) %6, %"class.std::__cxx11::basic_string"* nonnull align 8 dereferenceable(32) %8) #2, !llfi_index !596
  %10 = getelementptr inbounds %struct.SS, %struct.SS* %5, i32 0, i32 1, !llfi_index !597
  %11 = load %struct.SS*, %struct.SS** %4, align 8, !llfi_index !598
  %12 = getelementptr inbounds %struct.SS, %struct.SS* %11, i32 0, i32 1, !llfi_index !599
  %13 = bitcast i32* %10 to i8*, !llfi_index !600
  %14 = bitcast i32* %12 to i8*, !llfi_index !601
  call void @llvm.memcpy.p0i8.p0i8.i64(i8* align 8 %13, i8* align 8 %14, i64 12, i1 false), !llfi_index !602
  ret %struct.SS* %5, !llfi_index !603
}

; Function Attrs: nounwind
declare dso_local nonnull align 8 dereferenceable(32) %"class.std::__cxx11::basic_string"* @_ZNSt7__cxx1112basic_stringIcSt11char_traitsIcESaIcEEaSEOS4_(%"class.std::__cxx11::basic_string"* nonnull align 8 dereferenceable(32), %"class.std::__cxx11::basic_string"* nonnull align 8 dereferenceable(32)) #3

; Function Attrs: mustprogress noinline uwtable
define linkonce_odr dso_local zeroext i1 @_ZNK2SSltERKS_(%struct.SS* nonnull align 8 dereferenceable(44) %0, %struct.SS* nonnull align 8 dereferenceable(44) %1) #7 comdat align 2 {
  %3 = alloca i1, align 1, !llfi_index !604
  %4 = alloca %struct.SS*, align 8, !llfi_index !605
  %5 = alloca %struct.SS*, align 8, !llfi_index !606
  %6 = alloca i32, align 4, !llfi_index !607
  store %struct.SS* %0, %struct.SS** %4, align 8, !llfi_index !608
  store %struct.SS* %1, %struct.SS** %5, align 8, !llfi_index !609
  %7 = load %struct.SS*, %struct.SS** %4, align 8, !llfi_index !610
  %8 = getelementptr inbounds %struct.SS, %struct.SS* %7, i32 0, i32 0, !llfi_index !611
  %9 = load %struct.SS*, %struct.SS** %5, align 8, !llfi_index !612
  %10 = getelementptr inbounds %struct.SS, %struct.SS* %9, i32 0, i32 0, !llfi_index !613
  %11 = call i32 @_ZNKSt7__cxx1112basic_stringIcSt11char_traitsIcESaIcEE7compareERKS4_(%"class.std::__cxx11::basic_string"* nonnull align 8 dereferenceable(32) %8, %"class.std::__cxx11::basic_string"* nonnull align 8 dereferenceable(32) %10), !llfi_index !614
  store i32 %11, i32* %6, align 4, !llfi_index !615
  %12 = load i32, i32* %6, align 4, !llfi_index !616
  %13 = icmp ne i32 %12, 0, !llfi_index !617
  br i1 %13, label %21, label %14, !llfi_index !618

14:                                               ; preds = %2
  %15 = getelementptr inbounds %struct.SS, %struct.SS* %7, i32 0, i32 2, !llfi_index !619
  %16 = load i32, i32* %15, align 4, !llfi_index !620
  %17 = load %struct.SS*, %struct.SS** %5, align 8, !llfi_index !621
  %18 = getelementptr inbounds %struct.SS, %struct.SS* %17, i32 0, i32 2, !llfi_index !622
  %19 = load i32, i32* %18, align 4, !llfi_index !623
  %20 = icmp slt i32 %16, %19, !llfi_index !624
  store i1 %20, i1* %3, align 1, !llfi_index !625
  br label %24, !llfi_index !626

21:                                               ; preds = %2
  %22 = load i32, i32* %6, align 4, !llfi_index !627
  %23 = icmp slt i32 %22, 0, !llfi_index !628
  store i1 %23, i1* %3, align 1, !llfi_index !629
  br label %24, !llfi_index !630

24:                                               ; preds = %21, %14
  %25 = load i1, i1* %3, align 1, !llfi_index !631
  ret i1 %25, !llfi_index !632
}

declare dso_local i32 @_ZNKSt7__cxx1112basic_stringIcSt11char_traitsIcESaIcEE7compareERKS4_(%"class.std::__cxx11::basic_string"* nonnull align 8 dereferenceable(32), %"class.std::__cxx11::basic_string"* nonnull align 8 dereferenceable(32)) #4

; Function Attrs: nounwind
declare dso_local void @_ZNSt7__cxx1112basic_stringIcSt11char_traitsIcESaIcEEC1EOS4_(%"class.std::__cxx11::basic_string"* nonnull align 8 dereferenceable(32), %"class.std::__cxx11::basic_string"* nonnull align 8 dereferenceable(32)) unnamed_addr #3

; Function Attrs: mustprogress noinline uwtable
define linkonce_odr dso_local zeroext i1 @_ZNK9__gnu_cxx5__ops15_Iter_less_iterclIP2SSS4_EEbT_T0_(%"class.std::ios_base::Init"* nonnull align 1 dereferenceable(1) %0, %struct.SS* %1, %struct.SS* %2) #7 comdat align 2 {
  %4 = alloca %"class.std::ios_base::Init"*, align 8, !llfi_index !633
  %5 = alloca %struct.SS*, align 8, !llfi_index !634
  %6 = alloca %struct.SS*, align 8, !llfi_index !635
  store %"class.std::ios_base::Init"* %0, %"class.std::ios_base::Init"** %4, align 8, !llfi_index !636
  store %struct.SS* %1, %struct.SS** %5, align 8, !llfi_index !637
  store %struct.SS* %2, %struct.SS** %6, align 8, !llfi_index !638
  %7 = load %"class.std::ios_base::Init"*, %"class.std::ios_base::Init"** %4, align 8, !llfi_index !639
  %8 = load %struct.SS*, %struct.SS** %5, align 8, !llfi_index !640
  %9 = load %struct.SS*, %struct.SS** %6, align 8, !llfi_index !641
  %10 = call zeroext i1 @_ZNK2SSltERKS_(%struct.SS* nonnull align 8 dereferenceable(44) %8, %struct.SS* nonnull align 8 dereferenceable(44) %9), !llfi_index !642
  ret i1 %10, !llfi_index !643
}

; Function Attrs: mustprogress noinline uwtable
define linkonce_odr dso_local %struct.SS* @_ZSt13move_backwardIP2SSS1_ET0_T_S3_S2_(%struct.SS* %0, %struct.SS* %1, %struct.SS* %2) #7 comdat {
  %4 = alloca %struct.SS*, align 8, !llfi_index !644
  %5 = alloca %struct.SS*, align 8, !llfi_index !645
  %6 = alloca %struct.SS*, align 8, !llfi_index !646
  store %struct.SS* %0, %struct.SS** %4, align 8, !llfi_index !647
  store %struct.SS* %1, %struct.SS** %5, align 8, !llfi_index !648
  store %struct.SS* %2, %struct.SS** %6, align 8, !llfi_index !649
  %7 = load %struct.SS*, %struct.SS** %4, align 8, !llfi_index !650
  %8 = call %struct.SS* @_ZSt12__miter_baseIP2SSET_S2_(%struct.SS* %7), !llfi_index !651
  %9 = load %struct.SS*, %struct.SS** %5, align 8, !llfi_index !652
  %10 = call %struct.SS* @_ZSt12__miter_baseIP2SSET_S2_(%struct.SS* %9), !llfi_index !653
  %11 = load %struct.SS*, %struct.SS** %6, align 8, !llfi_index !654
  %12 = call %struct.SS* @_ZSt23__copy_move_backward_a2ILb1EP2SSS1_ET1_T0_S3_S2_(%struct.SS* %8, %struct.SS* %10, %struct.SS* %11), !llfi_index !655
  ret %struct.SS* %12, !llfi_index !656
}

; Function Attrs: mustprogress noinline nounwind uwtable
define linkonce_odr dso_local %struct.SS* @_ZSt12__miter_baseIP2SSET_S2_(%struct.SS* %0) #5 comdat {
  %2 = alloca %struct.SS*, align 8, !llfi_index !657
  store %struct.SS* %0, %struct.SS** %2, align 8, !llfi_index !658
  %3 = load %struct.SS*, %struct.SS** %2, align 8, !llfi_index !659
  ret %struct.SS* %3, !llfi_index !660
}

; Function Attrs: mustprogress noinline uwtable
define linkonce_odr dso_local %struct.SS* @_ZSt23__copy_move_backward_a2ILb1EP2SSS1_ET1_T0_S3_S2_(%struct.SS* %0, %struct.SS* %1, %struct.SS* %2) #7 comdat {
  %4 = alloca %struct.SS*, align 8, !llfi_index !661
  %5 = alloca %struct.SS*, align 8, !llfi_index !662
  %6 = alloca %struct.SS*, align 8, !llfi_index !663
  store %struct.SS* %0, %struct.SS** %4, align 8, !llfi_index !664
  store %struct.SS* %1, %struct.SS** %5, align 8, !llfi_index !665
  store %struct.SS* %2, %struct.SS** %6, align 8, !llfi_index !666
  %7 = load %struct.SS*, %struct.SS** %4, align 8, !llfi_index !667
  %8 = call %struct.SS* @_ZSt12__niter_baseIP2SSET_S2_(%struct.SS* %7) #2, !llfi_index !668
  %9 = load %struct.SS*, %struct.SS** %5, align 8, !llfi_index !669
  %10 = call %struct.SS* @_ZSt12__niter_baseIP2SSET_S2_(%struct.SS* %9) #2, !llfi_index !670
  %11 = load %struct.SS*, %struct.SS** %6, align 8, !llfi_index !671
  %12 = call %struct.SS* @_ZSt12__niter_baseIP2SSET_S2_(%struct.SS* %11) #2, !llfi_index !672
  %13 = call %struct.SS* @_ZSt22__copy_move_backward_aILb1EP2SSS1_ET1_T0_S3_S2_(%struct.SS* %8, %struct.SS* %10, %struct.SS* %12), !llfi_index !673
  %14 = call %struct.SS* @_ZSt12__niter_wrapIP2SSET_RKS2_S2_(%struct.SS** nonnull align 8 dereferenceable(8) %6, %struct.SS* %13), !llfi_index !674
  ret %struct.SS* %14, !llfi_index !675
}

; Function Attrs: mustprogress noinline nounwind uwtable
define linkonce_odr dso_local %struct.SS* @_ZSt12__niter_baseIP2SSET_S2_(%struct.SS* %0) #5 comdat {
  %2 = alloca %struct.SS*, align 8, !llfi_index !676
  store %struct.SS* %0, %struct.SS** %2, align 8, !llfi_index !677
  %3 = load %struct.SS*, %struct.SS** %2, align 8, !llfi_index !678
  ret %struct.SS* %3, !llfi_index !679
}

; Function Attrs: mustprogress noinline uwtable
define linkonce_odr dso_local %struct.SS* @_ZSt22__copy_move_backward_aILb1EP2SSS1_ET1_T0_S3_S2_(%struct.SS* %0, %struct.SS* %1, %struct.SS* %2) #7 comdat {
  %4 = alloca %struct.SS*, align 8, !llfi_index !680
  %5 = alloca %struct.SS*, align 8, !llfi_index !681
  %6 = alloca %struct.SS*, align 8, !llfi_index !682
  %7 = alloca i8, align 1, !llfi_index !683
  store %struct.SS* %0, %struct.SS** %4, align 8, !llfi_index !684
  store %struct.SS* %1, %struct.SS** %5, align 8, !llfi_index !685
  store %struct.SS* %2, %struct.SS** %6, align 8, !llfi_index !686
  store i8 0, i8* %7, align 1, !llfi_index !687
  %8 = load %struct.SS*, %struct.SS** %4, align 8, !llfi_index !688
  %9 = load %struct.SS*, %struct.SS** %5, align 8, !llfi_index !689
  %10 = load %struct.SS*, %struct.SS** %6, align 8, !llfi_index !690
  %11 = call %struct.SS* @_ZNSt20__copy_move_backwardILb1ELb0ESt26random_access_iterator_tagE13__copy_move_bIP2SSS4_EET0_T_S6_S5_(%struct.SS* %8, %struct.SS* %9, %struct.SS* %10), !llfi_index !691
  ret %struct.SS* %11, !llfi_index !692
}

; Function Attrs: mustprogress noinline nounwind uwtable
define linkonce_odr dso_local %struct.SS* @_ZSt12__niter_wrapIP2SSET_RKS2_S2_(%struct.SS** nonnull align 8 dereferenceable(8) %0, %struct.SS* %1) #5 comdat {
  %3 = alloca %struct.SS**, align 8, !llfi_index !693
  %4 = alloca %struct.SS*, align 8, !llfi_index !694
  store %struct.SS** %0, %struct.SS*** %3, align 8, !llfi_index !695
  store %struct.SS* %1, %struct.SS** %4, align 8, !llfi_index !696
  %5 = load %struct.SS*, %struct.SS** %4, align 8, !llfi_index !697
  ret %struct.SS* %5, !llfi_index !698
}

; Function Attrs: mustprogress noinline nounwind uwtable
define linkonce_odr dso_local %struct.SS* @_ZNSt20__copy_move_backwardILb1ELb0ESt26random_access_iterator_tagE13__copy_move_bIP2SSS4_EET0_T_S6_S5_(%struct.SS* %0, %struct.SS* %1, %struct.SS* %2) #5 comdat align 2 {
  %4 = alloca %struct.SS*, align 8, !llfi_index !699
  %5 = alloca %struct.SS*, align 8, !llfi_index !700
  %6 = alloca %struct.SS*, align 8, !llfi_index !701
  %7 = alloca i64, align 8, !llfi_index !702
  store %struct.SS* %0, %struct.SS** %4, align 8, !llfi_index !703
  store %struct.SS* %1, %struct.SS** %5, align 8, !llfi_index !704
  store %struct.SS* %2, %struct.SS** %6, align 8, !llfi_index !705
  %8 = load %struct.SS*, %struct.SS** %5, align 8, !llfi_index !706
  %9 = load %struct.SS*, %struct.SS** %4, align 8, !llfi_index !707
  %10 = ptrtoint %struct.SS* %8 to i64, !llfi_index !708
  %11 = ptrtoint %struct.SS* %9 to i64, !llfi_index !709
  %12 = sub i64 %10, %11, !llfi_index !710
  %13 = sdiv exact i64 %12, 48, !llfi_index !711
  store i64 %13, i64* %7, align 8, !llfi_index !712
  br label %14, !llfi_index !713

14:                                               ; preds = %24, %3
  %15 = load i64, i64* %7, align 8, !llfi_index !714
  %16 = icmp sgt i64 %15, 0, !llfi_index !715
  br i1 %16, label %17, label %27, !llfi_index !716

17:                                               ; preds = %14
  %18 = load %struct.SS*, %struct.SS** %5, align 8, !llfi_index !717
  %19 = getelementptr inbounds %struct.SS, %struct.SS* %18, i32 -1, !llfi_index !718
  store %struct.SS* %19, %struct.SS** %5, align 8, !llfi_index !719
  %20 = call nonnull align 8 dereferenceable(44) %struct.SS* @_ZSt4moveIR2SSEONSt16remove_referenceIT_E4typeEOS3_(%struct.SS* nonnull align 8 dereferenceable(44) %19) #2, !llfi_index !720
  %21 = load %struct.SS*, %struct.SS** %6, align 8, !llfi_index !721
  %22 = getelementptr inbounds %struct.SS, %struct.SS* %21, i32 -1, !llfi_index !722
  store %struct.SS* %22, %struct.SS** %6, align 8, !llfi_index !723
  %23 = call nonnull align 8 dereferenceable(44) %struct.SS* @_ZN2SSaSEOS_(%struct.SS* nonnull align 8 dereferenceable(44) %22, %struct.SS* nonnull align 8 dereferenceable(44) %20) #2, !llfi_index !724
  br label %24, !llfi_index !725

24:                                               ; preds = %17
  %25 = load i64, i64* %7, align 8, !llfi_index !726
  %26 = add nsw i64 %25, -1, !llfi_index !727
  store i64 %26, i64* %7, align 8, !llfi_index !728
  br label %14, !llvm.loop !729, !llfi_index !730

27:                                               ; preds = %14
  %28 = load %struct.SS*, %struct.SS** %6, align 8, !llfi_index !731
  ret %struct.SS* %28, !llfi_index !732
}

; Function Attrs: mustprogress noinline uwtable
define linkonce_odr dso_local void @_ZSt14__partial_sortIP2SSN9__gnu_cxx5__ops15_Iter_less_iterEEvT_S5_S5_T0_(%struct.SS* %0, %struct.SS* %1, %struct.SS* %2) #7 comdat {
  %4 = alloca %"class.std::ios_base::Init", align 1, !llfi_index !733
  %5 = alloca %struct.SS*, align 8, !llfi_index !734
  %6 = alloca %struct.SS*, align 8, !llfi_index !735
  %7 = alloca %struct.SS*, align 8, !llfi_index !736
  %8 = alloca %"class.std::ios_base::Init", align 1, !llfi_index !737
  store %struct.SS* %0, %struct.SS** %5, align 8, !llfi_index !738
  store %struct.SS* %1, %struct.SS** %6, align 8, !llfi_index !739
  store %struct.SS* %2, %struct.SS** %7, align 8, !llfi_index !740
  %9 = load %struct.SS*, %struct.SS** %5, align 8, !llfi_index !741
  %10 = load %struct.SS*, %struct.SS** %6, align 8, !llfi_index !742
  %11 = load %struct.SS*, %struct.SS** %7, align 8, !llfi_index !743
  call void @_ZSt13__heap_selectIP2SSN9__gnu_cxx5__ops15_Iter_less_iterEEvT_S5_S5_T0_(%struct.SS* %9, %struct.SS* %10, %struct.SS* %11), !llfi_index !744
  %12 = load %struct.SS*, %struct.SS** %5, align 8, !llfi_index !745
  %13 = load %struct.SS*, %struct.SS** %6, align 8, !llfi_index !746
  call void @_ZSt11__sort_heapIP2SSN9__gnu_cxx5__ops15_Iter_less_iterEEvT_S5_RT0_(%struct.SS* %12, %struct.SS* %13, %"class.std::ios_base::Init"* nonnull align 1 dereferenceable(1) %4), !llfi_index !747
  ret void, !llfi_index !748
}

; Function Attrs: mustprogress noinline uwtable
define linkonce_odr dso_local %struct.SS* @_ZSt27__unguarded_partition_pivotIP2SSN9__gnu_cxx5__ops15_Iter_less_iterEET_S5_S5_T0_(%struct.SS* %0, %struct.SS* %1) #7 comdat {
  %3 = alloca %"class.std::ios_base::Init", align 1, !llfi_index !749
  %4 = alloca %struct.SS*, align 8, !llfi_index !750
  %5 = alloca %struct.SS*, align 8, !llfi_index !751
  %6 = alloca %struct.SS*, align 8, !llfi_index !752
  %7 = alloca %"class.std::ios_base::Init", align 1, !llfi_index !753
  %8 = alloca %"class.std::ios_base::Init", align 1, !llfi_index !754
  store %struct.SS* %0, %struct.SS** %4, align 8, !llfi_index !755
  store %struct.SS* %1, %struct.SS** %5, align 8, !llfi_index !756
  %9 = load %struct.SS*, %struct.SS** %4, align 8, !llfi_index !757
  %10 = load %struct.SS*, %struct.SS** %5, align 8, !llfi_index !758
  %11 = load %struct.SS*, %struct.SS** %4, align 8, !llfi_index !759
  %12 = ptrtoint %struct.SS* %10 to i64, !llfi_index !760
  %13 = ptrtoint %struct.SS* %11 to i64, !llfi_index !761
  %14 = sub i64 %12, %13, !llfi_index !762
  %15 = sdiv exact i64 %14, 48, !llfi_index !763
  %16 = sdiv i64 %15, 2, !llfi_index !764
  %17 = getelementptr inbounds %struct.SS, %struct.SS* %9, i64 %16, !llfi_index !765
  store %struct.SS* %17, %struct.SS** %6, align 8, !llfi_index !766
  %18 = load %struct.SS*, %struct.SS** %4, align 8, !llfi_index !767
  %19 = load %struct.SS*, %struct.SS** %4, align 8, !llfi_index !768
  %20 = getelementptr inbounds %struct.SS, %struct.SS* %19, i64 1, !llfi_index !769
  %21 = load %struct.SS*, %struct.SS** %6, align 8, !llfi_index !770
  %22 = load %struct.SS*, %struct.SS** %5, align 8, !llfi_index !771
  %23 = getelementptr inbounds %struct.SS, %struct.SS* %22, i64 -1, !llfi_index !772
  call void @_ZSt22__move_median_to_firstIP2SSN9__gnu_cxx5__ops15_Iter_less_iterEEvT_S5_S5_S5_T0_(%struct.SS* %18, %struct.SS* %20, %struct.SS* %21, %struct.SS* %23), !llfi_index !773
  %24 = load %struct.SS*, %struct.SS** %4, align 8, !llfi_index !774
  %25 = getelementptr inbounds %struct.SS, %struct.SS* %24, i64 1, !llfi_index !775
  %26 = load %struct.SS*, %struct.SS** %5, align 8, !llfi_index !776
  %27 = load %struct.SS*, %struct.SS** %4, align 8, !llfi_index !777
  %28 = call %struct.SS* @_ZSt21__unguarded_partitionIP2SSN9__gnu_cxx5__ops15_Iter_less_iterEET_S5_S5_S5_T0_(%struct.SS* %25, %struct.SS* %26, %struct.SS* %27), !llfi_index !778
  ret %struct.SS* %28, !llfi_index !779
}

; Function Attrs: mustprogress noinline uwtable
define linkonce_odr dso_local void @_ZSt22__move_median_to_firstIP2SSN9__gnu_cxx5__ops15_Iter_less_iterEEvT_S5_S5_S5_T0_(%struct.SS* %0, %struct.SS* %1, %struct.SS* %2, %struct.SS* %3) #7 comdat {
  %5 = alloca %"class.std::ios_base::Init", align 1, !llfi_index !780
  %6 = alloca %struct.SS*, align 8, !llfi_index !781
  %7 = alloca %struct.SS*, align 8, !llfi_index !782
  %8 = alloca %struct.SS*, align 8, !llfi_index !783
  %9 = alloca %struct.SS*, align 8, !llfi_index !784
  store %struct.SS* %0, %struct.SS** %6, align 8, !llfi_index !785
  store %struct.SS* %1, %struct.SS** %7, align 8, !llfi_index !786
  store %struct.SS* %2, %struct.SS** %8, align 8, !llfi_index !787
  store %struct.SS* %3, %struct.SS** %9, align 8, !llfi_index !788
  %10 = load %struct.SS*, %struct.SS** %7, align 8, !llfi_index !789
  %11 = load %struct.SS*, %struct.SS** %8, align 8, !llfi_index !790
  %12 = call zeroext i1 @_ZNK9__gnu_cxx5__ops15_Iter_less_iterclIP2SSS4_EEbT_T0_(%"class.std::ios_base::Init"* nonnull align 1 dereferenceable(1) %5, %struct.SS* %10, %struct.SS* %11), !llfi_index !791
  br i1 %12, label %13, label %32, !llfi_index !792

13:                                               ; preds = %4
  %14 = load %struct.SS*, %struct.SS** %8, align 8, !llfi_index !793
  %15 = load %struct.SS*, %struct.SS** %9, align 8, !llfi_index !794
  %16 = call zeroext i1 @_ZNK9__gnu_cxx5__ops15_Iter_less_iterclIP2SSS4_EEbT_T0_(%"class.std::ios_base::Init"* nonnull align 1 dereferenceable(1) %5, %struct.SS* %14, %struct.SS* %15), !llfi_index !795
  br i1 %16, label %17, label %20, !llfi_index !796

17:                                               ; preds = %13
  %18 = load %struct.SS*, %struct.SS** %6, align 8, !llfi_index !797
  %19 = load %struct.SS*, %struct.SS** %8, align 8, !llfi_index !798
  call void @_ZSt9iter_swapIP2SSS1_EvT_T0_(%struct.SS* %18, %struct.SS* %19), !llfi_index !799
  br label %31, !llfi_index !800

20:                                               ; preds = %13
  %21 = load %struct.SS*, %struct.SS** %7, align 8, !llfi_index !801
  %22 = load %struct.SS*, %struct.SS** %9, align 8, !llfi_index !802
  %23 = call zeroext i1 @_ZNK9__gnu_cxx5__ops15_Iter_less_iterclIP2SSS4_EEbT_T0_(%"class.std::ios_base::Init"* nonnull align 1 dereferenceable(1) %5, %struct.SS* %21, %struct.SS* %22), !llfi_index !803
  br i1 %23, label %24, label %27, !llfi_index !804

24:                                               ; preds = %20
  %25 = load %struct.SS*, %struct.SS** %6, align 8, !llfi_index !805
  %26 = load %struct.SS*, %struct.SS** %9, align 8, !llfi_index !806
  call void @_ZSt9iter_swapIP2SSS1_EvT_T0_(%struct.SS* %25, %struct.SS* %26), !llfi_index !807
  br label %30, !llfi_index !808

27:                                               ; preds = %20
  %28 = load %struct.SS*, %struct.SS** %6, align 8, !llfi_index !809
  %29 = load %struct.SS*, %struct.SS** %7, align 8, !llfi_index !810
  call void @_ZSt9iter_swapIP2SSS1_EvT_T0_(%struct.SS* %28, %struct.SS* %29), !llfi_index !811
  br label %30, !llfi_index !812

30:                                               ; preds = %27, %24
  br label %31, !llfi_index !813

31:                                               ; preds = %30, %17
  br label %51, !llfi_index !814

32:                                               ; preds = %4
  %33 = load %struct.SS*, %struct.SS** %7, align 8, !llfi_index !815
  %34 = load %struct.SS*, %struct.SS** %9, align 8, !llfi_index !816
  %35 = call zeroext i1 @_ZNK9__gnu_cxx5__ops15_Iter_less_iterclIP2SSS4_EEbT_T0_(%"class.std::ios_base::Init"* nonnull align 1 dereferenceable(1) %5, %struct.SS* %33, %struct.SS* %34), !llfi_index !817
  br i1 %35, label %36, label %39, !llfi_index !818

36:                                               ; preds = %32
  %37 = load %struct.SS*, %struct.SS** %6, align 8, !llfi_index !819
  %38 = load %struct.SS*, %struct.SS** %7, align 8, !llfi_index !820
  call void @_ZSt9iter_swapIP2SSS1_EvT_T0_(%struct.SS* %37, %struct.SS* %38), !llfi_index !821
  br label %50, !llfi_index !822

39:                                               ; preds = %32
  %40 = load %struct.SS*, %struct.SS** %8, align 8, !llfi_index !823
  %41 = load %struct.SS*, %struct.SS** %9, align 8, !llfi_index !824
  %42 = call zeroext i1 @_ZNK9__gnu_cxx5__ops15_Iter_less_iterclIP2SSS4_EEbT_T0_(%"class.std::ios_base::Init"* nonnull align 1 dereferenceable(1) %5, %struct.SS* %40, %struct.SS* %41), !llfi_index !825
  br i1 %42, label %43, label %46, !llfi_index !826

43:                                               ; preds = %39
  %44 = load %struct.SS*, %struct.SS** %6, align 8, !llfi_index !827
  %45 = load %struct.SS*, %struct.SS** %9, align 8, !llfi_index !828
  call void @_ZSt9iter_swapIP2SSS1_EvT_T0_(%struct.SS* %44, %struct.SS* %45), !llfi_index !829
  br label %49, !llfi_index !830

46:                                               ; preds = %39
  %47 = load %struct.SS*, %struct.SS** %6, align 8, !llfi_index !831
  %48 = load %struct.SS*, %struct.SS** %8, align 8, !llfi_index !832
  call void @_ZSt9iter_swapIP2SSS1_EvT_T0_(%struct.SS* %47, %struct.SS* %48), !llfi_index !833
  br label %49, !llfi_index !834

49:                                               ; preds = %46, %43
  br label %50, !llfi_index !835

50:                                               ; preds = %49, %36
  br label %51, !llfi_index !836

51:                                               ; preds = %50, %31
  ret void, !llfi_index !837
}

; Function Attrs: mustprogress noinline uwtable
define linkonce_odr dso_local %struct.SS* @_ZSt21__unguarded_partitionIP2SSN9__gnu_cxx5__ops15_Iter_less_iterEET_S5_S5_S5_T0_(%struct.SS* %0, %struct.SS* %1, %struct.SS* %2) #7 comdat {
  %4 = alloca %"class.std::ios_base::Init", align 1, !llfi_index !838
  %5 = alloca %struct.SS*, align 8, !llfi_index !839
  %6 = alloca %struct.SS*, align 8, !llfi_index !840
  %7 = alloca %struct.SS*, align 8, !llfi_index !841
  store %struct.SS* %0, %struct.SS** %5, align 8, !llfi_index !842
  store %struct.SS* %1, %struct.SS** %6, align 8, !llfi_index !843
  store %struct.SS* %2, %struct.SS** %7, align 8, !llfi_index !844
  br label %8, !llfi_index !845

8:                                                ; preds = %32, %3
  br label %9, !llfi_index !846

9:                                                ; preds = %13, %8
  %10 = load %struct.SS*, %struct.SS** %5, align 8, !llfi_index !847
  %11 = load %struct.SS*, %struct.SS** %7, align 8, !llfi_index !848
  %12 = call zeroext i1 @_ZNK9__gnu_cxx5__ops15_Iter_less_iterclIP2SSS4_EEbT_T0_(%"class.std::ios_base::Init"* nonnull align 1 dereferenceable(1) %4, %struct.SS* %10, %struct.SS* %11), !llfi_index !849
  br i1 %12, label %13, label %16, !llfi_index !850

13:                                               ; preds = %9
  %14 = load %struct.SS*, %struct.SS** %5, align 8, !llfi_index !851
  %15 = getelementptr inbounds %struct.SS, %struct.SS* %14, i32 1, !llfi_index !852
  store %struct.SS* %15, %struct.SS** %5, align 8, !llfi_index !853
  br label %9, !llvm.loop !854, !llfi_index !855

16:                                               ; preds = %9
  %17 = load %struct.SS*, %struct.SS** %6, align 8, !llfi_index !856
  %18 = getelementptr inbounds %struct.SS, %struct.SS* %17, i32 -1, !llfi_index !857
  store %struct.SS* %18, %struct.SS** %6, align 8, !llfi_index !858
  br label %19, !llfi_index !859

19:                                               ; preds = %23, %16
  %20 = load %struct.SS*, %struct.SS** %7, align 8, !llfi_index !860
  %21 = load %struct.SS*, %struct.SS** %6, align 8, !llfi_index !861
  %22 = call zeroext i1 @_ZNK9__gnu_cxx5__ops15_Iter_less_iterclIP2SSS4_EEbT_T0_(%"class.std::ios_base::Init"* nonnull align 1 dereferenceable(1) %4, %struct.SS* %20, %struct.SS* %21), !llfi_index !862
  br i1 %22, label %23, label %26, !llfi_index !863

23:                                               ; preds = %19
  %24 = load %struct.SS*, %struct.SS** %6, align 8, !llfi_index !864
  %25 = getelementptr inbounds %struct.SS, %struct.SS* %24, i32 -1, !llfi_index !865
  store %struct.SS* %25, %struct.SS** %6, align 8, !llfi_index !866
  br label %19, !llvm.loop !867, !llfi_index !868

26:                                               ; preds = %19
  %27 = load %struct.SS*, %struct.SS** %5, align 8, !llfi_index !869
  %28 = load %struct.SS*, %struct.SS** %6, align 8, !llfi_index !870
  %29 = icmp ult %struct.SS* %27, %28, !llfi_index !871
  br i1 %29, label %32, label %30, !llfi_index !872

30:                                               ; preds = %26
  %31 = load %struct.SS*, %struct.SS** %5, align 8, !llfi_index !873
  ret %struct.SS* %31, !llfi_index !874

32:                                               ; preds = %26
  %33 = load %struct.SS*, %struct.SS** %5, align 8, !llfi_index !875
  %34 = load %struct.SS*, %struct.SS** %6, align 8, !llfi_index !876
  call void @_ZSt9iter_swapIP2SSS1_EvT_T0_(%struct.SS* %33, %struct.SS* %34), !llfi_index !877
  %35 = load %struct.SS*, %struct.SS** %5, align 8, !llfi_index !878
  %36 = getelementptr inbounds %struct.SS, %struct.SS* %35, i32 1, !llfi_index !879
  store %struct.SS* %36, %struct.SS** %5, align 8, !llfi_index !880
  br label %8, !llvm.loop !881, !llfi_index !882
}

; Function Attrs: mustprogress noinline nounwind uwtable
define linkonce_odr dso_local void @_ZSt9iter_swapIP2SSS1_EvT_T0_(%struct.SS* %0, %struct.SS* %1) #5 comdat {
  %3 = alloca %struct.SS*, align 8, !llfi_index !883
  %4 = alloca %struct.SS*, align 8, !llfi_index !884
  store %struct.SS* %0, %struct.SS** %3, align 8, !llfi_index !885
  store %struct.SS* %1, %struct.SS** %4, align 8, !llfi_index !886
  %5 = load %struct.SS*, %struct.SS** %3, align 8, !llfi_index !887
  %6 = load %struct.SS*, %struct.SS** %4, align 8, !llfi_index !888
  call void @_ZSt4swapI2SSENSt9enable_ifIXsr6__and_ISt6__not_ISt15__is_tuple_likeIT_EESt21is_move_constructibleIS4_ESt18is_move_assignableIS4_EEE5valueEvE4typeERS4_SD_(%struct.SS* nonnull align 8 dereferenceable(44) %5, %struct.SS* nonnull align 8 dereferenceable(44) %6) #2, !llfi_index !889
  ret void, !llfi_index !890
}

; Function Attrs: mustprogress noinline nounwind uwtable
define linkonce_odr dso_local void @_ZSt4swapI2SSENSt9enable_ifIXsr6__and_ISt6__not_ISt15__is_tuple_likeIT_EESt21is_move_constructibleIS4_ESt18is_move_assignableIS4_EEE5valueEvE4typeERS4_SD_(%struct.SS* nonnull align 8 dereferenceable(44) %0, %struct.SS* nonnull align 8 dereferenceable(44) %1) #5 comdat {
  %3 = alloca %struct.SS*, align 8, !llfi_index !891
  %4 = alloca %struct.SS*, align 8, !llfi_index !892
  %5 = alloca %struct.SS, align 8, !llfi_index !893
  store %struct.SS* %0, %struct.SS** %3, align 8, !llfi_index !894
  store %struct.SS* %1, %struct.SS** %4, align 8, !llfi_index !895
  %6 = load %struct.SS*, %struct.SS** %3, align 8, !llfi_index !896
  %7 = call nonnull align 8 dereferenceable(44) %struct.SS* @_ZSt4moveIR2SSEONSt16remove_referenceIT_E4typeEOS3_(%struct.SS* nonnull align 8 dereferenceable(44) %6) #2, !llfi_index !897
  call void @_ZN2SSC2EOS_(%struct.SS* nonnull align 8 dereferenceable(44) %5, %struct.SS* nonnull align 8 dereferenceable(44) %7) #2, !llfi_index !898
  %8 = load %struct.SS*, %struct.SS** %4, align 8, !llfi_index !899
  %9 = call nonnull align 8 dereferenceable(44) %struct.SS* @_ZSt4moveIR2SSEONSt16remove_referenceIT_E4typeEOS3_(%struct.SS* nonnull align 8 dereferenceable(44) %8) #2, !llfi_index !900
  %10 = load %struct.SS*, %struct.SS** %3, align 8, !llfi_index !901
  %11 = call nonnull align 8 dereferenceable(44) %struct.SS* @_ZN2SSaSEOS_(%struct.SS* nonnull align 8 dereferenceable(44) %10, %struct.SS* nonnull align 8 dereferenceable(44) %9) #2, !llfi_index !902
  %12 = call nonnull align 8 dereferenceable(44) %struct.SS* @_ZSt4moveIR2SSEONSt16remove_referenceIT_E4typeEOS3_(%struct.SS* nonnull align 8 dereferenceable(44) %5) #2, !llfi_index !903
  %13 = load %struct.SS*, %struct.SS** %4, align 8, !llfi_index !904
  %14 = call nonnull align 8 dereferenceable(44) %struct.SS* @_ZN2SSaSEOS_(%struct.SS* nonnull align 8 dereferenceable(44) %13, %struct.SS* nonnull align 8 dereferenceable(44) %12) #2, !llfi_index !905
  call void @_ZN2SSD2Ev(%struct.SS* nonnull align 8 dereferenceable(44) %5) #2, !llfi_index !906
  ret void, !llfi_index !907
}

; Function Attrs: mustprogress noinline uwtable
define linkonce_odr dso_local void @_ZSt13__heap_selectIP2SSN9__gnu_cxx5__ops15_Iter_less_iterEEvT_S5_S5_T0_(%struct.SS* %0, %struct.SS* %1, %struct.SS* %2) #7 comdat {
  %4 = alloca %"class.std::ios_base::Init", align 1, !llfi_index !908
  %5 = alloca %struct.SS*, align 8, !llfi_index !909
  %6 = alloca %struct.SS*, align 8, !llfi_index !910
  %7 = alloca %struct.SS*, align 8, !llfi_index !911
  %8 = alloca %struct.SS*, align 8, !llfi_index !912
  store %struct.SS* %0, %struct.SS** %5, align 8, !llfi_index !913
  store %struct.SS* %1, %struct.SS** %6, align 8, !llfi_index !914
  store %struct.SS* %2, %struct.SS** %7, align 8, !llfi_index !915
  %9 = load %struct.SS*, %struct.SS** %5, align 8, !llfi_index !916
  %10 = load %struct.SS*, %struct.SS** %6, align 8, !llfi_index !917
  call void @_ZSt11__make_heapIP2SSN9__gnu_cxx5__ops15_Iter_less_iterEEvT_S5_RT0_(%struct.SS* %9, %struct.SS* %10, %"class.std::ios_base::Init"* nonnull align 1 dereferenceable(1) %4), !llfi_index !918
  %11 = load %struct.SS*, %struct.SS** %6, align 8, !llfi_index !919
  store %struct.SS* %11, %struct.SS** %8, align 8, !llfi_index !920
  br label %12, !llfi_index !921

12:                                               ; preds = %25, %3
  %13 = load %struct.SS*, %struct.SS** %8, align 8, !llfi_index !922
  %14 = load %struct.SS*, %struct.SS** %7, align 8, !llfi_index !923
  %15 = icmp ult %struct.SS* %13, %14, !llfi_index !924
  br i1 %15, label %16, label %28, !llfi_index !925

16:                                               ; preds = %12
  %17 = load %struct.SS*, %struct.SS** %8, align 8, !llfi_index !926
  %18 = load %struct.SS*, %struct.SS** %5, align 8, !llfi_index !927
  %19 = call zeroext i1 @_ZNK9__gnu_cxx5__ops15_Iter_less_iterclIP2SSS4_EEbT_T0_(%"class.std::ios_base::Init"* nonnull align 1 dereferenceable(1) %4, %struct.SS* %17, %struct.SS* %18), !llfi_index !928
  br i1 %19, label %20, label %24, !llfi_index !929

20:                                               ; preds = %16
  %21 = load %struct.SS*, %struct.SS** %5, align 8, !llfi_index !930
  %22 = load %struct.SS*, %struct.SS** %6, align 8, !llfi_index !931
  %23 = load %struct.SS*, %struct.SS** %8, align 8, !llfi_index !932
  call void @_ZSt10__pop_heapIP2SSN9__gnu_cxx5__ops15_Iter_less_iterEEvT_S5_S5_RT0_(%struct.SS* %21, %struct.SS* %22, %struct.SS* %23, %"class.std::ios_base::Init"* nonnull align 1 dereferenceable(1) %4), !llfi_index !933
  br label %24, !llfi_index !934

24:                                               ; preds = %20, %16
  br label %25, !llfi_index !935

25:                                               ; preds = %24
  %26 = load %struct.SS*, %struct.SS** %8, align 8, !llfi_index !936
  %27 = getelementptr inbounds %struct.SS, %struct.SS* %26, i32 1, !llfi_index !937
  store %struct.SS* %27, %struct.SS** %8, align 8, !llfi_index !938
  br label %12, !llvm.loop !939, !llfi_index !940

28:                                               ; preds = %12
  ret void, !llfi_index !941
}

; Function Attrs: mustprogress noinline uwtable
define linkonce_odr dso_local void @_ZSt11__sort_heapIP2SSN9__gnu_cxx5__ops15_Iter_less_iterEEvT_S5_RT0_(%struct.SS* %0, %struct.SS* %1, %"class.std::ios_base::Init"* nonnull align 1 dereferenceable(1) %2) #7 comdat {
  %4 = alloca %struct.SS*, align 8, !llfi_index !942
  %5 = alloca %struct.SS*, align 8, !llfi_index !943
  %6 = alloca %"class.std::ios_base::Init"*, align 8, !llfi_index !944
  store %struct.SS* %0, %struct.SS** %4, align 8, !llfi_index !945
  store %struct.SS* %1, %struct.SS** %5, align 8, !llfi_index !946
  store %"class.std::ios_base::Init"* %2, %"class.std::ios_base::Init"** %6, align 8, !llfi_index !947
  br label %7, !llfi_index !948

7:                                                ; preds = %15, %3
  %8 = load %struct.SS*, %struct.SS** %5, align 8, !llfi_index !949
  %9 = load %struct.SS*, %struct.SS** %4, align 8, !llfi_index !950
  %10 = ptrtoint %struct.SS* %8 to i64, !llfi_index !951
  %11 = ptrtoint %struct.SS* %9 to i64, !llfi_index !952
  %12 = sub i64 %10, %11, !llfi_index !953
  %13 = sdiv exact i64 %12, 48, !llfi_index !954
  %14 = icmp sgt i64 %13, 1, !llfi_index !955
  br i1 %14, label %15, label %22, !llfi_index !956

15:                                               ; preds = %7
  %16 = load %struct.SS*, %struct.SS** %5, align 8, !llfi_index !957
  %17 = getelementptr inbounds %struct.SS, %struct.SS* %16, i32 -1, !llfi_index !958
  store %struct.SS* %17, %struct.SS** %5, align 8, !llfi_index !959
  %18 = load %struct.SS*, %struct.SS** %4, align 8, !llfi_index !960
  %19 = load %struct.SS*, %struct.SS** %5, align 8, !llfi_index !961
  %20 = load %struct.SS*, %struct.SS** %5, align 8, !llfi_index !962
  %21 = load %"class.std::ios_base::Init"*, %"class.std::ios_base::Init"** %6, align 8, !llfi_index !963
  call void @_ZSt10__pop_heapIP2SSN9__gnu_cxx5__ops15_Iter_less_iterEEvT_S5_S5_RT0_(%struct.SS* %18, %struct.SS* %19, %struct.SS* %20, %"class.std::ios_base::Init"* nonnull align 1 dereferenceable(1) %21), !llfi_index !964
  br label %7, !llvm.loop !965, !llfi_index !966

22:                                               ; preds = %7
  ret void, !llfi_index !967
}

; Function Attrs: mustprogress noinline uwtable
define linkonce_odr dso_local void @_ZSt10__pop_heapIP2SSN9__gnu_cxx5__ops15_Iter_less_iterEEvT_S5_S5_RT0_(%struct.SS* %0, %struct.SS* %1, %struct.SS* %2, %"class.std::ios_base::Init"* nonnull align 1 dereferenceable(1) %3) #7 comdat personality i8* bitcast (i32 (...)* @__gxx_personality_v0 to i8*) {
  %5 = alloca %struct.SS*, align 8, !llfi_index !968
  %6 = alloca %struct.SS*, align 8, !llfi_index !969
  %7 = alloca %struct.SS*, align 8, !llfi_index !970
  %8 = alloca %"class.std::ios_base::Init"*, align 8, !llfi_index !971
  %9 = alloca %struct.SS, align 8, !llfi_index !972
  %10 = alloca %struct.SS, align 8, !llfi_index !973
  %11 = alloca %"class.std::ios_base::Init", align 1, !llfi_index !974
  %12 = alloca i8*, align 8, !llfi_index !975
  %13 = alloca i32, align 4, !llfi_index !976
  store %struct.SS* %0, %struct.SS** %5, align 8, !llfi_index !977
  store %struct.SS* %1, %struct.SS** %6, align 8, !llfi_index !978
  store %struct.SS* %2, %struct.SS** %7, align 8, !llfi_index !979
  store %"class.std::ios_base::Init"* %3, %"class.std::ios_base::Init"** %8, align 8, !llfi_index !980
  %14 = load %struct.SS*, %struct.SS** %7, align 8, !llfi_index !981
  %15 = call nonnull align 8 dereferenceable(44) %struct.SS* @_ZSt4moveIR2SSEONSt16remove_referenceIT_E4typeEOS3_(%struct.SS* nonnull align 8 dereferenceable(44) %14) #2, !llfi_index !982
  call void @_ZN2SSC2EOS_(%struct.SS* nonnull align 8 dereferenceable(44) %9, %struct.SS* nonnull align 8 dereferenceable(44) %15) #2, !llfi_index !983
  %16 = load %struct.SS*, %struct.SS** %5, align 8, !llfi_index !984
  %17 = call nonnull align 8 dereferenceable(44) %struct.SS* @_ZSt4moveIR2SSEONSt16remove_referenceIT_E4typeEOS3_(%struct.SS* nonnull align 8 dereferenceable(44) %16) #2, !llfi_index !985
  %18 = load %struct.SS*, %struct.SS** %7, align 8, !llfi_index !986
  %19 = call nonnull align 8 dereferenceable(44) %struct.SS* @_ZN2SSaSEOS_(%struct.SS* nonnull align 8 dereferenceable(44) %18, %struct.SS* nonnull align 8 dereferenceable(44) %17) #2, !llfi_index !987
  %20 = load %struct.SS*, %struct.SS** %5, align 8, !llfi_index !988
  %21 = load %struct.SS*, %struct.SS** %6, align 8, !llfi_index !989
  %22 = load %struct.SS*, %struct.SS** %5, align 8, !llfi_index !990
  %23 = ptrtoint %struct.SS* %21 to i64, !llfi_index !991
  %24 = ptrtoint %struct.SS* %22 to i64, !llfi_index !992
  %25 = sub i64 %23, %24, !llfi_index !993
  %26 = sdiv exact i64 %25, 48, !llfi_index !994
  %27 = call nonnull align 8 dereferenceable(44) %struct.SS* @_ZSt4moveIR2SSEONSt16remove_referenceIT_E4typeEOS3_(%struct.SS* nonnull align 8 dereferenceable(44) %9) #2, !llfi_index !995
  call void @_ZN2SSC2EOS_(%struct.SS* nonnull align 8 dereferenceable(44) %10, %struct.SS* nonnull align 8 dereferenceable(44) %27) #2, !llfi_index !996
  %28 = load %"class.std::ios_base::Init"*, %"class.std::ios_base::Init"** %8, align 8, !llfi_index !997
  invoke void @_ZSt13__adjust_heapIP2SSlS0_N9__gnu_cxx5__ops15_Iter_less_iterEEvT_T0_S6_T1_T2_(%struct.SS* %20, i64 0, i64 %26, %struct.SS* %10)
          to label %29 unwind label %30, !llfi_index !998

29:                                               ; preds = %4
  call void @_ZN2SSD2Ev(%struct.SS* nonnull align 8 dereferenceable(44) %10) #2, !llfi_index !999
  call void @_ZN2SSD2Ev(%struct.SS* nonnull align 8 dereferenceable(44) %9) #2, !llfi_index !1000
  ret void, !llfi_index !1001

30:                                               ; preds = %4
  %31 = landingpad { i8*, i32 }
          cleanup, !llfi_index !1002
  %32 = extractvalue { i8*, i32 } %31, 0, !llfi_index !1003
  store i8* %32, i8** %12, align 8, !llfi_index !1004
  %33 = extractvalue { i8*, i32 } %31, 1, !llfi_index !1005
  store i32 %33, i32* %13, align 4, !llfi_index !1006
  call void @_ZN2SSD2Ev(%struct.SS* nonnull align 8 dereferenceable(44) %10) #2, !llfi_index !1007
  call void @_ZN2SSD2Ev(%struct.SS* nonnull align 8 dereferenceable(44) %9) #2, !llfi_index !1008
  br label %34, !llfi_index !1009

34:                                               ; preds = %30
  %35 = load i8*, i8** %12, align 8, !llfi_index !1010
  %36 = load i32, i32* %13, align 4, !llfi_index !1011
  %37 = insertvalue { i8*, i32 } undef, i8* %35, 0, !llfi_index !1012
  %38 = insertvalue { i8*, i32 } %37, i32 %36, 1, !llfi_index !1013
  resume { i8*, i32 } %38, !llfi_index !1014
}

; Function Attrs: mustprogress noinline uwtable
define linkonce_odr dso_local void @_ZSt13__adjust_heapIP2SSlS0_N9__gnu_cxx5__ops15_Iter_less_iterEEvT_T0_S6_T1_T2_(%struct.SS* %0, i64 %1, i64 %2, %struct.SS* %3) #7 comdat personality i8* bitcast (i32 (...)* @__gxx_personality_v0 to i8*) {
  %5 = alloca %"class.std::ios_base::Init", align 1, !llfi_index !1015
  %6 = alloca %struct.SS*, align 8, !llfi_index !1016
  %7 = alloca i64, align 8, !llfi_index !1017
  %8 = alloca i64, align 8, !llfi_index !1018
  %9 = alloca i64, align 8, !llfi_index !1019
  %10 = alloca i64, align 8, !llfi_index !1020
  %11 = alloca %"class.std::ios_base::Init", align 1, !llfi_index !1021
  %12 = alloca %"class.std::ios_base::Init", align 1, !llfi_index !1022
  %13 = alloca %struct.SS, align 8, !llfi_index !1023
  %14 = alloca i8*, align 8, !llfi_index !1024
  %15 = alloca i32, align 4, !llfi_index !1025
  store %struct.SS* %0, %struct.SS** %6, align 8, !llfi_index !1026
  store i64 %1, i64* %7, align 8, !llfi_index !1027
  store i64 %2, i64* %8, align 8, !llfi_index !1028
  %16 = load i64, i64* %7, align 8, !llfi_index !1029
  store i64 %16, i64* %9, align 8, !llfi_index !1030
  %17 = load i64, i64* %7, align 8, !llfi_index !1031
  store i64 %17, i64* %10, align 8, !llfi_index !1032
  br label %18, !llfi_index !1033

18:                                               ; preds = %39, %4
  %19 = load i64, i64* %10, align 8, !llfi_index !1034
  %20 = load i64, i64* %8, align 8, !llfi_index !1035
  %21 = sub nsw i64 %20, 1, !llfi_index !1036
  %22 = sdiv i64 %21, 2, !llfi_index !1037
  %23 = icmp slt i64 %19, %22, !llfi_index !1038
  br i1 %23, label %24, label %49, !llfi_index !1039

24:                                               ; preds = %18
  %25 = load i64, i64* %10, align 8, !llfi_index !1040
  %26 = add nsw i64 %25, 1, !llfi_index !1041
  %27 = mul nsw i64 2, %26, !llfi_index !1042
  store i64 %27, i64* %10, align 8, !llfi_index !1043
  %28 = load %struct.SS*, %struct.SS** %6, align 8, !llfi_index !1044
  %29 = load i64, i64* %10, align 8, !llfi_index !1045
  %30 = getelementptr inbounds %struct.SS, %struct.SS* %28, i64 %29, !llfi_index !1046
  %31 = load %struct.SS*, %struct.SS** %6, align 8, !llfi_index !1047
  %32 = load i64, i64* %10, align 8, !llfi_index !1048
  %33 = sub nsw i64 %32, 1, !llfi_index !1049
  %34 = getelementptr inbounds %struct.SS, %struct.SS* %31, i64 %33, !llfi_index !1050
  %35 = call zeroext i1 @_ZNK9__gnu_cxx5__ops15_Iter_less_iterclIP2SSS4_EEbT_T0_(%"class.std::ios_base::Init"* nonnull align 1 dereferenceable(1) %5, %struct.SS* %30, %struct.SS* %34), !llfi_index !1051
  br i1 %35, label %36, label %39, !llfi_index !1052

36:                                               ; preds = %24
  %37 = load i64, i64* %10, align 8, !llfi_index !1053
  %38 = add nsw i64 %37, -1, !llfi_index !1054
  store i64 %38, i64* %10, align 8, !llfi_index !1055
  br label %39, !llfi_index !1056

39:                                               ; preds = %36, %24
  %40 = load %struct.SS*, %struct.SS** %6, align 8, !llfi_index !1057
  %41 = load i64, i64* %10, align 8, !llfi_index !1058
  %42 = getelementptr inbounds %struct.SS, %struct.SS* %40, i64 %41, !llfi_index !1059
  %43 = call nonnull align 8 dereferenceable(44) %struct.SS* @_ZSt4moveIR2SSEONSt16remove_referenceIT_E4typeEOS3_(%struct.SS* nonnull align 8 dereferenceable(44) %42) #2, !llfi_index !1060
  %44 = load %struct.SS*, %struct.SS** %6, align 8, !llfi_index !1061
  %45 = load i64, i64* %7, align 8, !llfi_index !1062
  %46 = getelementptr inbounds %struct.SS, %struct.SS* %44, i64 %45, !llfi_index !1063
  %47 = call nonnull align 8 dereferenceable(44) %struct.SS* @_ZN2SSaSEOS_(%struct.SS* nonnull align 8 dereferenceable(44) %46, %struct.SS* nonnull align 8 dereferenceable(44) %43) #2, !llfi_index !1064
  %48 = load i64, i64* %10, align 8, !llfi_index !1065
  store i64 %48, i64* %7, align 8, !llfi_index !1066
  br label %18, !llvm.loop !1067, !llfi_index !1068

49:                                               ; preds = %18
  %50 = load i64, i64* %8, align 8, !llfi_index !1069
  %51 = and i64 %50, 1, !llfi_index !1070
  %52 = icmp eq i64 %51, 0, !llfi_index !1071
  br i1 %52, label %53, label %74, !llfi_index !1072

53:                                               ; preds = %49
  %54 = load i64, i64* %10, align 8, !llfi_index !1073
  %55 = load i64, i64* %8, align 8, !llfi_index !1074
  %56 = sub nsw i64 %55, 2, !llfi_index !1075
  %57 = sdiv i64 %56, 2, !llfi_index !1076
  %58 = icmp eq i64 %54, %57, !llfi_index !1077
  br i1 %58, label %59, label %74, !llfi_index !1078

59:                                               ; preds = %53
  %60 = load i64, i64* %10, align 8, !llfi_index !1079
  %61 = add nsw i64 %60, 1, !llfi_index !1080
  %62 = mul nsw i64 2, %61, !llfi_index !1081
  store i64 %62, i64* %10, align 8, !llfi_index !1082
  %63 = load %struct.SS*, %struct.SS** %6, align 8, !llfi_index !1083
  %64 = load i64, i64* %10, align 8, !llfi_index !1084
  %65 = sub nsw i64 %64, 1, !llfi_index !1085
  %66 = getelementptr inbounds %struct.SS, %struct.SS* %63, i64 %65, !llfi_index !1086
  %67 = call nonnull align 8 dereferenceable(44) %struct.SS* @_ZSt4moveIR2SSEONSt16remove_referenceIT_E4typeEOS3_(%struct.SS* nonnull align 8 dereferenceable(44) %66) #2, !llfi_index !1087
  %68 = load %struct.SS*, %struct.SS** %6, align 8, !llfi_index !1088
  %69 = load i64, i64* %7, align 8, !llfi_index !1089
  %70 = getelementptr inbounds %struct.SS, %struct.SS* %68, i64 %69, !llfi_index !1090
  %71 = call nonnull align 8 dereferenceable(44) %struct.SS* @_ZN2SSaSEOS_(%struct.SS* nonnull align 8 dereferenceable(44) %70, %struct.SS* nonnull align 8 dereferenceable(44) %67) #2, !llfi_index !1091
  %72 = load i64, i64* %10, align 8, !llfi_index !1092
  %73 = sub nsw i64 %72, 1, !llfi_index !1093
  store i64 %73, i64* %7, align 8, !llfi_index !1094
  br label %74, !llfi_index !1095

74:                                               ; preds = %59, %53, %49
  %75 = call nonnull align 1 dereferenceable(1) %"class.std::ios_base::Init"* @_ZSt4moveIRN9__gnu_cxx5__ops15_Iter_less_iterEEONSt16remove_referenceIT_E4typeEOS5_(%"class.std::ios_base::Init"* nonnull align 1 dereferenceable(1) %5) #2, !llfi_index !1096
  call void @_ZN9__gnu_cxx5__ops14_Iter_less_valC2ENS0_15_Iter_less_iterE(%"class.std::ios_base::Init"* nonnull align 1 dereferenceable(1) %11), !llfi_index !1097
  %76 = load %struct.SS*, %struct.SS** %6, align 8, !llfi_index !1098
  %77 = load i64, i64* %7, align 8, !llfi_index !1099
  %78 = load i64, i64* %9, align 8, !llfi_index !1100
  %79 = call nonnull align 8 dereferenceable(44) %struct.SS* @_ZSt4moveIR2SSEONSt16remove_referenceIT_E4typeEOS3_(%struct.SS* nonnull align 8 dereferenceable(44) %3) #2, !llfi_index !1101
  call void @_ZN2SSC2EOS_(%struct.SS* nonnull align 8 dereferenceable(44) %13, %struct.SS* nonnull align 8 dereferenceable(44) %79) #2, !llfi_index !1102
  invoke void @_ZSt11__push_heapIP2SSlS0_N9__gnu_cxx5__ops14_Iter_less_valEEvT_T0_S6_T1_RT2_(%struct.SS* %76, i64 %77, i64 %78, %struct.SS* %13, %"class.std::ios_base::Init"* nonnull align 1 dereferenceable(1) %11)
          to label %80 unwind label %81, !llfi_index !1103

80:                                               ; preds = %74
  call void @_ZN2SSD2Ev(%struct.SS* nonnull align 8 dereferenceable(44) %13) #2, !llfi_index !1104
  ret void, !llfi_index !1105

81:                                               ; preds = %74
  %82 = landingpad { i8*, i32 }
          cleanup, !llfi_index !1106
  %83 = extractvalue { i8*, i32 } %82, 0, !llfi_index !1107
  store i8* %83, i8** %14, align 8, !llfi_index !1108
  %84 = extractvalue { i8*, i32 } %82, 1, !llfi_index !1109
  store i32 %84, i32* %15, align 4, !llfi_index !1110
  call void @_ZN2SSD2Ev(%struct.SS* nonnull align 8 dereferenceable(44) %13) #2, !llfi_index !1111
  br label %85, !llfi_index !1112

85:                                               ; preds = %81
  %86 = load i8*, i8** %14, align 8, !llfi_index !1113
  %87 = load i32, i32* %15, align 4, !llfi_index !1114
  %88 = insertvalue { i8*, i32 } undef, i8* %86, 0, !llfi_index !1115
  %89 = insertvalue { i8*, i32 } %88, i32 %87, 1, !llfi_index !1116
  resume { i8*, i32 } %89, !llfi_index !1117
}

; Function Attrs: mustprogress noinline nounwind uwtable
define linkonce_odr dso_local nonnull align 1 dereferenceable(1) %"class.std::ios_base::Init"* @_ZSt4moveIRN9__gnu_cxx5__ops15_Iter_less_iterEEONSt16remove_referenceIT_E4typeEOS5_(%"class.std::ios_base::Init"* nonnull align 1 dereferenceable(1) %0) #5 comdat {
  %2 = alloca %"class.std::ios_base::Init"*, align 8, !llfi_index !1118
  store %"class.std::ios_base::Init"* %0, %"class.std::ios_base::Init"** %2, align 8, !llfi_index !1119
  %3 = load %"class.std::ios_base::Init"*, %"class.std::ios_base::Init"** %2, align 8, !llfi_index !1120
  ret %"class.std::ios_base::Init"* %3, !llfi_index !1121
}

; Function Attrs: noinline nounwind uwtable
define linkonce_odr dso_local void @_ZN9__gnu_cxx5__ops14_Iter_less_valC2ENS0_15_Iter_less_iterE(%"class.std::ios_base::Init"* nonnull align 1 dereferenceable(1) %0) unnamed_addr #1 comdat align 2 {
  %2 = alloca %"class.std::ios_base::Init", align 1, !llfi_index !1122
  %3 = alloca %"class.std::ios_base::Init"*, align 8, !llfi_index !1123
  store %"class.std::ios_base::Init"* %0, %"class.std::ios_base::Init"** %3, align 8, !llfi_index !1124
  %4 = load %"class.std::ios_base::Init"*, %"class.std::ios_base::Init"** %3, align 8, !llfi_index !1125
  ret void, !llfi_index !1126
}

; Function Attrs: mustprogress noinline uwtable
define linkonce_odr dso_local void @_ZSt11__push_heapIP2SSlS0_N9__gnu_cxx5__ops14_Iter_less_valEEvT_T0_S6_T1_RT2_(%struct.SS* %0, i64 %1, i64 %2, %struct.SS* %3, %"class.std::ios_base::Init"* nonnull align 1 dereferenceable(1) %4) #7 comdat {
  %6 = alloca %struct.SS*, align 8, !llfi_index !1127
  %7 = alloca i64, align 8, !llfi_index !1128
  %8 = alloca i64, align 8, !llfi_index !1129
  %9 = alloca %"class.std::ios_base::Init"*, align 8, !llfi_index !1130
  %10 = alloca i64, align 8, !llfi_index !1131
  store %struct.SS* %0, %struct.SS** %6, align 8, !llfi_index !1132
  store i64 %1, i64* %7, align 8, !llfi_index !1133
  store i64 %2, i64* %8, align 8, !llfi_index !1134
  store %"class.std::ios_base::Init"* %4, %"class.std::ios_base::Init"** %9, align 8, !llfi_index !1135
  %11 = load i64, i64* %7, align 8, !llfi_index !1136
  %12 = sub nsw i64 %11, 1, !llfi_index !1137
  %13 = sdiv i64 %12, 2, !llfi_index !1138
  store i64 %13, i64* %10, align 8, !llfi_index !1139
  br label %14, !llfi_index !1140

14:                                               ; preds = %26, %5
  %15 = load i64, i64* %7, align 8, !llfi_index !1141
  %16 = load i64, i64* %8, align 8, !llfi_index !1142
  %17 = icmp sgt i64 %15, %16, !llfi_index !1143
  br i1 %17, label %18, label %24, !llfi_index !1144

18:                                               ; preds = %14
  %19 = load %"class.std::ios_base::Init"*, %"class.std::ios_base::Init"** %9, align 8, !llfi_index !1145
  %20 = load %struct.SS*, %struct.SS** %6, align 8, !llfi_index !1146
  %21 = load i64, i64* %10, align 8, !llfi_index !1147
  %22 = getelementptr inbounds %struct.SS, %struct.SS* %20, i64 %21, !llfi_index !1148
  %23 = call zeroext i1 @_ZNK9__gnu_cxx5__ops14_Iter_less_valclIP2SSS3_EEbT_RT0_(%"class.std::ios_base::Init"* nonnull align 1 dereferenceable(1) %19, %struct.SS* %22, %struct.SS* nonnull align 8 dereferenceable(44) %3), !llfi_index !1149
  br label %24, !llfi_index !1150

24:                                               ; preds = %18, %14
  %25 = phi i1 [ false, %14 ], [ %23, %18 ], !llfi_index !1151
  br i1 %25, label %26, label %39, !llfi_index !1152

26:                                               ; preds = %24
  %27 = load %struct.SS*, %struct.SS** %6, align 8, !llfi_index !1153
  %28 = load i64, i64* %10, align 8, !llfi_index !1154
  %29 = getelementptr inbounds %struct.SS, %struct.SS* %27, i64 %28, !llfi_index !1155
  %30 = call nonnull align 8 dereferenceable(44) %struct.SS* @_ZSt4moveIR2SSEONSt16remove_referenceIT_E4typeEOS3_(%struct.SS* nonnull align 8 dereferenceable(44) %29) #2, !llfi_index !1156
  %31 = load %struct.SS*, %struct.SS** %6, align 8, !llfi_index !1157
  %32 = load i64, i64* %7, align 8, !llfi_index !1158
  %33 = getelementptr inbounds %struct.SS, %struct.SS* %31, i64 %32, !llfi_index !1159
  %34 = call nonnull align 8 dereferenceable(44) %struct.SS* @_ZN2SSaSEOS_(%struct.SS* nonnull align 8 dereferenceable(44) %33, %struct.SS* nonnull align 8 dereferenceable(44) %30) #2, !llfi_index !1160
  %35 = load i64, i64* %10, align 8, !llfi_index !1161
  store i64 %35, i64* %7, align 8, !llfi_index !1162
  %36 = load i64, i64* %7, align 8, !llfi_index !1163
  %37 = sub nsw i64 %36, 1, !llfi_index !1164
  %38 = sdiv i64 %37, 2, !llfi_index !1165
  store i64 %38, i64* %10, align 8, !llfi_index !1166
  br label %14, !llvm.loop !1167, !llfi_index !1168

39:                                               ; preds = %24
  %40 = call nonnull align 8 dereferenceable(44) %struct.SS* @_ZSt4moveIR2SSEONSt16remove_referenceIT_E4typeEOS3_(%struct.SS* nonnull align 8 dereferenceable(44) %3) #2, !llfi_index !1169
  %41 = load %struct.SS*, %struct.SS** %6, align 8, !llfi_index !1170
  %42 = load i64, i64* %7, align 8, !llfi_index !1171
  %43 = getelementptr inbounds %struct.SS, %struct.SS* %41, i64 %42, !llfi_index !1172
  %44 = call nonnull align 8 dereferenceable(44) %struct.SS* @_ZN2SSaSEOS_(%struct.SS* nonnull align 8 dereferenceable(44) %43, %struct.SS* nonnull align 8 dereferenceable(44) %40) #2, !llfi_index !1173
  ret void, !llfi_index !1174
}

; Function Attrs: mustprogress noinline uwtable
define linkonce_odr dso_local zeroext i1 @_ZNK9__gnu_cxx5__ops14_Iter_less_valclIP2SSS3_EEbT_RT0_(%"class.std::ios_base::Init"* nonnull align 1 dereferenceable(1) %0, %struct.SS* %1, %struct.SS* nonnull align 8 dereferenceable(44) %2) #7 comdat align 2 {
  %4 = alloca %"class.std::ios_base::Init"*, align 8, !llfi_index !1175
  %5 = alloca %struct.SS*, align 8, !llfi_index !1176
  %6 = alloca %struct.SS*, align 8, !llfi_index !1177
  store %"class.std::ios_base::Init"* %0, %"class.std::ios_base::Init"** %4, align 8, !llfi_index !1178
  store %struct.SS* %1, %struct.SS** %5, align 8, !llfi_index !1179
  store %struct.SS* %2, %struct.SS** %6, align 8, !llfi_index !1180
  %7 = load %"class.std::ios_base::Init"*, %"class.std::ios_base::Init"** %4, align 8, !llfi_index !1181
  %8 = load %struct.SS*, %struct.SS** %5, align 8, !llfi_index !1182
  %9 = load %struct.SS*, %struct.SS** %6, align 8, !llfi_index !1183
  %10 = call zeroext i1 @_ZNK2SSltERKS_(%struct.SS* nonnull align 8 dereferenceable(44) %8, %struct.SS* nonnull align 8 dereferenceable(44) %9), !llfi_index !1184
  ret i1 %10, !llfi_index !1185
}

; Function Attrs: mustprogress noinline uwtable
define linkonce_odr dso_local void @_ZSt11__make_heapIP2SSN9__gnu_cxx5__ops15_Iter_less_iterEEvT_S5_RT0_(%struct.SS* %0, %struct.SS* %1, %"class.std::ios_base::Init"* nonnull align 1 dereferenceable(1) %2) #7 comdat personality i8* bitcast (i32 (...)* @__gxx_personality_v0 to i8*) {
  %4 = alloca %struct.SS*, align 8, !llfi_index !1186
  %5 = alloca %struct.SS*, align 8, !llfi_index !1187
  %6 = alloca %"class.std::ios_base::Init"*, align 8, !llfi_index !1188
  %7 = alloca i64, align 8, !llfi_index !1189
  %8 = alloca i64, align 8, !llfi_index !1190
  %9 = alloca %struct.SS, align 8, !llfi_index !1191
  %10 = alloca %struct.SS, align 8, !llfi_index !1192
  %11 = alloca %"class.std::ios_base::Init", align 1, !llfi_index !1193
  %12 = alloca i8*, align 8, !llfi_index !1194
  %13 = alloca i32, align 4, !llfi_index !1195
  %14 = alloca i32, align 4, !llfi_index !1196
  store %struct.SS* %0, %struct.SS** %4, align 8, !llfi_index !1197
  store %struct.SS* %1, %struct.SS** %5, align 8, !llfi_index !1198
  store %"class.std::ios_base::Init"* %2, %"class.std::ios_base::Init"** %6, align 8, !llfi_index !1199
  %15 = load %struct.SS*, %struct.SS** %5, align 8, !llfi_index !1200
  %16 = load %struct.SS*, %struct.SS** %4, align 8, !llfi_index !1201
  %17 = ptrtoint %struct.SS* %15 to i64, !llfi_index !1202
  %18 = ptrtoint %struct.SS* %16 to i64, !llfi_index !1203
  %19 = sub i64 %17, %18, !llfi_index !1204
  %20 = sdiv exact i64 %19, 48, !llfi_index !1205
  %21 = icmp slt i64 %20, 2, !llfi_index !1206
  br i1 %21, label %22, label %23, !llfi_index !1207

22:                                               ; preds = %3
  br label %57, !llfi_index !1208

23:                                               ; preds = %3
  %24 = load %struct.SS*, %struct.SS** %5, align 8, !llfi_index !1209
  %25 = load %struct.SS*, %struct.SS** %4, align 8, !llfi_index !1210
  %26 = ptrtoint %struct.SS* %24 to i64, !llfi_index !1211
  %27 = ptrtoint %struct.SS* %25 to i64, !llfi_index !1212
  %28 = sub i64 %26, %27, !llfi_index !1213
  %29 = sdiv exact i64 %28, 48, !llfi_index !1214
  store i64 %29, i64* %7, align 8, !llfi_index !1215
  %30 = load i64, i64* %7, align 8, !llfi_index !1216
  %31 = sub nsw i64 %30, 2, !llfi_index !1217
  %32 = sdiv i64 %31, 2, !llfi_index !1218
  store i64 %32, i64* %8, align 8, !llfi_index !1219
  br label %33, !llfi_index !1220

33:                                               ; preds = %56, %23
  %34 = load %struct.SS*, %struct.SS** %4, align 8, !llfi_index !1221
  %35 = load i64, i64* %8, align 8, !llfi_index !1222
  %36 = getelementptr inbounds %struct.SS, %struct.SS* %34, i64 %35, !llfi_index !1223
  %37 = call nonnull align 8 dereferenceable(44) %struct.SS* @_ZSt4moveIR2SSEONSt16remove_referenceIT_E4typeEOS3_(%struct.SS* nonnull align 8 dereferenceable(44) %36) #2, !llfi_index !1224
  call void @_ZN2SSC2EOS_(%struct.SS* nonnull align 8 dereferenceable(44) %9, %struct.SS* nonnull align 8 dereferenceable(44) %37) #2, !llfi_index !1225
  %38 = load %struct.SS*, %struct.SS** %4, align 8, !llfi_index !1226
  %39 = load i64, i64* %8, align 8, !llfi_index !1227
  %40 = load i64, i64* %7, align 8, !llfi_index !1228
  %41 = call nonnull align 8 dereferenceable(44) %struct.SS* @_ZSt4moveIR2SSEONSt16remove_referenceIT_E4typeEOS3_(%struct.SS* nonnull align 8 dereferenceable(44) %9) #2, !llfi_index !1229
  call void @_ZN2SSC2EOS_(%struct.SS* nonnull align 8 dereferenceable(44) %10, %struct.SS* nonnull align 8 dereferenceable(44) %41) #2, !llfi_index !1230
  %42 = load %"class.std::ios_base::Init"*, %"class.std::ios_base::Init"** %6, align 8, !llfi_index !1231
  invoke void @_ZSt13__adjust_heapIP2SSlS0_N9__gnu_cxx5__ops15_Iter_less_iterEEvT_T0_S6_T1_T2_(%struct.SS* %38, i64 %39, i64 %40, %struct.SS* %10)
          to label %43 unwind label %47, !llfi_index !1232

43:                                               ; preds = %33
  call void @_ZN2SSD2Ev(%struct.SS* nonnull align 8 dereferenceable(44) %10) #2, !llfi_index !1233
  %44 = load i64, i64* %8, align 8, !llfi_index !1234
  %45 = icmp eq i64 %44, 0, !llfi_index !1235
  br i1 %45, label %46, label %51, !llfi_index !1236

46:                                               ; preds = %43
  store i32 1, i32* %14, align 4, !llfi_index !1237
  br label %54, !llfi_index !1238

47:                                               ; preds = %33
  %48 = landingpad { i8*, i32 }
          cleanup, !llfi_index !1239
  %49 = extractvalue { i8*, i32 } %48, 0, !llfi_index !1240
  store i8* %49, i8** %12, align 8, !llfi_index !1241
  %50 = extractvalue { i8*, i32 } %48, 1, !llfi_index !1242
  store i32 %50, i32* %13, align 4, !llfi_index !1243
  call void @_ZN2SSD2Ev(%struct.SS* nonnull align 8 dereferenceable(44) %10) #2, !llfi_index !1244
  call void @_ZN2SSD2Ev(%struct.SS* nonnull align 8 dereferenceable(44) %9) #2, !llfi_index !1245
  br label %58, !llfi_index !1246

51:                                               ; preds = %43
  %52 = load i64, i64* %8, align 8, !llfi_index !1247
  %53 = add nsw i64 %52, -1, !llfi_index !1248
  store i64 %53, i64* %8, align 8, !llfi_index !1249
  store i32 0, i32* %14, align 4, !llfi_index !1250
  br label %54, !llfi_index !1251

54:                                               ; preds = %51, %46
  call void @_ZN2SSD2Ev(%struct.SS* nonnull align 8 dereferenceable(44) %9) #2, !llfi_index !1252
  %55 = load i32, i32* %14, align 4, !llfi_index !1253
  switch i32 %55, label %63 [
    i32 0, label %56
    i32 1, label %57
  ], !llfi_index !1254

56:                                               ; preds = %54
  br label %33, !llvm.loop !1255, !llfi_index !1256

57:                                               ; preds = %54, %22
  ret void, !llfi_index !1257

58:                                               ; preds = %47
  %59 = load i8*, i8** %12, align 8, !llfi_index !1258
  %60 = load i32, i32* %13, align 4, !llfi_index !1259
  %61 = insertvalue { i8*, i32 } undef, i8* %59, 0, !llfi_index !1260
  %62 = insertvalue { i8*, i32 } %61, i32 %60, 1, !llfi_index !1261
  resume { i8*, i32 } %62, !llfi_index !1262

63:                                               ; preds = %54
  unreachable, !llfi_index !1263
}

; Function Attrs: nofree nosync nounwind readnone speculatable willreturn
declare i64 @llvm.ctlz.i64(i64, i1 immarg) #9

attributes #0 = { noinline uwtable "frame-pointer"="all" "min-legal-vector-width"="0" "no-trapping-math"="true" "stack-protector-buffer-size"="8" "target-cpu"="x86-64" "target-features"="+cx8,+fxsr,+mmx,+sse,+sse2,+x87" "tune-cpu"="generic" }
attributes #1 = { noinline nounwind uwtable "frame-pointer"="all" "min-legal-vector-width"="0" "no-trapping-math"="true" "stack-protector-buffer-size"="8" "target-cpu"="x86-64" "target-features"="+cx8,+fxsr,+mmx,+sse,+sse2,+x87" "tune-cpu"="generic" }
attributes #2 = { nounwind }
attributes #3 = { nounwind "frame-pointer"="all" "no-trapping-math"="true" "stack-protector-buffer-size"="8" "target-cpu"="x86-64" "target-features"="+cx8,+fxsr,+mmx,+sse,+sse2,+x87" "tune-cpu"="generic" }
attributes #4 = { "frame-pointer"="all" "no-trapping-math"="true" "stack-protector-buffer-size"="8" "target-cpu"="x86-64" "target-features"="+cx8,+fxsr,+mmx,+sse,+sse2,+x87" "tune-cpu"="generic" }
attributes #5 = { mustprogress noinline nounwind uwtable "frame-pointer"="all" "min-legal-vector-width"="0" "no-trapping-math"="true" "stack-protector-buffer-size"="8" "target-cpu"="x86-64" "target-features"="+cx8,+fxsr,+mmx,+sse,+sse2,+x87" "tune-cpu"="generic" }
attributes #6 = { mustprogress noinline norecurse uwtable "frame-pointer"="all" "min-legal-vector-width"="0" "no-trapping-math"="true" "stack-protector-buffer-size"="8" "target-cpu"="x86-64" "target-features"="+cx8,+fxsr,+mmx,+sse,+sse2,+x87" "tune-cpu"="generic" }
attributes #7 = { mustprogress noinline uwtable "frame-pointer"="all" "min-legal-vector-width"="0" "no-trapping-math"="true" "stack-protector-buffer-size"="8" "target-cpu"="x86-64" "target-features"="+cx8,+fxsr,+mmx,+sse,+sse2,+x87" "tune-cpu"="generic" }
attributes #8 = { argmemonly nofree nounwind willreturn }
attributes #9 = { nofree nosync nounwind readnone speculatable willreturn }

!llvm.ident = !{!0}
!llvm.module.flags = !{!1, !2, !3}

!0 = !{!"clang version 13.0.0 (https://github.com/llvm/llvm-project.git d7b669b3a30345cfcdb2fde2af6f48aa4b94845d)"}
!1 = !{i32 1, !"wchar_size", i32 4}
!2 = !{i32 7, !"uwtable", i32 1}
!3 = !{i32 7, !"frame-pointer", i32 2}
!4 = !{i64 1}
!5 = !{i64 2}
!6 = !{i64 3}
!7 = !{i64 4}
!8 = !{i64 5}
!9 = !{i64 6}
!10 = !{i64 7}
!11 = !{i64 8}
!12 = !{i64 9}
!13 = !{i64 10}
!14 = !{i64 11}
!15 = !{i64 12}
!16 = !{i64 13}
!17 = !{i64 14}
!18 = !{i64 15}
!19 = !{i64 16}
!20 = !{i64 17}
!21 = !{i64 18}
!22 = !{i64 19}
!23 = !{i64 20}
!24 = !{i64 21}
!25 = !{i64 22}
!26 = !{i64 23}
!27 = !{i64 24}
!28 = !{i64 25}
!29 = !{i64 26}
!30 = !{i64 27}
!31 = !{i64 28}
!32 = !{i64 29}
!33 = !{i64 30}
!34 = !{i64 31}
!35 = !{i64 32}
!36 = !{i64 33}
!37 = !{i64 34}
!38 = !{i64 35}
!39 = !{i64 36}
!40 = !{i64 37}
!41 = !{i64 38}
!42 = !{i64 39}
!43 = !{i64 40}
!44 = !{i64 41}
!45 = !{i64 42}
!46 = !{i64 43}
!47 = !{i64 44}
!48 = !{i64 45}
!49 = !{i64 46}
!50 = !{i64 47}
!51 = !{i64 48}
!52 = !{i64 49}
!53 = !{i64 50}
!54 = !{i64 51}
!55 = !{i64 52}
!56 = !{i64 53}
!57 = !{i64 54}
!58 = !{i64 55}
!59 = !{i64 56}
!60 = !{i64 57}
!61 = !{i64 58}
!62 = !{i64 59}
!63 = !{i64 60}
!64 = !{i64 61}
!65 = !{i64 62}
!66 = !{i64 63}
!67 = !{i64 64}
!68 = !{i64 65}
!69 = distinct !{!69, !70}
!70 = !{!"llvm.loop.mustprogress"}
!71 = !{i64 66}
!72 = !{i64 67}
!73 = !{i64 68}
!74 = !{i64 69}
!75 = !{i64 70}
!76 = !{i64 71}
!77 = !{i64 72}
!78 = !{i64 73}
!79 = !{i64 74}
!80 = !{i64 75}
!81 = !{i64 76}
!82 = !{i64 77}
!83 = !{i64 78}
!84 = !{i64 79}
!85 = !{i64 80}
!86 = !{i64 81}
!87 = !{i64 82}
!88 = !{i64 83}
!89 = !{i64 84}
!90 = !{i64 85}
!91 = !{i64 86}
!92 = !{i64 87}
!93 = !{i64 88}
!94 = !{i64 89}
!95 = !{i64 90}
!96 = distinct !{!96, !70}
!97 = !{i64 91}
!98 = !{i64 92}
!99 = !{i64 93}
!100 = !{i64 94}
!101 = !{i64 95}
!102 = !{i64 96}
!103 = !{i64 97}
!104 = !{i64 98}
!105 = !{i64 99}
!106 = !{i64 100}
!107 = !{i64 101}
!108 = !{i64 102}
!109 = !{i64 103}
!110 = !{i64 104}
!111 = !{i64 105}
!112 = !{i64 106}
!113 = !{i64 107}
!114 = !{i64 108}
!115 = !{i64 109}
!116 = !{i64 110}
!117 = !{i64 111}
!118 = distinct !{!118, !70}
!119 = !{i64 112}
!120 = !{i64 113}
!121 = !{i64 114}
!122 = !{i64 115}
!123 = !{i64 116}
!124 = !{i64 117}
!125 = !{i64 118}
!126 = !{i64 119}
!127 = !{i64 120}
!128 = !{i64 121}
!129 = !{i64 122}
!130 = !{i64 123}
!131 = !{i64 124}
!132 = !{i64 125}
!133 = !{i64 126}
!134 = !{i64 127}
!135 = !{i64 128}
!136 = !{i64 129}
!137 = !{i64 130}
!138 = !{i64 131}
!139 = !{i64 132}
!140 = !{i64 133}
!141 = !{i64 134}
!142 = !{i64 135}
!143 = !{i64 136}
!144 = !{i64 137}
!145 = !{i64 138}
!146 = !{i64 139}
!147 = !{i64 140}
!148 = !{i64 141}
!149 = !{i64 142}
!150 = !{i64 143}
!151 = !{i64 144}
!152 = !{i64 145}
!153 = !{i64 146}
!154 = !{i64 147}
!155 = !{i64 148}
!156 = !{i64 149}
!157 = !{i64 150}
!158 = !{i64 151}
!159 = !{i64 152}
!160 = !{i64 153}
!161 = !{i64 154}
!162 = !{i64 155}
!163 = distinct !{!163, !70}
!164 = !{i64 156}
!165 = !{i64 157}
!166 = !{i64 158}
!167 = !{i64 159}
!168 = !{i64 160}
!169 = !{i64 161}
!170 = !{i64 162}
!171 = !{i64 163}
!172 = !{i64 164}
!173 = !{i64 165}
!174 = !{i64 166}
!175 = !{i64 167}
!176 = !{i64 168}
!177 = !{i64 169}
!178 = !{i64 170}
!179 = !{i64 171}
!180 = !{i64 172}
!181 = !{i64 173}
!182 = !{i64 174}
!183 = !{i64 175}
!184 = !{i64 176}
!185 = !{i64 177}
!186 = !{i64 178}
!187 = !{i64 179}
!188 = !{i64 180}
!189 = !{i64 181}
!190 = !{i64 182}
!191 = !{i64 183}
!192 = !{i64 184}
!193 = !{i64 185}
!194 = !{i64 186}
!195 = !{i64 187}
!196 = !{i64 188}
!197 = !{i64 189}
!198 = !{i64 190}
!199 = !{i64 191}
!200 = !{i64 192}
!201 = !{i64 193}
!202 = !{i64 194}
!203 = !{i64 195}
!204 = !{i64 196}
!205 = !{i64 197}
!206 = distinct !{!206, !70}
!207 = !{i64 198}
!208 = !{i64 199}
!209 = !{i64 200}
!210 = !{i64 201}
!211 = !{i64 202}
!212 = !{i64 203}
!213 = !{i64 204}
!214 = !{i64 205}
!215 = !{i64 206}
!216 = !{i64 207}
!217 = !{i64 208}
!218 = !{i64 209}
!219 = !{i64 210}
!220 = !{i64 211}
!221 = !{i64 212}
!222 = !{i64 213}
!223 = !{i64 214}
!224 = !{i64 215}
!225 = !{i64 216}
!226 = !{i64 217}
!227 = !{i64 218}
!228 = !{i64 219}
!229 = !{i64 220}
!230 = !{i64 221}
!231 = !{i64 222}
!232 = !{i64 223}
!233 = !{i64 224}
!234 = !{i64 225}
!235 = !{i64 226}
!236 = !{i64 227}
!237 = !{i64 228}
!238 = !{i64 229}
!239 = !{i64 230}
!240 = !{i64 231}
!241 = !{i64 232}
!242 = !{i64 233}
!243 = !{i64 234}
!244 = !{i64 235}
!245 = !{i64 236}
!246 = !{i64 237}
!247 = !{i64 238}
!248 = !{i64 239}
!249 = !{i64 240}
!250 = !{i64 241}
!251 = !{i64 242}
!252 = !{i64 243}
!253 = !{i64 244}
!254 = !{i64 245}
!255 = !{i64 246}
!256 = !{i64 247}
!257 = distinct !{!257, !70}
!258 = !{i64 248}
!259 = !{i64 249}
!260 = !{i64 250}
!261 = !{i64 251}
!262 = !{i64 252}
!263 = !{i64 253}
!264 = !{i64 254}
!265 = !{i64 255}
!266 = !{i64 256}
!267 = !{i64 257}
!268 = !{i64 258}
!269 = !{i64 259}
!270 = !{i64 260}
!271 = !{i64 261}
!272 = !{i64 262}
!273 = !{i64 263}
!274 = !{i64 264}
!275 = !{i64 265}
!276 = distinct !{!276, !70}
!277 = !{i64 266}
!278 = !{i64 267}
!279 = !{i64 268}
!280 = !{i64 269}
!281 = !{i64 270}
!282 = !{i64 271}
!283 = !{i64 272}
!284 = !{i64 273}
!285 = !{i64 274}
!286 = !{i64 275}
!287 = !{i64 276}
!288 = !{i64 277}
!289 = !{i64 278}
!290 = !{i64 279}
!291 = !{i64 280}
!292 = !{i64 281}
!293 = !{i64 282}
!294 = !{i64 283}
!295 = !{i64 284}
!296 = !{i64 285}
!297 = !{i64 286}
!298 = !{i64 287}
!299 = !{i64 288}
!300 = !{i64 289}
!301 = !{i64 290}
!302 = !{i64 291}
!303 = !{i64 292}
!304 = !{i64 293}
!305 = !{i64 294}
!306 = !{i64 295}
!307 = !{i64 296}
!308 = !{i64 297}
!309 = !{i64 298}
!310 = !{i64 299}
!311 = !{i64 300}
!312 = !{i64 301}
!313 = !{i64 302}
!314 = !{i64 303}
!315 = !{i64 304}
!316 = !{i64 305}
!317 = !{i64 306}
!318 = !{i64 307}
!319 = !{i64 308}
!320 = !{i64 309}
!321 = !{i64 310}
!322 = !{i64 311}
!323 = !{i64 312}
!324 = !{i64 313}
!325 = !{i64 314}
!326 = !{i64 315}
!327 = !{i64 316}
!328 = !{i64 317}
!329 = !{i64 318}
!330 = !{i64 319}
!331 = !{i64 320}
!332 = !{i64 321}
!333 = !{i64 322}
!334 = !{i64 323}
!335 = !{i64 324}
!336 = !{i64 325}
!337 = !{i64 326}
!338 = !{i64 327}
!339 = !{i64 328}
!340 = !{i64 329}
!341 = !{i64 330}
!342 = !{i64 331}
!343 = !{i64 332}
!344 = !{i64 333}
!345 = !{i64 334}
!346 = !{i64 335}
!347 = !{i64 336}
!348 = !{i64 337}
!349 = !{i64 338}
!350 = !{i64 339}
!351 = !{i64 340}
!352 = !{i64 341}
!353 = !{i64 342}
!354 = !{i64 343}
!355 = !{i64 344}
!356 = !{i64 345}
!357 = !{i64 346}
!358 = !{i64 347}
!359 = !{i64 348}
!360 = !{i64 349}
!361 = !{i64 350}
!362 = !{i64 351}
!363 = !{i64 352}
!364 = !{i64 353}
!365 = !{i64 354}
!366 = !{i64 355}
!367 = !{i64 356}
!368 = !{i64 357}
!369 = !{i64 358}
!370 = !{i64 359}
!371 = !{i64 360}
!372 = !{i64 361}
!373 = !{i64 362}
!374 = !{i64 363}
!375 = !{i64 364}
!376 = !{i64 365}
!377 = !{i64 366}
!378 = !{i64 367}
!379 = !{i64 368}
!380 = !{i64 369}
!381 = !{i64 370}
!382 = !{i64 371}
!383 = !{i64 372}
!384 = distinct !{!384, !70}
!385 = !{i64 373}
!386 = !{i64 374}
!387 = !{i64 375}
!388 = !{i64 376}
!389 = !{i64 377}
!390 = !{i64 378}
!391 = !{i64 379}
!392 = !{i64 380}
!393 = !{i64 381}
!394 = !{i64 382}
!395 = !{i64 383}
!396 = !{i64 384}
!397 = !{i64 385}
!398 = !{i64 386}
!399 = !{i64 387}
!400 = !{i64 388}
!401 = !{i64 389}
!402 = !{i64 390}
!403 = !{i64 391}
!404 = !{i64 392}
!405 = !{i64 393}
!406 = !{i64 394}
!407 = !{i64 395}
!408 = !{i64 396}
!409 = !{i64 397}
!410 = !{i64 398}
!411 = !{i64 399}
!412 = !{i64 400}
!413 = !{i64 401}
!414 = !{i64 402}
!415 = !{i64 403}
!416 = !{i64 404}
!417 = !{i64 405}
!418 = !{i64 406}
!419 = !{i64 407}
!420 = !{i64 408}
!421 = !{i64 409}
!422 = !{i64 410}
!423 = !{i64 411}
!424 = !{i64 412}
!425 = !{i64 413}
!426 = !{i64 414}
!427 = !{i64 415}
!428 = !{i64 416}
!429 = !{i64 417}
!430 = !{i64 418}
!431 = !{i64 419}
!432 = !{i64 420}
!433 = !{i64 421}
!434 = !{i64 422}
!435 = !{i64 423}
!436 = !{i64 424}
!437 = !{i64 425}
!438 = !{i64 426}
!439 = !{i64 427}
!440 = !{i64 428}
!441 = !{i64 429}
!442 = !{i64 430}
!443 = !{i64 431}
!444 = !{i64 432}
!445 = !{i64 433}
!446 = !{i64 434}
!447 = !{i64 435}
!448 = !{i64 436}
!449 = !{i64 437}
!450 = !{i64 438}
!451 = !{i64 439}
!452 = !{i64 440}
!453 = !{i64 441}
!454 = !{i64 442}
!455 = !{i64 443}
!456 = !{i64 444}
!457 = !{i64 445}
!458 = !{i64 446}
!459 = !{i64 447}
!460 = !{i64 448}
!461 = !{i64 449}
!462 = !{i64 450}
!463 = !{i64 451}
!464 = !{i64 452}
!465 = !{i64 453}
!466 = !{i64 454}
!467 = !{i64 455}
!468 = !{i64 456}
!469 = !{i64 457}
!470 = !{i64 458}
!471 = !{i64 459}
!472 = !{i64 460}
!473 = !{i64 461}
!474 = distinct !{!474, !70}
!475 = !{i64 462}
!476 = !{i64 463}
!477 = !{i64 464}
!478 = !{i64 465}
!479 = !{i64 466}
!480 = !{i64 467}
!481 = !{i64 468}
!482 = !{i64 469}
!483 = !{i64 470}
!484 = !{i64 471}
!485 = !{i64 472}
!486 = !{i64 473}
!487 = !{i64 474}
!488 = !{i64 475}
!489 = !{i64 476}
!490 = !{i64 477}
!491 = !{i64 478}
!492 = !{i64 479}
!493 = !{i64 480}
!494 = !{i64 481}
!495 = !{i64 482}
!496 = !{i64 483}
!497 = !{i64 484}
!498 = !{i64 485}
!499 = !{i64 486}
!500 = !{i64 487}
!501 = !{i64 488}
!502 = !{i64 489}
!503 = !{i64 490}
!504 = !{i64 491}
!505 = distinct !{!505, !70}
!506 = !{i64 492}
!507 = !{i64 493}
!508 = !{i64 494}
!509 = !{i64 495}
!510 = !{i64 496}
!511 = !{i64 497}
!512 = !{i64 498}
!513 = !{i64 499}
!514 = !{i64 500}
!515 = !{i64 501}
!516 = !{i64 502}
!517 = !{i64 503}
!518 = !{i64 504}
!519 = !{i64 505}
!520 = !{i64 506}
!521 = !{i64 507}
!522 = !{i64 508}
!523 = !{i64 509}
!524 = !{i64 510}
!525 = !{i64 511}
!526 = !{i64 512}
!527 = !{i64 513}
!528 = !{i64 514}
!529 = !{i64 515}
!530 = !{i64 516}
!531 = !{i64 517}
!532 = !{i64 518}
!533 = !{i64 519}
!534 = !{i64 520}
!535 = !{i64 521}
!536 = !{i64 522}
!537 = !{i64 523}
!538 = distinct !{!538, !70}
!539 = !{i64 524}
!540 = !{i64 525}
!541 = !{i64 526}
!542 = !{i64 527}
!543 = !{i64 528}
!544 = !{i64 529}
!545 = !{i64 530}
!546 = !{i64 531}
!547 = !{i64 532}
!548 = !{i64 533}
!549 = !{i64 534}
!550 = !{i64 535}
!551 = !{i64 536}
!552 = !{i64 537}
!553 = !{i64 538}
!554 = !{i64 539}
!555 = !{i64 540}
!556 = !{i64 541}
!557 = !{i64 542}
!558 = !{i64 543}
!559 = !{i64 544}
!560 = !{i64 545}
!561 = !{i64 546}
!562 = !{i64 547}
!563 = !{i64 548}
!564 = !{i64 549}
!565 = !{i64 550}
!566 = !{i64 551}
!567 = !{i64 552}
!568 = !{i64 553}
!569 = !{i64 554}
!570 = !{i64 555}
!571 = !{i64 556}
!572 = !{i64 557}
!573 = !{i64 558}
!574 = !{i64 559}
!575 = !{i64 560}
!576 = !{i64 561}
!577 = !{i64 562}
!578 = !{i64 563}
!579 = !{i64 564}
!580 = !{i64 565}
!581 = !{i64 566}
!582 = !{i64 567}
!583 = !{i64 568}
!584 = !{i64 569}
!585 = !{i64 570}
!586 = !{i64 571}
!587 = !{i64 572}
!588 = !{i64 573}
!589 = !{i64 574}
!590 = !{i64 575}
!591 = !{i64 576}
!592 = !{i64 577}
!593 = !{i64 578}
!594 = !{i64 579}
!595 = !{i64 580}
!596 = !{i64 581}
!597 = !{i64 582}
!598 = !{i64 583}
!599 = !{i64 584}
!600 = !{i64 585}
!601 = !{i64 586}
!602 = !{i64 587}
!603 = !{i64 588}
!604 = !{i64 589}
!605 = !{i64 590}
!606 = !{i64 591}
!607 = !{i64 592}
!608 = !{i64 593}
!609 = !{i64 594}
!610 = !{i64 595}
!611 = !{i64 596}
!612 = !{i64 597}
!613 = !{i64 598}
!614 = !{i64 599}
!615 = !{i64 600}
!616 = !{i64 601}
!617 = !{i64 602}
!618 = !{i64 603}
!619 = !{i64 604}
!620 = !{i64 605}
!621 = !{i64 606}
!622 = !{i64 607}
!623 = !{i64 608}
!624 = !{i64 609}
!625 = !{i64 610}
!626 = !{i64 611}
!627 = !{i64 612}
!628 = !{i64 613}
!629 = !{i64 614}
!630 = !{i64 615}
!631 = !{i64 616}
!632 = !{i64 617}
!633 = !{i64 618}
!634 = !{i64 619}
!635 = !{i64 620}
!636 = !{i64 621}
!637 = !{i64 622}
!638 = !{i64 623}
!639 = !{i64 624}
!640 = !{i64 625}
!641 = !{i64 626}
!642 = !{i64 627}
!643 = !{i64 628}
!644 = !{i64 629}
!645 = !{i64 630}
!646 = !{i64 631}
!647 = !{i64 632}
!648 = !{i64 633}
!649 = !{i64 634}
!650 = !{i64 635}
!651 = !{i64 636}
!652 = !{i64 637}
!653 = !{i64 638}
!654 = !{i64 639}
!655 = !{i64 640}
!656 = !{i64 641}
!657 = !{i64 642}
!658 = !{i64 643}
!659 = !{i64 644}
!660 = !{i64 645}
!661 = !{i64 646}
!662 = !{i64 647}
!663 = !{i64 648}
!664 = !{i64 649}
!665 = !{i64 650}
!666 = !{i64 651}
!667 = !{i64 652}
!668 = !{i64 653}
!669 = !{i64 654}
!670 = !{i64 655}
!671 = !{i64 656}
!672 = !{i64 657}
!673 = !{i64 658}
!674 = !{i64 659}
!675 = !{i64 660}
!676 = !{i64 661}
!677 = !{i64 662}
!678 = !{i64 663}
!679 = !{i64 664}
!680 = !{i64 665}
!681 = !{i64 666}
!682 = !{i64 667}
!683 = !{i64 668}
!684 = !{i64 669}
!685 = !{i64 670}
!686 = !{i64 671}
!687 = !{i64 672}
!688 = !{i64 673}
!689 = !{i64 674}
!690 = !{i64 675}
!691 = !{i64 676}
!692 = !{i64 677}
!693 = !{i64 678}
!694 = !{i64 679}
!695 = !{i64 680}
!696 = !{i64 681}
!697 = !{i64 682}
!698 = !{i64 683}
!699 = !{i64 684}
!700 = !{i64 685}
!701 = !{i64 686}
!702 = !{i64 687}
!703 = !{i64 688}
!704 = !{i64 689}
!705 = !{i64 690}
!706 = !{i64 691}
!707 = !{i64 692}
!708 = !{i64 693}
!709 = !{i64 694}
!710 = !{i64 695}
!711 = !{i64 696}
!712 = !{i64 697}
!713 = !{i64 698}
!714 = !{i64 699}
!715 = !{i64 700}
!716 = !{i64 701}
!717 = !{i64 702}
!718 = !{i64 703}
!719 = !{i64 704}
!720 = !{i64 705}
!721 = !{i64 706}
!722 = !{i64 707}
!723 = !{i64 708}
!724 = !{i64 709}
!725 = !{i64 710}
!726 = !{i64 711}
!727 = !{i64 712}
!728 = !{i64 713}
!729 = distinct !{!729, !70}
!730 = !{i64 714}
!731 = !{i64 715}
!732 = !{i64 716}
!733 = !{i64 717}
!734 = !{i64 718}
!735 = !{i64 719}
!736 = !{i64 720}
!737 = !{i64 721}
!738 = !{i64 722}
!739 = !{i64 723}
!740 = !{i64 724}
!741 = !{i64 725}
!742 = !{i64 726}
!743 = !{i64 727}
!744 = !{i64 728}
!745 = !{i64 729}
!746 = !{i64 730}
!747 = !{i64 731}
!748 = !{i64 732}
!749 = !{i64 733}
!750 = !{i64 734}
!751 = !{i64 735}
!752 = !{i64 736}
!753 = !{i64 737}
!754 = !{i64 738}
!755 = !{i64 739}
!756 = !{i64 740}
!757 = !{i64 741}
!758 = !{i64 742}
!759 = !{i64 743}
!760 = !{i64 744}
!761 = !{i64 745}
!762 = !{i64 746}
!763 = !{i64 747}
!764 = !{i64 748}
!765 = !{i64 749}
!766 = !{i64 750}
!767 = !{i64 751}
!768 = !{i64 752}
!769 = !{i64 753}
!770 = !{i64 754}
!771 = !{i64 755}
!772 = !{i64 756}
!773 = !{i64 757}
!774 = !{i64 758}
!775 = !{i64 759}
!776 = !{i64 760}
!777 = !{i64 761}
!778 = !{i64 762}
!779 = !{i64 763}
!780 = !{i64 764}
!781 = !{i64 765}
!782 = !{i64 766}
!783 = !{i64 767}
!784 = !{i64 768}
!785 = !{i64 769}
!786 = !{i64 770}
!787 = !{i64 771}
!788 = !{i64 772}
!789 = !{i64 773}
!790 = !{i64 774}
!791 = !{i64 775}
!792 = !{i64 776}
!793 = !{i64 777}
!794 = !{i64 778}
!795 = !{i64 779}
!796 = !{i64 780}
!797 = !{i64 781}
!798 = !{i64 782}
!799 = !{i64 783}
!800 = !{i64 784}
!801 = !{i64 785}
!802 = !{i64 786}
!803 = !{i64 787}
!804 = !{i64 788}
!805 = !{i64 789}
!806 = !{i64 790}
!807 = !{i64 791}
!808 = !{i64 792}
!809 = !{i64 793}
!810 = !{i64 794}
!811 = !{i64 795}
!812 = !{i64 796}
!813 = !{i64 797}
!814 = !{i64 798}
!815 = !{i64 799}
!816 = !{i64 800}
!817 = !{i64 801}
!818 = !{i64 802}
!819 = !{i64 803}
!820 = !{i64 804}
!821 = !{i64 805}
!822 = !{i64 806}
!823 = !{i64 807}
!824 = !{i64 808}
!825 = !{i64 809}
!826 = !{i64 810}
!827 = !{i64 811}
!828 = !{i64 812}
!829 = !{i64 813}
!830 = !{i64 814}
!831 = !{i64 815}
!832 = !{i64 816}
!833 = !{i64 817}
!834 = !{i64 818}
!835 = !{i64 819}
!836 = !{i64 820}
!837 = !{i64 821}
!838 = !{i64 822}
!839 = !{i64 823}
!840 = !{i64 824}
!841 = !{i64 825}
!842 = !{i64 826}
!843 = !{i64 827}
!844 = !{i64 828}
!845 = !{i64 829}
!846 = !{i64 830}
!847 = !{i64 831}
!848 = !{i64 832}
!849 = !{i64 833}
!850 = !{i64 834}
!851 = !{i64 835}
!852 = !{i64 836}
!853 = !{i64 837}
!854 = distinct !{!854, !70}
!855 = !{i64 838}
!856 = !{i64 839}
!857 = !{i64 840}
!858 = !{i64 841}
!859 = !{i64 842}
!860 = !{i64 843}
!861 = !{i64 844}
!862 = !{i64 845}
!863 = !{i64 846}
!864 = !{i64 847}
!865 = !{i64 848}
!866 = !{i64 849}
!867 = distinct !{!867, !70}
!868 = !{i64 850}
!869 = !{i64 851}
!870 = !{i64 852}
!871 = !{i64 853}
!872 = !{i64 854}
!873 = !{i64 855}
!874 = !{i64 856}
!875 = !{i64 857}
!876 = !{i64 858}
!877 = !{i64 859}
!878 = !{i64 860}
!879 = !{i64 861}
!880 = !{i64 862}
!881 = distinct !{!881, !70}
!882 = !{i64 863}
!883 = !{i64 864}
!884 = !{i64 865}
!885 = !{i64 866}
!886 = !{i64 867}
!887 = !{i64 868}
!888 = !{i64 869}
!889 = !{i64 870}
!890 = !{i64 871}
!891 = !{i64 872}
!892 = !{i64 873}
!893 = !{i64 874}
!894 = !{i64 875}
!895 = !{i64 876}
!896 = !{i64 877}
!897 = !{i64 878}
!898 = !{i64 879}
!899 = !{i64 880}
!900 = !{i64 881}
!901 = !{i64 882}
!902 = !{i64 883}
!903 = !{i64 884}
!904 = !{i64 885}
!905 = !{i64 886}
!906 = !{i64 887}
!907 = !{i64 888}
!908 = !{i64 889}
!909 = !{i64 890}
!910 = !{i64 891}
!911 = !{i64 892}
!912 = !{i64 893}
!913 = !{i64 894}
!914 = !{i64 895}
!915 = !{i64 896}
!916 = !{i64 897}
!917 = !{i64 898}
!918 = !{i64 899}
!919 = !{i64 900}
!920 = !{i64 901}
!921 = !{i64 902}
!922 = !{i64 903}
!923 = !{i64 904}
!924 = !{i64 905}
!925 = !{i64 906}
!926 = !{i64 907}
!927 = !{i64 908}
!928 = !{i64 909}
!929 = !{i64 910}
!930 = !{i64 911}
!931 = !{i64 912}
!932 = !{i64 913}
!933 = !{i64 914}
!934 = !{i64 915}
!935 = !{i64 916}
!936 = !{i64 917}
!937 = !{i64 918}
!938 = !{i64 919}
!939 = distinct !{!939, !70}
!940 = !{i64 920}
!941 = !{i64 921}
!942 = !{i64 922}
!943 = !{i64 923}
!944 = !{i64 924}
!945 = !{i64 925}
!946 = !{i64 926}
!947 = !{i64 927}
!948 = !{i64 928}
!949 = !{i64 929}
!950 = !{i64 930}
!951 = !{i64 931}
!952 = !{i64 932}
!953 = !{i64 933}
!954 = !{i64 934}
!955 = !{i64 935}
!956 = !{i64 936}
!957 = !{i64 937}
!958 = !{i64 938}
!959 = !{i64 939}
!960 = !{i64 940}
!961 = !{i64 941}
!962 = !{i64 942}
!963 = !{i64 943}
!964 = !{i64 944}
!965 = distinct !{!965, !70}
!966 = !{i64 945}
!967 = !{i64 946}
!968 = !{i64 947}
!969 = !{i64 948}
!970 = !{i64 949}
!971 = !{i64 950}
!972 = !{i64 951}
!973 = !{i64 952}
!974 = !{i64 953}
!975 = !{i64 954}
!976 = !{i64 955}
!977 = !{i64 956}
!978 = !{i64 957}
!979 = !{i64 958}
!980 = !{i64 959}
!981 = !{i64 960}
!982 = !{i64 961}
!983 = !{i64 962}
!984 = !{i64 963}
!985 = !{i64 964}
!986 = !{i64 965}
!987 = !{i64 966}
!988 = !{i64 967}
!989 = !{i64 968}
!990 = !{i64 969}
!991 = !{i64 970}
!992 = !{i64 971}
!993 = !{i64 972}
!994 = !{i64 973}
!995 = !{i64 974}
!996 = !{i64 975}
!997 = !{i64 976}
!998 = !{i64 977}
!999 = !{i64 978}
!1000 = !{i64 979}
!1001 = !{i64 980}
!1002 = !{i64 981}
!1003 = !{i64 982}
!1004 = !{i64 983}
!1005 = !{i64 984}
!1006 = !{i64 985}
!1007 = !{i64 986}
!1008 = !{i64 987}
!1009 = !{i64 988}
!1010 = !{i64 989}
!1011 = !{i64 990}
!1012 = !{i64 991}
!1013 = !{i64 992}
!1014 = !{i64 993}
!1015 = !{i64 994}
!1016 = !{i64 995}
!1017 = !{i64 996}
!1018 = !{i64 997}
!1019 = !{i64 998}
!1020 = !{i64 999}
!1021 = !{i64 1000}
!1022 = !{i64 1001}
!1023 = !{i64 1002}
!1024 = !{i64 1003}
!1025 = !{i64 1004}
!1026 = !{i64 1005}
!1027 = !{i64 1006}
!1028 = !{i64 1007}
!1029 = !{i64 1008}
!1030 = !{i64 1009}
!1031 = !{i64 1010}
!1032 = !{i64 1011}
!1033 = !{i64 1012}
!1034 = !{i64 1013}
!1035 = !{i64 1014}
!1036 = !{i64 1015}
!1037 = !{i64 1016}
!1038 = !{i64 1017}
!1039 = !{i64 1018}
!1040 = !{i64 1019}
!1041 = !{i64 1020}
!1042 = !{i64 1021}
!1043 = !{i64 1022}
!1044 = !{i64 1023}
!1045 = !{i64 1024}
!1046 = !{i64 1025}
!1047 = !{i64 1026}
!1048 = !{i64 1027}
!1049 = !{i64 1028}
!1050 = !{i64 1029}
!1051 = !{i64 1030}
!1052 = !{i64 1031}
!1053 = !{i64 1032}
!1054 = !{i64 1033}
!1055 = !{i64 1034}
!1056 = !{i64 1035}
!1057 = !{i64 1036}
!1058 = !{i64 1037}
!1059 = !{i64 1038}
!1060 = !{i64 1039}
!1061 = !{i64 1040}
!1062 = !{i64 1041}
!1063 = !{i64 1042}
!1064 = !{i64 1043}
!1065 = !{i64 1044}
!1066 = !{i64 1045}
!1067 = distinct !{!1067, !70}
!1068 = !{i64 1046}
!1069 = !{i64 1047}
!1070 = !{i64 1048}
!1071 = !{i64 1049}
!1072 = !{i64 1050}
!1073 = !{i64 1051}
!1074 = !{i64 1052}
!1075 = !{i64 1053}
!1076 = !{i64 1054}
!1077 = !{i64 1055}
!1078 = !{i64 1056}
!1079 = !{i64 1057}
!1080 = !{i64 1058}
!1081 = !{i64 1059}
!1082 = !{i64 1060}
!1083 = !{i64 1061}
!1084 = !{i64 1062}
!1085 = !{i64 1063}
!1086 = !{i64 1064}
!1087 = !{i64 1065}
!1088 = !{i64 1066}
!1089 = !{i64 1067}
!1090 = !{i64 1068}
!1091 = !{i64 1069}
!1092 = !{i64 1070}
!1093 = !{i64 1071}
!1094 = !{i64 1072}
!1095 = !{i64 1073}
!1096 = !{i64 1074}
!1097 = !{i64 1075}
!1098 = !{i64 1076}
!1099 = !{i64 1077}
!1100 = !{i64 1078}
!1101 = !{i64 1079}
!1102 = !{i64 1080}
!1103 = !{i64 1081}
!1104 = !{i64 1082}
!1105 = !{i64 1083}
!1106 = !{i64 1084}
!1107 = !{i64 1085}
!1108 = !{i64 1086}
!1109 = !{i64 1087}
!1110 = !{i64 1088}
!1111 = !{i64 1089}
!1112 = !{i64 1090}
!1113 = !{i64 1091}
!1114 = !{i64 1092}
!1115 = !{i64 1093}
!1116 = !{i64 1094}
!1117 = !{i64 1095}
!1118 = !{i64 1096}
!1119 = !{i64 1097}
!1120 = !{i64 1098}
!1121 = !{i64 1099}
!1122 = !{i64 1100}
!1123 = !{i64 1101}
!1124 = !{i64 1102}
!1125 = !{i64 1103}
!1126 = !{i64 1104}
!1127 = !{i64 1105}
!1128 = !{i64 1106}
!1129 = !{i64 1107}
!1130 = !{i64 1108}
!1131 = !{i64 1109}
!1132 = !{i64 1110}
!1133 = !{i64 1111}
!1134 = !{i64 1112}
!1135 = !{i64 1113}
!1136 = !{i64 1114}
!1137 = !{i64 1115}
!1138 = !{i64 1116}
!1139 = !{i64 1117}
!1140 = !{i64 1118}
!1141 = !{i64 1119}
!1142 = !{i64 1120}
!1143 = !{i64 1121}
!1144 = !{i64 1122}
!1145 = !{i64 1123}
!1146 = !{i64 1124}
!1147 = !{i64 1125}
!1148 = !{i64 1126}
!1149 = !{i64 1127}
!1150 = !{i64 1128}
!1151 = !{i64 1129}
!1152 = !{i64 1130}
!1153 = !{i64 1131}
!1154 = !{i64 1132}
!1155 = !{i64 1133}
!1156 = !{i64 1134}
!1157 = !{i64 1135}
!1158 = !{i64 1136}
!1159 = !{i64 1137}
!1160 = !{i64 1138}
!1161 = !{i64 1139}
!1162 = !{i64 1140}
!1163 = !{i64 1141}
!1164 = !{i64 1142}
!1165 = !{i64 1143}
!1166 = !{i64 1144}
!1167 = distinct !{!1167, !70}
!1168 = !{i64 1145}
!1169 = !{i64 1146}
!1170 = !{i64 1147}
!1171 = !{i64 1148}
!1172 = !{i64 1149}
!1173 = !{i64 1150}
!1174 = !{i64 1151}
!1175 = !{i64 1152}
!1176 = !{i64 1153}
!1177 = !{i64 1154}
!1178 = !{i64 1155}
!1179 = !{i64 1156}
!1180 = !{i64 1157}
!1181 = !{i64 1158}
!1182 = !{i64 1159}
!1183 = !{i64 1160}
!1184 = !{i64 1161}
!1185 = !{i64 1162}
!1186 = !{i64 1163}
!1187 = !{i64 1164}
!1188 = !{i64 1165}
!1189 = !{i64 1166}
!1190 = !{i64 1167}
!1191 = !{i64 1168}
!1192 = !{i64 1169}
!1193 = !{i64 1170}
!1194 = !{i64 1171}
!1195 = !{i64 1172}
!1196 = !{i64 1173}
!1197 = !{i64 1174}
!1198 = !{i64 1175}
!1199 = !{i64 1176}
!1200 = !{i64 1177}
!1201 = !{i64 1178}
!1202 = !{i64 1179}
!1203 = !{i64 1180}
!1204 = !{i64 1181}
!1205 = !{i64 1182}
!1206 = !{i64 1183}
!1207 = !{i64 1184}
!1208 = !{i64 1185}
!1209 = !{i64 1186}
!1210 = !{i64 1187}
!1211 = !{i64 1188}
!1212 = !{i64 1189}
!1213 = !{i64 1190}
!1214 = !{i64 1191}
!1215 = !{i64 1192}
!1216 = !{i64 1193}
!1217 = !{i64 1194}
!1218 = !{i64 1195}
!1219 = !{i64 1196}
!1220 = !{i64 1197}
!1221 = !{i64 1198}
!1222 = !{i64 1199}
!1223 = !{i64 1200}
!1224 = !{i64 1201}
!1225 = !{i64 1202}
!1226 = !{i64 1203}
!1227 = !{i64 1204}
!1228 = !{i64 1205}
!1229 = !{i64 1206}
!1230 = !{i64 1207}
!1231 = !{i64 1208}
!1232 = !{i64 1209}
!1233 = !{i64 1210}
!1234 = !{i64 1211}
!1235 = !{i64 1212}
!1236 = !{i64 1213}
!1237 = !{i64 1214}
!1238 = !{i64 1215}
!1239 = !{i64 1216}
!1240 = !{i64 1217}
!1241 = !{i64 1218}
!1242 = !{i64 1219}
!1243 = !{i64 1220}
!1244 = !{i64 1221}
!1245 = !{i64 1222}
!1246 = !{i64 1223}
!1247 = !{i64 1224}
!1248 = !{i64 1225}
!1249 = !{i64 1226}
!1250 = !{i64 1227}
!1251 = !{i64 1228}
!1252 = !{i64 1229}
!1253 = !{i64 1230}
!1254 = !{i64 1231}
!1255 = distinct !{!1255, !70}
!1256 = !{i64 1232}
!1257 = !{i64 1233}
!1258 = !{i64 1234}
!1259 = !{i64 1235}
!1260 = !{i64 1236}
!1261 = !{i64 1237}
!1262 = !{i64 1238}
!1263 = !{i64 1239}
