; ModuleID = '/home/hjiang/Computation-Kernel-Dataset/experiments/Fault_injection_0308_parall/O0/LoveLetterMystery/LoveLetterMystery.ll'
source_filename = "llvm-link"
target datalayout = "e-m:e-p270:32:32-p271:32:32-p272:64:64-i64:64-f80:128-n8:16:32:64-S128"
target triple = "x86_64-unknown-linux-gnu"

%"class.std::ios_base::Init" = type { i8 }
%struct._IO_FILE = type { i32, i8*, i8*, i8*, i8*, i8*, i8*, i8*, i8*, i8*, i8*, i8*, %struct._IO_marker*, %struct._IO_FILE*, i32, i32, i64, i16, i8, [1 x i8], i8*, i64, %struct._IO_codecvt*, %struct._IO_wide_data*, %struct._IO_FILE*, i8*, i64, i32, [20 x i8] }
%struct._IO_marker = type opaque
%struct._IO_codecvt = type opaque
%struct._IO_wide_data = type opaque
%"class.std::basic_istream" = type { i32 (...)**, i64, %"class.std::basic_ios" }
%"class.std::basic_ios" = type { %"class.std::ios_base", %"class.std::basic_ostream"*, i8, i8, %"class.std::basic_streambuf"*, %"class.std::ctype"*, %"class.std::num_put"*, %"class.std::num_put"* }
%"class.std::ios_base" = type { i32 (...)**, i64, i64, i32, i32, i32, %"struct.std::ios_base::_Callback_list"*, %"struct.std::ios_base::_Words", [8 x %"struct.std::ios_base::_Words"], i32, %"struct.std::ios_base::_Words"*, %"class.std::locale" }
%"struct.std::ios_base::_Callback_list" = type { %"struct.std::ios_base::_Callback_list"*, void (i32, %"class.std::ios_base"*, i32)*, i32, i32 }
%"struct.std::ios_base::_Words" = type { i8*, i64 }
%"class.std::locale" = type { %"class.std::locale::_Impl"* }
%"class.std::locale::_Impl" = type { i32, %"class.std::locale::facet"**, i64, %"class.std::locale::facet"**, i8** }
%"class.std::locale::facet" = type <{ i32 (...)**, i32, [4 x i8] }>
%"class.std::basic_ostream" = type { i32 (...)**, %"class.std::basic_ios" }
%"class.std::basic_streambuf" = type { i32 (...)**, i8*, i8*, i8*, i8*, i8*, i8*, %"class.std::locale" }
%"class.std::ctype" = type <{ %"class.std::locale::facet.base", [4 x i8], %struct.__locale_struct*, i8, [7 x i8], i32*, i32*, i16*, i8, [256 x i8], [256 x i8], i8, [6 x i8] }>
%"class.std::locale::facet.base" = type <{ i32 (...)**, i32 }>
%struct.__locale_struct = type { [13 x %struct.__locale_data*], i16*, i32*, i32*, [13 x i8*] }
%struct.__locale_data = type opaque
%"class.std::num_put" = type { %"class.std::locale::facet.base", [4 x i8] }
%"class.std::__cxx11::basic_string" = type { %"struct.std::__cxx11::basic_string<char>::_Alloc_hider", i64, %union.anon }
%"struct.std::__cxx11::basic_string<char>::_Alloc_hider" = type { i8* }
%union.anon = type { i64, [8 x i8] }

@llvm.global_ctors = appending global [1 x { i32, void ()*, i8* }] [{ i32, void ()*, i8* } { i32 65535, void ()* @_GLOBAL__sub_I_LoveLetterMystery.cpp, i8* null }]
@_ZStL8__ioinit = internal global %"class.std::ios_base::Init" zeroinitializer, align 1
@.str = private unnamed_addr constant [33 x i8] c"../input_files/LoveLetterMystery\00", align 1
@.str.1 = private unnamed_addr constant [2 x i8] c"r\00", align 1
@stdin = external dso_local global %struct._IO_FILE*, align 8
@_ZSt3cin = external dso_local global %"class.std::basic_istream", align 8
@_ZSt4cout = external dso_local global %"class.std::basic_ostream", align 8

; Function Attrs: noinline uwtable
define internal void @_GLOBAL__sub_I_LoveLetterMystery.cpp() #0 section ".text.startup" {
  call void @__cxx_global_var_init(), !llfi_index !4
  ret void, !llfi_index !5
}

; Function Attrs: noinline uwtable
define internal void @__cxx_global_var_init() #0 section ".text.startup" {
  call void @_ZNSt8ios_base4InitC1Ev(%"class.std::ios_base::Init"* nonnull align 1 dereferenceable(1) @_ZStL8__ioinit), !llfi_index !6
  %1 = call i32 @atexit(void ()* @__dtor__ZStL8__ioinit) #2, !llfi_index !7
  ret void, !llfi_index !8
}

declare dso_local void @_ZNSt8ios_base4InitC1Ev(%"class.std::ios_base::Init"* nonnull align 1 dereferenceable(1)) unnamed_addr #1

; Function Attrs: noinline uwtable
define internal void @__dtor__ZStL8__ioinit() #0 section ".text.startup" {
  call void @_ZNSt8ios_base4InitD1Ev(%"class.std::ios_base::Init"* @_ZStL8__ioinit), !llfi_index !9
  ret void, !llfi_index !10
}

; Function Attrs: nounwind
declare dso_local i32 @atexit(void ()*) #2

; Function Attrs: nounwind
declare dso_local void @_ZNSt8ios_base4InitD1Ev(%"class.std::ios_base::Init"* nonnull align 1 dereferenceable(1)) unnamed_addr #3

; Function Attrs: mustprogress noinline norecurse uwtable
define dso_local i32 @main() #4 personality i8* bitcast (i32 (...)* @__gxx_personality_v0 to i8*) {
  %1 = alloca i32, align 4, !llfi_index !11
  %2 = alloca i16, align 2, !llfi_index !12
  %3 = alloca i32, align 4, !llfi_index !13
  %4 = alloca %"class.std::__cxx11::basic_string", align 8, !llfi_index !14
  %5 = alloca i8*, align 8, !llfi_index !15
  %6 = alloca i32, align 4, !llfi_index !16
  %7 = alloca i32, align 4, !llfi_index !17
  %8 = alloca i32, align 4, !llfi_index !18
  %9 = alloca i32, align 4, !llfi_index !19
  %10 = alloca i16, align 2, !llfi_index !20
  %11 = alloca i16, align 2, !llfi_index !21
  store i32 0, i32* %1, align 4, !llfi_index !22
  %12 = load %struct._IO_FILE*, %struct._IO_FILE** @stdin, align 8, !llfi_index !23
  %13 = call %struct._IO_FILE* @freopen(i8* getelementptr inbounds ([33 x i8], [33 x i8]* @.str, i64 0, i64 0), i8* getelementptr inbounds ([2 x i8], [2 x i8]* @.str.1, i64 0, i64 0), %struct._IO_FILE* %12), !llfi_index !24
  %14 = call nonnull align 8 dereferenceable(16) %"class.std::basic_istream"* @_ZNSirsERs(%"class.std::basic_istream"* nonnull align 8 dereferenceable(16) @_ZSt3cin, i16* nonnull align 2 dereferenceable(2) %2), !llfi_index !25
  %15 = call nonnull align 8 dereferenceable(16) %"class.std::basic_istream"* @_ZNSi6ignoreEv(%"class.std::basic_istream"* nonnull align 8 dereferenceable(16) @_ZSt3cin), !llfi_index !26
  store i32 89, i32* %3, align 4, !llfi_index !27
  br label %16, !llfi_index !28

16:                                               ; preds = %68, %0
  %17 = load i16, i16* %2, align 2, !llfi_index !29
  %18 = sext i16 %17 to i32, !llfi_index !30
  %19 = icmp sgt i32 %18, 0, !llfi_index !31
  br i1 %19, label %20, label %71, !llfi_index !32

20:                                               ; preds = %16
  call void @_ZNSt7__cxx1112basic_stringIcSt11char_traitsIcESaIcEEC1Ev(%"class.std::__cxx11::basic_string"* nonnull align 8 dereferenceable(32) %4) #2, !llfi_index !33
  %21 = invoke nonnull align 8 dereferenceable(16) %"class.std::basic_istream"* @_ZSt7getlineIcSt11char_traitsIcESaIcEERSt13basic_istreamIT_T0_ES7_RNSt7__cxx1112basic_stringIS4_S5_T1_EE(%"class.std::basic_istream"* nonnull align 8 dereferenceable(16) @_ZSt3cin, %"class.std::__cxx11::basic_string"* nonnull align 8 dereferenceable(32) %4)
          to label %22 unwind label %59, !llfi_index !34

22:                                               ; preds = %20
  %23 = call i64 @_ZNKSt7__cxx1112basic_stringIcSt11char_traitsIcESaIcEE6lengthEv(%"class.std::__cxx11::basic_string"* nonnull align 8 dereferenceable(32) %4) #2, !llfi_index !35
  %24 = trunc i64 %23 to i32, !llfi_index !36
  store i32 %24, i32* %7, align 4, !llfi_index !37
  store i32 0, i32* %8, align 4, !llfi_index !38
  store i32 89, i32* %3, align 4, !llfi_index !39
  store i32 0, i32* %9, align 4, !llfi_index !40
  br label %25, !llfi_index !41

25:                                               ; preds = %56, %22
  %26 = load i32, i32* %9, align 4, !llfi_index !42
  %27 = load i32, i32* %7, align 4, !llfi_index !43
  %28 = sdiv i32 %27, 2, !llfi_index !44
  %29 = icmp slt i32 %26, %28, !llfi_index !45
  br i1 %29, label %30, label %63, !llfi_index !46

30:                                               ; preds = %25
  %31 = load i32, i32* %9, align 4, !llfi_index !47
  %32 = sext i32 %31 to i64, !llfi_index !48
  %33 = invoke nonnull align 1 dereferenceable(1) i8* @_ZNSt7__cxx1112basic_stringIcSt11char_traitsIcESaIcEEixEm(%"class.std::__cxx11::basic_string"* nonnull align 8 dereferenceable(32) %4, i64 %32)
          to label %34 unwind label %59, !llfi_index !49

34:                                               ; preds = %30
  %35 = load i8, i8* %33, align 1, !llfi_index !50
  %36 = sext i8 %35 to i32, !llfi_index !51
  %37 = trunc i32 %36 to i16, !llfi_index !52
  store i16 %37, i16* %10, align 2, !llfi_index !53
  %38 = load i32, i32* %7, align 4, !llfi_index !54
  %39 = sub nsw i32 %38, 1, !llfi_index !55
  %40 = load i32, i32* %9, align 4, !llfi_index !56
  %41 = sub nsw i32 %39, %40, !llfi_index !57
  %42 = sext i32 %41 to i64, !llfi_index !58
  %43 = invoke nonnull align 1 dereferenceable(1) i8* @_ZNSt7__cxx1112basic_stringIcSt11char_traitsIcESaIcEEixEm(%"class.std::__cxx11::basic_string"* nonnull align 8 dereferenceable(32) %4, i64 %42)
          to label %44 unwind label %59, !llfi_index !59

44:                                               ; preds = %34
  %45 = load i8, i8* %43, align 1, !llfi_index !60
  %46 = sext i8 %45 to i32, !llfi_index !61
  %47 = trunc i32 %46 to i16, !llfi_index !62
  store i16 %47, i16* %11, align 2, !llfi_index !63
  %48 = load i16, i16* %11, align 2, !llfi_index !64
  %49 = sext i16 %48 to i32, !llfi_index !65
  %50 = load i16, i16* %10, align 2, !llfi_index !66
  %51 = sext i16 %50 to i32, !llfi_index !67
  %52 = sub nsw i32 %49, %51, !llfi_index !68
  %53 = call i32 @abs(i32 %52) #6, !llfi_index !69
  %54 = load i32, i32* %8, align 4, !llfi_index !70
  %55 = add nsw i32 %54, %53, !llfi_index !71
  store i32 %55, i32* %8, align 4, !llfi_index !72
  br label %56, !llfi_index !73

56:                                               ; preds = %44
  %57 = load i32, i32* %9, align 4, !llfi_index !74
  %58 = add nsw i32 %57, 1, !llfi_index !75
  store i32 %58, i32* %9, align 4, !llfi_index !76
  br label %25, !llvm.loop !77, !llfi_index !79

59:                                               ; preds = %66, %63, %34, %30, %20
  %60 = landingpad { i8*, i32 }
          cleanup, !llfi_index !80
  %61 = extractvalue { i8*, i32 } %60, 0, !llfi_index !81
  store i8* %61, i8** %5, align 8, !llfi_index !82
  %62 = extractvalue { i8*, i32 } %60, 1, !llfi_index !83
  store i32 %62, i32* %6, align 4, !llfi_index !84
  call void @_ZNSt7__cxx1112basic_stringIcSt11char_traitsIcESaIcEED1Ev(%"class.std::__cxx11::basic_string"* nonnull align 8 dereferenceable(32) %4) #2, !llfi_index !85
  br label %73, !llfi_index !86

63:                                               ; preds = %25
  %64 = load i32, i32* %8, align 4, !llfi_index !87
  %65 = invoke nonnull align 8 dereferenceable(8) %"class.std::basic_ostream"* @_ZNSolsEi(%"class.std::basic_ostream"* nonnull align 8 dereferenceable(8) @_ZSt4cout, i32 %64)
          to label %66 unwind label %59, !llfi_index !88

66:                                               ; preds = %63
  %67 = invoke nonnull align 8 dereferenceable(8) %"class.std::basic_ostream"* @_ZNSolsEPFRSoS_E(%"class.std::basic_ostream"* nonnull align 8 dereferenceable(8) %65, %"class.std::basic_ostream"* (%"class.std::basic_ostream"*)* @_ZSt4endlIcSt11char_traitsIcEERSt13basic_ostreamIT_T0_ES6_)
          to label %68 unwind label %59, !llfi_index !89

68:                                               ; preds = %66
  %69 = load i16, i16* %2, align 2, !llfi_index !90
  %70 = add i16 %69, -1, !llfi_index !91
  store i16 %70, i16* %2, align 2, !llfi_index !92
  call void @_ZNSt7__cxx1112basic_stringIcSt11char_traitsIcESaIcEED1Ev(%"class.std::__cxx11::basic_string"* nonnull align 8 dereferenceable(32) %4) #2, !llfi_index !93
  br label %16, !llvm.loop !94, !llfi_index !95

71:                                               ; preds = %16
  %72 = load i32, i32* %1, align 4, !llfi_index !96
  ret i32 %72, !llfi_index !97

73:                                               ; preds = %59
  %74 = load i8*, i8** %5, align 8, !llfi_index !98
  %75 = load i32, i32* %6, align 4, !llfi_index !99
  %76 = insertvalue { i8*, i32 } undef, i8* %74, 0, !llfi_index !100
  %77 = insertvalue { i8*, i32 } %76, i32 %75, 1, !llfi_index !101
  resume { i8*, i32 } %77, !llfi_index !102
}

declare dso_local i32 @__gxx_personality_v0(...)

declare dso_local %struct._IO_FILE* @freopen(i8*, i8*, %struct._IO_FILE*) #1

declare dso_local nonnull align 8 dereferenceable(16) %"class.std::basic_istream"* @_ZNSirsERs(%"class.std::basic_istream"* nonnull align 8 dereferenceable(16), i16* nonnull align 2 dereferenceable(2)) #1

declare dso_local nonnull align 8 dereferenceable(16) %"class.std::basic_istream"* @_ZNSi6ignoreEv(%"class.std::basic_istream"* nonnull align 8 dereferenceable(16)) #1

; Function Attrs: nounwind
declare dso_local void @_ZNSt7__cxx1112basic_stringIcSt11char_traitsIcESaIcEEC1Ev(%"class.std::__cxx11::basic_string"* nonnull align 8 dereferenceable(32)) unnamed_addr #3

declare dso_local nonnull align 8 dereferenceable(16) %"class.std::basic_istream"* @_ZSt7getlineIcSt11char_traitsIcESaIcEERSt13basic_istreamIT_T0_ES7_RNSt7__cxx1112basic_stringIS4_S5_T1_EE(%"class.std::basic_istream"* nonnull align 8 dereferenceable(16), %"class.std::__cxx11::basic_string"* nonnull align 8 dereferenceable(32)) #1

; Function Attrs: nounwind
declare dso_local i64 @_ZNKSt7__cxx1112basic_stringIcSt11char_traitsIcESaIcEE6lengthEv(%"class.std::__cxx11::basic_string"* nonnull align 8 dereferenceable(32)) #3

declare dso_local nonnull align 1 dereferenceable(1) i8* @_ZNSt7__cxx1112basic_stringIcSt11char_traitsIcESaIcEEixEm(%"class.std::__cxx11::basic_string"* nonnull align 8 dereferenceable(32), i64) #1

; Function Attrs: nounwind readnone willreturn
declare dso_local i32 @abs(i32) #5

; Function Attrs: nounwind
declare dso_local void @_ZNSt7__cxx1112basic_stringIcSt11char_traitsIcESaIcEED1Ev(%"class.std::__cxx11::basic_string"* nonnull align 8 dereferenceable(32)) unnamed_addr #3

declare dso_local nonnull align 8 dereferenceable(8) %"class.std::basic_ostream"* @_ZNSolsEi(%"class.std::basic_ostream"* nonnull align 8 dereferenceable(8), i32) #1

declare dso_local nonnull align 8 dereferenceable(8) %"class.std::basic_ostream"* @_ZSt4endlIcSt11char_traitsIcEERSt13basic_ostreamIT_T0_ES6_(%"class.std::basic_ostream"* nonnull align 8 dereferenceable(8)) #1

declare dso_local nonnull align 8 dereferenceable(8) %"class.std::basic_ostream"* @_ZNSolsEPFRSoS_E(%"class.std::basic_ostream"* nonnull align 8 dereferenceable(8), %"class.std::basic_ostream"* (%"class.std::basic_ostream"*)*) #1

attributes #0 = { noinline uwtable "frame-pointer"="all" "min-legal-vector-width"="0" "no-trapping-math"="true" "stack-protector-buffer-size"="8" "target-cpu"="x86-64" "target-features"="+cx8,+fxsr,+mmx,+sse,+sse2,+x87" "tune-cpu"="generic" }
attributes #1 = { "frame-pointer"="all" "no-trapping-math"="true" "stack-protector-buffer-size"="8" "target-cpu"="x86-64" "target-features"="+cx8,+fxsr,+mmx,+sse,+sse2,+x87" "tune-cpu"="generic" }
attributes #2 = { nounwind }
attributes #3 = { nounwind "frame-pointer"="all" "no-trapping-math"="true" "stack-protector-buffer-size"="8" "target-cpu"="x86-64" "target-features"="+cx8,+fxsr,+mmx,+sse,+sse2,+x87" "tune-cpu"="generic" }
attributes #4 = { mustprogress noinline norecurse uwtable "frame-pointer"="all" "min-legal-vector-width"="0" "no-trapping-math"="true" "stack-protector-buffer-size"="8" "target-cpu"="x86-64" "target-features"="+cx8,+fxsr,+mmx,+sse,+sse2,+x87" "tune-cpu"="generic" }
attributes #5 = { nounwind readnone willreturn "frame-pointer"="all" "no-trapping-math"="true" "stack-protector-buffer-size"="8" "target-cpu"="x86-64" "target-features"="+cx8,+fxsr,+mmx,+sse,+sse2,+x87" "tune-cpu"="generic" }
attributes #6 = { nounwind readnone willreturn }

!llvm.ident = !{!0}
!llvm.module.flags = !{!1, !2, !3}

!0 = !{!"clang version 13.0.0 (https://github.com/llvm/llvm-project.git d7b669b3a30345cfcdb2fde2af6f48aa4b94845d)"}
!1 = !{i32 1, !"wchar_size", i32 4}
!2 = !{i32 7, !"uwtable", i32 1}
!3 = !{i32 7, !"frame-pointer", i32 2}
!4 = !{i64 1}
!5 = !{i64 2}
!6 = !{i64 3}
!7 = !{i64 4}
!8 = !{i64 5}
!9 = !{i64 6}
!10 = !{i64 7}
!11 = !{i64 8}
!12 = !{i64 9}
!13 = !{i64 10}
!14 = !{i64 11}
!15 = !{i64 12}
!16 = !{i64 13}
!17 = !{i64 14}
!18 = !{i64 15}
!19 = !{i64 16}
!20 = !{i64 17}
!21 = !{i64 18}
!22 = !{i64 19}
!23 = !{i64 20}
!24 = !{i64 21}
!25 = !{i64 22}
!26 = !{i64 23}
!27 = !{i64 24}
!28 = !{i64 25}
!29 = !{i64 26}
!30 = !{i64 27}
!31 = !{i64 28}
!32 = !{i64 29}
!33 = !{i64 30}
!34 = !{i64 31}
!35 = !{i64 32}
!36 = !{i64 33}
!37 = !{i64 34}
!38 = !{i64 35}
!39 = !{i64 36}
!40 = !{i64 37}
!41 = !{i64 38}
!42 = !{i64 39}
!43 = !{i64 40}
!44 = !{i64 41}
!45 = !{i64 42}
!46 = !{i64 43}
!47 = !{i64 44}
!48 = !{i64 45}
!49 = !{i64 46}
!50 = !{i64 47}
!51 = !{i64 48}
!52 = !{i64 49}
!53 = !{i64 50}
!54 = !{i64 51}
!55 = !{i64 52}
!56 = !{i64 53}
!57 = !{i64 54}
!58 = !{i64 55}
!59 = !{i64 56}
!60 = !{i64 57}
!61 = !{i64 58}
!62 = !{i64 59}
!63 = !{i64 60}
!64 = !{i64 61}
!65 = !{i64 62}
!66 = !{i64 63}
!67 = !{i64 64}
!68 = !{i64 65}
!69 = !{i64 66}
!70 = !{i64 67}
!71 = !{i64 68}
!72 = !{i64 69}
!73 = !{i64 70}
!74 = !{i64 71}
!75 = !{i64 72}
!76 = !{i64 73}
!77 = distinct !{!77, !78}
!78 = !{!"llvm.loop.mustprogress"}
!79 = !{i64 74}
!80 = !{i64 75}
!81 = !{i64 76}
!82 = !{i64 77}
!83 = !{i64 78}
!84 = !{i64 79}
!85 = !{i64 80}
!86 = !{i64 81}
!87 = !{i64 82}
!88 = !{i64 83}
!89 = !{i64 84}
!90 = !{i64 85}
!91 = !{i64 86}
!92 = !{i64 87}
!93 = !{i64 88}
!94 = distinct !{!94, !78}
!95 = !{i64 89}
!96 = !{i64 90}
!97 = !{i64 91}
!98 = !{i64 92}
!99 = !{i64 93}
!100 = !{i64 94}
!101 = !{i64 95}
!102 = !{i64 96}
