; ModuleID = '/home/hjiang/Computation-Kernel-Dataset/experiments/Fault_injection_0308_parall/O0/LuckyPurchase/LuckyPurchase.ll'
source_filename = "llvm-link"
target datalayout = "e-m:e-p270:32:32-p271:32:32-p272:64:64-i64:64-f80:128-n8:16:32:64-S128"
target triple = "x86_64-unknown-linux-gnu"

%"class.std::ios_base::Init" = type { i8 }
%struct._IO_FILE = type { i32, i8*, i8*, i8*, i8*, i8*, i8*, i8*, i8*, i8*, i8*, i8*, %struct._IO_marker*, %struct._IO_FILE*, i32, i32, i64, i16, i8, [1 x i8], i8*, i64, %struct._IO_codecvt*, %struct._IO_wide_data*, %struct._IO_FILE*, i8*, i64, i32, [20 x i8] }
%struct._IO_marker = type opaque
%struct._IO_codecvt = type opaque
%struct._IO_wide_data = type opaque
%"class.std::basic_istream" = type { i32 (...)**, i64, %"class.std::basic_ios" }
%"class.std::basic_ios" = type { %"class.std::ios_base", %"class.std::basic_ostream"*, i8, i8, %"class.std::basic_streambuf"*, %"class.std::ctype"*, %"class.std::num_put"*, %"class.std::num_put"* }
%"class.std::ios_base" = type { i32 (...)**, i64, i64, i32, i32, i32, %"struct.std::ios_base::_Callback_list"*, %"struct.std::ios_base::_Words", [8 x %"struct.std::ios_base::_Words"], i32, %"struct.std::ios_base::_Words"*, %"class.std::locale" }
%"struct.std::ios_base::_Callback_list" = type { %"struct.std::ios_base::_Callback_list"*, void (i32, %"class.std::ios_base"*, i32)*, i32, i32 }
%"struct.std::ios_base::_Words" = type { i8*, i64 }
%"class.std::locale" = type { %"class.std::locale::_Impl"* }
%"class.std::locale::_Impl" = type { i32, %"class.std::locale::facet"**, i64, %"class.std::locale::facet"**, i8** }
%"class.std::locale::facet" = type <{ i32 (...)**, i32, [4 x i8] }>
%"class.std::basic_ostream" = type { i32 (...)**, %"class.std::basic_ios" }
%"class.std::basic_streambuf" = type { i32 (...)**, i8*, i8*, i8*, i8*, i8*, i8*, %"class.std::locale" }
%"class.std::ctype" = type <{ %"class.std::locale::facet.base", [4 x i8], %struct.__locale_struct*, i8, [7 x i8], i32*, i32*, i16*, i8, [256 x i8], [256 x i8], i8, [6 x i8] }>
%"class.std::locale::facet.base" = type <{ i32 (...)**, i32 }>
%struct.__locale_struct = type { [13 x %struct.__locale_data*], i16*, i32*, i32*, [13 x i8*] }
%struct.__locale_data = type opaque
%"class.std::num_put" = type { %"class.std::locale::facet.base", [4 x i8] }
%"class.std::__cxx11::basic_string" = type { %"struct.std::__cxx11::basic_string<char>::_Alloc_hider", i64, %union.anon }
%"struct.std::__cxx11::basic_string<char>::_Alloc_hider" = type { i8* }
%union.anon = type { i64, [8 x i8] }

@llvm.global_ctors = appending global [1 x { i32, void ()*, i8* }] [{ i32, void ()*, i8* } { i32 65535, void ()* @_GLOBAL__sub_I_LuckyPurchase.cpp, i8* null }]
@_ZStL8__ioinit = internal global %"class.std::ios_base::Init" zeroinitializer, align 1
@.str = private unnamed_addr constant [29 x i8] c"../input_files/LuckyPurchase\00", align 1
@.str.1 = private unnamed_addr constant [2 x i8] c"r\00", align 1
@stdin = external dso_local global %struct._IO_FILE*, align 8
@_ZSt3cin = external dso_local global %"class.std::basic_istream", align 8
@_ZSt4cout = external dso_local global %"class.std::basic_ostream", align 8
@.str.2 = private unnamed_addr constant [3 x i8] c"-1\00", align 1

; Function Attrs: noinline uwtable
define internal void @_GLOBAL__sub_I_LuckyPurchase.cpp() #0 section ".text.startup" {
  call void @__cxx_global_var_init(), !llfi_index !4
  ret void, !llfi_index !5
}

; Function Attrs: noinline uwtable
define internal void @__cxx_global_var_init() #0 section ".text.startup" {
  call void @_ZNSt8ios_base4InitC1Ev(%"class.std::ios_base::Init"* nonnull align 1 dereferenceable(1) @_ZStL8__ioinit), !llfi_index !6
  %1 = call i32 @atexit(void ()* @__dtor__ZStL8__ioinit) #2, !llfi_index !7
  ret void, !llfi_index !8
}

declare dso_local void @_ZNSt8ios_base4InitC1Ev(%"class.std::ios_base::Init"* nonnull align 1 dereferenceable(1)) unnamed_addr #1

; Function Attrs: noinline uwtable
define internal void @__dtor__ZStL8__ioinit() #0 section ".text.startup" {
  call void @_ZNSt8ios_base4InitD1Ev(%"class.std::ios_base::Init"* @_ZStL8__ioinit), !llfi_index !9
  ret void, !llfi_index !10
}

; Function Attrs: nounwind
declare dso_local i32 @atexit(void ()*) #2

; Function Attrs: nounwind
declare dso_local void @_ZNSt8ios_base4InitD1Ev(%"class.std::ios_base::Init"* nonnull align 1 dereferenceable(1)) unnamed_addr #3

; Function Attrs: mustprogress noinline norecurse uwtable
define dso_local i32 @main() #4 personality i8* bitcast (i32 (...)* @__gxx_personality_v0 to i8*) {
  %1 = alloca i32, align 4, !llfi_index !11
  %2 = alloca i32, align 4, !llfi_index !12
  %3 = alloca %"class.std::__cxx11::basic_string", align 8, !llfi_index !13
  %4 = alloca i32, align 4, !llfi_index !14
  %5 = alloca i32, align 4, !llfi_index !15
  %6 = alloca %"class.std::__cxx11::basic_string", align 8, !llfi_index !16
  %7 = alloca i32, align 4, !llfi_index !17
  %8 = alloca i8*, align 8, !llfi_index !18
  %9 = alloca i32, align 4, !llfi_index !19
  %10 = alloca i8, align 1, !llfi_index !20
  %11 = alloca i32, align 4, !llfi_index !21
  %12 = alloca i32, align 4, !llfi_index !22
  %13 = alloca i32, align 4, !llfi_index !23
  %14 = alloca i32, align 4, !llfi_index !24
  store i32 0, i32* %1, align 4, !llfi_index !25
  %15 = load %struct._IO_FILE*, %struct._IO_FILE** @stdin, align 8, !llfi_index !26
  %16 = call %struct._IO_FILE* @freopen(i8* getelementptr inbounds ([29 x i8], [29 x i8]* @.str, i64 0, i64 0), i8* getelementptr inbounds ([2 x i8], [2 x i8]* @.str.1, i64 0, i64 0), %struct._IO_FILE* %15), !llfi_index !27
  %17 = call nonnull align 8 dereferenceable(16) %"class.std::basic_istream"* @_ZNSirsERi(%"class.std::basic_istream"* nonnull align 8 dereferenceable(16) @_ZSt3cin, i32* nonnull align 4 dereferenceable(4) %2), !llfi_index !28
  call void @_ZNSt7__cxx1112basic_stringIcSt11char_traitsIcESaIcEEC1Ev(%"class.std::__cxx11::basic_string"* nonnull align 8 dereferenceable(32) %3) #2, !llfi_index !29
  store i32 1000000000, i32* %4, align 4, !llfi_index !30
  store i32 89, i32* %5, align 4, !llfi_index !31
  br label %18, !llfi_index !32

18:                                               ; preds = %70, %0
  %19 = load i32, i32* %2, align 4, !llfi_index !33
  %20 = add nsw i32 %19, -1, !llfi_index !34
  store i32 %20, i32* %2, align 4, !llfi_index !35
  %21 = icmp ne i32 %19, 0, !llfi_index !36
  br i1 %21, label %22, label %71, !llfi_index !37

22:                                               ; preds = %18
  call void @_ZNSt7__cxx1112basic_stringIcSt11char_traitsIcESaIcEEC1Ev(%"class.std::__cxx11::basic_string"* nonnull align 8 dereferenceable(32) %6) #2, !llfi_index !38
  %23 = invoke nonnull align 8 dereferenceable(16) %"class.std::basic_istream"* @_ZStrsIcSt11char_traitsIcESaIcEERSt13basic_istreamIT_T0_ES7_RNSt7__cxx1112basic_stringIS4_S5_T1_EE(%"class.std::basic_istream"* nonnull align 8 dereferenceable(16) @_ZSt3cin, %"class.std::__cxx11::basic_string"* nonnull align 8 dereferenceable(32) %6)
          to label %24 unwind label %39, !llfi_index !39

24:                                               ; preds = %22
  %25 = invoke nonnull align 8 dereferenceable(16) %"class.std::basic_istream"* @_ZNSirsERi(%"class.std::basic_istream"* nonnull align 8 dereferenceable(16) %23, i32* nonnull align 4 dereferenceable(4) %7)
          to label %26 unwind label %39, !llfi_index !40

26:                                               ; preds = %24
  store i8 1, i8* %10, align 1, !llfi_index !41
  store i32 0, i32* %11, align 4, !llfi_index !42
  store i32 0, i32* %12, align 4, !llfi_index !43
  %27 = load i32, i32* %7, align 4, !llfi_index !44
  store i32 %27, i32* %13, align 4, !llfi_index !45
  store i32 89, i32* %5, align 4, !llfi_index !46
  br label %28, !llfi_index !47

28:                                               ; preds = %51, %26
  %29 = load i32, i32* %7, align 4, !llfi_index !48
  %30 = icmp ne i32 %29, 0, !llfi_index !49
  br i1 %30, label %31, label %54, !llfi_index !50

31:                                               ; preds = %28
  %32 = load i32, i32* %7, align 4, !llfi_index !51
  %33 = srem i32 %32, 10, !llfi_index !52
  store i32 %33, i32* %14, align 4, !llfi_index !53
  %34 = load i32, i32* %14, align 4, !llfi_index !54
  %35 = icmp eq i32 %34, 4, !llfi_index !55
  br i1 %35, label %36, label %43, !llfi_index !56

36:                                               ; preds = %31
  %37 = load i32, i32* %11, align 4, !llfi_index !57
  %38 = add nsw i32 %37, 1, !llfi_index !58
  store i32 %38, i32* %11, align 4, !llfi_index !59
  br label %51, !llfi_index !60

39:                                               ; preds = %65, %24, %22
  %40 = landingpad { i8*, i32 }
          cleanup, !llfi_index !61
  %41 = extractvalue { i8*, i32 } %40, 0, !llfi_index !62
  store i8* %41, i8** %8, align 8, !llfi_index !63
  %42 = extractvalue { i8*, i32 } %40, 1, !llfi_index !64
  store i32 %42, i32* %9, align 4, !llfi_index !65
  call void @_ZNSt7__cxx1112basic_stringIcSt11char_traitsIcESaIcEED1Ev(%"class.std::__cxx11::basic_string"* nonnull align 8 dereferenceable(32) %6) #2, !llfi_index !66
  br label %86, !llfi_index !67

43:                                               ; preds = %31
  %44 = load i32, i32* %14, align 4, !llfi_index !68
  %45 = icmp eq i32 %44, 7, !llfi_index !69
  br i1 %45, label %46, label %49, !llfi_index !70

46:                                               ; preds = %43
  %47 = load i32, i32* %12, align 4, !llfi_index !71
  %48 = add nsw i32 %47, 1, !llfi_index !72
  store i32 %48, i32* %12, align 4, !llfi_index !73
  br label %50, !llfi_index !74

49:                                               ; preds = %43
  store i8 0, i8* %10, align 1, !llfi_index !75
  br label %50, !llfi_index !76

50:                                               ; preds = %49, %46
  br label %51, !llfi_index !77

51:                                               ; preds = %50, %36
  %52 = load i32, i32* %7, align 4, !llfi_index !78
  %53 = sdiv i32 %52, 10, !llfi_index !79
  store i32 %53, i32* %7, align 4, !llfi_index !80
  br label %28, !llvm.loop !81, !llfi_index !83

54:                                               ; preds = %28
  %55 = load i8, i8* %10, align 1, !llfi_index !84
  %56 = trunc i8 %55 to i1, !llfi_index !85
  br i1 %56, label %57, label %70, !llfi_index !86

57:                                               ; preds = %54
  %58 = load i32, i32* %11, align 4, !llfi_index !87
  %59 = load i32, i32* %12, align 4, !llfi_index !88
  %60 = icmp eq i32 %58, %59, !llfi_index !89
  br i1 %60, label %61, label %70, !llfi_index !90

61:                                               ; preds = %57
  %62 = load i32, i32* %4, align 4, !llfi_index !91
  %63 = load i32, i32* %13, align 4, !llfi_index !92
  %64 = icmp sgt i32 %62, %63, !llfi_index !93
  br i1 %64, label %65, label %69, !llfi_index !94

65:                                               ; preds = %61
  %66 = load i32, i32* %13, align 4, !llfi_index !95
  store i32 %66, i32* %4, align 4, !llfi_index !96
  %67 = invoke nonnull align 8 dereferenceable(32) %"class.std::__cxx11::basic_string"* @_ZNSt7__cxx1112basic_stringIcSt11char_traitsIcESaIcEEaSERKS4_(%"class.std::__cxx11::basic_string"* nonnull align 8 dereferenceable(32) %3, %"class.std::__cxx11::basic_string"* nonnull align 8 dereferenceable(32) %6)
          to label %68 unwind label %39, !llfi_index !97

68:                                               ; preds = %65
  br label %69, !llfi_index !98

69:                                               ; preds = %68, %61
  br label %70, !llfi_index !99

70:                                               ; preds = %69, %57, %54
  call void @_ZNSt7__cxx1112basic_stringIcSt11char_traitsIcESaIcEED1Ev(%"class.std::__cxx11::basic_string"* nonnull align 8 dereferenceable(32) %6) #2, !llfi_index !100
  br label %18, !llvm.loop !101, !llfi_index !102

71:                                               ; preds = %18
  %72 = call i64 @_ZNKSt7__cxx1112basic_stringIcSt11char_traitsIcESaIcEE4sizeEv(%"class.std::__cxx11::basic_string"* nonnull align 8 dereferenceable(32) %3) #2, !llfi_index !103
  %73 = icmp ne i64 %72, 0, !llfi_index !104
  br i1 %73, label %74, label %81, !llfi_index !105

74:                                               ; preds = %71
  %75 = invoke nonnull align 8 dereferenceable(8) %"class.std::basic_ostream"* @_ZStlsIcSt11char_traitsIcESaIcEERSt13basic_ostreamIT_T0_ES7_RKNSt7__cxx1112basic_stringIS4_S5_T1_EE(%"class.std::basic_ostream"* nonnull align 8 dereferenceable(8) @_ZSt4cout, %"class.std::__cxx11::basic_string"* nonnull align 8 dereferenceable(32) %3)
          to label %76 unwind label %77, !llfi_index !106

76:                                               ; preds = %74
  br label %84, !llfi_index !107

77:                                               ; preds = %81, %74
  %78 = landingpad { i8*, i32 }
          cleanup, !llfi_index !108
  %79 = extractvalue { i8*, i32 } %78, 0, !llfi_index !109
  store i8* %79, i8** %8, align 8, !llfi_index !110
  %80 = extractvalue { i8*, i32 } %78, 1, !llfi_index !111
  store i32 %80, i32* %9, align 4, !llfi_index !112
  br label %86, !llfi_index !113

81:                                               ; preds = %71
  %82 = invoke nonnull align 8 dereferenceable(8) %"class.std::basic_ostream"* @_ZStlsISt11char_traitsIcEERSt13basic_ostreamIcT_ES5_PKc(%"class.std::basic_ostream"* nonnull align 8 dereferenceable(8) @_ZSt4cout, i8* getelementptr inbounds ([3 x i8], [3 x i8]* @.str.2, i64 0, i64 0))
          to label %83 unwind label %77, !llfi_index !114

83:                                               ; preds = %81
  br label %84, !llfi_index !115

84:                                               ; preds = %83, %76
  store i32 0, i32* %1, align 4, !llfi_index !116
  call void @_ZNSt7__cxx1112basic_stringIcSt11char_traitsIcESaIcEED1Ev(%"class.std::__cxx11::basic_string"* nonnull align 8 dereferenceable(32) %3) #2, !llfi_index !117
  %85 = load i32, i32* %1, align 4, !llfi_index !118
  ret i32 %85, !llfi_index !119

86:                                               ; preds = %77, %39
  call void @_ZNSt7__cxx1112basic_stringIcSt11char_traitsIcESaIcEED1Ev(%"class.std::__cxx11::basic_string"* nonnull align 8 dereferenceable(32) %3) #2, !llfi_index !120
  br label %87, !llfi_index !121

87:                                               ; preds = %86
  %88 = load i8*, i8** %8, align 8, !llfi_index !122
  %89 = load i32, i32* %9, align 4, !llfi_index !123
  %90 = insertvalue { i8*, i32 } undef, i8* %88, 0, !llfi_index !124
  %91 = insertvalue { i8*, i32 } %90, i32 %89, 1, !llfi_index !125
  resume { i8*, i32 } %91, !llfi_index !126
}

declare dso_local i32 @__gxx_personality_v0(...)

declare dso_local %struct._IO_FILE* @freopen(i8*, i8*, %struct._IO_FILE*) #1

declare dso_local nonnull align 8 dereferenceable(16) %"class.std::basic_istream"* @_ZNSirsERi(%"class.std::basic_istream"* nonnull align 8 dereferenceable(16), i32* nonnull align 4 dereferenceable(4)) #1

; Function Attrs: nounwind
declare dso_local void @_ZNSt7__cxx1112basic_stringIcSt11char_traitsIcESaIcEEC1Ev(%"class.std::__cxx11::basic_string"* nonnull align 8 dereferenceable(32)) unnamed_addr #3

declare dso_local nonnull align 8 dereferenceable(16) %"class.std::basic_istream"* @_ZStrsIcSt11char_traitsIcESaIcEERSt13basic_istreamIT_T0_ES7_RNSt7__cxx1112basic_stringIS4_S5_T1_EE(%"class.std::basic_istream"* nonnull align 8 dereferenceable(16), %"class.std::__cxx11::basic_string"* nonnull align 8 dereferenceable(32)) #1

; Function Attrs: nounwind
declare dso_local void @_ZNSt7__cxx1112basic_stringIcSt11char_traitsIcESaIcEED1Ev(%"class.std::__cxx11::basic_string"* nonnull align 8 dereferenceable(32)) unnamed_addr #3

declare dso_local nonnull align 8 dereferenceable(32) %"class.std::__cxx11::basic_string"* @_ZNSt7__cxx1112basic_stringIcSt11char_traitsIcESaIcEEaSERKS4_(%"class.std::__cxx11::basic_string"* nonnull align 8 dereferenceable(32), %"class.std::__cxx11::basic_string"* nonnull align 8 dereferenceable(32)) #1

; Function Attrs: nounwind
declare dso_local i64 @_ZNKSt7__cxx1112basic_stringIcSt11char_traitsIcESaIcEE4sizeEv(%"class.std::__cxx11::basic_string"* nonnull align 8 dereferenceable(32)) #3

declare dso_local nonnull align 8 dereferenceable(8) %"class.std::basic_ostream"* @_ZStlsIcSt11char_traitsIcESaIcEERSt13basic_ostreamIT_T0_ES7_RKNSt7__cxx1112basic_stringIS4_S5_T1_EE(%"class.std::basic_ostream"* nonnull align 8 dereferenceable(8), %"class.std::__cxx11::basic_string"* nonnull align 8 dereferenceable(32)) #1

declare dso_local nonnull align 8 dereferenceable(8) %"class.std::basic_ostream"* @_ZStlsISt11char_traitsIcEERSt13basic_ostreamIcT_ES5_PKc(%"class.std::basic_ostream"* nonnull align 8 dereferenceable(8), i8*) #1

attributes #0 = { noinline uwtable "frame-pointer"="all" "min-legal-vector-width"="0" "no-trapping-math"="true" "stack-protector-buffer-size"="8" "target-cpu"="x86-64" "target-features"="+cx8,+fxsr,+mmx,+sse,+sse2,+x87" "tune-cpu"="generic" }
attributes #1 = { "frame-pointer"="all" "no-trapping-math"="true" "stack-protector-buffer-size"="8" "target-cpu"="x86-64" "target-features"="+cx8,+fxsr,+mmx,+sse,+sse2,+x87" "tune-cpu"="generic" }
attributes #2 = { nounwind }
attributes #3 = { nounwind "frame-pointer"="all" "no-trapping-math"="true" "stack-protector-buffer-size"="8" "target-cpu"="x86-64" "target-features"="+cx8,+fxsr,+mmx,+sse,+sse2,+x87" "tune-cpu"="generic" }
attributes #4 = { mustprogress noinline norecurse uwtable "frame-pointer"="all" "min-legal-vector-width"="0" "no-trapping-math"="true" "stack-protector-buffer-size"="8" "target-cpu"="x86-64" "target-features"="+cx8,+fxsr,+mmx,+sse,+sse2,+x87" "tune-cpu"="generic" }

!llvm.ident = !{!0}
!llvm.module.flags = !{!1, !2, !3}

!0 = !{!"clang version 13.0.0 (https://github.com/llvm/llvm-project.git d7b669b3a30345cfcdb2fde2af6f48aa4b94845d)"}
!1 = !{i32 1, !"wchar_size", i32 4}
!2 = !{i32 7, !"uwtable", i32 1}
!3 = !{i32 7, !"frame-pointer", i32 2}
!4 = !{i64 1}
!5 = !{i64 2}
!6 = !{i64 3}
!7 = !{i64 4}
!8 = !{i64 5}
!9 = !{i64 6}
!10 = !{i64 7}
!11 = !{i64 8}
!12 = !{i64 9}
!13 = !{i64 10}
!14 = !{i64 11}
!15 = !{i64 12}
!16 = !{i64 13}
!17 = !{i64 14}
!18 = !{i64 15}
!19 = !{i64 16}
!20 = !{i64 17}
!21 = !{i64 18}
!22 = !{i64 19}
!23 = !{i64 20}
!24 = !{i64 21}
!25 = !{i64 22}
!26 = !{i64 23}
!27 = !{i64 24}
!28 = !{i64 25}
!29 = !{i64 26}
!30 = !{i64 27}
!31 = !{i64 28}
!32 = !{i64 29}
!33 = !{i64 30}
!34 = !{i64 31}
!35 = !{i64 32}
!36 = !{i64 33}
!37 = !{i64 34}
!38 = !{i64 35}
!39 = !{i64 36}
!40 = !{i64 37}
!41 = !{i64 38}
!42 = !{i64 39}
!43 = !{i64 40}
!44 = !{i64 41}
!45 = !{i64 42}
!46 = !{i64 43}
!47 = !{i64 44}
!48 = !{i64 45}
!49 = !{i64 46}
!50 = !{i64 47}
!51 = !{i64 48}
!52 = !{i64 49}
!53 = !{i64 50}
!54 = !{i64 51}
!55 = !{i64 52}
!56 = !{i64 53}
!57 = !{i64 54}
!58 = !{i64 55}
!59 = !{i64 56}
!60 = !{i64 57}
!61 = !{i64 58}
!62 = !{i64 59}
!63 = !{i64 60}
!64 = !{i64 61}
!65 = !{i64 62}
!66 = !{i64 63}
!67 = !{i64 64}
!68 = !{i64 65}
!69 = !{i64 66}
!70 = !{i64 67}
!71 = !{i64 68}
!72 = !{i64 69}
!73 = !{i64 70}
!74 = !{i64 71}
!75 = !{i64 72}
!76 = !{i64 73}
!77 = !{i64 74}
!78 = !{i64 75}
!79 = !{i64 76}
!80 = !{i64 77}
!81 = distinct !{!81, !82}
!82 = !{!"llvm.loop.mustprogress"}
!83 = !{i64 78}
!84 = !{i64 79}
!85 = !{i64 80}
!86 = !{i64 81}
!87 = !{i64 82}
!88 = !{i64 83}
!89 = !{i64 84}
!90 = !{i64 85}
!91 = !{i64 86}
!92 = !{i64 87}
!93 = !{i64 88}
!94 = !{i64 89}
!95 = !{i64 90}
!96 = !{i64 91}
!97 = !{i64 92}
!98 = !{i64 93}
!99 = !{i64 94}
!100 = !{i64 95}
!101 = distinct !{!101, !82}
!102 = !{i64 96}
!103 = !{i64 97}
!104 = !{i64 98}
!105 = !{i64 99}
!106 = !{i64 100}
!107 = !{i64 101}
!108 = !{i64 102}
!109 = !{i64 103}
!110 = !{i64 104}
!111 = !{i64 105}
!112 = !{i64 106}
!113 = !{i64 107}
!114 = !{i64 108}
!115 = !{i64 109}
!116 = !{i64 110}
!117 = !{i64 111}
!118 = !{i64 112}
!119 = !{i64 113}
!120 = !{i64 114}
!121 = !{i64 115}
!122 = !{i64 116}
!123 = !{i64 117}
!124 = !{i64 118}
!125 = !{i64 119}
!126 = !{i64 120}
