; ModuleID = '/home/hjiang/Computation-Kernel-Dataset/experiments/Fault_injection_0308_parall/O0/MakeAnagram/MakeAnagram.ll'
source_filename = "llvm-link"
target datalayout = "e-m:e-p270:32:32-p271:32:32-p272:64:64-i64:64-f80:128-n8:16:32:64-S128"
target triple = "x86_64-unknown-linux-gnu"

%"class.std::ios_base::Init" = type { i8 }
%struct._IO_FILE = type { i32, i8*, i8*, i8*, i8*, i8*, i8*, i8*, i8*, i8*, i8*, i8*, %struct._IO_marker*, %struct._IO_FILE*, i32, i32, i64, i16, i8, [1 x i8], i8*, i64, %struct._IO_codecvt*, %struct._IO_wide_data*, %struct._IO_FILE*, i8*, i64, i32, [20 x i8] }
%struct._IO_marker = type opaque
%struct._IO_codecvt = type opaque
%struct._IO_wide_data = type opaque
%"class.std::basic_istream" = type { i32 (...)**, i64, %"class.std::basic_ios" }
%"class.std::basic_ios" = type { %"class.std::ios_base", %"class.std::basic_ostream"*, i8, i8, %"class.std::basic_streambuf"*, %"class.std::ctype"*, %"class.std::num_put"*, %"class.std::num_put"* }
%"class.std::ios_base" = type { i32 (...)**, i64, i64, i32, i32, i32, %"struct.std::ios_base::_Callback_list"*, %"struct.std::ios_base::_Words", [8 x %"struct.std::ios_base::_Words"], i32, %"struct.std::ios_base::_Words"*, %"class.std::locale" }
%"struct.std::ios_base::_Callback_list" = type { %"struct.std::ios_base::_Callback_list"*, void (i32, %"class.std::ios_base"*, i32)*, i32, i32 }
%"struct.std::ios_base::_Words" = type { i8*, i64 }
%"class.std::locale" = type { %"class.std::locale::_Impl"* }
%"class.std::locale::_Impl" = type { i32, %"class.std::locale::facet"**, i64, %"class.std::locale::facet"**, i8** }
%"class.std::locale::facet" = type <{ i32 (...)**, i32, [4 x i8] }>
%"class.std::basic_ostream" = type { i32 (...)**, %"class.std::basic_ios" }
%"class.std::basic_streambuf" = type { i32 (...)**, i8*, i8*, i8*, i8*, i8*, i8*, %"class.std::locale" }
%"class.std::ctype" = type <{ %"class.std::locale::facet.base", [4 x i8], %struct.__locale_struct*, i8, [7 x i8], i32*, i32*, i16*, i8, [256 x i8], [256 x i8], i8, [6 x i8] }>
%"class.std::locale::facet.base" = type <{ i32 (...)**, i32 }>
%struct.__locale_struct = type { [13 x %struct.__locale_data*], i16*, i32*, i32*, [13 x i8*] }
%struct.__locale_data = type opaque
%"class.std::num_put" = type { %"class.std::locale::facet.base", [4 x i8] }
%"class.std::__cxx11::basic_string" = type { %"struct.std::__cxx11::basic_string<char>::_Alloc_hider", i64, %union.anon }
%"struct.std::__cxx11::basic_string<char>::_Alloc_hider" = type { i8* }
%union.anon = type { i64, [8 x i8] }

@llvm.global_ctors = appending global [1 x { i32, void ()*, i8* }] [{ i32, void ()*, i8* } { i32 65535, void ()* @_GLOBAL__sub_I_MakeAnagram.cpp, i8* null }]
@_ZStL8__ioinit = internal global %"class.std::ios_base::Init" zeroinitializer, align 1
@.str = private unnamed_addr constant [27 x i8] c"../input_files/MakeAnagram\00", align 1
@.str.1 = private unnamed_addr constant [2 x i8] c"r\00", align 1
@stdin = external dso_local global %struct._IO_FILE*, align 8
@_ZSt3cin = external dso_local global %"class.std::basic_istream", align 8
@_ZSt4cout = external dso_local global %"class.std::basic_ostream", align 8

; Function Attrs: noinline uwtable
define internal void @_GLOBAL__sub_I_MakeAnagram.cpp() #0 section ".text.startup" {
  call void @__cxx_global_var_init(), !llfi_index !4
  ret void, !llfi_index !5
}

; Function Attrs: noinline uwtable
define internal void @__cxx_global_var_init() #0 section ".text.startup" {
  call void @_ZNSt8ios_base4InitC1Ev(%"class.std::ios_base::Init"* nonnull align 1 dereferenceable(1) @_ZStL8__ioinit), !llfi_index !6
  %1 = call i32 @atexit(void ()* @__dtor__ZStL8__ioinit) #2, !llfi_index !7
  ret void, !llfi_index !8
}

declare dso_local void @_ZNSt8ios_base4InitC1Ev(%"class.std::ios_base::Init"* nonnull align 1 dereferenceable(1)) unnamed_addr #1

; Function Attrs: noinline uwtable
define internal void @__dtor__ZStL8__ioinit() #0 section ".text.startup" {
  call void @_ZNSt8ios_base4InitD1Ev(%"class.std::ios_base::Init"* @_ZStL8__ioinit), !llfi_index !9
  ret void, !llfi_index !10
}

; Function Attrs: nounwind
declare dso_local i32 @atexit(void ()*) #2

; Function Attrs: nounwind
declare dso_local void @_ZNSt8ios_base4InitD1Ev(%"class.std::ios_base::Init"* nonnull align 1 dereferenceable(1)) unnamed_addr #3

; Function Attrs: mustprogress noinline norecurse uwtable
define dso_local i32 @main() #4 personality i8* bitcast (i32 (...)* @__gxx_personality_v0 to i8*) {
  %1 = alloca i32, align 4, !llfi_index !11
  %2 = alloca %"class.std::__cxx11::basic_string", align 8, !llfi_index !12
  %3 = alloca %"class.std::__cxx11::basic_string", align 8, !llfi_index !13
  %4 = alloca [26 x i32], align 16, !llfi_index !14
  %5 = alloca [26 x i32], align 16, !llfi_index !15
  %6 = alloca i32, align 4, !llfi_index !16
  %7 = alloca i32, align 4, !llfi_index !17
  %8 = alloca i8*, align 8, !llfi_index !18
  %9 = alloca i32, align 4, !llfi_index !19
  %10 = alloca i32, align 4, !llfi_index !20
  %11 = alloca i32, align 4, !llfi_index !21
  %12 = alloca i32, align 4, !llfi_index !22
  %13 = alloca i32, align 4, !llfi_index !23
  %14 = alloca i32, align 4, !llfi_index !24
  %15 = alloca i32, align 4, !llfi_index !25
  store i32 0, i32* %1, align 4, !llfi_index !26
  %16 = load %struct._IO_FILE*, %struct._IO_FILE** @stdin, align 8, !llfi_index !27
  %17 = call %struct._IO_FILE* @freopen(i8* getelementptr inbounds ([27 x i8], [27 x i8]* @.str, i64 0, i64 0), i8* getelementptr inbounds ([2 x i8], [2 x i8]* @.str.1, i64 0, i64 0), %struct._IO_FILE* %16), !llfi_index !28
  call void @_ZNSt7__cxx1112basic_stringIcSt11char_traitsIcESaIcEEC1Ev(%"class.std::__cxx11::basic_string"* nonnull align 8 dereferenceable(32) %2) #2, !llfi_index !29
  call void @_ZNSt7__cxx1112basic_stringIcSt11char_traitsIcESaIcEEC1Ev(%"class.std::__cxx11::basic_string"* nonnull align 8 dereferenceable(32) %3) #2, !llfi_index !30
  store i32 89, i32* %6, align 4, !llfi_index !31
  store i32 0, i32* %7, align 4, !llfi_index !32
  br label %18, !llfi_index !33

18:                                               ; preds = %28, %0
  %19 = load i32, i32* %7, align 4, !llfi_index !34
  %20 = icmp slt i32 %19, 26, !llfi_index !35
  br i1 %20, label %21, label %31, !llfi_index !36

21:                                               ; preds = %18
  %22 = load i32, i32* %7, align 4, !llfi_index !37
  %23 = sext i32 %22 to i64, !llfi_index !38
  %24 = getelementptr inbounds [26 x i32], [26 x i32]* %5, i64 0, i64 %23, !llfi_index !39
  store i32 0, i32* %24, align 4, !llfi_index !40
  %25 = load i32, i32* %7, align 4, !llfi_index !41
  %26 = sext i32 %25 to i64, !llfi_index !42
  %27 = getelementptr inbounds [26 x i32], [26 x i32]* %4, i64 0, i64 %26, !llfi_index !43
  store i32 0, i32* %27, align 4, !llfi_index !44
  br label %28, !llfi_index !45

28:                                               ; preds = %21
  %29 = load i32, i32* %7, align 4, !llfi_index !46
  %30 = add nsw i32 %29, 1, !llfi_index !47
  store i32 %30, i32* %7, align 4, !llfi_index !48
  br label %18, !llvm.loop !49, !llfi_index !51

31:                                               ; preds = %18
  %32 = invoke nonnull align 8 dereferenceable(16) %"class.std::basic_istream"* @_ZStrsIcSt11char_traitsIcESaIcEERSt13basic_istreamIT_T0_ES7_RNSt7__cxx1112basic_stringIS4_S5_T1_EE(%"class.std::basic_istream"* nonnull align 8 dereferenceable(16) @_ZSt3cin, %"class.std::__cxx11::basic_string"* nonnull align 8 dereferenceable(32) %2)
          to label %33 unwind label %57, !llfi_index !52

33:                                               ; preds = %31
  %34 = invoke nonnull align 8 dereferenceable(16) %"class.std::basic_istream"* @_ZStrsIcSt11char_traitsIcESaIcEERSt13basic_istreamIT_T0_ES7_RNSt7__cxx1112basic_stringIS4_S5_T1_EE(%"class.std::basic_istream"* nonnull align 8 dereferenceable(16) @_ZSt3cin, %"class.std::__cxx11::basic_string"* nonnull align 8 dereferenceable(32) %3)
          to label %35 unwind label %57, !llfi_index !53

35:                                               ; preds = %33
  store i32 0, i32* %10, align 4, !llfi_index !54
  store i32 89, i32* %6, align 4, !llfi_index !55
  store i32 0, i32* %11, align 4, !llfi_index !56
  br label %36, !llfi_index !57

36:                                               ; preds = %54, %35
  %37 = load i32, i32* %11, align 4, !llfi_index !58
  %38 = sext i32 %37 to i64, !llfi_index !59
  %39 = call i64 @_ZNKSt7__cxx1112basic_stringIcSt11char_traitsIcESaIcEE6lengthEv(%"class.std::__cxx11::basic_string"* nonnull align 8 dereferenceable(32) %2) #2, !llfi_index !60
  %40 = icmp ult i64 %38, %39, !llfi_index !61
  br i1 %40, label %41, label %61, !llfi_index !62

41:                                               ; preds = %36
  %42 = load i32, i32* %11, align 4, !llfi_index !63
  %43 = sext i32 %42 to i64, !llfi_index !64
  %44 = invoke nonnull align 1 dereferenceable(1) i8* @_ZNSt7__cxx1112basic_stringIcSt11char_traitsIcESaIcEEixEm(%"class.std::__cxx11::basic_string"* nonnull align 8 dereferenceable(32) %2, i64 %43)
          to label %45 unwind label %57, !llfi_index !65

45:                                               ; preds = %41
  %46 = load i8, i8* %44, align 1, !llfi_index !66
  %47 = sext i8 %46 to i32, !llfi_index !67
  %48 = sub nsw i32 %47, 97, !llfi_index !68
  store i32 %48, i32* %12, align 4, !llfi_index !69
  %49 = load i32, i32* %12, align 4, !llfi_index !70
  %50 = sext i32 %49 to i64, !llfi_index !71
  %51 = getelementptr inbounds [26 x i32], [26 x i32]* %4, i64 0, i64 %50, !llfi_index !72
  %52 = load i32, i32* %51, align 4, !llfi_index !73
  %53 = add nsw i32 %52, 1, !llfi_index !74
  store i32 %53, i32* %51, align 4, !llfi_index !75
  br label %54, !llfi_index !76

54:                                               ; preds = %45
  %55 = load i32, i32* %11, align 4, !llfi_index !77
  %56 = add nsw i32 %55, 1, !llfi_index !78
  store i32 %56, i32* %11, align 4, !llfi_index !79
  br label %36, !llvm.loop !80, !llfi_index !81

57:                                               ; preds = %103, %67, %41, %33, %31
  %58 = landingpad { i8*, i32 }
          cleanup, !llfi_index !82
  %59 = extractvalue { i8*, i32 } %58, 0, !llfi_index !83
  store i8* %59, i8** %8, align 8, !llfi_index !84
  %60 = extractvalue { i8*, i32 } %58, 1, !llfi_index !85
  store i32 %60, i32* %9, align 4, !llfi_index !86
  call void @_ZNSt7__cxx1112basic_stringIcSt11char_traitsIcESaIcEED1Ev(%"class.std::__cxx11::basic_string"* nonnull align 8 dereferenceable(32) %3) #2, !llfi_index !87
  call void @_ZNSt7__cxx1112basic_stringIcSt11char_traitsIcESaIcEED1Ev(%"class.std::__cxx11::basic_string"* nonnull align 8 dereferenceable(32) %2) #2, !llfi_index !88
  br label %108, !llfi_index !89

61:                                               ; preds = %36
  store i32 89, i32* %6, align 4, !llfi_index !90
  store i32 0, i32* %13, align 4, !llfi_index !91
  br label %62, !llfi_index !92

62:                                               ; preds = %80, %61
  %63 = load i32, i32* %13, align 4, !llfi_index !93
  %64 = sext i32 %63 to i64, !llfi_index !94
  %65 = call i64 @_ZNKSt7__cxx1112basic_stringIcSt11char_traitsIcESaIcEE6lengthEv(%"class.std::__cxx11::basic_string"* nonnull align 8 dereferenceable(32) %3) #2, !llfi_index !95
  %66 = icmp ult i64 %64, %65, !llfi_index !96
  br i1 %66, label %67, label %83, !llfi_index !97

67:                                               ; preds = %62
  %68 = load i32, i32* %13, align 4, !llfi_index !98
  %69 = sext i32 %68 to i64, !llfi_index !99
  %70 = invoke nonnull align 1 dereferenceable(1) i8* @_ZNSt7__cxx1112basic_stringIcSt11char_traitsIcESaIcEEixEm(%"class.std::__cxx11::basic_string"* nonnull align 8 dereferenceable(32) %3, i64 %69)
          to label %71 unwind label %57, !llfi_index !100

71:                                               ; preds = %67
  %72 = load i8, i8* %70, align 1, !llfi_index !101
  %73 = sext i8 %72 to i32, !llfi_index !102
  %74 = sub nsw i32 %73, 97, !llfi_index !103
  store i32 %74, i32* %14, align 4, !llfi_index !104
  %75 = load i32, i32* %14, align 4, !llfi_index !105
  %76 = sext i32 %75 to i64, !llfi_index !106
  %77 = getelementptr inbounds [26 x i32], [26 x i32]* %5, i64 0, i64 %76, !llfi_index !107
  %78 = load i32, i32* %77, align 4, !llfi_index !108
  %79 = add nsw i32 %78, 1, !llfi_index !109
  store i32 %79, i32* %77, align 4, !llfi_index !110
  br label %80, !llfi_index !111

80:                                               ; preds = %71
  %81 = load i32, i32* %13, align 4, !llfi_index !112
  %82 = add nsw i32 %81, 1, !llfi_index !113
  store i32 %82, i32* %13, align 4, !llfi_index !114
  br label %62, !llvm.loop !115, !llfi_index !116

83:                                               ; preds = %62
  store i32 89, i32* %6, align 4, !llfi_index !117
  store i32 0, i32* %15, align 4, !llfi_index !118
  br label %84, !llfi_index !119

84:                                               ; preds = %100, %83
  %85 = load i32, i32* %15, align 4, !llfi_index !120
  %86 = icmp slt i32 %85, 26, !llfi_index !121
  br i1 %86, label %87, label %103, !llfi_index !122

87:                                               ; preds = %84
  %88 = load i32, i32* %15, align 4, !llfi_index !123
  %89 = sext i32 %88 to i64, !llfi_index !124
  %90 = getelementptr inbounds [26 x i32], [26 x i32]* %4, i64 0, i64 %89, !llfi_index !125
  %91 = load i32, i32* %90, align 4, !llfi_index !126
  %92 = load i32, i32* %15, align 4, !llfi_index !127
  %93 = sext i32 %92 to i64, !llfi_index !128
  %94 = getelementptr inbounds [26 x i32], [26 x i32]* %5, i64 0, i64 %93, !llfi_index !129
  %95 = load i32, i32* %94, align 4, !llfi_index !130
  %96 = sub nsw i32 %91, %95, !llfi_index !131
  %97 = call i32 @abs(i32 %96) #6, !llfi_index !132
  %98 = load i32, i32* %10, align 4, !llfi_index !133
  %99 = add nsw i32 %98, %97, !llfi_index !134
  store i32 %99, i32* %10, align 4, !llfi_index !135
  br label %100, !llfi_index !136

100:                                              ; preds = %87
  %101 = load i32, i32* %15, align 4, !llfi_index !137
  %102 = add nsw i32 %101, 1, !llfi_index !138
  store i32 %102, i32* %15, align 4, !llfi_index !139
  br label %84, !llvm.loop !140, !llfi_index !141

103:                                              ; preds = %84
  %104 = load i32, i32* %10, align 4, !llfi_index !142
  %105 = invoke nonnull align 8 dereferenceable(8) %"class.std::basic_ostream"* @_ZNSolsEi(%"class.std::basic_ostream"* nonnull align 8 dereferenceable(8) @_ZSt4cout, i32 %104)
          to label %106 unwind label %57, !llfi_index !143

106:                                              ; preds = %103
  store i32 0, i32* %1, align 4, !llfi_index !144
  call void @_ZNSt7__cxx1112basic_stringIcSt11char_traitsIcESaIcEED1Ev(%"class.std::__cxx11::basic_string"* nonnull align 8 dereferenceable(32) %3) #2, !llfi_index !145
  call void @_ZNSt7__cxx1112basic_stringIcSt11char_traitsIcESaIcEED1Ev(%"class.std::__cxx11::basic_string"* nonnull align 8 dereferenceable(32) %2) #2, !llfi_index !146
  %107 = load i32, i32* %1, align 4, !llfi_index !147
  ret i32 %107, !llfi_index !148

108:                                              ; preds = %57
  %109 = load i8*, i8** %8, align 8, !llfi_index !149
  %110 = load i32, i32* %9, align 4, !llfi_index !150
  %111 = insertvalue { i8*, i32 } undef, i8* %109, 0, !llfi_index !151
  %112 = insertvalue { i8*, i32 } %111, i32 %110, 1, !llfi_index !152
  resume { i8*, i32 } %112, !llfi_index !153
}

declare dso_local i32 @__gxx_personality_v0(...)

declare dso_local %struct._IO_FILE* @freopen(i8*, i8*, %struct._IO_FILE*) #1

; Function Attrs: nounwind
declare dso_local void @_ZNSt7__cxx1112basic_stringIcSt11char_traitsIcESaIcEEC1Ev(%"class.std::__cxx11::basic_string"* nonnull align 8 dereferenceable(32)) unnamed_addr #3

declare dso_local nonnull align 8 dereferenceable(16) %"class.std::basic_istream"* @_ZStrsIcSt11char_traitsIcESaIcEERSt13basic_istreamIT_T0_ES7_RNSt7__cxx1112basic_stringIS4_S5_T1_EE(%"class.std::basic_istream"* nonnull align 8 dereferenceable(16), %"class.std::__cxx11::basic_string"* nonnull align 8 dereferenceable(32)) #1

; Function Attrs: nounwind
declare dso_local i64 @_ZNKSt7__cxx1112basic_stringIcSt11char_traitsIcESaIcEE6lengthEv(%"class.std::__cxx11::basic_string"* nonnull align 8 dereferenceable(32)) #3

declare dso_local nonnull align 1 dereferenceable(1) i8* @_ZNSt7__cxx1112basic_stringIcSt11char_traitsIcESaIcEEixEm(%"class.std::__cxx11::basic_string"* nonnull align 8 dereferenceable(32), i64) #1

; Function Attrs: nounwind
declare dso_local void @_ZNSt7__cxx1112basic_stringIcSt11char_traitsIcESaIcEED1Ev(%"class.std::__cxx11::basic_string"* nonnull align 8 dereferenceable(32)) unnamed_addr #3

; Function Attrs: nounwind readnone willreturn
declare dso_local i32 @abs(i32) #5

declare dso_local nonnull align 8 dereferenceable(8) %"class.std::basic_ostream"* @_ZNSolsEi(%"class.std::basic_ostream"* nonnull align 8 dereferenceable(8), i32) #1

attributes #0 = { noinline uwtable "frame-pointer"="all" "min-legal-vector-width"="0" "no-trapping-math"="true" "stack-protector-buffer-size"="8" "target-cpu"="x86-64" "target-features"="+cx8,+fxsr,+mmx,+sse,+sse2,+x87" "tune-cpu"="generic" }
attributes #1 = { "frame-pointer"="all" "no-trapping-math"="true" "stack-protector-buffer-size"="8" "target-cpu"="x86-64" "target-features"="+cx8,+fxsr,+mmx,+sse,+sse2,+x87" "tune-cpu"="generic" }
attributes #2 = { nounwind }
attributes #3 = { nounwind "frame-pointer"="all" "no-trapping-math"="true" "stack-protector-buffer-size"="8" "target-cpu"="x86-64" "target-features"="+cx8,+fxsr,+mmx,+sse,+sse2,+x87" "tune-cpu"="generic" }
attributes #4 = { mustprogress noinline norecurse uwtable "frame-pointer"="all" "min-legal-vector-width"="0" "no-trapping-math"="true" "stack-protector-buffer-size"="8" "target-cpu"="x86-64" "target-features"="+cx8,+fxsr,+mmx,+sse,+sse2,+x87" "tune-cpu"="generic" }
attributes #5 = { nounwind readnone willreturn "frame-pointer"="all" "no-trapping-math"="true" "stack-protector-buffer-size"="8" "target-cpu"="x86-64" "target-features"="+cx8,+fxsr,+mmx,+sse,+sse2,+x87" "tune-cpu"="generic" }
attributes #6 = { nounwind readnone willreturn }

!llvm.ident = !{!0}
!llvm.module.flags = !{!1, !2, !3}

!0 = !{!"clang version 13.0.0 (https://github.com/llvm/llvm-project.git d7b669b3a30345cfcdb2fde2af6f48aa4b94845d)"}
!1 = !{i32 1, !"wchar_size", i32 4}
!2 = !{i32 7, !"uwtable", i32 1}
!3 = !{i32 7, !"frame-pointer", i32 2}
!4 = !{i64 1}
!5 = !{i64 2}
!6 = !{i64 3}
!7 = !{i64 4}
!8 = !{i64 5}
!9 = !{i64 6}
!10 = !{i64 7}
!11 = !{i64 8}
!12 = !{i64 9}
!13 = !{i64 10}
!14 = !{i64 11}
!15 = !{i64 12}
!16 = !{i64 13}
!17 = !{i64 14}
!18 = !{i64 15}
!19 = !{i64 16}
!20 = !{i64 17}
!21 = !{i64 18}
!22 = !{i64 19}
!23 = !{i64 20}
!24 = !{i64 21}
!25 = !{i64 22}
!26 = !{i64 23}
!27 = !{i64 24}
!28 = !{i64 25}
!29 = !{i64 26}
!30 = !{i64 27}
!31 = !{i64 28}
!32 = !{i64 29}
!33 = !{i64 30}
!34 = !{i64 31}
!35 = !{i64 32}
!36 = !{i64 33}
!37 = !{i64 34}
!38 = !{i64 35}
!39 = !{i64 36}
!40 = !{i64 37}
!41 = !{i64 38}
!42 = !{i64 39}
!43 = !{i64 40}
!44 = !{i64 41}
!45 = !{i64 42}
!46 = !{i64 43}
!47 = !{i64 44}
!48 = !{i64 45}
!49 = distinct !{!49, !50}
!50 = !{!"llvm.loop.mustprogress"}
!51 = !{i64 46}
!52 = !{i64 47}
!53 = !{i64 48}
!54 = !{i64 49}
!55 = !{i64 50}
!56 = !{i64 51}
!57 = !{i64 52}
!58 = !{i64 53}
!59 = !{i64 54}
!60 = !{i64 55}
!61 = !{i64 56}
!62 = !{i64 57}
!63 = !{i64 58}
!64 = !{i64 59}
!65 = !{i64 60}
!66 = !{i64 61}
!67 = !{i64 62}
!68 = !{i64 63}
!69 = !{i64 64}
!70 = !{i64 65}
!71 = !{i64 66}
!72 = !{i64 67}
!73 = !{i64 68}
!74 = !{i64 69}
!75 = !{i64 70}
!76 = !{i64 71}
!77 = !{i64 72}
!78 = !{i64 73}
!79 = !{i64 74}
!80 = distinct !{!80, !50}
!81 = !{i64 75}
!82 = !{i64 76}
!83 = !{i64 77}
!84 = !{i64 78}
!85 = !{i64 79}
!86 = !{i64 80}
!87 = !{i64 81}
!88 = !{i64 82}
!89 = !{i64 83}
!90 = !{i64 84}
!91 = !{i64 85}
!92 = !{i64 86}
!93 = !{i64 87}
!94 = !{i64 88}
!95 = !{i64 89}
!96 = !{i64 90}
!97 = !{i64 91}
!98 = !{i64 92}
!99 = !{i64 93}
!100 = !{i64 94}
!101 = !{i64 95}
!102 = !{i64 96}
!103 = !{i64 97}
!104 = !{i64 98}
!105 = !{i64 99}
!106 = !{i64 100}
!107 = !{i64 101}
!108 = !{i64 102}
!109 = !{i64 103}
!110 = !{i64 104}
!111 = !{i64 105}
!112 = !{i64 106}
!113 = !{i64 107}
!114 = !{i64 108}
!115 = distinct !{!115, !50}
!116 = !{i64 109}
!117 = !{i64 110}
!118 = !{i64 111}
!119 = !{i64 112}
!120 = !{i64 113}
!121 = !{i64 114}
!122 = !{i64 115}
!123 = !{i64 116}
!124 = !{i64 117}
!125 = !{i64 118}
!126 = !{i64 119}
!127 = !{i64 120}
!128 = !{i64 121}
!129 = !{i64 122}
!130 = !{i64 123}
!131 = !{i64 124}
!132 = !{i64 125}
!133 = !{i64 126}
!134 = !{i64 127}
!135 = !{i64 128}
!136 = !{i64 129}
!137 = !{i64 130}
!138 = !{i64 131}
!139 = !{i64 132}
!140 = distinct !{!140, !50}
!141 = !{i64 133}
!142 = !{i64 134}
!143 = !{i64 135}
!144 = !{i64 136}
!145 = !{i64 137}
!146 = !{i64 138}
!147 = !{i64 139}
!148 = !{i64 140}
!149 = !{i64 141}
!150 = !{i64 142}
!151 = !{i64 143}
!152 = !{i64 144}
!153 = !{i64 145}
