; ModuleID = '/home/hjiang/Computation-Kernel-Dataset/experiments/Fault_injection_0308_parall/O0/MarchoftheKing/MarchoftheKing.ll'
source_filename = "llvm-link"
target datalayout = "e-m:e-p270:32:32-p271:32:32-p272:64:64-i64:64-f80:128-n8:16:32:64-S128"
target triple = "x86_64-unknown-linux-gnu"

%"struct.std::less" = type { i8 }
%"class.std::map" = type { %"class.std::_Rb_tree" }
%"class.std::_Rb_tree" = type { %"struct.std::_Rb_tree<long long, std::pair<const long long, int>, std::_Select1st<std::pair<const long long, int>>, std::less<long long>>::_Rb_tree_impl" }
%"struct.std::_Rb_tree<long long, std::pair<const long long, int>, std::_Select1st<std::pair<const long long, int>>, std::less<long long>>::_Rb_tree_impl" = type { %"struct.std::_Rb_tree_key_compare", %"struct.std::_Rb_tree_header" }
%"struct.std::_Rb_tree_key_compare" = type { %"struct.std::less" }
%"struct.std::_Rb_tree_header" = type { %"struct.std::_Rb_tree_node_base", i64 }
%"struct.std::_Rb_tree_node_base" = type { i32, %"struct.std::_Rb_tree_node_base"*, %"struct.std::_Rb_tree_node_base"*, %"struct.std::_Rb_tree_node_base"* }
%struct._IO_FILE = type { i32, i8*, i8*, i8*, i8*, i8*, i8*, i8*, i8*, i8*, i8*, i8*, %struct._IO_marker*, %struct._IO_FILE*, i32, i32, i64, i16, i8, [1 x i8], i8*, i64, %struct._IO_codecvt*, %struct._IO_wide_data*, %struct._IO_FILE*, i8*, i64, i32, [20 x i8] }
%struct._IO_marker = type opaque
%struct._IO_codecvt = type opaque
%struct._IO_wide_data = type opaque
%"class.std::basic_ostream" = type { i32 (...)**, %"class.std::basic_ios" }
%"class.std::basic_ios" = type { %"class.std::ios_base", %"class.std::basic_ostream"*, i8, i8, %"class.std::basic_streambuf"*, %"class.std::ctype"*, %"class.std::num_put"*, %"class.std::num_put"* }
%"class.std::ios_base" = type { i32 (...)**, i64, i64, i32, i32, i32, %"struct.std::ios_base::_Callback_list"*, %"struct.std::ios_base::_Words", [8 x %"struct.std::ios_base::_Words"], i32, %"struct.std::ios_base::_Words"*, %"class.std::locale" }
%"struct.std::ios_base::_Callback_list" = type { %"struct.std::ios_base::_Callback_list"*, void (i32, %"class.std::ios_base"*, i32)*, i32, i32 }
%"struct.std::ios_base::_Words" = type { i8*, i64 }
%"class.std::locale" = type { %"class.std::locale::_Impl"* }
%"class.std::locale::_Impl" = type { i32, %"class.std::locale::facet"**, i64, %"class.std::locale::facet"**, i8** }
%"class.std::locale::facet" = type <{ i32 (...)**, i32, [4 x i8] }>
%"class.std::basic_streambuf" = type { i32 (...)**, i8*, i8*, i8*, i8*, i8*, i8*, %"class.std::locale" }
%"class.std::ctype" = type <{ %"class.std::locale::facet.base", [4 x i8], %struct.__locale_struct*, i8, [7 x i8], i32*, i32*, i16*, i8, [256 x i8], [256 x i8], i8, [6 x i8] }>
%"class.std::locale::facet.base" = type <{ i32 (...)**, i32 }>
%struct.__locale_struct = type { [13 x %struct.__locale_data*], i16*, i32*, i32*, [13 x i8*] }
%struct.__locale_data = type opaque
%"class.std::num_put" = type { %"class.std::locale::facet.base", [4 x i8] }
%"struct.std::_Rb_tree_node" = type { %"struct.std::_Rb_tree_node_base", %"struct.__gnu_cxx::__aligned_membuf" }
%"struct.__gnu_cxx::__aligned_membuf" = type { [16 x i8] }
%"struct.std::pair" = type <{ i64, i32, [4 x i8] }>
%"struct.std::_Rb_tree_iterator" = type { %"struct.std::_Rb_tree_node_base"* }
%"class.std::tuple" = type { %"struct.std::_Tuple_impl" }
%"struct.std::_Tuple_impl" = type { %"struct.std::_Head_base" }
%"struct.std::_Head_base" = type { i64* }
%"struct.std::pair.1" = type { %"struct.std::_Rb_tree_node_base"*, %"struct.std::_Rb_tree_node_base"* }

$_ZNSt3mapIxiSt4lessIxESaISt4pairIKxiEEEC2Ev = comdat any

$_ZNSt3mapIxiSt4lessIxESaISt4pairIKxiEEED2Ev = comdat any

$_ZNSt8_Rb_treeIxSt4pairIKxiESt10_Select1stIS2_ESt4lessIxESaIS2_EED2Ev = comdat any

$_ZNSt8_Rb_treeIxSt4pairIKxiESt10_Select1stIS2_ESt4lessIxESaIS2_EE8_M_beginEv = comdat any

$_ZNSt8_Rb_treeIxSt4pairIKxiESt10_Select1stIS2_ESt4lessIxESaIS2_EE8_M_eraseEPSt13_Rb_tree_nodeIS2_E = comdat any

$_ZNSt8_Rb_treeIxSt4pairIKxiESt10_Select1stIS2_ESt4lessIxESaIS2_EE13_Rb_tree_implIS6_Lb1EED2Ev = comdat any

$__clang_call_terminate = comdat any

$_ZNSaISt13_Rb_tree_nodeISt4pairIKxiEEED2Ev = comdat any

$_ZN9__gnu_cxx13new_allocatorISt13_Rb_tree_nodeISt4pairIKxiEEED2Ev = comdat any

$_ZNSt8_Rb_treeIxSt4pairIKxiESt10_Select1stIS2_ESt4lessIxESaIS2_EE8_S_rightEPSt18_Rb_tree_node_base = comdat any

$_ZNSt8_Rb_treeIxSt4pairIKxiESt10_Select1stIS2_ESt4lessIxESaIS2_EE7_S_leftEPSt18_Rb_tree_node_base = comdat any

$_ZNSt8_Rb_treeIxSt4pairIKxiESt10_Select1stIS2_ESt4lessIxESaIS2_EE12_M_drop_nodeEPSt13_Rb_tree_nodeIS2_E = comdat any

$_ZNSt8_Rb_treeIxSt4pairIKxiESt10_Select1stIS2_ESt4lessIxESaIS2_EE15_M_destroy_nodeEPSt13_Rb_tree_nodeIS2_E = comdat any

$_ZNSt8_Rb_treeIxSt4pairIKxiESt10_Select1stIS2_ESt4lessIxESaIS2_EE11_M_put_nodeEPSt13_Rb_tree_nodeIS2_E = comdat any

$_ZNSt8_Rb_treeIxSt4pairIKxiESt10_Select1stIS2_ESt4lessIxESaIS2_EE21_M_get_Node_allocatorEv = comdat any

$_ZNSt16allocator_traitsISaISt13_Rb_tree_nodeISt4pairIKxiEEEE10deallocateERS5_PS4_m = comdat any

$_ZN9__gnu_cxx13new_allocatorISt13_Rb_tree_nodeISt4pairIKxiEEE10deallocateEPS5_m = comdat any

$_ZNSt13_Rb_tree_nodeISt4pairIKxiEE9_M_valptrEv = comdat any

$_ZNSt16allocator_traitsISaISt13_Rb_tree_nodeISt4pairIKxiEEEE7destroyIS3_EEvRS5_PT_ = comdat any

$_ZN9__gnu_cxx13new_allocatorISt13_Rb_tree_nodeISt4pairIKxiEEE7destroyIS4_EEvPT_ = comdat any

$_ZN9__gnu_cxx16__aligned_membufISt4pairIKxiEE6_M_ptrEv = comdat any

$_ZN9__gnu_cxx16__aligned_membufISt4pairIKxiEE7_M_addrEv = comdat any

$_ZNSt8_Rb_treeIxSt4pairIKxiESt10_Select1stIS2_ESt4lessIxESaIS2_EEC2Ev = comdat any

$_ZNSt8_Rb_treeIxSt4pairIKxiESt10_Select1stIS2_ESt4lessIxESaIS2_EE13_Rb_tree_implIS6_Lb1EEC2Ev = comdat any

$_ZNSaISt13_Rb_tree_nodeISt4pairIKxiEEEC2Ev = comdat any

$_ZNSt20_Rb_tree_key_compareISt4lessIxEEC2Ev = comdat any

$_ZNSt15_Rb_tree_headerC2Ev = comdat any

$_ZNSt15_Rb_tree_header8_M_resetEv = comdat any

$_ZN9__gnu_cxx13new_allocatorISt13_Rb_tree_nodeISt4pairIKxiEEEC2Ev = comdat any

$_ZNSt3mapIxiSt4lessIxESaISt4pairIKxiEEE5clearEv = comdat any

$_ZNSt3mapIxiSt4lessIxESaISt4pairIKxiEEEixERS3_ = comdat any

$_ZNSt3mapIxiSt4lessIxESaISt4pairIKxiEEE11lower_boundERS3_ = comdat any

$_ZNSt3mapIxiSt4lessIxESaISt4pairIKxiEEE3endEv = comdat any

$_ZSteqRKSt17_Rb_tree_iteratorISt4pairIKxiEES5_ = comdat any

$_ZNKSt3mapIxiSt4lessIxESaISt4pairIKxiEEE8key_compEv = comdat any

$_ZNKSt17_Rb_tree_iteratorISt4pairIKxiEEdeEv = comdat any

$_ZNKSt4lessIxEclERKxS2_ = comdat any

$_ZNSt23_Rb_tree_const_iteratorISt4pairIKxiEEC2ERKSt17_Rb_tree_iteratorIS2_E = comdat any

$_ZNSt5tupleIJRKxEEC2IvLb1EEES1_ = comdat any

$_ZNSt8_Rb_treeIxSt4pairIKxiESt10_Select1stIS2_ESt4lessIxESaIS2_EE22_M_emplace_hint_uniqueIJRKSt21piecewise_construct_tSt5tupleIJRS1_EESD_IJEEEEESt17_Rb_tree_iteratorIS2_ESt23_Rb_tree_const_iteratorIS2_EDpOT_ = comdat any

$_ZSt7forwardIRKSt21piecewise_construct_tEOT_RNSt16remove_referenceIS3_E4typeE = comdat any

$_ZSt7forwardISt5tupleIJRKxEEEOT_RNSt16remove_referenceIS4_E4typeE = comdat any

$_ZSt7forwardISt5tupleIJEEEOT_RNSt16remove_referenceIS2_E4typeE = comdat any

$_ZNSt8_Rb_treeIxSt4pairIKxiESt10_Select1stIS2_ESt4lessIxESaIS2_EE14_M_create_nodeIJRKSt21piecewise_construct_tSt5tupleIJRS1_EESD_IJEEEEEPSt13_Rb_tree_nodeIS2_EDpOT_ = comdat any

$_ZNSt8_Rb_treeIxSt4pairIKxiESt10_Select1stIS2_ESt4lessIxESaIS2_EE6_S_keyEPKSt13_Rb_tree_nodeIS2_E = comdat any

$_ZNSt8_Rb_treeIxSt4pairIKxiESt10_Select1stIS2_ESt4lessIxESaIS2_EE29_M_get_insert_hint_unique_posESt23_Rb_tree_const_iteratorIS2_ERS1_ = comdat any

$_ZNSt8_Rb_treeIxSt4pairIKxiESt10_Select1stIS2_ESt4lessIxESaIS2_EE14_M_insert_nodeEPSt18_Rb_tree_node_baseSA_PSt13_Rb_tree_nodeIS2_E = comdat any

$_ZNSt17_Rb_tree_iteratorISt4pairIKxiEEC2EPSt18_Rb_tree_node_base = comdat any

$_ZNSt8_Rb_treeIxSt4pairIKxiESt10_Select1stIS2_ESt4lessIxESaIS2_EE6_M_endEv = comdat any

$_ZNSt8_Rb_treeIxSt4pairIKxiESt10_Select1stIS2_ESt4lessIxESaIS2_EE6_S_keyEPKSt18_Rb_tree_node_base = comdat any

$_ZNKSt23_Rb_tree_const_iteratorISt4pairIKxiEE13_M_const_castEv = comdat any

$_ZNKSt8_Rb_treeIxSt4pairIKxiESt10_Select1stIS2_ESt4lessIxESaIS2_EE4sizeEv = comdat any

$_ZNSt8_Rb_treeIxSt4pairIKxiESt10_Select1stIS2_ESt4lessIxESaIS2_EE12_M_rightmostEv = comdat any

$_ZNSt4pairIPSt18_Rb_tree_node_baseS1_EC2IRS1_Lb1EEERKS1_OT_ = comdat any

$_ZNSt8_Rb_treeIxSt4pairIKxiESt10_Select1stIS2_ESt4lessIxESaIS2_EE24_M_get_insert_unique_posERS1_ = comdat any

$_ZNSt8_Rb_treeIxSt4pairIKxiESt10_Select1stIS2_ESt4lessIxESaIS2_EE11_M_leftmostEv = comdat any

$_ZNSt4pairIPSt18_Rb_tree_node_baseS1_EC2IRS1_S4_Lb1EEEOT_OT0_ = comdat any

$_ZNSt17_Rb_tree_iteratorISt4pairIKxiEEmmEv = comdat any

$_ZNSt17_Rb_tree_iteratorISt4pairIKxiEEppEv = comdat any

$_ZNSt4pairIPSt18_Rb_tree_node_baseS1_EC2IRS1_Lb1EEEOT_RKS1_ = comdat any

$_ZSt7forwardIRPSt18_Rb_tree_node_baseEOT_RNSt16remove_referenceIS3_E4typeE = comdat any

$_ZNSt8_Rb_treeIxSt4pairIKxiESt10_Select1stIS2_ESt4lessIxESaIS2_EE5beginEv = comdat any

$_ZNSt4pairIPSt18_Rb_tree_node_baseS1_EC2IRPSt13_Rb_tree_nodeIS_IKxiEERS1_Lb1EEEOT_OT0_ = comdat any

$_ZSt7forwardIRPSt13_Rb_tree_nodeISt4pairIKxiEEEOT_RNSt16remove_referenceIS7_E4typeE = comdat any

$_ZNKSt13_Rb_tree_nodeISt4pairIKxiEE9_M_valptrEv = comdat any

$_ZNKSt10_Select1stISt4pairIKxiEEclERKS2_ = comdat any

$_ZNK9__gnu_cxx16__aligned_membufISt4pairIKxiEE6_M_ptrEv = comdat any

$_ZNK9__gnu_cxx16__aligned_membufISt4pairIKxiEE7_M_addrEv = comdat any

$_ZNSt8_Rb_treeIxSt4pairIKxiESt10_Select1stIS2_ESt4lessIxESaIS2_EE11_M_get_nodeEv = comdat any

$_ZNSt8_Rb_treeIxSt4pairIKxiESt10_Select1stIS2_ESt4lessIxESaIS2_EE17_M_construct_nodeIJRKSt21piecewise_construct_tSt5tupleIJRS1_EESD_IJEEEEEvPSt13_Rb_tree_nodeIS2_EDpOT_ = comdat any

$_ZNSt16allocator_traitsISaISt13_Rb_tree_nodeISt4pairIKxiEEEE9constructIS3_JRKSt21piecewise_construct_tSt5tupleIJRS2_EESB_IJEEEEEvRS5_PT_DpOT0_ = comdat any

$_ZN9__gnu_cxx13new_allocatorISt13_Rb_tree_nodeISt4pairIKxiEEE9constructIS4_JRKSt21piecewise_construct_tSt5tupleIJRS3_EESB_IJEEEEEvPT_DpOT0_ = comdat any

$_ZNSt5tupleIJRKxEEC2EOS2_ = comdat any

$_ZNSt4pairIKxiEC2IJRS0_EJEEESt21piecewise_construct_tSt5tupleIJDpT_EES5_IJDpT0_EE = comdat any

$_ZNSt4pairIKxiEC2IJRS0_EJLm0EEJEJEEERSt5tupleIJDpT_EERS4_IJDpT1_EESt12_Index_tupleIJXspT0_EEESD_IJXspT2_EEE = comdat any

$_ZSt3getILm0EJRKxEERNSt13tuple_elementIXT_ESt5tupleIJDpT0_EEE4typeERS6_ = comdat any

$_ZSt7forwardIRKxEOT_RNSt16remove_referenceIS2_E4typeE = comdat any

$_ZSt12__get_helperILm0ERKxJEERT0_RSt11_Tuple_implIXT_EJS2_DpT1_EE = comdat any

$_ZNSt11_Tuple_implILm0EJRKxEE7_M_headERS2_ = comdat any

$_ZNSt10_Head_baseILm0ERKxLb0EE7_M_headERS2_ = comdat any

$_ZNSt11_Tuple_implILm0EJRKxEEC2EOS2_ = comdat any

$_ZNSt10_Head_baseILm0ERKxLb0EEC2ES1_ = comdat any

$_ZNSt16allocator_traitsISaISt13_Rb_tree_nodeISt4pairIKxiEEEE8allocateERS5_m = comdat any

$_ZN9__gnu_cxx13new_allocatorISt13_Rb_tree_nodeISt4pairIKxiEEE8allocateEmPKv = comdat any

$_ZNK9__gnu_cxx13new_allocatorISt13_Rb_tree_nodeISt4pairIKxiEEE8max_sizeEv = comdat any

$_ZNSt11_Tuple_implILm0EJRKxEEC2ES1_ = comdat any

$_ZNKSt8_Rb_treeIxSt4pairIKxiESt10_Select1stIS2_ESt4lessIxESaIS2_EE8key_compEv = comdat any

$_ZNSt8_Rb_treeIxSt4pairIKxiESt10_Select1stIS2_ESt4lessIxESaIS2_EE3endEv = comdat any

$_ZNSt8_Rb_treeIxSt4pairIKxiESt10_Select1stIS2_ESt4lessIxESaIS2_EE11lower_boundERS1_ = comdat any

$_ZNSt8_Rb_treeIxSt4pairIKxiESt10_Select1stIS2_ESt4lessIxESaIS2_EE14_M_lower_boundEPSt13_Rb_tree_nodeIS2_EPSt18_Rb_tree_node_baseRS1_ = comdat any

$_ZNSt8_Rb_treeIxSt4pairIKxiESt10_Select1stIS2_ESt4lessIxESaIS2_EE5clearEv = comdat any

@llvm.global_ctors = appending global [1 x { i32, void ()*, i8* }] [{ i32, void ()*, i8* } { i32 65535, void ()* @_GLOBAL__sub_I_MarchoftheKing.cpp, i8* null }]
@_ZStL8__ioinit = internal global %"struct.std::less" zeroinitializer, align 1
@Map = dso_local global %"class.std::map" zeroinitializer, align 8
@A = dso_local global [1048576 x i64] zeroinitializer, align 16
@B = dso_local global [1048576 x i64] zeroinitializer, align 16
@k = dso_local global i32 0, align 4
@ch = dso_local global [100 x i8] zeroinitializer, align 16
@b = dso_local global [8 x [8 x i8]] zeroinitializer, align 16
@ans = dso_local global i64 0, align 8
@used = dso_local global [8 x [8 x i8]] zeroinitializer, align 16
@S = dso_local global [100 x i8] zeroinitializer, align 16
@l = dso_local global i32 0, align 4
@.str = private unnamed_addr constant [30 x i8] c"../input_files/MarchoftheKing\00", align 1
@.str.2 = private unnamed_addr constant [2 x i8] c"r\00", align 1
@stdin = external dso_local global %struct._IO_FILE*, align 8
@.str.3 = private unnamed_addr constant [3 x i8] c"%d\00", align 1
@_ZSt4cout = external dso_local global %"class.std::basic_ostream", align 8
@_ZStL19piecewise_construct = internal constant %"struct.std::less" undef, align 1

; Function Attrs: noinline uwtable
define internal void @_GLOBAL__sub_I_MarchoftheKing.cpp() #0 section ".text.startup" {
  call void @__cxx_global_var_init(), !llfi_index !4
  call void @__cxx_global_var_init.1(), !llfi_index !5
  ret void, !llfi_index !6
}

; Function Attrs: noinline uwtable
define internal void @__cxx_global_var_init() #0 section ".text.startup" {
  call void @_ZNSt8ios_base4InitC1Ev(%"struct.std::less"* nonnull align 1 dereferenceable(1) @_ZStL8__ioinit), !llfi_index !7
  %1 = call i32 @atexit(void ()* @__dtor__ZStL8__ioinit) #2, !llfi_index !8
  ret void, !llfi_index !9
}

; Function Attrs: noinline uwtable
define internal void @__cxx_global_var_init.1() #0 section ".text.startup" {
  call void @_ZNSt3mapIxiSt4lessIxESaISt4pairIKxiEEEC2Ev(%"class.std::map"* nonnull align 8 dereferenceable(48) @Map) #2, !llfi_index !10
  %1 = call i32 @atexit(void ()* @__dtor_Map) #2, !llfi_index !11
  ret void, !llfi_index !12
}

; Function Attrs: noinline nounwind uwtable
define linkonce_odr dso_local void @_ZNSt3mapIxiSt4lessIxESaISt4pairIKxiEEEC2Ev(%"class.std::map"* nonnull align 8 dereferenceable(48) %0) unnamed_addr #1 comdat align 2 {
  %2 = alloca %"class.std::map"*, align 8, !llfi_index !13
  store %"class.std::map"* %0, %"class.std::map"** %2, align 8, !llfi_index !14
  %3 = load %"class.std::map"*, %"class.std::map"** %2, align 8, !llfi_index !15
  %4 = getelementptr inbounds %"class.std::map", %"class.std::map"* %3, i32 0, i32 0, !llfi_index !16
  call void @_ZNSt8_Rb_treeIxSt4pairIKxiESt10_Select1stIS2_ESt4lessIxESaIS2_EEC2Ev(%"class.std::_Rb_tree"* nonnull align 8 dereferenceable(48) %4) #2, !llfi_index !17
  ret void, !llfi_index !18
}

; Function Attrs: noinline uwtable
define internal void @__dtor_Map() #0 section ".text.startup" {
  call void @_ZNSt3mapIxiSt4lessIxESaISt4pairIKxiEEED2Ev(%"class.std::map"* @Map), !llfi_index !19
  ret void, !llfi_index !20
}

; Function Attrs: nounwind
declare dso_local i32 @atexit(void ()*) #2

; Function Attrs: noinline nounwind uwtable
define linkonce_odr dso_local void @_ZNSt3mapIxiSt4lessIxESaISt4pairIKxiEEED2Ev(%"class.std::map"* nonnull align 8 dereferenceable(48) %0) unnamed_addr #1 comdat align 2 {
  %2 = alloca %"class.std::map"*, align 8, !llfi_index !21
  store %"class.std::map"* %0, %"class.std::map"** %2, align 8, !llfi_index !22
  %3 = load %"class.std::map"*, %"class.std::map"** %2, align 8, !llfi_index !23
  %4 = getelementptr inbounds %"class.std::map", %"class.std::map"* %3, i32 0, i32 0, !llfi_index !24
  call void @_ZNSt8_Rb_treeIxSt4pairIKxiESt10_Select1stIS2_ESt4lessIxESaIS2_EED2Ev(%"class.std::_Rb_tree"* nonnull align 8 dereferenceable(48) %4) #2, !llfi_index !25
  ret void, !llfi_index !26
}

; Function Attrs: noinline nounwind uwtable
define linkonce_odr dso_local void @_ZNSt8_Rb_treeIxSt4pairIKxiESt10_Select1stIS2_ESt4lessIxESaIS2_EED2Ev(%"class.std::_Rb_tree"* nonnull align 8 dereferenceable(48) %0) unnamed_addr #1 comdat align 2 personality i8* bitcast (i32 (...)* @__gxx_personality_v0 to i8*) {
  %2 = alloca %"class.std::_Rb_tree"*, align 8, !llfi_index !27
  %3 = alloca i8*, align 8, !llfi_index !28
  %4 = alloca i32, align 4, !llfi_index !29
  store %"class.std::_Rb_tree"* %0, %"class.std::_Rb_tree"** %2, align 8, !llfi_index !30
  %5 = load %"class.std::_Rb_tree"*, %"class.std::_Rb_tree"** %2, align 8, !llfi_index !31
  %6 = call %"struct.std::_Rb_tree_node"* @_ZNSt8_Rb_treeIxSt4pairIKxiESt10_Select1stIS2_ESt4lessIxESaIS2_EE8_M_beginEv(%"class.std::_Rb_tree"* nonnull align 8 dereferenceable(48) %5) #2, !llfi_index !32
  invoke void @_ZNSt8_Rb_treeIxSt4pairIKxiESt10_Select1stIS2_ESt4lessIxESaIS2_EE8_M_eraseEPSt13_Rb_tree_nodeIS2_E(%"class.std::_Rb_tree"* nonnull align 8 dereferenceable(48) %5, %"struct.std::_Rb_tree_node"* %6)
          to label %7 unwind label %9, !llfi_index !33

7:                                                ; preds = %1
  %8 = getelementptr inbounds %"class.std::_Rb_tree", %"class.std::_Rb_tree"* %5, i32 0, i32 0, !llfi_index !34
  call void @_ZNSt8_Rb_treeIxSt4pairIKxiESt10_Select1stIS2_ESt4lessIxESaIS2_EE13_Rb_tree_implIS6_Lb1EED2Ev(%"struct.std::_Rb_tree<long long, std::pair<const long long, int>, std::_Select1st<std::pair<const long long, int>>, std::less<long long>>::_Rb_tree_impl"* nonnull align 8 dereferenceable(48) %8) #2, !llfi_index !35
  ret void, !llfi_index !36

9:                                                ; preds = %1
  %10 = landingpad { i8*, i32 }
          catch i8* null, !llfi_index !37
  %11 = extractvalue { i8*, i32 } %10, 0, !llfi_index !38
  store i8* %11, i8** %3, align 8, !llfi_index !39
  %12 = extractvalue { i8*, i32 } %10, 1, !llfi_index !40
  store i32 %12, i32* %4, align 4, !llfi_index !41
  %13 = getelementptr inbounds %"class.std::_Rb_tree", %"class.std::_Rb_tree"* %5, i32 0, i32 0, !llfi_index !42
  call void @_ZNSt8_Rb_treeIxSt4pairIKxiESt10_Select1stIS2_ESt4lessIxESaIS2_EE13_Rb_tree_implIS6_Lb1EED2Ev(%"struct.std::_Rb_tree<long long, std::pair<const long long, int>, std::_Select1st<std::pair<const long long, int>>, std::less<long long>>::_Rb_tree_impl"* nonnull align 8 dereferenceable(48) %13) #2, !llfi_index !43
  br label %14, !llfi_index !44

14:                                               ; preds = %9
  %15 = load i8*, i8** %3, align 8, !llfi_index !45
  call void @__clang_call_terminate(i8* %15) #16, !llfi_index !46
  unreachable, !llfi_index !47
}

declare dso_local i32 @__gxx_personality_v0(...)

; Function Attrs: mustprogress noinline nounwind uwtable
define linkonce_odr dso_local %"struct.std::_Rb_tree_node"* @_ZNSt8_Rb_treeIxSt4pairIKxiESt10_Select1stIS2_ESt4lessIxESaIS2_EE8_M_beginEv(%"class.std::_Rb_tree"* nonnull align 8 dereferenceable(48) %0) #3 comdat align 2 {
  %2 = alloca %"class.std::_Rb_tree"*, align 8, !llfi_index !48
  store %"class.std::_Rb_tree"* %0, %"class.std::_Rb_tree"** %2, align 8, !llfi_index !49
  %3 = load %"class.std::_Rb_tree"*, %"class.std::_Rb_tree"** %2, align 8, !llfi_index !50
  %4 = getelementptr inbounds %"class.std::_Rb_tree", %"class.std::_Rb_tree"* %3, i32 0, i32 0, !llfi_index !51
  %5 = bitcast %"struct.std::_Rb_tree<long long, std::pair<const long long, int>, std::_Select1st<std::pair<const long long, int>>, std::less<long long>>::_Rb_tree_impl"* %4 to i8*, !llfi_index !52
  %6 = getelementptr inbounds i8, i8* %5, i64 8, !llfi_index !53
  %7 = bitcast i8* %6 to %"struct.std::_Rb_tree_header"*, !llfi_index !54
  %8 = getelementptr inbounds %"struct.std::_Rb_tree_header", %"struct.std::_Rb_tree_header"* %7, i32 0, i32 0, !llfi_index !55
  %9 = getelementptr inbounds %"struct.std::_Rb_tree_node_base", %"struct.std::_Rb_tree_node_base"* %8, i32 0, i32 1, !llfi_index !56
  %10 = load %"struct.std::_Rb_tree_node_base"*, %"struct.std::_Rb_tree_node_base"** %9, align 8, !llfi_index !57
  %11 = bitcast %"struct.std::_Rb_tree_node_base"* %10 to %"struct.std::_Rb_tree_node"*, !llfi_index !58
  ret %"struct.std::_Rb_tree_node"* %11, !llfi_index !59
}

; Function Attrs: mustprogress noinline uwtable
define linkonce_odr dso_local void @_ZNSt8_Rb_treeIxSt4pairIKxiESt10_Select1stIS2_ESt4lessIxESaIS2_EE8_M_eraseEPSt13_Rb_tree_nodeIS2_E(%"class.std::_Rb_tree"* nonnull align 8 dereferenceable(48) %0, %"struct.std::_Rb_tree_node"* %1) #4 comdat align 2 {
  %3 = alloca %"class.std::_Rb_tree"*, align 8, !llfi_index !60
  %4 = alloca %"struct.std::_Rb_tree_node"*, align 8, !llfi_index !61
  %5 = alloca %"struct.std::_Rb_tree_node"*, align 8, !llfi_index !62
  store %"class.std::_Rb_tree"* %0, %"class.std::_Rb_tree"** %3, align 8, !llfi_index !63
  store %"struct.std::_Rb_tree_node"* %1, %"struct.std::_Rb_tree_node"** %4, align 8, !llfi_index !64
  %6 = load %"class.std::_Rb_tree"*, %"class.std::_Rb_tree"** %3, align 8, !llfi_index !65
  br label %7, !llfi_index !66

7:                                                ; preds = %10, %2
  %8 = load %"struct.std::_Rb_tree_node"*, %"struct.std::_Rb_tree_node"** %4, align 8, !llfi_index !67
  %9 = icmp ne %"struct.std::_Rb_tree_node"* %8, null, !llfi_index !68
  br i1 %9, label %10, label %19, !llfi_index !69

10:                                               ; preds = %7
  %11 = load %"struct.std::_Rb_tree_node"*, %"struct.std::_Rb_tree_node"** %4, align 8, !llfi_index !70
  %12 = bitcast %"struct.std::_Rb_tree_node"* %11 to %"struct.std::_Rb_tree_node_base"*, !llfi_index !71
  %13 = call %"struct.std::_Rb_tree_node"* @_ZNSt8_Rb_treeIxSt4pairIKxiESt10_Select1stIS2_ESt4lessIxESaIS2_EE8_S_rightEPSt18_Rb_tree_node_base(%"struct.std::_Rb_tree_node_base"* %12) #2, !llfi_index !72
  call void @_ZNSt8_Rb_treeIxSt4pairIKxiESt10_Select1stIS2_ESt4lessIxESaIS2_EE8_M_eraseEPSt13_Rb_tree_nodeIS2_E(%"class.std::_Rb_tree"* nonnull align 8 dereferenceable(48) %6, %"struct.std::_Rb_tree_node"* %13), !llfi_index !73
  %14 = load %"struct.std::_Rb_tree_node"*, %"struct.std::_Rb_tree_node"** %4, align 8, !llfi_index !74
  %15 = bitcast %"struct.std::_Rb_tree_node"* %14 to %"struct.std::_Rb_tree_node_base"*, !llfi_index !75
  %16 = call %"struct.std::_Rb_tree_node"* @_ZNSt8_Rb_treeIxSt4pairIKxiESt10_Select1stIS2_ESt4lessIxESaIS2_EE7_S_leftEPSt18_Rb_tree_node_base(%"struct.std::_Rb_tree_node_base"* %15) #2, !llfi_index !76
  store %"struct.std::_Rb_tree_node"* %16, %"struct.std::_Rb_tree_node"** %5, align 8, !llfi_index !77
  %17 = load %"struct.std::_Rb_tree_node"*, %"struct.std::_Rb_tree_node"** %4, align 8, !llfi_index !78
  call void @_ZNSt8_Rb_treeIxSt4pairIKxiESt10_Select1stIS2_ESt4lessIxESaIS2_EE12_M_drop_nodeEPSt13_Rb_tree_nodeIS2_E(%"class.std::_Rb_tree"* nonnull align 8 dereferenceable(48) %6, %"struct.std::_Rb_tree_node"* %17) #2, !llfi_index !79
  %18 = load %"struct.std::_Rb_tree_node"*, %"struct.std::_Rb_tree_node"** %5, align 8, !llfi_index !80
  store %"struct.std::_Rb_tree_node"* %18, %"struct.std::_Rb_tree_node"** %4, align 8, !llfi_index !81
  br label %7, !llvm.loop !82, !llfi_index !84

19:                                               ; preds = %7
  ret void, !llfi_index !85
}

; Function Attrs: noinline nounwind uwtable
define linkonce_odr dso_local void @_ZNSt8_Rb_treeIxSt4pairIKxiESt10_Select1stIS2_ESt4lessIxESaIS2_EE13_Rb_tree_implIS6_Lb1EED2Ev(%"struct.std::_Rb_tree<long long, std::pair<const long long, int>, std::_Select1st<std::pair<const long long, int>>, std::less<long long>>::_Rb_tree_impl"* nonnull align 8 dereferenceable(48) %0) unnamed_addr #1 comdat align 2 {
  %2 = alloca %"struct.std::_Rb_tree<long long, std::pair<const long long, int>, std::_Select1st<std::pair<const long long, int>>, std::less<long long>>::_Rb_tree_impl"*, align 8, !llfi_index !86
  store %"struct.std::_Rb_tree<long long, std::pair<const long long, int>, std::_Select1st<std::pair<const long long, int>>, std::less<long long>>::_Rb_tree_impl"* %0, %"struct.std::_Rb_tree<long long, std::pair<const long long, int>, std::_Select1st<std::pair<const long long, int>>, std::less<long long>>::_Rb_tree_impl"** %2, align 8, !llfi_index !87
  %3 = load %"struct.std::_Rb_tree<long long, std::pair<const long long, int>, std::_Select1st<std::pair<const long long, int>>, std::less<long long>>::_Rb_tree_impl"*, %"struct.std::_Rb_tree<long long, std::pair<const long long, int>, std::_Select1st<std::pair<const long long, int>>, std::less<long long>>::_Rb_tree_impl"** %2, align 8, !llfi_index !88
  %4 = bitcast %"struct.std::_Rb_tree<long long, std::pair<const long long, int>, std::_Select1st<std::pair<const long long, int>>, std::less<long long>>::_Rb_tree_impl"* %3 to %"struct.std::less"*, !llfi_index !89
  call void @_ZNSaISt13_Rb_tree_nodeISt4pairIKxiEEED2Ev(%"struct.std::less"* nonnull align 1 dereferenceable(1) %4) #2, !llfi_index !90
  ret void, !llfi_index !91
}

; Function Attrs: noinline noreturn nounwind
define linkonce_odr hidden void @__clang_call_terminate(i8* %0) #5 comdat {
  %2 = call i8* @__cxa_begin_catch(i8* %0) #2, !llfi_index !92
  call void @_ZSt9terminatev() #16, !llfi_index !93
  unreachable, !llfi_index !94
}

declare dso_local i8* @__cxa_begin_catch(i8*)

declare dso_local void @_ZSt9terminatev()

; Function Attrs: noinline nounwind uwtable
define linkonce_odr dso_local void @_ZNSaISt13_Rb_tree_nodeISt4pairIKxiEEED2Ev(%"struct.std::less"* nonnull align 1 dereferenceable(1) %0) unnamed_addr #1 comdat align 2 {
  %2 = alloca %"struct.std::less"*, align 8, !llfi_index !95
  store %"struct.std::less"* %0, %"struct.std::less"** %2, align 8, !llfi_index !96
  %3 = load %"struct.std::less"*, %"struct.std::less"** %2, align 8, !llfi_index !97
  %4 = bitcast %"struct.std::less"* %3 to %"struct.std::less"*, !llfi_index !98
  call void @_ZN9__gnu_cxx13new_allocatorISt13_Rb_tree_nodeISt4pairIKxiEEED2Ev(%"struct.std::less"* nonnull align 1 dereferenceable(1) %4) #2, !llfi_index !99
  ret void, !llfi_index !100
}

; Function Attrs: noinline nounwind uwtable
define linkonce_odr dso_local void @_ZN9__gnu_cxx13new_allocatorISt13_Rb_tree_nodeISt4pairIKxiEEED2Ev(%"struct.std::less"* nonnull align 1 dereferenceable(1) %0) unnamed_addr #1 comdat align 2 {
  %2 = alloca %"struct.std::less"*, align 8, !llfi_index !101
  store %"struct.std::less"* %0, %"struct.std::less"** %2, align 8, !llfi_index !102
  %3 = load %"struct.std::less"*, %"struct.std::less"** %2, align 8, !llfi_index !103
  ret void, !llfi_index !104
}

; Function Attrs: mustprogress noinline nounwind uwtable
define linkonce_odr dso_local %"struct.std::_Rb_tree_node"* @_ZNSt8_Rb_treeIxSt4pairIKxiESt10_Select1stIS2_ESt4lessIxESaIS2_EE8_S_rightEPSt18_Rb_tree_node_base(%"struct.std::_Rb_tree_node_base"* %0) #3 comdat align 2 {
  %2 = alloca %"struct.std::_Rb_tree_node_base"*, align 8, !llfi_index !105
  store %"struct.std::_Rb_tree_node_base"* %0, %"struct.std::_Rb_tree_node_base"** %2, align 8, !llfi_index !106
  %3 = load %"struct.std::_Rb_tree_node_base"*, %"struct.std::_Rb_tree_node_base"** %2, align 8, !llfi_index !107
  %4 = getelementptr inbounds %"struct.std::_Rb_tree_node_base", %"struct.std::_Rb_tree_node_base"* %3, i32 0, i32 3, !llfi_index !108
  %5 = load %"struct.std::_Rb_tree_node_base"*, %"struct.std::_Rb_tree_node_base"** %4, align 8, !llfi_index !109
  %6 = bitcast %"struct.std::_Rb_tree_node_base"* %5 to %"struct.std::_Rb_tree_node"*, !llfi_index !110
  ret %"struct.std::_Rb_tree_node"* %6, !llfi_index !111
}

; Function Attrs: mustprogress noinline nounwind uwtable
define linkonce_odr dso_local %"struct.std::_Rb_tree_node"* @_ZNSt8_Rb_treeIxSt4pairIKxiESt10_Select1stIS2_ESt4lessIxESaIS2_EE7_S_leftEPSt18_Rb_tree_node_base(%"struct.std::_Rb_tree_node_base"* %0) #3 comdat align 2 {
  %2 = alloca %"struct.std::_Rb_tree_node_base"*, align 8, !llfi_index !112
  store %"struct.std::_Rb_tree_node_base"* %0, %"struct.std::_Rb_tree_node_base"** %2, align 8, !llfi_index !113
  %3 = load %"struct.std::_Rb_tree_node_base"*, %"struct.std::_Rb_tree_node_base"** %2, align 8, !llfi_index !114
  %4 = getelementptr inbounds %"struct.std::_Rb_tree_node_base", %"struct.std::_Rb_tree_node_base"* %3, i32 0, i32 2, !llfi_index !115
  %5 = load %"struct.std::_Rb_tree_node_base"*, %"struct.std::_Rb_tree_node_base"** %4, align 8, !llfi_index !116
  %6 = bitcast %"struct.std::_Rb_tree_node_base"* %5 to %"struct.std::_Rb_tree_node"*, !llfi_index !117
  ret %"struct.std::_Rb_tree_node"* %6, !llfi_index !118
}

; Function Attrs: mustprogress noinline nounwind uwtable
define linkonce_odr dso_local void @_ZNSt8_Rb_treeIxSt4pairIKxiESt10_Select1stIS2_ESt4lessIxESaIS2_EE12_M_drop_nodeEPSt13_Rb_tree_nodeIS2_E(%"class.std::_Rb_tree"* nonnull align 8 dereferenceable(48) %0, %"struct.std::_Rb_tree_node"* %1) #3 comdat align 2 {
  %3 = alloca %"class.std::_Rb_tree"*, align 8, !llfi_index !119
  %4 = alloca %"struct.std::_Rb_tree_node"*, align 8, !llfi_index !120
  store %"class.std::_Rb_tree"* %0, %"class.std::_Rb_tree"** %3, align 8, !llfi_index !121
  store %"struct.std::_Rb_tree_node"* %1, %"struct.std::_Rb_tree_node"** %4, align 8, !llfi_index !122
  %5 = load %"class.std::_Rb_tree"*, %"class.std::_Rb_tree"** %3, align 8, !llfi_index !123
  %6 = load %"struct.std::_Rb_tree_node"*, %"struct.std::_Rb_tree_node"** %4, align 8, !llfi_index !124
  call void @_ZNSt8_Rb_treeIxSt4pairIKxiESt10_Select1stIS2_ESt4lessIxESaIS2_EE15_M_destroy_nodeEPSt13_Rb_tree_nodeIS2_E(%"class.std::_Rb_tree"* nonnull align 8 dereferenceable(48) %5, %"struct.std::_Rb_tree_node"* %6) #2, !llfi_index !125
  %7 = load %"struct.std::_Rb_tree_node"*, %"struct.std::_Rb_tree_node"** %4, align 8, !llfi_index !126
  call void @_ZNSt8_Rb_treeIxSt4pairIKxiESt10_Select1stIS2_ESt4lessIxESaIS2_EE11_M_put_nodeEPSt13_Rb_tree_nodeIS2_E(%"class.std::_Rb_tree"* nonnull align 8 dereferenceable(48) %5, %"struct.std::_Rb_tree_node"* %7) #2, !llfi_index !127
  ret void, !llfi_index !128
}

; Function Attrs: mustprogress noinline nounwind uwtable
define linkonce_odr dso_local void @_ZNSt8_Rb_treeIxSt4pairIKxiESt10_Select1stIS2_ESt4lessIxESaIS2_EE15_M_destroy_nodeEPSt13_Rb_tree_nodeIS2_E(%"class.std::_Rb_tree"* nonnull align 8 dereferenceable(48) %0, %"struct.std::_Rb_tree_node"* %1) #3 comdat align 2 personality i8* bitcast (i32 (...)* @__gxx_personality_v0 to i8*) {
  %3 = alloca %"class.std::_Rb_tree"*, align 8, !llfi_index !129
  %4 = alloca %"struct.std::_Rb_tree_node"*, align 8, !llfi_index !130
  store %"class.std::_Rb_tree"* %0, %"class.std::_Rb_tree"** %3, align 8, !llfi_index !131
  store %"struct.std::_Rb_tree_node"* %1, %"struct.std::_Rb_tree_node"** %4, align 8, !llfi_index !132
  %5 = load %"class.std::_Rb_tree"*, %"class.std::_Rb_tree"** %3, align 8, !llfi_index !133
  %6 = call nonnull align 1 dereferenceable(1) %"struct.std::less"* @_ZNSt8_Rb_treeIxSt4pairIKxiESt10_Select1stIS2_ESt4lessIxESaIS2_EE21_M_get_Node_allocatorEv(%"class.std::_Rb_tree"* nonnull align 8 dereferenceable(48) %5) #2, !llfi_index !134
  %7 = load %"struct.std::_Rb_tree_node"*, %"struct.std::_Rb_tree_node"** %4, align 8, !llfi_index !135
  %8 = invoke %"struct.std::pair"* @_ZNSt13_Rb_tree_nodeISt4pairIKxiEE9_M_valptrEv(%"struct.std::_Rb_tree_node"* nonnull align 8 dereferenceable(48) %7)
          to label %9 unwind label %11, !llfi_index !136

9:                                                ; preds = %2
  call void @_ZNSt16allocator_traitsISaISt13_Rb_tree_nodeISt4pairIKxiEEEE7destroyIS3_EEvRS5_PT_(%"struct.std::less"* nonnull align 1 dereferenceable(1) %6, %"struct.std::pair"* %8) #2, !llfi_index !137
  %10 = load %"struct.std::_Rb_tree_node"*, %"struct.std::_Rb_tree_node"** %4, align 8, !llfi_index !138
  ret void, !llfi_index !139

11:                                               ; preds = %2
  %12 = landingpad { i8*, i32 }
          catch i8* null, !llfi_index !140
  %13 = extractvalue { i8*, i32 } %12, 0, !llfi_index !141
  call void @__clang_call_terminate(i8* %13) #16, !llfi_index !142
  unreachable, !llfi_index !143
}

; Function Attrs: mustprogress noinline nounwind uwtable
define linkonce_odr dso_local void @_ZNSt8_Rb_treeIxSt4pairIKxiESt10_Select1stIS2_ESt4lessIxESaIS2_EE11_M_put_nodeEPSt13_Rb_tree_nodeIS2_E(%"class.std::_Rb_tree"* nonnull align 8 dereferenceable(48) %0, %"struct.std::_Rb_tree_node"* %1) #3 comdat align 2 personality i8* bitcast (i32 (...)* @__gxx_personality_v0 to i8*) {
  %3 = alloca %"class.std::_Rb_tree"*, align 8, !llfi_index !144
  %4 = alloca %"struct.std::_Rb_tree_node"*, align 8, !llfi_index !145
  store %"class.std::_Rb_tree"* %0, %"class.std::_Rb_tree"** %3, align 8, !llfi_index !146
  store %"struct.std::_Rb_tree_node"* %1, %"struct.std::_Rb_tree_node"** %4, align 8, !llfi_index !147
  %5 = load %"class.std::_Rb_tree"*, %"class.std::_Rb_tree"** %3, align 8, !llfi_index !148
  %6 = call nonnull align 1 dereferenceable(1) %"struct.std::less"* @_ZNSt8_Rb_treeIxSt4pairIKxiESt10_Select1stIS2_ESt4lessIxESaIS2_EE21_M_get_Node_allocatorEv(%"class.std::_Rb_tree"* nonnull align 8 dereferenceable(48) %5) #2, !llfi_index !149
  %7 = load %"struct.std::_Rb_tree_node"*, %"struct.std::_Rb_tree_node"** %4, align 8, !llfi_index !150
  invoke void @_ZNSt16allocator_traitsISaISt13_Rb_tree_nodeISt4pairIKxiEEEE10deallocateERS5_PS4_m(%"struct.std::less"* nonnull align 1 dereferenceable(1) %6, %"struct.std::_Rb_tree_node"* %7, i64 1)
          to label %8 unwind label %9, !llfi_index !151

8:                                                ; preds = %2
  ret void, !llfi_index !152

9:                                                ; preds = %2
  %10 = landingpad { i8*, i32 }
          catch i8* null, !llfi_index !153
  %11 = extractvalue { i8*, i32 } %10, 0, !llfi_index !154
  call void @__clang_call_terminate(i8* %11) #16, !llfi_index !155
  unreachable, !llfi_index !156
}

; Function Attrs: mustprogress noinline nounwind uwtable
define linkonce_odr dso_local nonnull align 1 dereferenceable(1) %"struct.std::less"* @_ZNSt8_Rb_treeIxSt4pairIKxiESt10_Select1stIS2_ESt4lessIxESaIS2_EE21_M_get_Node_allocatorEv(%"class.std::_Rb_tree"* nonnull align 8 dereferenceable(48) %0) #3 comdat align 2 {
  %2 = alloca %"class.std::_Rb_tree"*, align 8, !llfi_index !157
  store %"class.std::_Rb_tree"* %0, %"class.std::_Rb_tree"** %2, align 8, !llfi_index !158
  %3 = load %"class.std::_Rb_tree"*, %"class.std::_Rb_tree"** %2, align 8, !llfi_index !159
  %4 = getelementptr inbounds %"class.std::_Rb_tree", %"class.std::_Rb_tree"* %3, i32 0, i32 0, !llfi_index !160
  %5 = bitcast %"struct.std::_Rb_tree<long long, std::pair<const long long, int>, std::_Select1st<std::pair<const long long, int>>, std::less<long long>>::_Rb_tree_impl"* %4 to %"struct.std::less"*, !llfi_index !161
  ret %"struct.std::less"* %5, !llfi_index !162
}

; Function Attrs: mustprogress noinline uwtable
define linkonce_odr dso_local void @_ZNSt16allocator_traitsISaISt13_Rb_tree_nodeISt4pairIKxiEEEE10deallocateERS5_PS4_m(%"struct.std::less"* nonnull align 1 dereferenceable(1) %0, %"struct.std::_Rb_tree_node"* %1, i64 %2) #4 comdat align 2 {
  %4 = alloca %"struct.std::less"*, align 8, !llfi_index !163
  %5 = alloca %"struct.std::_Rb_tree_node"*, align 8, !llfi_index !164
  %6 = alloca i64, align 8, !llfi_index !165
  store %"struct.std::less"* %0, %"struct.std::less"** %4, align 8, !llfi_index !166
  store %"struct.std::_Rb_tree_node"* %1, %"struct.std::_Rb_tree_node"** %5, align 8, !llfi_index !167
  store i64 %2, i64* %6, align 8, !llfi_index !168
  %7 = load %"struct.std::less"*, %"struct.std::less"** %4, align 8, !llfi_index !169
  %8 = bitcast %"struct.std::less"* %7 to %"struct.std::less"*, !llfi_index !170
  %9 = load %"struct.std::_Rb_tree_node"*, %"struct.std::_Rb_tree_node"** %5, align 8, !llfi_index !171
  %10 = load i64, i64* %6, align 8, !llfi_index !172
  call void @_ZN9__gnu_cxx13new_allocatorISt13_Rb_tree_nodeISt4pairIKxiEEE10deallocateEPS5_m(%"struct.std::less"* nonnull align 1 dereferenceable(1) %8, %"struct.std::_Rb_tree_node"* %9, i64 %10), !llfi_index !173
  ret void, !llfi_index !174
}

; Function Attrs: mustprogress noinline nounwind uwtable
define linkonce_odr dso_local void @_ZN9__gnu_cxx13new_allocatorISt13_Rb_tree_nodeISt4pairIKxiEEE10deallocateEPS5_m(%"struct.std::less"* nonnull align 1 dereferenceable(1) %0, %"struct.std::_Rb_tree_node"* %1, i64 %2) #3 comdat align 2 {
  %4 = alloca %"struct.std::less"*, align 8, !llfi_index !175
  %5 = alloca %"struct.std::_Rb_tree_node"*, align 8, !llfi_index !176
  %6 = alloca i64, align 8, !llfi_index !177
  store %"struct.std::less"* %0, %"struct.std::less"** %4, align 8, !llfi_index !178
  store %"struct.std::_Rb_tree_node"* %1, %"struct.std::_Rb_tree_node"** %5, align 8, !llfi_index !179
  store i64 %2, i64* %6, align 8, !llfi_index !180
  %7 = load %"struct.std::less"*, %"struct.std::less"** %4, align 8, !llfi_index !181
  %8 = load %"struct.std::_Rb_tree_node"*, %"struct.std::_Rb_tree_node"** %5, align 8, !llfi_index !182
  %9 = bitcast %"struct.std::_Rb_tree_node"* %8 to i8*, !llfi_index !183
  call void @_ZdlPv(i8* %9) #2, !llfi_index !184
  ret void, !llfi_index !185
}

; Function Attrs: nobuiltin nounwind
declare dso_local void @_ZdlPv(i8*) #6

; Function Attrs: mustprogress noinline nounwind uwtable
define linkonce_odr dso_local %"struct.std::pair"* @_ZNSt13_Rb_tree_nodeISt4pairIKxiEE9_M_valptrEv(%"struct.std::_Rb_tree_node"* nonnull align 8 dereferenceable(48) %0) #3 comdat align 2 {
  %2 = alloca %"struct.std::_Rb_tree_node"*, align 8, !llfi_index !186
  store %"struct.std::_Rb_tree_node"* %0, %"struct.std::_Rb_tree_node"** %2, align 8, !llfi_index !187
  %3 = load %"struct.std::_Rb_tree_node"*, %"struct.std::_Rb_tree_node"** %2, align 8, !llfi_index !188
  %4 = getelementptr inbounds %"struct.std::_Rb_tree_node", %"struct.std::_Rb_tree_node"* %3, i32 0, i32 1, !llfi_index !189
  %5 = call %"struct.std::pair"* @_ZN9__gnu_cxx16__aligned_membufISt4pairIKxiEE6_M_ptrEv(%"struct.__gnu_cxx::__aligned_membuf"* nonnull align 8 dereferenceable(16) %4) #2, !llfi_index !190
  ret %"struct.std::pair"* %5, !llfi_index !191
}

; Function Attrs: mustprogress noinline nounwind uwtable
define linkonce_odr dso_local void @_ZNSt16allocator_traitsISaISt13_Rb_tree_nodeISt4pairIKxiEEEE7destroyIS3_EEvRS5_PT_(%"struct.std::less"* nonnull align 1 dereferenceable(1) %0, %"struct.std::pair"* %1) #3 comdat align 2 {
  %3 = alloca %"struct.std::less"*, align 8, !llfi_index !192
  %4 = alloca %"struct.std::pair"*, align 8, !llfi_index !193
  store %"struct.std::less"* %0, %"struct.std::less"** %3, align 8, !llfi_index !194
  store %"struct.std::pair"* %1, %"struct.std::pair"** %4, align 8, !llfi_index !195
  %5 = load %"struct.std::less"*, %"struct.std::less"** %3, align 8, !llfi_index !196
  %6 = bitcast %"struct.std::less"* %5 to %"struct.std::less"*, !llfi_index !197
  %7 = load %"struct.std::pair"*, %"struct.std::pair"** %4, align 8, !llfi_index !198
  call void @_ZN9__gnu_cxx13new_allocatorISt13_Rb_tree_nodeISt4pairIKxiEEE7destroyIS4_EEvPT_(%"struct.std::less"* nonnull align 1 dereferenceable(1) %6, %"struct.std::pair"* %7) #2, !llfi_index !199
  ret void, !llfi_index !200
}

; Function Attrs: mustprogress noinline nounwind uwtable
define linkonce_odr dso_local void @_ZN9__gnu_cxx13new_allocatorISt13_Rb_tree_nodeISt4pairIKxiEEE7destroyIS4_EEvPT_(%"struct.std::less"* nonnull align 1 dereferenceable(1) %0, %"struct.std::pair"* %1) #3 comdat align 2 {
  %3 = alloca %"struct.std::less"*, align 8, !llfi_index !201
  %4 = alloca %"struct.std::pair"*, align 8, !llfi_index !202
  store %"struct.std::less"* %0, %"struct.std::less"** %3, align 8, !llfi_index !203
  store %"struct.std::pair"* %1, %"struct.std::pair"** %4, align 8, !llfi_index !204
  %5 = load %"struct.std::less"*, %"struct.std::less"** %3, align 8, !llfi_index !205
  %6 = load %"struct.std::pair"*, %"struct.std::pair"** %4, align 8, !llfi_index !206
  ret void, !llfi_index !207
}

; Function Attrs: mustprogress noinline nounwind uwtable
define linkonce_odr dso_local %"struct.std::pair"* @_ZN9__gnu_cxx16__aligned_membufISt4pairIKxiEE6_M_ptrEv(%"struct.__gnu_cxx::__aligned_membuf"* nonnull align 8 dereferenceable(16) %0) #3 comdat align 2 {
  %2 = alloca %"struct.__gnu_cxx::__aligned_membuf"*, align 8, !llfi_index !208
  store %"struct.__gnu_cxx::__aligned_membuf"* %0, %"struct.__gnu_cxx::__aligned_membuf"** %2, align 8, !llfi_index !209
  %3 = load %"struct.__gnu_cxx::__aligned_membuf"*, %"struct.__gnu_cxx::__aligned_membuf"** %2, align 8, !llfi_index !210
  %4 = call i8* @_ZN9__gnu_cxx16__aligned_membufISt4pairIKxiEE7_M_addrEv(%"struct.__gnu_cxx::__aligned_membuf"* nonnull align 8 dereferenceable(16) %3) #2, !llfi_index !211
  %5 = bitcast i8* %4 to %"struct.std::pair"*, !llfi_index !212
  ret %"struct.std::pair"* %5, !llfi_index !213
}

; Function Attrs: mustprogress noinline nounwind uwtable
define linkonce_odr dso_local i8* @_ZN9__gnu_cxx16__aligned_membufISt4pairIKxiEE7_M_addrEv(%"struct.__gnu_cxx::__aligned_membuf"* nonnull align 8 dereferenceable(16) %0) #3 comdat align 2 {
  %2 = alloca %"struct.__gnu_cxx::__aligned_membuf"*, align 8, !llfi_index !214
  store %"struct.__gnu_cxx::__aligned_membuf"* %0, %"struct.__gnu_cxx::__aligned_membuf"** %2, align 8, !llfi_index !215
  %3 = load %"struct.__gnu_cxx::__aligned_membuf"*, %"struct.__gnu_cxx::__aligned_membuf"** %2, align 8, !llfi_index !216
  %4 = getelementptr inbounds %"struct.__gnu_cxx::__aligned_membuf", %"struct.__gnu_cxx::__aligned_membuf"* %3, i32 0, i32 0, !llfi_index !217
  %5 = bitcast [16 x i8]* %4 to i8*, !llfi_index !218
  ret i8* %5, !llfi_index !219
}

; Function Attrs: noinline nounwind uwtable
define linkonce_odr dso_local void @_ZNSt8_Rb_treeIxSt4pairIKxiESt10_Select1stIS2_ESt4lessIxESaIS2_EEC2Ev(%"class.std::_Rb_tree"* nonnull align 8 dereferenceable(48) %0) unnamed_addr #1 comdat align 2 {
  %2 = alloca %"class.std::_Rb_tree"*, align 8, !llfi_index !220
  store %"class.std::_Rb_tree"* %0, %"class.std::_Rb_tree"** %2, align 8, !llfi_index !221
  %3 = load %"class.std::_Rb_tree"*, %"class.std::_Rb_tree"** %2, align 8, !llfi_index !222
  %4 = getelementptr inbounds %"class.std::_Rb_tree", %"class.std::_Rb_tree"* %3, i32 0, i32 0, !llfi_index !223
  call void @_ZNSt8_Rb_treeIxSt4pairIKxiESt10_Select1stIS2_ESt4lessIxESaIS2_EE13_Rb_tree_implIS6_Lb1EEC2Ev(%"struct.std::_Rb_tree<long long, std::pair<const long long, int>, std::_Select1st<std::pair<const long long, int>>, std::less<long long>>::_Rb_tree_impl"* nonnull align 8 dereferenceable(48) %4) #2, !llfi_index !224
  ret void, !llfi_index !225
}

; Function Attrs: noinline nounwind uwtable
define linkonce_odr dso_local void @_ZNSt8_Rb_treeIxSt4pairIKxiESt10_Select1stIS2_ESt4lessIxESaIS2_EE13_Rb_tree_implIS6_Lb1EEC2Ev(%"struct.std::_Rb_tree<long long, std::pair<const long long, int>, std::_Select1st<std::pair<const long long, int>>, std::less<long long>>::_Rb_tree_impl"* nonnull align 8 dereferenceable(48) %0) unnamed_addr #1 comdat align 2 {
  %2 = alloca %"struct.std::_Rb_tree<long long, std::pair<const long long, int>, std::_Select1st<std::pair<const long long, int>>, std::less<long long>>::_Rb_tree_impl"*, align 8, !llfi_index !226
  store %"struct.std::_Rb_tree<long long, std::pair<const long long, int>, std::_Select1st<std::pair<const long long, int>>, std::less<long long>>::_Rb_tree_impl"* %0, %"struct.std::_Rb_tree<long long, std::pair<const long long, int>, std::_Select1st<std::pair<const long long, int>>, std::less<long long>>::_Rb_tree_impl"** %2, align 8, !llfi_index !227
  %3 = load %"struct.std::_Rb_tree<long long, std::pair<const long long, int>, std::_Select1st<std::pair<const long long, int>>, std::less<long long>>::_Rb_tree_impl"*, %"struct.std::_Rb_tree<long long, std::pair<const long long, int>, std::_Select1st<std::pair<const long long, int>>, std::less<long long>>::_Rb_tree_impl"** %2, align 8, !llfi_index !228
  %4 = bitcast %"struct.std::_Rb_tree<long long, std::pair<const long long, int>, std::_Select1st<std::pair<const long long, int>>, std::less<long long>>::_Rb_tree_impl"* %3 to %"struct.std::less"*, !llfi_index !229
  call void @_ZNSaISt13_Rb_tree_nodeISt4pairIKxiEEEC2Ev(%"struct.std::less"* nonnull align 1 dereferenceable(1) %4) #2, !llfi_index !230
  %5 = bitcast %"struct.std::_Rb_tree<long long, std::pair<const long long, int>, std::_Select1st<std::pair<const long long, int>>, std::less<long long>>::_Rb_tree_impl"* %3 to %"struct.std::_Rb_tree_key_compare"*, !llfi_index !231
  call void @_ZNSt20_Rb_tree_key_compareISt4lessIxEEC2Ev(%"struct.std::_Rb_tree_key_compare"* nonnull align 1 dereferenceable(1) %5) #2, !llfi_index !232
  %6 = bitcast %"struct.std::_Rb_tree<long long, std::pair<const long long, int>, std::_Select1st<std::pair<const long long, int>>, std::less<long long>>::_Rb_tree_impl"* %3 to i8*, !llfi_index !233
  %7 = getelementptr inbounds i8, i8* %6, i64 8, !llfi_index !234
  %8 = bitcast i8* %7 to %"struct.std::_Rb_tree_header"*, !llfi_index !235
  call void @_ZNSt15_Rb_tree_headerC2Ev(%"struct.std::_Rb_tree_header"* nonnull align 8 dereferenceable(40) %8) #2, !llfi_index !236
  ret void, !llfi_index !237
}

; Function Attrs: noinline nounwind uwtable
define linkonce_odr dso_local void @_ZNSaISt13_Rb_tree_nodeISt4pairIKxiEEEC2Ev(%"struct.std::less"* nonnull align 1 dereferenceable(1) %0) unnamed_addr #1 comdat align 2 {
  %2 = alloca %"struct.std::less"*, align 8, !llfi_index !238
  store %"struct.std::less"* %0, %"struct.std::less"** %2, align 8, !llfi_index !239
  %3 = load %"struct.std::less"*, %"struct.std::less"** %2, align 8, !llfi_index !240
  %4 = bitcast %"struct.std::less"* %3 to %"struct.std::less"*, !llfi_index !241
  call void @_ZN9__gnu_cxx13new_allocatorISt13_Rb_tree_nodeISt4pairIKxiEEEC2Ev(%"struct.std::less"* nonnull align 1 dereferenceable(1) %4) #2, !llfi_index !242
  ret void, !llfi_index !243
}

; Function Attrs: noinline nounwind uwtable
define linkonce_odr dso_local void @_ZNSt20_Rb_tree_key_compareISt4lessIxEEC2Ev(%"struct.std::_Rb_tree_key_compare"* nonnull align 1 dereferenceable(1) %0) unnamed_addr #1 comdat align 2 {
  %2 = alloca %"struct.std::_Rb_tree_key_compare"*, align 8, !llfi_index !244
  store %"struct.std::_Rb_tree_key_compare"* %0, %"struct.std::_Rb_tree_key_compare"** %2, align 8, !llfi_index !245
  %3 = load %"struct.std::_Rb_tree_key_compare"*, %"struct.std::_Rb_tree_key_compare"** %2, align 8, !llfi_index !246
  %4 = getelementptr inbounds %"struct.std::_Rb_tree_key_compare", %"struct.std::_Rb_tree_key_compare"* %3, i32 0, i32 0, !llfi_index !247
  ret void, !llfi_index !248
}

; Function Attrs: noinline nounwind uwtable
define linkonce_odr dso_local void @_ZNSt15_Rb_tree_headerC2Ev(%"struct.std::_Rb_tree_header"* nonnull align 8 dereferenceable(40) %0) unnamed_addr #1 comdat align 2 personality i8* bitcast (i32 (...)* @__gxx_personality_v0 to i8*) {
  %2 = alloca %"struct.std::_Rb_tree_header"*, align 8, !llfi_index !249
  store %"struct.std::_Rb_tree_header"* %0, %"struct.std::_Rb_tree_header"** %2, align 8, !llfi_index !250
  %3 = load %"struct.std::_Rb_tree_header"*, %"struct.std::_Rb_tree_header"** %2, align 8, !llfi_index !251
  %4 = getelementptr inbounds %"struct.std::_Rb_tree_header", %"struct.std::_Rb_tree_header"* %3, i32 0, i32 0, !llfi_index !252
  %5 = getelementptr inbounds %"struct.std::_Rb_tree_header", %"struct.std::_Rb_tree_header"* %3, i32 0, i32 0, !llfi_index !253
  %6 = getelementptr inbounds %"struct.std::_Rb_tree_node_base", %"struct.std::_Rb_tree_node_base"* %5, i32 0, i32 0, !llfi_index !254
  store i32 0, i32* %6, align 8, !llfi_index !255
  invoke void @_ZNSt15_Rb_tree_header8_M_resetEv(%"struct.std::_Rb_tree_header"* nonnull align 8 dereferenceable(40) %3)
          to label %7 unwind label %8, !llfi_index !256

7:                                                ; preds = %1
  ret void, !llfi_index !257

8:                                                ; preds = %1
  %9 = landingpad { i8*, i32 }
          catch i8* null, !llfi_index !258
  %10 = extractvalue { i8*, i32 } %9, 0, !llfi_index !259
  call void @__clang_call_terminate(i8* %10) #16, !llfi_index !260
  unreachable, !llfi_index !261
}

; Function Attrs: mustprogress noinline nounwind uwtable
define linkonce_odr dso_local void @_ZNSt15_Rb_tree_header8_M_resetEv(%"struct.std::_Rb_tree_header"* nonnull align 8 dereferenceable(40) %0) #3 comdat align 2 {
  %2 = alloca %"struct.std::_Rb_tree_header"*, align 8, !llfi_index !262
  store %"struct.std::_Rb_tree_header"* %0, %"struct.std::_Rb_tree_header"** %2, align 8, !llfi_index !263
  %3 = load %"struct.std::_Rb_tree_header"*, %"struct.std::_Rb_tree_header"** %2, align 8, !llfi_index !264
  %4 = getelementptr inbounds %"struct.std::_Rb_tree_header", %"struct.std::_Rb_tree_header"* %3, i32 0, i32 0, !llfi_index !265
  %5 = getelementptr inbounds %"struct.std::_Rb_tree_node_base", %"struct.std::_Rb_tree_node_base"* %4, i32 0, i32 1, !llfi_index !266
  store %"struct.std::_Rb_tree_node_base"* null, %"struct.std::_Rb_tree_node_base"** %5, align 8, !llfi_index !267
  %6 = getelementptr inbounds %"struct.std::_Rb_tree_header", %"struct.std::_Rb_tree_header"* %3, i32 0, i32 0, !llfi_index !268
  %7 = getelementptr inbounds %"struct.std::_Rb_tree_header", %"struct.std::_Rb_tree_header"* %3, i32 0, i32 0, !llfi_index !269
  %8 = getelementptr inbounds %"struct.std::_Rb_tree_node_base", %"struct.std::_Rb_tree_node_base"* %7, i32 0, i32 2, !llfi_index !270
  store %"struct.std::_Rb_tree_node_base"* %6, %"struct.std::_Rb_tree_node_base"** %8, align 8, !llfi_index !271
  %9 = getelementptr inbounds %"struct.std::_Rb_tree_header", %"struct.std::_Rb_tree_header"* %3, i32 0, i32 0, !llfi_index !272
  %10 = getelementptr inbounds %"struct.std::_Rb_tree_header", %"struct.std::_Rb_tree_header"* %3, i32 0, i32 0, !llfi_index !273
  %11 = getelementptr inbounds %"struct.std::_Rb_tree_node_base", %"struct.std::_Rb_tree_node_base"* %10, i32 0, i32 3, !llfi_index !274
  store %"struct.std::_Rb_tree_node_base"* %9, %"struct.std::_Rb_tree_node_base"** %11, align 8, !llfi_index !275
  %12 = getelementptr inbounds %"struct.std::_Rb_tree_header", %"struct.std::_Rb_tree_header"* %3, i32 0, i32 1, !llfi_index !276
  store i64 0, i64* %12, align 8, !llfi_index !277
  ret void, !llfi_index !278
}

; Function Attrs: noinline nounwind uwtable
define linkonce_odr dso_local void @_ZN9__gnu_cxx13new_allocatorISt13_Rb_tree_nodeISt4pairIKxiEEEC2Ev(%"struct.std::less"* nonnull align 1 dereferenceable(1) %0) unnamed_addr #1 comdat align 2 {
  %2 = alloca %"struct.std::less"*, align 8, !llfi_index !279
  store %"struct.std::less"* %0, %"struct.std::less"** %2, align 8, !llfi_index !280
  %3 = load %"struct.std::less"*, %"struct.std::less"** %2, align 8, !llfi_index !281
  ret void, !llfi_index !282
}

declare dso_local void @_ZNSt8ios_base4InitC1Ev(%"struct.std::less"* nonnull align 1 dereferenceable(1)) unnamed_addr #7

; Function Attrs: noinline uwtable
define internal void @__dtor__ZStL8__ioinit() #0 section ".text.startup" {
  call void @_ZNSt8ios_base4InitD1Ev(%"struct.std::less"* @_ZStL8__ioinit), !llfi_index !283
  ret void, !llfi_index !284
}

; Function Attrs: nounwind
declare dso_local void @_ZNSt8ios_base4InitD1Ev(%"struct.std::less"* nonnull align 1 dereferenceable(1)) unnamed_addr #8

; Function Attrs: mustprogress noinline uwtable
define dso_local void @_Z6SearchiiiPxx(i32 %0, i32 %1, i32 %2, i64* %3, i64 %4) #4 {
  %6 = alloca i32, align 4, !llfi_index !285
  %7 = alloca i32, align 4, !llfi_index !286
  %8 = alloca i32, align 4, !llfi_index !287
  %9 = alloca i64*, align 8, !llfi_index !288
  %10 = alloca i64, align 8, !llfi_index !289
  %11 = alloca i32, align 4, !llfi_index !290
  %12 = alloca i32, align 4, !llfi_index !291
  %13 = alloca i32, align 4, !llfi_index !292
  %14 = alloca i32, align 4, !llfi_index !293
  store i32 %0, i32* %6, align 4, !llfi_index !294
  store i32 %1, i32* %7, align 4, !llfi_index !295
  store i32 %2, i32* %8, align 4, !llfi_index !296
  store i64* %3, i64** %9, align 8, !llfi_index !297
  store i64 %4, i64* %10, align 8, !llfi_index !298
  %15 = load i32, i32* %8, align 4, !llfi_index !299
  %16 = load i32, i32* @l, align 4, !llfi_index !300
  %17 = icmp sgt i32 %15, %16, !llfi_index !301
  br i1 %17, label %18, label %26, !llfi_index !302

18:                                               ; preds = %5
  %19 = load i64, i64* %10, align 8, !llfi_index !303
  %20 = load i64*, i64** %9, align 8, !llfi_index !304
  %21 = load i64*, i64** %9, align 8, !llfi_index !305
  %22 = getelementptr inbounds i64, i64* %21, i64 0, !llfi_index !306
  %23 = load i64, i64* %22, align 8, !llfi_index !307
  %24 = add nsw i64 %23, 1, !llfi_index !308
  store i64 %24, i64* %22, align 8, !llfi_index !309
  %25 = getelementptr inbounds i64, i64* %20, i64 %24, !llfi_index !310
  store i64 %19, i64* %25, align 8, !llfi_index !311
  br label %111, !llfi_index !312

26:                                               ; preds = %5
  store i32 -1, i32* %11, align 4, !llfi_index !313
  br label %27, !llfi_index !314

27:                                               ; preds = %107, %26
  %28 = load i32, i32* %11, align 4, !llfi_index !315
  %29 = icmp sle i32 %28, 1, !llfi_index !316
  br i1 %29, label %30, label %110, !llfi_index !317

30:                                               ; preds = %27
  store i32 -1, i32* %12, align 4, !llfi_index !318
  br label %31, !llfi_index !319

31:                                               ; preds = %103, %30
  %32 = load i32, i32* %12, align 4, !llfi_index !320
  %33 = icmp sle i32 %32, 1, !llfi_index !321
  br i1 %33, label %34, label %106, !llfi_index !322

34:                                               ; preds = %31
  %35 = load i32, i32* %6, align 4, !llfi_index !323
  %36 = load i32, i32* %11, align 4, !llfi_index !324
  %37 = add nsw i32 %35, %36, !llfi_index !325
  store i32 %37, i32* %13, align 4, !llfi_index !326
  %38 = load i32, i32* %12, align 4, !llfi_index !327
  %39 = load i32, i32* %7, align 4, !llfi_index !328
  %40 = add nsw i32 %38, %39, !llfi_index !329
  store i32 %40, i32* %14, align 4, !llfi_index !330
  %41 = load i32, i32* %13, align 4, !llfi_index !331
  %42 = icmp sle i32 0, %41, !llfi_index !332
  br i1 %42, label %43, label %102, !llfi_index !333

43:                                               ; preds = %34
  %44 = load i32, i32* %13, align 4, !llfi_index !334
  %45 = icmp slt i32 %44, 8, !llfi_index !335
  br i1 %45, label %46, label %102, !llfi_index !336

46:                                               ; preds = %43
  %47 = load i32, i32* %14, align 4, !llfi_index !337
  %48 = icmp sle i32 0, %47, !llfi_index !338
  br i1 %48, label %49, label %102, !llfi_index !339

49:                                               ; preds = %46
  %50 = load i32, i32* %14, align 4, !llfi_index !340
  %51 = icmp slt i32 %50, 8, !llfi_index !341
  br i1 %51, label %52, label %102, !llfi_index !342

52:                                               ; preds = %49
  %53 = load i32, i32* %13, align 4, !llfi_index !343
  %54 = sext i32 %53 to i64, !llfi_index !344
  %55 = getelementptr inbounds [8 x [8 x i8]], [8 x [8 x i8]]* @used, i64 0, i64 %54, !llfi_index !345
  %56 = load i32, i32* %14, align 4, !llfi_index !346
  %57 = sext i32 %56 to i64, !llfi_index !347
  %58 = getelementptr inbounds [8 x i8], [8 x i8]* %55, i64 0, i64 %57, !llfi_index !348
  %59 = load i8, i8* %58, align 1, !llfi_index !349
  %60 = trunc i8 %59 to i1, !llfi_index !350
  br i1 %60, label %102, label %61, !llfi_index !351

61:                                               ; preds = %52
  %62 = load i32, i32* %8, align 4, !llfi_index !352
  %63 = sext i32 %62 to i64, !llfi_index !353
  %64 = getelementptr inbounds [100 x i8], [100 x i8]* @S, i64 0, i64 %63, !llfi_index !354
  %65 = load i8, i8* %64, align 1, !llfi_index !355
  %66 = sext i8 %65 to i32, !llfi_index !356
  %67 = load i32, i32* %13, align 4, !llfi_index !357
  %68 = sext i32 %67 to i64, !llfi_index !358
  %69 = getelementptr inbounds [8 x [8 x i8]], [8 x [8 x i8]]* @b, i64 0, i64 %68, !llfi_index !359
  %70 = load i32, i32* %14, align 4, !llfi_index !360
  %71 = sext i32 %70 to i64, !llfi_index !361
  %72 = getelementptr inbounds [8 x i8], [8 x i8]* %69, i64 0, i64 %71, !llfi_index !362
  %73 = load i8, i8* %72, align 1, !llfi_index !363
  %74 = sext i8 %73 to i32, !llfi_index !364
  %75 = icmp eq i32 %66, %74, !llfi_index !365
  br i1 %75, label %76, label %102, !llfi_index !366

76:                                               ; preds = %61
  %77 = load i32, i32* %13, align 4, !llfi_index !367
  %78 = sext i32 %77 to i64, !llfi_index !368
  %79 = getelementptr inbounds [8 x [8 x i8]], [8 x [8 x i8]]* @used, i64 0, i64 %78, !llfi_index !369
  %80 = load i32, i32* %14, align 4, !llfi_index !370
  %81 = sext i32 %80 to i64, !llfi_index !371
  %82 = getelementptr inbounds [8 x i8], [8 x i8]* %79, i64 0, i64 %81, !llfi_index !372
  store i8 1, i8* %82, align 1, !llfi_index !373
  %83 = load i32, i32* %13, align 4, !llfi_index !374
  %84 = load i32, i32* %14, align 4, !llfi_index !375
  %85 = load i32, i32* %8, align 4, !llfi_index !376
  %86 = add nsw i32 %85, 1, !llfi_index !377
  %87 = load i64*, i64** %9, align 8, !llfi_index !378
  %88 = load i64, i64* %10, align 8, !llfi_index !379
  %89 = load i32, i32* %13, align 4, !llfi_index !380
  %90 = mul nsw i32 %89, 8, !llfi_index !381
  %91 = load i32, i32* %14, align 4, !llfi_index !382
  %92 = add nsw i32 %90, %91, !llfi_index !383
  %93 = zext i32 %92 to i64, !llfi_index !384
  %94 = shl i64 1, %93, !llfi_index !385
  %95 = or i64 %88, %94, !llfi_index !386
  call void @_Z6SearchiiiPxx(i32 %83, i32 %84, i32 %86, i64* %87, i64 %95), !llfi_index !387
  %96 = load i32, i32* %13, align 4, !llfi_index !388
  %97 = sext i32 %96 to i64, !llfi_index !389
  %98 = getelementptr inbounds [8 x [8 x i8]], [8 x [8 x i8]]* @used, i64 0, i64 %97, !llfi_index !390
  %99 = load i32, i32* %14, align 4, !llfi_index !391
  %100 = sext i32 %99 to i64, !llfi_index !392
  %101 = getelementptr inbounds [8 x i8], [8 x i8]* %98, i64 0, i64 %100, !llfi_index !393
  store i8 0, i8* %101, align 1, !llfi_index !394
  br label %102, !llfi_index !395

102:                                              ; preds = %76, %61, %52, %49, %46, %43, %34
  br label %103, !llfi_index !396

103:                                              ; preds = %102
  %104 = load i32, i32* %12, align 4, !llfi_index !397
  %105 = add nsw i32 %104, 1, !llfi_index !398
  store i32 %105, i32* %12, align 4, !llfi_index !399
  br label %31, !llvm.loop !400, !llfi_index !401

106:                                              ; preds = %31
  br label %107, !llfi_index !402

107:                                              ; preds = %106
  %108 = load i32, i32* %11, align 4, !llfi_index !403
  %109 = add nsw i32 %108, 1, !llfi_index !404
  store i32 %109, i32* %11, align 4, !llfi_index !405
  br label %27, !llvm.loop !406, !llfi_index !407

110:                                              ; preds = %27
  br label %111, !llfi_index !408

111:                                              ; preds = %110, %18
  ret void, !llfi_index !409
}

; Function Attrs: mustprogress noinline uwtable
define dso_local void @_Z4calciii(i32 %0, i32 %1, i32 %2) #4 {
  %4 = alloca i32, align 4, !llfi_index !410
  %5 = alloca i32, align 4, !llfi_index !411
  %6 = alloca i32, align 4, !llfi_index !412
  %7 = alloca i32, align 4, !llfi_index !413
  %8 = alloca i32, align 4, !llfi_index !414
  %9 = alloca i32, align 4, !llfi_index !415
  %10 = alloca i64, align 8, !llfi_index !416
  %11 = alloca i32, align 4, !llfi_index !417
  %12 = alloca [5 x i32], align 16, !llfi_index !418
  %13 = alloca i32, align 4, !llfi_index !419
  %14 = alloca i32, align 4, !llfi_index !420
  %15 = alloca i32, align 4, !llfi_index !421
  %16 = alloca i64, align 8, !llfi_index !422
  %17 = alloca i32, align 4, !llfi_index !423
  %18 = alloca i32, align 4, !llfi_index !424
  store i32 %0, i32* %4, align 4, !llfi_index !425
  store i32 %1, i32* %5, align 4, !llfi_index !426
  store i32 %2, i32* %6, align 4, !llfi_index !427
  store i32 0, i32* @l, align 4, !llfi_index !428
  %19 = load i32, i32* %6, align 4, !llfi_index !429
  %20 = sub nsw i32 %19, 1, !llfi_index !430
  store i32 %20, i32* %7, align 4, !llfi_index !431
  br label %21, !llfi_index !432

21:                                               ; preds = %33, %3
  %22 = load i32, i32* %7, align 4, !llfi_index !433
  %23 = icmp ne i32 %22, 0, !llfi_index !434
  br i1 %23, label %24, label %36, !llfi_index !435

24:                                               ; preds = %21
  %25 = load i32, i32* %7, align 4, !llfi_index !436
  %26 = sext i32 %25 to i64, !llfi_index !437
  %27 = getelementptr inbounds [100 x i8], [100 x i8]* @ch, i64 0, i64 %26, !llfi_index !438
  %28 = load i8, i8* %27, align 1, !llfi_index !439
  %29 = load i32, i32* @l, align 4, !llfi_index !440
  %30 = add nsw i32 %29, 1, !llfi_index !441
  store i32 %30, i32* @l, align 4, !llfi_index !442
  %31 = sext i32 %30 to i64, !llfi_index !443
  %32 = getelementptr inbounds [100 x i8], [100 x i8]* @S, i64 0, i64 %31, !llfi_index !444
  store i8 %28, i8* %32, align 1, !llfi_index !445
  br label %33, !llfi_index !446

33:                                               ; preds = %24
  %34 = load i32, i32* %7, align 4, !llfi_index !447
  %35 = add nsw i32 %34, -1, !llfi_index !448
  store i32 %35, i32* %7, align 4, !llfi_index !449
  br label %21, !llvm.loop !450, !llfi_index !451

36:                                               ; preds = %21
  store i64 0, i64* getelementptr inbounds ([1048576 x i64], [1048576 x i64]* @A, i64 0, i64 0), align 16, !llfi_index !452
  call void @llvm.memset.p0i8.i64(i8* align 16 getelementptr inbounds ([8 x [8 x i8]], [8 x [8 x i8]]* @used, i32 0, i32 0, i32 0), i8 0, i64 64, i1 false), !llfi_index !453
  %37 = load i32, i32* %4, align 4, !llfi_index !454
  %38 = sext i32 %37 to i64, !llfi_index !455
  %39 = getelementptr inbounds [8 x [8 x i8]], [8 x [8 x i8]]* @used, i64 0, i64 %38, !llfi_index !456
  %40 = load i32, i32* %5, align 4, !llfi_index !457
  %41 = sext i32 %40 to i64, !llfi_index !458
  %42 = getelementptr inbounds [8 x i8], [8 x i8]* %39, i64 0, i64 %41, !llfi_index !459
  store i8 1, i8* %42, align 1, !llfi_index !460
  %43 = load i32, i32* %4, align 4, !llfi_index !461
  %44 = load i32, i32* %5, align 4, !llfi_index !462
  call void @_Z6SearchiiiPxx(i32 %43, i32 %44, i32 1, i64* getelementptr inbounds ([1048576 x i64], [1048576 x i64]* @A, i64 0, i64 0), i64 0), !llfi_index !463
  store i32 0, i32* @l, align 4, !llfi_index !464
  %45 = load i32, i32* %6, align 4, !llfi_index !465
  %46 = add nsw i32 %45, 1, !llfi_index !466
  store i32 %46, i32* %8, align 4, !llfi_index !467
  br label %47, !llfi_index !468

47:                                               ; preds = %60, %36
  %48 = load i32, i32* %8, align 4, !llfi_index !469
  %49 = load i32, i32* @k, align 4, !llfi_index !470
  %50 = icmp sle i32 %48, %49, !llfi_index !471
  br i1 %50, label %51, label %63, !llfi_index !472

51:                                               ; preds = %47
  %52 = load i32, i32* %8, align 4, !llfi_index !473
  %53 = sext i32 %52 to i64, !llfi_index !474
  %54 = getelementptr inbounds [100 x i8], [100 x i8]* @ch, i64 0, i64 %53, !llfi_index !475
  %55 = load i8, i8* %54, align 1, !llfi_index !476
  %56 = load i32, i32* @l, align 4, !llfi_index !477
  %57 = add nsw i32 %56, 1, !llfi_index !478
  store i32 %57, i32* @l, align 4, !llfi_index !479
  %58 = sext i32 %57 to i64, !llfi_index !480
  %59 = getelementptr inbounds [100 x i8], [100 x i8]* @S, i64 0, i64 %58, !llfi_index !481
  store i8 %55, i8* %59, align 1, !llfi_index !482
  br label %60, !llfi_index !483

60:                                               ; preds = %51
  %61 = load i32, i32* %8, align 4, !llfi_index !484
  %62 = add nsw i32 %61, 1, !llfi_index !485
  store i32 %62, i32* %8, align 4, !llfi_index !486
  br label %47, !llvm.loop !487, !llfi_index !488

63:                                               ; preds = %47
  store i64 0, i64* getelementptr inbounds ([1048576 x i64], [1048576 x i64]* @B, i64 0, i64 0), align 16, !llfi_index !489
  %64 = load i32, i32* %4, align 4, !llfi_index !490
  %65 = sext i32 %64 to i64, !llfi_index !491
  %66 = getelementptr inbounds [8 x [8 x i8]], [8 x [8 x i8]]* @used, i64 0, i64 %65, !llfi_index !492
  %67 = load i32, i32* %5, align 4, !llfi_index !493
  %68 = sext i32 %67 to i64, !llfi_index !494
  %69 = getelementptr inbounds [8 x i8], [8 x i8]* %66, i64 0, i64 %68, !llfi_index !495
  store i8 1, i8* %69, align 1, !llfi_index !496
  %70 = load i32, i32* %4, align 4, !llfi_index !497
  %71 = load i32, i32* %5, align 4, !llfi_index !498
  call void @_Z6SearchiiiPxx(i32 %70, i32 %71, i32 1, i64* getelementptr inbounds ([1048576 x i64], [1048576 x i64]* @B, i64 0, i64 0), i64 0), !llfi_index !499
  call void @_ZNSt3mapIxiSt4lessIxESaISt4pairIKxiEEE5clearEv(%"class.std::map"* nonnull align 8 dereferenceable(48) @Map) #2, !llfi_index !500
  store i32 1, i32* %9, align 4, !llfi_index !501
  br label %72, !llfi_index !502

72:                                               ; preds = %99, %63
  %73 = load i32, i32* %9, align 4, !llfi_index !503
  %74 = sext i32 %73 to i64, !llfi_index !504
  %75 = load i64, i64* getelementptr inbounds ([1048576 x i64], [1048576 x i64]* @A, i64 0, i64 0), align 16, !llfi_index !505
  %76 = icmp sle i64 %74, %75, !llfi_index !506
  br i1 %76, label %77, label %102, !llfi_index !507

77:                                               ; preds = %72
  %78 = load i32, i32* %9, align 4, !llfi_index !508
  %79 = sext i32 %78 to i64, !llfi_index !509
  %80 = getelementptr inbounds [1048576 x i64], [1048576 x i64]* @A, i64 0, i64 %79, !llfi_index !510
  %81 = load i64, i64* %80, align 8, !llfi_index !511
  store i64 %81, i64* %10, align 8, !llfi_index !512
  br label %82, !llfi_index !513

82:                                               ; preds = %90, %77
  %83 = call nonnull align 4 dereferenceable(4) i32* @_ZNSt3mapIxiSt4lessIxESaISt4pairIKxiEEEixERS3_(%"class.std::map"* nonnull align 8 dereferenceable(48) @Map, i64* nonnull align 8 dereferenceable(8) %10), !llfi_index !514
  %84 = load i32, i32* %83, align 4, !llfi_index !515
  %85 = add nsw i32 %84, 1, !llfi_index !516
  store i32 %85, i32* %83, align 4, !llfi_index !517
  %86 = load i64, i64* %10, align 8, !llfi_index !518
  %87 = icmp ne i64 %86, 0, !llfi_index !519
  br i1 %87, label %89, label %88, !llfi_index !520

88:                                               ; preds = %82
  br label %98, !llfi_index !521

89:                                               ; preds = %82
  br label %90, !llfi_index !522

90:                                               ; preds = %89
  %91 = load i64, i64* %10, align 8, !llfi_index !523
  %92 = sub nsw i64 %91, 1, !llfi_index !524
  %93 = load i32, i32* %9, align 4, !llfi_index !525
  %94 = sext i32 %93 to i64, !llfi_index !526
  %95 = getelementptr inbounds [1048576 x i64], [1048576 x i64]* @A, i64 0, i64 %94, !llfi_index !527
  %96 = load i64, i64* %95, align 8, !llfi_index !528
  %97 = and i64 %92, %96, !llfi_index !529
  store i64 %97, i64* %10, align 8, !llfi_index !530
  br label %82, !llvm.loop !531, !llfi_index !532

98:                                               ; preds = %88
  br label %99, !llfi_index !533

99:                                               ; preds = %98
  %100 = load i32, i32* %9, align 4, !llfi_index !534
  %101 = add nsw i32 %100, 1, !llfi_index !535
  store i32 %101, i32* %9, align 4, !llfi_index !536
  br label %72, !llvm.loop !537, !llfi_index !538

102:                                              ; preds = %72
  store i32 1, i32* %11, align 4, !llfi_index !539
  br label %103, !llfi_index !540

103:                                              ; preds = %185, %102
  %104 = load i32, i32* %11, align 4, !llfi_index !541
  %105 = sext i32 %104 to i64, !llfi_index !542
  %106 = load i64, i64* getelementptr inbounds ([1048576 x i64], [1048576 x i64]* @B, i64 0, i64 0), align 16, !llfi_index !543
  %107 = icmp sle i64 %105, %106, !llfi_index !544
  br i1 %107, label %108, label %188, !llfi_index !545

108:                                              ; preds = %103
  store i32 0, i32* %13, align 4, !llfi_index !546
  store i32 0, i32* %14, align 4, !llfi_index !547
  br label %109, !llfi_index !548

109:                                              ; preds = %129, %108
  %110 = load i32, i32* %14, align 4, !llfi_index !549
  %111 = icmp slt i32 %110, 64, !llfi_index !550
  br i1 %111, label %112, label %132, !llfi_index !551

112:                                              ; preds = %109
  %113 = load i32, i32* %14, align 4, !llfi_index !552
  %114 = zext i32 %113 to i64, !llfi_index !553
  %115 = shl i64 1, %114, !llfi_index !554
  %116 = load i32, i32* %11, align 4, !llfi_index !555
  %117 = sext i32 %116 to i64, !llfi_index !556
  %118 = getelementptr inbounds [1048576 x i64], [1048576 x i64]* @B, i64 0, i64 %117, !llfi_index !557
  %119 = load i64, i64* %118, align 8, !llfi_index !558
  %120 = and i64 %115, %119, !llfi_index !559
  %121 = icmp ne i64 %120, 0, !llfi_index !560
  br i1 %121, label %122, label %128, !llfi_index !561

122:                                              ; preds = %112
  %123 = load i32, i32* %14, align 4, !llfi_index !562
  %124 = load i32, i32* %13, align 4, !llfi_index !563
  %125 = add nsw i32 %124, 1, !llfi_index !564
  store i32 %125, i32* %13, align 4, !llfi_index !565
  %126 = sext i32 %124 to i64, !llfi_index !566
  %127 = getelementptr inbounds [5 x i32], [5 x i32]* %12, i64 0, i64 %126, !llfi_index !567
  store i32 %123, i32* %127, align 4, !llfi_index !568
  br label %128, !llfi_index !569

128:                                              ; preds = %122, %112
  br label %129, !llfi_index !570

129:                                              ; preds = %128
  %130 = load i32, i32* %14, align 4, !llfi_index !571
  %131 = add nsw i32 %130, 1, !llfi_index !572
  store i32 %131, i32* %14, align 4, !llfi_index !573
  br label %109, !llvm.loop !574, !llfi_index !575

132:                                              ; preds = %109
  store i32 0, i32* %15, align 4, !llfi_index !576
  br label %133, !llfi_index !577

133:                                              ; preds = %181, %132
  %134 = load i32, i32* %15, align 4, !llfi_index !578
  %135 = load i32, i32* %13, align 4, !llfi_index !579
  %136 = shl i32 1, %135, !llfi_index !580
  %137 = icmp slt i32 %134, %136, !llfi_index !581
  br i1 %137, label %138, label %184, !llfi_index !582

138:                                              ; preds = %133
  store i64 0, i64* %16, align 8, !llfi_index !583
  store i32 0, i32* %17, align 4, !llfi_index !584
  store i32 0, i32* %18, align 4, !llfi_index !585
  br label %139, !llfi_index !586

139:                                              ; preds = %161, %138
  %140 = load i32, i32* %18, align 4, !llfi_index !587
  %141 = load i32, i32* %13, align 4, !llfi_index !588
  %142 = icmp slt i32 %140, %141, !llfi_index !589
  br i1 %142, label %143, label %164, !llfi_index !590

143:                                              ; preds = %139
  %144 = load i32, i32* %18, align 4, !llfi_index !591
  %145 = shl i32 1, %144, !llfi_index !592
  %146 = load i32, i32* %15, align 4, !llfi_index !593
  %147 = and i32 %145, %146, !llfi_index !594
  %148 = icmp ne i32 %147, 0, !llfi_index !595
  br i1 %148, label %149, label %160, !llfi_index !596

149:                                              ; preds = %143
  %150 = load i32, i32* %18, align 4, !llfi_index !597
  %151 = sext i32 %150 to i64, !llfi_index !598
  %152 = getelementptr inbounds [5 x i32], [5 x i32]* %12, i64 0, i64 %151, !llfi_index !599
  %153 = load i32, i32* %152, align 4, !llfi_index !600
  %154 = zext i32 %153 to i64, !llfi_index !601
  %155 = shl i64 1, %154, !llfi_index !602
  %156 = load i64, i64* %16, align 8, !llfi_index !603
  %157 = or i64 %156, %155, !llfi_index !604
  store i64 %157, i64* %16, align 8, !llfi_index !605
  %158 = load i32, i32* %17, align 4, !llfi_index !606
  %159 = add nsw i32 %158, 1, !llfi_index !607
  store i32 %159, i32* %17, align 4, !llfi_index !608
  br label %160, !llfi_index !609

160:                                              ; preds = %149, %143
  br label %161, !llfi_index !610

161:                                              ; preds = %160
  %162 = load i32, i32* %18, align 4, !llfi_index !611
  %163 = add nsw i32 %162, 1, !llfi_index !612
  store i32 %163, i32* %18, align 4, !llfi_index !613
  br label %139, !llvm.loop !614, !llfi_index !615

164:                                              ; preds = %139
  %165 = load i32, i32* %17, align 4, !llfi_index !616
  %166 = srem i32 %165, 2, !llfi_index !617
  %167 = icmp eq i32 %166, 0, !llfi_index !618
  br i1 %167, label %168, label %174, !llfi_index !619

168:                                              ; preds = %164
  %169 = call nonnull align 4 dereferenceable(4) i32* @_ZNSt3mapIxiSt4lessIxESaISt4pairIKxiEEEixERS3_(%"class.std::map"* nonnull align 8 dereferenceable(48) @Map, i64* nonnull align 8 dereferenceable(8) %16), !llfi_index !620
  %170 = load i32, i32* %169, align 4, !llfi_index !621
  %171 = sext i32 %170 to i64, !llfi_index !622
  %172 = load i64, i64* @ans, align 8, !llfi_index !623
  %173 = add nsw i64 %172, %171, !llfi_index !624
  store i64 %173, i64* @ans, align 8, !llfi_index !625
  br label %180, !llfi_index !626

174:                                              ; preds = %164
  %175 = call nonnull align 4 dereferenceable(4) i32* @_ZNSt3mapIxiSt4lessIxESaISt4pairIKxiEEEixERS3_(%"class.std::map"* nonnull align 8 dereferenceable(48) @Map, i64* nonnull align 8 dereferenceable(8) %16), !llfi_index !627
  %176 = load i32, i32* %175, align 4, !llfi_index !628
  %177 = sext i32 %176 to i64, !llfi_index !629
  %178 = load i64, i64* @ans, align 8, !llfi_index !630
  %179 = sub nsw i64 %178, %177, !llfi_index !631
  store i64 %179, i64* @ans, align 8, !llfi_index !632
  br label %180, !llfi_index !633

180:                                              ; preds = %174, %168
  br label %181, !llfi_index !634

181:                                              ; preds = %180
  %182 = load i32, i32* %15, align 4, !llfi_index !635
  %183 = add nsw i32 %182, 1, !llfi_index !636
  store i32 %183, i32* %15, align 4, !llfi_index !637
  br label %133, !llvm.loop !638, !llfi_index !639

184:                                              ; preds = %133
  br label %185, !llfi_index !640

185:                                              ; preds = %184
  %186 = load i32, i32* %11, align 4, !llfi_index !641
  %187 = add nsw i32 %186, 1, !llfi_index !642
  store i32 %187, i32* %11, align 4, !llfi_index !643
  br label %103, !llvm.loop !644, !llfi_index !645

188:                                              ; preds = %103
  ret void, !llfi_index !646
}

; Function Attrs: argmemonly nofree nounwind willreturn writeonly
declare void @llvm.memset.p0i8.i64(i8* nocapture writeonly, i8, i64, i1 immarg) #9

; Function Attrs: mustprogress noinline nounwind uwtable
define linkonce_odr dso_local void @_ZNSt3mapIxiSt4lessIxESaISt4pairIKxiEEE5clearEv(%"class.std::map"* nonnull align 8 dereferenceable(48) %0) #3 comdat align 2 {
  %2 = alloca %"class.std::map"*, align 8, !llfi_index !647
  store %"class.std::map"* %0, %"class.std::map"** %2, align 8, !llfi_index !648
  %3 = load %"class.std::map"*, %"class.std::map"** %2, align 8, !llfi_index !649
  %4 = getelementptr inbounds %"class.std::map", %"class.std::map"* %3, i32 0, i32 0, !llfi_index !650
  call void @_ZNSt8_Rb_treeIxSt4pairIKxiESt10_Select1stIS2_ESt4lessIxESaIS2_EE5clearEv(%"class.std::_Rb_tree"* nonnull align 8 dereferenceable(48) %4) #2, !llfi_index !651
  ret void, !llfi_index !652
}

; Function Attrs: mustprogress noinline uwtable
define linkonce_odr dso_local nonnull align 4 dereferenceable(4) i32* @_ZNSt3mapIxiSt4lessIxESaISt4pairIKxiEEEixERS3_(%"class.std::map"* nonnull align 8 dereferenceable(48) %0, i64* nonnull align 8 dereferenceable(8) %1) #4 comdat align 2 {
  %3 = alloca %"class.std::map"*, align 8, !llfi_index !653
  %4 = alloca i64*, align 8, !llfi_index !654
  %5 = alloca %"struct.std::_Rb_tree_iterator", align 8, !llfi_index !655
  %6 = alloca %"struct.std::_Rb_tree_iterator", align 8, !llfi_index !656
  %7 = alloca %"struct.std::less", align 1, !llfi_index !657
  %8 = alloca %"struct.std::less", align 1, !llfi_index !658
  %9 = alloca %"struct.std::_Rb_tree_iterator", align 8, !llfi_index !659
  %10 = alloca %"struct.std::_Rb_tree_iterator", align 8, !llfi_index !660
  %11 = alloca %"class.std::tuple", align 8, !llfi_index !661
  %12 = alloca %"struct.std::less", align 1, !llfi_index !662
  store %"class.std::map"* %0, %"class.std::map"** %3, align 8, !llfi_index !663
  store i64* %1, i64** %4, align 8, !llfi_index !664
  %13 = load %"class.std::map"*, %"class.std::map"** %3, align 8, !llfi_index !665
  %14 = load i64*, i64** %4, align 8, !llfi_index !666
  %15 = call %"struct.std::_Rb_tree_node_base"* @_ZNSt3mapIxiSt4lessIxESaISt4pairIKxiEEE11lower_boundERS3_(%"class.std::map"* nonnull align 8 dereferenceable(48) %13, i64* nonnull align 8 dereferenceable(8) %14), !llfi_index !667
  %16 = getelementptr inbounds %"struct.std::_Rb_tree_iterator", %"struct.std::_Rb_tree_iterator"* %5, i32 0, i32 0, !llfi_index !668
  store %"struct.std::_Rb_tree_node_base"* %15, %"struct.std::_Rb_tree_node_base"** %16, align 8, !llfi_index !669
  %17 = call %"struct.std::_Rb_tree_node_base"* @_ZNSt3mapIxiSt4lessIxESaISt4pairIKxiEEE3endEv(%"class.std::map"* nonnull align 8 dereferenceable(48) %13) #2, !llfi_index !670
  %18 = getelementptr inbounds %"struct.std::_Rb_tree_iterator", %"struct.std::_Rb_tree_iterator"* %6, i32 0, i32 0, !llfi_index !671
  store %"struct.std::_Rb_tree_node_base"* %17, %"struct.std::_Rb_tree_node_base"** %18, align 8, !llfi_index !672
  %19 = call zeroext i1 @_ZSteqRKSt17_Rb_tree_iteratorISt4pairIKxiEES5_(%"struct.std::_Rb_tree_iterator"* nonnull align 8 dereferenceable(8) %5, %"struct.std::_Rb_tree_iterator"* nonnull align 8 dereferenceable(8) %6) #2, !llfi_index !673
  br i1 %19, label %25, label %20, !llfi_index !674

20:                                               ; preds = %2
  call void @_ZNKSt3mapIxiSt4lessIxESaISt4pairIKxiEEE8key_compEv(%"class.std::map"* nonnull align 8 dereferenceable(48) %13), !llfi_index !675
  %21 = load i64*, i64** %4, align 8, !llfi_index !676
  %22 = call nonnull align 8 dereferenceable(12) %"struct.std::pair"* @_ZNKSt17_Rb_tree_iteratorISt4pairIKxiEEdeEv(%"struct.std::_Rb_tree_iterator"* nonnull align 8 dereferenceable(8) %5) #2, !llfi_index !677
  %23 = getelementptr inbounds %"struct.std::pair", %"struct.std::pair"* %22, i32 0, i32 0, !llfi_index !678
  %24 = call zeroext i1 @_ZNKSt4lessIxEclERKxS2_(%"struct.std::less"* nonnull align 1 dereferenceable(1) %7, i64* nonnull align 8 dereferenceable(8) %21, i64* nonnull align 8 dereferenceable(8) %23), !llfi_index !679
  br label %25, !llfi_index !680

25:                                               ; preds = %20, %2
  %26 = phi i1 [ true, %2 ], [ %24, %20 ], !llfi_index !681
  br i1 %26, label %27, label %36, !llfi_index !682

27:                                               ; preds = %25
  %28 = getelementptr inbounds %"class.std::map", %"class.std::map"* %13, i32 0, i32 0, !llfi_index !683
  call void @_ZNSt23_Rb_tree_const_iteratorISt4pairIKxiEEC2ERKSt17_Rb_tree_iteratorIS2_E(%"struct.std::_Rb_tree_iterator"* nonnull align 8 dereferenceable(8) %10, %"struct.std::_Rb_tree_iterator"* nonnull align 8 dereferenceable(8) %5) #2, !llfi_index !684
  %29 = load i64*, i64** %4, align 8, !llfi_index !685
  call void @_ZNSt5tupleIJRKxEEC2IvLb1EEES1_(%"class.std::tuple"* nonnull align 8 dereferenceable(8) %11, i64* nonnull align 8 dereferenceable(8) %29), !llfi_index !686
  %30 = getelementptr inbounds %"struct.std::_Rb_tree_iterator", %"struct.std::_Rb_tree_iterator"* %10, i32 0, i32 0, !llfi_index !687
  %31 = load %"struct.std::_Rb_tree_node_base"*, %"struct.std::_Rb_tree_node_base"** %30, align 8, !llfi_index !688
  %32 = call %"struct.std::_Rb_tree_node_base"* @_ZNSt8_Rb_treeIxSt4pairIKxiESt10_Select1stIS2_ESt4lessIxESaIS2_EE22_M_emplace_hint_uniqueIJRKSt21piecewise_construct_tSt5tupleIJRS1_EESD_IJEEEEESt17_Rb_tree_iteratorIS2_ESt23_Rb_tree_const_iteratorIS2_EDpOT_(%"class.std::_Rb_tree"* nonnull align 8 dereferenceable(48) %28, %"struct.std::_Rb_tree_node_base"* %31, %"struct.std::less"* nonnull align 1 dereferenceable(1) @_ZStL19piecewise_construct, %"class.std::tuple"* nonnull align 8 dereferenceable(8) %11, %"struct.std::less"* nonnull align 1 dereferenceable(1) %12), !llfi_index !689
  %33 = getelementptr inbounds %"struct.std::_Rb_tree_iterator", %"struct.std::_Rb_tree_iterator"* %9, i32 0, i32 0, !llfi_index !690
  store %"struct.std::_Rb_tree_node_base"* %32, %"struct.std::_Rb_tree_node_base"** %33, align 8, !llfi_index !691
  %34 = bitcast %"struct.std::_Rb_tree_iterator"* %5 to i8*, !llfi_index !692
  %35 = bitcast %"struct.std::_Rb_tree_iterator"* %9 to i8*, !llfi_index !693
  call void @llvm.memcpy.p0i8.p0i8.i64(i8* align 8 %34, i8* align 8 %35, i64 8, i1 false), !llfi_index !694
  br label %36, !llfi_index !695

36:                                               ; preds = %27, %25
  %37 = call nonnull align 8 dereferenceable(12) %"struct.std::pair"* @_ZNKSt17_Rb_tree_iteratorISt4pairIKxiEEdeEv(%"struct.std::_Rb_tree_iterator"* nonnull align 8 dereferenceable(8) %5) #2, !llfi_index !696
  %38 = getelementptr inbounds %"struct.std::pair", %"struct.std::pair"* %37, i32 0, i32 1, !llfi_index !697
  ret i32* %38, !llfi_index !698
}

; Function Attrs: mustprogress noinline uwtable
define linkonce_odr dso_local %"struct.std::_Rb_tree_node_base"* @_ZNSt3mapIxiSt4lessIxESaISt4pairIKxiEEE11lower_boundERS3_(%"class.std::map"* nonnull align 8 dereferenceable(48) %0, i64* nonnull align 8 dereferenceable(8) %1) #4 comdat align 2 {
  %3 = alloca %"struct.std::_Rb_tree_iterator", align 8, !llfi_index !699
  %4 = alloca %"class.std::map"*, align 8, !llfi_index !700
  %5 = alloca i64*, align 8, !llfi_index !701
  store %"class.std::map"* %0, %"class.std::map"** %4, align 8, !llfi_index !702
  store i64* %1, i64** %5, align 8, !llfi_index !703
  %6 = load %"class.std::map"*, %"class.std::map"** %4, align 8, !llfi_index !704
  %7 = getelementptr inbounds %"class.std::map", %"class.std::map"* %6, i32 0, i32 0, !llfi_index !705
  %8 = load i64*, i64** %5, align 8, !llfi_index !706
  %9 = call %"struct.std::_Rb_tree_node_base"* @_ZNSt8_Rb_treeIxSt4pairIKxiESt10_Select1stIS2_ESt4lessIxESaIS2_EE11lower_boundERS1_(%"class.std::_Rb_tree"* nonnull align 8 dereferenceable(48) %7, i64* nonnull align 8 dereferenceable(8) %8), !llfi_index !707
  %10 = getelementptr inbounds %"struct.std::_Rb_tree_iterator", %"struct.std::_Rb_tree_iterator"* %3, i32 0, i32 0, !llfi_index !708
  store %"struct.std::_Rb_tree_node_base"* %9, %"struct.std::_Rb_tree_node_base"** %10, align 8, !llfi_index !709
  %11 = getelementptr inbounds %"struct.std::_Rb_tree_iterator", %"struct.std::_Rb_tree_iterator"* %3, i32 0, i32 0, !llfi_index !710
  %12 = load %"struct.std::_Rb_tree_node_base"*, %"struct.std::_Rb_tree_node_base"** %11, align 8, !llfi_index !711
  ret %"struct.std::_Rb_tree_node_base"* %12, !llfi_index !712
}

; Function Attrs: mustprogress noinline nounwind uwtable
define linkonce_odr dso_local %"struct.std::_Rb_tree_node_base"* @_ZNSt3mapIxiSt4lessIxESaISt4pairIKxiEEE3endEv(%"class.std::map"* nonnull align 8 dereferenceable(48) %0) #3 comdat align 2 {
  %2 = alloca %"struct.std::_Rb_tree_iterator", align 8, !llfi_index !713
  %3 = alloca %"class.std::map"*, align 8, !llfi_index !714
  store %"class.std::map"* %0, %"class.std::map"** %3, align 8, !llfi_index !715
  %4 = load %"class.std::map"*, %"class.std::map"** %3, align 8, !llfi_index !716
  %5 = getelementptr inbounds %"class.std::map", %"class.std::map"* %4, i32 0, i32 0, !llfi_index !717
  %6 = call %"struct.std::_Rb_tree_node_base"* @_ZNSt8_Rb_treeIxSt4pairIKxiESt10_Select1stIS2_ESt4lessIxESaIS2_EE3endEv(%"class.std::_Rb_tree"* nonnull align 8 dereferenceable(48) %5) #2, !llfi_index !718
  %7 = getelementptr inbounds %"struct.std::_Rb_tree_iterator", %"struct.std::_Rb_tree_iterator"* %2, i32 0, i32 0, !llfi_index !719
  store %"struct.std::_Rb_tree_node_base"* %6, %"struct.std::_Rb_tree_node_base"** %7, align 8, !llfi_index !720
  %8 = getelementptr inbounds %"struct.std::_Rb_tree_iterator", %"struct.std::_Rb_tree_iterator"* %2, i32 0, i32 0, !llfi_index !721
  %9 = load %"struct.std::_Rb_tree_node_base"*, %"struct.std::_Rb_tree_node_base"** %8, align 8, !llfi_index !722
  ret %"struct.std::_Rb_tree_node_base"* %9, !llfi_index !723
}

; Function Attrs: mustprogress noinline nounwind uwtable
define linkonce_odr dso_local zeroext i1 @_ZSteqRKSt17_Rb_tree_iteratorISt4pairIKxiEES5_(%"struct.std::_Rb_tree_iterator"* nonnull align 8 dereferenceable(8) %0, %"struct.std::_Rb_tree_iterator"* nonnull align 8 dereferenceable(8) %1) #3 comdat {
  %3 = alloca %"struct.std::_Rb_tree_iterator"*, align 8, !llfi_index !724
  %4 = alloca %"struct.std::_Rb_tree_iterator"*, align 8, !llfi_index !725
  store %"struct.std::_Rb_tree_iterator"* %0, %"struct.std::_Rb_tree_iterator"** %3, align 8, !llfi_index !726
  store %"struct.std::_Rb_tree_iterator"* %1, %"struct.std::_Rb_tree_iterator"** %4, align 8, !llfi_index !727
  %5 = load %"struct.std::_Rb_tree_iterator"*, %"struct.std::_Rb_tree_iterator"** %3, align 8, !llfi_index !728
  %6 = getelementptr inbounds %"struct.std::_Rb_tree_iterator", %"struct.std::_Rb_tree_iterator"* %5, i32 0, i32 0, !llfi_index !729
  %7 = load %"struct.std::_Rb_tree_node_base"*, %"struct.std::_Rb_tree_node_base"** %6, align 8, !llfi_index !730
  %8 = load %"struct.std::_Rb_tree_iterator"*, %"struct.std::_Rb_tree_iterator"** %4, align 8, !llfi_index !731
  %9 = getelementptr inbounds %"struct.std::_Rb_tree_iterator", %"struct.std::_Rb_tree_iterator"* %8, i32 0, i32 0, !llfi_index !732
  %10 = load %"struct.std::_Rb_tree_node_base"*, %"struct.std::_Rb_tree_node_base"** %9, align 8, !llfi_index !733
  %11 = icmp eq %"struct.std::_Rb_tree_node_base"* %7, %10, !llfi_index !734
  ret i1 %11, !llfi_index !735
}

; Function Attrs: mustprogress noinline uwtable
define linkonce_odr dso_local void @_ZNKSt3mapIxiSt4lessIxESaISt4pairIKxiEEE8key_compEv(%"class.std::map"* nonnull align 8 dereferenceable(48) %0) #4 comdat align 2 {
  %2 = alloca %"class.std::map"*, align 8, !llfi_index !736
  %3 = alloca %"struct.std::less", align 1, !llfi_index !737
  store %"class.std::map"* %0, %"class.std::map"** %2, align 8, !llfi_index !738
  %4 = load %"class.std::map"*, %"class.std::map"** %2, align 8, !llfi_index !739
  %5 = getelementptr inbounds %"class.std::map", %"class.std::map"* %4, i32 0, i32 0, !llfi_index !740
  call void @_ZNKSt8_Rb_treeIxSt4pairIKxiESt10_Select1stIS2_ESt4lessIxESaIS2_EE8key_compEv(%"class.std::_Rb_tree"* nonnull align 8 dereferenceable(48) %5), !llfi_index !741
  ret void, !llfi_index !742
}

; Function Attrs: mustprogress noinline nounwind uwtable
define linkonce_odr dso_local nonnull align 8 dereferenceable(12) %"struct.std::pair"* @_ZNKSt17_Rb_tree_iteratorISt4pairIKxiEEdeEv(%"struct.std::_Rb_tree_iterator"* nonnull align 8 dereferenceable(8) %0) #3 comdat align 2 {
  %2 = alloca %"struct.std::_Rb_tree_iterator"*, align 8, !llfi_index !743
  store %"struct.std::_Rb_tree_iterator"* %0, %"struct.std::_Rb_tree_iterator"** %2, align 8, !llfi_index !744
  %3 = load %"struct.std::_Rb_tree_iterator"*, %"struct.std::_Rb_tree_iterator"** %2, align 8, !llfi_index !745
  %4 = getelementptr inbounds %"struct.std::_Rb_tree_iterator", %"struct.std::_Rb_tree_iterator"* %3, i32 0, i32 0, !llfi_index !746
  %5 = load %"struct.std::_Rb_tree_node_base"*, %"struct.std::_Rb_tree_node_base"** %4, align 8, !llfi_index !747
  %6 = bitcast %"struct.std::_Rb_tree_node_base"* %5 to %"struct.std::_Rb_tree_node"*, !llfi_index !748
  %7 = call %"struct.std::pair"* @_ZNSt13_Rb_tree_nodeISt4pairIKxiEE9_M_valptrEv(%"struct.std::_Rb_tree_node"* nonnull align 8 dereferenceable(48) %6), !llfi_index !749
  ret %"struct.std::pair"* %7, !llfi_index !750
}

; Function Attrs: mustprogress noinline nounwind uwtable
define linkonce_odr dso_local zeroext i1 @_ZNKSt4lessIxEclERKxS2_(%"struct.std::less"* nonnull align 1 dereferenceable(1) %0, i64* nonnull align 8 dereferenceable(8) %1, i64* nonnull align 8 dereferenceable(8) %2) #3 comdat align 2 {
  %4 = alloca %"struct.std::less"*, align 8, !llfi_index !751
  %5 = alloca i64*, align 8, !llfi_index !752
  %6 = alloca i64*, align 8, !llfi_index !753
  store %"struct.std::less"* %0, %"struct.std::less"** %4, align 8, !llfi_index !754
  store i64* %1, i64** %5, align 8, !llfi_index !755
  store i64* %2, i64** %6, align 8, !llfi_index !756
  %7 = load %"struct.std::less"*, %"struct.std::less"** %4, align 8, !llfi_index !757
  %8 = load i64*, i64** %5, align 8, !llfi_index !758
  %9 = load i64, i64* %8, align 8, !llfi_index !759
  %10 = load i64*, i64** %6, align 8, !llfi_index !760
  %11 = load i64, i64* %10, align 8, !llfi_index !761
  %12 = icmp slt i64 %9, %11, !llfi_index !762
  ret i1 %12, !llfi_index !763
}

; Function Attrs: noinline nounwind uwtable
define linkonce_odr dso_local void @_ZNSt23_Rb_tree_const_iteratorISt4pairIKxiEEC2ERKSt17_Rb_tree_iteratorIS2_E(%"struct.std::_Rb_tree_iterator"* nonnull align 8 dereferenceable(8) %0, %"struct.std::_Rb_tree_iterator"* nonnull align 8 dereferenceable(8) %1) unnamed_addr #1 comdat align 2 {
  %3 = alloca %"struct.std::_Rb_tree_iterator"*, align 8, !llfi_index !764
  %4 = alloca %"struct.std::_Rb_tree_iterator"*, align 8, !llfi_index !765
  store %"struct.std::_Rb_tree_iterator"* %0, %"struct.std::_Rb_tree_iterator"** %3, align 8, !llfi_index !766
  store %"struct.std::_Rb_tree_iterator"* %1, %"struct.std::_Rb_tree_iterator"** %4, align 8, !llfi_index !767
  %5 = load %"struct.std::_Rb_tree_iterator"*, %"struct.std::_Rb_tree_iterator"** %3, align 8, !llfi_index !768
  %6 = getelementptr inbounds %"struct.std::_Rb_tree_iterator", %"struct.std::_Rb_tree_iterator"* %5, i32 0, i32 0, !llfi_index !769
  %7 = load %"struct.std::_Rb_tree_iterator"*, %"struct.std::_Rb_tree_iterator"** %4, align 8, !llfi_index !770
  %8 = getelementptr inbounds %"struct.std::_Rb_tree_iterator", %"struct.std::_Rb_tree_iterator"* %7, i32 0, i32 0, !llfi_index !771
  %9 = load %"struct.std::_Rb_tree_node_base"*, %"struct.std::_Rb_tree_node_base"** %8, align 8, !llfi_index !772
  store %"struct.std::_Rb_tree_node_base"* %9, %"struct.std::_Rb_tree_node_base"** %6, align 8, !llfi_index !773
  ret void, !llfi_index !774
}

; Function Attrs: noinline uwtable
define linkonce_odr dso_local void @_ZNSt5tupleIJRKxEEC2IvLb1EEES1_(%"class.std::tuple"* nonnull align 8 dereferenceable(8) %0, i64* nonnull align 8 dereferenceable(8) %1) unnamed_addr #0 comdat align 2 {
  %3 = alloca %"class.std::tuple"*, align 8, !llfi_index !775
  %4 = alloca i64*, align 8, !llfi_index !776
  store %"class.std::tuple"* %0, %"class.std::tuple"** %3, align 8, !llfi_index !777
  store i64* %1, i64** %4, align 8, !llfi_index !778
  %5 = load %"class.std::tuple"*, %"class.std::tuple"** %3, align 8, !llfi_index !779
  %6 = bitcast %"class.std::tuple"* %5 to %"struct.std::_Tuple_impl"*, !llfi_index !780
  %7 = load i64*, i64** %4, align 8, !llfi_index !781
  call void @_ZNSt11_Tuple_implILm0EJRKxEEC2ES1_(%"struct.std::_Tuple_impl"* nonnull align 8 dereferenceable(8) %6, i64* nonnull align 8 dereferenceable(8) %7), !llfi_index !782
  ret void, !llfi_index !783
}

; Function Attrs: mustprogress noinline uwtable
define linkonce_odr dso_local %"struct.std::_Rb_tree_node_base"* @_ZNSt8_Rb_treeIxSt4pairIKxiESt10_Select1stIS2_ESt4lessIxESaIS2_EE22_M_emplace_hint_uniqueIJRKSt21piecewise_construct_tSt5tupleIJRS1_EESD_IJEEEEESt17_Rb_tree_iteratorIS2_ESt23_Rb_tree_const_iteratorIS2_EDpOT_(%"class.std::_Rb_tree"* nonnull align 8 dereferenceable(48) %0, %"struct.std::_Rb_tree_node_base"* %1, %"struct.std::less"* nonnull align 1 dereferenceable(1) %2, %"class.std::tuple"* nonnull align 8 dereferenceable(8) %3, %"struct.std::less"* nonnull align 1 dereferenceable(1) %4) #4 comdat align 2 personality i8* bitcast (i32 (...)* @__gxx_personality_v0 to i8*) {
  %6 = alloca %"struct.std::_Rb_tree_iterator", align 8, !llfi_index !784
  %7 = alloca %"struct.std::_Rb_tree_iterator", align 8, !llfi_index !785
  %8 = alloca %"class.std::_Rb_tree"*, align 8, !llfi_index !786
  %9 = alloca %"struct.std::less"*, align 8, !llfi_index !787
  %10 = alloca %"class.std::tuple"*, align 8, !llfi_index !788
  %11 = alloca %"struct.std::less"*, align 8, !llfi_index !789
  %12 = alloca %"struct.std::_Rb_tree_node"*, align 8, !llfi_index !790
  %13 = alloca %"struct.std::pair.1", align 8, !llfi_index !791
  %14 = alloca %"struct.std::_Rb_tree_iterator", align 8, !llfi_index !792
  %15 = alloca i8*, align 8, !llfi_index !793
  %16 = alloca i32, align 4, !llfi_index !794
  %17 = getelementptr inbounds %"struct.std::_Rb_tree_iterator", %"struct.std::_Rb_tree_iterator"* %7, i32 0, i32 0, !llfi_index !795
  store %"struct.std::_Rb_tree_node_base"* %1, %"struct.std::_Rb_tree_node_base"** %17, align 8, !llfi_index !796
  store %"class.std::_Rb_tree"* %0, %"class.std::_Rb_tree"** %8, align 8, !llfi_index !797
  store %"struct.std::less"* %2, %"struct.std::less"** %9, align 8, !llfi_index !798
  store %"class.std::tuple"* %3, %"class.std::tuple"** %10, align 8, !llfi_index !799
  store %"struct.std::less"* %4, %"struct.std::less"** %11, align 8, !llfi_index !800
  %18 = load %"class.std::_Rb_tree"*, %"class.std::_Rb_tree"** %8, align 8, !llfi_index !801
  %19 = load %"struct.std::less"*, %"struct.std::less"** %9, align 8, !llfi_index !802
  %20 = call nonnull align 1 dereferenceable(1) %"struct.std::less"* @_ZSt7forwardIRKSt21piecewise_construct_tEOT_RNSt16remove_referenceIS3_E4typeE(%"struct.std::less"* nonnull align 1 dereferenceable(1) %19) #2, !llfi_index !803
  %21 = load %"class.std::tuple"*, %"class.std::tuple"** %10, align 8, !llfi_index !804
  %22 = call nonnull align 8 dereferenceable(8) %"class.std::tuple"* @_ZSt7forwardISt5tupleIJRKxEEEOT_RNSt16remove_referenceIS4_E4typeE(%"class.std::tuple"* nonnull align 8 dereferenceable(8) %21) #2, !llfi_index !805
  %23 = load %"struct.std::less"*, %"struct.std::less"** %11, align 8, !llfi_index !806
  %24 = call nonnull align 1 dereferenceable(1) %"struct.std::less"* @_ZSt7forwardISt5tupleIJEEEOT_RNSt16remove_referenceIS2_E4typeE(%"struct.std::less"* nonnull align 1 dereferenceable(1) %23) #2, !llfi_index !807
  %25 = call %"struct.std::_Rb_tree_node"* @_ZNSt8_Rb_treeIxSt4pairIKxiESt10_Select1stIS2_ESt4lessIxESaIS2_EE14_M_create_nodeIJRKSt21piecewise_construct_tSt5tupleIJRS1_EESD_IJEEEEEPSt13_Rb_tree_nodeIS2_EDpOT_(%"class.std::_Rb_tree"* nonnull align 8 dereferenceable(48) %18, %"struct.std::less"* nonnull align 1 dereferenceable(1) %20, %"class.std::tuple"* nonnull align 8 dereferenceable(8) %22, %"struct.std::less"* nonnull align 1 dereferenceable(1) %24), !llfi_index !808
  store %"struct.std::_Rb_tree_node"* %25, %"struct.std::_Rb_tree_node"** %12, align 8, !llfi_index !809
  %26 = bitcast %"struct.std::_Rb_tree_iterator"* %14 to i8*, !llfi_index !810
  %27 = bitcast %"struct.std::_Rb_tree_iterator"* %7 to i8*, !llfi_index !811
  call void @llvm.memcpy.p0i8.p0i8.i64(i8* align 8 %26, i8* align 8 %27, i64 8, i1 false), !llfi_index !812
  %28 = load %"struct.std::_Rb_tree_node"*, %"struct.std::_Rb_tree_node"** %12, align 8, !llfi_index !813
  %29 = invoke nonnull align 8 dereferenceable(8) i64* @_ZNSt8_Rb_treeIxSt4pairIKxiESt10_Select1stIS2_ESt4lessIxESaIS2_EE6_S_keyEPKSt13_Rb_tree_nodeIS2_E(%"struct.std::_Rb_tree_node"* %28)
          to label %30 unwind label %52, !llfi_index !814

30:                                               ; preds = %5
  %31 = getelementptr inbounds %"struct.std::_Rb_tree_iterator", %"struct.std::_Rb_tree_iterator"* %14, i32 0, i32 0, !llfi_index !815
  %32 = load %"struct.std::_Rb_tree_node_base"*, %"struct.std::_Rb_tree_node_base"** %31, align 8, !llfi_index !816
  %33 = invoke { %"struct.std::_Rb_tree_node_base"*, %"struct.std::_Rb_tree_node_base"* } @_ZNSt8_Rb_treeIxSt4pairIKxiESt10_Select1stIS2_ESt4lessIxESaIS2_EE29_M_get_insert_hint_unique_posESt23_Rb_tree_const_iteratorIS2_ERS1_(%"class.std::_Rb_tree"* nonnull align 8 dereferenceable(48) %18, %"struct.std::_Rb_tree_node_base"* %32, i64* nonnull align 8 dereferenceable(8) %29)
          to label %34 unwind label %52, !llfi_index !817

34:                                               ; preds = %30
  %35 = bitcast %"struct.std::pair.1"* %13 to { %"struct.std::_Rb_tree_node_base"*, %"struct.std::_Rb_tree_node_base"* }*, !llfi_index !818
  %36 = getelementptr inbounds { %"struct.std::_Rb_tree_node_base"*, %"struct.std::_Rb_tree_node_base"* }, { %"struct.std::_Rb_tree_node_base"*, %"struct.std::_Rb_tree_node_base"* }* %35, i32 0, i32 0, !llfi_index !819
  %37 = extractvalue { %"struct.std::_Rb_tree_node_base"*, %"struct.std::_Rb_tree_node_base"* } %33, 0, !llfi_index !820
  store %"struct.std::_Rb_tree_node_base"* %37, %"struct.std::_Rb_tree_node_base"** %36, align 8, !llfi_index !821
  %38 = getelementptr inbounds { %"struct.std::_Rb_tree_node_base"*, %"struct.std::_Rb_tree_node_base"* }, { %"struct.std::_Rb_tree_node_base"*, %"struct.std::_Rb_tree_node_base"* }* %35, i32 0, i32 1, !llfi_index !822
  %39 = extractvalue { %"struct.std::_Rb_tree_node_base"*, %"struct.std::_Rb_tree_node_base"* } %33, 1, !llfi_index !823
  store %"struct.std::_Rb_tree_node_base"* %39, %"struct.std::_Rb_tree_node_base"** %38, align 8, !llfi_index !824
  %40 = getelementptr inbounds %"struct.std::pair.1", %"struct.std::pair.1"* %13, i32 0, i32 1, !llfi_index !825
  %41 = load %"struct.std::_Rb_tree_node_base"*, %"struct.std::_Rb_tree_node_base"** %40, align 8, !llfi_index !826
  %42 = icmp ne %"struct.std::_Rb_tree_node_base"* %41, null, !llfi_index !827
  br i1 %42, label %43, label %60, !llfi_index !828

43:                                               ; preds = %34
  %44 = getelementptr inbounds %"struct.std::pair.1", %"struct.std::pair.1"* %13, i32 0, i32 0, !llfi_index !829
  %45 = load %"struct.std::_Rb_tree_node_base"*, %"struct.std::_Rb_tree_node_base"** %44, align 8, !llfi_index !830
  %46 = getelementptr inbounds %"struct.std::pair.1", %"struct.std::pair.1"* %13, i32 0, i32 1, !llfi_index !831
  %47 = load %"struct.std::_Rb_tree_node_base"*, %"struct.std::_Rb_tree_node_base"** %46, align 8, !llfi_index !832
  %48 = load %"struct.std::_Rb_tree_node"*, %"struct.std::_Rb_tree_node"** %12, align 8, !llfi_index !833
  %49 = invoke %"struct.std::_Rb_tree_node_base"* @_ZNSt8_Rb_treeIxSt4pairIKxiESt10_Select1stIS2_ESt4lessIxESaIS2_EE14_M_insert_nodeEPSt18_Rb_tree_node_baseSA_PSt13_Rb_tree_nodeIS2_E(%"class.std::_Rb_tree"* nonnull align 8 dereferenceable(48) %18, %"struct.std::_Rb_tree_node_base"* %45, %"struct.std::_Rb_tree_node_base"* %47, %"struct.std::_Rb_tree_node"* %48)
          to label %50 unwind label %52, !llfi_index !834

50:                                               ; preds = %43
  %51 = getelementptr inbounds %"struct.std::_Rb_tree_iterator", %"struct.std::_Rb_tree_iterator"* %6, i32 0, i32 0, !llfi_index !835
  store %"struct.std::_Rb_tree_node_base"* %49, %"struct.std::_Rb_tree_node_base"** %51, align 8, !llfi_index !836
  br label %70, !llfi_index !837

52:                                               ; preds = %43, %30, %5
  %53 = landingpad { i8*, i32 }
          catch i8* null, !llfi_index !838
  %54 = extractvalue { i8*, i32 } %53, 0, !llfi_index !839
  store i8* %54, i8** %15, align 8, !llfi_index !840
  %55 = extractvalue { i8*, i32 } %53, 1, !llfi_index !841
  store i32 %55, i32* %16, align 4, !llfi_index !842
  br label %56, !llfi_index !843

56:                                               ; preds = %52
  %57 = load i8*, i8** %15, align 8, !llfi_index !844
  %58 = call i8* @__cxa_begin_catch(i8* %57) #2, !llfi_index !845
  %59 = load %"struct.std::_Rb_tree_node"*, %"struct.std::_Rb_tree_node"** %12, align 8, !llfi_index !846
  call void @_ZNSt8_Rb_treeIxSt4pairIKxiESt10_Select1stIS2_ESt4lessIxESaIS2_EE12_M_drop_nodeEPSt13_Rb_tree_nodeIS2_E(%"class.std::_Rb_tree"* nonnull align 8 dereferenceable(48) %18, %"struct.std::_Rb_tree_node"* %59) #2, !llfi_index !847
  invoke void @__cxa_rethrow() #17
          to label %81 unwind label %64, !llfi_index !848

60:                                               ; preds = %34
  %61 = load %"struct.std::_Rb_tree_node"*, %"struct.std::_Rb_tree_node"** %12, align 8, !llfi_index !849
  call void @_ZNSt8_Rb_treeIxSt4pairIKxiESt10_Select1stIS2_ESt4lessIxESaIS2_EE12_M_drop_nodeEPSt13_Rb_tree_nodeIS2_E(%"class.std::_Rb_tree"* nonnull align 8 dereferenceable(48) %18, %"struct.std::_Rb_tree_node"* %61) #2, !llfi_index !850
  %62 = getelementptr inbounds %"struct.std::pair.1", %"struct.std::pair.1"* %13, i32 0, i32 0, !llfi_index !851
  %63 = load %"struct.std::_Rb_tree_node_base"*, %"struct.std::_Rb_tree_node_base"** %62, align 8, !llfi_index !852
  call void @_ZNSt17_Rb_tree_iteratorISt4pairIKxiEEC2EPSt18_Rb_tree_node_base(%"struct.std::_Rb_tree_iterator"* nonnull align 8 dereferenceable(8) %6, %"struct.std::_Rb_tree_node_base"* %63) #2, !llfi_index !853
  br label %70, !llfi_index !854

64:                                               ; preds = %56
  %65 = landingpad { i8*, i32 }
          cleanup, !llfi_index !855
  %66 = extractvalue { i8*, i32 } %65, 0, !llfi_index !856
  store i8* %66, i8** %15, align 8, !llfi_index !857
  %67 = extractvalue { i8*, i32 } %65, 1, !llfi_index !858
  store i32 %67, i32* %16, align 4, !llfi_index !859
  invoke void @__cxa_end_catch()
          to label %68 unwind label %78, !llfi_index !860

68:                                               ; preds = %64
  br label %73, !llfi_index !861

69:                                               ; No predecessors!
  call void @llvm.trap(), !llfi_index !862
  unreachable, !llfi_index !863

70:                                               ; preds = %60, %50
  %71 = getelementptr inbounds %"struct.std::_Rb_tree_iterator", %"struct.std::_Rb_tree_iterator"* %6, i32 0, i32 0, !llfi_index !864
  %72 = load %"struct.std::_Rb_tree_node_base"*, %"struct.std::_Rb_tree_node_base"** %71, align 8, !llfi_index !865
  ret %"struct.std::_Rb_tree_node_base"* %72, !llfi_index !866

73:                                               ; preds = %68
  %74 = load i8*, i8** %15, align 8, !llfi_index !867
  %75 = load i32, i32* %16, align 4, !llfi_index !868
  %76 = insertvalue { i8*, i32 } undef, i8* %74, 0, !llfi_index !869
  %77 = insertvalue { i8*, i32 } %76, i32 %75, 1, !llfi_index !870
  resume { i8*, i32 } %77, !llfi_index !871

78:                                               ; preds = %64
  %79 = landingpad { i8*, i32 }
          catch i8* null, !llfi_index !872
  %80 = extractvalue { i8*, i32 } %79, 0, !llfi_index !873
  call void @__clang_call_terminate(i8* %80) #16, !llfi_index !874
  unreachable, !llfi_index !875

81:                                               ; preds = %56
  unreachable, !llfi_index !876
}

; Function Attrs: argmemonly nofree nounwind willreturn
declare void @llvm.memcpy.p0i8.p0i8.i64(i8* noalias nocapture writeonly, i8* noalias nocapture readonly, i64, i1 immarg) #10

; Function Attrs: mustprogress noinline nounwind uwtable
define linkonce_odr dso_local nonnull align 1 dereferenceable(1) %"struct.std::less"* @_ZSt7forwardIRKSt21piecewise_construct_tEOT_RNSt16remove_referenceIS3_E4typeE(%"struct.std::less"* nonnull align 1 dereferenceable(1) %0) #3 comdat {
  %2 = alloca %"struct.std::less"*, align 8, !llfi_index !877
  store %"struct.std::less"* %0, %"struct.std::less"** %2, align 8, !llfi_index !878
  %3 = load %"struct.std::less"*, %"struct.std::less"** %2, align 8, !llfi_index !879
  ret %"struct.std::less"* %3, !llfi_index !880
}

; Function Attrs: mustprogress noinline nounwind uwtable
define linkonce_odr dso_local nonnull align 8 dereferenceable(8) %"class.std::tuple"* @_ZSt7forwardISt5tupleIJRKxEEEOT_RNSt16remove_referenceIS4_E4typeE(%"class.std::tuple"* nonnull align 8 dereferenceable(8) %0) #3 comdat {
  %2 = alloca %"class.std::tuple"*, align 8, !llfi_index !881
  store %"class.std::tuple"* %0, %"class.std::tuple"** %2, align 8, !llfi_index !882
  %3 = load %"class.std::tuple"*, %"class.std::tuple"** %2, align 8, !llfi_index !883
  ret %"class.std::tuple"* %3, !llfi_index !884
}

; Function Attrs: mustprogress noinline nounwind uwtable
define linkonce_odr dso_local nonnull align 1 dereferenceable(1) %"struct.std::less"* @_ZSt7forwardISt5tupleIJEEEOT_RNSt16remove_referenceIS2_E4typeE(%"struct.std::less"* nonnull align 1 dereferenceable(1) %0) #3 comdat {
  %2 = alloca %"struct.std::less"*, align 8, !llfi_index !885
  store %"struct.std::less"* %0, %"struct.std::less"** %2, align 8, !llfi_index !886
  %3 = load %"struct.std::less"*, %"struct.std::less"** %2, align 8, !llfi_index !887
  ret %"struct.std::less"* %3, !llfi_index !888
}

; Function Attrs: mustprogress noinline uwtable
define linkonce_odr dso_local %"struct.std::_Rb_tree_node"* @_ZNSt8_Rb_treeIxSt4pairIKxiESt10_Select1stIS2_ESt4lessIxESaIS2_EE14_M_create_nodeIJRKSt21piecewise_construct_tSt5tupleIJRS1_EESD_IJEEEEEPSt13_Rb_tree_nodeIS2_EDpOT_(%"class.std::_Rb_tree"* nonnull align 8 dereferenceable(48) %0, %"struct.std::less"* nonnull align 1 dereferenceable(1) %1, %"class.std::tuple"* nonnull align 8 dereferenceable(8) %2, %"struct.std::less"* nonnull align 1 dereferenceable(1) %3) #4 comdat align 2 {
  %5 = alloca %"class.std::_Rb_tree"*, align 8, !llfi_index !889
  %6 = alloca %"struct.std::less"*, align 8, !llfi_index !890
  %7 = alloca %"class.std::tuple"*, align 8, !llfi_index !891
  %8 = alloca %"struct.std::less"*, align 8, !llfi_index !892
  %9 = alloca %"struct.std::_Rb_tree_node"*, align 8, !llfi_index !893
  store %"class.std::_Rb_tree"* %0, %"class.std::_Rb_tree"** %5, align 8, !llfi_index !894
  store %"struct.std::less"* %1, %"struct.std::less"** %6, align 8, !llfi_index !895
  store %"class.std::tuple"* %2, %"class.std::tuple"** %7, align 8, !llfi_index !896
  store %"struct.std::less"* %3, %"struct.std::less"** %8, align 8, !llfi_index !897
  %10 = load %"class.std::_Rb_tree"*, %"class.std::_Rb_tree"** %5, align 8, !llfi_index !898
  %11 = call %"struct.std::_Rb_tree_node"* @_ZNSt8_Rb_treeIxSt4pairIKxiESt10_Select1stIS2_ESt4lessIxESaIS2_EE11_M_get_nodeEv(%"class.std::_Rb_tree"* nonnull align 8 dereferenceable(48) %10), !llfi_index !899
  store %"struct.std::_Rb_tree_node"* %11, %"struct.std::_Rb_tree_node"** %9, align 8, !llfi_index !900
  %12 = load %"struct.std::_Rb_tree_node"*, %"struct.std::_Rb_tree_node"** %9, align 8, !llfi_index !901
  %13 = load %"struct.std::less"*, %"struct.std::less"** %6, align 8, !llfi_index !902
  %14 = call nonnull align 1 dereferenceable(1) %"struct.std::less"* @_ZSt7forwardIRKSt21piecewise_construct_tEOT_RNSt16remove_referenceIS3_E4typeE(%"struct.std::less"* nonnull align 1 dereferenceable(1) %13) #2, !llfi_index !903
  %15 = load %"class.std::tuple"*, %"class.std::tuple"** %7, align 8, !llfi_index !904
  %16 = call nonnull align 8 dereferenceable(8) %"class.std::tuple"* @_ZSt7forwardISt5tupleIJRKxEEEOT_RNSt16remove_referenceIS4_E4typeE(%"class.std::tuple"* nonnull align 8 dereferenceable(8) %15) #2, !llfi_index !905
  %17 = load %"struct.std::less"*, %"struct.std::less"** %8, align 8, !llfi_index !906
  %18 = call nonnull align 1 dereferenceable(1) %"struct.std::less"* @_ZSt7forwardISt5tupleIJEEEOT_RNSt16remove_referenceIS2_E4typeE(%"struct.std::less"* nonnull align 1 dereferenceable(1) %17) #2, !llfi_index !907
  call void @_ZNSt8_Rb_treeIxSt4pairIKxiESt10_Select1stIS2_ESt4lessIxESaIS2_EE17_M_construct_nodeIJRKSt21piecewise_construct_tSt5tupleIJRS1_EESD_IJEEEEEvPSt13_Rb_tree_nodeIS2_EDpOT_(%"class.std::_Rb_tree"* nonnull align 8 dereferenceable(48) %10, %"struct.std::_Rb_tree_node"* %12, %"struct.std::less"* nonnull align 1 dereferenceable(1) %14, %"class.std::tuple"* nonnull align 8 dereferenceable(8) %16, %"struct.std::less"* nonnull align 1 dereferenceable(1) %18), !llfi_index !908
  %19 = load %"struct.std::_Rb_tree_node"*, %"struct.std::_Rb_tree_node"** %9, align 8, !llfi_index !909
  ret %"struct.std::_Rb_tree_node"* %19, !llfi_index !910
}

; Function Attrs: mustprogress noinline uwtable
define linkonce_odr dso_local nonnull align 8 dereferenceable(8) i64* @_ZNSt8_Rb_treeIxSt4pairIKxiESt10_Select1stIS2_ESt4lessIxESaIS2_EE6_S_keyEPKSt13_Rb_tree_nodeIS2_E(%"struct.std::_Rb_tree_node"* %0) #4 comdat align 2 {
  %2 = alloca %"struct.std::_Rb_tree_node"*, align 8, !llfi_index !911
  %3 = alloca %"struct.std::less", align 1, !llfi_index !912
  store %"struct.std::_Rb_tree_node"* %0, %"struct.std::_Rb_tree_node"** %2, align 8, !llfi_index !913
  %4 = load %"struct.std::_Rb_tree_node"*, %"struct.std::_Rb_tree_node"** %2, align 8, !llfi_index !914
  %5 = call %"struct.std::pair"* @_ZNKSt13_Rb_tree_nodeISt4pairIKxiEE9_M_valptrEv(%"struct.std::_Rb_tree_node"* nonnull align 8 dereferenceable(48) %4), !llfi_index !915
  %6 = call nonnull align 8 dereferenceable(8) i64* @_ZNKSt10_Select1stISt4pairIKxiEEclERKS2_(%"struct.std::less"* nonnull align 1 dereferenceable(1) %3, %"struct.std::pair"* nonnull align 8 dereferenceable(12) %5), !llfi_index !916
  ret i64* %6, !llfi_index !917
}

; Function Attrs: mustprogress noinline uwtable
define linkonce_odr dso_local { %"struct.std::_Rb_tree_node_base"*, %"struct.std::_Rb_tree_node_base"* } @_ZNSt8_Rb_treeIxSt4pairIKxiESt10_Select1stIS2_ESt4lessIxESaIS2_EE29_M_get_insert_hint_unique_posESt23_Rb_tree_const_iteratorIS2_ERS1_(%"class.std::_Rb_tree"* nonnull align 8 dereferenceable(48) %0, %"struct.std::_Rb_tree_node_base"* %1, i64* nonnull align 8 dereferenceable(8) %2) #4 comdat align 2 {
  %4 = alloca %"struct.std::pair.1", align 8, !llfi_index !918
  %5 = alloca %"struct.std::_Rb_tree_iterator", align 8, !llfi_index !919
  %6 = alloca %"class.std::_Rb_tree"*, align 8, !llfi_index !920
  %7 = alloca i64*, align 8, !llfi_index !921
  %8 = alloca %"struct.std::_Rb_tree_iterator", align 8, !llfi_index !922
  %9 = alloca %"struct.std::_Rb_tree_node_base"*, align 8, !llfi_index !923
  %10 = alloca %"struct.std::_Rb_tree_iterator", align 8, !llfi_index !924
  %11 = alloca %"struct.std::_Rb_tree_node_base"*, align 8, !llfi_index !925
  %12 = alloca %"struct.std::_Rb_tree_iterator", align 8, !llfi_index !926
  %13 = alloca %"struct.std::_Rb_tree_node_base"*, align 8, !llfi_index !927
  %14 = alloca %"struct.std::_Rb_tree_node_base"*, align 8, !llfi_index !928
  %15 = alloca %"struct.std::_Rb_tree_node_base"*, align 8, !llfi_index !929
  %16 = getelementptr inbounds %"struct.std::_Rb_tree_iterator", %"struct.std::_Rb_tree_iterator"* %5, i32 0, i32 0, !llfi_index !930
  store %"struct.std::_Rb_tree_node_base"* %1, %"struct.std::_Rb_tree_node_base"** %16, align 8, !llfi_index !931
  store %"class.std::_Rb_tree"* %0, %"class.std::_Rb_tree"** %6, align 8, !llfi_index !932
  store i64* %2, i64** %7, align 8, !llfi_index !933
  %17 = load %"class.std::_Rb_tree"*, %"class.std::_Rb_tree"** %6, align 8, !llfi_index !934
  %18 = call %"struct.std::_Rb_tree_node_base"* @_ZNKSt23_Rb_tree_const_iteratorISt4pairIKxiEE13_M_const_castEv(%"struct.std::_Rb_tree_iterator"* nonnull align 8 dereferenceable(8) %5) #2, !llfi_index !935
  %19 = getelementptr inbounds %"struct.std::_Rb_tree_iterator", %"struct.std::_Rb_tree_iterator"* %8, i32 0, i32 0, !llfi_index !936
  store %"struct.std::_Rb_tree_node_base"* %18, %"struct.std::_Rb_tree_node_base"** %19, align 8, !llfi_index !937
  %20 = getelementptr inbounds %"struct.std::_Rb_tree_iterator", %"struct.std::_Rb_tree_iterator"* %8, i32 0, i32 0, !llfi_index !938
  %21 = load %"struct.std::_Rb_tree_node_base"*, %"struct.std::_Rb_tree_node_base"** %20, align 8, !llfi_index !939
  %22 = call %"struct.std::_Rb_tree_node_base"* @_ZNSt8_Rb_treeIxSt4pairIKxiESt10_Select1stIS2_ESt4lessIxESaIS2_EE6_M_endEv(%"class.std::_Rb_tree"* nonnull align 8 dereferenceable(48) %17) #2, !llfi_index !940
  %23 = icmp eq %"struct.std::_Rb_tree_node_base"* %21, %22, !llfi_index !941
  br i1 %23, label %24, label %46, !llfi_index !942

24:                                               ; preds = %3
  %25 = call i64 @_ZNKSt8_Rb_treeIxSt4pairIKxiESt10_Select1stIS2_ESt4lessIxESaIS2_EE4sizeEv(%"class.std::_Rb_tree"* nonnull align 8 dereferenceable(48) %17) #2, !llfi_index !943
  %26 = icmp ugt i64 %25, 0, !llfi_index !944
  br i1 %26, label %27, label %38, !llfi_index !945

27:                                               ; preds = %24
  %28 = getelementptr inbounds %"class.std::_Rb_tree", %"class.std::_Rb_tree"* %17, i32 0, i32 0, !llfi_index !946
  %29 = bitcast %"struct.std::_Rb_tree<long long, std::pair<const long long, int>, std::_Select1st<std::pair<const long long, int>>, std::less<long long>>::_Rb_tree_impl"* %28 to %"struct.std::_Rb_tree_key_compare"*, !llfi_index !947
  %30 = getelementptr inbounds %"struct.std::_Rb_tree_key_compare", %"struct.std::_Rb_tree_key_compare"* %29, i32 0, i32 0, !llfi_index !948
  %31 = call nonnull align 8 dereferenceable(8) %"struct.std::_Rb_tree_node_base"** @_ZNSt8_Rb_treeIxSt4pairIKxiESt10_Select1stIS2_ESt4lessIxESaIS2_EE12_M_rightmostEv(%"class.std::_Rb_tree"* nonnull align 8 dereferenceable(48) %17) #2, !llfi_index !949
  %32 = load %"struct.std::_Rb_tree_node_base"*, %"struct.std::_Rb_tree_node_base"** %31, align 8, !llfi_index !950
  %33 = call nonnull align 8 dereferenceable(8) i64* @_ZNSt8_Rb_treeIxSt4pairIKxiESt10_Select1stIS2_ESt4lessIxESaIS2_EE6_S_keyEPKSt18_Rb_tree_node_base(%"struct.std::_Rb_tree_node_base"* %32), !llfi_index !951
  %34 = load i64*, i64** %7, align 8, !llfi_index !952
  %35 = call zeroext i1 @_ZNKSt4lessIxEclERKxS2_(%"struct.std::less"* nonnull align 1 dereferenceable(1) %30, i64* nonnull align 8 dereferenceable(8) %33, i64* nonnull align 8 dereferenceable(8) %34), !llfi_index !953
  br i1 %35, label %36, label %38, !llfi_index !954

36:                                               ; preds = %27
  store %"struct.std::_Rb_tree_node_base"* null, %"struct.std::_Rb_tree_node_base"** %9, align 8, !llfi_index !955
  %37 = call nonnull align 8 dereferenceable(8) %"struct.std::_Rb_tree_node_base"** @_ZNSt8_Rb_treeIxSt4pairIKxiESt10_Select1stIS2_ESt4lessIxESaIS2_EE12_M_rightmostEv(%"class.std::_Rb_tree"* nonnull align 8 dereferenceable(48) %17) #2, !llfi_index !956
  call void @_ZNSt4pairIPSt18_Rb_tree_node_baseS1_EC2IRS1_Lb1EEERKS1_OT_(%"struct.std::pair.1"* nonnull align 8 dereferenceable(16) %4, %"struct.std::_Rb_tree_node_base"** nonnull align 8 dereferenceable(8) %9, %"struct.std::_Rb_tree_node_base"** nonnull align 8 dereferenceable(8) %37), !llfi_index !957
  br label %143, !llfi_index !958

38:                                               ; preds = %27, %24
  %39 = load i64*, i64** %7, align 8, !llfi_index !959
  %40 = call { %"struct.std::_Rb_tree_node_base"*, %"struct.std::_Rb_tree_node_base"* } @_ZNSt8_Rb_treeIxSt4pairIKxiESt10_Select1stIS2_ESt4lessIxESaIS2_EE24_M_get_insert_unique_posERS1_(%"class.std::_Rb_tree"* nonnull align 8 dereferenceable(48) %17, i64* nonnull align 8 dereferenceable(8) %39), !llfi_index !960
  %41 = bitcast %"struct.std::pair.1"* %4 to { %"struct.std::_Rb_tree_node_base"*, %"struct.std::_Rb_tree_node_base"* }*, !llfi_index !961
  %42 = getelementptr inbounds { %"struct.std::_Rb_tree_node_base"*, %"struct.std::_Rb_tree_node_base"* }, { %"struct.std::_Rb_tree_node_base"*, %"struct.std::_Rb_tree_node_base"* }* %41, i32 0, i32 0, !llfi_index !962
  %43 = extractvalue { %"struct.std::_Rb_tree_node_base"*, %"struct.std::_Rb_tree_node_base"* } %40, 0, !llfi_index !963
  store %"struct.std::_Rb_tree_node_base"* %43, %"struct.std::_Rb_tree_node_base"** %42, align 8, !llfi_index !964
  %44 = getelementptr inbounds { %"struct.std::_Rb_tree_node_base"*, %"struct.std::_Rb_tree_node_base"* }, { %"struct.std::_Rb_tree_node_base"*, %"struct.std::_Rb_tree_node_base"* }* %41, i32 0, i32 1, !llfi_index !965
  %45 = extractvalue { %"struct.std::_Rb_tree_node_base"*, %"struct.std::_Rb_tree_node_base"* } %40, 1, !llfi_index !966
  store %"struct.std::_Rb_tree_node_base"* %45, %"struct.std::_Rb_tree_node_base"** %44, align 8, !llfi_index !967
  br label %143, !llfi_index !968

46:                                               ; preds = %3
  %47 = getelementptr inbounds %"class.std::_Rb_tree", %"class.std::_Rb_tree"* %17, i32 0, i32 0, !llfi_index !969
  %48 = bitcast %"struct.std::_Rb_tree<long long, std::pair<const long long, int>, std::_Select1st<std::pair<const long long, int>>, std::less<long long>>::_Rb_tree_impl"* %47 to %"struct.std::_Rb_tree_key_compare"*, !llfi_index !970
  %49 = getelementptr inbounds %"struct.std::_Rb_tree_key_compare", %"struct.std::_Rb_tree_key_compare"* %48, i32 0, i32 0, !llfi_index !971
  %50 = load i64*, i64** %7, align 8, !llfi_index !972
  %51 = getelementptr inbounds %"struct.std::_Rb_tree_iterator", %"struct.std::_Rb_tree_iterator"* %8, i32 0, i32 0, !llfi_index !973
  %52 = load %"struct.std::_Rb_tree_node_base"*, %"struct.std::_Rb_tree_node_base"** %51, align 8, !llfi_index !974
  %53 = call nonnull align 8 dereferenceable(8) i64* @_ZNSt8_Rb_treeIxSt4pairIKxiESt10_Select1stIS2_ESt4lessIxESaIS2_EE6_S_keyEPKSt18_Rb_tree_node_base(%"struct.std::_Rb_tree_node_base"* %52), !llfi_index !975
  %54 = call zeroext i1 @_ZNKSt4lessIxEclERKxS2_(%"struct.std::less"* nonnull align 1 dereferenceable(1) %49, i64* nonnull align 8 dereferenceable(8) %50, i64* nonnull align 8 dereferenceable(8) %53), !llfi_index !976
  br i1 %54, label %55, label %94, !llfi_index !977

55:                                               ; preds = %46
  %56 = bitcast %"struct.std::_Rb_tree_iterator"* %10 to i8*, !llfi_index !978
  %57 = bitcast %"struct.std::_Rb_tree_iterator"* %8 to i8*, !llfi_index !979
  call void @llvm.memcpy.p0i8.p0i8.i64(i8* align 8 %56, i8* align 8 %57, i64 8, i1 false), !llfi_index !980
  %58 = getelementptr inbounds %"struct.std::_Rb_tree_iterator", %"struct.std::_Rb_tree_iterator"* %8, i32 0, i32 0, !llfi_index !981
  %59 = load %"struct.std::_Rb_tree_node_base"*, %"struct.std::_Rb_tree_node_base"** %58, align 8, !llfi_index !982
  %60 = call nonnull align 8 dereferenceable(8) %"struct.std::_Rb_tree_node_base"** @_ZNSt8_Rb_treeIxSt4pairIKxiESt10_Select1stIS2_ESt4lessIxESaIS2_EE11_M_leftmostEv(%"class.std::_Rb_tree"* nonnull align 8 dereferenceable(48) %17) #2, !llfi_index !983
  %61 = load %"struct.std::_Rb_tree_node_base"*, %"struct.std::_Rb_tree_node_base"** %60, align 8, !llfi_index !984
  %62 = icmp eq %"struct.std::_Rb_tree_node_base"* %59, %61, !llfi_index !985
  br i1 %62, label %63, label %66, !llfi_index !986

63:                                               ; preds = %55
  %64 = call nonnull align 8 dereferenceable(8) %"struct.std::_Rb_tree_node_base"** @_ZNSt8_Rb_treeIxSt4pairIKxiESt10_Select1stIS2_ESt4lessIxESaIS2_EE11_M_leftmostEv(%"class.std::_Rb_tree"* nonnull align 8 dereferenceable(48) %17) #2, !llfi_index !987
  %65 = call nonnull align 8 dereferenceable(8) %"struct.std::_Rb_tree_node_base"** @_ZNSt8_Rb_treeIxSt4pairIKxiESt10_Select1stIS2_ESt4lessIxESaIS2_EE11_M_leftmostEv(%"class.std::_Rb_tree"* nonnull align 8 dereferenceable(48) %17) #2, !llfi_index !988
  call void @_ZNSt4pairIPSt18_Rb_tree_node_baseS1_EC2IRS1_S4_Lb1EEEOT_OT0_(%"struct.std::pair.1"* nonnull align 8 dereferenceable(16) %4, %"struct.std::_Rb_tree_node_base"** nonnull align 8 dereferenceable(8) %64, %"struct.std::_Rb_tree_node_base"** nonnull align 8 dereferenceable(8) %65), !llfi_index !989
  br label %143, !llfi_index !990

66:                                               ; preds = %55
  %67 = getelementptr inbounds %"class.std::_Rb_tree", %"class.std::_Rb_tree"* %17, i32 0, i32 0, !llfi_index !991
  %68 = bitcast %"struct.std::_Rb_tree<long long, std::pair<const long long, int>, std::_Select1st<std::pair<const long long, int>>, std::less<long long>>::_Rb_tree_impl"* %67 to %"struct.std::_Rb_tree_key_compare"*, !llfi_index !992
  %69 = getelementptr inbounds %"struct.std::_Rb_tree_key_compare", %"struct.std::_Rb_tree_key_compare"* %68, i32 0, i32 0, !llfi_index !993
  %70 = call nonnull align 8 dereferenceable(8) %"struct.std::_Rb_tree_iterator"* @_ZNSt17_Rb_tree_iteratorISt4pairIKxiEEmmEv(%"struct.std::_Rb_tree_iterator"* nonnull align 8 dereferenceable(8) %10) #2, !llfi_index !994
  %71 = getelementptr inbounds %"struct.std::_Rb_tree_iterator", %"struct.std::_Rb_tree_iterator"* %70, i32 0, i32 0, !llfi_index !995
  %72 = load %"struct.std::_Rb_tree_node_base"*, %"struct.std::_Rb_tree_node_base"** %71, align 8, !llfi_index !996
  %73 = call nonnull align 8 dereferenceable(8) i64* @_ZNSt8_Rb_treeIxSt4pairIKxiESt10_Select1stIS2_ESt4lessIxESaIS2_EE6_S_keyEPKSt18_Rb_tree_node_base(%"struct.std::_Rb_tree_node_base"* %72), !llfi_index !997
  %74 = load i64*, i64** %7, align 8, !llfi_index !998
  %75 = call zeroext i1 @_ZNKSt4lessIxEclERKxS2_(%"struct.std::less"* nonnull align 1 dereferenceable(1) %69, i64* nonnull align 8 dereferenceable(8) %73, i64* nonnull align 8 dereferenceable(8) %74), !llfi_index !999
  br i1 %75, label %76, label %86, !llfi_index !1000

76:                                               ; preds = %66
  %77 = getelementptr inbounds %"struct.std::_Rb_tree_iterator", %"struct.std::_Rb_tree_iterator"* %10, i32 0, i32 0, !llfi_index !1001
  %78 = load %"struct.std::_Rb_tree_node_base"*, %"struct.std::_Rb_tree_node_base"** %77, align 8, !llfi_index !1002
  %79 = call %"struct.std::_Rb_tree_node"* @_ZNSt8_Rb_treeIxSt4pairIKxiESt10_Select1stIS2_ESt4lessIxESaIS2_EE8_S_rightEPSt18_Rb_tree_node_base(%"struct.std::_Rb_tree_node_base"* %78) #2, !llfi_index !1003
  %80 = icmp eq %"struct.std::_Rb_tree_node"* %79, null, !llfi_index !1004
  br i1 %80, label %81, label %83, !llfi_index !1005

81:                                               ; preds = %76
  store %"struct.std::_Rb_tree_node_base"* null, %"struct.std::_Rb_tree_node_base"** %11, align 8, !llfi_index !1006
  %82 = getelementptr inbounds %"struct.std::_Rb_tree_iterator", %"struct.std::_Rb_tree_iterator"* %10, i32 0, i32 0, !llfi_index !1007
  call void @_ZNSt4pairIPSt18_Rb_tree_node_baseS1_EC2IRS1_Lb1EEERKS1_OT_(%"struct.std::pair.1"* nonnull align 8 dereferenceable(16) %4, %"struct.std::_Rb_tree_node_base"** nonnull align 8 dereferenceable(8) %11, %"struct.std::_Rb_tree_node_base"** nonnull align 8 dereferenceable(8) %82), !llfi_index !1008
  br label %143, !llfi_index !1009

83:                                               ; preds = %76
  %84 = getelementptr inbounds %"struct.std::_Rb_tree_iterator", %"struct.std::_Rb_tree_iterator"* %8, i32 0, i32 0, !llfi_index !1010
  %85 = getelementptr inbounds %"struct.std::_Rb_tree_iterator", %"struct.std::_Rb_tree_iterator"* %8, i32 0, i32 0, !llfi_index !1011
  call void @_ZNSt4pairIPSt18_Rb_tree_node_baseS1_EC2IRS1_S4_Lb1EEEOT_OT0_(%"struct.std::pair.1"* nonnull align 8 dereferenceable(16) %4, %"struct.std::_Rb_tree_node_base"** nonnull align 8 dereferenceable(8) %84, %"struct.std::_Rb_tree_node_base"** nonnull align 8 dereferenceable(8) %85), !llfi_index !1012
  br label %143, !llfi_index !1013

86:                                               ; preds = %66
  %87 = load i64*, i64** %7, align 8, !llfi_index !1014
  %88 = call { %"struct.std::_Rb_tree_node_base"*, %"struct.std::_Rb_tree_node_base"* } @_ZNSt8_Rb_treeIxSt4pairIKxiESt10_Select1stIS2_ESt4lessIxESaIS2_EE24_M_get_insert_unique_posERS1_(%"class.std::_Rb_tree"* nonnull align 8 dereferenceable(48) %17, i64* nonnull align 8 dereferenceable(8) %87), !llfi_index !1015
  %89 = bitcast %"struct.std::pair.1"* %4 to { %"struct.std::_Rb_tree_node_base"*, %"struct.std::_Rb_tree_node_base"* }*, !llfi_index !1016
  %90 = getelementptr inbounds { %"struct.std::_Rb_tree_node_base"*, %"struct.std::_Rb_tree_node_base"* }, { %"struct.std::_Rb_tree_node_base"*, %"struct.std::_Rb_tree_node_base"* }* %89, i32 0, i32 0, !llfi_index !1017
  %91 = extractvalue { %"struct.std::_Rb_tree_node_base"*, %"struct.std::_Rb_tree_node_base"* } %88, 0, !llfi_index !1018
  store %"struct.std::_Rb_tree_node_base"* %91, %"struct.std::_Rb_tree_node_base"** %90, align 8, !llfi_index !1019
  %92 = getelementptr inbounds { %"struct.std::_Rb_tree_node_base"*, %"struct.std::_Rb_tree_node_base"* }, { %"struct.std::_Rb_tree_node_base"*, %"struct.std::_Rb_tree_node_base"* }* %89, i32 0, i32 1, !llfi_index !1020
  %93 = extractvalue { %"struct.std::_Rb_tree_node_base"*, %"struct.std::_Rb_tree_node_base"* } %88, 1, !llfi_index !1021
  store %"struct.std::_Rb_tree_node_base"* %93, %"struct.std::_Rb_tree_node_base"** %92, align 8, !llfi_index !1022
  br label %143, !llfi_index !1023

94:                                               ; preds = %46
  %95 = getelementptr inbounds %"class.std::_Rb_tree", %"class.std::_Rb_tree"* %17, i32 0, i32 0, !llfi_index !1024
  %96 = bitcast %"struct.std::_Rb_tree<long long, std::pair<const long long, int>, std::_Select1st<std::pair<const long long, int>>, std::less<long long>>::_Rb_tree_impl"* %95 to %"struct.std::_Rb_tree_key_compare"*, !llfi_index !1025
  %97 = getelementptr inbounds %"struct.std::_Rb_tree_key_compare", %"struct.std::_Rb_tree_key_compare"* %96, i32 0, i32 0, !llfi_index !1026
  %98 = getelementptr inbounds %"struct.std::_Rb_tree_iterator", %"struct.std::_Rb_tree_iterator"* %8, i32 0, i32 0, !llfi_index !1027
  %99 = load %"struct.std::_Rb_tree_node_base"*, %"struct.std::_Rb_tree_node_base"** %98, align 8, !llfi_index !1028
  %100 = call nonnull align 8 dereferenceable(8) i64* @_ZNSt8_Rb_treeIxSt4pairIKxiESt10_Select1stIS2_ESt4lessIxESaIS2_EE6_S_keyEPKSt18_Rb_tree_node_base(%"struct.std::_Rb_tree_node_base"* %99), !llfi_index !1029
  %101 = load i64*, i64** %7, align 8, !llfi_index !1030
  %102 = call zeroext i1 @_ZNKSt4lessIxEclERKxS2_(%"struct.std::less"* nonnull align 1 dereferenceable(1) %97, i64* nonnull align 8 dereferenceable(8) %100, i64* nonnull align 8 dereferenceable(8) %101), !llfi_index !1031
  br i1 %102, label %103, label %141, !llfi_index !1032

103:                                              ; preds = %94
  %104 = bitcast %"struct.std::_Rb_tree_iterator"* %12 to i8*, !llfi_index !1033
  %105 = bitcast %"struct.std::_Rb_tree_iterator"* %8 to i8*, !llfi_index !1034
  call void @llvm.memcpy.p0i8.p0i8.i64(i8* align 8 %104, i8* align 8 %105, i64 8, i1 false), !llfi_index !1035
  %106 = getelementptr inbounds %"struct.std::_Rb_tree_iterator", %"struct.std::_Rb_tree_iterator"* %8, i32 0, i32 0, !llfi_index !1036
  %107 = load %"struct.std::_Rb_tree_node_base"*, %"struct.std::_Rb_tree_node_base"** %106, align 8, !llfi_index !1037
  %108 = call nonnull align 8 dereferenceable(8) %"struct.std::_Rb_tree_node_base"** @_ZNSt8_Rb_treeIxSt4pairIKxiESt10_Select1stIS2_ESt4lessIxESaIS2_EE12_M_rightmostEv(%"class.std::_Rb_tree"* nonnull align 8 dereferenceable(48) %17) #2, !llfi_index !1038
  %109 = load %"struct.std::_Rb_tree_node_base"*, %"struct.std::_Rb_tree_node_base"** %108, align 8, !llfi_index !1039
  %110 = icmp eq %"struct.std::_Rb_tree_node_base"* %107, %109, !llfi_index !1040
  br i1 %110, label %111, label %113, !llfi_index !1041

111:                                              ; preds = %103
  store %"struct.std::_Rb_tree_node_base"* null, %"struct.std::_Rb_tree_node_base"** %13, align 8, !llfi_index !1042
  %112 = call nonnull align 8 dereferenceable(8) %"struct.std::_Rb_tree_node_base"** @_ZNSt8_Rb_treeIxSt4pairIKxiESt10_Select1stIS2_ESt4lessIxESaIS2_EE12_M_rightmostEv(%"class.std::_Rb_tree"* nonnull align 8 dereferenceable(48) %17) #2, !llfi_index !1043
  call void @_ZNSt4pairIPSt18_Rb_tree_node_baseS1_EC2IRS1_Lb1EEERKS1_OT_(%"struct.std::pair.1"* nonnull align 8 dereferenceable(16) %4, %"struct.std::_Rb_tree_node_base"** nonnull align 8 dereferenceable(8) %13, %"struct.std::_Rb_tree_node_base"** nonnull align 8 dereferenceable(8) %112), !llfi_index !1044
  br label %143, !llfi_index !1045

113:                                              ; preds = %103
  %114 = getelementptr inbounds %"class.std::_Rb_tree", %"class.std::_Rb_tree"* %17, i32 0, i32 0, !llfi_index !1046
  %115 = bitcast %"struct.std::_Rb_tree<long long, std::pair<const long long, int>, std::_Select1st<std::pair<const long long, int>>, std::less<long long>>::_Rb_tree_impl"* %114 to %"struct.std::_Rb_tree_key_compare"*, !llfi_index !1047
  %116 = getelementptr inbounds %"struct.std::_Rb_tree_key_compare", %"struct.std::_Rb_tree_key_compare"* %115, i32 0, i32 0, !llfi_index !1048
  %117 = load i64*, i64** %7, align 8, !llfi_index !1049
  %118 = call nonnull align 8 dereferenceable(8) %"struct.std::_Rb_tree_iterator"* @_ZNSt17_Rb_tree_iteratorISt4pairIKxiEEppEv(%"struct.std::_Rb_tree_iterator"* nonnull align 8 dereferenceable(8) %12) #2, !llfi_index !1050
  %119 = getelementptr inbounds %"struct.std::_Rb_tree_iterator", %"struct.std::_Rb_tree_iterator"* %118, i32 0, i32 0, !llfi_index !1051
  %120 = load %"struct.std::_Rb_tree_node_base"*, %"struct.std::_Rb_tree_node_base"** %119, align 8, !llfi_index !1052
  %121 = call nonnull align 8 dereferenceable(8) i64* @_ZNSt8_Rb_treeIxSt4pairIKxiESt10_Select1stIS2_ESt4lessIxESaIS2_EE6_S_keyEPKSt18_Rb_tree_node_base(%"struct.std::_Rb_tree_node_base"* %120), !llfi_index !1053
  %122 = call zeroext i1 @_ZNKSt4lessIxEclERKxS2_(%"struct.std::less"* nonnull align 1 dereferenceable(1) %116, i64* nonnull align 8 dereferenceable(8) %117, i64* nonnull align 8 dereferenceable(8) %121), !llfi_index !1054
  br i1 %122, label %123, label %133, !llfi_index !1055

123:                                              ; preds = %113
  %124 = getelementptr inbounds %"struct.std::_Rb_tree_iterator", %"struct.std::_Rb_tree_iterator"* %8, i32 0, i32 0, !llfi_index !1056
  %125 = load %"struct.std::_Rb_tree_node_base"*, %"struct.std::_Rb_tree_node_base"** %124, align 8, !llfi_index !1057
  %126 = call %"struct.std::_Rb_tree_node"* @_ZNSt8_Rb_treeIxSt4pairIKxiESt10_Select1stIS2_ESt4lessIxESaIS2_EE8_S_rightEPSt18_Rb_tree_node_base(%"struct.std::_Rb_tree_node_base"* %125) #2, !llfi_index !1058
  %127 = icmp eq %"struct.std::_Rb_tree_node"* %126, null, !llfi_index !1059
  br i1 %127, label %128, label %130, !llfi_index !1060

128:                                              ; preds = %123
  store %"struct.std::_Rb_tree_node_base"* null, %"struct.std::_Rb_tree_node_base"** %14, align 8, !llfi_index !1061
  %129 = getelementptr inbounds %"struct.std::_Rb_tree_iterator", %"struct.std::_Rb_tree_iterator"* %8, i32 0, i32 0, !llfi_index !1062
  call void @_ZNSt4pairIPSt18_Rb_tree_node_baseS1_EC2IRS1_Lb1EEERKS1_OT_(%"struct.std::pair.1"* nonnull align 8 dereferenceable(16) %4, %"struct.std::_Rb_tree_node_base"** nonnull align 8 dereferenceable(8) %14, %"struct.std::_Rb_tree_node_base"** nonnull align 8 dereferenceable(8) %129), !llfi_index !1063
  br label %143, !llfi_index !1064

130:                                              ; preds = %123
  %131 = getelementptr inbounds %"struct.std::_Rb_tree_iterator", %"struct.std::_Rb_tree_iterator"* %12, i32 0, i32 0, !llfi_index !1065
  %132 = getelementptr inbounds %"struct.std::_Rb_tree_iterator", %"struct.std::_Rb_tree_iterator"* %12, i32 0, i32 0, !llfi_index !1066
  call void @_ZNSt4pairIPSt18_Rb_tree_node_baseS1_EC2IRS1_S4_Lb1EEEOT_OT0_(%"struct.std::pair.1"* nonnull align 8 dereferenceable(16) %4, %"struct.std::_Rb_tree_node_base"** nonnull align 8 dereferenceable(8) %131, %"struct.std::_Rb_tree_node_base"** nonnull align 8 dereferenceable(8) %132), !llfi_index !1067
  br label %143, !llfi_index !1068

133:                                              ; preds = %113
  %134 = load i64*, i64** %7, align 8, !llfi_index !1069
  %135 = call { %"struct.std::_Rb_tree_node_base"*, %"struct.std::_Rb_tree_node_base"* } @_ZNSt8_Rb_treeIxSt4pairIKxiESt10_Select1stIS2_ESt4lessIxESaIS2_EE24_M_get_insert_unique_posERS1_(%"class.std::_Rb_tree"* nonnull align 8 dereferenceable(48) %17, i64* nonnull align 8 dereferenceable(8) %134), !llfi_index !1070
  %136 = bitcast %"struct.std::pair.1"* %4 to { %"struct.std::_Rb_tree_node_base"*, %"struct.std::_Rb_tree_node_base"* }*, !llfi_index !1071
  %137 = getelementptr inbounds { %"struct.std::_Rb_tree_node_base"*, %"struct.std::_Rb_tree_node_base"* }, { %"struct.std::_Rb_tree_node_base"*, %"struct.std::_Rb_tree_node_base"* }* %136, i32 0, i32 0, !llfi_index !1072
  %138 = extractvalue { %"struct.std::_Rb_tree_node_base"*, %"struct.std::_Rb_tree_node_base"* } %135, 0, !llfi_index !1073
  store %"struct.std::_Rb_tree_node_base"* %138, %"struct.std::_Rb_tree_node_base"** %137, align 8, !llfi_index !1074
  %139 = getelementptr inbounds { %"struct.std::_Rb_tree_node_base"*, %"struct.std::_Rb_tree_node_base"* }, { %"struct.std::_Rb_tree_node_base"*, %"struct.std::_Rb_tree_node_base"* }* %136, i32 0, i32 1, !llfi_index !1075
  %140 = extractvalue { %"struct.std::_Rb_tree_node_base"*, %"struct.std::_Rb_tree_node_base"* } %135, 1, !llfi_index !1076
  store %"struct.std::_Rb_tree_node_base"* %140, %"struct.std::_Rb_tree_node_base"** %139, align 8, !llfi_index !1077
  br label %143, !llfi_index !1078

141:                                              ; preds = %94
  %142 = getelementptr inbounds %"struct.std::_Rb_tree_iterator", %"struct.std::_Rb_tree_iterator"* %8, i32 0, i32 0, !llfi_index !1079
  store %"struct.std::_Rb_tree_node_base"* null, %"struct.std::_Rb_tree_node_base"** %15, align 8, !llfi_index !1080
  call void @_ZNSt4pairIPSt18_Rb_tree_node_baseS1_EC2IRS1_Lb1EEEOT_RKS1_(%"struct.std::pair.1"* nonnull align 8 dereferenceable(16) %4, %"struct.std::_Rb_tree_node_base"** nonnull align 8 dereferenceable(8) %142, %"struct.std::_Rb_tree_node_base"** nonnull align 8 dereferenceable(8) %15), !llfi_index !1081
  br label %143, !llfi_index !1082

143:                                              ; preds = %141, %133, %130, %128, %111, %86, %83, %81, %63, %38, %36
  %144 = bitcast %"struct.std::pair.1"* %4 to { %"struct.std::_Rb_tree_node_base"*, %"struct.std::_Rb_tree_node_base"* }*, !llfi_index !1083
  %145 = load { %"struct.std::_Rb_tree_node_base"*, %"struct.std::_Rb_tree_node_base"* }, { %"struct.std::_Rb_tree_node_base"*, %"struct.std::_Rb_tree_node_base"* }* %144, align 8, !llfi_index !1084
  ret { %"struct.std::_Rb_tree_node_base"*, %"struct.std::_Rb_tree_node_base"* } %145, !llfi_index !1085
}

; Function Attrs: mustprogress noinline uwtable
define linkonce_odr dso_local %"struct.std::_Rb_tree_node_base"* @_ZNSt8_Rb_treeIxSt4pairIKxiESt10_Select1stIS2_ESt4lessIxESaIS2_EE14_M_insert_nodeEPSt18_Rb_tree_node_baseSA_PSt13_Rb_tree_nodeIS2_E(%"class.std::_Rb_tree"* nonnull align 8 dereferenceable(48) %0, %"struct.std::_Rb_tree_node_base"* %1, %"struct.std::_Rb_tree_node_base"* %2, %"struct.std::_Rb_tree_node"* %3) #4 comdat align 2 {
  %5 = alloca %"struct.std::_Rb_tree_iterator", align 8, !llfi_index !1086
  %6 = alloca %"class.std::_Rb_tree"*, align 8, !llfi_index !1087
  %7 = alloca %"struct.std::_Rb_tree_node_base"*, align 8, !llfi_index !1088
  %8 = alloca %"struct.std::_Rb_tree_node_base"*, align 8, !llfi_index !1089
  %9 = alloca %"struct.std::_Rb_tree_node"*, align 8, !llfi_index !1090
  %10 = alloca i8, align 1, !llfi_index !1091
  store %"class.std::_Rb_tree"* %0, %"class.std::_Rb_tree"** %6, align 8, !llfi_index !1092
  store %"struct.std::_Rb_tree_node_base"* %1, %"struct.std::_Rb_tree_node_base"** %7, align 8, !llfi_index !1093
  store %"struct.std::_Rb_tree_node_base"* %2, %"struct.std::_Rb_tree_node_base"** %8, align 8, !llfi_index !1094
  store %"struct.std::_Rb_tree_node"* %3, %"struct.std::_Rb_tree_node"** %9, align 8, !llfi_index !1095
  %11 = load %"class.std::_Rb_tree"*, %"class.std::_Rb_tree"** %6, align 8, !llfi_index !1096
  %12 = load %"struct.std::_Rb_tree_node_base"*, %"struct.std::_Rb_tree_node_base"** %7, align 8, !llfi_index !1097
  %13 = icmp ne %"struct.std::_Rb_tree_node_base"* %12, null, !llfi_index !1098
  br i1 %13, label %27, label %14, !llfi_index !1099

14:                                               ; preds = %4
  %15 = load %"struct.std::_Rb_tree_node_base"*, %"struct.std::_Rb_tree_node_base"** %8, align 8, !llfi_index !1100
  %16 = call %"struct.std::_Rb_tree_node_base"* @_ZNSt8_Rb_treeIxSt4pairIKxiESt10_Select1stIS2_ESt4lessIxESaIS2_EE6_M_endEv(%"class.std::_Rb_tree"* nonnull align 8 dereferenceable(48) %11) #2, !llfi_index !1101
  %17 = icmp eq %"struct.std::_Rb_tree_node_base"* %15, %16, !llfi_index !1102
  br i1 %17, label %27, label %18, !llfi_index !1103

18:                                               ; preds = %14
  %19 = getelementptr inbounds %"class.std::_Rb_tree", %"class.std::_Rb_tree"* %11, i32 0, i32 0, !llfi_index !1104
  %20 = bitcast %"struct.std::_Rb_tree<long long, std::pair<const long long, int>, std::_Select1st<std::pair<const long long, int>>, std::less<long long>>::_Rb_tree_impl"* %19 to %"struct.std::_Rb_tree_key_compare"*, !llfi_index !1105
  %21 = getelementptr inbounds %"struct.std::_Rb_tree_key_compare", %"struct.std::_Rb_tree_key_compare"* %20, i32 0, i32 0, !llfi_index !1106
  %22 = load %"struct.std::_Rb_tree_node"*, %"struct.std::_Rb_tree_node"** %9, align 8, !llfi_index !1107
  %23 = call nonnull align 8 dereferenceable(8) i64* @_ZNSt8_Rb_treeIxSt4pairIKxiESt10_Select1stIS2_ESt4lessIxESaIS2_EE6_S_keyEPKSt13_Rb_tree_nodeIS2_E(%"struct.std::_Rb_tree_node"* %22), !llfi_index !1108
  %24 = load %"struct.std::_Rb_tree_node_base"*, %"struct.std::_Rb_tree_node_base"** %8, align 8, !llfi_index !1109
  %25 = call nonnull align 8 dereferenceable(8) i64* @_ZNSt8_Rb_treeIxSt4pairIKxiESt10_Select1stIS2_ESt4lessIxESaIS2_EE6_S_keyEPKSt18_Rb_tree_node_base(%"struct.std::_Rb_tree_node_base"* %24), !llfi_index !1110
  %26 = call zeroext i1 @_ZNKSt4lessIxEclERKxS2_(%"struct.std::less"* nonnull align 1 dereferenceable(1) %21, i64* nonnull align 8 dereferenceable(8) %23, i64* nonnull align 8 dereferenceable(8) %25), !llfi_index !1111
  br label %27, !llfi_index !1112

27:                                               ; preds = %18, %14, %4
  %28 = phi i1 [ true, %14 ], [ true, %4 ], [ %26, %18 ], !llfi_index !1113
  %29 = zext i1 %28 to i8, !llfi_index !1114
  store i8 %29, i8* %10, align 1, !llfi_index !1115
  %30 = load i8, i8* %10, align 1, !llfi_index !1116
  %31 = trunc i8 %30 to i1, !llfi_index !1117
  %32 = load %"struct.std::_Rb_tree_node"*, %"struct.std::_Rb_tree_node"** %9, align 8, !llfi_index !1118
  %33 = bitcast %"struct.std::_Rb_tree_node"* %32 to %"struct.std::_Rb_tree_node_base"*, !llfi_index !1119
  %34 = load %"struct.std::_Rb_tree_node_base"*, %"struct.std::_Rb_tree_node_base"** %8, align 8, !llfi_index !1120
  %35 = getelementptr inbounds %"class.std::_Rb_tree", %"class.std::_Rb_tree"* %11, i32 0, i32 0, !llfi_index !1121
  %36 = bitcast %"struct.std::_Rb_tree<long long, std::pair<const long long, int>, std::_Select1st<std::pair<const long long, int>>, std::less<long long>>::_Rb_tree_impl"* %35 to i8*, !llfi_index !1122
  %37 = getelementptr inbounds i8, i8* %36, i64 8, !llfi_index !1123
  %38 = bitcast i8* %37 to %"struct.std::_Rb_tree_header"*, !llfi_index !1124
  %39 = getelementptr inbounds %"struct.std::_Rb_tree_header", %"struct.std::_Rb_tree_header"* %38, i32 0, i32 0, !llfi_index !1125
  call void @_ZSt29_Rb_tree_insert_and_rebalancebPSt18_Rb_tree_node_baseS0_RS_(i1 zeroext %31, %"struct.std::_Rb_tree_node_base"* %33, %"struct.std::_Rb_tree_node_base"* %34, %"struct.std::_Rb_tree_node_base"* nonnull align 8 dereferenceable(32) %39) #2, !llfi_index !1126
  %40 = getelementptr inbounds %"class.std::_Rb_tree", %"class.std::_Rb_tree"* %11, i32 0, i32 0, !llfi_index !1127
  %41 = bitcast %"struct.std::_Rb_tree<long long, std::pair<const long long, int>, std::_Select1st<std::pair<const long long, int>>, std::less<long long>>::_Rb_tree_impl"* %40 to i8*, !llfi_index !1128
  %42 = getelementptr inbounds i8, i8* %41, i64 8, !llfi_index !1129
  %43 = bitcast i8* %42 to %"struct.std::_Rb_tree_header"*, !llfi_index !1130
  %44 = getelementptr inbounds %"struct.std::_Rb_tree_header", %"struct.std::_Rb_tree_header"* %43, i32 0, i32 1, !llfi_index !1131
  %45 = load i64, i64* %44, align 8, !llfi_index !1132
  %46 = add i64 %45, 1, !llfi_index !1133
  store i64 %46, i64* %44, align 8, !llfi_index !1134
  %47 = load %"struct.std::_Rb_tree_node"*, %"struct.std::_Rb_tree_node"** %9, align 8, !llfi_index !1135
  %48 = bitcast %"struct.std::_Rb_tree_node"* %47 to %"struct.std::_Rb_tree_node_base"*, !llfi_index !1136
  call void @_ZNSt17_Rb_tree_iteratorISt4pairIKxiEEC2EPSt18_Rb_tree_node_base(%"struct.std::_Rb_tree_iterator"* nonnull align 8 dereferenceable(8) %5, %"struct.std::_Rb_tree_node_base"* %48) #2, !llfi_index !1137
  %49 = getelementptr inbounds %"struct.std::_Rb_tree_iterator", %"struct.std::_Rb_tree_iterator"* %5, i32 0, i32 0, !llfi_index !1138
  %50 = load %"struct.std::_Rb_tree_node_base"*, %"struct.std::_Rb_tree_node_base"** %49, align 8, !llfi_index !1139
  ret %"struct.std::_Rb_tree_node_base"* %50, !llfi_index !1140
}

declare dso_local void @__cxa_rethrow()

; Function Attrs: noinline nounwind uwtable
define linkonce_odr dso_local void @_ZNSt17_Rb_tree_iteratorISt4pairIKxiEEC2EPSt18_Rb_tree_node_base(%"struct.std::_Rb_tree_iterator"* nonnull align 8 dereferenceable(8) %0, %"struct.std::_Rb_tree_node_base"* %1) unnamed_addr #1 comdat align 2 {
  %3 = alloca %"struct.std::_Rb_tree_iterator"*, align 8, !llfi_index !1141
  %4 = alloca %"struct.std::_Rb_tree_node_base"*, align 8, !llfi_index !1142
  store %"struct.std::_Rb_tree_iterator"* %0, %"struct.std::_Rb_tree_iterator"** %3, align 8, !llfi_index !1143
  store %"struct.std::_Rb_tree_node_base"* %1, %"struct.std::_Rb_tree_node_base"** %4, align 8, !llfi_index !1144
  %5 = load %"struct.std::_Rb_tree_iterator"*, %"struct.std::_Rb_tree_iterator"** %3, align 8, !llfi_index !1145
  %6 = getelementptr inbounds %"struct.std::_Rb_tree_iterator", %"struct.std::_Rb_tree_iterator"* %5, i32 0, i32 0, !llfi_index !1146
  %7 = load %"struct.std::_Rb_tree_node_base"*, %"struct.std::_Rb_tree_node_base"** %4, align 8, !llfi_index !1147
  store %"struct.std::_Rb_tree_node_base"* %7, %"struct.std::_Rb_tree_node_base"** %6, align 8, !llfi_index !1148
  ret void, !llfi_index !1149
}

declare dso_local void @__cxa_end_catch()

; Function Attrs: cold noreturn nounwind
declare void @llvm.trap() #11

; Function Attrs: mustprogress noinline nounwind uwtable
define linkonce_odr dso_local %"struct.std::_Rb_tree_node_base"* @_ZNSt8_Rb_treeIxSt4pairIKxiESt10_Select1stIS2_ESt4lessIxESaIS2_EE6_M_endEv(%"class.std::_Rb_tree"* nonnull align 8 dereferenceable(48) %0) #3 comdat align 2 {
  %2 = alloca %"class.std::_Rb_tree"*, align 8, !llfi_index !1150
  store %"class.std::_Rb_tree"* %0, %"class.std::_Rb_tree"** %2, align 8, !llfi_index !1151
  %3 = load %"class.std::_Rb_tree"*, %"class.std::_Rb_tree"** %2, align 8, !llfi_index !1152
  %4 = getelementptr inbounds %"class.std::_Rb_tree", %"class.std::_Rb_tree"* %3, i32 0, i32 0, !llfi_index !1153
  %5 = bitcast %"struct.std::_Rb_tree<long long, std::pair<const long long, int>, std::_Select1st<std::pair<const long long, int>>, std::less<long long>>::_Rb_tree_impl"* %4 to i8*, !llfi_index !1154
  %6 = getelementptr inbounds i8, i8* %5, i64 8, !llfi_index !1155
  %7 = bitcast i8* %6 to %"struct.std::_Rb_tree_header"*, !llfi_index !1156
  %8 = getelementptr inbounds %"struct.std::_Rb_tree_header", %"struct.std::_Rb_tree_header"* %7, i32 0, i32 0, !llfi_index !1157
  ret %"struct.std::_Rb_tree_node_base"* %8, !llfi_index !1158
}

; Function Attrs: mustprogress noinline uwtable
define linkonce_odr dso_local nonnull align 8 dereferenceable(8) i64* @_ZNSt8_Rb_treeIxSt4pairIKxiESt10_Select1stIS2_ESt4lessIxESaIS2_EE6_S_keyEPKSt18_Rb_tree_node_base(%"struct.std::_Rb_tree_node_base"* %0) #4 comdat align 2 {
  %2 = alloca %"struct.std::_Rb_tree_node_base"*, align 8, !llfi_index !1159
  store %"struct.std::_Rb_tree_node_base"* %0, %"struct.std::_Rb_tree_node_base"** %2, align 8, !llfi_index !1160
  %3 = load %"struct.std::_Rb_tree_node_base"*, %"struct.std::_Rb_tree_node_base"** %2, align 8, !llfi_index !1161
  %4 = bitcast %"struct.std::_Rb_tree_node_base"* %3 to %"struct.std::_Rb_tree_node"*, !llfi_index !1162
  %5 = call nonnull align 8 dereferenceable(8) i64* @_ZNSt8_Rb_treeIxSt4pairIKxiESt10_Select1stIS2_ESt4lessIxESaIS2_EE6_S_keyEPKSt13_Rb_tree_nodeIS2_E(%"struct.std::_Rb_tree_node"* %4), !llfi_index !1163
  ret i64* %5, !llfi_index !1164
}

; Function Attrs: nounwind
declare dso_local void @_ZSt29_Rb_tree_insert_and_rebalancebPSt18_Rb_tree_node_baseS0_RS_(i1 zeroext, %"struct.std::_Rb_tree_node_base"*, %"struct.std::_Rb_tree_node_base"*, %"struct.std::_Rb_tree_node_base"* nonnull align 8 dereferenceable(32)) #8

; Function Attrs: mustprogress noinline nounwind uwtable
define linkonce_odr dso_local %"struct.std::_Rb_tree_node_base"* @_ZNKSt23_Rb_tree_const_iteratorISt4pairIKxiEE13_M_const_castEv(%"struct.std::_Rb_tree_iterator"* nonnull align 8 dereferenceable(8) %0) #3 comdat align 2 {
  %2 = alloca %"struct.std::_Rb_tree_iterator", align 8, !llfi_index !1165
  %3 = alloca %"struct.std::_Rb_tree_iterator"*, align 8, !llfi_index !1166
  store %"struct.std::_Rb_tree_iterator"* %0, %"struct.std::_Rb_tree_iterator"** %3, align 8, !llfi_index !1167
  %4 = load %"struct.std::_Rb_tree_iterator"*, %"struct.std::_Rb_tree_iterator"** %3, align 8, !llfi_index !1168
  %5 = getelementptr inbounds %"struct.std::_Rb_tree_iterator", %"struct.std::_Rb_tree_iterator"* %4, i32 0, i32 0, !llfi_index !1169
  %6 = load %"struct.std::_Rb_tree_node_base"*, %"struct.std::_Rb_tree_node_base"** %5, align 8, !llfi_index !1170
  call void @_ZNSt17_Rb_tree_iteratorISt4pairIKxiEEC2EPSt18_Rb_tree_node_base(%"struct.std::_Rb_tree_iterator"* nonnull align 8 dereferenceable(8) %2, %"struct.std::_Rb_tree_node_base"* %6) #2, !llfi_index !1171
  %7 = getelementptr inbounds %"struct.std::_Rb_tree_iterator", %"struct.std::_Rb_tree_iterator"* %2, i32 0, i32 0, !llfi_index !1172
  %8 = load %"struct.std::_Rb_tree_node_base"*, %"struct.std::_Rb_tree_node_base"** %7, align 8, !llfi_index !1173
  ret %"struct.std::_Rb_tree_node_base"* %8, !llfi_index !1174
}

; Function Attrs: mustprogress noinline nounwind uwtable
define linkonce_odr dso_local i64 @_ZNKSt8_Rb_treeIxSt4pairIKxiESt10_Select1stIS2_ESt4lessIxESaIS2_EE4sizeEv(%"class.std::_Rb_tree"* nonnull align 8 dereferenceable(48) %0) #3 comdat align 2 {
  %2 = alloca %"class.std::_Rb_tree"*, align 8, !llfi_index !1175
  store %"class.std::_Rb_tree"* %0, %"class.std::_Rb_tree"** %2, align 8, !llfi_index !1176
  %3 = load %"class.std::_Rb_tree"*, %"class.std::_Rb_tree"** %2, align 8, !llfi_index !1177
  %4 = getelementptr inbounds %"class.std::_Rb_tree", %"class.std::_Rb_tree"* %3, i32 0, i32 0, !llfi_index !1178
  %5 = bitcast %"struct.std::_Rb_tree<long long, std::pair<const long long, int>, std::_Select1st<std::pair<const long long, int>>, std::less<long long>>::_Rb_tree_impl"* %4 to i8*, !llfi_index !1179
  %6 = getelementptr inbounds i8, i8* %5, i64 8, !llfi_index !1180
  %7 = bitcast i8* %6 to %"struct.std::_Rb_tree_header"*, !llfi_index !1181
  %8 = getelementptr inbounds %"struct.std::_Rb_tree_header", %"struct.std::_Rb_tree_header"* %7, i32 0, i32 1, !llfi_index !1182
  %9 = load i64, i64* %8, align 8, !llfi_index !1183
  ret i64 %9, !llfi_index !1184
}

; Function Attrs: mustprogress noinline nounwind uwtable
define linkonce_odr dso_local nonnull align 8 dereferenceable(8) %"struct.std::_Rb_tree_node_base"** @_ZNSt8_Rb_treeIxSt4pairIKxiESt10_Select1stIS2_ESt4lessIxESaIS2_EE12_M_rightmostEv(%"class.std::_Rb_tree"* nonnull align 8 dereferenceable(48) %0) #3 comdat align 2 {
  %2 = alloca %"class.std::_Rb_tree"*, align 8, !llfi_index !1185
  store %"class.std::_Rb_tree"* %0, %"class.std::_Rb_tree"** %2, align 8, !llfi_index !1186
  %3 = load %"class.std::_Rb_tree"*, %"class.std::_Rb_tree"** %2, align 8, !llfi_index !1187
  %4 = getelementptr inbounds %"class.std::_Rb_tree", %"class.std::_Rb_tree"* %3, i32 0, i32 0, !llfi_index !1188
  %5 = bitcast %"struct.std::_Rb_tree<long long, std::pair<const long long, int>, std::_Select1st<std::pair<const long long, int>>, std::less<long long>>::_Rb_tree_impl"* %4 to i8*, !llfi_index !1189
  %6 = getelementptr inbounds i8, i8* %5, i64 8, !llfi_index !1190
  %7 = bitcast i8* %6 to %"struct.std::_Rb_tree_header"*, !llfi_index !1191
  %8 = getelementptr inbounds %"struct.std::_Rb_tree_header", %"struct.std::_Rb_tree_header"* %7, i32 0, i32 0, !llfi_index !1192
  %9 = getelementptr inbounds %"struct.std::_Rb_tree_node_base", %"struct.std::_Rb_tree_node_base"* %8, i32 0, i32 3, !llfi_index !1193
  ret %"struct.std::_Rb_tree_node_base"** %9, !llfi_index !1194
}

; Function Attrs: noinline nounwind uwtable
define linkonce_odr dso_local void @_ZNSt4pairIPSt18_Rb_tree_node_baseS1_EC2IRS1_Lb1EEERKS1_OT_(%"struct.std::pair.1"* nonnull align 8 dereferenceable(16) %0, %"struct.std::_Rb_tree_node_base"** nonnull align 8 dereferenceable(8) %1, %"struct.std::_Rb_tree_node_base"** nonnull align 8 dereferenceable(8) %2) unnamed_addr #1 comdat align 2 {
  %4 = alloca %"struct.std::pair.1"*, align 8, !llfi_index !1195
  %5 = alloca %"struct.std::_Rb_tree_node_base"**, align 8, !llfi_index !1196
  %6 = alloca %"struct.std::_Rb_tree_node_base"**, align 8, !llfi_index !1197
  store %"struct.std::pair.1"* %0, %"struct.std::pair.1"** %4, align 8, !llfi_index !1198
  store %"struct.std::_Rb_tree_node_base"** %1, %"struct.std::_Rb_tree_node_base"*** %5, align 8, !llfi_index !1199
  store %"struct.std::_Rb_tree_node_base"** %2, %"struct.std::_Rb_tree_node_base"*** %6, align 8, !llfi_index !1200
  %7 = load %"struct.std::pair.1"*, %"struct.std::pair.1"** %4, align 8, !llfi_index !1201
  %8 = bitcast %"struct.std::pair.1"* %7 to %"struct.std::less"*, !llfi_index !1202
  %9 = getelementptr inbounds %"struct.std::pair.1", %"struct.std::pair.1"* %7, i32 0, i32 0, !llfi_index !1203
  %10 = load %"struct.std::_Rb_tree_node_base"**, %"struct.std::_Rb_tree_node_base"*** %5, align 8, !llfi_index !1204
  %11 = load %"struct.std::_Rb_tree_node_base"*, %"struct.std::_Rb_tree_node_base"** %10, align 8, !llfi_index !1205
  store %"struct.std::_Rb_tree_node_base"* %11, %"struct.std::_Rb_tree_node_base"** %9, align 8, !llfi_index !1206
  %12 = getelementptr inbounds %"struct.std::pair.1", %"struct.std::pair.1"* %7, i32 0, i32 1, !llfi_index !1207
  %13 = load %"struct.std::_Rb_tree_node_base"**, %"struct.std::_Rb_tree_node_base"*** %6, align 8, !llfi_index !1208
  %14 = call nonnull align 8 dereferenceable(8) %"struct.std::_Rb_tree_node_base"** @_ZSt7forwardIRPSt18_Rb_tree_node_baseEOT_RNSt16remove_referenceIS3_E4typeE(%"struct.std::_Rb_tree_node_base"** nonnull align 8 dereferenceable(8) %13) #2, !llfi_index !1209
  %15 = load %"struct.std::_Rb_tree_node_base"*, %"struct.std::_Rb_tree_node_base"** %14, align 8, !llfi_index !1210
  store %"struct.std::_Rb_tree_node_base"* %15, %"struct.std::_Rb_tree_node_base"** %12, align 8, !llfi_index !1211
  ret void, !llfi_index !1212
}

; Function Attrs: mustprogress noinline uwtable
define linkonce_odr dso_local { %"struct.std::_Rb_tree_node_base"*, %"struct.std::_Rb_tree_node_base"* } @_ZNSt8_Rb_treeIxSt4pairIKxiESt10_Select1stIS2_ESt4lessIxESaIS2_EE24_M_get_insert_unique_posERS1_(%"class.std::_Rb_tree"* nonnull align 8 dereferenceable(48) %0, i64* nonnull align 8 dereferenceable(8) %1) #4 comdat align 2 {
  %3 = alloca %"struct.std::pair.1", align 8, !llfi_index !1213
  %4 = alloca %"class.std::_Rb_tree"*, align 8, !llfi_index !1214
  %5 = alloca i64*, align 8, !llfi_index !1215
  %6 = alloca %"struct.std::_Rb_tree_node"*, align 8, !llfi_index !1216
  %7 = alloca %"struct.std::_Rb_tree_node_base"*, align 8, !llfi_index !1217
  %8 = alloca i8, align 1, !llfi_index !1218
  %9 = alloca %"struct.std::_Rb_tree_iterator", align 8, !llfi_index !1219
  %10 = alloca %"struct.std::_Rb_tree_iterator", align 8, !llfi_index !1220
  %11 = alloca %"struct.std::_Rb_tree_node_base"*, align 8, !llfi_index !1221
  store %"class.std::_Rb_tree"* %0, %"class.std::_Rb_tree"** %4, align 8, !llfi_index !1222
  store i64* %1, i64** %5, align 8, !llfi_index !1223
  %12 = load %"class.std::_Rb_tree"*, %"class.std::_Rb_tree"** %4, align 8, !llfi_index !1224
  %13 = call %"struct.std::_Rb_tree_node"* @_ZNSt8_Rb_treeIxSt4pairIKxiESt10_Select1stIS2_ESt4lessIxESaIS2_EE8_M_beginEv(%"class.std::_Rb_tree"* nonnull align 8 dereferenceable(48) %12) #2, !llfi_index !1225
  store %"struct.std::_Rb_tree_node"* %13, %"struct.std::_Rb_tree_node"** %6, align 8, !llfi_index !1226
  %14 = call %"struct.std::_Rb_tree_node_base"* @_ZNSt8_Rb_treeIxSt4pairIKxiESt10_Select1stIS2_ESt4lessIxESaIS2_EE6_M_endEv(%"class.std::_Rb_tree"* nonnull align 8 dereferenceable(48) %12) #2, !llfi_index !1227
  store %"struct.std::_Rb_tree_node_base"* %14, %"struct.std::_Rb_tree_node_base"** %7, align 8, !llfi_index !1228
  store i8 1, i8* %8, align 1, !llfi_index !1229
  br label %15, !llfi_index !1230

15:                                               ; preds = %39, %2
  %16 = load %"struct.std::_Rb_tree_node"*, %"struct.std::_Rb_tree_node"** %6, align 8, !llfi_index !1231
  %17 = icmp ne %"struct.std::_Rb_tree_node"* %16, null, !llfi_index !1232
  br i1 %17, label %18, label %41, !llfi_index !1233

18:                                               ; preds = %15
  %19 = load %"struct.std::_Rb_tree_node"*, %"struct.std::_Rb_tree_node"** %6, align 8, !llfi_index !1234
  %20 = bitcast %"struct.std::_Rb_tree_node"* %19 to %"struct.std::_Rb_tree_node_base"*, !llfi_index !1235
  store %"struct.std::_Rb_tree_node_base"* %20, %"struct.std::_Rb_tree_node_base"** %7, align 8, !llfi_index !1236
  %21 = getelementptr inbounds %"class.std::_Rb_tree", %"class.std::_Rb_tree"* %12, i32 0, i32 0, !llfi_index !1237
  %22 = bitcast %"struct.std::_Rb_tree<long long, std::pair<const long long, int>, std::_Select1st<std::pair<const long long, int>>, std::less<long long>>::_Rb_tree_impl"* %21 to %"struct.std::_Rb_tree_key_compare"*, !llfi_index !1238
  %23 = getelementptr inbounds %"struct.std::_Rb_tree_key_compare", %"struct.std::_Rb_tree_key_compare"* %22, i32 0, i32 0, !llfi_index !1239
  %24 = load i64*, i64** %5, align 8, !llfi_index !1240
  %25 = load %"struct.std::_Rb_tree_node"*, %"struct.std::_Rb_tree_node"** %6, align 8, !llfi_index !1241
  %26 = call nonnull align 8 dereferenceable(8) i64* @_ZNSt8_Rb_treeIxSt4pairIKxiESt10_Select1stIS2_ESt4lessIxESaIS2_EE6_S_keyEPKSt13_Rb_tree_nodeIS2_E(%"struct.std::_Rb_tree_node"* %25), !llfi_index !1242
  %27 = call zeroext i1 @_ZNKSt4lessIxEclERKxS2_(%"struct.std::less"* nonnull align 1 dereferenceable(1) %23, i64* nonnull align 8 dereferenceable(8) %24, i64* nonnull align 8 dereferenceable(8) %26), !llfi_index !1243
  %28 = zext i1 %27 to i8, !llfi_index !1244
  store i8 %28, i8* %8, align 1, !llfi_index !1245
  %29 = load i8, i8* %8, align 1, !llfi_index !1246
  %30 = trunc i8 %29 to i1, !llfi_index !1247
  br i1 %30, label %31, label %35, !llfi_index !1248

31:                                               ; preds = %18
  %32 = load %"struct.std::_Rb_tree_node"*, %"struct.std::_Rb_tree_node"** %6, align 8, !llfi_index !1249
  %33 = bitcast %"struct.std::_Rb_tree_node"* %32 to %"struct.std::_Rb_tree_node_base"*, !llfi_index !1250
  %34 = call %"struct.std::_Rb_tree_node"* @_ZNSt8_Rb_treeIxSt4pairIKxiESt10_Select1stIS2_ESt4lessIxESaIS2_EE7_S_leftEPSt18_Rb_tree_node_base(%"struct.std::_Rb_tree_node_base"* %33) #2, !llfi_index !1251
  br label %39, !llfi_index !1252

35:                                               ; preds = %18
  %36 = load %"struct.std::_Rb_tree_node"*, %"struct.std::_Rb_tree_node"** %6, align 8, !llfi_index !1253
  %37 = bitcast %"struct.std::_Rb_tree_node"* %36 to %"struct.std::_Rb_tree_node_base"*, !llfi_index !1254
  %38 = call %"struct.std::_Rb_tree_node"* @_ZNSt8_Rb_treeIxSt4pairIKxiESt10_Select1stIS2_ESt4lessIxESaIS2_EE8_S_rightEPSt18_Rb_tree_node_base(%"struct.std::_Rb_tree_node_base"* %37) #2, !llfi_index !1255
  br label %39, !llfi_index !1256

39:                                               ; preds = %35, %31
  %40 = phi %"struct.std::_Rb_tree_node"* [ %34, %31 ], [ %38, %35 ], !llfi_index !1257
  store %"struct.std::_Rb_tree_node"* %40, %"struct.std::_Rb_tree_node"** %6, align 8, !llfi_index !1258
  br label %15, !llvm.loop !1259, !llfi_index !1260

41:                                               ; preds = %15
  %42 = load %"struct.std::_Rb_tree_node_base"*, %"struct.std::_Rb_tree_node_base"** %7, align 8, !llfi_index !1261
  call void @_ZNSt17_Rb_tree_iteratorISt4pairIKxiEEC2EPSt18_Rb_tree_node_base(%"struct.std::_Rb_tree_iterator"* nonnull align 8 dereferenceable(8) %9, %"struct.std::_Rb_tree_node_base"* %42) #2, !llfi_index !1262
  %43 = load i8, i8* %8, align 1, !llfi_index !1263
  %44 = trunc i8 %43 to i1, !llfi_index !1264
  br i1 %44, label %45, label %53, !llfi_index !1265

45:                                               ; preds = %41
  %46 = call %"struct.std::_Rb_tree_node_base"* @_ZNSt8_Rb_treeIxSt4pairIKxiESt10_Select1stIS2_ESt4lessIxESaIS2_EE5beginEv(%"class.std::_Rb_tree"* nonnull align 8 dereferenceable(48) %12) #2, !llfi_index !1266
  %47 = getelementptr inbounds %"struct.std::_Rb_tree_iterator", %"struct.std::_Rb_tree_iterator"* %10, i32 0, i32 0, !llfi_index !1267
  store %"struct.std::_Rb_tree_node_base"* %46, %"struct.std::_Rb_tree_node_base"** %47, align 8, !llfi_index !1268
  %48 = call zeroext i1 @_ZSteqRKSt17_Rb_tree_iteratorISt4pairIKxiEES5_(%"struct.std::_Rb_tree_iterator"* nonnull align 8 dereferenceable(8) %9, %"struct.std::_Rb_tree_iterator"* nonnull align 8 dereferenceable(8) %10) #2, !llfi_index !1269
  br i1 %48, label %49, label %50, !llfi_index !1270

49:                                               ; preds = %45
  call void @_ZNSt4pairIPSt18_Rb_tree_node_baseS1_EC2IRPSt13_Rb_tree_nodeIS_IKxiEERS1_Lb1EEEOT_OT0_(%"struct.std::pair.1"* nonnull align 8 dereferenceable(16) %3, %"struct.std::_Rb_tree_node"** nonnull align 8 dereferenceable(8) %6, %"struct.std::_Rb_tree_node_base"** nonnull align 8 dereferenceable(8) %7), !llfi_index !1271
  br label %65, !llfi_index !1272

50:                                               ; preds = %45
  %51 = call nonnull align 8 dereferenceable(8) %"struct.std::_Rb_tree_iterator"* @_ZNSt17_Rb_tree_iteratorISt4pairIKxiEEmmEv(%"struct.std::_Rb_tree_iterator"* nonnull align 8 dereferenceable(8) %9) #2, !llfi_index !1273
  br label %52, !llfi_index !1274

52:                                               ; preds = %50
  br label %53, !llfi_index !1275

53:                                               ; preds = %52, %41
  %54 = getelementptr inbounds %"class.std::_Rb_tree", %"class.std::_Rb_tree"* %12, i32 0, i32 0, !llfi_index !1276
  %55 = bitcast %"struct.std::_Rb_tree<long long, std::pair<const long long, int>, std::_Select1st<std::pair<const long long, int>>, std::less<long long>>::_Rb_tree_impl"* %54 to %"struct.std::_Rb_tree_key_compare"*, !llfi_index !1277
  %56 = getelementptr inbounds %"struct.std::_Rb_tree_key_compare", %"struct.std::_Rb_tree_key_compare"* %55, i32 0, i32 0, !llfi_index !1278
  %57 = getelementptr inbounds %"struct.std::_Rb_tree_iterator", %"struct.std::_Rb_tree_iterator"* %9, i32 0, i32 0, !llfi_index !1279
  %58 = load %"struct.std::_Rb_tree_node_base"*, %"struct.std::_Rb_tree_node_base"** %57, align 8, !llfi_index !1280
  %59 = call nonnull align 8 dereferenceable(8) i64* @_ZNSt8_Rb_treeIxSt4pairIKxiESt10_Select1stIS2_ESt4lessIxESaIS2_EE6_S_keyEPKSt18_Rb_tree_node_base(%"struct.std::_Rb_tree_node_base"* %58), !llfi_index !1281
  %60 = load i64*, i64** %5, align 8, !llfi_index !1282
  %61 = call zeroext i1 @_ZNKSt4lessIxEclERKxS2_(%"struct.std::less"* nonnull align 1 dereferenceable(1) %56, i64* nonnull align 8 dereferenceable(8) %59, i64* nonnull align 8 dereferenceable(8) %60), !llfi_index !1283
  br i1 %61, label %62, label %63, !llfi_index !1284

62:                                               ; preds = %53
  call void @_ZNSt4pairIPSt18_Rb_tree_node_baseS1_EC2IRPSt13_Rb_tree_nodeIS_IKxiEERS1_Lb1EEEOT_OT0_(%"struct.std::pair.1"* nonnull align 8 dereferenceable(16) %3, %"struct.std::_Rb_tree_node"** nonnull align 8 dereferenceable(8) %6, %"struct.std::_Rb_tree_node_base"** nonnull align 8 dereferenceable(8) %7), !llfi_index !1285
  br label %65, !llfi_index !1286

63:                                               ; preds = %53
  %64 = getelementptr inbounds %"struct.std::_Rb_tree_iterator", %"struct.std::_Rb_tree_iterator"* %9, i32 0, i32 0, !llfi_index !1287
  store %"struct.std::_Rb_tree_node_base"* null, %"struct.std::_Rb_tree_node_base"** %11, align 8, !llfi_index !1288
  call void @_ZNSt4pairIPSt18_Rb_tree_node_baseS1_EC2IRS1_Lb1EEEOT_RKS1_(%"struct.std::pair.1"* nonnull align 8 dereferenceable(16) %3, %"struct.std::_Rb_tree_node_base"** nonnull align 8 dereferenceable(8) %64, %"struct.std::_Rb_tree_node_base"** nonnull align 8 dereferenceable(8) %11), !llfi_index !1289
  br label %65, !llfi_index !1290

65:                                               ; preds = %63, %62, %49
  %66 = bitcast %"struct.std::pair.1"* %3 to { %"struct.std::_Rb_tree_node_base"*, %"struct.std::_Rb_tree_node_base"* }*, !llfi_index !1291
  %67 = load { %"struct.std::_Rb_tree_node_base"*, %"struct.std::_Rb_tree_node_base"* }, { %"struct.std::_Rb_tree_node_base"*, %"struct.std::_Rb_tree_node_base"* }* %66, align 8, !llfi_index !1292
  ret { %"struct.std::_Rb_tree_node_base"*, %"struct.std::_Rb_tree_node_base"* } %67, !llfi_index !1293
}

; Function Attrs: mustprogress noinline nounwind uwtable
define linkonce_odr dso_local nonnull align 8 dereferenceable(8) %"struct.std::_Rb_tree_node_base"** @_ZNSt8_Rb_treeIxSt4pairIKxiESt10_Select1stIS2_ESt4lessIxESaIS2_EE11_M_leftmostEv(%"class.std::_Rb_tree"* nonnull align 8 dereferenceable(48) %0) #3 comdat align 2 {
  %2 = alloca %"class.std::_Rb_tree"*, align 8, !llfi_index !1294
  store %"class.std::_Rb_tree"* %0, %"class.std::_Rb_tree"** %2, align 8, !llfi_index !1295
  %3 = load %"class.std::_Rb_tree"*, %"class.std::_Rb_tree"** %2, align 8, !llfi_index !1296
  %4 = getelementptr inbounds %"class.std::_Rb_tree", %"class.std::_Rb_tree"* %3, i32 0, i32 0, !llfi_index !1297
  %5 = bitcast %"struct.std::_Rb_tree<long long, std::pair<const long long, int>, std::_Select1st<std::pair<const long long, int>>, std::less<long long>>::_Rb_tree_impl"* %4 to i8*, !llfi_index !1298
  %6 = getelementptr inbounds i8, i8* %5, i64 8, !llfi_index !1299
  %7 = bitcast i8* %6 to %"struct.std::_Rb_tree_header"*, !llfi_index !1300
  %8 = getelementptr inbounds %"struct.std::_Rb_tree_header", %"struct.std::_Rb_tree_header"* %7, i32 0, i32 0, !llfi_index !1301
  %9 = getelementptr inbounds %"struct.std::_Rb_tree_node_base", %"struct.std::_Rb_tree_node_base"* %8, i32 0, i32 2, !llfi_index !1302
  ret %"struct.std::_Rb_tree_node_base"** %9, !llfi_index !1303
}

; Function Attrs: noinline nounwind uwtable
define linkonce_odr dso_local void @_ZNSt4pairIPSt18_Rb_tree_node_baseS1_EC2IRS1_S4_Lb1EEEOT_OT0_(%"struct.std::pair.1"* nonnull align 8 dereferenceable(16) %0, %"struct.std::_Rb_tree_node_base"** nonnull align 8 dereferenceable(8) %1, %"struct.std::_Rb_tree_node_base"** nonnull align 8 dereferenceable(8) %2) unnamed_addr #1 comdat align 2 {
  %4 = alloca %"struct.std::pair.1"*, align 8, !llfi_index !1304
  %5 = alloca %"struct.std::_Rb_tree_node_base"**, align 8, !llfi_index !1305
  %6 = alloca %"struct.std::_Rb_tree_node_base"**, align 8, !llfi_index !1306
  store %"struct.std::pair.1"* %0, %"struct.std::pair.1"** %4, align 8, !llfi_index !1307
  store %"struct.std::_Rb_tree_node_base"** %1, %"struct.std::_Rb_tree_node_base"*** %5, align 8, !llfi_index !1308
  store %"struct.std::_Rb_tree_node_base"** %2, %"struct.std::_Rb_tree_node_base"*** %6, align 8, !llfi_index !1309
  %7 = load %"struct.std::pair.1"*, %"struct.std::pair.1"** %4, align 8, !llfi_index !1310
  %8 = bitcast %"struct.std::pair.1"* %7 to %"struct.std::less"*, !llfi_index !1311
  %9 = getelementptr inbounds %"struct.std::pair.1", %"struct.std::pair.1"* %7, i32 0, i32 0, !llfi_index !1312
  %10 = load %"struct.std::_Rb_tree_node_base"**, %"struct.std::_Rb_tree_node_base"*** %5, align 8, !llfi_index !1313
  %11 = call nonnull align 8 dereferenceable(8) %"struct.std::_Rb_tree_node_base"** @_ZSt7forwardIRPSt18_Rb_tree_node_baseEOT_RNSt16remove_referenceIS3_E4typeE(%"struct.std::_Rb_tree_node_base"** nonnull align 8 dereferenceable(8) %10) #2, !llfi_index !1314
  %12 = load %"struct.std::_Rb_tree_node_base"*, %"struct.std::_Rb_tree_node_base"** %11, align 8, !llfi_index !1315
  store %"struct.std::_Rb_tree_node_base"* %12, %"struct.std::_Rb_tree_node_base"** %9, align 8, !llfi_index !1316
  %13 = getelementptr inbounds %"struct.std::pair.1", %"struct.std::pair.1"* %7, i32 0, i32 1, !llfi_index !1317
  %14 = load %"struct.std::_Rb_tree_node_base"**, %"struct.std::_Rb_tree_node_base"*** %6, align 8, !llfi_index !1318
  %15 = call nonnull align 8 dereferenceable(8) %"struct.std::_Rb_tree_node_base"** @_ZSt7forwardIRPSt18_Rb_tree_node_baseEOT_RNSt16remove_referenceIS3_E4typeE(%"struct.std::_Rb_tree_node_base"** nonnull align 8 dereferenceable(8) %14) #2, !llfi_index !1319
  %16 = load %"struct.std::_Rb_tree_node_base"*, %"struct.std::_Rb_tree_node_base"** %15, align 8, !llfi_index !1320
  store %"struct.std::_Rb_tree_node_base"* %16, %"struct.std::_Rb_tree_node_base"** %13, align 8, !llfi_index !1321
  ret void, !llfi_index !1322
}

; Function Attrs: mustprogress noinline nounwind uwtable
define linkonce_odr dso_local nonnull align 8 dereferenceable(8) %"struct.std::_Rb_tree_iterator"* @_ZNSt17_Rb_tree_iteratorISt4pairIKxiEEmmEv(%"struct.std::_Rb_tree_iterator"* nonnull align 8 dereferenceable(8) %0) #3 comdat align 2 {
  %2 = alloca %"struct.std::_Rb_tree_iterator"*, align 8, !llfi_index !1323
  store %"struct.std::_Rb_tree_iterator"* %0, %"struct.std::_Rb_tree_iterator"** %2, align 8, !llfi_index !1324
  %3 = load %"struct.std::_Rb_tree_iterator"*, %"struct.std::_Rb_tree_iterator"** %2, align 8, !llfi_index !1325
  %4 = getelementptr inbounds %"struct.std::_Rb_tree_iterator", %"struct.std::_Rb_tree_iterator"* %3, i32 0, i32 0, !llfi_index !1326
  %5 = load %"struct.std::_Rb_tree_node_base"*, %"struct.std::_Rb_tree_node_base"** %4, align 8, !llfi_index !1327
  %6 = call %"struct.std::_Rb_tree_node_base"* @_ZSt18_Rb_tree_decrementPSt18_Rb_tree_node_base(%"struct.std::_Rb_tree_node_base"* %5) #18, !llfi_index !1328
  %7 = getelementptr inbounds %"struct.std::_Rb_tree_iterator", %"struct.std::_Rb_tree_iterator"* %3, i32 0, i32 0, !llfi_index !1329
  store %"struct.std::_Rb_tree_node_base"* %6, %"struct.std::_Rb_tree_node_base"** %7, align 8, !llfi_index !1330
  ret %"struct.std::_Rb_tree_iterator"* %3, !llfi_index !1331
}

; Function Attrs: mustprogress noinline nounwind uwtable
define linkonce_odr dso_local nonnull align 8 dereferenceable(8) %"struct.std::_Rb_tree_iterator"* @_ZNSt17_Rb_tree_iteratorISt4pairIKxiEEppEv(%"struct.std::_Rb_tree_iterator"* nonnull align 8 dereferenceable(8) %0) #3 comdat align 2 {
  %2 = alloca %"struct.std::_Rb_tree_iterator"*, align 8, !llfi_index !1332
  store %"struct.std::_Rb_tree_iterator"* %0, %"struct.std::_Rb_tree_iterator"** %2, align 8, !llfi_index !1333
  %3 = load %"struct.std::_Rb_tree_iterator"*, %"struct.std::_Rb_tree_iterator"** %2, align 8, !llfi_index !1334
  %4 = getelementptr inbounds %"struct.std::_Rb_tree_iterator", %"struct.std::_Rb_tree_iterator"* %3, i32 0, i32 0, !llfi_index !1335
  %5 = load %"struct.std::_Rb_tree_node_base"*, %"struct.std::_Rb_tree_node_base"** %4, align 8, !llfi_index !1336
  %6 = call %"struct.std::_Rb_tree_node_base"* @_ZSt18_Rb_tree_incrementPSt18_Rb_tree_node_base(%"struct.std::_Rb_tree_node_base"* %5) #18, !llfi_index !1337
  %7 = getelementptr inbounds %"struct.std::_Rb_tree_iterator", %"struct.std::_Rb_tree_iterator"* %3, i32 0, i32 0, !llfi_index !1338
  store %"struct.std::_Rb_tree_node_base"* %6, %"struct.std::_Rb_tree_node_base"** %7, align 8, !llfi_index !1339
  ret %"struct.std::_Rb_tree_iterator"* %3, !llfi_index !1340
}

; Function Attrs: noinline nounwind uwtable
define linkonce_odr dso_local void @_ZNSt4pairIPSt18_Rb_tree_node_baseS1_EC2IRS1_Lb1EEEOT_RKS1_(%"struct.std::pair.1"* nonnull align 8 dereferenceable(16) %0, %"struct.std::_Rb_tree_node_base"** nonnull align 8 dereferenceable(8) %1, %"struct.std::_Rb_tree_node_base"** nonnull align 8 dereferenceable(8) %2) unnamed_addr #1 comdat align 2 {
  %4 = alloca %"struct.std::pair.1"*, align 8, !llfi_index !1341
  %5 = alloca %"struct.std::_Rb_tree_node_base"**, align 8, !llfi_index !1342
  %6 = alloca %"struct.std::_Rb_tree_node_base"**, align 8, !llfi_index !1343
  store %"struct.std::pair.1"* %0, %"struct.std::pair.1"** %4, align 8, !llfi_index !1344
  store %"struct.std::_Rb_tree_node_base"** %1, %"struct.std::_Rb_tree_node_base"*** %5, align 8, !llfi_index !1345
  store %"struct.std::_Rb_tree_node_base"** %2, %"struct.std::_Rb_tree_node_base"*** %6, align 8, !llfi_index !1346
  %7 = load %"struct.std::pair.1"*, %"struct.std::pair.1"** %4, align 8, !llfi_index !1347
  %8 = bitcast %"struct.std::pair.1"* %7 to %"struct.std::less"*, !llfi_index !1348
  %9 = getelementptr inbounds %"struct.std::pair.1", %"struct.std::pair.1"* %7, i32 0, i32 0, !llfi_index !1349
  %10 = load %"struct.std::_Rb_tree_node_base"**, %"struct.std::_Rb_tree_node_base"*** %5, align 8, !llfi_index !1350
  %11 = call nonnull align 8 dereferenceable(8) %"struct.std::_Rb_tree_node_base"** @_ZSt7forwardIRPSt18_Rb_tree_node_baseEOT_RNSt16remove_referenceIS3_E4typeE(%"struct.std::_Rb_tree_node_base"** nonnull align 8 dereferenceable(8) %10) #2, !llfi_index !1351
  %12 = load %"struct.std::_Rb_tree_node_base"*, %"struct.std::_Rb_tree_node_base"** %11, align 8, !llfi_index !1352
  store %"struct.std::_Rb_tree_node_base"* %12, %"struct.std::_Rb_tree_node_base"** %9, align 8, !llfi_index !1353
  %13 = getelementptr inbounds %"struct.std::pair.1", %"struct.std::pair.1"* %7, i32 0, i32 1, !llfi_index !1354
  %14 = load %"struct.std::_Rb_tree_node_base"**, %"struct.std::_Rb_tree_node_base"*** %6, align 8, !llfi_index !1355
  %15 = load %"struct.std::_Rb_tree_node_base"*, %"struct.std::_Rb_tree_node_base"** %14, align 8, !llfi_index !1356
  store %"struct.std::_Rb_tree_node_base"* %15, %"struct.std::_Rb_tree_node_base"** %13, align 8, !llfi_index !1357
  ret void, !llfi_index !1358
}

; Function Attrs: mustprogress noinline nounwind uwtable
define linkonce_odr dso_local nonnull align 8 dereferenceable(8) %"struct.std::_Rb_tree_node_base"** @_ZSt7forwardIRPSt18_Rb_tree_node_baseEOT_RNSt16remove_referenceIS3_E4typeE(%"struct.std::_Rb_tree_node_base"** nonnull align 8 dereferenceable(8) %0) #3 comdat {
  %2 = alloca %"struct.std::_Rb_tree_node_base"**, align 8, !llfi_index !1359
  store %"struct.std::_Rb_tree_node_base"** %0, %"struct.std::_Rb_tree_node_base"*** %2, align 8, !llfi_index !1360
  %3 = load %"struct.std::_Rb_tree_node_base"**, %"struct.std::_Rb_tree_node_base"*** %2, align 8, !llfi_index !1361
  ret %"struct.std::_Rb_tree_node_base"** %3, !llfi_index !1362
}

; Function Attrs: nounwind readonly willreturn
declare dso_local %"struct.std::_Rb_tree_node_base"* @_ZSt18_Rb_tree_incrementPSt18_Rb_tree_node_base(%"struct.std::_Rb_tree_node_base"*) #12

; Function Attrs: nounwind readonly willreturn
declare dso_local %"struct.std::_Rb_tree_node_base"* @_ZSt18_Rb_tree_decrementPSt18_Rb_tree_node_base(%"struct.std::_Rb_tree_node_base"*) #12

; Function Attrs: mustprogress noinline nounwind uwtable
define linkonce_odr dso_local %"struct.std::_Rb_tree_node_base"* @_ZNSt8_Rb_treeIxSt4pairIKxiESt10_Select1stIS2_ESt4lessIxESaIS2_EE5beginEv(%"class.std::_Rb_tree"* nonnull align 8 dereferenceable(48) %0) #3 comdat align 2 {
  %2 = alloca %"struct.std::_Rb_tree_iterator", align 8, !llfi_index !1363
  %3 = alloca %"class.std::_Rb_tree"*, align 8, !llfi_index !1364
  store %"class.std::_Rb_tree"* %0, %"class.std::_Rb_tree"** %3, align 8, !llfi_index !1365
  %4 = load %"class.std::_Rb_tree"*, %"class.std::_Rb_tree"** %3, align 8, !llfi_index !1366
  %5 = getelementptr inbounds %"class.std::_Rb_tree", %"class.std::_Rb_tree"* %4, i32 0, i32 0, !llfi_index !1367
  %6 = bitcast %"struct.std::_Rb_tree<long long, std::pair<const long long, int>, std::_Select1st<std::pair<const long long, int>>, std::less<long long>>::_Rb_tree_impl"* %5 to i8*, !llfi_index !1368
  %7 = getelementptr inbounds i8, i8* %6, i64 8, !llfi_index !1369
  %8 = bitcast i8* %7 to %"struct.std::_Rb_tree_header"*, !llfi_index !1370
  %9 = getelementptr inbounds %"struct.std::_Rb_tree_header", %"struct.std::_Rb_tree_header"* %8, i32 0, i32 0, !llfi_index !1371
  %10 = getelementptr inbounds %"struct.std::_Rb_tree_node_base", %"struct.std::_Rb_tree_node_base"* %9, i32 0, i32 2, !llfi_index !1372
  %11 = load %"struct.std::_Rb_tree_node_base"*, %"struct.std::_Rb_tree_node_base"** %10, align 8, !llfi_index !1373
  call void @_ZNSt17_Rb_tree_iteratorISt4pairIKxiEEC2EPSt18_Rb_tree_node_base(%"struct.std::_Rb_tree_iterator"* nonnull align 8 dereferenceable(8) %2, %"struct.std::_Rb_tree_node_base"* %11) #2, !llfi_index !1374
  %12 = getelementptr inbounds %"struct.std::_Rb_tree_iterator", %"struct.std::_Rb_tree_iterator"* %2, i32 0, i32 0, !llfi_index !1375
  %13 = load %"struct.std::_Rb_tree_node_base"*, %"struct.std::_Rb_tree_node_base"** %12, align 8, !llfi_index !1376
  ret %"struct.std::_Rb_tree_node_base"* %13, !llfi_index !1377
}

; Function Attrs: noinline nounwind uwtable
define linkonce_odr dso_local void @_ZNSt4pairIPSt18_Rb_tree_node_baseS1_EC2IRPSt13_Rb_tree_nodeIS_IKxiEERS1_Lb1EEEOT_OT0_(%"struct.std::pair.1"* nonnull align 8 dereferenceable(16) %0, %"struct.std::_Rb_tree_node"** nonnull align 8 dereferenceable(8) %1, %"struct.std::_Rb_tree_node_base"** nonnull align 8 dereferenceable(8) %2) unnamed_addr #1 comdat align 2 {
  %4 = alloca %"struct.std::pair.1"*, align 8, !llfi_index !1378
  %5 = alloca %"struct.std::_Rb_tree_node"**, align 8, !llfi_index !1379
  %6 = alloca %"struct.std::_Rb_tree_node_base"**, align 8, !llfi_index !1380
  store %"struct.std::pair.1"* %0, %"struct.std::pair.1"** %4, align 8, !llfi_index !1381
  store %"struct.std::_Rb_tree_node"** %1, %"struct.std::_Rb_tree_node"*** %5, align 8, !llfi_index !1382
  store %"struct.std::_Rb_tree_node_base"** %2, %"struct.std::_Rb_tree_node_base"*** %6, align 8, !llfi_index !1383
  %7 = load %"struct.std::pair.1"*, %"struct.std::pair.1"** %4, align 8, !llfi_index !1384
  %8 = bitcast %"struct.std::pair.1"* %7 to %"struct.std::less"*, !llfi_index !1385
  %9 = getelementptr inbounds %"struct.std::pair.1", %"struct.std::pair.1"* %7, i32 0, i32 0, !llfi_index !1386
  %10 = load %"struct.std::_Rb_tree_node"**, %"struct.std::_Rb_tree_node"*** %5, align 8, !llfi_index !1387
  %11 = call nonnull align 8 dereferenceable(8) %"struct.std::_Rb_tree_node"** @_ZSt7forwardIRPSt13_Rb_tree_nodeISt4pairIKxiEEEOT_RNSt16remove_referenceIS7_E4typeE(%"struct.std::_Rb_tree_node"** nonnull align 8 dereferenceable(8) %10) #2, !llfi_index !1388
  %12 = load %"struct.std::_Rb_tree_node"*, %"struct.std::_Rb_tree_node"** %11, align 8, !llfi_index !1389
  %13 = bitcast %"struct.std::_Rb_tree_node"* %12 to %"struct.std::_Rb_tree_node_base"*, !llfi_index !1390
  store %"struct.std::_Rb_tree_node_base"* %13, %"struct.std::_Rb_tree_node_base"** %9, align 8, !llfi_index !1391
  %14 = getelementptr inbounds %"struct.std::pair.1", %"struct.std::pair.1"* %7, i32 0, i32 1, !llfi_index !1392
  %15 = load %"struct.std::_Rb_tree_node_base"**, %"struct.std::_Rb_tree_node_base"*** %6, align 8, !llfi_index !1393
  %16 = call nonnull align 8 dereferenceable(8) %"struct.std::_Rb_tree_node_base"** @_ZSt7forwardIRPSt18_Rb_tree_node_baseEOT_RNSt16remove_referenceIS3_E4typeE(%"struct.std::_Rb_tree_node_base"** nonnull align 8 dereferenceable(8) %15) #2, !llfi_index !1394
  %17 = load %"struct.std::_Rb_tree_node_base"*, %"struct.std::_Rb_tree_node_base"** %16, align 8, !llfi_index !1395
  store %"struct.std::_Rb_tree_node_base"* %17, %"struct.std::_Rb_tree_node_base"** %14, align 8, !llfi_index !1396
  ret void, !llfi_index !1397
}

; Function Attrs: mustprogress noinline nounwind uwtable
define linkonce_odr dso_local nonnull align 8 dereferenceable(8) %"struct.std::_Rb_tree_node"** @_ZSt7forwardIRPSt13_Rb_tree_nodeISt4pairIKxiEEEOT_RNSt16remove_referenceIS7_E4typeE(%"struct.std::_Rb_tree_node"** nonnull align 8 dereferenceable(8) %0) #3 comdat {
  %2 = alloca %"struct.std::_Rb_tree_node"**, align 8, !llfi_index !1398
  store %"struct.std::_Rb_tree_node"** %0, %"struct.std::_Rb_tree_node"*** %2, align 8, !llfi_index !1399
  %3 = load %"struct.std::_Rb_tree_node"**, %"struct.std::_Rb_tree_node"*** %2, align 8, !llfi_index !1400
  ret %"struct.std::_Rb_tree_node"** %3, !llfi_index !1401
}

; Function Attrs: mustprogress noinline nounwind uwtable
define linkonce_odr dso_local %"struct.std::pair"* @_ZNKSt13_Rb_tree_nodeISt4pairIKxiEE9_M_valptrEv(%"struct.std::_Rb_tree_node"* nonnull align 8 dereferenceable(48) %0) #3 comdat align 2 {
  %2 = alloca %"struct.std::_Rb_tree_node"*, align 8, !llfi_index !1402
  store %"struct.std::_Rb_tree_node"* %0, %"struct.std::_Rb_tree_node"** %2, align 8, !llfi_index !1403
  %3 = load %"struct.std::_Rb_tree_node"*, %"struct.std::_Rb_tree_node"** %2, align 8, !llfi_index !1404
  %4 = getelementptr inbounds %"struct.std::_Rb_tree_node", %"struct.std::_Rb_tree_node"* %3, i32 0, i32 1, !llfi_index !1405
  %5 = call %"struct.std::pair"* @_ZNK9__gnu_cxx16__aligned_membufISt4pairIKxiEE6_M_ptrEv(%"struct.__gnu_cxx::__aligned_membuf"* nonnull align 8 dereferenceable(16) %4) #2, !llfi_index !1406
  ret %"struct.std::pair"* %5, !llfi_index !1407
}

; Function Attrs: mustprogress noinline nounwind uwtable
define linkonce_odr dso_local nonnull align 8 dereferenceable(8) i64* @_ZNKSt10_Select1stISt4pairIKxiEEclERKS2_(%"struct.std::less"* nonnull align 1 dereferenceable(1) %0, %"struct.std::pair"* nonnull align 8 dereferenceable(12) %1) #3 comdat align 2 {
  %3 = alloca %"struct.std::less"*, align 8, !llfi_index !1408
  %4 = alloca %"struct.std::pair"*, align 8, !llfi_index !1409
  store %"struct.std::less"* %0, %"struct.std::less"** %3, align 8, !llfi_index !1410
  store %"struct.std::pair"* %1, %"struct.std::pair"** %4, align 8, !llfi_index !1411
  %5 = load %"struct.std::less"*, %"struct.std::less"** %3, align 8, !llfi_index !1412
  %6 = load %"struct.std::pair"*, %"struct.std::pair"** %4, align 8, !llfi_index !1413
  %7 = getelementptr inbounds %"struct.std::pair", %"struct.std::pair"* %6, i32 0, i32 0, !llfi_index !1414
  ret i64* %7, !llfi_index !1415
}

; Function Attrs: mustprogress noinline nounwind uwtable
define linkonce_odr dso_local %"struct.std::pair"* @_ZNK9__gnu_cxx16__aligned_membufISt4pairIKxiEE6_M_ptrEv(%"struct.__gnu_cxx::__aligned_membuf"* nonnull align 8 dereferenceable(16) %0) #3 comdat align 2 {
  %2 = alloca %"struct.__gnu_cxx::__aligned_membuf"*, align 8, !llfi_index !1416
  store %"struct.__gnu_cxx::__aligned_membuf"* %0, %"struct.__gnu_cxx::__aligned_membuf"** %2, align 8, !llfi_index !1417
  %3 = load %"struct.__gnu_cxx::__aligned_membuf"*, %"struct.__gnu_cxx::__aligned_membuf"** %2, align 8, !llfi_index !1418
  %4 = call i8* @_ZNK9__gnu_cxx16__aligned_membufISt4pairIKxiEE7_M_addrEv(%"struct.__gnu_cxx::__aligned_membuf"* nonnull align 8 dereferenceable(16) %3) #2, !llfi_index !1419
  %5 = bitcast i8* %4 to %"struct.std::pair"*, !llfi_index !1420
  ret %"struct.std::pair"* %5, !llfi_index !1421
}

; Function Attrs: mustprogress noinline nounwind uwtable
define linkonce_odr dso_local i8* @_ZNK9__gnu_cxx16__aligned_membufISt4pairIKxiEE7_M_addrEv(%"struct.__gnu_cxx::__aligned_membuf"* nonnull align 8 dereferenceable(16) %0) #3 comdat align 2 {
  %2 = alloca %"struct.__gnu_cxx::__aligned_membuf"*, align 8, !llfi_index !1422
  store %"struct.__gnu_cxx::__aligned_membuf"* %0, %"struct.__gnu_cxx::__aligned_membuf"** %2, align 8, !llfi_index !1423
  %3 = load %"struct.__gnu_cxx::__aligned_membuf"*, %"struct.__gnu_cxx::__aligned_membuf"** %2, align 8, !llfi_index !1424
  %4 = getelementptr inbounds %"struct.__gnu_cxx::__aligned_membuf", %"struct.__gnu_cxx::__aligned_membuf"* %3, i32 0, i32 0, !llfi_index !1425
  %5 = bitcast [16 x i8]* %4 to i8*, !llfi_index !1426
  ret i8* %5, !llfi_index !1427
}

; Function Attrs: mustprogress noinline uwtable
define linkonce_odr dso_local %"struct.std::_Rb_tree_node"* @_ZNSt8_Rb_treeIxSt4pairIKxiESt10_Select1stIS2_ESt4lessIxESaIS2_EE11_M_get_nodeEv(%"class.std::_Rb_tree"* nonnull align 8 dereferenceable(48) %0) #4 comdat align 2 {
  %2 = alloca %"class.std::_Rb_tree"*, align 8, !llfi_index !1428
  store %"class.std::_Rb_tree"* %0, %"class.std::_Rb_tree"** %2, align 8, !llfi_index !1429
  %3 = load %"class.std::_Rb_tree"*, %"class.std::_Rb_tree"** %2, align 8, !llfi_index !1430
  %4 = call nonnull align 1 dereferenceable(1) %"struct.std::less"* @_ZNSt8_Rb_treeIxSt4pairIKxiESt10_Select1stIS2_ESt4lessIxESaIS2_EE21_M_get_Node_allocatorEv(%"class.std::_Rb_tree"* nonnull align 8 dereferenceable(48) %3) #2, !llfi_index !1431
  %5 = call %"struct.std::_Rb_tree_node"* @_ZNSt16allocator_traitsISaISt13_Rb_tree_nodeISt4pairIKxiEEEE8allocateERS5_m(%"struct.std::less"* nonnull align 1 dereferenceable(1) %4, i64 1), !llfi_index !1432
  ret %"struct.std::_Rb_tree_node"* %5, !llfi_index !1433
}

; Function Attrs: mustprogress noinline uwtable
define linkonce_odr dso_local void @_ZNSt8_Rb_treeIxSt4pairIKxiESt10_Select1stIS2_ESt4lessIxESaIS2_EE17_M_construct_nodeIJRKSt21piecewise_construct_tSt5tupleIJRS1_EESD_IJEEEEEvPSt13_Rb_tree_nodeIS2_EDpOT_(%"class.std::_Rb_tree"* nonnull align 8 dereferenceable(48) %0, %"struct.std::_Rb_tree_node"* %1, %"struct.std::less"* nonnull align 1 dereferenceable(1) %2, %"class.std::tuple"* nonnull align 8 dereferenceable(8) %3, %"struct.std::less"* nonnull align 1 dereferenceable(1) %4) #4 comdat align 2 personality i8* bitcast (i32 (...)* @__gxx_personality_v0 to i8*) {
  %6 = alloca %"class.std::_Rb_tree"*, align 8, !llfi_index !1434
  %7 = alloca %"struct.std::_Rb_tree_node"*, align 8, !llfi_index !1435
  %8 = alloca %"struct.std::less"*, align 8, !llfi_index !1436
  %9 = alloca %"class.std::tuple"*, align 8, !llfi_index !1437
  %10 = alloca %"struct.std::less"*, align 8, !llfi_index !1438
  %11 = alloca i8*, align 8, !llfi_index !1439
  %12 = alloca i32, align 4, !llfi_index !1440
  store %"class.std::_Rb_tree"* %0, %"class.std::_Rb_tree"** %6, align 8, !llfi_index !1441
  store %"struct.std::_Rb_tree_node"* %1, %"struct.std::_Rb_tree_node"** %7, align 8, !llfi_index !1442
  store %"struct.std::less"* %2, %"struct.std::less"** %8, align 8, !llfi_index !1443
  store %"class.std::tuple"* %3, %"class.std::tuple"** %9, align 8, !llfi_index !1444
  store %"struct.std::less"* %4, %"struct.std::less"** %10, align 8, !llfi_index !1445
  %13 = load %"class.std::_Rb_tree"*, %"class.std::_Rb_tree"** %6, align 8, !llfi_index !1446
  %14 = load %"struct.std::_Rb_tree_node"*, %"struct.std::_Rb_tree_node"** %7, align 8, !llfi_index !1447
  %15 = bitcast %"struct.std::_Rb_tree_node"* %14 to i8*, !llfi_index !1448
  %16 = bitcast i8* %15 to %"struct.std::_Rb_tree_node"*, !llfi_index !1449
  %17 = call nonnull align 1 dereferenceable(1) %"struct.std::less"* @_ZNSt8_Rb_treeIxSt4pairIKxiESt10_Select1stIS2_ESt4lessIxESaIS2_EE21_M_get_Node_allocatorEv(%"class.std::_Rb_tree"* nonnull align 8 dereferenceable(48) %13) #2, !llfi_index !1450
  %18 = load %"struct.std::_Rb_tree_node"*, %"struct.std::_Rb_tree_node"** %7, align 8, !llfi_index !1451
  %19 = call %"struct.std::pair"* @_ZNSt13_Rb_tree_nodeISt4pairIKxiEE9_M_valptrEv(%"struct.std::_Rb_tree_node"* nonnull align 8 dereferenceable(48) %18), !llfi_index !1452
  %20 = load %"struct.std::less"*, %"struct.std::less"** %8, align 8, !llfi_index !1453
  %21 = call nonnull align 1 dereferenceable(1) %"struct.std::less"* @_ZSt7forwardIRKSt21piecewise_construct_tEOT_RNSt16remove_referenceIS3_E4typeE(%"struct.std::less"* nonnull align 1 dereferenceable(1) %20) #2, !llfi_index !1454
  %22 = load %"class.std::tuple"*, %"class.std::tuple"** %9, align 8, !llfi_index !1455
  %23 = call nonnull align 8 dereferenceable(8) %"class.std::tuple"* @_ZSt7forwardISt5tupleIJRKxEEEOT_RNSt16remove_referenceIS4_E4typeE(%"class.std::tuple"* nonnull align 8 dereferenceable(8) %22) #2, !llfi_index !1456
  %24 = load %"struct.std::less"*, %"struct.std::less"** %10, align 8, !llfi_index !1457
  %25 = call nonnull align 1 dereferenceable(1) %"struct.std::less"* @_ZSt7forwardISt5tupleIJEEEOT_RNSt16remove_referenceIS2_E4typeE(%"struct.std::less"* nonnull align 1 dereferenceable(1) %24) #2, !llfi_index !1458
  invoke void @_ZNSt16allocator_traitsISaISt13_Rb_tree_nodeISt4pairIKxiEEEE9constructIS3_JRKSt21piecewise_construct_tSt5tupleIJRS2_EESB_IJEEEEEvRS5_PT_DpOT0_(%"struct.std::less"* nonnull align 1 dereferenceable(1) %17, %"struct.std::pair"* %19, %"struct.std::less"* nonnull align 1 dereferenceable(1) %21, %"class.std::tuple"* nonnull align 8 dereferenceable(8) %23, %"struct.std::less"* nonnull align 1 dereferenceable(1) %25)
          to label %26 unwind label %27, !llfi_index !1459

26:                                               ; preds = %5
  br label %41, !llfi_index !1460

27:                                               ; preds = %5
  %28 = landingpad { i8*, i32 }
          catch i8* null, !llfi_index !1461
  %29 = extractvalue { i8*, i32 } %28, 0, !llfi_index !1462
  store i8* %29, i8** %11, align 8, !llfi_index !1463
  %30 = extractvalue { i8*, i32 } %28, 1, !llfi_index !1464
  store i32 %30, i32* %12, align 4, !llfi_index !1465
  br label %31, !llfi_index !1466

31:                                               ; preds = %27
  %32 = load i8*, i8** %11, align 8, !llfi_index !1467
  %33 = call i8* @__cxa_begin_catch(i8* %32) #2, !llfi_index !1468
  %34 = load %"struct.std::_Rb_tree_node"*, %"struct.std::_Rb_tree_node"** %7, align 8, !llfi_index !1469
  %35 = load %"struct.std::_Rb_tree_node"*, %"struct.std::_Rb_tree_node"** %7, align 8, !llfi_index !1470
  call void @_ZNSt8_Rb_treeIxSt4pairIKxiESt10_Select1stIS2_ESt4lessIxESaIS2_EE11_M_put_nodeEPSt13_Rb_tree_nodeIS2_E(%"class.std::_Rb_tree"* nonnull align 8 dereferenceable(48) %13, %"struct.std::_Rb_tree_node"* %35) #2, !llfi_index !1471
  invoke void @__cxa_rethrow() #17
          to label %50 unwind label %36, !llfi_index !1472

36:                                               ; preds = %31
  %37 = landingpad { i8*, i32 }
          cleanup, !llfi_index !1473
  %38 = extractvalue { i8*, i32 } %37, 0, !llfi_index !1474
  store i8* %38, i8** %11, align 8, !llfi_index !1475
  %39 = extractvalue { i8*, i32 } %37, 1, !llfi_index !1476
  store i32 %39, i32* %12, align 4, !llfi_index !1477
  invoke void @__cxa_end_catch()
          to label %40 unwind label %47, !llfi_index !1478

40:                                               ; preds = %36
  br label %42, !llfi_index !1479

41:                                               ; preds = %26
  ret void, !llfi_index !1480

42:                                               ; preds = %40
  %43 = load i8*, i8** %11, align 8, !llfi_index !1481
  %44 = load i32, i32* %12, align 4, !llfi_index !1482
  %45 = insertvalue { i8*, i32 } undef, i8* %43, 0, !llfi_index !1483
  %46 = insertvalue { i8*, i32 } %45, i32 %44, 1, !llfi_index !1484
  resume { i8*, i32 } %46, !llfi_index !1485

47:                                               ; preds = %36
  %48 = landingpad { i8*, i32 }
          catch i8* null, !llfi_index !1486
  %49 = extractvalue { i8*, i32 } %48, 0, !llfi_index !1487
  call void @__clang_call_terminate(i8* %49) #16, !llfi_index !1488
  unreachable, !llfi_index !1489

50:                                               ; preds = %31
  unreachable, !llfi_index !1490
}

; Function Attrs: mustprogress noinline uwtable
define linkonce_odr dso_local void @_ZNSt16allocator_traitsISaISt13_Rb_tree_nodeISt4pairIKxiEEEE9constructIS3_JRKSt21piecewise_construct_tSt5tupleIJRS2_EESB_IJEEEEEvRS5_PT_DpOT0_(%"struct.std::less"* nonnull align 1 dereferenceable(1) %0, %"struct.std::pair"* %1, %"struct.std::less"* nonnull align 1 dereferenceable(1) %2, %"class.std::tuple"* nonnull align 8 dereferenceable(8) %3, %"struct.std::less"* nonnull align 1 dereferenceable(1) %4) #4 comdat align 2 {
  %6 = alloca %"struct.std::less"*, align 8, !llfi_index !1491
  %7 = alloca %"struct.std::pair"*, align 8, !llfi_index !1492
  %8 = alloca %"struct.std::less"*, align 8, !llfi_index !1493
  %9 = alloca %"class.std::tuple"*, align 8, !llfi_index !1494
  %10 = alloca %"struct.std::less"*, align 8, !llfi_index !1495
  store %"struct.std::less"* %0, %"struct.std::less"** %6, align 8, !llfi_index !1496
  store %"struct.std::pair"* %1, %"struct.std::pair"** %7, align 8, !llfi_index !1497
  store %"struct.std::less"* %2, %"struct.std::less"** %8, align 8, !llfi_index !1498
  store %"class.std::tuple"* %3, %"class.std::tuple"** %9, align 8, !llfi_index !1499
  store %"struct.std::less"* %4, %"struct.std::less"** %10, align 8, !llfi_index !1500
  %11 = load %"struct.std::less"*, %"struct.std::less"** %6, align 8, !llfi_index !1501
  %12 = bitcast %"struct.std::less"* %11 to %"struct.std::less"*, !llfi_index !1502
  %13 = load %"struct.std::pair"*, %"struct.std::pair"** %7, align 8, !llfi_index !1503
  %14 = load %"struct.std::less"*, %"struct.std::less"** %8, align 8, !llfi_index !1504
  %15 = call nonnull align 1 dereferenceable(1) %"struct.std::less"* @_ZSt7forwardIRKSt21piecewise_construct_tEOT_RNSt16remove_referenceIS3_E4typeE(%"struct.std::less"* nonnull align 1 dereferenceable(1) %14) #2, !llfi_index !1505
  %16 = load %"class.std::tuple"*, %"class.std::tuple"** %9, align 8, !llfi_index !1506
  %17 = call nonnull align 8 dereferenceable(8) %"class.std::tuple"* @_ZSt7forwardISt5tupleIJRKxEEEOT_RNSt16remove_referenceIS4_E4typeE(%"class.std::tuple"* nonnull align 8 dereferenceable(8) %16) #2, !llfi_index !1507
  %18 = load %"struct.std::less"*, %"struct.std::less"** %10, align 8, !llfi_index !1508
  %19 = call nonnull align 1 dereferenceable(1) %"struct.std::less"* @_ZSt7forwardISt5tupleIJEEEOT_RNSt16remove_referenceIS2_E4typeE(%"struct.std::less"* nonnull align 1 dereferenceable(1) %18) #2, !llfi_index !1509
  call void @_ZN9__gnu_cxx13new_allocatorISt13_Rb_tree_nodeISt4pairIKxiEEE9constructIS4_JRKSt21piecewise_construct_tSt5tupleIJRS3_EESB_IJEEEEEvPT_DpOT0_(%"struct.std::less"* nonnull align 1 dereferenceable(1) %12, %"struct.std::pair"* %13, %"struct.std::less"* nonnull align 1 dereferenceable(1) %15, %"class.std::tuple"* nonnull align 8 dereferenceable(8) %17, %"struct.std::less"* nonnull align 1 dereferenceable(1) %19), !llfi_index !1510
  ret void, !llfi_index !1511
}

; Function Attrs: mustprogress noinline uwtable
define linkonce_odr dso_local void @_ZN9__gnu_cxx13new_allocatorISt13_Rb_tree_nodeISt4pairIKxiEEE9constructIS4_JRKSt21piecewise_construct_tSt5tupleIJRS3_EESB_IJEEEEEvPT_DpOT0_(%"struct.std::less"* nonnull align 1 dereferenceable(1) %0, %"struct.std::pair"* %1, %"struct.std::less"* nonnull align 1 dereferenceable(1) %2, %"class.std::tuple"* nonnull align 8 dereferenceable(8) %3, %"struct.std::less"* nonnull align 1 dereferenceable(1) %4) #4 comdat align 2 {
  %6 = alloca %"struct.std::less"*, align 8, !llfi_index !1512
  %7 = alloca %"struct.std::pair"*, align 8, !llfi_index !1513
  %8 = alloca %"struct.std::less"*, align 8, !llfi_index !1514
  %9 = alloca %"class.std::tuple"*, align 8, !llfi_index !1515
  %10 = alloca %"struct.std::less"*, align 8, !llfi_index !1516
  %11 = alloca %"struct.std::less", align 1, !llfi_index !1517
  %12 = alloca %"class.std::tuple", align 8, !llfi_index !1518
  %13 = alloca %"struct.std::less", align 1, !llfi_index !1519
  store %"struct.std::less"* %0, %"struct.std::less"** %6, align 8, !llfi_index !1520
  store %"struct.std::pair"* %1, %"struct.std::pair"** %7, align 8, !llfi_index !1521
  store %"struct.std::less"* %2, %"struct.std::less"** %8, align 8, !llfi_index !1522
  store %"class.std::tuple"* %3, %"class.std::tuple"** %9, align 8, !llfi_index !1523
  store %"struct.std::less"* %4, %"struct.std::less"** %10, align 8, !llfi_index !1524
  %14 = load %"struct.std::less"*, %"struct.std::less"** %6, align 8, !llfi_index !1525
  %15 = load %"struct.std::pair"*, %"struct.std::pair"** %7, align 8, !llfi_index !1526
  %16 = bitcast %"struct.std::pair"* %15 to i8*, !llfi_index !1527
  %17 = bitcast i8* %16 to %"struct.std::pair"*, !llfi_index !1528
  %18 = load %"struct.std::less"*, %"struct.std::less"** %8, align 8, !llfi_index !1529
  %19 = call nonnull align 1 dereferenceable(1) %"struct.std::less"* @_ZSt7forwardIRKSt21piecewise_construct_tEOT_RNSt16remove_referenceIS3_E4typeE(%"struct.std::less"* nonnull align 1 dereferenceable(1) %18) #2, !llfi_index !1530
  %20 = load %"class.std::tuple"*, %"class.std::tuple"** %9, align 8, !llfi_index !1531
  %21 = call nonnull align 8 dereferenceable(8) %"class.std::tuple"* @_ZSt7forwardISt5tupleIJRKxEEEOT_RNSt16remove_referenceIS4_E4typeE(%"class.std::tuple"* nonnull align 8 dereferenceable(8) %20) #2, !llfi_index !1532
  call void @_ZNSt5tupleIJRKxEEC2EOS2_(%"class.std::tuple"* nonnull align 8 dereferenceable(8) %12, %"class.std::tuple"* nonnull align 8 dereferenceable(8) %21) #2, !llfi_index !1533
  %22 = load %"struct.std::less"*, %"struct.std::less"** %10, align 8, !llfi_index !1534
  %23 = call nonnull align 1 dereferenceable(1) %"struct.std::less"* @_ZSt7forwardISt5tupleIJEEEOT_RNSt16remove_referenceIS2_E4typeE(%"struct.std::less"* nonnull align 1 dereferenceable(1) %22) #2, !llfi_index !1535
  call void @_ZNSt4pairIKxiEC2IJRS0_EJEEESt21piecewise_construct_tSt5tupleIJDpT_EES5_IJDpT0_EE(%"struct.std::pair"* nonnull align 8 dereferenceable(12) %17, %"class.std::tuple"* %12), !llfi_index !1536
  ret void, !llfi_index !1537
}

; Function Attrs: noinline nounwind uwtable
define linkonce_odr dso_local void @_ZNSt5tupleIJRKxEEC2EOS2_(%"class.std::tuple"* nonnull align 8 dereferenceable(8) %0, %"class.std::tuple"* nonnull align 8 dereferenceable(8) %1) unnamed_addr #1 comdat align 2 {
  %3 = alloca %"class.std::tuple"*, align 8, !llfi_index !1538
  %4 = alloca %"class.std::tuple"*, align 8, !llfi_index !1539
  store %"class.std::tuple"* %0, %"class.std::tuple"** %3, align 8, !llfi_index !1540
  store %"class.std::tuple"* %1, %"class.std::tuple"** %4, align 8, !llfi_index !1541
  %5 = load %"class.std::tuple"*, %"class.std::tuple"** %3, align 8, !llfi_index !1542
  %6 = bitcast %"class.std::tuple"* %5 to %"struct.std::_Tuple_impl"*, !llfi_index !1543
  %7 = load %"class.std::tuple"*, %"class.std::tuple"** %4, align 8, !llfi_index !1544
  %8 = bitcast %"class.std::tuple"* %7 to %"struct.std::_Tuple_impl"*, !llfi_index !1545
  call void @_ZNSt11_Tuple_implILm0EJRKxEEC2EOS2_(%"struct.std::_Tuple_impl"* nonnull align 8 dereferenceable(8) %6, %"struct.std::_Tuple_impl"* nonnull align 8 dereferenceable(8) %8) #2, !llfi_index !1546
  ret void, !llfi_index !1547
}

; Function Attrs: noinline uwtable
define linkonce_odr dso_local void @_ZNSt4pairIKxiEC2IJRS0_EJEEESt21piecewise_construct_tSt5tupleIJDpT_EES5_IJDpT0_EE(%"struct.std::pair"* nonnull align 8 dereferenceable(12) %0, %"class.std::tuple"* %1) unnamed_addr #0 comdat align 2 {
  %3 = alloca %"struct.std::less", align 1, !llfi_index !1548
  %4 = alloca %"struct.std::less", align 1, !llfi_index !1549
  %5 = alloca %"struct.std::pair"*, align 8, !llfi_index !1550
  %6 = alloca %"struct.std::less", align 1, !llfi_index !1551
  %7 = alloca %"struct.std::less", align 1, !llfi_index !1552
  store %"struct.std::pair"* %0, %"struct.std::pair"** %5, align 8, !llfi_index !1553
  %8 = load %"struct.std::pair"*, %"struct.std::pair"** %5, align 8, !llfi_index !1554
  call void @_ZNSt4pairIKxiEC2IJRS0_EJLm0EEJEJEEERSt5tupleIJDpT_EERS4_IJDpT1_EESt12_Index_tupleIJXspT0_EEESD_IJXspT2_EEE(%"struct.std::pair"* nonnull align 8 dereferenceable(12) %8, %"class.std::tuple"* nonnull align 8 dereferenceable(8) %1, %"struct.std::less"* nonnull align 1 dereferenceable(1) %4), !llfi_index !1555
  ret void, !llfi_index !1556
}

; Function Attrs: noinline nounwind uwtable
define linkonce_odr dso_local void @_ZNSt4pairIKxiEC2IJRS0_EJLm0EEJEJEEERSt5tupleIJDpT_EERS4_IJDpT1_EESt12_Index_tupleIJXspT0_EEESD_IJXspT2_EEE(%"struct.std::pair"* nonnull align 8 dereferenceable(12) %0, %"class.std::tuple"* nonnull align 8 dereferenceable(8) %1, %"struct.std::less"* nonnull align 1 dereferenceable(1) %2) unnamed_addr #1 comdat align 2 {
  %4 = alloca %"struct.std::less", align 1, !llfi_index !1557
  %5 = alloca %"struct.std::less", align 1, !llfi_index !1558
  %6 = alloca %"struct.std::pair"*, align 8, !llfi_index !1559
  %7 = alloca %"class.std::tuple"*, align 8, !llfi_index !1560
  %8 = alloca %"struct.std::less"*, align 8, !llfi_index !1561
  store %"struct.std::pair"* %0, %"struct.std::pair"** %6, align 8, !llfi_index !1562
  store %"class.std::tuple"* %1, %"class.std::tuple"** %7, align 8, !llfi_index !1563
  store %"struct.std::less"* %2, %"struct.std::less"** %8, align 8, !llfi_index !1564
  %9 = load %"struct.std::pair"*, %"struct.std::pair"** %6, align 8, !llfi_index !1565
  %10 = bitcast %"struct.std::pair"* %9 to %"struct.std::less"*, !llfi_index !1566
  %11 = getelementptr inbounds %"struct.std::pair", %"struct.std::pair"* %9, i32 0, i32 0, !llfi_index !1567
  %12 = load %"class.std::tuple"*, %"class.std::tuple"** %7, align 8, !llfi_index !1568
  %13 = call nonnull align 8 dereferenceable(8) i64* @_ZSt3getILm0EJRKxEERNSt13tuple_elementIXT_ESt5tupleIJDpT0_EEE4typeERS6_(%"class.std::tuple"* nonnull align 8 dereferenceable(8) %12) #2, !llfi_index !1569
  %14 = call nonnull align 8 dereferenceable(8) i64* @_ZSt7forwardIRKxEOT_RNSt16remove_referenceIS2_E4typeE(i64* nonnull align 8 dereferenceable(8) %13) #2, !llfi_index !1570
  %15 = load i64, i64* %14, align 8, !llfi_index !1571
  store i64 %15, i64* %11, align 8, !llfi_index !1572
  %16 = getelementptr inbounds %"struct.std::pair", %"struct.std::pair"* %9, i32 0, i32 1, !llfi_index !1573
  store i32 0, i32* %16, align 8, !llfi_index !1574
  ret void, !llfi_index !1575
}

; Function Attrs: mustprogress noinline nounwind uwtable
define linkonce_odr dso_local nonnull align 8 dereferenceable(8) i64* @_ZSt3getILm0EJRKxEERNSt13tuple_elementIXT_ESt5tupleIJDpT0_EEE4typeERS6_(%"class.std::tuple"* nonnull align 8 dereferenceable(8) %0) #3 comdat {
  %2 = alloca %"class.std::tuple"*, align 8, !llfi_index !1576
  store %"class.std::tuple"* %0, %"class.std::tuple"** %2, align 8, !llfi_index !1577
  %3 = load %"class.std::tuple"*, %"class.std::tuple"** %2, align 8, !llfi_index !1578
  %4 = bitcast %"class.std::tuple"* %3 to %"struct.std::_Tuple_impl"*, !llfi_index !1579
  %5 = call nonnull align 8 dereferenceable(8) i64* @_ZSt12__get_helperILm0ERKxJEERT0_RSt11_Tuple_implIXT_EJS2_DpT1_EE(%"struct.std::_Tuple_impl"* nonnull align 8 dereferenceable(8) %4) #2, !llfi_index !1580
  ret i64* %5, !llfi_index !1581
}

; Function Attrs: mustprogress noinline nounwind uwtable
define linkonce_odr dso_local nonnull align 8 dereferenceable(8) i64* @_ZSt7forwardIRKxEOT_RNSt16remove_referenceIS2_E4typeE(i64* nonnull align 8 dereferenceable(8) %0) #3 comdat {
  %2 = alloca i64*, align 8, !llfi_index !1582
  store i64* %0, i64** %2, align 8, !llfi_index !1583
  %3 = load i64*, i64** %2, align 8, !llfi_index !1584
  ret i64* %3, !llfi_index !1585
}

; Function Attrs: mustprogress noinline nounwind uwtable
define linkonce_odr dso_local nonnull align 8 dereferenceable(8) i64* @_ZSt12__get_helperILm0ERKxJEERT0_RSt11_Tuple_implIXT_EJS2_DpT1_EE(%"struct.std::_Tuple_impl"* nonnull align 8 dereferenceable(8) %0) #3 comdat {
  %2 = alloca %"struct.std::_Tuple_impl"*, align 8, !llfi_index !1586
  store %"struct.std::_Tuple_impl"* %0, %"struct.std::_Tuple_impl"** %2, align 8, !llfi_index !1587
  %3 = load %"struct.std::_Tuple_impl"*, %"struct.std::_Tuple_impl"** %2, align 8, !llfi_index !1588
  %4 = call nonnull align 8 dereferenceable(8) i64* @_ZNSt11_Tuple_implILm0EJRKxEE7_M_headERS2_(%"struct.std::_Tuple_impl"* nonnull align 8 dereferenceable(8) %3) #2, !llfi_index !1589
  ret i64* %4, !llfi_index !1590
}

; Function Attrs: mustprogress noinline nounwind uwtable
define linkonce_odr dso_local nonnull align 8 dereferenceable(8) i64* @_ZNSt11_Tuple_implILm0EJRKxEE7_M_headERS2_(%"struct.std::_Tuple_impl"* nonnull align 8 dereferenceable(8) %0) #3 comdat align 2 {
  %2 = alloca %"struct.std::_Tuple_impl"*, align 8, !llfi_index !1591
  store %"struct.std::_Tuple_impl"* %0, %"struct.std::_Tuple_impl"** %2, align 8, !llfi_index !1592
  %3 = load %"struct.std::_Tuple_impl"*, %"struct.std::_Tuple_impl"** %2, align 8, !llfi_index !1593
  %4 = bitcast %"struct.std::_Tuple_impl"* %3 to %"struct.std::_Head_base"*, !llfi_index !1594
  %5 = call nonnull align 8 dereferenceable(8) i64* @_ZNSt10_Head_baseILm0ERKxLb0EE7_M_headERS2_(%"struct.std::_Head_base"* nonnull align 8 dereferenceable(8) %4) #2, !llfi_index !1595
  ret i64* %5, !llfi_index !1596
}

; Function Attrs: mustprogress noinline nounwind uwtable
define linkonce_odr dso_local nonnull align 8 dereferenceable(8) i64* @_ZNSt10_Head_baseILm0ERKxLb0EE7_M_headERS2_(%"struct.std::_Head_base"* nonnull align 8 dereferenceable(8) %0) #3 comdat align 2 {
  %2 = alloca %"struct.std::_Head_base"*, align 8, !llfi_index !1597
  store %"struct.std::_Head_base"* %0, %"struct.std::_Head_base"** %2, align 8, !llfi_index !1598
  %3 = load %"struct.std::_Head_base"*, %"struct.std::_Head_base"** %2, align 8, !llfi_index !1599
  %4 = getelementptr inbounds %"struct.std::_Head_base", %"struct.std::_Head_base"* %3, i32 0, i32 0, !llfi_index !1600
  %5 = load i64*, i64** %4, align 8, !llfi_index !1601
  ret i64* %5, !llfi_index !1602
}

; Function Attrs: noinline nounwind uwtable
define linkonce_odr dso_local void @_ZNSt11_Tuple_implILm0EJRKxEEC2EOS2_(%"struct.std::_Tuple_impl"* nonnull align 8 dereferenceable(8) %0, %"struct.std::_Tuple_impl"* nonnull align 8 dereferenceable(8) %1) unnamed_addr #1 comdat align 2 personality i8* bitcast (i32 (...)* @__gxx_personality_v0 to i8*) {
  %3 = alloca %"struct.std::_Tuple_impl"*, align 8, !llfi_index !1603
  %4 = alloca %"struct.std::_Tuple_impl"*, align 8, !llfi_index !1604
  store %"struct.std::_Tuple_impl"* %0, %"struct.std::_Tuple_impl"** %3, align 8, !llfi_index !1605
  store %"struct.std::_Tuple_impl"* %1, %"struct.std::_Tuple_impl"** %4, align 8, !llfi_index !1606
  %5 = load %"struct.std::_Tuple_impl"*, %"struct.std::_Tuple_impl"** %3, align 8, !llfi_index !1607
  %6 = bitcast %"struct.std::_Tuple_impl"* %5 to %"struct.std::_Head_base"*, !llfi_index !1608
  %7 = load %"struct.std::_Tuple_impl"*, %"struct.std::_Tuple_impl"** %4, align 8, !llfi_index !1609
  %8 = call nonnull align 8 dereferenceable(8) i64* @_ZNSt11_Tuple_implILm0EJRKxEE7_M_headERS2_(%"struct.std::_Tuple_impl"* nonnull align 8 dereferenceable(8) %7) #2, !llfi_index !1610
  %9 = call nonnull align 8 dereferenceable(8) i64* @_ZSt7forwardIRKxEOT_RNSt16remove_referenceIS2_E4typeE(i64* nonnull align 8 dereferenceable(8) %8) #2, !llfi_index !1611
  invoke void @_ZNSt10_Head_baseILm0ERKxLb0EEC2ES1_(%"struct.std::_Head_base"* nonnull align 8 dereferenceable(8) %6, i64* nonnull align 8 dereferenceable(8) %9)
          to label %10 unwind label %11, !llfi_index !1612

10:                                               ; preds = %2
  ret void, !llfi_index !1613

11:                                               ; preds = %2
  %12 = landingpad { i8*, i32 }
          catch i8* null, !llfi_index !1614
  %13 = extractvalue { i8*, i32 } %12, 0, !llfi_index !1615
  call void @__clang_call_terminate(i8* %13) #16, !llfi_index !1616
  unreachable, !llfi_index !1617
}

; Function Attrs: noinline nounwind uwtable
define linkonce_odr dso_local void @_ZNSt10_Head_baseILm0ERKxLb0EEC2ES1_(%"struct.std::_Head_base"* nonnull align 8 dereferenceable(8) %0, i64* nonnull align 8 dereferenceable(8) %1) unnamed_addr #1 comdat align 2 {
  %3 = alloca %"struct.std::_Head_base"*, align 8, !llfi_index !1618
  %4 = alloca i64*, align 8, !llfi_index !1619
  store %"struct.std::_Head_base"* %0, %"struct.std::_Head_base"** %3, align 8, !llfi_index !1620
  store i64* %1, i64** %4, align 8, !llfi_index !1621
  %5 = load %"struct.std::_Head_base"*, %"struct.std::_Head_base"** %3, align 8, !llfi_index !1622
  %6 = getelementptr inbounds %"struct.std::_Head_base", %"struct.std::_Head_base"* %5, i32 0, i32 0, !llfi_index !1623
  %7 = load i64*, i64** %4, align 8, !llfi_index !1624
  store i64* %7, i64** %6, align 8, !llfi_index !1625
  ret void, !llfi_index !1626
}

; Function Attrs: mustprogress noinline uwtable
define linkonce_odr dso_local %"struct.std::_Rb_tree_node"* @_ZNSt16allocator_traitsISaISt13_Rb_tree_nodeISt4pairIKxiEEEE8allocateERS5_m(%"struct.std::less"* nonnull align 1 dereferenceable(1) %0, i64 %1) #4 comdat align 2 {
  %3 = alloca %"struct.std::less"*, align 8, !llfi_index !1627
  %4 = alloca i64, align 8, !llfi_index !1628
  store %"struct.std::less"* %0, %"struct.std::less"** %3, align 8, !llfi_index !1629
  store i64 %1, i64* %4, align 8, !llfi_index !1630
  %5 = load %"struct.std::less"*, %"struct.std::less"** %3, align 8, !llfi_index !1631
  %6 = bitcast %"struct.std::less"* %5 to %"struct.std::less"*, !llfi_index !1632
  %7 = load i64, i64* %4, align 8, !llfi_index !1633
  %8 = call %"struct.std::_Rb_tree_node"* @_ZN9__gnu_cxx13new_allocatorISt13_Rb_tree_nodeISt4pairIKxiEEE8allocateEmPKv(%"struct.std::less"* nonnull align 1 dereferenceable(1) %6, i64 %7, i8* null), !llfi_index !1634
  ret %"struct.std::_Rb_tree_node"* %8, !llfi_index !1635
}

; Function Attrs: mustprogress noinline uwtable
define linkonce_odr dso_local %"struct.std::_Rb_tree_node"* @_ZN9__gnu_cxx13new_allocatorISt13_Rb_tree_nodeISt4pairIKxiEEE8allocateEmPKv(%"struct.std::less"* nonnull align 1 dereferenceable(1) %0, i64 %1, i8* %2) #4 comdat align 2 {
  %4 = alloca %"struct.std::less"*, align 8, !llfi_index !1636
  %5 = alloca i64, align 8, !llfi_index !1637
  %6 = alloca i8*, align 8, !llfi_index !1638
  store %"struct.std::less"* %0, %"struct.std::less"** %4, align 8, !llfi_index !1639
  store i64 %1, i64* %5, align 8, !llfi_index !1640
  store i8* %2, i8** %6, align 8, !llfi_index !1641
  %7 = load %"struct.std::less"*, %"struct.std::less"** %4, align 8, !llfi_index !1642
  %8 = load i64, i64* %5, align 8, !llfi_index !1643
  %9 = call i64 @_ZNK9__gnu_cxx13new_allocatorISt13_Rb_tree_nodeISt4pairIKxiEEE8max_sizeEv(%"struct.std::less"* nonnull align 1 dereferenceable(1) %7) #2, !llfi_index !1644
  %10 = icmp ugt i64 %8, %9, !llfi_index !1645
  br i1 %10, label %11, label %12, !llfi_index !1646

11:                                               ; preds = %3
  call void @_ZSt17__throw_bad_allocv() #17, !llfi_index !1647
  unreachable, !llfi_index !1648

12:                                               ; preds = %3
  %13 = load i64, i64* %5, align 8, !llfi_index !1649
  %14 = mul i64 %13, 48, !llfi_index !1650
  %15 = call noalias nonnull i8* @_Znwm(i64 %14) #19, !llfi_index !1651
  %16 = bitcast i8* %15 to %"struct.std::_Rb_tree_node"*, !llfi_index !1652
  ret %"struct.std::_Rb_tree_node"* %16, !llfi_index !1653
}

; Function Attrs: mustprogress noinline nounwind uwtable
define linkonce_odr dso_local i64 @_ZNK9__gnu_cxx13new_allocatorISt13_Rb_tree_nodeISt4pairIKxiEEE8max_sizeEv(%"struct.std::less"* nonnull align 1 dereferenceable(1) %0) #3 comdat align 2 {
  %2 = alloca %"struct.std::less"*, align 8, !llfi_index !1654
  store %"struct.std::less"* %0, %"struct.std::less"** %2, align 8, !llfi_index !1655
  %3 = load %"struct.std::less"*, %"struct.std::less"** %2, align 8, !llfi_index !1656
  ret i64 192153584101141162, !llfi_index !1657
}

; Function Attrs: noreturn
declare dso_local void @_ZSt17__throw_bad_allocv() #13

; Function Attrs: nobuiltin allocsize(0)
declare dso_local nonnull i8* @_Znwm(i64) #14

; Function Attrs: noinline nounwind uwtable
define linkonce_odr dso_local void @_ZNSt11_Tuple_implILm0EJRKxEEC2ES1_(%"struct.std::_Tuple_impl"* nonnull align 8 dereferenceable(8) %0, i64* nonnull align 8 dereferenceable(8) %1) unnamed_addr #1 comdat align 2 {
  %3 = alloca %"struct.std::_Tuple_impl"*, align 8, !llfi_index !1658
  %4 = alloca i64*, align 8, !llfi_index !1659
  store %"struct.std::_Tuple_impl"* %0, %"struct.std::_Tuple_impl"** %3, align 8, !llfi_index !1660
  store i64* %1, i64** %4, align 8, !llfi_index !1661
  %5 = load %"struct.std::_Tuple_impl"*, %"struct.std::_Tuple_impl"** %3, align 8, !llfi_index !1662
  %6 = bitcast %"struct.std::_Tuple_impl"* %5 to %"struct.std::_Head_base"*, !llfi_index !1663
  %7 = load i64*, i64** %4, align 8, !llfi_index !1664
  call void @_ZNSt10_Head_baseILm0ERKxLb0EEC2ES1_(%"struct.std::_Head_base"* nonnull align 8 dereferenceable(8) %6, i64* nonnull align 8 dereferenceable(8) %7), !llfi_index !1665
  ret void, !llfi_index !1666
}

; Function Attrs: mustprogress noinline nounwind uwtable
define linkonce_odr dso_local void @_ZNKSt8_Rb_treeIxSt4pairIKxiESt10_Select1stIS2_ESt4lessIxESaIS2_EE8key_compEv(%"class.std::_Rb_tree"* nonnull align 8 dereferenceable(48) %0) #3 comdat align 2 {
  %2 = alloca %"class.std::_Rb_tree"*, align 8, !llfi_index !1667
  store %"class.std::_Rb_tree"* %0, %"class.std::_Rb_tree"** %2, align 8, !llfi_index !1668
  %3 = load %"class.std::_Rb_tree"*, %"class.std::_Rb_tree"** %2, align 8, !llfi_index !1669
  %4 = getelementptr inbounds %"class.std::_Rb_tree", %"class.std::_Rb_tree"* %3, i32 0, i32 0, !llfi_index !1670
  %5 = bitcast %"struct.std::_Rb_tree<long long, std::pair<const long long, int>, std::_Select1st<std::pair<const long long, int>>, std::less<long long>>::_Rb_tree_impl"* %4 to %"struct.std::_Rb_tree_key_compare"*, !llfi_index !1671
  %6 = getelementptr inbounds %"struct.std::_Rb_tree_key_compare", %"struct.std::_Rb_tree_key_compare"* %5, i32 0, i32 0, !llfi_index !1672
  ret void, !llfi_index !1673
}

; Function Attrs: mustprogress noinline nounwind uwtable
define linkonce_odr dso_local %"struct.std::_Rb_tree_node_base"* @_ZNSt8_Rb_treeIxSt4pairIKxiESt10_Select1stIS2_ESt4lessIxESaIS2_EE3endEv(%"class.std::_Rb_tree"* nonnull align 8 dereferenceable(48) %0) #3 comdat align 2 {
  %2 = alloca %"struct.std::_Rb_tree_iterator", align 8, !llfi_index !1674
  %3 = alloca %"class.std::_Rb_tree"*, align 8, !llfi_index !1675
  store %"class.std::_Rb_tree"* %0, %"class.std::_Rb_tree"** %3, align 8, !llfi_index !1676
  %4 = load %"class.std::_Rb_tree"*, %"class.std::_Rb_tree"** %3, align 8, !llfi_index !1677
  %5 = getelementptr inbounds %"class.std::_Rb_tree", %"class.std::_Rb_tree"* %4, i32 0, i32 0, !llfi_index !1678
  %6 = bitcast %"struct.std::_Rb_tree<long long, std::pair<const long long, int>, std::_Select1st<std::pair<const long long, int>>, std::less<long long>>::_Rb_tree_impl"* %5 to i8*, !llfi_index !1679
  %7 = getelementptr inbounds i8, i8* %6, i64 8, !llfi_index !1680
  %8 = bitcast i8* %7 to %"struct.std::_Rb_tree_header"*, !llfi_index !1681
  %9 = getelementptr inbounds %"struct.std::_Rb_tree_header", %"struct.std::_Rb_tree_header"* %8, i32 0, i32 0, !llfi_index !1682
  call void @_ZNSt17_Rb_tree_iteratorISt4pairIKxiEEC2EPSt18_Rb_tree_node_base(%"struct.std::_Rb_tree_iterator"* nonnull align 8 dereferenceable(8) %2, %"struct.std::_Rb_tree_node_base"* %9) #2, !llfi_index !1683
  %10 = getelementptr inbounds %"struct.std::_Rb_tree_iterator", %"struct.std::_Rb_tree_iterator"* %2, i32 0, i32 0, !llfi_index !1684
  %11 = load %"struct.std::_Rb_tree_node_base"*, %"struct.std::_Rb_tree_node_base"** %10, align 8, !llfi_index !1685
  ret %"struct.std::_Rb_tree_node_base"* %11, !llfi_index !1686
}

; Function Attrs: mustprogress noinline uwtable
define linkonce_odr dso_local %"struct.std::_Rb_tree_node_base"* @_ZNSt8_Rb_treeIxSt4pairIKxiESt10_Select1stIS2_ESt4lessIxESaIS2_EE11lower_boundERS1_(%"class.std::_Rb_tree"* nonnull align 8 dereferenceable(48) %0, i64* nonnull align 8 dereferenceable(8) %1) #4 comdat align 2 {
  %3 = alloca %"struct.std::_Rb_tree_iterator", align 8, !llfi_index !1687
  %4 = alloca %"class.std::_Rb_tree"*, align 8, !llfi_index !1688
  %5 = alloca i64*, align 8, !llfi_index !1689
  store %"class.std::_Rb_tree"* %0, %"class.std::_Rb_tree"** %4, align 8, !llfi_index !1690
  store i64* %1, i64** %5, align 8, !llfi_index !1691
  %6 = load %"class.std::_Rb_tree"*, %"class.std::_Rb_tree"** %4, align 8, !llfi_index !1692
  %7 = call %"struct.std::_Rb_tree_node"* @_ZNSt8_Rb_treeIxSt4pairIKxiESt10_Select1stIS2_ESt4lessIxESaIS2_EE8_M_beginEv(%"class.std::_Rb_tree"* nonnull align 8 dereferenceable(48) %6) #2, !llfi_index !1693
  %8 = call %"struct.std::_Rb_tree_node_base"* @_ZNSt8_Rb_treeIxSt4pairIKxiESt10_Select1stIS2_ESt4lessIxESaIS2_EE6_M_endEv(%"class.std::_Rb_tree"* nonnull align 8 dereferenceable(48) %6) #2, !llfi_index !1694
  %9 = load i64*, i64** %5, align 8, !llfi_index !1695
  %10 = call %"struct.std::_Rb_tree_node_base"* @_ZNSt8_Rb_treeIxSt4pairIKxiESt10_Select1stIS2_ESt4lessIxESaIS2_EE14_M_lower_boundEPSt13_Rb_tree_nodeIS2_EPSt18_Rb_tree_node_baseRS1_(%"class.std::_Rb_tree"* nonnull align 8 dereferenceable(48) %6, %"struct.std::_Rb_tree_node"* %7, %"struct.std::_Rb_tree_node_base"* %8, i64* nonnull align 8 dereferenceable(8) %9), !llfi_index !1696
  %11 = getelementptr inbounds %"struct.std::_Rb_tree_iterator", %"struct.std::_Rb_tree_iterator"* %3, i32 0, i32 0, !llfi_index !1697
  store %"struct.std::_Rb_tree_node_base"* %10, %"struct.std::_Rb_tree_node_base"** %11, align 8, !llfi_index !1698
  %12 = getelementptr inbounds %"struct.std::_Rb_tree_iterator", %"struct.std::_Rb_tree_iterator"* %3, i32 0, i32 0, !llfi_index !1699
  %13 = load %"struct.std::_Rb_tree_node_base"*, %"struct.std::_Rb_tree_node_base"** %12, align 8, !llfi_index !1700
  ret %"struct.std::_Rb_tree_node_base"* %13, !llfi_index !1701
}

; Function Attrs: mustprogress noinline uwtable
define linkonce_odr dso_local %"struct.std::_Rb_tree_node_base"* @_ZNSt8_Rb_treeIxSt4pairIKxiESt10_Select1stIS2_ESt4lessIxESaIS2_EE14_M_lower_boundEPSt13_Rb_tree_nodeIS2_EPSt18_Rb_tree_node_baseRS1_(%"class.std::_Rb_tree"* nonnull align 8 dereferenceable(48) %0, %"struct.std::_Rb_tree_node"* %1, %"struct.std::_Rb_tree_node_base"* %2, i64* nonnull align 8 dereferenceable(8) %3) #4 comdat align 2 {
  %5 = alloca %"struct.std::_Rb_tree_iterator", align 8, !llfi_index !1702
  %6 = alloca %"class.std::_Rb_tree"*, align 8, !llfi_index !1703
  %7 = alloca %"struct.std::_Rb_tree_node"*, align 8, !llfi_index !1704
  %8 = alloca %"struct.std::_Rb_tree_node_base"*, align 8, !llfi_index !1705
  %9 = alloca i64*, align 8, !llfi_index !1706
  store %"class.std::_Rb_tree"* %0, %"class.std::_Rb_tree"** %6, align 8, !llfi_index !1707
  store %"struct.std::_Rb_tree_node"* %1, %"struct.std::_Rb_tree_node"** %7, align 8, !llfi_index !1708
  store %"struct.std::_Rb_tree_node_base"* %2, %"struct.std::_Rb_tree_node_base"** %8, align 8, !llfi_index !1709
  store i64* %3, i64** %9, align 8, !llfi_index !1710
  %10 = load %"class.std::_Rb_tree"*, %"class.std::_Rb_tree"** %6, align 8, !llfi_index !1711
  br label %11, !llfi_index !1712

11:                                               ; preds = %32, %4
  %12 = load %"struct.std::_Rb_tree_node"*, %"struct.std::_Rb_tree_node"** %7, align 8, !llfi_index !1713
  %13 = icmp ne %"struct.std::_Rb_tree_node"* %12, null, !llfi_index !1714
  br i1 %13, label %14, label %33, !llfi_index !1715

14:                                               ; preds = %11
  %15 = getelementptr inbounds %"class.std::_Rb_tree", %"class.std::_Rb_tree"* %10, i32 0, i32 0, !llfi_index !1716
  %16 = bitcast %"struct.std::_Rb_tree<long long, std::pair<const long long, int>, std::_Select1st<std::pair<const long long, int>>, std::less<long long>>::_Rb_tree_impl"* %15 to %"struct.std::_Rb_tree_key_compare"*, !llfi_index !1717
  %17 = getelementptr inbounds %"struct.std::_Rb_tree_key_compare", %"struct.std::_Rb_tree_key_compare"* %16, i32 0, i32 0, !llfi_index !1718
  %18 = load %"struct.std::_Rb_tree_node"*, %"struct.std::_Rb_tree_node"** %7, align 8, !llfi_index !1719
  %19 = call nonnull align 8 dereferenceable(8) i64* @_ZNSt8_Rb_treeIxSt4pairIKxiESt10_Select1stIS2_ESt4lessIxESaIS2_EE6_S_keyEPKSt13_Rb_tree_nodeIS2_E(%"struct.std::_Rb_tree_node"* %18), !llfi_index !1720
  %20 = load i64*, i64** %9, align 8, !llfi_index !1721
  %21 = call zeroext i1 @_ZNKSt4lessIxEclERKxS2_(%"struct.std::less"* nonnull align 1 dereferenceable(1) %17, i64* nonnull align 8 dereferenceable(8) %19, i64* nonnull align 8 dereferenceable(8) %20), !llfi_index !1722
  br i1 %21, label %28, label %22, !llfi_index !1723

22:                                               ; preds = %14
  %23 = load %"struct.std::_Rb_tree_node"*, %"struct.std::_Rb_tree_node"** %7, align 8, !llfi_index !1724
  %24 = bitcast %"struct.std::_Rb_tree_node"* %23 to %"struct.std::_Rb_tree_node_base"*, !llfi_index !1725
  store %"struct.std::_Rb_tree_node_base"* %24, %"struct.std::_Rb_tree_node_base"** %8, align 8, !llfi_index !1726
  %25 = load %"struct.std::_Rb_tree_node"*, %"struct.std::_Rb_tree_node"** %7, align 8, !llfi_index !1727
  %26 = bitcast %"struct.std::_Rb_tree_node"* %25 to %"struct.std::_Rb_tree_node_base"*, !llfi_index !1728
  %27 = call %"struct.std::_Rb_tree_node"* @_ZNSt8_Rb_treeIxSt4pairIKxiESt10_Select1stIS2_ESt4lessIxESaIS2_EE7_S_leftEPSt18_Rb_tree_node_base(%"struct.std::_Rb_tree_node_base"* %26) #2, !llfi_index !1729
  store %"struct.std::_Rb_tree_node"* %27, %"struct.std::_Rb_tree_node"** %7, align 8, !llfi_index !1730
  br label %32, !llfi_index !1731

28:                                               ; preds = %14
  %29 = load %"struct.std::_Rb_tree_node"*, %"struct.std::_Rb_tree_node"** %7, align 8, !llfi_index !1732
  %30 = bitcast %"struct.std::_Rb_tree_node"* %29 to %"struct.std::_Rb_tree_node_base"*, !llfi_index !1733
  %31 = call %"struct.std::_Rb_tree_node"* @_ZNSt8_Rb_treeIxSt4pairIKxiESt10_Select1stIS2_ESt4lessIxESaIS2_EE8_S_rightEPSt18_Rb_tree_node_base(%"struct.std::_Rb_tree_node_base"* %30) #2, !llfi_index !1734
  store %"struct.std::_Rb_tree_node"* %31, %"struct.std::_Rb_tree_node"** %7, align 8, !llfi_index !1735
  br label %32, !llfi_index !1736

32:                                               ; preds = %28, %22
  br label %11, !llvm.loop !1737, !llfi_index !1738

33:                                               ; preds = %11
  %34 = load %"struct.std::_Rb_tree_node_base"*, %"struct.std::_Rb_tree_node_base"** %8, align 8, !llfi_index !1739
  call void @_ZNSt17_Rb_tree_iteratorISt4pairIKxiEEC2EPSt18_Rb_tree_node_base(%"struct.std::_Rb_tree_iterator"* nonnull align 8 dereferenceable(8) %5, %"struct.std::_Rb_tree_node_base"* %34) #2, !llfi_index !1740
  %35 = getelementptr inbounds %"struct.std::_Rb_tree_iterator", %"struct.std::_Rb_tree_iterator"* %5, i32 0, i32 0, !llfi_index !1741
  %36 = load %"struct.std::_Rb_tree_node_base"*, %"struct.std::_Rb_tree_node_base"** %35, align 8, !llfi_index !1742
  ret %"struct.std::_Rb_tree_node_base"* %36, !llfi_index !1743
}

; Function Attrs: mustprogress noinline nounwind uwtable
define linkonce_odr dso_local void @_ZNSt8_Rb_treeIxSt4pairIKxiESt10_Select1stIS2_ESt4lessIxESaIS2_EE5clearEv(%"class.std::_Rb_tree"* nonnull align 8 dereferenceable(48) %0) #3 comdat align 2 personality i8* bitcast (i32 (...)* @__gxx_personality_v0 to i8*) {
  %2 = alloca %"class.std::_Rb_tree"*, align 8, !llfi_index !1744
  store %"class.std::_Rb_tree"* %0, %"class.std::_Rb_tree"** %2, align 8, !llfi_index !1745
  %3 = load %"class.std::_Rb_tree"*, %"class.std::_Rb_tree"** %2, align 8, !llfi_index !1746
  %4 = call %"struct.std::_Rb_tree_node"* @_ZNSt8_Rb_treeIxSt4pairIKxiESt10_Select1stIS2_ESt4lessIxESaIS2_EE8_M_beginEv(%"class.std::_Rb_tree"* nonnull align 8 dereferenceable(48) %3) #2, !llfi_index !1747
  invoke void @_ZNSt8_Rb_treeIxSt4pairIKxiESt10_Select1stIS2_ESt4lessIxESaIS2_EE8_M_eraseEPSt13_Rb_tree_nodeIS2_E(%"class.std::_Rb_tree"* nonnull align 8 dereferenceable(48) %3, %"struct.std::_Rb_tree_node"* %4)
          to label %5 unwind label %10, !llfi_index !1748

5:                                                ; preds = %1
  %6 = getelementptr inbounds %"class.std::_Rb_tree", %"class.std::_Rb_tree"* %3, i32 0, i32 0, !llfi_index !1749
  %7 = bitcast %"struct.std::_Rb_tree<long long, std::pair<const long long, int>, std::_Select1st<std::pair<const long long, int>>, std::less<long long>>::_Rb_tree_impl"* %6 to i8*, !llfi_index !1750
  %8 = getelementptr inbounds i8, i8* %7, i64 8, !llfi_index !1751
  %9 = bitcast i8* %8 to %"struct.std::_Rb_tree_header"*, !llfi_index !1752
  call void @_ZNSt15_Rb_tree_header8_M_resetEv(%"struct.std::_Rb_tree_header"* nonnull align 8 dereferenceable(40) %9), !llfi_index !1753
  ret void, !llfi_index !1754

10:                                               ; preds = %1
  %11 = landingpad { i8*, i32 }
          catch i8* null, !llfi_index !1755
  %12 = extractvalue { i8*, i32 } %11, 0, !llfi_index !1756
  call void @__clang_call_terminate(i8* %12) #16, !llfi_index !1757
  unreachable, !llfi_index !1758
}

; Function Attrs: mustprogress noinline norecurse uwtable
define dso_local i32 @main() #15 {
  %1 = alloca i32, align 4, !llfi_index !1759
  %2 = alloca i32, align 4, !llfi_index !1760
  %3 = alloca i32, align 4, !llfi_index !1761
  %4 = alloca i32, align 4, !llfi_index !1762
  %5 = alloca i32, align 4, !llfi_index !1763
  %6 = alloca i32, align 4, !llfi_index !1764
  %7 = alloca i32, align 4, !llfi_index !1765
  %8 = alloca i32, align 4, !llfi_index !1766
  store i32 0, i32* %1, align 4, !llfi_index !1767
  %9 = load %struct._IO_FILE*, %struct._IO_FILE** @stdin, align 8, !llfi_index !1768
  %10 = call %struct._IO_FILE* @freopen(i8* getelementptr inbounds ([30 x i8], [30 x i8]* @.str, i64 0, i64 0), i8* getelementptr inbounds ([2 x i8], [2 x i8]* @.str.2, i64 0, i64 0), %struct._IO_FILE* %9), !llfi_index !1769
  %11 = call i32 (i8*, ...) @__isoc99_scanf(i8* getelementptr inbounds ([3 x i8], [3 x i8]* @.str.3, i64 0, i64 0), i32* @k), !llfi_index !1770
  store i32 89, i32* %2, align 4, !llfi_index !1771
  store i32 1, i32* %3, align 4, !llfi_index !1772
  br label %12, !llfi_index !1773

12:                                               ; preds = %37, %0
  %13 = load i32, i32* %3, align 4, !llfi_index !1774
  %14 = load i32, i32* @k, align 4, !llfi_index !1775
  %15 = icmp sle i32 %13, %14, !llfi_index !1776
  br i1 %15, label %16, label %40, !llfi_index !1777

16:                                               ; preds = %12
  store i32 89, i32* %2, align 4, !llfi_index !1778
  %17 = call i32 @getchar(), !llfi_index !1779
  %18 = trunc i32 %17 to i8, !llfi_index !1780
  %19 = load i32, i32* %3, align 4, !llfi_index !1781
  %20 = sext i32 %19 to i64, !llfi_index !1782
  %21 = getelementptr inbounds [100 x i8], [100 x i8]* @ch, i64 0, i64 %20, !llfi_index !1783
  store i8 %18, i8* %21, align 1, !llfi_index !1784
  br label %22, !llfi_index !1785

22:                                               ; preds = %30, %16
  %23 = load i32, i32* %3, align 4, !llfi_index !1786
  %24 = sext i32 %23 to i64, !llfi_index !1787
  %25 = getelementptr inbounds [100 x i8], [100 x i8]* @ch, i64 0, i64 %24, !llfi_index !1788
  %26 = load i8, i8* %25, align 1, !llfi_index !1789
  %27 = sext i8 %26 to i32, !llfi_index !1790
  %28 = icmp sle i32 %27, 32, !llfi_index !1791
  br i1 %28, label %29, label %36, !llfi_index !1792

29:                                               ; preds = %22
  br label %30, !llfi_index !1793

30:                                               ; preds = %29
  %31 = call i32 @getchar(), !llfi_index !1794
  %32 = trunc i32 %31 to i8, !llfi_index !1795
  %33 = load i32, i32* %3, align 4, !llfi_index !1796
  %34 = sext i32 %33 to i64, !llfi_index !1797
  %35 = getelementptr inbounds [100 x i8], [100 x i8]* @ch, i64 0, i64 %34, !llfi_index !1798
  store i8 %32, i8* %35, align 1, !llfi_index !1799
  br label %22, !llvm.loop !1800, !llfi_index !1801

36:                                               ; preds = %22
  br label %37, !llfi_index !1802

37:                                               ; preds = %36
  %38 = load i32, i32* %3, align 4, !llfi_index !1803
  %39 = add nsw i32 %38, 1, !llfi_index !1804
  store i32 %39, i32* %3, align 4, !llfi_index !1805
  br label %12, !llvm.loop !1806, !llfi_index !1807

40:                                               ; preds = %12
  store i32 89, i32* %2, align 4, !llfi_index !1808
  store i32 0, i32* %4, align 4, !llfi_index !1809
  br label %41, !llfi_index !1810

41:                                               ; preds = %82, %40
  %42 = load i32, i32* %4, align 4, !llfi_index !1811
  %43 = icmp slt i32 %42, 8, !llfi_index !1812
  br i1 %43, label %44, label %85, !llfi_index !1813

44:                                               ; preds = %41
  store i32 89, i32* %2, align 4, !llfi_index !1814
  store i32 0, i32* %5, align 4, !llfi_index !1815
  br label %45, !llfi_index !1816

45:                                               ; preds = %78, %44
  %46 = load i32, i32* %5, align 4, !llfi_index !1817
  %47 = icmp slt i32 %46, 8, !llfi_index !1818
  br i1 %47, label %48, label %81, !llfi_index !1819

48:                                               ; preds = %45
  %49 = call i32 @getchar(), !llfi_index !1820
  %50 = trunc i32 %49 to i8, !llfi_index !1821
  %51 = load i32, i32* %4, align 4, !llfi_index !1822
  %52 = sext i32 %51 to i64, !llfi_index !1823
  %53 = getelementptr inbounds [8 x [8 x i8]], [8 x [8 x i8]]* @b, i64 0, i64 %52, !llfi_index !1824
  %54 = load i32, i32* %5, align 4, !llfi_index !1825
  %55 = sext i32 %54 to i64, !llfi_index !1826
  %56 = getelementptr inbounds [8 x i8], [8 x i8]* %53, i64 0, i64 %55, !llfi_index !1827
  store i8 %50, i8* %56, align 1, !llfi_index !1828
  br label %57, !llfi_index !1829

57:                                               ; preds = %68, %48
  %58 = load i32, i32* %4, align 4, !llfi_index !1830
  %59 = sext i32 %58 to i64, !llfi_index !1831
  %60 = getelementptr inbounds [8 x [8 x i8]], [8 x [8 x i8]]* @b, i64 0, i64 %59, !llfi_index !1832
  %61 = load i32, i32* %5, align 4, !llfi_index !1833
  %62 = sext i32 %61 to i64, !llfi_index !1834
  %63 = getelementptr inbounds [8 x i8], [8 x i8]* %60, i64 0, i64 %62, !llfi_index !1835
  %64 = load i8, i8* %63, align 1, !llfi_index !1836
  %65 = sext i8 %64 to i32, !llfi_index !1837
  %66 = icmp sle i32 %65, 32, !llfi_index !1838
  br i1 %66, label %67, label %77, !llfi_index !1839

67:                                               ; preds = %57
  br label %68, !llfi_index !1840

68:                                               ; preds = %67
  %69 = call i32 @getchar(), !llfi_index !1841
  %70 = trunc i32 %69 to i8, !llfi_index !1842
  %71 = load i32, i32* %4, align 4, !llfi_index !1843
  %72 = sext i32 %71 to i64, !llfi_index !1844
  %73 = getelementptr inbounds [8 x [8 x i8]], [8 x [8 x i8]]* @b, i64 0, i64 %72, !llfi_index !1845
  %74 = load i32, i32* %5, align 4, !llfi_index !1846
  %75 = sext i32 %74 to i64, !llfi_index !1847
  %76 = getelementptr inbounds [8 x i8], [8 x i8]* %73, i64 0, i64 %75, !llfi_index !1848
  store i8 %70, i8* %76, align 1, !llfi_index !1849
  br label %57, !llvm.loop !1850, !llfi_index !1851

77:                                               ; preds = %57
  br label %78, !llfi_index !1852

78:                                               ; preds = %77
  %79 = load i32, i32* %5, align 4, !llfi_index !1853
  %80 = add nsw i32 %79, 1, !llfi_index !1854
  store i32 %80, i32* %5, align 4, !llfi_index !1855
  br label %45, !llvm.loop !1856, !llfi_index !1857

81:                                               ; preds = %45
  br label %82, !llfi_index !1858

82:                                               ; preds = %81
  %83 = load i32, i32* %4, align 4, !llfi_index !1859
  %84 = add nsw i32 %83, 1, !llfi_index !1860
  store i32 %84, i32* %4, align 4, !llfi_index !1861
  br label %41, !llvm.loop !1862, !llfi_index !1863

85:                                               ; preds = %41
  %86 = load i32, i32* @k, align 4, !llfi_index !1864
  %87 = add nsw i32 %86, 1, !llfi_index !1865
  %88 = sdiv i32 %87, 2, !llfi_index !1866
  store i32 %88, i32* %6, align 4, !llfi_index !1867
  store i32 89, i32* %2, align 4, !llfi_index !1868
  store i32 0, i32* %7, align 4, !llfi_index !1869
  br label %89, !llfi_index !1870

89:                                               ; preds = %120, %85
  %90 = load i32, i32* %7, align 4, !llfi_index !1871
  %91 = icmp slt i32 %90, 8, !llfi_index !1872
  br i1 %91, label %92, label %123, !llfi_index !1873

92:                                               ; preds = %89
  store i32 89, i32* %2, align 4, !llfi_index !1874
  store i32 0, i32* %8, align 4, !llfi_index !1875
  br label %93, !llfi_index !1876

93:                                               ; preds = %116, %92
  %94 = load i32, i32* %8, align 4, !llfi_index !1877
  %95 = icmp slt i32 %94, 8, !llfi_index !1878
  br i1 %95, label %96, label %119, !llfi_index !1879

96:                                               ; preds = %93
  %97 = load i32, i32* %7, align 4, !llfi_index !1880
  %98 = sext i32 %97 to i64, !llfi_index !1881
  %99 = getelementptr inbounds [8 x [8 x i8]], [8 x [8 x i8]]* @b, i64 0, i64 %98, !llfi_index !1882
  %100 = load i32, i32* %8, align 4, !llfi_index !1883
  %101 = sext i32 %100 to i64, !llfi_index !1884
  %102 = getelementptr inbounds [8 x i8], [8 x i8]* %99, i64 0, i64 %101, !llfi_index !1885
  %103 = load i8, i8* %102, align 1, !llfi_index !1886
  %104 = sext i8 %103 to i32, !llfi_index !1887
  %105 = load i32, i32* %6, align 4, !llfi_index !1888
  %106 = sext i32 %105 to i64, !llfi_index !1889
  %107 = getelementptr inbounds [100 x i8], [100 x i8]* @ch, i64 0, i64 %106, !llfi_index !1890
  %108 = load i8, i8* %107, align 1, !llfi_index !1891
  %109 = sext i8 %108 to i32, !llfi_index !1892
  %110 = icmp eq i32 %104, %109, !llfi_index !1893
  br i1 %110, label %111, label %115, !llfi_index !1894

111:                                              ; preds = %96
  %112 = load i32, i32* %7, align 4, !llfi_index !1895
  %113 = load i32, i32* %8, align 4, !llfi_index !1896
  %114 = load i32, i32* %6, align 4, !llfi_index !1897
  call void @_Z4calciii(i32 %112, i32 %113, i32 %114), !llfi_index !1898
  br label %115, !llfi_index !1899

115:                                              ; preds = %111, %96
  br label %116, !llfi_index !1900

116:                                              ; preds = %115
  %117 = load i32, i32* %8, align 4, !llfi_index !1901
  %118 = add nsw i32 %117, 1, !llfi_index !1902
  store i32 %118, i32* %8, align 4, !llfi_index !1903
  br label %93, !llvm.loop !1904, !llfi_index !1905

119:                                              ; preds = %93
  br label %120, !llfi_index !1906

120:                                              ; preds = %119
  %121 = load i32, i32* %7, align 4, !llfi_index !1907
  %122 = add nsw i32 %121, 1, !llfi_index !1908
  store i32 %122, i32* %7, align 4, !llfi_index !1909
  br label %89, !llvm.loop !1910, !llfi_index !1911

123:                                              ; preds = %89
  %124 = load i64, i64* @ans, align 8, !llfi_index !1912
  %125 = call nonnull align 8 dereferenceable(8) %"class.std::basic_ostream"* @_ZNSolsEx(%"class.std::basic_ostream"* nonnull align 8 dereferenceable(8) @_ZSt4cout, i64 %124), !llfi_index !1913
  %126 = call nonnull align 8 dereferenceable(8) %"class.std::basic_ostream"* @_ZNSolsEPFRSoS_E(%"class.std::basic_ostream"* nonnull align 8 dereferenceable(8) %125, %"class.std::basic_ostream"* (%"class.std::basic_ostream"*)* @_ZSt4endlIcSt11char_traitsIcEERSt13basic_ostreamIT_T0_ES6_), !llfi_index !1914
  %127 = load i32, i32* %1, align 4, !llfi_index !1915
  ret i32 %127, !llfi_index !1916
}

declare dso_local %struct._IO_FILE* @freopen(i8*, i8*, %struct._IO_FILE*) #7

declare dso_local i32 @__isoc99_scanf(i8*, ...) #7

declare dso_local i32 @getchar() #7

declare dso_local nonnull align 8 dereferenceable(8) %"class.std::basic_ostream"* @_ZNSolsEx(%"class.std::basic_ostream"* nonnull align 8 dereferenceable(8), i64) #7

declare dso_local nonnull align 8 dereferenceable(8) %"class.std::basic_ostream"* @_ZSt4endlIcSt11char_traitsIcEERSt13basic_ostreamIT_T0_ES6_(%"class.std::basic_ostream"* nonnull align 8 dereferenceable(8)) #7

declare dso_local nonnull align 8 dereferenceable(8) %"class.std::basic_ostream"* @_ZNSolsEPFRSoS_E(%"class.std::basic_ostream"* nonnull align 8 dereferenceable(8), %"class.std::basic_ostream"* (%"class.std::basic_ostream"*)*) #7

attributes #0 = { noinline uwtable "frame-pointer"="all" "min-legal-vector-width"="0" "no-trapping-math"="true" "stack-protector-buffer-size"="8" "target-cpu"="x86-64" "target-features"="+cx8,+fxsr,+mmx,+sse,+sse2,+x87" "tune-cpu"="generic" }
attributes #1 = { noinline nounwind uwtable "frame-pointer"="all" "min-legal-vector-width"="0" "no-trapping-math"="true" "stack-protector-buffer-size"="8" "target-cpu"="x86-64" "target-features"="+cx8,+fxsr,+mmx,+sse,+sse2,+x87" "tune-cpu"="generic" }
attributes #2 = { nounwind }
attributes #3 = { mustprogress noinline nounwind uwtable "frame-pointer"="all" "min-legal-vector-width"="0" "no-trapping-math"="true" "stack-protector-buffer-size"="8" "target-cpu"="x86-64" "target-features"="+cx8,+fxsr,+mmx,+sse,+sse2,+x87" "tune-cpu"="generic" }
attributes #4 = { mustprogress noinline uwtable "frame-pointer"="all" "min-legal-vector-width"="0" "no-trapping-math"="true" "stack-protector-buffer-size"="8" "target-cpu"="x86-64" "target-features"="+cx8,+fxsr,+mmx,+sse,+sse2,+x87" "tune-cpu"="generic" }
attributes #5 = { noinline noreturn nounwind }
attributes #6 = { nobuiltin nounwind "frame-pointer"="all" "no-trapping-math"="true" "stack-protector-buffer-size"="8" "target-cpu"="x86-64" "target-features"="+cx8,+fxsr,+mmx,+sse,+sse2,+x87" "tune-cpu"="generic" }
attributes #7 = { "frame-pointer"="all" "no-trapping-math"="true" "stack-protector-buffer-size"="8" "target-cpu"="x86-64" "target-features"="+cx8,+fxsr,+mmx,+sse,+sse2,+x87" "tune-cpu"="generic" }
attributes #8 = { nounwind "frame-pointer"="all" "no-trapping-math"="true" "stack-protector-buffer-size"="8" "target-cpu"="x86-64" "target-features"="+cx8,+fxsr,+mmx,+sse,+sse2,+x87" "tune-cpu"="generic" }
attributes #9 = { argmemonly nofree nounwind willreturn writeonly }
attributes #10 = { argmemonly nofree nounwind willreturn }
attributes #11 = { cold noreturn nounwind }
attributes #12 = { nounwind readonly willreturn "frame-pointer"="all" "no-trapping-math"="true" "stack-protector-buffer-size"="8" "target-cpu"="x86-64" "target-features"="+cx8,+fxsr,+mmx,+sse,+sse2,+x87" "tune-cpu"="generic" }
attributes #13 = { noreturn "frame-pointer"="all" "no-trapping-math"="true" "stack-protector-buffer-size"="8" "target-cpu"="x86-64" "target-features"="+cx8,+fxsr,+mmx,+sse,+sse2,+x87" "tune-cpu"="generic" }
attributes #14 = { nobuiltin allocsize(0) "frame-pointer"="all" "no-trapping-math"="true" "stack-protector-buffer-size"="8" "target-cpu"="x86-64" "target-features"="+cx8,+fxsr,+mmx,+sse,+sse2,+x87" "tune-cpu"="generic" }
attributes #15 = { mustprogress noinline norecurse uwtable "frame-pointer"="all" "min-legal-vector-width"="0" "no-trapping-math"="true" "stack-protector-buffer-size"="8" "target-cpu"="x86-64" "target-features"="+cx8,+fxsr,+mmx,+sse,+sse2,+x87" "tune-cpu"="generic" }
attributes #16 = { noreturn nounwind }
attributes #17 = { noreturn }
attributes #18 = { nounwind readonly willreturn }
attributes #19 = { allocsize(0) }

!llvm.ident = !{!0}
!llvm.module.flags = !{!1, !2, !3}

!0 = !{!"clang version 13.0.0 (https://github.com/llvm/llvm-project.git d7b669b3a30345cfcdb2fde2af6f48aa4b94845d)"}
!1 = !{i32 1, !"wchar_size", i32 4}
!2 = !{i32 7, !"uwtable", i32 1}
!3 = !{i32 7, !"frame-pointer", i32 2}
!4 = !{i64 1}
!5 = !{i64 2}
!6 = !{i64 3}
!7 = !{i64 4}
!8 = !{i64 5}
!9 = !{i64 6}
!10 = !{i64 7}
!11 = !{i64 8}
!12 = !{i64 9}
!13 = !{i64 10}
!14 = !{i64 11}
!15 = !{i64 12}
!16 = !{i64 13}
!17 = !{i64 14}
!18 = !{i64 15}
!19 = !{i64 16}
!20 = !{i64 17}
!21 = !{i64 18}
!22 = !{i64 19}
!23 = !{i64 20}
!24 = !{i64 21}
!25 = !{i64 22}
!26 = !{i64 23}
!27 = !{i64 24}
!28 = !{i64 25}
!29 = !{i64 26}
!30 = !{i64 27}
!31 = !{i64 28}
!32 = !{i64 29}
!33 = !{i64 30}
!34 = !{i64 31}
!35 = !{i64 32}
!36 = !{i64 33}
!37 = !{i64 34}
!38 = !{i64 35}
!39 = !{i64 36}
!40 = !{i64 37}
!41 = !{i64 38}
!42 = !{i64 39}
!43 = !{i64 40}
!44 = !{i64 41}
!45 = !{i64 42}
!46 = !{i64 43}
!47 = !{i64 44}
!48 = !{i64 45}
!49 = !{i64 46}
!50 = !{i64 47}
!51 = !{i64 48}
!52 = !{i64 49}
!53 = !{i64 50}
!54 = !{i64 51}
!55 = !{i64 52}
!56 = !{i64 53}
!57 = !{i64 54}
!58 = !{i64 55}
!59 = !{i64 56}
!60 = !{i64 57}
!61 = !{i64 58}
!62 = !{i64 59}
!63 = !{i64 60}
!64 = !{i64 61}
!65 = !{i64 62}
!66 = !{i64 63}
!67 = !{i64 64}
!68 = !{i64 65}
!69 = !{i64 66}
!70 = !{i64 67}
!71 = !{i64 68}
!72 = !{i64 69}
!73 = !{i64 70}
!74 = !{i64 71}
!75 = !{i64 72}
!76 = !{i64 73}
!77 = !{i64 74}
!78 = !{i64 75}
!79 = !{i64 76}
!80 = !{i64 77}
!81 = !{i64 78}
!82 = distinct !{!82, !83}
!83 = !{!"llvm.loop.mustprogress"}
!84 = !{i64 79}
!85 = !{i64 80}
!86 = !{i64 81}
!87 = !{i64 82}
!88 = !{i64 83}
!89 = !{i64 84}
!90 = !{i64 85}
!91 = !{i64 86}
!92 = !{i64 87}
!93 = !{i64 88}
!94 = !{i64 89}
!95 = !{i64 90}
!96 = !{i64 91}
!97 = !{i64 92}
!98 = !{i64 93}
!99 = !{i64 94}
!100 = !{i64 95}
!101 = !{i64 96}
!102 = !{i64 97}
!103 = !{i64 98}
!104 = !{i64 99}
!105 = !{i64 100}
!106 = !{i64 101}
!107 = !{i64 102}
!108 = !{i64 103}
!109 = !{i64 104}
!110 = !{i64 105}
!111 = !{i64 106}
!112 = !{i64 107}
!113 = !{i64 108}
!114 = !{i64 109}
!115 = !{i64 110}
!116 = !{i64 111}
!117 = !{i64 112}
!118 = !{i64 113}
!119 = !{i64 114}
!120 = !{i64 115}
!121 = !{i64 116}
!122 = !{i64 117}
!123 = !{i64 118}
!124 = !{i64 119}
!125 = !{i64 120}
!126 = !{i64 121}
!127 = !{i64 122}
!128 = !{i64 123}
!129 = !{i64 124}
!130 = !{i64 125}
!131 = !{i64 126}
!132 = !{i64 127}
!133 = !{i64 128}
!134 = !{i64 129}
!135 = !{i64 130}
!136 = !{i64 131}
!137 = !{i64 132}
!138 = !{i64 133}
!139 = !{i64 134}
!140 = !{i64 135}
!141 = !{i64 136}
!142 = !{i64 137}
!143 = !{i64 138}
!144 = !{i64 139}
!145 = !{i64 140}
!146 = !{i64 141}
!147 = !{i64 142}
!148 = !{i64 143}
!149 = !{i64 144}
!150 = !{i64 145}
!151 = !{i64 146}
!152 = !{i64 147}
!153 = !{i64 148}
!154 = !{i64 149}
!155 = !{i64 150}
!156 = !{i64 151}
!157 = !{i64 152}
!158 = !{i64 153}
!159 = !{i64 154}
!160 = !{i64 155}
!161 = !{i64 156}
!162 = !{i64 157}
!163 = !{i64 158}
!164 = !{i64 159}
!165 = !{i64 160}
!166 = !{i64 161}
!167 = !{i64 162}
!168 = !{i64 163}
!169 = !{i64 164}
!170 = !{i64 165}
!171 = !{i64 166}
!172 = !{i64 167}
!173 = !{i64 168}
!174 = !{i64 169}
!175 = !{i64 170}
!176 = !{i64 171}
!177 = !{i64 172}
!178 = !{i64 173}
!179 = !{i64 174}
!180 = !{i64 175}
!181 = !{i64 176}
!182 = !{i64 177}
!183 = !{i64 178}
!184 = !{i64 179}
!185 = !{i64 180}
!186 = !{i64 181}
!187 = !{i64 182}
!188 = !{i64 183}
!189 = !{i64 184}
!190 = !{i64 185}
!191 = !{i64 186}
!192 = !{i64 187}
!193 = !{i64 188}
!194 = !{i64 189}
!195 = !{i64 190}
!196 = !{i64 191}
!197 = !{i64 192}
!198 = !{i64 193}
!199 = !{i64 194}
!200 = !{i64 195}
!201 = !{i64 196}
!202 = !{i64 197}
!203 = !{i64 198}
!204 = !{i64 199}
!205 = !{i64 200}
!206 = !{i64 201}
!207 = !{i64 202}
!208 = !{i64 203}
!209 = !{i64 204}
!210 = !{i64 205}
!211 = !{i64 206}
!212 = !{i64 207}
!213 = !{i64 208}
!214 = !{i64 209}
!215 = !{i64 210}
!216 = !{i64 211}
!217 = !{i64 212}
!218 = !{i64 213}
!219 = !{i64 214}
!220 = !{i64 215}
!221 = !{i64 216}
!222 = !{i64 217}
!223 = !{i64 218}
!224 = !{i64 219}
!225 = !{i64 220}
!226 = !{i64 221}
!227 = !{i64 222}
!228 = !{i64 223}
!229 = !{i64 224}
!230 = !{i64 225}
!231 = !{i64 226}
!232 = !{i64 227}
!233 = !{i64 228}
!234 = !{i64 229}
!235 = !{i64 230}
!236 = !{i64 231}
!237 = !{i64 232}
!238 = !{i64 233}
!239 = !{i64 234}
!240 = !{i64 235}
!241 = !{i64 236}
!242 = !{i64 237}
!243 = !{i64 238}
!244 = !{i64 239}
!245 = !{i64 240}
!246 = !{i64 241}
!247 = !{i64 242}
!248 = !{i64 243}
!249 = !{i64 244}
!250 = !{i64 245}
!251 = !{i64 246}
!252 = !{i64 247}
!253 = !{i64 248}
!254 = !{i64 249}
!255 = !{i64 250}
!256 = !{i64 251}
!257 = !{i64 252}
!258 = !{i64 253}
!259 = !{i64 254}
!260 = !{i64 255}
!261 = !{i64 256}
!262 = !{i64 257}
!263 = !{i64 258}
!264 = !{i64 259}
!265 = !{i64 260}
!266 = !{i64 261}
!267 = !{i64 262}
!268 = !{i64 263}
!269 = !{i64 264}
!270 = !{i64 265}
!271 = !{i64 266}
!272 = !{i64 267}
!273 = !{i64 268}
!274 = !{i64 269}
!275 = !{i64 270}
!276 = !{i64 271}
!277 = !{i64 272}
!278 = !{i64 273}
!279 = !{i64 274}
!280 = !{i64 275}
!281 = !{i64 276}
!282 = !{i64 277}
!283 = !{i64 278}
!284 = !{i64 279}
!285 = !{i64 280}
!286 = !{i64 281}
!287 = !{i64 282}
!288 = !{i64 283}
!289 = !{i64 284}
!290 = !{i64 285}
!291 = !{i64 286}
!292 = !{i64 287}
!293 = !{i64 288}
!294 = !{i64 289}
!295 = !{i64 290}
!296 = !{i64 291}
!297 = !{i64 292}
!298 = !{i64 293}
!299 = !{i64 294}
!300 = !{i64 295}
!301 = !{i64 296}
!302 = !{i64 297}
!303 = !{i64 298}
!304 = !{i64 299}
!305 = !{i64 300}
!306 = !{i64 301}
!307 = !{i64 302}
!308 = !{i64 303}
!309 = !{i64 304}
!310 = !{i64 305}
!311 = !{i64 306}
!312 = !{i64 307}
!313 = !{i64 308}
!314 = !{i64 309}
!315 = !{i64 310}
!316 = !{i64 311}
!317 = !{i64 312}
!318 = !{i64 313}
!319 = !{i64 314}
!320 = !{i64 315}
!321 = !{i64 316}
!322 = !{i64 317}
!323 = !{i64 318}
!324 = !{i64 319}
!325 = !{i64 320}
!326 = !{i64 321}
!327 = !{i64 322}
!328 = !{i64 323}
!329 = !{i64 324}
!330 = !{i64 325}
!331 = !{i64 326}
!332 = !{i64 327}
!333 = !{i64 328}
!334 = !{i64 329}
!335 = !{i64 330}
!336 = !{i64 331}
!337 = !{i64 332}
!338 = !{i64 333}
!339 = !{i64 334}
!340 = !{i64 335}
!341 = !{i64 336}
!342 = !{i64 337}
!343 = !{i64 338}
!344 = !{i64 339}
!345 = !{i64 340}
!346 = !{i64 341}
!347 = !{i64 342}
!348 = !{i64 343}
!349 = !{i64 344}
!350 = !{i64 345}
!351 = !{i64 346}
!352 = !{i64 347}
!353 = !{i64 348}
!354 = !{i64 349}
!355 = !{i64 350}
!356 = !{i64 351}
!357 = !{i64 352}
!358 = !{i64 353}
!359 = !{i64 354}
!360 = !{i64 355}
!361 = !{i64 356}
!362 = !{i64 357}
!363 = !{i64 358}
!364 = !{i64 359}
!365 = !{i64 360}
!366 = !{i64 361}
!367 = !{i64 362}
!368 = !{i64 363}
!369 = !{i64 364}
!370 = !{i64 365}
!371 = !{i64 366}
!372 = !{i64 367}
!373 = !{i64 368}
!374 = !{i64 369}
!375 = !{i64 370}
!376 = !{i64 371}
!377 = !{i64 372}
!378 = !{i64 373}
!379 = !{i64 374}
!380 = !{i64 375}
!381 = !{i64 376}
!382 = !{i64 377}
!383 = !{i64 378}
!384 = !{i64 379}
!385 = !{i64 380}
!386 = !{i64 381}
!387 = !{i64 382}
!388 = !{i64 383}
!389 = !{i64 384}
!390 = !{i64 385}
!391 = !{i64 386}
!392 = !{i64 387}
!393 = !{i64 388}
!394 = !{i64 389}
!395 = !{i64 390}
!396 = !{i64 391}
!397 = !{i64 392}
!398 = !{i64 393}
!399 = !{i64 394}
!400 = distinct !{!400, !83}
!401 = !{i64 395}
!402 = !{i64 396}
!403 = !{i64 397}
!404 = !{i64 398}
!405 = !{i64 399}
!406 = distinct !{!406, !83}
!407 = !{i64 400}
!408 = !{i64 401}
!409 = !{i64 402}
!410 = !{i64 403}
!411 = !{i64 404}
!412 = !{i64 405}
!413 = !{i64 406}
!414 = !{i64 407}
!415 = !{i64 408}
!416 = !{i64 409}
!417 = !{i64 410}
!418 = !{i64 411}
!419 = !{i64 412}
!420 = !{i64 413}
!421 = !{i64 414}
!422 = !{i64 415}
!423 = !{i64 416}
!424 = !{i64 417}
!425 = !{i64 418}
!426 = !{i64 419}
!427 = !{i64 420}
!428 = !{i64 421}
!429 = !{i64 422}
!430 = !{i64 423}
!431 = !{i64 424}
!432 = !{i64 425}
!433 = !{i64 426}
!434 = !{i64 427}
!435 = !{i64 428}
!436 = !{i64 429}
!437 = !{i64 430}
!438 = !{i64 431}
!439 = !{i64 432}
!440 = !{i64 433}
!441 = !{i64 434}
!442 = !{i64 435}
!443 = !{i64 436}
!444 = !{i64 437}
!445 = !{i64 438}
!446 = !{i64 439}
!447 = !{i64 440}
!448 = !{i64 441}
!449 = !{i64 442}
!450 = distinct !{!450, !83}
!451 = !{i64 443}
!452 = !{i64 444}
!453 = !{i64 445}
!454 = !{i64 446}
!455 = !{i64 447}
!456 = !{i64 448}
!457 = !{i64 449}
!458 = !{i64 450}
!459 = !{i64 451}
!460 = !{i64 452}
!461 = !{i64 453}
!462 = !{i64 454}
!463 = !{i64 455}
!464 = !{i64 456}
!465 = !{i64 457}
!466 = !{i64 458}
!467 = !{i64 459}
!468 = !{i64 460}
!469 = !{i64 461}
!470 = !{i64 462}
!471 = !{i64 463}
!472 = !{i64 464}
!473 = !{i64 465}
!474 = !{i64 466}
!475 = !{i64 467}
!476 = !{i64 468}
!477 = !{i64 469}
!478 = !{i64 470}
!479 = !{i64 471}
!480 = !{i64 472}
!481 = !{i64 473}
!482 = !{i64 474}
!483 = !{i64 475}
!484 = !{i64 476}
!485 = !{i64 477}
!486 = !{i64 478}
!487 = distinct !{!487, !83}
!488 = !{i64 479}
!489 = !{i64 480}
!490 = !{i64 481}
!491 = !{i64 482}
!492 = !{i64 483}
!493 = !{i64 484}
!494 = !{i64 485}
!495 = !{i64 486}
!496 = !{i64 487}
!497 = !{i64 488}
!498 = !{i64 489}
!499 = !{i64 490}
!500 = !{i64 491}
!501 = !{i64 492}
!502 = !{i64 493}
!503 = !{i64 494}
!504 = !{i64 495}
!505 = !{i64 496}
!506 = !{i64 497}
!507 = !{i64 498}
!508 = !{i64 499}
!509 = !{i64 500}
!510 = !{i64 501}
!511 = !{i64 502}
!512 = !{i64 503}
!513 = !{i64 504}
!514 = !{i64 505}
!515 = !{i64 506}
!516 = !{i64 507}
!517 = !{i64 508}
!518 = !{i64 509}
!519 = !{i64 510}
!520 = !{i64 511}
!521 = !{i64 512}
!522 = !{i64 513}
!523 = !{i64 514}
!524 = !{i64 515}
!525 = !{i64 516}
!526 = !{i64 517}
!527 = !{i64 518}
!528 = !{i64 519}
!529 = !{i64 520}
!530 = !{i64 521}
!531 = distinct !{!531, !83}
!532 = !{i64 522}
!533 = !{i64 523}
!534 = !{i64 524}
!535 = !{i64 525}
!536 = !{i64 526}
!537 = distinct !{!537, !83}
!538 = !{i64 527}
!539 = !{i64 528}
!540 = !{i64 529}
!541 = !{i64 530}
!542 = !{i64 531}
!543 = !{i64 532}
!544 = !{i64 533}
!545 = !{i64 534}
!546 = !{i64 535}
!547 = !{i64 536}
!548 = !{i64 537}
!549 = !{i64 538}
!550 = !{i64 539}
!551 = !{i64 540}
!552 = !{i64 541}
!553 = !{i64 542}
!554 = !{i64 543}
!555 = !{i64 544}
!556 = !{i64 545}
!557 = !{i64 546}
!558 = !{i64 547}
!559 = !{i64 548}
!560 = !{i64 549}
!561 = !{i64 550}
!562 = !{i64 551}
!563 = !{i64 552}
!564 = !{i64 553}
!565 = !{i64 554}
!566 = !{i64 555}
!567 = !{i64 556}
!568 = !{i64 557}
!569 = !{i64 558}
!570 = !{i64 559}
!571 = !{i64 560}
!572 = !{i64 561}
!573 = !{i64 562}
!574 = distinct !{!574, !83}
!575 = !{i64 563}
!576 = !{i64 564}
!577 = !{i64 565}
!578 = !{i64 566}
!579 = !{i64 567}
!580 = !{i64 568}
!581 = !{i64 569}
!582 = !{i64 570}
!583 = !{i64 571}
!584 = !{i64 572}
!585 = !{i64 573}
!586 = !{i64 574}
!587 = !{i64 575}
!588 = !{i64 576}
!589 = !{i64 577}
!590 = !{i64 578}
!591 = !{i64 579}
!592 = !{i64 580}
!593 = !{i64 581}
!594 = !{i64 582}
!595 = !{i64 583}
!596 = !{i64 584}
!597 = !{i64 585}
!598 = !{i64 586}
!599 = !{i64 587}
!600 = !{i64 588}
!601 = !{i64 589}
!602 = !{i64 590}
!603 = !{i64 591}
!604 = !{i64 592}
!605 = !{i64 593}
!606 = !{i64 594}
!607 = !{i64 595}
!608 = !{i64 596}
!609 = !{i64 597}
!610 = !{i64 598}
!611 = !{i64 599}
!612 = !{i64 600}
!613 = !{i64 601}
!614 = distinct !{!614, !83}
!615 = !{i64 602}
!616 = !{i64 603}
!617 = !{i64 604}
!618 = !{i64 605}
!619 = !{i64 606}
!620 = !{i64 607}
!621 = !{i64 608}
!622 = !{i64 609}
!623 = !{i64 610}
!624 = !{i64 611}
!625 = !{i64 612}
!626 = !{i64 613}
!627 = !{i64 614}
!628 = !{i64 615}
!629 = !{i64 616}
!630 = !{i64 617}
!631 = !{i64 618}
!632 = !{i64 619}
!633 = !{i64 620}
!634 = !{i64 621}
!635 = !{i64 622}
!636 = !{i64 623}
!637 = !{i64 624}
!638 = distinct !{!638, !83}
!639 = !{i64 625}
!640 = !{i64 626}
!641 = !{i64 627}
!642 = !{i64 628}
!643 = !{i64 629}
!644 = distinct !{!644, !83}
!645 = !{i64 630}
!646 = !{i64 631}
!647 = !{i64 632}
!648 = !{i64 633}
!649 = !{i64 634}
!650 = !{i64 635}
!651 = !{i64 636}
!652 = !{i64 637}
!653 = !{i64 638}
!654 = !{i64 639}
!655 = !{i64 640}
!656 = !{i64 641}
!657 = !{i64 642}
!658 = !{i64 643}
!659 = !{i64 644}
!660 = !{i64 645}
!661 = !{i64 646}
!662 = !{i64 647}
!663 = !{i64 648}
!664 = !{i64 649}
!665 = !{i64 650}
!666 = !{i64 651}
!667 = !{i64 652}
!668 = !{i64 653}
!669 = !{i64 654}
!670 = !{i64 655}
!671 = !{i64 656}
!672 = !{i64 657}
!673 = !{i64 658}
!674 = !{i64 659}
!675 = !{i64 660}
!676 = !{i64 661}
!677 = !{i64 662}
!678 = !{i64 663}
!679 = !{i64 664}
!680 = !{i64 665}
!681 = !{i64 666}
!682 = !{i64 667}
!683 = !{i64 668}
!684 = !{i64 669}
!685 = !{i64 670}
!686 = !{i64 671}
!687 = !{i64 672}
!688 = !{i64 673}
!689 = !{i64 674}
!690 = !{i64 675}
!691 = !{i64 676}
!692 = !{i64 677}
!693 = !{i64 678}
!694 = !{i64 679}
!695 = !{i64 680}
!696 = !{i64 681}
!697 = !{i64 682}
!698 = !{i64 683}
!699 = !{i64 684}
!700 = !{i64 685}
!701 = !{i64 686}
!702 = !{i64 687}
!703 = !{i64 688}
!704 = !{i64 689}
!705 = !{i64 690}
!706 = !{i64 691}
!707 = !{i64 692}
!708 = !{i64 693}
!709 = !{i64 694}
!710 = !{i64 695}
!711 = !{i64 696}
!712 = !{i64 697}
!713 = !{i64 698}
!714 = !{i64 699}
!715 = !{i64 700}
!716 = !{i64 701}
!717 = !{i64 702}
!718 = !{i64 703}
!719 = !{i64 704}
!720 = !{i64 705}
!721 = !{i64 706}
!722 = !{i64 707}
!723 = !{i64 708}
!724 = !{i64 709}
!725 = !{i64 710}
!726 = !{i64 711}
!727 = !{i64 712}
!728 = !{i64 713}
!729 = !{i64 714}
!730 = !{i64 715}
!731 = !{i64 716}
!732 = !{i64 717}
!733 = !{i64 718}
!734 = !{i64 719}
!735 = !{i64 720}
!736 = !{i64 721}
!737 = !{i64 722}
!738 = !{i64 723}
!739 = !{i64 724}
!740 = !{i64 725}
!741 = !{i64 726}
!742 = !{i64 727}
!743 = !{i64 728}
!744 = !{i64 729}
!745 = !{i64 730}
!746 = !{i64 731}
!747 = !{i64 732}
!748 = !{i64 733}
!749 = !{i64 734}
!750 = !{i64 735}
!751 = !{i64 736}
!752 = !{i64 737}
!753 = !{i64 738}
!754 = !{i64 739}
!755 = !{i64 740}
!756 = !{i64 741}
!757 = !{i64 742}
!758 = !{i64 743}
!759 = !{i64 744}
!760 = !{i64 745}
!761 = !{i64 746}
!762 = !{i64 747}
!763 = !{i64 748}
!764 = !{i64 749}
!765 = !{i64 750}
!766 = !{i64 751}
!767 = !{i64 752}
!768 = !{i64 753}
!769 = !{i64 754}
!770 = !{i64 755}
!771 = !{i64 756}
!772 = !{i64 757}
!773 = !{i64 758}
!774 = !{i64 759}
!775 = !{i64 760}
!776 = !{i64 761}
!777 = !{i64 762}
!778 = !{i64 763}
!779 = !{i64 764}
!780 = !{i64 765}
!781 = !{i64 766}
!782 = !{i64 767}
!783 = !{i64 768}
!784 = !{i64 769}
!785 = !{i64 770}
!786 = !{i64 771}
!787 = !{i64 772}
!788 = !{i64 773}
!789 = !{i64 774}
!790 = !{i64 775}
!791 = !{i64 776}
!792 = !{i64 777}
!793 = !{i64 778}
!794 = !{i64 779}
!795 = !{i64 780}
!796 = !{i64 781}
!797 = !{i64 782}
!798 = !{i64 783}
!799 = !{i64 784}
!800 = !{i64 785}
!801 = !{i64 786}
!802 = !{i64 787}
!803 = !{i64 788}
!804 = !{i64 789}
!805 = !{i64 790}
!806 = !{i64 791}
!807 = !{i64 792}
!808 = !{i64 793}
!809 = !{i64 794}
!810 = !{i64 795}
!811 = !{i64 796}
!812 = !{i64 797}
!813 = !{i64 798}
!814 = !{i64 799}
!815 = !{i64 800}
!816 = !{i64 801}
!817 = !{i64 802}
