; ModuleID = '/home/hjiang/Computation-Kernel-Dataset/experiments/Fault_injection_0308_parall/O0/MatrixLand/MatrixLand.ll'
source_filename = "llvm-link"
target datalayout = "e-m:e-p270:32:32-p271:32:32-p272:64:64-i64:64-f80:128-n8:16:32:64-S128"
target triple = "x86_64-unknown-linux-gnu"

%"class.std::ios_base::Init" = type { i8 }
%struct._IO_FILE = type { i32, i8*, i8*, i8*, i8*, i8*, i8*, i8*, i8*, i8*, i8*, i8*, %struct._IO_marker*, %struct._IO_FILE*, i32, i32, i64, i16, i8, [1 x i8], i8*, i64, %struct._IO_codecvt*, %struct._IO_wide_data*, %struct._IO_FILE*, i8*, i64, i32, [20 x i8] }
%struct._IO_marker = type opaque
%struct._IO_codecvt = type opaque
%struct._IO_wide_data = type opaque
%"class.std::basic_ostream" = type { i32 (...)**, %"class.std::basic_ios" }
%"class.std::basic_ios" = type { %"class.std::ios_base", %"class.std::basic_ostream"*, i8, i8, %"class.std::basic_streambuf"*, %"class.std::ctype"*, %"class.std::num_put"*, %"class.std::num_put"* }
%"class.std::ios_base" = type { i32 (...)**, i64, i64, i32, i32, i32, %"struct.std::ios_base::_Callback_list"*, %"struct.std::ios_base::_Words", [8 x %"struct.std::ios_base::_Words"], i32, %"struct.std::ios_base::_Words"*, %"class.std::locale" }
%"struct.std::ios_base::_Callback_list" = type { %"struct.std::ios_base::_Callback_list"*, void (i32, %"class.std::ios_base"*, i32)*, i32, i32 }
%"struct.std::ios_base::_Words" = type { i8*, i64 }
%"class.std::locale" = type { %"class.std::locale::_Impl"* }
%"class.std::locale::_Impl" = type { i32, %"class.std::locale::facet"**, i64, %"class.std::locale::facet"**, i8** }
%"class.std::locale::facet" = type <{ i32 (...)**, i32, [4 x i8] }>
%"class.std::basic_streambuf" = type { i32 (...)**, i8*, i8*, i8*, i8*, i8*, i8*, %"class.std::locale" }
%"class.std::ctype" = type <{ %"class.std::locale::facet.base", [4 x i8], %struct.__locale_struct*, i8, [7 x i8], i32*, i32*, i16*, i8, [256 x i8], [256 x i8], i8, [6 x i8] }>
%"class.std::locale::facet.base" = type <{ i32 (...)**, i32 }>
%struct.__locale_struct = type { [13 x %struct.__locale_data*], i16*, i32*, i32*, [13 x i8*] }
%struct.__locale_data = type opaque
%"class.std::num_put" = type { %"class.std::locale::facet.base", [4 x i8] }

$_Z4readv = comdat any

$_ZSt4swapIiENSt9enable_ifIXsr6__and_ISt6__not_ISt15__is_tuple_likeIT_EESt21is_move_constructibleIS3_ESt18is_move_assignableIS3_EEE5valueEvE4typeERS3_SC_ = comdat any

$_ZSt3maxIiERKT_S2_S2_ = comdat any

$_ZSt4moveIRiEONSt16remove_referenceIT_E4typeEOS2_ = comdat any

@llvm.global_ctors = appending global [1 x { i32, void ()*, i8* }] [{ i32, void ()*, i8* } { i32 65535, void ()* @_GLOBAL__sub_I_MatrixLand.cpp, i8* null }]
@_ZStL8__ioinit = internal global %"class.std::ios_base::Init" zeroinitializer, align 1
@n = dso_local global i32 0, align 4
@m = dso_local global i32 0, align 4
@maxl = dso_local global i32 0, align 4
@now = dso_local global i32 0, align 4
@pre = dso_local global i32 0, align 4
@f = dso_local global [2 x [4000005 x i32]] zeroinitializer, align 16
@v = dso_local global [4000005 x i32] zeroinitializer, align 16
@g = dso_local global [4000005 x i32] zeroinitializer, align 16
@h = dso_local global [4000005 x i32] zeroinitializer, align 16
@sum = dso_local global [4000005 x i32] zeroinitializer, align 16
@.str = private unnamed_addr constant [26 x i8] c"../input_files/MatrixLand\00", align 1
@.str.1 = private unnamed_addr constant [2 x i8] c"r\00", align 1
@stdin = external dso_local global %struct._IO_FILE*, align 8
@_ZSt4cout = external dso_local global %"class.std::basic_ostream", align 8

; Function Attrs: noinline uwtable
define internal void @_GLOBAL__sub_I_MatrixLand.cpp() #0 section ".text.startup" {
  call void @__cxx_global_var_init(), !llfi_index !4
  ret void, !llfi_index !5
}

; Function Attrs: noinline uwtable
define internal void @__cxx_global_var_init() #0 section ".text.startup" {
  call void @_ZNSt8ios_base4InitC1Ev(%"class.std::ios_base::Init"* nonnull align 1 dereferenceable(1) @_ZStL8__ioinit), !llfi_index !6
  %1 = call i32 @atexit(void ()* @__dtor__ZStL8__ioinit) #2, !llfi_index !7
  ret void, !llfi_index !8
}

declare dso_local void @_ZNSt8ios_base4InitC1Ev(%"class.std::ios_base::Init"* nonnull align 1 dereferenceable(1)) unnamed_addr #1

; Function Attrs: noinline uwtable
define internal void @__dtor__ZStL8__ioinit() #0 section ".text.startup" {
  call void @_ZNSt8ios_base4InitD1Ev(%"class.std::ios_base::Init"* @_ZStL8__ioinit), !llfi_index !9
  ret void, !llfi_index !10
}

; Function Attrs: nounwind
declare dso_local i32 @atexit(void ()*) #2

; Function Attrs: nounwind
declare dso_local void @_ZNSt8ios_base4InitD1Ev(%"class.std::ios_base::Init"* nonnull align 1 dereferenceable(1)) unnamed_addr #3

; Function Attrs: mustprogress noinline norecurse uwtable
define dso_local i32 @main() #4 {
  %1 = alloca i32, align 4, !llfi_index !11
  %2 = alloca i32, align 4, !llfi_index !12
  %3 = alloca i32, align 4, !llfi_index !13
  %4 = alloca i32, align 4, !llfi_index !14
  %5 = alloca i32, align 4, !llfi_index !15
  %6 = alloca i32, align 4, !llfi_index !16
  %7 = alloca i32, align 4, !llfi_index !17
  %8 = alloca i32, align 4, !llfi_index !18
  %9 = alloca i32, align 4, !llfi_index !19
  %10 = alloca i32, align 4, !llfi_index !20
  %11 = alloca i32, align 4, !llfi_index !21
  %12 = alloca i32, align 4, !llfi_index !22
  %13 = alloca i32, align 4, !llfi_index !23
  %14 = alloca i32, align 4, !llfi_index !24
  %15 = alloca i32, align 4, !llfi_index !25
  %16 = alloca i32, align 4, !llfi_index !26
  %17 = alloca i32, align 4, !llfi_index !27
  %18 = alloca i32, align 4, !llfi_index !28
  store i32 0, i32* %1, align 4, !llfi_index !29
  %19 = load %struct._IO_FILE*, %struct._IO_FILE** @stdin, align 8, !llfi_index !30
  %20 = call %struct._IO_FILE* @freopen(i8* getelementptr inbounds ([26 x i8], [26 x i8]* @.str, i64 0, i64 0), i8* getelementptr inbounds ([2 x i8], [2 x i8]* @.str.1, i64 0, i64 0), %struct._IO_FILE* %19), !llfi_index !31
  %21 = call i32 @_Z4readv(), !llfi_index !32
  store i32 %21, i32* @n, align 4, !llfi_index !33
  %22 = call i32 @_Z4readv(), !llfi_index !34
  store i32 %22, i32* @m, align 4, !llfi_index !35
  store i32 0, i32* @now, align 4, !llfi_index !36
  store i32 1, i32* @pre, align 4, !llfi_index !37
  store i32 89, i32* %2, align 4, !llfi_index !38
  store i32 1, i32* %3, align 4, !llfi_index !39
  br label %23, !llfi_index !40

23:                                               ; preds = %215, %0
  %24 = load i32, i32* %3, align 4, !llfi_index !41
  %25 = load i32, i32* @n, align 4, !llfi_index !42
  %26 = icmp sle i32 %24, %25, !llfi_index !43
  br i1 %26, label %27, label %218, !llfi_index !44

27:                                               ; preds = %23
  call void @_ZSt4swapIiENSt9enable_ifIXsr6__and_ISt6__not_ISt15__is_tuple_likeIT_EESt21is_move_constructibleIS3_ESt18is_move_assignableIS3_EEE5valueEvE4typeERS3_SC_(i32* nonnull align 4 dereferenceable(4) @now, i32* nonnull align 4 dereferenceable(4) @pre) #2, !llfi_index !45
  store i32 89, i32* %2, align 4, !llfi_index !46
  store i32 1, i32* %4, align 4, !llfi_index !47
  br label %28, !llfi_index !48

28:                                               ; preds = %37, %27
  %29 = load i32, i32* %4, align 4, !llfi_index !49
  %30 = load i32, i32* @m, align 4, !llfi_index !50
  %31 = icmp sle i32 %29, %30, !llfi_index !51
  br i1 %31, label %32, label %40, !llfi_index !52

32:                                               ; preds = %28
  %33 = call i32 @_Z4readv(), !llfi_index !53
  %34 = load i32, i32* %4, align 4, !llfi_index !54
  %35 = sext i32 %34 to i64, !llfi_index !55
  %36 = getelementptr inbounds [4000005 x i32], [4000005 x i32]* @v, i64 0, i64 %35, !llfi_index !56
  store i32 %33, i32* %36, align 4, !llfi_index !57
  br label %37, !llfi_index !58

37:                                               ; preds = %32
  %38 = load i32, i32* %4, align 4, !llfi_index !59
  %39 = add nsw i32 %38, 1, !llfi_index !60
  store i32 %39, i32* %4, align 4, !llfi_index !61
  br label %28, !llvm.loop !62, !llfi_index !64

40:                                               ; preds = %28
  store i32 89, i32* %2, align 4, !llfi_index !65
  store i32 1, i32* %5, align 4, !llfi_index !66
  br label %41, !llfi_index !67

41:                                               ; preds = %59, %40
  %42 = load i32, i32* %5, align 4, !llfi_index !68
  %43 = load i32, i32* @m, align 4, !llfi_index !69
  %44 = icmp sle i32 %42, %43, !llfi_index !70
  br i1 %44, label %45, label %62, !llfi_index !71

45:                                               ; preds = %41
  %46 = load i32, i32* %5, align 4, !llfi_index !72
  %47 = sub nsw i32 %46, 1, !llfi_index !73
  %48 = sext i32 %47 to i64, !llfi_index !74
  %49 = getelementptr inbounds [4000005 x i32], [4000005 x i32]* @sum, i64 0, i64 %48, !llfi_index !75
  %50 = load i32, i32* %49, align 4, !llfi_index !76
  %51 = load i32, i32* %5, align 4, !llfi_index !77
  %52 = sext i32 %51 to i64, !llfi_index !78
  %53 = getelementptr inbounds [4000005 x i32], [4000005 x i32]* @v, i64 0, i64 %52, !llfi_index !79
  %54 = load i32, i32* %53, align 4, !llfi_index !80
  %55 = add nsw i32 %50, %54, !llfi_index !81
  %56 = load i32, i32* %5, align 4, !llfi_index !82
  %57 = sext i32 %56 to i64, !llfi_index !83
  %58 = getelementptr inbounds [4000005 x i32], [4000005 x i32]* @sum, i64 0, i64 %57, !llfi_index !84
  store i32 %55, i32* %58, align 4, !llfi_index !85
  br label %59, !llfi_index !86

59:                                               ; preds = %45
  %60 = load i32, i32* %5, align 4, !llfi_index !87
  %61 = add nsw i32 %60, 1, !llfi_index !88
  store i32 %61, i32* %5, align 4, !llfi_index !89
  br label %41, !llvm.loop !90, !llfi_index !91

62:                                               ; preds = %41
  store i32 89, i32* %2, align 4, !llfi_index !92
  store i32 1, i32* %6, align 4, !llfi_index !93
  br label %63, !llfi_index !94

63:                                               ; preds = %83, %62
  %64 = load i32, i32* %6, align 4, !llfi_index !95
  %65 = load i32, i32* @m, align 4, !llfi_index !96
  %66 = icmp sle i32 %64, %65, !llfi_index !97
  br i1 %66, label %67, label %86, !llfi_index !98

67:                                               ; preds = %63
  %68 = load i32, i32* %6, align 4, !llfi_index !99
  %69 = sub nsw i32 %68, 1, !llfi_index !100
  %70 = sext i32 %69 to i64, !llfi_index !101
  %71 = getelementptr inbounds [4000005 x i32], [4000005 x i32]* @g, i64 0, i64 %70, !llfi_index !102
  %72 = load i32, i32* %71, align 4, !llfi_index !103
  %73 = load i32, i32* %6, align 4, !llfi_index !104
  %74 = sext i32 %73 to i64, !llfi_index !105
  %75 = getelementptr inbounds [4000005 x i32], [4000005 x i32]* @v, i64 0, i64 %74, !llfi_index !106
  %76 = load i32, i32* %75, align 4, !llfi_index !107
  %77 = add nsw i32 %72, %76, !llfi_index !108
  store i32 %77, i32* %7, align 4, !llfi_index !109
  store i32 0, i32* %8, align 4, !llfi_index !110
  %78 = call nonnull align 4 dereferenceable(4) i32* @_ZSt3maxIiERKT_S2_S2_(i32* nonnull align 4 dereferenceable(4) %7, i32* nonnull align 4 dereferenceable(4) %8), !llfi_index !111
  %79 = load i32, i32* %78, align 4, !llfi_index !112
  %80 = load i32, i32* %6, align 4, !llfi_index !113
  %81 = sext i32 %80 to i64, !llfi_index !114
  %82 = getelementptr inbounds [4000005 x i32], [4000005 x i32]* @g, i64 0, i64 %81, !llfi_index !115
  store i32 %79, i32* %82, align 4, !llfi_index !116
  br label %83, !llfi_index !117

83:                                               ; preds = %67
  %84 = load i32, i32* %6, align 4, !llfi_index !118
  %85 = add nsw i32 %84, 1, !llfi_index !119
  store i32 %85, i32* %6, align 4, !llfi_index !120
  br label %63, !llvm.loop !121, !llfi_index !122

86:                                               ; preds = %63
  store i32 89, i32* %2, align 4, !llfi_index !123
  %87 = load i32, i32* @m, align 4, !llfi_index !124
  store i32 %87, i32* %9, align 4, !llfi_index !125
  br label %88, !llfi_index !126

88:                                               ; preds = %107, %86
  %89 = load i32, i32* %9, align 4, !llfi_index !127
  %90 = icmp sge i32 %89, 1, !llfi_index !128
  br i1 %90, label %91, label %110, !llfi_index !129

91:                                               ; preds = %88
  %92 = load i32, i32* %9, align 4, !llfi_index !130
  %93 = add nsw i32 %92, 1, !llfi_index !131
  %94 = sext i32 %93 to i64, !llfi_index !132
  %95 = getelementptr inbounds [4000005 x i32], [4000005 x i32]* @h, i64 0, i64 %94, !llfi_index !133
  %96 = load i32, i32* %95, align 4, !llfi_index !134
  %97 = load i32, i32* %9, align 4, !llfi_index !135
  %98 = sext i32 %97 to i64, !llfi_index !136
  %99 = getelementptr inbounds [4000005 x i32], [4000005 x i32]* @v, i64 0, i64 %98, !llfi_index !137
  %100 = load i32, i32* %99, align 4, !llfi_index !138
  %101 = add nsw i32 %96, %100, !llfi_index !139
  store i32 %101, i32* %10, align 4, !llfi_index !140
  store i32 0, i32* %11, align 4, !llfi_index !141
  %102 = call nonnull align 4 dereferenceable(4) i32* @_ZSt3maxIiERKT_S2_S2_(i32* nonnull align 4 dereferenceable(4) %10, i32* nonnull align 4 dereferenceable(4) %11), !llfi_index !142
  %103 = load i32, i32* %102, align 4, !llfi_index !143
  %104 = load i32, i32* %9, align 4, !llfi_index !144
  %105 = sext i32 %104 to i64, !llfi_index !145
  %106 = getelementptr inbounds [4000005 x i32], [4000005 x i32]* @h, i64 0, i64 %105, !llfi_index !146
  store i32 %103, i32* %106, align 4, !llfi_index !147
  br label %107, !llfi_index !148

107:                                              ; preds = %91
  %108 = load i32, i32* %9, align 4, !llfi_index !149
  %109 = add nsw i32 %108, -1, !llfi_index !150
  store i32 %109, i32* %9, align 4, !llfi_index !151
  br label %88, !llvm.loop !152, !llfi_index !153

110:                                              ; preds = %88
  store i32 -1000000007, i32* @maxl, align 4, !llfi_index !154
  store i32 89, i32* %2, align 4, !llfi_index !155
  store i32 1, i32* %12, align 4, !llfi_index !156
  br label %111, !llfi_index !157

111:                                              ; preds = %155, %110
  %112 = load i32, i32* %12, align 4, !llfi_index !158
  %113 = load i32, i32* @m, align 4, !llfi_index !159
  %114 = icmp sle i32 %112, %113, !llfi_index !160
  br i1 %114, label %115, label %158, !llfi_index !161

115:                                              ; preds = %111
  %116 = load i32, i32* @pre, align 4, !llfi_index !162
  %117 = sext i32 %116 to i64, !llfi_index !163
  %118 = getelementptr inbounds [2 x [4000005 x i32]], [2 x [4000005 x i32]]* @f, i64 0, i64 %117, !llfi_index !164
  %119 = load i32, i32* %12, align 4, !llfi_index !165
  %120 = sext i32 %119 to i64, !llfi_index !166
  %121 = getelementptr inbounds [4000005 x i32], [4000005 x i32]* %118, i64 0, i64 %120, !llfi_index !167
  %122 = load i32, i32* %121, align 4, !llfi_index !168
  %123 = load i32, i32* %12, align 4, !llfi_index !169
  %124 = sub nsw i32 %123, 1, !llfi_index !170
  %125 = sext i32 %124 to i64, !llfi_index !171
  %126 = getelementptr inbounds [4000005 x i32], [4000005 x i32]* @sum, i64 0, i64 %125, !llfi_index !172
  %127 = load i32, i32* %126, align 4, !llfi_index !173
  %128 = sub nsw i32 %122, %127, !llfi_index !174
  %129 = load i32, i32* %12, align 4, !llfi_index !175
  %130 = sub nsw i32 %129, 1, !llfi_index !176
  %131 = sext i32 %130 to i64, !llfi_index !177
  %132 = getelementptr inbounds [4000005 x i32], [4000005 x i32]* @g, i64 0, i64 %131, !llfi_index !178
  %133 = load i32, i32* %132, align 4, !llfi_index !179
  %134 = add nsw i32 %128, %133, !llfi_index !180
  store i32 %134, i32* %13, align 4, !llfi_index !181
  %135 = call nonnull align 4 dereferenceable(4) i32* @_ZSt3maxIiERKT_S2_S2_(i32* nonnull align 4 dereferenceable(4) @maxl, i32* nonnull align 4 dereferenceable(4) %13), !llfi_index !182
  %136 = load i32, i32* %135, align 4, !llfi_index !183
  store i32 %136, i32* @maxl, align 4, !llfi_index !184
  %137 = load i32, i32* @maxl, align 4, !llfi_index !185
  %138 = load i32, i32* %12, align 4, !llfi_index !186
  %139 = sext i32 %138 to i64, !llfi_index !187
  %140 = getelementptr inbounds [4000005 x i32], [4000005 x i32]* @sum, i64 0, i64 %139, !llfi_index !188
  %141 = load i32, i32* %140, align 4, !llfi_index !189
  %142 = add nsw i32 %137, %141, !llfi_index !190
  %143 = load i32, i32* %12, align 4, !llfi_index !191
  %144 = add nsw i32 %143, 1, !llfi_index !192
  %145 = sext i32 %144 to i64, !llfi_index !193
  %146 = getelementptr inbounds [4000005 x i32], [4000005 x i32]* @h, i64 0, i64 %145, !llfi_index !194
  %147 = load i32, i32* %146, align 4, !llfi_index !195
  %148 = add nsw i32 %142, %147, !llfi_index !196
  %149 = load i32, i32* @now, align 4, !llfi_index !197
  %150 = sext i32 %149 to i64, !llfi_index !198
  %151 = getelementptr inbounds [2 x [4000005 x i32]], [2 x [4000005 x i32]]* @f, i64 0, i64 %150, !llfi_index !199
  %152 = load i32, i32* %12, align 4, !llfi_index !200
  %153 = sext i32 %152 to i64, !llfi_index !201
  %154 = getelementptr inbounds [4000005 x i32], [4000005 x i32]* %151, i64 0, i64 %153, !llfi_index !202
  store i32 %148, i32* %154, align 4, !llfi_index !203
  br label %155, !llfi_index !204

155:                                              ; preds = %115
  %156 = load i32, i32* %12, align 4, !llfi_index !205
  %157 = add nsw i32 %156, 1, !llfi_index !206
  store i32 %157, i32* %12, align 4, !llfi_index !207
  br label %111, !llvm.loop !208, !llfi_index !209

158:                                              ; preds = %111
  store i32 -1000000007, i32* @maxl, align 4, !llfi_index !210
  store i32 89, i32* %2, align 4, !llfi_index !211
  %159 = load i32, i32* @m, align 4, !llfi_index !212
  store i32 %159, i32* %14, align 4, !llfi_index !213
  br label %160, !llfi_index !214

160:                                              ; preds = %211, %158
  %161 = load i32, i32* %14, align 4, !llfi_index !215
  %162 = icmp sge i32 %161, 1, !llfi_index !216
  br i1 %162, label %163, label %214, !llfi_index !217

163:                                              ; preds = %160
  %164 = load i32, i32* @pre, align 4, !llfi_index !218
  %165 = sext i32 %164 to i64, !llfi_index !219
  %166 = getelementptr inbounds [2 x [4000005 x i32]], [2 x [4000005 x i32]]* @f, i64 0, i64 %165, !llfi_index !220
  %167 = load i32, i32* %14, align 4, !llfi_index !221
  %168 = sext i32 %167 to i64, !llfi_index !222
  %169 = getelementptr inbounds [4000005 x i32], [4000005 x i32]* %166, i64 0, i64 %168, !llfi_index !223
  %170 = load i32, i32* %169, align 4, !llfi_index !224
  %171 = load i32, i32* %14, align 4, !llfi_index !225
  %172 = sext i32 %171 to i64, !llfi_index !226
  %173 = getelementptr inbounds [4000005 x i32], [4000005 x i32]* @sum, i64 0, i64 %172, !llfi_index !227
  %174 = load i32, i32* %173, align 4, !llfi_index !228
  %175 = add nsw i32 %170, %174, !llfi_index !229
  %176 = load i32, i32* %14, align 4, !llfi_index !230
  %177 = add nsw i32 %176, 1, !llfi_index !231
  %178 = sext i32 %177 to i64, !llfi_index !232
  %179 = getelementptr inbounds [4000005 x i32], [4000005 x i32]* @h, i64 0, i64 %178, !llfi_index !233
  %180 = load i32, i32* %179, align 4, !llfi_index !234
  %181 = add nsw i32 %175, %180, !llfi_index !235
  store i32 %181, i32* %15, align 4, !llfi_index !236
  %182 = call nonnull align 4 dereferenceable(4) i32* @_ZSt3maxIiERKT_S2_S2_(i32* nonnull align 4 dereferenceable(4) @maxl, i32* nonnull align 4 dereferenceable(4) %15), !llfi_index !237
  %183 = load i32, i32* %182, align 4, !llfi_index !238
  store i32 %183, i32* @maxl, align 4, !llfi_index !239
  %184 = load i32, i32* @now, align 4, !llfi_index !240
  %185 = sext i32 %184 to i64, !llfi_index !241
  %186 = getelementptr inbounds [2 x [4000005 x i32]], [2 x [4000005 x i32]]* @f, i64 0, i64 %185, !llfi_index !242
  %187 = load i32, i32* %14, align 4, !llfi_index !243
  %188 = sext i32 %187 to i64, !llfi_index !244
  %189 = getelementptr inbounds [4000005 x i32], [4000005 x i32]* %186, i64 0, i64 %188, !llfi_index !245
  %190 = load i32, i32* @maxl, align 4, !llfi_index !246
  %191 = load i32, i32* %14, align 4, !llfi_index !247
  %192 = sub nsw i32 %191, 1, !llfi_index !248
  %193 = sext i32 %192 to i64, !llfi_index !249
  %194 = getelementptr inbounds [4000005 x i32], [4000005 x i32]* @sum, i64 0, i64 %193, !llfi_index !250
  %195 = load i32, i32* %194, align 4, !llfi_index !251
  %196 = sub nsw i32 %190, %195, !llfi_index !252
  %197 = load i32, i32* %14, align 4, !llfi_index !253
  %198 = sub nsw i32 %197, 1, !llfi_index !254
  %199 = sext i32 %198 to i64, !llfi_index !255
  %200 = getelementptr inbounds [4000005 x i32], [4000005 x i32]* @g, i64 0, i64 %199, !llfi_index !256
  %201 = load i32, i32* %200, align 4, !llfi_index !257
  %202 = add nsw i32 %196, %201, !llfi_index !258
  store i32 %202, i32* %16, align 4, !llfi_index !259
  %203 = call nonnull align 4 dereferenceable(4) i32* @_ZSt3maxIiERKT_S2_S2_(i32* nonnull align 4 dereferenceable(4) %189, i32* nonnull align 4 dereferenceable(4) %16), !llfi_index !260
  %204 = load i32, i32* %203, align 4, !llfi_index !261
  %205 = load i32, i32* @now, align 4, !llfi_index !262
  %206 = sext i32 %205 to i64, !llfi_index !263
  %207 = getelementptr inbounds [2 x [4000005 x i32]], [2 x [4000005 x i32]]* @f, i64 0, i64 %206, !llfi_index !264
  %208 = load i32, i32* %14, align 4, !llfi_index !265
  %209 = sext i32 %208 to i64, !llfi_index !266
  %210 = getelementptr inbounds [4000005 x i32], [4000005 x i32]* %207, i64 0, i64 %209, !llfi_index !267
  store i32 %204, i32* %210, align 4, !llfi_index !268
  br label %211, !llfi_index !269

211:                                              ; preds = %163
  %212 = load i32, i32* %14, align 4, !llfi_index !270
  %213 = add nsw i32 %212, -1, !llfi_index !271
  store i32 %213, i32* %14, align 4, !llfi_index !272
  br label %160, !llvm.loop !273, !llfi_index !274

214:                                              ; preds = %160
  br label %215, !llfi_index !275

215:                                              ; preds = %214
  %216 = load i32, i32* %3, align 4, !llfi_index !276
  %217 = add nsw i32 %216, 1, !llfi_index !277
  store i32 %217, i32* %3, align 4, !llfi_index !278
  br label %23, !llvm.loop !279, !llfi_index !280

218:                                              ; preds = %23
  store i32 0, i32* %17, align 4, !llfi_index !281
  store i32 89, i32* %2, align 4, !llfi_index !282
  store i32 1, i32* %18, align 4, !llfi_index !283
  br label %219, !llfi_index !284

219:                                              ; preds = %232, %218
  %220 = load i32, i32* %18, align 4, !llfi_index !285
  %221 = load i32, i32* @m, align 4, !llfi_index !286
  %222 = icmp sle i32 %220, %221, !llfi_index !287
  br i1 %222, label %223, label %235, !llfi_index !288

223:                                              ; preds = %219
  %224 = load i32, i32* @now, align 4, !llfi_index !289
  %225 = sext i32 %224 to i64, !llfi_index !290
  %226 = getelementptr inbounds [2 x [4000005 x i32]], [2 x [4000005 x i32]]* @f, i64 0, i64 %225, !llfi_index !291
  %227 = load i32, i32* %18, align 4, !llfi_index !292
  %228 = sext i32 %227 to i64, !llfi_index !293
  %229 = getelementptr inbounds [4000005 x i32], [4000005 x i32]* %226, i64 0, i64 %228, !llfi_index !294
  %230 = call nonnull align 4 dereferenceable(4) i32* @_ZSt3maxIiERKT_S2_S2_(i32* nonnull align 4 dereferenceable(4) %17, i32* nonnull align 4 dereferenceable(4) %229), !llfi_index !295
  %231 = load i32, i32* %230, align 4, !llfi_index !296
  store i32 %231, i32* %17, align 4, !llfi_index !297
  br label %232, !llfi_index !298

232:                                              ; preds = %223
  %233 = load i32, i32* %18, align 4, !llfi_index !299
  %234 = add nsw i32 %233, 1, !llfi_index !300
  store i32 %234, i32* %18, align 4, !llfi_index !301
  br label %219, !llvm.loop !302, !llfi_index !303

235:                                              ; preds = %219
  %236 = load i32, i32* %17, align 4, !llfi_index !304
  %237 = call nonnull align 8 dereferenceable(8) %"class.std::basic_ostream"* @_ZNSolsEi(%"class.std::basic_ostream"* nonnull align 8 dereferenceable(8) @_ZSt4cout, i32 %236), !llfi_index !305
  %238 = call nonnull align 8 dereferenceable(8) %"class.std::basic_ostream"* @_ZNSolsEPFRSoS_E(%"class.std::basic_ostream"* nonnull align 8 dereferenceable(8) %237, %"class.std::basic_ostream"* (%"class.std::basic_ostream"*)* @_ZSt4endlIcSt11char_traitsIcEERSt13basic_ostreamIT_T0_ES6_), !llfi_index !306
  ret i32 0, !llfi_index !307
}

declare dso_local %struct._IO_FILE* @freopen(i8*, i8*, %struct._IO_FILE*) #1

; Function Attrs: mustprogress noinline uwtable
define linkonce_odr dso_local i32 @_Z4readv() #5 comdat {
  %1 = alloca i32, align 4, !llfi_index !308
  %2 = alloca i32, align 4, !llfi_index !309
  %3 = alloca i8, align 1, !llfi_index !310
  store i32 0, i32* %1, align 4, !llfi_index !311
  store i32 1, i32* %2, align 4, !llfi_index !312
  %4 = call i32 @getchar(), !llfi_index !313
  %5 = trunc i32 %4 to i8, !llfi_index !314
  store i8 %5, i8* %3, align 1, !llfi_index !315
  br label %6, !llfi_index !316

6:                                                ; preds = %17, %0
  %7 = load i8, i8* %3, align 1, !llfi_index !317
  %8 = sext i8 %7 to i32, !llfi_index !318
  %9 = call i32 @isdigit(i32 %8) #8, !llfi_index !319
  %10 = icmp ne i32 %9, 0, !llfi_index !320
  %11 = xor i1 %10, true, !llfi_index !321
  br i1 %11, label %12, label %20, !llfi_index !322

12:                                               ; preds = %6
  %13 = load i8, i8* %3, align 1, !llfi_index !323
  %14 = sext i8 %13 to i32, !llfi_index !324
  %15 = icmp eq i32 %14, 45, !llfi_index !325
  br i1 %15, label %16, label %17, !llfi_index !326

16:                                               ; preds = %12
  store i32 -1, i32* %2, align 4, !llfi_index !327
  br label %17, !llfi_index !328

17:                                               ; preds = %16, %12
  %18 = call i32 @getchar(), !llfi_index !329
  %19 = trunc i32 %18 to i8, !llfi_index !330
  store i8 %19, i8* %3, align 1, !llfi_index !331
  br label %6, !llvm.loop !332, !llfi_index !333

20:                                               ; preds = %6
  br label %21, !llfi_index !334

21:                                               ; preds = %26, %20
  %22 = load i8, i8* %3, align 1, !llfi_index !335
  %23 = sext i8 %22 to i32, !llfi_index !336
  %24 = call i32 @isdigit(i32 %23) #8, !llfi_index !337
  %25 = icmp ne i32 %24, 0, !llfi_index !338
  br i1 %25, label %26, label %35, !llfi_index !339

26:                                               ; preds = %21
  %27 = load i32, i32* %1, align 4, !llfi_index !340
  %28 = mul nsw i32 %27, 10, !llfi_index !341
  %29 = load i8, i8* %3, align 1, !llfi_index !342
  %30 = sext i8 %29 to i32, !llfi_index !343
  %31 = add nsw i32 %28, %30, !llfi_index !344
  %32 = sub nsw i32 %31, 48, !llfi_index !345
  store i32 %32, i32* %1, align 4, !llfi_index !346
  %33 = call i32 @getchar(), !llfi_index !347
  %34 = trunc i32 %33 to i8, !llfi_index !348
  store i8 %34, i8* %3, align 1, !llfi_index !349
  br label %21, !llvm.loop !350, !llfi_index !351

35:                                               ; preds = %21
  %36 = load i32, i32* %1, align 4, !llfi_index !352
  %37 = load i32, i32* %2, align 4, !llfi_index !353
  %38 = mul nsw i32 %36, %37, !llfi_index !354
  ret i32 %38, !llfi_index !355
}

; Function Attrs: mustprogress noinline nounwind uwtable
define linkonce_odr dso_local void @_ZSt4swapIiENSt9enable_ifIXsr6__and_ISt6__not_ISt15__is_tuple_likeIT_EESt21is_move_constructibleIS3_ESt18is_move_assignableIS3_EEE5valueEvE4typeERS3_SC_(i32* nonnull align 4 dereferenceable(4) %0, i32* nonnull align 4 dereferenceable(4) %1) #6 comdat {
  %3 = alloca i32*, align 8, !llfi_index !356
  %4 = alloca i32*, align 8, !llfi_index !357
  %5 = alloca i32, align 4, !llfi_index !358
  store i32* %0, i32** %3, align 8, !llfi_index !359
  store i32* %1, i32** %4, align 8, !llfi_index !360
  %6 = load i32*, i32** %3, align 8, !llfi_index !361
  %7 = call nonnull align 4 dereferenceable(4) i32* @_ZSt4moveIRiEONSt16remove_referenceIT_E4typeEOS2_(i32* nonnull align 4 dereferenceable(4) %6) #2, !llfi_index !362
  %8 = load i32, i32* %7, align 4, !llfi_index !363
  store i32 %8, i32* %5, align 4, !llfi_index !364
  %9 = load i32*, i32** %4, align 8, !llfi_index !365
  %10 = call nonnull align 4 dereferenceable(4) i32* @_ZSt4moveIRiEONSt16remove_referenceIT_E4typeEOS2_(i32* nonnull align 4 dereferenceable(4) %9) #2, !llfi_index !366
  %11 = load i32, i32* %10, align 4, !llfi_index !367
  %12 = load i32*, i32** %3, align 8, !llfi_index !368
  store i32 %11, i32* %12, align 4, !llfi_index !369
  %13 = call nonnull align 4 dereferenceable(4) i32* @_ZSt4moveIRiEONSt16remove_referenceIT_E4typeEOS2_(i32* nonnull align 4 dereferenceable(4) %5) #2, !llfi_index !370
  %14 = load i32, i32* %13, align 4, !llfi_index !371
  %15 = load i32*, i32** %4, align 8, !llfi_index !372
  store i32 %14, i32* %15, align 4, !llfi_index !373
  ret void, !llfi_index !374
}

; Function Attrs: mustprogress noinline nounwind uwtable
define linkonce_odr dso_local nonnull align 4 dereferenceable(4) i32* @_ZSt3maxIiERKT_S2_S2_(i32* nonnull align 4 dereferenceable(4) %0, i32* nonnull align 4 dereferenceable(4) %1) #6 comdat {
  %3 = alloca i32*, align 8, !llfi_index !375
  %4 = alloca i32*, align 8, !llfi_index !376
  %5 = alloca i32*, align 8, !llfi_index !377
  store i32* %0, i32** %4, align 8, !llfi_index !378
  store i32* %1, i32** %5, align 8, !llfi_index !379
  %6 = load i32*, i32** %4, align 8, !llfi_index !380
  %7 = load i32, i32* %6, align 4, !llfi_index !381
  %8 = load i32*, i32** %5, align 8, !llfi_index !382
  %9 = load i32, i32* %8, align 4, !llfi_index !383
  %10 = icmp slt i32 %7, %9, !llfi_index !384
  br i1 %10, label %11, label %13, !llfi_index !385

11:                                               ; preds = %2
  %12 = load i32*, i32** %5, align 8, !llfi_index !386
  store i32* %12, i32** %3, align 8, !llfi_index !387
  br label %15, !llfi_index !388

13:                                               ; preds = %2
  %14 = load i32*, i32** %4, align 8, !llfi_index !389
  store i32* %14, i32** %3, align 8, !llfi_index !390
  br label %15, !llfi_index !391

15:                                               ; preds = %13, %11
  %16 = load i32*, i32** %3, align 8, !llfi_index !392
  ret i32* %16, !llfi_index !393
}

declare dso_local nonnull align 8 dereferenceable(8) %"class.std::basic_ostream"* @_ZNSolsEi(%"class.std::basic_ostream"* nonnull align 8 dereferenceable(8), i32) #1

declare dso_local nonnull align 8 dereferenceable(8) %"class.std::basic_ostream"* @_ZSt4endlIcSt11char_traitsIcEERSt13basic_ostreamIT_T0_ES6_(%"class.std::basic_ostream"* nonnull align 8 dereferenceable(8)) #1

declare dso_local nonnull align 8 dereferenceable(8) %"class.std::basic_ostream"* @_ZNSolsEPFRSoS_E(%"class.std::basic_ostream"* nonnull align 8 dereferenceable(8), %"class.std::basic_ostream"* (%"class.std::basic_ostream"*)*) #1

; Function Attrs: mustprogress noinline nounwind uwtable
define linkonce_odr dso_local nonnull align 4 dereferenceable(4) i32* @_ZSt4moveIRiEONSt16remove_referenceIT_E4typeEOS2_(i32* nonnull align 4 dereferenceable(4) %0) #6 comdat {
  %2 = alloca i32*, align 8, !llfi_index !394
  store i32* %0, i32** %2, align 8, !llfi_index !395
  %3 = load i32*, i32** %2, align 8, !llfi_index !396
  ret i32* %3, !llfi_index !397
}

declare dso_local i32 @getchar() #1

; Function Attrs: nounwind readonly willreturn
declare dso_local i32 @isdigit(i32) #7

attributes #0 = { noinline uwtable "frame-pointer"="all" "min-legal-vector-width"="0" "no-trapping-math"="true" "stack-protector-buffer-size"="8" "target-cpu"="x86-64" "target-features"="+cx8,+fxsr,+mmx,+sse,+sse2,+x87" "tune-cpu"="generic" }
attributes #1 = { "frame-pointer"="all" "no-trapping-math"="true" "stack-protector-buffer-size"="8" "target-cpu"="x86-64" "target-features"="+cx8,+fxsr,+mmx,+sse,+sse2,+x87" "tune-cpu"="generic" }
attributes #2 = { nounwind }
attributes #3 = { nounwind "frame-pointer"="all" "no-trapping-math"="true" "stack-protector-buffer-size"="8" "target-cpu"="x86-64" "target-features"="+cx8,+fxsr,+mmx,+sse,+sse2,+x87" "tune-cpu"="generic" }
attributes #4 = { mustprogress noinline norecurse uwtable "frame-pointer"="all" "min-legal-vector-width"="0" "no-trapping-math"="true" "stack-protector-buffer-size"="8" "target-cpu"="x86-64" "target-features"="+cx8,+fxsr,+mmx,+sse,+sse2,+x87" "tune-cpu"="generic" }
attributes #5 = { mustprogress noinline uwtable "frame-pointer"="all" "min-legal-vector-width"="0" "no-trapping-math"="true" "stack-protector-buffer-size"="8" "target-cpu"="x86-64" "target-features"="+cx8,+fxsr,+mmx,+sse,+sse2,+x87" "tune-cpu"="generic" }
attributes #6 = { mustprogress noinline nounwind uwtable "frame-pointer"="all" "min-legal-vector-width"="0" "no-trapping-math"="true" "stack-protector-buffer-size"="8" "target-cpu"="x86-64" "target-features"="+cx8,+fxsr,+mmx,+sse,+sse2,+x87" "tune-cpu"="generic" }
attributes #7 = { nounwind readonly willreturn "frame-pointer"="all" "no-trapping-math"="true" "stack-protector-buffer-size"="8" "target-cpu"="x86-64" "target-features"="+cx8,+fxsr,+mmx,+sse,+sse2,+x87" "tune-cpu"="generic" }
attributes #8 = { nounwind readonly willreturn }

!llvm.ident = !{!0}
!llvm.module.flags = !{!1, !2, !3}

!0 = !{!"clang version 13.0.0 (https://github.com/llvm/llvm-project.git d7b669b3a30345cfcdb2fde2af6f48aa4b94845d)"}
!1 = !{i32 1, !"wchar_size", i32 4}
!2 = !{i32 7, !"uwtable", i32 1}
!3 = !{i32 7, !"frame-pointer", i32 2}
!4 = !{i64 1}
!5 = !{i64 2}
!6 = !{i64 3}
!7 = !{i64 4}
!8 = !{i64 5}
!9 = !{i64 6}
!10 = !{i64 7}
!11 = !{i64 8}
!12 = !{i64 9}
!13 = !{i64 10}
!14 = !{i64 11}
!15 = !{i64 12}
!16 = !{i64 13}
!17 = !{i64 14}
!18 = !{i64 15}
!19 = !{i64 16}
!20 = !{i64 17}
!21 = !{i64 18}
!22 = !{i64 19}
!23 = !{i64 20}
!24 = !{i64 21}
!25 = !{i64 22}
!26 = !{i64 23}
!27 = !{i64 24}
!28 = !{i64 25}
!29 = !{i64 26}
!30 = !{i64 27}
!31 = !{i64 28}
!32 = !{i64 29}
!33 = !{i64 30}
!34 = !{i64 31}
!35 = !{i64 32}
!36 = !{i64 33}
!37 = !{i64 34}
!38 = !{i64 35}
!39 = !{i64 36}
!40 = !{i64 37}
!41 = !{i64 38}
!42 = !{i64 39}
!43 = !{i64 40}
!44 = !{i64 41}
!45 = !{i64 42}
!46 = !{i64 43}
!47 = !{i64 44}
!48 = !{i64 45}
!49 = !{i64 46}
!50 = !{i64 47}
!51 = !{i64 48}
!52 = !{i64 49}
!53 = !{i64 50}
!54 = !{i64 51}
!55 = !{i64 52}
!56 = !{i64 53}
!57 = !{i64 54}
!58 = !{i64 55}
!59 = !{i64 56}
!60 = !{i64 57}
!61 = !{i64 58}
!62 = distinct !{!62, !63}
!63 = !{!"llvm.loop.mustprogress"}
!64 = !{i64 59}
!65 = !{i64 60}
!66 = !{i64 61}
!67 = !{i64 62}
!68 = !{i64 63}
!69 = !{i64 64}
!70 = !{i64 65}
!71 = !{i64 66}
!72 = !{i64 67}
!73 = !{i64 68}
!74 = !{i64 69}
!75 = !{i64 70}
!76 = !{i64 71}
!77 = !{i64 72}
!78 = !{i64 73}
!79 = !{i64 74}
!80 = !{i64 75}
!81 = !{i64 76}
!82 = !{i64 77}
!83 = !{i64 78}
!84 = !{i64 79}
!85 = !{i64 80}
!86 = !{i64 81}
!87 = !{i64 82}
!88 = !{i64 83}
!89 = !{i64 84}
!90 = distinct !{!90, !63}
!91 = !{i64 85}
!92 = !{i64 86}
!93 = !{i64 87}
!94 = !{i64 88}
!95 = !{i64 89}
!96 = !{i64 90}
!97 = !{i64 91}
!98 = !{i64 92}
!99 = !{i64 93}
!100 = !{i64 94}
!101 = !{i64 95}
!102 = !{i64 96}
!103 = !{i64 97}
!104 = !{i64 98}
!105 = !{i64 99}
!106 = !{i64 100}
!107 = !{i64 101}
!108 = !{i64 102}
!109 = !{i64 103}
!110 = !{i64 104}
!111 = !{i64 105}
!112 = !{i64 106}
!113 = !{i64 107}
!114 = !{i64 108}
!115 = !{i64 109}
!116 = !{i64 110}
!117 = !{i64 111}
!118 = !{i64 112}
!119 = !{i64 113}
!120 = !{i64 114}
!121 = distinct !{!121, !63}
!122 = !{i64 115}
!123 = !{i64 116}
!124 = !{i64 117}
!125 = !{i64 118}
!126 = !{i64 119}
!127 = !{i64 120}
!128 = !{i64 121}
!129 = !{i64 122}
!130 = !{i64 123}
!131 = !{i64 124}
!132 = !{i64 125}
!133 = !{i64 126}
!134 = !{i64 127}
!135 = !{i64 128}
!136 = !{i64 129}
!137 = !{i64 130}
!138 = !{i64 131}
!139 = !{i64 132}
!140 = !{i64 133}
!141 = !{i64 134}
!142 = !{i64 135}
!143 = !{i64 136}
!144 = !{i64 137}
!145 = !{i64 138}
!146 = !{i64 139}
!147 = !{i64 140}
!148 = !{i64 141}
!149 = !{i64 142}
!150 = !{i64 143}
!151 = !{i64 144}
!152 = distinct !{!152, !63}
!153 = !{i64 145}
!154 = !{i64 146}
!155 = !{i64 147}
!156 = !{i64 148}
!157 = !{i64 149}
!158 = !{i64 150}
!159 = !{i64 151}
!160 = !{i64 152}
!161 = !{i64 153}
!162 = !{i64 154}
!163 = !{i64 155}
!164 = !{i64 156}
!165 = !{i64 157}
!166 = !{i64 158}
!167 = !{i64 159}
!168 = !{i64 160}
!169 = !{i64 161}
!170 = !{i64 162}
!171 = !{i64 163}
!172 = !{i64 164}
!173 = !{i64 165}
!174 = !{i64 166}
!175 = !{i64 167}
!176 = !{i64 168}
!177 = !{i64 169}
!178 = !{i64 170}
!179 = !{i64 171}
!180 = !{i64 172}
!181 = !{i64 173}
!182 = !{i64 174}
!183 = !{i64 175}
!184 = !{i64 176}
!185 = !{i64 177}
!186 = !{i64 178}
!187 = !{i64 179}
!188 = !{i64 180}
!189 = !{i64 181}
!190 = !{i64 182}
!191 = !{i64 183}
!192 = !{i64 184}
!193 = !{i64 185}
!194 = !{i64 186}
!195 = !{i64 187}
!196 = !{i64 188}
!197 = !{i64 189}
!198 = !{i64 190}
!199 = !{i64 191}
!200 = !{i64 192}
!201 = !{i64 193}
!202 = !{i64 194}
!203 = !{i64 195}
!204 = !{i64 196}
!205 = !{i64 197}
!206 = !{i64 198}
!207 = !{i64 199}
!208 = distinct !{!208, !63}
!209 = !{i64 200}
!210 = !{i64 201}
!211 = !{i64 202}
!212 = !{i64 203}
!213 = !{i64 204}
!214 = !{i64 205}
!215 = !{i64 206}
!216 = !{i64 207}
!217 = !{i64 208}
!218 = !{i64 209}
!219 = !{i64 210}
!220 = !{i64 211}
!221 = !{i64 212}
!222 = !{i64 213}
!223 = !{i64 214}
!224 = !{i64 215}
!225 = !{i64 216}
!226 = !{i64 217}
!227 = !{i64 218}
!228 = !{i64 219}
!229 = !{i64 220}
!230 = !{i64 221}
!231 = !{i64 222}
!232 = !{i64 223}
!233 = !{i64 224}
!234 = !{i64 225}
!235 = !{i64 226}
!236 = !{i64 227}
!237 = !{i64 228}
!238 = !{i64 229}
!239 = !{i64 230}
!240 = !{i64 231}
!241 = !{i64 232}
!242 = !{i64 233}
!243 = !{i64 234}
!244 = !{i64 235}
!245 = !{i64 236}
!246 = !{i64 237}
!247 = !{i64 238}
!248 = !{i64 239}
!249 = !{i64 240}
!250 = !{i64 241}
!251 = !{i64 242}
!252 = !{i64 243}
!253 = !{i64 244}
!254 = !{i64 245}
!255 = !{i64 246}
!256 = !{i64 247}
!257 = !{i64 248}
!258 = !{i64 249}
!259 = !{i64 250}
!260 = !{i64 251}
!261 = !{i64 252}
!262 = !{i64 253}
!263 = !{i64 254}
!264 = !{i64 255}
!265 = !{i64 256}
!266 = !{i64 257}
!267 = !{i64 258}
!268 = !{i64 259}
!269 = !{i64 260}
!270 = !{i64 261}
!271 = !{i64 262}
!272 = !{i64 263}
!273 = distinct !{!273, !63}
!274 = !{i64 264}
!275 = !{i64 265}
!276 = !{i64 266}
!277 = !{i64 267}
!278 = !{i64 268}
!279 = distinct !{!279, !63}
!280 = !{i64 269}
!281 = !{i64 270}
!282 = !{i64 271}
!283 = !{i64 272}
!284 = !{i64 273}
!285 = !{i64 274}
!286 = !{i64 275}
!287 = !{i64 276}
!288 = !{i64 277}
!289 = !{i64 278}
!290 = !{i64 279}
!291 = !{i64 280}
!292 = !{i64 281}
!293 = !{i64 282}
!294 = !{i64 283}
!295 = !{i64 284}
!296 = !{i64 285}
!297 = !{i64 286}
!298 = !{i64 287}
!299 = !{i64 288}
!300 = !{i64 289}
!301 = !{i64 290}
!302 = distinct !{!302, !63}
!303 = !{i64 291}
!304 = !{i64 292}
!305 = !{i64 293}
!306 = !{i64 294}
!307 = !{i64 295}
!308 = !{i64 296}
!309 = !{i64 297}
!310 = !{i64 298}
!311 = !{i64 299}
!312 = !{i64 300}
!313 = !{i64 301}
!314 = !{i64 302}
!315 = !{i64 303}
!316 = !{i64 304}
!317 = !{i64 305}
!318 = !{i64 306}
!319 = !{i64 307}
!320 = !{i64 308}
!321 = !{i64 309}
!322 = !{i64 310}
!323 = !{i64 311}
!324 = !{i64 312}
!325 = !{i64 313}
!326 = !{i64 314}
!327 = !{i64 315}
!328 = !{i64 316}
!329 = !{i64 317}
!330 = !{i64 318}
!331 = !{i64 319}
!332 = distinct !{!332, !63}
!333 = !{i64 320}
!334 = !{i64 321}
!335 = !{i64 322}
!336 = !{i64 323}
!337 = !{i64 324}
!338 = !{i64 325}
!339 = !{i64 326}
!340 = !{i64 327}
!341 = !{i64 328}
!342 = !{i64 329}
!343 = !{i64 330}
!344 = !{i64 331}
!345 = !{i64 332}
!346 = !{i64 333}
!347 = !{i64 334}
!348 = !{i64 335}
!349 = !{i64 336}
!350 = distinct !{!350, !63}
!351 = !{i64 337}
!352 = !{i64 338}
!353 = !{i64 339}
!354 = !{i64 340}
!355 = !{i64 341}
!356 = !{i64 342}
!357 = !{i64 343}
!358 = !{i64 344}
!359 = !{i64 345}
!360 = !{i64 346}
!361 = !{i64 347}
!362 = !{i64 348}
!363 = !{i64 349}
!364 = !{i64 350}
!365 = !{i64 351}
!366 = !{i64 352}
!367 = !{i64 353}
!368 = !{i64 354}
!369 = !{i64 355}
!370 = !{i64 356}
!371 = !{i64 357}
!372 = !{i64 358}
!373 = !{i64 359}
!374 = !{i64 360}
!375 = !{i64 361}
!376 = !{i64 362}
!377 = !{i64 363}
!378 = !{i64 364}
!379 = !{i64 365}
!380 = !{i64 366}
!381 = !{i64 367}
!382 = !{i64 368}
!383 = !{i64 369}
!384 = !{i64 370}
!385 = !{i64 371}
!386 = !{i64 372}
!387 = !{i64 373}
!388 = !{i64 374}
!389 = !{i64 375}
!390 = !{i64 376}
!391 = !{i64 377}
!392 = !{i64 378}
!393 = !{i64 379}
!394 = !{i64 380}
!395 = !{i64 381}
!396 = !{i64 382}
!397 = !{i64 383}
