; ModuleID = '/home/hjiang/Computation-Kernel-Dataset/experiments/Fault_injection_0308_parall/O0/MaximumPalindromes/MaximumPalindromes.ll'
source_filename = "llvm-link"
target datalayout = "e-m:e-p270:32:32-p271:32:32-p272:64:64-i64:64-f80:128-n8:16:32:64-S128"
target triple = "x86_64-unknown-linux-gnu"

%"class.std::ios_base::Init" = type { i8 }
%"class.std::__cxx11::basic_string" = type { %"struct.std::__cxx11::basic_string<char>::_Alloc_hider", i64, %union.anon }
%"struct.std::__cxx11::basic_string<char>::_Alloc_hider" = type { i8* }
%union.anon = type { i64, [8 x i8] }
%"class.std::basic_istream" = type { i32 (...)**, i64, %"class.std::basic_ios" }
%"class.std::basic_ios" = type { %"class.std::ios_base", %"class.std::basic_ostream"*, i8, i8, %"class.std::basic_streambuf"*, %"class.std::ctype"*, %"class.std::num_put"*, %"class.std::num_put"* }
%"class.std::ios_base" = type { i32 (...)**, i64, i64, i32, i32, i32, %"struct.std::ios_base::_Callback_list"*, %"struct.std::ios_base::_Words", [8 x %"struct.std::ios_base::_Words"], i32, %"struct.std::ios_base::_Words"*, %"class.std::locale" }
%"struct.std::ios_base::_Callback_list" = type { %"struct.std::ios_base::_Callback_list"*, void (i32, %"class.std::ios_base"*, i32)*, i32, i32 }
%"struct.std::ios_base::_Words" = type { i8*, i64 }
%"class.std::locale" = type { %"class.std::locale::_Impl"* }
%"class.std::locale::_Impl" = type { i32, %"class.std::locale::facet"**, i64, %"class.std::locale::facet"**, i8** }
%"class.std::locale::facet" = type <{ i32 (...)**, i32, [4 x i8] }>
%"class.std::basic_ostream" = type { i32 (...)**, %"class.std::basic_ios" }
%"class.std::basic_streambuf" = type { i32 (...)**, i8*, i8*, i8*, i8*, i8*, i8*, %"class.std::locale" }
%"class.std::ctype" = type <{ %"class.std::locale::facet.base", [4 x i8], %struct.__locale_struct*, i8, [7 x i8], i32*, i32*, i16*, i8, [256 x i8], [256 x i8], i8, [6 x i8] }>
%"class.std::locale::facet.base" = type <{ i32 (...)**, i32 }>
%struct.__locale_struct = type { [13 x %struct.__locale_data*], i16*, i32*, i32*, [13 x i8*] }
%struct.__locale_data = type opaque
%"class.std::num_put" = type { %"class.std::locale::facet.base", [4 x i8] }
%struct._IO_FILE = type { i32, i8*, i8*, i8*, i8*, i8*, i8*, i8*, i8*, i8*, i8*, i8*, %struct._IO_marker*, %struct._IO_FILE*, i32, i32, i64, i16, i8, [1 x i8], i8*, i64, %struct._IO_codecvt*, %struct._IO_wide_data*, %struct._IO_FILE*, i8*, i64, i32, [20 x i8] }
%struct._IO_marker = type opaque
%struct._IO_codecvt = type opaque
%struct._IO_wide_data = type opaque

@llvm.global_ctors = appending global [1 x { i32, void ()*, i8* }] [{ i32, void ()*, i8* } { i32 65535, void ()* @_GLOBAL__sub_I_MaximumPalindromes.cpp, i8* null }]
@_ZStL8__ioinit = internal global %"class.std::ios_base::Init" zeroinitializer, align 1
@_Z1SB5cxx11 = dso_local global %"class.std::__cxx11::basic_string" zeroinitializer, align 8
@N = dso_local global i32 0, align 4
@P = dso_local global [26 x [101010 x i32]] zeroinitializer, align 16
@Q = dso_local global i32 0, align 4
@L = dso_local global i32 0, align 4
@R = dso_local global i32 0, align 4
@mo = dso_local global i64 1000000007, align 8
@_ZSt3cin = external dso_local global %"class.std::basic_istream", align 8
@_ZL5factr = internal global [200004 x i64] zeroinitializer, align 16
@_ZL4fact = internal global [200004 x i64] zeroinitializer, align 16
@_ZL3inv = internal global [200004 x i64] zeroinitializer, align 16
@_ZSt4cout = external dso_local global %"class.std::basic_ostream", align 8
@stdin = external dso_local global %struct._IO_FILE*, align 8

; Function Attrs: noinline uwtable
define internal void @_GLOBAL__sub_I_MaximumPalindromes.cpp() #0 section ".text.startup" {
  call void @__cxx_global_var_init(), !llfi_index !4
  call void @__cxx_global_var_init.1(), !llfi_index !5
  ret void, !llfi_index !6
}

; Function Attrs: noinline uwtable
define internal void @__cxx_global_var_init() #0 section ".text.startup" {
  call void @_ZNSt8ios_base4InitC1Ev(%"class.std::ios_base::Init"* nonnull align 1 dereferenceable(1) @_ZStL8__ioinit), !llfi_index !7
  %1 = call i32 @atexit(void ()* @__dtor__ZStL8__ioinit) #2, !llfi_index !8
  ret void, !llfi_index !9
}

; Function Attrs: noinline uwtable
define internal void @__cxx_global_var_init.1() #0 section ".text.startup" {
  call void @_ZNSt7__cxx1112basic_stringIcSt11char_traitsIcESaIcEEC1Ev(%"class.std::__cxx11::basic_string"* nonnull align 8 dereferenceable(32) @_Z1SB5cxx11) #2, !llfi_index !10
  %1 = call i32 @atexit(void ()* @__dtor__Z1SB5cxx11) #2, !llfi_index !11
  ret void, !llfi_index !12
}

; Function Attrs: nounwind
declare dso_local void @_ZNSt7__cxx1112basic_stringIcSt11char_traitsIcESaIcEEC1Ev(%"class.std::__cxx11::basic_string"* nonnull align 8 dereferenceable(32)) unnamed_addr #1

; Function Attrs: noinline uwtable
define internal void @__dtor__Z1SB5cxx11() #0 section ".text.startup" {
  call void @_ZNSt7__cxx1112basic_stringIcSt11char_traitsIcESaIcEED1Ev(%"class.std::__cxx11::basic_string"* @_Z1SB5cxx11), !llfi_index !13
  ret void, !llfi_index !14
}

; Function Attrs: nounwind
declare dso_local i32 @atexit(void ()*) #2

; Function Attrs: nounwind
declare dso_local void @_ZNSt7__cxx1112basic_stringIcSt11char_traitsIcESaIcEED1Ev(%"class.std::__cxx11::basic_string"* nonnull align 8 dereferenceable(32)) unnamed_addr #1

declare dso_local void @_ZNSt8ios_base4InitC1Ev(%"class.std::ios_base::Init"* nonnull align 1 dereferenceable(1)) unnamed_addr #3

; Function Attrs: noinline uwtable
define internal void @__dtor__ZStL8__ioinit() #0 section ".text.startup" {
  call void @_ZNSt8ios_base4InitD1Ev(%"class.std::ios_base::Init"* @_ZStL8__ioinit), !llfi_index !15
  ret void, !llfi_index !16
}

; Function Attrs: nounwind
declare dso_local void @_ZNSt8ios_base4InitD1Ev(%"class.std::ios_base::Init"* nonnull align 1 dereferenceable(1)) unnamed_addr #1

; Function Attrs: mustprogress noinline uwtable
define dso_local void @_Z5solvev() #4 personality i8* bitcast (i32 (...)* @__gxx_personality_v0 to i8*) {
  %1 = alloca i32, align 4, !llfi_index !17
  %2 = alloca i32, align 4, !llfi_index !18
  %3 = alloca i32, align 4, !llfi_index !19
  %4 = alloca i32, align 4, !llfi_index !20
  %5 = alloca i32, align 4, !llfi_index !21
  %6 = alloca i32, align 4, !llfi_index !22
  %7 = alloca i32, align 4, !llfi_index !23
  %8 = alloca %"class.std::__cxx11::basic_string", align 8, !llfi_index !24
  %9 = alloca i8*, align 8, !llfi_index !25
  %10 = alloca i32, align 4, !llfi_index !26
  %11 = alloca i32, align 4, !llfi_index !27
  %12 = alloca i32, align 4, !llfi_index !28
  %13 = alloca [26 x i32], align 16, !llfi_index !29
  %14 = alloca i32, align 4, !llfi_index !30
  %15 = alloca i32, align 4, !llfi_index !31
  %16 = alloca i64, align 8, !llfi_index !32
  call void @_ZNSt7__cxx1112basic_stringIcSt11char_traitsIcESaIcEEC1Ev(%"class.std::__cxx11::basic_string"* nonnull align 8 dereferenceable(32) %8) #2, !llfi_index !33
  %17 = invoke nonnull align 8 dereferenceable(16) %"class.std::basic_istream"* @_ZStrsIcSt11char_traitsIcESaIcEERSt13basic_istreamIT_T0_ES7_RNSt7__cxx1112basic_stringIS4_S5_T1_EE(%"class.std::basic_istream"* nonnull align 8 dereferenceable(16) @_ZSt3cin, %"class.std::__cxx11::basic_string"* nonnull align 8 dereferenceable(32) @_Z1SB5cxx11)
          to label %18 unwind label %58, !llfi_index !34

18:                                               ; preds = %0
  %19 = call i64 @_ZNKSt7__cxx1112basic_stringIcSt11char_traitsIcESaIcEE4sizeEv(%"class.std::__cxx11::basic_string"* nonnull align 8 dereferenceable(32) @_Z1SB5cxx11) #2, !llfi_index !35
  %20 = trunc i64 %19 to i32, !llfi_index !36
  store i32 %20, i32* @N, align 4, !llfi_index !37
  store i32 0, i32* %1, align 4, !llfi_index !38
  br label %21, !llfi_index !39

21:                                               ; preds = %63, %18
  %22 = load i32, i32* %1, align 4, !llfi_index !40
  %23 = icmp slt i32 %22, 26, !llfi_index !41
  br i1 %23, label %24, label %66, !llfi_index !42

24:                                               ; preds = %21
  store i32 0, i32* %6, align 4, !llfi_index !43
  br label %25, !llfi_index !44

25:                                               ; preds = %55, %24
  %26 = load i32, i32* %6, align 4, !llfi_index !45
  %27 = load i32, i32* @N, align 4, !llfi_index !46
  %28 = icmp slt i32 %26, %27, !llfi_index !47
  br i1 %28, label %29, label %62, !llfi_index !48

29:                                               ; preds = %25
  %30 = load i32, i32* %1, align 4, !llfi_index !49
  %31 = sext i32 %30 to i64, !llfi_index !50
  %32 = getelementptr inbounds [26 x [101010 x i32]], [26 x [101010 x i32]]* @P, i64 0, i64 %31, !llfi_index !51
  %33 = load i32, i32* %6, align 4, !llfi_index !52
  %34 = sext i32 %33 to i64, !llfi_index !53
  %35 = getelementptr inbounds [101010 x i32], [101010 x i32]* %32, i64 0, i64 %34, !llfi_index !54
  %36 = load i32, i32* %35, align 4, !llfi_index !55
  %37 = load i32, i32* %6, align 4, !llfi_index !56
  %38 = sext i32 %37 to i64, !llfi_index !57
  %39 = invoke nonnull align 1 dereferenceable(1) i8* @_ZNSt7__cxx1112basic_stringIcSt11char_traitsIcESaIcEEixEm(%"class.std::__cxx11::basic_string"* nonnull align 8 dereferenceable(32) @_Z1SB5cxx11, i64 %38)
          to label %40 unwind label %58, !llfi_index !58

40:                                               ; preds = %29
  %41 = load i8, i8* %39, align 1, !llfi_index !59
  %42 = sext i8 %41 to i32, !llfi_index !60
  %43 = load i32, i32* %1, align 4, !llfi_index !61
  %44 = add nsw i32 97, %43, !llfi_index !62
  %45 = icmp eq i32 %42, %44, !llfi_index !63
  %46 = zext i1 %45 to i32, !llfi_index !64
  %47 = add nsw i32 %36, %46, !llfi_index !65
  %48 = load i32, i32* %1, align 4, !llfi_index !66
  %49 = sext i32 %48 to i64, !llfi_index !67
  %50 = getelementptr inbounds [26 x [101010 x i32]], [26 x [101010 x i32]]* @P, i64 0, i64 %49, !llfi_index !68
  %51 = load i32, i32* %6, align 4, !llfi_index !69
  %52 = add nsw i32 %51, 1, !llfi_index !70
  %53 = sext i32 %52 to i64, !llfi_index !71
  %54 = getelementptr inbounds [101010 x i32], [101010 x i32]* %50, i64 0, i64 %53, !llfi_index !72
  store i32 %47, i32* %54, align 4, !llfi_index !73
  br label %55, !llfi_index !74

55:                                               ; preds = %40
  %56 = load i32, i32* %6, align 4, !llfi_index !75
  %57 = add nsw i32 %56, 1, !llfi_index !76
  store i32 %57, i32* %6, align 4, !llfi_index !77
  br label %25, !llvm.loop !78, !llfi_index !80

58:                                               ; preds = %235, %232, %137, %135, %128, %29, %0
  %59 = landingpad { i8*, i32 }
          cleanup, !llfi_index !81
  %60 = extractvalue { i8*, i32 } %59, 0, !llfi_index !82
  store i8* %60, i8** %9, align 8, !llfi_index !83
  %61 = extractvalue { i8*, i32 } %59, 1, !llfi_index !84
  store i32 %61, i32* %10, align 4, !llfi_index !85
  call void @_ZNSt7__cxx1112basic_stringIcSt11char_traitsIcESaIcEED1Ev(%"class.std::__cxx11::basic_string"* nonnull align 8 dereferenceable(32) %8) #2, !llfi_index !86
  br label %239, !llfi_index !87

62:                                               ; preds = %25
  br label %63, !llfi_index !88

63:                                               ; preds = %62
  %64 = load i32, i32* %1, align 4, !llfi_index !89
  %65 = add nsw i32 %64, 1, !llfi_index !90
  store i32 %65, i32* %1, align 4, !llfi_index !91
  br label %21, !llvm.loop !92, !llfi_index !93

66:                                               ; preds = %21
  store i64 1, i64* getelementptr inbounds ([200004 x i64], [200004 x i64]* @_ZL5factr, i64 0, i64 0), align 16, !llfi_index !94
  store i64 1, i64* getelementptr inbounds ([200004 x i64], [200004 x i64]* @_ZL4fact, i64 0, i64 0), align 16, !llfi_index !95
  store i64 1, i64* getelementptr inbounds ([200004 x i64], [200004 x i64]* @_ZL3inv, i64 0, i64 1), align 8, !llfi_index !96
  store i32 2, i32* %11, align 4, !llfi_index !97
  br label %67, !llfi_index !98

67:                                               ; preds = %89, %66
  %68 = load i32, i32* %11, align 4, !llfi_index !99
  %69 = icmp sle i32 %68, 200003, !llfi_index !100
  br i1 %69, label %70, label %92, !llfi_index !101

70:                                               ; preds = %67
  %71 = load i64, i64* @mo, align 8, !llfi_index !102
  %72 = load i32, i32* %11, align 4, !llfi_index !103
  %73 = sext i32 %72 to i64, !llfi_index !104
  %74 = srem i64 %71, %73, !llfi_index !105
  %75 = getelementptr inbounds [200004 x i64], [200004 x i64]* @_ZL3inv, i64 0, i64 %74, !llfi_index !106
  %76 = load i64, i64* %75, align 8, !llfi_index !107
  %77 = load i64, i64* @mo, align 8, !llfi_index !108
  %78 = load i64, i64* @mo, align 8, !llfi_index !109
  %79 = load i32, i32* %11, align 4, !llfi_index !110
  %80 = sext i32 %79 to i64, !llfi_index !111
  %81 = sdiv i64 %78, %80, !llfi_index !112
  %82 = sub nsw i64 %77, %81, !llfi_index !113
  %83 = mul nsw i64 %76, %82, !llfi_index !114
  %84 = load i64, i64* @mo, align 8, !llfi_index !115
  %85 = srem i64 %83, %84, !llfi_index !116
  %86 = load i32, i32* %11, align 4, !llfi_index !117
  %87 = sext i32 %86 to i64, !llfi_index !118
  %88 = getelementptr inbounds [200004 x i64], [200004 x i64]* @_ZL3inv, i64 0, i64 %87, !llfi_index !119
  store i64 %85, i64* %88, align 8, !llfi_index !120
  br label %89, !llfi_index !121

89:                                               ; preds = %70
  %90 = load i32, i32* %11, align 4, !llfi_index !122
  %91 = add nsw i32 %90, 1, !llfi_index !123
  store i32 %91, i32* %11, align 4, !llfi_index !124
  br label %67, !llvm.loop !125, !llfi_index !126

92:                                               ; preds = %67
  store i32 1, i32* %12, align 4, !llfi_index !127
  br label %93, !llfi_index !128

93:                                               ; preds = %125, %92
  %94 = load i32, i32* %12, align 4, !llfi_index !129
  %95 = icmp sle i32 %94, 200003, !llfi_index !130
  br i1 %95, label %96, label %128, !llfi_index !131

96:                                               ; preds = %93
  %97 = load i32, i32* %12, align 4, !llfi_index !132
  %98 = sub nsw i32 %97, 1, !llfi_index !133
  %99 = sext i32 %98 to i64, !llfi_index !134
  %100 = getelementptr inbounds [200004 x i64], [200004 x i64]* @_ZL4fact, i64 0, i64 %99, !llfi_index !135
  %101 = load i64, i64* %100, align 8, !llfi_index !136
  %102 = load i32, i32* %12, align 4, !llfi_index !137
  %103 = sext i32 %102 to i64, !llfi_index !138
  %104 = mul nsw i64 %101, %103, !llfi_index !139
  %105 = load i64, i64* @mo, align 8, !llfi_index !140
  %106 = srem i64 %104, %105, !llfi_index !141
  %107 = load i32, i32* %12, align 4, !llfi_index !142
  %108 = sext i32 %107 to i64, !llfi_index !143
  %109 = getelementptr inbounds [200004 x i64], [200004 x i64]* @_ZL4fact, i64 0, i64 %108, !llfi_index !144
  store i64 %106, i64* %109, align 8, !llfi_index !145
  %110 = load i32, i32* %12, align 4, !llfi_index !146
  %111 = sub nsw i32 %110, 1, !llfi_index !147
  %112 = sext i32 %111 to i64, !llfi_index !148
  %113 = getelementptr inbounds [200004 x i64], [200004 x i64]* @_ZL5factr, i64 0, i64 %112, !llfi_index !149
  %114 = load i64, i64* %113, align 8, !llfi_index !150
  %115 = load i32, i32* %12, align 4, !llfi_index !151
  %116 = sext i32 %115 to i64, !llfi_index !152
  %117 = getelementptr inbounds [200004 x i64], [200004 x i64]* @_ZL3inv, i64 0, i64 %116, !llfi_index !153
  %118 = load i64, i64* %117, align 8, !llfi_index !154
  %119 = mul nsw i64 %114, %118, !llfi_index !155
  %120 = load i64, i64* @mo, align 8, !llfi_index !156
  %121 = srem i64 %119, %120, !llfi_index !157
  %122 = load i32, i32* %12, align 4, !llfi_index !158
  %123 = sext i32 %122 to i64, !llfi_index !159
  %124 = getelementptr inbounds [200004 x i64], [200004 x i64]* @_ZL5factr, i64 0, i64 %123, !llfi_index !160
  store i64 %121, i64* %124, align 8, !llfi_index !161
  br label %125, !llfi_index !162

125:                                              ; preds = %96
  %126 = load i32, i32* %12, align 4, !llfi_index !163
  %127 = add nsw i32 %126, 1, !llfi_index !164
  store i32 %127, i32* %12, align 4, !llfi_index !165
  br label %93, !llvm.loop !166, !llfi_index !167

128:                                              ; preds = %93
  %129 = invoke nonnull align 8 dereferenceable(16) %"class.std::basic_istream"* @_ZNSirsERi(%"class.std::basic_istream"* nonnull align 8 dereferenceable(16) @_ZSt3cin, i32* nonnull align 4 dereferenceable(4) @Q)
          to label %130 unwind label %58, !llfi_index !168

130:                                              ; preds = %128
  br label %131, !llfi_index !169

131:                                              ; preds = %237, %130
  %132 = load i32, i32* @Q, align 4, !llfi_index !170
  %133 = add nsw i32 %132, -1, !llfi_index !171
  store i32 %133, i32* @Q, align 4, !llfi_index !172
  %134 = icmp ne i32 %132, 0, !llfi_index !173
  br i1 %134, label %135, label %238, !llfi_index !174

135:                                              ; preds = %131
  %136 = invoke nonnull align 8 dereferenceable(16) %"class.std::basic_istream"* @_ZNSirsERi(%"class.std::basic_istream"* nonnull align 8 dereferenceable(16) @_ZSt3cin, i32* nonnull align 4 dereferenceable(4) @L)
          to label %137 unwind label %58, !llfi_index !175

137:                                              ; preds = %135
  %138 = invoke nonnull align 8 dereferenceable(16) %"class.std::basic_istream"* @_ZNSirsERi(%"class.std::basic_istream"* nonnull align 8 dereferenceable(16) %136, i32* nonnull align 4 dereferenceable(4) @R)
          to label %139 unwind label %58, !llfi_index !176

139:                                              ; preds = %137
  %140 = load i32, i32* @L, align 4, !llfi_index !177
  %141 = add nsw i32 %140, -1, !llfi_index !178
  store i32 %141, i32* @L, align 4, !llfi_index !179
  %142 = bitcast [26 x i32]* %13 to i8*, !llfi_index !180
  call void @llvm.memset.p0i8.i64(i8* align 16 %142, i8 0, i64 104, i1 false), !llfi_index !181
  store i32 0, i32* %14, align 4, !llfi_index !182
  store i32 0, i32* %15, align 4, !llfi_index !183
  store i32 0, i32* %1, align 4, !llfi_index !184
  br label %143, !llfi_index !185

143:                                              ; preds = %193, %139
  %144 = load i32, i32* %1, align 4, !llfi_index !186
  %145 = icmp slt i32 %144, 26, !llfi_index !187
  br i1 %145, label %146, label %196, !llfi_index !188

146:                                              ; preds = %143
  %147 = load i32, i32* %1, align 4, !llfi_index !189
  %148 = sext i32 %147 to i64, !llfi_index !190
  %149 = getelementptr inbounds [26 x [101010 x i32]], [26 x [101010 x i32]]* @P, i64 0, i64 %148, !llfi_index !191
  %150 = load i32, i32* @R, align 4, !llfi_index !192
  %151 = sext i32 %150 to i64, !llfi_index !193
  %152 = getelementptr inbounds [101010 x i32], [101010 x i32]* %149, i64 0, i64 %151, !llfi_index !194
  %153 = load i32, i32* %152, align 4, !llfi_index !195
  %154 = load i32, i32* %1, align 4, !llfi_index !196
  %155 = sext i32 %154 to i64, !llfi_index !197
  %156 = getelementptr inbounds [26 x [101010 x i32]], [26 x [101010 x i32]]* @P, i64 0, i64 %155, !llfi_index !198
  %157 = load i32, i32* @L, align 4, !llfi_index !199
  %158 = sext i32 %157 to i64, !llfi_index !200
  %159 = getelementptr inbounds [101010 x i32], [101010 x i32]* %156, i64 0, i64 %158, !llfi_index !201
  %160 = load i32, i32* %159, align 4, !llfi_index !202
  %161 = sub nsw i32 %153, %160, !llfi_index !203
  %162 = sdiv i32 %161, 2, !llfi_index !204
  %163 = load i32, i32* %1, align 4, !llfi_index !205
  %164 = sext i32 %163 to i64, !llfi_index !206
  %165 = getelementptr inbounds [26 x i32], [26 x i32]* %13, i64 0, i64 %164, !llfi_index !207
  store i32 %162, i32* %165, align 4, !llfi_index !208
  %166 = load i32, i32* %1, align 4, !llfi_index !209
  %167 = sext i32 %166 to i64, !llfi_index !210
  %168 = getelementptr inbounds [26 x i32], [26 x i32]* %13, i64 0, i64 %167, !llfi_index !211
  %169 = load i32, i32* %168, align 4, !llfi_index !212
  %170 = load i32, i32* %15, align 4, !llfi_index !213
  %171 = add nsw i32 %170, %169, !llfi_index !214
  store i32 %171, i32* %15, align 4, !llfi_index !215
  %172 = load i32, i32* %1, align 4, !llfi_index !216
  %173 = sext i32 %172 to i64, !llfi_index !217
  %174 = getelementptr inbounds [26 x [101010 x i32]], [26 x [101010 x i32]]* @P, i64 0, i64 %173, !llfi_index !218
  %175 = load i32, i32* @R, align 4, !llfi_index !219
  %176 = sext i32 %175 to i64, !llfi_index !220
  %177 = getelementptr inbounds [101010 x i32], [101010 x i32]* %174, i64 0, i64 %176, !llfi_index !221
  %178 = load i32, i32* %177, align 4, !llfi_index !222
  %179 = load i32, i32* %1, align 4, !llfi_index !223
  %180 = sext i32 %179 to i64, !llfi_index !224
  %181 = getelementptr inbounds [26 x [101010 x i32]], [26 x [101010 x i32]]* @P, i64 0, i64 %180, !llfi_index !225
  %182 = load i32, i32* @L, align 4, !llfi_index !226
  %183 = sext i32 %182 to i64, !llfi_index !227
  %184 = getelementptr inbounds [101010 x i32], [101010 x i32]* %181, i64 0, i64 %183, !llfi_index !228
  %185 = load i32, i32* %184, align 4, !llfi_index !229
  %186 = sub nsw i32 %178, %185, !llfi_index !230
  %187 = and i32 %186, 1, !llfi_index !231
  %188 = icmp ne i32 %187, 0, !llfi_index !232
  br i1 %188, label %189, label %192, !llfi_index !233

189:                                              ; preds = %146
  %190 = load i32, i32* %14, align 4, !llfi_index !234
  %191 = add nsw i32 %190, 1, !llfi_index !235
  store i32 %191, i32* %14, align 4, !llfi_index !236
  br label %192, !llfi_index !237

192:                                              ; preds = %189, %146
  br label %193, !llfi_index !238

193:                                              ; preds = %192
  %194 = load i32, i32* %1, align 4, !llfi_index !239
  %195 = add nsw i32 %194, 1, !llfi_index !240
  store i32 %195, i32* %1, align 4, !llfi_index !241
  br label %143, !llvm.loop !242, !llfi_index !243

196:                                              ; preds = %143
  %197 = load i32, i32* %14, align 4, !llfi_index !244
  %198 = icmp ne i32 %197, 0, !llfi_index !245
  br i1 %198, label %199, label %201, !llfi_index !246

199:                                              ; preds = %196
  %200 = load i32, i32* %14, align 4, !llfi_index !247
  br label %202, !llfi_index !248

201:                                              ; preds = %196
  br label %202, !llfi_index !249

202:                                              ; preds = %201, %199
  %203 = phi i32 [ %200, %199 ], [ 1, %201 ], !llfi_index !250
  %204 = sext i32 %203 to i64, !llfi_index !251
  store i64 %204, i64* %16, align 8, !llfi_index !252
  %205 = load i64, i64* @mo, align 8, !llfi_index !253
  %206 = load i32, i32* %15, align 4, !llfi_index !254
  %207 = sext i32 %206 to i64, !llfi_index !255
  %208 = getelementptr inbounds [200004 x i64], [200004 x i64]* @_ZL4fact, i64 0, i64 %207, !llfi_index !256
  %209 = load i64, i64* %208, align 8, !llfi_index !257
  %210 = load i64, i64* %16, align 8, !llfi_index !258
  %211 = mul nsw i64 %210, %209, !llfi_index !259
  store i64 %211, i64* %16, align 8, !llfi_index !260
  %212 = load i64, i64* %16, align 8, !llfi_index !261
  %213 = srem i64 %212, %205, !llfi_index !262
  store i64 %213, i64* %16, align 8, !llfi_index !263
  store i32 0, i32* %1, align 4, !llfi_index !264
  br label %214, !llfi_index !265

214:                                              ; preds = %229, %202
  %215 = load i32, i32* %1, align 4, !llfi_index !266
  %216 = icmp slt i32 %215, 26, !llfi_index !267
  br i1 %216, label %217, label %232, !llfi_index !268

217:                                              ; preds = %214
  %218 = load i64, i64* %16, align 8, !llfi_index !269
  %219 = load i32, i32* %1, align 4, !llfi_index !270
  %220 = sext i32 %219 to i64, !llfi_index !271
  %221 = getelementptr inbounds [26 x i32], [26 x i32]* %13, i64 0, i64 %220, !llfi_index !272
  %222 = load i32, i32* %221, align 4, !llfi_index !273
  %223 = sext i32 %222 to i64, !llfi_index !274
  %224 = getelementptr inbounds [200004 x i64], [200004 x i64]* @_ZL5factr, i64 0, i64 %223, !llfi_index !275
  %225 = load i64, i64* %224, align 8, !llfi_index !276
  %226 = mul nsw i64 %218, %225, !llfi_index !277
  %227 = load i64, i64* @mo, align 8, !llfi_index !278
  %228 = srem i64 %226, %227, !llfi_index !279
  store i64 %228, i64* %16, align 8, !llfi_index !280
  br label %229, !llfi_index !281

229:                                              ; preds = %217
  %230 = load i32, i32* %1, align 4, !llfi_index !282
  %231 = add nsw i32 %230, 1, !llfi_index !283
  store i32 %231, i32* %1, align 4, !llfi_index !284
  br label %214, !llvm.loop !285, !llfi_index !286

232:                                              ; preds = %214
  %233 = load i64, i64* %16, align 8, !llfi_index !287
  %234 = invoke nonnull align 8 dereferenceable(8) %"class.std::basic_ostream"* @_ZNSolsEx(%"class.std::basic_ostream"* nonnull align 8 dereferenceable(8) @_ZSt4cout, i64 %233)
          to label %235 unwind label %58, !llfi_index !288

235:                                              ; preds = %232
  %236 = invoke nonnull align 8 dereferenceable(8) %"class.std::basic_ostream"* @_ZNSolsEPFRSoS_E(%"class.std::basic_ostream"* nonnull align 8 dereferenceable(8) %234, %"class.std::basic_ostream"* (%"class.std::basic_ostream"*)* @_ZSt4endlIcSt11char_traitsIcEERSt13basic_ostreamIT_T0_ES6_)
          to label %237 unwind label %58, !llfi_index !289

237:                                              ; preds = %235
  br label %131, !llvm.loop !290, !llfi_index !291

238:                                              ; preds = %131
  call void @_ZNSt7__cxx1112basic_stringIcSt11char_traitsIcESaIcEED1Ev(%"class.std::__cxx11::basic_string"* nonnull align 8 dereferenceable(32) %8) #2, !llfi_index !292
  ret void, !llfi_index !293

239:                                              ; preds = %58
  %240 = load i8*, i8** %9, align 8, !llfi_index !294
  %241 = load i32, i32* %10, align 4, !llfi_index !295
  %242 = insertvalue { i8*, i32 } undef, i8* %240, 0, !llfi_index !296
  %243 = insertvalue { i8*, i32 } %242, i32 %241, 1, !llfi_index !297
  resume { i8*, i32 } %243, !llfi_index !298
}

declare dso_local i32 @__gxx_personality_v0(...)

declare dso_local nonnull align 8 dereferenceable(16) %"class.std::basic_istream"* @_ZStrsIcSt11char_traitsIcESaIcEERSt13basic_istreamIT_T0_ES7_RNSt7__cxx1112basic_stringIS4_S5_T1_EE(%"class.std::basic_istream"* nonnull align 8 dereferenceable(16), %"class.std::__cxx11::basic_string"* nonnull align 8 dereferenceable(32)) #3

; Function Attrs: nounwind
declare dso_local i64 @_ZNKSt7__cxx1112basic_stringIcSt11char_traitsIcESaIcEE4sizeEv(%"class.std::__cxx11::basic_string"* nonnull align 8 dereferenceable(32)) #1

declare dso_local nonnull align 1 dereferenceable(1) i8* @_ZNSt7__cxx1112basic_stringIcSt11char_traitsIcESaIcEEixEm(%"class.std::__cxx11::basic_string"* nonnull align 8 dereferenceable(32), i64) #3

declare dso_local nonnull align 8 dereferenceable(16) %"class.std::basic_istream"* @_ZNSirsERi(%"class.std::basic_istream"* nonnull align 8 dereferenceable(16), i32* nonnull align 4 dereferenceable(4)) #3

; Function Attrs: argmemonly nofree nounwind willreturn writeonly
declare void @llvm.memset.p0i8.i64(i8* nocapture writeonly, i8, i64, i1 immarg) #5

declare dso_local nonnull align 8 dereferenceable(8) %"class.std::basic_ostream"* @_ZNSolsEx(%"class.std::basic_ostream"* nonnull align 8 dereferenceable(8), i64) #3

declare dso_local nonnull align 8 dereferenceable(8) %"class.std::basic_ostream"* @_ZSt4endlIcSt11char_traitsIcEERSt13basic_ostreamIT_T0_ES6_(%"class.std::basic_ostream"* nonnull align 8 dereferenceable(8)) #3

declare dso_local nonnull align 8 dereferenceable(8) %"class.std::basic_ostream"* @_ZNSolsEPFRSoS_E(%"class.std::basic_ostream"* nonnull align 8 dereferenceable(8), %"class.std::basic_ostream"* (%"class.std::basic_ostream"*)*) #3

; Function Attrs: mustprogress noinline norecurse uwtable
define dso_local i32 @main(i32 %0, i8** %1) #6 personality i8* bitcast (i32 (...)* @__gxx_personality_v0 to i8*) {
  %3 = alloca i32, align 4, !llfi_index !299
  %4 = alloca i32, align 4, !llfi_index !300
  %5 = alloca i8**, align 8, !llfi_index !301
  %6 = alloca %"class.std::__cxx11::basic_string", align 8, !llfi_index !302
  %7 = alloca i32, align 4, !llfi_index !303
  %8 = alloca i8*, align 8, !llfi_index !304
  %9 = alloca i32, align 4, !llfi_index !305
  %10 = alloca i32, align 4, !llfi_index !306
  store i32 0, i32* %3, align 4, !llfi_index !307
  store i32 %0, i32* %4, align 4, !llfi_index !308
  store i8** %1, i8*** %5, align 8, !llfi_index !309
  call void @_ZNSt7__cxx1112basic_stringIcSt11char_traitsIcESaIcEEC1Ev(%"class.std::__cxx11::basic_string"* nonnull align 8 dereferenceable(32) %6) #2, !llfi_index !310
  %11 = load i32, i32* %4, align 4, !llfi_index !311
  %12 = icmp eq i32 %11, 1, !llfi_index !312
  br i1 %12, label %13, label %28, !llfi_index !313

13:                                               ; preds = %2
  %14 = invoke zeroext i1 @_ZNSt8ios_base15sync_with_stdioEb(i1 zeroext false)
          to label %15 unwind label %24, !llfi_index !314

15:                                               ; preds = %13
  %16 = load i8*, i8** bitcast (%"class.std::basic_istream"* @_ZSt3cin to i8**), align 8, !llfi_index !315
  %17 = getelementptr i8, i8* %16, i64 -24, !llfi_index !316
  %18 = bitcast i8* %17 to i64*, !llfi_index !317
  %19 = load i64, i64* %18, align 8, !llfi_index !318
  %20 = getelementptr inbounds i8, i8* bitcast (%"class.std::basic_istream"* @_ZSt3cin to i8*), i64 %19, !llfi_index !319
  %21 = bitcast i8* %20 to %"class.std::basic_ios"*, !llfi_index !320
  %22 = invoke %"class.std::basic_ostream"* @_ZNSt9basic_iosIcSt11char_traitsIcEE3tieEPSo(%"class.std::basic_ios"* nonnull align 8 dereferenceable(264) %21, %"class.std::basic_ostream"* null)
          to label %23 unwind label %24, !llfi_index !321

23:                                               ; preds = %15
  br label %28, !llfi_index !322

24:                                               ; preds = %78, %70, %61, %54, %42, %34, %15, %13
  %25 = landingpad { i8*, i32 }
          cleanup, !llfi_index !323
  %26 = extractvalue { i8*, i32 } %25, 0, !llfi_index !324
  store i8* %26, i8** %8, align 8, !llfi_index !325
  %27 = extractvalue { i8*, i32 } %25, 1, !llfi_index !326
  store i32 %27, i32* %9, align 4, !llfi_index !327
  call void @_ZNSt7__cxx1112basic_stringIcSt11char_traitsIcESaIcEED1Ev(%"class.std::__cxx11::basic_string"* nonnull align 8 dereferenceable(32) %6) #2, !llfi_index !328
  br label %81, !llfi_index !329

28:                                               ; preds = %23, %2
  store i32 89, i32* %10, align 4, !llfi_index !330
  store i32 0, i32* %7, align 4, !llfi_index !331
  br label %29, !llfi_index !332

29:                                               ; preds = %45, %28
  %30 = load i32, i32* %7, align 4, !llfi_index !333
  %31 = load i32, i32* %4, align 4, !llfi_index !334
  %32 = sub nsw i32 %31, 1, !llfi_index !335
  %33 = icmp slt i32 %30, %32, !llfi_index !336
  br i1 %33, label %34, label %48, !llfi_index !337

34:                                               ; preds = %29
  %35 = load i8**, i8*** %5, align 8, !llfi_index !338
  %36 = load i32, i32* %7, align 4, !llfi_index !339
  %37 = add nsw i32 %36, 1, !llfi_index !340
  %38 = sext i32 %37 to i64, !llfi_index !341
  %39 = getelementptr inbounds i8*, i8** %35, i64 %38, !llfi_index !342
  %40 = load i8*, i8** %39, align 8, !llfi_index !343
  %41 = invoke nonnull align 8 dereferenceable(32) %"class.std::__cxx11::basic_string"* @_ZNSt7__cxx1112basic_stringIcSt11char_traitsIcESaIcEEpLEPKc(%"class.std::__cxx11::basic_string"* nonnull align 8 dereferenceable(32) %6, i8* %40)
          to label %42 unwind label %24, !llfi_index !344

42:                                               ; preds = %34
  %43 = invoke nonnull align 8 dereferenceable(32) %"class.std::__cxx11::basic_string"* @_ZNSt7__cxx1112basic_stringIcSt11char_traitsIcESaIcEEpLEc(%"class.std::__cxx11::basic_string"* nonnull align 8 dereferenceable(32) %6, i8 signext 10)
          to label %44 unwind label %24, !llfi_index !345

44:                                               ; preds = %42
  br label %45, !llfi_index !346

45:                                               ; preds = %44
  %46 = load i32, i32* %7, align 4, !llfi_index !347
  %47 = add nsw i32 %46, 1, !llfi_index !348
  store i32 %47, i32* %7, align 4, !llfi_index !349
  br label %29, !llvm.loop !350, !llfi_index !351

48:                                               ; preds = %29
  store i32 89, i32* %10, align 4, !llfi_index !352
  store i32 0, i32* %7, align 4, !llfi_index !353
  br label %49, !llfi_index !354

49:                                               ; preds = %67, %48
  %50 = load i32, i32* %7, align 4, !llfi_index !355
  %51 = sext i32 %50 to i64, !llfi_index !356
  %52 = call i64 @_ZNKSt7__cxx1112basic_stringIcSt11char_traitsIcESaIcEE4sizeEv(%"class.std::__cxx11::basic_string"* nonnull align 8 dereferenceable(32) %6) #2, !llfi_index !357
  %53 = icmp ult i64 %51, %52, !llfi_index !358
  br i1 %53, label %54, label %70, !llfi_index !359

54:                                               ; preds = %49
  %55 = call i64 @_ZNKSt7__cxx1112basic_stringIcSt11char_traitsIcESaIcEE4sizeEv(%"class.std::__cxx11::basic_string"* nonnull align 8 dereferenceable(32) %6) #2, !llfi_index !360
  %56 = sub i64 %55, 1, !llfi_index !361
  %57 = load i32, i32* %7, align 4, !llfi_index !362
  %58 = sext i32 %57 to i64, !llfi_index !363
  %59 = sub i64 %56, %58, !llfi_index !364
  %60 = invoke nonnull align 1 dereferenceable(1) i8* @_ZNSt7__cxx1112basic_stringIcSt11char_traitsIcESaIcEEixEm(%"class.std::__cxx11::basic_string"* nonnull align 8 dereferenceable(32) %6, i64 %59)
          to label %61 unwind label %24, !llfi_index !365

61:                                               ; preds = %54
  %62 = load i8, i8* %60, align 1, !llfi_index !366
  %63 = sext i8 %62 to i32, !llfi_index !367
  %64 = load %struct._IO_FILE*, %struct._IO_FILE** @stdin, align 8, !llfi_index !368
  %65 = invoke i32 @ungetc(i32 %63, %struct._IO_FILE* %64)
          to label %66 unwind label %24, !llfi_index !369

66:                                               ; preds = %61
  br label %67, !llfi_index !370

67:                                               ; preds = %66
  %68 = load i32, i32* %7, align 4, !llfi_index !371
  %69 = add nsw i32 %68, 1, !llfi_index !372
  store i32 %69, i32* %7, align 4, !llfi_index !373
  br label %49, !llvm.loop !374, !llfi_index !375

70:                                               ; preds = %49
  %71 = load i8*, i8** bitcast (%"class.std::basic_ostream"* @_ZSt4cout to i8**), align 8, !llfi_index !376
  %72 = getelementptr i8, i8* %71, i64 -24, !llfi_index !377
  %73 = bitcast i8* %72 to i64*, !llfi_index !378
  %74 = load i64, i64* %73, align 8, !llfi_index !379
  %75 = getelementptr inbounds i8, i8* bitcast (%"class.std::basic_ostream"* @_ZSt4cout to i8*), i64 %74, !llfi_index !380
  %76 = bitcast i8* %75 to %"class.std::basic_ios"*, !llfi_index !381
  %77 = invoke %"class.std::basic_ostream"* @_ZNSt9basic_iosIcSt11char_traitsIcEE3tieEPSo(%"class.std::basic_ios"* nonnull align 8 dereferenceable(264) %76, %"class.std::basic_ostream"* null)
          to label %78 unwind label %24, !llfi_index !382

78:                                               ; preds = %70
  store i32 89, i32* %10, align 4, !llfi_index !383
  invoke void @_Z5solvev()
          to label %79 unwind label %24, !llfi_index !384

79:                                               ; preds = %78
  store i32 0, i32* %3, align 4, !llfi_index !385
  call void @_ZNSt7__cxx1112basic_stringIcSt11char_traitsIcESaIcEED1Ev(%"class.std::__cxx11::basic_string"* nonnull align 8 dereferenceable(32) %6) #2, !llfi_index !386
  %80 = load i32, i32* %3, align 4, !llfi_index !387
  ret i32 %80, !llfi_index !388

81:                                               ; preds = %24
  %82 = load i8*, i8** %8, align 8, !llfi_index !389
  %83 = load i32, i32* %9, align 4, !llfi_index !390
  %84 = insertvalue { i8*, i32 } undef, i8* %82, 0, !llfi_index !391
  %85 = insertvalue { i8*, i32 } %84, i32 %83, 1, !llfi_index !392
  resume { i8*, i32 } %85, !llfi_index !393
}

declare dso_local zeroext i1 @_ZNSt8ios_base15sync_with_stdioEb(i1 zeroext) #3

declare dso_local %"class.std::basic_ostream"* @_ZNSt9basic_iosIcSt11char_traitsIcEE3tieEPSo(%"class.std::basic_ios"* nonnull align 8 dereferenceable(264), %"class.std::basic_ostream"*) #3

declare dso_local nonnull align 8 dereferenceable(32) %"class.std::__cxx11::basic_string"* @_ZNSt7__cxx1112basic_stringIcSt11char_traitsIcESaIcEEpLEPKc(%"class.std::__cxx11::basic_string"* nonnull align 8 dereferenceable(32), i8*) #3

declare dso_local nonnull align 8 dereferenceable(32) %"class.std::__cxx11::basic_string"* @_ZNSt7__cxx1112basic_stringIcSt11char_traitsIcESaIcEEpLEc(%"class.std::__cxx11::basic_string"* nonnull align 8 dereferenceable(32), i8 signext) #3

declare dso_local i32 @ungetc(i32, %struct._IO_FILE*) #3

attributes #0 = { noinline uwtable "frame-pointer"="all" "min-legal-vector-width"="0" "no-trapping-math"="true" "stack-protector-buffer-size"="8" "target-cpu"="x86-64" "target-features"="+cx8,+fxsr,+mmx,+sse,+sse2,+x87" "tune-cpu"="generic" }
attributes #1 = { nounwind "frame-pointer"="all" "no-trapping-math"="true" "stack-protector-buffer-size"="8" "target-cpu"="x86-64" "target-features"="+cx8,+fxsr,+mmx,+sse,+sse2,+x87" "tune-cpu"="generic" }
attributes #2 = { nounwind }
attributes #3 = { "frame-pointer"="all" "no-trapping-math"="true" "stack-protector-buffer-size"="8" "target-cpu"="x86-64" "target-features"="+cx8,+fxsr,+mmx,+sse,+sse2,+x87" "tune-cpu"="generic" }
attributes #4 = { mustprogress noinline uwtable "frame-pointer"="all" "min-legal-vector-width"="0" "no-trapping-math"="true" "stack-protector-buffer-size"="8" "target-cpu"="x86-64" "target-features"="+cx8,+fxsr,+mmx,+sse,+sse2,+x87" "tune-cpu"="generic" }
attributes #5 = { argmemonly nofree nounwind willreturn writeonly }
attributes #6 = { mustprogress noinline norecurse uwtable "frame-pointer"="all" "min-legal-vector-width"="0" "no-trapping-math"="true" "stack-protector-buffer-size"="8" "target-cpu"="x86-64" "target-features"="+cx8,+fxsr,+mmx,+sse,+sse2,+x87" "tune-cpu"="generic" }

!llvm.ident = !{!0}
!llvm.module.flags = !{!1, !2, !3}

!0 = !{!"clang version 13.0.0 (https://github.com/llvm/llvm-project.git d7b669b3a30345cfcdb2fde2af6f48aa4b94845d)"}
!1 = !{i32 1, !"wchar_size", i32 4}
!2 = !{i32 7, !"uwtable", i32 1}
!3 = !{i32 7, !"frame-pointer", i32 2}
!4 = !{i64 1}
!5 = !{i64 2}
!6 = !{i64 3}
!7 = !{i64 4}
!8 = !{i64 5}
!9 = !{i64 6}
!10 = !{i64 7}
!11 = !{i64 8}
!12 = !{i64 9}
!13 = !{i64 10}
!14 = !{i64 11}
!15 = !{i64 12}
!16 = !{i64 13}
!17 = !{i64 14}
!18 = !{i64 15}
!19 = !{i64 16}
!20 = !{i64 17}
!21 = !{i64 18}
!22 = !{i64 19}
!23 = !{i64 20}
!24 = !{i64 21}
!25 = !{i64 22}
!26 = !{i64 23}
!27 = !{i64 24}
!28 = !{i64 25}
!29 = !{i64 26}
!30 = !{i64 27}
!31 = !{i64 28}
!32 = !{i64 29}
!33 = !{i64 30}
!34 = !{i64 31}
!35 = !{i64 32}
!36 = !{i64 33}
!37 = !{i64 34}
!38 = !{i64 35}
!39 = !{i64 36}
!40 = !{i64 37}
!41 = !{i64 38}
!42 = !{i64 39}
!43 = !{i64 40}
!44 = !{i64 41}
!45 = !{i64 42}
!46 = !{i64 43}
!47 = !{i64 44}
!48 = !{i64 45}
!49 = !{i64 46}
!50 = !{i64 47}
!51 = !{i64 48}
!52 = !{i64 49}
!53 = !{i64 50}
!54 = !{i64 51}
!55 = !{i64 52}
!56 = !{i64 53}
!57 = !{i64 54}
!58 = !{i64 55}
!59 = !{i64 56}
!60 = !{i64 57}
!61 = !{i64 58}
!62 = !{i64 59}
!63 = !{i64 60}
!64 = !{i64 61}
!65 = !{i64 62}
!66 = !{i64 63}
!67 = !{i64 64}
!68 = !{i64 65}
!69 = !{i64 66}
!70 = !{i64 67}
!71 = !{i64 68}
!72 = !{i64 69}
!73 = !{i64 70}
!74 = !{i64 71}
!75 = !{i64 72}
!76 = !{i64 73}
!77 = !{i64 74}
!78 = distinct !{!78, !79}
!79 = !{!"llvm.loop.mustprogress"}
!80 = !{i64 75}
!81 = !{i64 76}
!82 = !{i64 77}
!83 = !{i64 78}
!84 = !{i64 79}
!85 = !{i64 80}
!86 = !{i64 81}
!87 = !{i64 82}
!88 = !{i64 83}
!89 = !{i64 84}
!90 = !{i64 85}
!91 = !{i64 86}
!92 = distinct !{!92, !79}
!93 = !{i64 87}
!94 = !{i64 88}
!95 = !{i64 89}
!96 = !{i64 90}
!97 = !{i64 91}
!98 = !{i64 92}
!99 = !{i64 93}
!100 = !{i64 94}
!101 = !{i64 95}
!102 = !{i64 96}
!103 = !{i64 97}
!104 = !{i64 98}
!105 = !{i64 99}
!106 = !{i64 100}
!107 = !{i64 101}
!108 = !{i64 102}
!109 = !{i64 103}
!110 = !{i64 104}
!111 = !{i64 105}
!112 = !{i64 106}
!113 = !{i64 107}
!114 = !{i64 108}
!115 = !{i64 109}
!116 = !{i64 110}
!117 = !{i64 111}
!118 = !{i64 112}
!119 = !{i64 113}
!120 = !{i64 114}
!121 = !{i64 115}
!122 = !{i64 116}
!123 = !{i64 117}
!124 = !{i64 118}
!125 = distinct !{!125, !79}
!126 = !{i64 119}
!127 = !{i64 120}
!128 = !{i64 121}
!129 = !{i64 122}
!130 = !{i64 123}
!131 = !{i64 124}
!132 = !{i64 125}
!133 = !{i64 126}
!134 = !{i64 127}
!135 = !{i64 128}
!136 = !{i64 129}
!137 = !{i64 130}
!138 = !{i64 131}
!139 = !{i64 132}
!140 = !{i64 133}
!141 = !{i64 134}
!142 = !{i64 135}
!143 = !{i64 136}
!144 = !{i64 137}
!145 = !{i64 138}
!146 = !{i64 139}
!147 = !{i64 140}
!148 = !{i64 141}
!149 = !{i64 142}
!150 = !{i64 143}
!151 = !{i64 144}
!152 = !{i64 145}
!153 = !{i64 146}
!154 = !{i64 147}
!155 = !{i64 148}
!156 = !{i64 149}
!157 = !{i64 150}
!158 = !{i64 151}
!159 = !{i64 152}
!160 = !{i64 153}
!161 = !{i64 154}
!162 = !{i64 155}
!163 = !{i64 156}
!164 = !{i64 157}
!165 = !{i64 158}
!166 = distinct !{!166, !79}
!167 = !{i64 159}
!168 = !{i64 160}
!169 = !{i64 161}
!170 = !{i64 162}
!171 = !{i64 163}
!172 = !{i64 164}
!173 = !{i64 165}
!174 = !{i64 166}
!175 = !{i64 167}
!176 = !{i64 168}
!177 = !{i64 169}
!178 = !{i64 170}
!179 = !{i64 171}
!180 = !{i64 172}
!181 = !{i64 173}
!182 = !{i64 174}
!183 = !{i64 175}
!184 = !{i64 176}
!185 = !{i64 177}
!186 = !{i64 178}
!187 = !{i64 179}
!188 = !{i64 180}
!189 = !{i64 181}
!190 = !{i64 182}
!191 = !{i64 183}
!192 = !{i64 184}
!193 = !{i64 185}
!194 = !{i64 186}
!195 = !{i64 187}
!196 = !{i64 188}
!197 = !{i64 189}
!198 = !{i64 190}
!199 = !{i64 191}
!200 = !{i64 192}
!201 = !{i64 193}
!202 = !{i64 194}
!203 = !{i64 195}
!204 = !{i64 196}
!205 = !{i64 197}
!206 = !{i64 198}
!207 = !{i64 199}
!208 = !{i64 200}
!209 = !{i64 201}
!210 = !{i64 202}
!211 = !{i64 203}
!212 = !{i64 204}
!213 = !{i64 205}
!214 = !{i64 206}
!215 = !{i64 207}
!216 = !{i64 208}
!217 = !{i64 209}
!218 = !{i64 210}
!219 = !{i64 211}
!220 = !{i64 212}
!221 = !{i64 213}
!222 = !{i64 214}
!223 = !{i64 215}
!224 = !{i64 216}
!225 = !{i64 217}
!226 = !{i64 218}
!227 = !{i64 219}
!228 = !{i64 220}
!229 = !{i64 221}
!230 = !{i64 222}
!231 = !{i64 223}
!232 = !{i64 224}
!233 = !{i64 225}
!234 = !{i64 226}
!235 = !{i64 227}
!236 = !{i64 228}
!237 = !{i64 229}
!238 = !{i64 230}
!239 = !{i64 231}
!240 = !{i64 232}
!241 = !{i64 233}
!242 = distinct !{!242, !79}
!243 = !{i64 234}
!244 = !{i64 235}
!245 = !{i64 236}
!246 = !{i64 237}
!247 = !{i64 238}
!248 = !{i64 239}
!249 = !{i64 240}
!250 = !{i64 241}
!251 = !{i64 242}
!252 = !{i64 243}
!253 = !{i64 244}
!254 = !{i64 245}
!255 = !{i64 246}
!256 = !{i64 247}
!257 = !{i64 248}
!258 = !{i64 249}
!259 = !{i64 250}
!260 = !{i64 251}
!261 = !{i64 252}
!262 = !{i64 253}
!263 = !{i64 254}
!264 = !{i64 255}
!265 = !{i64 256}
!266 = !{i64 257}
!267 = !{i64 258}
!268 = !{i64 259}
!269 = !{i64 260}
!270 = !{i64 261}
!271 = !{i64 262}
!272 = !{i64 263}
!273 = !{i64 264}
!274 = !{i64 265}
!275 = !{i64 266}
!276 = !{i64 267}
!277 = !{i64 268}
!278 = !{i64 269}
!279 = !{i64 270}
!280 = !{i64 271}
!281 = !{i64 272}
!282 = !{i64 273}
!283 = !{i64 274}
!284 = !{i64 275}
!285 = distinct !{!285, !79}
!286 = !{i64 276}
!287 = !{i64 277}
!288 = !{i64 278}
!289 = !{i64 279}
!290 = distinct !{!290, !79}
!291 = !{i64 280}
!292 = !{i64 281}
!293 = !{i64 282}
!294 = !{i64 283}
!295 = !{i64 284}
!296 = !{i64 285}
!297 = !{i64 286}
!298 = !{i64 287}
!299 = !{i64 288}
!300 = !{i64 289}
!301 = !{i64 290}
!302 = !{i64 291}
!303 = !{i64 292}
!304 = !{i64 293}
!305 = !{i64 294}
!306 = !{i64 295}
!307 = !{i64 296}
!308 = !{i64 297}
!309 = !{i64 298}
!310 = !{i64 299}
!311 = !{i64 300}
!312 = !{i64 301}
!313 = !{i64 302}
!314 = !{i64 303}
!315 = !{i64 304}
!316 = !{i64 305}
!317 = !{i64 306}
!318 = !{i64 307}
!319 = !{i64 308}
!320 = !{i64 309}
!321 = !{i64 310}
!322 = !{i64 311}
!323 = !{i64 312}
!324 = !{i64 313}
!325 = !{i64 314}
!326 = !{i64 315}
!327 = !{i64 316}
!328 = !{i64 317}
!329 = !{i64 318}
!330 = !{i64 319}
!331 = !{i64 320}
!332 = !{i64 321}
!333 = !{i64 322}
!334 = !{i64 323}
!335 = !{i64 324}
!336 = !{i64 325}
!337 = !{i64 326}
!338 = !{i64 327}
!339 = !{i64 328}
!340 = !{i64 329}
!341 = !{i64 330}
!342 = !{i64 331}
!343 = !{i64 332}
!344 = !{i64 333}
!345 = !{i64 334}
!346 = !{i64 335}
!347 = !{i64 336}
!348 = !{i64 337}
!349 = !{i64 338}
!350 = distinct !{!350, !79}
!351 = !{i64 339}
!352 = !{i64 340}
!353 = !{i64 341}
!354 = !{i64 342}
!355 = !{i64 343}
!356 = !{i64 344}
!357 = !{i64 345}
!358 = !{i64 346}
!359 = !{i64 347}
!360 = !{i64 348}
!361 = !{i64 349}
!362 = !{i64 350}
!363 = !{i64 351}
!364 = !{i64 352}
!365 = !{i64 353}
!366 = !{i64 354}
!367 = !{i64 355}
!368 = !{i64 356}
!369 = !{i64 357}
!370 = !{i64 358}
!371 = !{i64 359}
!372 = !{i64 360}
!373 = !{i64 361}
!374 = distinct !{!374, !79}
!375 = !{i64 362}
!376 = !{i64 363}
!377 = !{i64 364}
!378 = !{i64 365}
!379 = !{i64 366}
!380 = !{i64 367}
!381 = !{i64 368}
!382 = !{i64 369}
!383 = !{i64 370}
!384 = !{i64 371}
!385 = !{i64 372}
!386 = !{i64 373}
!387 = !{i64 374}
!388 = !{i64 375}
!389 = !{i64 376}
!390 = !{i64 377}
!391 = !{i64 378}
!392 = !{i64 379}
!393 = !{i64 380}
