; ModuleID = '/home/hjiang/Computation-Kernel-Dataset/experiments/Fault_injection_0308_parall/O0/MaximizeProfit/MaximizeProfit.ll'
source_filename = "llvm-link"
target datalayout = "e-m:e-p270:32:32-p271:32:32-p272:64:64-i64:64-f80:128-n8:16:32:64-S128"
target triple = "x86_64-unknown-linux-gnu"

%"class.std::ios_base::Init" = type { i8 }
%struct._IO_FILE = type { i32, i8*, i8*, i8*, i8*, i8*, i8*, i8*, i8*, i8*, i8*, i8*, %struct._IO_marker*, %struct._IO_FILE*, i32, i32, i64, i16, i8, [1 x i8], i8*, i64, %struct._IO_codecvt*, %struct._IO_wide_data*, %struct._IO_FILE*, i8*, i64, i32, [20 x i8] }
%struct._IO_marker = type opaque
%struct._IO_codecvt = type opaque
%struct._IO_wide_data = type opaque
%"class.std::basic_istream" = type { i32 (...)**, i64, %"class.std::basic_ios" }
%"class.std::basic_ios" = type { %"class.std::ios_base", %"class.std::basic_ostream"*, i8, i8, %"class.std::basic_streambuf"*, %"class.std::ctype"*, %"class.std::num_put"*, %"class.std::num_put"* }
%"class.std::ios_base" = type { i32 (...)**, i64, i64, i32, i32, i32, %"struct.std::ios_base::_Callback_list"*, %"struct.std::ios_base::_Words", [8 x %"struct.std::ios_base::_Words"], i32, %"struct.std::ios_base::_Words"*, %"class.std::locale" }
%"struct.std::ios_base::_Callback_list" = type { %"struct.std::ios_base::_Callback_list"*, void (i32, %"class.std::ios_base"*, i32)*, i32, i32 }
%"struct.std::ios_base::_Words" = type { i8*, i64 }
%"class.std::locale" = type { %"class.std::locale::_Impl"* }
%"class.std::locale::_Impl" = type { i32, %"class.std::locale::facet"**, i64, %"class.std::locale::facet"**, i8** }
%"class.std::locale::facet" = type <{ i32 (...)**, i32, [4 x i8] }>
%"class.std::basic_ostream" = type { i32 (...)**, %"class.std::basic_ios" }
%"class.std::basic_streambuf" = type { i32 (...)**, i8*, i8*, i8*, i8*, i8*, i8*, %"class.std::locale" }
%"class.std::ctype" = type <{ %"class.std::locale::facet.base", [4 x i8], %struct.__locale_struct*, i8, [7 x i8], i32*, i32*, i16*, i8, [256 x i8], [256 x i8], i8, [6 x i8] }>
%"class.std::locale::facet.base" = type <{ i32 (...)**, i32 }>
%struct.__locale_struct = type { [13 x %struct.__locale_data*], i16*, i32*, i32*, [13 x i8*] }
%struct.__locale_data = type opaque
%"class.std::num_put" = type { %"class.std::locale::facet.base", [4 x i8] }
%"class.std::vector" = type { %"struct.std::_Vector_base" }
%"struct.std::_Vector_base" = type { %"struct.std::_Vector_base<int, std::allocator<int>>::_Vector_impl" }
%"struct.std::_Vector_base<int, std::allocator<int>>::_Vector_impl" = type { %"struct.std::_Vector_base<int, std::allocator<int>>::_Vector_impl_data" }
%"struct.std::_Vector_base<int, std::allocator<int>>::_Vector_impl_data" = type { i32*, i32*, i32* }
%"class.__gnu_cxx::__normal_iterator" = type { i32* }

$_ZNKSt6vectorIiSaIiEE4sizeEv = comdat any

$_ZNSt6vectorIiSaIiEEixEm = comdat any

$_ZSt3maxIiERKT_S2_S2_ = comdat any

$_ZNSaIiEC2Ev = comdat any

$_ZNSt6vectorIiSaIiEEC2EmRKS0_ = comdat any

$_ZNSaIiED2Ev = comdat any

$_ZNSt6vectorIiSaIiEEC2ERKS1_ = comdat any

$_ZNSt6vectorIiSaIiEED2Ev = comdat any

$_ZNSt12_Vector_baseIiSaIiEE19_M_get_Tp_allocatorEv = comdat any

$_ZSt8_DestroyIPiiEvT_S1_RSaIT0_E = comdat any

$_ZNSt12_Vector_baseIiSaIiEED2Ev = comdat any

$__clang_call_terminate = comdat any

$_ZNSt12_Vector_baseIiSaIiEE13_M_deallocateEPim = comdat any

$_ZNSt12_Vector_baseIiSaIiEE12_Vector_implD2Ev = comdat any

$_ZNSt16allocator_traitsISaIiEE10deallocateERS0_Pim = comdat any

$_ZN9__gnu_cxx13new_allocatorIiE10deallocateEPim = comdat any

$_ZSt8_DestroyIPiEvT_S1_ = comdat any

$_ZNSt12_Destroy_auxILb1EE9__destroyIPiEEvT_S3_ = comdat any

$_ZNKSt12_Vector_baseIiSaIiEE19_M_get_Tp_allocatorEv = comdat any

$_ZN9__gnu_cxx14__alloc_traitsISaIiEiE17_S_select_on_copyERKS1_ = comdat any

$_ZNSt12_Vector_baseIiSaIiEEC2EmRKS0_ = comdat any

$_ZNKSt6vectorIiSaIiEE5beginEv = comdat any

$_ZNKSt6vectorIiSaIiEE3endEv = comdat any

$_ZSt22__uninitialized_copy_aIN9__gnu_cxx17__normal_iteratorIPKiSt6vectorIiSaIiEEEEPiiET0_T_SA_S9_RSaIT1_E = comdat any

$_ZSt18uninitialized_copyIN9__gnu_cxx17__normal_iteratorIPKiSt6vectorIiSaIiEEEEPiET0_T_SA_S9_ = comdat any

$_ZNSt20__uninitialized_copyILb1EE13__uninit_copyIN9__gnu_cxx17__normal_iteratorIPKiSt6vectorIiSaIiEEEEPiEET0_T_SC_SB_ = comdat any

$_ZSt4copyIN9__gnu_cxx17__normal_iteratorIPKiSt6vectorIiSaIiEEEEPiET0_T_SA_S9_ = comdat any

$_ZSt12__miter_baseIN9__gnu_cxx17__normal_iteratorIPKiSt6vectorIiSaIiEEEEET_S8_ = comdat any

$_ZSt14__copy_move_a2ILb0EN9__gnu_cxx17__normal_iteratorIPKiSt6vectorIiSaIiEEEEPiET1_T0_SA_S9_ = comdat any

$_ZSt12__niter_baseIPKiSt6vectorIiSaIiEEET_N9__gnu_cxx17__normal_iteratorIS5_T0_EE = comdat any

$_ZSt12__niter_baseIPiET_S1_ = comdat any

$_ZSt13__copy_move_aILb0EPKiPiET1_T0_S4_S3_ = comdat any

$_ZSt12__niter_wrapIPiET_RKS1_S1_ = comdat any

$_ZNSt11__copy_moveILb0ELb1ESt26random_access_iterator_tagE8__copy_mIiEEPT_PKS3_S6_S4_ = comdat any

$_ZNK9__gnu_cxx17__normal_iteratorIPKiSt6vectorIiSaIiEEE4baseEv = comdat any

$_ZN9__gnu_cxx17__normal_iteratorIPKiSt6vectorIiSaIiEEEC2ERKS2_ = comdat any

$_ZNSt12_Vector_baseIiSaIiEE12_Vector_implC2ERKS0_ = comdat any

$_ZNSt12_Vector_baseIiSaIiEE17_M_create_storageEm = comdat any

$_ZNSt12_Vector_baseIiSaIiEE11_M_allocateEm = comdat any

$_ZNSt16allocator_traitsISaIiEE8allocateERS0_m = comdat any

$_ZN9__gnu_cxx13new_allocatorIiE8allocateEmPKv = comdat any

$_ZNK9__gnu_cxx13new_allocatorIiE8max_sizeEv = comdat any

$_ZNSaIiEC2ERKS_ = comdat any

$_ZNSt12_Vector_baseIiSaIiEE17_Vector_impl_dataC2Ev = comdat any

$_ZN9__gnu_cxx13new_allocatorIiEC2ERKS1_ = comdat any

$_ZNSt16allocator_traitsISaIiEE37select_on_container_copy_constructionERKS0_ = comdat any

$_ZN9__gnu_cxx13new_allocatorIiED2Ev = comdat any

$_ZNSt6vectorIiSaIiEE17_S_check_init_lenEmRKS0_ = comdat any

$_ZNSt6vectorIiSaIiEE21_M_default_initializeEm = comdat any

$_ZSt27__uninitialized_default_n_aIPimiET_S1_T0_RSaIT1_E = comdat any

$_ZSt25__uninitialized_default_nIPimET_S1_T0_ = comdat any

$_ZNSt27__uninitialized_default_n_1ILb1EE18__uninit_default_nIPimEET_S3_T0_ = comdat any

$_ZSt6fill_nIPimiET_S1_T0_RKT1_ = comdat any

$_ZSt10__fill_n_aIPimiEN9__gnu_cxx11__enable_ifIXsr11__is_scalarIT1_EE7__valueET_E6__typeES4_T0_RKS3_ = comdat any

$_ZNSt6vectorIiSaIiEE11_S_max_sizeERKS0_ = comdat any

$_ZNSt16allocator_traitsISaIiEE8max_sizeERKS0_ = comdat any

$_ZSt3minImERKT_S2_S2_ = comdat any

$_ZN9__gnu_cxx13new_allocatorIiEC2Ev = comdat any

@llvm.global_ctors = appending global [1 x { i32, void ()*, i8* }] [{ i32, void ()*, i8* } { i32 65535, void ()* @_GLOBAL__sub_I_MaximizeProfit.cpp, i8* null }]
@_ZStL8__ioinit = internal global %"class.std::ios_base::Init" zeroinitializer, align 1
@.str = private unnamed_addr constant [30 x i8] c"../input_files/MaximizeProfit\00", align 1
@.str.1 = private unnamed_addr constant [2 x i8] c"r\00", align 1
@stdin = external dso_local global %struct._IO_FILE*, align 8
@_ZSt3cin = external dso_local global %"class.std::basic_istream", align 8
@_ZSt4cout = external dso_local global %"class.std::basic_ostream", align 8
@.str.2 = private unnamed_addr constant [49 x i8] c"cannot create std::vector larger than max_size()\00", align 1

; Function Attrs: noinline uwtable
define internal void @_GLOBAL__sub_I_MaximizeProfit.cpp() #0 section ".text.startup" {
  call void @__cxx_global_var_init(), !llfi_index !4
  ret void, !llfi_index !5
}

; Function Attrs: noinline uwtable
define internal void @__cxx_global_var_init() #0 section ".text.startup" {
  call void @_ZNSt8ios_base4InitC1Ev(%"class.std::ios_base::Init"* nonnull align 1 dereferenceable(1) @_ZStL8__ioinit), !llfi_index !6
  %1 = call i32 @atexit(void ()* @__dtor__ZStL8__ioinit) #2, !llfi_index !7
  ret void, !llfi_index !8
}

declare dso_local void @_ZNSt8ios_base4InitC1Ev(%"class.std::ios_base::Init"* nonnull align 1 dereferenceable(1)) unnamed_addr #1

; Function Attrs: noinline uwtable
define internal void @__dtor__ZStL8__ioinit() #0 section ".text.startup" {
  call void @_ZNSt8ios_base4InitD1Ev(%"class.std::ios_base::Init"* @_ZStL8__ioinit), !llfi_index !9
  ret void, !llfi_index !10
}

; Function Attrs: nounwind
declare dso_local i32 @atexit(void ()*) #2

; Function Attrs: nounwind
declare dso_local void @_ZNSt8ios_base4InitD1Ev(%"class.std::ios_base::Init"* nonnull align 1 dereferenceable(1)) unnamed_addr #3

; Function Attrs: mustprogress noinline uwtable
define dso_local i32 @_Z14maximizeProfitSt6vectorIiSaIiEES1_ii(%"class.std::vector"* %0, %"class.std::vector"* %1, i32 %2, i32 %3) #4 {
  %5 = alloca i32, align 4, !llfi_index !11
  %6 = alloca i32, align 4, !llfi_index !12
  %7 = alloca i32, align 4, !llfi_index !13
  %8 = alloca i32, align 4, !llfi_index !14
  %9 = alloca i32, align 4, !llfi_index !15
  store i32 %2, i32* %5, align 4, !llfi_index !16
  store i32 %3, i32* %6, align 4, !llfi_index !17
  %10 = load i32, i32* %5, align 4, !llfi_index !18
  %11 = load i32, i32* %6, align 4, !llfi_index !19
  %12 = mul nsw i32 %10, %11, !llfi_index !20
  store i32 %12, i32* %7, align 4, !llfi_index !21
  store i32 0, i32* %8, align 4, !llfi_index !22
  br label %13, !llfi_index !23

13:                                               ; preds = %32, %4
  %14 = load i32, i32* %8, align 4, !llfi_index !24
  %15 = sext i32 %14 to i64, !llfi_index !25
  %16 = call i64 @_ZNKSt6vectorIiSaIiEE4sizeEv(%"class.std::vector"* nonnull align 8 dereferenceable(24) %0) #2, !llfi_index !26
  %17 = icmp ult i64 %15, %16, !llfi_index !27
  br i1 %17, label %18, label %35, !llfi_index !28

18:                                               ; preds = %13
  %19 = load i32, i32* %8, align 4, !llfi_index !29
  %20 = sext i32 %19 to i64, !llfi_index !30
  %21 = call nonnull align 4 dereferenceable(4) i32* @_ZNSt6vectorIiSaIiEEixEm(%"class.std::vector"* nonnull align 8 dereferenceable(24) %0, i64 %20) #2, !llfi_index !31
  %22 = load i32, i32* %21, align 4, !llfi_index !32
  %23 = load i32, i32* %8, align 4, !llfi_index !33
  %24 = sext i32 %23 to i64, !llfi_index !34
  %25 = call nonnull align 4 dereferenceable(4) i32* @_ZNSt6vectorIiSaIiEEixEm(%"class.std::vector"* nonnull align 8 dereferenceable(24) %1, i64 %24) #2, !llfi_index !35
  %26 = load i32, i32* %25, align 4, !llfi_index !36
  %27 = mul nsw i32 %22, %26, !llfi_index !37
  %28 = load i32, i32* %5, align 4, !llfi_index !38
  %29 = mul nsw i32 %27, %28, !llfi_index !39
  store i32 %29, i32* %9, align 4, !llfi_index !40
  %30 = call nonnull align 4 dereferenceable(4) i32* @_ZSt3maxIiERKT_S2_S2_(i32* nonnull align 4 dereferenceable(4) %7, i32* nonnull align 4 dereferenceable(4) %9), !llfi_index !41
  %31 = load i32, i32* %30, align 4, !llfi_index !42
  store i32 %31, i32* %7, align 4, !llfi_index !43
  br label %32, !llfi_index !44

32:                                               ; preds = %18
  %33 = load i32, i32* %8, align 4, !llfi_index !45
  %34 = add nsw i32 %33, 1, !llfi_index !46
  store i32 %34, i32* %8, align 4, !llfi_index !47
  br label %13, !llvm.loop !48, !llfi_index !50

35:                                               ; preds = %13
  %36 = load i32, i32* %7, align 4, !llfi_index !51
  ret i32 %36, !llfi_index !52
}

; Function Attrs: mustprogress noinline nounwind uwtable
define linkonce_odr dso_local i64 @_ZNKSt6vectorIiSaIiEE4sizeEv(%"class.std::vector"* nonnull align 8 dereferenceable(24) %0) #5 comdat align 2 {
  %2 = alloca %"class.std::vector"*, align 8, !llfi_index !53
  store %"class.std::vector"* %0, %"class.std::vector"** %2, align 8, !llfi_index !54
  %3 = load %"class.std::vector"*, %"class.std::vector"** %2, align 8, !llfi_index !55
  %4 = bitcast %"class.std::vector"* %3 to %"struct.std::_Vector_base"*, !llfi_index !56
  %5 = getelementptr inbounds %"struct.std::_Vector_base", %"struct.std::_Vector_base"* %4, i32 0, i32 0, !llfi_index !57
  %6 = bitcast %"struct.std::_Vector_base<int, std::allocator<int>>::_Vector_impl"* %5 to %"struct.std::_Vector_base<int, std::allocator<int>>::_Vector_impl_data"*, !llfi_index !58
  %7 = getelementptr inbounds %"struct.std::_Vector_base<int, std::allocator<int>>::_Vector_impl_data", %"struct.std::_Vector_base<int, std::allocator<int>>::_Vector_impl_data"* %6, i32 0, i32 1, !llfi_index !59
  %8 = load i32*, i32** %7, align 8, !llfi_index !60
  %9 = bitcast %"class.std::vector"* %3 to %"struct.std::_Vector_base"*, !llfi_index !61
  %10 = getelementptr inbounds %"struct.std::_Vector_base", %"struct.std::_Vector_base"* %9, i32 0, i32 0, !llfi_index !62
  %11 = bitcast %"struct.std::_Vector_base<int, std::allocator<int>>::_Vector_impl"* %10 to %"struct.std::_Vector_base<int, std::allocator<int>>::_Vector_impl_data"*, !llfi_index !63
  %12 = getelementptr inbounds %"struct.std::_Vector_base<int, std::allocator<int>>::_Vector_impl_data", %"struct.std::_Vector_base<int, std::allocator<int>>::_Vector_impl_data"* %11, i32 0, i32 0, !llfi_index !64
  %13 = load i32*, i32** %12, align 8, !llfi_index !65
  %14 = ptrtoint i32* %8 to i64, !llfi_index !66
  %15 = ptrtoint i32* %13 to i64, !llfi_index !67
  %16 = sub i64 %14, %15, !llfi_index !68
  %17 = sdiv exact i64 %16, 4, !llfi_index !69
  ret i64 %17, !llfi_index !70
}

; Function Attrs: mustprogress noinline nounwind uwtable
define linkonce_odr dso_local nonnull align 4 dereferenceable(4) i32* @_ZNSt6vectorIiSaIiEEixEm(%"class.std::vector"* nonnull align 8 dereferenceable(24) %0, i64 %1) #5 comdat align 2 {
  %3 = alloca %"class.std::vector"*, align 8, !llfi_index !71
  %4 = alloca i64, align 8, !llfi_index !72
  store %"class.std::vector"* %0, %"class.std::vector"** %3, align 8, !llfi_index !73
  store i64 %1, i64* %4, align 8, !llfi_index !74
  %5 = load %"class.std::vector"*, %"class.std::vector"** %3, align 8, !llfi_index !75
  %6 = bitcast %"class.std::vector"* %5 to %"struct.std::_Vector_base"*, !llfi_index !76
  %7 = getelementptr inbounds %"struct.std::_Vector_base", %"struct.std::_Vector_base"* %6, i32 0, i32 0, !llfi_index !77
  %8 = bitcast %"struct.std::_Vector_base<int, std::allocator<int>>::_Vector_impl"* %7 to %"struct.std::_Vector_base<int, std::allocator<int>>::_Vector_impl_data"*, !llfi_index !78
  %9 = getelementptr inbounds %"struct.std::_Vector_base<int, std::allocator<int>>::_Vector_impl_data", %"struct.std::_Vector_base<int, std::allocator<int>>::_Vector_impl_data"* %8, i32 0, i32 0, !llfi_index !79
  %10 = load i32*, i32** %9, align 8, !llfi_index !80
  %11 = load i64, i64* %4, align 8, !llfi_index !81
  %12 = getelementptr inbounds i32, i32* %10, i64 %11, !llfi_index !82
  ret i32* %12, !llfi_index !83
}

; Function Attrs: mustprogress noinline nounwind uwtable
define linkonce_odr dso_local nonnull align 4 dereferenceable(4) i32* @_ZSt3maxIiERKT_S2_S2_(i32* nonnull align 4 dereferenceable(4) %0, i32* nonnull align 4 dereferenceable(4) %1) #5 comdat {
  %3 = alloca i32*, align 8, !llfi_index !84
  %4 = alloca i32*, align 8, !llfi_index !85
  %5 = alloca i32*, align 8, !llfi_index !86
  store i32* %0, i32** %4, align 8, !llfi_index !87
  store i32* %1, i32** %5, align 8, !llfi_index !88
  %6 = load i32*, i32** %4, align 8, !llfi_index !89
  %7 = load i32, i32* %6, align 4, !llfi_index !90
  %8 = load i32*, i32** %5, align 8, !llfi_index !91
  %9 = load i32, i32* %8, align 4, !llfi_index !92
  %10 = icmp slt i32 %7, %9, !llfi_index !93
  br i1 %10, label %11, label %13, !llfi_index !94

11:                                               ; preds = %2
  %12 = load i32*, i32** %5, align 8, !llfi_index !95
  store i32* %12, i32** %3, align 8, !llfi_index !96
  br label %15, !llfi_index !97

13:                                               ; preds = %2
  %14 = load i32*, i32** %4, align 8, !llfi_index !98
  store i32* %14, i32** %3, align 8, !llfi_index !99
  br label %15, !llfi_index !100

15:                                               ; preds = %13, %11
  %16 = load i32*, i32** %3, align 8, !llfi_index !101
  ret i32* %16, !llfi_index !102
}

; Function Attrs: mustprogress noinline norecurse uwtable
define dso_local i32 @main() #6 personality i8* bitcast (i32 (...)* @__gxx_personality_v0 to i8*) {
  %1 = alloca i32, align 4, !llfi_index !103
  %2 = alloca i32, align 4, !llfi_index !104
  %3 = alloca i32, align 4, !llfi_index !105
  %4 = alloca i32, align 4, !llfi_index !106
  %5 = alloca %"class.std::vector", align 8, !llfi_index !107
  %6 = alloca %"class.std::ios_base::Init", align 1, !llfi_index !108
  %7 = alloca i8*, align 8, !llfi_index !109
  %8 = alloca i32, align 4, !llfi_index !110
  %9 = alloca i32, align 4, !llfi_index !111
  %10 = alloca i32, align 4, !llfi_index !112
  %11 = alloca %"class.std::vector", align 8, !llfi_index !113
  %12 = alloca %"class.std::ios_base::Init", align 1, !llfi_index !114
  %13 = alloca i32, align 4, !llfi_index !115
  %14 = alloca i32, align 4, !llfi_index !116
  %15 = alloca %"class.std::vector", align 8, !llfi_index !117
  %16 = alloca %"class.std::vector", align 8, !llfi_index !118
  store i32 0, i32* %1, align 4, !llfi_index !119
  %17 = load %struct._IO_FILE*, %struct._IO_FILE** @stdin, align 8, !llfi_index !120
  %18 = call %struct._IO_FILE* @freopen(i8* getelementptr inbounds ([30 x i8], [30 x i8]* @.str, i64 0, i64 0), i8* getelementptr inbounds ([2 x i8], [2 x i8]* @.str.1, i64 0, i64 0), %struct._IO_FILE* %17), !llfi_index !121
  %19 = call nonnull align 8 dereferenceable(16) %"class.std::basic_istream"* @_ZNSirsERi(%"class.std::basic_istream"* nonnull align 8 dereferenceable(16) @_ZSt3cin, i32* nonnull align 4 dereferenceable(4) %2), !llfi_index !122
  %20 = call nonnull align 8 dereferenceable(16) %"class.std::basic_istream"* @_ZNSirsERi(%"class.std::basic_istream"* nonnull align 8 dereferenceable(16) %19, i32* nonnull align 4 dereferenceable(4) %3), !llfi_index !123
  %21 = call nonnull align 8 dereferenceable(16) %"class.std::basic_istream"* @_ZNSirsERi(%"class.std::basic_istream"* nonnull align 8 dereferenceable(16) %20, i32* nonnull align 4 dereferenceable(4) %4), !llfi_index !124
  %22 = load i32, i32* %2, align 4, !llfi_index !125
  %23 = sext i32 %22 to i64, !llfi_index !126
  call void @_ZNSaIiEC2Ev(%"class.std::ios_base::Init"* nonnull align 1 dereferenceable(1) %6) #2, !llfi_index !127
  invoke void @_ZNSt6vectorIiSaIiEEC2EmRKS0_(%"class.std::vector"* nonnull align 8 dereferenceable(24) %5, i64 %23, %"class.std::ios_base::Init"* nonnull align 1 dereferenceable(1) %6)
          to label %24 unwind label %38, !llfi_index !128

24:                                               ; preds = %0
  call void @_ZNSaIiED2Ev(%"class.std::ios_base::Init"* nonnull align 1 dereferenceable(1) %6) #2, !llfi_index !129
  store i32 89, i32* %9, align 4, !llfi_index !130
  store i32 0, i32* %10, align 4, !llfi_index !131
  br label %25, !llfi_index !132

25:                                               ; preds = %35, %24
  %26 = load i32, i32* %10, align 4, !llfi_index !133
  %27 = load i32, i32* %2, align 4, !llfi_index !134
  %28 = icmp slt i32 %26, %27, !llfi_index !135
  br i1 %28, label %29, label %46, !llfi_index !136

29:                                               ; preds = %25
  %30 = load i32, i32* %10, align 4, !llfi_index !137
  %31 = sext i32 %30 to i64, !llfi_index !138
  %32 = call nonnull align 4 dereferenceable(4) i32* @_ZNSt6vectorIiSaIiEEixEm(%"class.std::vector"* nonnull align 8 dereferenceable(24) %5, i64 %31) #2, !llfi_index !139
  %33 = invoke nonnull align 8 dereferenceable(16) %"class.std::basic_istream"* @_ZNSirsERi(%"class.std::basic_istream"* nonnull align 8 dereferenceable(16) @_ZSt3cin, i32* nonnull align 4 dereferenceable(4) %32)
          to label %34 unwind label %42, !llfi_index !140

34:                                               ; preds = %29
  br label %35, !llfi_index !141

35:                                               ; preds = %34
  %36 = load i32, i32* %10, align 4, !llfi_index !142
  %37 = add nsw i32 %36, 1, !llfi_index !143
  store i32 %37, i32* %10, align 4, !llfi_index !144
  br label %25, !llvm.loop !145, !llfi_index !146

38:                                               ; preds = %0
  %39 = landingpad { i8*, i32 }
          cleanup, !llfi_index !147
  %40 = extractvalue { i8*, i32 } %39, 0, !llfi_index !148
  store i8* %40, i8** %7, align 8, !llfi_index !149
  %41 = extractvalue { i8*, i32 } %39, 1, !llfi_index !150
  store i32 %41, i32* %8, align 4, !llfi_index !151
  call void @_ZNSaIiED2Ev(%"class.std::ios_base::Init"* nonnull align 1 dereferenceable(1) %6) #2, !llfi_index !152
  br label %95, !llfi_index !153

42:                                               ; preds = %29
  %43 = landingpad { i8*, i32 }
          cleanup, !llfi_index !154
  %44 = extractvalue { i8*, i32 } %43, 0, !llfi_index !155
  store i8* %44, i8** %7, align 8, !llfi_index !156
  %45 = extractvalue { i8*, i32 } %43, 1, !llfi_index !157
  store i32 %45, i32* %8, align 4, !llfi_index !158
  br label %94, !llfi_index !159

46:                                               ; preds = %25
  %47 = load i32, i32* %2, align 4, !llfi_index !160
  %48 = sext i32 %47 to i64, !llfi_index !161
  call void @_ZNSaIiEC2Ev(%"class.std::ios_base::Init"* nonnull align 1 dereferenceable(1) %12) #2, !llfi_index !162
  invoke void @_ZNSt6vectorIiSaIiEEC2EmRKS0_(%"class.std::vector"* nonnull align 8 dereferenceable(24) %11, i64 %48, %"class.std::ios_base::Init"* nonnull align 1 dereferenceable(1) %12)
          to label %49 unwind label %63, !llfi_index !163

49:                                               ; preds = %46
  call void @_ZNSaIiED2Ev(%"class.std::ios_base::Init"* nonnull align 1 dereferenceable(1) %12) #2, !llfi_index !164
  store i32 89, i32* %9, align 4, !llfi_index !165
  store i32 0, i32* %13, align 4, !llfi_index !166
  br label %50, !llfi_index !167

50:                                               ; preds = %60, %49
  %51 = load i32, i32* %13, align 4, !llfi_index !168
  %52 = load i32, i32* %2, align 4, !llfi_index !169
  %53 = icmp slt i32 %51, %52, !llfi_index !170
  br i1 %53, label %54, label %71, !llfi_index !171

54:                                               ; preds = %50
  %55 = load i32, i32* %13, align 4, !llfi_index !172
  %56 = sext i32 %55 to i64, !llfi_index !173
  %57 = call nonnull align 4 dereferenceable(4) i32* @_ZNSt6vectorIiSaIiEEixEm(%"class.std::vector"* nonnull align 8 dereferenceable(24) %11, i64 %56) #2, !llfi_index !174
  %58 = invoke nonnull align 8 dereferenceable(16) %"class.std::basic_istream"* @_ZNSirsERi(%"class.std::basic_istream"* nonnull align 8 dereferenceable(16) @_ZSt3cin, i32* nonnull align 4 dereferenceable(4) %57)
          to label %59 unwind label %67, !llfi_index !175

59:                                               ; preds = %54
  br label %60, !llfi_index !176

60:                                               ; preds = %59
  %61 = load i32, i32* %13, align 4, !llfi_index !177
  %62 = add nsw i32 %61, 1, !llfi_index !178
  store i32 %62, i32* %13, align 4, !llfi_index !179
  br label %50, !llvm.loop !180, !llfi_index !181

63:                                               ; preds = %46
  %64 = landingpad { i8*, i32 }
          cleanup, !llfi_index !182
  %65 = extractvalue { i8*, i32 } %64, 0, !llfi_index !183
  store i8* %65, i8** %7, align 8, !llfi_index !184
  %66 = extractvalue { i8*, i32 } %64, 1, !llfi_index !185
  store i32 %66, i32* %8, align 4, !llfi_index !186
  call void @_ZNSaIiED2Ev(%"class.std::ios_base::Init"* nonnull align 1 dereferenceable(1) %12) #2, !llfi_index !187
  br label %94, !llfi_index !188

67:                                               ; preds = %80, %77, %71, %54
  %68 = landingpad { i8*, i32 }
          cleanup, !llfi_index !189
  %69 = extractvalue { i8*, i32 } %68, 0, !llfi_index !190
  store i8* %69, i8** %7, align 8, !llfi_index !191
  %70 = extractvalue { i8*, i32 } %68, 1, !llfi_index !192
  store i32 %70, i32* %8, align 4, !llfi_index !193
  br label %93, !llfi_index !194

71:                                               ; preds = %50
  store i32 89, i32* %9, align 4, !llfi_index !195
  invoke void @_ZNSt6vectorIiSaIiEEC2ERKS1_(%"class.std::vector"* nonnull align 8 dereferenceable(24) %15, %"class.std::vector"* nonnull align 8 dereferenceable(24) %5)
          to label %72 unwind label %67, !llfi_index !196

72:                                               ; preds = %71
  invoke void @_ZNSt6vectorIiSaIiEEC2ERKS1_(%"class.std::vector"* nonnull align 8 dereferenceable(24) %16, %"class.std::vector"* nonnull align 8 dereferenceable(24) %11)
          to label %73 unwind label %84, !llfi_index !197

73:                                               ; preds = %72
  %74 = load i32, i32* %3, align 4, !llfi_index !198
  %75 = load i32, i32* %4, align 4, !llfi_index !199
  %76 = invoke i32 @_Z14maximizeProfitSt6vectorIiSaIiEES1_ii(%"class.std::vector"* %15, %"class.std::vector"* %16, i32 %74, i32 %75)
          to label %77 unwind label %88, !llfi_index !200

77:                                               ; preds = %73
  call void @_ZNSt6vectorIiSaIiEED2Ev(%"class.std::vector"* nonnull align 8 dereferenceable(24) %16) #2, !llfi_index !201
  call void @_ZNSt6vectorIiSaIiEED2Ev(%"class.std::vector"* nonnull align 8 dereferenceable(24) %15) #2, !llfi_index !202
  store i32 %76, i32* %14, align 4, !llfi_index !203
  %78 = load i32, i32* %14, align 4, !llfi_index !204
  %79 = invoke nonnull align 8 dereferenceable(8) %"class.std::basic_ostream"* @_ZNSolsEi(%"class.std::basic_ostream"* nonnull align 8 dereferenceable(8) @_ZSt4cout, i32 %78)
          to label %80 unwind label %67, !llfi_index !205

80:                                               ; preds = %77
  %81 = invoke nonnull align 8 dereferenceable(8) %"class.std::basic_ostream"* @_ZNSolsEPFRSoS_E(%"class.std::basic_ostream"* nonnull align 8 dereferenceable(8) %79, %"class.std::basic_ostream"* (%"class.std::basic_ostream"*)* @_ZSt4endlIcSt11char_traitsIcEERSt13basic_ostreamIT_T0_ES6_)
          to label %82 unwind label %67, !llfi_index !206

82:                                               ; preds = %80
  store i32 0, i32* %1, align 4, !llfi_index !207
  call void @_ZNSt6vectorIiSaIiEED2Ev(%"class.std::vector"* nonnull align 8 dereferenceable(24) %11) #2, !llfi_index !208
  call void @_ZNSt6vectorIiSaIiEED2Ev(%"class.std::vector"* nonnull align 8 dereferenceable(24) %5) #2, !llfi_index !209
  %83 = load i32, i32* %1, align 4, !llfi_index !210
  ret i32 %83, !llfi_index !211

84:                                               ; preds = %72
  %85 = landingpad { i8*, i32 }
          cleanup, !llfi_index !212
  %86 = extractvalue { i8*, i32 } %85, 0, !llfi_index !213
  store i8* %86, i8** %7, align 8, !llfi_index !214
  %87 = extractvalue { i8*, i32 } %85, 1, !llfi_index !215
  store i32 %87, i32* %8, align 4, !llfi_index !216
  br label %92, !llfi_index !217

88:                                               ; preds = %73
  %89 = landingpad { i8*, i32 }
          cleanup, !llfi_index !218
  %90 = extractvalue { i8*, i32 } %89, 0, !llfi_index !219
  store i8* %90, i8** %7, align 8, !llfi_index !220
  %91 = extractvalue { i8*, i32 } %89, 1, !llfi_index !221
  store i32 %91, i32* %8, align 4, !llfi_index !222
  call void @_ZNSt6vectorIiSaIiEED2Ev(%"class.std::vector"* nonnull align 8 dereferenceable(24) %16) #2, !llfi_index !223
  br label %92, !llfi_index !224

92:                                               ; preds = %88, %84
  call void @_ZNSt6vectorIiSaIiEED2Ev(%"class.std::vector"* nonnull align 8 dereferenceable(24) %15) #2, !llfi_index !225
  br label %93, !llfi_index !226

93:                                               ; preds = %92, %67
  call void @_ZNSt6vectorIiSaIiEED2Ev(%"class.std::vector"* nonnull align 8 dereferenceable(24) %11) #2, !llfi_index !227
  br label %94, !llfi_index !228

94:                                               ; preds = %93, %63, %42
  call void @_ZNSt6vectorIiSaIiEED2Ev(%"class.std::vector"* nonnull align 8 dereferenceable(24) %5) #2, !llfi_index !229
  br label %95, !llfi_index !230

95:                                               ; preds = %94, %38
  %96 = load i8*, i8** %7, align 8, !llfi_index !231
  %97 = load i32, i32* %8, align 4, !llfi_index !232
  %98 = insertvalue { i8*, i32 } undef, i8* %96, 0, !llfi_index !233
  %99 = insertvalue { i8*, i32 } %98, i32 %97, 1, !llfi_index !234
  resume { i8*, i32 } %99, !llfi_index !235
}

declare dso_local i32 @__gxx_personality_v0(...)

declare dso_local %struct._IO_FILE* @freopen(i8*, i8*, %struct._IO_FILE*) #1

declare dso_local nonnull align 8 dereferenceable(16) %"class.std::basic_istream"* @_ZNSirsERi(%"class.std::basic_istream"* nonnull align 8 dereferenceable(16), i32* nonnull align 4 dereferenceable(4)) #1

; Function Attrs: noinline nounwind uwtable
define linkonce_odr dso_local void @_ZNSaIiEC2Ev(%"class.std::ios_base::Init"* nonnull align 1 dereferenceable(1) %0) unnamed_addr #7 comdat align 2 {
  %2 = alloca %"class.std::ios_base::Init"*, align 8, !llfi_index !236
  store %"class.std::ios_base::Init"* %0, %"class.std::ios_base::Init"** %2, align 8, !llfi_index !237
  %3 = load %"class.std::ios_base::Init"*, %"class.std::ios_base::Init"** %2, align 8, !llfi_index !238
  %4 = bitcast %"class.std::ios_base::Init"* %3 to %"class.std::ios_base::Init"*, !llfi_index !239
  call void @_ZN9__gnu_cxx13new_allocatorIiEC2Ev(%"class.std::ios_base::Init"* nonnull align 1 dereferenceable(1) %4) #2, !llfi_index !240
  ret void, !llfi_index !241
}

; Function Attrs: noinline uwtable
define linkonce_odr dso_local void @_ZNSt6vectorIiSaIiEEC2EmRKS0_(%"class.std::vector"* nonnull align 8 dereferenceable(24) %0, i64 %1, %"class.std::ios_base::Init"* nonnull align 1 dereferenceable(1) %2) unnamed_addr #0 comdat align 2 personality i8* bitcast (i32 (...)* @__gxx_personality_v0 to i8*) {
  %4 = alloca %"class.std::vector"*, align 8, !llfi_index !242
  %5 = alloca i64, align 8, !llfi_index !243
  %6 = alloca %"class.std::ios_base::Init"*, align 8, !llfi_index !244
  %7 = alloca i8*, align 8, !llfi_index !245
  %8 = alloca i32, align 4, !llfi_index !246
  store %"class.std::vector"* %0, %"class.std::vector"** %4, align 8, !llfi_index !247
  store i64 %1, i64* %5, align 8, !llfi_index !248
  store %"class.std::ios_base::Init"* %2, %"class.std::ios_base::Init"** %6, align 8, !llfi_index !249
  %9 = load %"class.std::vector"*, %"class.std::vector"** %4, align 8, !llfi_index !250
  %10 = bitcast %"class.std::vector"* %9 to %"struct.std::_Vector_base"*, !llfi_index !251
  %11 = load i64, i64* %5, align 8, !llfi_index !252
  %12 = load %"class.std::ios_base::Init"*, %"class.std::ios_base::Init"** %6, align 8, !llfi_index !253
  %13 = call i64 @_ZNSt6vectorIiSaIiEE17_S_check_init_lenEmRKS0_(i64 %11, %"class.std::ios_base::Init"* nonnull align 1 dereferenceable(1) %12), !llfi_index !254
  %14 = load %"class.std::ios_base::Init"*, %"class.std::ios_base::Init"** %6, align 8, !llfi_index !255
  call void @_ZNSt12_Vector_baseIiSaIiEEC2EmRKS0_(%"struct.std::_Vector_base"* nonnull align 8 dereferenceable(24) %10, i64 %13, %"class.std::ios_base::Init"* nonnull align 1 dereferenceable(1) %14), !llfi_index !256
  %15 = load i64, i64* %5, align 8, !llfi_index !257
  invoke void @_ZNSt6vectorIiSaIiEE21_M_default_initializeEm(%"class.std::vector"* nonnull align 8 dereferenceable(24) %9, i64 %15)
          to label %16 unwind label %17, !llfi_index !258

16:                                               ; preds = %3
  ret void, !llfi_index !259

17:                                               ; preds = %3
  %18 = landingpad { i8*, i32 }
          cleanup, !llfi_index !260
  %19 = extractvalue { i8*, i32 } %18, 0, !llfi_index !261
  store i8* %19, i8** %7, align 8, !llfi_index !262
  %20 = extractvalue { i8*, i32 } %18, 1, !llfi_index !263
  store i32 %20, i32* %8, align 4, !llfi_index !264
  %21 = bitcast %"class.std::vector"* %9 to %"struct.std::_Vector_base"*, !llfi_index !265
  call void @_ZNSt12_Vector_baseIiSaIiEED2Ev(%"struct.std::_Vector_base"* nonnull align 8 dereferenceable(24) %21) #2, !llfi_index !266
  br label %22, !llfi_index !267

22:                                               ; preds = %17
  %23 = load i8*, i8** %7, align 8, !llfi_index !268
  %24 = load i32, i32* %8, align 4, !llfi_index !269
  %25 = insertvalue { i8*, i32 } undef, i8* %23, 0, !llfi_index !270
  %26 = insertvalue { i8*, i32 } %25, i32 %24, 1, !llfi_index !271
  resume { i8*, i32 } %26, !llfi_index !272
}

; Function Attrs: noinline nounwind uwtable
define linkonce_odr dso_local void @_ZNSaIiED2Ev(%"class.std::ios_base::Init"* nonnull align 1 dereferenceable(1) %0) unnamed_addr #7 comdat align 2 {
  %2 = alloca %"class.std::ios_base::Init"*, align 8, !llfi_index !273
  store %"class.std::ios_base::Init"* %0, %"class.std::ios_base::Init"** %2, align 8, !llfi_index !274
  %3 = load %"class.std::ios_base::Init"*, %"class.std::ios_base::Init"** %2, align 8, !llfi_index !275
  %4 = bitcast %"class.std::ios_base::Init"* %3 to %"class.std::ios_base::Init"*, !llfi_index !276
  call void @_ZN9__gnu_cxx13new_allocatorIiED2Ev(%"class.std::ios_base::Init"* nonnull align 1 dereferenceable(1) %4) #2, !llfi_index !277
  ret void, !llfi_index !278
}

; Function Attrs: noinline uwtable
define linkonce_odr dso_local void @_ZNSt6vectorIiSaIiEEC2ERKS1_(%"class.std::vector"* nonnull align 8 dereferenceable(24) %0, %"class.std::vector"* nonnull align 8 dereferenceable(24) %1) unnamed_addr #0 comdat align 2 personality i8* bitcast (i32 (...)* @__gxx_personality_v0 to i8*) {
  %3 = alloca %"class.std::vector"*, align 8, !llfi_index !279
  %4 = alloca %"class.std::vector"*, align 8, !llfi_index !280
  %5 = alloca %"class.std::ios_base::Init", align 1, !llfi_index !281
  %6 = alloca i8*, align 8, !llfi_index !282
  %7 = alloca i32, align 4, !llfi_index !283
  %8 = alloca %"class.__gnu_cxx::__normal_iterator", align 8, !llfi_index !284
  %9 = alloca %"class.__gnu_cxx::__normal_iterator", align 8, !llfi_index !285
  store %"class.std::vector"* %0, %"class.std::vector"** %3, align 8, !llfi_index !286
  store %"class.std::vector"* %1, %"class.std::vector"** %4, align 8, !llfi_index !287
  %10 = load %"class.std::vector"*, %"class.std::vector"** %3, align 8, !llfi_index !288
  %11 = bitcast %"class.std::vector"* %10 to %"struct.std::_Vector_base"*, !llfi_index !289
  %12 = load %"class.std::vector"*, %"class.std::vector"** %4, align 8, !llfi_index !290
  %13 = call i64 @_ZNKSt6vectorIiSaIiEE4sizeEv(%"class.std::vector"* nonnull align 8 dereferenceable(24) %12) #2, !llfi_index !291
  %14 = load %"class.std::vector"*, %"class.std::vector"** %4, align 8, !llfi_index !292
  %15 = bitcast %"class.std::vector"* %14 to %"struct.std::_Vector_base"*, !llfi_index !293
  %16 = call nonnull align 1 dereferenceable(1) %"class.std::ios_base::Init"* @_ZNKSt12_Vector_baseIiSaIiEE19_M_get_Tp_allocatorEv(%"struct.std::_Vector_base"* nonnull align 8 dereferenceable(24) %15) #2, !llfi_index !294
  call void @_ZN9__gnu_cxx14__alloc_traitsISaIiEiE17_S_select_on_copyERKS1_(%"class.std::ios_base::Init"* sret(%"class.std::ios_base::Init") align 1 %5, %"class.std::ios_base::Init"* nonnull align 1 dereferenceable(1) %16), !llfi_index !295
  invoke void @_ZNSt12_Vector_baseIiSaIiEEC2EmRKS0_(%"struct.std::_Vector_base"* nonnull align 8 dereferenceable(24) %11, i64 %13, %"class.std::ios_base::Init"* nonnull align 1 dereferenceable(1) %5)
          to label %17 unwind label %41, !llfi_index !296

17:                                               ; preds = %2
  call void @_ZNSaIiED2Ev(%"class.std::ios_base::Init"* nonnull align 1 dereferenceable(1) %5) #2, !llfi_index !297
  %18 = load %"class.std::vector"*, %"class.std::vector"** %4, align 8, !llfi_index !298
  %19 = call i32* @_ZNKSt6vectorIiSaIiEE5beginEv(%"class.std::vector"* nonnull align 8 dereferenceable(24) %18) #2, !llfi_index !299
  %20 = getelementptr inbounds %"class.__gnu_cxx::__normal_iterator", %"class.__gnu_cxx::__normal_iterator"* %8, i32 0, i32 0, !llfi_index !300
  store i32* %19, i32** %20, align 8, !llfi_index !301
  %21 = load %"class.std::vector"*, %"class.std::vector"** %4, align 8, !llfi_index !302
  %22 = call i32* @_ZNKSt6vectorIiSaIiEE3endEv(%"class.std::vector"* nonnull align 8 dereferenceable(24) %21) #2, !llfi_index !303
  %23 = getelementptr inbounds %"class.__gnu_cxx::__normal_iterator", %"class.__gnu_cxx::__normal_iterator"* %9, i32 0, i32 0, !llfi_index !304
  store i32* %22, i32** %23, align 8, !llfi_index !305
  %24 = bitcast %"class.std::vector"* %10 to %"struct.std::_Vector_base"*, !llfi_index !306
  %25 = getelementptr inbounds %"struct.std::_Vector_base", %"struct.std::_Vector_base"* %24, i32 0, i32 0, !llfi_index !307
  %26 = bitcast %"struct.std::_Vector_base<int, std::allocator<int>>::_Vector_impl"* %25 to %"struct.std::_Vector_base<int, std::allocator<int>>::_Vector_impl_data"*, !llfi_index !308
  %27 = getelementptr inbounds %"struct.std::_Vector_base<int, std::allocator<int>>::_Vector_impl_data", %"struct.std::_Vector_base<int, std::allocator<int>>::_Vector_impl_data"* %26, i32 0, i32 0, !llfi_index !309
  %28 = load i32*, i32** %27, align 8, !llfi_index !310
  %29 = bitcast %"class.std::vector"* %10 to %"struct.std::_Vector_base"*, !llfi_index !311
  %30 = call nonnull align 1 dereferenceable(1) %"class.std::ios_base::Init"* @_ZNSt12_Vector_baseIiSaIiEE19_M_get_Tp_allocatorEv(%"struct.std::_Vector_base"* nonnull align 8 dereferenceable(24) %29) #2, !llfi_index !312
  %31 = getelementptr inbounds %"class.__gnu_cxx::__normal_iterator", %"class.__gnu_cxx::__normal_iterator"* %8, i32 0, i32 0, !llfi_index !313
  %32 = load i32*, i32** %31, align 8, !llfi_index !314
  %33 = getelementptr inbounds %"class.__gnu_cxx::__normal_iterator", %"class.__gnu_cxx::__normal_iterator"* %9, i32 0, i32 0, !llfi_index !315
  %34 = load i32*, i32** %33, align 8, !llfi_index !316
  %35 = invoke i32* @_ZSt22__uninitialized_copy_aIN9__gnu_cxx17__normal_iteratorIPKiSt6vectorIiSaIiEEEEPiiET0_T_SA_S9_RSaIT1_E(i32* %32, i32* %34, i32* %28, %"class.std::ios_base::Init"* nonnull align 1 dereferenceable(1) %30)
          to label %36 unwind label %45, !llfi_index !317

36:                                               ; preds = %17
  %37 = bitcast %"class.std::vector"* %10 to %"struct.std::_Vector_base"*, !llfi_index !318
  %38 = getelementptr inbounds %"struct.std::_Vector_base", %"struct.std::_Vector_base"* %37, i32 0, i32 0, !llfi_index !319
  %39 = bitcast %"struct.std::_Vector_base<int, std::allocator<int>>::_Vector_impl"* %38 to %"struct.std::_Vector_base<int, std::allocator<int>>::_Vector_impl_data"*, !llfi_index !320
  %40 = getelementptr inbounds %"struct.std::_Vector_base<int, std::allocator<int>>::_Vector_impl_data", %"struct.std::_Vector_base<int, std::allocator<int>>::_Vector_impl_data"* %39, i32 0, i32 1, !llfi_index !321
  store i32* %35, i32** %40, align 8, !llfi_index !322
  ret void, !llfi_index !323

41:                                               ; preds = %2
  %42 = landingpad { i8*, i32 }
          cleanup, !llfi_index !324
  %43 = extractvalue { i8*, i32 } %42, 0, !llfi_index !325
  store i8* %43, i8** %6, align 8, !llfi_index !326
  %44 = extractvalue { i8*, i32 } %42, 1, !llfi_index !327
  store i32 %44, i32* %7, align 4, !llfi_index !328
  call void @_ZNSaIiED2Ev(%"class.std::ios_base::Init"* nonnull align 1 dereferenceable(1) %5) #2, !llfi_index !329
  br label %50, !llfi_index !330

45:                                               ; preds = %17
  %46 = landingpad { i8*, i32 }
          cleanup, !llfi_index !331
  %47 = extractvalue { i8*, i32 } %46, 0, !llfi_index !332
  store i8* %47, i8** %6, align 8, !llfi_index !333
  %48 = extractvalue { i8*, i32 } %46, 1, !llfi_index !334
  store i32 %48, i32* %7, align 4, !llfi_index !335
  %49 = bitcast %"class.std::vector"* %10 to %"struct.std::_Vector_base"*, !llfi_index !336
  call void @_ZNSt12_Vector_baseIiSaIiEED2Ev(%"struct.std::_Vector_base"* nonnull align 8 dereferenceable(24) %49) #2, !llfi_index !337
  br label %50, !llfi_index !338

50:                                               ; preds = %45, %41
  %51 = load i8*, i8** %6, align 8, !llfi_index !339
  %52 = load i32, i32* %7, align 4, !llfi_index !340
  %53 = insertvalue { i8*, i32 } undef, i8* %51, 0, !llfi_index !341
  %54 = insertvalue { i8*, i32 } %53, i32 %52, 1, !llfi_index !342
  resume { i8*, i32 } %54, !llfi_index !343
}

; Function Attrs: noinline nounwind uwtable
define linkonce_odr dso_local void @_ZNSt6vectorIiSaIiEED2Ev(%"class.std::vector"* nonnull align 8 dereferenceable(24) %0) unnamed_addr #7 comdat align 2 personality i8* bitcast (i32 (...)* @__gxx_personality_v0 to i8*) {
  %2 = alloca %"class.std::vector"*, align 8, !llfi_index !344
  %3 = alloca i8*, align 8, !llfi_index !345
  %4 = alloca i32, align 4, !llfi_index !346
  store %"class.std::vector"* %0, %"class.std::vector"** %2, align 8, !llfi_index !347
  %5 = load %"class.std::vector"*, %"class.std::vector"** %2, align 8, !llfi_index !348
  %6 = bitcast %"class.std::vector"* %5 to %"struct.std::_Vector_base"*, !llfi_index !349
  %7 = getelementptr inbounds %"struct.std::_Vector_base", %"struct.std::_Vector_base"* %6, i32 0, i32 0, !llfi_index !350
  %8 = bitcast %"struct.std::_Vector_base<int, std::allocator<int>>::_Vector_impl"* %7 to %"struct.std::_Vector_base<int, std::allocator<int>>::_Vector_impl_data"*, !llfi_index !351
  %9 = getelementptr inbounds %"struct.std::_Vector_base<int, std::allocator<int>>::_Vector_impl_data", %"struct.std::_Vector_base<int, std::allocator<int>>::_Vector_impl_data"* %8, i32 0, i32 0, !llfi_index !352
  %10 = load i32*, i32** %9, align 8, !llfi_index !353
  %11 = bitcast %"class.std::vector"* %5 to %"struct.std::_Vector_base"*, !llfi_index !354
  %12 = getelementptr inbounds %"struct.std::_Vector_base", %"struct.std::_Vector_base"* %11, i32 0, i32 0, !llfi_index !355
  %13 = bitcast %"struct.std::_Vector_base<int, std::allocator<int>>::_Vector_impl"* %12 to %"struct.std::_Vector_base<int, std::allocator<int>>::_Vector_impl_data"*, !llfi_index !356
  %14 = getelementptr inbounds %"struct.std::_Vector_base<int, std::allocator<int>>::_Vector_impl_data", %"struct.std::_Vector_base<int, std::allocator<int>>::_Vector_impl_data"* %13, i32 0, i32 1, !llfi_index !357
  %15 = load i32*, i32** %14, align 8, !llfi_index !358
  %16 = bitcast %"class.std::vector"* %5 to %"struct.std::_Vector_base"*, !llfi_index !359
  %17 = call nonnull align 1 dereferenceable(1) %"class.std::ios_base::Init"* @_ZNSt12_Vector_baseIiSaIiEE19_M_get_Tp_allocatorEv(%"struct.std::_Vector_base"* nonnull align 8 dereferenceable(24) %16) #2, !llfi_index !360
  invoke void @_ZSt8_DestroyIPiiEvT_S1_RSaIT0_E(i32* %10, i32* %15, %"class.std::ios_base::Init"* nonnull align 1 dereferenceable(1) %17)
          to label %18 unwind label %20, !llfi_index !361

18:                                               ; preds = %1
  %19 = bitcast %"class.std::vector"* %5 to %"struct.std::_Vector_base"*, !llfi_index !362
  call void @_ZNSt12_Vector_baseIiSaIiEED2Ev(%"struct.std::_Vector_base"* nonnull align 8 dereferenceable(24) %19) #2, !llfi_index !363
  ret void, !llfi_index !364

20:                                               ; preds = %1
  %21 = landingpad { i8*, i32 }
          catch i8* null, !llfi_index !365
  %22 = extractvalue { i8*, i32 } %21, 0, !llfi_index !366
  store i8* %22, i8** %3, align 8, !llfi_index !367
  %23 = extractvalue { i8*, i32 } %21, 1, !llfi_index !368
  store i32 %23, i32* %4, align 4, !llfi_index !369
  %24 = bitcast %"class.std::vector"* %5 to %"struct.std::_Vector_base"*, !llfi_index !370
  call void @_ZNSt12_Vector_baseIiSaIiEED2Ev(%"struct.std::_Vector_base"* nonnull align 8 dereferenceable(24) %24) #2, !llfi_index !371
  br label %25, !llfi_index !372

25:                                               ; preds = %20
  %26 = load i8*, i8** %3, align 8, !llfi_index !373
  call void @__clang_call_terminate(i8* %26) #13, !llfi_index !374
  unreachable, !llfi_index !375
}

declare dso_local nonnull align 8 dereferenceable(8) %"class.std::basic_ostream"* @_ZNSolsEi(%"class.std::basic_ostream"* nonnull align 8 dereferenceable(8), i32) #1

declare dso_local nonnull align 8 dereferenceable(8) %"class.std::basic_ostream"* @_ZSt4endlIcSt11char_traitsIcEERSt13basic_ostreamIT_T0_ES6_(%"class.std::basic_ostream"* nonnull align 8 dereferenceable(8)) #1

declare dso_local nonnull align 8 dereferenceable(8) %"class.std::basic_ostream"* @_ZNSolsEPFRSoS_E(%"class.std::basic_ostream"* nonnull align 8 dereferenceable(8), %"class.std::basic_ostream"* (%"class.std::basic_ostream"*)*) #1

; Function Attrs: mustprogress noinline nounwind uwtable
define linkonce_odr dso_local nonnull align 1 dereferenceable(1) %"class.std::ios_base::Init"* @_ZNSt12_Vector_baseIiSaIiEE19_M_get_Tp_allocatorEv(%"struct.std::_Vector_base"* nonnull align 8 dereferenceable(24) %0) #5 comdat align 2 {
  %2 = alloca %"struct.std::_Vector_base"*, align 8, !llfi_index !376
  store %"struct.std::_Vector_base"* %0, %"struct.std::_Vector_base"** %2, align 8, !llfi_index !377
  %3 = load %"struct.std::_Vector_base"*, %"struct.std::_Vector_base"** %2, align 8, !llfi_index !378
  %4 = getelementptr inbounds %"struct.std::_Vector_base", %"struct.std::_Vector_base"* %3, i32 0, i32 0, !llfi_index !379
  %5 = bitcast %"struct.std::_Vector_base<int, std::allocator<int>>::_Vector_impl"* %4 to %"class.std::ios_base::Init"*, !llfi_index !380
  ret %"class.std::ios_base::Init"* %5, !llfi_index !381
}

; Function Attrs: mustprogress noinline uwtable
define linkonce_odr dso_local void @_ZSt8_DestroyIPiiEvT_S1_RSaIT0_E(i32* %0, i32* %1, %"class.std::ios_base::Init"* nonnull align 1 dereferenceable(1) %2) #4 comdat {
  %4 = alloca i32*, align 8, !llfi_index !382
  %5 = alloca i32*, align 8, !llfi_index !383
  %6 = alloca %"class.std::ios_base::Init"*, align 8, !llfi_index !384
  store i32* %0, i32** %4, align 8, !llfi_index !385
  store i32* %1, i32** %5, align 8, !llfi_index !386
  store %"class.std::ios_base::Init"* %2, %"class.std::ios_base::Init"** %6, align 8, !llfi_index !387
  %7 = load i32*, i32** %4, align 8, !llfi_index !388
  %8 = load i32*, i32** %5, align 8, !llfi_index !389
  call void @_ZSt8_DestroyIPiEvT_S1_(i32* %7, i32* %8), !llfi_index !390
  ret void, !llfi_index !391
}

; Function Attrs: noinline nounwind uwtable
define linkonce_odr dso_local void @_ZNSt12_Vector_baseIiSaIiEED2Ev(%"struct.std::_Vector_base"* nonnull align 8 dereferenceable(24) %0) unnamed_addr #7 comdat align 2 personality i8* bitcast (i32 (...)* @__gxx_personality_v0 to i8*) {
  %2 = alloca %"struct.std::_Vector_base"*, align 8, !llfi_index !392
  %3 = alloca i8*, align 8, !llfi_index !393
  %4 = alloca i32, align 4, !llfi_index !394
  store %"struct.std::_Vector_base"* %0, %"struct.std::_Vector_base"** %2, align 8, !llfi_index !395
  %5 = load %"struct.std::_Vector_base"*, %"struct.std::_Vector_base"** %2, align 8, !llfi_index !396
  %6 = getelementptr inbounds %"struct.std::_Vector_base", %"struct.std::_Vector_base"* %5, i32 0, i32 0, !llfi_index !397
  %7 = bitcast %"struct.std::_Vector_base<int, std::allocator<int>>::_Vector_impl"* %6 to %"struct.std::_Vector_base<int, std::allocator<int>>::_Vector_impl_data"*, !llfi_index !398
  %8 = getelementptr inbounds %"struct.std::_Vector_base<int, std::allocator<int>>::_Vector_impl_data", %"struct.std::_Vector_base<int, std::allocator<int>>::_Vector_impl_data"* %7, i32 0, i32 0, !llfi_index !399
  %9 = load i32*, i32** %8, align 8, !llfi_index !400
  %10 = getelementptr inbounds %"struct.std::_Vector_base", %"struct.std::_Vector_base"* %5, i32 0, i32 0, !llfi_index !401
  %11 = bitcast %"struct.std::_Vector_base<int, std::allocator<int>>::_Vector_impl"* %10 to %"struct.std::_Vector_base<int, std::allocator<int>>::_Vector_impl_data"*, !llfi_index !402
  %12 = getelementptr inbounds %"struct.std::_Vector_base<int, std::allocator<int>>::_Vector_impl_data", %"struct.std::_Vector_base<int, std::allocator<int>>::_Vector_impl_data"* %11, i32 0, i32 2, !llfi_index !403
  %13 = load i32*, i32** %12, align 8, !llfi_index !404
  %14 = getelementptr inbounds %"struct.std::_Vector_base", %"struct.std::_Vector_base"* %5, i32 0, i32 0, !llfi_index !405
  %15 = bitcast %"struct.std::_Vector_base<int, std::allocator<int>>::_Vector_impl"* %14 to %"struct.std::_Vector_base<int, std::allocator<int>>::_Vector_impl_data"*, !llfi_index !406
  %16 = getelementptr inbounds %"struct.std::_Vector_base<int, std::allocator<int>>::_Vector_impl_data", %"struct.std::_Vector_base<int, std::allocator<int>>::_Vector_impl_data"* %15, i32 0, i32 0, !llfi_index !407
  %17 = load i32*, i32** %16, align 8, !llfi_index !408
  %18 = ptrtoint i32* %13 to i64, !llfi_index !409
  %19 = ptrtoint i32* %17 to i64, !llfi_index !410
  %20 = sub i64 %18, %19, !llfi_index !411
  %21 = sdiv exact i64 %20, 4, !llfi_index !412
  invoke void @_ZNSt12_Vector_baseIiSaIiEE13_M_deallocateEPim(%"struct.std::_Vector_base"* nonnull align 8 dereferenceable(24) %5, i32* %9, i64 %21)
          to label %22 unwind label %24, !llfi_index !413

22:                                               ; preds = %1
  %23 = getelementptr inbounds %"struct.std::_Vector_base", %"struct.std::_Vector_base"* %5, i32 0, i32 0, !llfi_index !414
  call void @_ZNSt12_Vector_baseIiSaIiEE12_Vector_implD2Ev(%"struct.std::_Vector_base<int, std::allocator<int>>::_Vector_impl"* nonnull align 8 dereferenceable(24) %23) #2, !llfi_index !415
  ret void, !llfi_index !416

24:                                               ; preds = %1
  %25 = landingpad { i8*, i32 }
          catch i8* null, !llfi_index !417
  %26 = extractvalue { i8*, i32 } %25, 0, !llfi_index !418
  store i8* %26, i8** %3, align 8, !llfi_index !419
  %27 = extractvalue { i8*, i32 } %25, 1, !llfi_index !420
  store i32 %27, i32* %4, align 4, !llfi_index !421
  %28 = getelementptr inbounds %"struct.std::_Vector_base", %"struct.std::_Vector_base"* %5, i32 0, i32 0, !llfi_index !422
  call void @_ZNSt12_Vector_baseIiSaIiEE12_Vector_implD2Ev(%"struct.std::_Vector_base<int, std::allocator<int>>::_Vector_impl"* nonnull align 8 dereferenceable(24) %28) #2, !llfi_index !423
  br label %29, !llfi_index !424

29:                                               ; preds = %24
  %30 = load i8*, i8** %3, align 8, !llfi_index !425
  call void @__clang_call_terminate(i8* %30) #13, !llfi_index !426
  unreachable, !llfi_index !427
}

; Function Attrs: noinline noreturn nounwind
define linkonce_odr hidden void @__clang_call_terminate(i8* %0) #8 comdat {
  %2 = call i8* @__cxa_begin_catch(i8* %0) #2, !llfi_index !428
  call void @_ZSt9terminatev() #13, !llfi_index !429
  unreachable, !llfi_index !430
}

declare dso_local i8* @__cxa_begin_catch(i8*)

declare dso_local void @_ZSt9terminatev()

; Function Attrs: mustprogress noinline uwtable
define linkonce_odr dso_local void @_ZNSt12_Vector_baseIiSaIiEE13_M_deallocateEPim(%"struct.std::_Vector_base"* nonnull align 8 dereferenceable(24) %0, i32* %1, i64 %2) #4 comdat align 2 {
  %4 = alloca %"struct.std::_Vector_base"*, align 8, !llfi_index !431
  %5 = alloca i32*, align 8, !llfi_index !432
  %6 = alloca i64, align 8, !llfi_index !433
  store %"struct.std::_Vector_base"* %0, %"struct.std::_Vector_base"** %4, align 8, !llfi_index !434
  store i32* %1, i32** %5, align 8, !llfi_index !435
  store i64 %2, i64* %6, align 8, !llfi_index !436
  %7 = load %"struct.std::_Vector_base"*, %"struct.std::_Vector_base"** %4, align 8, !llfi_index !437
  %8 = load i32*, i32** %5, align 8, !llfi_index !438
  %9 = icmp ne i32* %8, null, !llfi_index !439
  br i1 %9, label %10, label %15, !llfi_index !440

10:                                               ; preds = %3
  %11 = getelementptr inbounds %"struct.std::_Vector_base", %"struct.std::_Vector_base"* %7, i32 0, i32 0, !llfi_index !441
  %12 = bitcast %"struct.std::_Vector_base<int, std::allocator<int>>::_Vector_impl"* %11 to %"class.std::ios_base::Init"*, !llfi_index !442
  %13 = load i32*, i32** %5, align 8, !llfi_index !443
  %14 = load i64, i64* %6, align 8, !llfi_index !444
  call void @_ZNSt16allocator_traitsISaIiEE10deallocateERS0_Pim(%"class.std::ios_base::Init"* nonnull align 1 dereferenceable(1) %12, i32* %13, i64 %14), !llfi_index !445
  br label %15, !llfi_index !446

15:                                               ; preds = %10, %3
  ret void, !llfi_index !447
}

; Function Attrs: noinline nounwind uwtable
define linkonce_odr dso_local void @_ZNSt12_Vector_baseIiSaIiEE12_Vector_implD2Ev(%"struct.std::_Vector_base<int, std::allocator<int>>::_Vector_impl"* nonnull align 8 dereferenceable(24) %0) unnamed_addr #7 comdat align 2 {
  %2 = alloca %"struct.std::_Vector_base<int, std::allocator<int>>::_Vector_impl"*, align 8, !llfi_index !448
  store %"struct.std::_Vector_base<int, std::allocator<int>>::_Vector_impl"* %0, %"struct.std::_Vector_base<int, std::allocator<int>>::_Vector_impl"** %2, align 8, !llfi_index !449
  %3 = load %"struct.std::_Vector_base<int, std::allocator<int>>::_Vector_impl"*, %"struct.std::_Vector_base<int, std::allocator<int>>::_Vector_impl"** %2, align 8, !llfi_index !450
  %4 = bitcast %"struct.std::_Vector_base<int, std::allocator<int>>::_Vector_impl"* %3 to %"class.std::ios_base::Init"*, !llfi_index !451
  call void @_ZNSaIiED2Ev(%"class.std::ios_base::Init"* nonnull align 1 dereferenceable(1) %4) #2, !llfi_index !452
  ret void, !llfi_index !453
}

; Function Attrs: mustprogress noinline uwtable
define linkonce_odr dso_local void @_ZNSt16allocator_traitsISaIiEE10deallocateERS0_Pim(%"class.std::ios_base::Init"* nonnull align 1 dereferenceable(1) %0, i32* %1, i64 %2) #4 comdat align 2 {
  %4 = alloca %"class.std::ios_base::Init"*, align 8, !llfi_index !454
  %5 = alloca i32*, align 8, !llfi_index !455
  %6 = alloca i64, align 8, !llfi_index !456
  store %"class.std::ios_base::Init"* %0, %"class.std::ios_base::Init"** %4, align 8, !llfi_index !457
  store i32* %1, i32** %5, align 8, !llfi_index !458
  store i64 %2, i64* %6, align 8, !llfi_index !459
  %7 = load %"class.std::ios_base::Init"*, %"class.std::ios_base::Init"** %4, align 8, !llfi_index !460
  %8 = bitcast %"class.std::ios_base::Init"* %7 to %"class.std::ios_base::Init"*, !llfi_index !461
  %9 = load i32*, i32** %5, align 8, !llfi_index !462
  %10 = load i64, i64* %6, align 8, !llfi_index !463
  call void @_ZN9__gnu_cxx13new_allocatorIiE10deallocateEPim(%"class.std::ios_base::Init"* nonnull align 1 dereferenceable(1) %8, i32* %9, i64 %10), !llfi_index !464
  ret void, !llfi_index !465
}

; Function Attrs: mustprogress noinline nounwind uwtable
define linkonce_odr dso_local void @_ZN9__gnu_cxx13new_allocatorIiE10deallocateEPim(%"class.std::ios_base::Init"* nonnull align 1 dereferenceable(1) %0, i32* %1, i64 %2) #5 comdat align 2 {
  %4 = alloca %"class.std::ios_base::Init"*, align 8, !llfi_index !466
  %5 = alloca i32*, align 8, !llfi_index !467
  %6 = alloca i64, align 8, !llfi_index !468
  store %"class.std::ios_base::Init"* %0, %"class.std::ios_base::Init"** %4, align 8, !llfi_index !469
  store i32* %1, i32** %5, align 8, !llfi_index !470
  store i64 %2, i64* %6, align 8, !llfi_index !471
  %7 = load %"class.std::ios_base::Init"*, %"class.std::ios_base::Init"** %4, align 8, !llfi_index !472
  %8 = load i32*, i32** %5, align 8, !llfi_index !473
  %9 = bitcast i32* %8 to i8*, !llfi_index !474
  call void @_ZdlPv(i8* %9) #2, !llfi_index !475
  ret void, !llfi_index !476
}

; Function Attrs: nobuiltin nounwind
declare dso_local void @_ZdlPv(i8*) #9

; Function Attrs: mustprogress noinline uwtable
define linkonce_odr dso_local void @_ZSt8_DestroyIPiEvT_S1_(i32* %0, i32* %1) #4 comdat {
  %3 = alloca i32*, align 8, !llfi_index !477
  %4 = alloca i32*, align 8, !llfi_index !478
  store i32* %0, i32** %3, align 8, !llfi_index !479
  store i32* %1, i32** %4, align 8, !llfi_index !480
  %5 = load i32*, i32** %3, align 8, !llfi_index !481
  %6 = load i32*, i32** %4, align 8, !llfi_index !482
  call void @_ZNSt12_Destroy_auxILb1EE9__destroyIPiEEvT_S3_(i32* %5, i32* %6), !llfi_index !483
  ret void, !llfi_index !484
}

; Function Attrs: mustprogress noinline nounwind uwtable
define linkonce_odr dso_local void @_ZNSt12_Destroy_auxILb1EE9__destroyIPiEEvT_S3_(i32* %0, i32* %1) #5 comdat align 2 {
  %3 = alloca i32*, align 8, !llfi_index !485
  %4 = alloca i32*, align 8, !llfi_index !486
  store i32* %0, i32** %3, align 8, !llfi_index !487
  store i32* %1, i32** %4, align 8, !llfi_index !488
  ret void, !llfi_index !489
}

; Function Attrs: mustprogress noinline nounwind uwtable
define linkonce_odr dso_local nonnull align 1 dereferenceable(1) %"class.std::ios_base::Init"* @_ZNKSt12_Vector_baseIiSaIiEE19_M_get_Tp_allocatorEv(%"struct.std::_Vector_base"* nonnull align 8 dereferenceable(24) %0) #5 comdat align 2 {
  %2 = alloca %"struct.std::_Vector_base"*, align 8, !llfi_index !490
  store %"struct.std::_Vector_base"* %0, %"struct.std::_Vector_base"** %2, align 8, !llfi_index !491
  %3 = load %"struct.std::_Vector_base"*, %"struct.std::_Vector_base"** %2, align 8, !llfi_index !492
  %4 = getelementptr inbounds %"struct.std::_Vector_base", %"struct.std::_Vector_base"* %3, i32 0, i32 0, !llfi_index !493
  %5 = bitcast %"struct.std::_Vector_base<int, std::allocator<int>>::_Vector_impl"* %4 to %"class.std::ios_base::Init"*, !llfi_index !494
  ret %"class.std::ios_base::Init"* %5, !llfi_index !495
}

; Function Attrs: mustprogress noinline uwtable
define linkonce_odr dso_local void @_ZN9__gnu_cxx14__alloc_traitsISaIiEiE17_S_select_on_copyERKS1_(%"class.std::ios_base::Init"* noalias sret(%"class.std::ios_base::Init") align 1 %0, %"class.std::ios_base::Init"* nonnull align 1 dereferenceable(1) %1) #4 comdat align 2 {
  %3 = alloca i8*, align 8, !llfi_index !496
  %4 = alloca %"class.std::ios_base::Init"*, align 8, !llfi_index !497
  %5 = bitcast %"class.std::ios_base::Init"* %0 to i8*, !llfi_index !498
  store i8* %5, i8** %3, align 8, !llfi_index !499
  store %"class.std::ios_base::Init"* %1, %"class.std::ios_base::Init"** %4, align 8, !llfi_index !500
  %6 = load %"class.std::ios_base::Init"*, %"class.std::ios_base::Init"** %4, align 8, !llfi_index !501
  call void @_ZNSt16allocator_traitsISaIiEE37select_on_container_copy_constructionERKS0_(%"class.std::ios_base::Init"* sret(%"class.std::ios_base::Init") align 1 %0, %"class.std::ios_base::Init"* nonnull align 1 dereferenceable(1) %6), !llfi_index !502
  ret void, !llfi_index !503
}

; Function Attrs: noinline uwtable
define linkonce_odr dso_local void @_ZNSt12_Vector_baseIiSaIiEEC2EmRKS0_(%"struct.std::_Vector_base"* nonnull align 8 dereferenceable(24) %0, i64 %1, %"class.std::ios_base::Init"* nonnull align 1 dereferenceable(1) %2) unnamed_addr #0 comdat align 2 personality i8* bitcast (i32 (...)* @__gxx_personality_v0 to i8*) {
  %4 = alloca %"struct.std::_Vector_base"*, align 8, !llfi_index !504
  %5 = alloca i64, align 8, !llfi_index !505
  %6 = alloca %"class.std::ios_base::Init"*, align 8, !llfi_index !506
  %7 = alloca i8*, align 8, !llfi_index !507
  %8 = alloca i32, align 4, !llfi_index !508
  store %"struct.std::_Vector_base"* %0, %"struct.std::_Vector_base"** %4, align 8, !llfi_index !509
  store i64 %1, i64* %5, align 8, !llfi_index !510
  store %"class.std::ios_base::Init"* %2, %"class.std::ios_base::Init"** %6, align 8, !llfi_index !511
  %9 = load %"struct.std::_Vector_base"*, %"struct.std::_Vector_base"** %4, align 8, !llfi_index !512
  %10 = getelementptr inbounds %"struct.std::_Vector_base", %"struct.std::_Vector_base"* %9, i32 0, i32 0, !llfi_index !513
  %11 = load %"class.std::ios_base::Init"*, %"class.std::ios_base::Init"** %6, align 8, !llfi_index !514
  call void @_ZNSt12_Vector_baseIiSaIiEE12_Vector_implC2ERKS0_(%"struct.std::_Vector_base<int, std::allocator<int>>::_Vector_impl"* nonnull align 8 dereferenceable(24) %10, %"class.std::ios_base::Init"* nonnull align 1 dereferenceable(1) %11) #2, !llfi_index !515
  %12 = load i64, i64* %5, align 8, !llfi_index !516
  invoke void @_ZNSt12_Vector_baseIiSaIiEE17_M_create_storageEm(%"struct.std::_Vector_base"* nonnull align 8 dereferenceable(24) %9, i64 %12)
          to label %13 unwind label %14, !llfi_index !517

13:                                               ; preds = %3
  ret void, !llfi_index !518

14:                                               ; preds = %3
  %15 = landingpad { i8*, i32 }
          cleanup, !llfi_index !519
  %16 = extractvalue { i8*, i32 } %15, 0, !llfi_index !520
  store i8* %16, i8** %7, align 8, !llfi_index !521
  %17 = extractvalue { i8*, i32 } %15, 1, !llfi_index !522
  store i32 %17, i32* %8, align 4, !llfi_index !523
  call void @_ZNSt12_Vector_baseIiSaIiEE12_Vector_implD2Ev(%"struct.std::_Vector_base<int, std::allocator<int>>::_Vector_impl"* nonnull align 8 dereferenceable(24) %10) #2, !llfi_index !524
  br label %18, !llfi_index !525

18:                                               ; preds = %14
  %19 = load i8*, i8** %7, align 8, !llfi_index !526
  %20 = load i32, i32* %8, align 4, !llfi_index !527
  %21 = insertvalue { i8*, i32 } undef, i8* %19, 0, !llfi_index !528
  %22 = insertvalue { i8*, i32 } %21, i32 %20, 1, !llfi_index !529
  resume { i8*, i32 } %22, !llfi_index !530
}

; Function Attrs: mustprogress noinline nounwind uwtable
define linkonce_odr dso_local i32* @_ZNKSt6vectorIiSaIiEE5beginEv(%"class.std::vector"* nonnull align 8 dereferenceable(24) %0) #5 comdat align 2 {
  %2 = alloca %"class.__gnu_cxx::__normal_iterator", align 8, !llfi_index !531
  %3 = alloca %"class.std::vector"*, align 8, !llfi_index !532
  store %"class.std::vector"* %0, %"class.std::vector"** %3, align 8, !llfi_index !533
  %4 = load %"class.std::vector"*, %"class.std::vector"** %3, align 8, !llfi_index !534
  %5 = bitcast %"class.std::vector"* %4 to %"struct.std::_Vector_base"*, !llfi_index !535
  %6 = getelementptr inbounds %"struct.std::_Vector_base", %"struct.std::_Vector_base"* %5, i32 0, i32 0, !llfi_index !536
  %7 = bitcast %"struct.std::_Vector_base<int, std::allocator<int>>::_Vector_impl"* %6 to %"struct.std::_Vector_base<int, std::allocator<int>>::_Vector_impl_data"*, !llfi_index !537
  %8 = getelementptr inbounds %"struct.std::_Vector_base<int, std::allocator<int>>::_Vector_impl_data", %"struct.std::_Vector_base<int, std::allocator<int>>::_Vector_impl_data"* %7, i32 0, i32 0, !llfi_index !538
  call void @_ZN9__gnu_cxx17__normal_iteratorIPKiSt6vectorIiSaIiEEEC2ERKS2_(%"class.__gnu_cxx::__normal_iterator"* nonnull align 8 dereferenceable(8) %2, i32** nonnull align 8 dereferenceable(8) %8) #2, !llfi_index !539
  %9 = getelementptr inbounds %"class.__gnu_cxx::__normal_iterator", %"class.__gnu_cxx::__normal_iterator"* %2, i32 0, i32 0, !llfi_index !540
  %10 = load i32*, i32** %9, align 8, !llfi_index !541
  ret i32* %10, !llfi_index !542
}

; Function Attrs: mustprogress noinline nounwind uwtable
define linkonce_odr dso_local i32* @_ZNKSt6vectorIiSaIiEE3endEv(%"class.std::vector"* nonnull align 8 dereferenceable(24) %0) #5 comdat align 2 {
  %2 = alloca %"class.__gnu_cxx::__normal_iterator", align 8, !llfi_index !543
  %3 = alloca %"class.std::vector"*, align 8, !llfi_index !544
  store %"class.std::vector"* %0, %"class.std::vector"** %3, align 8, !llfi_index !545
  %4 = load %"class.std::vector"*, %"class.std::vector"** %3, align 8, !llfi_index !546
  %5 = bitcast %"class.std::vector"* %4 to %"struct.std::_Vector_base"*, !llfi_index !547
  %6 = getelementptr inbounds %"struct.std::_Vector_base", %"struct.std::_Vector_base"* %5, i32 0, i32 0, !llfi_index !548
  %7 = bitcast %"struct.std::_Vector_base<int, std::allocator<int>>::_Vector_impl"* %6 to %"struct.std::_Vector_base<int, std::allocator<int>>::_Vector_impl_data"*, !llfi_index !549
  %8 = getelementptr inbounds %"struct.std::_Vector_base<int, std::allocator<int>>::_Vector_impl_data", %"struct.std::_Vector_base<int, std::allocator<int>>::_Vector_impl_data"* %7, i32 0, i32 1, !llfi_index !550
  call void @_ZN9__gnu_cxx17__normal_iteratorIPKiSt6vectorIiSaIiEEEC2ERKS2_(%"class.__gnu_cxx::__normal_iterator"* nonnull align 8 dereferenceable(8) %2, i32** nonnull align 8 dereferenceable(8) %8) #2, !llfi_index !551
  %9 = getelementptr inbounds %"class.__gnu_cxx::__normal_iterator", %"class.__gnu_cxx::__normal_iterator"* %2, i32 0, i32 0, !llfi_index !552
  %10 = load i32*, i32** %9, align 8, !llfi_index !553
  ret i32* %10, !llfi_index !554
}

; Function Attrs: mustprogress noinline uwtable
define linkonce_odr dso_local i32* @_ZSt22__uninitialized_copy_aIN9__gnu_cxx17__normal_iteratorIPKiSt6vectorIiSaIiEEEEPiiET0_T_SA_S9_RSaIT1_E(i32* %0, i32* %1, i32* %2, %"class.std::ios_base::Init"* nonnull align 1 dereferenceable(1) %3) #4 comdat {
  %5 = alloca %"class.__gnu_cxx::__normal_iterator", align 8, !llfi_index !555
  %6 = alloca %"class.__gnu_cxx::__normal_iterator", align 8, !llfi_index !556
  %7 = alloca i32*, align 8, !llfi_index !557
  %8 = alloca %"class.std::ios_base::Init"*, align 8, !llfi_index !558
  %9 = alloca %"class.__gnu_cxx::__normal_iterator", align 8, !llfi_index !559
  %10 = alloca %"class.__gnu_cxx::__normal_iterator", align 8, !llfi_index !560
  %11 = getelementptr inbounds %"class.__gnu_cxx::__normal_iterator", %"class.__gnu_cxx::__normal_iterator"* %5, i32 0, i32 0, !llfi_index !561
  store i32* %0, i32** %11, align 8, !llfi_index !562
  %12 = getelementptr inbounds %"class.__gnu_cxx::__normal_iterator", %"class.__gnu_cxx::__normal_iterator"* %6, i32 0, i32 0, !llfi_index !563
  store i32* %1, i32** %12, align 8, !llfi_index !564
  store i32* %2, i32** %7, align 8, !llfi_index !565
  store %"class.std::ios_base::Init"* %3, %"class.std::ios_base::Init"** %8, align 8, !llfi_index !566
  %13 = bitcast %"class.__gnu_cxx::__normal_iterator"* %9 to i8*, !llfi_index !567
  %14 = bitcast %"class.__gnu_cxx::__normal_iterator"* %5 to i8*, !llfi_index !568
  call void @llvm.memcpy.p0i8.p0i8.i64(i8* align 8 %13, i8* align 8 %14, i64 8, i1 false), !llfi_index !569
  %15 = bitcast %"class.__gnu_cxx::__normal_iterator"* %10 to i8*, !llfi_index !570
  %16 = bitcast %"class.__gnu_cxx::__normal_iterator"* %6 to i8*, !llfi_index !571
  call void @llvm.memcpy.p0i8.p0i8.i64(i8* align 8 %15, i8* align 8 %16, i64 8, i1 false), !llfi_index !572
  %17 = load i32*, i32** %7, align 8, !llfi_index !573
  %18 = getelementptr inbounds %"class.__gnu_cxx::__normal_iterator", %"class.__gnu_cxx::__normal_iterator"* %9, i32 0, i32 0, !llfi_index !574
  %19 = load i32*, i32** %18, align 8, !llfi_index !575
  %20 = getelementptr inbounds %"class.__gnu_cxx::__normal_iterator", %"class.__gnu_cxx::__normal_iterator"* %10, i32 0, i32 0, !llfi_index !576
  %21 = load i32*, i32** %20, align 8, !llfi_index !577
  %22 = call i32* @_ZSt18uninitialized_copyIN9__gnu_cxx17__normal_iteratorIPKiSt6vectorIiSaIiEEEEPiET0_T_SA_S9_(i32* %19, i32* %21, i32* %17), !llfi_index !578
  ret i32* %22, !llfi_index !579
}

; Function Attrs: argmemonly nofree nounwind willreturn
declare void @llvm.memcpy.p0i8.p0i8.i64(i8* noalias nocapture writeonly, i8* noalias nocapture readonly, i64, i1 immarg) #10

; Function Attrs: mustprogress noinline uwtable
define linkonce_odr dso_local i32* @_ZSt18uninitialized_copyIN9__gnu_cxx17__normal_iteratorIPKiSt6vectorIiSaIiEEEEPiET0_T_SA_S9_(i32* %0, i32* %1, i32* %2) #4 comdat {
  %4 = alloca %"class.__gnu_cxx::__normal_iterator", align 8, !llfi_index !580
  %5 = alloca %"class.__gnu_cxx::__normal_iterator", align 8, !llfi_index !581
  %6 = alloca i32*, align 8, !llfi_index !582
  %7 = alloca i8, align 1, !llfi_index !583
  %8 = alloca %"class.__gnu_cxx::__normal_iterator", align 8, !llfi_index !584
  %9 = alloca %"class.__gnu_cxx::__normal_iterator", align 8, !llfi_index !585
  %10 = getelementptr inbounds %"class.__gnu_cxx::__normal_iterator", %"class.__gnu_cxx::__normal_iterator"* %4, i32 0, i32 0, !llfi_index !586
  store i32* %0, i32** %10, align 8, !llfi_index !587
  %11 = getelementptr inbounds %"class.__gnu_cxx::__normal_iterator", %"class.__gnu_cxx::__normal_iterator"* %5, i32 0, i32 0, !llfi_index !588
  store i32* %1, i32** %11, align 8, !llfi_index !589
  store i32* %2, i32** %6, align 8, !llfi_index !590
  store i8 1, i8* %7, align 1, !llfi_index !591
  %12 = bitcast %"class.__gnu_cxx::__normal_iterator"* %8 to i8*, !llfi_index !592
  %13 = bitcast %"class.__gnu_cxx::__normal_iterator"* %4 to i8*, !llfi_index !593
  call void @llvm.memcpy.p0i8.p0i8.i64(i8* align 8 %12, i8* align 8 %13, i64 8, i1 false), !llfi_index !594
  %14 = bitcast %"class.__gnu_cxx::__normal_iterator"* %9 to i8*, !llfi_index !595
  %15 = bitcast %"class.__gnu_cxx::__normal_iterator"* %5 to i8*, !llfi_index !596
  call void @llvm.memcpy.p0i8.p0i8.i64(i8* align 8 %14, i8* align 8 %15, i64 8, i1 false), !llfi_index !597
  %16 = load i32*, i32** %6, align 8, !llfi_index !598
  %17 = getelementptr inbounds %"class.__gnu_cxx::__normal_iterator", %"class.__gnu_cxx::__normal_iterator"* %8, i32 0, i32 0, !llfi_index !599
  %18 = load i32*, i32** %17, align 8, !llfi_index !600
  %19 = getelementptr inbounds %"class.__gnu_cxx::__normal_iterator", %"class.__gnu_cxx::__normal_iterator"* %9, i32 0, i32 0, !llfi_index !601
  %20 = load i32*, i32** %19, align 8, !llfi_index !602
  %21 = call i32* @_ZNSt20__uninitialized_copyILb1EE13__uninit_copyIN9__gnu_cxx17__normal_iteratorIPKiSt6vectorIiSaIiEEEEPiEET0_T_SC_SB_(i32* %18, i32* %20, i32* %16), !llfi_index !603
  ret i32* %21, !llfi_index !604
}

; Function Attrs: mustprogress noinline uwtable
define linkonce_odr dso_local i32* @_ZNSt20__uninitialized_copyILb1EE13__uninit_copyIN9__gnu_cxx17__normal_iteratorIPKiSt6vectorIiSaIiEEEEPiEET0_T_SC_SB_(i32* %0, i32* %1, i32* %2) #4 comdat align 2 {
  %4 = alloca %"class.__gnu_cxx::__normal_iterator", align 8, !llfi_index !605
  %5 = alloca %"class.__gnu_cxx::__normal_iterator", align 8, !llfi_index !606
  %6 = alloca i32*, align 8, !llfi_index !607
  %7 = alloca %"class.__gnu_cxx::__normal_iterator", align 8, !llfi_index !608
  %8 = alloca %"class.__gnu_cxx::__normal_iterator", align 8, !llfi_index !609
  %9 = getelementptr inbounds %"class.__gnu_cxx::__normal_iterator", %"class.__gnu_cxx::__normal_iterator"* %4, i32 0, i32 0, !llfi_index !610
  store i32* %0, i32** %9, align 8, !llfi_index !611
  %10 = getelementptr inbounds %"class.__gnu_cxx::__normal_iterator", %"class.__gnu_cxx::__normal_iterator"* %5, i32 0, i32 0, !llfi_index !612
  store i32* %1, i32** %10, align 8, !llfi_index !613
  store i32* %2, i32** %6, align 8, !llfi_index !614
  %11 = bitcast %"class.__gnu_cxx::__normal_iterator"* %7 to i8*, !llfi_index !615
  %12 = bitcast %"class.__gnu_cxx::__normal_iterator"* %4 to i8*, !llfi_index !616
  call void @llvm.memcpy.p0i8.p0i8.i64(i8* align 8 %11, i8* align 8 %12, i64 8, i1 false), !llfi_index !617
  %13 = bitcast %"class.__gnu_cxx::__normal_iterator"* %8 to i8*, !llfi_index !618
  %14 = bitcast %"class.__gnu_cxx::__normal_iterator"* %5 to i8*, !llfi_index !619
  call void @llvm.memcpy.p0i8.p0i8.i64(i8* align 8 %13, i8* align 8 %14, i64 8, i1 false), !llfi_index !620
  %15 = load i32*, i32** %6, align 8, !llfi_index !621
  %16 = getelementptr inbounds %"class.__gnu_cxx::__normal_iterator", %"class.__gnu_cxx::__normal_iterator"* %7, i32 0, i32 0, !llfi_index !622
  %17 = load i32*, i32** %16, align 8, !llfi_index !623
  %18 = getelementptr inbounds %"class.__gnu_cxx::__normal_iterator", %"class.__gnu_cxx::__normal_iterator"* %8, i32 0, i32 0, !llfi_index !624
  %19 = load i32*, i32** %18, align 8, !llfi_index !625
  %20 = call i32* @_ZSt4copyIN9__gnu_cxx17__normal_iteratorIPKiSt6vectorIiSaIiEEEEPiET0_T_SA_S9_(i32* %17, i32* %19, i32* %15), !llfi_index !626
  ret i32* %20, !llfi_index !627
}

; Function Attrs: mustprogress noinline uwtable
define linkonce_odr dso_local i32* @_ZSt4copyIN9__gnu_cxx17__normal_iteratorIPKiSt6vectorIiSaIiEEEEPiET0_T_SA_S9_(i32* %0, i32* %1, i32* %2) #4 comdat {
  %4 = alloca %"class.__gnu_cxx::__normal_iterator", align 8, !llfi_index !628
  %5 = alloca %"class.__gnu_cxx::__normal_iterator", align 8, !llfi_index !629
  %6 = alloca i32*, align 8, !llfi_index !630
  %7 = alloca %"class.__gnu_cxx::__normal_iterator", align 8, !llfi_index !631
  %8 = alloca %"class.__gnu_cxx::__normal_iterator", align 8, !llfi_index !632
  %9 = alloca %"class.__gnu_cxx::__normal_iterator", align 8, !llfi_index !633
  %10 = alloca %"class.__gnu_cxx::__normal_iterator", align 8, !llfi_index !634
  %11 = getelementptr inbounds %"class.__gnu_cxx::__normal_iterator", %"class.__gnu_cxx::__normal_iterator"* %4, i32 0, i32 0, !llfi_index !635
  store i32* %0, i32** %11, align 8, !llfi_index !636
  %12 = getelementptr inbounds %"class.__gnu_cxx::__normal_iterator", %"class.__gnu_cxx::__normal_iterator"* %5, i32 0, i32 0, !llfi_index !637
  store i32* %1, i32** %12, align 8, !llfi_index !638
  store i32* %2, i32** %6, align 8, !llfi_index !639
  %13 = bitcast %"class.__gnu_cxx::__normal_iterator"* %8 to i8*, !llfi_index !640
  %14 = bitcast %"class.__gnu_cxx::__normal_iterator"* %4 to i8*, !llfi_index !641
  call void @llvm.memcpy.p0i8.p0i8.i64(i8* align 8 %13, i8* align 8 %14, i64 8, i1 false), !llfi_index !642
  %15 = getelementptr inbounds %"class.__gnu_cxx::__normal_iterator", %"class.__gnu_cxx::__normal_iterator"* %8, i32 0, i32 0, !llfi_index !643
  %16 = load i32*, i32** %15, align 8, !llfi_index !644
  %17 = call i32* @_ZSt12__miter_baseIN9__gnu_cxx17__normal_iteratorIPKiSt6vectorIiSaIiEEEEET_S8_(i32* %16), !llfi_index !645
  %18 = getelementptr inbounds %"class.__gnu_cxx::__normal_iterator", %"class.__gnu_cxx::__normal_iterator"* %7, i32 0, i32 0, !llfi_index !646
  store i32* %17, i32** %18, align 8, !llfi_index !647
  %19 = bitcast %"class.__gnu_cxx::__normal_iterator"* %10 to i8*, !llfi_index !648
  %20 = bitcast %"class.__gnu_cxx::__normal_iterator"* %5 to i8*, !llfi_index !649
  call void @llvm.memcpy.p0i8.p0i8.i64(i8* align 8 %19, i8* align 8 %20, i64 8, i1 false), !llfi_index !650
  %21 = getelementptr inbounds %"class.__gnu_cxx::__normal_iterator", %"class.__gnu_cxx::__normal_iterator"* %10, i32 0, i32 0, !llfi_index !651
  %22 = load i32*, i32** %21, align 8, !llfi_index !652
  %23 = call i32* @_ZSt12__miter_baseIN9__gnu_cxx17__normal_iteratorIPKiSt6vectorIiSaIiEEEEET_S8_(i32* %22), !llfi_index !653
  %24 = getelementptr inbounds %"class.__gnu_cxx::__normal_iterator", %"class.__gnu_cxx::__normal_iterator"* %9, i32 0, i32 0, !llfi_index !654
  store i32* %23, i32** %24, align 8, !llfi_index !655
  %25 = load i32*, i32** %6, align 8, !llfi_index !656
  %26 = getelementptr inbounds %"class.__gnu_cxx::__normal_iterator", %"class.__gnu_cxx::__normal_iterator"* %7, i32 0, i32 0, !llfi_index !657
  %27 = load i32*, i32** %26, align 8, !llfi_index !658
  %28 = getelementptr inbounds %"class.__gnu_cxx::__normal_iterator", %"class.__gnu_cxx::__normal_iterator"* %9, i32 0, i32 0, !llfi_index !659
  %29 = load i32*, i32** %28, align 8, !llfi_index !660
  %30 = call i32* @_ZSt14__copy_move_a2ILb0EN9__gnu_cxx17__normal_iteratorIPKiSt6vectorIiSaIiEEEEPiET1_T0_SA_S9_(i32* %27, i32* %29, i32* %25), !llfi_index !661
  ret i32* %30, !llfi_index !662
}

; Function Attrs: mustprogress noinline nounwind uwtable
define linkonce_odr dso_local i32* @_ZSt12__miter_baseIN9__gnu_cxx17__normal_iteratorIPKiSt6vectorIiSaIiEEEEET_S8_(i32* %0) #5 comdat {
  %2 = alloca %"class.__gnu_cxx::__normal_iterator", align 8, !llfi_index !663
  %3 = alloca %"class.__gnu_cxx::__normal_iterator", align 8, !llfi_index !664
  %4 = getelementptr inbounds %"class.__gnu_cxx::__normal_iterator", %"class.__gnu_cxx::__normal_iterator"* %3, i32 0, i32 0, !llfi_index !665
  store i32* %0, i32** %4, align 8, !llfi_index !666
  %5 = bitcast %"class.__gnu_cxx::__normal_iterator"* %2 to i8*, !llfi_index !667
  %6 = bitcast %"class.__gnu_cxx::__normal_iterator"* %3 to i8*, !llfi_index !668
  call void @llvm.memcpy.p0i8.p0i8.i64(i8* align 8 %5, i8* align 8 %6, i64 8, i1 false), !llfi_index !669
  %7 = getelementptr inbounds %"class.__gnu_cxx::__normal_iterator", %"class.__gnu_cxx::__normal_iterator"* %2, i32 0, i32 0, !llfi_index !670
  %8 = load i32*, i32** %7, align 8, !llfi_index !671
  ret i32* %8, !llfi_index !672
}

; Function Attrs: mustprogress noinline uwtable
define linkonce_odr dso_local i32* @_ZSt14__copy_move_a2ILb0EN9__gnu_cxx17__normal_iteratorIPKiSt6vectorIiSaIiEEEEPiET1_T0_SA_S9_(i32* %0, i32* %1, i32* %2) #4 comdat {
  %4 = alloca %"class.__gnu_cxx::__normal_iterator", align 8, !llfi_index !673
  %5 = alloca %"class.__gnu_cxx::__normal_iterator", align 8, !llfi_index !674
  %6 = alloca i32*, align 8, !llfi_index !675
  %7 = alloca %"class.__gnu_cxx::__normal_iterator", align 8, !llfi_index !676
  %8 = alloca %"class.__gnu_cxx::__normal_iterator", align 8, !llfi_index !677
  %9 = getelementptr inbounds %"class.__gnu_cxx::__normal_iterator", %"class.__gnu_cxx::__normal_iterator"* %4, i32 0, i32 0, !llfi_index !678
  store i32* %0, i32** %9, align 8, !llfi_index !679
  %10 = getelementptr inbounds %"class.__gnu_cxx::__normal_iterator", %"class.__gnu_cxx::__normal_iterator"* %5, i32 0, i32 0, !llfi_index !680
  store i32* %1, i32** %10, align 8, !llfi_index !681
  store i32* %2, i32** %6, align 8, !llfi_index !682
  %11 = bitcast %"class.__gnu_cxx::__normal_iterator"* %7 to i8*, !llfi_index !683
  %12 = bitcast %"class.__gnu_cxx::__normal_iterator"* %4 to i8*, !llfi_index !684
  call void @llvm.memcpy.p0i8.p0i8.i64(i8* align 8 %11, i8* align 8 %12, i64 8, i1 false), !llfi_index !685
  %13 = getelementptr inbounds %"class.__gnu_cxx::__normal_iterator", %"class.__gnu_cxx::__normal_iterator"* %7, i32 0, i32 0, !llfi_index !686
  %14 = load i32*, i32** %13, align 8, !llfi_index !687
  %15 = call i32* @_ZSt12__niter_baseIPKiSt6vectorIiSaIiEEET_N9__gnu_cxx17__normal_iteratorIS5_T0_EE(i32* %14) #2, !llfi_index !688
  %16 = bitcast %"class.__gnu_cxx::__normal_iterator"* %8 to i8*, !llfi_index !689
  %17 = bitcast %"class.__gnu_cxx::__normal_iterator"* %5 to i8*, !llfi_index !690
  call void @llvm.memcpy.p0i8.p0i8.i64(i8* align 8 %16, i8* align 8 %17, i64 8, i1 false), !llfi_index !691
  %18 = getelementptr inbounds %"class.__gnu_cxx::__normal_iterator", %"class.__gnu_cxx::__normal_iterator"* %8, i32 0, i32 0, !llfi_index !692
  %19 = load i32*, i32** %18, align 8, !llfi_index !693
  %20 = call i32* @_ZSt12__niter_baseIPKiSt6vectorIiSaIiEEET_N9__gnu_cxx17__normal_iteratorIS5_T0_EE(i32* %19) #2, !llfi_index !694
  %21 = load i32*, i32** %6, align 8, !llfi_index !695
  %22 = call i32* @_ZSt12__niter_baseIPiET_S1_(i32* %21) #2, !llfi_index !696
  %23 = call i32* @_ZSt13__copy_move_aILb0EPKiPiET1_T0_S4_S3_(i32* %15, i32* %20, i32* %22), !llfi_index !697
  %24 = call i32* @_ZSt12__niter_wrapIPiET_RKS1_S1_(i32** nonnull align 8 dereferenceable(8) %6, i32* %23), !llfi_index !698
  ret i32* %24, !llfi_index !699
}

; Function Attrs: mustprogress noinline nounwind uwtable
define linkonce_odr dso_local i32* @_ZSt12__niter_baseIPKiSt6vectorIiSaIiEEET_N9__gnu_cxx17__normal_iteratorIS5_T0_EE(i32* %0) #5 comdat {
  %2 = alloca %"class.__gnu_cxx::__normal_iterator", align 8, !llfi_index !700
  %3 = getelementptr inbounds %"class.__gnu_cxx::__normal_iterator", %"class.__gnu_cxx::__normal_iterator"* %2, i32 0, i32 0, !llfi_index !701
  store i32* %0, i32** %3, align 8, !llfi_index !702
  %4 = call nonnull align 8 dereferenceable(8) i32** @_ZNK9__gnu_cxx17__normal_iteratorIPKiSt6vectorIiSaIiEEE4baseEv(%"class.__gnu_cxx::__normal_iterator"* nonnull align 8 dereferenceable(8) %2) #2, !llfi_index !703
  %5 = load i32*, i32** %4, align 8, !llfi_index !704
  ret i32* %5, !llfi_index !705
}

; Function Attrs: mustprogress noinline nounwind uwtable
define linkonce_odr dso_local i32* @_ZSt12__niter_baseIPiET_S1_(i32* %0) #5 comdat {
  %2 = alloca i32*, align 8, !llfi_index !706
  store i32* %0, i32** %2, align 8, !llfi_index !707
  %3 = load i32*, i32** %2, align 8, !llfi_index !708
  ret i32* %3, !llfi_index !709
}

; Function Attrs: mustprogress noinline uwtable
define linkonce_odr dso_local i32* @_ZSt13__copy_move_aILb0EPKiPiET1_T0_S4_S3_(i32* %0, i32* %1, i32* %2) #4 comdat {
  %4 = alloca i32*, align 8, !llfi_index !710
  %5 = alloca i32*, align 8, !llfi_index !711
  %6 = alloca i32*, align 8, !llfi_index !712
  %7 = alloca i8, align 1, !llfi_index !713
  store i32* %0, i32** %4, align 8, !llfi_index !714
  store i32* %1, i32** %5, align 8, !llfi_index !715
  store i32* %2, i32** %6, align 8, !llfi_index !716
  store i8 1, i8* %7, align 1, !llfi_index !717
  %8 = load i32*, i32** %4, align 8, !llfi_index !718
  %9 = load i32*, i32** %5, align 8, !llfi_index !719
  %10 = load i32*, i32** %6, align 8, !llfi_index !720
  %11 = call i32* @_ZNSt11__copy_moveILb0ELb1ESt26random_access_iterator_tagE8__copy_mIiEEPT_PKS3_S6_S4_(i32* %8, i32* %9, i32* %10), !llfi_index !721
  ret i32* %11, !llfi_index !722
}

; Function Attrs: mustprogress noinline nounwind uwtable
define linkonce_odr dso_local i32* @_ZSt12__niter_wrapIPiET_RKS1_S1_(i32** nonnull align 8 dereferenceable(8) %0, i32* %1) #5 comdat {
  %3 = alloca i32**, align 8, !llfi_index !723
  %4 = alloca i32*, align 8, !llfi_index !724
  store i32** %0, i32*** %3, align 8, !llfi_index !725
  store i32* %1, i32** %4, align 8, !llfi_index !726
  %5 = load i32*, i32** %4, align 8, !llfi_index !727
  ret i32* %5, !llfi_index !728
}

; Function Attrs: mustprogress noinline nounwind uwtable
define linkonce_odr dso_local i32* @_ZNSt11__copy_moveILb0ELb1ESt26random_access_iterator_tagE8__copy_mIiEEPT_PKS3_S6_S4_(i32* %0, i32* %1, i32* %2) #5 comdat align 2 {
  %4 = alloca i32*, align 8, !llfi_index !729
  %5 = alloca i32*, align 8, !llfi_index !730
  %6 = alloca i32*, align 8, !llfi_index !731
  %7 = alloca i64, align 8, !llfi_index !732
  store i32* %0, i32** %4, align 8, !llfi_index !733
  store i32* %1, i32** %5, align 8, !llfi_index !734
  store i32* %2, i32** %6, align 8, !llfi_index !735
  %8 = load i32*, i32** %5, align 8, !llfi_index !736
  %9 = load i32*, i32** %4, align 8, !llfi_index !737
  %10 = ptrtoint i32* %8 to i64, !llfi_index !738
  %11 = ptrtoint i32* %9 to i64, !llfi_index !739
  %12 = sub i64 %10, %11, !llfi_index !740
  %13 = sdiv exact i64 %12, 4, !llfi_index !741
  store i64 %13, i64* %7, align 8, !llfi_index !742
  %14 = load i64, i64* %7, align 8, !llfi_index !743
  %15 = icmp ne i64 %14, 0, !llfi_index !744
  br i1 %15, label %16, label %23, !llfi_index !745

16:                                               ; preds = %3
  %17 = load i32*, i32** %6, align 8, !llfi_index !746
  %18 = bitcast i32* %17 to i8*, !llfi_index !747
  %19 = load i32*, i32** %4, align 8, !llfi_index !748
  %20 = bitcast i32* %19 to i8*, !llfi_index !749
  %21 = load i64, i64* %7, align 8, !llfi_index !750
  %22 = mul i64 4, %21, !llfi_index !751
  call void @llvm.memmove.p0i8.p0i8.i64(i8* align 4 %18, i8* align 4 %20, i64 %22, i1 false), !llfi_index !752
  br label %23, !llfi_index !753

23:                                               ; preds = %16, %3
  %24 = load i32*, i32** %6, align 8, !llfi_index !754
  %25 = load i64, i64* %7, align 8, !llfi_index !755
  %26 = getelementptr inbounds i32, i32* %24, i64 %25, !llfi_index !756
  ret i32* %26, !llfi_index !757
}

; Function Attrs: argmemonly nofree nounwind willreturn
declare void @llvm.memmove.p0i8.p0i8.i64(i8* nocapture writeonly, i8* nocapture readonly, i64, i1 immarg) #10

; Function Attrs: mustprogress noinline nounwind uwtable
define linkonce_odr dso_local nonnull align 8 dereferenceable(8) i32** @_ZNK9__gnu_cxx17__normal_iteratorIPKiSt6vectorIiSaIiEEE4baseEv(%"class.__gnu_cxx::__normal_iterator"* nonnull align 8 dereferenceable(8) %0) #5 comdat align 2 {
  %2 = alloca %"class.__gnu_cxx::__normal_iterator"*, align 8, !llfi_index !758
  store %"class.__gnu_cxx::__normal_iterator"* %0, %"class.__gnu_cxx::__normal_iterator"** %2, align 8, !llfi_index !759
  %3 = load %"class.__gnu_cxx::__normal_iterator"*, %"class.__gnu_cxx::__normal_iterator"** %2, align 8, !llfi_index !760
  %4 = getelementptr inbounds %"class.__gnu_cxx::__normal_iterator", %"class.__gnu_cxx::__normal_iterator"* %3, i32 0, i32 0, !llfi_index !761
  ret i32** %4, !llfi_index !762
}

; Function Attrs: noinline nounwind uwtable
define linkonce_odr dso_local void @_ZN9__gnu_cxx17__normal_iteratorIPKiSt6vectorIiSaIiEEEC2ERKS2_(%"class.__gnu_cxx::__normal_iterator"* nonnull align 8 dereferenceable(8) %0, i32** nonnull align 8 dereferenceable(8) %1) unnamed_addr #7 comdat align 2 {
  %3 = alloca %"class.__gnu_cxx::__normal_iterator"*, align 8, !llfi_index !763
  %4 = alloca i32**, align 8, !llfi_index !764
  store %"class.__gnu_cxx::__normal_iterator"* %0, %"class.__gnu_cxx::__normal_iterator"** %3, align 8, !llfi_index !765
  store i32** %1, i32*** %4, align 8, !llfi_index !766
  %5 = load %"class.__gnu_cxx::__normal_iterator"*, %"class.__gnu_cxx::__normal_iterator"** %3, align 8, !llfi_index !767
  %6 = getelementptr inbounds %"class.__gnu_cxx::__normal_iterator", %"class.__gnu_cxx::__normal_iterator"* %5, i32 0, i32 0, !llfi_index !768
  %7 = load i32**, i32*** %4, align 8, !llfi_index !769
  %8 = load i32*, i32** %7, align 8, !llfi_index !770
  store i32* %8, i32** %6, align 8, !llfi_index !771
  ret void, !llfi_index !772
}

; Function Attrs: noinline nounwind uwtable
define linkonce_odr dso_local void @_ZNSt12_Vector_baseIiSaIiEE12_Vector_implC2ERKS0_(%"struct.std::_Vector_base<int, std::allocator<int>>::_Vector_impl"* nonnull align 8 dereferenceable(24) %0, %"class.std::ios_base::Init"* nonnull align 1 dereferenceable(1) %1) unnamed_addr #7 comdat align 2 {
  %3 = alloca %"struct.std::_Vector_base<int, std::allocator<int>>::_Vector_impl"*, align 8, !llfi_index !773
  %4 = alloca %"class.std::ios_base::Init"*, align 8, !llfi_index !774
  store %"struct.std::_Vector_base<int, std::allocator<int>>::_Vector_impl"* %0, %"struct.std::_Vector_base<int, std::allocator<int>>::_Vector_impl"** %3, align 8, !llfi_index !775
  store %"class.std::ios_base::Init"* %1, %"class.std::ios_base::Init"** %4, align 8, !llfi_index !776
  %5 = load %"struct.std::_Vector_base<int, std::allocator<int>>::_Vector_impl"*, %"struct.std::_Vector_base<int, std::allocator<int>>::_Vector_impl"** %3, align 8, !llfi_index !777
  %6 = bitcast %"struct.std::_Vector_base<int, std::allocator<int>>::_Vector_impl"* %5 to %"class.std::ios_base::Init"*, !llfi_index !778
  %7 = load %"class.std::ios_base::Init"*, %"class.std::ios_base::Init"** %4, align 8, !llfi_index !779
  call void @_ZNSaIiEC2ERKS_(%"class.std::ios_base::Init"* nonnull align 1 dereferenceable(1) %6, %"class.std::ios_base::Init"* nonnull align 1 dereferenceable(1) %7) #2, !llfi_index !780
  %8 = bitcast %"struct.std::_Vector_base<int, std::allocator<int>>::_Vector_impl"* %5 to %"struct.std::_Vector_base<int, std::allocator<int>>::_Vector_impl_data"*, !llfi_index !781
  call void @_ZNSt12_Vector_baseIiSaIiEE17_Vector_impl_dataC2Ev(%"struct.std::_Vector_base<int, std::allocator<int>>::_Vector_impl_data"* nonnull align 8 dereferenceable(24) %8) #2, !llfi_index !782
  ret void, !llfi_index !783
}

; Function Attrs: mustprogress noinline uwtable
define linkonce_odr dso_local void @_ZNSt12_Vector_baseIiSaIiEE17_M_create_storageEm(%"struct.std::_Vector_base"* nonnull align 8 dereferenceable(24) %0, i64 %1) #4 comdat align 2 {
  %3 = alloca %"struct.std::_Vector_base"*, align 8, !llfi_index !784
  %4 = alloca i64, align 8, !llfi_index !785
  store %"struct.std::_Vector_base"* %0, %"struct.std::_Vector_base"** %3, align 8, !llfi_index !786
  store i64 %1, i64* %4, align 8, !llfi_index !787
  %5 = load %"struct.std::_Vector_base"*, %"struct.std::_Vector_base"** %3, align 8, !llfi_index !788
  %6 = load i64, i64* %4, align 8, !llfi_index !789
  %7 = call i32* @_ZNSt12_Vector_baseIiSaIiEE11_M_allocateEm(%"struct.std::_Vector_base"* nonnull align 8 dereferenceable(24) %5, i64 %6), !llfi_index !790
  %8 = getelementptr inbounds %"struct.std::_Vector_base", %"struct.std::_Vector_base"* %5, i32 0, i32 0, !llfi_index !791
  %9 = bitcast %"struct.std::_Vector_base<int, std::allocator<int>>::_Vector_impl"* %8 to %"struct.std::_Vector_base<int, std::allocator<int>>::_Vector_impl_data"*, !llfi_index !792
  %10 = getelementptr inbounds %"struct.std::_Vector_base<int, std::allocator<int>>::_Vector_impl_data", %"struct.std::_Vector_base<int, std::allocator<int>>::_Vector_impl_data"* %9, i32 0, i32 0, !llfi_index !793
  store i32* %7, i32** %10, align 8, !llfi_index !794
  %11 = getelementptr inbounds %"struct.std::_Vector_base", %"struct.std::_Vector_base"* %5, i32 0, i32 0, !llfi_index !795
  %12 = bitcast %"struct.std::_Vector_base<int, std::allocator<int>>::_Vector_impl"* %11 to %"struct.std::_Vector_base<int, std::allocator<int>>::_Vector_impl_data"*, !llfi_index !796
  %13 = getelementptr inbounds %"struct.std::_Vector_base<int, std::allocator<int>>::_Vector_impl_data", %"struct.std::_Vector_base<int, std::allocator<int>>::_Vector_impl_data"* %12, i32 0, i32 0, !llfi_index !797
  %14 = load i32*, i32** %13, align 8, !llfi_index !798
  %15 = getelementptr inbounds %"struct.std::_Vector_base", %"struct.std::_Vector_base"* %5, i32 0, i32 0, !llfi_index !799
  %16 = bitcast %"struct.std::_Vector_base<int, std::allocator<int>>::_Vector_impl"* %15 to %"struct.std::_Vector_base<int, std::allocator<int>>::_Vector_impl_data"*, !llfi_index !800
  %17 = getelementptr inbounds %"struct.std::_Vector_base<int, std::allocator<int>>::_Vector_impl_data", %"struct.std::_Vector_base<int, std::allocator<int>>::_Vector_impl_data"* %16, i32 0, i32 1, !llfi_index !801
  store i32* %14, i32** %17, align 8, !llfi_index !802
  %18 = getelementptr inbounds %"struct.std::_Vector_base", %"struct.std::_Vector_base"* %5, i32 0, i32 0, !llfi_index !803
  %19 = bitcast %"struct.std::_Vector_base<int, std::allocator<int>>::_Vector_impl"* %18 to %"struct.std::_Vector_base<int, std::allocator<int>>::_Vector_impl_data"*, !llfi_index !804
  %20 = getelementptr inbounds %"struct.std::_Vector_base<int, std::allocator<int>>::_Vector_impl_data", %"struct.std::_Vector_base<int, std::allocator<int>>::_Vector_impl_data"* %19, i32 0, i32 0, !llfi_index !805
  %21 = load i32*, i32** %20, align 8, !llfi_index !806
  %22 = load i64, i64* %4, align 8, !llfi_index !807
  %23 = getelementptr inbounds i32, i32* %21, i64 %22, !llfi_index !808
  %24 = getelementptr inbounds %"struct.std::_Vector_base", %"struct.std::_Vector_base"* %5, i32 0, i32 0, !llfi_index !809
  %25 = bitcast %"struct.std::_Vector_base<int, std::allocator<int>>::_Vector_impl"* %24 to %"struct.std::_Vector_base<int, std::allocator<int>>::_Vector_impl_data"*, !llfi_index !810
  %26 = getelementptr inbounds %"struct.std::_Vector_base<int, std::allocator<int>>::_Vector_impl_data", %"struct.std::_Vector_base<int, std::allocator<int>>::_Vector_impl_data"* %25, i32 0, i32 2, !llfi_index !811
  store i32* %23, i32** %26, align 8, !llfi_index !812
  ret void, !llfi_index !813
}

; Function Attrs: mustprogress noinline uwtable
define linkonce_odr dso_local i32* @_ZNSt12_Vector_baseIiSaIiEE11_M_allocateEm(%"struct.std::_Vector_base"* nonnull align 8 dereferenceable(24) %0, i64 %1) #4 comdat align 2 {
  %3 = alloca %"struct.std::_Vector_base"*, align 8, !llfi_index !814
  %4 = alloca i64, align 8, !llfi_index !815
  store %"struct.std::_Vector_base"* %0, %"struct.std::_Vector_base"** %3, align 8, !llfi_index !816
  store i64 %1, i64* %4, align 8, !llfi_index !817
  %5 = load %"struct.std::_Vector_base"*, %"struct.std::_Vector_base"** %3, align 8, !llfi_index !818
  %6 = load i64, i64* %4, align 8, !llfi_index !819
  %7 = icmp ne i64 %6, 0, !llfi_index !820
  br i1 %7, label %8, label %13, !llfi_index !821

8:                                                ; preds = %2
  %9 = getelementptr inbounds %"struct.std::_Vector_base", %"struct.std::_Vector_base"* %5, i32 0, i32 0, !llfi_index !822
  %10 = bitcast %"struct.std::_Vector_base<int, std::allocator<int>>::_Vector_impl"* %9 to %"class.std::ios_base::Init"*, !llfi_index !823
  %11 = load i64, i64* %4, align 8, !llfi_index !824
  %12 = call i32* @_ZNSt16allocator_traitsISaIiEE8allocateERS0_m(%"class.std::ios_base::Init"* nonnull align 1 dereferenceable(1) %10, i64 %11), !llfi_index !825
  br label %14, !llfi_index !826

13:                                               ; preds = %2
  br label %14, !llfi_index !827

14:                                               ; preds = %13, %8
  %15 = phi i32* [ %12, %8 ], [ null, %13 ], !llfi_index !828
  ret i32* %15, !llfi_index !829
}

; Function Attrs: mustprogress noinline uwtable
define linkonce_odr dso_local i32* @_ZNSt16allocator_traitsISaIiEE8allocateERS0_m(%"class.std::ios_base::Init"* nonnull align 1 dereferenceable(1) %0, i64 %1) #4 comdat align 2 {
  %3 = alloca %"class.std::ios_base::Init"*, align 8, !llfi_index !830
  %4 = alloca i64, align 8, !llfi_index !831
  store %"class.std::ios_base::Init"* %0, %"class.std::ios_base::Init"** %3, align 8, !llfi_index !832
  store i64 %1, i64* %4, align 8, !llfi_index !833
  %5 = load %"class.std::ios_base::Init"*, %"class.std::ios_base::Init"** %3, align 8, !llfi_index !834
  %6 = bitcast %"class.std::ios_base::Init"* %5 to %"class.std::ios_base::Init"*, !llfi_index !835
  %7 = load i64, i64* %4, align 8, !llfi_index !836
  %8 = call i32* @_ZN9__gnu_cxx13new_allocatorIiE8allocateEmPKv(%"class.std::ios_base::Init"* nonnull align 1 dereferenceable(1) %6, i64 %7, i8* null), !llfi_index !837
  ret i32* %8, !llfi_index !838
}

; Function Attrs: mustprogress noinline uwtable
define linkonce_odr dso_local i32* @_ZN9__gnu_cxx13new_allocatorIiE8allocateEmPKv(%"class.std::ios_base::Init"* nonnull align 1 dereferenceable(1) %0, i64 %1, i8* %2) #4 comdat align 2 {
  %4 = alloca %"class.std::ios_base::Init"*, align 8, !llfi_index !839
  %5 = alloca i64, align 8, !llfi_index !840
  %6 = alloca i8*, align 8, !llfi_index !841
  store %"class.std::ios_base::Init"* %0, %"class.std::ios_base::Init"** %4, align 8, !llfi_index !842
  store i64 %1, i64* %5, align 8, !llfi_index !843
  store i8* %2, i8** %6, align 8, !llfi_index !844
  %7 = load %"class.std::ios_base::Init"*, %"class.std::ios_base::Init"** %4, align 8, !llfi_index !845
  %8 = load i64, i64* %5, align 8, !llfi_index !846
  %9 = call i64 @_ZNK9__gnu_cxx13new_allocatorIiE8max_sizeEv(%"class.std::ios_base::Init"* nonnull align 1 dereferenceable(1) %7) #2, !llfi_index !847
  %10 = icmp ugt i64 %8, %9, !llfi_index !848
  br i1 %10, label %11, label %12, !llfi_index !849

11:                                               ; preds = %3
  call void @_ZSt17__throw_bad_allocv() #14, !llfi_index !850
  unreachable, !llfi_index !851

12:                                               ; preds = %3
  %13 = load i64, i64* %5, align 8, !llfi_index !852
  %14 = mul i64 %13, 4, !llfi_index !853
  %15 = call noalias nonnull i8* @_Znwm(i64 %14) #15, !llfi_index !854
  %16 = bitcast i8* %15 to i32*, !llfi_index !855
  ret i32* %16, !llfi_index !856
}

; Function Attrs: mustprogress noinline nounwind uwtable
define linkonce_odr dso_local i64 @_ZNK9__gnu_cxx13new_allocatorIiE8max_sizeEv(%"class.std::ios_base::Init"* nonnull align 1 dereferenceable(1) %0) #5 comdat align 2 {
  %2 = alloca %"class.std::ios_base::Init"*, align 8, !llfi_index !857
  store %"class.std::ios_base::Init"* %0, %"class.std::ios_base::Init"** %2, align 8, !llfi_index !858
  %3 = load %"class.std::ios_base::Init"*, %"class.std::ios_base::Init"** %2, align 8, !llfi_index !859
  ret i64 2305843009213693951, !llfi_index !860
}

; Function Attrs: noreturn
declare dso_local void @_ZSt17__throw_bad_allocv() #11

; Function Attrs: nobuiltin allocsize(0)
declare dso_local nonnull i8* @_Znwm(i64) #12

; Function Attrs: noinline nounwind uwtable
define linkonce_odr dso_local void @_ZNSaIiEC2ERKS_(%"class.std::ios_base::Init"* nonnull align 1 dereferenceable(1) %0, %"class.std::ios_base::Init"* nonnull align 1 dereferenceable(1) %1) unnamed_addr #7 comdat align 2 {
  %3 = alloca %"class.std::ios_base::Init"*, align 8, !llfi_index !861
  %4 = alloca %"class.std::ios_base::Init"*, align 8, !llfi_index !862
  store %"class.std::ios_base::Init"* %0, %"class.std::ios_base::Init"** %3, align 8, !llfi_index !863
  store %"class.std::ios_base::Init"* %1, %"class.std::ios_base::Init"** %4, align 8, !llfi_index !864
  %5 = load %"class.std::ios_base::Init"*, %"class.std::ios_base::Init"** %3, align 8, !llfi_index !865
  %6 = bitcast %"class.std::ios_base::Init"* %5 to %"class.std::ios_base::Init"*, !llfi_index !866
  %7 = load %"class.std::ios_base::Init"*, %"class.std::ios_base::Init"** %4, align 8, !llfi_index !867
  %8 = bitcast %"class.std::ios_base::Init"* %7 to %"class.std::ios_base::Init"*, !llfi_index !868
  call void @_ZN9__gnu_cxx13new_allocatorIiEC2ERKS1_(%"class.std::ios_base::Init"* nonnull align 1 dereferenceable(1) %6, %"class.std::ios_base::Init"* nonnull align 1 dereferenceable(1) %8) #2, !llfi_index !869
  ret void, !llfi_index !870
}

; Function Attrs: noinline nounwind uwtable
define linkonce_odr dso_local void @_ZNSt12_Vector_baseIiSaIiEE17_Vector_impl_dataC2Ev(%"struct.std::_Vector_base<int, std::allocator<int>>::_Vector_impl_data"* nonnull align 8 dereferenceable(24) %0) unnamed_addr #7 comdat align 2 {
  %2 = alloca %"struct.std::_Vector_base<int, std::allocator<int>>::_Vector_impl_data"*, align 8, !llfi_index !871
  store %"struct.std::_Vector_base<int, std::allocator<int>>::_Vector_impl_data"* %0, %"struct.std::_Vector_base<int, std::allocator<int>>::_Vector_impl_data"** %2, align 8, !llfi_index !872
  %3 = load %"struct.std::_Vector_base<int, std::allocator<int>>::_Vector_impl_data"*, %"struct.std::_Vector_base<int, std::allocator<int>>::_Vector_impl_data"** %2, align 8, !llfi_index !873
  %4 = getelementptr inbounds %"struct.std::_Vector_base<int, std::allocator<int>>::_Vector_impl_data", %"struct.std::_Vector_base<int, std::allocator<int>>::_Vector_impl_data"* %3, i32 0, i32 0, !llfi_index !874
  store i32* null, i32** %4, align 8, !llfi_index !875
  %5 = getelementptr inbounds %"struct.std::_Vector_base<int, std::allocator<int>>::_Vector_impl_data", %"struct.std::_Vector_base<int, std::allocator<int>>::_Vector_impl_data"* %3, i32 0, i32 1, !llfi_index !876
  store i32* null, i32** %5, align 8, !llfi_index !877
  %6 = getelementptr inbounds %"struct.std::_Vector_base<int, std::allocator<int>>::_Vector_impl_data", %"struct.std::_Vector_base<int, std::allocator<int>>::_Vector_impl_data"* %3, i32 0, i32 2, !llfi_index !878
  store i32* null, i32** %6, align 8, !llfi_index !879
  ret void, !llfi_index !880
}

; Function Attrs: noinline nounwind uwtable
define linkonce_odr dso_local void @_ZN9__gnu_cxx13new_allocatorIiEC2ERKS1_(%"class.std::ios_base::Init"* nonnull align 1 dereferenceable(1) %0, %"class.std::ios_base::Init"* nonnull align 1 dereferenceable(1) %1) unnamed_addr #7 comdat align 2 {
  %3 = alloca %"class.std::ios_base::Init"*, align 8, !llfi_index !881
  %4 = alloca %"class.std::ios_base::Init"*, align 8, !llfi_index !882
  store %"class.std::ios_base::Init"* %0, %"class.std::ios_base::Init"** %3, align 8, !llfi_index !883
  store %"class.std::ios_base::Init"* %1, %"class.std::ios_base::Init"** %4, align 8, !llfi_index !884
  %5 = load %"class.std::ios_base::Init"*, %"class.std::ios_base::Init"** %3, align 8, !llfi_index !885
  ret void, !llfi_index !886
}

; Function Attrs: mustprogress noinline nounwind uwtable
define linkonce_odr dso_local void @_ZNSt16allocator_traitsISaIiEE37select_on_container_copy_constructionERKS0_(%"class.std::ios_base::Init"* noalias sret(%"class.std::ios_base::Init") align 1 %0, %"class.std::ios_base::Init"* nonnull align 1 dereferenceable(1) %1) #5 comdat align 2 {
  %3 = alloca i8*, align 8, !llfi_index !887
  %4 = alloca %"class.std::ios_base::Init"*, align 8, !llfi_index !888
  %5 = bitcast %"class.std::ios_base::Init"* %0 to i8*, !llfi_index !889
  store i8* %5, i8** %3, align 8, !llfi_index !890
  store %"class.std::ios_base::Init"* %1, %"class.std::ios_base::Init"** %4, align 8, !llfi_index !891
  %6 = load %"class.std::ios_base::Init"*, %"class.std::ios_base::Init"** %4, align 8, !llfi_index !892
  call void @_ZNSaIiEC2ERKS_(%"class.std::ios_base::Init"* nonnull align 1 dereferenceable(1) %0, %"class.std::ios_base::Init"* nonnull align 1 dereferenceable(1) %6) #2, !llfi_index !893
  ret void, !llfi_index !894
}

; Function Attrs: noinline nounwind uwtable
define linkonce_odr dso_local void @_ZN9__gnu_cxx13new_allocatorIiED2Ev(%"class.std::ios_base::Init"* nonnull align 1 dereferenceable(1) %0) unnamed_addr #7 comdat align 2 {
  %2 = alloca %"class.std::ios_base::Init"*, align 8, !llfi_index !895
  store %"class.std::ios_base::Init"* %0, %"class.std::ios_base::Init"** %2, align 8, !llfi_index !896
  %3 = load %"class.std::ios_base::Init"*, %"class.std::ios_base::Init"** %2, align 8, !llfi_index !897
  ret void, !llfi_index !898
}

; Function Attrs: mustprogress noinline uwtable
define linkonce_odr dso_local i64 @_ZNSt6vectorIiSaIiEE17_S_check_init_lenEmRKS0_(i64 %0, %"class.std::ios_base::Init"* nonnull align 1 dereferenceable(1) %1) #4 comdat align 2 {
  %3 = alloca i64, align 8, !llfi_index !899
  %4 = alloca %"class.std::ios_base::Init"*, align 8, !llfi_index !900
  %5 = alloca %"class.std::ios_base::Init", align 1, !llfi_index !901
  store i64 %0, i64* %3, align 8, !llfi_index !902
  store %"class.std::ios_base::Init"* %1, %"class.std::ios_base::Init"** %4, align 8, !llfi_index !903
  %6 = load i64, i64* %3, align 8, !llfi_index !904
  %7 = load %"class.std::ios_base::Init"*, %"class.std::ios_base::Init"** %4, align 8, !llfi_index !905
  call void @_ZNSaIiEC2ERKS_(%"class.std::ios_base::Init"* nonnull align 1 dereferenceable(1) %5, %"class.std::ios_base::Init"* nonnull align 1 dereferenceable(1) %7) #2, !llfi_index !906
  %8 = call i64 @_ZNSt6vectorIiSaIiEE11_S_max_sizeERKS0_(%"class.std::ios_base::Init"* nonnull align 1 dereferenceable(1) %5) #2, !llfi_index !907
  %9 = icmp ugt i64 %6, %8, !llfi_index !908
  call void @_ZNSaIiED2Ev(%"class.std::ios_base::Init"* nonnull align 1 dereferenceable(1) %5) #2, !llfi_index !909
  br i1 %9, label %10, label %11, !llfi_index !910

10:                                               ; preds = %2
  call void @_ZSt20__throw_length_errorPKc(i8* getelementptr inbounds ([49 x i8], [49 x i8]* @.str.2, i64 0, i64 0)) #14, !llfi_index !911
  unreachable, !llfi_index !912

11:                                               ; preds = %2
  %12 = load i64, i64* %3, align 8, !llfi_index !913
  ret i64 %12, !llfi_index !914
}

; Function Attrs: mustprogress noinline uwtable
define linkonce_odr dso_local void @_ZNSt6vectorIiSaIiEE21_M_default_initializeEm(%"class.std::vector"* nonnull align 8 dereferenceable(24) %0, i64 %1) #4 comdat align 2 {
  %3 = alloca %"class.std::vector"*, align 8, !llfi_index !915
  %4 = alloca i64, align 8, !llfi_index !916
  store %"class.std::vector"* %0, %"class.std::vector"** %3, align 8, !llfi_index !917
  store i64 %1, i64* %4, align 8, !llfi_index !918
  %5 = load %"class.std::vector"*, %"class.std::vector"** %3, align 8, !llfi_index !919
  %6 = bitcast %"class.std::vector"* %5 to %"struct.std::_Vector_base"*, !llfi_index !920
  %7 = getelementptr inbounds %"struct.std::_Vector_base", %"struct.std::_Vector_base"* %6, i32 0, i32 0, !llfi_index !921
  %8 = bitcast %"struct.std::_Vector_base<int, std::allocator<int>>::_Vector_impl"* %7 to %"struct.std::_Vector_base<int, std::allocator<int>>::_Vector_impl_data"*, !llfi_index !922
  %9 = getelementptr inbounds %"struct.std::_Vector_base<int, std::allocator<int>>::_Vector_impl_data", %"struct.std::_Vector_base<int, std::allocator<int>>::_Vector_impl_data"* %8, i32 0, i32 0, !llfi_index !923
  %10 = load i32*, i32** %9, align 8, !llfi_index !924
  %11 = load i64, i64* %4, align 8, !llfi_index !925
  %12 = bitcast %"class.std::vector"* %5 to %"struct.std::_Vector_base"*, !llfi_index !926
  %13 = call nonnull align 1 dereferenceable(1) %"class.std::ios_base::Init"* @_ZNSt12_Vector_baseIiSaIiEE19_M_get_Tp_allocatorEv(%"struct.std::_Vector_base"* nonnull align 8 dereferenceable(24) %12) #2, !llfi_index !927
  %14 = call i32* @_ZSt27__uninitialized_default_n_aIPimiET_S1_T0_RSaIT1_E(i32* %10, i64 %11, %"class.std::ios_base::Init"* nonnull align 1 dereferenceable(1) %13), !llfi_index !928
  %15 = bitcast %"class.std::vector"* %5 to %"struct.std::_Vector_base"*, !llfi_index !929
  %16 = getelementptr inbounds %"struct.std::_Vector_base", %"struct.std::_Vector_base"* %15, i32 0, i32 0, !llfi_index !930
  %17 = bitcast %"struct.std::_Vector_base<int, std::allocator<int>>::_Vector_impl"* %16 to %"struct.std::_Vector_base<int, std::allocator<int>>::_Vector_impl_data"*, !llfi_index !931
  %18 = getelementptr inbounds %"struct.std::_Vector_base<int, std::allocator<int>>::_Vector_impl_data", %"struct.std::_Vector_base<int, std::allocator<int>>::_Vector_impl_data"* %17, i32 0, i32 1, !llfi_index !932
  store i32* %14, i32** %18, align 8, !llfi_index !933
  ret void, !llfi_index !934
}

; Function Attrs: mustprogress noinline uwtable
define linkonce_odr dso_local i32* @_ZSt27__uninitialized_default_n_aIPimiET_S1_T0_RSaIT1_E(i32* %0, i64 %1, %"class.std::ios_base::Init"* nonnull align 1 dereferenceable(1) %2) #4 comdat {
  %4 = alloca i32*, align 8, !llfi_index !935
  %5 = alloca i64, align 8, !llfi_index !936
  %6 = alloca %"class.std::ios_base::Init"*, align 8, !llfi_index !937
  store i32* %0, i32** %4, align 8, !llfi_index !938
  store i64 %1, i64* %5, align 8, !llfi_index !939
  store %"class.std::ios_base::Init"* %2, %"class.std::ios_base::Init"** %6, align 8, !llfi_index !940
  %7 = load i32*, i32** %4, align 8, !llfi_index !941
  %8 = load i64, i64* %5, align 8, !llfi_index !942
  %9 = call i32* @_ZSt25__uninitialized_default_nIPimET_S1_T0_(i32* %7, i64 %8), !llfi_index !943
  ret i32* %9, !llfi_index !944
}

; Function Attrs: mustprogress noinline uwtable
define linkonce_odr dso_local i32* @_ZSt25__uninitialized_default_nIPimET_S1_T0_(i32* %0, i64 %1) #4 comdat {
  %3 = alloca i32*, align 8, !llfi_index !945
  %4 = alloca i64, align 8, !llfi_index !946
  %5 = alloca i8, align 1, !llfi_index !947
  store i32* %0, i32** %3, align 8, !llfi_index !948
  store i64 %1, i64* %4, align 8, !llfi_index !949
  store i8 1, i8* %5, align 1, !llfi_index !950
  %6 = load i32*, i32** %3, align 8, !llfi_index !951
  %7 = load i64, i64* %4, align 8, !llfi_index !952
  %8 = call i32* @_ZNSt27__uninitialized_default_n_1ILb1EE18__uninit_default_nIPimEET_S3_T0_(i32* %6, i64 %7), !llfi_index !953
  ret i32* %8, !llfi_index !954
}

; Function Attrs: mustprogress noinline uwtable
define linkonce_odr dso_local i32* @_ZNSt27__uninitialized_default_n_1ILb1EE18__uninit_default_nIPimEET_S3_T0_(i32* %0, i64 %1) #4 comdat align 2 {
  %3 = alloca i32*, align 8, !llfi_index !955
  %4 = alloca i64, align 8, !llfi_index !956
  %5 = alloca i32, align 4, !llfi_index !957
  store i32* %0, i32** %3, align 8, !llfi_index !958
  store i64 %1, i64* %4, align 8, !llfi_index !959
  %6 = load i32*, i32** %3, align 8, !llfi_index !960
  %7 = load i64, i64* %4, align 8, !llfi_index !961
  store i32 0, i32* %5, align 4, !llfi_index !962
  %8 = call i32* @_ZSt6fill_nIPimiET_S1_T0_RKT1_(i32* %6, i64 %7, i32* nonnull align 4 dereferenceable(4) %5), !llfi_index !963
  ret i32* %8, !llfi_index !964
}

; Function Attrs: mustprogress noinline uwtable
define linkonce_odr dso_local i32* @_ZSt6fill_nIPimiET_S1_T0_RKT1_(i32* %0, i64 %1, i32* nonnull align 4 dereferenceable(4) %2) #4 comdat {
  %4 = alloca i32*, align 8, !llfi_index !965
  %5 = alloca i64, align 8, !llfi_index !966
  %6 = alloca i32*, align 8, !llfi_index !967
  store i32* %0, i32** %4, align 8, !llfi_index !968
  store i64 %1, i64* %5, align 8, !llfi_index !969
  store i32* %2, i32** %6, align 8, !llfi_index !970
  %7 = load i32*, i32** %4, align 8, !llfi_index !971
  %8 = call i32* @_ZSt12__niter_baseIPiET_S1_(i32* %7) #2, !llfi_index !972
  %9 = load i64, i64* %5, align 8, !llfi_index !973
  %10 = load i32*, i32** %6, align 8, !llfi_index !974
  %11 = call i32* @_ZSt10__fill_n_aIPimiEN9__gnu_cxx11__enable_ifIXsr11__is_scalarIT1_EE7__valueET_E6__typeES4_T0_RKS3_(i32* %8, i64 %9, i32* nonnull align 4 dereferenceable(4) %10), !llfi_index !975
  %12 = call i32* @_ZSt12__niter_wrapIPiET_RKS1_S1_(i32** nonnull align 8 dereferenceable(8) %4, i32* %11), !llfi_index !976
  ret i32* %12, !llfi_index !977
}

; Function Attrs: mustprogress noinline nounwind uwtable
define linkonce_odr dso_local i32* @_ZSt10__fill_n_aIPimiEN9__gnu_cxx11__enable_ifIXsr11__is_scalarIT1_EE7__valueET_E6__typeES4_T0_RKS3_(i32* %0, i64 %1, i32* nonnull align 4 dereferenceable(4) %2) #5 comdat {
  %4 = alloca i32*, align 8, !llfi_index !978
  %5 = alloca i64, align 8, !llfi_index !979
  %6 = alloca i32*, align 8, !llfi_index !980
  %7 = alloca i32, align 4, !llfi_index !981
  %8 = alloca i64, align 8, !llfi_index !982
  store i32* %0, i32** %4, align 8, !llfi_index !983
  store i64 %1, i64* %5, align 8, !llfi_index !984
  store i32* %2, i32** %6, align 8, !llfi_index !985
  %9 = load i32*, i32** %6, align 8, !llfi_index !986
  %10 = load i32, i32* %9, align 4, !llfi_index !987
  store i32 %10, i32* %7, align 4, !llfi_index !988
  %11 = load i64, i64* %5, align 8, !llfi_index !989
  store i64 %11, i64* %8, align 8, !llfi_index !990
  br label %12, !llfi_index !991

12:                                               ; preds = %18, %3
  %13 = load i64, i64* %8, align 8, !llfi_index !992
  %14 = icmp ugt i64 %13, 0, !llfi_index !993
  br i1 %14, label %15, label %23, !llfi_index !994

15:                                               ; preds = %12
  %16 = load i32, i32* %7, align 4, !llfi_index !995
  %17 = load i32*, i32** %4, align 8, !llfi_index !996
  store i32 %16, i32* %17, align 4, !llfi_index !997
  br label %18, !llfi_index !998

18:                                               ; preds = %15
  %19 = load i64, i64* %8, align 8, !llfi_index !999
  %20 = add i64 %19, -1, !llfi_index !1000
  store i64 %20, i64* %8, align 8, !llfi_index !1001
  %21 = load i32*, i32** %4, align 8, !llfi_index !1002
  %22 = getelementptr inbounds i32, i32* %21, i32 1, !llfi_index !1003
  store i32* %22, i32** %4, align 8, !llfi_index !1004
  br label %12, !llvm.loop !1005, !llfi_index !1006

23:                                               ; preds = %12
  %24 = load i32*, i32** %4, align 8, !llfi_index !1007
  ret i32* %24, !llfi_index !1008
}

; Function Attrs: mustprogress noinline nounwind uwtable
define linkonce_odr dso_local i64 @_ZNSt6vectorIiSaIiEE11_S_max_sizeERKS0_(%"class.std::ios_base::Init"* nonnull align 1 dereferenceable(1) %0) #5 comdat align 2 personality i8* bitcast (i32 (...)* @__gxx_personality_v0 to i8*) {
  %2 = alloca %"class.std::ios_base::Init"*, align 8, !llfi_index !1009
  %3 = alloca i64, align 8, !llfi_index !1010
  %4 = alloca i64, align 8, !llfi_index !1011
  store %"class.std::ios_base::Init"* %0, %"class.std::ios_base::Init"** %2, align 8, !llfi_index !1012
  store i64 2305843009213693951, i64* %3, align 8, !llfi_index !1013
  %5 = load %"class.std::ios_base::Init"*, %"class.std::ios_base::Init"** %2, align 8, !llfi_index !1014
  %6 = call i64 @_ZNSt16allocator_traitsISaIiEE8max_sizeERKS0_(%"class.std::ios_base::Init"* nonnull align 1 dereferenceable(1) %5) #2, !llfi_index !1015
  store i64 %6, i64* %4, align 8, !llfi_index !1016
  %7 = invoke nonnull align 8 dereferenceable(8) i64* @_ZSt3minImERKT_S2_S2_(i64* nonnull align 8 dereferenceable(8) %3, i64* nonnull align 8 dereferenceable(8) %4)
          to label %8 unwind label %10, !llfi_index !1017

8:                                                ; preds = %1
  %9 = load i64, i64* %7, align 8, !llfi_index !1018
  ret i64 %9, !llfi_index !1019

10:                                               ; preds = %1
  %11 = landingpad { i8*, i32 }
          catch i8* null, !llfi_index !1020
  %12 = extractvalue { i8*, i32 } %11, 0, !llfi_index !1021
  call void @__clang_call_terminate(i8* %12) #13, !llfi_index !1022
  unreachable, !llfi_index !1023
}

; Function Attrs: noreturn
declare dso_local void @_ZSt20__throw_length_errorPKc(i8*) #11

; Function Attrs: mustprogress noinline nounwind uwtable
define linkonce_odr dso_local i64 @_ZNSt16allocator_traitsISaIiEE8max_sizeERKS0_(%"class.std::ios_base::Init"* nonnull align 1 dereferenceable(1) %0) #5 comdat align 2 {
  %2 = alloca %"class.std::ios_base::Init"*, align 8, !llfi_index !1024
  store %"class.std::ios_base::Init"* %0, %"class.std::ios_base::Init"** %2, align 8, !llfi_index !1025
  %3 = load %"class.std::ios_base::Init"*, %"class.std::ios_base::Init"** %2, align 8, !llfi_index !1026
  %4 = bitcast %"class.std::ios_base::Init"* %3 to %"class.std::ios_base::Init"*, !llfi_index !1027
  %5 = call i64 @_ZNK9__gnu_cxx13new_allocatorIiE8max_sizeEv(%"class.std::ios_base::Init"* nonnull align 1 dereferenceable(1) %4) #2, !llfi_index !1028
  ret i64 %5, !llfi_index !1029
}

; Function Attrs: mustprogress noinline nounwind uwtable
define linkonce_odr dso_local nonnull align 8 dereferenceable(8) i64* @_ZSt3minImERKT_S2_S2_(i64* nonnull align 8 dereferenceable(8) %0, i64* nonnull align 8 dereferenceable(8) %1) #5 comdat {
  %3 = alloca i64*, align 8, !llfi_index !1030
  %4 = alloca i64*, align 8, !llfi_index !1031
  %5 = alloca i64*, align 8, !llfi_index !1032
  store i64* %0, i64** %4, align 8, !llfi_index !1033
  store i64* %1, i64** %5, align 8, !llfi_index !1034
  %6 = load i64*, i64** %5, align 8, !llfi_index !1035
  %7 = load i64, i64* %6, align 8, !llfi_index !1036
  %8 = load i64*, i64** %4, align 8, !llfi_index !1037
  %9 = load i64, i64* %8, align 8, !llfi_index !1038
  %10 = icmp ult i64 %7, %9, !llfi_index !1039
  br i1 %10, label %11, label %13, !llfi_index !1040

11:                                               ; preds = %2
  %12 = load i64*, i64** %5, align 8, !llfi_index !1041
  store i64* %12, i64** %3, align 8, !llfi_index !1042
  br label %15, !llfi_index !1043

13:                                               ; preds = %2
  %14 = load i64*, i64** %4, align 8, !llfi_index !1044
  store i64* %14, i64** %3, align 8, !llfi_index !1045
  br label %15, !llfi_index !1046

15:                                               ; preds = %13, %11
  %16 = load i64*, i64** %3, align 8, !llfi_index !1047
  ret i64* %16, !llfi_index !1048
}

; Function Attrs: noinline nounwind uwtable
define linkonce_odr dso_local void @_ZN9__gnu_cxx13new_allocatorIiEC2Ev(%"class.std::ios_base::Init"* nonnull align 1 dereferenceable(1) %0) unnamed_addr #7 comdat align 2 {
  %2 = alloca %"class.std::ios_base::Init"*, align 8, !llfi_index !1049
  store %"class.std::ios_base::Init"* %0, %"class.std::ios_base::Init"** %2, align 8, !llfi_index !1050
  %3 = load %"class.std::ios_base::Init"*, %"class.std::ios_base::Init"** %2, align 8, !llfi_index !1051
  ret void, !llfi_index !1052
}

attributes #0 = { noinline uwtable "frame-pointer"="all" "min-legal-vector-width"="0" "no-trapping-math"="true" "stack-protector-buffer-size"="8" "target-cpu"="x86-64" "target-features"="+cx8,+fxsr,+mmx,+sse,+sse2,+x87" "tune-cpu"="generic" }
attributes #1 = { "frame-pointer"="all" "no-trapping-math"="true" "stack-protector-buffer-size"="8" "target-cpu"="x86-64" "target-features"="+cx8,+fxsr,+mmx,+sse,+sse2,+x87" "tune-cpu"="generic" }
attributes #2 = { nounwind }
attributes #3 = { nounwind "frame-pointer"="all" "no-trapping-math"="true" "stack-protector-buffer-size"="8" "target-cpu"="x86-64" "target-features"="+cx8,+fxsr,+mmx,+sse,+sse2,+x87" "tune-cpu"="generic" }
attributes #4 = { mustprogress noinline uwtable "frame-pointer"="all" "min-legal-vector-width"="0" "no-trapping-math"="true" "stack-protector-buffer-size"="8" "target-cpu"="x86-64" "target-features"="+cx8,+fxsr,+mmx,+sse,+sse2,+x87" "tune-cpu"="generic" }
attributes #5 = { mustprogress noinline nounwind uwtable "frame-pointer"="all" "min-legal-vector-width"="0" "no-trapping-math"="true" "stack-protector-buffer-size"="8" "target-cpu"="x86-64" "target-features"="+cx8,+fxsr,+mmx,+sse,+sse2,+x87" "tune-cpu"="generic" }
attributes #6 = { mustprogress noinline norecurse uwtable "frame-pointer"="all" "min-legal-vector-width"="0" "no-trapping-math"="true" "stack-protector-buffer-size"="8" "target-cpu"="x86-64" "target-features"="+cx8,+fxsr,+mmx,+sse,+sse2,+x87" "tune-cpu"="generic" }
attributes #7 = { noinline nounwind uwtable "frame-pointer"="all" "min-legal-vector-width"="0" "no-trapping-math"="true" "stack-protector-buffer-size"="8" "target-cpu"="x86-64" "target-features"="+cx8,+fxsr,+mmx,+sse,+sse2,+x87" "tune-cpu"="generic" }
attributes #8 = { noinline noreturn nounwind }
attributes #9 = { nobuiltin nounwind "frame-pointer"="all" "no-trapping-math"="true" "stack-protector-buffer-size"="8" "target-cpu"="x86-64" "target-features"="+cx8,+fxsr,+mmx,+sse,+sse2,+x87" "tune-cpu"="generic" }
attributes #10 = { argmemonly nofree nounwind willreturn }
attributes #11 = { noreturn "frame-pointer"="all" "no-trapping-math"="true" "stack-protector-buffer-size"="8" "target-cpu"="x86-64" "target-features"="+cx8,+fxsr,+mmx,+sse,+sse2,+x87" "tune-cpu"="generic" }
attributes #12 = { nobuiltin allocsize(0) "frame-pointer"="all" "no-trapping-math"="true" "stack-protector-buffer-size"="8" "target-cpu"="x86-64" "target-features"="+cx8,+fxsr,+mmx,+sse,+sse2,+x87" "tune-cpu"="generic" }
attributes #13 = { noreturn nounwind }
attributes #14 = { noreturn }
attributes #15 = { allocsize(0) }

!llvm.ident = !{!0}
!llvm.module.flags = !{!1, !2, !3}

!0 = !{!"clang version 13.0.0 (https://github.com/llvm/llvm-project.git d7b669b3a30345cfcdb2fde2af6f48aa4b94845d)"}
!1 = !{i32 1, !"wchar_size", i32 4}
!2 = !{i32 7, !"uwtable", i32 1}
!3 = !{i32 7, !"frame-pointer", i32 2}
!4 = !{i64 1}
!5 = !{i64 2}
!6 = !{i64 3}
!7 = !{i64 4}
!8 = !{i64 5}
!9 = !{i64 6}
!10 = !{i64 7}
!11 = !{i64 8}
!12 = !{i64 9}
!13 = !{i64 10}
!14 = !{i64 11}
!15 = !{i64 12}
!16 = !{i64 13}
!17 = !{i64 14}
!18 = !{i64 15}
!19 = !{i64 16}
!20 = !{i64 17}
!21 = !{i64 18}
!22 = !{i64 19}
!23 = !{i64 20}
!24 = !{i64 21}
!25 = !{i64 22}
!26 = !{i64 23}
!27 = !{i64 24}
!28 = !{i64 25}
!29 = !{i64 26}
!30 = !{i64 27}
!31 = !{i64 28}
!32 = !{i64 29}
!33 = !{i64 30}
!34 = !{i64 31}
!35 = !{i64 32}
!36 = !{i64 33}
!37 = !{i64 34}
!38 = !{i64 35}
!39 = !{i64 36}
!40 = !{i64 37}
!41 = !{i64 38}
!42 = !{i64 39}
!43 = !{i64 40}
!44 = !{i64 41}
!45 = !{i64 42}
!46 = !{i64 43}
!47 = !{i64 44}
!48 = distinct !{!48, !49}
!49 = !{!"llvm.loop.mustprogress"}
!50 = !{i64 45}
!51 = !{i64 46}
!52 = !{i64 47}
!53 = !{i64 48}
!54 = !{i64 49}
!55 = !{i64 50}
!56 = !{i64 51}
!57 = !{i64 52}
!58 = !{i64 53}
!59 = !{i64 54}
!60 = !{i64 55}
!61 = !{i64 56}
!62 = !{i64 57}
!63 = !{i64 58}
!64 = !{i64 59}
!65 = !{i64 60}
!66 = !{i64 61}
!67 = !{i64 62}
!68 = !{i64 63}
!69 = !{i64 64}
!70 = !{i64 65}
!71 = !{i64 66}
!72 = !{i64 67}
!73 = !{i64 68}
!74 = !{i64 69}
!75 = !{i64 70}
!76 = !{i64 71}
!77 = !{i64 72}
!78 = !{i64 73}
!79 = !{i64 74}
!80 = !{i64 75}
!81 = !{i64 76}
!82 = !{i64 77}
!83 = !{i64 78}
!84 = !{i64 79}
!85 = !{i64 80}
!86 = !{i64 81}
!87 = !{i64 82}
!88 = !{i64 83}
!89 = !{i64 84}
!90 = !{i64 85}
!91 = !{i64 86}
!92 = !{i64 87}
!93 = !{i64 88}
!94 = !{i64 89}
!95 = !{i64 90}
!96 = !{i64 91}
!97 = !{i64 92}
!98 = !{i64 93}
!99 = !{i64 94}
!100 = !{i64 95}
!101 = !{i64 96}
!102 = !{i64 97}
!103 = !{i64 98}
!104 = !{i64 99}
!105 = !{i64 100}
!106 = !{i64 101}
!107 = !{i64 102}
!108 = !{i64 103}
!109 = !{i64 104}
!110 = !{i64 105}
!111 = !{i64 106}
!112 = !{i64 107}
!113 = !{i64 108}
!114 = !{i64 109}
!115 = !{i64 110}
!116 = !{i64 111}
!117 = !{i64 112}
!118 = !{i64 113}
!119 = !{i64 114}
!120 = !{i64 115}
!121 = !{i64 116}
!122 = !{i64 117}
!123 = !{i64 118}
!124 = !{i64 119}
!125 = !{i64 120}
!126 = !{i64 121}
!127 = !{i64 122}
!128 = !{i64 123}
!129 = !{i64 124}
!130 = !{i64 125}
!131 = !{i64 126}
!132 = !{i64 127}
!133 = !{i64 128}
!134 = !{i64 129}
!135 = !{i64 130}
!136 = !{i64 131}
!137 = !{i64 132}
!138 = !{i64 133}
!139 = !{i64 134}
!140 = !{i64 135}
!141 = !{i64 136}
!142 = !{i64 137}
!143 = !{i64 138}
!144 = !{i64 139}
!145 = distinct !{!145, !49}
!146 = !{i64 140}
!147 = !{i64 141}
!148 = !{i64 142}
!149 = !{i64 143}
!150 = !{i64 144}
!151 = !{i64 145}
!152 = !{i64 146}
!153 = !{i64 147}
!154 = !{i64 148}
!155 = !{i64 149}
!156 = !{i64 150}
!157 = !{i64 151}
!158 = !{i64 152}
!159 = !{i64 153}
!160 = !{i64 154}
!161 = !{i64 155}
!162 = !{i64 156}
!163 = !{i64 157}
!164 = !{i64 158}
!165 = !{i64 159}
!166 = !{i64 160}
!167 = !{i64 161}
!168 = !{i64 162}
!169 = !{i64 163}
!170 = !{i64 164}
!171 = !{i64 165}
!172 = !{i64 166}
!173 = !{i64 167}
!174 = !{i64 168}
!175 = !{i64 169}
!176 = !{i64 170}
!177 = !{i64 171}
!178 = !{i64 172}
!179 = !{i64 173}
!180 = distinct !{!180, !49}
!181 = !{i64 174}
!182 = !{i64 175}
!183 = !{i64 176}
!184 = !{i64 177}
!185 = !{i64 178}
!186 = !{i64 179}
!187 = !{i64 180}
!188 = !{i64 181}
!189 = !{i64 182}
!190 = !{i64 183}
!191 = !{i64 184}
!192 = !{i64 185}
!193 = !{i64 186}
!194 = !{i64 187}
!195 = !{i64 188}
!196 = !{i64 189}
!197 = !{i64 190}
!198 = !{i64 191}
!199 = !{i64 192}
!200 = !{i64 193}
!201 = !{i64 194}
!202 = !{i64 195}
!203 = !{i64 196}
!204 = !{i64 197}
!205 = !{i64 198}
!206 = !{i64 199}
!207 = !{i64 200}
!208 = !{i64 201}
!209 = !{i64 202}
!210 = !{i64 203}
!211 = !{i64 204}
!212 = !{i64 205}
!213 = !{i64 206}
!214 = !{i64 207}
!215 = !{i64 208}
!216 = !{i64 209}
!217 = !{i64 210}
!218 = !{i64 211}
!219 = !{i64 212}
!220 = !{i64 213}
!221 = !{i64 214}
!222 = !{i64 215}
!223 = !{i64 216}
!224 = !{i64 217}
!225 = !{i64 218}
!226 = !{i64 219}
!227 = !{i64 220}
!228 = !{i64 221}
!229 = !{i64 222}
!230 = !{i64 223}
!231 = !{i64 224}
!232 = !{i64 225}
!233 = !{i64 226}
!234 = !{i64 227}
!235 = !{i64 228}
!236 = !{i64 229}
!237 = !{i64 230}
!238 = !{i64 231}
!239 = !{i64 232}
!240 = !{i64 233}
!241 = !{i64 234}
!242 = !{i64 235}
!243 = !{i64 236}
!244 = !{i64 237}
!245 = !{i64 238}
!246 = !{i64 239}
!247 = !{i64 240}
!248 = !{i64 241}
!249 = !{i64 242}
!250 = !{i64 243}
!251 = !{i64 244}
!252 = !{i64 245}
!253 = !{i64 246}
!254 = !{i64 247}
!255 = !{i64 248}
!256 = !{i64 249}
!257 = !{i64 250}
!258 = !{i64 251}
!259 = !{i64 252}
!260 = !{i64 253}
!261 = !{i64 254}
!262 = !{i64 255}
!263 = !{i64 256}
!264 = !{i64 257}
!265 = !{i64 258}
!266 = !{i64 259}
!267 = !{i64 260}
!268 = !{i64 261}
!269 = !{i64 262}
!270 = !{i64 263}
!271 = !{i64 264}
!272 = !{i64 265}
!273 = !{i64 266}
!274 = !{i64 267}
!275 = !{i64 268}
!276 = !{i64 269}
!277 = !{i64 270}
!278 = !{i64 271}
!279 = !{i64 272}
!280 = !{i64 273}
!281 = !{i64 274}
!282 = !{i64 275}
!283 = !{i64 276}
!284 = !{i64 277}
!285 = !{i64 278}
!286 = !{i64 279}
!287 = !{i64 280}
!288 = !{i64 281}
!289 = !{i64 282}
!290 = !{i64 283}
!291 = !{i64 284}
!292 = !{i64 285}
!293 = !{i64 286}
!294 = !{i64 287}
!295 = !{i64 288}
!296 = !{i64 289}
!297 = !{i64 290}
!298 = !{i64 291}
!299 = !{i64 292}
!300 = !{i64 293}
!301 = !{i64 294}
!302 = !{i64 295}
!303 = !{i64 296}
!304 = !{i64 297}
!305 = !{i64 298}
!306 = !{i64 299}
!307 = !{i64 300}
!308 = !{i64 301}
!309 = !{i64 302}
!310 = !{i64 303}
!311 = !{i64 304}
!312 = !{i64 305}
!313 = !{i64 306}
!314 = !{i64 307}
!315 = !{i64 308}
!316 = !{i64 309}
!317 = !{i64 310}
!318 = !{i64 311}
!319 = !{i64 312}
!320 = !{i64 313}
!321 = !{i64 314}
!322 = !{i64 315}
!323 = !{i64 316}
!324 = !{i64 317}
!325 = !{i64 318}
!326 = !{i64 319}
!327 = !{i64 320}
!328 = !{i64 321}
!329 = !{i64 322}
!330 = !{i64 323}
!331 = !{i64 324}
!332 = !{i64 325}
!333 = !{i64 326}
!334 = !{i64 327}
!335 = !{i64 328}
!336 = !{i64 329}
!337 = !{i64 330}
!338 = !{i64 331}
!339 = !{i64 332}
!340 = !{i64 333}
!341 = !{i64 334}
!342 = !{i64 335}
!343 = !{i64 336}
!344 = !{i64 337}
!345 = !{i64 338}
!346 = !{i64 339}
!347 = !{i64 340}
!348 = !{i64 341}
!349 = !{i64 342}
!350 = !{i64 343}
!351 = !{i64 344}
!352 = !{i64 345}
!353 = !{i64 346}
!354 = !{i64 347}
!355 = !{i64 348}
!356 = !{i64 349}
!357 = !{i64 350}
!358 = !{i64 351}
!359 = !{i64 352}
!360 = !{i64 353}
!361 = !{i64 354}
!362 = !{i64 355}
!363 = !{i64 356}
!364 = !{i64 357}
!365 = !{i64 358}
!366 = !{i64 359}
!367 = !{i64 360}
!368 = !{i64 361}
!369 = !{i64 362}
!370 = !{i64 363}
!371 = !{i64 364}
!372 = !{i64 365}
!373 = !{i64 366}
!374 = !{i64 367}
!375 = !{i64 368}
!376 = !{i64 369}
!377 = !{i64 370}
!378 = !{i64 371}
!379 = !{i64 372}
!380 = !{i64 373}
!381 = !{i64 374}
!382 = !{i64 375}
!383 = !{i64 376}
!384 = !{i64 377}
!385 = !{i64 378}
!386 = !{i64 379}
!387 = !{i64 380}
!388 = !{i64 381}
!389 = !{i64 382}
!390 = !{i64 383}
!391 = !{i64 384}
!392 = !{i64 385}
!393 = !{i64 386}
!394 = !{i64 387}
!395 = !{i64 388}
!396 = !{i64 389}
!397 = !{i64 390}
!398 = !{i64 391}
!399 = !{i64 392}
!400 = !{i64 393}
!401 = !{i64 394}
!402 = !{i64 395}
!403 = !{i64 396}
!404 = !{i64 397}
!405 = !{i64 398}
!406 = !{i64 399}
!407 = !{i64 400}
!408 = !{i64 401}
!409 = !{i64 402}
!410 = !{i64 403}
!411 = !{i64 404}
!412 = !{i64 405}
!413 = !{i64 406}
!414 = !{i64 407}
!415 = !{i64 408}
!416 = !{i64 409}
!417 = !{i64 410}
!418 = !{i64 411}
!419 = !{i64 412}
!420 = !{i64 413}
!421 = !{i64 414}
!422 = !{i64 415}
!423 = !{i64 416}
!424 = !{i64 417}
!425 = !{i64 418}
!426 = !{i64 419}
!427 = !{i64 420}
!428 = !{i64 421}
!429 = !{i64 422}
!430 = !{i64 423}
!431 = !{i64 424}
!432 = !{i64 425}
!433 = !{i64 426}
!434 = !{i64 427}
!435 = !{i64 428}
!436 = !{i64 429}
!437 = !{i64 430}
!438 = !{i64 431}
!439 = !{i64 432}
!440 = !{i64 433}
!441 = !{i64 434}
!442 = !{i64 435}
!443 = !{i64 436}
!444 = !{i64 437}
!445 = !{i64 438}
!446 = !{i64 439}
!447 = !{i64 440}
!448 = !{i64 441}
!449 = !{i64 442}
!450 = !{i64 443}
!451 = !{i64 444}
!452 = !{i64 445}
!453 = !{i64 446}
!454 = !{i64 447}
!455 = !{i64 448}
!456 = !{i64 449}
!457 = !{i64 450}
!458 = !{i64 451}
!459 = !{i64 452}
!460 = !{i64 453}
!461 = !{i64 454}
!462 = !{i64 455}
!463 = !{i64 456}
!464 = !{i64 457}
!465 = !{i64 458}
!466 = !{i64 459}
!467 = !{i64 460}
!468 = !{i64 461}
!469 = !{i64 462}
!470 = !{i64 463}
!471 = !{i64 464}
!472 = !{i64 465}
!473 = !{i64 466}
!474 = !{i64 467}
!475 = !{i64 468}
!476 = !{i64 469}
!477 = !{i64 470}
!478 = !{i64 471}
!479 = !{i64 472}
!480 = !{i64 473}
!481 = !{i64 474}
!482 = !{i64 475}
!483 = !{i64 476}
!484 = !{i64 477}
!485 = !{i64 478}
!486 = !{i64 479}
!487 = !{i64 480}
!488 = !{i64 481}
!489 = !{i64 482}
!490 = !{i64 483}
!491 = !{i64 484}
!492 = !{i64 485}
!493 = !{i64 486}
!494 = !{i64 487}
!495 = !{i64 488}
!496 = !{i64 489}
!497 = !{i64 490}
!498 = !{i64 491}
!499 = !{i64 492}
!500 = !{i64 493}
!501 = !{i64 494}
!502 = !{i64 495}
!503 = !{i64 496}
!504 = !{i64 497}
!505 = !{i64 498}
!506 = !{i64 499}
!507 = !{i64 500}
!508 = !{i64 501}
!509 = !{i64 502}
!510 = !{i64 503}
!511 = !{i64 504}
!512 = !{i64 505}
!513 = !{i64 506}
!514 = !{i64 507}
!515 = !{i64 508}
!516 = !{i64 509}
!517 = !{i64 510}
!518 = !{i64 511}
!519 = !{i64 512}
!520 = !{i64 513}
!521 = !{i64 514}
!522 = !{i64 515}
!523 = !{i64 516}
!524 = !{i64 517}
!525 = !{i64 518}
!526 = !{i64 519}
!527 = !{i64 520}
!528 = !{i64 521}
!529 = !{i64 522}
!530 = !{i64 523}
!531 = !{i64 524}
!532 = !{i64 525}
!533 = !{i64 526}
!534 = !{i64 527}
!535 = !{i64 528}
!536 = !{i64 529}
!537 = !{i64 530}
!538 = !{i64 531}
!539 = !{i64 532}
!540 = !{i64 533}
!541 = !{i64 534}
!542 = !{i64 535}
!543 = !{i64 536}
!544 = !{i64 537}
!545 = !{i64 538}
!546 = !{i64 539}
!547 = !{i64 540}
!548 = !{i64 541}
!549 = !{i64 542}
!550 = !{i64 543}
!551 = !{i64 544}
!552 = !{i64 545}
!553 = !{i64 546}
!554 = !{i64 547}
!555 = !{i64 548}
!556 = !{i64 549}
!557 = !{i64 550}
!558 = !{i64 551}
!559 = !{i64 552}
!560 = !{i64 553}
!561 = !{i64 554}
!562 = !{i64 555}
!563 = !{i64 556}
!564 = !{i64 557}
!565 = !{i64 558}
!566 = !{i64 559}
!567 = !{i64 560}
!568 = !{i64 561}
!569 = !{i64 562}
!570 = !{i64 563}
!571 = !{i64 564}
!572 = !{i64 565}
!573 = !{i64 566}
!574 = !{i64 567}
!575 = !{i64 568}
!576 = !{i64 569}
!577 = !{i64 570}
!578 = !{i64 571}
!579 = !{i64 572}
!580 = !{i64 573}
!581 = !{i64 574}
!582 = !{i64 575}
!583 = !{i64 576}
!584 = !{i64 577}
!585 = !{i64 578}
!586 = !{i64 579}
!587 = !{i64 580}
!588 = !{i64 581}
!589 = !{i64 582}
!590 = !{i64 583}
!591 = !{i64 584}
!592 = !{i64 585}
!593 = !{i64 586}
!594 = !{i64 587}
!595 = !{i64 588}
!596 = !{i64 589}
!597 = !{i64 590}
!598 = !{i64 591}
!599 = !{i64 592}
!600 = !{i64 593}
!601 = !{i64 594}
!602 = !{i64 595}
!603 = !{i64 596}
!604 = !{i64 597}
!605 = !{i64 598}
!606 = !{i64 599}
!607 = !{i64 600}
!608 = !{i64 601}
!609 = !{i64 602}
!610 = !{i64 603}
!611 = !{i64 604}
!612 = !{i64 605}
!613 = !{i64 606}
!614 = !{i64 607}
!615 = !{i64 608}
!616 = !{i64 609}
!617 = !{i64 610}
!618 = !{i64 611}
!619 = !{i64 612}
!620 = !{i64 613}
!621 = !{i64 614}
!622 = !{i64 615}
!623 = !{i64 616}
!624 = !{i64 617}
!625 = !{i64 618}
!626 = !{i64 619}
!627 = !{i64 620}
!628 = !{i64 621}
!629 = !{i64 622}
!630 = !{i64 623}
!631 = !{i64 624}
!632 = !{i64 625}
!633 = !{i64 626}
!634 = !{i64 627}
!635 = !{i64 628}
!636 = !{i64 629}
!637 = !{i64 630}
!638 = !{i64 631}
!639 = !{i64 632}
!640 = !{i64 633}
!641 = !{i64 634}
!642 = !{i64 635}
!643 = !{i64 636}
!644 = !{i64 637}
!645 = !{i64 638}
!646 = !{i64 639}
!647 = !{i64 640}
!648 = !{i64 641}
!649 = !{i64 642}
!650 = !{i64 643}
!651 = !{i64 644}
!652 = !{i64 645}
!653 = !{i64 646}
!654 = !{i64 647}
!655 = !{i64 648}
!656 = !{i64 649}
!657 = !{i64 650}
!658 = !{i64 651}
!659 = !{i64 652}
!660 = !{i64 653}
!661 = !{i64 654}
!662 = !{i64 655}
!663 = !{i64 656}
!664 = !{i64 657}
!665 = !{i64 658}
!666 = !{i64 659}
!667 = !{i64 660}
!668 = !{i64 661}
!669 = !{i64 662}
!670 = !{i64 663}
!671 = !{i64 664}
!672 = !{i64 665}
!673 = !{i64 666}
!674 = !{i64 667}
!675 = !{i64 668}
!676 = !{i64 669}
!677 = !{i64 670}
!678 = !{i64 671}
!679 = !{i64 672}
!680 = !{i64 673}
!681 = !{i64 674}
!682 = !{i64 675}
!683 = !{i64 676}
!684 = !{i64 677}
!685 = !{i64 678}
!686 = !{i64 679}
!687 = !{i64 680}
!688 = !{i64 681}
!689 = !{i64 682}
!690 = !{i64 683}
!691 = !{i64 684}
!692 = !{i64 685}
!693 = !{i64 686}
!694 = !{i64 687}
!695 = !{i64 688}
!696 = !{i64 689}
!697 = !{i64 690}
!698 = !{i64 691}
!699 = !{i64 692}
!700 = !{i64 693}
!701 = !{i64 694}
!702 = !{i64 695}
!703 = !{i64 696}
!704 = !{i64 697}
!705 = !{i64 698}
!706 = !{i64 699}
!707 = !{i64 700}
!708 = !{i64 701}
!709 = !{i64 702}
!710 = !{i64 703}
!711 = !{i64 704}
!712 = !{i64 705}
!713 = !{i64 706}
!714 = !{i64 707}
!715 = !{i64 708}
!716 = !{i64 709}
!717 = !{i64 710}
!718 = !{i64 711}
!719 = !{i64 712}
!720 = !{i64 713}
!721 = !{i64 714}
!722 = !{i64 715}
!723 = !{i64 716}
!724 = !{i64 717}
!725 = !{i64 718}
!726 = !{i64 719}
!727 = !{i64 720}
!728 = !{i64 721}
!729 = !{i64 722}
!730 = !{i64 723}
!731 = !{i64 724}
!732 = !{i64 725}
!733 = !{i64 726}
!734 = !{i64 727}
!735 = !{i64 728}
!736 = !{i64 729}
!737 = !{i64 730}
!738 = !{i64 731}
!739 = !{i64 732}
!740 = !{i64 733}
!741 = !{i64 734}
!742 = !{i64 735}
!743 = !{i64 736}
!744 = !{i64 737}
!745 = !{i64 738}
!746 = !{i64 739}
!747 = !{i64 740}
!748 = !{i64 741}
!749 = !{i64 742}
!750 = !{i64 743}
!751 = !{i64 744}
!752 = !{i64 745}
!753 = !{i64 746}
!754 = !{i64 747}
!755 = !{i64 748}
!756 = !{i64 749}
!757 = !{i64 750}
!758 = !{i64 751}
!759 = !{i64 752}
!760 = !{i64 753}
!761 = !{i64 754}
!762 = !{i64 755}
!763 = !{i64 756}
!764 = !{i64 757}
!765 = !{i64 758}
!766 = !{i64 759}
!767 = !{i64 760}
!768 = !{i64 761}
!769 = !{i64 762}
!770 = !{i64 763}
!771 = !{i64 764}
!772 = !{i64 765}
!773 = !{i64 766}
!774 = !{i64 767}
!775 = !{i64 768}
!776 = !{i64 769}
!777 = !{i64 770}
!778 = !{i64 771}
!779 = !{i64 772}
!780 = !{i64 773}
!781 = !{i64 774}
!782 = !{i64 775}
!783 = !{i64 776}
!784 = !{i64 777}
!785 = !{i64 778}
!786 = !{i64 779}
!787 = !{i64 780}
!788 = !{i64 781}
!789 = !{i64 782}
!790 = !{i64 783}
!791 = !{i64 784}
!792 = !{i64 785}
!793 = !{i64 786}
!794 = !{i64 787}
!795 = !{i64 788}
!796 = !{i64 789}
!797 = !{i64 790}
!798 = !{i64 791}
!799 = !{i64 792}
!800 = !{i64 793}
!801 = !{i64 794}
!802 = !{i64 795}
!803 = !{i64 796}
!804 = !{i64 797}
!805 = !{i64 798}
!806 = !{i64 799}
!807 = !{i64 800}
!808 = !{i64 801}
!809 = !{i64 802}
!810 = !{i64 803}
!811 = !{i64 804}
!812 = !{i64 805}
!813 = !{i64 806}
!814 = !{i64 807}
!815 = !{i64 808}
!816 = !{i64 809}
!817 = !{i64 810}
!818 = !{i64 811}
!819 = !{i64 812}
!820 = !{i64 813}
!821 = !{i64 814}
!822 = !{i64 815}
!823 = !{i64 816}
!824 = !{i64 817}
!825 = !{i64 818}
!826 = !{i64 819}
!827 = !{i64 820}
!828 = !{i64 821}
!829 = !{i64 822}
!830 = !{i64 823}
!831 = !{i64 824}
!832 = !{i64 825}
!833 = !{i64 826}
!834 = !{i64 827}
!835 = !{i64 828}
!836 = !{i64 829}
!837 = !{i64 830}
!838 = !{i64 831}
!839 = !{i64 832}
!840 = !{i64 833}
!841 = !{i64 834}
!842 = !{i64 835}
!843 = !{i64 836}
!844 = !{i64 837}
!845 = !{i64 838}
!846 = !{i64 839}
!847 = !{i64 840}
!848 = !{i64 841}
!849 = !{i64 842}
!850 = !{i64 843}
!851 = !{i64 844}
!852 = !{i64 845}
!853 = !{i64 846}
!854 = !{i64 847}
!855 = !{i64 848}
!856 = !{i64 849}
!857 = !{i64 850}
!858 = !{i64 851}
!859 = !{i64 852}
!860 = !{i64 853}
!861 = !{i64 854}
!862 = !{i64 855}
!863 = !{i64 856}
!864 = !{i64 857}
!865 = !{i64 858}
!866 = !{i64 859}
!867 = !{i64 860}
!868 = !{i64 861}
!869 = !{i64 862}
!870 = !{i64 863}
!871 = !{i64 864}
!872 = !{i64 865}
!873 = !{i64 866}
!874 = !{i64 867}
!875 = !{i64 868}
!876 = !{i64 869}
!877 = !{i64 870}
!878 = !{i64 871}
!879 = !{i64 872}
!880 = !{i64 873}
!881 = !{i64 874}
!882 = !{i64 875}
!883 = !{i64 876}
!884 = !{i64 877}
!885 = !{i64 878}
!886 = !{i64 879}
!887 = !{i64 880}
!888 = !{i64 881}
!889 = !{i64 882}
!890 = !{i64 883}
!891 = !{i64 884}
!892 = !{i64 885}
!893 = !{i64 886}
!894 = !{i64 887}
!895 = !{i64 888}
!896 = !{i64 889}
!897 = !{i64 890}
!898 = !{i64 891}
!899 = !{i64 892}
!900 = !{i64 893}
!901 = !{i64 894}
!902 = !{i64 895}
!903 = !{i64 896}
!904 = !{i64 897}
!905 = !{i64 898}
!906 = !{i64 899}
!907 = !{i64 900}
!908 = !{i64 901}
!909 = !{i64 902}
!910 = !{i64 903}
!911 = !{i64 904}
!912 = !{i64 905}
!913 = !{i64 906}
!914 = !{i64 907}
!915 = !{i64 908}
!916 = !{i64 909}
!917 = !{i64 910}
!918 = !{i64 911}
!919 = !{i64 912}
!920 = !{i64 913}
!921 = !{i64 914}
!922 = !{i64 915}
!923 = !{i64 916}
!924 = !{i64 917}
!925 = !{i64 918}
!926 = !{i64 919}
!927 = !{i64 920}
!928 = !{i64 921}
!929 = !{i64 922}
!930 = !{i64 923}
!931 = !{i64 924}
!932 = !{i64 925}
!933 = !{i64 926}
!934 = !{i64 927}
!935 = !{i64 928}
!936 = !{i64 929}
!937 = !{i64 930}
!938 = !{i64 931}
!939 = !{i64 932}
!940 = !{i64 933}
!941 = !{i64 934}
!942 = !{i64 935}
!943 = !{i64 936}
!944 = !{i64 937}
!945 = !{i64 938}
!946 = !{i64 939}
!947 = !{i64 940}
!948 = !{i64 941}
!949 = !{i64 942}
!950 = !{i64 943}
!951 = !{i64 944}
!952 = !{i64 945}
!953 = !{i64 946}
!954 = !{i64 947}
!955 = !{i64 948}
!956 = !{i64 949}
!957 = !{i64 950}
!958 = !{i64 951}
!959 = !{i64 952}
!960 = !{i64 953}
!961 = !{i64 954}
!962 = !{i64 955}
!963 = !{i64 956}
!964 = !{i64 957}
!965 = !{i64 958}
!966 = !{i64 959}
!967 = !{i64 960}
!968 = !{i64 961}
!969 = !{i64 962}
!970 = !{i64 963}
!971 = !{i64 964}
!972 = !{i64 965}
!973 = !{i64 966}
!974 = !{i64 967}
!975 = !{i64 968}
!976 = !{i64 969}
!977 = !{i64 970}
!978 = !{i64 971}
!979 = !{i64 972}
!980 = !{i64 973}
!981 = !{i64 974}
!982 = !{i64 975}
!983 = !{i64 976}
!984 = !{i64 977}
!985 = !{i64 978}
!986 = !{i64 979}
!987 = !{i64 980}
!988 = !{i64 981}
!989 = !{i64 982}
!990 = !{i64 983}
!991 = !{i64 984}
!992 = !{i64 985}
!993 = !{i64 986}
!994 = !{i64 987}
!995 = !{i64 988}
!996 = !{i64 989}
!997 = !{i64 990}
!998 = !{i64 991}
!999 = !{i64 992}
!1000 = !{i64 993}
!1001 = !{i64 994}
!1002 = !{i64 995}
!1003 = !{i64 996}
!1004 = !{i64 997}
!1005 = distinct !{!1005, !49}
!1006 = !{i64 998}
!1007 = !{i64 999}
!1008 = !{i64 1000}
!1009 = !{i64 1001}
!1010 = !{i64 1002}
!1011 = !{i64 1003}
!1012 = !{i64 1004}
!1013 = !{i64 1005}
!1014 = !{i64 1006}
!1015 = !{i64 1007}
!1016 = !{i64 1008}
!1017 = !{i64 1009}
!1018 = !{i64 1010}
!1019 = !{i64 1011}
!1020 = !{i64 1012}
!1021 = !{i64 1013}
!1022 = !{i64 1014}
!1023 = !{i64 1015}
!1024 = !{i64 1016}
!1025 = !{i64 1017}
!1026 = !{i64 1018}
!1027 = !{i64 1019}
!1028 = !{i64 1020}
!1029 = !{i64 1021}
!1030 = !{i64 1022}
!1031 = !{i64 1023}
!1032 = !{i64 1024}
!1033 = !{i64 1025}
!1034 = !{i64 1026}
!1035 = !{i64 1027}
!1036 = !{i64 1028}
!1037 = !{i64 1029}
!1038 = !{i64 1030}
!1039 = !{i64 1031}
!1040 = !{i64 1032}
!1041 = !{i64 1033}
!1042 = !{i64 1034}
!1043 = !{i64 1035}
!1044 = !{i64 1036}
!1045 = !{i64 1037}
!1046 = !{i64 1038}
!1047 = !{i64 1039}
!1048 = !{i64 1040}
!1049 = !{i64 1041}
!1050 = !{i64 1042}
!1051 = !{i64 1043}
!1052 = !{i64 1044}
