; ModuleID = '/home/hjiang/Computation-Kernel-Dataset/experiments/Fault_injection_0308_parall/O0/MaxTransform/MaxTransform.ll'
source_filename = "llvm-link"
target datalayout = "e-m:e-p270:32:32-p271:32:32-p272:64:64-i64:64-f80:128-n8:16:32:64-S128"
target triple = "x86_64-unknown-linux-gnu"

%"class.std::allocator" = type { i8 }
%"class.std::vector" = type { %"struct.std::_Vector_base" }
%"struct.std::_Vector_base" = type { %"struct.std::_Vector_base<int, std::allocator<int>>::_Vector_impl" }
%"struct.std::_Vector_base<int, std::allocator<int>>::_Vector_impl" = type { %"struct.std::_Vector_base<int, std::allocator<int>>::_Vector_impl_data" }
%"struct.std::_Vector_base<int, std::allocator<int>>::_Vector_impl_data" = type { i32*, i32*, i32* }
%struct._IO_FILE = type { i32, i8*, i8*, i8*, i8*, i8*, i8*, i8*, i8*, i8*, i8*, i8*, %struct._IO_marker*, %struct._IO_FILE*, i32, i32, i64, i16, i8, [1 x i8], i8*, i64, %struct._IO_codecvt*, %struct._IO_wide_data*, %struct._IO_FILE*, i8*, i64, i32, [20 x i8] }
%struct._IO_marker = type opaque
%struct._IO_codecvt = type opaque
%struct._IO_wide_data = type opaque
%"class.__gnu_cxx::__normal_iterator" = type { i32* }

$_ZNSt6vectorIiSaIiEEC2Ev = comdat any

$_ZNSt6vectorIiSaIiEED2Ev = comdat any

$_ZNSt12_Vector_baseIiSaIiEE19_M_get_Tp_allocatorEv = comdat any

$_ZSt8_DestroyIPiiEvT_S1_RSaIT0_E = comdat any

$_ZNSt12_Vector_baseIiSaIiEED2Ev = comdat any

$__clang_call_terminate = comdat any

$_ZNSt12_Vector_baseIiSaIiEE13_M_deallocateEPim = comdat any

$_ZNSt12_Vector_baseIiSaIiEE12_Vector_implD2Ev = comdat any

$_ZNSaIiED2Ev = comdat any

$_ZN9__gnu_cxx13new_allocatorIiED2Ev = comdat any

$_ZNSt16allocator_traitsISaIiEE10deallocateERS0_Pim = comdat any

$_ZN9__gnu_cxx13new_allocatorIiE10deallocateEPim = comdat any

$_ZSt8_DestroyIPiEvT_S1_ = comdat any

$_ZNSt12_Destroy_auxILb1EE9__destroyIPiEEvT_S3_ = comdat any

$_ZNSt12_Vector_baseIiSaIiEEC2Ev = comdat any

$_ZNSt12_Vector_baseIiSaIiEE12_Vector_implC2Ev = comdat any

$_ZNSaIiEC2Ev = comdat any

$_ZNSt12_Vector_baseIiSaIiEE17_Vector_impl_dataC2Ev = comdat any

$_ZN9__gnu_cxx13new_allocatorIiEC2Ev = comdat any

$_ZSt3minIiERKT_S2_S2_ = comdat any

$_ZNSt6vectorIiSaIiEE9push_backERKi = comdat any

$_ZSt3maxIiERKT_S2_S2_ = comdat any

$_ZNKSt6vectorIiSaIiEE4sizeEv = comdat any

$_ZNSt6vectorIiSaIiEEixEm = comdat any

$_ZNSt16allocator_traitsISaIiEE9constructIiJRKiEEEvRS0_PT_DpOT0_ = comdat any

$_ZNSt6vectorIiSaIiEE3endEv = comdat any

$_ZNSt6vectorIiSaIiEE17_M_realloc_insertIJRKiEEEvN9__gnu_cxx17__normal_iteratorIPiS1_EEDpOT_ = comdat any

$_ZNKSt6vectorIiSaIiEE12_M_check_lenEmPKc = comdat any

$_ZNSt6vectorIiSaIiEE5beginEv = comdat any

$_ZN9__gnu_cxxmiIPiSt6vectorIiSaIiEEEENS_17__normal_iteratorIT_T0_E15difference_typeERKS8_SB_ = comdat any

$_ZNSt12_Vector_baseIiSaIiEE11_M_allocateEm = comdat any

$_ZSt7forwardIRKiEOT_RNSt16remove_referenceIS2_E4typeE = comdat any

$_ZNK9__gnu_cxx17__normal_iteratorIPiSt6vectorIiSaIiEEE4baseEv = comdat any

$_ZNSt6vectorIiSaIiEE11_S_relocateEPiS2_S2_RS0_ = comdat any

$_ZNSt6vectorIiSaIiEE14_S_do_relocateEPiS2_S2_RS0_St17integral_constantIbLb1EE = comdat any

$_ZSt12__relocate_aIPiS0_SaIiEET0_T_S3_S2_RT1_ = comdat any

$_ZSt12__niter_baseIPiET_S1_ = comdat any

$_ZSt14__relocate_a_1IiiENSt9enable_ifIXsr3std24__is_bitwise_relocatableIT_EE5valueEPS1_E4typeES2_S2_S2_RSaIT0_E = comdat any

$_ZNSt16allocator_traitsISaIiEE8allocateERS0_m = comdat any

$_ZN9__gnu_cxx13new_allocatorIiE8allocateEmPKv = comdat any

$_ZNK9__gnu_cxx13new_allocatorIiE8max_sizeEv = comdat any

$_ZN9__gnu_cxx17__normal_iteratorIPiSt6vectorIiSaIiEEEC2ERKS1_ = comdat any

$_ZNKSt6vectorIiSaIiEE8max_sizeEv = comdat any

$_ZSt3maxImERKT_S2_S2_ = comdat any

$_ZNKSt12_Vector_baseIiSaIiEE19_M_get_Tp_allocatorEv = comdat any

$_ZNSt6vectorIiSaIiEE11_S_max_sizeERKS0_ = comdat any

$_ZNSt16allocator_traitsISaIiEE8max_sizeERKS0_ = comdat any

$_ZSt3minImERKT_S2_S2_ = comdat any

$_ZN9__gnu_cxx13new_allocatorIiE9constructIiJRKiEEEvPT_DpOT0_ = comdat any

@llvm.global_ctors = appending global [1 x { i32, void ()*, i8* }] [{ i32, void ()*, i8* } { i32 65535, void ()* @_GLOBAL__sub_I_MaxTransform.cpp, i8* null }]
@_ZStL8__ioinit = internal global %"class.std::allocator" zeroinitializer, align 1
@used = dso_local global [1100000 x i32] zeroinitializer, align 16
@fa = dso_local global [1100000 x i32] zeroinitializer, align 16
@sum = dso_local global [1100000 x i32] zeroinitializer, align 16
@f = dso_local global [1100000 x i32] zeroinitializer, align 16
@now = dso_local global i32 0, align 4
@ans = dso_local global i32 0, align 4
@T = dso_local global i32 0, align 4
@cc = dso_local global i32 0, align 4
@V = dso_local global [1100000 x %"class.std::vector"] zeroinitializer, align 16
@n = dso_local global i32 0, align 4
@a = dso_local global [1100000 x i32] zeroinitializer, align 16
@.str = private unnamed_addr constant [28 x i8] c"../input_files/MaxTransform\00", align 1
@.str.2 = private unnamed_addr constant [2 x i8] c"r\00", align 1
@stdin = external dso_local global %struct._IO_FILE*, align 8
@.str.3 = private unnamed_addr constant [3 x i8] c"%d\00", align 1
@.str.4 = private unnamed_addr constant [4 x i8] c"%d\0A\00", align 1
@.str.5 = private unnamed_addr constant [26 x i8] c"vector::_M_realloc_insert\00", align 1

; Function Attrs: noinline uwtable
define internal void @_GLOBAL__sub_I_MaxTransform.cpp() #0 section ".text.startup" {
  call void @__cxx_global_var_init(), !llfi_index !4
  call void @__cxx_global_var_init.1(), !llfi_index !5
  ret void, !llfi_index !6
}

; Function Attrs: noinline uwtable
define internal void @__cxx_global_var_init() #0 section ".text.startup" {
  call void @_ZNSt8ios_base4InitC1Ev(%"class.std::allocator"* nonnull align 1 dereferenceable(1) @_ZStL8__ioinit), !llfi_index !7
  %1 = call i32 @atexit(void ()* @__dtor__ZStL8__ioinit) #2, !llfi_index !8
  ret void, !llfi_index !9
}

; Function Attrs: noinline uwtable
define internal void @__cxx_global_var_init.1() #0 section ".text.startup" {
  br label %1, !llfi_index !10

1:                                                ; preds = %1, %0
  %2 = phi %"class.std::vector"* [ getelementptr inbounds ([1100000 x %"class.std::vector"], [1100000 x %"class.std::vector"]* @V, i32 0, i32 0), %0 ], [ %3, %1 ], !llfi_index !11
  call void @_ZNSt6vectorIiSaIiEEC2Ev(%"class.std::vector"* nonnull align 8 dereferenceable(24) %2) #2, !llfi_index !12
  %3 = getelementptr inbounds %"class.std::vector", %"class.std::vector"* %2, i64 1, !llfi_index !13
  %4 = icmp eq %"class.std::vector"* %3, getelementptr inbounds (%"class.std::vector", %"class.std::vector"* getelementptr inbounds ([1100000 x %"class.std::vector"], [1100000 x %"class.std::vector"]* @V, i32 0, i32 0), i64 1100000), !llfi_index !14
  br i1 %4, label %5, label %1, !llfi_index !15

5:                                                ; preds = %1
  %6 = call i32 @atexit(void ()* @__dtor_V) #2, !llfi_index !16
  ret void, !llfi_index !17
}

; Function Attrs: noinline nounwind uwtable
define linkonce_odr dso_local void @_ZNSt6vectorIiSaIiEEC2Ev(%"class.std::vector"* nonnull align 8 dereferenceable(24) %0) unnamed_addr #1 comdat align 2 {
  %2 = alloca %"class.std::vector"*, align 8, !llfi_index !18
  store %"class.std::vector"* %0, %"class.std::vector"** %2, align 8, !llfi_index !19
  %3 = load %"class.std::vector"*, %"class.std::vector"** %2, align 8, !llfi_index !20
  %4 = bitcast %"class.std::vector"* %3 to %"struct.std::_Vector_base"*, !llfi_index !21
  call void @_ZNSt12_Vector_baseIiSaIiEEC2Ev(%"struct.std::_Vector_base"* nonnull align 8 dereferenceable(24) %4) #2, !llfi_index !22
  ret void, !llfi_index !23
}

; Function Attrs: noinline uwtable
define internal void @__dtor_V() #0 section ".text.startup" {
  call void @__cxx_global_array_dtor(i8* null), !llfi_index !24
  ret void, !llfi_index !25
}

; Function Attrs: nounwind
declare dso_local i32 @atexit(void ()*) #2

; Function Attrs: noinline uwtable
define internal void @__cxx_global_array_dtor(i8* %0) #0 section ".text.startup" {
  %2 = alloca i8*, align 8, !llfi_index !26
  store i8* %0, i8** %2, align 8, !llfi_index !27
  br label %3, !llfi_index !28

3:                                                ; preds = %3, %1
  %4 = phi %"class.std::vector"* [ getelementptr inbounds (%"class.std::vector", %"class.std::vector"* getelementptr inbounds ([1100000 x %"class.std::vector"], [1100000 x %"class.std::vector"]* @V, i32 0, i32 0), i64 1100000), %1 ], [ %5, %3 ], !llfi_index !29
  %5 = getelementptr inbounds %"class.std::vector", %"class.std::vector"* %4, i64 -1, !llfi_index !30
  call void @_ZNSt6vectorIiSaIiEED2Ev(%"class.std::vector"* nonnull align 8 dereferenceable(24) %5) #2, !llfi_index !31
  %6 = icmp eq %"class.std::vector"* %5, getelementptr inbounds ([1100000 x %"class.std::vector"], [1100000 x %"class.std::vector"]* @V, i32 0, i32 0), !llfi_index !32
  br i1 %6, label %7, label %3, !llfi_index !33

7:                                                ; preds = %3
  ret void, !llfi_index !34
}

; Function Attrs: noinline nounwind uwtable
define linkonce_odr dso_local void @_ZNSt6vectorIiSaIiEED2Ev(%"class.std::vector"* nonnull align 8 dereferenceable(24) %0) unnamed_addr #1 comdat align 2 personality i8* bitcast (i32 (...)* @__gxx_personality_v0 to i8*) {
  %2 = alloca %"class.std::vector"*, align 8, !llfi_index !35
  %3 = alloca i8*, align 8, !llfi_index !36
  %4 = alloca i32, align 4, !llfi_index !37
  store %"class.std::vector"* %0, %"class.std::vector"** %2, align 8, !llfi_index !38
  %5 = load %"class.std::vector"*, %"class.std::vector"** %2, align 8, !llfi_index !39
  %6 = bitcast %"class.std::vector"* %5 to %"struct.std::_Vector_base"*, !llfi_index !40
  %7 = getelementptr inbounds %"struct.std::_Vector_base", %"struct.std::_Vector_base"* %6, i32 0, i32 0, !llfi_index !41
  %8 = bitcast %"struct.std::_Vector_base<int, std::allocator<int>>::_Vector_impl"* %7 to %"struct.std::_Vector_base<int, std::allocator<int>>::_Vector_impl_data"*, !llfi_index !42
  %9 = getelementptr inbounds %"struct.std::_Vector_base<int, std::allocator<int>>::_Vector_impl_data", %"struct.std::_Vector_base<int, std::allocator<int>>::_Vector_impl_data"* %8, i32 0, i32 0, !llfi_index !43
  %10 = load i32*, i32** %9, align 8, !llfi_index !44
  %11 = bitcast %"class.std::vector"* %5 to %"struct.std::_Vector_base"*, !llfi_index !45
  %12 = getelementptr inbounds %"struct.std::_Vector_base", %"struct.std::_Vector_base"* %11, i32 0, i32 0, !llfi_index !46
  %13 = bitcast %"struct.std::_Vector_base<int, std::allocator<int>>::_Vector_impl"* %12 to %"struct.std::_Vector_base<int, std::allocator<int>>::_Vector_impl_data"*, !llfi_index !47
  %14 = getelementptr inbounds %"struct.std::_Vector_base<int, std::allocator<int>>::_Vector_impl_data", %"struct.std::_Vector_base<int, std::allocator<int>>::_Vector_impl_data"* %13, i32 0, i32 1, !llfi_index !48
  %15 = load i32*, i32** %14, align 8, !llfi_index !49
  %16 = bitcast %"class.std::vector"* %5 to %"struct.std::_Vector_base"*, !llfi_index !50
  %17 = call nonnull align 1 dereferenceable(1) %"class.std::allocator"* @_ZNSt12_Vector_baseIiSaIiEE19_M_get_Tp_allocatorEv(%"struct.std::_Vector_base"* nonnull align 8 dereferenceable(24) %16) #2, !llfi_index !51
  invoke void @_ZSt8_DestroyIPiiEvT_S1_RSaIT0_E(i32* %10, i32* %15, %"class.std::allocator"* nonnull align 1 dereferenceable(1) %17)
          to label %18 unwind label %20, !llfi_index !52

18:                                               ; preds = %1
  %19 = bitcast %"class.std::vector"* %5 to %"struct.std::_Vector_base"*, !llfi_index !53
  call void @_ZNSt12_Vector_baseIiSaIiEED2Ev(%"struct.std::_Vector_base"* nonnull align 8 dereferenceable(24) %19) #2, !llfi_index !54
  ret void, !llfi_index !55

20:                                               ; preds = %1
  %21 = landingpad { i8*, i32 }
          catch i8* null, !llfi_index !56
  %22 = extractvalue { i8*, i32 } %21, 0, !llfi_index !57
  store i8* %22, i8** %3, align 8, !llfi_index !58
  %23 = extractvalue { i8*, i32 } %21, 1, !llfi_index !59
  store i32 %23, i32* %4, align 4, !llfi_index !60
  %24 = bitcast %"class.std::vector"* %5 to %"struct.std::_Vector_base"*, !llfi_index !61
  call void @_ZNSt12_Vector_baseIiSaIiEED2Ev(%"struct.std::_Vector_base"* nonnull align 8 dereferenceable(24) %24) #2, !llfi_index !62
  br label %25, !llfi_index !63

25:                                               ; preds = %20
  %26 = load i8*, i8** %3, align 8, !llfi_index !64
  call void @__clang_call_terminate(i8* %26) #13, !llfi_index !65
  unreachable, !llfi_index !66
}

declare dso_local i32 @__gxx_personality_v0(...)

; Function Attrs: mustprogress noinline nounwind uwtable
define linkonce_odr dso_local nonnull align 1 dereferenceable(1) %"class.std::allocator"* @_ZNSt12_Vector_baseIiSaIiEE19_M_get_Tp_allocatorEv(%"struct.std::_Vector_base"* nonnull align 8 dereferenceable(24) %0) #3 comdat align 2 {
  %2 = alloca %"struct.std::_Vector_base"*, align 8, !llfi_index !67
  store %"struct.std::_Vector_base"* %0, %"struct.std::_Vector_base"** %2, align 8, !llfi_index !68
  %3 = load %"struct.std::_Vector_base"*, %"struct.std::_Vector_base"** %2, align 8, !llfi_index !69
  %4 = getelementptr inbounds %"struct.std::_Vector_base", %"struct.std::_Vector_base"* %3, i32 0, i32 0, !llfi_index !70
  %5 = bitcast %"struct.std::_Vector_base<int, std::allocator<int>>::_Vector_impl"* %4 to %"class.std::allocator"*, !llfi_index !71
  ret %"class.std::allocator"* %5, !llfi_index !72
}

; Function Attrs: mustprogress noinline uwtable
define linkonce_odr dso_local void @_ZSt8_DestroyIPiiEvT_S1_RSaIT0_E(i32* %0, i32* %1, %"class.std::allocator"* nonnull align 1 dereferenceable(1) %2) #4 comdat {
  %4 = alloca i32*, align 8, !llfi_index !73
  %5 = alloca i32*, align 8, !llfi_index !74
  %6 = alloca %"class.std::allocator"*, align 8, !llfi_index !75
  store i32* %0, i32** %4, align 8, !llfi_index !76
  store i32* %1, i32** %5, align 8, !llfi_index !77
  store %"class.std::allocator"* %2, %"class.std::allocator"** %6, align 8, !llfi_index !78
  %7 = load i32*, i32** %4, align 8, !llfi_index !79
  %8 = load i32*, i32** %5, align 8, !llfi_index !80
  call void @_ZSt8_DestroyIPiEvT_S1_(i32* %7, i32* %8), !llfi_index !81
  ret void, !llfi_index !82
}

; Function Attrs: noinline nounwind uwtable
define linkonce_odr dso_local void @_ZNSt12_Vector_baseIiSaIiEED2Ev(%"struct.std::_Vector_base"* nonnull align 8 dereferenceable(24) %0) unnamed_addr #1 comdat align 2 personality i8* bitcast (i32 (...)* @__gxx_personality_v0 to i8*) {
  %2 = alloca %"struct.std::_Vector_base"*, align 8, !llfi_index !83
  %3 = alloca i8*, align 8, !llfi_index !84
  %4 = alloca i32, align 4, !llfi_index !85
  store %"struct.std::_Vector_base"* %0, %"struct.std::_Vector_base"** %2, align 8, !llfi_index !86
  %5 = load %"struct.std::_Vector_base"*, %"struct.std::_Vector_base"** %2, align 8, !llfi_index !87
  %6 = getelementptr inbounds %"struct.std::_Vector_base", %"struct.std::_Vector_base"* %5, i32 0, i32 0, !llfi_index !88
  %7 = bitcast %"struct.std::_Vector_base<int, std::allocator<int>>::_Vector_impl"* %6 to %"struct.std::_Vector_base<int, std::allocator<int>>::_Vector_impl_data"*, !llfi_index !89
  %8 = getelementptr inbounds %"struct.std::_Vector_base<int, std::allocator<int>>::_Vector_impl_data", %"struct.std::_Vector_base<int, std::allocator<int>>::_Vector_impl_data"* %7, i32 0, i32 0, !llfi_index !90
  %9 = load i32*, i32** %8, align 8, !llfi_index !91
  %10 = getelementptr inbounds %"struct.std::_Vector_base", %"struct.std::_Vector_base"* %5, i32 0, i32 0, !llfi_index !92
  %11 = bitcast %"struct.std::_Vector_base<int, std::allocator<int>>::_Vector_impl"* %10 to %"struct.std::_Vector_base<int, std::allocator<int>>::_Vector_impl_data"*, !llfi_index !93
  %12 = getelementptr inbounds %"struct.std::_Vector_base<int, std::allocator<int>>::_Vector_impl_data", %"struct.std::_Vector_base<int, std::allocator<int>>::_Vector_impl_data"* %11, i32 0, i32 2, !llfi_index !94
  %13 = load i32*, i32** %12, align 8, !llfi_index !95
  %14 = getelementptr inbounds %"struct.std::_Vector_base", %"struct.std::_Vector_base"* %5, i32 0, i32 0, !llfi_index !96
  %15 = bitcast %"struct.std::_Vector_base<int, std::allocator<int>>::_Vector_impl"* %14 to %"struct.std::_Vector_base<int, std::allocator<int>>::_Vector_impl_data"*, !llfi_index !97
  %16 = getelementptr inbounds %"struct.std::_Vector_base<int, std::allocator<int>>::_Vector_impl_data", %"struct.std::_Vector_base<int, std::allocator<int>>::_Vector_impl_data"* %15, i32 0, i32 0, !llfi_index !98
  %17 = load i32*, i32** %16, align 8, !llfi_index !99
  %18 = ptrtoint i32* %13 to i64, !llfi_index !100
  %19 = ptrtoint i32* %17 to i64, !llfi_index !101
  %20 = sub i64 %18, %19, !llfi_index !102
  %21 = sdiv exact i64 %20, 4, !llfi_index !103
  invoke void @_ZNSt12_Vector_baseIiSaIiEE13_M_deallocateEPim(%"struct.std::_Vector_base"* nonnull align 8 dereferenceable(24) %5, i32* %9, i64 %21)
          to label %22 unwind label %24, !llfi_index !104

22:                                               ; preds = %1
  %23 = getelementptr inbounds %"struct.std::_Vector_base", %"struct.std::_Vector_base"* %5, i32 0, i32 0, !llfi_index !105
  call void @_ZNSt12_Vector_baseIiSaIiEE12_Vector_implD2Ev(%"struct.std::_Vector_base<int, std::allocator<int>>::_Vector_impl"* nonnull align 8 dereferenceable(24) %23) #2, !llfi_index !106
  ret void, !llfi_index !107

24:                                               ; preds = %1
  %25 = landingpad { i8*, i32 }
          catch i8* null, !llfi_index !108
  %26 = extractvalue { i8*, i32 } %25, 0, !llfi_index !109
  store i8* %26, i8** %3, align 8, !llfi_index !110
  %27 = extractvalue { i8*, i32 } %25, 1, !llfi_index !111
  store i32 %27, i32* %4, align 4, !llfi_index !112
  %28 = getelementptr inbounds %"struct.std::_Vector_base", %"struct.std::_Vector_base"* %5, i32 0, i32 0, !llfi_index !113
  call void @_ZNSt12_Vector_baseIiSaIiEE12_Vector_implD2Ev(%"struct.std::_Vector_base<int, std::allocator<int>>::_Vector_impl"* nonnull align 8 dereferenceable(24) %28) #2, !llfi_index !114
  br label %29, !llfi_index !115

29:                                               ; preds = %24
  %30 = load i8*, i8** %3, align 8, !llfi_index !116
  call void @__clang_call_terminate(i8* %30) #13, !llfi_index !117
  unreachable, !llfi_index !118
}

; Function Attrs: noinline noreturn nounwind
define linkonce_odr hidden void @__clang_call_terminate(i8* %0) #5 comdat {
  %2 = call i8* @__cxa_begin_catch(i8* %0) #2, !llfi_index !119
  call void @_ZSt9terminatev() #13, !llfi_index !120
  unreachable, !llfi_index !121
}

declare dso_local i8* @__cxa_begin_catch(i8*)

declare dso_local void @_ZSt9terminatev()

; Function Attrs: mustprogress noinline uwtable
define linkonce_odr dso_local void @_ZNSt12_Vector_baseIiSaIiEE13_M_deallocateEPim(%"struct.std::_Vector_base"* nonnull align 8 dereferenceable(24) %0, i32* %1, i64 %2) #4 comdat align 2 {
  %4 = alloca %"struct.std::_Vector_base"*, align 8, !llfi_index !122
  %5 = alloca i32*, align 8, !llfi_index !123
  %6 = alloca i64, align 8, !llfi_index !124
  store %"struct.std::_Vector_base"* %0, %"struct.std::_Vector_base"** %4, align 8, !llfi_index !125
  store i32* %1, i32** %5, align 8, !llfi_index !126
  store i64 %2, i64* %6, align 8, !llfi_index !127
  %7 = load %"struct.std::_Vector_base"*, %"struct.std::_Vector_base"** %4, align 8, !llfi_index !128
  %8 = load i32*, i32** %5, align 8, !llfi_index !129
  %9 = icmp ne i32* %8, null, !llfi_index !130
  br i1 %9, label %10, label %15, !llfi_index !131

10:                                               ; preds = %3
  %11 = getelementptr inbounds %"struct.std::_Vector_base", %"struct.std::_Vector_base"* %7, i32 0, i32 0, !llfi_index !132
  %12 = bitcast %"struct.std::_Vector_base<int, std::allocator<int>>::_Vector_impl"* %11 to %"class.std::allocator"*, !llfi_index !133
  %13 = load i32*, i32** %5, align 8, !llfi_index !134
  %14 = load i64, i64* %6, align 8, !llfi_index !135
  call void @_ZNSt16allocator_traitsISaIiEE10deallocateERS0_Pim(%"class.std::allocator"* nonnull align 1 dereferenceable(1) %12, i32* %13, i64 %14), !llfi_index !136
  br label %15, !llfi_index !137

15:                                               ; preds = %10, %3
  ret void, !llfi_index !138
}

; Function Attrs: noinline nounwind uwtable
define linkonce_odr dso_local void @_ZNSt12_Vector_baseIiSaIiEE12_Vector_implD2Ev(%"struct.std::_Vector_base<int, std::allocator<int>>::_Vector_impl"* nonnull align 8 dereferenceable(24) %0) unnamed_addr #1 comdat align 2 {
  %2 = alloca %"struct.std::_Vector_base<int, std::allocator<int>>::_Vector_impl"*, align 8, !llfi_index !139
  store %"struct.std::_Vector_base<int, std::allocator<int>>::_Vector_impl"* %0, %"struct.std::_Vector_base<int, std::allocator<int>>::_Vector_impl"** %2, align 8, !llfi_index !140
  %3 = load %"struct.std::_Vector_base<int, std::allocator<int>>::_Vector_impl"*, %"struct.std::_Vector_base<int, std::allocator<int>>::_Vector_impl"** %2, align 8, !llfi_index !141
  %4 = bitcast %"struct.std::_Vector_base<int, std::allocator<int>>::_Vector_impl"* %3 to %"class.std::allocator"*, !llfi_index !142
  call void @_ZNSaIiED2Ev(%"class.std::allocator"* nonnull align 1 dereferenceable(1) %4) #2, !llfi_index !143
  ret void, !llfi_index !144
}

; Function Attrs: noinline nounwind uwtable
define linkonce_odr dso_local void @_ZNSaIiED2Ev(%"class.std::allocator"* nonnull align 1 dereferenceable(1) %0) unnamed_addr #1 comdat align 2 {
  %2 = alloca %"class.std::allocator"*, align 8, !llfi_index !145
  store %"class.std::allocator"* %0, %"class.std::allocator"** %2, align 8, !llfi_index !146
  %3 = load %"class.std::allocator"*, %"class.std::allocator"** %2, align 8, !llfi_index !147
  %4 = bitcast %"class.std::allocator"* %3 to %"class.std::allocator"*, !llfi_index !148
  call void @_ZN9__gnu_cxx13new_allocatorIiED2Ev(%"class.std::allocator"* nonnull align 1 dereferenceable(1) %4) #2, !llfi_index !149
  ret void, !llfi_index !150
}

; Function Attrs: noinline nounwind uwtable
define linkonce_odr dso_local void @_ZN9__gnu_cxx13new_allocatorIiED2Ev(%"class.std::allocator"* nonnull align 1 dereferenceable(1) %0) unnamed_addr #1 comdat align 2 {
  %2 = alloca %"class.std::allocator"*, align 8, !llfi_index !151
  store %"class.std::allocator"* %0, %"class.std::allocator"** %2, align 8, !llfi_index !152
  %3 = load %"class.std::allocator"*, %"class.std::allocator"** %2, align 8, !llfi_index !153
  ret void, !llfi_index !154
}

; Function Attrs: mustprogress noinline uwtable
define linkonce_odr dso_local void @_ZNSt16allocator_traitsISaIiEE10deallocateERS0_Pim(%"class.std::allocator"* nonnull align 1 dereferenceable(1) %0, i32* %1, i64 %2) #4 comdat align 2 {
  %4 = alloca %"class.std::allocator"*, align 8, !llfi_index !155
  %5 = alloca i32*, align 8, !llfi_index !156
  %6 = alloca i64, align 8, !llfi_index !157
  store %"class.std::allocator"* %0, %"class.std::allocator"** %4, align 8, !llfi_index !158
  store i32* %1, i32** %5, align 8, !llfi_index !159
  store i64 %2, i64* %6, align 8, !llfi_index !160
  %7 = load %"class.std::allocator"*, %"class.std::allocator"** %4, align 8, !llfi_index !161
  %8 = bitcast %"class.std::allocator"* %7 to %"class.std::allocator"*, !llfi_index !162
  %9 = load i32*, i32** %5, align 8, !llfi_index !163
  %10 = load i64, i64* %6, align 8, !llfi_index !164
  call void @_ZN9__gnu_cxx13new_allocatorIiE10deallocateEPim(%"class.std::allocator"* nonnull align 1 dereferenceable(1) %8, i32* %9, i64 %10), !llfi_index !165
  ret void, !llfi_index !166
}

; Function Attrs: mustprogress noinline nounwind uwtable
define linkonce_odr dso_local void @_ZN9__gnu_cxx13new_allocatorIiE10deallocateEPim(%"class.std::allocator"* nonnull align 1 dereferenceable(1) %0, i32* %1, i64 %2) #3 comdat align 2 {
  %4 = alloca %"class.std::allocator"*, align 8, !llfi_index !167
  %5 = alloca i32*, align 8, !llfi_index !168
  %6 = alloca i64, align 8, !llfi_index !169
  store %"class.std::allocator"* %0, %"class.std::allocator"** %4, align 8, !llfi_index !170
  store i32* %1, i32** %5, align 8, !llfi_index !171
  store i64 %2, i64* %6, align 8, !llfi_index !172
  %7 = load %"class.std::allocator"*, %"class.std::allocator"** %4, align 8, !llfi_index !173
  %8 = load i32*, i32** %5, align 8, !llfi_index !174
  %9 = bitcast i32* %8 to i8*, !llfi_index !175
  call void @_ZdlPv(i8* %9) #2, !llfi_index !176
  ret void, !llfi_index !177
}

; Function Attrs: nobuiltin nounwind
declare dso_local void @_ZdlPv(i8*) #6

; Function Attrs: mustprogress noinline uwtable
define linkonce_odr dso_local void @_ZSt8_DestroyIPiEvT_S1_(i32* %0, i32* %1) #4 comdat {
  %3 = alloca i32*, align 8, !llfi_index !178
  %4 = alloca i32*, align 8, !llfi_index !179
  store i32* %0, i32** %3, align 8, !llfi_index !180
  store i32* %1, i32** %4, align 8, !llfi_index !181
  %5 = load i32*, i32** %3, align 8, !llfi_index !182
  %6 = load i32*, i32** %4, align 8, !llfi_index !183
  call void @_ZNSt12_Destroy_auxILb1EE9__destroyIPiEEvT_S3_(i32* %5, i32* %6), !llfi_index !184
  ret void, !llfi_index !185
}

; Function Attrs: mustprogress noinline nounwind uwtable
define linkonce_odr dso_local void @_ZNSt12_Destroy_auxILb1EE9__destroyIPiEEvT_S3_(i32* %0, i32* %1) #3 comdat align 2 {
  %3 = alloca i32*, align 8, !llfi_index !186
  %4 = alloca i32*, align 8, !llfi_index !187
  store i32* %0, i32** %3, align 8, !llfi_index !188
  store i32* %1, i32** %4, align 8, !llfi_index !189
  ret void, !llfi_index !190
}

; Function Attrs: noinline nounwind uwtable
define linkonce_odr dso_local void @_ZNSt12_Vector_baseIiSaIiEEC2Ev(%"struct.std::_Vector_base"* nonnull align 8 dereferenceable(24) %0) unnamed_addr #1 comdat align 2 {
  %2 = alloca %"struct.std::_Vector_base"*, align 8, !llfi_index !191
  store %"struct.std::_Vector_base"* %0, %"struct.std::_Vector_base"** %2, align 8, !llfi_index !192
  %3 = load %"struct.std::_Vector_base"*, %"struct.std::_Vector_base"** %2, align 8, !llfi_index !193
  %4 = getelementptr inbounds %"struct.std::_Vector_base", %"struct.std::_Vector_base"* %3, i32 0, i32 0, !llfi_index !194
  call void @_ZNSt12_Vector_baseIiSaIiEE12_Vector_implC2Ev(%"struct.std::_Vector_base<int, std::allocator<int>>::_Vector_impl"* nonnull align 8 dereferenceable(24) %4) #2, !llfi_index !195
  ret void, !llfi_index !196
}

; Function Attrs: noinline nounwind uwtable
define linkonce_odr dso_local void @_ZNSt12_Vector_baseIiSaIiEE12_Vector_implC2Ev(%"struct.std::_Vector_base<int, std::allocator<int>>::_Vector_impl"* nonnull align 8 dereferenceable(24) %0) unnamed_addr #1 comdat align 2 {
  %2 = alloca %"struct.std::_Vector_base<int, std::allocator<int>>::_Vector_impl"*, align 8, !llfi_index !197
  store %"struct.std::_Vector_base<int, std::allocator<int>>::_Vector_impl"* %0, %"struct.std::_Vector_base<int, std::allocator<int>>::_Vector_impl"** %2, align 8, !llfi_index !198
  %3 = load %"struct.std::_Vector_base<int, std::allocator<int>>::_Vector_impl"*, %"struct.std::_Vector_base<int, std::allocator<int>>::_Vector_impl"** %2, align 8, !llfi_index !199
  %4 = bitcast %"struct.std::_Vector_base<int, std::allocator<int>>::_Vector_impl"* %3 to %"class.std::allocator"*, !llfi_index !200
  call void @_ZNSaIiEC2Ev(%"class.std::allocator"* nonnull align 1 dereferenceable(1) %4) #2, !llfi_index !201
  %5 = bitcast %"struct.std::_Vector_base<int, std::allocator<int>>::_Vector_impl"* %3 to %"struct.std::_Vector_base<int, std::allocator<int>>::_Vector_impl_data"*, !llfi_index !202
  call void @_ZNSt12_Vector_baseIiSaIiEE17_Vector_impl_dataC2Ev(%"struct.std::_Vector_base<int, std::allocator<int>>::_Vector_impl_data"* nonnull align 8 dereferenceable(24) %5) #2, !llfi_index !203
  ret void, !llfi_index !204
}

; Function Attrs: noinline nounwind uwtable
define linkonce_odr dso_local void @_ZNSaIiEC2Ev(%"class.std::allocator"* nonnull align 1 dereferenceable(1) %0) unnamed_addr #1 comdat align 2 {
  %2 = alloca %"class.std::allocator"*, align 8, !llfi_index !205
  store %"class.std::allocator"* %0, %"class.std::allocator"** %2, align 8, !llfi_index !206
  %3 = load %"class.std::allocator"*, %"class.std::allocator"** %2, align 8, !llfi_index !207
  %4 = bitcast %"class.std::allocator"* %3 to %"class.std::allocator"*, !llfi_index !208
  call void @_ZN9__gnu_cxx13new_allocatorIiEC2Ev(%"class.std::allocator"* nonnull align 1 dereferenceable(1) %4) #2, !llfi_index !209
  ret void, !llfi_index !210
}

; Function Attrs: noinline nounwind uwtable
define linkonce_odr dso_local void @_ZNSt12_Vector_baseIiSaIiEE17_Vector_impl_dataC2Ev(%"struct.std::_Vector_base<int, std::allocator<int>>::_Vector_impl_data"* nonnull align 8 dereferenceable(24) %0) unnamed_addr #1 comdat align 2 {
  %2 = alloca %"struct.std::_Vector_base<int, std::allocator<int>>::_Vector_impl_data"*, align 8, !llfi_index !211
  store %"struct.std::_Vector_base<int, std::allocator<int>>::_Vector_impl_data"* %0, %"struct.std::_Vector_base<int, std::allocator<int>>::_Vector_impl_data"** %2, align 8, !llfi_index !212
  %3 = load %"struct.std::_Vector_base<int, std::allocator<int>>::_Vector_impl_data"*, %"struct.std::_Vector_base<int, std::allocator<int>>::_Vector_impl_data"** %2, align 8, !llfi_index !213
  %4 = getelementptr inbounds %"struct.std::_Vector_base<int, std::allocator<int>>::_Vector_impl_data", %"struct.std::_Vector_base<int, std::allocator<int>>::_Vector_impl_data"* %3, i32 0, i32 0, !llfi_index !214
  store i32* null, i32** %4, align 8, !llfi_index !215
  %5 = getelementptr inbounds %"struct.std::_Vector_base<int, std::allocator<int>>::_Vector_impl_data", %"struct.std::_Vector_base<int, std::allocator<int>>::_Vector_impl_data"* %3, i32 0, i32 1, !llfi_index !216
  store i32* null, i32** %5, align 8, !llfi_index !217
  %6 = getelementptr inbounds %"struct.std::_Vector_base<int, std::allocator<int>>::_Vector_impl_data", %"struct.std::_Vector_base<int, std::allocator<int>>::_Vector_impl_data"* %3, i32 0, i32 2, !llfi_index !218
  store i32* null, i32** %6, align 8, !llfi_index !219
  ret void, !llfi_index !220
}

; Function Attrs: noinline nounwind uwtable
define linkonce_odr dso_local void @_ZN9__gnu_cxx13new_allocatorIiEC2Ev(%"class.std::allocator"* nonnull align 1 dereferenceable(1) %0) unnamed_addr #1 comdat align 2 {
  %2 = alloca %"class.std::allocator"*, align 8, !llfi_index !221
  store %"class.std::allocator"* %0, %"class.std::allocator"** %2, align 8, !llfi_index !222
  %3 = load %"class.std::allocator"*, %"class.std::allocator"** %2, align 8, !llfi_index !223
  ret void, !llfi_index !224
}

declare dso_local void @_ZNSt8ios_base4InitC1Ev(%"class.std::allocator"* nonnull align 1 dereferenceable(1)) unnamed_addr #7

; Function Attrs: noinline uwtable
define internal void @__dtor__ZStL8__ioinit() #0 section ".text.startup" {
  call void @_ZNSt8ios_base4InitD1Ev(%"class.std::allocator"* @_ZStL8__ioinit), !llfi_index !225
  ret void, !llfi_index !226
}

; Function Attrs: nounwind
declare dso_local void @_ZNSt8ios_base4InitD1Ev(%"class.std::allocator"* nonnull align 1 dereferenceable(1)) unnamed_addr #8

; Function Attrs: mustprogress noinline uwtable
define dso_local i32 @_Z2gfi(i32 %0) #4 {
  %2 = alloca i32, align 4, !llfi_index !227
  store i32 %0, i32* %2, align 4, !llfi_index !228
  %3 = load i32, i32* %2, align 4, !llfi_index !229
  %4 = sext i32 %3 to i64, !llfi_index !230
  %5 = getelementptr inbounds [1100000 x i32], [1100000 x i32]* @fa, i64 0, i64 %4, !llfi_index !231
  %6 = load i32, i32* %5, align 4, !llfi_index !232
  %7 = load i32, i32* %2, align 4, !llfi_index !233
  %8 = icmp ne i32 %6, %7, !llfi_index !234
  br i1 %8, label %9, label %18, !llfi_index !235

9:                                                ; preds = %1
  %10 = load i32, i32* %2, align 4, !llfi_index !236
  %11 = sext i32 %10 to i64, !llfi_index !237
  %12 = getelementptr inbounds [1100000 x i32], [1100000 x i32]* @fa, i64 0, i64 %11, !llfi_index !238
  %13 = load i32, i32* %12, align 4, !llfi_index !239
  %14 = call i32 @_Z2gfi(i32 %13), !llfi_index !240
  %15 = load i32, i32* %2, align 4, !llfi_index !241
  %16 = sext i32 %15 to i64, !llfi_index !242
  %17 = getelementptr inbounds [1100000 x i32], [1100000 x i32]* @fa, i64 0, i64 %16, !llfi_index !243
  store i32 %14, i32* %17, align 4, !llfi_index !244
  br label %18, !llfi_index !245

18:                                               ; preds = %9, %1
  %19 = load i32, i32* %2, align 4, !llfi_index !246
  %20 = sext i32 %19 to i64, !llfi_index !247
  %21 = getelementptr inbounds [1100000 x i32], [1100000 x i32]* @fa, i64 0, i64 %20, !llfi_index !248
  %22 = load i32, i32* %21, align 4, !llfi_index !249
  ret i32 %22, !llfi_index !250
}

; Function Attrs: mustprogress noinline uwtable
define dso_local void @_Z5mergeii(i32 %0, i32 %1) #4 {
  %3 = alloca i32, align 4, !llfi_index !251
  %4 = alloca i32, align 4, !llfi_index !252
  store i32 %0, i32* %3, align 4, !llfi_index !253
  store i32 %1, i32* %4, align 4, !llfi_index !254
  %5 = load i32, i32* %3, align 4, !llfi_index !255
  %6 = call i32 @_Z2gfi(i32 %5), !llfi_index !256
  store i32 %6, i32* %3, align 4, !llfi_index !257
  %7 = load i32, i32* %4, align 4, !llfi_index !258
  %8 = call i32 @_Z2gfi(i32 %7), !llfi_index !259
  store i32 %8, i32* %4, align 4, !llfi_index !260
  %9 = load i32, i32* %4, align 4, !llfi_index !261
  %10 = sext i32 %9 to i64, !llfi_index !262
  %11 = getelementptr inbounds [1100000 x i32], [1100000 x i32]* @sum, i64 0, i64 %10, !llfi_index !263
  %12 = load i32, i32* %11, align 4, !llfi_index !264
  %13 = load i32, i32* %3, align 4, !llfi_index !265
  %14 = sext i32 %13 to i64, !llfi_index !266
  %15 = getelementptr inbounds [1100000 x i32], [1100000 x i32]* @sum, i64 0, i64 %14, !llfi_index !267
  %16 = load i32, i32* %15, align 4, !llfi_index !268
  %17 = add nsw i32 %16, %12, !llfi_index !269
  store i32 %17, i32* %15, align 4, !llfi_index !270
  %18 = load i32, i32* %3, align 4, !llfi_index !271
  %19 = load i32, i32* %4, align 4, !llfi_index !272
  %20 = sext i32 %19 to i64, !llfi_index !273
  %21 = getelementptr inbounds [1100000 x i32], [1100000 x i32]* @fa, i64 0, i64 %20, !llfi_index !274
  store i32 %18, i32* %21, align 4, !llfi_index !275
  ret void, !llfi_index !276
}

; Function Attrs: mustprogress noinline uwtable
define dso_local void @_Z3addi(i32 %0) #4 {
  %2 = alloca i32, align 4, !llfi_index !277
  %3 = alloca i32, align 4, !llfi_index !278
  %4 = alloca i32, align 4, !llfi_index !279
  %5 = alloca i32, align 4, !llfi_index !280
  store i32 %0, i32* %2, align 4, !llfi_index !281
  %6 = load i32, i32* %2, align 4, !llfi_index !282
  %7 = sext i32 %6 to i64, !llfi_index !283
  %8 = getelementptr inbounds [1100000 x i32], [1100000 x i32]* @used, i64 0, i64 %7, !llfi_index !284
  store i32 1, i32* %8, align 4, !llfi_index !285
  %9 = load i32, i32* %2, align 4, !llfi_index !286
  %10 = sext i32 %9 to i64, !llfi_index !287
  %11 = getelementptr inbounds [1100000 x i32], [1100000 x i32]* @sum, i64 0, i64 %10, !llfi_index !288
  store i32 1, i32* %11, align 4, !llfi_index !289
  %12 = load i32, i32* %2, align 4, !llfi_index !290
  %13 = sub nsw i32 %12, 1, !llfi_index !291
  %14 = sext i32 %13 to i64, !llfi_index !292
  %15 = getelementptr inbounds [1100000 x i32], [1100000 x i32]* @used, i64 0, i64 %14, !llfi_index !293
  %16 = load i32, i32* %15, align 4, !llfi_index !294
  %17 = icmp ne i32 %16, 0, !llfi_index !295
  br i1 %17, label %18, label %35, !llfi_index !296

18:                                               ; preds = %1
  %19 = load i32, i32* @now, align 4, !llfi_index !297
  %20 = load i32, i32* %2, align 4, !llfi_index !298
  %21 = sub nsw i32 %20, 1, !llfi_index !299
  %22 = call i32 @_Z2gfi(i32 %21), !llfi_index !300
  %23 = sext i32 %22 to i64, !llfi_index !301
  %24 = getelementptr inbounds [1100000 x i32], [1100000 x i32]* @sum, i64 0, i64 %23, !llfi_index !302
  %25 = load i32, i32* %24, align 4, !llfi_index !303
  %26 = sext i32 %25 to i64, !llfi_index !304
  %27 = getelementptr inbounds [1100000 x i32], [1100000 x i32]* @f, i64 0, i64 %26, !llfi_index !305
  %28 = load i32, i32* %27, align 4, !llfi_index !306
  %29 = sub nsw i32 %19, %28, !llfi_index !307
  %30 = add nsw i32 %29, 1000000007, !llfi_index !308
  %31 = srem i32 %30, 1000000007, !llfi_index !309
  store i32 %31, i32* @now, align 4, !llfi_index !310
  %32 = load i32, i32* %2, align 4, !llfi_index !311
  %33 = load i32, i32* %2, align 4, !llfi_index !312
  %34 = sub nsw i32 %33, 1, !llfi_index !313
  call void @_Z5mergeii(i32 %32, i32 %34), !llfi_index !314
  br label %35, !llfi_index !315

35:                                               ; preds = %18, %1
  %36 = load i32, i32* %2, align 4, !llfi_index !316
  %37 = add nsw i32 %36, 1, !llfi_index !317
  %38 = sext i32 %37 to i64, !llfi_index !318
  %39 = getelementptr inbounds [1100000 x i32], [1100000 x i32]* @used, i64 0, i64 %38, !llfi_index !319
  %40 = load i32, i32* %39, align 4, !llfi_index !320
  %41 = icmp ne i32 %40, 0, !llfi_index !321
  br i1 %41, label %42, label %59, !llfi_index !322

42:                                               ; preds = %35
  %43 = load i32, i32* @now, align 4, !llfi_index !323
  %44 = load i32, i32* %2, align 4, !llfi_index !324
  %45 = add nsw i32 %44, 1, !llfi_index !325
  %46 = call i32 @_Z2gfi(i32 %45), !llfi_index !326
  %47 = sext i32 %46 to i64, !llfi_index !327
  %48 = getelementptr inbounds [1100000 x i32], [1100000 x i32]* @sum, i64 0, i64 %47, !llfi_index !328
  %49 = load i32, i32* %48, align 4, !llfi_index !329
  %50 = sext i32 %49 to i64, !llfi_index !330
  %51 = getelementptr inbounds [1100000 x i32], [1100000 x i32]* @f, i64 0, i64 %50, !llfi_index !331
  %52 = load i32, i32* %51, align 4, !llfi_index !332
  %53 = sub nsw i32 %43, %52, !llfi_index !333
  %54 = add nsw i32 %53, 1000000007, !llfi_index !334
  %55 = srem i32 %54, 1000000007, !llfi_index !335
  store i32 %55, i32* @now, align 4, !llfi_index !336
  %56 = load i32, i32* %2, align 4, !llfi_index !337
  %57 = load i32, i32* %2, align 4, !llfi_index !338
  %58 = add nsw i32 %57, 1, !llfi_index !339
  call void @_Z5mergeii(i32 %56, i32 %58), !llfi_index !340
  br label %59, !llfi_index !341

59:                                               ; preds = %42, %35
  %60 = load i32, i32* @now, align 4, !llfi_index !342
  %61 = load i32, i32* %2, align 4, !llfi_index !343
  %62 = call i32 @_Z2gfi(i32 %61), !llfi_index !344
  %63 = sext i32 %62 to i64, !llfi_index !345
  %64 = getelementptr inbounds [1100000 x i32], [1100000 x i32]* @sum, i64 0, i64 %63, !llfi_index !346
  %65 = load i32, i32* %64, align 4, !llfi_index !347
  %66 = sext i32 %65 to i64, !llfi_index !348
  %67 = getelementptr inbounds [1100000 x i32], [1100000 x i32]* @f, i64 0, i64 %66, !llfi_index !349
  %68 = load i32, i32* %67, align 4, !llfi_index !350
  %69 = add nsw i32 %60, %68, !llfi_index !351
  %70 = srem i32 %69, 1000000007, !llfi_index !352
  store i32 %70, i32* @now, align 4, !llfi_index !353
  %71 = call i32 @_Z2gfi(i32 1), !llfi_index !354
  %72 = sext i32 %71 to i64, !llfi_index !355
  %73 = getelementptr inbounds [1100000 x i32], [1100000 x i32]* @sum, i64 0, i64 %72, !llfi_index !356
  %74 = load i32, i32* %73, align 4, !llfi_index !357
  store i32 %74, i32* %3, align 4, !llfi_index !358
  %75 = load i32, i32* @n, align 4, !llfi_index !359
  %76 = call i32 @_Z2gfi(i32 %75), !llfi_index !360
  %77 = sext i32 %76 to i64, !llfi_index !361
  %78 = getelementptr inbounds [1100000 x i32], [1100000 x i32]* @sum, i64 0, i64 %77, !llfi_index !362
  %79 = load i32, i32* %78, align 4, !llfi_index !363
  store i32 %79, i32* %4, align 4, !llfi_index !364
  %80 = load i32, i32* %3, align 4, !llfi_index !365
  %81 = sub nsw i32 %80, 1, !llfi_index !366
  store i32 %81, i32* %5, align 4, !llfi_index !367
  %82 = call nonnull align 4 dereferenceable(4) i32* @_ZSt3minIiERKT_S2_S2_(i32* nonnull align 4 dereferenceable(4) %4, i32* nonnull align 4 dereferenceable(4) %5), !llfi_index !368
  %83 = load i32, i32* %82, align 4, !llfi_index !369
  store i32 %83, i32* %2, align 4, !llfi_index !370
  %84 = load i32, i32* %2, align 4, !llfi_index !371
  %85 = icmp sle i32 %84, 0, !llfi_index !372
  br i1 %85, label %86, label %88, !llfi_index !373

86:                                               ; preds = %59
  %87 = load i32, i32* @now, align 4, !llfi_index !374
  store i32 %87, i32* @cc, align 4, !llfi_index !375
  br label %146, !llfi_index !376

88:                                               ; preds = %59
  %89 = load i32, i32* @now, align 4, !llfi_index !377
  store i32 %89, i32* @cc, align 4, !llfi_index !378
  %90 = load i32, i32* @cc, align 4, !llfi_index !379
  %91 = sext i32 %90 to i64, !llfi_index !380
  %92 = load i32, i32* %2, align 4, !llfi_index !381
  %93 = sext i32 %92 to i64, !llfi_index !382
  %94 = mul nsw i64 1, %93, !llfi_index !383
  %95 = load i32, i32* %3, align 4, !llfi_index !384
  %96 = sext i32 %95 to i64, !llfi_index !385
  %97 = mul nsw i64 %94, %96, !llfi_index !386
  %98 = load i32, i32* %4, align 4, !llfi_index !387
  %99 = add nsw i32 %98, 1, !llfi_index !388
  %100 = sext i32 %99 to i64, !llfi_index !389
  %101 = mul nsw i64 %97, %100, !llfi_index !390
  %102 = add nsw i64 %91, %101, !llfi_index !391
  %103 = srem i64 %102, 1000000007, !llfi_index !392
  %104 = trunc i64 %103 to i32, !llfi_index !393
  store i32 %104, i32* @cc, align 4, !llfi_index !394
  %105 = load i32, i32* @cc, align 4, !llfi_index !395
  %106 = sext i32 %105 to i64, !llfi_index !396
  %107 = load i32, i32* %2, align 4, !llfi_index !397
  %108 = sext i32 %107 to i64, !llfi_index !398
  %109 = mul nsw i64 1, %108, !llfi_index !399
  %110 = load i32, i32* %2, align 4, !llfi_index !400
  %111 = add nsw i32 %110, 1, !llfi_index !401
  %112 = sext i32 %111 to i64, !llfi_index !402
  %113 = mul nsw i64 %109, %112, !llfi_index !403
  %114 = sdiv i64 %113, 2, !llfi_index !404
  %115 = srem i64 %114, 1000000007, !llfi_index !405
  %116 = load i32, i32* %3, align 4, !llfi_index !406
  %117 = load i32, i32* %4, align 4, !llfi_index !407
  %118 = add nsw i32 %116, %117, !llfi_index !408
  %119 = add nsw i32 %118, 1, !llfi_index !409
  %120 = sext i32 %119 to i64, !llfi_index !410
  %121 = mul nsw i64 %115, %120, !llfi_index !411
  %122 = sub nsw i64 %106, %121, !llfi_index !412
  %123 = srem i64 %122, 1000000007, !llfi_index !413
  %124 = trunc i64 %123 to i32, !llfi_index !414
  store i32 %124, i32* @cc, align 4, !llfi_index !415
  %125 = load i32, i32* @cc, align 4, !llfi_index !416
  %126 = sext i32 %125 to i64, !llfi_index !417
  %127 = load i32, i32* %2, align 4, !llfi_index !418
  %128 = sext i32 %127 to i64, !llfi_index !419
  %129 = mul nsw i64 1, %128, !llfi_index !420
  %130 = load i32, i32* %2, align 4, !llfi_index !421
  %131 = add nsw i32 %130, 1, !llfi_index !422
  %132 = sext i32 %131 to i64, !llfi_index !423
  %133 = mul nsw i64 %129, %132, !llfi_index !424
  %134 = load i32, i32* %2, align 4, !llfi_index !425
  %135 = mul nsw i32 2, %134, !llfi_index !426
  %136 = add nsw i32 %135, 1, !llfi_index !427
  %137 = sext i32 %136 to i64, !llfi_index !428
  %138 = mul nsw i64 %133, %137, !llfi_index !429
  %139 = sdiv i64 %138, 6, !llfi_index !430
  %140 = add nsw i64 %126, %139, !llfi_index !431
  %141 = srem i64 %140, 1000000007, !llfi_index !432
  %142 = trunc i64 %141 to i32, !llfi_index !433
  store i32 %142, i32* @cc, align 4, !llfi_index !434
  %143 = load i32, i32* @cc, align 4, !llfi_index !435
  %144 = add nsw i32 %143, 1000000007, !llfi_index !436
  %145 = srem i32 %144, 1000000007, !llfi_index !437
  store i32 %145, i32* @cc, align 4, !llfi_index !438
  br label %146, !llfi_index !439

146:                                              ; preds = %88, %86
  ret void, !llfi_index !440
}

; Function Attrs: mustprogress noinline nounwind uwtable
define linkonce_odr dso_local nonnull align 4 dereferenceable(4) i32* @_ZSt3minIiERKT_S2_S2_(i32* nonnull align 4 dereferenceable(4) %0, i32* nonnull align 4 dereferenceable(4) %1) #3 comdat {
  %3 = alloca i32*, align 8, !llfi_index !441
  %4 = alloca i32*, align 8, !llfi_index !442
  %5 = alloca i32*, align 8, !llfi_index !443
  store i32* %0, i32** %4, align 8, !llfi_index !444
  store i32* %1, i32** %5, align 8, !llfi_index !445
  %6 = load i32*, i32** %5, align 8, !llfi_index !446
  %7 = load i32, i32* %6, align 4, !llfi_index !447
  %8 = load i32*, i32** %4, align 8, !llfi_index !448
  %9 = load i32, i32* %8, align 4, !llfi_index !449
  %10 = icmp slt i32 %7, %9, !llfi_index !450
  br i1 %10, label %11, label %13, !llfi_index !451

11:                                               ; preds = %2
  %12 = load i32*, i32** %5, align 8, !llfi_index !452
  store i32* %12, i32** %3, align 8, !llfi_index !453
  br label %15, !llfi_index !454

13:                                               ; preds = %2
  %14 = load i32*, i32** %4, align 8, !llfi_index !455
  store i32* %14, i32** %3, align 8, !llfi_index !456
  br label %15, !llfi_index !457

15:                                               ; preds = %13, %11
  %16 = load i32*, i32** %3, align 8, !llfi_index !458
  ret i32* %16, !llfi_index !459
}

; Function Attrs: mustprogress noinline norecurse uwtable
define dso_local i32 @main() #9 {
  %1 = alloca i32, align 4, !llfi_index !460
  %2 = alloca i32, align 4, !llfi_index !461
  %3 = alloca i32, align 4, !llfi_index !462
  %4 = alloca i32, align 4, !llfi_index !463
  %5 = alloca i32, align 4, !llfi_index !464
  %6 = alloca i32, align 4, !llfi_index !465
  %7 = alloca i32, align 4, !llfi_index !466
  %8 = alloca i32, align 4, !llfi_index !467
  store i32 0, i32* %1, align 4, !llfi_index !468
  %9 = load %struct._IO_FILE*, %struct._IO_FILE** @stdin, align 8, !llfi_index !469
  %10 = call %struct._IO_FILE* @freopen(i8* getelementptr inbounds ([28 x i8], [28 x i8]* @.str, i64 0, i64 0), i8* getelementptr inbounds ([2 x i8], [2 x i8]* @.str.2, i64 0, i64 0), %struct._IO_FILE* %9), !llfi_index !470
  %11 = call i32 (i8*, ...) @__isoc99_scanf(i8* getelementptr inbounds ([3 x i8], [3 x i8]* @.str.3, i64 0, i64 0), i32* @n), !llfi_index !471
  store i32 0, i32* %2, align 4, !llfi_index !472
  store i32 89, i32* %3, align 4, !llfi_index !473
  store i32 1, i32* %4, align 4, !llfi_index !474
  br label %12, !llfi_index !475

12:                                               ; preds = %32, %0
  %13 = load i32, i32* %4, align 4, !llfi_index !476
  %14 = load i32, i32* @n, align 4, !llfi_index !477
  %15 = icmp sle i32 %13, %14, !llfi_index !478
  br i1 %15, label %16, label %35, !llfi_index !479

16:                                               ; preds = %12
  %17 = load i32, i32* %4, align 4, !llfi_index !480
  %18 = sext i32 %17 to i64, !llfi_index !481
  %19 = getelementptr inbounds [1100000 x i32], [1100000 x i32]* @a, i64 0, i64 %18, !llfi_index !482
  %20 = call i32 (i8*, ...) @__isoc99_scanf(i8* getelementptr inbounds ([3 x i8], [3 x i8]* @.str.3, i64 0, i64 0), i32* %19), !llfi_index !483
  %21 = load i32, i32* %4, align 4, !llfi_index !484
  %22 = sext i32 %21 to i64, !llfi_index !485
  %23 = getelementptr inbounds [1100000 x i32], [1100000 x i32]* @a, i64 0, i64 %22, !llfi_index !486
  %24 = load i32, i32* %23, align 4, !llfi_index !487
  %25 = sext i32 %24 to i64, !llfi_index !488
  %26 = getelementptr inbounds [1100000 x %"class.std::vector"], [1100000 x %"class.std::vector"]* @V, i64 0, i64 %25, !llfi_index !489
  call void @_ZNSt6vectorIiSaIiEE9push_backERKi(%"class.std::vector"* nonnull align 8 dereferenceable(24) %26, i32* nonnull align 4 dereferenceable(4) %4), !llfi_index !490
  %27 = load i32, i32* %4, align 4, !llfi_index !491
  %28 = sext i32 %27 to i64, !llfi_index !492
  %29 = getelementptr inbounds [1100000 x i32], [1100000 x i32]* @a, i64 0, i64 %28, !llfi_index !493
  %30 = call nonnull align 4 dereferenceable(4) i32* @_ZSt3maxIiERKT_S2_S2_(i32* nonnull align 4 dereferenceable(4) %2, i32* nonnull align 4 dereferenceable(4) %29), !llfi_index !494
  %31 = load i32, i32* %30, align 4, !llfi_index !495
  store i32 %31, i32* %2, align 4, !llfi_index !496
  br label %32, !llfi_index !497

32:                                               ; preds = %16
  %33 = load i32, i32* %4, align 4, !llfi_index !498
  %34 = add nsw i32 %33, 1, !llfi_index !499
  store i32 %34, i32* %4, align 4, !llfi_index !500
  br label %12, !llvm.loop !501, !llfi_index !503

35:                                               ; preds = %12
  %36 = load i32, i32* @n, align 4, !llfi_index !504
  %37 = sext i32 %36 to i64, !llfi_index !505
  %38 = mul nsw i64 1, %37, !llfi_index !506
  %39 = load i32, i32* @n, align 4, !llfi_index !507
  %40 = add nsw i32 %39, 1, !llfi_index !508
  %41 = sext i32 %40 to i64, !llfi_index !509
  %42 = mul nsw i64 %38, %41, !llfi_index !510
  %43 = sdiv i64 %42, 2, !llfi_index !511
  %44 = srem i64 %43, 1000000007, !llfi_index !512
  %45 = trunc i64 %44 to i32, !llfi_index !513
  store i32 %45, i32* @T, align 4, !llfi_index !514
  %46 = load i32, i32* @T, align 4, !llfi_index !515
  %47 = sext i32 %46 to i64, !llfi_index !516
  %48 = mul nsw i64 1, %47, !llfi_index !517
  %49 = load i32, i32* @T, align 4, !llfi_index !518
  %50 = add nsw i32 %49, 1, !llfi_index !519
  %51 = sext i32 %50 to i64, !llfi_index !520
  %52 = mul nsw i64 %48, %51, !llfi_index !521
  %53 = sdiv i64 %52, 2, !llfi_index !522
  %54 = srem i64 %53, 1000000007, !llfi_index !523
  %55 = trunc i64 %54 to i32, !llfi_index !524
  store i32 %55, i32* @T, align 4, !llfi_index !525
  store i32 89, i32* %3, align 4, !llfi_index !526
  store i32 1, i32* %5, align 4, !llfi_index !527
  br label %56, !llfi_index !528

56:                                               ; preds = %89, %35
  %57 = load i32, i32* %5, align 4, !llfi_index !529
  %58 = load i32, i32* @n, align 4, !llfi_index !530
  %59 = icmp sle i32 %57, %58, !llfi_index !531
  br i1 %59, label %60, label %92, !llfi_index !532

60:                                               ; preds = %56
  %61 = load i32, i32* %5, align 4, !llfi_index !533
  %62 = sext i32 %61 to i64, !llfi_index !534
  %63 = mul nsw i64 1, %62, !llfi_index !535
  %64 = load i32, i32* %5, align 4, !llfi_index !536
  %65 = add nsw i32 %64, 1, !llfi_index !537
  %66 = sext i32 %65 to i64, !llfi_index !538
  %67 = mul nsw i64 %63, %66, !llfi_index !539
  %68 = load i32, i32* %5, align 4, !llfi_index !540
  %69 = mul nsw i32 2, %68, !llfi_index !541
  %70 = add nsw i32 %69, 1, !llfi_index !542
  %71 = sext i32 %70 to i64, !llfi_index !543
  %72 = mul nsw i64 %67, %71, !llfi_index !544
  %73 = sdiv i64 %72, 6, !llfi_index !545
  %74 = load i32, i32* %5, align 4, !llfi_index !546
  %75 = sext i32 %74 to i64, !llfi_index !547
  %76 = mul nsw i64 1, %75, !llfi_index !548
  %77 = load i32, i32* %5, align 4, !llfi_index !549
  %78 = add nsw i32 %77, 1, !llfi_index !550
  %79 = sext i32 %78 to i64, !llfi_index !551
  %80 = mul nsw i64 %76, %79, !llfi_index !552
  %81 = sdiv i64 %80, 2, !llfi_index !553
  %82 = add nsw i64 %73, %81, !llfi_index !554
  %83 = sdiv i64 %82, 2, !llfi_index !555
  %84 = srem i64 %83, 1000000007, !llfi_index !556
  %85 = trunc i64 %84 to i32, !llfi_index !557
  %86 = load i32, i32* %5, align 4, !llfi_index !558
  %87 = sext i32 %86 to i64, !llfi_index !559
  %88 = getelementptr inbounds [1100000 x i32], [1100000 x i32]* @f, i64 0, i64 %87, !llfi_index !560
  store i32 %85, i32* %88, align 4, !llfi_index !561
  br label %89, !llfi_index !562

89:                                               ; preds = %60
  %90 = load i32, i32* %5, align 4, !llfi_index !563
  %91 = add nsw i32 %90, 1, !llfi_index !564
  store i32 %91, i32* %5, align 4, !llfi_index !565
  br label %56, !llvm.loop !566, !llfi_index !567

92:                                               ; preds = %56
  store i32 89, i32* %3, align 4, !llfi_index !568
  store i32 1, i32* %6, align 4, !llfi_index !569
  br label %93, !llfi_index !570

93:                                               ; preds = %102, %92
  %94 = load i32, i32* %6, align 4, !llfi_index !571
  %95 = load i32, i32* @n, align 4, !llfi_index !572
  %96 = icmp sle i32 %94, %95, !llfi_index !573
  br i1 %96, label %97, label %105, !llfi_index !574

97:                                               ; preds = %93
  %98 = load i32, i32* %6, align 4, !llfi_index !575
  %99 = load i32, i32* %6, align 4, !llfi_index !576
  %100 = sext i32 %99 to i64, !llfi_index !577
  %101 = getelementptr inbounds [1100000 x i32], [1100000 x i32]* @fa, i64 0, i64 %100, !llfi_index !578
  store i32 %98, i32* %101, align 4, !llfi_index !579
  br label %102, !llfi_index !580

102:                                              ; preds = %97
  %103 = load i32, i32* %6, align 4, !llfi_index !581
  %104 = add nsw i32 %103, 1, !llfi_index !582
  store i32 %104, i32* %6, align 4, !llfi_index !583
  br label %93, !llvm.loop !584, !llfi_index !585

105:                                              ; preds = %93
  store i32 0, i32* @now, align 4, !llfi_index !586
  store i32 89, i32* %3, align 4, !llfi_index !587
  store i32 0, i32* %7, align 4, !llfi_index !588
  br label %106, !llfi_index !589

106:                                              ; preds = %137, %105
  %107 = load i32, i32* %7, align 4, !llfi_index !590
  %108 = load i32, i32* %2, align 4, !llfi_index !591
  %109 = icmp slt i32 %107, %108, !llfi_index !592
  br i1 %109, label %110, label %140, !llfi_index !593

110:                                              ; preds = %106
  store i32 89, i32* %3, align 4, !llfi_index !594
  store i32 0, i32* %8, align 4, !llfi_index !595
  br label %111, !llfi_index !596

111:                                              ; preds = %127, %110
  %112 = load i32, i32* %8, align 4, !llfi_index !597
  %113 = load i32, i32* %7, align 4, !llfi_index !598
  %114 = sext i32 %113 to i64, !llfi_index !599
  %115 = getelementptr inbounds [1100000 x %"class.std::vector"], [1100000 x %"class.std::vector"]* @V, i64 0, i64 %114, !llfi_index !600
  %116 = call i64 @_ZNKSt6vectorIiSaIiEE4sizeEv(%"class.std::vector"* nonnull align 8 dereferenceable(24) %115) #2, !llfi_index !601
  %117 = trunc i64 %116 to i32, !llfi_index !602
  %118 = icmp slt i32 %112, %117, !llfi_index !603
  br i1 %118, label %119, label %130, !llfi_index !604

119:                                              ; preds = %111
  %120 = load i32, i32* %7, align 4, !llfi_index !605
  %121 = sext i32 %120 to i64, !llfi_index !606
  %122 = getelementptr inbounds [1100000 x %"class.std::vector"], [1100000 x %"class.std::vector"]* @V, i64 0, i64 %121, !llfi_index !607
  %123 = load i32, i32* %8, align 4, !llfi_index !608
  %124 = sext i32 %123 to i64, !llfi_index !609
  %125 = call nonnull align 4 dereferenceable(4) i32* @_ZNSt6vectorIiSaIiEEixEm(%"class.std::vector"* nonnull align 8 dereferenceable(24) %122, i64 %124) #2, !llfi_index !610
  %126 = load i32, i32* %125, align 4, !llfi_index !611
  call void @_Z3addi(i32 %126), !llfi_index !612
  br label %127, !llfi_index !613

127:                                              ; preds = %119
  %128 = load i32, i32* %8, align 4, !llfi_index !614
  %129 = add nsw i32 %128, 1, !llfi_index !615
  store i32 %129, i32* %8, align 4, !llfi_index !616
  br label %111, !llvm.loop !617, !llfi_index !618

130:                                              ; preds = %111
  %131 = load i32, i32* @ans, align 4, !llfi_index !619
  %132 = load i32, i32* @T, align 4, !llfi_index !620
  %133 = add nsw i32 %131, %132, !llfi_index !621
  %134 = load i32, i32* @cc, align 4, !llfi_index !622
  %135 = sub nsw i32 %133, %134, !llfi_index !623
  %136 = srem i32 %135, 1000000007, !llfi_index !624
  store i32 %136, i32* @ans, align 4, !llfi_index !625
  br label %137, !llfi_index !626

137:                                              ; preds = %130
  %138 = load i32, i32* %7, align 4, !llfi_index !627
  %139 = add nsw i32 %138, 1, !llfi_index !628
  store i32 %139, i32* %7, align 4, !llfi_index !629
  br label %106, !llvm.loop !630, !llfi_index !631

140:                                              ; preds = %106
  %141 = load i32, i32* @ans, align 4, !llfi_index !632
  %142 = add nsw i32 %141, 1000000007, !llfi_index !633
  %143 = srem i32 %142, 1000000007, !llfi_index !634
  store i32 %143, i32* @ans, align 4, !llfi_index !635
  %144 = load i32, i32* @ans, align 4, !llfi_index !636
  %145 = call i32 (i8*, ...) @printf(i8* getelementptr inbounds ([4 x i8], [4 x i8]* @.str.4, i64 0, i64 0), i32 %144), !llfi_index !637
  %146 = load i32, i32* %1, align 4, !llfi_index !638
  ret i32 %146, !llfi_index !639
}

declare dso_local %struct._IO_FILE* @freopen(i8*, i8*, %struct._IO_FILE*) #7

declare dso_local i32 @__isoc99_scanf(i8*, ...) #7

; Function Attrs: mustprogress noinline uwtable
define linkonce_odr dso_local void @_ZNSt6vectorIiSaIiEE9push_backERKi(%"class.std::vector"* nonnull align 8 dereferenceable(24) %0, i32* nonnull align 4 dereferenceable(4) %1) #4 comdat align 2 {
  %3 = alloca %"class.std::vector"*, align 8, !llfi_index !640
  %4 = alloca i32*, align 8, !llfi_index !641
  %5 = alloca %"class.__gnu_cxx::__normal_iterator", align 8, !llfi_index !642
  store %"class.std::vector"* %0, %"class.std::vector"** %3, align 8, !llfi_index !643
  store i32* %1, i32** %4, align 8, !llfi_index !644
  %6 = load %"class.std::vector"*, %"class.std::vector"** %3, align 8, !llfi_index !645
  %7 = bitcast %"class.std::vector"* %6 to %"struct.std::_Vector_base"*, !llfi_index !646
  %8 = getelementptr inbounds %"struct.std::_Vector_base", %"struct.std::_Vector_base"* %7, i32 0, i32 0, !llfi_index !647
  %9 = bitcast %"struct.std::_Vector_base<int, std::allocator<int>>::_Vector_impl"* %8 to %"struct.std::_Vector_base<int, std::allocator<int>>::_Vector_impl_data"*, !llfi_index !648
  %10 = getelementptr inbounds %"struct.std::_Vector_base<int, std::allocator<int>>::_Vector_impl_data", %"struct.std::_Vector_base<int, std::allocator<int>>::_Vector_impl_data"* %9, i32 0, i32 1, !llfi_index !649
  %11 = load i32*, i32** %10, align 8, !llfi_index !650
  %12 = bitcast %"class.std::vector"* %6 to %"struct.std::_Vector_base"*, !llfi_index !651
  %13 = getelementptr inbounds %"struct.std::_Vector_base", %"struct.std::_Vector_base"* %12, i32 0, i32 0, !llfi_index !652
  %14 = bitcast %"struct.std::_Vector_base<int, std::allocator<int>>::_Vector_impl"* %13 to %"struct.std::_Vector_base<int, std::allocator<int>>::_Vector_impl_data"*, !llfi_index !653
  %15 = getelementptr inbounds %"struct.std::_Vector_base<int, std::allocator<int>>::_Vector_impl_data", %"struct.std::_Vector_base<int, std::allocator<int>>::_Vector_impl_data"* %14, i32 0, i32 2, !llfi_index !654
  %16 = load i32*, i32** %15, align 8, !llfi_index !655
  %17 = icmp ne i32* %11, %16, !llfi_index !656
  br i1 %17, label %18, label %34, !llfi_index !657

18:                                               ; preds = %2
  %19 = bitcast %"class.std::vector"* %6 to %"struct.std::_Vector_base"*, !llfi_index !658
  %20 = getelementptr inbounds %"struct.std::_Vector_base", %"struct.std::_Vector_base"* %19, i32 0, i32 0, !llfi_index !659
  %21 = bitcast %"struct.std::_Vector_base<int, std::allocator<int>>::_Vector_impl"* %20 to %"class.std::allocator"*, !llfi_index !660
  %22 = bitcast %"class.std::vector"* %6 to %"struct.std::_Vector_base"*, !llfi_index !661
  %23 = getelementptr inbounds %"struct.std::_Vector_base", %"struct.std::_Vector_base"* %22, i32 0, i32 0, !llfi_index !662
  %24 = bitcast %"struct.std::_Vector_base<int, std::allocator<int>>::_Vector_impl"* %23 to %"struct.std::_Vector_base<int, std::allocator<int>>::_Vector_impl_data"*, !llfi_index !663
  %25 = getelementptr inbounds %"struct.std::_Vector_base<int, std::allocator<int>>::_Vector_impl_data", %"struct.std::_Vector_base<int, std::allocator<int>>::_Vector_impl_data"* %24, i32 0, i32 1, !llfi_index !664
  %26 = load i32*, i32** %25, align 8, !llfi_index !665
  %27 = load i32*, i32** %4, align 8, !llfi_index !666
  call void @_ZNSt16allocator_traitsISaIiEE9constructIiJRKiEEEvRS0_PT_DpOT0_(%"class.std::allocator"* nonnull align 1 dereferenceable(1) %21, i32* %26, i32* nonnull align 4 dereferenceable(4) %27) #2, !llfi_index !667
  %28 = bitcast %"class.std::vector"* %6 to %"struct.std::_Vector_base"*, !llfi_index !668
  %29 = getelementptr inbounds %"struct.std::_Vector_base", %"struct.std::_Vector_base"* %28, i32 0, i32 0, !llfi_index !669
  %30 = bitcast %"struct.std::_Vector_base<int, std::allocator<int>>::_Vector_impl"* %29 to %"struct.std::_Vector_base<int, std::allocator<int>>::_Vector_impl_data"*, !llfi_index !670
  %31 = getelementptr inbounds %"struct.std::_Vector_base<int, std::allocator<int>>::_Vector_impl_data", %"struct.std::_Vector_base<int, std::allocator<int>>::_Vector_impl_data"* %30, i32 0, i32 1, !llfi_index !671
  %32 = load i32*, i32** %31, align 8, !llfi_index !672
  %33 = getelementptr inbounds i32, i32* %32, i32 1, !llfi_index !673
  store i32* %33, i32** %31, align 8, !llfi_index !674
  br label %40, !llfi_index !675

34:                                               ; preds = %2
  %35 = call i32* @_ZNSt6vectorIiSaIiEE3endEv(%"class.std::vector"* nonnull align 8 dereferenceable(24) %6) #2, !llfi_index !676
  %36 = getelementptr inbounds %"class.__gnu_cxx::__normal_iterator", %"class.__gnu_cxx::__normal_iterator"* %5, i32 0, i32 0, !llfi_index !677
  store i32* %35, i32** %36, align 8, !llfi_index !678
  %37 = load i32*, i32** %4, align 8, !llfi_index !679
  %38 = getelementptr inbounds %"class.__gnu_cxx::__normal_iterator", %"class.__gnu_cxx::__normal_iterator"* %5, i32 0, i32 0, !llfi_index !680
  %39 = load i32*, i32** %38, align 8, !llfi_index !681
  call void @_ZNSt6vectorIiSaIiEE17_M_realloc_insertIJRKiEEEvN9__gnu_cxx17__normal_iteratorIPiS1_EEDpOT_(%"class.std::vector"* nonnull align 8 dereferenceable(24) %6, i32* %39, i32* nonnull align 4 dereferenceable(4) %37), !llfi_index !682
  br label %40, !llfi_index !683

40:                                               ; preds = %34, %18
  ret void, !llfi_index !684
}

; Function Attrs: mustprogress noinline nounwind uwtable
define linkonce_odr dso_local nonnull align 4 dereferenceable(4) i32* @_ZSt3maxIiERKT_S2_S2_(i32* nonnull align 4 dereferenceable(4) %0, i32* nonnull align 4 dereferenceable(4) %1) #3 comdat {
  %3 = alloca i32*, align 8, !llfi_index !685
  %4 = alloca i32*, align 8, !llfi_index !686
  %5 = alloca i32*, align 8, !llfi_index !687
  store i32* %0, i32** %4, align 8, !llfi_index !688
  store i32* %1, i32** %5, align 8, !llfi_index !689
  %6 = load i32*, i32** %4, align 8, !llfi_index !690
  %7 = load i32, i32* %6, align 4, !llfi_index !691
  %8 = load i32*, i32** %5, align 8, !llfi_index !692
  %9 = load i32, i32* %8, align 4, !llfi_index !693
  %10 = icmp slt i32 %7, %9, !llfi_index !694
  br i1 %10, label %11, label %13, !llfi_index !695

11:                                               ; preds = %2
  %12 = load i32*, i32** %5, align 8, !llfi_index !696
  store i32* %12, i32** %3, align 8, !llfi_index !697
  br label %15, !llfi_index !698

13:                                               ; preds = %2
  %14 = load i32*, i32** %4, align 8, !llfi_index !699
  store i32* %14, i32** %3, align 8, !llfi_index !700
  br label %15, !llfi_index !701

15:                                               ; preds = %13, %11
  %16 = load i32*, i32** %3, align 8, !llfi_index !702
  ret i32* %16, !llfi_index !703
}

; Function Attrs: mustprogress noinline nounwind uwtable
define linkonce_odr dso_local i64 @_ZNKSt6vectorIiSaIiEE4sizeEv(%"class.std::vector"* nonnull align 8 dereferenceable(24) %0) #3 comdat align 2 {
  %2 = alloca %"class.std::vector"*, align 8, !llfi_index !704
  store %"class.std::vector"* %0, %"class.std::vector"** %2, align 8, !llfi_index !705
  %3 = load %"class.std::vector"*, %"class.std::vector"** %2, align 8, !llfi_index !706
  %4 = bitcast %"class.std::vector"* %3 to %"struct.std::_Vector_base"*, !llfi_index !707
  %5 = getelementptr inbounds %"struct.std::_Vector_base", %"struct.std::_Vector_base"* %4, i32 0, i32 0, !llfi_index !708
  %6 = bitcast %"struct.std::_Vector_base<int, std::allocator<int>>::_Vector_impl"* %5 to %"struct.std::_Vector_base<int, std::allocator<int>>::_Vector_impl_data"*, !llfi_index !709
  %7 = getelementptr inbounds %"struct.std::_Vector_base<int, std::allocator<int>>::_Vector_impl_data", %"struct.std::_Vector_base<int, std::allocator<int>>::_Vector_impl_data"* %6, i32 0, i32 1, !llfi_index !710
  %8 = load i32*, i32** %7, align 8, !llfi_index !711
  %9 = bitcast %"class.std::vector"* %3 to %"struct.std::_Vector_base"*, !llfi_index !712
  %10 = getelementptr inbounds %"struct.std::_Vector_base", %"struct.std::_Vector_base"* %9, i32 0, i32 0, !llfi_index !713
  %11 = bitcast %"struct.std::_Vector_base<int, std::allocator<int>>::_Vector_impl"* %10 to %"struct.std::_Vector_base<int, std::allocator<int>>::_Vector_impl_data"*, !llfi_index !714
  %12 = getelementptr inbounds %"struct.std::_Vector_base<int, std::allocator<int>>::_Vector_impl_data", %"struct.std::_Vector_base<int, std::allocator<int>>::_Vector_impl_data"* %11, i32 0, i32 0, !llfi_index !715
  %13 = load i32*, i32** %12, align 8, !llfi_index !716
  %14 = ptrtoint i32* %8 to i64, !llfi_index !717
  %15 = ptrtoint i32* %13 to i64, !llfi_index !718
  %16 = sub i64 %14, %15, !llfi_index !719
  %17 = sdiv exact i64 %16, 4, !llfi_index !720
  ret i64 %17, !llfi_index !721
}

; Function Attrs: mustprogress noinline nounwind uwtable
define linkonce_odr dso_local nonnull align 4 dereferenceable(4) i32* @_ZNSt6vectorIiSaIiEEixEm(%"class.std::vector"* nonnull align 8 dereferenceable(24) %0, i64 %1) #3 comdat align 2 {
  %3 = alloca %"class.std::vector"*, align 8, !llfi_index !722
  %4 = alloca i64, align 8, !llfi_index !723
  store %"class.std::vector"* %0, %"class.std::vector"** %3, align 8, !llfi_index !724
  store i64 %1, i64* %4, align 8, !llfi_index !725
  %5 = load %"class.std::vector"*, %"class.std::vector"** %3, align 8, !llfi_index !726
  %6 = bitcast %"class.std::vector"* %5 to %"struct.std::_Vector_base"*, !llfi_index !727
  %7 = getelementptr inbounds %"struct.std::_Vector_base", %"struct.std::_Vector_base"* %6, i32 0, i32 0, !llfi_index !728
  %8 = bitcast %"struct.std::_Vector_base<int, std::allocator<int>>::_Vector_impl"* %7 to %"struct.std::_Vector_base<int, std::allocator<int>>::_Vector_impl_data"*, !llfi_index !729
  %9 = getelementptr inbounds %"struct.std::_Vector_base<int, std::allocator<int>>::_Vector_impl_data", %"struct.std::_Vector_base<int, std::allocator<int>>::_Vector_impl_data"* %8, i32 0, i32 0, !llfi_index !730
  %10 = load i32*, i32** %9, align 8, !llfi_index !731
  %11 = load i64, i64* %4, align 8, !llfi_index !732
  %12 = getelementptr inbounds i32, i32* %10, i64 %11, !llfi_index !733
  ret i32* %12, !llfi_index !734
}

declare dso_local i32 @printf(i8*, ...) #7

; Function Attrs: mustprogress noinline nounwind uwtable
define linkonce_odr dso_local void @_ZNSt16allocator_traitsISaIiEE9constructIiJRKiEEEvRS0_PT_DpOT0_(%"class.std::allocator"* nonnull align 1 dereferenceable(1) %0, i32* %1, i32* nonnull align 4 dereferenceable(4) %2) #3 comdat align 2 {
  %4 = alloca %"class.std::allocator"*, align 8, !llfi_index !735
  %5 = alloca i32*, align 8, !llfi_index !736
  %6 = alloca i32*, align 8, !llfi_index !737
  store %"class.std::allocator"* %0, %"class.std::allocator"** %4, align 8, !llfi_index !738
  store i32* %1, i32** %5, align 8, !llfi_index !739
  store i32* %2, i32** %6, align 8, !llfi_index !740
  %7 = load %"class.std::allocator"*, %"class.std::allocator"** %4, align 8, !llfi_index !741
  %8 = bitcast %"class.std::allocator"* %7 to %"class.std::allocator"*, !llfi_index !742
  %9 = load i32*, i32** %5, align 8, !llfi_index !743
  %10 = load i32*, i32** %6, align 8, !llfi_index !744
  %11 = call nonnull align 4 dereferenceable(4) i32* @_ZSt7forwardIRKiEOT_RNSt16remove_referenceIS2_E4typeE(i32* nonnull align 4 dereferenceable(4) %10) #2, !llfi_index !745
  call void @_ZN9__gnu_cxx13new_allocatorIiE9constructIiJRKiEEEvPT_DpOT0_(%"class.std::allocator"* nonnull align 1 dereferenceable(1) %8, i32* %9, i32* nonnull align 4 dereferenceable(4) %11) #2, !llfi_index !746
  ret void, !llfi_index !747
}

; Function Attrs: mustprogress noinline nounwind uwtable
define linkonce_odr dso_local i32* @_ZNSt6vectorIiSaIiEE3endEv(%"class.std::vector"* nonnull align 8 dereferenceable(24) %0) #3 comdat align 2 {
  %2 = alloca %"class.__gnu_cxx::__normal_iterator", align 8, !llfi_index !748
  %3 = alloca %"class.std::vector"*, align 8, !llfi_index !749
  store %"class.std::vector"* %0, %"class.std::vector"** %3, align 8, !llfi_index !750
  %4 = load %"class.std::vector"*, %"class.std::vector"** %3, align 8, !llfi_index !751
  %5 = bitcast %"class.std::vector"* %4 to %"struct.std::_Vector_base"*, !llfi_index !752
  %6 = getelementptr inbounds %"struct.std::_Vector_base", %"struct.std::_Vector_base"* %5, i32 0, i32 0, !llfi_index !753
  %7 = bitcast %"struct.std::_Vector_base<int, std::allocator<int>>::_Vector_impl"* %6 to %"struct.std::_Vector_base<int, std::allocator<int>>::_Vector_impl_data"*, !llfi_index !754
  %8 = getelementptr inbounds %"struct.std::_Vector_base<int, std::allocator<int>>::_Vector_impl_data", %"struct.std::_Vector_base<int, std::allocator<int>>::_Vector_impl_data"* %7, i32 0, i32 1, !llfi_index !755
  call void @_ZN9__gnu_cxx17__normal_iteratorIPiSt6vectorIiSaIiEEEC2ERKS1_(%"class.__gnu_cxx::__normal_iterator"* nonnull align 8 dereferenceable(8) %2, i32** nonnull align 8 dereferenceable(8) %8) #2, !llfi_index !756
  %9 = getelementptr inbounds %"class.__gnu_cxx::__normal_iterator", %"class.__gnu_cxx::__normal_iterator"* %2, i32 0, i32 0, !llfi_index !757
  %10 = load i32*, i32** %9, align 8, !llfi_index !758
  ret i32* %10, !llfi_index !759
}

; Function Attrs: mustprogress noinline uwtable
define linkonce_odr dso_local void @_ZNSt6vectorIiSaIiEE17_M_realloc_insertIJRKiEEEvN9__gnu_cxx17__normal_iteratorIPiS1_EEDpOT_(%"class.std::vector"* nonnull align 8 dereferenceable(24) %0, i32* %1, i32* nonnull align 4 dereferenceable(4) %2) #4 comdat align 2 {
  %4 = alloca %"class.__gnu_cxx::__normal_iterator", align 8, !llfi_index !760
  %5 = alloca %"class.std::vector"*, align 8, !llfi_index !761
  %6 = alloca i32*, align 8, !llfi_index !762
  %7 = alloca i64, align 8, !llfi_index !763
  %8 = alloca i32*, align 8, !llfi_index !764
  %9 = alloca i32*, align 8, !llfi_index !765
  %10 = alloca i64, align 8, !llfi_index !766
  %11 = alloca %"class.__gnu_cxx::__normal_iterator", align 8, !llfi_index !767
  %12 = alloca i32*, align 8, !llfi_index !768
  %13 = alloca i32*, align 8, !llfi_index !769
  %14 = getelementptr inbounds %"class.__gnu_cxx::__normal_iterator", %"class.__gnu_cxx::__normal_iterator"* %4, i32 0, i32 0, !llfi_index !770
  store i32* %1, i32** %14, align 8, !llfi_index !771
  store %"class.std::vector"* %0, %"class.std::vector"** %5, align 8, !llfi_index !772
  store i32* %2, i32** %6, align 8, !llfi_index !773
  %15 = load %"class.std::vector"*, %"class.std::vector"** %5, align 8, !llfi_index !774
  %16 = call i64 @_ZNKSt6vectorIiSaIiEE12_M_check_lenEmPKc(%"class.std::vector"* nonnull align 8 dereferenceable(24) %15, i64 1, i8* getelementptr inbounds ([26 x i8], [26 x i8]* @.str.5, i64 0, i64 0)), !llfi_index !775
  store i64 %16, i64* %7, align 8, !llfi_index !776
  %17 = bitcast %"class.std::vector"* %15 to %"struct.std::_Vector_base"*, !llfi_index !777
  %18 = getelementptr inbounds %"struct.std::_Vector_base", %"struct.std::_Vector_base"* %17, i32 0, i32 0, !llfi_index !778
  %19 = bitcast %"struct.std::_Vector_base<int, std::allocator<int>>::_Vector_impl"* %18 to %"struct.std::_Vector_base<int, std::allocator<int>>::_Vector_impl_data"*, !llfi_index !779
  %20 = getelementptr inbounds %"struct.std::_Vector_base<int, std::allocator<int>>::_Vector_impl_data", %"struct.std::_Vector_base<int, std::allocator<int>>::_Vector_impl_data"* %19, i32 0, i32 0, !llfi_index !780
  %21 = load i32*, i32** %20, align 8, !llfi_index !781
  store i32* %21, i32** %8, align 8, !llfi_index !782
  %22 = bitcast %"class.std::vector"* %15 to %"struct.std::_Vector_base"*, !llfi_index !783
  %23 = getelementptr inbounds %"struct.std::_Vector_base", %"struct.std::_Vector_base"* %22, i32 0, i32 0, !llfi_index !784
  %24 = bitcast %"struct.std::_Vector_base<int, std::allocator<int>>::_Vector_impl"* %23 to %"struct.std::_Vector_base<int, std::allocator<int>>::_Vector_impl_data"*, !llfi_index !785
  %25 = getelementptr inbounds %"struct.std::_Vector_base<int, std::allocator<int>>::_Vector_impl_data", %"struct.std::_Vector_base<int, std::allocator<int>>::_Vector_impl_data"* %24, i32 0, i32 1, !llfi_index !786
  %26 = load i32*, i32** %25, align 8, !llfi_index !787
  store i32* %26, i32** %9, align 8, !llfi_index !788
  %27 = call i32* @_ZNSt6vectorIiSaIiEE5beginEv(%"class.std::vector"* nonnull align 8 dereferenceable(24) %15) #2, !llfi_index !789
  %28 = getelementptr inbounds %"class.__gnu_cxx::__normal_iterator", %"class.__gnu_cxx::__normal_iterator"* %11, i32 0, i32 0, !llfi_index !790
  store i32* %27, i32** %28, align 8, !llfi_index !791
  %29 = call i64 @_ZN9__gnu_cxxmiIPiSt6vectorIiSaIiEEEENS_17__normal_iteratorIT_T0_E15difference_typeERKS8_SB_(%"class.__gnu_cxx::__normal_iterator"* nonnull align 8 dereferenceable(8) %4, %"class.__gnu_cxx::__normal_iterator"* nonnull align 8 dereferenceable(8) %11) #2, !llfi_index !792
  store i64 %29, i64* %10, align 8, !llfi_index !793
  %30 = bitcast %"class.std::vector"* %15 to %"struct.std::_Vector_base"*, !llfi_index !794
  %31 = load i64, i64* %7, align 8, !llfi_index !795
  %32 = call i32* @_ZNSt12_Vector_baseIiSaIiEE11_M_allocateEm(%"struct.std::_Vector_base"* nonnull align 8 dereferenceable(24) %30, i64 %31), !llfi_index !796
  store i32* %32, i32** %12, align 8, !llfi_index !797
  %33 = load i32*, i32** %12, align 8, !llfi_index !798
  store i32* %33, i32** %13, align 8, !llfi_index !799
  %34 = bitcast %"class.std::vector"* %15 to %"struct.std::_Vector_base"*, !llfi_index !800
  %35 = getelementptr inbounds %"struct.std::_Vector_base", %"struct.std::_Vector_base"* %34, i32 0, i32 0, !llfi_index !801
  %36 = bitcast %"struct.std::_Vector_base<int, std::allocator<int>>::_Vector_impl"* %35 to %"class.std::allocator"*, !llfi_index !802
  %37 = load i32*, i32** %12, align 8, !llfi_index !803
  %38 = load i64, i64* %10, align 8, !llfi_index !804
  %39 = getelementptr inbounds i32, i32* %37, i64 %38, !llfi_index !805
  %40 = load i32*, i32** %6, align 8, !llfi_index !806
  %41 = call nonnull align 4 dereferenceable(4) i32* @_ZSt7forwardIRKiEOT_RNSt16remove_referenceIS2_E4typeE(i32* nonnull align 4 dereferenceable(4) %40) #2, !llfi_index !807
  call void @_ZNSt16allocator_traitsISaIiEE9constructIiJRKiEEEvRS0_PT_DpOT0_(%"class.std::allocator"* nonnull align 1 dereferenceable(1) %36, i32* %39, i32* nonnull align 4 dereferenceable(4) %41) #2, !llfi_index !808
  store i32* null, i32** %13, align 8, !llfi_index !809
  %42 = load i32*, i32** %8, align 8, !llfi_index !810
  %43 = call nonnull align 8 dereferenceable(8) i32** @_ZNK9__gnu_cxx17__normal_iteratorIPiSt6vectorIiSaIiEEE4baseEv(%"class.__gnu_cxx::__normal_iterator"* nonnull align 8 dereferenceable(8) %4) #2, !llfi_index !811
  %44 = load i32*, i32** %43, align 8, !llfi_index !812
  %45 = load i32*, i32** %12, align 8, !llfi_index !813
  %46 = bitcast %"class.std::vector"* %15 to %"struct.std::_Vector_base"*, !llfi_index !814
  %47 = call nonnull align 1 dereferenceable(1) %"class.std::allocator"* @_ZNSt12_Vector_baseIiSaIiEE19_M_get_Tp_allocatorEv(%"struct.std::_Vector_base"* nonnull align 8 dereferenceable(24) %46) #2, !llfi_index !815
  %48 = call i32* @_ZNSt6vectorIiSaIiEE11_S_relocateEPiS2_S2_RS0_(i32* %42, i32* %44, i32* %45, %"class.std::allocator"* nonnull align 1 dereferenceable(1) %47) #2, !llfi_index !816
  store i32* %48, i32** %13, align 8, !llfi_index !817
  %49 = load i32*, i32** %13, align 8, !llfi_index !818
  %50 = getelementptr inbounds i32, i32* %49, i32 1, !llfi_index !819
  store i32* %50, i32** %13, align 8, !llfi_index !820
  %51 = call nonnull align 8 dereferenceable(8) i32** @_ZNK9__gnu_cxx17__normal_iteratorIPiSt6vectorIiSaIiEEE4baseEv(%"class.__gnu_cxx::__normal_iterator"* nonnull align 8 dereferenceable(8) %4) #2, !llfi_index !821
  %52 = load i32*, i32** %51, align 8, !llfi_index !822
  %53 = load i32*, i32** %9, align 8, !llfi_index !823
  %54 = load i32*, i32** %13, align 8, !llfi_index !824
  %55 = bitcast %"class.std::vector"* %15 to %"struct.std::_Vector_base"*, !llfi_index !825
  %56 = call nonnull align 1 dereferenceable(1) %"class.std::allocator"* @_ZNSt12_Vector_baseIiSaIiEE19_M_get_Tp_allocatorEv(%"struct.std::_Vector_base"* nonnull align 8 dereferenceable(24) %55) #2, !llfi_index !826
  %57 = call i32* @_ZNSt6vectorIiSaIiEE11_S_relocateEPiS2_S2_RS0_(i32* %52, i32* %53, i32* %54, %"class.std::allocator"* nonnull align 1 dereferenceable(1) %56) #2, !llfi_index !827
  store i32* %57, i32** %13, align 8, !llfi_index !828
  %58 = bitcast %"class.std::vector"* %15 to %"struct.std::_Vector_base"*, !llfi_index !829
  %59 = load i32*, i32** %8, align 8, !llfi_index !830
  %60 = bitcast %"class.std::vector"* %15 to %"struct.std::_Vector_base"*, !llfi_index !831
  %61 = getelementptr inbounds %"struct.std::_Vector_base", %"struct.std::_Vector_base"* %60, i32 0, i32 0, !llfi_index !832
  %62 = bitcast %"struct.std::_Vector_base<int, std::allocator<int>>::_Vector_impl"* %61 to %"struct.std::_Vector_base<int, std::allocator<int>>::_Vector_impl_data"*, !llfi_index !833
  %63 = getelementptr inbounds %"struct.std::_Vector_base<int, std::allocator<int>>::_Vector_impl_data", %"struct.std::_Vector_base<int, std::allocator<int>>::_Vector_impl_data"* %62, i32 0, i32 2, !llfi_index !834
  %64 = load i32*, i32** %63, align 8, !llfi_index !835
  %65 = load i32*, i32** %8, align 8, !llfi_index !836
  %66 = ptrtoint i32* %64 to i64, !llfi_index !837
  %67 = ptrtoint i32* %65 to i64, !llfi_index !838
  %68 = sub i64 %66, %67, !llfi_index !839
  %69 = sdiv exact i64 %68, 4, !llfi_index !840
  call void @_ZNSt12_Vector_baseIiSaIiEE13_M_deallocateEPim(%"struct.std::_Vector_base"* nonnull align 8 dereferenceable(24) %58, i32* %59, i64 %69), !llfi_index !841
  %70 = load i32*, i32** %12, align 8, !llfi_index !842
  %71 = bitcast %"class.std::vector"* %15 to %"struct.std::_Vector_base"*, !llfi_index !843
  %72 = getelementptr inbounds %"struct.std::_Vector_base", %"struct.std::_Vector_base"* %71, i32 0, i32 0, !llfi_index !844
  %73 = bitcast %"struct.std::_Vector_base<int, std::allocator<int>>::_Vector_impl"* %72 to %"struct.std::_Vector_base<int, std::allocator<int>>::_Vector_impl_data"*, !llfi_index !845
  %74 = getelementptr inbounds %"struct.std::_Vector_base<int, std::allocator<int>>::_Vector_impl_data", %"struct.std::_Vector_base<int, std::allocator<int>>::_Vector_impl_data"* %73, i32 0, i32 0, !llfi_index !846
  store i32* %70, i32** %74, align 8, !llfi_index !847
  %75 = load i32*, i32** %13, align 8, !llfi_index !848
  %76 = bitcast %"class.std::vector"* %15 to %"struct.std::_Vector_base"*, !llfi_index !849
  %77 = getelementptr inbounds %"struct.std::_Vector_base", %"struct.std::_Vector_base"* %76, i32 0, i32 0, !llfi_index !850
  %78 = bitcast %"struct.std::_Vector_base<int, std::allocator<int>>::_Vector_impl"* %77 to %"struct.std::_Vector_base<int, std::allocator<int>>::_Vector_impl_data"*, !llfi_index !851
  %79 = getelementptr inbounds %"struct.std::_Vector_base<int, std::allocator<int>>::_Vector_impl_data", %"struct.std::_Vector_base<int, std::allocator<int>>::_Vector_impl_data"* %78, i32 0, i32 1, !llfi_index !852
  store i32* %75, i32** %79, align 8, !llfi_index !853
  %80 = load i32*, i32** %12, align 8, !llfi_index !854
  %81 = load i64, i64* %7, align 8, !llfi_index !855
  %82 = getelementptr inbounds i32, i32* %80, i64 %81, !llfi_index !856
  %83 = bitcast %"class.std::vector"* %15 to %"struct.std::_Vector_base"*, !llfi_index !857
  %84 = getelementptr inbounds %"struct.std::_Vector_base", %"struct.std::_Vector_base"* %83, i32 0, i32 0, !llfi_index !858
  %85 = bitcast %"struct.std::_Vector_base<int, std::allocator<int>>::_Vector_impl"* %84 to %"struct.std::_Vector_base<int, std::allocator<int>>::_Vector_impl_data"*, !llfi_index !859
  %86 = getelementptr inbounds %"struct.std::_Vector_base<int, std::allocator<int>>::_Vector_impl_data", %"struct.std::_Vector_base<int, std::allocator<int>>::_Vector_impl_data"* %85, i32 0, i32 2, !llfi_index !860
  store i32* %82, i32** %86, align 8, !llfi_index !861
  ret void, !llfi_index !862
}

; Function Attrs: mustprogress noinline uwtable
define linkonce_odr dso_local i64 @_ZNKSt6vectorIiSaIiEE12_M_check_lenEmPKc(%"class.std::vector"* nonnull align 8 dereferenceable(24) %0, i64 %1, i8* %2) #4 comdat align 2 {
  %4 = alloca %"class.std::vector"*, align 8, !llfi_index !863
  %5 = alloca i64, align 8, !llfi_index !864
  %6 = alloca i8*, align 8, !llfi_index !865
  %7 = alloca i64, align 8, !llfi_index !866
  %8 = alloca i64, align 8, !llfi_index !867
  store %"class.std::vector"* %0, %"class.std::vector"** %4, align 8, !llfi_index !868
  store i64 %1, i64* %5, align 8, !llfi_index !869
  store i8* %2, i8** %6, align 8, !llfi_index !870
  %9 = load %"class.std::vector"*, %"class.std::vector"** %4, align 8, !llfi_index !871
  %10 = call i64 @_ZNKSt6vectorIiSaIiEE8max_sizeEv(%"class.std::vector"* nonnull align 8 dereferenceable(24) %9) #2, !llfi_index !872
  %11 = call i64 @_ZNKSt6vectorIiSaIiEE4sizeEv(%"class.std::vector"* nonnull align 8 dereferenceable(24) %9) #2, !llfi_index !873
  %12 = sub i64 %10, %11, !llfi_index !874
  %13 = load i64, i64* %5, align 8, !llfi_index !875
  %14 = icmp ult i64 %12, %13, !llfi_index !876
  br i1 %14, label %15, label %17, !llfi_index !877

15:                                               ; preds = %3
  %16 = load i8*, i8** %6, align 8, !llfi_index !878
  call void @_ZSt20__throw_length_errorPKc(i8* %16) #14, !llfi_index !879
  unreachable, !llfi_index !880

17:                                               ; preds = %3
  %18 = call i64 @_ZNKSt6vectorIiSaIiEE4sizeEv(%"class.std::vector"* nonnull align 8 dereferenceable(24) %9) #2, !llfi_index !881
  %19 = call i64 @_ZNKSt6vectorIiSaIiEE4sizeEv(%"class.std::vector"* nonnull align 8 dereferenceable(24) %9) #2, !llfi_index !882
  store i64 %19, i64* %8, align 8, !llfi_index !883
  %20 = call nonnull align 8 dereferenceable(8) i64* @_ZSt3maxImERKT_S2_S2_(i64* nonnull align 8 dereferenceable(8) %8, i64* nonnull align 8 dereferenceable(8) %5), !llfi_index !884
  %21 = load i64, i64* %20, align 8, !llfi_index !885
  %22 = add i64 %18, %21, !llfi_index !886
  store i64 %22, i64* %7, align 8, !llfi_index !887
  %23 = load i64, i64* %7, align 8, !llfi_index !888
  %24 = call i64 @_ZNKSt6vectorIiSaIiEE4sizeEv(%"class.std::vector"* nonnull align 8 dereferenceable(24) %9) #2, !llfi_index !889
  %25 = icmp ult i64 %23, %24, !llfi_index !890
  br i1 %25, label %30, label %26, !llfi_index !891

26:                                               ; preds = %17
  %27 = load i64, i64* %7, align 8, !llfi_index !892
  %28 = call i64 @_ZNKSt6vectorIiSaIiEE8max_sizeEv(%"class.std::vector"* nonnull align 8 dereferenceable(24) %9) #2, !llfi_index !893
  %29 = icmp ugt i64 %27, %28, !llfi_index !894
  br i1 %29, label %30, label %32, !llfi_index !895

30:                                               ; preds = %26, %17
  %31 = call i64 @_ZNKSt6vectorIiSaIiEE8max_sizeEv(%"class.std::vector"* nonnull align 8 dereferenceable(24) %9) #2, !llfi_index !896
  br label %34, !llfi_index !897

32:                                               ; preds = %26
  %33 = load i64, i64* %7, align 8, !llfi_index !898
  br label %34, !llfi_index !899

34:                                               ; preds = %32, %30
  %35 = phi i64 [ %31, %30 ], [ %33, %32 ], !llfi_index !900
  ret i64 %35, !llfi_index !901
}

; Function Attrs: mustprogress noinline nounwind uwtable
define linkonce_odr dso_local i32* @_ZNSt6vectorIiSaIiEE5beginEv(%"class.std::vector"* nonnull align 8 dereferenceable(24) %0) #3 comdat align 2 {
  %2 = alloca %"class.__gnu_cxx::__normal_iterator", align 8, !llfi_index !902
  %3 = alloca %"class.std::vector"*, align 8, !llfi_index !903
  store %"class.std::vector"* %0, %"class.std::vector"** %3, align 8, !llfi_index !904
  %4 = load %"class.std::vector"*, %"class.std::vector"** %3, align 8, !llfi_index !905
  %5 = bitcast %"class.std::vector"* %4 to %"struct.std::_Vector_base"*, !llfi_index !906
  %6 = getelementptr inbounds %"struct.std::_Vector_base", %"struct.std::_Vector_base"* %5, i32 0, i32 0, !llfi_index !907
  %7 = bitcast %"struct.std::_Vector_base<int, std::allocator<int>>::_Vector_impl"* %6 to %"struct.std::_Vector_base<int, std::allocator<int>>::_Vector_impl_data"*, !llfi_index !908
  %8 = getelementptr inbounds %"struct.std::_Vector_base<int, std::allocator<int>>::_Vector_impl_data", %"struct.std::_Vector_base<int, std::allocator<int>>::_Vector_impl_data"* %7, i32 0, i32 0, !llfi_index !909
  call void @_ZN9__gnu_cxx17__normal_iteratorIPiSt6vectorIiSaIiEEEC2ERKS1_(%"class.__gnu_cxx::__normal_iterator"* nonnull align 8 dereferenceable(8) %2, i32** nonnull align 8 dereferenceable(8) %8) #2, !llfi_index !910
  %9 = getelementptr inbounds %"class.__gnu_cxx::__normal_iterator", %"class.__gnu_cxx::__normal_iterator"* %2, i32 0, i32 0, !llfi_index !911
  %10 = load i32*, i32** %9, align 8, !llfi_index !912
  ret i32* %10, !llfi_index !913
}

; Function Attrs: mustprogress noinline nounwind uwtable
define linkonce_odr dso_local i64 @_ZN9__gnu_cxxmiIPiSt6vectorIiSaIiEEEENS_17__normal_iteratorIT_T0_E15difference_typeERKS8_SB_(%"class.__gnu_cxx::__normal_iterator"* nonnull align 8 dereferenceable(8) %0, %"class.__gnu_cxx::__normal_iterator"* nonnull align 8 dereferenceable(8) %1) #3 comdat {
  %3 = alloca %"class.__gnu_cxx::__normal_iterator"*, align 8, !llfi_index !914
  %4 = alloca %"class.__gnu_cxx::__normal_iterator"*, align 8, !llfi_index !915
  store %"class.__gnu_cxx::__normal_iterator"* %0, %"class.__gnu_cxx::__normal_iterator"** %3, align 8, !llfi_index !916
  store %"class.__gnu_cxx::__normal_iterator"* %1, %"class.__gnu_cxx::__normal_iterator"** %4, align 8, !llfi_index !917
  %5 = load %"class.__gnu_cxx::__normal_iterator"*, %"class.__gnu_cxx::__normal_iterator"** %3, align 8, !llfi_index !918
  %6 = call nonnull align 8 dereferenceable(8) i32** @_ZNK9__gnu_cxx17__normal_iteratorIPiSt6vectorIiSaIiEEE4baseEv(%"class.__gnu_cxx::__normal_iterator"* nonnull align 8 dereferenceable(8) %5) #2, !llfi_index !919
  %7 = load i32*, i32** %6, align 8, !llfi_index !920
  %8 = load %"class.__gnu_cxx::__normal_iterator"*, %"class.__gnu_cxx::__normal_iterator"** %4, align 8, !llfi_index !921
  %9 = call nonnull align 8 dereferenceable(8) i32** @_ZNK9__gnu_cxx17__normal_iteratorIPiSt6vectorIiSaIiEEE4baseEv(%"class.__gnu_cxx::__normal_iterator"* nonnull align 8 dereferenceable(8) %8) #2, !llfi_index !922
  %10 = load i32*, i32** %9, align 8, !llfi_index !923
  %11 = ptrtoint i32* %7 to i64, !llfi_index !924
  %12 = ptrtoint i32* %10 to i64, !llfi_index !925
  %13 = sub i64 %11, %12, !llfi_index !926
  %14 = sdiv exact i64 %13, 4, !llfi_index !927
  ret i64 %14, !llfi_index !928
}

; Function Attrs: mustprogress noinline uwtable
define linkonce_odr dso_local i32* @_ZNSt12_Vector_baseIiSaIiEE11_M_allocateEm(%"struct.std::_Vector_base"* nonnull align 8 dereferenceable(24) %0, i64 %1) #4 comdat align 2 {
  %3 = alloca %"struct.std::_Vector_base"*, align 8, !llfi_index !929
  %4 = alloca i64, align 8, !llfi_index !930
  store %"struct.std::_Vector_base"* %0, %"struct.std::_Vector_base"** %3, align 8, !llfi_index !931
  store i64 %1, i64* %4, align 8, !llfi_index !932
  %5 = load %"struct.std::_Vector_base"*, %"struct.std::_Vector_base"** %3, align 8, !llfi_index !933
  %6 = load i64, i64* %4, align 8, !llfi_index !934
  %7 = icmp ne i64 %6, 0, !llfi_index !935
  br i1 %7, label %8, label %13, !llfi_index !936

8:                                                ; preds = %2
  %9 = getelementptr inbounds %"struct.std::_Vector_base", %"struct.std::_Vector_base"* %5, i32 0, i32 0, !llfi_index !937
  %10 = bitcast %"struct.std::_Vector_base<int, std::allocator<int>>::_Vector_impl"* %9 to %"class.std::allocator"*, !llfi_index !938
  %11 = load i64, i64* %4, align 8, !llfi_index !939
  %12 = call i32* @_ZNSt16allocator_traitsISaIiEE8allocateERS0_m(%"class.std::allocator"* nonnull align 1 dereferenceable(1) %10, i64 %11), !llfi_index !940
  br label %14, !llfi_index !941

13:                                               ; preds = %2
  br label %14, !llfi_index !942

14:                                               ; preds = %13, %8
  %15 = phi i32* [ %12, %8 ], [ null, %13 ], !llfi_index !943
  ret i32* %15, !llfi_index !944
}

; Function Attrs: mustprogress noinline nounwind uwtable
define linkonce_odr dso_local nonnull align 4 dereferenceable(4) i32* @_ZSt7forwardIRKiEOT_RNSt16remove_referenceIS2_E4typeE(i32* nonnull align 4 dereferenceable(4) %0) #3 comdat {
  %2 = alloca i32*, align 8, !llfi_index !945
  store i32* %0, i32** %2, align 8, !llfi_index !946
  %3 = load i32*, i32** %2, align 8, !llfi_index !947
  ret i32* %3, !llfi_index !948
}

; Function Attrs: mustprogress noinline nounwind uwtable
define linkonce_odr dso_local nonnull align 8 dereferenceable(8) i32** @_ZNK9__gnu_cxx17__normal_iteratorIPiSt6vectorIiSaIiEEE4baseEv(%"class.__gnu_cxx::__normal_iterator"* nonnull align 8 dereferenceable(8) %0) #3 comdat align 2 {
  %2 = alloca %"class.__gnu_cxx::__normal_iterator"*, align 8, !llfi_index !949
  store %"class.__gnu_cxx::__normal_iterator"* %0, %"class.__gnu_cxx::__normal_iterator"** %2, align 8, !llfi_index !950
  %3 = load %"class.__gnu_cxx::__normal_iterator"*, %"class.__gnu_cxx::__normal_iterator"** %2, align 8, !llfi_index !951
  %4 = getelementptr inbounds %"class.__gnu_cxx::__normal_iterator", %"class.__gnu_cxx::__normal_iterator"* %3, i32 0, i32 0, !llfi_index !952
  ret i32** %4, !llfi_index !953
}

; Function Attrs: mustprogress noinline nounwind uwtable
define linkonce_odr dso_local i32* @_ZNSt6vectorIiSaIiEE11_S_relocateEPiS2_S2_RS0_(i32* %0, i32* %1, i32* %2, %"class.std::allocator"* nonnull align 1 dereferenceable(1) %3) #3 comdat align 2 {
  %5 = alloca i32*, align 8, !llfi_index !954
  %6 = alloca i32*, align 8, !llfi_index !955
  %7 = alloca i32*, align 8, !llfi_index !956
  %8 = alloca %"class.std::allocator"*, align 8, !llfi_index !957
  %9 = alloca %"class.std::allocator", align 1, !llfi_index !958
  store i32* %0, i32** %5, align 8, !llfi_index !959
  store i32* %1, i32** %6, align 8, !llfi_index !960
  store i32* %2, i32** %7, align 8, !llfi_index !961
  store %"class.std::allocator"* %3, %"class.std::allocator"** %8, align 8, !llfi_index !962
  %10 = load i32*, i32** %5, align 8, !llfi_index !963
  %11 = load i32*, i32** %6, align 8, !llfi_index !964
  %12 = load i32*, i32** %7, align 8, !llfi_index !965
  %13 = load %"class.std::allocator"*, %"class.std::allocator"** %8, align 8, !llfi_index !966
  %14 = call i32* @_ZNSt6vectorIiSaIiEE14_S_do_relocateEPiS2_S2_RS0_St17integral_constantIbLb1EE(i32* %10, i32* %11, i32* %12, %"class.std::allocator"* nonnull align 1 dereferenceable(1) %13) #2, !llfi_index !967
  ret i32* %14, !llfi_index !968
}

; Function Attrs: mustprogress noinline nounwind uwtable
define linkonce_odr dso_local i32* @_ZNSt6vectorIiSaIiEE14_S_do_relocateEPiS2_S2_RS0_St17integral_constantIbLb1EE(i32* %0, i32* %1, i32* %2, %"class.std::allocator"* nonnull align 1 dereferenceable(1) %3) #3 comdat align 2 {
  %5 = alloca %"class.std::allocator", align 1, !llfi_index !969
  %6 = alloca i32*, align 8, !llfi_index !970
  %7 = alloca i32*, align 8, !llfi_index !971
  %8 = alloca i32*, align 8, !llfi_index !972
  %9 = alloca %"class.std::allocator"*, align 8, !llfi_index !973
  store i32* %0, i32** %6, align 8, !llfi_index !974
  store i32* %1, i32** %7, align 8, !llfi_index !975
  store i32* %2, i32** %8, align 8, !llfi_index !976
  store %"class.std::allocator"* %3, %"class.std::allocator"** %9, align 8, !llfi_index !977
  %10 = load i32*, i32** %6, align 8, !llfi_index !978
  %11 = load i32*, i32** %7, align 8, !llfi_index !979
  %12 = load i32*, i32** %8, align 8, !llfi_index !980
  %13 = load %"class.std::allocator"*, %"class.std::allocator"** %9, align 8, !llfi_index !981
  %14 = call i32* @_ZSt12__relocate_aIPiS0_SaIiEET0_T_S3_S2_RT1_(i32* %10, i32* %11, i32* %12, %"class.std::allocator"* nonnull align 1 dereferenceable(1) %13) #2, !llfi_index !982
  ret i32* %14, !llfi_index !983
}

; Function Attrs: mustprogress noinline nounwind uwtable
define linkonce_odr dso_local i32* @_ZSt12__relocate_aIPiS0_SaIiEET0_T_S3_S2_RT1_(i32* %0, i32* %1, i32* %2, %"class.std::allocator"* nonnull align 1 dereferenceable(1) %3) #3 comdat {
  %5 = alloca i32*, align 8, !llfi_index !984
  %6 = alloca i32*, align 8, !llfi_index !985
  %7 = alloca i32*, align 8, !llfi_index !986
  %8 = alloca %"class.std::allocator"*, align 8, !llfi_index !987
  store i32* %0, i32** %5, align 8, !llfi_index !988
  store i32* %1, i32** %6, align 8, !llfi_index !989
  store i32* %2, i32** %7, align 8, !llfi_index !990
  store %"class.std::allocator"* %3, %"class.std::allocator"** %8, align 8, !llfi_index !991
  %9 = load i32*, i32** %5, align 8, !llfi_index !992
  %10 = call i32* @_ZSt12__niter_baseIPiET_S1_(i32* %9) #2, !llfi_index !993
  %11 = load i32*, i32** %6, align 8, !llfi_index !994
  %12 = call i32* @_ZSt12__niter_baseIPiET_S1_(i32* %11) #2, !llfi_index !995
  %13 = load i32*, i32** %7, align 8, !llfi_index !996
  %14 = call i32* @_ZSt12__niter_baseIPiET_S1_(i32* %13) #2, !llfi_index !997
  %15 = load %"class.std::allocator"*, %"class.std::allocator"** %8, align 8, !llfi_index !998
  %16 = call i32* @_ZSt14__relocate_a_1IiiENSt9enable_ifIXsr3std24__is_bitwise_relocatableIT_EE5valueEPS1_E4typeES2_S2_S2_RSaIT0_E(i32* %10, i32* %12, i32* %14, %"class.std::allocator"* nonnull align 1 dereferenceable(1) %15) #2, !llfi_index !999
  ret i32* %16, !llfi_index !1000
}

; Function Attrs: mustprogress noinline nounwind uwtable
define linkonce_odr dso_local i32* @_ZSt12__niter_baseIPiET_S1_(i32* %0) #3 comdat {
  %2 = alloca i32*, align 8, !llfi_index !1001
  store i32* %0, i32** %2, align 8, !llfi_index !1002
  %3 = load i32*, i32** %2, align 8, !llfi_index !1003
  ret i32* %3, !llfi_index !1004
}

; Function Attrs: mustprogress noinline nounwind uwtable
define linkonce_odr dso_local i32* @_ZSt14__relocate_a_1IiiENSt9enable_ifIXsr3std24__is_bitwise_relocatableIT_EE5valueEPS1_E4typeES2_S2_S2_RSaIT0_E(i32* %0, i32* %1, i32* %2, %"class.std::allocator"* nonnull align 1 dereferenceable(1) %3) #3 comdat {
  %5 = alloca i32*, align 8, !llfi_index !1005
  %6 = alloca i32*, align 8, !llfi_index !1006
  %7 = alloca i32*, align 8, !llfi_index !1007
  %8 = alloca %"class.std::allocator"*, align 8, !llfi_index !1008
  %9 = alloca i64, align 8, !llfi_index !1009
  store i32* %0, i32** %5, align 8, !llfi_index !1010
  store i32* %1, i32** %6, align 8, !llfi_index !1011
  store i32* %2, i32** %7, align 8, !llfi_index !1012
  store %"class.std::allocator"* %3, %"class.std::allocator"** %8, align 8, !llfi_index !1013
  %10 = load i32*, i32** %6, align 8, !llfi_index !1014
  %11 = load i32*, i32** %5, align 8, !llfi_index !1015
  %12 = ptrtoint i32* %10 to i64, !llfi_index !1016
  %13 = ptrtoint i32* %11 to i64, !llfi_index !1017
  %14 = sub i64 %12, %13, !llfi_index !1018
  %15 = sdiv exact i64 %14, 4, !llfi_index !1019
  store i64 %15, i64* %9, align 8, !llfi_index !1020
  %16 = load i64, i64* %9, align 8, !llfi_index !1021
  %17 = icmp sgt i64 %16, 0, !llfi_index !1022
  br i1 %17, label %18, label %25, !llfi_index !1023

18:                                               ; preds = %4
  %19 = load i32*, i32** %7, align 8, !llfi_index !1024
  %20 = bitcast i32* %19 to i8*, !llfi_index !1025
  %21 = load i32*, i32** %5, align 8, !llfi_index !1026
  %22 = bitcast i32* %21 to i8*, !llfi_index !1027
  %23 = load i64, i64* %9, align 8, !llfi_index !1028
  %24 = mul i64 %23, 4, !llfi_index !1029
  call void @llvm.memmove.p0i8.p0i8.i64(i8* align 4 %20, i8* align 4 %22, i64 %24, i1 false), !llfi_index !1030
  br label %25, !llfi_index !1031

25:                                               ; preds = %18, %4
  %26 = load i32*, i32** %7, align 8, !llfi_index !1032
  %27 = load i64, i64* %9, align 8, !llfi_index !1033
  %28 = getelementptr inbounds i32, i32* %26, i64 %27, !llfi_index !1034
  ret i32* %28, !llfi_index !1035
}

; Function Attrs: argmemonly nofree nounwind willreturn
declare void @llvm.memmove.p0i8.p0i8.i64(i8* nocapture writeonly, i8* nocapture readonly, i64, i1 immarg) #10

; Function Attrs: mustprogress noinline uwtable
define linkonce_odr dso_local i32* @_ZNSt16allocator_traitsISaIiEE8allocateERS0_m(%"class.std::allocator"* nonnull align 1 dereferenceable(1) %0, i64 %1) #4 comdat align 2 {
  %3 = alloca %"class.std::allocator"*, align 8, !llfi_index !1036
  %4 = alloca i64, align 8, !llfi_index !1037
  store %"class.std::allocator"* %0, %"class.std::allocator"** %3, align 8, !llfi_index !1038
  store i64 %1, i64* %4, align 8, !llfi_index !1039
  %5 = load %"class.std::allocator"*, %"class.std::allocator"** %3, align 8, !llfi_index !1040
  %6 = bitcast %"class.std::allocator"* %5 to %"class.std::allocator"*, !llfi_index !1041
  %7 = load i64, i64* %4, align 8, !llfi_index !1042
  %8 = call i32* @_ZN9__gnu_cxx13new_allocatorIiE8allocateEmPKv(%"class.std::allocator"* nonnull align 1 dereferenceable(1) %6, i64 %7, i8* null), !llfi_index !1043
  ret i32* %8, !llfi_index !1044
}

; Function Attrs: mustprogress noinline uwtable
define linkonce_odr dso_local i32* @_ZN9__gnu_cxx13new_allocatorIiE8allocateEmPKv(%"class.std::allocator"* nonnull align 1 dereferenceable(1) %0, i64 %1, i8* %2) #4 comdat align 2 {
  %4 = alloca %"class.std::allocator"*, align 8, !llfi_index !1045
  %5 = alloca i64, align 8, !llfi_index !1046
  %6 = alloca i8*, align 8, !llfi_index !1047
  store %"class.std::allocator"* %0, %"class.std::allocator"** %4, align 8, !llfi_index !1048
  store i64 %1, i64* %5, align 8, !llfi_index !1049
  store i8* %2, i8** %6, align 8, !llfi_index !1050
  %7 = load %"class.std::allocator"*, %"class.std::allocator"** %4, align 8, !llfi_index !1051
  %8 = load i64, i64* %5, align 8, !llfi_index !1052
  %9 = call i64 @_ZNK9__gnu_cxx13new_allocatorIiE8max_sizeEv(%"class.std::allocator"* nonnull align 1 dereferenceable(1) %7) #2, !llfi_index !1053
  %10 = icmp ugt i64 %8, %9, !llfi_index !1054
  br i1 %10, label %11, label %12, !llfi_index !1055

11:                                               ; preds = %3
  call void @_ZSt17__throw_bad_allocv() #14, !llfi_index !1056
  unreachable, !llfi_index !1057

12:                                               ; preds = %3
  %13 = load i64, i64* %5, align 8, !llfi_index !1058
  %14 = mul i64 %13, 4, !llfi_index !1059
  %15 = call noalias nonnull i8* @_Znwm(i64 %14) #15, !llfi_index !1060
  %16 = bitcast i8* %15 to i32*, !llfi_index !1061
  ret i32* %16, !llfi_index !1062
}

; Function Attrs: mustprogress noinline nounwind uwtable
define linkonce_odr dso_local i64 @_ZNK9__gnu_cxx13new_allocatorIiE8max_sizeEv(%"class.std::allocator"* nonnull align 1 dereferenceable(1) %0) #3 comdat align 2 {
  %2 = alloca %"class.std::allocator"*, align 8, !llfi_index !1063
  store %"class.std::allocator"* %0, %"class.std::allocator"** %2, align 8, !llfi_index !1064
  %3 = load %"class.std::allocator"*, %"class.std::allocator"** %2, align 8, !llfi_index !1065
  ret i64 2305843009213693951, !llfi_index !1066
}

; Function Attrs: noreturn
declare dso_local void @_ZSt17__throw_bad_allocv() #11

; Function Attrs: nobuiltin allocsize(0)
declare dso_local nonnull i8* @_Znwm(i64) #12

; Function Attrs: noinline nounwind uwtable
define linkonce_odr dso_local void @_ZN9__gnu_cxx17__normal_iteratorIPiSt6vectorIiSaIiEEEC2ERKS1_(%"class.__gnu_cxx::__normal_iterator"* nonnull align 8 dereferenceable(8) %0, i32** nonnull align 8 dereferenceable(8) %1) unnamed_addr #1 comdat align 2 {
  %3 = alloca %"class.__gnu_cxx::__normal_iterator"*, align 8, !llfi_index !1067
  %4 = alloca i32**, align 8, !llfi_index !1068
  store %"class.__gnu_cxx::__normal_iterator"* %0, %"class.__gnu_cxx::__normal_iterator"** %3, align 8, !llfi_index !1069
  store i32** %1, i32*** %4, align 8, !llfi_index !1070
  %5 = load %"class.__gnu_cxx::__normal_iterator"*, %"class.__gnu_cxx::__normal_iterator"** %3, align 8, !llfi_index !1071
  %6 = getelementptr inbounds %"class.__gnu_cxx::__normal_iterator", %"class.__gnu_cxx::__normal_iterator"* %5, i32 0, i32 0, !llfi_index !1072
  %7 = load i32**, i32*** %4, align 8, !llfi_index !1073
  %8 = load i32*, i32** %7, align 8, !llfi_index !1074
  store i32* %8, i32** %6, align 8, !llfi_index !1075
  ret void, !llfi_index !1076
}

; Function Attrs: mustprogress noinline nounwind uwtable
define linkonce_odr dso_local i64 @_ZNKSt6vectorIiSaIiEE8max_sizeEv(%"class.std::vector"* nonnull align 8 dereferenceable(24) %0) #3 comdat align 2 {
  %2 = alloca %"class.std::vector"*, align 8, !llfi_index !1077
  store %"class.std::vector"* %0, %"class.std::vector"** %2, align 8, !llfi_index !1078
  %3 = load %"class.std::vector"*, %"class.std::vector"** %2, align 8, !llfi_index !1079
  %4 = bitcast %"class.std::vector"* %3 to %"struct.std::_Vector_base"*, !llfi_index !1080
  %5 = call nonnull align 1 dereferenceable(1) %"class.std::allocator"* @_ZNKSt12_Vector_baseIiSaIiEE19_M_get_Tp_allocatorEv(%"struct.std::_Vector_base"* nonnull align 8 dereferenceable(24) %4) #2, !llfi_index !1081
  %6 = call i64 @_ZNSt6vectorIiSaIiEE11_S_max_sizeERKS0_(%"class.std::allocator"* nonnull align 1 dereferenceable(1) %5) #2, !llfi_index !1082
  ret i64 %6, !llfi_index !1083
}

; Function Attrs: noreturn
declare dso_local void @_ZSt20__throw_length_errorPKc(i8*) #11

; Function Attrs: mustprogress noinline nounwind uwtable
define linkonce_odr dso_local nonnull align 8 dereferenceable(8) i64* @_ZSt3maxImERKT_S2_S2_(i64* nonnull align 8 dereferenceable(8) %0, i64* nonnull align 8 dereferenceable(8) %1) #3 comdat {
  %3 = alloca i64*, align 8, !llfi_index !1084
  %4 = alloca i64*, align 8, !llfi_index !1085
  %5 = alloca i64*, align 8, !llfi_index !1086
  store i64* %0, i64** %4, align 8, !llfi_index !1087
  store i64* %1, i64** %5, align 8, !llfi_index !1088
  %6 = load i64*, i64** %4, align 8, !llfi_index !1089
  %7 = load i64, i64* %6, align 8, !llfi_index !1090
  %8 = load i64*, i64** %5, align 8, !llfi_index !1091
  %9 = load i64, i64* %8, align 8, !llfi_index !1092
  %10 = icmp ult i64 %7, %9, !llfi_index !1093
  br i1 %10, label %11, label %13, !llfi_index !1094

11:                                               ; preds = %2
  %12 = load i64*, i64** %5, align 8, !llfi_index !1095
  store i64* %12, i64** %3, align 8, !llfi_index !1096
  br label %15, !llfi_index !1097

13:                                               ; preds = %2
  %14 = load i64*, i64** %4, align 8, !llfi_index !1098
  store i64* %14, i64** %3, align 8, !llfi_index !1099
  br label %15, !llfi_index !1100

15:                                               ; preds = %13, %11
  %16 = load i64*, i64** %3, align 8, !llfi_index !1101
  ret i64* %16, !llfi_index !1102
}

; Function Attrs: mustprogress noinline nounwind uwtable
define linkonce_odr dso_local nonnull align 1 dereferenceable(1) %"class.std::allocator"* @_ZNKSt12_Vector_baseIiSaIiEE19_M_get_Tp_allocatorEv(%"struct.std::_Vector_base"* nonnull align 8 dereferenceable(24) %0) #3 comdat align 2 {
  %2 = alloca %"struct.std::_Vector_base"*, align 8, !llfi_index !1103
  store %"struct.std::_Vector_base"* %0, %"struct.std::_Vector_base"** %2, align 8, !llfi_index !1104
  %3 = load %"struct.std::_Vector_base"*, %"struct.std::_Vector_base"** %2, align 8, !llfi_index !1105
  %4 = getelementptr inbounds %"struct.std::_Vector_base", %"struct.std::_Vector_base"* %3, i32 0, i32 0, !llfi_index !1106
  %5 = bitcast %"struct.std::_Vector_base<int, std::allocator<int>>::_Vector_impl"* %4 to %"class.std::allocator"*, !llfi_index !1107
  ret %"class.std::allocator"* %5, !llfi_index !1108
}

; Function Attrs: mustprogress noinline nounwind uwtable
define linkonce_odr dso_local i64 @_ZNSt6vectorIiSaIiEE11_S_max_sizeERKS0_(%"class.std::allocator"* nonnull align 1 dereferenceable(1) %0) #3 comdat align 2 personality i8* bitcast (i32 (...)* @__gxx_personality_v0 to i8*) {
  %2 = alloca %"class.std::allocator"*, align 8, !llfi_index !1109
  %3 = alloca i64, align 8, !llfi_index !1110
  %4 = alloca i64, align 8, !llfi_index !1111
  store %"class.std::allocator"* %0, %"class.std::allocator"** %2, align 8, !llfi_index !1112
  store i64 2305843009213693951, i64* %3, align 8, !llfi_index !1113
  %5 = load %"class.std::allocator"*, %"class.std::allocator"** %2, align 8, !llfi_index !1114
  %6 = call i64 @_ZNSt16allocator_traitsISaIiEE8max_sizeERKS0_(%"class.std::allocator"* nonnull align 1 dereferenceable(1) %5) #2, !llfi_index !1115
  store i64 %6, i64* %4, align 8, !llfi_index !1116
  %7 = invoke nonnull align 8 dereferenceable(8) i64* @_ZSt3minImERKT_S2_S2_(i64* nonnull align 8 dereferenceable(8) %3, i64* nonnull align 8 dereferenceable(8) %4)
          to label %8 unwind label %10, !llfi_index !1117

8:                                                ; preds = %1
  %9 = load i64, i64* %7, align 8, !llfi_index !1118
  ret i64 %9, !llfi_index !1119

10:                                               ; preds = %1
  %11 = landingpad { i8*, i32 }
          catch i8* null, !llfi_index !1120
  %12 = extractvalue { i8*, i32 } %11, 0, !llfi_index !1121
  call void @__clang_call_terminate(i8* %12) #13, !llfi_index !1122
  unreachable, !llfi_index !1123
}

; Function Attrs: mustprogress noinline nounwind uwtable
define linkonce_odr dso_local i64 @_ZNSt16allocator_traitsISaIiEE8max_sizeERKS0_(%"class.std::allocator"* nonnull align 1 dereferenceable(1) %0) #3 comdat align 2 {
  %2 = alloca %"class.std::allocator"*, align 8, !llfi_index !1124
  store %"class.std::allocator"* %0, %"class.std::allocator"** %2, align 8, !llfi_index !1125
  %3 = load %"class.std::allocator"*, %"class.std::allocator"** %2, align 8, !llfi_index !1126
  %4 = bitcast %"class.std::allocator"* %3 to %"class.std::allocator"*, !llfi_index !1127
  %5 = call i64 @_ZNK9__gnu_cxx13new_allocatorIiE8max_sizeEv(%"class.std::allocator"* nonnull align 1 dereferenceable(1) %4) #2, !llfi_index !1128
  ret i64 %5, !llfi_index !1129
}

; Function Attrs: mustprogress noinline nounwind uwtable
define linkonce_odr dso_local nonnull align 8 dereferenceable(8) i64* @_ZSt3minImERKT_S2_S2_(i64* nonnull align 8 dereferenceable(8) %0, i64* nonnull align 8 dereferenceable(8) %1) #3 comdat {
  %3 = alloca i64*, align 8, !llfi_index !1130
  %4 = alloca i64*, align 8, !llfi_index !1131
  %5 = alloca i64*, align 8, !llfi_index !1132
  store i64* %0, i64** %4, align 8, !llfi_index !1133
  store i64* %1, i64** %5, align 8, !llfi_index !1134
  %6 = load i64*, i64** %5, align 8, !llfi_index !1135
  %7 = load i64, i64* %6, align 8, !llfi_index !1136
  %8 = load i64*, i64** %4, align 8, !llfi_index !1137
  %9 = load i64, i64* %8, align 8, !llfi_index !1138
  %10 = icmp ult i64 %7, %9, !llfi_index !1139
  br i1 %10, label %11, label %13, !llfi_index !1140

11:                                               ; preds = %2
  %12 = load i64*, i64** %5, align 8, !llfi_index !1141
  store i64* %12, i64** %3, align 8, !llfi_index !1142
  br label %15, !llfi_index !1143

13:                                               ; preds = %2
  %14 = load i64*, i64** %4, align 8, !llfi_index !1144
  store i64* %14, i64** %3, align 8, !llfi_index !1145
  br label %15, !llfi_index !1146

15:                                               ; preds = %13, %11
  %16 = load i64*, i64** %3, align 8, !llfi_index !1147
  ret i64* %16, !llfi_index !1148
}

; Function Attrs: mustprogress noinline nounwind uwtable
define linkonce_odr dso_local void @_ZN9__gnu_cxx13new_allocatorIiE9constructIiJRKiEEEvPT_DpOT0_(%"class.std::allocator"* nonnull align 1 dereferenceable(1) %0, i32* %1, i32* nonnull align 4 dereferenceable(4) %2) #3 comdat align 2 {
  %4 = alloca %"class.std::allocator"*, align 8, !llfi_index !1149
  %5 = alloca i32*, align 8, !llfi_index !1150
  %6 = alloca i32*, align 8, !llfi_index !1151
  store %"class.std::allocator"* %0, %"class.std::allocator"** %4, align 8, !llfi_index !1152
  store i32* %1, i32** %5, align 8, !llfi_index !1153
  store i32* %2, i32** %6, align 8, !llfi_index !1154
  %7 = load %"class.std::allocator"*, %"class.std::allocator"** %4, align 8, !llfi_index !1155
  %8 = load i32*, i32** %5, align 8, !llfi_index !1156
  %9 = bitcast i32* %8 to i8*, !llfi_index !1157
  %10 = bitcast i8* %9 to i32*, !llfi_index !1158
  %11 = load i32*, i32** %6, align 8, !llfi_index !1159
  %12 = call nonnull align 4 dereferenceable(4) i32* @_ZSt7forwardIRKiEOT_RNSt16remove_referenceIS2_E4typeE(i32* nonnull align 4 dereferenceable(4) %11) #2, !llfi_index !1160
  %13 = load i32, i32* %12, align 4, !llfi_index !1161
  store i32 %13, i32* %10, align 4, !llfi_index !1162
  ret void, !llfi_index !1163
}

attributes #0 = { noinline uwtable "frame-pointer"="all" "min-legal-vector-width"="0" "no-trapping-math"="true" "stack-protector-buffer-size"="8" "target-cpu"="x86-64" "target-features"="+cx8,+fxsr,+mmx,+sse,+sse2,+x87" "tune-cpu"="generic" }
attributes #1 = { noinline nounwind uwtable "frame-pointer"="all" "min-legal-vector-width"="0" "no-trapping-math"="true" "stack-protector-buffer-size"="8" "target-cpu"="x86-64" "target-features"="+cx8,+fxsr,+mmx,+sse,+sse2,+x87" "tune-cpu"="generic" }
attributes #2 = { nounwind }
attributes #3 = { mustprogress noinline nounwind uwtable "frame-pointer"="all" "min-legal-vector-width"="0" "no-trapping-math"="true" "stack-protector-buffer-size"="8" "target-cpu"="x86-64" "target-features"="+cx8,+fxsr,+mmx,+sse,+sse2,+x87" "tune-cpu"="generic" }
attributes #4 = { mustprogress noinline uwtable "frame-pointer"="all" "min-legal-vector-width"="0" "no-trapping-math"="true" "stack-protector-buffer-size"="8" "target-cpu"="x86-64" "target-features"="+cx8,+fxsr,+mmx,+sse,+sse2,+x87" "tune-cpu"="generic" }
attributes #5 = { noinline noreturn nounwind }
attributes #6 = { nobuiltin nounwind "frame-pointer"="all" "no-trapping-math"="true" "stack-protector-buffer-size"="8" "target-cpu"="x86-64" "target-features"="+cx8,+fxsr,+mmx,+sse,+sse2,+x87" "tune-cpu"="generic" }
attributes #7 = { "frame-pointer"="all" "no-trapping-math"="true" "stack-protector-buffer-size"="8" "target-cpu"="x86-64" "target-features"="+cx8,+fxsr,+mmx,+sse,+sse2,+x87" "tune-cpu"="generic" }
attributes #8 = { nounwind "frame-pointer"="all" "no-trapping-math"="true" "stack-protector-buffer-size"="8" "target-cpu"="x86-64" "target-features"="+cx8,+fxsr,+mmx,+sse,+sse2,+x87" "tune-cpu"="generic" }
attributes #9 = { mustprogress noinline norecurse uwtable "frame-pointer"="all" "min-legal-vector-width"="0" "no-trapping-math"="true" "stack-protector-buffer-size"="8" "target-cpu"="x86-64" "target-features"="+cx8,+fxsr,+mmx,+sse,+sse2,+x87" "tune-cpu"="generic" }
attributes #10 = { argmemonly nofree nounwind willreturn }
attributes #11 = { noreturn "frame-pointer"="all" "no-trapping-math"="true" "stack-protector-buffer-size"="8" "target-cpu"="x86-64" "target-features"="+cx8,+fxsr,+mmx,+sse,+sse2,+x87" "tune-cpu"="generic" }
attributes #12 = { nobuiltin allocsize(0) "frame-pointer"="all" "no-trapping-math"="true" "stack-protector-buffer-size"="8" "target-cpu"="x86-64" "target-features"="+cx8,+fxsr,+mmx,+sse,+sse2,+x87" "tune-cpu"="generic" }
attributes #13 = { noreturn nounwind }
attributes #14 = { noreturn }
attributes #15 = { allocsize(0) }

!llvm.ident = !{!0}
!llvm.module.flags = !{!1, !2, !3}

!0 = !{!"clang version 13.0.0 (https://github.com/llvm/llvm-project.git d7b669b3a30345cfcdb2fde2af6f48aa4b94845d)"}
!1 = !{i32 1, !"wchar_size", i32 4}
!2 = !{i32 7, !"uwtable", i32 1}
!3 = !{i32 7, !"frame-pointer", i32 2}
!4 = !{i64 1}
!5 = !{i64 2}
!6 = !{i64 3}
!7 = !{i64 4}
!8 = !{i64 5}
!9 = !{i64 6}
!10 = !{i64 7}
!11 = !{i64 8}
!12 = !{i64 9}
!13 = !{i64 10}
!14 = !{i64 11}
!15 = !{i64 12}
!16 = !{i64 13}
!17 = !{i64 14}
!18 = !{i64 15}
!19 = !{i64 16}
!20 = !{i64 17}
!21 = !{i64 18}
!22 = !{i64 19}
!23 = !{i64 20}
!24 = !{i64 21}
!25 = !{i64 22}
!26 = !{i64 23}
!27 = !{i64 24}
!28 = !{i64 25}
!29 = !{i64 26}
!30 = !{i64 27}
!31 = !{i64 28}
!32 = !{i64 29}
!33 = !{i64 30}
!34 = !{i64 31}
!35 = !{i64 32}
!36 = !{i64 33}
!37 = !{i64 34}
!38 = !{i64 35}
!39 = !{i64 36}
!40 = !{i64 37}
!41 = !{i64 38}
!42 = !{i64 39}
!43 = !{i64 40}
!44 = !{i64 41}
!45 = !{i64 42}
!46 = !{i64 43}
!47 = !{i64 44}
!48 = !{i64 45}
!49 = !{i64 46}
!50 = !{i64 47}
!51 = !{i64 48}
!52 = !{i64 49}
!53 = !{i64 50}
!54 = !{i64 51}
!55 = !{i64 52}
!56 = !{i64 53}
!57 = !{i64 54}
!58 = !{i64 55}
!59 = !{i64 56}
!60 = !{i64 57}
!61 = !{i64 58}
!62 = !{i64 59}
!63 = !{i64 60}
!64 = !{i64 61}
!65 = !{i64 62}
!66 = !{i64 63}
!67 = !{i64 64}
!68 = !{i64 65}
!69 = !{i64 66}
!70 = !{i64 67}
!71 = !{i64 68}
!72 = !{i64 69}
!73 = !{i64 70}
!74 = !{i64 71}
!75 = !{i64 72}
!76 = !{i64 73}
!77 = !{i64 74}
!78 = !{i64 75}
!79 = !{i64 76}
!80 = !{i64 77}
!81 = !{i64 78}
!82 = !{i64 79}
!83 = !{i64 80}
!84 = !{i64 81}
!85 = !{i64 82}
!86 = !{i64 83}
!87 = !{i64 84}
!88 = !{i64 85}
!89 = !{i64 86}
!90 = !{i64 87}
!91 = !{i64 88}
!92 = !{i64 89}
!93 = !{i64 90}
!94 = !{i64 91}
!95 = !{i64 92}
!96 = !{i64 93}
!97 = !{i64 94}
!98 = !{i64 95}
!99 = !{i64 96}
!100 = !{i64 97}
!101 = !{i64 98}
!102 = !{i64 99}
!103 = !{i64 100}
!104 = !{i64 101}
!105 = !{i64 102}
!106 = !{i64 103}
!107 = !{i64 104}
!108 = !{i64 105}
!109 = !{i64 106}
!110 = !{i64 107}
!111 = !{i64 108}
!112 = !{i64 109}
!113 = !{i64 110}
!114 = !{i64 111}
!115 = !{i64 112}
!116 = !{i64 113}
!117 = !{i64 114}
!118 = !{i64 115}
!119 = !{i64 116}
!120 = !{i64 117}
!121 = !{i64 118}
!122 = !{i64 119}
!123 = !{i64 120}
!124 = !{i64 121}
!125 = !{i64 122}
!126 = !{i64 123}
!127 = !{i64 124}
!128 = !{i64 125}
!129 = !{i64 126}
!130 = !{i64 127}
!131 = !{i64 128}
!132 = !{i64 129}
!133 = !{i64 130}
!134 = !{i64 131}
!135 = !{i64 132}
!136 = !{i64 133}
!137 = !{i64 134}
!138 = !{i64 135}
!139 = !{i64 136}
!140 = !{i64 137}
!141 = !{i64 138}
!142 = !{i64 139}
!143 = !{i64 140}
!144 = !{i64 141}
!145 = !{i64 142}
!146 = !{i64 143}
!147 = !{i64 144}
!148 = !{i64 145}
!149 = !{i64 146}
!150 = !{i64 147}
!151 = !{i64 148}
!152 = !{i64 149}
!153 = !{i64 150}
!154 = !{i64 151}
!155 = !{i64 152}
!156 = !{i64 153}
!157 = !{i64 154}
!158 = !{i64 155}
!159 = !{i64 156}
!160 = !{i64 157}
!161 = !{i64 158}
!162 = !{i64 159}
!163 = !{i64 160}
!164 = !{i64 161}
!165 = !{i64 162}
!166 = !{i64 163}
!167 = !{i64 164}
!168 = !{i64 165}
!169 = !{i64 166}
!170 = !{i64 167}
!171 = !{i64 168}
!172 = !{i64 169}
!173 = !{i64 170}
!174 = !{i64 171}
!175 = !{i64 172}
!176 = !{i64 173}
!177 = !{i64 174}
!178 = !{i64 175}
!179 = !{i64 176}
!180 = !{i64 177}
!181 = !{i64 178}
!182 = !{i64 179}
!183 = !{i64 180}
!184 = !{i64 181}
!185 = !{i64 182}
!186 = !{i64 183}
!187 = !{i64 184}
!188 = !{i64 185}
!189 = !{i64 186}
!190 = !{i64 187}
!191 = !{i64 188}
!192 = !{i64 189}
!193 = !{i64 190}
!194 = !{i64 191}
!195 = !{i64 192}
!196 = !{i64 193}
!197 = !{i64 194}
!198 = !{i64 195}
!199 = !{i64 196}
!200 = !{i64 197}
!201 = !{i64 198}
!202 = !{i64 199}
!203 = !{i64 200}
!204 = !{i64 201}
!205 = !{i64 202}
!206 = !{i64 203}
!207 = !{i64 204}
!208 = !{i64 205}
!209 = !{i64 206}
!210 = !{i64 207}
!211 = !{i64 208}
!212 = !{i64 209}
!213 = !{i64 210}
!214 = !{i64 211}
!215 = !{i64 212}
!216 = !{i64 213}
!217 = !{i64 214}
!218 = !{i64 215}
!219 = !{i64 216}
!220 = !{i64 217}
!221 = !{i64 218}
!222 = !{i64 219}
!223 = !{i64 220}
!224 = !{i64 221}
!225 = !{i64 222}
!226 = !{i64 223}
!227 = !{i64 224}
!228 = !{i64 225}
!229 = !{i64 226}
!230 = !{i64 227}
!231 = !{i64 228}
!232 = !{i64 229}
!233 = !{i64 230}
!234 = !{i64 231}
!235 = !{i64 232}
!236 = !{i64 233}
!237 = !{i64 234}
!238 = !{i64 235}
!239 = !{i64 236}
!240 = !{i64 237}
!241 = !{i64 238}
!242 = !{i64 239}
!243 = !{i64 240}
!244 = !{i64 241}
!245 = !{i64 242}
!246 = !{i64 243}
!247 = !{i64 244}
!248 = !{i64 245}
!249 = !{i64 246}
!250 = !{i64 247}
!251 = !{i64 248}
!252 = !{i64 249}
!253 = !{i64 250}
!254 = !{i64 251}
!255 = !{i64 252}
!256 = !{i64 253}
!257 = !{i64 254}
!258 = !{i64 255}
!259 = !{i64 256}
!260 = !{i64 257}
!261 = !{i64 258}
!262 = !{i64 259}
!263 = !{i64 260}
!264 = !{i64 261}
!265 = !{i64 262}
!266 = !{i64 263}
!267 = !{i64 264}
!268 = !{i64 265}
!269 = !{i64 266}
!270 = !{i64 267}
!271 = !{i64 268}
!272 = !{i64 269}
!273 = !{i64 270}
!274 = !{i64 271}
!275 = !{i64 272}
!276 = !{i64 273}
!277 = !{i64 274}
!278 = !{i64 275}
!279 = !{i64 276}
!280 = !{i64 277}
!281 = !{i64 278}
!282 = !{i64 279}
!283 = !{i64 280}
!284 = !{i64 281}
!285 = !{i64 282}
!286 = !{i64 283}
!287 = !{i64 284}
!288 = !{i64 285}
!289 = !{i64 286}
!290 = !{i64 287}
!291 = !{i64 288}
!292 = !{i64 289}
!293 = !{i64 290}
!294 = !{i64 291}
!295 = !{i64 292}
!296 = !{i64 293}
!297 = !{i64 294}
!298 = !{i64 295}
!299 = !{i64 296}
!300 = !{i64 297}
!301 = !{i64 298}
!302 = !{i64 299}
!303 = !{i64 300}
!304 = !{i64 301}
!305 = !{i64 302}
!306 = !{i64 303}
!307 = !{i64 304}
!308 = !{i64 305}
!309 = !{i64 306}
!310 = !{i64 307}
!311 = !{i64 308}
!312 = !{i64 309}
!313 = !{i64 310}
!314 = !{i64 311}
!315 = !{i64 312}
!316 = !{i64 313}
!317 = !{i64 314}
!318 = !{i64 315}
!319 = !{i64 316}
!320 = !{i64 317}
!321 = !{i64 318}
!322 = !{i64 319}
!323 = !{i64 320}
!324 = !{i64 321}
!325 = !{i64 322}
!326 = !{i64 323}
!327 = !{i64 324}
!328 = !{i64 325}
!329 = !{i64 326}
!330 = !{i64 327}
!331 = !{i64 328}
!332 = !{i64 329}
!333 = !{i64 330}
!334 = !{i64 331}
!335 = !{i64 332}
!336 = !{i64 333}
!337 = !{i64 334}
!338 = !{i64 335}
!339 = !{i64 336}
!340 = !{i64 337}
!341 = !{i64 338}
!342 = !{i64 339}
!343 = !{i64 340}
!344 = !{i64 341}
!345 = !{i64 342}
!346 = !{i64 343}
!347 = !{i64 344}
!348 = !{i64 345}
!349 = !{i64 346}
!350 = !{i64 347}
!351 = !{i64 348}
!352 = !{i64 349}
!353 = !{i64 350}
!354 = !{i64 351}
!355 = !{i64 352}
!356 = !{i64 353}
!357 = !{i64 354}
!358 = !{i64 355}
!359 = !{i64 356}
!360 = !{i64 357}
!361 = !{i64 358}
!362 = !{i64 359}
!363 = !{i64 360}
!364 = !{i64 361}
!365 = !{i64 362}
!366 = !{i64 363}
!367 = !{i64 364}
!368 = !{i64 365}
!369 = !{i64 366}
!370 = !{i64 367}
!371 = !{i64 368}
!372 = !{i64 369}
!373 = !{i64 370}
!374 = !{i64 371}
!375 = !{i64 372}
!376 = !{i64 373}
!377 = !{i64 374}
!378 = !{i64 375}
!379 = !{i64 376}
!380 = !{i64 377}
!381 = !{i64 378}
!382 = !{i64 379}
!383 = !{i64 380}
!384 = !{i64 381}
!385 = !{i64 382}
!386 = !{i64 383}
!387 = !{i64 384}
!388 = !{i64 385}
!389 = !{i64 386}
!390 = !{i64 387}
!391 = !{i64 388}
!392 = !{i64 389}
!393 = !{i64 390}
!394 = !{i64 391}
!395 = !{i64 392}
!396 = !{i64 393}
!397 = !{i64 394}
!398 = !{i64 395}
!399 = !{i64 396}
!400 = !{i64 397}
!401 = !{i64 398}
!402 = !{i64 399}
!403 = !{i64 400}
!404 = !{i64 401}
!405 = !{i64 402}
!406 = !{i64 403}
!407 = !{i64 404}
!408 = !{i64 405}
!409 = !{i64 406}
!410 = !{i64 407}
!411 = !{i64 408}
!412 = !{i64 409}
!413 = !{i64 410}
!414 = !{i64 411}
!415 = !{i64 412}
!416 = !{i64 413}
!417 = !{i64 414}
!418 = !{i64 415}
!419 = !{i64 416}
!420 = !{i64 417}
!421 = !{i64 418}
!422 = !{i64 419}
!423 = !{i64 420}
!424 = !{i64 421}
!425 = !{i64 422}
!426 = !{i64 423}
!427 = !{i64 424}
!428 = !{i64 425}
!429 = !{i64 426}
!430 = !{i64 427}
!431 = !{i64 428}
!432 = !{i64 429}
!433 = !{i64 430}
!434 = !{i64 431}
!435 = !{i64 432}
!436 = !{i64 433}
!437 = !{i64 434}
!438 = !{i64 435}
!439 = !{i64 436}
!440 = !{i64 437}
!441 = !{i64 438}
!442 = !{i64 439}
!443 = !{i64 440}
!444 = !{i64 441}
!445 = !{i64 442}
!446 = !{i64 443}
!447 = !{i64 444}
!448 = !{i64 445}
!449 = !{i64 446}
!450 = !{i64 447}
!451 = !{i64 448}
!452 = !{i64 449}
!453 = !{i64 450}
!454 = !{i64 451}
!455 = !{i64 452}
!456 = !{i64 453}
!457 = !{i64 454}
!458 = !{i64 455}
!459 = !{i64 456}
!460 = !{i64 457}
!461 = !{i64 458}
!462 = !{i64 459}
!463 = !{i64 460}
!464 = !{i64 461}
!465 = !{i64 462}
!466 = !{i64 463}
!467 = !{i64 464}
!468 = !{i64 465}
!469 = !{i64 466}
!470 = !{i64 467}
!471 = !{i64 468}
!472 = !{i64 469}
!473 = !{i64 470}
!474 = !{i64 471}
!475 = !{i64 472}
!476 = !{i64 473}
!477 = !{i64 474}
!478 = !{i64 475}
!479 = !{i64 476}
!480 = !{i64 477}
!481 = !{i64 478}
!482 = !{i64 479}
!483 = !{i64 480}
!484 = !{i64 481}
!485 = !{i64 482}
!486 = !{i64 483}
!487 = !{i64 484}
!488 = !{i64 485}
!489 = !{i64 486}
!490 = !{i64 487}
!491 = !{i64 488}
!492 = !{i64 489}
!493 = !{i64 490}
!494 = !{i64 491}
!495 = !{i64 492}
!496 = !{i64 493}
!497 = !{i64 494}
!498 = !{i64 495}
!499 = !{i64 496}
!500 = !{i64 497}
!501 = distinct !{!501, !502}
!502 = !{!"llvm.loop.mustprogress"}
!503 = !{i64 498}
!504 = !{i64 499}
!505 = !{i64 500}
!506 = !{i64 501}
!507 = !{i64 502}
!508 = !{i64 503}
!509 = !{i64 504}
!510 = !{i64 505}
!511 = !{i64 506}
!512 = !{i64 507}
!513 = !{i64 508}
!514 = !{i64 509}
!515 = !{i64 510}
!516 = !{i64 511}
!517 = !{i64 512}
!518 = !{i64 513}
!519 = !{i64 514}
!520 = !{i64 515}
!521 = !{i64 516}
!522 = !{i64 517}
!523 = !{i64 518}
!524 = !{i64 519}
!525 = !{i64 520}
!526 = !{i64 521}
!527 = !{i64 522}
!528 = !{i64 523}
!529 = !{i64 524}
!530 = !{i64 525}
!531 = !{i64 526}
!532 = !{i64 527}
!533 = !{i64 528}
!534 = !{i64 529}
!535 = !{i64 530}
!536 = !{i64 531}
!537 = !{i64 532}
!538 = !{i64 533}
!539 = !{i64 534}
!540 = !{i64 535}
!541 = !{i64 536}
!542 = !{i64 537}
!543 = !{i64 538}
!544 = !{i64 539}
!545 = !{i64 540}
!546 = !{i64 541}
!547 = !{i64 542}
!548 = !{i64 543}
!549 = !{i64 544}
!550 = !{i64 545}
!551 = !{i64 546}
!552 = !{i64 547}
!553 = !{i64 548}
!554 = !{i64 549}
!555 = !{i64 550}
!556 = !{i64 551}
!557 = !{i64 552}
!558 = !{i64 553}
!559 = !{i64 554}
!560 = !{i64 555}
!561 = !{i64 556}
!562 = !{i64 557}
!563 = !{i64 558}
!564 = !{i64 559}
!565 = !{i64 560}
!566 = distinct !{!566, !502}
!567 = !{i64 561}
!568 = !{i64 562}
!569 = !{i64 563}
!570 = !{i64 564}
!571 = !{i64 565}
!572 = !{i64 566}
!573 = !{i64 567}
!574 = !{i64 568}
!575 = !{i64 569}
!576 = !{i64 570}
!577 = !{i64 571}
!578 = !{i64 572}
!579 = !{i64 573}
!580 = !{i64 574}
!581 = !{i64 575}
!582 = !{i64 576}
!583 = !{i64 577}
!584 = distinct !{!584, !502}
!585 = !{i64 578}
!586 = !{i64 579}
!587 = !{i64 580}
!588 = !{i64 581}
!589 = !{i64 582}
!590 = !{i64 583}
!591 = !{i64 584}
!592 = !{i64 585}
!593 = !{i64 586}
!594 = !{i64 587}
!595 = !{i64 588}
!596 = !{i64 589}
!597 = !{i64 590}
!598 = !{i64 591}
!599 = !{i64 592}
!600 = !{i64 593}
!601 = !{i64 594}
!602 = !{i64 595}
!603 = !{i64 596}
!604 = !{i64 597}
!605 = !{i64 598}
!606 = !{i64 599}
!607 = !{i64 600}
!608 = !{i64 601}
!609 = !{i64 602}
!610 = !{i64 603}
!611 = !{i64 604}
!612 = !{i64 605}
!613 = !{i64 606}
!614 = !{i64 607}
!615 = !{i64 608}
!616 = !{i64 609}
!617 = distinct !{!617, !502}
!618 = !{i64 610}
!619 = !{i64 611}
!620 = !{i64 612}
!621 = !{i64 613}
!622 = !{i64 614}
!623 = !{i64 615}
!624 = !{i64 616}
!625 = !{i64 617}
!626 = !{i64 618}
!627 = !{i64 619}
!628 = !{i64 620}
!629 = !{i64 621}
!630 = distinct !{!630, !502}
!631 = !{i64 622}
!632 = !{i64 623}
!633 = !{i64 624}
!634 = !{i64 625}
!635 = !{i64 626}
!636 = !{i64 627}
!637 = !{i64 628}
!638 = !{i64 629}
!639 = !{i64 630}
!640 = !{i64 631}
!641 = !{i64 632}
!642 = !{i64 633}
!643 = !{i64 634}
!644 = !{i64 635}
!645 = !{i64 636}
!646 = !{i64 637}
!647 = !{i64 638}
!648 = !{i64 639}
!649 = !{i64 640}
!650 = !{i64 641}
!651 = !{i64 642}
!652 = !{i64 643}
!653 = !{i64 644}
!654 = !{i64 645}
!655 = !{i64 646}
!656 = !{i64 647}
!657 = !{i64 648}
!658 = !{i64 649}
!659 = !{i64 650}
!660 = !{i64 651}
!661 = !{i64 652}
!662 = !{i64 653}
!663 = !{i64 654}
!664 = !{i64 655}
!665 = !{i64 656}
!666 = !{i64 657}
!667 = !{i64 658}
!668 = !{i64 659}
!669 = !{i64 660}
!670 = !{i64 661}
!671 = !{i64 662}
!672 = !{i64 663}
!673 = !{i64 664}
!674 = !{i64 665}
!675 = !{i64 666}
!676 = !{i64 667}
!677 = !{i64 668}
!678 = !{i64 669}
!679 = !{i64 670}
!680 = !{i64 671}
!681 = !{i64 672}
!682 = !{i64 673}
!683 = !{i64 674}
!684 = !{i64 675}
!685 = !{i64 676}
!686 = !{i64 677}
!687 = !{i64 678}
!688 = !{i64 679}
!689 = !{i64 680}
!690 = !{i64 681}
!691 = !{i64 682}
!692 = !{i64 683}
!693 = !{i64 684}
!694 = !{i64 685}
!695 = !{i64 686}
!696 = !{i64 687}
!697 = !{i64 688}
!698 = !{i64 689}
!699 = !{i64 690}
!700 = !{i64 691}
!701 = !{i64 692}
!702 = !{i64 693}
!703 = !{i64 694}
!704 = !{i64 695}
!705 = !{i64 696}
!706 = !{i64 697}
!707 = !{i64 698}
!708 = !{i64 699}
!709 = !{i64 700}
!710 = !{i64 701}
!711 = !{i64 702}
!712 = !{i64 703}
!713 = !{i64 704}
!714 = !{i64 705}
!715 = !{i64 706}
!716 = !{i64 707}
!717 = !{i64 708}
!718 = !{i64 709}
!719 = !{i64 710}
!720 = !{i64 711}
!721 = !{i64 712}
!722 = !{i64 713}
!723 = !{i64 714}
!724 = !{i64 715}
!725 = !{i64 716}
!726 = !{i64 717}
!727 = !{i64 718}
!728 = !{i64 719}
!729 = !{i64 720}
!730 = !{i64 721}
!731 = !{i64 722}
!732 = !{i64 723}
!733 = !{i64 724}
!734 = !{i64 725}
!735 = !{i64 726}
!736 = !{i64 727}
!737 = !{i64 728}
!738 = !{i64 729}
!739 = !{i64 730}
!740 = !{i64 731}
!741 = !{i64 732}
!742 = !{i64 733}
!743 = !{i64 734}
!744 = !{i64 735}
!745 = !{i64 736}
!746 = !{i64 737}
!747 = !{i64 738}
!748 = !{i64 739}
!749 = !{i64 740}
!750 = !{i64 741}
!751 = !{i64 742}
!752 = !{i64 743}
!753 = !{i64 744}
!754 = !{i64 745}
!755 = !{i64 746}
!756 = !{i64 747}
!757 = !{i64 748}
!758 = !{i64 749}
!759 = !{i64 750}
!760 = !{i64 751}
!761 = !{i64 752}
!762 = !{i64 753}
!763 = !{i64 754}
!764 = !{i64 755}
!765 = !{i64 756}
!766 = !{i64 757}
!767 = !{i64 758}
!768 = !{i64 759}
!769 = !{i64 760}
!770 = !{i64 761}
!771 = !{i64 762}
!772 = !{i64 763}
!773 = !{i64 764}
!774 = !{i64 765}
!775 = !{i64 766}
!776 = !{i64 767}
!777 = !{i64 768}
!778 = !{i64 769}
!779 = !{i64 770}
!780 = !{i64 771}
!781 = !{i64 772}
!782 = !{i64 773}
!783 = !{i64 774}
!784 = !{i64 775}
!785 = !{i64 776}
!786 = !{i64 777}
!787 = !{i64 778}
!788 = !{i64 779}
!789 = !{i64 780}
!790 = !{i64 781}
!791 = !{i64 782}
!792 = !{i64 783}
!793 = !{i64 784}
!794 = !{i64 785}
!795 = !{i64 786}
!796 = !{i64 787}
!797 = !{i64 788}
!798 = !{i64 789}
!799 = !{i64 790}
!800 = !{i64 791}
!801 = !{i64 792}
!802 = !{i64 793}
!803 = !{i64 794}
!804 = !{i64 795}
!805 = !{i64 796}
!806 = !{i64 797}
!807 = !{i64 798}
!808 = !{i64 799}
!809 = !{i64 800}
!810 = !{i64 801}
!811 = !{i64 802}
!812 = !{i64 803}
!813 = !{i64 804}
!814 = !{i64 805}
!815 = !{i64 806}
!816 = !{i64 807}
!817 = !{i64 808}
!818 = !{i64 809}
!819 = !{i64 810}
!820 = !{i64 811}
!821 = !{i64 812}
!822 = !{i64 813}
!823 = !{i64 814}
!824 = !{i64 815}
!825 = !{i64 816}
!826 = !{i64 817}
!827 = !{i64 818}
!828 = !{i64 819}
!829 = !{i64 820}
!830 = !{i64 821}
!831 = !{i64 822}
!832 = !{i64 823}
!833 = !{i64 824}
!834 = !{i64 825}
!835 = !{i64 826}
!836 = !{i64 827}
!837 = !{i64 828}
!838 = !{i64 829}
!839 = !{i64 830}
!840 = !{i64 831}
!841 = !{i64 832}
!842 = !{i64 833}
!843 = !{i64 834}
!844 = !{i64 835}
!845 = !{i64 836}
!846 = !{i64 837}
!847 = !{i64 838}
!848 = !{i64 839}
!849 = !{i64 840}
!850 = !{i64 841}
!851 = !{i64 842}
!852 = !{i64 843}
!853 = !{i64 844}
!854 = !{i64 845}
!855 = !{i64 846}
!856 = !{i64 847}
!857 = !{i64 848}
!858 = !{i64 849}
!859 = !{i64 850}
!860 = !{i64 851}
!861 = !{i64 852}
!862 = !{i64 853}
!863 = !{i64 854}
!864 = !{i64 855}
!865 = !{i64 856}
!866 = !{i64 857}
!867 = !{i64 858}
!868 = !{i64 859}
!869 = !{i64 860}
!870 = !{i64 861}
!871 = !{i64 862}
!872 = !{i64 863}
!873 = !{i64 864}
!874 = !{i64 865}
!875 = !{i64 866}
!876 = !{i64 867}
!877 = !{i64 868}
!878 = !{i64 869}
!879 = !{i64 870}
!880 = !{i64 871}
!881 = !{i64 872}
!882 = !{i64 873}
!883 = !{i64 874}
!884 = !{i64 875}
!885 = !{i64 876}
!886 = !{i64 877}
!887 = !{i64 878}
!888 = !{i64 879}
!889 = !{i64 880}
!890 = !{i64 881}
!891 = !{i64 882}
!892 = !{i64 883}
!893 = !{i64 884}
!894 = !{i64 885}
!895 = !{i64 886}
!896 = !{i64 887}
!897 = !{i64 888}
!898 = !{i64 889}
!899 = !{i64 890}
!900 = !{i64 891}
!901 = !{i64 892}
!902 = !{i64 893}
!903 = !{i64 894}
!904 = !{i64 895}
!905 = !{i64 896}
!906 = !{i64 897}
!907 = !{i64 898}
!908 = !{i64 899}
!909 = !{i64 900}
!910 = !{i64 901}
!911 = !{i64 902}
!912 = !{i64 903}
!913 = !{i64 904}
!914 = !{i64 905}
!915 = !{i64 906}
!916 = !{i64 907}
!917 = !{i64 908}
!918 = !{i64 909}
!919 = !{i64 910}
!920 = !{i64 911}
!921 = !{i64 912}
!922 = !{i64 913}
!923 = !{i64 914}
!924 = !{i64 915}
!925 = !{i64 916}
!926 = !{i64 917}
!927 = !{i64 918}
!928 = !{i64 919}
!929 = !{i64 920}
!930 = !{i64 921}
!931 = !{i64 922}
!932 = !{i64 923}
!933 = !{i64 924}
!934 = !{i64 925}
!935 = !{i64 926}
!936 = !{i64 927}
!937 = !{i64 928}
!938 = !{i64 929}
!939 = !{i64 930}
!940 = !{i64 931}
!941 = !{i64 932}
!942 = !{i64 933}
!943 = !{i64 934}
!944 = !{i64 935}
!945 = !{i64 936}
!946 = !{i64 937}
!947 = !{i64 938}
!948 = !{i64 939}
!949 = !{i64 940}
!950 = !{i64 941}
!951 = !{i64 942}
!952 = !{i64 943}
!953 = !{i64 944}
!954 = !{i64 945}
!955 = !{i64 946}
!956 = !{i64 947}
!957 = !{i64 948}
!958 = !{i64 949}
!959 = !{i64 950}
!960 = !{i64 951}
!961 = !{i64 952}
!962 = !{i64 953}
!963 = !{i64 954}
!964 = !{i64 955}
!965 = !{i64 956}
!966 = !{i64 957}
!967 = !{i64 958}
!968 = !{i64 959}
!969 = !{i64 960}
!970 = !{i64 961}
!971 = !{i64 962}
!972 = !{i64 963}
!973 = !{i64 964}
!974 = !{i64 965}
!975 = !{i64 966}
!976 = !{i64 967}
!977 = !{i64 968}
!978 = !{i64 969}
!979 = !{i64 970}
!980 = !{i64 971}
!981 = !{i64 972}
!982 = !{i64 973}
!983 = !{i64 974}
!984 = !{i64 975}
!985 = !{i64 976}
!986 = !{i64 977}
!987 = !{i64 978}
!988 = !{i64 979}
!989 = !{i64 980}
!990 = !{i64 981}
!991 = !{i64 982}
!992 = !{i64 983}
!993 = !{i64 984}
!994 = !{i64 985}
!995 = !{i64 986}
!996 = !{i64 987}
!997 = !{i64 988}
!998 = !{i64 989}
!999 = !{i64 990}
!1000 = !{i64 991}
!1001 = !{i64 992}
!1002 = !{i64 993}
!1003 = !{i64 994}
!1004 = !{i64 995}
!1005 = !{i64 996}
!1006 = !{i64 997}
!1007 = !{i64 998}
!1008 = !{i64 999}
!1009 = !{i64 1000}
!1010 = !{i64 1001}
!1011 = !{i64 1002}
!1012 = !{i64 1003}
!1013 = !{i64 1004}
!1014 = !{i64 1005}
!1015 = !{i64 1006}
!1016 = !{i64 1007}
!1017 = !{i64 1008}
!1018 = !{i64 1009}
!1019 = !{i64 1010}
!1020 = !{i64 1011}
!1021 = !{i64 1012}
!1022 = !{i64 1013}
!1023 = !{i64 1014}
!1024 = !{i64 1015}
!1025 = !{i64 1016}
!1026 = !{i64 1017}
!1027 = !{i64 1018}
!1028 = !{i64 1019}
!1029 = !{i64 1020}
!1030 = !{i64 1021}
!1031 = !{i64 1022}
!1032 = !{i64 1023}
!1033 = !{i64 1024}
!1034 = !{i64 1025}
!1035 = !{i64 1026}
!1036 = !{i64 1027}
!1037 = !{i64 1028}
!1038 = !{i64 1029}
!1039 = !{i64 1030}
!1040 = !{i64 1031}
!1041 = !{i64 1032}
!1042 = !{i64 1033}
!1043 = !{i64 1034}
!1044 = !{i64 1035}
!1045 = !{i64 1036}
!1046 = !{i64 1037}
!1047 = !{i64 1038}
!1048 = !{i64 1039}
!1049 = !{i64 1040}
!1050 = !{i64 1041}
!1051 = !{i64 1042}
!1052 = !{i64 1043}
!1053 = !{i64 1044}
!1054 = !{i64 1045}
!1055 = !{i64 1046}
!1056 = !{i64 1047}
!1057 = !{i64 1048}
!1058 = !{i64 1049}
!1059 = !{i64 1050}
!1060 = !{i64 1051}
!1061 = !{i64 1052}
!1062 = !{i64 1053}
!1063 = !{i64 1054}
!1064 = !{i64 1055}
!1065 = !{i64 1056}
!1066 = !{i64 1057}
!1067 = !{i64 1058}
!1068 = !{i64 1059}
!1069 = !{i64 1060}
!1070 = !{i64 1061}
!1071 = !{i64 1062}
!1072 = !{i64 1063}
!1073 = !{i64 1064}
!1074 = !{i64 1065}
!1075 = !{i64 1066}
!1076 = !{i64 1067}
!1077 = !{i64 1068}
!1078 = !{i64 1069}
!1079 = !{i64 1070}
!1080 = !{i64 1071}
!1081 = !{i64 1072}
!1082 = !{i64 1073}
!1083 = !{i64 1074}
!1084 = !{i64 1075}
!1085 = !{i64 1076}
!1086 = !{i64 1077}
!1087 = !{i64 1078}
!1088 = !{i64 1079}
!1089 = !{i64 1080}
!1090 = !{i64 1081}
!1091 = !{i64 1082}
!1092 = !{i64 1083}
!1093 = !{i64 1084}
!1094 = !{i64 1085}
!1095 = !{i64 1086}
!1096 = !{i64 1087}
!1097 = !{i64 1088}
!1098 = !{i64 1089}
!1099 = !{i64 1090}
!1100 = !{i64 1091}
!1101 = !{i64 1092}
!1102 = !{i64 1093}
!1103 = !{i64 1094}
!1104 = !{i64 1095}
!1105 = !{i64 1096}
!1106 = !{i64 1097}
!1107 = !{i64 1098}
!1108 = !{i64 1099}
!1109 = !{i64 1100}
!1110 = !{i64 1101}
!1111 = !{i64 1102}
!1112 = !{i64 1103}
!1113 = !{i64 1104}
!1114 = !{i64 1105}
!1115 = !{i64 1106}
!1116 = !{i64 1107}
!1117 = !{i64 1108}
!1118 = !{i64 1109}
!1119 = !{i64 1110}
!1120 = !{i64 1111}
!1121 = !{i64 1112}
!1122 = !{i64 1113}
!1123 = !{i64 1114}
!1124 = !{i64 1115}
!1125 = !{i64 1116}
!1126 = !{i64 1117}
!1127 = !{i64 1118}
!1128 = !{i64 1119}
!1129 = !{i64 1120}
!1130 = !{i64 1121}
!1131 = !{i64 1122}
!1132 = !{i64 1123}
!1133 = !{i64 1124}
!1134 = !{i64 1125}
!1135 = !{i64 1126}
!1136 = !{i64 1127}
!1137 = !{i64 1128}
!1138 = !{i64 1129}
!1139 = !{i64 1130}
!1140 = !{i64 1131}
!1141 = !{i64 1132}
!1142 = !{i64 1133}
!1143 = !{i64 1134}
!1144 = !{i64 1135}
!1145 = !{i64 1136}
!1146 = !{i64 1137}
!1147 = !{i64 1138}
!1148 = !{i64 1139}
!1149 = !{i64 1140}
!1150 = !{i64 1141}
!1151 = !{i64 1142}
!1152 = !{i64 1143}
!1153 = !{i64 1144}
!1154 = !{i64 1145}
!1155 = !{i64 1146}
!1156 = !{i64 1147}
!1157 = !{i64 1148}
!1158 = !{i64 1149}
!1159 = !{i64 1150}
!1160 = !{i64 1151}
!1161 = !{i64 1152}
!1162 = !{i64 1153}
!1163 = !{i64 1154}
