; ModuleID = '/home/hjiang/Computation-Kernel-Dataset/experiments/Fault_injection_0308_parall/O0/MinimumEdgesinaLayeredGraph/MinimumEdgesinaLayeredGraph.ll'
source_filename = "llvm-link"
target datalayout = "e-m:e-p270:32:32-p271:32:32-p272:64:64-i64:64-f80:128-n8:16:32:64-S128"
target triple = "x86_64-unknown-linux-gnu"

%"class.std::ios_base::Init" = type { i8 }
%struct._IO_FILE = type { i32, i8*, i8*, i8*, i8*, i8*, i8*, i8*, i8*, i8*, i8*, i8*, %struct._IO_marker*, %struct._IO_FILE*, i32, i32, i64, i16, i8, [1 x i8], i8*, i64, %struct._IO_codecvt*, %struct._IO_wide_data*, %struct._IO_FILE*, i8*, i64, i32, [20 x i8] }
%struct._IO_marker = type opaque
%struct._IO_codecvt = type opaque
%struct._IO_wide_data = type opaque
%"class.std::basic_istream" = type { i32 (...)**, i64, %"class.std::basic_ios" }
%"class.std::basic_ios" = type { %"class.std::ios_base", %"class.std::basic_ostream"*, i8, i8, %"class.std::basic_streambuf"*, %"class.std::ctype"*, %"class.std::num_put"*, %"class.std::num_put"* }
%"class.std::ios_base" = type { i32 (...)**, i64, i64, i32, i32, i32, %"struct.std::ios_base::_Callback_list"*, %"struct.std::ios_base::_Words", [8 x %"struct.std::ios_base::_Words"], i32, %"struct.std::ios_base::_Words"*, %"class.std::locale" }
%"struct.std::ios_base::_Callback_list" = type { %"struct.std::ios_base::_Callback_list"*, void (i32, %"class.std::ios_base"*, i32)*, i32, i32 }
%"struct.std::ios_base::_Words" = type { i8*, i64 }
%"class.std::locale" = type { %"class.std::locale::_Impl"* }
%"class.std::locale::_Impl" = type { i32, %"class.std::locale::facet"**, i64, %"class.std::locale::facet"**, i8** }
%"class.std::locale::facet" = type <{ i32 (...)**, i32, [4 x i8] }>
%"class.std::basic_ostream" = type { i32 (...)**, %"class.std::basic_ios" }
%"class.std::basic_streambuf" = type { i32 (...)**, i8*, i8*, i8*, i8*, i8*, i8*, %"class.std::locale" }
%"class.std::ctype" = type <{ %"class.std::locale::facet.base", [4 x i8], %struct.__locale_struct*, i8, [7 x i8], i32*, i32*, i16*, i8, [256 x i8], [256 x i8], i8, [6 x i8] }>
%"class.std::locale::facet.base" = type <{ i32 (...)**, i32 }>
%struct.__locale_struct = type { [13 x %struct.__locale_data*], i16*, i32*, i32*, [13 x i8*] }
%struct.__locale_data = type opaque
%"class.std::num_put" = type { %"class.std::locale::facet.base", [4 x i8] }

$_ZSt3minIiERKT_S2_S2_ = comdat any

@llvm.global_ctors = appending global [1 x { i32, void ()*, i8* }] [{ i32, void ()*, i8* } { i32 65535, void ()* @_GLOBAL__sub_I_MinimumEdgesinaLayeredGraph.cpp, i8* null }]
@_ZStL8__ioinit = internal global %"class.std::ios_base::Init" zeroinitializer, align 1
@n = dso_local global i32 0, align 4
@k = dso_local global i32 0, align 4
@dp = dso_local global [110 x [110 x [110 x i32]]] zeroinitializer, align 16
@.str = private unnamed_addr constant [43 x i8] c"../input_files/MinimumEdgesinaLayeredGraph\00", align 1
@.str.1 = private unnamed_addr constant [2 x i8] c"r\00", align 1
@stdin = external dso_local global %struct._IO_FILE*, align 8
@_ZSt3cin = external dso_local global %"class.std::basic_istream", align 8
@_ZSt4cout = external dso_local global %"class.std::basic_ostream", align 8

; Function Attrs: noinline uwtable
define internal void @_GLOBAL__sub_I_MinimumEdgesinaLayeredGraph.cpp() #0 section ".text.startup" {
  call void @__cxx_global_var_init(), !llfi_index !4
  ret void, !llfi_index !5
}

; Function Attrs: noinline uwtable
define internal void @__cxx_global_var_init() #0 section ".text.startup" {
  call void @_ZNSt8ios_base4InitC1Ev(%"class.std::ios_base::Init"* nonnull align 1 dereferenceable(1) @_ZStL8__ioinit), !llfi_index !6
  %1 = call i32 @atexit(void ()* @__dtor__ZStL8__ioinit) #2, !llfi_index !7
  ret void, !llfi_index !8
}

declare dso_local void @_ZNSt8ios_base4InitC1Ev(%"class.std::ios_base::Init"* nonnull align 1 dereferenceable(1)) unnamed_addr #1

; Function Attrs: noinline uwtable
define internal void @__dtor__ZStL8__ioinit() #0 section ".text.startup" {
  call void @_ZNSt8ios_base4InitD1Ev(%"class.std::ios_base::Init"* @_ZStL8__ioinit), !llfi_index !9
  ret void, !llfi_index !10
}

; Function Attrs: nounwind
declare dso_local i32 @atexit(void ()*) #2

; Function Attrs: nounwind
declare dso_local void @_ZNSt8ios_base4InitD1Ev(%"class.std::ios_base::Init"* nonnull align 1 dereferenceable(1)) unnamed_addr #3

; Function Attrs: mustprogress noinline norecurse uwtable
define dso_local i32 @main() #4 {
  %1 = alloca i32, align 4, !llfi_index !11
  %2 = alloca i32, align 4, !llfi_index !12
  %3 = alloca i32, align 4, !llfi_index !13
  %4 = alloca i32, align 4, !llfi_index !14
  %5 = alloca i32, align 4, !llfi_index !15
  %6 = alloca i32, align 4, !llfi_index !16
  %7 = alloca i32, align 4, !llfi_index !17
  %8 = alloca i32, align 4, !llfi_index !18
  %9 = alloca i32, align 4, !llfi_index !19
  %10 = alloca i32, align 4, !llfi_index !20
  store i32 0, i32* %1, align 4, !llfi_index !21
  %11 = load %struct._IO_FILE*, %struct._IO_FILE** @stdin, align 8, !llfi_index !22
  %12 = call %struct._IO_FILE* @freopen(i8* getelementptr inbounds ([43 x i8], [43 x i8]* @.str, i64 0, i64 0), i8* getelementptr inbounds ([2 x i8], [2 x i8]* @.str.1, i64 0, i64 0), %struct._IO_FILE* %11), !llfi_index !23
  %13 = call nonnull align 8 dereferenceable(16) %"class.std::basic_istream"* @_ZNSirsERi(%"class.std::basic_istream"* nonnull align 8 dereferenceable(16) @_ZSt3cin, i32* nonnull align 4 dereferenceable(4) @n), !llfi_index !24
  %14 = call nonnull align 8 dereferenceable(16) %"class.std::basic_istream"* @_ZNSirsERi(%"class.std::basic_istream"* nonnull align 8 dereferenceable(16) @_ZSt3cin, i32* nonnull align 4 dereferenceable(4) @k), !llfi_index !25
  call void @llvm.memset.p0i8.i64(i8* align 16 bitcast ([110 x [110 x [110 x i32]]]* @dp to i8*), i8 63, i64 5324000, i1 false), !llfi_index !26
  store i32 0, i32* getelementptr inbounds ([110 x [110 x [110 x i32]]], [110 x [110 x [110 x i32]]]* @dp, i64 0, i64 1, i64 1, i64 1), align 4, !llfi_index !27
  store i32 89, i32* %2, align 4, !llfi_index !28
  store i32 2, i32* %3, align 4, !llfi_index !29
  br label %15, !llfi_index !30

15:                                               ; preds = %85, %0
  %16 = load i32, i32* %3, align 4, !llfi_index !31
  %17 = load i32, i32* @k, align 4, !llfi_index !32
  %18 = sub nsw i32 %17, 1, !llfi_index !33
  %19 = icmp sle i32 %16, %18, !llfi_index !34
  br i1 %19, label %20, label %88, !llfi_index !35

20:                                               ; preds = %15
  store i32 89, i32* %2, align 4, !llfi_index !36
  store i32 1, i32* %4, align 4, !llfi_index !37
  br label %21, !llfi_index !38

21:                                               ; preds = %81, %20
  %22 = load i32, i32* %4, align 4, !llfi_index !39
  %23 = load i32, i32* @n, align 4, !llfi_index !40
  %24 = icmp sle i32 %22, %23, !llfi_index !41
  br i1 %24, label %25, label %84, !llfi_index !42

25:                                               ; preds = %21
  store i32 1, i32* %5, align 4, !llfi_index !43
  br label %26, !llfi_index !44

26:                                               ; preds = %77, %25
  %27 = load i32, i32* %5, align 4, !llfi_index !45
  %28 = load i32, i32* %4, align 4, !llfi_index !46
  %29 = icmp sle i32 %27, %28, !llfi_index !47
  br i1 %29, label %30, label %80, !llfi_index !48

30:                                               ; preds = %26
  store i32 1, i32* %6, align 4, !llfi_index !49
  br label %31, !llfi_index !50

31:                                               ; preds = %73, %30
  %32 = load i32, i32* %6, align 4, !llfi_index !51
  %33 = load i32, i32* %4, align 4, !llfi_index !52
  %34 = icmp sle i32 %32, %33, !llfi_index !53
  br i1 %34, label %35, label %76, !llfi_index !54

35:                                               ; preds = %31
  %36 = load i32, i32* %3, align 4, !llfi_index !55
  %37 = sext i32 %36 to i64, !llfi_index !56
  %38 = getelementptr inbounds [110 x [110 x [110 x i32]]], [110 x [110 x [110 x i32]]]* @dp, i64 0, i64 %37, !llfi_index !57
  %39 = load i32, i32* %4, align 4, !llfi_index !58
  %40 = sext i32 %39 to i64, !llfi_index !59
  %41 = getelementptr inbounds [110 x [110 x i32]], [110 x [110 x i32]]* %38, i64 0, i64 %40, !llfi_index !60
  %42 = load i32, i32* %5, align 4, !llfi_index !61
  %43 = sext i32 %42 to i64, !llfi_index !62
  %44 = getelementptr inbounds [110 x i32], [110 x i32]* %41, i64 0, i64 %43, !llfi_index !63
  %45 = load i32, i32* %3, align 4, !llfi_index !64
  %46 = sub nsw i32 %45, 1, !llfi_index !65
  %47 = sext i32 %46 to i64, !llfi_index !66
  %48 = getelementptr inbounds [110 x [110 x [110 x i32]]], [110 x [110 x [110 x i32]]]* @dp, i64 0, i64 %47, !llfi_index !67
  %49 = load i32, i32* %4, align 4, !llfi_index !68
  %50 = load i32, i32* %5, align 4, !llfi_index !69
  %51 = sub nsw i32 %49, %50, !llfi_index !70
  %52 = sext i32 %51 to i64, !llfi_index !71
  %53 = getelementptr inbounds [110 x [110 x i32]], [110 x [110 x i32]]* %48, i64 0, i64 %52, !llfi_index !72
  %54 = load i32, i32* %6, align 4, !llfi_index !73
  %55 = sext i32 %54 to i64, !llfi_index !74
  %56 = getelementptr inbounds [110 x i32], [110 x i32]* %53, i64 0, i64 %55, !llfi_index !75
  %57 = load i32, i32* %56, align 4, !llfi_index !76
  %58 = load i32, i32* %6, align 4, !llfi_index !77
  %59 = load i32, i32* %5, align 4, !llfi_index !78
  %60 = mul nsw i32 %58, %59, !llfi_index !79
  %61 = add nsw i32 %57, %60, !llfi_index !80
  store i32 %61, i32* %7, align 4, !llfi_index !81
  %62 = call nonnull align 4 dereferenceable(4) i32* @_ZSt3minIiERKT_S2_S2_(i32* nonnull align 4 dereferenceable(4) %44, i32* nonnull align 4 dereferenceable(4) %7), !llfi_index !82
  %63 = load i32, i32* %62, align 4, !llfi_index !83
  %64 = load i32, i32* %3, align 4, !llfi_index !84
  %65 = sext i32 %64 to i64, !llfi_index !85
  %66 = getelementptr inbounds [110 x [110 x [110 x i32]]], [110 x [110 x [110 x i32]]]* @dp, i64 0, i64 %65, !llfi_index !86
  %67 = load i32, i32* %4, align 4, !llfi_index !87
  %68 = sext i32 %67 to i64, !llfi_index !88
  %69 = getelementptr inbounds [110 x [110 x i32]], [110 x [110 x i32]]* %66, i64 0, i64 %68, !llfi_index !89
  %70 = load i32, i32* %5, align 4, !llfi_index !90
  %71 = sext i32 %70 to i64, !llfi_index !91
  %72 = getelementptr inbounds [110 x i32], [110 x i32]* %69, i64 0, i64 %71, !llfi_index !92
  store i32 %63, i32* %72, align 4, !llfi_index !93
  br label %73, !llfi_index !94

73:                                               ; preds = %35
  %74 = load i32, i32* %6, align 4, !llfi_index !95
  %75 = add nsw i32 %74, 1, !llfi_index !96
  store i32 %75, i32* %6, align 4, !llfi_index !97
  br label %31, !llvm.loop !98, !llfi_index !100

76:                                               ; preds = %31
  br label %77, !llfi_index !101

77:                                               ; preds = %76
  %78 = load i32, i32* %5, align 4, !llfi_index !102
  %79 = add nsw i32 %78, 1, !llfi_index !103
  store i32 %79, i32* %5, align 4, !llfi_index !104
  br label %26, !llvm.loop !105, !llfi_index !106

80:                                               ; preds = %26
  br label %81, !llfi_index !107

81:                                               ; preds = %80
  %82 = load i32, i32* %4, align 4, !llfi_index !108
  %83 = add nsw i32 %82, 1, !llfi_index !109
  store i32 %83, i32* %4, align 4, !llfi_index !110
  br label %21, !llvm.loop !111, !llfi_index !112

84:                                               ; preds = %21
  br label %85, !llfi_index !113

85:                                               ; preds = %84
  %86 = load i32, i32* %3, align 4, !llfi_index !114
  %87 = add nsw i32 %86, 1, !llfi_index !115
  store i32 %87, i32* %3, align 4, !llfi_index !116
  br label %15, !llvm.loop !117, !llfi_index !118

88:                                               ; preds = %15
  store i32 1061109567, i32* %8, align 4, !llfi_index !119
  store i32 89, i32* %2, align 4, !llfi_index !120
  store i32 1, i32* %9, align 4, !llfi_index !121
  br label %89, !llfi_index !122

89:                                               ; preds = %111, %88
  %90 = load i32, i32* %9, align 4, !llfi_index !123
  %91 = load i32, i32* @n, align 4, !llfi_index !124
  %92 = sub nsw i32 %91, 1, !llfi_index !125
  %93 = icmp sle i32 %90, %92, !llfi_index !126
  br i1 %93, label %94, label %114, !llfi_index !127

94:                                               ; preds = %89
  %95 = load i32, i32* @k, align 4, !llfi_index !128
  %96 = sub nsw i32 %95, 1, !llfi_index !129
  %97 = sext i32 %96 to i64, !llfi_index !130
  %98 = getelementptr inbounds [110 x [110 x [110 x i32]]], [110 x [110 x [110 x i32]]]* @dp, i64 0, i64 %97, !llfi_index !131
  %99 = load i32, i32* @n, align 4, !llfi_index !132
  %100 = sub nsw i32 %99, 1, !llfi_index !133
  %101 = sext i32 %100 to i64, !llfi_index !134
  %102 = getelementptr inbounds [110 x [110 x i32]], [110 x [110 x i32]]* %98, i64 0, i64 %101, !llfi_index !135
  %103 = load i32, i32* %9, align 4, !llfi_index !136
  %104 = sext i32 %103 to i64, !llfi_index !137
  %105 = getelementptr inbounds [110 x i32], [110 x i32]* %102, i64 0, i64 %104, !llfi_index !138
  %106 = load i32, i32* %105, align 4, !llfi_index !139
  %107 = load i32, i32* %9, align 4, !llfi_index !140
  %108 = add nsw i32 %106, %107, !llfi_index !141
  store i32 %108, i32* %10, align 4, !llfi_index !142
  %109 = call nonnull align 4 dereferenceable(4) i32* @_ZSt3minIiERKT_S2_S2_(i32* nonnull align 4 dereferenceable(4) %8, i32* nonnull align 4 dereferenceable(4) %10), !llfi_index !143
  %110 = load i32, i32* %109, align 4, !llfi_index !144
  store i32 %110, i32* %8, align 4, !llfi_index !145
  br label %111, !llfi_index !146

111:                                              ; preds = %94
  %112 = load i32, i32* %9, align 4, !llfi_index !147
  %113 = add nsw i32 %112, 1, !llfi_index !148
  store i32 %113, i32* %9, align 4, !llfi_index !149
  br label %89, !llvm.loop !150, !llfi_index !151

114:                                              ; preds = %89
  %115 = load i32, i32* %8, align 4, !llfi_index !152
  %116 = icmp eq i32 %115, 1061109567, !llfi_index !153
  br i1 %116, label %117, label %118, !llfi_index !154

117:                                              ; preds = %114
  store i32 -1, i32* %8, align 4, !llfi_index !155
  br label %118, !llfi_index !156

118:                                              ; preds = %117, %114
  %119 = load i32, i32* %8, align 4, !llfi_index !157
  %120 = call nonnull align 8 dereferenceable(8) %"class.std::basic_ostream"* @_ZNSolsEi(%"class.std::basic_ostream"* nonnull align 8 dereferenceable(8) @_ZSt4cout, i32 %119), !llfi_index !158
  ret i32 0, !llfi_index !159
}

declare dso_local %struct._IO_FILE* @freopen(i8*, i8*, %struct._IO_FILE*) #1

declare dso_local nonnull align 8 dereferenceable(16) %"class.std::basic_istream"* @_ZNSirsERi(%"class.std::basic_istream"* nonnull align 8 dereferenceable(16), i32* nonnull align 4 dereferenceable(4)) #1

; Function Attrs: argmemonly nofree nounwind willreturn writeonly
declare void @llvm.memset.p0i8.i64(i8* nocapture writeonly, i8, i64, i1 immarg) #5

; Function Attrs: mustprogress noinline nounwind uwtable
define linkonce_odr dso_local nonnull align 4 dereferenceable(4) i32* @_ZSt3minIiERKT_S2_S2_(i32* nonnull align 4 dereferenceable(4) %0, i32* nonnull align 4 dereferenceable(4) %1) #6 comdat {
  %3 = alloca i32*, align 8, !llfi_index !160
  %4 = alloca i32*, align 8, !llfi_index !161
  %5 = alloca i32*, align 8, !llfi_index !162
  store i32* %0, i32** %4, align 8, !llfi_index !163
  store i32* %1, i32** %5, align 8, !llfi_index !164
  %6 = load i32*, i32** %5, align 8, !llfi_index !165
  %7 = load i32, i32* %6, align 4, !llfi_index !166
  %8 = load i32*, i32** %4, align 8, !llfi_index !167
  %9 = load i32, i32* %8, align 4, !llfi_index !168
  %10 = icmp slt i32 %7, %9, !llfi_index !169
  br i1 %10, label %11, label %13, !llfi_index !170

11:                                               ; preds = %2
  %12 = load i32*, i32** %5, align 8, !llfi_index !171
  store i32* %12, i32** %3, align 8, !llfi_index !172
  br label %15, !llfi_index !173

13:                                               ; preds = %2
  %14 = load i32*, i32** %4, align 8, !llfi_index !174
  store i32* %14, i32** %3, align 8, !llfi_index !175
  br label %15, !llfi_index !176

15:                                               ; preds = %13, %11
  %16 = load i32*, i32** %3, align 8, !llfi_index !177
  ret i32* %16, !llfi_index !178
}

declare dso_local nonnull align 8 dereferenceable(8) %"class.std::basic_ostream"* @_ZNSolsEi(%"class.std::basic_ostream"* nonnull align 8 dereferenceable(8), i32) #1

attributes #0 = { noinline uwtable "frame-pointer"="all" "min-legal-vector-width"="0" "no-trapping-math"="true" "stack-protector-buffer-size"="8" "target-cpu"="x86-64" "target-features"="+cx8,+fxsr,+mmx,+sse,+sse2,+x87" "tune-cpu"="generic" }
attributes #1 = { "frame-pointer"="all" "no-trapping-math"="true" "stack-protector-buffer-size"="8" "target-cpu"="x86-64" "target-features"="+cx8,+fxsr,+mmx,+sse,+sse2,+x87" "tune-cpu"="generic" }
attributes #2 = { nounwind }
attributes #3 = { nounwind "frame-pointer"="all" "no-trapping-math"="true" "stack-protector-buffer-size"="8" "target-cpu"="x86-64" "target-features"="+cx8,+fxsr,+mmx,+sse,+sse2,+x87" "tune-cpu"="generic" }
attributes #4 = { mustprogress noinline norecurse uwtable "frame-pointer"="all" "min-legal-vector-width"="0" "no-trapping-math"="true" "stack-protector-buffer-size"="8" "target-cpu"="x86-64" "target-features"="+cx8,+fxsr,+mmx,+sse,+sse2,+x87" "tune-cpu"="generic" }
attributes #5 = { argmemonly nofree nounwind willreturn writeonly }
attributes #6 = { mustprogress noinline nounwind uwtable "frame-pointer"="all" "min-legal-vector-width"="0" "no-trapping-math"="true" "stack-protector-buffer-size"="8" "target-cpu"="x86-64" "target-features"="+cx8,+fxsr,+mmx,+sse,+sse2,+x87" "tune-cpu"="generic" }

!llvm.ident = !{!0}
!llvm.module.flags = !{!1, !2, !3}

!0 = !{!"clang version 13.0.0 (https://github.com/llvm/llvm-project.git d7b669b3a30345cfcdb2fde2af6f48aa4b94845d)"}
!1 = !{i32 1, !"wchar_size", i32 4}
!2 = !{i32 7, !"uwtable", i32 1}
!3 = !{i32 7, !"frame-pointer", i32 2}
!4 = !{i64 1}
!5 = !{i64 2}
!6 = !{i64 3}
!7 = !{i64 4}
!8 = !{i64 5}
!9 = !{i64 6}
!10 = !{i64 7}
!11 = !{i64 8}
!12 = !{i64 9}
!13 = !{i64 10}
!14 = !{i64 11}
!15 = !{i64 12}
!16 = !{i64 13}
!17 = !{i64 14}
!18 = !{i64 15}
!19 = !{i64 16}
!20 = !{i64 17}
!21 = !{i64 18}
!22 = !{i64 19}
!23 = !{i64 20}
!24 = !{i64 21}
!25 = !{i64 22}
!26 = !{i64 23}
!27 = !{i64 24}
!28 = !{i64 25}
!29 = !{i64 26}
!30 = !{i64 27}
!31 = !{i64 28}
!32 = !{i64 29}
!33 = !{i64 30}
!34 = !{i64 31}
!35 = !{i64 32}
!36 = !{i64 33}
!37 = !{i64 34}
!38 = !{i64 35}
!39 = !{i64 36}
!40 = !{i64 37}
!41 = !{i64 38}
!42 = !{i64 39}
!43 = !{i64 40}
!44 = !{i64 41}
!45 = !{i64 42}
!46 = !{i64 43}
!47 = !{i64 44}
!48 = !{i64 45}
!49 = !{i64 46}
!50 = !{i64 47}
!51 = !{i64 48}
!52 = !{i64 49}
!53 = !{i64 50}
!54 = !{i64 51}
!55 = !{i64 52}
!56 = !{i64 53}
!57 = !{i64 54}
!58 = !{i64 55}
!59 = !{i64 56}
!60 = !{i64 57}
!61 = !{i64 58}
!62 = !{i64 59}
!63 = !{i64 60}
!64 = !{i64 61}
!65 = !{i64 62}
!66 = !{i64 63}
!67 = !{i64 64}
!68 = !{i64 65}
!69 = !{i64 66}
!70 = !{i64 67}
!71 = !{i64 68}
!72 = !{i64 69}
!73 = !{i64 70}
!74 = !{i64 71}
!75 = !{i64 72}
!76 = !{i64 73}
!77 = !{i64 74}
!78 = !{i64 75}
!79 = !{i64 76}
!80 = !{i64 77}
!81 = !{i64 78}
!82 = !{i64 79}
!83 = !{i64 80}
!84 = !{i64 81}
!85 = !{i64 82}
!86 = !{i64 83}
!87 = !{i64 84}
!88 = !{i64 85}
!89 = !{i64 86}
!90 = !{i64 87}
!91 = !{i64 88}
!92 = !{i64 89}
!93 = !{i64 90}
!94 = !{i64 91}
!95 = !{i64 92}
!96 = !{i64 93}
!97 = !{i64 94}
!98 = distinct !{!98, !99}
!99 = !{!"llvm.loop.mustprogress"}
!100 = !{i64 95}
!101 = !{i64 96}
!102 = !{i64 97}
!103 = !{i64 98}
!104 = !{i64 99}
!105 = distinct !{!105, !99}
!106 = !{i64 100}
!107 = !{i64 101}
!108 = !{i64 102}
!109 = !{i64 103}
!110 = !{i64 104}
!111 = distinct !{!111, !99}
!112 = !{i64 105}
!113 = !{i64 106}
!114 = !{i64 107}
!115 = !{i64 108}
!116 = !{i64 109}
!117 = distinct !{!117, !99}
!118 = !{i64 110}
!119 = !{i64 111}
!120 = !{i64 112}
!121 = !{i64 113}
!122 = !{i64 114}
!123 = !{i64 115}
!124 = !{i64 116}
!125 = !{i64 117}
!126 = !{i64 118}
!127 = !{i64 119}
!128 = !{i64 120}
!129 = !{i64 121}
!130 = !{i64 122}
!131 = !{i64 123}
!132 = !{i64 124}
!133 = !{i64 125}
!134 = !{i64 126}
!135 = !{i64 127}
!136 = !{i64 128}
!137 = !{i64 129}
!138 = !{i64 130}
!139 = !{i64 131}
!140 = !{i64 132}
!141 = !{i64 133}
!142 = !{i64 134}
!143 = !{i64 135}
!144 = !{i64 136}
!145 = !{i64 137}
!146 = !{i64 138}
!147 = !{i64 139}
!148 = !{i64 140}
!149 = !{i64 141}
!150 = distinct !{!150, !99}
!151 = !{i64 142}
!152 = !{i64 143}
!153 = !{i64 144}
!154 = !{i64 145}
!155 = !{i64 146}
!156 = !{i64 147}
!157 = !{i64 148}
!158 = !{i64 149}
!159 = !{i64 150}
!160 = !{i64 151}
!161 = !{i64 152}
!162 = !{i64 153}
!163 = !{i64 154}
!164 = !{i64 155}
!165 = !{i64 156}
!166 = !{i64 157}
!167 = !{i64 158}
!168 = !{i64 159}
!169 = !{i64 160}
!170 = !{i64 161}
!171 = !{i64 162}
!172 = !{i64 163}
!173 = !{i64 164}
!174 = !{i64 165}
!175 = !{i64 166}
!176 = !{i64 167}
!177 = !{i64 168}
!178 = !{i64 169}
