; ModuleID = '/home/hjiang/Computation-Kernel-Dataset/experiments/Fault_injection_0308_parall/O0/MissingNumber/MissingNumber.ll'
source_filename = "llvm-link"
target datalayout = "e-m:e-p270:32:32-p271:32:32-p272:64:64-i64:64-f80:128-n8:16:32:64-S128"
target triple = "x86_64-unknown-linux-gnu"

%"class.std::ios_base::Init" = type { i8 }
%struct._IO_FILE = type { i32, i8*, i8*, i8*, i8*, i8*, i8*, i8*, i8*, i8*, i8*, i8*, %struct._IO_marker*, %struct._IO_FILE*, i32, i32, i64, i16, i8, [1 x i8], i8*, i64, %struct._IO_codecvt*, %struct._IO_wide_data*, %struct._IO_FILE*, i8*, i64, i32, [20 x i8] }
%struct._IO_marker = type opaque
%struct._IO_codecvt = type opaque
%struct._IO_wide_data = type opaque
%"class.std::basic_istream" = type { i32 (...)**, i64, %"class.std::basic_ios" }
%"class.std::basic_ios" = type { %"class.std::ios_base", %"class.std::basic_ostream"*, i8, i8, %"class.std::basic_streambuf"*, %"class.std::ctype"*, %"class.std::num_put"*, %"class.std::num_put"* }
%"class.std::ios_base" = type { i32 (...)**, i64, i64, i32, i32, i32, %"struct.std::ios_base::_Callback_list"*, %"struct.std::ios_base::_Words", [8 x %"struct.std::ios_base::_Words"], i32, %"struct.std::ios_base::_Words"*, %"class.std::locale" }
%"struct.std::ios_base::_Callback_list" = type { %"struct.std::ios_base::_Callback_list"*, void (i32, %"class.std::ios_base"*, i32)*, i32, i32 }
%"struct.std::ios_base::_Words" = type { i8*, i64 }
%"class.std::locale" = type { %"class.std::locale::_Impl"* }
%"class.std::locale::_Impl" = type { i32, %"class.std::locale::facet"**, i64, %"class.std::locale::facet"**, i8** }
%"class.std::locale::facet" = type <{ i32 (...)**, i32, [4 x i8] }>
%"class.std::basic_ostream" = type { i32 (...)**, %"class.std::basic_ios" }
%"class.std::basic_streambuf" = type { i32 (...)**, i8*, i8*, i8*, i8*, i8*, i8*, %"class.std::locale" }
%"class.std::ctype" = type <{ %"class.std::locale::facet.base", [4 x i8], %struct.__locale_struct*, i8, [7 x i8], i32*, i32*, i16*, i8, [256 x i8], [256 x i8], i8, [6 x i8] }>
%"class.std::locale::facet.base" = type <{ i32 (...)**, i32 }>
%struct.__locale_struct = type { [13 x %struct.__locale_data*], i16*, i32*, i32*, [13 x i8*] }
%struct.__locale_data = type opaque
%"class.std::num_put" = type { %"class.std::locale::facet.base", [4 x i8] }
%"class.std::set" = type { %"class.std::_Rb_tree" }
%"class.std::_Rb_tree" = type { %"struct.std::_Rb_tree<int, int, std::_Identity<int>, std::less<int>>::_Rb_tree_impl" }
%"struct.std::_Rb_tree<int, int, std::_Identity<int>, std::less<int>>::_Rb_tree_impl" = type { %"struct.std::_Rb_tree_key_compare", %"struct.std::_Rb_tree_header" }
%"struct.std::_Rb_tree_key_compare" = type { %"class.std::ios_base::Init" }
%"struct.std::_Rb_tree_header" = type { %"struct.std::_Rb_tree_node_base", i64 }
%"struct.std::_Rb_tree_node_base" = type { i32, %"struct.std::_Rb_tree_node_base"*, %"struct.std::_Rb_tree_node_base"*, %"struct.std::_Rb_tree_node_base"* }
%"struct.std::pair" = type <{ %"struct.std::_Rb_tree_const_iterator", i8, [7 x i8] }>
%"struct.std::_Rb_tree_const_iterator" = type { %"struct.std::_Rb_tree_node_base"* }
%"class.std::ostream_iterator" = type { %"class.std::basic_ostream"*, i8* }
%"struct.std::_Rb_tree_node" = type <{ %"struct.std::_Rb_tree_node_base", %"struct.__gnu_cxx::__aligned_membuf", [4 x i8] }>
%"struct.__gnu_cxx::__aligned_membuf" = type { [4 x i8] }
%"struct.std::pair.4" = type { %"struct.std::_Rb_tree_node_base"*, %"struct.std::_Rb_tree_node_base"* }
%"struct.std::_Rb_tree<int, int, std::_Identity<int>, std::less<int>>::_Alloc_node" = type { %"class.std::_Rb_tree"* }

$_ZNSt3setIiSt4lessIiESaIiEEC2Ev = comdat any

$_ZNSt3setIiSt4lessIiESaIiEED2Ev = comdat any

$_ZSt4sortIPiEvT_S1_ = comdat any

$_ZNSt3setIiSt4lessIiESaIiEE6insertERKi = comdat any

$_ZNKSt3setIiSt4lessIiESaIiEE5beginEv = comdat any

$_ZNKSt3setIiSt4lessIiESaIiEE3endEv = comdat any

$_ZNSt16ostream_iteratorIicSt11char_traitsIcEEC2ERSoPKc = comdat any

$_ZSt4copyISt23_Rb_tree_const_iteratorIiESt16ostream_iteratorIicSt11char_traitsIcEEET0_T_S7_S6_ = comdat any

$_ZSt12__miter_baseISt23_Rb_tree_const_iteratorIiEET_S2_ = comdat any

$_ZNSt16ostream_iteratorIicSt11char_traitsIcEEC2ERKS2_ = comdat any

$_ZSt14__copy_move_a2ILb0ESt23_Rb_tree_const_iteratorIiESt16ostream_iteratorIicSt11char_traitsIcEEET1_T0_S7_S6_ = comdat any

$_ZSt12__niter_baseISt23_Rb_tree_const_iteratorIiEET_S2_ = comdat any

$_ZSt12__niter_baseISt16ostream_iteratorIicSt11char_traitsIcEEET_S4_ = comdat any

$_ZSt13__copy_move_aILb0ESt23_Rb_tree_const_iteratorIiESt16ostream_iteratorIicSt11char_traitsIcEEET1_T0_S7_S6_ = comdat any

$_ZSt12__niter_wrapISt16ostream_iteratorIicSt11char_traitsIcEEET_RKS4_S4_ = comdat any

$_ZNSt11__copy_moveILb0ELb0ESt26bidirectional_iterator_tagE8__copy_mISt23_Rb_tree_const_iteratorIiESt16ostream_iteratorIicSt11char_traitsIcEEEET0_T_SA_S9_ = comdat any

$_ZStneRKSt23_Rb_tree_const_iteratorIiES2_ = comdat any

$_ZNKSt23_Rb_tree_const_iteratorIiEdeEv = comdat any

$_ZNSt16ostream_iteratorIicSt11char_traitsIcEEdeEv = comdat any

$_ZNSt16ostream_iteratorIicSt11char_traitsIcEEaSERKi = comdat any

$_ZNSt16ostream_iteratorIicSt11char_traitsIcEEppEv = comdat any

$_ZNSt23_Rb_tree_const_iteratorIiEppEv = comdat any

$_ZNKSt13_Rb_tree_nodeIiE9_M_valptrEv = comdat any

$_ZNK9__gnu_cxx16__aligned_membufIiE6_M_ptrEv = comdat any

$_ZNK9__gnu_cxx16__aligned_membufIiE7_M_addrEv = comdat any

$_ZNKSt8_Rb_treeIiiSt9_IdentityIiESt4lessIiESaIiEE3endEv = comdat any

$_ZNSt23_Rb_tree_const_iteratorIiEC2EPKSt18_Rb_tree_node_base = comdat any

$_ZNKSt8_Rb_treeIiiSt9_IdentityIiESt4lessIiESaIiEE5beginEv = comdat any

$_ZNSt8_Rb_treeIiiSt9_IdentityIiESt4lessIiESaIiEE16_M_insert_uniqueIRKiEESt4pairISt17_Rb_tree_iteratorIiEbEOT_ = comdat any

$_ZNSt4pairISt23_Rb_tree_const_iteratorIiEbEC2IRSt17_Rb_tree_iteratorIiERbLb1EEEOT_OT0_ = comdat any

$_ZSt7forwardIRSt17_Rb_tree_iteratorIiEEOT_RNSt16remove_referenceIS3_E4typeE = comdat any

$_ZNSt23_Rb_tree_const_iteratorIiEC2ERKSt17_Rb_tree_iteratorIiE = comdat any

$_ZSt7forwardIRbEOT_RNSt16remove_referenceIS1_E4typeE = comdat any

$_ZNKSt9_IdentityIiEclERKi = comdat any

$_ZNSt8_Rb_treeIiiSt9_IdentityIiESt4lessIiESaIiEE24_M_get_insert_unique_posERKi = comdat any

$_ZNSt8_Rb_treeIiiSt9_IdentityIiESt4lessIiESaIiEE11_Alloc_nodeC2ERS5_ = comdat any

$_ZSt7forwardIRKiEOT_RNSt16remove_referenceIS2_E4typeE = comdat any

$_ZNSt8_Rb_treeIiiSt9_IdentityIiESt4lessIiESaIiEE10_M_insert_IRKiNS5_11_Alloc_nodeEEESt17_Rb_tree_iteratorIiEPSt18_Rb_tree_node_baseSD_OT_RT0_ = comdat any

$_ZNSt4pairISt17_Rb_tree_iteratorIiEbEC2IS1_bLb1EEEOT_OT0_ = comdat any

$_ZNSt17_Rb_tree_iteratorIiEC2EPSt18_Rb_tree_node_base = comdat any

$_ZSt7forwardISt17_Rb_tree_iteratorIiEEOT_RNSt16remove_referenceIS2_E4typeE = comdat any

$_ZSt7forwardIbEOT_RNSt16remove_referenceIS0_E4typeE = comdat any

$_ZNSt8_Rb_treeIiiSt9_IdentityIiESt4lessIiESaIiEE6_M_endEv = comdat any

$_ZNSt8_Rb_treeIiiSt9_IdentityIiESt4lessIiESaIiEE6_S_keyEPKSt18_Rb_tree_node_base = comdat any

$_ZNKSt4lessIiEclERKiS2_ = comdat any

$_ZNKSt8_Rb_treeIiiSt9_IdentityIiESt4lessIiESaIiEE11_Alloc_nodeclIRKiEEPSt13_Rb_tree_nodeIiEOT_ = comdat any

$_ZNSt8_Rb_treeIiiSt9_IdentityIiESt4lessIiESaIiEE14_M_create_nodeIJRKiEEEPSt13_Rb_tree_nodeIiEDpOT_ = comdat any

$_ZNSt8_Rb_treeIiiSt9_IdentityIiESt4lessIiESaIiEE11_M_get_nodeEv = comdat any

$_ZNSt8_Rb_treeIiiSt9_IdentityIiESt4lessIiESaIiEE17_M_construct_nodeIJRKiEEEvPSt13_Rb_tree_nodeIiEDpOT_ = comdat any

$_ZNSt8_Rb_treeIiiSt9_IdentityIiESt4lessIiESaIiEE21_M_get_Node_allocatorEv = comdat any

$_ZNSt13_Rb_tree_nodeIiE9_M_valptrEv = comdat any

$_ZNSt16allocator_traitsISaISt13_Rb_tree_nodeIiEEE9constructIiJRKiEEEvRS2_PT_DpOT0_ = comdat any

$_ZN9__gnu_cxx13new_allocatorISt13_Rb_tree_nodeIiEE9constructIiJRKiEEEvPT_DpOT0_ = comdat any

$_ZN9__gnu_cxx16__aligned_membufIiE6_M_ptrEv = comdat any

$_ZN9__gnu_cxx16__aligned_membufIiE7_M_addrEv = comdat any

$_ZNSt16allocator_traitsISaISt13_Rb_tree_nodeIiEEE8allocateERS2_m = comdat any

$_ZN9__gnu_cxx13new_allocatorISt13_Rb_tree_nodeIiEE8allocateEmPKv = comdat any

$_ZNK9__gnu_cxx13new_allocatorISt13_Rb_tree_nodeIiEE8max_sizeEv = comdat any

$_ZNSt8_Rb_treeIiiSt9_IdentityIiESt4lessIiESaIiEE6_S_keyEPKSt13_Rb_tree_nodeIiE = comdat any

$_ZNSt8_Rb_treeIiiSt9_IdentityIiESt4lessIiESaIiEE8_M_beginEv = comdat any

$_ZNSt8_Rb_treeIiiSt9_IdentityIiESt4lessIiESaIiEE7_S_leftEPSt18_Rb_tree_node_base = comdat any

$_ZNSt8_Rb_treeIiiSt9_IdentityIiESt4lessIiESaIiEE8_S_rightEPSt18_Rb_tree_node_base = comdat any

$_ZNSt8_Rb_treeIiiSt9_IdentityIiESt4lessIiESaIiEE5beginEv = comdat any

$_ZSteqRKSt17_Rb_tree_iteratorIiES2_ = comdat any

$_ZNSt4pairIPSt18_Rb_tree_node_baseS1_EC2IRPSt13_Rb_tree_nodeIiERS1_Lb1EEEOT_OT0_ = comdat any

$_ZNSt17_Rb_tree_iteratorIiEmmEv = comdat any

$_ZNSt4pairIPSt18_Rb_tree_node_baseS1_EC2IRS1_Lb1EEEOT_RKS1_ = comdat any

$_ZSt7forwardIRPSt18_Rb_tree_node_baseEOT_RNSt16remove_referenceIS3_E4typeE = comdat any

$_ZSt7forwardIRPSt13_Rb_tree_nodeIiEEOT_RNSt16remove_referenceIS4_E4typeE = comdat any

$_ZN9__gnu_cxx5__ops16__iter_less_iterEv = comdat any

$_ZSt6__sortIPiN9__gnu_cxx5__ops15_Iter_less_iterEEvT_S4_T0_ = comdat any

$_ZSt4__lgl = comdat any

$_ZSt16__introsort_loopIPilN9__gnu_cxx5__ops15_Iter_less_iterEEvT_S4_T0_T1_ = comdat any

$_ZSt22__final_insertion_sortIPiN9__gnu_cxx5__ops15_Iter_less_iterEEvT_S4_T0_ = comdat any

$_ZSt16__insertion_sortIPiN9__gnu_cxx5__ops15_Iter_less_iterEEvT_S4_T0_ = comdat any

$_ZSt26__unguarded_insertion_sortIPiN9__gnu_cxx5__ops15_Iter_less_iterEEvT_S4_T0_ = comdat any

$_ZN9__gnu_cxx5__ops15__val_comp_iterENS0_15_Iter_less_iterE = comdat any

$_ZSt25__unguarded_linear_insertIPiN9__gnu_cxx5__ops14_Val_less_iterEEvT_T0_ = comdat any

$_ZSt4moveIRiEONSt16remove_referenceIT_E4typeEOS2_ = comdat any

$_ZNK9__gnu_cxx5__ops14_Val_less_iterclIiPiEEbRT_T0_ = comdat any

$_ZNK9__gnu_cxx5__ops15_Iter_less_iterclIPiS3_EEbT_T0_ = comdat any

$_ZSt13move_backwardIPiS0_ET0_T_S2_S1_ = comdat any

$_ZSt12__miter_baseIPiET_S1_ = comdat any

$_ZSt23__copy_move_backward_a2ILb1EPiS0_ET1_T0_S2_S1_ = comdat any

$_ZSt12__niter_baseIPiET_S1_ = comdat any

$_ZSt22__copy_move_backward_aILb1EPiS0_ET1_T0_S2_S1_ = comdat any

$_ZSt12__niter_wrapIPiET_RKS1_S1_ = comdat any

$_ZNSt20__copy_move_backwardILb1ELb1ESt26random_access_iterator_tagE13__copy_move_bIiEEPT_PKS3_S6_S4_ = comdat any

$_ZSt14__partial_sortIPiN9__gnu_cxx5__ops15_Iter_less_iterEEvT_S4_S4_T0_ = comdat any

$_ZSt27__unguarded_partition_pivotIPiN9__gnu_cxx5__ops15_Iter_less_iterEET_S4_S4_T0_ = comdat any

$_ZSt22__move_median_to_firstIPiN9__gnu_cxx5__ops15_Iter_less_iterEEvT_S4_S4_S4_T0_ = comdat any

$_ZSt21__unguarded_partitionIPiN9__gnu_cxx5__ops15_Iter_less_iterEET_S4_S4_S4_T0_ = comdat any

$_ZSt9iter_swapIPiS0_EvT_T0_ = comdat any

$_ZSt4swapIiENSt9enable_ifIXsr6__and_ISt6__not_ISt15__is_tuple_likeIT_EESt21is_move_constructibleIS3_ESt18is_move_assignableIS3_EEE5valueEvE4typeERS3_SC_ = comdat any

$_ZSt13__heap_selectIPiN9__gnu_cxx5__ops15_Iter_less_iterEEvT_S4_S4_T0_ = comdat any

$_ZSt11__sort_heapIPiN9__gnu_cxx5__ops15_Iter_less_iterEEvT_S4_RT0_ = comdat any

$_ZSt10__pop_heapIPiN9__gnu_cxx5__ops15_Iter_less_iterEEvT_S4_S4_RT0_ = comdat any

$_ZSt13__adjust_heapIPiliN9__gnu_cxx5__ops15_Iter_less_iterEEvT_T0_S5_T1_T2_ = comdat any

$_ZSt4moveIRN9__gnu_cxx5__ops15_Iter_less_iterEEONSt16remove_referenceIT_E4typeEOS5_ = comdat any

$_ZN9__gnu_cxx5__ops14_Iter_less_valC2ENS0_15_Iter_less_iterE = comdat any

$_ZSt11__push_heapIPiliN9__gnu_cxx5__ops14_Iter_less_valEEvT_T0_S5_T1_RT2_ = comdat any

$_ZNK9__gnu_cxx5__ops14_Iter_less_valclIPiiEEbT_RT0_ = comdat any

$_ZSt11__make_heapIPiN9__gnu_cxx5__ops15_Iter_less_iterEEvT_S4_RT0_ = comdat any

$_ZNSt8_Rb_treeIiiSt9_IdentityIiESt4lessIiESaIiEED2Ev = comdat any

$_ZNSt8_Rb_treeIiiSt9_IdentityIiESt4lessIiESaIiEE8_M_eraseEPSt13_Rb_tree_nodeIiE = comdat any

$_ZNSt8_Rb_treeIiiSt9_IdentityIiESt4lessIiESaIiEE13_Rb_tree_implIS3_Lb1EED2Ev = comdat any

$__clang_call_terminate = comdat any

$_ZNSaISt13_Rb_tree_nodeIiEED2Ev = comdat any

$_ZN9__gnu_cxx13new_allocatorISt13_Rb_tree_nodeIiEED2Ev = comdat any

$_ZNSt8_Rb_treeIiiSt9_IdentityIiESt4lessIiESaIiEE12_M_drop_nodeEPSt13_Rb_tree_nodeIiE = comdat any

$_ZNSt8_Rb_treeIiiSt9_IdentityIiESt4lessIiESaIiEE15_M_destroy_nodeEPSt13_Rb_tree_nodeIiE = comdat any

$_ZNSt8_Rb_treeIiiSt9_IdentityIiESt4lessIiESaIiEE11_M_put_nodeEPSt13_Rb_tree_nodeIiE = comdat any

$_ZNSt16allocator_traitsISaISt13_Rb_tree_nodeIiEEE10deallocateERS2_PS1_m = comdat any

$_ZN9__gnu_cxx13new_allocatorISt13_Rb_tree_nodeIiEE10deallocateEPS2_m = comdat any

$_ZNSt16allocator_traitsISaISt13_Rb_tree_nodeIiEEE7destroyIiEEvRS2_PT_ = comdat any

$_ZN9__gnu_cxx13new_allocatorISt13_Rb_tree_nodeIiEE7destroyIiEEvPT_ = comdat any

$_ZNSt8_Rb_treeIiiSt9_IdentityIiESt4lessIiESaIiEEC2Ev = comdat any

$_ZNSt8_Rb_treeIiiSt9_IdentityIiESt4lessIiESaIiEE13_Rb_tree_implIS3_Lb1EEC2Ev = comdat any

$_ZNSaISt13_Rb_tree_nodeIiEEC2Ev = comdat any

$_ZNSt20_Rb_tree_key_compareISt4lessIiEEC2Ev = comdat any

$_ZNSt15_Rb_tree_headerC2Ev = comdat any

$_ZNSt15_Rb_tree_header8_M_resetEv = comdat any

$_ZN9__gnu_cxx13new_allocatorISt13_Rb_tree_nodeIiEEC2Ev = comdat any

@llvm.global_ctors = appending global [1 x { i32, void ()*, i8* }] [{ i32, void ()*, i8* } { i32 65535, void ()* @_GLOBAL__sub_I_MissingNumber.cpp, i8* null }]
@_ZStL8__ioinit = internal global %"class.std::ios_base::Init" zeroinitializer, align 1
@.str = private unnamed_addr constant [29 x i8] c"../input_files/MissingNumber\00", align 1
@.str.1 = private unnamed_addr constant [2 x i8] c"r\00", align 1
@stdin = external dso_local global %struct._IO_FILE*, align 8
@_ZSt3cin = external dso_local global %"class.std::basic_istream", align 8
@_ZSt4cout = external dso_local global %"class.std::basic_ostream", align 8
@.str.2 = private unnamed_addr constant [2 x i8] c" \00", align 1

; Function Attrs: noinline uwtable
define internal void @_GLOBAL__sub_I_MissingNumber.cpp() #0 section ".text.startup" {
  call void @__cxx_global_var_init(), !llfi_index !4
  ret void, !llfi_index !5
}

; Function Attrs: noinline uwtable
define internal void @__cxx_global_var_init() #0 section ".text.startup" {
  call void @_ZNSt8ios_base4InitC1Ev(%"class.std::ios_base::Init"* nonnull align 1 dereferenceable(1) @_ZStL8__ioinit), !llfi_index !6
  %1 = call i32 @atexit(void ()* @__dtor__ZStL8__ioinit) #2, !llfi_index !7
  ret void, !llfi_index !8
}

declare dso_local void @_ZNSt8ios_base4InitC1Ev(%"class.std::ios_base::Init"* nonnull align 1 dereferenceable(1)) unnamed_addr #1

; Function Attrs: noinline uwtable
define internal void @__dtor__ZStL8__ioinit() #0 section ".text.startup" {
  call void @_ZNSt8ios_base4InitD1Ev(%"class.std::ios_base::Init"* @_ZStL8__ioinit), !llfi_index !9
  ret void, !llfi_index !10
}

; Function Attrs: nounwind
declare dso_local i32 @atexit(void ()*) #2

; Function Attrs: nounwind
declare dso_local void @_ZNSt8ios_base4InitD1Ev(%"class.std::ios_base::Init"* nonnull align 1 dereferenceable(1)) unnamed_addr #3

; Function Attrs: mustprogress noinline norecurse uwtable
define dso_local i32 @main() #4 personality i8* bitcast (i32 (...)* @__gxx_personality_v0 to i8*) {
  %1 = alloca i32, align 4, !llfi_index !11
  %2 = alloca i32, align 4, !llfi_index !12
  %3 = alloca i32, align 4, !llfi_index !13
  %4 = alloca i32*, align 8, !llfi_index !14
  %5 = alloca i32*, align 8, !llfi_index !15
  %6 = alloca %"class.std::set", align 8, !llfi_index !16
  %7 = alloca i8*, align 8, !llfi_index !17
  %8 = alloca i32, align 4, !llfi_index !18
  %9 = alloca i32, align 4, !llfi_index !19
  %10 = alloca i32, align 4, !llfi_index !20
  %11 = alloca i32, align 4, !llfi_index !21
  %12 = alloca i32, align 4, !llfi_index !22
  %13 = alloca i32, align 4, !llfi_index !23
  %14 = alloca %"struct.std::pair", align 8, !llfi_index !24
  %15 = alloca %"struct.std::pair", align 8, !llfi_index !25
  %16 = alloca %"struct.std::pair", align 8, !llfi_index !26
  %17 = alloca %"struct.std::pair", align 8, !llfi_index !27
  %18 = alloca %"struct.std::_Rb_tree_const_iterator", align 8, !llfi_index !28
  %19 = alloca %"struct.std::_Rb_tree_const_iterator", align 8, !llfi_index !29
  %20 = alloca %"class.std::ostream_iterator", align 8, !llfi_index !30
  %21 = alloca %"class.std::ostream_iterator", align 8, !llfi_index !31
  store i32 0, i32* %1, align 4, !llfi_index !32
  %22 = load %struct._IO_FILE*, %struct._IO_FILE** @stdin, align 8, !llfi_index !33
  %23 = call %struct._IO_FILE* @freopen(i8* getelementptr inbounds ([29 x i8], [29 x i8]* @.str, i64 0, i64 0), i8* getelementptr inbounds ([2 x i8], [2 x i8]* @.str.1, i64 0, i64 0), %struct._IO_FILE* %22), !llfi_index !34
  call void @_ZNSt3setIiSt4lessIiESaIiEEC2Ev(%"class.std::set"* nonnull align 8 dereferenceable(48) %6) #2, !llfi_index !35
  %24 = invoke nonnull align 8 dereferenceable(16) %"class.std::basic_istream"* @_ZNSirsERj(%"class.std::basic_istream"* nonnull align 8 dereferenceable(16) @_ZSt3cin, i32* nonnull align 4 dereferenceable(4) %2)
          to label %25 unwind label %49, !llfi_index !36

25:                                               ; preds = %0
  %26 = load i32, i32* %2, align 4, !llfi_index !37
  %27 = zext i32 %26 to i64, !llfi_index !38
  %28 = call { i64, i1 } @llvm.umul.with.overflow.i64(i64 %27, i64 4), !llfi_index !39
  %29 = extractvalue { i64, i1 } %28, 1, !llfi_index !40
  %30 = extractvalue { i64, i1 } %28, 0, !llfi_index !41
  %31 = select i1 %29, i64 -1, i64 %30, !llfi_index !42
  %32 = invoke noalias nonnull i8* @_Znam(i64 %31) #15
          to label %33 unwind label %49, !llfi_index !43

33:                                               ; preds = %25
  %34 = bitcast i8* %32 to i32*, !llfi_index !44
  store i32* %34, i32** %4, align 8, !llfi_index !45
  store i32 89, i32* %9, align 4, !llfi_index !46
  store i32 0, i32* %10, align 4, !llfi_index !47
  br label %35, !llfi_index !48

35:                                               ; preds = %46, %33
  %36 = load i32, i32* %10, align 4, !llfi_index !49
  %37 = load i32, i32* %2, align 4, !llfi_index !50
  %38 = icmp ult i32 %36, %37, !llfi_index !51
  br i1 %38, label %39, label %53, !llfi_index !52

39:                                               ; preds = %35
  %40 = load i32*, i32** %4, align 8, !llfi_index !53
  %41 = load i32, i32* %10, align 4, !llfi_index !54
  %42 = zext i32 %41 to i64, !llfi_index !55
  %43 = getelementptr inbounds i32, i32* %40, i64 %42, !llfi_index !56
  %44 = invoke nonnull align 8 dereferenceable(16) %"class.std::basic_istream"* @_ZNSirsERi(%"class.std::basic_istream"* nonnull align 8 dereferenceable(16) @_ZSt3cin, i32* nonnull align 4 dereferenceable(4) %43)
          to label %45 unwind label %49, !llfi_index !57

45:                                               ; preds = %39
  br label %46, !llfi_index !58

46:                                               ; preds = %45
  %47 = load i32, i32* %10, align 4, !llfi_index !59
  %48 = add i32 %47, 1, !llfi_index !60
  store i32 %48, i32* %10, align 4, !llfi_index !61
  br label %35, !llvm.loop !62, !llfi_index !64

49:                                               ; preds = %218, %213, %198, %176, %153, %139, %85, %79, %69, %55, %53, %39, %25, %0
  %50 = landingpad { i8*, i32 }
          cleanup, !llfi_index !65
  %51 = extractvalue { i8*, i32 } %50, 0, !llfi_index !66
  store i8* %51, i8** %7, align 8, !llfi_index !67
  %52 = extractvalue { i8*, i32 } %50, 1, !llfi_index !68
  store i32 %52, i32* %8, align 4, !llfi_index !69
  call void @_ZNSt3setIiSt4lessIiESaIiEED2Ev(%"class.std::set"* nonnull align 8 dereferenceable(48) %6) #2, !llfi_index !70
  br label %235, !llfi_index !71

53:                                               ; preds = %35
  %54 = invoke nonnull align 8 dereferenceable(16) %"class.std::basic_istream"* @_ZNSirsERj(%"class.std::basic_istream"* nonnull align 8 dereferenceable(16) @_ZSt3cin, i32* nonnull align 4 dereferenceable(4) %3)
          to label %55 unwind label %49, !llfi_index !72

55:                                               ; preds = %53
  %56 = load i32, i32* %3, align 4, !llfi_index !73
  %57 = zext i32 %56 to i64, !llfi_index !74
  %58 = call { i64, i1 } @llvm.umul.with.overflow.i64(i64 %57, i64 4), !llfi_index !75
  %59 = extractvalue { i64, i1 } %58, 1, !llfi_index !76
  %60 = extractvalue { i64, i1 } %58, 0, !llfi_index !77
  %61 = select i1 %59, i64 -1, i64 %60, !llfi_index !78
  %62 = invoke noalias nonnull i8* @_Znam(i64 %61) #15
          to label %63 unwind label %49, !llfi_index !79

63:                                               ; preds = %55
  %64 = bitcast i8* %62 to i32*, !llfi_index !80
  store i32* %64, i32** %5, align 8, !llfi_index !81
  store i32 89, i32* %9, align 4, !llfi_index !82
  store i32 0, i32* %11, align 4, !llfi_index !83
  br label %65, !llfi_index !84

65:                                               ; preds = %76, %63
  %66 = load i32, i32* %11, align 4, !llfi_index !85
  %67 = load i32, i32* %3, align 4, !llfi_index !86
  %68 = icmp ult i32 %66, %67, !llfi_index !87
  br i1 %68, label %69, label %79, !llfi_index !88

69:                                               ; preds = %65
  %70 = load i32*, i32** %5, align 8, !llfi_index !89
  %71 = load i32, i32* %11, align 4, !llfi_index !90
  %72 = zext i32 %71 to i64, !llfi_index !91
  %73 = getelementptr inbounds i32, i32* %70, i64 %72, !llfi_index !92
  %74 = invoke nonnull align 8 dereferenceable(16) %"class.std::basic_istream"* @_ZNSirsERi(%"class.std::basic_istream"* nonnull align 8 dereferenceable(16) @_ZSt3cin, i32* nonnull align 4 dereferenceable(4) %73)
          to label %75 unwind label %49, !llfi_index !93

75:                                               ; preds = %69
  br label %76, !llfi_index !94

76:                                               ; preds = %75
  %77 = load i32, i32* %11, align 4, !llfi_index !95
  %78 = add i32 %77, 1, !llfi_index !96
  store i32 %78, i32* %11, align 4, !llfi_index !97
  br label %65, !llvm.loop !98, !llfi_index !99

79:                                               ; preds = %65
  %80 = load i32*, i32** %4, align 8, !llfi_index !100
  %81 = load i32*, i32** %4, align 8, !llfi_index !101
  %82 = load i32, i32* %2, align 4, !llfi_index !102
  %83 = zext i32 %82 to i64, !llfi_index !103
  %84 = getelementptr inbounds i32, i32* %81, i64 %83, !llfi_index !104
  invoke void @_ZSt4sortIPiEvT_S1_(i32* %80, i32* %84)
          to label %85 unwind label %49, !llfi_index !105

85:                                               ; preds = %79
  %86 = load i32*, i32** %5, align 8, !llfi_index !106
  %87 = load i32*, i32** %5, align 8, !llfi_index !107
  %88 = load i32, i32* %3, align 4, !llfi_index !108
  %89 = zext i32 %88 to i64, !llfi_index !109
  %90 = getelementptr inbounds i32, i32* %87, i64 %89, !llfi_index !110
  invoke void @_ZSt4sortIPiEvT_S1_(i32* %86, i32* %90)
          to label %91 unwind label %49, !llfi_index !111

91:                                               ; preds = %85
  store i32 0, i32* %12, align 4, !llfi_index !112
  store i32 0, i32* %13, align 4, !llfi_index !113
  store i32 89, i32* %9, align 4, !llfi_index !114
  br label %92, !llfi_index !115

92:                                               ; preds = %212, %122, %91
  %93 = load i32, i32* %12, align 4, !llfi_index !116
  %94 = load i32, i32* %2, align 4, !llfi_index !117
  %95 = icmp ult i32 %93, %94, !llfi_index !118
  br i1 %95, label %100, label %96, !llfi_index !119

96:                                               ; preds = %92
  %97 = load i32, i32* %13, align 4, !llfi_index !120
  %98 = load i32, i32* %3, align 4, !llfi_index !121
  %99 = icmp ult i32 %97, %98, !llfi_index !122
  br label %100, !llfi_index !123

100:                                              ; preds = %96, %92
  %101 = phi i1 [ true, %92 ], [ %99, %96 ], !llfi_index !124
  br i1 %101, label %102, label %213, !llfi_index !125

102:                                              ; preds = %100
  %103 = load i32, i32* %12, align 4, !llfi_index !126
  %104 = load i32, i32* %2, align 4, !llfi_index !127
  %105 = icmp ult i32 %103, %104, !llfi_index !128
  br i1 %105, label %106, label %168, !llfi_index !129

106:                                              ; preds = %102
  %107 = load i32, i32* %13, align 4, !llfi_index !130
  %108 = load i32, i32* %3, align 4, !llfi_index !131
  %109 = icmp ult i32 %107, %108, !llfi_index !132
  br i1 %109, label %110, label %168, !llfi_index !133

110:                                              ; preds = %106
  %111 = load i32*, i32** %4, align 8, !llfi_index !134
  %112 = load i32, i32* %12, align 4, !llfi_index !135
  %113 = zext i32 %112 to i64, !llfi_index !136
  %114 = getelementptr inbounds i32, i32* %111, i64 %113, !llfi_index !137
  %115 = load i32, i32* %114, align 4, !llfi_index !138
  %116 = load i32*, i32** %5, align 8, !llfi_index !139
  %117 = load i32, i32* %13, align 4, !llfi_index !140
  %118 = zext i32 %117 to i64, !llfi_index !141
  %119 = getelementptr inbounds i32, i32* %116, i64 %118, !llfi_index !142
  %120 = load i32, i32* %119, align 4, !llfi_index !143
  %121 = icmp eq i32 %115, %120, !llfi_index !144
  br i1 %121, label %122, label %127, !llfi_index !145

122:                                              ; preds = %110
  %123 = load i32, i32* %12, align 4, !llfi_index !146
  %124 = add i32 %123, 1, !llfi_index !147
  store i32 %124, i32* %12, align 4, !llfi_index !148
  %125 = load i32, i32* %13, align 4, !llfi_index !149
  %126 = add i32 %125, 1, !llfi_index !150
  store i32 %126, i32* %13, align 4, !llfi_index !151
  br label %92, !llvm.loop !152, !llfi_index !153

127:                                              ; preds = %110
  %128 = load i32*, i32** %4, align 8, !llfi_index !154
  %129 = load i32, i32* %12, align 4, !llfi_index !155
  %130 = zext i32 %129 to i64, !llfi_index !156
  %131 = getelementptr inbounds i32, i32* %128, i64 %130, !llfi_index !157
  %132 = load i32, i32* %131, align 4, !llfi_index !158
  %133 = load i32*, i32** %5, align 8, !llfi_index !159
  %134 = load i32, i32* %13, align 4, !llfi_index !160
  %135 = zext i32 %134 to i64, !llfi_index !161
  %136 = getelementptr inbounds i32, i32* %133, i64 %135, !llfi_index !162
  %137 = load i32, i32* %136, align 4, !llfi_index !163
  %138 = icmp slt i32 %132, %137, !llfi_index !164
  br i1 %138, label %139, label %153, !llfi_index !165

139:                                              ; preds = %127
  %140 = load i32*, i32** %4, align 8, !llfi_index !166
  %141 = load i32, i32* %12, align 4, !llfi_index !167
  %142 = zext i32 %141 to i64, !llfi_index !168
  %143 = getelementptr inbounds i32, i32* %140, i64 %142, !llfi_index !169
  %144 = invoke { %"struct.std::_Rb_tree_node_base"*, i8 } @_ZNSt3setIiSt4lessIiESaIiEE6insertERKi(%"class.std::set"* nonnull align 8 dereferenceable(48) %6, i32* nonnull align 4 dereferenceable(4) %143)
          to label %145 unwind label %49, !llfi_index !170

145:                                              ; preds = %139
  %146 = bitcast %"struct.std::pair"* %14 to { %"struct.std::_Rb_tree_node_base"*, i8 }*, !llfi_index !171
  %147 = getelementptr inbounds { %"struct.std::_Rb_tree_node_base"*, i8 }, { %"struct.std::_Rb_tree_node_base"*, i8 }* %146, i32 0, i32 0, !llfi_index !172
  %148 = extractvalue { %"struct.std::_Rb_tree_node_base"*, i8 } %144, 0, !llfi_index !173
  store %"struct.std::_Rb_tree_node_base"* %148, %"struct.std::_Rb_tree_node_base"** %147, align 8, !llfi_index !174
  %149 = getelementptr inbounds { %"struct.std::_Rb_tree_node_base"*, i8 }, { %"struct.std::_Rb_tree_node_base"*, i8 }* %146, i32 0, i32 1, !llfi_index !175
  %150 = extractvalue { %"struct.std::_Rb_tree_node_base"*, i8 } %144, 1, !llfi_index !176
  store i8 %150, i8* %149, align 8, !llfi_index !177
  %151 = load i32, i32* %12, align 4, !llfi_index !178
  %152 = add i32 %151, 1, !llfi_index !179
  store i32 %152, i32* %12, align 4, !llfi_index !180
  br label %167, !llfi_index !181

153:                                              ; preds = %127
  %154 = load i32*, i32** %5, align 8, !llfi_index !182
  %155 = load i32, i32* %13, align 4, !llfi_index !183
  %156 = zext i32 %155 to i64, !llfi_index !184
  %157 = getelementptr inbounds i32, i32* %154, i64 %156, !llfi_index !185
  %158 = invoke { %"struct.std::_Rb_tree_node_base"*, i8 } @_ZNSt3setIiSt4lessIiESaIiEE6insertERKi(%"class.std::set"* nonnull align 8 dereferenceable(48) %6, i32* nonnull align 4 dereferenceable(4) %157)
          to label %159 unwind label %49, !llfi_index !186

159:                                              ; preds = %153
  %160 = bitcast %"struct.std::pair"* %15 to { %"struct.std::_Rb_tree_node_base"*, i8 }*, !llfi_index !187
  %161 = getelementptr inbounds { %"struct.std::_Rb_tree_node_base"*, i8 }, { %"struct.std::_Rb_tree_node_base"*, i8 }* %160, i32 0, i32 0, !llfi_index !188
  %162 = extractvalue { %"struct.std::_Rb_tree_node_base"*, i8 } %158, 0, !llfi_index !189
  store %"struct.std::_Rb_tree_node_base"* %162, %"struct.std::_Rb_tree_node_base"** %161, align 8, !llfi_index !190
  %163 = getelementptr inbounds { %"struct.std::_Rb_tree_node_base"*, i8 }, { %"struct.std::_Rb_tree_node_base"*, i8 }* %160, i32 0, i32 1, !llfi_index !191
  %164 = extractvalue { %"struct.std::_Rb_tree_node_base"*, i8 } %158, 1, !llfi_index !192
  store i8 %164, i8* %163, align 8, !llfi_index !193
  %165 = load i32, i32* %13, align 4, !llfi_index !194
  %166 = add i32 %165, 1, !llfi_index !195
  store i32 %166, i32* %13, align 4, !llfi_index !196
  br label %167, !llfi_index !197

167:                                              ; preds = %159, %145
  br label %168, !llfi_index !198

168:                                              ; preds = %167, %106, %102
  %169 = load i32, i32* %12, align 4, !llfi_index !199
  %170 = load i32, i32* %2, align 4, !llfi_index !200
  %171 = icmp ult i32 %169, %170, !llfi_index !201
  br i1 %171, label %172, label %190, !llfi_index !202

172:                                              ; preds = %168
  %173 = load i32, i32* %13, align 4, !llfi_index !203
  %174 = load i32, i32* %3, align 4, !llfi_index !204
  %175 = icmp uge i32 %173, %174, !llfi_index !205
  br i1 %175, label %176, label %190, !llfi_index !206

176:                                              ; preds = %172
  %177 = load i32*, i32** %4, align 8, !llfi_index !207
  %178 = load i32, i32* %12, align 4, !llfi_index !208
  %179 = zext i32 %178 to i64, !llfi_index !209
  %180 = getelementptr inbounds i32, i32* %177, i64 %179, !llfi_index !210
  %181 = invoke { %"struct.std::_Rb_tree_node_base"*, i8 } @_ZNSt3setIiSt4lessIiESaIiEE6insertERKi(%"class.std::set"* nonnull align 8 dereferenceable(48) %6, i32* nonnull align 4 dereferenceable(4) %180)
          to label %182 unwind label %49, !llfi_index !211

182:                                              ; preds = %176
  %183 = bitcast %"struct.std::pair"* %16 to { %"struct.std::_Rb_tree_node_base"*, i8 }*, !llfi_index !212
  %184 = getelementptr inbounds { %"struct.std::_Rb_tree_node_base"*, i8 }, { %"struct.std::_Rb_tree_node_base"*, i8 }* %183, i32 0, i32 0, !llfi_index !213
  %185 = extractvalue { %"struct.std::_Rb_tree_node_base"*, i8 } %181, 0, !llfi_index !214
  store %"struct.std::_Rb_tree_node_base"* %185, %"struct.std::_Rb_tree_node_base"** %184, align 8, !llfi_index !215
  %186 = getelementptr inbounds { %"struct.std::_Rb_tree_node_base"*, i8 }, { %"struct.std::_Rb_tree_node_base"*, i8 }* %183, i32 0, i32 1, !llfi_index !216
  %187 = extractvalue { %"struct.std::_Rb_tree_node_base"*, i8 } %181, 1, !llfi_index !217
  store i8 %187, i8* %186, align 8, !llfi_index !218
  %188 = load i32, i32* %12, align 4, !llfi_index !219
  %189 = add i32 %188, 1, !llfi_index !220
  store i32 %189, i32* %12, align 4, !llfi_index !221
  br label %190, !llfi_index !222

190:                                              ; preds = %182, %172, %168
  %191 = load i32, i32* %12, align 4, !llfi_index !223
  %192 = load i32, i32* %2, align 4, !llfi_index !224
  %193 = icmp uge i32 %191, %192, !llfi_index !225
  br i1 %193, label %194, label %212, !llfi_index !226

194:                                              ; preds = %190
  %195 = load i32, i32* %13, align 4, !llfi_index !227
  %196 = load i32, i32* %3, align 4, !llfi_index !228
  %197 = icmp ult i32 %195, %196, !llfi_index !229
  br i1 %197, label %198, label %212, !llfi_index !230

198:                                              ; preds = %194
  %199 = load i32*, i32** %5, align 8, !llfi_index !231
  %200 = load i32, i32* %13, align 4, !llfi_index !232
  %201 = zext i32 %200 to i64, !llfi_index !233
  %202 = getelementptr inbounds i32, i32* %199, i64 %201, !llfi_index !234
  %203 = invoke { %"struct.std::_Rb_tree_node_base"*, i8 } @_ZNSt3setIiSt4lessIiESaIiEE6insertERKi(%"class.std::set"* nonnull align 8 dereferenceable(48) %6, i32* nonnull align 4 dereferenceable(4) %202)
          to label %204 unwind label %49, !llfi_index !235

204:                                              ; preds = %198
  %205 = bitcast %"struct.std::pair"* %17 to { %"struct.std::_Rb_tree_node_base"*, i8 }*, !llfi_index !236
  %206 = getelementptr inbounds { %"struct.std::_Rb_tree_node_base"*, i8 }, { %"struct.std::_Rb_tree_node_base"*, i8 }* %205, i32 0, i32 0, !llfi_index !237
  %207 = extractvalue { %"struct.std::_Rb_tree_node_base"*, i8 } %203, 0, !llfi_index !238
  store %"struct.std::_Rb_tree_node_base"* %207, %"struct.std::_Rb_tree_node_base"** %206, align 8, !llfi_index !239
  %208 = getelementptr inbounds { %"struct.std::_Rb_tree_node_base"*, i8 }, { %"struct.std::_Rb_tree_node_base"*, i8 }* %205, i32 0, i32 1, !llfi_index !240
  %209 = extractvalue { %"struct.std::_Rb_tree_node_base"*, i8 } %203, 1, !llfi_index !241
  store i8 %209, i8* %208, align 8, !llfi_index !242
  %210 = load i32, i32* %13, align 4, !llfi_index !243
  %211 = add i32 %210, 1, !llfi_index !244
  store i32 %211, i32* %13, align 4, !llfi_index !245
  br label %212, !llfi_index !246

212:                                              ; preds = %204, %194, %190
  br label %92, !llvm.loop !152, !llfi_index !247

213:                                              ; preds = %100
  %214 = call %"struct.std::_Rb_tree_node_base"* @_ZNKSt3setIiSt4lessIiESaIiEE5beginEv(%"class.std::set"* nonnull align 8 dereferenceable(48) %6) #2, !llfi_index !248
  %215 = getelementptr inbounds %"struct.std::_Rb_tree_const_iterator", %"struct.std::_Rb_tree_const_iterator"* %18, i32 0, i32 0, !llfi_index !249
  store %"struct.std::_Rb_tree_node_base"* %214, %"struct.std::_Rb_tree_node_base"** %215, align 8, !llfi_index !250
  %216 = call %"struct.std::_Rb_tree_node_base"* @_ZNKSt3setIiSt4lessIiESaIiEE3endEv(%"class.std::set"* nonnull align 8 dereferenceable(48) %6) #2, !llfi_index !251
  %217 = getelementptr inbounds %"struct.std::_Rb_tree_const_iterator", %"struct.std::_Rb_tree_const_iterator"* %19, i32 0, i32 0, !llfi_index !252
  store %"struct.std::_Rb_tree_node_base"* %216, %"struct.std::_Rb_tree_node_base"** %217, align 8, !llfi_index !253
  invoke void @_ZNSt16ostream_iteratorIicSt11char_traitsIcEEC2ERSoPKc(%"class.std::ostream_iterator"* nonnull align 8 dereferenceable(16) %20, %"class.std::basic_ostream"* nonnull align 8 dereferenceable(8) @_ZSt4cout, i8* getelementptr inbounds ([2 x i8], [2 x i8]* @.str.2, i64 0, i64 0))
          to label %218 unwind label %49, !llfi_index !254

218:                                              ; preds = %213
  %219 = getelementptr inbounds %"struct.std::_Rb_tree_const_iterator", %"struct.std::_Rb_tree_const_iterator"* %18, i32 0, i32 0, !llfi_index !255
  %220 = load %"struct.std::_Rb_tree_node_base"*, %"struct.std::_Rb_tree_node_base"** %219, align 8, !llfi_index !256
  %221 = getelementptr inbounds %"struct.std::_Rb_tree_const_iterator", %"struct.std::_Rb_tree_const_iterator"* %19, i32 0, i32 0, !llfi_index !257
  %222 = load %"struct.std::_Rb_tree_node_base"*, %"struct.std::_Rb_tree_node_base"** %221, align 8, !llfi_index !258
  invoke void @_ZSt4copyISt23_Rb_tree_const_iteratorIiESt16ostream_iteratorIicSt11char_traitsIcEEET0_T_S7_S6_(%"class.std::ostream_iterator"* sret(%"class.std::ostream_iterator") align 8 %21, %"struct.std::_Rb_tree_node_base"* %220, %"struct.std::_Rb_tree_node_base"* %222, %"class.std::ostream_iterator"* %20)
          to label %223 unwind label %49, !llfi_index !259

223:                                              ; preds = %218
  %224 = load i32*, i32** %4, align 8, !llfi_index !260
  %225 = icmp eq i32* %224, null, !llfi_index !261
  br i1 %225, label %228, label %226, !llfi_index !262

226:                                              ; preds = %223
  %227 = bitcast i32* %224 to i8*, !llfi_index !263
  call void @_ZdaPv(i8* %227) #16, !llfi_index !264
  br label %228, !llfi_index !265

228:                                              ; preds = %226, %223
  %229 = load i32*, i32** %5, align 8, !llfi_index !266
  %230 = icmp eq i32* %229, null, !llfi_index !267
  br i1 %230, label %233, label %231, !llfi_index !268

231:                                              ; preds = %228
  %232 = bitcast i32* %229 to i8*, !llfi_index !269
  call void @_ZdaPv(i8* %232) #16, !llfi_index !270
  br label %233, !llfi_index !271

233:                                              ; preds = %231, %228
  store i32 0, i32* %1, align 4, !llfi_index !272
  call void @_ZNSt3setIiSt4lessIiESaIiEED2Ev(%"class.std::set"* nonnull align 8 dereferenceable(48) %6) #2, !llfi_index !273
  %234 = load i32, i32* %1, align 4, !llfi_index !274
  ret i32 %234, !llfi_index !275

235:                                              ; preds = %49
  %236 = load i8*, i8** %7, align 8, !llfi_index !276
  %237 = load i32, i32* %8, align 4, !llfi_index !277
  %238 = insertvalue { i8*, i32 } undef, i8* %236, 0, !llfi_index !278
  %239 = insertvalue { i8*, i32 } %238, i32 %237, 1, !llfi_index !279
  resume { i8*, i32 } %239, !llfi_index !280
}

declare dso_local i32 @__gxx_personality_v0(...)

declare dso_local %struct._IO_FILE* @freopen(i8*, i8*, %struct._IO_FILE*) #1

; Function Attrs: noinline nounwind uwtable
define linkonce_odr dso_local void @_ZNSt3setIiSt4lessIiESaIiEEC2Ev(%"class.std::set"* nonnull align 8 dereferenceable(48) %0) unnamed_addr #5 comdat align 2 {
  %2 = alloca %"class.std::set"*, align 8, !llfi_index !281
  store %"class.std::set"* %0, %"class.std::set"** %2, align 8, !llfi_index !282
  %3 = load %"class.std::set"*, %"class.std::set"** %2, align 8, !llfi_index !283
  %4 = getelementptr inbounds %"class.std::set", %"class.std::set"* %3, i32 0, i32 0, !llfi_index !284
  call void @_ZNSt8_Rb_treeIiiSt9_IdentityIiESt4lessIiESaIiEEC2Ev(%"class.std::_Rb_tree"* nonnull align 8 dereferenceable(48) %4) #2, !llfi_index !285
  ret void, !llfi_index !286
}

declare dso_local nonnull align 8 dereferenceable(16) %"class.std::basic_istream"* @_ZNSirsERj(%"class.std::basic_istream"* nonnull align 8 dereferenceable(16), i32* nonnull align 4 dereferenceable(4)) #1

; Function Attrs: nofree nosync nounwind readnone speculatable willreturn
declare { i64, i1 } @llvm.umul.with.overflow.i64(i64, i64) #6

; Function Attrs: nobuiltin allocsize(0)
declare dso_local nonnull i8* @_Znam(i64) #7

declare dso_local nonnull align 8 dereferenceable(16) %"class.std::basic_istream"* @_ZNSirsERi(%"class.std::basic_istream"* nonnull align 8 dereferenceable(16), i32* nonnull align 4 dereferenceable(4)) #1

; Function Attrs: noinline nounwind uwtable
define linkonce_odr dso_local void @_ZNSt3setIiSt4lessIiESaIiEED2Ev(%"class.std::set"* nonnull align 8 dereferenceable(48) %0) unnamed_addr #5 comdat align 2 {
  %2 = alloca %"class.std::set"*, align 8, !llfi_index !287
  store %"class.std::set"* %0, %"class.std::set"** %2, align 8, !llfi_index !288
  %3 = load %"class.std::set"*, %"class.std::set"** %2, align 8, !llfi_index !289
  %4 = getelementptr inbounds %"class.std::set", %"class.std::set"* %3, i32 0, i32 0, !llfi_index !290
  call void @_ZNSt8_Rb_treeIiiSt9_IdentityIiESt4lessIiESaIiEED2Ev(%"class.std::_Rb_tree"* nonnull align 8 dereferenceable(48) %4) #2, !llfi_index !291
  ret void, !llfi_index !292
}

; Function Attrs: mustprogress noinline uwtable
define linkonce_odr dso_local void @_ZSt4sortIPiEvT_S1_(i32* %0, i32* %1) #8 comdat {
  %3 = alloca i32*, align 8, !llfi_index !293
  %4 = alloca i32*, align 8, !llfi_index !294
  %5 = alloca %"class.std::ios_base::Init", align 1, !llfi_index !295
  %6 = alloca %"class.std::ios_base::Init", align 1, !llfi_index !296
  store i32* %0, i32** %3, align 8, !llfi_index !297
  store i32* %1, i32** %4, align 8, !llfi_index !298
  %7 = load i32*, i32** %3, align 8, !llfi_index !299
  %8 = load i32*, i32** %4, align 8, !llfi_index !300
  call void @_ZN9__gnu_cxx5__ops16__iter_less_iterEv(), !llfi_index !301
  call void @_ZSt6__sortIPiN9__gnu_cxx5__ops15_Iter_less_iterEEvT_S4_T0_(i32* %7, i32* %8), !llfi_index !302
  ret void, !llfi_index !303
}

; Function Attrs: mustprogress noinline uwtable
define linkonce_odr dso_local { %"struct.std::_Rb_tree_node_base"*, i8 } @_ZNSt3setIiSt4lessIiESaIiEE6insertERKi(%"class.std::set"* nonnull align 8 dereferenceable(48) %0, i32* nonnull align 4 dereferenceable(4) %1) #8 comdat align 2 {
  %3 = alloca %"struct.std::pair", align 8, !llfi_index !304
  %4 = alloca %"class.std::set"*, align 8, !llfi_index !305
  %5 = alloca i32*, align 8, !llfi_index !306
  %6 = alloca %"struct.std::pair", align 8, !llfi_index !307
  store %"class.std::set"* %0, %"class.std::set"** %4, align 8, !llfi_index !308
  store i32* %1, i32** %5, align 8, !llfi_index !309
  %7 = load %"class.std::set"*, %"class.std::set"** %4, align 8, !llfi_index !310
  %8 = getelementptr inbounds %"class.std::set", %"class.std::set"* %7, i32 0, i32 0, !llfi_index !311
  %9 = load i32*, i32** %5, align 8, !llfi_index !312
  %10 = call { %"struct.std::_Rb_tree_node_base"*, i8 } @_ZNSt8_Rb_treeIiiSt9_IdentityIiESt4lessIiESaIiEE16_M_insert_uniqueIRKiEESt4pairISt17_Rb_tree_iteratorIiEbEOT_(%"class.std::_Rb_tree"* nonnull align 8 dereferenceable(48) %8, i32* nonnull align 4 dereferenceable(4) %9), !llfi_index !313
  %11 = bitcast %"struct.std::pair"* %6 to { %"struct.std::_Rb_tree_node_base"*, i8 }*, !llfi_index !314
  %12 = getelementptr inbounds { %"struct.std::_Rb_tree_node_base"*, i8 }, { %"struct.std::_Rb_tree_node_base"*, i8 }* %11, i32 0, i32 0, !llfi_index !315
  %13 = extractvalue { %"struct.std::_Rb_tree_node_base"*, i8 } %10, 0, !llfi_index !316
  store %"struct.std::_Rb_tree_node_base"* %13, %"struct.std::_Rb_tree_node_base"** %12, align 8, !llfi_index !317
  %14 = getelementptr inbounds { %"struct.std::_Rb_tree_node_base"*, i8 }, { %"struct.std::_Rb_tree_node_base"*, i8 }* %11, i32 0, i32 1, !llfi_index !318
  %15 = extractvalue { %"struct.std::_Rb_tree_node_base"*, i8 } %10, 1, !llfi_index !319
  store i8 %15, i8* %14, align 8, !llfi_index !320
  %16 = getelementptr inbounds %"struct.std::pair", %"struct.std::pair"* %6, i32 0, i32 0, !llfi_index !321
  %17 = getelementptr inbounds %"struct.std::pair", %"struct.std::pair"* %6, i32 0, i32 1, !llfi_index !322
  call void @_ZNSt4pairISt23_Rb_tree_const_iteratorIiEbEC2IRSt17_Rb_tree_iteratorIiERbLb1EEEOT_OT0_(%"struct.std::pair"* nonnull align 8 dereferenceable(9) %3, %"struct.std::_Rb_tree_const_iterator"* nonnull align 8 dereferenceable(8) %16, i8* nonnull align 1 dereferenceable(1) %17), !llfi_index !323
  %18 = bitcast %"struct.std::pair"* %3 to { %"struct.std::_Rb_tree_node_base"*, i8 }*, !llfi_index !324
  %19 = load { %"struct.std::_Rb_tree_node_base"*, i8 }, { %"struct.std::_Rb_tree_node_base"*, i8 }* %18, align 8, !llfi_index !325
  ret { %"struct.std::_Rb_tree_node_base"*, i8 } %19, !llfi_index !326
}

; Function Attrs: mustprogress noinline nounwind uwtable
define linkonce_odr dso_local %"struct.std::_Rb_tree_node_base"* @_ZNKSt3setIiSt4lessIiESaIiEE5beginEv(%"class.std::set"* nonnull align 8 dereferenceable(48) %0) #9 comdat align 2 {
  %2 = alloca %"struct.std::_Rb_tree_const_iterator", align 8, !llfi_index !327
  %3 = alloca %"class.std::set"*, align 8, !llfi_index !328
  store %"class.std::set"* %0, %"class.std::set"** %3, align 8, !llfi_index !329
  %4 = load %"class.std::set"*, %"class.std::set"** %3, align 8, !llfi_index !330
  %5 = getelementptr inbounds %"class.std::set", %"class.std::set"* %4, i32 0, i32 0, !llfi_index !331
  %6 = call %"struct.std::_Rb_tree_node_base"* @_ZNKSt8_Rb_treeIiiSt9_IdentityIiESt4lessIiESaIiEE5beginEv(%"class.std::_Rb_tree"* nonnull align 8 dereferenceable(48) %5) #2, !llfi_index !332
  %7 = getelementptr inbounds %"struct.std::_Rb_tree_const_iterator", %"struct.std::_Rb_tree_const_iterator"* %2, i32 0, i32 0, !llfi_index !333
  store %"struct.std::_Rb_tree_node_base"* %6, %"struct.std::_Rb_tree_node_base"** %7, align 8, !llfi_index !334
  %8 = getelementptr inbounds %"struct.std::_Rb_tree_const_iterator", %"struct.std::_Rb_tree_const_iterator"* %2, i32 0, i32 0, !llfi_index !335
  %9 = load %"struct.std::_Rb_tree_node_base"*, %"struct.std::_Rb_tree_node_base"** %8, align 8, !llfi_index !336
  ret %"struct.std::_Rb_tree_node_base"* %9, !llfi_index !337
}

; Function Attrs: mustprogress noinline nounwind uwtable
define linkonce_odr dso_local %"struct.std::_Rb_tree_node_base"* @_ZNKSt3setIiSt4lessIiESaIiEE3endEv(%"class.std::set"* nonnull align 8 dereferenceable(48) %0) #9 comdat align 2 {
  %2 = alloca %"struct.std::_Rb_tree_const_iterator", align 8, !llfi_index !338
  %3 = alloca %"class.std::set"*, align 8, !llfi_index !339
  store %"class.std::set"* %0, %"class.std::set"** %3, align 8, !llfi_index !340
  %4 = load %"class.std::set"*, %"class.std::set"** %3, align 8, !llfi_index !341
  %5 = getelementptr inbounds %"class.std::set", %"class.std::set"* %4, i32 0, i32 0, !llfi_index !342
  %6 = call %"struct.std::_Rb_tree_node_base"* @_ZNKSt8_Rb_treeIiiSt9_IdentityIiESt4lessIiESaIiEE3endEv(%"class.std::_Rb_tree"* nonnull align 8 dereferenceable(48) %5) #2, !llfi_index !343
  %7 = getelementptr inbounds %"struct.std::_Rb_tree_const_iterator", %"struct.std::_Rb_tree_const_iterator"* %2, i32 0, i32 0, !llfi_index !344
  store %"struct.std::_Rb_tree_node_base"* %6, %"struct.std::_Rb_tree_node_base"** %7, align 8, !llfi_index !345
  %8 = getelementptr inbounds %"struct.std::_Rb_tree_const_iterator", %"struct.std::_Rb_tree_const_iterator"* %2, i32 0, i32 0, !llfi_index !346
  %9 = load %"struct.std::_Rb_tree_node_base"*, %"struct.std::_Rb_tree_node_base"** %8, align 8, !llfi_index !347
  ret %"struct.std::_Rb_tree_node_base"* %9, !llfi_index !348
}

; Function Attrs: noinline nounwind uwtable
define linkonce_odr dso_local void @_ZNSt16ostream_iteratorIicSt11char_traitsIcEEC2ERSoPKc(%"class.std::ostream_iterator"* nonnull align 8 dereferenceable(16) %0, %"class.std::basic_ostream"* nonnull align 8 dereferenceable(8) %1, i8* %2) unnamed_addr #5 comdat align 2 {
  %4 = alloca %"class.std::ostream_iterator"*, align 8, !llfi_index !349
  %5 = alloca %"class.std::basic_ostream"*, align 8, !llfi_index !350
  %6 = alloca i8*, align 8, !llfi_index !351
  store %"class.std::ostream_iterator"* %0, %"class.std::ostream_iterator"** %4, align 8, !llfi_index !352
  store %"class.std::basic_ostream"* %1, %"class.std::basic_ostream"** %5, align 8, !llfi_index !353
  store i8* %2, i8** %6, align 8, !llfi_index !354
  %7 = load %"class.std::ostream_iterator"*, %"class.std::ostream_iterator"** %4, align 8, !llfi_index !355
  %8 = bitcast %"class.std::ostream_iterator"* %7 to %"class.std::ios_base::Init"*, !llfi_index !356
  %9 = getelementptr inbounds %"class.std::ostream_iterator", %"class.std::ostream_iterator"* %7, i32 0, i32 0, !llfi_index !357
  %10 = load %"class.std::basic_ostream"*, %"class.std::basic_ostream"** %5, align 8, !llfi_index !358
  store %"class.std::basic_ostream"* %10, %"class.std::basic_ostream"** %9, align 8, !llfi_index !359
  %11 = getelementptr inbounds %"class.std::ostream_iterator", %"class.std::ostream_iterator"* %7, i32 0, i32 1, !llfi_index !360
  %12 = load i8*, i8** %6, align 8, !llfi_index !361
  store i8* %12, i8** %11, align 8, !llfi_index !362
  ret void, !llfi_index !363
}

; Function Attrs: mustprogress noinline uwtable
define linkonce_odr dso_local void @_ZSt4copyISt23_Rb_tree_const_iteratorIiESt16ostream_iteratorIicSt11char_traitsIcEEET0_T_S7_S6_(%"class.std::ostream_iterator"* noalias sret(%"class.std::ostream_iterator") align 8 %0, %"struct.std::_Rb_tree_node_base"* %1, %"struct.std::_Rb_tree_node_base"* %2, %"class.std::ostream_iterator"* %3) #8 comdat {
  %5 = alloca i8*, align 8, !llfi_index !364
  %6 = alloca %"struct.std::_Rb_tree_const_iterator", align 8, !llfi_index !365
  %7 = alloca %"struct.std::_Rb_tree_const_iterator", align 8, !llfi_index !366
  %8 = alloca %"struct.std::_Rb_tree_const_iterator", align 8, !llfi_index !367
  %9 = alloca %"struct.std::_Rb_tree_const_iterator", align 8, !llfi_index !368
  %10 = alloca %"struct.std::_Rb_tree_const_iterator", align 8, !llfi_index !369
  %11 = alloca %"struct.std::_Rb_tree_const_iterator", align 8, !llfi_index !370
  %12 = alloca %"class.std::ostream_iterator", align 8, !llfi_index !371
  %13 = bitcast %"class.std::ostream_iterator"* %0 to i8*, !llfi_index !372
  store i8* %13, i8** %5, align 8, !llfi_index !373
  %14 = getelementptr inbounds %"struct.std::_Rb_tree_const_iterator", %"struct.std::_Rb_tree_const_iterator"* %6, i32 0, i32 0, !llfi_index !374
  store %"struct.std::_Rb_tree_node_base"* %1, %"struct.std::_Rb_tree_node_base"** %14, align 8, !llfi_index !375
  %15 = getelementptr inbounds %"struct.std::_Rb_tree_const_iterator", %"struct.std::_Rb_tree_const_iterator"* %7, i32 0, i32 0, !llfi_index !376
  store %"struct.std::_Rb_tree_node_base"* %2, %"struct.std::_Rb_tree_node_base"** %15, align 8, !llfi_index !377
  %16 = bitcast %"struct.std::_Rb_tree_const_iterator"* %9 to i8*, !llfi_index !378
  %17 = bitcast %"struct.std::_Rb_tree_const_iterator"* %6 to i8*, !llfi_index !379
  call void @llvm.memcpy.p0i8.p0i8.i64(i8* align 8 %16, i8* align 8 %17, i64 8, i1 false), !llfi_index !380
  %18 = getelementptr inbounds %"struct.std::_Rb_tree_const_iterator", %"struct.std::_Rb_tree_const_iterator"* %9, i32 0, i32 0, !llfi_index !381
  %19 = load %"struct.std::_Rb_tree_node_base"*, %"struct.std::_Rb_tree_node_base"** %18, align 8, !llfi_index !382
  %20 = call %"struct.std::_Rb_tree_node_base"* @_ZSt12__miter_baseISt23_Rb_tree_const_iteratorIiEET_S2_(%"struct.std::_Rb_tree_node_base"* %19), !llfi_index !383
  %21 = getelementptr inbounds %"struct.std::_Rb_tree_const_iterator", %"struct.std::_Rb_tree_const_iterator"* %8, i32 0, i32 0, !llfi_index !384
  store %"struct.std::_Rb_tree_node_base"* %20, %"struct.std::_Rb_tree_node_base"** %21, align 8, !llfi_index !385
  %22 = bitcast %"struct.std::_Rb_tree_const_iterator"* %11 to i8*, !llfi_index !386
  %23 = bitcast %"struct.std::_Rb_tree_const_iterator"* %7 to i8*, !llfi_index !387
  call void @llvm.memcpy.p0i8.p0i8.i64(i8* align 8 %22, i8* align 8 %23, i64 8, i1 false), !llfi_index !388
  %24 = getelementptr inbounds %"struct.std::_Rb_tree_const_iterator", %"struct.std::_Rb_tree_const_iterator"* %11, i32 0, i32 0, !llfi_index !389
  %25 = load %"struct.std::_Rb_tree_node_base"*, %"struct.std::_Rb_tree_node_base"** %24, align 8, !llfi_index !390
  %26 = call %"struct.std::_Rb_tree_node_base"* @_ZSt12__miter_baseISt23_Rb_tree_const_iteratorIiEET_S2_(%"struct.std::_Rb_tree_node_base"* %25), !llfi_index !391
  %27 = getelementptr inbounds %"struct.std::_Rb_tree_const_iterator", %"struct.std::_Rb_tree_const_iterator"* %10, i32 0, i32 0, !llfi_index !392
  store %"struct.std::_Rb_tree_node_base"* %26, %"struct.std::_Rb_tree_node_base"** %27, align 8, !llfi_index !393
  call void @_ZNSt16ostream_iteratorIicSt11char_traitsIcEEC2ERKS2_(%"class.std::ostream_iterator"* nonnull align 8 dereferenceable(16) %12, %"class.std::ostream_iterator"* nonnull align 8 dereferenceable(16) %3), !llfi_index !394
  %28 = getelementptr inbounds %"struct.std::_Rb_tree_const_iterator", %"struct.std::_Rb_tree_const_iterator"* %8, i32 0, i32 0, !llfi_index !395
  %29 = load %"struct.std::_Rb_tree_node_base"*, %"struct.std::_Rb_tree_node_base"** %28, align 8, !llfi_index !396
  %30 = getelementptr inbounds %"struct.std::_Rb_tree_const_iterator", %"struct.std::_Rb_tree_const_iterator"* %10, i32 0, i32 0, !llfi_index !397
  %31 = load %"struct.std::_Rb_tree_node_base"*, %"struct.std::_Rb_tree_node_base"** %30, align 8, !llfi_index !398
  call void @_ZSt14__copy_move_a2ILb0ESt23_Rb_tree_const_iteratorIiESt16ostream_iteratorIicSt11char_traitsIcEEET1_T0_S7_S6_(%"class.std::ostream_iterator"* sret(%"class.std::ostream_iterator") align 8 %0, %"struct.std::_Rb_tree_node_base"* %29, %"struct.std::_Rb_tree_node_base"* %31, %"class.std::ostream_iterator"* %12), !llfi_index !399
  ret void, !llfi_index !400
}

; Function Attrs: nobuiltin nounwind
declare dso_local void @_ZdaPv(i8*) #10

; Function Attrs: argmemonly nofree nounwind willreturn
declare void @llvm.memcpy.p0i8.p0i8.i64(i8* noalias nocapture writeonly, i8* noalias nocapture readonly, i64, i1 immarg) #11

; Function Attrs: mustprogress noinline nounwind uwtable
define linkonce_odr dso_local %"struct.std::_Rb_tree_node_base"* @_ZSt12__miter_baseISt23_Rb_tree_const_iteratorIiEET_S2_(%"struct.std::_Rb_tree_node_base"* %0) #9 comdat {
  %2 = alloca %"struct.std::_Rb_tree_const_iterator", align 8, !llfi_index !401
  %3 = alloca %"struct.std::_Rb_tree_const_iterator", align 8, !llfi_index !402
  %4 = getelementptr inbounds %"struct.std::_Rb_tree_const_iterator", %"struct.std::_Rb_tree_const_iterator"* %3, i32 0, i32 0, !llfi_index !403
  store %"struct.std::_Rb_tree_node_base"* %0, %"struct.std::_Rb_tree_node_base"** %4, align 8, !llfi_index !404
  %5 = bitcast %"struct.std::_Rb_tree_const_iterator"* %2 to i8*, !llfi_index !405
  %6 = bitcast %"struct.std::_Rb_tree_const_iterator"* %3 to i8*, !llfi_index !406
  call void @llvm.memcpy.p0i8.p0i8.i64(i8* align 8 %5, i8* align 8 %6, i64 8, i1 false), !llfi_index !407
  %7 = getelementptr inbounds %"struct.std::_Rb_tree_const_iterator", %"struct.std::_Rb_tree_const_iterator"* %2, i32 0, i32 0, !llfi_index !408
  %8 = load %"struct.std::_Rb_tree_node_base"*, %"struct.std::_Rb_tree_node_base"** %7, align 8, !llfi_index !409
  ret %"struct.std::_Rb_tree_node_base"* %8, !llfi_index !410
}

; Function Attrs: noinline nounwind uwtable
define linkonce_odr dso_local void @_ZNSt16ostream_iteratorIicSt11char_traitsIcEEC2ERKS2_(%"class.std::ostream_iterator"* nonnull align 8 dereferenceable(16) %0, %"class.std::ostream_iterator"* nonnull align 8 dereferenceable(16) %1) unnamed_addr #5 comdat align 2 {
  %3 = alloca %"class.std::ostream_iterator"*, align 8, !llfi_index !411
  %4 = alloca %"class.std::ostream_iterator"*, align 8, !llfi_index !412
  store %"class.std::ostream_iterator"* %0, %"class.std::ostream_iterator"** %3, align 8, !llfi_index !413
  store %"class.std::ostream_iterator"* %1, %"class.std::ostream_iterator"** %4, align 8, !llfi_index !414
  %5 = load %"class.std::ostream_iterator"*, %"class.std::ostream_iterator"** %3, align 8, !llfi_index !415
  %6 = bitcast %"class.std::ostream_iterator"* %5 to %"class.std::ios_base::Init"*, !llfi_index !416
  %7 = getelementptr inbounds %"class.std::ostream_iterator", %"class.std::ostream_iterator"* %5, i32 0, i32 0, !llfi_index !417
  %8 = load %"class.std::ostream_iterator"*, %"class.std::ostream_iterator"** %4, align 8, !llfi_index !418
  %9 = getelementptr inbounds %"class.std::ostream_iterator", %"class.std::ostream_iterator"* %8, i32 0, i32 0, !llfi_index !419
  %10 = load %"class.std::basic_ostream"*, %"class.std::basic_ostream"** %9, align 8, !llfi_index !420
  store %"class.std::basic_ostream"* %10, %"class.std::basic_ostream"** %7, align 8, !llfi_index !421
  %11 = getelementptr inbounds %"class.std::ostream_iterator", %"class.std::ostream_iterator"* %5, i32 0, i32 1, !llfi_index !422
  %12 = load %"class.std::ostream_iterator"*, %"class.std::ostream_iterator"** %4, align 8, !llfi_index !423
  %13 = getelementptr inbounds %"class.std::ostream_iterator", %"class.std::ostream_iterator"* %12, i32 0, i32 1, !llfi_index !424
  %14 = load i8*, i8** %13, align 8, !llfi_index !425
  store i8* %14, i8** %11, align 8, !llfi_index !426
  ret void, !llfi_index !427
}

; Function Attrs: mustprogress noinline uwtable
define linkonce_odr dso_local void @_ZSt14__copy_move_a2ILb0ESt23_Rb_tree_const_iteratorIiESt16ostream_iteratorIicSt11char_traitsIcEEET1_T0_S7_S6_(%"class.std::ostream_iterator"* noalias sret(%"class.std::ostream_iterator") align 8 %0, %"struct.std::_Rb_tree_node_base"* %1, %"struct.std::_Rb_tree_node_base"* %2, %"class.std::ostream_iterator"* %3) #8 comdat {
  %5 = alloca i8*, align 8, !llfi_index !428
  %6 = alloca %"struct.std::_Rb_tree_const_iterator", align 8, !llfi_index !429
  %7 = alloca %"struct.std::_Rb_tree_const_iterator", align 8, !llfi_index !430
  %8 = alloca %"class.std::ostream_iterator", align 8, !llfi_index !431
  %9 = alloca %"struct.std::_Rb_tree_const_iterator", align 8, !llfi_index !432
  %10 = alloca %"struct.std::_Rb_tree_const_iterator", align 8, !llfi_index !433
  %11 = alloca %"struct.std::_Rb_tree_const_iterator", align 8, !llfi_index !434
  %12 = alloca %"struct.std::_Rb_tree_const_iterator", align 8, !llfi_index !435
  %13 = alloca %"class.std::ostream_iterator", align 8, !llfi_index !436
  %14 = alloca %"class.std::ostream_iterator", align 8, !llfi_index !437
  %15 = bitcast %"class.std::ostream_iterator"* %0 to i8*, !llfi_index !438
  store i8* %15, i8** %5, align 8, !llfi_index !439
  %16 = getelementptr inbounds %"struct.std::_Rb_tree_const_iterator", %"struct.std::_Rb_tree_const_iterator"* %6, i32 0, i32 0, !llfi_index !440
  store %"struct.std::_Rb_tree_node_base"* %1, %"struct.std::_Rb_tree_node_base"** %16, align 8, !llfi_index !441
  %17 = getelementptr inbounds %"struct.std::_Rb_tree_const_iterator", %"struct.std::_Rb_tree_const_iterator"* %7, i32 0, i32 0, !llfi_index !442
  store %"struct.std::_Rb_tree_node_base"* %2, %"struct.std::_Rb_tree_node_base"** %17, align 8, !llfi_index !443
  %18 = bitcast %"struct.std::_Rb_tree_const_iterator"* %10 to i8*, !llfi_index !444
  %19 = bitcast %"struct.std::_Rb_tree_const_iterator"* %6 to i8*, !llfi_index !445
  call void @llvm.memcpy.p0i8.p0i8.i64(i8* align 8 %18, i8* align 8 %19, i64 8, i1 false), !llfi_index !446
  %20 = getelementptr inbounds %"struct.std::_Rb_tree_const_iterator", %"struct.std::_Rb_tree_const_iterator"* %10, i32 0, i32 0, !llfi_index !447
  %21 = load %"struct.std::_Rb_tree_node_base"*, %"struct.std::_Rb_tree_node_base"** %20, align 8, !llfi_index !448
  %22 = call %"struct.std::_Rb_tree_node_base"* @_ZSt12__niter_baseISt23_Rb_tree_const_iteratorIiEET_S2_(%"struct.std::_Rb_tree_node_base"* %21) #2, !llfi_index !449
  %23 = getelementptr inbounds %"struct.std::_Rb_tree_const_iterator", %"struct.std::_Rb_tree_const_iterator"* %9, i32 0, i32 0, !llfi_index !450
  store %"struct.std::_Rb_tree_node_base"* %22, %"struct.std::_Rb_tree_node_base"** %23, align 8, !llfi_index !451
  %24 = bitcast %"struct.std::_Rb_tree_const_iterator"* %12 to i8*, !llfi_index !452
  %25 = bitcast %"struct.std::_Rb_tree_const_iterator"* %7 to i8*, !llfi_index !453
  call void @llvm.memcpy.p0i8.p0i8.i64(i8* align 8 %24, i8* align 8 %25, i64 8, i1 false), !llfi_index !454
  %26 = getelementptr inbounds %"struct.std::_Rb_tree_const_iterator", %"struct.std::_Rb_tree_const_iterator"* %12, i32 0, i32 0, !llfi_index !455
  %27 = load %"struct.std::_Rb_tree_node_base"*, %"struct.std::_Rb_tree_node_base"** %26, align 8, !llfi_index !456
  %28 = call %"struct.std::_Rb_tree_node_base"* @_ZSt12__niter_baseISt23_Rb_tree_const_iteratorIiEET_S2_(%"struct.std::_Rb_tree_node_base"* %27) #2, !llfi_index !457
  %29 = getelementptr inbounds %"struct.std::_Rb_tree_const_iterator", %"struct.std::_Rb_tree_const_iterator"* %11, i32 0, i32 0, !llfi_index !458
  store %"struct.std::_Rb_tree_node_base"* %28, %"struct.std::_Rb_tree_node_base"** %29, align 8, !llfi_index !459
  call void @_ZNSt16ostream_iteratorIicSt11char_traitsIcEEC2ERKS2_(%"class.std::ostream_iterator"* nonnull align 8 dereferenceable(16) %14, %"class.std::ostream_iterator"* nonnull align 8 dereferenceable(16) %3), !llfi_index !460
  call void @_ZSt12__niter_baseISt16ostream_iteratorIicSt11char_traitsIcEEET_S4_(%"class.std::ostream_iterator"* sret(%"class.std::ostream_iterator") align 8 %13, %"class.std::ostream_iterator"* %14), !llfi_index !461
  %30 = getelementptr inbounds %"struct.std::_Rb_tree_const_iterator", %"struct.std::_Rb_tree_const_iterator"* %9, i32 0, i32 0, !llfi_index !462
  %31 = load %"struct.std::_Rb_tree_node_base"*, %"struct.std::_Rb_tree_node_base"** %30, align 8, !llfi_index !463
  %32 = getelementptr inbounds %"struct.std::_Rb_tree_const_iterator", %"struct.std::_Rb_tree_const_iterator"* %11, i32 0, i32 0, !llfi_index !464
  %33 = load %"struct.std::_Rb_tree_node_base"*, %"struct.std::_Rb_tree_node_base"** %32, align 8, !llfi_index !465
  call void @_ZSt13__copy_move_aILb0ESt23_Rb_tree_const_iteratorIiESt16ostream_iteratorIicSt11char_traitsIcEEET1_T0_S7_S6_(%"class.std::ostream_iterator"* sret(%"class.std::ostream_iterator") align 8 %8, %"struct.std::_Rb_tree_node_base"* %31, %"struct.std::_Rb_tree_node_base"* %33, %"class.std::ostream_iterator"* %13), !llfi_index !466
  call void @_ZSt12__niter_wrapISt16ostream_iteratorIicSt11char_traitsIcEEET_RKS4_S4_(%"class.std::ostream_iterator"* sret(%"class.std::ostream_iterator") align 8 %0, %"class.std::ostream_iterator"* nonnull align 8 dereferenceable(16) %3, %"class.std::ostream_iterator"* %8), !llfi_index !467
  ret void, !llfi_index !468
}

; Function Attrs: mustprogress noinline nounwind uwtable
define linkonce_odr dso_local %"struct.std::_Rb_tree_node_base"* @_ZSt12__niter_baseISt23_Rb_tree_const_iteratorIiEET_S2_(%"struct.std::_Rb_tree_node_base"* %0) #9 comdat {
  %2 = alloca %"struct.std::_Rb_tree_const_iterator", align 8, !llfi_index !469
  %3 = alloca %"struct.std::_Rb_tree_const_iterator", align 8, !llfi_index !470
  %4 = getelementptr inbounds %"struct.std::_Rb_tree_const_iterator", %"struct.std::_Rb_tree_const_iterator"* %3, i32 0, i32 0, !llfi_index !471
  store %"struct.std::_Rb_tree_node_base"* %0, %"struct.std::_Rb_tree_node_base"** %4, align 8, !llfi_index !472
  %5 = bitcast %"struct.std::_Rb_tree_const_iterator"* %2 to i8*, !llfi_index !473
  %6 = bitcast %"struct.std::_Rb_tree_const_iterator"* %3 to i8*, !llfi_index !474
  call void @llvm.memcpy.p0i8.p0i8.i64(i8* align 8 %5, i8* align 8 %6, i64 8, i1 false), !llfi_index !475
  %7 = getelementptr inbounds %"struct.std::_Rb_tree_const_iterator", %"struct.std::_Rb_tree_const_iterator"* %2, i32 0, i32 0, !llfi_index !476
  %8 = load %"struct.std::_Rb_tree_node_base"*, %"struct.std::_Rb_tree_node_base"** %7, align 8, !llfi_index !477
  ret %"struct.std::_Rb_tree_node_base"* %8, !llfi_index !478
}

; Function Attrs: mustprogress noinline uwtable
define linkonce_odr dso_local void @_ZSt12__niter_baseISt16ostream_iteratorIicSt11char_traitsIcEEET_S4_(%"class.std::ostream_iterator"* noalias sret(%"class.std::ostream_iterator") align 8 %0, %"class.std::ostream_iterator"* %1) #8 comdat {
  %3 = alloca i8*, align 8, !llfi_index !479
  %4 = bitcast %"class.std::ostream_iterator"* %0 to i8*, !llfi_index !480
  store i8* %4, i8** %3, align 8, !llfi_index !481
  call void @_ZNSt16ostream_iteratorIicSt11char_traitsIcEEC2ERKS2_(%"class.std::ostream_iterator"* nonnull align 8 dereferenceable(16) %0, %"class.std::ostream_iterator"* nonnull align 8 dereferenceable(16) %1), !llfi_index !482
  ret void, !llfi_index !483
}

; Function Attrs: mustprogress noinline uwtable
define linkonce_odr dso_local void @_ZSt13__copy_move_aILb0ESt23_Rb_tree_const_iteratorIiESt16ostream_iteratorIicSt11char_traitsIcEEET1_T0_S7_S6_(%"class.std::ostream_iterator"* noalias sret(%"class.std::ostream_iterator") align 8 %0, %"struct.std::_Rb_tree_node_base"* %1, %"struct.std::_Rb_tree_node_base"* %2, %"class.std::ostream_iterator"* %3) #8 comdat {
  %5 = alloca i8*, align 8, !llfi_index !484
  %6 = alloca %"struct.std::_Rb_tree_const_iterator", align 8, !llfi_index !485
  %7 = alloca %"struct.std::_Rb_tree_const_iterator", align 8, !llfi_index !486
  %8 = alloca i8, align 1, !llfi_index !487
  %9 = alloca %"struct.std::_Rb_tree_const_iterator", align 8, !llfi_index !488
  %10 = alloca %"struct.std::_Rb_tree_const_iterator", align 8, !llfi_index !489
  %11 = alloca %"class.std::ostream_iterator", align 8, !llfi_index !490
  %12 = bitcast %"class.std::ostream_iterator"* %0 to i8*, !llfi_index !491
  store i8* %12, i8** %5, align 8, !llfi_index !492
  %13 = getelementptr inbounds %"struct.std::_Rb_tree_const_iterator", %"struct.std::_Rb_tree_const_iterator"* %6, i32 0, i32 0, !llfi_index !493
  store %"struct.std::_Rb_tree_node_base"* %1, %"struct.std::_Rb_tree_node_base"** %13, align 8, !llfi_index !494
  %14 = getelementptr inbounds %"struct.std::_Rb_tree_const_iterator", %"struct.std::_Rb_tree_const_iterator"* %7, i32 0, i32 0, !llfi_index !495
  store %"struct.std::_Rb_tree_node_base"* %2, %"struct.std::_Rb_tree_node_base"** %14, align 8, !llfi_index !496
  store i8 0, i8* %8, align 1, !llfi_index !497
  %15 = bitcast %"struct.std::_Rb_tree_const_iterator"* %9 to i8*, !llfi_index !498
  %16 = bitcast %"struct.std::_Rb_tree_const_iterator"* %6 to i8*, !llfi_index !499
  call void @llvm.memcpy.p0i8.p0i8.i64(i8* align 8 %15, i8* align 8 %16, i64 8, i1 false), !llfi_index !500
  %17 = bitcast %"struct.std::_Rb_tree_const_iterator"* %10 to i8*, !llfi_index !501
  %18 = bitcast %"struct.std::_Rb_tree_const_iterator"* %7 to i8*, !llfi_index !502
  call void @llvm.memcpy.p0i8.p0i8.i64(i8* align 8 %17, i8* align 8 %18, i64 8, i1 false), !llfi_index !503
  call void @_ZNSt16ostream_iteratorIicSt11char_traitsIcEEC2ERKS2_(%"class.std::ostream_iterator"* nonnull align 8 dereferenceable(16) %11, %"class.std::ostream_iterator"* nonnull align 8 dereferenceable(16) %3), !llfi_index !504
  %19 = getelementptr inbounds %"struct.std::_Rb_tree_const_iterator", %"struct.std::_Rb_tree_const_iterator"* %9, i32 0, i32 0, !llfi_index !505
  %20 = load %"struct.std::_Rb_tree_node_base"*, %"struct.std::_Rb_tree_node_base"** %19, align 8, !llfi_index !506
  %21 = getelementptr inbounds %"struct.std::_Rb_tree_const_iterator", %"struct.std::_Rb_tree_const_iterator"* %10, i32 0, i32 0, !llfi_index !507
  %22 = load %"struct.std::_Rb_tree_node_base"*, %"struct.std::_Rb_tree_node_base"** %21, align 8, !llfi_index !508
  call void @_ZNSt11__copy_moveILb0ELb0ESt26bidirectional_iterator_tagE8__copy_mISt23_Rb_tree_const_iteratorIiESt16ostream_iteratorIicSt11char_traitsIcEEEET0_T_SA_S9_(%"class.std::ostream_iterator"* sret(%"class.std::ostream_iterator") align 8 %0, %"struct.std::_Rb_tree_node_base"* %20, %"struct.std::_Rb_tree_node_base"* %22, %"class.std::ostream_iterator"* %11), !llfi_index !509
  ret void, !llfi_index !510
}

; Function Attrs: mustprogress noinline uwtable
define linkonce_odr dso_local void @_ZSt12__niter_wrapISt16ostream_iteratorIicSt11char_traitsIcEEET_RKS4_S4_(%"class.std::ostream_iterator"* noalias sret(%"class.std::ostream_iterator") align 8 %0, %"class.std::ostream_iterator"* nonnull align 8 dereferenceable(16) %1, %"class.std::ostream_iterator"* %2) #8 comdat {
  %4 = alloca i8*, align 8, !llfi_index !511
  %5 = alloca %"class.std::ostream_iterator"*, align 8, !llfi_index !512
  %6 = bitcast %"class.std::ostream_iterator"* %0 to i8*, !llfi_index !513
  store i8* %6, i8** %4, align 8, !llfi_index !514
  store %"class.std::ostream_iterator"* %1, %"class.std::ostream_iterator"** %5, align 8, !llfi_index !515
  call void @_ZNSt16ostream_iteratorIicSt11char_traitsIcEEC2ERKS2_(%"class.std::ostream_iterator"* nonnull align 8 dereferenceable(16) %0, %"class.std::ostream_iterator"* nonnull align 8 dereferenceable(16) %2), !llfi_index !516
  ret void, !llfi_index !517
}

; Function Attrs: mustprogress noinline uwtable
define linkonce_odr dso_local void @_ZNSt11__copy_moveILb0ELb0ESt26bidirectional_iterator_tagE8__copy_mISt23_Rb_tree_const_iteratorIiESt16ostream_iteratorIicSt11char_traitsIcEEEET0_T_SA_S9_(%"class.std::ostream_iterator"* noalias sret(%"class.std::ostream_iterator") align 8 %0, %"struct.std::_Rb_tree_node_base"* %1, %"struct.std::_Rb_tree_node_base"* %2, %"class.std::ostream_iterator"* %3) #8 comdat align 2 {
  %5 = alloca i8*, align 8, !llfi_index !518
  %6 = alloca %"struct.std::_Rb_tree_const_iterator", align 8, !llfi_index !519
  %7 = alloca %"struct.std::_Rb_tree_const_iterator", align 8, !llfi_index !520
  %8 = bitcast %"class.std::ostream_iterator"* %0 to i8*, !llfi_index !521
  store i8* %8, i8** %5, align 8, !llfi_index !522
  %9 = getelementptr inbounds %"struct.std::_Rb_tree_const_iterator", %"struct.std::_Rb_tree_const_iterator"* %6, i32 0, i32 0, !llfi_index !523
  store %"struct.std::_Rb_tree_node_base"* %1, %"struct.std::_Rb_tree_node_base"** %9, align 8, !llfi_index !524
  %10 = getelementptr inbounds %"struct.std::_Rb_tree_const_iterator", %"struct.std::_Rb_tree_const_iterator"* %7, i32 0, i32 0, !llfi_index !525
  store %"struct.std::_Rb_tree_node_base"* %2, %"struct.std::_Rb_tree_node_base"** %10, align 8, !llfi_index !526
  br label %11, !llfi_index !527

11:                                               ; preds = %17, %4
  %12 = call zeroext i1 @_ZStneRKSt23_Rb_tree_const_iteratorIiES2_(%"struct.std::_Rb_tree_const_iterator"* nonnull align 8 dereferenceable(8) %6, %"struct.std::_Rb_tree_const_iterator"* nonnull align 8 dereferenceable(8) %7) #2, !llfi_index !528
  br i1 %12, label %13, label %20, !llfi_index !529

13:                                               ; preds = %11
  %14 = call nonnull align 4 dereferenceable(4) i32* @_ZNKSt23_Rb_tree_const_iteratorIiEdeEv(%"struct.std::_Rb_tree_const_iterator"* nonnull align 8 dereferenceable(8) %6) #2, !llfi_index !530
  %15 = call nonnull align 8 dereferenceable(16) %"class.std::ostream_iterator"* @_ZNSt16ostream_iteratorIicSt11char_traitsIcEEdeEv(%"class.std::ostream_iterator"* nonnull align 8 dereferenceable(16) %3), !llfi_index !531
  %16 = call nonnull align 8 dereferenceable(16) %"class.std::ostream_iterator"* @_ZNSt16ostream_iteratorIicSt11char_traitsIcEEaSERKi(%"class.std::ostream_iterator"* nonnull align 8 dereferenceable(16) %15, i32* nonnull align 4 dereferenceable(4) %14), !llfi_index !532
  br label %17, !llfi_index !533

17:                                               ; preds = %13
  %18 = call nonnull align 8 dereferenceable(16) %"class.std::ostream_iterator"* @_ZNSt16ostream_iteratorIicSt11char_traitsIcEEppEv(%"class.std::ostream_iterator"* nonnull align 8 dereferenceable(16) %3), !llfi_index !534
  %19 = call nonnull align 8 dereferenceable(8) %"struct.std::_Rb_tree_const_iterator"* @_ZNSt23_Rb_tree_const_iteratorIiEppEv(%"struct.std::_Rb_tree_const_iterator"* nonnull align 8 dereferenceable(8) %6) #2, !llfi_index !535
  br label %11, !llvm.loop !536, !llfi_index !537

20:                                               ; preds = %11
  call void @_ZNSt16ostream_iteratorIicSt11char_traitsIcEEC2ERKS2_(%"class.std::ostream_iterator"* nonnull align 8 dereferenceable(16) %0, %"class.std::ostream_iterator"* nonnull align 8 dereferenceable(16) %3), !llfi_index !538
  ret void, !llfi_index !539
}

; Function Attrs: mustprogress noinline nounwind uwtable
define linkonce_odr dso_local zeroext i1 @_ZStneRKSt23_Rb_tree_const_iteratorIiES2_(%"struct.std::_Rb_tree_const_iterator"* nonnull align 8 dereferenceable(8) %0, %"struct.std::_Rb_tree_const_iterator"* nonnull align 8 dereferenceable(8) %1) #9 comdat {
  %3 = alloca %"struct.std::_Rb_tree_const_iterator"*, align 8, !llfi_index !540
  %4 = alloca %"struct.std::_Rb_tree_const_iterator"*, align 8, !llfi_index !541
  store %"struct.std::_Rb_tree_const_iterator"* %0, %"struct.std::_Rb_tree_const_iterator"** %3, align 8, !llfi_index !542
  store %"struct.std::_Rb_tree_const_iterator"* %1, %"struct.std::_Rb_tree_const_iterator"** %4, align 8, !llfi_index !543
  %5 = load %"struct.std::_Rb_tree_const_iterator"*, %"struct.std::_Rb_tree_const_iterator"** %3, align 8, !llfi_index !544
  %6 = getelementptr inbounds %"struct.std::_Rb_tree_const_iterator", %"struct.std::_Rb_tree_const_iterator"* %5, i32 0, i32 0, !llfi_index !545
  %7 = load %"struct.std::_Rb_tree_node_base"*, %"struct.std::_Rb_tree_node_base"** %6, align 8, !llfi_index !546
  %8 = load %"struct.std::_Rb_tree_const_iterator"*, %"struct.std::_Rb_tree_const_iterator"** %4, align 8, !llfi_index !547
  %9 = getelementptr inbounds %"struct.std::_Rb_tree_const_iterator", %"struct.std::_Rb_tree_const_iterator"* %8, i32 0, i32 0, !llfi_index !548
  %10 = load %"struct.std::_Rb_tree_node_base"*, %"struct.std::_Rb_tree_node_base"** %9, align 8, !llfi_index !549
  %11 = icmp ne %"struct.std::_Rb_tree_node_base"* %7, %10, !llfi_index !550
  ret i1 %11, !llfi_index !551
}

; Function Attrs: mustprogress noinline nounwind uwtable
define linkonce_odr dso_local nonnull align 4 dereferenceable(4) i32* @_ZNKSt23_Rb_tree_const_iteratorIiEdeEv(%"struct.std::_Rb_tree_const_iterator"* nonnull align 8 dereferenceable(8) %0) #9 comdat align 2 {
  %2 = alloca %"struct.std::_Rb_tree_const_iterator"*, align 8, !llfi_index !552
  store %"struct.std::_Rb_tree_const_iterator"* %0, %"struct.std::_Rb_tree_const_iterator"** %2, align 8, !llfi_index !553
  %3 = load %"struct.std::_Rb_tree_const_iterator"*, %"struct.std::_Rb_tree_const_iterator"** %2, align 8, !llfi_index !554
  %4 = getelementptr inbounds %"struct.std::_Rb_tree_const_iterator", %"struct.std::_Rb_tree_const_iterator"* %3, i32 0, i32 0, !llfi_index !555
  %5 = load %"struct.std::_Rb_tree_node_base"*, %"struct.std::_Rb_tree_node_base"** %4, align 8, !llfi_index !556
  %6 = bitcast %"struct.std::_Rb_tree_node_base"* %5 to %"struct.std::_Rb_tree_node"*, !llfi_index !557
  %7 = call i32* @_ZNKSt13_Rb_tree_nodeIiE9_M_valptrEv(%"struct.std::_Rb_tree_node"* nonnull align 8 dereferenceable(36) %6), !llfi_index !558
  ret i32* %7, !llfi_index !559
}

; Function Attrs: mustprogress noinline nounwind uwtable
define linkonce_odr dso_local nonnull align 8 dereferenceable(16) %"class.std::ostream_iterator"* @_ZNSt16ostream_iteratorIicSt11char_traitsIcEEdeEv(%"class.std::ostream_iterator"* nonnull align 8 dereferenceable(16) %0) #9 comdat align 2 {
  %2 = alloca %"class.std::ostream_iterator"*, align 8, !llfi_index !560
  store %"class.std::ostream_iterator"* %0, %"class.std::ostream_iterator"** %2, align 8, !llfi_index !561
  %3 = load %"class.std::ostream_iterator"*, %"class.std::ostream_iterator"** %2, align 8, !llfi_index !562
  ret %"class.std::ostream_iterator"* %3, !llfi_index !563
}

; Function Attrs: mustprogress noinline uwtable
define linkonce_odr dso_local nonnull align 8 dereferenceable(16) %"class.std::ostream_iterator"* @_ZNSt16ostream_iteratorIicSt11char_traitsIcEEaSERKi(%"class.std::ostream_iterator"* nonnull align 8 dereferenceable(16) %0, i32* nonnull align 4 dereferenceable(4) %1) #8 comdat align 2 {
  %3 = alloca %"class.std::ostream_iterator"*, align 8, !llfi_index !564
  %4 = alloca i32*, align 8, !llfi_index !565
  store %"class.std::ostream_iterator"* %0, %"class.std::ostream_iterator"** %3, align 8, !llfi_index !566
  store i32* %1, i32** %4, align 8, !llfi_index !567
  %5 = load %"class.std::ostream_iterator"*, %"class.std::ostream_iterator"** %3, align 8, !llfi_index !568
  %6 = getelementptr inbounds %"class.std::ostream_iterator", %"class.std::ostream_iterator"* %5, i32 0, i32 0, !llfi_index !569
  %7 = load %"class.std::basic_ostream"*, %"class.std::basic_ostream"** %6, align 8, !llfi_index !570
  %8 = load i32*, i32** %4, align 8, !llfi_index !571
  %9 = load i32, i32* %8, align 4, !llfi_index !572
  %10 = call nonnull align 8 dereferenceable(8) %"class.std::basic_ostream"* @_ZNSolsEi(%"class.std::basic_ostream"* nonnull align 8 dereferenceable(8) %7, i32 %9), !llfi_index !573
  %11 = getelementptr inbounds %"class.std::ostream_iterator", %"class.std::ostream_iterator"* %5, i32 0, i32 1, !llfi_index !574
  %12 = load i8*, i8** %11, align 8, !llfi_index !575
  %13 = icmp ne i8* %12, null, !llfi_index !576
  br i1 %13, label %14, label %20, !llfi_index !577

14:                                               ; preds = %2
  %15 = getelementptr inbounds %"class.std::ostream_iterator", %"class.std::ostream_iterator"* %5, i32 0, i32 0, !llfi_index !578
  %16 = load %"class.std::basic_ostream"*, %"class.std::basic_ostream"** %15, align 8, !llfi_index !579
  %17 = getelementptr inbounds %"class.std::ostream_iterator", %"class.std::ostream_iterator"* %5, i32 0, i32 1, !llfi_index !580
  %18 = load i8*, i8** %17, align 8, !llfi_index !581
  %19 = call nonnull align 8 dereferenceable(8) %"class.std::basic_ostream"* @_ZStlsISt11char_traitsIcEERSt13basic_ostreamIcT_ES5_PKc(%"class.std::basic_ostream"* nonnull align 8 dereferenceable(8) %16, i8* %18), !llfi_index !582
  br label %20, !llfi_index !583

20:                                               ; preds = %14, %2
  ret %"class.std::ostream_iterator"* %5, !llfi_index !584
}

; Function Attrs: mustprogress noinline nounwind uwtable
define linkonce_odr dso_local nonnull align 8 dereferenceable(16) %"class.std::ostream_iterator"* @_ZNSt16ostream_iteratorIicSt11char_traitsIcEEppEv(%"class.std::ostream_iterator"* nonnull align 8 dereferenceable(16) %0) #9 comdat align 2 {
  %2 = alloca %"class.std::ostream_iterator"*, align 8, !llfi_index !585
  store %"class.std::ostream_iterator"* %0, %"class.std::ostream_iterator"** %2, align 8, !llfi_index !586
  %3 = load %"class.std::ostream_iterator"*, %"class.std::ostream_iterator"** %2, align 8, !llfi_index !587
  ret %"class.std::ostream_iterator"* %3, !llfi_index !588
}

; Function Attrs: mustprogress noinline nounwind uwtable
define linkonce_odr dso_local nonnull align 8 dereferenceable(8) %"struct.std::_Rb_tree_const_iterator"* @_ZNSt23_Rb_tree_const_iteratorIiEppEv(%"struct.std::_Rb_tree_const_iterator"* nonnull align 8 dereferenceable(8) %0) #9 comdat align 2 {
  %2 = alloca %"struct.std::_Rb_tree_const_iterator"*, align 8, !llfi_index !589
  store %"struct.std::_Rb_tree_const_iterator"* %0, %"struct.std::_Rb_tree_const_iterator"** %2, align 8, !llfi_index !590
  %3 = load %"struct.std::_Rb_tree_const_iterator"*, %"struct.std::_Rb_tree_const_iterator"** %2, align 8, !llfi_index !591
  %4 = getelementptr inbounds %"struct.std::_Rb_tree_const_iterator", %"struct.std::_Rb_tree_const_iterator"* %3, i32 0, i32 0, !llfi_index !592
  %5 = load %"struct.std::_Rb_tree_node_base"*, %"struct.std::_Rb_tree_node_base"** %4, align 8, !llfi_index !593
  %6 = call %"struct.std::_Rb_tree_node_base"* @_ZSt18_Rb_tree_incrementPKSt18_Rb_tree_node_base(%"struct.std::_Rb_tree_node_base"* %5) #17, !llfi_index !594
  %7 = getelementptr inbounds %"struct.std::_Rb_tree_const_iterator", %"struct.std::_Rb_tree_const_iterator"* %3, i32 0, i32 0, !llfi_index !595
  store %"struct.std::_Rb_tree_node_base"* %6, %"struct.std::_Rb_tree_node_base"** %7, align 8, !llfi_index !596
  ret %"struct.std::_Rb_tree_const_iterator"* %3, !llfi_index !597
}

; Function Attrs: nounwind readonly willreturn
declare dso_local %"struct.std::_Rb_tree_node_base"* @_ZSt18_Rb_tree_incrementPKSt18_Rb_tree_node_base(%"struct.std::_Rb_tree_node_base"*) #12

declare dso_local nonnull align 8 dereferenceable(8) %"class.std::basic_ostream"* @_ZNSolsEi(%"class.std::basic_ostream"* nonnull align 8 dereferenceable(8), i32) #1

declare dso_local nonnull align 8 dereferenceable(8) %"class.std::basic_ostream"* @_ZStlsISt11char_traitsIcEERSt13basic_ostreamIcT_ES5_PKc(%"class.std::basic_ostream"* nonnull align 8 dereferenceable(8), i8*) #1

; Function Attrs: mustprogress noinline nounwind uwtable
define linkonce_odr dso_local i32* @_ZNKSt13_Rb_tree_nodeIiE9_M_valptrEv(%"struct.std::_Rb_tree_node"* nonnull align 8 dereferenceable(36) %0) #9 comdat align 2 {
  %2 = alloca %"struct.std::_Rb_tree_node"*, align 8, !llfi_index !598
  store %"struct.std::_Rb_tree_node"* %0, %"struct.std::_Rb_tree_node"** %2, align 8, !llfi_index !599
  %3 = load %"struct.std::_Rb_tree_node"*, %"struct.std::_Rb_tree_node"** %2, align 8, !llfi_index !600
  %4 = getelementptr inbounds %"struct.std::_Rb_tree_node", %"struct.std::_Rb_tree_node"* %3, i32 0, i32 1, !llfi_index !601
  %5 = call i32* @_ZNK9__gnu_cxx16__aligned_membufIiE6_M_ptrEv(%"struct.__gnu_cxx::__aligned_membuf"* nonnull align 4 dereferenceable(4) %4) #2, !llfi_index !602
  ret i32* %5, !llfi_index !603
}

; Function Attrs: mustprogress noinline nounwind uwtable
define linkonce_odr dso_local i32* @_ZNK9__gnu_cxx16__aligned_membufIiE6_M_ptrEv(%"struct.__gnu_cxx::__aligned_membuf"* nonnull align 4 dereferenceable(4) %0) #9 comdat align 2 {
  %2 = alloca %"struct.__gnu_cxx::__aligned_membuf"*, align 8, !llfi_index !604
  store %"struct.__gnu_cxx::__aligned_membuf"* %0, %"struct.__gnu_cxx::__aligned_membuf"** %2, align 8, !llfi_index !605
  %3 = load %"struct.__gnu_cxx::__aligned_membuf"*, %"struct.__gnu_cxx::__aligned_membuf"** %2, align 8, !llfi_index !606
  %4 = call i8* @_ZNK9__gnu_cxx16__aligned_membufIiE7_M_addrEv(%"struct.__gnu_cxx::__aligned_membuf"* nonnull align 4 dereferenceable(4) %3) #2, !llfi_index !607
  %5 = bitcast i8* %4 to i32*, !llfi_index !608
  ret i32* %5, !llfi_index !609
}

; Function Attrs: mustprogress noinline nounwind uwtable
define linkonce_odr dso_local i8* @_ZNK9__gnu_cxx16__aligned_membufIiE7_M_addrEv(%"struct.__gnu_cxx::__aligned_membuf"* nonnull align 4 dereferenceable(4) %0) #9 comdat align 2 {
  %2 = alloca %"struct.__gnu_cxx::__aligned_membuf"*, align 8, !llfi_index !610
  store %"struct.__gnu_cxx::__aligned_membuf"* %0, %"struct.__gnu_cxx::__aligned_membuf"** %2, align 8, !llfi_index !611
  %3 = load %"struct.__gnu_cxx::__aligned_membuf"*, %"struct.__gnu_cxx::__aligned_membuf"** %2, align 8, !llfi_index !612
  %4 = getelementptr inbounds %"struct.__gnu_cxx::__aligned_membuf", %"struct.__gnu_cxx::__aligned_membuf"* %3, i32 0, i32 0, !llfi_index !613
  %5 = bitcast [4 x i8]* %4 to i8*, !llfi_index !614
  ret i8* %5, !llfi_index !615
}

; Function Attrs: mustprogress noinline nounwind uwtable
define linkonce_odr dso_local %"struct.std::_Rb_tree_node_base"* @_ZNKSt8_Rb_treeIiiSt9_IdentityIiESt4lessIiESaIiEE3endEv(%"class.std::_Rb_tree"* nonnull align 8 dereferenceable(48) %0) #9 comdat align 2 {
  %2 = alloca %"struct.std::_Rb_tree_const_iterator", align 8, !llfi_index !616
  %3 = alloca %"class.std::_Rb_tree"*, align 8, !llfi_index !617
  store %"class.std::_Rb_tree"* %0, %"class.std::_Rb_tree"** %3, align 8, !llfi_index !618
  %4 = load %"class.std::_Rb_tree"*, %"class.std::_Rb_tree"** %3, align 8, !llfi_index !619
  %5 = getelementptr inbounds %"class.std::_Rb_tree", %"class.std::_Rb_tree"* %4, i32 0, i32 0, !llfi_index !620
  %6 = bitcast %"struct.std::_Rb_tree<int, int, std::_Identity<int>, std::less<int>>::_Rb_tree_impl"* %5 to i8*, !llfi_index !621
  %7 = getelementptr inbounds i8, i8* %6, i64 8, !llfi_index !622
  %8 = bitcast i8* %7 to %"struct.std::_Rb_tree_header"*, !llfi_index !623
  %9 = getelementptr inbounds %"struct.std::_Rb_tree_header", %"struct.std::_Rb_tree_header"* %8, i32 0, i32 0, !llfi_index !624
  call void @_ZNSt23_Rb_tree_const_iteratorIiEC2EPKSt18_Rb_tree_node_base(%"struct.std::_Rb_tree_const_iterator"* nonnull align 8 dereferenceable(8) %2, %"struct.std::_Rb_tree_node_base"* %9) #2, !llfi_index !625
  %10 = getelementptr inbounds %"struct.std::_Rb_tree_const_iterator", %"struct.std::_Rb_tree_const_iterator"* %2, i32 0, i32 0, !llfi_index !626
  %11 = load %"struct.std::_Rb_tree_node_base"*, %"struct.std::_Rb_tree_node_base"** %10, align 8, !llfi_index !627
  ret %"struct.std::_Rb_tree_node_base"* %11, !llfi_index !628
}

; Function Attrs: noinline nounwind uwtable
define linkonce_odr dso_local void @_ZNSt23_Rb_tree_const_iteratorIiEC2EPKSt18_Rb_tree_node_base(%"struct.std::_Rb_tree_const_iterator"* nonnull align 8 dereferenceable(8) %0, %"struct.std::_Rb_tree_node_base"* %1) unnamed_addr #5 comdat align 2 {
  %3 = alloca %"struct.std::_Rb_tree_const_iterator"*, align 8, !llfi_index !629
  %4 = alloca %"struct.std::_Rb_tree_node_base"*, align 8, !llfi_index !630
  store %"struct.std::_Rb_tree_const_iterator"* %0, %"struct.std::_Rb_tree_const_iterator"** %3, align 8, !llfi_index !631
  store %"struct.std::_Rb_tree_node_base"* %1, %"struct.std::_Rb_tree_node_base"** %4, align 8, !llfi_index !632
  %5 = load %"struct.std::_Rb_tree_const_iterator"*, %"struct.std::_Rb_tree_const_iterator"** %3, align 8, !llfi_index !633
  %6 = getelementptr inbounds %"struct.std::_Rb_tree_const_iterator", %"struct.std::_Rb_tree_const_iterator"* %5, i32 0, i32 0, !llfi_index !634
  %7 = load %"struct.std::_Rb_tree_node_base"*, %"struct.std::_Rb_tree_node_base"** %4, align 8, !llfi_index !635
  store %"struct.std::_Rb_tree_node_base"* %7, %"struct.std::_Rb_tree_node_base"** %6, align 8, !llfi_index !636
  ret void, !llfi_index !637
}

; Function Attrs: mustprogress noinline nounwind uwtable
define linkonce_odr dso_local %"struct.std::_Rb_tree_node_base"* @_ZNKSt8_Rb_treeIiiSt9_IdentityIiESt4lessIiESaIiEE5beginEv(%"class.std::_Rb_tree"* nonnull align 8 dereferenceable(48) %0) #9 comdat align 2 {
  %2 = alloca %"struct.std::_Rb_tree_const_iterator", align 8, !llfi_index !638
  %3 = alloca %"class.std::_Rb_tree"*, align 8, !llfi_index !639
  store %"class.std::_Rb_tree"* %0, %"class.std::_Rb_tree"** %3, align 8, !llfi_index !640
  %4 = load %"class.std::_Rb_tree"*, %"class.std::_Rb_tree"** %3, align 8, !llfi_index !641
  %5 = getelementptr inbounds %"class.std::_Rb_tree", %"class.std::_Rb_tree"* %4, i32 0, i32 0, !llfi_index !642
  %6 = bitcast %"struct.std::_Rb_tree<int, int, std::_Identity<int>, std::less<int>>::_Rb_tree_impl"* %5 to i8*, !llfi_index !643
  %7 = getelementptr inbounds i8, i8* %6, i64 8, !llfi_index !644
  %8 = bitcast i8* %7 to %"struct.std::_Rb_tree_header"*, !llfi_index !645
  %9 = getelementptr inbounds %"struct.std::_Rb_tree_header", %"struct.std::_Rb_tree_header"* %8, i32 0, i32 0, !llfi_index !646
  %10 = getelementptr inbounds %"struct.std::_Rb_tree_node_base", %"struct.std::_Rb_tree_node_base"* %9, i32 0, i32 2, !llfi_index !647
  %11 = load %"struct.std::_Rb_tree_node_base"*, %"struct.std::_Rb_tree_node_base"** %10, align 8, !llfi_index !648
  call void @_ZNSt23_Rb_tree_const_iteratorIiEC2EPKSt18_Rb_tree_node_base(%"struct.std::_Rb_tree_const_iterator"* nonnull align 8 dereferenceable(8) %2, %"struct.std::_Rb_tree_node_base"* %11) #2, !llfi_index !649
  %12 = getelementptr inbounds %"struct.std::_Rb_tree_const_iterator", %"struct.std::_Rb_tree_const_iterator"* %2, i32 0, i32 0, !llfi_index !650
  %13 = load %"struct.std::_Rb_tree_node_base"*, %"struct.std::_Rb_tree_node_base"** %12, align 8, !llfi_index !651
  ret %"struct.std::_Rb_tree_node_base"* %13, !llfi_index !652
}

; Function Attrs: mustprogress noinline uwtable
define linkonce_odr dso_local { %"struct.std::_Rb_tree_node_base"*, i8 } @_ZNSt8_Rb_treeIiiSt9_IdentityIiESt4lessIiESaIiEE16_M_insert_uniqueIRKiEESt4pairISt17_Rb_tree_iteratorIiEbEOT_(%"class.std::_Rb_tree"* nonnull align 8 dereferenceable(48) %0, i32* nonnull align 4 dereferenceable(4) %1) #8 comdat align 2 {
  %3 = alloca %"struct.std::pair", align 8, !llfi_index !653
  %4 = alloca %"class.std::_Rb_tree"*, align 8, !llfi_index !654
  %5 = alloca i32*, align 8, !llfi_index !655
  %6 = alloca %"struct.std::pair.4", align 8, !llfi_index !656
  %7 = alloca %"class.std::ios_base::Init", align 1, !llfi_index !657
  %8 = alloca %"struct.std::_Rb_tree<int, int, std::_Identity<int>, std::less<int>>::_Alloc_node", align 8, !llfi_index !658
  %9 = alloca %"struct.std::_Rb_tree_const_iterator", align 8, !llfi_index !659
  %10 = alloca i8, align 1, !llfi_index !660
  %11 = alloca %"struct.std::_Rb_tree_const_iterator", align 8, !llfi_index !661
  %12 = alloca i8, align 1, !llfi_index !662
  store %"class.std::_Rb_tree"* %0, %"class.std::_Rb_tree"** %4, align 8, !llfi_index !663
  store i32* %1, i32** %5, align 8, !llfi_index !664
  %13 = load %"class.std::_Rb_tree"*, %"class.std::_Rb_tree"** %4, align 8, !llfi_index !665
  %14 = load i32*, i32** %5, align 8, !llfi_index !666
  %15 = call nonnull align 4 dereferenceable(4) i32* @_ZNKSt9_IdentityIiEclERKi(%"class.std::ios_base::Init"* nonnull align 1 dereferenceable(1) %7, i32* nonnull align 4 dereferenceable(4) %14), !llfi_index !667
  %16 = call { %"struct.std::_Rb_tree_node_base"*, %"struct.std::_Rb_tree_node_base"* } @_ZNSt8_Rb_treeIiiSt9_IdentityIiESt4lessIiESaIiEE24_M_get_insert_unique_posERKi(%"class.std::_Rb_tree"* nonnull align 8 dereferenceable(48) %13, i32* nonnull align 4 dereferenceable(4) %15), !llfi_index !668
  %17 = bitcast %"struct.std::pair.4"* %6 to { %"struct.std::_Rb_tree_node_base"*, %"struct.std::_Rb_tree_node_base"* }*, !llfi_index !669
  %18 = getelementptr inbounds { %"struct.std::_Rb_tree_node_base"*, %"struct.std::_Rb_tree_node_base"* }, { %"struct.std::_Rb_tree_node_base"*, %"struct.std::_Rb_tree_node_base"* }* %17, i32 0, i32 0, !llfi_index !670
  %19 = extractvalue { %"struct.std::_Rb_tree_node_base"*, %"struct.std::_Rb_tree_node_base"* } %16, 0, !llfi_index !671
  store %"struct.std::_Rb_tree_node_base"* %19, %"struct.std::_Rb_tree_node_base"** %18, align 8, !llfi_index !672
  %20 = getelementptr inbounds { %"struct.std::_Rb_tree_node_base"*, %"struct.std::_Rb_tree_node_base"* }, { %"struct.std::_Rb_tree_node_base"*, %"struct.std::_Rb_tree_node_base"* }* %17, i32 0, i32 1, !llfi_index !673
  %21 = extractvalue { %"struct.std::_Rb_tree_node_base"*, %"struct.std::_Rb_tree_node_base"* } %16, 1, !llfi_index !674
  store %"struct.std::_Rb_tree_node_base"* %21, %"struct.std::_Rb_tree_node_base"** %20, align 8, !llfi_index !675
  %22 = getelementptr inbounds %"struct.std::pair.4", %"struct.std::pair.4"* %6, i32 0, i32 1, !llfi_index !676
  %23 = load %"struct.std::_Rb_tree_node_base"*, %"struct.std::_Rb_tree_node_base"** %22, align 8, !llfi_index !677
  %24 = icmp ne %"struct.std::_Rb_tree_node_base"* %23, null, !llfi_index !678
  br i1 %24, label %25, label %34, !llfi_index !679

25:                                               ; preds = %2
  call void @_ZNSt8_Rb_treeIiiSt9_IdentityIiESt4lessIiESaIiEE11_Alloc_nodeC2ERS5_(%"struct.std::_Rb_tree<int, int, std::_Identity<int>, std::less<int>>::_Alloc_node"* nonnull align 8 dereferenceable(8) %8, %"class.std::_Rb_tree"* nonnull align 8 dereferenceable(48) %13), !llfi_index !680
  %26 = getelementptr inbounds %"struct.std::pair.4", %"struct.std::pair.4"* %6, i32 0, i32 0, !llfi_index !681
  %27 = load %"struct.std::_Rb_tree_node_base"*, %"struct.std::_Rb_tree_node_base"** %26, align 8, !llfi_index !682
  %28 = getelementptr inbounds %"struct.std::pair.4", %"struct.std::pair.4"* %6, i32 0, i32 1, !llfi_index !683
  %29 = load %"struct.std::_Rb_tree_node_base"*, %"struct.std::_Rb_tree_node_base"** %28, align 8, !llfi_index !684
  %30 = load i32*, i32** %5, align 8, !llfi_index !685
  %31 = call nonnull align 4 dereferenceable(4) i32* @_ZSt7forwardIRKiEOT_RNSt16remove_referenceIS2_E4typeE(i32* nonnull align 4 dereferenceable(4) %30) #2, !llfi_index !686
  %32 = call %"struct.std::_Rb_tree_node_base"* @_ZNSt8_Rb_treeIiiSt9_IdentityIiESt4lessIiESaIiEE10_M_insert_IRKiNS5_11_Alloc_nodeEEESt17_Rb_tree_iteratorIiEPSt18_Rb_tree_node_baseSD_OT_RT0_(%"class.std::_Rb_tree"* nonnull align 8 dereferenceable(48) %13, %"struct.std::_Rb_tree_node_base"* %27, %"struct.std::_Rb_tree_node_base"* %29, i32* nonnull align 4 dereferenceable(4) %31, %"struct.std::_Rb_tree<int, int, std::_Identity<int>, std::less<int>>::_Alloc_node"* nonnull align 8 dereferenceable(8) %8), !llfi_index !687
  %33 = getelementptr inbounds %"struct.std::_Rb_tree_const_iterator", %"struct.std::_Rb_tree_const_iterator"* %9, i32 0, i32 0, !llfi_index !688
  store %"struct.std::_Rb_tree_node_base"* %32, %"struct.std::_Rb_tree_node_base"** %33, align 8, !llfi_index !689
  store i8 1, i8* %10, align 1, !llfi_index !690
  call void @_ZNSt4pairISt17_Rb_tree_iteratorIiEbEC2IS1_bLb1EEEOT_OT0_(%"struct.std::pair"* nonnull align 8 dereferenceable(9) %3, %"struct.std::_Rb_tree_const_iterator"* nonnull align 8 dereferenceable(8) %9, i8* nonnull align 1 dereferenceable(1) %10), !llfi_index !691
  br label %37, !llfi_index !692

34:                                               ; preds = %2
  %35 = getelementptr inbounds %"struct.std::pair.4", %"struct.std::pair.4"* %6, i32 0, i32 0, !llfi_index !693
  %36 = load %"struct.std::_Rb_tree_node_base"*, %"struct.std::_Rb_tree_node_base"** %35, align 8, !llfi_index !694
  call void @_ZNSt17_Rb_tree_iteratorIiEC2EPSt18_Rb_tree_node_base(%"struct.std::_Rb_tree_const_iterator"* nonnull align 8 dereferenceable(8) %11, %"struct.std::_Rb_tree_node_base"* %36) #2, !llfi_index !695
  store i8 0, i8* %12, align 1, !llfi_index !696
  call void @_ZNSt4pairISt17_Rb_tree_iteratorIiEbEC2IS1_bLb1EEEOT_OT0_(%"struct.std::pair"* nonnull align 8 dereferenceable(9) %3, %"struct.std::_Rb_tree_const_iterator"* nonnull align 8 dereferenceable(8) %11, i8* nonnull align 1 dereferenceable(1) %12), !llfi_index !697
  br label %37, !llfi_index !698

37:                                               ; preds = %34, %25
  %38 = bitcast %"struct.std::pair"* %3 to { %"struct.std::_Rb_tree_node_base"*, i8 }*, !llfi_index !699
  %39 = load { %"struct.std::_Rb_tree_node_base"*, i8 }, { %"struct.std::_Rb_tree_node_base"*, i8 }* %38, align 8, !llfi_index !700
  ret { %"struct.std::_Rb_tree_node_base"*, i8 } %39, !llfi_index !701
}

; Function Attrs: noinline nounwind uwtable
define linkonce_odr dso_local void @_ZNSt4pairISt23_Rb_tree_const_iteratorIiEbEC2IRSt17_Rb_tree_iteratorIiERbLb1EEEOT_OT0_(%"struct.std::pair"* nonnull align 8 dereferenceable(9) %0, %"struct.std::_Rb_tree_const_iterator"* nonnull align 8 dereferenceable(8) %1, i8* nonnull align 1 dereferenceable(1) %2) unnamed_addr #5 comdat align 2 {
  %4 = alloca %"struct.std::pair"*, align 8, !llfi_index !702
  %5 = alloca %"struct.std::_Rb_tree_const_iterator"*, align 8, !llfi_index !703
  %6 = alloca i8*, align 8, !llfi_index !704
  store %"struct.std::pair"* %0, %"struct.std::pair"** %4, align 8, !llfi_index !705
  store %"struct.std::_Rb_tree_const_iterator"* %1, %"struct.std::_Rb_tree_const_iterator"** %5, align 8, !llfi_index !706
  store i8* %2, i8** %6, align 8, !llfi_index !707
  %7 = load %"struct.std::pair"*, %"struct.std::pair"** %4, align 8, !llfi_index !708
  %8 = bitcast %"struct.std::pair"* %7 to %"class.std::ios_base::Init"*, !llfi_index !709
  %9 = getelementptr inbounds %"struct.std::pair", %"struct.std::pair"* %7, i32 0, i32 0, !llfi_index !710
  %10 = load %"struct.std::_Rb_tree_const_iterator"*, %"struct.std::_Rb_tree_const_iterator"** %5, align 8, !llfi_index !711
  %11 = call nonnull align 8 dereferenceable(8) %"struct.std::_Rb_tree_const_iterator"* @_ZSt7forwardIRSt17_Rb_tree_iteratorIiEEOT_RNSt16remove_referenceIS3_E4typeE(%"struct.std::_Rb_tree_const_iterator"* nonnull align 8 dereferenceable(8) %10) #2, !llfi_index !712
  call void @_ZNSt23_Rb_tree_const_iteratorIiEC2ERKSt17_Rb_tree_iteratorIiE(%"struct.std::_Rb_tree_const_iterator"* nonnull align 8 dereferenceable(8) %9, %"struct.std::_Rb_tree_const_iterator"* nonnull align 8 dereferenceable(8) %11) #2, !llfi_index !713
  %12 = getelementptr inbounds %"struct.std::pair", %"struct.std::pair"* %7, i32 0, i32 1, !llfi_index !714
  %13 = load i8*, i8** %6, align 8, !llfi_index !715
  %14 = call nonnull align 1 dereferenceable(1) i8* @_ZSt7forwardIRbEOT_RNSt16remove_referenceIS1_E4typeE(i8* nonnull align 1 dereferenceable(1) %13) #2, !llfi_index !716
  %15 = load i8, i8* %14, align 1, !llfi_index !717
  %16 = trunc i8 %15 to i1, !llfi_index !718
  %17 = zext i1 %16 to i8, !llfi_index !719
  store i8 %17, i8* %12, align 8, !llfi_index !720
  ret void, !llfi_index !721
}

; Function Attrs: mustprogress noinline nounwind uwtable
define linkonce_odr dso_local nonnull align 8 dereferenceable(8) %"struct.std::_Rb_tree_const_iterator"* @_ZSt7forwardIRSt17_Rb_tree_iteratorIiEEOT_RNSt16remove_referenceIS3_E4typeE(%"struct.std::_Rb_tree_const_iterator"* nonnull align 8 dereferenceable(8) %0) #9 comdat {
  %2 = alloca %"struct.std::_Rb_tree_const_iterator"*, align 8, !llfi_index !722
  store %"struct.std::_Rb_tree_const_iterator"* %0, %"struct.std::_Rb_tree_const_iterator"** %2, align 8, !llfi_index !723
  %3 = load %"struct.std::_Rb_tree_const_iterator"*, %"struct.std::_Rb_tree_const_iterator"** %2, align 8, !llfi_index !724
  ret %"struct.std::_Rb_tree_const_iterator"* %3, !llfi_index !725
}

; Function Attrs: noinline nounwind uwtable
define linkonce_odr dso_local void @_ZNSt23_Rb_tree_const_iteratorIiEC2ERKSt17_Rb_tree_iteratorIiE(%"struct.std::_Rb_tree_const_iterator"* nonnull align 8 dereferenceable(8) %0, %"struct.std::_Rb_tree_const_iterator"* nonnull align 8 dereferenceable(8) %1) unnamed_addr #5 comdat align 2 {
  %3 = alloca %"struct.std::_Rb_tree_const_iterator"*, align 8, !llfi_index !726
  %4 = alloca %"struct.std::_Rb_tree_const_iterator"*, align 8, !llfi_index !727
  store %"struct.std::_Rb_tree_const_iterator"* %0, %"struct.std::_Rb_tree_const_iterator"** %3, align 8, !llfi_index !728
  store %"struct.std::_Rb_tree_const_iterator"* %1, %"struct.std::_Rb_tree_const_iterator"** %4, align 8, !llfi_index !729
  %5 = load %"struct.std::_Rb_tree_const_iterator"*, %"struct.std::_Rb_tree_const_iterator"** %3, align 8, !llfi_index !730
  %6 = getelementptr inbounds %"struct.std::_Rb_tree_const_iterator", %"struct.std::_Rb_tree_const_iterator"* %5, i32 0, i32 0, !llfi_index !731
  %7 = load %"struct.std::_Rb_tree_const_iterator"*, %"struct.std::_Rb_tree_const_iterator"** %4, align 8, !llfi_index !732
  %8 = getelementptr inbounds %"struct.std::_Rb_tree_const_iterator", %"struct.std::_Rb_tree_const_iterator"* %7, i32 0, i32 0, !llfi_index !733
  %9 = load %"struct.std::_Rb_tree_node_base"*, %"struct.std::_Rb_tree_node_base"** %8, align 8, !llfi_index !734
  store %"struct.std::_Rb_tree_node_base"* %9, %"struct.std::_Rb_tree_node_base"** %6, align 8, !llfi_index !735
  ret void, !llfi_index !736
}

; Function Attrs: mustprogress noinline nounwind uwtable
define linkonce_odr dso_local nonnull align 1 dereferenceable(1) i8* @_ZSt7forwardIRbEOT_RNSt16remove_referenceIS1_E4typeE(i8* nonnull align 1 dereferenceable(1) %0) #9 comdat {
  %2 = alloca i8*, align 8, !llfi_index !737
  store i8* %0, i8** %2, align 8, !llfi_index !738
  %3 = load i8*, i8** %2, align 8, !llfi_index !739
  ret i8* %3, !llfi_index !740
}

; Function Attrs: mustprogress noinline nounwind uwtable
define linkonce_odr dso_local nonnull align 4 dereferenceable(4) i32* @_ZNKSt9_IdentityIiEclERKi(%"class.std::ios_base::Init"* nonnull align 1 dereferenceable(1) %0, i32* nonnull align 4 dereferenceable(4) %1) #9 comdat align 2 {
  %3 = alloca %"class.std::ios_base::Init"*, align 8, !llfi_index !741
  %4 = alloca i32*, align 8, !llfi_index !742
  store %"class.std::ios_base::Init"* %0, %"class.std::ios_base::Init"** %3, align 8, !llfi_index !743
  store i32* %1, i32** %4, align 8, !llfi_index !744
  %5 = load %"class.std::ios_base::Init"*, %"class.std::ios_base::Init"** %3, align 8, !llfi_index !745
  %6 = load i32*, i32** %4, align 8, !llfi_index !746
  ret i32* %6, !llfi_index !747
}

; Function Attrs: mustprogress noinline uwtable
define linkonce_odr dso_local { %"struct.std::_Rb_tree_node_base"*, %"struct.std::_Rb_tree_node_base"* } @_ZNSt8_Rb_treeIiiSt9_IdentityIiESt4lessIiESaIiEE24_M_get_insert_unique_posERKi(%"class.std::_Rb_tree"* nonnull align 8 dereferenceable(48) %0, i32* nonnull align 4 dereferenceable(4) %1) #8 comdat align 2 {
  %3 = alloca %"struct.std::pair.4", align 8, !llfi_index !748
  %4 = alloca %"class.std::_Rb_tree"*, align 8, !llfi_index !749
  %5 = alloca i32*, align 8, !llfi_index !750
  %6 = alloca %"struct.std::_Rb_tree_node"*, align 8, !llfi_index !751
  %7 = alloca %"struct.std::_Rb_tree_node_base"*, align 8, !llfi_index !752
  %8 = alloca i8, align 1, !llfi_index !753
  %9 = alloca %"struct.std::_Rb_tree_const_iterator", align 8, !llfi_index !754
  %10 = alloca %"struct.std::_Rb_tree_const_iterator", align 8, !llfi_index !755
  %11 = alloca %"struct.std::_Rb_tree_node_base"*, align 8, !llfi_index !756
  store %"class.std::_Rb_tree"* %0, %"class.std::_Rb_tree"** %4, align 8, !llfi_index !757
  store i32* %1, i32** %5, align 8, !llfi_index !758
  %12 = load %"class.std::_Rb_tree"*, %"class.std::_Rb_tree"** %4, align 8, !llfi_index !759
  %13 = call %"struct.std::_Rb_tree_node"* @_ZNSt8_Rb_treeIiiSt9_IdentityIiESt4lessIiESaIiEE8_M_beginEv(%"class.std::_Rb_tree"* nonnull align 8 dereferenceable(48) %12) #2, !llfi_index !760
  store %"struct.std::_Rb_tree_node"* %13, %"struct.std::_Rb_tree_node"** %6, align 8, !llfi_index !761
  %14 = call %"struct.std::_Rb_tree_node_base"* @_ZNSt8_Rb_treeIiiSt9_IdentityIiESt4lessIiESaIiEE6_M_endEv(%"class.std::_Rb_tree"* nonnull align 8 dereferenceable(48) %12) #2, !llfi_index !762
  store %"struct.std::_Rb_tree_node_base"* %14, %"struct.std::_Rb_tree_node_base"** %7, align 8, !llfi_index !763
  store i8 1, i8* %8, align 1, !llfi_index !764
  br label %15, !llfi_index !765

15:                                               ; preds = %39, %2
  %16 = load %"struct.std::_Rb_tree_node"*, %"struct.std::_Rb_tree_node"** %6, align 8, !llfi_index !766
  %17 = icmp ne %"struct.std::_Rb_tree_node"* %16, null, !llfi_index !767
  br i1 %17, label %18, label %41, !llfi_index !768

18:                                               ; preds = %15
  %19 = load %"struct.std::_Rb_tree_node"*, %"struct.std::_Rb_tree_node"** %6, align 8, !llfi_index !769
  %20 = bitcast %"struct.std::_Rb_tree_node"* %19 to %"struct.std::_Rb_tree_node_base"*, !llfi_index !770
  store %"struct.std::_Rb_tree_node_base"* %20, %"struct.std::_Rb_tree_node_base"** %7, align 8, !llfi_index !771
  %21 = getelementptr inbounds %"class.std::_Rb_tree", %"class.std::_Rb_tree"* %12, i32 0, i32 0, !llfi_index !772
  %22 = bitcast %"struct.std::_Rb_tree<int, int, std::_Identity<int>, std::less<int>>::_Rb_tree_impl"* %21 to %"struct.std::_Rb_tree_key_compare"*, !llfi_index !773
  %23 = getelementptr inbounds %"struct.std::_Rb_tree_key_compare", %"struct.std::_Rb_tree_key_compare"* %22, i32 0, i32 0, !llfi_index !774
  %24 = load i32*, i32** %5, align 8, !llfi_index !775
  %25 = load %"struct.std::_Rb_tree_node"*, %"struct.std::_Rb_tree_node"** %6, align 8, !llfi_index !776
  %26 = call nonnull align 4 dereferenceable(4) i32* @_ZNSt8_Rb_treeIiiSt9_IdentityIiESt4lessIiESaIiEE6_S_keyEPKSt13_Rb_tree_nodeIiE(%"struct.std::_Rb_tree_node"* %25), !llfi_index !777
  %27 = call zeroext i1 @_ZNKSt4lessIiEclERKiS2_(%"class.std::ios_base::Init"* nonnull align 1 dereferenceable(1) %23, i32* nonnull align 4 dereferenceable(4) %24, i32* nonnull align 4 dereferenceable(4) %26), !llfi_index !778
  %28 = zext i1 %27 to i8, !llfi_index !779
  store i8 %28, i8* %8, align 1, !llfi_index !780
  %29 = load i8, i8* %8, align 1, !llfi_index !781
  %30 = trunc i8 %29 to i1, !llfi_index !782
  br i1 %30, label %31, label %35, !llfi_index !783

31:                                               ; preds = %18
  %32 = load %"struct.std::_Rb_tree_node"*, %"struct.std::_Rb_tree_node"** %6, align 8, !llfi_index !784
  %33 = bitcast %"struct.std::_Rb_tree_node"* %32 to %"struct.std::_Rb_tree_node_base"*, !llfi_index !785
  %34 = call %"struct.std::_Rb_tree_node"* @_ZNSt8_Rb_treeIiiSt9_IdentityIiESt4lessIiESaIiEE7_S_leftEPSt18_Rb_tree_node_base(%"struct.std::_Rb_tree_node_base"* %33) #2, !llfi_index !786
  br label %39, !llfi_index !787

35:                                               ; preds = %18
  %36 = load %"struct.std::_Rb_tree_node"*, %"struct.std::_Rb_tree_node"** %6, align 8, !llfi_index !788
  %37 = bitcast %"struct.std::_Rb_tree_node"* %36 to %"struct.std::_Rb_tree_node_base"*, !llfi_index !789
  %38 = call %"struct.std::_Rb_tree_node"* @_ZNSt8_Rb_treeIiiSt9_IdentityIiESt4lessIiESaIiEE8_S_rightEPSt18_Rb_tree_node_base(%"struct.std::_Rb_tree_node_base"* %37) #2, !llfi_index !790
  br label %39, !llfi_index !791

39:                                               ; preds = %35, %31
  %40 = phi %"struct.std::_Rb_tree_node"* [ %34, %31 ], [ %38, %35 ], !llfi_index !792
  store %"struct.std::_Rb_tree_node"* %40, %"struct.std::_Rb_tree_node"** %6, align 8, !llfi_index !793
  br label %15, !llvm.loop !794, !llfi_index !795

41:                                               ; preds = %15
  %42 = load %"struct.std::_Rb_tree_node_base"*, %"struct.std::_Rb_tree_node_base"** %7, align 8, !llfi_index !796
  call void @_ZNSt17_Rb_tree_iteratorIiEC2EPSt18_Rb_tree_node_base(%"struct.std::_Rb_tree_const_iterator"* nonnull align 8 dereferenceable(8) %9, %"struct.std::_Rb_tree_node_base"* %42) #2, !llfi_index !797
  %43 = load i8, i8* %8, align 1, !llfi_index !798
  %44 = trunc i8 %43 to i1, !llfi_index !799
  br i1 %44, label %45, label %53, !llfi_index !800

45:                                               ; preds = %41
  %46 = call %"struct.std::_Rb_tree_node_base"* @_ZNSt8_Rb_treeIiiSt9_IdentityIiESt4lessIiESaIiEE5beginEv(%"class.std::_Rb_tree"* nonnull align 8 dereferenceable(48) %12) #2, !llfi_index !801
  %47 = getelementptr inbounds %"struct.std::_Rb_tree_const_iterator", %"struct.std::_Rb_tree_const_iterator"* %10, i32 0, i32 0, !llfi_index !802
  store %"struct.std::_Rb_tree_node_base"* %46, %"struct.std::_Rb_tree_node_base"** %47, align 8, !llfi_index !803
  %48 = call zeroext i1 @_ZSteqRKSt17_Rb_tree_iteratorIiES2_(%"struct.std::_Rb_tree_const_iterator"* nonnull align 8 dereferenceable(8) %9, %"struct.std::_Rb_tree_const_iterator"* nonnull align 8 dereferenceable(8) %10) #2, !llfi_index !804
  br i1 %48, label %49, label %50, !llfi_index !805

49:                                               ; preds = %45
  call void @_ZNSt4pairIPSt18_Rb_tree_node_baseS1_EC2IRPSt13_Rb_tree_nodeIiERS1_Lb1EEEOT_OT0_(%"struct.std::pair.4"* nonnull align 8 dereferenceable(16) %3, %"struct.std::_Rb_tree_node"** nonnull align 8 dereferenceable(8) %6, %"struct.std::_Rb_tree_node_base"** nonnull align 8 dereferenceable(8) %7), !llfi_index !806
  br label %65, !llfi_index !807

50:                                               ; preds = %45
  %51 = call nonnull align 8 dereferenceable(8) %"struct.std::_Rb_tree_const_iterator"* @_ZNSt17_Rb_tree_iteratorIiEmmEv(%"struct.std::_Rb_tree_const_iterator"* nonnull align 8 dereferenceable(8) %9) #2, !llfi_index !808
  br label %52, !llfi_index !809

52:                                               ; preds = %50
  br label %53, !llfi_index !810

53:                                               ; preds = %52, %41
  %54 = getelementptr inbounds %"class.std::_Rb_tree", %"class.std::_Rb_tree"* %12, i32 0, i32 0, !llfi_index !811
  %55 = bitcast %"struct.std::_Rb_tree<int, int, std::_Identity<int>, std::less<int>>::_Rb_tree_impl"* %54 to %"struct.std::_Rb_tree_key_compare"*, !llfi_index !812
  %56 = getelementptr inbounds %"struct.std::_Rb_tree_key_compare", %"struct.std::_Rb_tree_key_compare"* %55, i32 0, i32 0, !llfi_index !813
  %57 = getelementptr inbounds %"struct.std::_Rb_tree_const_iterator", %"struct.std::_Rb_tree_const_iterator"* %9, i32 0, i32 0, !llfi_index !814
  %58 = load %"struct.std::_Rb_tree_node_base"*, %"struct.std::_Rb_tree_node_base"** %57, align 8, !llfi_index !815
  %59 = call nonnull align 4 dereferenceable(4) i32* @_ZNSt8_Rb_treeIiiSt9_IdentityIiESt4lessIiESaIiEE6_S_keyEPKSt18_Rb_tree_node_base(%"struct.std::_Rb_tree_node_base"* %58), !llfi_index !816
  %60 = load i32*, i32** %5, align 8, !llfi_index !817
  %61 = call zeroext i1 @_ZNKSt4lessIiEclERKiS2_(%"class.std::ios_base::Init"* nonnull align 1 dereferenceable(1) %56, i32* nonnull align 4 dereferenceable(4) %59, i32* nonnull align 4 dereferenceable(4) %60), !llfi_index !818
  br i1 %61, label %62, label %63, !llfi_index !819

62:                                               ; preds = %53
  call void @_ZNSt4pairIPSt18_Rb_tree_node_baseS1_EC2IRPSt13_Rb_tree_nodeIiERS1_Lb1EEEOT_OT0_(%"struct.std::pair.4"* nonnull align 8 dereferenceable(16) %3, %"struct.std::_Rb_tree_node"** nonnull align 8 dereferenceable(8) %6, %"struct.std::_Rb_tree_node_base"** nonnull align 8 dereferenceable(8) %7), !llfi_index !820
  br label %65, !llfi_index !821

63:                                               ; preds = %53
  %64 = getelementptr inbounds %"struct.std::_Rb_tree_const_iterator", %"struct.std::_Rb_tree_const_iterator"* %9, i32 0, i32 0, !llfi_index !822
  store %"struct.std::_Rb_tree_node_base"* null, %"struct.std::_Rb_tree_node_base"** %11, align 8, !llfi_index !823
  call void @_ZNSt4pairIPSt18_Rb_tree_node_baseS1_EC2IRS1_Lb1EEEOT_RKS1_(%"struct.std::pair.4"* nonnull align 8 dereferenceable(16) %3, %"struct.std::_Rb_tree_node_base"** nonnull align 8 dereferenceable(8) %64, %"struct.std::_Rb_tree_node_base"** nonnull align 8 dereferenceable(8) %11), !llfi_index !824
  br label %65, !llfi_index !825

65:                                               ; preds = %63, %62, %49
  %66 = bitcast %"struct.std::pair.4"* %3 to { %"struct.std::_Rb_tree_node_base"*, %"struct.std::_Rb_tree_node_base"* }*, !llfi_index !826
  %67 = load { %"struct.std::_Rb_tree_node_base"*, %"struct.std::_Rb_tree_node_base"* }, { %"struct.std::_Rb_tree_node_base"*, %"struct.std::_Rb_tree_node_base"* }* %66, align 8, !llfi_index !827
  ret { %"struct.std::_Rb_tree_node_base"*, %"struct.std::_Rb_tree_node_base"* } %67, !llfi_index !828
}

; Function Attrs: noinline nounwind uwtable
define linkonce_odr dso_local void @_ZNSt8_Rb_treeIiiSt9_IdentityIiESt4lessIiESaIiEE11_Alloc_nodeC2ERS5_(%"struct.std::_Rb_tree<int, int, std::_Identity<int>, std::less<int>>::_Alloc_node"* nonnull align 8 dereferenceable(8) %0, %"class.std::_Rb_tree"* nonnull align 8 dereferenceable(48) %1) unnamed_addr #5 comdat align 2 {
  %3 = alloca %"struct.std::_Rb_tree<int, int, std::_Identity<int>, std::less<int>>::_Alloc_node"*, align 8, !llfi_index !829
  %4 = alloca %"class.std::_Rb_tree"*, align 8, !llfi_index !830
  store %"struct.std::_Rb_tree<int, int, std::_Identity<int>, std::less<int>>::_Alloc_node"* %0, %"struct.std::_Rb_tree<int, int, std::_Identity<int>, std::less<int>>::_Alloc_node"** %3, align 8, !llfi_index !831
  store %"class.std::_Rb_tree"* %1, %"class.std::_Rb_tree"** %4, align 8, !llfi_index !832
  %5 = load %"struct.std::_Rb_tree<int, int, std::_Identity<int>, std::less<int>>::_Alloc_node"*, %"struct.std::_Rb_tree<int, int, std::_Identity<int>, std::less<int>>::_Alloc_node"** %3, align 8, !llfi_index !833
  %6 = getelementptr inbounds %"struct.std::_Rb_tree<int, int, std::_Identity<int>, std::less<int>>::_Alloc_node", %"struct.std::_Rb_tree<int, int, std::_Identity<int>, std::less<int>>::_Alloc_node"* %5, i32 0, i32 0, !llfi_index !834
  %7 = load %"class.std::_Rb_tree"*, %"class.std::_Rb_tree"** %4, align 8, !llfi_index !835
  store %"class.std::_Rb_tree"* %7, %"class.std::_Rb_tree"** %6, align 8, !llfi_index !836
  ret void, !llfi_index !837
}

; Function Attrs: mustprogress noinline nounwind uwtable
define linkonce_odr dso_local nonnull align 4 dereferenceable(4) i32* @_ZSt7forwardIRKiEOT_RNSt16remove_referenceIS2_E4typeE(i32* nonnull align 4 dereferenceable(4) %0) #9 comdat {
  %2 = alloca i32*, align 8, !llfi_index !838
  store i32* %0, i32** %2, align 8, !llfi_index !839
  %3 = load i32*, i32** %2, align 8, !llfi_index !840
  ret i32* %3, !llfi_index !841
}

; Function Attrs: mustprogress noinline uwtable
define linkonce_odr dso_local %"struct.std::_Rb_tree_node_base"* @_ZNSt8_Rb_treeIiiSt9_IdentityIiESt4lessIiESaIiEE10_M_insert_IRKiNS5_11_Alloc_nodeEEESt17_Rb_tree_iteratorIiEPSt18_Rb_tree_node_baseSD_OT_RT0_(%"class.std::_Rb_tree"* nonnull align 8 dereferenceable(48) %0, %"struct.std::_Rb_tree_node_base"* %1, %"struct.std::_Rb_tree_node_base"* %2, i32* nonnull align 4 dereferenceable(4) %3, %"struct.std::_Rb_tree<int, int, std::_Identity<int>, std::less<int>>::_Alloc_node"* nonnull align 8 dereferenceable(8) %4) #8 comdat align 2 {
  %6 = alloca %"struct.std::_Rb_tree_const_iterator", align 8, !llfi_index !842
  %7 = alloca %"class.std::_Rb_tree"*, align 8, !llfi_index !843
  %8 = alloca %"struct.std::_Rb_tree_node_base"*, align 8, !llfi_index !844
  %9 = alloca %"struct.std::_Rb_tree_node_base"*, align 8, !llfi_index !845
  %10 = alloca i32*, align 8, !llfi_index !846
  %11 = alloca %"struct.std::_Rb_tree<int, int, std::_Identity<int>, std::less<int>>::_Alloc_node"*, align 8, !llfi_index !847
  %12 = alloca i8, align 1, !llfi_index !848
  %13 = alloca %"class.std::ios_base::Init", align 1, !llfi_index !849
  %14 = alloca %"struct.std::_Rb_tree_node"*, align 8, !llfi_index !850
  store %"class.std::_Rb_tree"* %0, %"class.std::_Rb_tree"** %7, align 8, !llfi_index !851
  store %"struct.std::_Rb_tree_node_base"* %1, %"struct.std::_Rb_tree_node_base"** %8, align 8, !llfi_index !852
  store %"struct.std::_Rb_tree_node_base"* %2, %"struct.std::_Rb_tree_node_base"** %9, align 8, !llfi_index !853
  store i32* %3, i32** %10, align 8, !llfi_index !854
  store %"struct.std::_Rb_tree<int, int, std::_Identity<int>, std::less<int>>::_Alloc_node"* %4, %"struct.std::_Rb_tree<int, int, std::_Identity<int>, std::less<int>>::_Alloc_node"** %11, align 8, !llfi_index !855
  %15 = load %"class.std::_Rb_tree"*, %"class.std::_Rb_tree"** %7, align 8, !llfi_index !856
  %16 = load %"struct.std::_Rb_tree_node_base"*, %"struct.std::_Rb_tree_node_base"** %8, align 8, !llfi_index !857
  %17 = icmp ne %"struct.std::_Rb_tree_node_base"* %16, null, !llfi_index !858
  br i1 %17, label %31, label %18, !llfi_index !859

18:                                               ; preds = %5
  %19 = load %"struct.std::_Rb_tree_node_base"*, %"struct.std::_Rb_tree_node_base"** %9, align 8, !llfi_index !860
  %20 = call %"struct.std::_Rb_tree_node_base"* @_ZNSt8_Rb_treeIiiSt9_IdentityIiESt4lessIiESaIiEE6_M_endEv(%"class.std::_Rb_tree"* nonnull align 8 dereferenceable(48) %15) #2, !llfi_index !861
  %21 = icmp eq %"struct.std::_Rb_tree_node_base"* %19, %20, !llfi_index !862
  br i1 %21, label %31, label %22, !llfi_index !863

22:                                               ; preds = %18
  %23 = getelementptr inbounds %"class.std::_Rb_tree", %"class.std::_Rb_tree"* %15, i32 0, i32 0, !llfi_index !864
  %24 = bitcast %"struct.std::_Rb_tree<int, int, std::_Identity<int>, std::less<int>>::_Rb_tree_impl"* %23 to %"struct.std::_Rb_tree_key_compare"*, !llfi_index !865
  %25 = getelementptr inbounds %"struct.std::_Rb_tree_key_compare", %"struct.std::_Rb_tree_key_compare"* %24, i32 0, i32 0, !llfi_index !866
  %26 = load i32*, i32** %10, align 8, !llfi_index !867
  %27 = call nonnull align 4 dereferenceable(4) i32* @_ZNKSt9_IdentityIiEclERKi(%"class.std::ios_base::Init"* nonnull align 1 dereferenceable(1) %13, i32* nonnull align 4 dereferenceable(4) %26), !llfi_index !868
  %28 = load %"struct.std::_Rb_tree_node_base"*, %"struct.std::_Rb_tree_node_base"** %9, align 8, !llfi_index !869
  %29 = call nonnull align 4 dereferenceable(4) i32* @_ZNSt8_Rb_treeIiiSt9_IdentityIiESt4lessIiESaIiEE6_S_keyEPKSt18_Rb_tree_node_base(%"struct.std::_Rb_tree_node_base"* %28), !llfi_index !870
  %30 = call zeroext i1 @_ZNKSt4lessIiEclERKiS2_(%"class.std::ios_base::Init"* nonnull align 1 dereferenceable(1) %25, i32* nonnull align 4 dereferenceable(4) %27, i32* nonnull align 4 dereferenceable(4) %29), !llfi_index !871
  br label %31, !llfi_index !872

31:                                               ; preds = %22, %18, %5
  %32 = phi i1 [ true, %18 ], [ true, %5 ], [ %30, %22 ], !llfi_index !873
  %33 = zext i1 %32 to i8, !llfi_index !874
  store i8 %33, i8* %12, align 1, !llfi_index !875
  %34 = load %"struct.std::_Rb_tree<int, int, std::_Identity<int>, std::less<int>>::_Alloc_node"*, %"struct.std::_Rb_tree<int, int, std::_Identity<int>, std::less<int>>::_Alloc_node"** %11, align 8, !llfi_index !876
  %35 = load i32*, i32** %10, align 8, !llfi_index !877
  %36 = call nonnull align 4 dereferenceable(4) i32* @_ZSt7forwardIRKiEOT_RNSt16remove_referenceIS2_E4typeE(i32* nonnull align 4 dereferenceable(4) %35) #2, !llfi_index !878
  %37 = call %"struct.std::_Rb_tree_node"* @_ZNKSt8_Rb_treeIiiSt9_IdentityIiESt4lessIiESaIiEE11_Alloc_nodeclIRKiEEPSt13_Rb_tree_nodeIiEOT_(%"struct.std::_Rb_tree<int, int, std::_Identity<int>, std::less<int>>::_Alloc_node"* nonnull align 8 dereferenceable(8) %34, i32* nonnull align 4 dereferenceable(4) %36), !llfi_index !879
  store %"struct.std::_Rb_tree_node"* %37, %"struct.std::_Rb_tree_node"** %14, align 8, !llfi_index !880
  %38 = load i8, i8* %12, align 1, !llfi_index !881
  %39 = trunc i8 %38 to i1, !llfi_index !882
  %40 = load %"struct.std::_Rb_tree_node"*, %"struct.std::_Rb_tree_node"** %14, align 8, !llfi_index !883
  %41 = bitcast %"struct.std::_Rb_tree_node"* %40 to %"struct.std::_Rb_tree_node_base"*, !llfi_index !884
  %42 = load %"struct.std::_Rb_tree_node_base"*, %"struct.std::_Rb_tree_node_base"** %9, align 8, !llfi_index !885
  %43 = getelementptr inbounds %"class.std::_Rb_tree", %"class.std::_Rb_tree"* %15, i32 0, i32 0, !llfi_index !886
  %44 = bitcast %"struct.std::_Rb_tree<int, int, std::_Identity<int>, std::less<int>>::_Rb_tree_impl"* %43 to i8*, !llfi_index !887
  %45 = getelementptr inbounds i8, i8* %44, i64 8, !llfi_index !888
  %46 = bitcast i8* %45 to %"struct.std::_Rb_tree_header"*, !llfi_index !889
  %47 = getelementptr inbounds %"struct.std::_Rb_tree_header", %"struct.std::_Rb_tree_header"* %46, i32 0, i32 0, !llfi_index !890
  call void @_ZSt29_Rb_tree_insert_and_rebalancebPSt18_Rb_tree_node_baseS0_RS_(i1 zeroext %39, %"struct.std::_Rb_tree_node_base"* %41, %"struct.std::_Rb_tree_node_base"* %42, %"struct.std::_Rb_tree_node_base"* nonnull align 8 dereferenceable(32) %47) #2, !llfi_index !891
  %48 = getelementptr inbounds %"class.std::_Rb_tree", %"class.std::_Rb_tree"* %15, i32 0, i32 0, !llfi_index !892
  %49 = bitcast %"struct.std::_Rb_tree<int, int, std::_Identity<int>, std::less<int>>::_Rb_tree_impl"* %48 to i8*, !llfi_index !893
  %50 = getelementptr inbounds i8, i8* %49, i64 8, !llfi_index !894
  %51 = bitcast i8* %50 to %"struct.std::_Rb_tree_header"*, !llfi_index !895
  %52 = getelementptr inbounds %"struct.std::_Rb_tree_header", %"struct.std::_Rb_tree_header"* %51, i32 0, i32 1, !llfi_index !896
  %53 = load i64, i64* %52, align 8, !llfi_index !897
  %54 = add i64 %53, 1, !llfi_index !898
  store i64 %54, i64* %52, align 8, !llfi_index !899
  %55 = load %"struct.std::_Rb_tree_node"*, %"struct.std::_Rb_tree_node"** %14, align 8, !llfi_index !900
  %56 = bitcast %"struct.std::_Rb_tree_node"* %55 to %"struct.std::_Rb_tree_node_base"*, !llfi_index !901
  call void @_ZNSt17_Rb_tree_iteratorIiEC2EPSt18_Rb_tree_node_base(%"struct.std::_Rb_tree_const_iterator"* nonnull align 8 dereferenceable(8) %6, %"struct.std::_Rb_tree_node_base"* %56) #2, !llfi_index !902
  %57 = getelementptr inbounds %"struct.std::_Rb_tree_const_iterator", %"struct.std::_Rb_tree_const_iterator"* %6, i32 0, i32 0, !llfi_index !903
  %58 = load %"struct.std::_Rb_tree_node_base"*, %"struct.std::_Rb_tree_node_base"** %57, align 8, !llfi_index !904
  ret %"struct.std::_Rb_tree_node_base"* %58, !llfi_index !905
}

; Function Attrs: noinline nounwind uwtable
define linkonce_odr dso_local void @_ZNSt4pairISt17_Rb_tree_iteratorIiEbEC2IS1_bLb1EEEOT_OT0_(%"struct.std::pair"* nonnull align 8 dereferenceable(9) %0, %"struct.std::_Rb_tree_const_iterator"* nonnull align 8 dereferenceable(8) %1, i8* nonnull align 1 dereferenceable(1) %2) unnamed_addr #5 comdat align 2 {
  %4 = alloca %"struct.std::pair"*, align 8, !llfi_index !906
  %5 = alloca %"struct.std::_Rb_tree_const_iterator"*, align 8, !llfi_index !907
  %6 = alloca i8*, align 8, !llfi_index !908
  store %"struct.std::pair"* %0, %"struct.std::pair"** %4, align 8, !llfi_index !909
  store %"struct.std::_Rb_tree_const_iterator"* %1, %"struct.std::_Rb_tree_const_iterator"** %5, align 8, !llfi_index !910
  store i8* %2, i8** %6, align 8, !llfi_index !911
  %7 = load %"struct.std::pair"*, %"struct.std::pair"** %4, align 8, !llfi_index !912
  %8 = bitcast %"struct.std::pair"* %7 to %"class.std::ios_base::Init"*, !llfi_index !913
  %9 = getelementptr inbounds %"struct.std::pair", %"struct.std::pair"* %7, i32 0, i32 0, !llfi_index !914
  %10 = load %"struct.std::_Rb_tree_const_iterator"*, %"struct.std::_Rb_tree_const_iterator"** %5, align 8, !llfi_index !915
  %11 = call nonnull align 8 dereferenceable(8) %"struct.std::_Rb_tree_const_iterator"* @_ZSt7forwardISt17_Rb_tree_iteratorIiEEOT_RNSt16remove_referenceIS2_E4typeE(%"struct.std::_Rb_tree_const_iterator"* nonnull align 8 dereferenceable(8) %10) #2, !llfi_index !916
  %12 = bitcast %"struct.std::_Rb_tree_const_iterator"* %9 to i8*, !llfi_index !917
  %13 = bitcast %"struct.std::_Rb_tree_const_iterator"* %11 to i8*, !llfi_index !918
  call void @llvm.memcpy.p0i8.p0i8.i64(i8* align 8 %12, i8* align 8 %13, i64 8, i1 false), !llfi_index !919
  %14 = getelementptr inbounds %"struct.std::pair", %"struct.std::pair"* %7, i32 0, i32 1, !llfi_index !920
  %15 = load i8*, i8** %6, align 8, !llfi_index !921
  %16 = call nonnull align 1 dereferenceable(1) i8* @_ZSt7forwardIbEOT_RNSt16remove_referenceIS0_E4typeE(i8* nonnull align 1 dereferenceable(1) %15) #2, !llfi_index !922
  %17 = load i8, i8* %16, align 1, !llfi_index !923
  %18 = trunc i8 %17 to i1, !llfi_index !924
  %19 = zext i1 %18 to i8, !llfi_index !925
  store i8 %19, i8* %14, align 8, !llfi_index !926
  ret void, !llfi_index !927
}

; Function Attrs: noinline nounwind uwtable
define linkonce_odr dso_local void @_ZNSt17_Rb_tree_iteratorIiEC2EPSt18_Rb_tree_node_base(%"struct.std::_Rb_tree_const_iterator"* nonnull align 8 dereferenceable(8) %0, %"struct.std::_Rb_tree_node_base"* %1) unnamed_addr #5 comdat align 2 {
  %3 = alloca %"struct.std::_Rb_tree_const_iterator"*, align 8, !llfi_index !928
  %4 = alloca %"struct.std::_Rb_tree_node_base"*, align 8, !llfi_index !929
  store %"struct.std::_Rb_tree_const_iterator"* %0, %"struct.std::_Rb_tree_const_iterator"** %3, align 8, !llfi_index !930
  store %"struct.std::_Rb_tree_node_base"* %1, %"struct.std::_Rb_tree_node_base"** %4, align 8, !llfi_index !931
  %5 = load %"struct.std::_Rb_tree_const_iterator"*, %"struct.std::_Rb_tree_const_iterator"** %3, align 8, !llfi_index !932
  %6 = getelementptr inbounds %"struct.std::_Rb_tree_const_iterator", %"struct.std::_Rb_tree_const_iterator"* %5, i32 0, i32 0, !llfi_index !933
  %7 = load %"struct.std::_Rb_tree_node_base"*, %"struct.std::_Rb_tree_node_base"** %4, align 8, !llfi_index !934
  store %"struct.std::_Rb_tree_node_base"* %7, %"struct.std::_Rb_tree_node_base"** %6, align 8, !llfi_index !935
  ret void, !llfi_index !936
}

; Function Attrs: mustprogress noinline nounwind uwtable
define linkonce_odr dso_local nonnull align 8 dereferenceable(8) %"struct.std::_Rb_tree_const_iterator"* @_ZSt7forwardISt17_Rb_tree_iteratorIiEEOT_RNSt16remove_referenceIS2_E4typeE(%"struct.std::_Rb_tree_const_iterator"* nonnull align 8 dereferenceable(8) %0) #9 comdat {
  %2 = alloca %"struct.std::_Rb_tree_const_iterator"*, align 8, !llfi_index !937
  store %"struct.std::_Rb_tree_const_iterator"* %0, %"struct.std::_Rb_tree_const_iterator"** %2, align 8, !llfi_index !938
  %3 = load %"struct.std::_Rb_tree_const_iterator"*, %"struct.std::_Rb_tree_const_iterator"** %2, align 8, !llfi_index !939
  ret %"struct.std::_Rb_tree_const_iterator"* %3, !llfi_index !940
}

; Function Attrs: mustprogress noinline nounwind uwtable
define linkonce_odr dso_local nonnull align 1 dereferenceable(1) i8* @_ZSt7forwardIbEOT_RNSt16remove_referenceIS0_E4typeE(i8* nonnull align 1 dereferenceable(1) %0) #9 comdat {
  %2 = alloca i8*, align 8, !llfi_index !941
  store i8* %0, i8** %2, align 8, !llfi_index !942
  %3 = load i8*, i8** %2, align 8, !llfi_index !943
  ret i8* %3, !llfi_index !944
}

; Function Attrs: mustprogress noinline nounwind uwtable
define linkonce_odr dso_local %"struct.std::_Rb_tree_node_base"* @_ZNSt8_Rb_treeIiiSt9_IdentityIiESt4lessIiESaIiEE6_M_endEv(%"class.std::_Rb_tree"* nonnull align 8 dereferenceable(48) %0) #9 comdat align 2 {
  %2 = alloca %"class.std::_Rb_tree"*, align 8, !llfi_index !945
  store %"class.std::_Rb_tree"* %0, %"class.std::_Rb_tree"** %2, align 8, !llfi_index !946
  %3 = load %"class.std::_Rb_tree"*, %"class.std::_Rb_tree"** %2, align 8, !llfi_index !947
  %4 = getelementptr inbounds %"class.std::_Rb_tree", %"class.std::_Rb_tree"* %3, i32 0, i32 0, !llfi_index !948
  %5 = bitcast %"struct.std::_Rb_tree<int, int, std::_Identity<int>, std::less<int>>::_Rb_tree_impl"* %4 to i8*, !llfi_index !949
  %6 = getelementptr inbounds i8, i8* %5, i64 8, !llfi_index !950
  %7 = bitcast i8* %6 to %"struct.std::_Rb_tree_header"*, !llfi_index !951
  %8 = getelementptr inbounds %"struct.std::_Rb_tree_header", %"struct.std::_Rb_tree_header"* %7, i32 0, i32 0, !llfi_index !952
  ret %"struct.std::_Rb_tree_node_base"* %8, !llfi_index !953
}

; Function Attrs: mustprogress noinline uwtable
define linkonce_odr dso_local nonnull align 4 dereferenceable(4) i32* @_ZNSt8_Rb_treeIiiSt9_IdentityIiESt4lessIiESaIiEE6_S_keyEPKSt18_Rb_tree_node_base(%"struct.std::_Rb_tree_node_base"* %0) #8 comdat align 2 {
  %2 = alloca %"struct.std::_Rb_tree_node_base"*, align 8, !llfi_index !954
  store %"struct.std::_Rb_tree_node_base"* %0, %"struct.std::_Rb_tree_node_base"** %2, align 8, !llfi_index !955
  %3 = load %"struct.std::_Rb_tree_node_base"*, %"struct.std::_Rb_tree_node_base"** %2, align 8, !llfi_index !956
  %4 = bitcast %"struct.std::_Rb_tree_node_base"* %3 to %"struct.std::_Rb_tree_node"*, !llfi_index !957
  %5 = call nonnull align 4 dereferenceable(4) i32* @_ZNSt8_Rb_treeIiiSt9_IdentityIiESt4lessIiESaIiEE6_S_keyEPKSt13_Rb_tree_nodeIiE(%"struct.std::_Rb_tree_node"* %4), !llfi_index !958
  ret i32* %5, !llfi_index !959
}

; Function Attrs: mustprogress noinline nounwind uwtable
define linkonce_odr dso_local zeroext i1 @_ZNKSt4lessIiEclERKiS2_(%"class.std::ios_base::Init"* nonnull align 1 dereferenceable(1) %0, i32* nonnull align 4 dereferenceable(4) %1, i32* nonnull align 4 dereferenceable(4) %2) #9 comdat align 2 {
  %4 = alloca %"class.std::ios_base::Init"*, align 8, !llfi_index !960
  %5 = alloca i32*, align 8, !llfi_index !961
  %6 = alloca i32*, align 8, !llfi_index !962
  store %"class.std::ios_base::Init"* %0, %"class.std::ios_base::Init"** %4, align 8, !llfi_index !963
  store i32* %1, i32** %5, align 8, !llfi_index !964
  store i32* %2, i32** %6, align 8, !llfi_index !965
  %7 = load %"class.std::ios_base::Init"*, %"class.std::ios_base::Init"** %4, align 8, !llfi_index !966
  %8 = load i32*, i32** %5, align 8, !llfi_index !967
  %9 = load i32, i32* %8, align 4, !llfi_index !968
  %10 = load i32*, i32** %6, align 8, !llfi_index !969
  %11 = load i32, i32* %10, align 4, !llfi_index !970
  %12 = icmp slt i32 %9, %11, !llfi_index !971
  ret i1 %12, !llfi_index !972
}

; Function Attrs: mustprogress noinline uwtable
define linkonce_odr dso_local %"struct.std::_Rb_tree_node"* @_ZNKSt8_Rb_treeIiiSt9_IdentityIiESt4lessIiESaIiEE11_Alloc_nodeclIRKiEEPSt13_Rb_tree_nodeIiEOT_(%"struct.std::_Rb_tree<int, int, std::_Identity<int>, std::less<int>>::_Alloc_node"* nonnull align 8 dereferenceable(8) %0, i32* nonnull align 4 dereferenceable(4) %1) #8 comdat align 2 {
  %3 = alloca %"struct.std::_Rb_tree<int, int, std::_Identity<int>, std::less<int>>::_Alloc_node"*, align 8, !llfi_index !973
  %4 = alloca i32*, align 8, !llfi_index !974
  store %"struct.std::_Rb_tree<int, int, std::_Identity<int>, std::less<int>>::_Alloc_node"* %0, %"struct.std::_Rb_tree<int, int, std::_Identity<int>, std::less<int>>::_Alloc_node"** %3, align 8, !llfi_index !975
  store i32* %1, i32** %4, align 8, !llfi_index !976
  %5 = load %"struct.std::_Rb_tree<int, int, std::_Identity<int>, std::less<int>>::_Alloc_node"*, %"struct.std::_Rb_tree<int, int, std::_Identity<int>, std::less<int>>::_Alloc_node"** %3, align 8, !llfi_index !977
  %6 = getelementptr inbounds %"struct.std::_Rb_tree<int, int, std::_Identity<int>, std::less<int>>::_Alloc_node", %"struct.std::_Rb_tree<int, int, std::_Identity<int>, std::less<int>>::_Alloc_node"* %5, i32 0, i32 0, !llfi_index !978
  %7 = load %"class.std::_Rb_tree"*, %"class.std::_Rb_tree"** %6, align 8, !llfi_index !979
  %8 = load i32*, i32** %4, align 8, !llfi_index !980
  %9 = call nonnull align 4 dereferenceable(4) i32* @_ZSt7forwardIRKiEOT_RNSt16remove_referenceIS2_E4typeE(i32* nonnull align 4 dereferenceable(4) %8) #2, !llfi_index !981
  %10 = call %"struct.std::_Rb_tree_node"* @_ZNSt8_Rb_treeIiiSt9_IdentityIiESt4lessIiESaIiEE14_M_create_nodeIJRKiEEEPSt13_Rb_tree_nodeIiEDpOT_(%"class.std::_Rb_tree"* nonnull align 8 dereferenceable(48) %7, i32* nonnull align 4 dereferenceable(4) %9), !llfi_index !982
  ret %"struct.std::_Rb_tree_node"* %10, !llfi_index !983
}

; Function Attrs: nounwind
declare dso_local void @_ZSt29_Rb_tree_insert_and_rebalancebPSt18_Rb_tree_node_baseS0_RS_(i1 zeroext, %"struct.std::_Rb_tree_node_base"*, %"struct.std::_Rb_tree_node_base"*, %"struct.std::_Rb_tree_node_base"* nonnull align 8 dereferenceable(32)) #3

; Function Attrs: mustprogress noinline uwtable
define linkonce_odr dso_local %"struct.std::_Rb_tree_node"* @_ZNSt8_Rb_treeIiiSt9_IdentityIiESt4lessIiESaIiEE14_M_create_nodeIJRKiEEEPSt13_Rb_tree_nodeIiEDpOT_(%"class.std::_Rb_tree"* nonnull align 8 dereferenceable(48) %0, i32* nonnull align 4 dereferenceable(4) %1) #8 comdat align 2 {
  %3 = alloca %"class.std::_Rb_tree"*, align 8, !llfi_index !984
  %4 = alloca i32*, align 8, !llfi_index !985
  %5 = alloca %"struct.std::_Rb_tree_node"*, align 8, !llfi_index !986
  store %"class.std::_Rb_tree"* %0, %"class.std::_Rb_tree"** %3, align 8, !llfi_index !987
  store i32* %1, i32** %4, align 8, !llfi_index !988
  %6 = load %"class.std::_Rb_tree"*, %"class.std::_Rb_tree"** %3, align 8, !llfi_index !989
  %7 = call %"struct.std::_Rb_tree_node"* @_ZNSt8_Rb_treeIiiSt9_IdentityIiESt4lessIiESaIiEE11_M_get_nodeEv(%"class.std::_Rb_tree"* nonnull align 8 dereferenceable(48) %6), !llfi_index !990
  store %"struct.std::_Rb_tree_node"* %7, %"struct.std::_Rb_tree_node"** %5, align 8, !llfi_index !991
  %8 = load %"struct.std::_Rb_tree_node"*, %"struct.std::_Rb_tree_node"** %5, align 8, !llfi_index !992
  %9 = load i32*, i32** %4, align 8, !llfi_index !993
  %10 = call nonnull align 4 dereferenceable(4) i32* @_ZSt7forwardIRKiEOT_RNSt16remove_referenceIS2_E4typeE(i32* nonnull align 4 dereferenceable(4) %9) #2, !llfi_index !994
  call void @_ZNSt8_Rb_treeIiiSt9_IdentityIiESt4lessIiESaIiEE17_M_construct_nodeIJRKiEEEvPSt13_Rb_tree_nodeIiEDpOT_(%"class.std::_Rb_tree"* nonnull align 8 dereferenceable(48) %6, %"struct.std::_Rb_tree_node"* %8, i32* nonnull align 4 dereferenceable(4) %10), !llfi_index !995
  %11 = load %"struct.std::_Rb_tree_node"*, %"struct.std::_Rb_tree_node"** %5, align 8, !llfi_index !996
  ret %"struct.std::_Rb_tree_node"* %11, !llfi_index !997
}

; Function Attrs: mustprogress noinline uwtable
define linkonce_odr dso_local %"struct.std::_Rb_tree_node"* @_ZNSt8_Rb_treeIiiSt9_IdentityIiESt4lessIiESaIiEE11_M_get_nodeEv(%"class.std::_Rb_tree"* nonnull align 8 dereferenceable(48) %0) #8 comdat align 2 {
  %2 = alloca %"class.std::_Rb_tree"*, align 8, !llfi_index !998
  store %"class.std::_Rb_tree"* %0, %"class.std::_Rb_tree"** %2, align 8, !llfi_index !999
  %3 = load %"class.std::_Rb_tree"*, %"class.std::_Rb_tree"** %2, align 8, !llfi_index !1000
  %4 = call nonnull align 1 dereferenceable(1) %"class.std::ios_base::Init"* @_ZNSt8_Rb_treeIiiSt9_IdentityIiESt4lessIiESaIiEE21_M_get_Node_allocatorEv(%"class.std::_Rb_tree"* nonnull align 8 dereferenceable(48) %3) #2, !llfi_index !1001
  %5 = call %"struct.std::_Rb_tree_node"* @_ZNSt16allocator_traitsISaISt13_Rb_tree_nodeIiEEE8allocateERS2_m(%"class.std::ios_base::Init"* nonnull align 1 dereferenceable(1) %4, i64 1), !llfi_index !1002
  ret %"struct.std::_Rb_tree_node"* %5, !llfi_index !1003
}

; Function Attrs: mustprogress noinline nounwind uwtable
define linkonce_odr dso_local void @_ZNSt8_Rb_treeIiiSt9_IdentityIiESt4lessIiESaIiEE17_M_construct_nodeIJRKiEEEvPSt13_Rb_tree_nodeIiEDpOT_(%"class.std::_Rb_tree"* nonnull align 8 dereferenceable(48) %0, %"struct.std::_Rb_tree_node"* %1, i32* nonnull align 4 dereferenceable(4) %2) #9 comdat align 2 {
  %4 = alloca %"class.std::_Rb_tree"*, align 8, !llfi_index !1004
  %5 = alloca %"struct.std::_Rb_tree_node"*, align 8, !llfi_index !1005
  %6 = alloca i32*, align 8, !llfi_index !1006
  store %"class.std::_Rb_tree"* %0, %"class.std::_Rb_tree"** %4, align 8, !llfi_index !1007
  store %"struct.std::_Rb_tree_node"* %1, %"struct.std::_Rb_tree_node"** %5, align 8, !llfi_index !1008
  store i32* %2, i32** %6, align 8, !llfi_index !1009
  %7 = load %"class.std::_Rb_tree"*, %"class.std::_Rb_tree"** %4, align 8, !llfi_index !1010
  %8 = load %"struct.std::_Rb_tree_node"*, %"struct.std::_Rb_tree_node"** %5, align 8, !llfi_index !1011
  %9 = bitcast %"struct.std::_Rb_tree_node"* %8 to i8*, !llfi_index !1012
  %10 = bitcast i8* %9 to %"struct.std::_Rb_tree_node"*, !llfi_index !1013
  %11 = call nonnull align 1 dereferenceable(1) %"class.std::ios_base::Init"* @_ZNSt8_Rb_treeIiiSt9_IdentityIiESt4lessIiESaIiEE21_M_get_Node_allocatorEv(%"class.std::_Rb_tree"* nonnull align 8 dereferenceable(48) %7) #2, !llfi_index !1014
  %12 = load %"struct.std::_Rb_tree_node"*, %"struct.std::_Rb_tree_node"** %5, align 8, !llfi_index !1015
  %13 = call i32* @_ZNSt13_Rb_tree_nodeIiE9_M_valptrEv(%"struct.std::_Rb_tree_node"* nonnull align 8 dereferenceable(36) %12), !llfi_index !1016
  %14 = load i32*, i32** %6, align 8, !llfi_index !1017
  %15 = call nonnull align 4 dereferenceable(4) i32* @_ZSt7forwardIRKiEOT_RNSt16remove_referenceIS2_E4typeE(i32* nonnull align 4 dereferenceable(4) %14) #2, !llfi_index !1018
  call void @_ZNSt16allocator_traitsISaISt13_Rb_tree_nodeIiEEE9constructIiJRKiEEEvRS2_PT_DpOT0_(%"class.std::ios_base::Init"* nonnull align 1 dereferenceable(1) %11, i32* %13, i32* nonnull align 4 dereferenceable(4) %15) #2, !llfi_index !1019
  ret void, !llfi_index !1020
}

; Function Attrs: mustprogress noinline nounwind uwtable
define linkonce_odr dso_local nonnull align 1 dereferenceable(1) %"class.std::ios_base::Init"* @_ZNSt8_Rb_treeIiiSt9_IdentityIiESt4lessIiESaIiEE21_M_get_Node_allocatorEv(%"class.std::_Rb_tree"* nonnull align 8 dereferenceable(48) %0) #9 comdat align 2 {
  %2 = alloca %"class.std::_Rb_tree"*, align 8, !llfi_index !1021
  store %"class.std::_Rb_tree"* %0, %"class.std::_Rb_tree"** %2, align 8, !llfi_index !1022
  %3 = load %"class.std::_Rb_tree"*, %"class.std::_Rb_tree"** %2, align 8, !llfi_index !1023
  %4 = getelementptr inbounds %"class.std::_Rb_tree", %"class.std::_Rb_tree"* %3, i32 0, i32 0, !llfi_index !1024
  %5 = bitcast %"struct.std::_Rb_tree<int, int, std::_Identity<int>, std::less<int>>::_Rb_tree_impl"* %4 to %"class.std::ios_base::Init"*, !llfi_index !1025
  ret %"class.std::ios_base::Init"* %5, !llfi_index !1026
}

; Function Attrs: mustprogress noinline nounwind uwtable
define linkonce_odr dso_local i32* @_ZNSt13_Rb_tree_nodeIiE9_M_valptrEv(%"struct.std::_Rb_tree_node"* nonnull align 8 dereferenceable(36) %0) #9 comdat align 2 {
  %2 = alloca %"struct.std::_Rb_tree_node"*, align 8, !llfi_index !1027
  store %"struct.std::_Rb_tree_node"* %0, %"struct.std::_Rb_tree_node"** %2, align 8, !llfi_index !1028
  %3 = load %"struct.std::_Rb_tree_node"*, %"struct.std::_Rb_tree_node"** %2, align 8, !llfi_index !1029
  %4 = getelementptr inbounds %"struct.std::_Rb_tree_node", %"struct.std::_Rb_tree_node"* %3, i32 0, i32 1, !llfi_index !1030
  %5 = call i32* @_ZN9__gnu_cxx16__aligned_membufIiE6_M_ptrEv(%"struct.__gnu_cxx::__aligned_membuf"* nonnull align 4 dereferenceable(4) %4) #2, !llfi_index !1031
  ret i32* %5, !llfi_index !1032
}

; Function Attrs: mustprogress noinline nounwind uwtable
define linkonce_odr dso_local void @_ZNSt16allocator_traitsISaISt13_Rb_tree_nodeIiEEE9constructIiJRKiEEEvRS2_PT_DpOT0_(%"class.std::ios_base::Init"* nonnull align 1 dereferenceable(1) %0, i32* %1, i32* nonnull align 4 dereferenceable(4) %2) #9 comdat align 2 {
  %4 = alloca %"class.std::ios_base::Init"*, align 8, !llfi_index !1033
  %5 = alloca i32*, align 8, !llfi_index !1034
  %6 = alloca i32*, align 8, !llfi_index !1035
  store %"class.std::ios_base::Init"* %0, %"class.std::ios_base::Init"** %4, align 8, !llfi_index !1036
  store i32* %1, i32** %5, align 8, !llfi_index !1037
  store i32* %2, i32** %6, align 8, !llfi_index !1038
  %7 = load %"class.std::ios_base::Init"*, %"class.std::ios_base::Init"** %4, align 8, !llfi_index !1039
  %8 = bitcast %"class.std::ios_base::Init"* %7 to %"class.std::ios_base::Init"*, !llfi_index !1040
  %9 = load i32*, i32** %5, align 8, !llfi_index !1041
  %10 = load i32*, i32** %6, align 8, !llfi_index !1042
  %11 = call nonnull align 4 dereferenceable(4) i32* @_ZSt7forwardIRKiEOT_RNSt16remove_referenceIS2_E4typeE(i32* nonnull align 4 dereferenceable(4) %10) #2, !llfi_index !1043
  call void @_ZN9__gnu_cxx13new_allocatorISt13_Rb_tree_nodeIiEE9constructIiJRKiEEEvPT_DpOT0_(%"class.std::ios_base::Init"* nonnull align 1 dereferenceable(1) %8, i32* %9, i32* nonnull align 4 dereferenceable(4) %11) #2, !llfi_index !1044
  ret void, !llfi_index !1045
}

; Function Attrs: mustprogress noinline nounwind uwtable
define linkonce_odr dso_local void @_ZN9__gnu_cxx13new_allocatorISt13_Rb_tree_nodeIiEE9constructIiJRKiEEEvPT_DpOT0_(%"class.std::ios_base::Init"* nonnull align 1 dereferenceable(1) %0, i32* %1, i32* nonnull align 4 dereferenceable(4) %2) #9 comdat align 2 {
  %4 = alloca %"class.std::ios_base::Init"*, align 8, !llfi_index !1046
  %5 = alloca i32*, align 8, !llfi_index !1047
  %6 = alloca i32*, align 8, !llfi_index !1048
  store %"class.std::ios_base::Init"* %0, %"class.std::ios_base::Init"** %4, align 8, !llfi_index !1049
  store i32* %1, i32** %5, align 8, !llfi_index !1050
  store i32* %2, i32** %6, align 8, !llfi_index !1051
  %7 = load %"class.std::ios_base::Init"*, %"class.std::ios_base::Init"** %4, align 8, !llfi_index !1052
  %8 = load i32*, i32** %5, align 8, !llfi_index !1053
  %9 = bitcast i32* %8 to i8*, !llfi_index !1054
  %10 = bitcast i8* %9 to i32*, !llfi_index !1055
  %11 = load i32*, i32** %6, align 8, !llfi_index !1056
  %12 = call nonnull align 4 dereferenceable(4) i32* @_ZSt7forwardIRKiEOT_RNSt16remove_referenceIS2_E4typeE(i32* nonnull align 4 dereferenceable(4) %11) #2, !llfi_index !1057
  %13 = load i32, i32* %12, align 4, !llfi_index !1058
  store i32 %13, i32* %10, align 4, !llfi_index !1059
  ret void, !llfi_index !1060
}

; Function Attrs: mustprogress noinline nounwind uwtable
define linkonce_odr dso_local i32* @_ZN9__gnu_cxx16__aligned_membufIiE6_M_ptrEv(%"struct.__gnu_cxx::__aligned_membuf"* nonnull align 4 dereferenceable(4) %0) #9 comdat align 2 {
  %2 = alloca %"struct.__gnu_cxx::__aligned_membuf"*, align 8, !llfi_index !1061
  store %"struct.__gnu_cxx::__aligned_membuf"* %0, %"struct.__gnu_cxx::__aligned_membuf"** %2, align 8, !llfi_index !1062
  %3 = load %"struct.__gnu_cxx::__aligned_membuf"*, %"struct.__gnu_cxx::__aligned_membuf"** %2, align 8, !llfi_index !1063
  %4 = call i8* @_ZN9__gnu_cxx16__aligned_membufIiE7_M_addrEv(%"struct.__gnu_cxx::__aligned_membuf"* nonnull align 4 dereferenceable(4) %3) #2, !llfi_index !1064
  %5 = bitcast i8* %4 to i32*, !llfi_index !1065
  ret i32* %5, !llfi_index !1066
}

; Function Attrs: mustprogress noinline nounwind uwtable
define linkonce_odr dso_local i8* @_ZN9__gnu_cxx16__aligned_membufIiE7_M_addrEv(%"struct.__gnu_cxx::__aligned_membuf"* nonnull align 4 dereferenceable(4) %0) #9 comdat align 2 {
  %2 = alloca %"struct.__gnu_cxx::__aligned_membuf"*, align 8, !llfi_index !1067
  store %"struct.__gnu_cxx::__aligned_membuf"* %0, %"struct.__gnu_cxx::__aligned_membuf"** %2, align 8, !llfi_index !1068
  %3 = load %"struct.__gnu_cxx::__aligned_membuf"*, %"struct.__gnu_cxx::__aligned_membuf"** %2, align 8, !llfi_index !1069
  %4 = getelementptr inbounds %"struct.__gnu_cxx::__aligned_membuf", %"struct.__gnu_cxx::__aligned_membuf"* %3, i32 0, i32 0, !llfi_index !1070
  %5 = bitcast [4 x i8]* %4 to i8*, !llfi_index !1071
  ret i8* %5, !llfi_index !1072
}

; Function Attrs: mustprogress noinline uwtable
define linkonce_odr dso_local %"struct.std::_Rb_tree_node"* @_ZNSt16allocator_traitsISaISt13_Rb_tree_nodeIiEEE8allocateERS2_m(%"class.std::ios_base::Init"* nonnull align 1 dereferenceable(1) %0, i64 %1) #8 comdat align 2 {
  %3 = alloca %"class.std::ios_base::Init"*, align 8, !llfi_index !1073
  %4 = alloca i64, align 8, !llfi_index !1074
  store %"class.std::ios_base::Init"* %0, %"class.std::ios_base::Init"** %3, align 8, !llfi_index !1075
  store i64 %1, i64* %4, align 8, !llfi_index !1076
  %5 = load %"class.std::ios_base::Init"*, %"class.std::ios_base::Init"** %3, align 8, !llfi_index !1077
  %6 = bitcast %"class.std::ios_base::Init"* %5 to %"class.std::ios_base::Init"*, !llfi_index !1078
  %7 = load i64, i64* %4, align 8, !llfi_index !1079
  %8 = call %"struct.std::_Rb_tree_node"* @_ZN9__gnu_cxx13new_allocatorISt13_Rb_tree_nodeIiEE8allocateEmPKv(%"class.std::ios_base::Init"* nonnull align 1 dereferenceable(1) %6, i64 %7, i8* null), !llfi_index !1080
  ret %"struct.std::_Rb_tree_node"* %8, !llfi_index !1081
}

; Function Attrs: mustprogress noinline uwtable
define linkonce_odr dso_local %"struct.std::_Rb_tree_node"* @_ZN9__gnu_cxx13new_allocatorISt13_Rb_tree_nodeIiEE8allocateEmPKv(%"class.std::ios_base::Init"* nonnull align 1 dereferenceable(1) %0, i64 %1, i8* %2) #8 comdat align 2 {
  %4 = alloca %"class.std::ios_base::Init"*, align 8, !llfi_index !1082
  %5 = alloca i64, align 8, !llfi_index !1083
  %6 = alloca i8*, align 8, !llfi_index !1084
  store %"class.std::ios_base::Init"* %0, %"class.std::ios_base::Init"** %4, align 8, !llfi_index !1085
  store i64 %1, i64* %5, align 8, !llfi_index !1086
  store i8* %2, i8** %6, align 8, !llfi_index !1087
  %7 = load %"class.std::ios_base::Init"*, %"class.std::ios_base::Init"** %4, align 8, !llfi_index !1088
  %8 = load i64, i64* %5, align 8, !llfi_index !1089
  %9 = call i64 @_ZNK9__gnu_cxx13new_allocatorISt13_Rb_tree_nodeIiEE8max_sizeEv(%"class.std::ios_base::Init"* nonnull align 1 dereferenceable(1) %7) #2, !llfi_index !1090
  %10 = icmp ugt i64 %8, %9, !llfi_index !1091
  br i1 %10, label %11, label %12, !llfi_index !1092

11:                                               ; preds = %3
  call void @_ZSt17__throw_bad_allocv() #18, !llfi_index !1093
  unreachable, !llfi_index !1094

12:                                               ; preds = %3
  %13 = load i64, i64* %5, align 8, !llfi_index !1095
  %14 = mul i64 %13, 40, !llfi_index !1096
  %15 = call noalias nonnull i8* @_Znwm(i64 %14) #19, !llfi_index !1097
  %16 = bitcast i8* %15 to %"struct.std::_Rb_tree_node"*, !llfi_index !1098
  ret %"struct.std::_Rb_tree_node"* %16, !llfi_index !1099
}

; Function Attrs: mustprogress noinline nounwind uwtable
define linkonce_odr dso_local i64 @_ZNK9__gnu_cxx13new_allocatorISt13_Rb_tree_nodeIiEE8max_sizeEv(%"class.std::ios_base::Init"* nonnull align 1 dereferenceable(1) %0) #9 comdat align 2 {
  %2 = alloca %"class.std::ios_base::Init"*, align 8, !llfi_index !1100
  store %"class.std::ios_base::Init"* %0, %"class.std::ios_base::Init"** %2, align 8, !llfi_index !1101
  %3 = load %"class.std::ios_base::Init"*, %"class.std::ios_base::Init"** %2, align 8, !llfi_index !1102
  ret i64 230584300921369395, !llfi_index !1103
}

; Function Attrs: noreturn
declare dso_local void @_ZSt17__throw_bad_allocv() #13

; Function Attrs: nobuiltin allocsize(0)
declare dso_local nonnull i8* @_Znwm(i64) #7

; Function Attrs: mustprogress noinline uwtable
define linkonce_odr dso_local nonnull align 4 dereferenceable(4) i32* @_ZNSt8_Rb_treeIiiSt9_IdentityIiESt4lessIiESaIiEE6_S_keyEPKSt13_Rb_tree_nodeIiE(%"struct.std::_Rb_tree_node"* %0) #8 comdat align 2 {
  %2 = alloca %"struct.std::_Rb_tree_node"*, align 8, !llfi_index !1104
  %3 = alloca %"class.std::ios_base::Init", align 1, !llfi_index !1105
  store %"struct.std::_Rb_tree_node"* %0, %"struct.std::_Rb_tree_node"** %2, align 8, !llfi_index !1106
  %4 = load %"struct.std::_Rb_tree_node"*, %"struct.std::_Rb_tree_node"** %2, align 8, !llfi_index !1107
  %5 = call i32* @_ZNKSt13_Rb_tree_nodeIiE9_M_valptrEv(%"struct.std::_Rb_tree_node"* nonnull align 8 dereferenceable(36) %4), !llfi_index !1108
  %6 = call nonnull align 4 dereferenceable(4) i32* @_ZNKSt9_IdentityIiEclERKi(%"class.std::ios_base::Init"* nonnull align 1 dereferenceable(1) %3, i32* nonnull align 4 dereferenceable(4) %5), !llfi_index !1109
  ret i32* %6, !llfi_index !1110
}

; Function Attrs: mustprogress noinline nounwind uwtable
define linkonce_odr dso_local %"struct.std::_Rb_tree_node"* @_ZNSt8_Rb_treeIiiSt9_IdentityIiESt4lessIiESaIiEE8_M_beginEv(%"class.std::_Rb_tree"* nonnull align 8 dereferenceable(48) %0) #9 comdat align 2 {
  %2 = alloca %"class.std::_Rb_tree"*, align 8, !llfi_index !1111
  store %"class.std::_Rb_tree"* %0, %"class.std::_Rb_tree"** %2, align 8, !llfi_index !1112
  %3 = load %"class.std::_Rb_tree"*, %"class.std::_Rb_tree"** %2, align 8, !llfi_index !1113
  %4 = getelementptr inbounds %"class.std::_Rb_tree", %"class.std::_Rb_tree"* %3, i32 0, i32 0, !llfi_index !1114
  %5 = bitcast %"struct.std::_Rb_tree<int, int, std::_Identity<int>, std::less<int>>::_Rb_tree_impl"* %4 to i8*, !llfi_index !1115
  %6 = getelementptr inbounds i8, i8* %5, i64 8, !llfi_index !1116
  %7 = bitcast i8* %6 to %"struct.std::_Rb_tree_header"*, !llfi_index !1117
  %8 = getelementptr inbounds %"struct.std::_Rb_tree_header", %"struct.std::_Rb_tree_header"* %7, i32 0, i32 0, !llfi_index !1118
  %9 = getelementptr inbounds %"struct.std::_Rb_tree_node_base", %"struct.std::_Rb_tree_node_base"* %8, i32 0, i32 1, !llfi_index !1119
  %10 = load %"struct.std::_Rb_tree_node_base"*, %"struct.std::_Rb_tree_node_base"** %9, align 8, !llfi_index !1120
  %11 = bitcast %"struct.std::_Rb_tree_node_base"* %10 to %"struct.std::_Rb_tree_node"*, !llfi_index !1121
  ret %"struct.std::_Rb_tree_node"* %11, !llfi_index !1122
}

; Function Attrs: mustprogress noinline nounwind uwtable
define linkonce_odr dso_local %"struct.std::_Rb_tree_node"* @_ZNSt8_Rb_treeIiiSt9_IdentityIiESt4lessIiESaIiEE7_S_leftEPSt18_Rb_tree_node_base(%"struct.std::_Rb_tree_node_base"* %0) #9 comdat align 2 {
  %2 = alloca %"struct.std::_Rb_tree_node_base"*, align 8, !llfi_index !1123
  store %"struct.std::_Rb_tree_node_base"* %0, %"struct.std::_Rb_tree_node_base"** %2, align 8, !llfi_index !1124
  %3 = load %"struct.std::_Rb_tree_node_base"*, %"struct.std::_Rb_tree_node_base"** %2, align 8, !llfi_index !1125
  %4 = getelementptr inbounds %"struct.std::_Rb_tree_node_base", %"struct.std::_Rb_tree_node_base"* %3, i32 0, i32 2, !llfi_index !1126
  %5 = load %"struct.std::_Rb_tree_node_base"*, %"struct.std::_Rb_tree_node_base"** %4, align 8, !llfi_index !1127
  %6 = bitcast %"struct.std::_Rb_tree_node_base"* %5 to %"struct.std::_Rb_tree_node"*, !llfi_index !1128
  ret %"struct.std::_Rb_tree_node"* %6, !llfi_index !1129
}

; Function Attrs: mustprogress noinline nounwind uwtable
define linkonce_odr dso_local %"struct.std::_Rb_tree_node"* @_ZNSt8_Rb_treeIiiSt9_IdentityIiESt4lessIiESaIiEE8_S_rightEPSt18_Rb_tree_node_base(%"struct.std::_Rb_tree_node_base"* %0) #9 comdat align 2 {
  %2 = alloca %"struct.std::_Rb_tree_node_base"*, align 8, !llfi_index !1130
  store %"struct.std::_Rb_tree_node_base"* %0, %"struct.std::_Rb_tree_node_base"** %2, align 8, !llfi_index !1131
  %3 = load %"struct.std::_Rb_tree_node_base"*, %"struct.std::_Rb_tree_node_base"** %2, align 8, !llfi_index !1132
  %4 = getelementptr inbounds %"struct.std::_Rb_tree_node_base", %"struct.std::_Rb_tree_node_base"* %3, i32 0, i32 3, !llfi_index !1133
  %5 = load %"struct.std::_Rb_tree_node_base"*, %"struct.std::_Rb_tree_node_base"** %4, align 8, !llfi_index !1134
  %6 = bitcast %"struct.std::_Rb_tree_node_base"* %5 to %"struct.std::_Rb_tree_node"*, !llfi_index !1135
  ret %"struct.std::_Rb_tree_node"* %6, !llfi_index !1136
}

; Function Attrs: mustprogress noinline nounwind uwtable
define linkonce_odr dso_local %"struct.std::_Rb_tree_node_base"* @_ZNSt8_Rb_treeIiiSt9_IdentityIiESt4lessIiESaIiEE5beginEv(%"class.std::_Rb_tree"* nonnull align 8 dereferenceable(48) %0) #9 comdat align 2 {
  %2 = alloca %"struct.std::_Rb_tree_const_iterator", align 8, !llfi_index !1137
  %3 = alloca %"class.std::_Rb_tree"*, align 8, !llfi_index !1138
  store %"class.std::_Rb_tree"* %0, %"class.std::_Rb_tree"** %3, align 8, !llfi_index !1139
  %4 = load %"class.std::_Rb_tree"*, %"class.std::_Rb_tree"** %3, align 8, !llfi_index !1140
  %5 = getelementptr inbounds %"class.std::_Rb_tree", %"class.std::_Rb_tree"* %4, i32 0, i32 0, !llfi_index !1141
  %6 = bitcast %"struct.std::_Rb_tree<int, int, std::_Identity<int>, std::less<int>>::_Rb_tree_impl"* %5 to i8*, !llfi_index !1142
  %7 = getelementptr inbounds i8, i8* %6, i64 8, !llfi_index !1143
  %8 = bitcast i8* %7 to %"struct.std::_Rb_tree_header"*, !llfi_index !1144
  %9 = getelementptr inbounds %"struct.std::_Rb_tree_header", %"struct.std::_Rb_tree_header"* %8, i32 0, i32 0, !llfi_index !1145
  %10 = getelementptr inbounds %"struct.std::_Rb_tree_node_base", %"struct.std::_Rb_tree_node_base"* %9, i32 0, i32 2, !llfi_index !1146
  %11 = load %"struct.std::_Rb_tree_node_base"*, %"struct.std::_Rb_tree_node_base"** %10, align 8, !llfi_index !1147
  call void @_ZNSt17_Rb_tree_iteratorIiEC2EPSt18_Rb_tree_node_base(%"struct.std::_Rb_tree_const_iterator"* nonnull align 8 dereferenceable(8) %2, %"struct.std::_Rb_tree_node_base"* %11) #2, !llfi_index !1148
  %12 = getelementptr inbounds %"struct.std::_Rb_tree_const_iterator", %"struct.std::_Rb_tree_const_iterator"* %2, i32 0, i32 0, !llfi_index !1149
  %13 = load %"struct.std::_Rb_tree_node_base"*, %"struct.std::_Rb_tree_node_base"** %12, align 8, !llfi_index !1150
  ret %"struct.std::_Rb_tree_node_base"* %13, !llfi_index !1151
}

; Function Attrs: mustprogress noinline nounwind uwtable
define linkonce_odr dso_local zeroext i1 @_ZSteqRKSt17_Rb_tree_iteratorIiES2_(%"struct.std::_Rb_tree_const_iterator"* nonnull align 8 dereferenceable(8) %0, %"struct.std::_Rb_tree_const_iterator"* nonnull align 8 dereferenceable(8) %1) #9 comdat {
  %3 = alloca %"struct.std::_Rb_tree_const_iterator"*, align 8, !llfi_index !1152
  %4 = alloca %"struct.std::_Rb_tree_const_iterator"*, align 8, !llfi_index !1153
  store %"struct.std::_Rb_tree_const_iterator"* %0, %"struct.std::_Rb_tree_const_iterator"** %3, align 8, !llfi_index !1154
  store %"struct.std::_Rb_tree_const_iterator"* %1, %"struct.std::_Rb_tree_const_iterator"** %4, align 8, !llfi_index !1155
  %5 = load %"struct.std::_Rb_tree_const_iterator"*, %"struct.std::_Rb_tree_const_iterator"** %3, align 8, !llfi_index !1156
  %6 = getelementptr inbounds %"struct.std::_Rb_tree_const_iterator", %"struct.std::_Rb_tree_const_iterator"* %5, i32 0, i32 0, !llfi_index !1157
  %7 = load %"struct.std::_Rb_tree_node_base"*, %"struct.std::_Rb_tree_node_base"** %6, align 8, !llfi_index !1158
  %8 = load %"struct.std::_Rb_tree_const_iterator"*, %"struct.std::_Rb_tree_const_iterator"** %4, align 8, !llfi_index !1159
  %9 = getelementptr inbounds %"struct.std::_Rb_tree_const_iterator", %"struct.std::_Rb_tree_const_iterator"* %8, i32 0, i32 0, !llfi_index !1160
  %10 = load %"struct.std::_Rb_tree_node_base"*, %"struct.std::_Rb_tree_node_base"** %9, align 8, !llfi_index !1161
  %11 = icmp eq %"struct.std::_Rb_tree_node_base"* %7, %10, !llfi_index !1162
  ret i1 %11, !llfi_index !1163
}

; Function Attrs: noinline nounwind uwtable
define linkonce_odr dso_local void @_ZNSt4pairIPSt18_Rb_tree_node_baseS1_EC2IRPSt13_Rb_tree_nodeIiERS1_Lb1EEEOT_OT0_(%"struct.std::pair.4"* nonnull align 8 dereferenceable(16) %0, %"struct.std::_Rb_tree_node"** nonnull align 8 dereferenceable(8) %1, %"struct.std::_Rb_tree_node_base"** nonnull align 8 dereferenceable(8) %2) unnamed_addr #5 comdat align 2 {
  %4 = alloca %"struct.std::pair.4"*, align 8, !llfi_index !1164
  %5 = alloca %"struct.std::_Rb_tree_node"**, align 8, !llfi_index !1165
  %6 = alloca %"struct.std::_Rb_tree_node_base"**, align 8, !llfi_index !1166
  store %"struct.std::pair.4"* %0, %"struct.std::pair.4"** %4, align 8, !llfi_index !1167
  store %"struct.std::_Rb_tree_node"** %1, %"struct.std::_Rb_tree_node"*** %5, align 8, !llfi_index !1168
  store %"struct.std::_Rb_tree_node_base"** %2, %"struct.std::_Rb_tree_node_base"*** %6, align 8, !llfi_index !1169
  %7 = load %"struct.std::pair.4"*, %"struct.std::pair.4"** %4, align 8, !llfi_index !1170
  %8 = bitcast %"struct.std::pair.4"* %7 to %"class.std::ios_base::Init"*, !llfi_index !1171
  %9 = getelementptr inbounds %"struct.std::pair.4", %"struct.std::pair.4"* %7, i32 0, i32 0, !llfi_index !1172
  %10 = load %"struct.std::_Rb_tree_node"**, %"struct.std::_Rb_tree_node"*** %5, align 8, !llfi_index !1173
  %11 = call nonnull align 8 dereferenceable(8) %"struct.std::_Rb_tree_node"** @_ZSt7forwardIRPSt13_Rb_tree_nodeIiEEOT_RNSt16remove_referenceIS4_E4typeE(%"struct.std::_Rb_tree_node"** nonnull align 8 dereferenceable(8) %10) #2, !llfi_index !1174
  %12 = load %"struct.std::_Rb_tree_node"*, %"struct.std::_Rb_tree_node"** %11, align 8, !llfi_index !1175
  %13 = bitcast %"struct.std::_Rb_tree_node"* %12 to %"struct.std::_Rb_tree_node_base"*, !llfi_index !1176
  store %"struct.std::_Rb_tree_node_base"* %13, %"struct.std::_Rb_tree_node_base"** %9, align 8, !llfi_index !1177
  %14 = getelementptr inbounds %"struct.std::pair.4", %"struct.std::pair.4"* %7, i32 0, i32 1, !llfi_index !1178
  %15 = load %"struct.std::_Rb_tree_node_base"**, %"struct.std::_Rb_tree_node_base"*** %6, align 8, !llfi_index !1179
  %16 = call nonnull align 8 dereferenceable(8) %"struct.std::_Rb_tree_node_base"** @_ZSt7forwardIRPSt18_Rb_tree_node_baseEOT_RNSt16remove_referenceIS3_E4typeE(%"struct.std::_Rb_tree_node_base"** nonnull align 8 dereferenceable(8) %15) #2, !llfi_index !1180
  %17 = load %"struct.std::_Rb_tree_node_base"*, %"struct.std::_Rb_tree_node_base"** %16, align 8, !llfi_index !1181
  store %"struct.std::_Rb_tree_node_base"* %17, %"struct.std::_Rb_tree_node_base"** %14, align 8, !llfi_index !1182
  ret void, !llfi_index !1183
}

; Function Attrs: mustprogress noinline nounwind uwtable
define linkonce_odr dso_local nonnull align 8 dereferenceable(8) %"struct.std::_Rb_tree_const_iterator"* @_ZNSt17_Rb_tree_iteratorIiEmmEv(%"struct.std::_Rb_tree_const_iterator"* nonnull align 8 dereferenceable(8) %0) #9 comdat align 2 {
  %2 = alloca %"struct.std::_Rb_tree_const_iterator"*, align 8, !llfi_index !1184
  store %"struct.std::_Rb_tree_const_iterator"* %0, %"struct.std::_Rb_tree_const_iterator"** %2, align 8, !llfi_index !1185
  %3 = load %"struct.std::_Rb_tree_const_iterator"*, %"struct.std::_Rb_tree_const_iterator"** %2, align 8, !llfi_index !1186
  %4 = getelementptr inbounds %"struct.std::_Rb_tree_const_iterator", %"struct.std::_Rb_tree_const_iterator"* %3, i32 0, i32 0, !llfi_index !1187
  %5 = load %"struct.std::_Rb_tree_node_base"*, %"struct.std::_Rb_tree_node_base"** %4, align 8, !llfi_index !1188
  %6 = call %"struct.std::_Rb_tree_node_base"* @_ZSt18_Rb_tree_decrementPSt18_Rb_tree_node_base(%"struct.std::_Rb_tree_node_base"* %5) #17, !llfi_index !1189
  %7 = getelementptr inbounds %"struct.std::_Rb_tree_const_iterator", %"struct.std::_Rb_tree_const_iterator"* %3, i32 0, i32 0, !llfi_index !1190
  store %"struct.std::_Rb_tree_node_base"* %6, %"struct.std::_Rb_tree_node_base"** %7, align 8, !llfi_index !1191
  ret %"struct.std::_Rb_tree_const_iterator"* %3, !llfi_index !1192
}

; Function Attrs: noinline nounwind uwtable
define linkonce_odr dso_local void @_ZNSt4pairIPSt18_Rb_tree_node_baseS1_EC2IRS1_Lb1EEEOT_RKS1_(%"struct.std::pair.4"* nonnull align 8 dereferenceable(16) %0, %"struct.std::_Rb_tree_node_base"** nonnull align 8 dereferenceable(8) %1, %"struct.std::_Rb_tree_node_base"** nonnull align 8 dereferenceable(8) %2) unnamed_addr #5 comdat align 2 {
  %4 = alloca %"struct.std::pair.4"*, align 8, !llfi_index !1193
  %5 = alloca %"struct.std::_Rb_tree_node_base"**, align 8, !llfi_index !1194
  %6 = alloca %"struct.std::_Rb_tree_node_base"**, align 8, !llfi_index !1195
  store %"struct.std::pair.4"* %0, %"struct.std::pair.4"** %4, align 8, !llfi_index !1196
  store %"struct.std::_Rb_tree_node_base"** %1, %"struct.std::_Rb_tree_node_base"*** %5, align 8, !llfi_index !1197
  store %"struct.std::_Rb_tree_node_base"** %2, %"struct.std::_Rb_tree_node_base"*** %6, align 8, !llfi_index !1198
  %7 = load %"struct.std::pair.4"*, %"struct.std::pair.4"** %4, align 8, !llfi_index !1199
  %8 = bitcast %"struct.std::pair.4"* %7 to %"class.std::ios_base::Init"*, !llfi_index !1200
  %9 = getelementptr inbounds %"struct.std::pair.4", %"struct.std::pair.4"* %7, i32 0, i32 0, !llfi_index !1201
  %10 = load %"struct.std::_Rb_tree_node_base"**, %"struct.std::_Rb_tree_node_base"*** %5, align 8, !llfi_index !1202
  %11 = call nonnull align 8 dereferenceable(8) %"struct.std::_Rb_tree_node_base"** @_ZSt7forwardIRPSt18_Rb_tree_node_baseEOT_RNSt16remove_referenceIS3_E4typeE(%"struct.std::_Rb_tree_node_base"** nonnull align 8 dereferenceable(8) %10) #2, !llfi_index !1203
  %12 = load %"struct.std::_Rb_tree_node_base"*, %"struct.std::_Rb_tree_node_base"** %11, align 8, !llfi_index !1204
  store %"struct.std::_Rb_tree_node_base"* %12, %"struct.std::_Rb_tree_node_base"** %9, align 8, !llfi_index !1205
  %13 = getelementptr inbounds %"struct.std::pair.4", %"struct.std::pair.4"* %7, i32 0, i32 1, !llfi_index !1206
  %14 = load %"struct.std::_Rb_tree_node_base"**, %"struct.std::_Rb_tree_node_base"*** %6, align 8, !llfi_index !1207
  %15 = load %"struct.std::_Rb_tree_node_base"*, %"struct.std::_Rb_tree_node_base"** %14, align 8, !llfi_index !1208
  store %"struct.std::_Rb_tree_node_base"* %15, %"struct.std::_Rb_tree_node_base"** %13, align 8, !llfi_index !1209
  ret void, !llfi_index !1210
}

; Function Attrs: mustprogress noinline nounwind uwtable
define linkonce_odr dso_local nonnull align 8 dereferenceable(8) %"struct.std::_Rb_tree_node_base"** @_ZSt7forwardIRPSt18_Rb_tree_node_baseEOT_RNSt16remove_referenceIS3_E4typeE(%"struct.std::_Rb_tree_node_base"** nonnull align 8 dereferenceable(8) %0) #9 comdat {
  %2 = alloca %"struct.std::_Rb_tree_node_base"**, align 8, !llfi_index !1211
  store %"struct.std::_Rb_tree_node_base"** %0, %"struct.std::_Rb_tree_node_base"*** %2, align 8, !llfi_index !1212
  %3 = load %"struct.std::_Rb_tree_node_base"**, %"struct.std::_Rb_tree_node_base"*** %2, align 8, !llfi_index !1213
  ret %"struct.std::_Rb_tree_node_base"** %3, !llfi_index !1214
}

; Function Attrs: nounwind readonly willreturn
declare dso_local %"struct.std::_Rb_tree_node_base"* @_ZSt18_Rb_tree_decrementPSt18_Rb_tree_node_base(%"struct.std::_Rb_tree_node_base"*) #12

; Function Attrs: mustprogress noinline nounwind uwtable
define linkonce_odr dso_local nonnull align 8 dereferenceable(8) %"struct.std::_Rb_tree_node"** @_ZSt7forwardIRPSt13_Rb_tree_nodeIiEEOT_RNSt16remove_referenceIS4_E4typeE(%"struct.std::_Rb_tree_node"** nonnull align 8 dereferenceable(8) %0) #9 comdat {
  %2 = alloca %"struct.std::_Rb_tree_node"**, align 8, !llfi_index !1215
  store %"struct.std::_Rb_tree_node"** %0, %"struct.std::_Rb_tree_node"*** %2, align 8, !llfi_index !1216
  %3 = load %"struct.std::_Rb_tree_node"**, %"struct.std::_Rb_tree_node"*** %2, align 8, !llfi_index !1217
  ret %"struct.std::_Rb_tree_node"** %3, !llfi_index !1218
}

; Function Attrs: mustprogress noinline nounwind uwtable
define linkonce_odr dso_local void @_ZN9__gnu_cxx5__ops16__iter_less_iterEv() #9 comdat {
  ret void, !llfi_index !1219
}

; Function Attrs: mustprogress noinline uwtable
define linkonce_odr dso_local void @_ZSt6__sortIPiN9__gnu_cxx5__ops15_Iter_less_iterEEvT_S4_T0_(i32* %0, i32* %1) #8 comdat {
  %3 = alloca %"class.std::ios_base::Init", align 1, !llfi_index !1220
  %4 = alloca i32*, align 8, !llfi_index !1221
  %5 = alloca i32*, align 8, !llfi_index !1222
  %6 = alloca %"class.std::ios_base::Init", align 1, !llfi_index !1223
  %7 = alloca %"class.std::ios_base::Init", align 1, !llfi_index !1224
  store i32* %0, i32** %4, align 8, !llfi_index !1225
  store i32* %1, i32** %5, align 8, !llfi_index !1226
  %8 = load i32*, i32** %4, align 8, !llfi_index !1227
  %9 = load i32*, i32** %5, align 8, !llfi_index !1228
  %10 = icmp ne i32* %8, %9, !llfi_index !1229
  br i1 %10, label %11, label %24, !llfi_index !1230

11:                                               ; preds = %2
  %12 = load i32*, i32** %4, align 8, !llfi_index !1231
  %13 = load i32*, i32** %5, align 8, !llfi_index !1232
  %14 = load i32*, i32** %5, align 8, !llfi_index !1233
  %15 = load i32*, i32** %4, align 8, !llfi_index !1234
  %16 = ptrtoint i32* %14 to i64, !llfi_index !1235
  %17 = ptrtoint i32* %15 to i64, !llfi_index !1236
  %18 = sub i64 %16, %17, !llfi_index !1237
  %19 = sdiv exact i64 %18, 4, !llfi_index !1238
  %20 = call i64 @_ZSt4__lgl(i64 %19), !llfi_index !1239
  %21 = mul nsw i64 %20, 2, !llfi_index !1240
  call void @_ZSt16__introsort_loopIPilN9__gnu_cxx5__ops15_Iter_less_iterEEvT_S4_T0_T1_(i32* %12, i32* %13, i64 %21), !llfi_index !1241
  %22 = load i32*, i32** %4, align 8, !llfi_index !1242
  %23 = load i32*, i32** %5, align 8, !llfi_index !1243
  call void @_ZSt22__final_insertion_sortIPiN9__gnu_cxx5__ops15_Iter_less_iterEEvT_S4_T0_(i32* %22, i32* %23), !llfi_index !1244
  br label %24, !llfi_index !1245

24:                                               ; preds = %11, %2
  ret void, !llfi_index !1246
}

; Function Attrs: mustprogress noinline nounwind uwtable
define linkonce_odr dso_local i64 @_ZSt4__lgl(i64 %0) #9 comdat {
  %2 = alloca i64, align 8, !llfi_index !1247
  store i64 %0, i64* %2, align 8, !llfi_index !1248
  %3 = load i64, i64* %2, align 8, !llfi_index !1249
  %4 = call i64 @llvm.ctlz.i64(i64 %3, i1 true), !llfi_index !1250
  %5 = trunc i64 %4 to i32, !llfi_index !1251
  %6 = sub nsw i32 63, %5, !llfi_index !1252
  %7 = sext i32 %6 to i64, !llfi_index !1253
  ret i64 %7, !llfi_index !1254
}

; Function Attrs: mustprogress noinline uwtable
define linkonce_odr dso_local void @_ZSt16__introsort_loopIPilN9__gnu_cxx5__ops15_Iter_less_iterEEvT_S4_T0_T1_(i32* %0, i32* %1, i64 %2) #8 comdat {
  %4 = alloca %"class.std::ios_base::Init", align 1, !llfi_index !1255
  %5 = alloca i32*, align 8, !llfi_index !1256
  %6 = alloca i32*, align 8, !llfi_index !1257
  %7 = alloca i64, align 8, !llfi_index !1258
  %8 = alloca %"class.std::ios_base::Init", align 1, !llfi_index !1259
  %9 = alloca i32*, align 8, !llfi_index !1260
  %10 = alloca %"class.std::ios_base::Init", align 1, !llfi_index !1261
  %11 = alloca %"class.std::ios_base::Init", align 1, !llfi_index !1262
  store i32* %0, i32** %5, align 8, !llfi_index !1263
  store i32* %1, i32** %6, align 8, !llfi_index !1264
  store i64 %2, i64* %7, align 8, !llfi_index !1265
  br label %12, !llfi_index !1266

12:                                               ; preds = %27, %3
  %13 = load i32*, i32** %6, align 8, !llfi_index !1267
  %14 = load i32*, i32** %5, align 8, !llfi_index !1268
  %15 = ptrtoint i32* %13 to i64, !llfi_index !1269
  %16 = ptrtoint i32* %14 to i64, !llfi_index !1270
  %17 = sub i64 %15, %16, !llfi_index !1271
  %18 = sdiv exact i64 %17, 4, !llfi_index !1272
  %19 = icmp sgt i64 %18, 16, !llfi_index !1273
  br i1 %19, label %20, label %37, !llfi_index !1274

20:                                               ; preds = %12
  %21 = load i64, i64* %7, align 8, !llfi_index !1275
  %22 = icmp eq i64 %21, 0, !llfi_index !1276
  br i1 %22, label %23, label %27, !llfi_index !1277

23:                                               ; preds = %20
  %24 = load i32*, i32** %5, align 8, !llfi_index !1278
  %25 = load i32*, i32** %6, align 8, !llfi_index !1279
  %26 = load i32*, i32** %6, align 8, !llfi_index !1280
  call void @_ZSt14__partial_sortIPiN9__gnu_cxx5__ops15_Iter_less_iterEEvT_S4_S4_T0_(i32* %24, i32* %25, i32* %26), !llfi_index !1281
  br label %37, !llfi_index !1282

27:                                               ; preds = %20
  %28 = load i64, i64* %7, align 8, !llfi_index !1283
  %29 = add nsw i64 %28, -1, !llfi_index !1284
  store i64 %29, i64* %7, align 8, !llfi_index !1285
  %30 = load i32*, i32** %5, align 8, !llfi_index !1286
  %31 = load i32*, i32** %6, align 8, !llfi_index !1287
  %32 = call i32* @_ZSt27__unguarded_partition_pivotIPiN9__gnu_cxx5__ops15_Iter_less_iterEET_S4_S4_T0_(i32* %30, i32* %31), !llfi_index !1288
  store i32* %32, i32** %9, align 8, !llfi_index !1289
  %33 = load i32*, i32** %9, align 8, !llfi_index !1290
  %34 = load i32*, i32** %6, align 8, !llfi_index !1291
  %35 = load i64, i64* %7, align 8, !llfi_index !1292
  call void @_ZSt16__introsort_loopIPilN9__gnu_cxx5__ops15_Iter_less_iterEEvT_S4_T0_T1_(i32* %33, i32* %34, i64 %35), !llfi_index !1293
  %36 = load i32*, i32** %9, align 8, !llfi_index !1294
  store i32* %36, i32** %6, align 8, !llfi_index !1295
  br label %12, !llvm.loop !1296, !llfi_index !1297

37:                                               ; preds = %23, %12
  ret void, !llfi_index !1298
}

; Function Attrs: mustprogress noinline uwtable
define linkonce_odr dso_local void @_ZSt22__final_insertion_sortIPiN9__gnu_cxx5__ops15_Iter_less_iterEEvT_S4_T0_(i32* %0, i32* %1) #8 comdat {
  %3 = alloca %"class.std::ios_base::Init", align 1, !llfi_index !1299
  %4 = alloca i32*, align 8, !llfi_index !1300
  %5 = alloca i32*, align 8, !llfi_index !1301
  %6 = alloca %"class.std::ios_base::Init", align 1, !llfi_index !1302
  %7 = alloca %"class.std::ios_base::Init", align 1, !llfi_index !1303
  %8 = alloca %"class.std::ios_base::Init", align 1, !llfi_index !1304
  store i32* %0, i32** %4, align 8, !llfi_index !1305
  store i32* %1, i32** %5, align 8, !llfi_index !1306
  %9 = load i32*, i32** %5, align 8, !llfi_index !1307
  %10 = load i32*, i32** %4, align 8, !llfi_index !1308
  %11 = ptrtoint i32* %9 to i64, !llfi_index !1309
  %12 = ptrtoint i32* %10 to i64, !llfi_index !1310
  %13 = sub i64 %11, %12, !llfi_index !1311
  %14 = sdiv exact i64 %13, 4, !llfi_index !1312
  %15 = icmp sgt i64 %14, 16, !llfi_index !1313
  br i1 %15, label %16, label %23, !llfi_index !1314

16:                                               ; preds = %2
  %17 = load i32*, i32** %4, align 8, !llfi_index !1315
  %18 = load i32*, i32** %4, align 8, !llfi_index !1316
  %19 = getelementptr inbounds i32, i32* %18, i64 16, !llfi_index !1317
  call void @_ZSt16__insertion_sortIPiN9__gnu_cxx5__ops15_Iter_less_iterEEvT_S4_T0_(i32* %17, i32* %19), !llfi_index !1318
  %20 = load i32*, i32** %4, align 8, !llfi_index !1319
  %21 = getelementptr inbounds i32, i32* %20, i64 16, !llfi_index !1320
  %22 = load i32*, i32** %5, align 8, !llfi_index !1321
  call void @_ZSt26__unguarded_insertion_sortIPiN9__gnu_cxx5__ops15_Iter_less_iterEEvT_S4_T0_(i32* %21, i32* %22), !llfi_index !1322
  br label %26, !llfi_index !1323

23:                                               ; preds = %2
  %24 = load i32*, i32** %4, align 8, !llfi_index !1324
  %25 = load i32*, i32** %5, align 8, !llfi_index !1325
  call void @_ZSt16__insertion_sortIPiN9__gnu_cxx5__ops15_Iter_less_iterEEvT_S4_T0_(i32* %24, i32* %25), !llfi_index !1326
  br label %26, !llfi_index !1327

26:                                               ; preds = %23, %16
  ret void, !llfi_index !1328
}

; Function Attrs: mustprogress noinline uwtable
define linkonce_odr dso_local void @_ZSt16__insertion_sortIPiN9__gnu_cxx5__ops15_Iter_less_iterEEvT_S4_T0_(i32* %0, i32* %1) #8 comdat {
  %3 = alloca %"class.std::ios_base::Init", align 1, !llfi_index !1329
  %4 = alloca i32*, align 8, !llfi_index !1330
  %5 = alloca i32*, align 8, !llfi_index !1331
  %6 = alloca i32*, align 8, !llfi_index !1332
  %7 = alloca i32, align 4, !llfi_index !1333
  %8 = alloca %"class.std::ios_base::Init", align 1, !llfi_index !1334
  %9 = alloca %"class.std::ios_base::Init", align 1, !llfi_index !1335
  %10 = alloca %"class.std::ios_base::Init", align 1, !llfi_index !1336
  store i32* %0, i32** %4, align 8, !llfi_index !1337
  store i32* %1, i32** %5, align 8, !llfi_index !1338
  %11 = load i32*, i32** %4, align 8, !llfi_index !1339
  %12 = load i32*, i32** %5, align 8, !llfi_index !1340
  %13 = icmp eq i32* %11, %12, !llfi_index !1341
  br i1 %13, label %14, label %15, !llfi_index !1342

14:                                               ; preds = %2
  br label %44, !llfi_index !1343

15:                                               ; preds = %2
  %16 = load i32*, i32** %4, align 8, !llfi_index !1344
  %17 = getelementptr inbounds i32, i32* %16, i64 1, !llfi_index !1345
  store i32* %17, i32** %6, align 8, !llfi_index !1346
  br label %18, !llfi_index !1347

18:                                               ; preds = %41, %15
  %19 = load i32*, i32** %6, align 8, !llfi_index !1348
  %20 = load i32*, i32** %5, align 8, !llfi_index !1349
  %21 = icmp ne i32* %19, %20, !llfi_index !1350
  br i1 %21, label %22, label %44, !llfi_index !1351

22:                                               ; preds = %18
  %23 = load i32*, i32** %6, align 8, !llfi_index !1352
  %24 = load i32*, i32** %4, align 8, !llfi_index !1353
  %25 = call zeroext i1 @_ZNK9__gnu_cxx5__ops15_Iter_less_iterclIPiS3_EEbT_T0_(%"class.std::ios_base::Init"* nonnull align 1 dereferenceable(1) %3, i32* %23, i32* %24), !llfi_index !1354
  br i1 %25, label %26, label %38, !llfi_index !1355

26:                                               ; preds = %22
  %27 = load i32*, i32** %6, align 8, !llfi_index !1356
  %28 = call nonnull align 4 dereferenceable(4) i32* @_ZSt4moveIRiEONSt16remove_referenceIT_E4typeEOS2_(i32* nonnull align 4 dereferenceable(4) %27) #2, !llfi_index !1357
  %29 = load i32, i32* %28, align 4, !llfi_index !1358
  store i32 %29, i32* %7, align 4, !llfi_index !1359
  %30 = load i32*, i32** %4, align 8, !llfi_index !1360
  %31 = load i32*, i32** %6, align 8, !llfi_index !1361
  %32 = load i32*, i32** %6, align 8, !llfi_index !1362
  %33 = getelementptr inbounds i32, i32* %32, i64 1, !llfi_index !1363
  %34 = call i32* @_ZSt13move_backwardIPiS0_ET0_T_S2_S1_(i32* %30, i32* %31, i32* %33), !llfi_index !1364
  %35 = call nonnull align 4 dereferenceable(4) i32* @_ZSt4moveIRiEONSt16remove_referenceIT_E4typeEOS2_(i32* nonnull align 4 dereferenceable(4) %7) #2, !llfi_index !1365
  %36 = load i32, i32* %35, align 4, !llfi_index !1366
  %37 = load i32*, i32** %4, align 8, !llfi_index !1367
  store i32 %36, i32* %37, align 4, !llfi_index !1368
  br label %40, !llfi_index !1369

38:                                               ; preds = %22
  %39 = load i32*, i32** %6, align 8, !llfi_index !1370
  call void @_ZN9__gnu_cxx5__ops15__val_comp_iterENS0_15_Iter_less_iterE(), !llfi_index !1371
  call void @_ZSt25__unguarded_linear_insertIPiN9__gnu_cxx5__ops14_Val_less_iterEEvT_T0_(i32* %39), !llfi_index !1372
  br label %40, !llfi_index !1373

40:                                               ; preds = %38, %26
  br label %41, !llfi_index !1374

41:                                               ; preds = %40
  %42 = load i32*, i32** %6, align 8, !llfi_index !1375
  %43 = getelementptr inbounds i32, i32* %42, i32 1, !llfi_index !1376
  store i32* %43, i32** %6, align 8, !llfi_index !1377
  br label %18, !llvm.loop !1378, !llfi_index !1379

44:                                               ; preds = %18, %14
  ret void, !llfi_index !1380
}

; Function Attrs: mustprogress noinline uwtable
define linkonce_odr dso_local void @_ZSt26__unguarded_insertion_sortIPiN9__gnu_cxx5__ops15_Iter_less_iterEEvT_S4_T0_(i32* %0, i32* %1) #8 comdat {
  %3 = alloca %"class.std::ios_base::Init", align 1, !llfi_index !1381
  %4 = alloca i32*, align 8, !llfi_index !1382
  %5 = alloca i32*, align 8, !llfi_index !1383
  %6 = alloca i32*, align 8, !llfi_index !1384
  %7 = alloca %"class.std::ios_base::Init", align 1, !llfi_index !1385
  %8 = alloca %"class.std::ios_base::Init", align 1, !llfi_index !1386
  %9 = alloca %"class.std::ios_base::Init", align 1, !llfi_index !1387
  store i32* %0, i32** %4, align 8, !llfi_index !1388
  store i32* %1, i32** %5, align 8, !llfi_index !1389
  %10 = load i32*, i32** %4, align 8, !llfi_index !1390
  store i32* %10, i32** %6, align 8, !llfi_index !1391
  br label %11, !llfi_index !1392

11:                                               ; preds = %17, %2
  %12 = load i32*, i32** %6, align 8, !llfi_index !1393
  %13 = load i32*, i32** %5, align 8, !llfi_index !1394
  %14 = icmp ne i32* %12, %13, !llfi_index !1395
  br i1 %14, label %15, label %20, !llfi_index !1396

15:                                               ; preds = %11
  %16 = load i32*, i32** %6, align 8, !llfi_index !1397
  call void @_ZN9__gnu_cxx5__ops15__val_comp_iterENS0_15_Iter_less_iterE(), !llfi_index !1398
  call void @_ZSt25__unguarded_linear_insertIPiN9__gnu_cxx5__ops14_Val_less_iterEEvT_T0_(i32* %16), !llfi_index !1399
  br label %17, !llfi_index !1400

17:                                               ; preds = %15
  %18 = load i32*, i32** %6, align 8, !llfi_index !1401
  %19 = getelementptr inbounds i32, i32* %18, i32 1, !llfi_index !1402
  store i32* %19, i32** %6, align 8, !llfi_index !1403
  br label %11, !llvm.loop !1404, !llfi_index !1405

20:                                               ; preds = %11
  ret void, !llfi_index !1406
}

; Function Attrs: mustprogress noinline nounwind uwtable
define linkonce_odr dso_local void @_ZN9__gnu_cxx5__ops15__val_comp_iterENS0_15_Iter_less_iterE() #9 comdat {
  %1 = alloca %"class.std::ios_base::Init", align 1, !llfi_index !1407
  ret void, !llfi_index !1408
}

; Function Attrs: mustprogress noinline uwtable
define linkonce_odr dso_local void @_ZSt25__unguarded_linear_insertIPiN9__gnu_cxx5__ops14_Val_less_iterEEvT_T0_(i32* %0) #8 comdat {
  %2 = alloca %"class.std::ios_base::Init", align 1, !llfi_index !1409
  %3 = alloca i32*, align 8, !llfi_index !1410
  %4 = alloca i32, align 4, !llfi_index !1411
  %5 = alloca i32*, align 8, !llfi_index !1412
  store i32* %0, i32** %3, align 8, !llfi_index !1413
  %6 = load i32*, i32** %3, align 8, !llfi_index !1414
  %7 = call nonnull align 4 dereferenceable(4) i32* @_ZSt4moveIRiEONSt16remove_referenceIT_E4typeEOS2_(i32* nonnull align 4 dereferenceable(4) %6) #2, !llfi_index !1415
  %8 = load i32, i32* %7, align 4, !llfi_index !1416
  store i32 %8, i32* %4, align 4, !llfi_index !1417
  %9 = load i32*, i32** %3, align 8, !llfi_index !1418
  store i32* %9, i32** %5, align 8, !llfi_index !1419
  %10 = load i32*, i32** %5, align 8, !llfi_index !1420
  %11 = getelementptr inbounds i32, i32* %10, i32 -1, !llfi_index !1421
  store i32* %11, i32** %5, align 8, !llfi_index !1422
  br label %12, !llfi_index !1423

12:                                               ; preds = %15, %1
  %13 = load i32*, i32** %5, align 8, !llfi_index !1424
  %14 = call zeroext i1 @_ZNK9__gnu_cxx5__ops14_Val_less_iterclIiPiEEbRT_T0_(%"class.std::ios_base::Init"* nonnull align 1 dereferenceable(1) %2, i32* nonnull align 4 dereferenceable(4) %4, i32* %13), !llfi_index !1425
  br i1 %14, label %15, label %23, !llfi_index !1426

15:                                               ; preds = %12
  %16 = load i32*, i32** %5, align 8, !llfi_index !1427
  %17 = call nonnull align 4 dereferenceable(4) i32* @_ZSt4moveIRiEONSt16remove_referenceIT_E4typeEOS2_(i32* nonnull align 4 dereferenceable(4) %16) #2, !llfi_index !1428
  %18 = load i32, i32* %17, align 4, !llfi_index !1429
  %19 = load i32*, i32** %3, align 8, !llfi_index !1430
  store i32 %18, i32* %19, align 4, !llfi_index !1431
  %20 = load i32*, i32** %5, align 8, !llfi_index !1432
  store i32* %20, i32** %3, align 8, !llfi_index !1433
  %21 = load i32*, i32** %5, align 8, !llfi_index !1434
  %22 = getelementptr inbounds i32, i32* %21, i32 -1, !llfi_index !1435
  store i32* %22, i32** %5, align 8, !llfi_index !1436
  br label %12, !llvm.loop !1437, !llfi_index !1438

23:                                               ; preds = %12
  %24 = call nonnull align 4 dereferenceable(4) i32* @_ZSt4moveIRiEONSt16remove_referenceIT_E4typeEOS2_(i32* nonnull align 4 dereferenceable(4) %4) #2, !llfi_index !1439
  %25 = load i32, i32* %24, align 4, !llfi_index !1440
  %26 = load i32*, i32** %3, align 8, !llfi_index !1441
  store i32 %25, i32* %26, align 4, !llfi_index !1442
  ret void, !llfi_index !1443
}

; Function Attrs: mustprogress noinline nounwind uwtable
define linkonce_odr dso_local nonnull align 4 dereferenceable(4) i32* @_ZSt4moveIRiEONSt16remove_referenceIT_E4typeEOS2_(i32* nonnull align 4 dereferenceable(4) %0) #9 comdat {
  %2 = alloca i32*, align 8, !llfi_index !1444
  store i32* %0, i32** %2, align 8, !llfi_index !1445
  %3 = load i32*, i32** %2, align 8, !llfi_index !1446
  ret i32* %3, !llfi_index !1447
}

; Function Attrs: mustprogress noinline nounwind uwtable
define linkonce_odr dso_local zeroext i1 @_ZNK9__gnu_cxx5__ops14_Val_less_iterclIiPiEEbRT_T0_(%"class.std::ios_base::Init"* nonnull align 1 dereferenceable(1) %0, i32* nonnull align 4 dereferenceable(4) %1, i32* %2) #9 comdat align 2 {
  %4 = alloca %"class.std::ios_base::Init"*, align 8, !llfi_index !1448
  %5 = alloca i32*, align 8, !llfi_index !1449
  %6 = alloca i32*, align 8, !llfi_index !1450
  store %"class.std::ios_base::Init"* %0, %"class.std::ios_base::Init"** %4, align 8, !llfi_index !1451
  store i32* %1, i32** %5, align 8, !llfi_index !1452
  store i32* %2, i32** %6, align 8, !llfi_index !1453
  %7 = load %"class.std::ios_base::Init"*, %"class.std::ios_base::Init"** %4, align 8, !llfi_index !1454
  %8 = load i32*, i32** %5, align 8, !llfi_index !1455
  %9 = load i32, i32* %8, align 4, !llfi_index !1456
  %10 = load i32*, i32** %6, align 8, !llfi_index !1457
  %11 = load i32, i32* %10, align 4, !llfi_index !1458
  %12 = icmp slt i32 %9, %11, !llfi_index !1459
  ret i1 %12, !llfi_index !1460
}

; Function Attrs: mustprogress noinline nounwind uwtable
define linkonce_odr dso_local zeroext i1 @_ZNK9__gnu_cxx5__ops15_Iter_less_iterclIPiS3_EEbT_T0_(%"class.std::ios_base::Init"* nonnull align 1 dereferenceable(1) %0, i32* %1, i32* %2) #9 comdat align 2 {
  %4 = alloca %"class.std::ios_base::Init"*, align 8, !llfi_index !1461
  %5 = alloca i32*, align 8, !llfi_index !1462
  %6 = alloca i32*, align 8, !llfi_index !1463
  store %"class.std::ios_base::Init"* %0, %"class.std::ios_base::Init"** %4, align 8, !llfi_index !1464
  store i32* %1, i32** %5, align 8, !llfi_index !1465
  store i32* %2, i32** %6, align 8, !llfi_index !1466
  %7 = load %"class.std::ios_base::Init"*, %"class.std::ios_base::Init"** %4, align 8, !llfi_index !1467
  %8 = load i32*, i32** %5, align 8, !llfi_index !1468
  %9 = load i32, i32* %8, align 4, !llfi_index !1469
  %10 = load i32*, i32** %6, align 8, !llfi_index !1470
  %11 = load i32, i32* %10, align 4, !llfi_index !1471
  %12 = icmp slt i32 %9, %11, !llfi_index !1472
  ret i1 %12, !llfi_index !1473
}

; Function Attrs: mustprogress noinline uwtable
define linkonce_odr dso_local i32* @_ZSt13move_backwardIPiS0_ET0_T_S2_S1_(i32* %0, i32* %1, i32* %2) #8 comdat {
  %4 = alloca i32*, align 8, !llfi_index !1474
  %5 = alloca i32*, align 8, !llfi_index !1475
  %6 = alloca i32*, align 8, !llfi_index !1476
  store i32* %0, i32** %4, align 8, !llfi_index !1477
  store i32* %1, i32** %5, align 8, !llfi_index !1478
  store i32* %2, i32** %6, align 8, !llfi_index !1479
  %7 = load i32*, i32** %4, align 8, !llfi_index !1480
  %8 = call i32* @_ZSt12__miter_baseIPiET_S1_(i32* %7), !llfi_index !1481
  %9 = load i32*, i32** %5, align 8, !llfi_index !1482
  %10 = call i32* @_ZSt12__miter_baseIPiET_S1_(i32* %9), !llfi_index !1483
  %11 = load i32*, i32** %6, align 8, !llfi_index !1484
  %12 = call i32* @_ZSt23__copy_move_backward_a2ILb1EPiS0_ET1_T0_S2_S1_(i32* %8, i32* %10, i32* %11), !llfi_index !1485
  ret i32* %12, !llfi_index !1486
}

; Function Attrs: mustprogress noinline nounwind uwtable
define linkonce_odr dso_local i32* @_ZSt12__miter_baseIPiET_S1_(i32* %0) #9 comdat {
  %2 = alloca i32*, align 8, !llfi_index !1487
  store i32* %0, i32** %2, align 8, !llfi_index !1488
  %3 = load i32*, i32** %2, align 8, !llfi_index !1489
  ret i32* %3, !llfi_index !1490
}

; Function Attrs: mustprogress noinline uwtable
define linkonce_odr dso_local i32* @_ZSt23__copy_move_backward_a2ILb1EPiS0_ET1_T0_S2_S1_(i32* %0, i32* %1, i32* %2) #8 comdat {
  %4 = alloca i32*, align 8, !llfi_index !1491
  %5 = alloca i32*, align 8, !llfi_index !1492
  %6 = alloca i32*, align 8, !llfi_index !1493
  store i32* %0, i32** %4, align 8, !llfi_index !1494
  store i32* %1, i32** %5, align 8, !llfi_index !1495
  store i32* %2, i32** %6, align 8, !llfi_index !1496
  %7 = load i32*, i32** %4, align 8, !llfi_index !1497
  %8 = call i32* @_ZSt12__niter_baseIPiET_S1_(i32* %7) #2, !llfi_index !1498
  %9 = load i32*, i32** %5, align 8, !llfi_index !1499
  %10 = call i32* @_ZSt12__niter_baseIPiET_S1_(i32* %9) #2, !llfi_index !1500
  %11 = load i32*, i32** %6, align 8, !llfi_index !1501
  %12 = call i32* @_ZSt12__niter_baseIPiET_S1_(i32* %11) #2, !llfi_index !1502
  %13 = call i32* @_ZSt22__copy_move_backward_aILb1EPiS0_ET1_T0_S2_S1_(i32* %8, i32* %10, i32* %12), !llfi_index !1503
  %14 = call i32* @_ZSt12__niter_wrapIPiET_RKS1_S1_(i32** nonnull align 8 dereferenceable(8) %6, i32* %13), !llfi_index !1504
  ret i32* %14, !llfi_index !1505
}

; Function Attrs: mustprogress noinline nounwind uwtable
define linkonce_odr dso_local i32* @_ZSt12__niter_baseIPiET_S1_(i32* %0) #9 comdat {
  %2 = alloca i32*, align 8, !llfi_index !1506
  store i32* %0, i32** %2, align 8, !llfi_index !1507
  %3 = load i32*, i32** %2, align 8, !llfi_index !1508
  ret i32* %3, !llfi_index !1509
}

; Function Attrs: mustprogress noinline uwtable
define linkonce_odr dso_local i32* @_ZSt22__copy_move_backward_aILb1EPiS0_ET1_T0_S2_S1_(i32* %0, i32* %1, i32* %2) #8 comdat {
  %4 = alloca i32*, align 8, !llfi_index !1510
  %5 = alloca i32*, align 8, !llfi_index !1511
  %6 = alloca i32*, align 8, !llfi_index !1512
  %7 = alloca i8, align 1, !llfi_index !1513
  store i32* %0, i32** %4, align 8, !llfi_index !1514
  store i32* %1, i32** %5, align 8, !llfi_index !1515
  store i32* %2, i32** %6, align 8, !llfi_index !1516
  store i8 1, i8* %7, align 1, !llfi_index !1517
  %8 = load i32*, i32** %4, align 8, !llfi_index !1518
  %9 = load i32*, i32** %5, align 8, !llfi_index !1519
  %10 = load i32*, i32** %6, align 8, !llfi_index !1520
  %11 = call i32* @_ZNSt20__copy_move_backwardILb1ELb1ESt26random_access_iterator_tagE13__copy_move_bIiEEPT_PKS3_S6_S4_(i32* %8, i32* %9, i32* %10), !llfi_index !1521
  ret i32* %11, !llfi_index !1522
}

; Function Attrs: mustprogress noinline nounwind uwtable
define linkonce_odr dso_local i32* @_ZSt12__niter_wrapIPiET_RKS1_S1_(i32** nonnull align 8 dereferenceable(8) %0, i32* %1) #9 comdat {
  %3 = alloca i32**, align 8, !llfi_index !1523
  %4 = alloca i32*, align 8, !llfi_index !1524
  store i32** %0, i32*** %3, align 8, !llfi_index !1525
  store i32* %1, i32** %4, align 8, !llfi_index !1526
  %5 = load i32*, i32** %4, align 8, !llfi_index !1527
  ret i32* %5, !llfi_index !1528
}

; Function Attrs: mustprogress noinline nounwind uwtable
define linkonce_odr dso_local i32* @_ZNSt20__copy_move_backwardILb1ELb1ESt26random_access_iterator_tagE13__copy_move_bIiEEPT_PKS3_S6_S4_(i32* %0, i32* %1, i32* %2) #9 comdat align 2 {
  %4 = alloca i32*, align 8, !llfi_index !1529
  %5 = alloca i32*, align 8, !llfi_index !1530
  %6 = alloca i32*, align 8, !llfi_index !1531
  %7 = alloca i64, align 8, !llfi_index !1532
  store i32* %0, i32** %4, align 8, !llfi_index !1533
  store i32* %1, i32** %5, align 8, !llfi_index !1534
  store i32* %2, i32** %6, align 8, !llfi_index !1535
  %8 = load i32*, i32** %5, align 8, !llfi_index !1536
  %9 = load i32*, i32** %4, align 8, !llfi_index !1537
  %10 = ptrtoint i32* %8 to i64, !llfi_index !1538
  %11 = ptrtoint i32* %9 to i64, !llfi_index !1539
  %12 = sub i64 %10, %11, !llfi_index !1540
  %13 = sdiv exact i64 %12, 4, !llfi_index !1541
  store i64 %13, i64* %7, align 8, !llfi_index !1542
  %14 = load i64, i64* %7, align 8, !llfi_index !1543
  %15 = icmp ne i64 %14, 0, !llfi_index !1544
  br i1 %15, label %16, label %26, !llfi_index !1545

16:                                               ; preds = %3
  %17 = load i32*, i32** %6, align 8, !llfi_index !1546
  %18 = load i64, i64* %7, align 8, !llfi_index !1547
  %19 = sub i64 0, %18, !llfi_index !1548
  %20 = getelementptr inbounds i32, i32* %17, i64 %19, !llfi_index !1549
  %21 = bitcast i32* %20 to i8*, !llfi_index !1550
  %22 = load i32*, i32** %4, align 8, !llfi_index !1551
  %23 = bitcast i32* %22 to i8*, !llfi_index !1552
  %24 = load i64, i64* %7, align 8, !llfi_index !1553
  %25 = mul i64 4, %24, !llfi_index !1554
  call void @llvm.memmove.p0i8.p0i8.i64(i8* align 4 %21, i8* align 4 %23, i64 %25, i1 false), !llfi_index !1555
  br label %26, !llfi_index !1556

26:                                               ; preds = %16, %3
  %27 = load i32*, i32** %6, align 8, !llfi_index !1557
  %28 = load i64, i64* %7, align 8, !llfi_index !1558
  %29 = sub i64 0, %28, !llfi_index !1559
  %30 = getelementptr inbounds i32, i32* %27, i64 %29, !llfi_index !1560
  ret i32* %30, !llfi_index !1561
}

; Function Attrs: argmemonly nofree nounwind willreturn
declare void @llvm.memmove.p0i8.p0i8.i64(i8* nocapture writeonly, i8* nocapture readonly, i64, i1 immarg) #11

; Function Attrs: mustprogress noinline uwtable
define linkonce_odr dso_local void @_ZSt14__partial_sortIPiN9__gnu_cxx5__ops15_Iter_less_iterEEvT_S4_S4_T0_(i32* %0, i32* %1, i32* %2) #8 comdat {
  %4 = alloca %"class.std::ios_base::Init", align 1, !llfi_index !1562
  %5 = alloca i32*, align 8, !llfi_index !1563
  %6 = alloca i32*, align 8, !llfi_index !1564
  %7 = alloca i32*, align 8, !llfi_index !1565
  %8 = alloca %"class.std::ios_base::Init", align 1, !llfi_index !1566
  store i32* %0, i32** %5, align 8, !llfi_index !1567
  store i32* %1, i32** %6, align 8, !llfi_index !1568
  store i32* %2, i32** %7, align 8, !llfi_index !1569
  %9 = load i32*, i32** %5, align 8, !llfi_index !1570
  %10 = load i32*, i32** %6, align 8, !llfi_index !1571
  %11 = load i32*, i32** %7, align 8, !llfi_index !1572
  call void @_ZSt13__heap_selectIPiN9__gnu_cxx5__ops15_Iter_less_iterEEvT_S4_S4_T0_(i32* %9, i32* %10, i32* %11), !llfi_index !1573
  %12 = load i32*, i32** %5, align 8, !llfi_index !1574
  %13 = load i32*, i32** %6, align 8, !llfi_index !1575
  call void @_ZSt11__sort_heapIPiN9__gnu_cxx5__ops15_Iter_less_iterEEvT_S4_RT0_(i32* %12, i32* %13, %"class.std::ios_base::Init"* nonnull align 1 dereferenceable(1) %4), !llfi_index !1576
  ret void, !llfi_index !1577
}

; Function Attrs: mustprogress noinline uwtable
define linkonce_odr dso_local i32* @_ZSt27__unguarded_partition_pivotIPiN9__gnu_cxx5__ops15_Iter_less_iterEET_S4_S4_T0_(i32* %0, i32* %1) #8 comdat {
  %3 = alloca %"class.std::ios_base::Init", align 1, !llfi_index !1578
  %4 = alloca i32*, align 8, !llfi_index !1579
  %5 = alloca i32*, align 8, !llfi_index !1580
  %6 = alloca i32*, align 8, !llfi_index !1581
  %7 = alloca %"class.std::ios_base::Init", align 1, !llfi_index !1582
  %8 = alloca %"class.std::ios_base::Init", align 1, !llfi_index !1583
  store i32* %0, i32** %4, align 8, !llfi_index !1584
  store i32* %1, i32** %5, align 8, !llfi_index !1585
  %9 = load i32*, i32** %4, align 8, !llfi_index !1586
  %10 = load i32*, i32** %5, align 8, !llfi_index !1587
  %11 = load i32*, i32** %4, align 8, !llfi_index !1588
  %12 = ptrtoint i32* %10 to i64, !llfi_index !1589
  %13 = ptrtoint i32* %11 to i64, !llfi_index !1590
  %14 = sub i64 %12, %13, !llfi_index !1591
  %15 = sdiv exact i64 %14, 4, !llfi_index !1592
  %16 = sdiv i64 %15, 2, !llfi_index !1593
  %17 = getelementptr inbounds i32, i32* %9, i64 %16, !llfi_index !1594
  store i32* %17, i32** %6, align 8, !llfi_index !1595
  %18 = load i32*, i32** %4, align 8, !llfi_index !1596
  %19 = load i32*, i32** %4, align 8, !llfi_index !1597
  %20 = getelementptr inbounds i32, i32* %19, i64 1, !llfi_index !1598
  %21 = load i32*, i32** %6, align 8, !llfi_index !1599
  %22 = load i32*, i32** %5, align 8, !llfi_index !1600
  %23 = getelementptr inbounds i32, i32* %22, i64 -1, !llfi_index !1601
  call void @_ZSt22__move_median_to_firstIPiN9__gnu_cxx5__ops15_Iter_less_iterEEvT_S4_S4_S4_T0_(i32* %18, i32* %20, i32* %21, i32* %23), !llfi_index !1602
  %24 = load i32*, i32** %4, align 8, !llfi_index !1603
  %25 = getelementptr inbounds i32, i32* %24, i64 1, !llfi_index !1604
  %26 = load i32*, i32** %5, align 8, !llfi_index !1605
  %27 = load i32*, i32** %4, align 8, !llfi_index !1606
  %28 = call i32* @_ZSt21__unguarded_partitionIPiN9__gnu_cxx5__ops15_Iter_less_iterEET_S4_S4_S4_T0_(i32* %25, i32* %26, i32* %27), !llfi_index !1607
  ret i32* %28, !llfi_index !1608
}

; Function Attrs: mustprogress noinline uwtable
define linkonce_odr dso_local void @_ZSt22__move_median_to_firstIPiN9__gnu_cxx5__ops15_Iter_less_iterEEvT_S4_S4_S4_T0_(i32* %0, i32* %1, i32* %2, i32* %3) #8 comdat {
  %5 = alloca %"class.std::ios_base::Init", align 1, !llfi_index !1609
  %6 = alloca i32*, align 8, !llfi_index !1610
  %7 = alloca i32*, align 8, !llfi_index !1611
  %8 = alloca i32*, align 8, !llfi_index !1612
  %9 = alloca i32*, align 8, !llfi_index !1613
  store i32* %0, i32** %6, align 8, !llfi_index !1614
  store i32* %1, i32** %7, align 8, !llfi_index !1615
  store i32* %2, i32** %8, align 8, !llfi_index !1616
  store i32* %3, i32** %9, align 8, !llfi_index !1617
  %10 = load i32*, i32** %7, align 8, !llfi_index !1618
  %11 = load i32*, i32** %8, align 8, !llfi_index !1619
  %12 = call zeroext i1 @_ZNK9__gnu_cxx5__ops15_Iter_less_iterclIPiS3_EEbT_T0_(%"class.std::ios_base::Init"* nonnull align 1 dereferenceable(1) %5, i32* %10, i32* %11), !llfi_index !1620
  br i1 %12, label %13, label %32, !llfi_index !1621

13:                                               ; preds = %4
  %14 = load i32*, i32** %8, align 8, !llfi_index !1622
  %15 = load i32*, i32** %9, align 8, !llfi_index !1623
  %16 = call zeroext i1 @_ZNK9__gnu_cxx5__ops15_Iter_less_iterclIPiS3_EEbT_T0_(%"class.std::ios_base::Init"* nonnull align 1 dereferenceable(1) %5, i32* %14, i32* %15), !llfi_index !1624
  br i1 %16, label %17, label %20, !llfi_index !1625

17:                                               ; preds = %13
  %18 = load i32*, i32** %6, align 8, !llfi_index !1626
  %19 = load i32*, i32** %8, align 8, !llfi_index !1627
  call void @_ZSt9iter_swapIPiS0_EvT_T0_(i32* %18, i32* %19), !llfi_index !1628
  br label %31, !llfi_index !1629

20:                                               ; preds = %13
  %21 = load i32*, i32** %7, align 8, !llfi_index !1630
  %22 = load i32*, i32** %9, align 8, !llfi_index !1631
  %23 = call zeroext i1 @_ZNK9__gnu_cxx5__ops15_Iter_less_iterclIPiS3_EEbT_T0_(%"class.std::ios_base::Init"* nonnull align 1 dereferenceable(1) %5, i32* %21, i32* %22), !llfi_index !1632
  br i1 %23, label %24, label %27, !llfi_index !1633

24:                                               ; preds = %20
  %25 = load i32*, i32** %6, align 8, !llfi_index !1634
  %26 = load i32*, i32** %9, align 8, !llfi_index !1635
  call void @_ZSt9iter_swapIPiS0_EvT_T0_(i32* %25, i32* %26), !llfi_index !1636
  br label %30, !llfi_index !1637

27:                                               ; preds = %20
  %28 = load i32*, i32** %6, align 8, !llfi_index !1638
  %29 = load i32*, i32** %7, align 8, !llfi_index !1639
  call void @_ZSt9iter_swapIPiS0_EvT_T0_(i32* %28, i32* %29), !llfi_index !1640
  br label %30, !llfi_index !1641

30:                                               ; preds = %27, %24
  br label %31, !llfi_index !1642

31:                                               ; preds = %30, %17
  br label %51, !llfi_index !1643

32:                                               ; preds = %4
  %33 = load i32*, i32** %7, align 8, !llfi_index !1644
  %34 = load i32*, i32** %9, align 8, !llfi_index !1645
  %35 = call zeroext i1 @_ZNK9__gnu_cxx5__ops15_Iter_less_iterclIPiS3_EEbT_T0_(%"class.std::ios_base::Init"* nonnull align 1 dereferenceable(1) %5, i32* %33, i32* %34), !llfi_index !1646
  br i1 %35, label %36, label %39, !llfi_index !1647

36:                                               ; preds = %32
  %37 = load i32*, i32** %6, align 8, !llfi_index !1648
  %38 = load i32*, i32** %7, align 8, !llfi_index !1649
  call void @_ZSt9iter_swapIPiS0_EvT_T0_(i32* %37, i32* %38), !llfi_index !1650
  br label %50, !llfi_index !1651

39:                                               ; preds = %32
  %40 = load i32*, i32** %8, align 8, !llfi_index !1652
  %41 = load i32*, i32** %9, align 8, !llfi_index !1653
  %42 = call zeroext i1 @_ZNK9__gnu_cxx5__ops15_Iter_less_iterclIPiS3_EEbT_T0_(%"class.std::ios_base::Init"* nonnull align 1 dereferenceable(1) %5, i32* %40, i32* %41), !llfi_index !1654
  br i1 %42, label %43, label %46, !llfi_index !1655

43:                                               ; preds = %39
  %44 = load i32*, i32** %6, align 8, !llfi_index !1656
  %45 = load i32*, i32** %9, align 8, !llfi_index !1657
  call void @_ZSt9iter_swapIPiS0_EvT_T0_(i32* %44, i32* %45), !llfi_index !1658
  br label %49, !llfi_index !1659

46:                                               ; preds = %39
  %47 = load i32*, i32** %6, align 8, !llfi_index !1660
  %48 = load i32*, i32** %8, align 8, !llfi_index !1661
  call void @_ZSt9iter_swapIPiS0_EvT_T0_(i32* %47, i32* %48), !llfi_index !1662
  br label %49, !llfi_index !1663

49:                                               ; preds = %46, %43
  br label %50, !llfi_index !1664

50:                                               ; preds = %49, %36
  br label %51, !llfi_index !1665

51:                                               ; preds = %50, %31
  ret void, !llfi_index !1666
}

; Function Attrs: mustprogress noinline nounwind uwtable
define linkonce_odr dso_local i32* @_ZSt21__unguarded_partitionIPiN9__gnu_cxx5__ops15_Iter_less_iterEET_S4_S4_S4_T0_(i32* %0, i32* %1, i32* %2) #9 comdat {
  %4 = alloca %"class.std::ios_base::Init", align 1, !llfi_index !1667
  %5 = alloca i32*, align 8, !llfi_index !1668
  %6 = alloca i32*, align 8, !llfi_index !1669
  %7 = alloca i32*, align 8, !llfi_index !1670
  store i32* %0, i32** %5, align 8, !llfi_index !1671
  store i32* %1, i32** %6, align 8, !llfi_index !1672
  store i32* %2, i32** %7, align 8, !llfi_index !1673
  br label %8, !llfi_index !1674

8:                                                ; preds = %32, %3
  br label %9, !llfi_index !1675

9:                                                ; preds = %13, %8
  %10 = load i32*, i32** %5, align 8, !llfi_index !1676
  %11 = load i32*, i32** %7, align 8, !llfi_index !1677
  %12 = call zeroext i1 @_ZNK9__gnu_cxx5__ops15_Iter_less_iterclIPiS3_EEbT_T0_(%"class.std::ios_base::Init"* nonnull align 1 dereferenceable(1) %4, i32* %10, i32* %11), !llfi_index !1678
  br i1 %12, label %13, label %16, !llfi_index !1679

13:                                               ; preds = %9
  %14 = load i32*, i32** %5, align 8, !llfi_index !1680
  %15 = getelementptr inbounds i32, i32* %14, i32 1, !llfi_index !1681
  store i32* %15, i32** %5, align 8, !llfi_index !1682
  br label %9, !llvm.loop !1683, !llfi_index !1684

16:                                               ; preds = %9
  %17 = load i32*, i32** %6, align 8, !llfi_index !1685
  %18 = getelementptr inbounds i32, i32* %17, i32 -1, !llfi_index !1686
  store i32* %18, i32** %6, align 8, !llfi_index !1687
  br label %19, !llfi_index !1688

19:                                               ; preds = %23, %16
  %20 = load i32*, i32** %7, align 8, !llfi_index !1689
  %21 = load i32*, i32** %6, align 8, !llfi_index !1690
  %22 = call zeroext i1 @_ZNK9__gnu_cxx5__ops15_Iter_less_iterclIPiS3_EEbT_T0_(%"class.std::ios_base::Init"* nonnull align 1 dereferenceable(1) %4, i32* %20, i32* %21), !llfi_index !1691
  br i1 %22, label %23, label %26, !llfi_index !1692

23:                                               ; preds = %19
  %24 = load i32*, i32** %6, align 8, !llfi_index !1693
  %25 = getelementptr inbounds i32, i32* %24, i32 -1, !llfi_index !1694
  store i32* %25, i32** %6, align 8, !llfi_index !1695
  br label %19, !llvm.loop !1696, !llfi_index !1697

26:                                               ; preds = %19
  %27 = load i32*, i32** %5, align 8, !llfi_index !1698
  %28 = load i32*, i32** %6, align 8, !llfi_index !1699
  %29 = icmp ult i32* %27, %28, !llfi_index !1700
  br i1 %29, label %32, label %30, !llfi_index !1701

30:                                               ; preds = %26
  %31 = load i32*, i32** %5, align 8, !llfi_index !1702
  ret i32* %31, !llfi_index !1703

32:                                               ; preds = %26
  %33 = load i32*, i32** %5, align 8, !llfi_index !1704
  %34 = load i32*, i32** %6, align 8, !llfi_index !1705
  call void @_ZSt9iter_swapIPiS0_EvT_T0_(i32* %33, i32* %34), !llfi_index !1706
  %35 = load i32*, i32** %5, align 8, !llfi_index !1707
  %36 = getelementptr inbounds i32, i32* %35, i32 1, !llfi_index !1708
  store i32* %36, i32** %5, align 8, !llfi_index !1709
  br label %8, !llvm.loop !1710, !llfi_index !1711
}

; Function Attrs: mustprogress noinline nounwind uwtable
define linkonce_odr dso_local void @_ZSt9iter_swapIPiS0_EvT_T0_(i32* %0, i32* %1) #9 comdat {
  %3 = alloca i32*, align 8, !llfi_index !1712
  %4 = alloca i32*, align 8, !llfi_index !1713
  store i32* %0, i32** %3, align 8, !llfi_index !1714
  store i32* %1, i32** %4, align 8, !llfi_index !1715
  %5 = load i32*, i32** %3, align 8, !llfi_index !1716
  %6 = load i32*, i32** %4, align 8, !llfi_index !1717
  call void @_ZSt4swapIiENSt9enable_ifIXsr6__and_ISt6__not_ISt15__is_tuple_likeIT_EESt21is_move_constructibleIS3_ESt18is_move_assignableIS3_EEE5valueEvE4typeERS3_SC_(i32* nonnull align 4 dereferenceable(4) %5, i32* nonnull align 4 dereferenceable(4) %6) #2, !llfi_index !1718
  ret void, !llfi_index !1719
}

; Function Attrs: mustprogress noinline nounwind uwtable
define linkonce_odr dso_local void @_ZSt4swapIiENSt9enable_ifIXsr6__and_ISt6__not_ISt15__is_tuple_likeIT_EESt21is_move_constructibleIS3_ESt18is_move_assignableIS3_EEE5valueEvE4typeERS3_SC_(i32* nonnull align 4 dereferenceable(4) %0, i32* nonnull align 4 dereferenceable(4) %1) #9 comdat {
  %3 = alloca i32*, align 8, !llfi_index !1720
  %4 = alloca i32*, align 8, !llfi_index !1721
  %5 = alloca i32, align 4, !llfi_index !1722
  store i32* %0, i32** %3, align 8, !llfi_index !1723
  store i32* %1, i32** %4, align 8, !llfi_index !1724
  %6 = load i32*, i32** %3, align 8, !llfi_index !1725
  %7 = call nonnull align 4 dereferenceable(4) i32* @_ZSt4moveIRiEONSt16remove_referenceIT_E4typeEOS2_(i32* nonnull align 4 dereferenceable(4) %6) #2, !llfi_index !1726
  %8 = load i32, i32* %7, align 4, !llfi_index !1727
  store i32 %8, i32* %5, align 4, !llfi_index !1728
  %9 = load i32*, i32** %4, align 8, !llfi_index !1729
  %10 = call nonnull align 4 dereferenceable(4) i32* @_ZSt4moveIRiEONSt16remove_referenceIT_E4typeEOS2_(i32* nonnull align 4 dereferenceable(4) %9) #2, !llfi_index !1730
  %11 = load i32, i32* %10, align 4, !llfi_index !1731
  %12 = load i32*, i32** %3, align 8, !llfi_index !1732
  store i32 %11, i32* %12, align 4, !llfi_index !1733
  %13 = call nonnull align 4 dereferenceable(4) i32* @_ZSt4moveIRiEONSt16remove_referenceIT_E4typeEOS2_(i32* nonnull align 4 dereferenceable(4) %5) #2, !llfi_index !1734
  %14 = load i32, i32* %13, align 4, !llfi_index !1735
  %15 = load i32*, i32** %4, align 8, !llfi_index !1736
  store i32 %14, i32* %15, align 4, !llfi_index !1737
  ret void, !llfi_index !1738
}

; Function Attrs: mustprogress noinline uwtable
define linkonce_odr dso_local void @_ZSt13__heap_selectIPiN9__gnu_cxx5__ops15_Iter_less_iterEEvT_S4_S4_T0_(i32* %0, i32* %1, i32* %2) #8 comdat {
  %4 = alloca %"class.std::ios_base::Init", align 1, !llfi_index !1739
  %5 = alloca i32*, align 8, !llfi_index !1740
  %6 = alloca i32*, align 8, !llfi_index !1741
  %7 = alloca i32*, align 8, !llfi_index !1742
  %8 = alloca i32*, align 8, !llfi_index !1743
  store i32* %0, i32** %5, align 8, !llfi_index !1744
  store i32* %1, i32** %6, align 8, !llfi_index !1745
  store i32* %2, i32** %7, align 8, !llfi_index !1746
  %9 = load i32*, i32** %5, align 8, !llfi_index !1747
  %10 = load i32*, i32** %6, align 8, !llfi_index !1748
  call void @_ZSt11__make_heapIPiN9__gnu_cxx5__ops15_Iter_less_iterEEvT_S4_RT0_(i32* %9, i32* %10, %"class.std::ios_base::Init"* nonnull align 1 dereferenceable(1) %4), !llfi_index !1749
  %11 = load i32*, i32** %6, align 8, !llfi_index !1750
  store i32* %11, i32** %8, align 8, !llfi_index !1751
  br label %12, !llfi_index !1752

12:                                               ; preds = %25, %3
  %13 = load i32*, i32** %8, align 8, !llfi_index !1753
  %14 = load i32*, i32** %7, align 8, !llfi_index !1754
  %15 = icmp ult i32* %13, %14, !llfi_index !1755
  br i1 %15, label %16, label %28, !llfi_index !1756

16:                                               ; preds = %12
  %17 = load i32*, i32** %8, align 8, !llfi_index !1757
  %18 = load i32*, i32** %5, align 8, !llfi_index !1758
  %19 = call zeroext i1 @_ZNK9__gnu_cxx5__ops15_Iter_less_iterclIPiS3_EEbT_T0_(%"class.std::ios_base::Init"* nonnull align 1 dereferenceable(1) %4, i32* %17, i32* %18), !llfi_index !1759
  br i1 %19, label %20, label %24, !llfi_index !1760

20:                                               ; preds = %16
  %21 = load i32*, i32** %5, align 8, !llfi_index !1761
  %22 = load i32*, i32** %6, align 8, !llfi_index !1762
  %23 = load i32*, i32** %8, align 8, !llfi_index !1763
  call void @_ZSt10__pop_heapIPiN9__gnu_cxx5__ops15_Iter_less_iterEEvT_S4_S4_RT0_(i32* %21, i32* %22, i32* %23, %"class.std::ios_base::Init"* nonnull align 1 dereferenceable(1) %4), !llfi_index !1764
  br label %24, !llfi_index !1765

24:                                               ; preds = %20, %16
  br label %25, !llfi_index !1766

25:                                               ; preds = %24
  %26 = load i32*, i32** %8, align 8, !llfi_index !1767
  %27 = getelementptr inbounds i32, i32* %26, i32 1, !llfi_index !1768
  store i32* %27, i32** %8, align 8, !llfi_index !1769
  br label %12, !llvm.loop !1770, !llfi_index !1771

28:                                               ; preds = %12
  ret void, !llfi_index !1772
}

; Function Attrs: mustprogress noinline uwtable
define linkonce_odr dso_local void @_ZSt11__sort_heapIPiN9__gnu_cxx5__ops15_Iter_less_iterEEvT_S4_RT0_(i32* %0, i32* %1, %"class.std::ios_base::Init"* nonnull align 1 dereferenceable(1) %2) #8 comdat {
  %4 = alloca i32*, align 8, !llfi_index !1773
  %5 = alloca i32*, align 8, !llfi_index !1774
  %6 = alloca %"class.std::ios_base::Init"*, align 8, !llfi_index !1775
  store i32* %0, i32** %4, align 8, !llfi_index !1776
  store i32* %1, i32** %5, align 8, !llfi_index !1777
  store %"class.std::ios_base::Init"* %2, %"class.std::ios_base::Init"** %6, align 8, !llfi_index !1778
  br label %7, !llfi_index !1779

7:                                                ; preds = %15, %3
  %8 = load i32*, i32** %5, align 8, !llfi_index !1780
  %9 = load i32*, i32** %4, align 8, !llfi_index !1781
  %10 = ptrtoint i32* %8 to i64, !llfi_index !1782
  %11 = ptrtoint i32* %9 to i64, !llfi_index !1783
  %12 = sub i64 %10, %11, !llfi_index !1784
  %13 = sdiv exact i64 %12, 4, !llfi_index !1785
  %14 = icmp sgt i64 %13, 1, !llfi_index !1786
  br i1 %14, label %15, label %22, !llfi_index !1787

15:                                               ; preds = %7
  %16 = load i32*, i32** %5, align 8, !llfi_index !1788
  %17 = getelementptr inbounds i32, i32* %16, i32 -1, !llfi_index !1789
  store i32* %17, i32** %5, align 8, !llfi_index !1790
  %18 = load i32*, i32** %4, align 8, !llfi_index !1791
  %19 = load i32*, i32** %5, align 8, !llfi_index !1792
  %20 = load i32*, i32** %5, align 8, !llfi_index !1793
  %21 = load %"class.std::ios_base::Init"*, %"class.std::ios_base::Init"** %6, align 8, !llfi_index !1794
  call void @_ZSt10__pop_heapIPiN9__gnu_cxx5__ops15_Iter_less_iterEEvT_S4_S4_RT0_(i32* %18, i32* %19, i32* %20, %"class.std::ios_base::Init"* nonnull align 1 dereferenceable(1) %21), !llfi_index !1795
  br label %7, !llvm.loop !1796, !llfi_index !1797

22:                                               ; preds = %7
  ret void, !llfi_index !1798
}

; Function Attrs: mustprogress noinline uwtable
define linkonce_odr dso_local void @_ZSt10__pop_heapIPiN9__gnu_cxx5__ops15_Iter_less_iterEEvT_S4_S4_RT0_(i32* %0, i32* %1, i32* %2, %"class.std::ios_base::Init"* nonnull align 1 dereferenceable(1) %3) #8 comdat {
  %5 = alloca i32*, align 8, !llfi_index !1799
  %6 = alloca i32*, align 8, !llfi_index !1800
  %7 = alloca i32*, align 8, !llfi_index !1801
  %8 = alloca %"class.std::ios_base::Init"*, align 8, !llfi_index !1802
  %9 = alloca i32, align 4, !llfi_index !1803
  %10 = alloca %"class.std::ios_base::Init", align 1, !llfi_index !1804
  store i32* %0, i32** %5, align 8, !llfi_index !1805
  store i32* %1, i32** %6, align 8, !llfi_index !1806
  store i32* %2, i32** %7, align 8, !llfi_index !1807
  store %"class.std::ios_base::Init"* %3, %"class.std::ios_base::Init"** %8, align 8, !llfi_index !1808
  %11 = load i32*, i32** %7, align 8, !llfi_index !1809
  %12 = call nonnull align 4 dereferenceable(4) i32* @_ZSt4moveIRiEONSt16remove_referenceIT_E4typeEOS2_(i32* nonnull align 4 dereferenceable(4) %11) #2, !llfi_index !1810
  %13 = load i32, i32* %12, align 4, !llfi_index !1811
  store i32 %13, i32* %9, align 4, !llfi_index !1812
  %14 = load i32*, i32** %5, align 8, !llfi_index !1813
  %15 = call nonnull align 4 dereferenceable(4) i32* @_ZSt4moveIRiEONSt16remove_referenceIT_E4typeEOS2_(i32* nonnull align 4 dereferenceable(4) %14) #2, !llfi_index !1814
  %16 = load i32, i32* %15, align 4, !llfi_index !1815
  %17 = load i32*, i32** %7, align 8, !llfi_index !1816
  store i32 %16, i32* %17, align 4, !llfi_index !1817
  %18 = load i32*, i32** %5, align 8, !llfi_index !1818
  %19 = load i32*, i32** %6, align 8, !llfi_index !1819
  %20 = load i32*, i32** %5, align 8, !llfi_index !1820
  %21 = ptrtoint i32* %19 to i64, !llfi_index !1821
  %22 = ptrtoint i32* %20 to i64, !llfi_index !1822
  %23 = sub i64 %21, %22, !llfi_index !1823
  %24 = sdiv exact i64 %23, 4, !llfi_index !1824
  %25 = call nonnull align 4 dereferenceable(4) i32* @_ZSt4moveIRiEONSt16remove_referenceIT_E4typeEOS2_(i32* nonnull align 4 dereferenceable(4) %9) #2, !llfi_index !1825
  %26 = load i32, i32* %25, align 4, !llfi_index !1826
  %27 = load %"class.std::ios_base::Init"*, %"class.std::ios_base::Init"** %8, align 8, !llfi_index !1827
  call void @_ZSt13__adjust_heapIPiliN9__gnu_cxx5__ops15_Iter_less_iterEEvT_T0_S5_T1_T2_(i32* %18, i64 0, i64 %24, i32 %26), !llfi_index !1828
  ret void, !llfi_index !1829
}

; Function Attrs: mustprogress noinline uwtable
define linkonce_odr dso_local void @_ZSt13__adjust_heapIPiliN9__gnu_cxx5__ops15_Iter_less_iterEEvT_T0_S5_T1_T2_(i32* %0, i64 %1, i64 %2, i32 %3) #8 comdat {
  %5 = alloca %"class.std::ios_base::Init", align 1, !llfi_index !1830
  %6 = alloca i32*, align 8, !llfi_index !1831
  %7 = alloca i64, align 8, !llfi_index !1832
  %8 = alloca i64, align 8, !llfi_index !1833
  %9 = alloca i32, align 4, !llfi_index !1834
  %10 = alloca i64, align 8, !llfi_index !1835
  %11 = alloca i64, align 8, !llfi_index !1836
  %12 = alloca %"class.std::ios_base::Init", align 1, !llfi_index !1837
  %13 = alloca %"class.std::ios_base::Init", align 1, !llfi_index !1838
  store i32* %0, i32** %6, align 8, !llfi_index !1839
  store i64 %1, i64* %7, align 8, !llfi_index !1840
  store i64 %2, i64* %8, align 8, !llfi_index !1841
  store i32 %3, i32* %9, align 4, !llfi_index !1842
  %14 = load i64, i64* %7, align 8, !llfi_index !1843
  store i64 %14, i64* %10, align 8, !llfi_index !1844
  %15 = load i64, i64* %7, align 8, !llfi_index !1845
  store i64 %15, i64* %11, align 8, !llfi_index !1846
  br label %16, !llfi_index !1847

16:                                               ; preds = %37, %4
  %17 = load i64, i64* %11, align 8, !llfi_index !1848
  %18 = load i64, i64* %8, align 8, !llfi_index !1849
  %19 = sub nsw i64 %18, 1, !llfi_index !1850
  %20 = sdiv i64 %19, 2, !llfi_index !1851
  %21 = icmp slt i64 %17, %20, !llfi_index !1852
  br i1 %21, label %22, label %47, !llfi_index !1853

22:                                               ; preds = %16
  %23 = load i64, i64* %11, align 8, !llfi_index !1854
  %24 = add nsw i64 %23, 1, !llfi_index !1855
  %25 = mul nsw i64 2, %24, !llfi_index !1856
  store i64 %25, i64* %11, align 8, !llfi_index !1857
  %26 = load i32*, i32** %6, align 8, !llfi_index !1858
  %27 = load i64, i64* %11, align 8, !llfi_index !1859
  %28 = getelementptr inbounds i32, i32* %26, i64 %27, !llfi_index !1860
  %29 = load i32*, i32** %6, align 8, !llfi_index !1861
  %30 = load i64, i64* %11, align 8, !llfi_index !1862
  %31 = sub nsw i64 %30, 1, !llfi_index !1863
  %32 = getelementptr inbounds i32, i32* %29, i64 %31, !llfi_index !1864
  %33 = call zeroext i1 @_ZNK9__gnu_cxx5__ops15_Iter_less_iterclIPiS3_EEbT_T0_(%"class.std::ios_base::Init"* nonnull align 1 dereferenceable(1) %5, i32* %28, i32* %32), !llfi_index !1865
  br i1 %33, label %34, label %37, !llfi_index !1866

34:                                               ; preds = %22
  %35 = load i64, i64* %11, align 8, !llfi_index !1867
  %36 = add nsw i64 %35, -1, !llfi_index !1868
  store i64 %36, i64* %11, align 8, !llfi_index !1869
  br label %37, !llfi_index !1870

37:                                               ; preds = %34, %22
  %38 = load i32*, i32** %6, align 8, !llfi_index !1871
  %39 = load i64, i64* %11, align 8, !llfi_index !1872
  %40 = getelementptr inbounds i32, i32* %38, i64 %39, !llfi_index !1873
  %41 = call nonnull align 4 dereferenceable(4) i32* @_ZSt4moveIRiEONSt16remove_referenceIT_E4typeEOS2_(i32* nonnull align 4 dereferenceable(4) %40) #2, !llfi_index !1874
  %42 = load i32, i32* %41, align 4, !llfi_index !1875
  %43 = load i32*, i32** %6, align 8, !llfi_index !1876
  %44 = load i64, i64* %7, align 8, !llfi_index !1877
  %45 = getelementptr inbounds i32, i32* %43, i64 %44, !llfi_index !1878
  store i32 %42, i32* %45, align 4, !llfi_index !1879
  %46 = load i64, i64* %11, align 8, !llfi_index !1880
  store i64 %46, i64* %7, align 8, !llfi_index !1881
  br label %16, !llvm.loop !1882, !llfi_index !1883

47:                                               ; preds = %16
  %48 = load i64, i64* %8, align 8, !llfi_index !1884
  %49 = and i64 %48, 1, !llfi_index !1885
  %50 = icmp eq i64 %49, 0, !llfi_index !1886
  br i1 %50, label %51, label %72, !llfi_index !1887

51:                                               ; preds = %47
  %52 = load i64, i64* %11, align 8, !llfi_index !1888
  %53 = load i64, i64* %8, align 8, !llfi_index !1889
  %54 = sub nsw i64 %53, 2, !llfi_index !1890
  %55 = sdiv i64 %54, 2, !llfi_index !1891
  %56 = icmp eq i64 %52, %55, !llfi_index !1892
  br i1 %56, label %57, label %72, !llfi_index !1893

57:                                               ; preds = %51
  %58 = load i64, i64* %11, align 8, !llfi_index !1894
  %59 = add nsw i64 %58, 1, !llfi_index !1895
  %60 = mul nsw i64 2, %59, !llfi_index !1896
  store i64 %60, i64* %11, align 8, !llfi_index !1897
  %61 = load i32*, i32** %6, align 8, !llfi_index !1898
  %62 = load i64, i64* %11, align 8, !llfi_index !1899
  %63 = sub nsw i64 %62, 1, !llfi_index !1900
  %64 = getelementptr inbounds i32, i32* %61, i64 %63, !llfi_index !1901
  %65 = call nonnull align 4 dereferenceable(4) i32* @_ZSt4moveIRiEONSt16remove_referenceIT_E4typeEOS2_(i32* nonnull align 4 dereferenceable(4) %64) #2, !llfi_index !1902
  %66 = load i32, i32* %65, align 4, !llfi_index !1903
  %67 = load i32*, i32** %6, align 8, !llfi_index !1904
  %68 = load i64, i64* %7, align 8, !llfi_index !1905
  %69 = getelementptr inbounds i32, i32* %67, i64 %68, !llfi_index !1906
  store i32 %66, i32* %69, align 4, !llfi_index !1907
  %70 = load i64, i64* %11, align 8, !llfi_index !1908
  %71 = sub nsw i64 %70, 1, !llfi_index !1909
  store i64 %71, i64* %7, align 8, !llfi_index !1910
  br label %72, !llfi_index !1911

72:                                               ; preds = %57, %51, %47
  %73 = call nonnull align 1 dereferenceable(1) %"class.std::ios_base::Init"* @_ZSt4moveIRN9__gnu_cxx5__ops15_Iter_less_iterEEONSt16remove_referenceIT_E4typeEOS5_(%"class.std::ios_base::Init"* nonnull align 1 dereferenceable(1) %5) #2, !llfi_index !1912
  call void @_ZN9__gnu_cxx5__ops14_Iter_less_valC2ENS0_15_Iter_less_iterE(%"class.std::ios_base::Init"* nonnull align 1 dereferenceable(1) %12), !llfi_index !1913
  %74 = load i32*, i32** %6, align 8, !llfi_index !1914
  %75 = load i64, i64* %7, align 8, !llfi_index !1915
  %76 = load i64, i64* %10, align 8, !llfi_index !1916
  %77 = call nonnull align 4 dereferenceable(4) i32* @_ZSt4moveIRiEONSt16remove_referenceIT_E4typeEOS2_(i32* nonnull align 4 dereferenceable(4) %9) #2, !llfi_index !1917
  %78 = load i32, i32* %77, align 4, !llfi_index !1918
  call void @_ZSt11__push_heapIPiliN9__gnu_cxx5__ops14_Iter_less_valEEvT_T0_S5_T1_RT2_(i32* %74, i64 %75, i64 %76, i32 %78, %"class.std::ios_base::Init"* nonnull align 1 dereferenceable(1) %12), !llfi_index !1919
  ret void, !llfi_index !1920
}

; Function Attrs: mustprogress noinline nounwind uwtable
define linkonce_odr dso_local nonnull align 1 dereferenceable(1) %"class.std::ios_base::Init"* @_ZSt4moveIRN9__gnu_cxx5__ops15_Iter_less_iterEEONSt16remove_referenceIT_E4typeEOS5_(%"class.std::ios_base::Init"* nonnull align 1 dereferenceable(1) %0) #9 comdat {
  %2 = alloca %"class.std::ios_base::Init"*, align 8, !llfi_index !1921
  store %"class.std::ios_base::Init"* %0, %"class.std::ios_base::Init"** %2, align 8, !llfi_index !1922
  %3 = load %"class.std::ios_base::Init"*, %"class.std::ios_base::Init"** %2, align 8, !llfi_index !1923
  ret %"class.std::ios_base::Init"* %3, !llfi_index !1924
}

; Function Attrs: noinline nounwind uwtable
define linkonce_odr dso_local void @_ZN9__gnu_cxx5__ops14_Iter_less_valC2ENS0_15_Iter_less_iterE(%"class.std::ios_base::Init"* nonnull align 1 dereferenceable(1) %0) unnamed_addr #5 comdat align 2 {
  %2 = alloca %"class.std::ios_base::Init", align 1, !llfi_index !1925
  %3 = alloca %"class.std::ios_base::Init"*, align 8, !llfi_index !1926
  store %"class.std::ios_base::Init"* %0, %"class.std::ios_base::Init"** %3, align 8, !llfi_index !1927
  %4 = load %"class.std::ios_base::Init"*, %"class.std::ios_base::Init"** %3, align 8, !llfi_index !1928
  ret void, !llfi_index !1929
}

; Function Attrs: mustprogress noinline uwtable
define linkonce_odr dso_local void @_ZSt11__push_heapIPiliN9__gnu_cxx5__ops14_Iter_less_valEEvT_T0_S5_T1_RT2_(i32* %0, i64 %1, i64 %2, i32 %3, %"class.std::ios_base::Init"* nonnull align 1 dereferenceable(1) %4) #8 comdat {
  %6 = alloca i32*, align 8, !llfi_index !1930
  %7 = alloca i64, align 8, !llfi_index !1931
  %8 = alloca i64, align 8, !llfi_index !1932
  %9 = alloca i32, align 4, !llfi_index !1933
  %10 = alloca %"class.std::ios_base::Init"*, align 8, !llfi_index !1934
  %11 = alloca i64, align 8, !llfi_index !1935
  store i32* %0, i32** %6, align 8, !llfi_index !1936
  store i64 %1, i64* %7, align 8, !llfi_index !1937
  store i64 %2, i64* %8, align 8, !llfi_index !1938
  store i32 %3, i32* %9, align 4, !llfi_index !1939
  store %"class.std::ios_base::Init"* %4, %"class.std::ios_base::Init"** %10, align 8, !llfi_index !1940
  %12 = load i64, i64* %7, align 8, !llfi_index !1941
  %13 = sub nsw i64 %12, 1, !llfi_index !1942
  %14 = sdiv i64 %13, 2, !llfi_index !1943
  store i64 %14, i64* %11, align 8, !llfi_index !1944
  br label %15, !llfi_index !1945

15:                                               ; preds = %27, %5
  %16 = load i64, i64* %7, align 8, !llfi_index !1946
  %17 = load i64, i64* %8, align 8, !llfi_index !1947
  %18 = icmp sgt i64 %16, %17, !llfi_index !1948
  br i1 %18, label %19, label %25, !llfi_index !1949

19:                                               ; preds = %15
  %20 = load %"class.std::ios_base::Init"*, %"class.std::ios_base::Init"** %10, align 8, !llfi_index !1950
  %21 = load i32*, i32** %6, align 8, !llfi_index !1951
  %22 = load i64, i64* %11, align 8, !llfi_index !1952
  %23 = getelementptr inbounds i32, i32* %21, i64 %22, !llfi_index !1953
  %24 = call zeroext i1 @_ZNK9__gnu_cxx5__ops14_Iter_less_valclIPiiEEbT_RT0_(%"class.std::ios_base::Init"* nonnull align 1 dereferenceable(1) %20, i32* %23, i32* nonnull align 4 dereferenceable(4) %9), !llfi_index !1954
  br label %25, !llfi_index !1955

25:                                               ; preds = %19, %15
  %26 = phi i1 [ false, %15 ], [ %24, %19 ], !llfi_index !1956
  br i1 %26, label %27, label %40, !llfi_index !1957

27:                                               ; preds = %25
  %28 = load i32*, i32** %6, align 8, !llfi_index !1958
  %29 = load i64, i64* %11, align 8, !llfi_index !1959
  %30 = getelementptr inbounds i32, i32* %28, i64 %29, !llfi_index !1960
  %31 = call nonnull align 4 dereferenceable(4) i32* @_ZSt4moveIRiEONSt16remove_referenceIT_E4typeEOS2_(i32* nonnull align 4 dereferenceable(4) %30) #2, !llfi_index !1961
  %32 = load i32, i32* %31, align 4, !llfi_index !1962
  %33 = load i32*, i32** %6, align 8, !llfi_index !1963
  %34 = load i64, i64* %7, align 8, !llfi_index !1964
  %35 = getelementptr inbounds i32, i32* %33, i64 %34, !llfi_index !1965
  store i32 %32, i32* %35, align 4, !llfi_index !1966
  %36 = load i64, i64* %11, align 8, !llfi_index !1967
  store i64 %36, i64* %7, align 8, !llfi_index !1968
  %37 = load i64, i64* %7, align 8, !llfi_index !1969
  %38 = sub nsw i64 %37, 1, !llfi_index !1970
  %39 = sdiv i64 %38, 2, !llfi_index !1971
  store i64 %39, i64* %11, align 8, !llfi_index !1972
  br label %15, !llvm.loop !1973, !llfi_index !1974

40:                                               ; preds = %25
  %41 = call nonnull align 4 dereferenceable(4) i32* @_ZSt4moveIRiEONSt16remove_referenceIT_E4typeEOS2_(i32* nonnull align 4 dereferenceable(4) %9) #2, !llfi_index !1975
  %42 = load i32, i32* %41, align 4, !llfi_index !1976
  %43 = load i32*, i32** %6, align 8, !llfi_index !1977
  %44 = load i64, i64* %7, align 8, !llfi_index !1978
  %45 = getelementptr inbounds i32, i32* %43, i64 %44, !llfi_index !1979
  store i32 %42, i32* %45, align 4, !llfi_index !1980
  ret void, !llfi_index !1981
}

; Function Attrs: mustprogress noinline nounwind uwtable
define linkonce_odr dso_local zeroext i1 @_ZNK9__gnu_cxx5__ops14_Iter_less_valclIPiiEEbT_RT0_(%"class.std::ios_base::Init"* nonnull align 1 dereferenceable(1) %0, i32* %1, i32* nonnull align 4 dereferenceable(4) %2) #9 comdat align 2 {
  %4 = alloca %"class.std::ios_base::Init"*, align 8, !llfi_index !1982
  %5 = alloca i32*, align 8, !llfi_index !1983
  %6 = alloca i32*, align 8, !llfi_index !1984
  store %"class.std::ios_base::Init"* %0, %"class.std::ios_base::Init"** %4, align 8, !llfi_index !1985
  store i32* %1, i32** %5, align 8, !llfi_index !1986
  store i32* %2, i32** %6, align 8, !llfi_index !1987
  %7 = load %"class.std::ios_base::Init"*, %"class.std::ios_base::Init"** %4, align 8, !llfi_index !1988
  %8 = load i32*, i32** %5, align 8, !llfi_index !1989
  %9 = load i32, i32* %8, align 4, !llfi_index !1990
  %10 = load i32*, i32** %6, align 8, !llfi_index !1991
  %11 = load i32, i32* %10, align 4, !llfi_index !1992
  %12 = icmp slt i32 %9, %11, !llfi_index !1993
  ret i1 %12, !llfi_index !1994
}

; Function Attrs: mustprogress noinline uwtable
define linkonce_odr dso_local void @_ZSt11__make_heapIPiN9__gnu_cxx5__ops15_Iter_less_iterEEvT_S4_RT0_(i32* %0, i32* %1, %"class.std::ios_base::Init"* nonnull align 1 dereferenceable(1) %2) #8 comdat {
  %4 = alloca i32*, align 8, !llfi_index !1995
  %5 = alloca i32*, align 8, !llfi_index !1996
  %6 = alloca %"class.std::ios_base::Init"*, align 8, !llfi_index !1997
  %7 = alloca i64, align 8, !llfi_index !1998
  %8 = alloca i64, align 8, !llfi_index !1999
  %9 = alloca i32, align 4, !llfi_index !2000
  %10 = alloca %"class.std::ios_base::Init", align 1, !llfi_index !2001
  store i32* %0, i32** %4, align 8, !llfi_index !2002
  store i32* %1, i32** %5, align 8, !llfi_index !2003
  store %"class.std::ios_base::Init"* %2, %"class.std::ios_base::Init"** %6, align 8, !llfi_index !2004
  %11 = load i32*, i32** %5, align 8, !llfi_index !2005
  %12 = load i32*, i32** %4, align 8, !llfi_index !2006
  %13 = ptrtoint i32* %11 to i64, !llfi_index !2007
  %14 = ptrtoint i32* %12 to i64, !llfi_index !2008
  %15 = sub i64 %13, %14, !llfi_index !2009
  %16 = sdiv exact i64 %15, 4, !llfi_index !2010
  %17 = icmp slt i64 %16, 2, !llfi_index !2011
  br i1 %17, label %18, label %19, !llfi_index !2012

18:                                               ; preds = %3
  br label %47, !llfi_index !2013

19:                                               ; preds = %3
  %20 = load i32*, i32** %5, align 8, !llfi_index !2014
  %21 = load i32*, i32** %4, align 8, !llfi_index !2015
  %22 = ptrtoint i32* %20 to i64, !llfi_index !2016
  %23 = ptrtoint i32* %21 to i64, !llfi_index !2017
  %24 = sub i64 %22, %23, !llfi_index !2018
  %25 = sdiv exact i64 %24, 4, !llfi_index !2019
  store i64 %25, i64* %7, align 8, !llfi_index !2020
  %26 = load i64, i64* %7, align 8, !llfi_index !2021
  %27 = sub nsw i64 %26, 2, !llfi_index !2022
  %28 = sdiv i64 %27, 2, !llfi_index !2023
  store i64 %28, i64* %8, align 8, !llfi_index !2024
  br label %29, !llfi_index !2025

29:                                               ; preds = %44, %19
  %30 = load i32*, i32** %4, align 8, !llfi_index !2026
  %31 = load i64, i64* %8, align 8, !llfi_index !2027
  %32 = getelementptr inbounds i32, i32* %30, i64 %31, !llfi_index !2028
  %33 = call nonnull align 4 dereferenceable(4) i32* @_ZSt4moveIRiEONSt16remove_referenceIT_E4typeEOS2_(i32* nonnull align 4 dereferenceable(4) %32) #2, !llfi_index !2029
  %34 = load i32, i32* %33, align 4, !llfi_index !2030
  store i32 %34, i32* %9, align 4, !llfi_index !2031
  %35 = load i32*, i32** %4, align 8, !llfi_index !2032
  %36 = load i64, i64* %8, align 8, !llfi_index !2033
  %37 = load i64, i64* %7, align 8, !llfi_index !2034
  %38 = call nonnull align 4 dereferenceable(4) i32* @_ZSt4moveIRiEONSt16remove_referenceIT_E4typeEOS2_(i32* nonnull align 4 dereferenceable(4) %9) #2, !llfi_index !2035
  %39 = load i32, i32* %38, align 4, !llfi_index !2036
  %40 = load %"class.std::ios_base::Init"*, %"class.std::ios_base::Init"** %6, align 8, !llfi_index !2037
  call void @_ZSt13__adjust_heapIPiliN9__gnu_cxx5__ops15_Iter_less_iterEEvT_T0_S5_T1_T2_(i32* %35, i64 %36, i64 %37, i32 %39), !llfi_index !2038
  %41 = load i64, i64* %8, align 8, !llfi_index !2039
  %42 = icmp eq i64 %41, 0, !llfi_index !2040
  br i1 %42, label %43, label %44, !llfi_index !2041

43:                                               ; preds = %29
  br label %47, !llfi_index !2042

44:                                               ; preds = %29
  %45 = load i64, i64* %8, align 8, !llfi_index !2043
  %46 = add nsw i64 %45, -1, !llfi_index !2044
  store i64 %46, i64* %8, align 8, !llfi_index !2045
  br label %29, !llvm.loop !2046, !llfi_index !2047

47:                                               ; preds = %43, %18
  ret void, !llfi_index !2048
}

; Function Attrs: nofree nosync nounwind readnone speculatable willreturn
declare i64 @llvm.ctlz.i64(i64, i1 immarg) #6

; Function Attrs: noinline nounwind uwtable
define linkonce_odr dso_local void @_ZNSt8_Rb_treeIiiSt9_IdentityIiESt4lessIiESaIiEED2Ev(%"class.std::_Rb_tree"* nonnull align 8 dereferenceable(48) %0) unnamed_addr #5 comdat align 2 personality i8* bitcast (i32 (...)* @__gxx_personality_v0 to i8*) {
  %2 = alloca %"class.std::_Rb_tree"*, align 8, !llfi_index !2049
  %3 = alloca i8*, align 8, !llfi_index !2050
  %4 = alloca i32, align 4, !llfi_index !2051
  store %"class.std::_Rb_tree"* %0, %"class.std::_Rb_tree"** %2, align 8, !llfi_index !2052
  %5 = load %"class.std::_Rb_tree"*, %"class.std::_Rb_tree"** %2, align 8, !llfi_index !2053
  %6 = call %"struct.std::_Rb_tree_node"* @_ZNSt8_Rb_treeIiiSt9_IdentityIiESt4lessIiESaIiEE8_M_beginEv(%"class.std::_Rb_tree"* nonnull align 8 dereferenceable(48) %5) #2, !llfi_index !2054
  invoke void @_ZNSt8_Rb_treeIiiSt9_IdentityIiESt4lessIiESaIiEE8_M_eraseEPSt13_Rb_tree_nodeIiE(%"class.std::_Rb_tree"* nonnull align 8 dereferenceable(48) %5, %"struct.std::_Rb_tree_node"* %6)
          to label %7 unwind label %9, !llfi_index !2055

7:                                                ; preds = %1
  %8 = getelementptr inbounds %"class.std::_Rb_tree", %"class.std::_Rb_tree"* %5, i32 0, i32 0, !llfi_index !2056
  call void @_ZNSt8_Rb_treeIiiSt9_IdentityIiESt4lessIiESaIiEE13_Rb_tree_implIS3_Lb1EED2Ev(%"struct.std::_Rb_tree<int, int, std::_Identity<int>, std::less<int>>::_Rb_tree_impl"* nonnull align 8 dereferenceable(48) %8) #2, !llfi_index !2057
  ret void, !llfi_index !2058

9:                                                ; preds = %1
  %10 = landingpad { i8*, i32 }
          catch i8* null, !llfi_index !2059
  %11 = extractvalue { i8*, i32 } %10, 0, !llfi_index !2060
  store i8* %11, i8** %3, align 8, !llfi_index !2061
  %12 = extractvalue { i8*, i32 } %10, 1, !llfi_index !2062
  store i32 %12, i32* %4, align 4, !llfi_index !2063
  %13 = getelementptr inbounds %"class.std::_Rb_tree", %"class.std::_Rb_tree"* %5, i32 0, i32 0, !llfi_index !2064
  call void @_ZNSt8_Rb_treeIiiSt9_IdentityIiESt4lessIiESaIiEE13_Rb_tree_implIS3_Lb1EED2Ev(%"struct.std::_Rb_tree<int, int, std::_Identity<int>, std::less<int>>::_Rb_tree_impl"* nonnull align 8 dereferenceable(48) %13) #2, !llfi_index !2065
  br label %14, !llfi_index !2066

14:                                               ; preds = %9
  %15 = load i8*, i8** %3, align 8, !llfi_index !2067
  call void @__clang_call_terminate(i8* %15) #20, !llfi_index !2068
  unreachable, !llfi_index !2069
}

; Function Attrs: mustprogress noinline uwtable
define linkonce_odr dso_local void @_ZNSt8_Rb_treeIiiSt9_IdentityIiESt4lessIiESaIiEE8_M_eraseEPSt13_Rb_tree_nodeIiE(%"class.std::_Rb_tree"* nonnull align 8 dereferenceable(48) %0, %"struct.std::_Rb_tree_node"* %1) #8 comdat align 2 {
  %3 = alloca %"class.std::_Rb_tree"*, align 8, !llfi_index !2070
  %4 = alloca %"struct.std::_Rb_tree_node"*, align 8, !llfi_index !2071
  %5 = alloca %"struct.std::_Rb_tree_node"*, align 8, !llfi_index !2072
  store %"class.std::_Rb_tree"* %0, %"class.std::_Rb_tree"** %3, align 8, !llfi_index !2073
  store %"struct.std::_Rb_tree_node"* %1, %"struct.std::_Rb_tree_node"** %4, align 8, !llfi_index !2074
  %6 = load %"class.std::_Rb_tree"*, %"class.std::_Rb_tree"** %3, align 8, !llfi_index !2075
  br label %7, !llfi_index !2076

7:                                                ; preds = %10, %2
  %8 = load %"struct.std::_Rb_tree_node"*, %"struct.std::_Rb_tree_node"** %4, align 8, !llfi_index !2077
  %9 = icmp ne %"struct.std::_Rb_tree_node"* %8, null, !llfi_index !2078
  br i1 %9, label %10, label %19, !llfi_index !2079

10:                                               ; preds = %7
  %11 = load %"struct.std::_Rb_tree_node"*, %"struct.std::_Rb_tree_node"** %4, align 8, !llfi_index !2080
  %12 = bitcast %"struct.std::_Rb_tree_node"* %11 to %"struct.std::_Rb_tree_node_base"*, !llfi_index !2081
  %13 = call %"struct.std::_Rb_tree_node"* @_ZNSt8_Rb_treeIiiSt9_IdentityIiESt4lessIiESaIiEE8_S_rightEPSt18_Rb_tree_node_base(%"struct.std::_Rb_tree_node_base"* %12) #2, !llfi_index !2082
  call void @_ZNSt8_Rb_treeIiiSt9_IdentityIiESt4lessIiESaIiEE8_M_eraseEPSt13_Rb_tree_nodeIiE(%"class.std::_Rb_tree"* nonnull align 8 dereferenceable(48) %6, %"struct.std::_Rb_tree_node"* %13), !llfi_index !2083
  %14 = load %"struct.std::_Rb_tree_node"*, %"struct.std::_Rb_tree_node"** %4, align 8, !llfi_index !2084
  %15 = bitcast %"struct.std::_Rb_tree_node"* %14 to %"struct.std::_Rb_tree_node_base"*, !llfi_index !2085
  %16 = call %"struct.std::_Rb_tree_node"* @_ZNSt8_Rb_treeIiiSt9_IdentityIiESt4lessIiESaIiEE7_S_leftEPSt18_Rb_tree_node_base(%"struct.std::_Rb_tree_node_base"* %15) #2, !llfi_index !2086
  store %"struct.std::_Rb_tree_node"* %16, %"struct.std::_Rb_tree_node"** %5, align 8, !llfi_index !2087
  %17 = load %"struct.std::_Rb_tree_node"*, %"struct.std::_Rb_tree_node"** %4, align 8, !llfi_index !2088
  call void @_ZNSt8_Rb_treeIiiSt9_IdentityIiESt4lessIiESaIiEE12_M_drop_nodeEPSt13_Rb_tree_nodeIiE(%"class.std::_Rb_tree"* nonnull align 8 dereferenceable(48) %6, %"struct.std::_Rb_tree_node"* %17) #2, !llfi_index !2089
  %18 = load %"struct.std::_Rb_tree_node"*, %"struct.std::_Rb_tree_node"** %5, align 8, !llfi_index !2090
  store %"struct.std::_Rb_tree_node"* %18, %"struct.std::_Rb_tree_node"** %4, align 8, !llfi_index !2091
  br label %7, !llvm.loop !2092, !llfi_index !2093

19:                                               ; preds = %7
  ret void, !llfi_index !2094
}

; Function Attrs: noinline nounwind uwtable
define linkonce_odr dso_local void @_ZNSt8_Rb_treeIiiSt9_IdentityIiESt4lessIiESaIiEE13_Rb_tree_implIS3_Lb1EED2Ev(%"struct.std::_Rb_tree<int, int, std::_Identity<int>, std::less<int>>::_Rb_tree_impl"* nonnull align 8 dereferenceable(48) %0) unnamed_addr #5 comdat align 2 {
  %2 = alloca %"struct.std::_Rb_tree<int, int, std::_Identity<int>, std::less<int>>::_Rb_tree_impl"*, align 8, !llfi_index !2095
  store %"struct.std::_Rb_tree<int, int, std::_Identity<int>, std::less<int>>::_Rb_tree_impl"* %0, %"struct.std::_Rb_tree<int, int, std::_Identity<int>, std::less<int>>::_Rb_tree_impl"** %2, align 8, !llfi_index !2096
  %3 = load %"struct.std::_Rb_tree<int, int, std::_Identity<int>, std::less<int>>::_Rb_tree_impl"*, %"struct.std::_Rb_tree<int, int, std::_Identity<int>, std::less<int>>::_Rb_tree_impl"** %2, align 8, !llfi_index !2097
  %4 = bitcast %"struct.std::_Rb_tree<int, int, std::_Identity<int>, std::less<int>>::_Rb_tree_impl"* %3 to %"class.std::ios_base::Init"*, !llfi_index !2098
  call void @_ZNSaISt13_Rb_tree_nodeIiEED2Ev(%"class.std::ios_base::Init"* nonnull align 1 dereferenceable(1) %4) #2, !llfi_index !2099
  ret void, !llfi_index !2100
}

; Function Attrs: noinline noreturn nounwind
define linkonce_odr hidden void @__clang_call_terminate(i8* %0) #14 comdat {
  %2 = call i8* @__cxa_begin_catch(i8* %0) #2, !llfi_index !2101
  call void @_ZSt9terminatev() #20, !llfi_index !2102
  unreachable, !llfi_index !2103
}

declare dso_local i8* @__cxa_begin_catch(i8*)

declare dso_local void @_ZSt9terminatev()

; Function Attrs: noinline nounwind uwtable
define linkonce_odr dso_local void @_ZNSaISt13_Rb_tree_nodeIiEED2Ev(%"class.std::ios_base::Init"* nonnull align 1 dereferenceable(1) %0) unnamed_addr #5 comdat align 2 {
  %2 = alloca %"class.std::ios_base::Init"*, align 8, !llfi_index !2104
  store %"class.std::ios_base::Init"* %0, %"class.std::ios_base::Init"** %2, align 8, !llfi_index !2105
  %3 = load %"class.std::ios_base::Init"*, %"class.std::ios_base::Init"** %2, align 8, !llfi_index !2106
  %4 = bitcast %"class.std::ios_base::Init"* %3 to %"class.std::ios_base::Init"*, !llfi_index !2107
  call void @_ZN9__gnu_cxx13new_allocatorISt13_Rb_tree_nodeIiEED2Ev(%"class.std::ios_base::Init"* nonnull align 1 dereferenceable(1) %4) #2, !llfi_index !2108
  ret void, !llfi_index !2109
}

; Function Attrs: noinline nounwind uwtable
define linkonce_odr dso_local void @_ZN9__gnu_cxx13new_allocatorISt13_Rb_tree_nodeIiEED2Ev(%"class.std::ios_base::Init"* nonnull align 1 dereferenceable(1) %0) unnamed_addr #5 comdat align 2 {
  %2 = alloca %"class.std::ios_base::Init"*, align 8, !llfi_index !2110
  store %"class.std::ios_base::Init"* %0, %"class.std::ios_base::Init"** %2, align 8, !llfi_index !2111
  %3 = load %"class.std::ios_base::Init"*, %"class.std::ios_base::Init"** %2, align 8, !llfi_index !2112
  ret void, !llfi_index !2113
}

; Function Attrs: mustprogress noinline nounwind uwtable
define linkonce_odr dso_local void @_ZNSt8_Rb_treeIiiSt9_IdentityIiESt4lessIiESaIiEE12_M_drop_nodeEPSt13_Rb_tree_nodeIiE(%"class.std::_Rb_tree"* nonnull align 8 dereferenceable(48) %0, %"struct.std::_Rb_tree_node"* %1) #9 comdat align 2 {
  %3 = alloca %"class.std::_Rb_tree"*, align 8, !llfi_index !2114
  %4 = alloca %"struct.std::_Rb_tree_node"*, align 8, !llfi_index !2115
  store %"class.std::_Rb_tree"* %0, %"class.std::_Rb_tree"** %3, align 8, !llfi_index !2116
  store %"struct.std::_Rb_tree_node"* %1, %"struct.std::_Rb_tree_node"** %4, align 8, !llfi_index !2117
  %5 = load %"class.std::_Rb_tree"*, %"class.std::_Rb_tree"** %3, align 8, !llfi_index !2118
  %6 = load %"struct.std::_Rb_tree_node"*, %"struct.std::_Rb_tree_node"** %4, align 8, !llfi_index !2119
  call void @_ZNSt8_Rb_treeIiiSt9_IdentityIiESt4lessIiESaIiEE15_M_destroy_nodeEPSt13_Rb_tree_nodeIiE(%"class.std::_Rb_tree"* nonnull align 8 dereferenceable(48) %5, %"struct.std::_Rb_tree_node"* %6) #2, !llfi_index !2120
  %7 = load %"struct.std::_Rb_tree_node"*, %"struct.std::_Rb_tree_node"** %4, align 8, !llfi_index !2121
  call void @_ZNSt8_Rb_treeIiiSt9_IdentityIiESt4lessIiESaIiEE11_M_put_nodeEPSt13_Rb_tree_nodeIiE(%"class.std::_Rb_tree"* nonnull align 8 dereferenceable(48) %5, %"struct.std::_Rb_tree_node"* %7) #2, !llfi_index !2122
  ret void, !llfi_index !2123
}

; Function Attrs: mustprogress noinline nounwind uwtable
define linkonce_odr dso_local void @_ZNSt8_Rb_treeIiiSt9_IdentityIiESt4lessIiESaIiEE15_M_destroy_nodeEPSt13_Rb_tree_nodeIiE(%"class.std::_Rb_tree"* nonnull align 8 dereferenceable(48) %0, %"struct.std::_Rb_tree_node"* %1) #9 comdat align 2 personality i8* bitcast (i32 (...)* @__gxx_personality_v0 to i8*) {
  %3 = alloca %"class.std::_Rb_tree"*, align 8, !llfi_index !2124
  %4 = alloca %"struct.std::_Rb_tree_node"*, align 8, !llfi_index !2125
  store %"class.std::_Rb_tree"* %0, %"class.std::_Rb_tree"** %3, align 8, !llfi_index !2126
  store %"struct.std::_Rb_tree_node"* %1, %"struct.std::_Rb_tree_node"** %4, align 8, !llfi_index !2127
  %5 = load %"class.std::_Rb_tree"*, %"class.std::_Rb_tree"** %3, align 8, !llfi_index !2128
  %6 = call nonnull align 1 dereferenceable(1) %"class.std::ios_base::Init"* @_ZNSt8_Rb_treeIiiSt9_IdentityIiESt4lessIiESaIiEE21_M_get_Node_allocatorEv(%"class.std::_Rb_tree"* nonnull align 8 dereferenceable(48) %5) #2, !llfi_index !2129
  %7 = load %"struct.std::_Rb_tree_node"*, %"struct.std::_Rb_tree_node"** %4, align 8, !llfi_index !2130
  %8 = invoke i32* @_ZNSt13_Rb_tree_nodeIiE9_M_valptrEv(%"struct.std::_Rb_tree_node"* nonnull align 8 dereferenceable(36) %7)
          to label %9 unwind label %11, !llfi_index !2131

9:                                                ; preds = %2
  call void @_ZNSt16allocator_traitsISaISt13_Rb_tree_nodeIiEEE7destroyIiEEvRS2_PT_(%"class.std::ios_base::Init"* nonnull align 1 dereferenceable(1) %6, i32* %8) #2, !llfi_index !2132
  %10 = load %"struct.std::_Rb_tree_node"*, %"struct.std::_Rb_tree_node"** %4, align 8, !llfi_index !2133
  ret void, !llfi_index !2134

11:                                               ; preds = %2
  %12 = landingpad { i8*, i32 }
          catch i8* null, !llfi_index !2135
  %13 = extractvalue { i8*, i32 } %12, 0, !llfi_index !2136
  call void @__clang_call_terminate(i8* %13) #20, !llfi_index !2137
  unreachable, !llfi_index !2138
}

; Function Attrs: mustprogress noinline nounwind uwtable
define linkonce_odr dso_local void @_ZNSt8_Rb_treeIiiSt9_IdentityIiESt4lessIiESaIiEE11_M_put_nodeEPSt13_Rb_tree_nodeIiE(%"class.std::_Rb_tree"* nonnull align 8 dereferenceable(48) %0, %"struct.std::_Rb_tree_node"* %1) #9 comdat align 2 personality i8* bitcast (i32 (...)* @__gxx_personality_v0 to i8*) {
  %3 = alloca %"class.std::_Rb_tree"*, align 8, !llfi_index !2139
  %4 = alloca %"struct.std::_Rb_tree_node"*, align 8, !llfi_index !2140
  store %"class.std::_Rb_tree"* %0, %"class.std::_Rb_tree"** %3, align 8, !llfi_index !2141
  store %"struct.std::_Rb_tree_node"* %1, %"struct.std::_Rb_tree_node"** %4, align 8, !llfi_index !2142
  %5 = load %"class.std::_Rb_tree"*, %"class.std::_Rb_tree"** %3, align 8, !llfi_index !2143
  %6 = call nonnull align 1 dereferenceable(1) %"class.std::ios_base::Init"* @_ZNSt8_Rb_treeIiiSt9_IdentityIiESt4lessIiESaIiEE21_M_get_Node_allocatorEv(%"class.std::_Rb_tree"* nonnull align 8 dereferenceable(48) %5) #2, !llfi_index !2144
  %7 = load %"struct.std::_Rb_tree_node"*, %"struct.std::_Rb_tree_node"** %4, align 8, !llfi_index !2145
  invoke void @_ZNSt16allocator_traitsISaISt13_Rb_tree_nodeIiEEE10deallocateERS2_PS1_m(%"class.std::ios_base::Init"* nonnull align 1 dereferenceable(1) %6, %"struct.std::_Rb_tree_node"* %7, i64 1)
          to label %8 unwind label %9, !llfi_index !2146

8:                                                ; preds = %2
  ret void, !llfi_index !2147

9:                                                ; preds = %2
  %10 = landingpad { i8*, i32 }
          catch i8* null, !llfi_index !2148
  %11 = extractvalue { i8*, i32 } %10, 0, !llfi_index !2149
  call void @__clang_call_terminate(i8* %11) #20, !llfi_index !2150
  unreachable, !llfi_index !2151
}

; Function Attrs: mustprogress noinline uwtable
define linkonce_odr dso_local void @_ZNSt16allocator_traitsISaISt13_Rb_tree_nodeIiEEE10deallocateERS2_PS1_m(%"class.std::ios_base::Init"* nonnull align 1 dereferenceable(1) %0, %"struct.std::_Rb_tree_node"* %1, i64 %2) #8 comdat align 2 {
  %4 = alloca %"class.std::ios_base::Init"*, align 8, !llfi_index !2152
  %5 = alloca %"struct.std::_Rb_tree_node"*, align 8, !llfi_index !2153
  %6 = alloca i64, align 8, !llfi_index !2154
  store %"class.std::ios_base::Init"* %0, %"class.std::ios_base::Init"** %4, align 8, !llfi_index !2155
  store %"struct.std::_Rb_tree_node"* %1, %"struct.std::_Rb_tree_node"** %5, align 8, !llfi_index !2156
  store i64 %2, i64* %6, align 8, !llfi_index !2157
  %7 = load %"class.std::ios_base::Init"*, %"class.std::ios_base::Init"** %4, align 8, !llfi_index !2158
  %8 = bitcast %"class.std::ios_base::Init"* %7 to %"class.std::ios_base::Init"*, !llfi_index !2159
  %9 = load %"struct.std::_Rb_tree_node"*, %"struct.std::_Rb_tree_node"** %5, align 8, !llfi_index !2160
  %10 = load i64, i64* %6, align 8, !llfi_index !2161
  call void @_ZN9__gnu_cxx13new_allocatorISt13_Rb_tree_nodeIiEE10deallocateEPS2_m(%"class.std::ios_base::Init"* nonnull align 1 dereferenceable(1) %8, %"struct.std::_Rb_tree_node"* %9, i64 %10), !llfi_index !2162
  ret void, !llfi_index !2163
}

; Function Attrs: mustprogress noinline nounwind uwtable
define linkonce_odr dso_local void @_ZN9__gnu_cxx13new_allocatorISt13_Rb_tree_nodeIiEE10deallocateEPS2_m(%"class.std::ios_base::Init"* nonnull align 1 dereferenceable(1) %0, %"struct.std::_Rb_tree_node"* %1, i64 %2) #9 comdat align 2 {
  %4 = alloca %"class.std::ios_base::Init"*, align 8, !llfi_index !2164
  %5 = alloca %"struct.std::_Rb_tree_node"*, align 8, !llfi_index !2165
  %6 = alloca i64, align 8, !llfi_index !2166
  store %"class.std::ios_base::Init"* %0, %"class.std::ios_base::Init"** %4, align 8, !llfi_index !2167
  store %"struct.std::_Rb_tree_node"* %1, %"struct.std::_Rb_tree_node"** %5, align 8, !llfi_index !2168
  store i64 %2, i64* %6, align 8, !llfi_index !2169
  %7 = load %"class.std::ios_base::Init"*, %"class.std::ios_base::Init"** %4, align 8, !llfi_index !2170
  %8 = load %"struct.std::_Rb_tree_node"*, %"struct.std::_Rb_tree_node"** %5, align 8, !llfi_index !2171
  %9 = bitcast %"struct.std::_Rb_tree_node"* %8 to i8*, !llfi_index !2172
  call void @_ZdlPv(i8* %9) #2, !llfi_index !2173
  ret void, !llfi_index !2174
}

; Function Attrs: nobuiltin nounwind
declare dso_local void @_ZdlPv(i8*) #10

; Function Attrs: mustprogress noinline nounwind uwtable
define linkonce_odr dso_local void @_ZNSt16allocator_traitsISaISt13_Rb_tree_nodeIiEEE7destroyIiEEvRS2_PT_(%"class.std::ios_base::Init"* nonnull align 1 dereferenceable(1) %0, i32* %1) #9 comdat align 2 {
  %3 = alloca %"class.std::ios_base::Init"*, align 8, !llfi_index !2175
  %4 = alloca i32*, align 8, !llfi_index !2176
  store %"class.std::ios_base::Init"* %0, %"class.std::ios_base::Init"** %3, align 8, !llfi_index !2177
  store i32* %1, i32** %4, align 8, !llfi_index !2178
  %5 = load %"class.std::ios_base::Init"*, %"class.std::ios_base::Init"** %3, align 8, !llfi_index !2179
  %6 = bitcast %"class.std::ios_base::Init"* %5 to %"class.std::ios_base::Init"*, !llfi_index !2180
  %7 = load i32*, i32** %4, align 8, !llfi_index !2181
  call void @_ZN9__gnu_cxx13new_allocatorISt13_Rb_tree_nodeIiEE7destroyIiEEvPT_(%"class.std::ios_base::Init"* nonnull align 1 dereferenceable(1) %6, i32* %7) #2, !llfi_index !2182
  ret void, !llfi_index !2183
}

; Function Attrs: mustprogress noinline nounwind uwtable
define linkonce_odr dso_local void @_ZN9__gnu_cxx13new_allocatorISt13_Rb_tree_nodeIiEE7destroyIiEEvPT_(%"class.std::ios_base::Init"* nonnull align 1 dereferenceable(1) %0, i32* %1) #9 comdat align 2 {
  %3 = alloca %"class.std::ios_base::Init"*, align 8, !llfi_index !2184
  %4 = alloca i32*, align 8, !llfi_index !2185
  store %"class.std::ios_base::Init"* %0, %"class.std::ios_base::Init"** %3, align 8, !llfi_index !2186
  store i32* %1, i32** %4, align 8, !llfi_index !2187
  %5 = load %"class.std::ios_base::Init"*, %"class.std::ios_base::Init"** %3, align 8, !llfi_index !2188
  %6 = load i32*, i32** %4, align 8, !llfi_index !2189
  ret void, !llfi_index !2190
}

; Function Attrs: noinline nounwind uwtable
define linkonce_odr dso_local void @_ZNSt8_Rb_treeIiiSt9_IdentityIiESt4lessIiESaIiEEC2Ev(%"class.std::_Rb_tree"* nonnull align 8 dereferenceable(48) %0) unnamed_addr #5 comdat align 2 {
  %2 = alloca %"class.std::_Rb_tree"*, align 8, !llfi_index !2191
  store %"class.std::_Rb_tree"* %0, %"class.std::_Rb_tree"** %2, align 8, !llfi_index !2192
  %3 = load %"class.std::_Rb_tree"*, %"class.std::_Rb_tree"** %2, align 8, !llfi_index !2193
  %4 = getelementptr inbounds %"class.std::_Rb_tree", %"class.std::_Rb_tree"* %3, i32 0, i32 0, !llfi_index !2194
  call void @_ZNSt8_Rb_treeIiiSt9_IdentityIiESt4lessIiESaIiEE13_Rb_tree_implIS3_Lb1EEC2Ev(%"struct.std::_Rb_tree<int, int, std::_Identity<int>, std::less<int>>::_Rb_tree_impl"* nonnull align 8 dereferenceable(48) %4) #2, !llfi_index !2195
  ret void, !llfi_index !2196
}

; Function Attrs: noinline nounwind uwtable
define linkonce_odr dso_local void @_ZNSt8_Rb_treeIiiSt9_IdentityIiESt4lessIiESaIiEE13_Rb_tree_implIS3_Lb1EEC2Ev(%"struct.std::_Rb_tree<int, int, std::_Identity<int>, std::less<int>>::_Rb_tree_impl"* nonnull align 8 dereferenceable(48) %0) unnamed_addr #5 comdat align 2 {
  %2 = alloca %"struct.std::_Rb_tree<int, int, std::_Identity<int>, std::less<int>>::_Rb_tree_impl"*, align 8, !llfi_index !2197
  store %"struct.std::_Rb_tree<int, int, std::_Identity<int>, std::less<int>>::_Rb_tree_impl"* %0, %"struct.std::_Rb_tree<int, int, std::_Identity<int>, std::less<int>>::_Rb_tree_impl"** %2, align 8, !llfi_index !2198
  %3 = load %"struct.std::_Rb_tree<int, int, std::_Identity<int>, std::less<int>>::_Rb_tree_impl"*, %"struct.std::_Rb_tree<int, int, std::_Identity<int>, std::less<int>>::_Rb_tree_impl"** %2, align 8, !llfi_index !2199
  %4 = bitcast %"struct.std::_Rb_tree<int, int, std::_Identity<int>, std::less<int>>::_Rb_tree_impl"* %3 to %"class.std::ios_base::Init"*, !llfi_index !2200
  call void @_ZNSaISt13_Rb_tree_nodeIiEEC2Ev(%"class.std::ios_base::Init"* nonnull align 1 dereferenceable(1) %4) #2, !llfi_index !2201
  %5 = bitcast %"struct.std::_Rb_tree<int, int, std::_Identity<int>, std::less<int>>::_Rb_tree_impl"* %3 to %"struct.std::_Rb_tree_key_compare"*, !llfi_index !2202
  call void @_ZNSt20_Rb_tree_key_compareISt4lessIiEEC2Ev(%"struct.std::_Rb_tree_key_compare"* nonnull align 1 dereferenceable(1) %5) #2, !llfi_index !2203
  %6 = bitcast %"struct.std::_Rb_tree<int, int, std::_Identity<int>, std::less<int>>::_Rb_tree_impl"* %3 to i8*, !llfi_index !2204
  %7 = getelementptr inbounds i8, i8* %6, i64 8, !llfi_index !2205
  %8 = bitcast i8* %7 to %"struct.std::_Rb_tree_header"*, !llfi_index !2206
  call void @_ZNSt15_Rb_tree_headerC2Ev(%"struct.std::_Rb_tree_header"* nonnull align 8 dereferenceable(40) %8) #2, !llfi_index !2207
  ret void, !llfi_index !2208
}

; Function Attrs: noinline nounwind uwtable
define linkonce_odr dso_local void @_ZNSaISt13_Rb_tree_nodeIiEEC2Ev(%"class.std::ios_base::Init"* nonnull align 1 dereferenceable(1) %0) unnamed_addr #5 comdat align 2 {
  %2 = alloca %"class.std::ios_base::Init"*, align 8, !llfi_index !2209
  store %"class.std::ios_base::Init"* %0, %"class.std::ios_base::Init"** %2, align 8, !llfi_index !2210
  %3 = load %"class.std::ios_base::Init"*, %"class.std::ios_base::Init"** %2, align 8, !llfi_index !2211
  %4 = bitcast %"class.std::ios_base::Init"* %3 to %"class.std::ios_base::Init"*, !llfi_index !2212
  call void @_ZN9__gnu_cxx13new_allocatorISt13_Rb_tree_nodeIiEEC2Ev(%"class.std::ios_base::Init"* nonnull align 1 dereferenceable(1) %4) #2, !llfi_index !2213
  ret void, !llfi_index !2214
}

; Function Attrs: noinline nounwind uwtable
define linkonce_odr dso_local void @_ZNSt20_Rb_tree_key_compareISt4lessIiEEC2Ev(%"struct.std::_Rb_tree_key_compare"* nonnull align 1 dereferenceable(1) %0) unnamed_addr #5 comdat align 2 {
  %2 = alloca %"struct.std::_Rb_tree_key_compare"*, align 8, !llfi_index !2215
  store %"struct.std::_Rb_tree_key_compare"* %0, %"struct.std::_Rb_tree_key_compare"** %2, align 8, !llfi_index !2216
  %3 = load %"struct.std::_Rb_tree_key_compare"*, %"struct.std::_Rb_tree_key_compare"** %2, align 8, !llfi_index !2217
  %4 = getelementptr inbounds %"struct.std::_Rb_tree_key_compare", %"struct.std::_Rb_tree_key_compare"* %3, i32 0, i32 0, !llfi_index !2218
  ret void, !llfi_index !2219
}

; Function Attrs: noinline nounwind uwtable
define linkonce_odr dso_local void @_ZNSt15_Rb_tree_headerC2Ev(%"struct.std::_Rb_tree_header"* nonnull align 8 dereferenceable(40) %0) unnamed_addr #5 comdat align 2 personality i8* bitcast (i32 (...)* @__gxx_personality_v0 to i8*) {
  %2 = alloca %"struct.std::_Rb_tree_header"*, align 8, !llfi_index !2220
  store %"struct.std::_Rb_tree_header"* %0, %"struct.std::_Rb_tree_header"** %2, align 8, !llfi_index !2221
  %3 = load %"struct.std::_Rb_tree_header"*, %"struct.std::_Rb_tree_header"** %2, align 8, !llfi_index !2222
  %4 = getelementptr inbounds %"struct.std::_Rb_tree_header", %"struct.std::_Rb_tree_header"* %3, i32 0, i32 0, !llfi_index !2223
  %5 = getelementptr inbounds %"struct.std::_Rb_tree_header", %"struct.std::_Rb_tree_header"* %3, i32 0, i32 0, !llfi_index !2224
  %6 = getelementptr inbounds %"struct.std::_Rb_tree_node_base", %"struct.std::_Rb_tree_node_base"* %5, i32 0, i32 0, !llfi_index !2225
  store i32 0, i32* %6, align 8, !llfi_index !2226
  invoke void @_ZNSt15_Rb_tree_header8_M_resetEv(%"struct.std::_Rb_tree_header"* nonnull align 8 dereferenceable(40) %3)
          to label %7 unwind label %8, !llfi_index !2227

7:                                                ; preds = %1
  ret void, !llfi_index !2228

8:                                                ; preds = %1
  %9 = landingpad { i8*, i32 }
          catch i8* null, !llfi_index !2229
  %10 = extractvalue { i8*, i32 } %9, 0, !llfi_index !2230
  call void @__clang_call_terminate(i8* %10) #20, !llfi_index !2231
  unreachable, !llfi_index !2232
}

; Function Attrs: mustprogress noinline nounwind uwtable
define linkonce_odr dso_local void @_ZNSt15_Rb_tree_header8_M_resetEv(%"struct.std::_Rb_tree_header"* nonnull align 8 dereferenceable(40) %0) #9 comdat align 2 {
  %2 = alloca %"struct.std::_Rb_tree_header"*, align 8, !llfi_index !2233
  store %"struct.std::_Rb_tree_header"* %0, %"struct.std::_Rb_tree_header"** %2, align 8, !llfi_index !2234
  %3 = load %"struct.std::_Rb_tree_header"*, %"struct.std::_Rb_tree_header"** %2, align 8, !llfi_index !2235
  %4 = getelementptr inbounds %"struct.std::_Rb_tree_header", %"struct.std::_Rb_tree_header"* %3, i32 0, i32 0, !llfi_index !2236
  %5 = getelementptr inbounds %"struct.std::_Rb_tree_node_base", %"struct.std::_Rb_tree_node_base"* %4, i32 0, i32 1, !llfi_index !2237
  store %"struct.std::_Rb_tree_node_base"* null, %"struct.std::_Rb_tree_node_base"** %5, align 8, !llfi_index !2238
  %6 = getelementptr inbounds %"struct.std::_Rb_tree_header", %"struct.std::_Rb_tree_header"* %3, i32 0, i32 0, !llfi_index !2239
  %7 = getelementptr inbounds %"struct.std::_Rb_tree_header", %"struct.std::_Rb_tree_header"* %3, i32 0, i32 0, !llfi_index !2240
  %8 = getelementptr inbounds %"struct.std::_Rb_tree_node_base", %"struct.std::_Rb_tree_node_base"* %7, i32 0, i32 2, !llfi_index !2241
  store %"struct.std::_Rb_tree_node_base"* %6, %"struct.std::_Rb_tree_node_base"** %8, align 8, !llfi_index !2242
  %9 = getelementptr inbounds %"struct.std::_Rb_tree_header", %"struct.std::_Rb_tree_header"* %3, i32 0, i32 0, !llfi_index !2243
  %10 = getelementptr inbounds %"struct.std::_Rb_tree_header", %"struct.std::_Rb_tree_header"* %3, i32 0, i32 0, !llfi_index !2244
  %11 = getelementptr inbounds %"struct.std::_Rb_tree_node_base", %"struct.std::_Rb_tree_node_base"* %10, i32 0, i32 3, !llfi_index !2245
  store %"struct.std::_Rb_tree_node_base"* %9, %"struct.std::_Rb_tree_node_base"** %11, align 8, !llfi_index !2246
  %12 = getelementptr inbounds %"struct.std::_Rb_tree_header", %"struct.std::_Rb_tree_header"* %3, i32 0, i32 1, !llfi_index !2247
  store i64 0, i64* %12, align 8, !llfi_index !2248
  ret void, !llfi_index !2249
}

; Function Attrs: noinline nounwind uwtable
define linkonce_odr dso_local void @_ZN9__gnu_cxx13new_allocatorISt13_Rb_tree_nodeIiEEC2Ev(%"class.std::ios_base::Init"* nonnull align 1 dereferenceable(1) %0) unnamed_addr #5 comdat align 2 {
  %2 = alloca %"class.std::ios_base::Init"*, align 8, !llfi_index !2250
  store %"class.std::ios_base::Init"* %0, %"class.std::ios_base::Init"** %2, align 8, !llfi_index !2251
  %3 = load %"class.std::ios_base::Init"*, %"class.std::ios_base::Init"** %2, align 8, !llfi_index !2252
  ret void, !llfi_index !2253
}

attributes #0 = { noinline uwtable "frame-pointer"="all" "min-legal-vector-width"="0" "no-trapping-math"="true" "stack-protector-buffer-size"="8" "target-cpu"="x86-64" "target-features"="+cx8,+fxsr,+mmx,+sse,+sse2,+x87" "tune-cpu"="generic" }
