; ModuleID = '/home/hjiang/Computation-Kernel-Dataset/experiments/Fault_injection_0308_parall/O0/OptimalPolygon/OptimalPolygon.ll'
source_filename = "llvm-link"
target datalayout = "e-m:e-p270:32:32-p271:32:32-p272:64:64-i64:64-f80:128-n8:16:32:64-S128"
target triple = "x86_64-unknown-linux-gnu"

%"class.std::ios_base::Init" = type { i8 }
%struct._IO_FILE = type { i32, i8*, i8*, i8*, i8*, i8*, i8*, i8*, i8*, i8*, i8*, i8*, %struct._IO_marker*, %struct._IO_FILE*, i32, i32, i64, i16, i8, [1 x i8], i8*, i64, %struct._IO_codecvt*, %struct._IO_wide_data*, %struct._IO_FILE*, i8*, i64, i32, [20 x i8] }
%struct._IO_marker = type opaque
%struct._IO_codecvt = type opaque
%struct._IO_wide_data = type opaque
%"class.std::basic_istream" = type { i32 (...)**, i64, %"class.std::basic_ios" }
%"class.std::basic_ios" = type { %"class.std::ios_base", %"class.std::basic_ostream"*, i8, i8, %"class.std::basic_streambuf"*, %"class.std::ctype"*, %"class.std::num_put"*, %"class.std::num_put"* }
%"class.std::ios_base" = type { i32 (...)**, i64, i64, i32, i32, i32, %"struct.std::ios_base::_Callback_list"*, %"struct.std::ios_base::_Words", [8 x %"struct.std::ios_base::_Words"], i32, %"struct.std::ios_base::_Words"*, %"class.std::locale" }
%"struct.std::ios_base::_Callback_list" = type { %"struct.std::ios_base::_Callback_list"*, void (i32, %"class.std::ios_base"*, i32)*, i32, i32 }
%"struct.std::ios_base::_Words" = type { i8*, i64 }
%"class.std::locale" = type { %"class.std::locale::_Impl"* }
%"class.std::locale::_Impl" = type { i32, %"class.std::locale::facet"**, i64, %"class.std::locale::facet"**, i8** }
%"class.std::locale::facet" = type <{ i32 (...)**, i32, [4 x i8] }>
%"class.std::basic_ostream" = type { i32 (...)**, %"class.std::basic_ios" }
%"class.std::basic_streambuf" = type { i32 (...)**, i8*, i8*, i8*, i8*, i8*, i8*, %"class.std::locale" }
%"class.std::ctype" = type <{ %"class.std::locale::facet.base", [4 x i8], %struct.__locale_struct*, i8, [7 x i8], i32*, i32*, i16*, i8, [256 x i8], [256 x i8], i8, [6 x i8] }>
%"class.std::locale::facet.base" = type <{ i32 (...)**, i32 }>
%struct.__locale_struct = type { [13 x %struct.__locale_data*], i16*, i32*, i32*, [13 x i8*] }
%struct.__locale_data = type opaque
%"class.std::num_put" = type { %"class.std::locale::facet.base", [4 x i8] }
%"class.std::vector" = type { %"struct.std::_Vector_base" }
%"struct.std::_Vector_base" = type { %"struct.std::_Vector_base<double, std::allocator<double>>::_Vector_impl" }
%"struct.std::_Vector_base<double, std::allocator<double>>::_Vector_impl" = type { %"struct.std::_Vector_base<double, std::allocator<double>>::_Vector_impl_data" }
%"struct.std::_Vector_base<double, std::allocator<double>>::_Vector_impl_data" = type { double*, double*, double* }
%"class.std::vector.0" = type { %"struct.std::_Vector_base.1" }
%"struct.std::_Vector_base.1" = type { %"struct.std::_Vector_base<std::pair<double, std::pair<double, double>>, std::allocator<std::pair<double, std::pair<double, double>>>>::_Vector_impl" }
%"struct.std::_Vector_base<std::pair<double, std::pair<double, double>>, std::allocator<std::pair<double, std::pair<double, double>>>>::_Vector_impl" = type { %"struct.std::_Vector_base<std::pair<double, std::pair<double, double>>, std::allocator<std::pair<double, std::pair<double, double>>>>::_Vector_impl_data" }
%"struct.std::_Vector_base<std::pair<double, std::pair<double, double>>, std::allocator<std::pair<double, std::pair<double, double>>>>::_Vector_impl_data" = type { %"struct.std::pair"*, %"struct.std::pair"*, %"struct.std::pair"* }
%"struct.std::pair" = type { double, %"struct.std::pair.5" }
%"struct.std::pair.5" = type { double, double }
%"class.__gnu_cxx::__normal_iterator" = type { %"struct.std::pair"* }
%"class.std::vector.8" = type { %"struct.std::_Vector_base.9" }
%"struct.std::_Vector_base.9" = type { %"struct.std::_Vector_base<std::pair<double, int>, std::allocator<std::pair<double, int>>>::_Vector_impl" }
%"struct.std::_Vector_base<std::pair<double, int>, std::allocator<std::pair<double, int>>>::_Vector_impl" = type { %"struct.std::_Vector_base<std::pair<double, int>, std::allocator<std::pair<double, int>>>::_Vector_impl_data" }
%"struct.std::_Vector_base<std::pair<double, int>, std::allocator<std::pair<double, int>>>::_Vector_impl_data" = type { %"struct.std::pair.13"*, %"struct.std::pair.13"*, %"struct.std::pair.13"* }
%"struct.std::pair.13" = type <{ double, i32, [4 x i8] }>
%"class.__gnu_cxx::__normal_iterator.16" = type { %"struct.std::pair.13"* }
%"class.__gnu_cxx::__normal_iterator.17" = type { double* }

$_ZNKSt6vectorIdSaIdEE4sizeEv = comdat any

$_ZNSaISt4pairIdS_IddEEEC2Ev = comdat any

$_ZNSt6vectorISt4pairIdS0_IddEESaIS2_EEC2EmRKS3_ = comdat any

$_ZNSaISt4pairIdS_IddEEED2Ev = comdat any

$_ZNSt6vectorIdSaIdEEixEm = comdat any

$_ZNSt6vectorISt4pairIdS0_IddEESaIS2_EEixEm = comdat any

$_ZNSt6vectorISt4pairIdS0_IddEESaIS2_EE5beginEv = comdat any

$_ZNSt6vectorISt4pairIdS0_IddEESaIS2_EE3endEv = comdat any

$_ZSt4sortIN9__gnu_cxx17__normal_iteratorIPSt4pairIdS2_IddEESt6vectorIS4_SaIS4_EEEEEvT_SA_ = comdat any

$_ZNSt6vectorISt4pairIdS0_IddEESaIS2_EED2Ev = comdat any

$_ZNSt12_Vector_baseISt4pairIdS0_IddEESaIS2_EE19_M_get_Tp_allocatorEv = comdat any

$_ZSt8_DestroyIPSt4pairIdS0_IddEES2_EvT_S4_RSaIT0_E = comdat any

$_ZNSt12_Vector_baseISt4pairIdS0_IddEESaIS2_EED2Ev = comdat any

$__clang_call_terminate = comdat any

$_ZNSt12_Vector_baseISt4pairIdS0_IddEESaIS2_EE13_M_deallocateEPS2_m = comdat any

$_ZNSt12_Vector_baseISt4pairIdS0_IddEESaIS2_EE12_Vector_implD2Ev = comdat any

$_ZNSt16allocator_traitsISaISt4pairIdS0_IddEEEE10deallocateERS3_PS2_m = comdat any

$_ZN9__gnu_cxx13new_allocatorISt4pairIdS1_IddEEE10deallocateEPS3_m = comdat any

$_ZSt8_DestroyIPSt4pairIdS0_IddEEEvT_S4_ = comdat any

$_ZNSt12_Destroy_auxILb1EE9__destroyIPSt4pairIdS2_IddEEEEvT_S6_ = comdat any

$_ZN9__gnu_cxx5__ops16__iter_less_iterEv = comdat any

$_ZSt6__sortIN9__gnu_cxx17__normal_iteratorIPSt4pairIdS2_IddEESt6vectorIS4_SaIS4_EEEENS0_5__ops15_Iter_less_iterEEvT_SC_T0_ = comdat any

$_ZN9__gnu_cxxneIPSt4pairIdS1_IddEESt6vectorIS3_SaIS3_EEEEbRKNS_17__normal_iteratorIT_T0_EESD_ = comdat any

$_ZN9__gnu_cxxmiIPSt4pairIdS1_IddEESt6vectorIS3_SaIS3_EEEENS_17__normal_iteratorIT_T0_E15difference_typeERKSB_SE_ = comdat any

$_ZSt4__lgl = comdat any

$_ZSt16__introsort_loopIN9__gnu_cxx17__normal_iteratorIPSt4pairIdS2_IddEESt6vectorIS4_SaIS4_EEEElNS0_5__ops15_Iter_less_iterEEvT_SC_T0_T1_ = comdat any

$_ZSt22__final_insertion_sortIN9__gnu_cxx17__normal_iteratorIPSt4pairIdS2_IddEESt6vectorIS4_SaIS4_EEEENS0_5__ops15_Iter_less_iterEEvT_SC_T0_ = comdat any

$_ZNK9__gnu_cxx17__normal_iteratorIPSt4pairIdS1_IddEESt6vectorIS3_SaIS3_EEEplEl = comdat any

$_ZSt16__insertion_sortIN9__gnu_cxx17__normal_iteratorIPSt4pairIdS2_IddEESt6vectorIS4_SaIS4_EEEENS0_5__ops15_Iter_less_iterEEvT_SC_T0_ = comdat any

$_ZSt26__unguarded_insertion_sortIN9__gnu_cxx17__normal_iteratorIPSt4pairIdS2_IddEESt6vectorIS4_SaIS4_EEEENS0_5__ops15_Iter_less_iterEEvT_SC_T0_ = comdat any

$_ZN9__gnu_cxx5__ops15__val_comp_iterENS0_15_Iter_less_iterE = comdat any

$_ZSt25__unguarded_linear_insertIN9__gnu_cxx17__normal_iteratorIPSt4pairIdS2_IddEESt6vectorIS4_SaIS4_EEEENS0_5__ops14_Val_less_iterEEvT_T0_ = comdat any

$_ZN9__gnu_cxx17__normal_iteratorIPSt4pairIdS1_IddEESt6vectorIS3_SaIS3_EEEppEv = comdat any

$_ZNK9__gnu_cxx17__normal_iteratorIPSt4pairIdS1_IddEESt6vectorIS3_SaIS3_EEEdeEv = comdat any

$_ZSt4moveIRSt4pairIdS0_IddEEEONSt16remove_referenceIT_E4typeEOS5_ = comdat any

$_ZN9__gnu_cxx17__normal_iteratorIPSt4pairIdS1_IddEESt6vectorIS3_SaIS3_EEEmmEv = comdat any

$_ZNK9__gnu_cxx5__ops14_Val_less_iterclISt4pairIdS3_IddEENS_17__normal_iteratorIPS5_St6vectorIS5_SaIS5_EEEEEEbRT_T0_ = comdat any

$_ZNSt4pairIdS_IddEEaSEOS1_ = comdat any

$_ZSt7forwardIdEOT_RNSt16remove_referenceIS0_E4typeE = comdat any

$_ZSt7forwardISt4pairIddEEOT_RNSt16remove_referenceIS2_E4typeE = comdat any

$_ZNSt4pairIddEaSEOS0_ = comdat any

$_ZStltIdSt4pairIddEEbRKS0_IT_T0_ES6_ = comdat any

$_ZStltIddEbRKSt4pairIT_T0_ES5_ = comdat any

$_ZN9__gnu_cxxeqIPSt4pairIdS1_IddEESt6vectorIS3_SaIS3_EEEEbRKNS_17__normal_iteratorIT_T0_EESD_ = comdat any

$_ZNK9__gnu_cxx5__ops15_Iter_less_iterclINS_17__normal_iteratorIPSt4pairIdS4_IddEESt6vectorIS6_SaIS6_EEEESB_EEbT_T0_ = comdat any

$_ZSt13move_backwardIN9__gnu_cxx17__normal_iteratorIPSt4pairIdS2_IddEESt6vectorIS4_SaIS4_EEEES9_ET0_T_SB_SA_ = comdat any

$_ZSt12__miter_baseIN9__gnu_cxx17__normal_iteratorIPSt4pairIdS2_IddEESt6vectorIS4_SaIS4_EEEEET_SA_ = comdat any

$_ZSt23__copy_move_backward_a2ILb1EN9__gnu_cxx17__normal_iteratorIPSt4pairIdS2_IddEESt6vectorIS4_SaIS4_EEEES9_ET1_T0_SB_SA_ = comdat any

$_ZSt12__niter_baseIPSt4pairIdS0_IddEESt6vectorIS2_SaIS2_EEET_N9__gnu_cxx17__normal_iteratorIS7_T0_EE = comdat any

$_ZSt22__copy_move_backward_aILb1EPSt4pairIdS0_IddEES3_ET1_T0_S5_S4_ = comdat any

$_ZSt12__niter_wrapIN9__gnu_cxx17__normal_iteratorIPSt4pairIdS2_IddEESt6vectorIS4_SaIS4_EEEES5_ET_SA_T0_ = comdat any

$_ZNSt20__copy_move_backwardILb1ELb0ESt26random_access_iterator_tagE13__copy_move_bIPSt4pairIdS3_IddEES6_EET0_T_S8_S7_ = comdat any

$_ZNK9__gnu_cxx17__normal_iteratorIPSt4pairIdS1_IddEESt6vectorIS3_SaIS3_EEE4baseEv = comdat any

$_ZN9__gnu_cxx17__normal_iteratorIPSt4pairIdS1_IddEESt6vectorIS3_SaIS3_EEEC2ERKS4_ = comdat any

$_ZSt14__partial_sortIN9__gnu_cxx17__normal_iteratorIPSt4pairIdS2_IddEESt6vectorIS4_SaIS4_EEEENS0_5__ops15_Iter_less_iterEEvT_SC_SC_T0_ = comdat any

$_ZSt27__unguarded_partition_pivotIN9__gnu_cxx17__normal_iteratorIPSt4pairIdS2_IddEESt6vectorIS4_SaIS4_EEEENS0_5__ops15_Iter_less_iterEET_SC_SC_T0_ = comdat any

$_ZNK9__gnu_cxx17__normal_iteratorIPSt4pairIdS1_IddEESt6vectorIS3_SaIS3_EEEmiEl = comdat any

$_ZSt22__move_median_to_firstIN9__gnu_cxx17__normal_iteratorIPSt4pairIdS2_IddEESt6vectorIS4_SaIS4_EEEENS0_5__ops15_Iter_less_iterEEvT_SC_SC_SC_T0_ = comdat any

$_ZSt21__unguarded_partitionIN9__gnu_cxx17__normal_iteratorIPSt4pairIdS2_IddEESt6vectorIS4_SaIS4_EEEENS0_5__ops15_Iter_less_iterEET_SC_SC_SC_T0_ = comdat any

$_ZN9__gnu_cxxltIPSt4pairIdS1_IddEESt6vectorIS3_SaIS3_EEEEbRKNS_17__normal_iteratorIT_T0_EESD_ = comdat any

$_ZSt9iter_swapIN9__gnu_cxx17__normal_iteratorIPSt4pairIdS2_IddEESt6vectorIS4_SaIS4_EEEES9_EvT_T0_ = comdat any

$_ZSt4swapIdSt4pairIddEENSt9enable_ifIXsr6__and_ISt14__is_swappableIT_ES3_IT0_EEE5valueEvE4typeERS0_IS4_S6_ESB_ = comdat any

$_ZNSt4pairIdS_IddEE4swapERS1_ = comdat any

$_ZSt4swapIdENSt9enable_ifIXsr6__and_ISt6__not_ISt15__is_tuple_likeIT_EESt21is_move_constructibleIS3_ESt18is_move_assignableIS3_EEE5valueEvE4typeERS3_SC_ = comdat any

$_ZSt4swapIddENSt9enable_ifIXsr6__and_ISt14__is_swappableIT_ES1_IT0_EEE5valueEvE4typeERSt4pairIS2_S4_ESA_ = comdat any

$_ZNSt4pairIddE4swapERS0_ = comdat any

$_ZSt4moveIRdEONSt16remove_referenceIT_E4typeEOS2_ = comdat any

$_ZSt13__heap_selectIN9__gnu_cxx17__normal_iteratorIPSt4pairIdS2_IddEESt6vectorIS4_SaIS4_EEEENS0_5__ops15_Iter_less_iterEEvT_SC_SC_T0_ = comdat any

$_ZSt11__sort_heapIN9__gnu_cxx17__normal_iteratorIPSt4pairIdS2_IddEESt6vectorIS4_SaIS4_EEEENS0_5__ops15_Iter_less_iterEEvT_SC_RT0_ = comdat any

$_ZSt10__pop_heapIN9__gnu_cxx17__normal_iteratorIPSt4pairIdS2_IddEESt6vectorIS4_SaIS4_EEEENS0_5__ops15_Iter_less_iterEEvT_SC_SC_RT0_ = comdat any

$_ZSt13__adjust_heapIN9__gnu_cxx17__normal_iteratorIPSt4pairIdS2_IddEESt6vectorIS4_SaIS4_EEEElS4_NS0_5__ops15_Iter_less_iterEEvT_T0_SD_T1_T2_ = comdat any

$_ZSt4moveIRN9__gnu_cxx5__ops15_Iter_less_iterEEONSt16remove_referenceIT_E4typeEOS5_ = comdat any

$_ZN9__gnu_cxx5__ops14_Iter_less_valC2ENS0_15_Iter_less_iterE = comdat any

$_ZSt11__push_heapIN9__gnu_cxx17__normal_iteratorIPSt4pairIdS2_IddEESt6vectorIS4_SaIS4_EEEElS4_NS0_5__ops14_Iter_less_valEEvT_T0_SD_T1_RT2_ = comdat any

$_ZNK9__gnu_cxx5__ops14_Iter_less_valclINS_17__normal_iteratorIPSt4pairIdS4_IddEESt6vectorIS6_SaIS6_EEEES6_EEbT_RT0_ = comdat any

$_ZSt11__make_heapIN9__gnu_cxx17__normal_iteratorIPSt4pairIdS2_IddEESt6vectorIS4_SaIS4_EEEENS0_5__ops15_Iter_less_iterEEvT_SC_RT0_ = comdat any

$_ZN9__gnu_cxx13new_allocatorISt4pairIdS1_IddEEED2Ev = comdat any

$_ZNSt6vectorISt4pairIdS0_IddEESaIS2_EE17_S_check_init_lenEmRKS3_ = comdat any

$_ZNSt12_Vector_baseISt4pairIdS0_IddEESaIS2_EEC2EmRKS3_ = comdat any

$_ZNSt6vectorISt4pairIdS0_IddEESaIS2_EE21_M_default_initializeEm = comdat any

$_ZSt27__uninitialized_default_n_aIPSt4pairIdS0_IddEEmS2_ET_S4_T0_RSaIT1_E = comdat any

$_ZSt25__uninitialized_default_nIPSt4pairIdS0_IddEEmET_S4_T0_ = comdat any

$_ZNSt27__uninitialized_default_n_1ILb0EE18__uninit_default_nIPSt4pairIdS2_IddEEmEET_S6_T0_ = comdat any

$_ZSt11__addressofISt4pairIdS0_IddEEEPT_RS3_ = comdat any

$_ZSt10_ConstructISt4pairIdS0_IddEEJEEvPT_DpOT0_ = comdat any

$_ZNSt4pairIdS_IddEEC2IdS0_Lb1EEEv = comdat any

$_ZNSt4pairIddEC2IddLb1EEEv = comdat any

$_ZNSt12_Vector_baseISt4pairIdS0_IddEESaIS2_EE12_Vector_implC2ERKS3_ = comdat any

$_ZNSt12_Vector_baseISt4pairIdS0_IddEESaIS2_EE17_M_create_storageEm = comdat any

$_ZNSt12_Vector_baseISt4pairIdS0_IddEESaIS2_EE11_M_allocateEm = comdat any

$_ZNSt16allocator_traitsISaISt4pairIdS0_IddEEEE8allocateERS3_m = comdat any

$_ZN9__gnu_cxx13new_allocatorISt4pairIdS1_IddEEE8allocateEmPKv = comdat any

$_ZNK9__gnu_cxx13new_allocatorISt4pairIdS1_IddEEE8max_sizeEv = comdat any

$_ZNSaISt4pairIdS_IddEEEC2ERKS2_ = comdat any

$_ZNSt12_Vector_baseISt4pairIdS0_IddEESaIS2_EE17_Vector_impl_dataC2Ev = comdat any

$_ZN9__gnu_cxx13new_allocatorISt4pairIdS1_IddEEEC2ERKS4_ = comdat any

$_ZNSt6vectorISt4pairIdS0_IddEESaIS2_EE11_S_max_sizeERKS3_ = comdat any

$_ZNSt16allocator_traitsISaISt4pairIdS0_IddEEEE8max_sizeERKS3_ = comdat any

$_ZSt3minImERKT_S2_S2_ = comdat any

$_ZN9__gnu_cxx13new_allocatorISt4pairIdS1_IddEEEC2Ev = comdat any

$_ZNSaIdEC2Ev = comdat any

$_ZNSt6vectorIdSaIdEEC2EmRKS0_ = comdat any

$_ZNSaIdED2Ev = comdat any

$_ZNSt6vectorIdSaIdEEC2ERKS1_ = comdat any

$_ZNSt6vectorIdSaIdEED2Ev = comdat any

$_ZNSt6vectorIdSaIdEEaSERKS1_ = comdat any

$_ZNSaISt4pairIdiEEC2Ev = comdat any

$_ZNSt6vectorISt4pairIdiESaIS1_EEC2EmRKS2_ = comdat any

$_ZNSaISt4pairIdiEED2Ev = comdat any

$_ZNSt6vectorISt4pairIdiESaIS1_EEixEm = comdat any

$_ZNSt6vectorISt4pairIdiESaIS1_EE5beginEv = comdat any

$_ZNSt6vectorISt4pairIdiESaIS1_EE3endEv = comdat any

$_ZSt4sortIN9__gnu_cxx17__normal_iteratorIPSt4pairIdiESt6vectorIS3_SaIS3_EEEEEvT_S9_ = comdat any

$_ZNSt6vectorISt4pairIdiESaIS1_EED2Ev = comdat any

$_ZNSt12_Vector_baseISt4pairIdiESaIS1_EE19_M_get_Tp_allocatorEv = comdat any

$_ZSt8_DestroyIPSt4pairIdiES1_EvT_S3_RSaIT0_E = comdat any

$_ZNSt12_Vector_baseISt4pairIdiESaIS1_EED2Ev = comdat any

$_ZNSt12_Vector_baseISt4pairIdiESaIS1_EE13_M_deallocateEPS1_m = comdat any

$_ZNSt12_Vector_baseISt4pairIdiESaIS1_EE12_Vector_implD2Ev = comdat any

$_ZNSt16allocator_traitsISaISt4pairIdiEEE10deallocateERS2_PS1_m = comdat any

$_ZN9__gnu_cxx13new_allocatorISt4pairIdiEE10deallocateEPS2_m = comdat any

$_ZSt8_DestroyIPSt4pairIdiEEvT_S3_ = comdat any

$_ZNSt12_Destroy_auxILb1EE9__destroyIPSt4pairIdiEEEvT_S5_ = comdat any

$_ZSt6__sortIN9__gnu_cxx17__normal_iteratorIPSt4pairIdiESt6vectorIS3_SaIS3_EEEENS0_5__ops15_Iter_less_iterEEvT_SB_T0_ = comdat any

$_ZN9__gnu_cxxneIPSt4pairIdiESt6vectorIS2_SaIS2_EEEEbRKNS_17__normal_iteratorIT_T0_EESC_ = comdat any

$_ZN9__gnu_cxxmiIPSt4pairIdiESt6vectorIS2_SaIS2_EEEENS_17__normal_iteratorIT_T0_E15difference_typeERKSA_SD_ = comdat any

$_ZSt16__introsort_loopIN9__gnu_cxx17__normal_iteratorIPSt4pairIdiESt6vectorIS3_SaIS3_EEEElNS0_5__ops15_Iter_less_iterEEvT_SB_T0_T1_ = comdat any

$_ZSt22__final_insertion_sortIN9__gnu_cxx17__normal_iteratorIPSt4pairIdiESt6vectorIS3_SaIS3_EEEENS0_5__ops15_Iter_less_iterEEvT_SB_T0_ = comdat any

$_ZNK9__gnu_cxx17__normal_iteratorIPSt4pairIdiESt6vectorIS2_SaIS2_EEEplEl = comdat any

$_ZSt16__insertion_sortIN9__gnu_cxx17__normal_iteratorIPSt4pairIdiESt6vectorIS3_SaIS3_EEEENS0_5__ops15_Iter_less_iterEEvT_SB_T0_ = comdat any

$_ZSt26__unguarded_insertion_sortIN9__gnu_cxx17__normal_iteratorIPSt4pairIdiESt6vectorIS3_SaIS3_EEEENS0_5__ops15_Iter_less_iterEEvT_SB_T0_ = comdat any

$_ZSt25__unguarded_linear_insertIN9__gnu_cxx17__normal_iteratorIPSt4pairIdiESt6vectorIS3_SaIS3_EEEENS0_5__ops14_Val_less_iterEEvT_T0_ = comdat any

$_ZN9__gnu_cxx17__normal_iteratorIPSt4pairIdiESt6vectorIS2_SaIS2_EEEppEv = comdat any

$_ZNK9__gnu_cxx17__normal_iteratorIPSt4pairIdiESt6vectorIS2_SaIS2_EEEdeEv = comdat any

$_ZSt4moveIRSt4pairIdiEEONSt16remove_referenceIT_E4typeEOS4_ = comdat any

$_ZN9__gnu_cxx17__normal_iteratorIPSt4pairIdiESt6vectorIS2_SaIS2_EEEmmEv = comdat any

$_ZNK9__gnu_cxx5__ops14_Val_less_iterclISt4pairIdiENS_17__normal_iteratorIPS4_St6vectorIS4_SaIS4_EEEEEEbRT_T0_ = comdat any

$_ZNSt4pairIdiEaSEOS0_ = comdat any

$_ZSt7forwardIiEOT_RNSt16remove_referenceIS0_E4typeE = comdat any

$_ZStltIdiEbRKSt4pairIT_T0_ES5_ = comdat any

$_ZN9__gnu_cxxeqIPSt4pairIdiESt6vectorIS2_SaIS2_EEEEbRKNS_17__normal_iteratorIT_T0_EESC_ = comdat any

$_ZNK9__gnu_cxx5__ops15_Iter_less_iterclINS_17__normal_iteratorIPSt4pairIdiESt6vectorIS5_SaIS5_EEEESA_EEbT_T0_ = comdat any

$_ZSt13move_backwardIN9__gnu_cxx17__normal_iteratorIPSt4pairIdiESt6vectorIS3_SaIS3_EEEES8_ET0_T_SA_S9_ = comdat any

$_ZSt12__miter_baseIN9__gnu_cxx17__normal_iteratorIPSt4pairIdiESt6vectorIS3_SaIS3_EEEEET_S9_ = comdat any

$_ZSt23__copy_move_backward_a2ILb1EN9__gnu_cxx17__normal_iteratorIPSt4pairIdiESt6vectorIS3_SaIS3_EEEES8_ET1_T0_SA_S9_ = comdat any

$_ZSt12__niter_baseIPSt4pairIdiESt6vectorIS1_SaIS1_EEET_N9__gnu_cxx17__normal_iteratorIS6_T0_EE = comdat any

$_ZSt22__copy_move_backward_aILb1EPSt4pairIdiES2_ET1_T0_S4_S3_ = comdat any

$_ZSt12__niter_wrapIN9__gnu_cxx17__normal_iteratorIPSt4pairIdiESt6vectorIS3_SaIS3_EEEES4_ET_S9_T0_ = comdat any

$_ZNSt20__copy_move_backwardILb1ELb0ESt26random_access_iterator_tagE13__copy_move_bIPSt4pairIdiES5_EET0_T_S7_S6_ = comdat any

$_ZNK9__gnu_cxx17__normal_iteratorIPSt4pairIdiESt6vectorIS2_SaIS2_EEE4baseEv = comdat any

$_ZN9__gnu_cxx17__normal_iteratorIPSt4pairIdiESt6vectorIS2_SaIS2_EEEC2ERKS3_ = comdat any

$_ZSt14__partial_sortIN9__gnu_cxx17__normal_iteratorIPSt4pairIdiESt6vectorIS3_SaIS3_EEEENS0_5__ops15_Iter_less_iterEEvT_SB_SB_T0_ = comdat any

$_ZSt27__unguarded_partition_pivotIN9__gnu_cxx17__normal_iteratorIPSt4pairIdiESt6vectorIS3_SaIS3_EEEENS0_5__ops15_Iter_less_iterEET_SB_SB_T0_ = comdat any

$_ZNK9__gnu_cxx17__normal_iteratorIPSt4pairIdiESt6vectorIS2_SaIS2_EEEmiEl = comdat any

$_ZSt22__move_median_to_firstIN9__gnu_cxx17__normal_iteratorIPSt4pairIdiESt6vectorIS3_SaIS3_EEEENS0_5__ops15_Iter_less_iterEEvT_SB_SB_SB_T0_ = comdat any

$_ZSt21__unguarded_partitionIN9__gnu_cxx17__normal_iteratorIPSt4pairIdiESt6vectorIS3_SaIS3_EEEENS0_5__ops15_Iter_less_iterEET_SB_SB_SB_T0_ = comdat any

$_ZN9__gnu_cxxltIPSt4pairIdiESt6vectorIS2_SaIS2_EEEEbRKNS_17__normal_iteratorIT_T0_EESC_ = comdat any

$_ZSt9iter_swapIN9__gnu_cxx17__normal_iteratorIPSt4pairIdiESt6vectorIS3_SaIS3_EEEES8_EvT_T0_ = comdat any

$_ZSt4swapIdiENSt9enable_ifIXsr6__and_ISt14__is_swappableIT_ES1_IT0_EEE5valueEvE4typeERSt4pairIS2_S4_ESA_ = comdat any

$_ZNSt4pairIdiE4swapERS0_ = comdat any

$_ZSt4swapIiENSt9enable_ifIXsr6__and_ISt6__not_ISt15__is_tuple_likeIT_EESt21is_move_constructibleIS3_ESt18is_move_assignableIS3_EEE5valueEvE4typeERS3_SC_ = comdat any

$_ZSt4moveIRiEONSt16remove_referenceIT_E4typeEOS2_ = comdat any

$_ZSt13__heap_selectIN9__gnu_cxx17__normal_iteratorIPSt4pairIdiESt6vectorIS3_SaIS3_EEEENS0_5__ops15_Iter_less_iterEEvT_SB_SB_T0_ = comdat any

$_ZSt11__sort_heapIN9__gnu_cxx17__normal_iteratorIPSt4pairIdiESt6vectorIS3_SaIS3_EEEENS0_5__ops15_Iter_less_iterEEvT_SB_RT0_ = comdat any

$_ZSt10__pop_heapIN9__gnu_cxx17__normal_iteratorIPSt4pairIdiESt6vectorIS3_SaIS3_EEEENS0_5__ops15_Iter_less_iterEEvT_SB_SB_RT0_ = comdat any

$_ZSt13__adjust_heapIN9__gnu_cxx17__normal_iteratorIPSt4pairIdiESt6vectorIS3_SaIS3_EEEElS3_NS0_5__ops15_Iter_less_iterEEvT_T0_SC_T1_T2_ = comdat any

$_ZSt11__push_heapIN9__gnu_cxx17__normal_iteratorIPSt4pairIdiESt6vectorIS3_SaIS3_EEEElS3_NS0_5__ops14_Iter_less_valEEvT_T0_SC_T1_RT2_ = comdat any

$_ZNK9__gnu_cxx5__ops14_Iter_less_valclINS_17__normal_iteratorIPSt4pairIdiESt6vectorIS5_SaIS5_EEEES5_EEbT_RT0_ = comdat any

$_ZSt11__make_heapIN9__gnu_cxx17__normal_iteratorIPSt4pairIdiESt6vectorIS3_SaIS3_EEEENS0_5__ops15_Iter_less_iterEEvT_SB_RT0_ = comdat any

$_ZN9__gnu_cxx13new_allocatorISt4pairIdiEED2Ev = comdat any

$_ZNSt6vectorISt4pairIdiESaIS1_EE17_S_check_init_lenEmRKS2_ = comdat any

$_ZNSt12_Vector_baseISt4pairIdiESaIS1_EEC2EmRKS2_ = comdat any

$_ZNSt6vectorISt4pairIdiESaIS1_EE21_M_default_initializeEm = comdat any

$_ZSt27__uninitialized_default_n_aIPSt4pairIdiEmS1_ET_S3_T0_RSaIT1_E = comdat any

$_ZSt25__uninitialized_default_nIPSt4pairIdiEmET_S3_T0_ = comdat any

$_ZNSt27__uninitialized_default_n_1ILb0EE18__uninit_default_nIPSt4pairIdiEmEET_S5_T0_ = comdat any

$_ZSt11__addressofISt4pairIdiEEPT_RS2_ = comdat any

$_ZSt10_ConstructISt4pairIdiEJEEvPT_DpOT0_ = comdat any

$_ZNSt4pairIdiEC2IdiLb1EEEv = comdat any

$_ZNSt12_Vector_baseISt4pairIdiESaIS1_EE12_Vector_implC2ERKS2_ = comdat any

$_ZNSt12_Vector_baseISt4pairIdiESaIS1_EE17_M_create_storageEm = comdat any

$_ZNSt12_Vector_baseISt4pairIdiESaIS1_EE11_M_allocateEm = comdat any

$_ZNSt16allocator_traitsISaISt4pairIdiEEE8allocateERS2_m = comdat any

$_ZN9__gnu_cxx13new_allocatorISt4pairIdiEE8allocateEmPKv = comdat any

$_ZNK9__gnu_cxx13new_allocatorISt4pairIdiEE8max_sizeEv = comdat any

$_ZNSaISt4pairIdiEEC2ERKS1_ = comdat any

$_ZNSt12_Vector_baseISt4pairIdiESaIS1_EE17_Vector_impl_dataC2Ev = comdat any

$_ZN9__gnu_cxx13new_allocatorISt4pairIdiEEC2ERKS3_ = comdat any

$_ZNSt6vectorISt4pairIdiESaIS1_EE11_S_max_sizeERKS2_ = comdat any

$_ZNSt16allocator_traitsISaISt4pairIdiEEE8max_sizeERKS2_ = comdat any

$_ZN9__gnu_cxx13new_allocatorISt4pairIdiEEC2Ev = comdat any

$_ZNKSt6vectorIdSaIdEE8capacityEv = comdat any

$_ZNKSt6vectorIdSaIdEE5beginEv = comdat any

$_ZNKSt6vectorIdSaIdEE3endEv = comdat any

$_ZNSt6vectorIdSaIdEE20_M_allocate_and_copyIN9__gnu_cxx17__normal_iteratorIPKdS1_EEEEPdmT_S9_ = comdat any

$_ZNSt12_Vector_baseIdSaIdEE19_M_get_Tp_allocatorEv = comdat any

$_ZSt8_DestroyIPddEvT_S1_RSaIT0_E = comdat any

$_ZNSt12_Vector_baseIdSaIdEE13_M_deallocateEPdm = comdat any

$_ZNSt6vectorIdSaIdEE5beginEv = comdat any

$_ZSt4copyIN9__gnu_cxx17__normal_iteratorIPKdSt6vectorIdSaIdEEEENS1_IPdS6_EEET0_T_SB_SA_ = comdat any

$_ZNSt6vectorIdSaIdEE3endEv = comdat any

$_ZSt8_DestroyIN9__gnu_cxx17__normal_iteratorIPdSt6vectorIdSaIdEEEEdEvT_S7_RSaIT0_E = comdat any

$_ZSt4copyIPdS0_ET0_T_S2_S1_ = comdat any

$_ZSt22__uninitialized_copy_aIPdS0_dET0_T_S2_S1_RSaIT1_E = comdat any

$_ZSt18uninitialized_copyIPdS0_ET0_T_S2_S1_ = comdat any

$_ZNSt20__uninitialized_copyILb1EE13__uninit_copyIPdS2_EET0_T_S4_S3_ = comdat any

$_ZSt12__miter_baseIPdET_S1_ = comdat any

$_ZSt14__copy_move_a2ILb0EPdS0_ET1_T0_S2_S1_ = comdat any

$_ZSt12__niter_baseIPdET_S1_ = comdat any

$_ZSt13__copy_move_aILb0EPdS0_ET1_T0_S2_S1_ = comdat any

$_ZSt12__niter_wrapIPdET_RKS1_S1_ = comdat any

$_ZNSt11__copy_moveILb0ELb1ESt26random_access_iterator_tagE8__copy_mIdEEPT_PKS3_S6_S4_ = comdat any

$_ZSt8_DestroyIN9__gnu_cxx17__normal_iteratorIPdSt6vectorIdSaIdEEEEEvT_S7_ = comdat any

$_ZNSt12_Destroy_auxILb1EE9__destroyIN9__gnu_cxx17__normal_iteratorIPdSt6vectorIdSaIdEEEEEEvT_S9_ = comdat any

$_ZN9__gnu_cxx17__normal_iteratorIPdSt6vectorIdSaIdEEEC2ERKS1_ = comdat any

$_ZSt12__miter_baseIN9__gnu_cxx17__normal_iteratorIPKdSt6vectorIdSaIdEEEEET_S8_ = comdat any

$_ZSt14__copy_move_a2ILb0EN9__gnu_cxx17__normal_iteratorIPKdSt6vectorIdSaIdEEEENS1_IPdS6_EEET1_T0_SB_SA_ = comdat any

$_ZSt12__niter_baseIPKdSt6vectorIdSaIdEEET_N9__gnu_cxx17__normal_iteratorIS5_T0_EE = comdat any

$_ZSt12__niter_baseIPdSt6vectorIdSaIdEEET_N9__gnu_cxx17__normal_iteratorIS4_T0_EE = comdat any

$_ZSt13__copy_move_aILb0EPKdPdET1_T0_S4_S3_ = comdat any

$_ZSt12__niter_wrapIN9__gnu_cxx17__normal_iteratorIPdSt6vectorIdSaIdEEEES2_ET_S7_T0_ = comdat any

$_ZNK9__gnu_cxx17__normal_iteratorIPdSt6vectorIdSaIdEEEplEl = comdat any

$_ZNK9__gnu_cxx17__normal_iteratorIPdSt6vectorIdSaIdEEE4baseEv = comdat any

$_ZNK9__gnu_cxx17__normal_iteratorIPKdSt6vectorIdSaIdEEE4baseEv = comdat any

$_ZNSt16allocator_traitsISaIdEE10deallocateERS0_Pdm = comdat any

$_ZN9__gnu_cxx13new_allocatorIdE10deallocateEPdm = comdat any

$_ZSt8_DestroyIPdEvT_S1_ = comdat any

$_ZNSt12_Destroy_auxILb1EE9__destroyIPdEEvT_S3_ = comdat any

$_ZNSt12_Vector_baseIdSaIdEE11_M_allocateEm = comdat any

$_ZSt22__uninitialized_copy_aIN9__gnu_cxx17__normal_iteratorIPKdSt6vectorIdSaIdEEEEPddET0_T_SA_S9_RSaIT1_E = comdat any

$_ZSt18uninitialized_copyIN9__gnu_cxx17__normal_iteratorIPKdSt6vectorIdSaIdEEEEPdET0_T_SA_S9_ = comdat any

$_ZNSt20__uninitialized_copyILb1EE13__uninit_copyIN9__gnu_cxx17__normal_iteratorIPKdSt6vectorIdSaIdEEEEPdEET0_T_SC_SB_ = comdat any

$_ZSt4copyIN9__gnu_cxx17__normal_iteratorIPKdSt6vectorIdSaIdEEEEPdET0_T_SA_S9_ = comdat any

$_ZSt14__copy_move_a2ILb0EN9__gnu_cxx17__normal_iteratorIPKdSt6vectorIdSaIdEEEEPdET1_T0_SA_S9_ = comdat any

$_ZNSt16allocator_traitsISaIdEE8allocateERS0_m = comdat any

$_ZN9__gnu_cxx13new_allocatorIdE8allocateEmPKv = comdat any

$_ZNK9__gnu_cxx13new_allocatorIdE8max_sizeEv = comdat any

$_ZN9__gnu_cxx17__normal_iteratorIPKdSt6vectorIdSaIdEEEC2ERKS2_ = comdat any

$_ZNSt12_Vector_baseIdSaIdEED2Ev = comdat any

$_ZNSt12_Vector_baseIdSaIdEE12_Vector_implD2Ev = comdat any

$_ZNKSt12_Vector_baseIdSaIdEE19_M_get_Tp_allocatorEv = comdat any

$_ZN9__gnu_cxx14__alloc_traitsISaIdEdE17_S_select_on_copyERKS1_ = comdat any

$_ZNSt12_Vector_baseIdSaIdEEC2EmRKS0_ = comdat any

$_ZNSt12_Vector_baseIdSaIdEE12_Vector_implC2ERKS0_ = comdat any

$_ZNSt12_Vector_baseIdSaIdEE17_M_create_storageEm = comdat any

$_ZNSaIdEC2ERKS_ = comdat any

$_ZNSt12_Vector_baseIdSaIdEE17_Vector_impl_dataC2Ev = comdat any

$_ZN9__gnu_cxx13new_allocatorIdEC2ERKS1_ = comdat any

$_ZNSt16allocator_traitsISaIdEE37select_on_container_copy_constructionERKS0_ = comdat any

$_ZN9__gnu_cxx13new_allocatorIdED2Ev = comdat any

$_ZNSt6vectorIdSaIdEE17_S_check_init_lenEmRKS0_ = comdat any

$_ZNSt6vectorIdSaIdEE21_M_default_initializeEm = comdat any

$_ZSt27__uninitialized_default_n_aIPdmdET_S1_T0_RSaIT1_E = comdat any

$_ZSt25__uninitialized_default_nIPdmET_S1_T0_ = comdat any

$_ZNSt27__uninitialized_default_n_1ILb1EE18__uninit_default_nIPdmEET_S3_T0_ = comdat any

$_ZSt6fill_nIPdmdET_S1_T0_RKT1_ = comdat any

$_ZSt10__fill_n_aIPdmdEN9__gnu_cxx11__enable_ifIXsr11__is_scalarIT1_EE7__valueET_E6__typeES4_T0_RKS3_ = comdat any

$_ZNSt6vectorIdSaIdEE11_S_max_sizeERKS0_ = comdat any

$_ZNSt16allocator_traitsISaIdEE8max_sizeERKS0_ = comdat any

$_ZN9__gnu_cxx13new_allocatorIdEC2Ev = comdat any

@llvm.global_ctors = appending global [1 x { i32, void ()*, i8* }] [{ i32, void ()*, i8* } { i32 65535, void ()* @_GLOBAL__sub_I_OptimalPolygon.cpp, i8* null }]
@_ZStL8__ioinit = internal global %"class.std::ios_base::Init" zeroinitializer, align 1
@.str = private unnamed_addr constant [30 x i8] c"../input_files/OptimalPolygon\00", align 1
@.str.1 = private unnamed_addr constant [2 x i8] c"r\00", align 1
@stdin = external dso_local global %struct._IO_FILE*, align 8
@_ZSt3cin = external dso_local global %"class.std::basic_istream", align 8
@_ZSt4cout = external dso_local global %"class.std::basic_ostream", align 8
@.str.2 = private unnamed_addr constant [14 x i8] c"%d %.8f %.8f\0A\00", align 1
@.str.3 = private unnamed_addr constant [2 x i8] c" \00", align 1
@.str.4 = private unnamed_addr constant [49 x i8] c"cannot create std::vector larger than max_size()\00", align 1

; Function Attrs: noinline uwtable
define internal void @_GLOBAL__sub_I_OptimalPolygon.cpp() #0 section ".text.startup" {
  call void @__cxx_global_var_init(), !llfi_index !4
  ret void, !llfi_index !5
}

; Function Attrs: noinline uwtable
define internal void @__cxx_global_var_init() #0 section ".text.startup" {
  call void @_ZNSt8ios_base4InitC1Ev(%"class.std::ios_base::Init"* nonnull align 1 dereferenceable(1) @_ZStL8__ioinit), !llfi_index !6
  %1 = call i32 @atexit(void ()* @__dtor__ZStL8__ioinit) #2, !llfi_index !7
  ret void, !llfi_index !8
}

declare dso_local void @_ZNSt8ios_base4InitC1Ev(%"class.std::ios_base::Init"* nonnull align 1 dereferenceable(1)) unnamed_addr #1

; Function Attrs: noinline uwtable
define internal void @__dtor__ZStL8__ioinit() #0 section ".text.startup" {
  call void @_ZNSt8ios_base4InitD1Ev(%"class.std::ios_base::Init"* @_ZStL8__ioinit), !llfi_index !9
  ret void, !llfi_index !10
}

; Function Attrs: nounwind
declare dso_local i32 @atexit(void ()*) #2

; Function Attrs: nounwind
declare dso_local void @_ZNSt8ios_base4InitD1Ev(%"class.std::ios_base::Init"* nonnull align 1 dereferenceable(1)) unnamed_addr #3

; Function Attrs: mustprogress noinline nounwind uwtable
define dso_local double @_Z4distdddd(double %0, double %1, double %2, double %3) #4 {
  %5 = alloca double, align 8, !llfi_index !11
  %6 = alloca double, align 8, !llfi_index !12
  %7 = alloca double, align 8, !llfi_index !13
  %8 = alloca double, align 8, !llfi_index !14
  store double %0, double* %5, align 8, !llfi_index !15
  store double %1, double* %6, align 8, !llfi_index !16
  store double %2, double* %7, align 8, !llfi_index !17
  store double %3, double* %8, align 8, !llfi_index !18
  %9 = load double, double* %5, align 8, !llfi_index !19
  %10 = load double, double* %7, align 8, !llfi_index !20
  %11 = fsub double %9, %10, !llfi_index !21
  %12 = load double, double* %5, align 8, !llfi_index !22
  %13 = load double, double* %7, align 8, !llfi_index !23
  %14 = fsub double %12, %13, !llfi_index !24
  %15 = fmul double %11, %14, !llfi_index !25
  %16 = load double, double* %6, align 8, !llfi_index !26
  %17 = load double, double* %8, align 8, !llfi_index !27
  %18 = fsub double %16, %17, !llfi_index !28
  %19 = load double, double* %6, align 8, !llfi_index !29
  %20 = load double, double* %8, align 8, !llfi_index !30
  %21 = fsub double %19, %20, !llfi_index !31
  %22 = fmul double %18, %21, !llfi_index !32
  %23 = fadd double %15, %22, !llfi_index !33
  %24 = call double @sqrt(double %23) #2, !llfi_index !34
  ret double %24, !llfi_index !35
}

; Function Attrs: nounwind
declare dso_local double @sqrt(double) #3

; Function Attrs: mustprogress noinline nounwind uwtable
define dso_local double @_Z4areadddddd(double %0, double %1, double %2, double %3, double %4, double %5) #4 {
  %7 = alloca double, align 8, !llfi_index !36
  %8 = alloca double, align 8, !llfi_index !37
  %9 = alloca double, align 8, !llfi_index !38
  %10 = alloca double, align 8, !llfi_index !39
  %11 = alloca double, align 8, !llfi_index !40
  %12 = alloca double, align 8, !llfi_index !41
  %13 = alloca double, align 8, !llfi_index !42
  %14 = alloca double, align 8, !llfi_index !43
  %15 = alloca double, align 8, !llfi_index !44
  %16 = alloca double, align 8, !llfi_index !45
  store double %0, double* %7, align 8, !llfi_index !46
  store double %1, double* %8, align 8, !llfi_index !47
  store double %2, double* %9, align 8, !llfi_index !48
  store double %3, double* %10, align 8, !llfi_index !49
  store double %4, double* %11, align 8, !llfi_index !50
  store double %5, double* %12, align 8, !llfi_index !51
  %17 = load double, double* %7, align 8, !llfi_index !52
  %18 = load double, double* %8, align 8, !llfi_index !53
  %19 = load double, double* %9, align 8, !llfi_index !54
  %20 = load double, double* %10, align 8, !llfi_index !55
  %21 = call double @_Z4distdddd(double %17, double %18, double %19, double %20), !llfi_index !56
  store double %21, double* %13, align 8, !llfi_index !57
  %22 = load double, double* %9, align 8, !llfi_index !58
  %23 = load double, double* %10, align 8, !llfi_index !59
  %24 = load double, double* %11, align 8, !llfi_index !60
  %25 = load double, double* %12, align 8, !llfi_index !61
  %26 = call double @_Z4distdddd(double %22, double %23, double %24, double %25), !llfi_index !62
  store double %26, double* %14, align 8, !llfi_index !63
  %27 = load double, double* %11, align 8, !llfi_index !64
  %28 = load double, double* %12, align 8, !llfi_index !65
  %29 = load double, double* %7, align 8, !llfi_index !66
  %30 = load double, double* %8, align 8, !llfi_index !67
  %31 = call double @_Z4distdddd(double %27, double %28, double %29, double %30), !llfi_index !68
  store double %31, double* %15, align 8, !llfi_index !69
  %32 = load double, double* %13, align 8, !llfi_index !70
  %33 = load double, double* %14, align 8, !llfi_index !71
  %34 = fadd double %32, %33, !llfi_index !72
  %35 = load double, double* %15, align 8, !llfi_index !73
  %36 = fadd double %34, %35, !llfi_index !74
  %37 = fdiv double %36, 2.000000e+00, !llfi_index !75
  store double %37, double* %16, align 8, !llfi_index !76
  %38 = load double, double* %16, align 8, !llfi_index !77
  %39 = load double, double* %16, align 8, !llfi_index !78
  %40 = load double, double* %13, align 8, !llfi_index !79
  %41 = fsub double %39, %40, !llfi_index !80
  %42 = fmul double %38, %41, !llfi_index !81
  %43 = load double, double* %16, align 8, !llfi_index !82
  %44 = load double, double* %14, align 8, !llfi_index !83
  %45 = fsub double %43, %44, !llfi_index !84
  %46 = fmul double %42, %45, !llfi_index !85
  %47 = load double, double* %16, align 8, !llfi_index !86
  %48 = load double, double* %15, align 8, !llfi_index !87
  %49 = fsub double %47, %48, !llfi_index !88
  %50 = fmul double %46, %49, !llfi_index !89
  %51 = call double @sqrt(double %50) #2, !llfi_index !90
  ret double %51, !llfi_index !91
}

; Function Attrs: mustprogress noinline uwtable
define dso_local double @_Z5scoreddSt6vectorIdSaIdEES1_(double %0, double %1, %"class.std::vector"* %2, %"class.std::vector"* %3) #5 personality i8* bitcast (i32 (...)* @__gxx_personality_v0 to i8*) {
  %5 = alloca double, align 8, !llfi_index !92
  %6 = alloca double, align 8, !llfi_index !93
  %7 = alloca i32, align 4, !llfi_index !94
  %8 = alloca %"class.std::vector.0", align 8, !llfi_index !95
  %9 = alloca %"class.std::ios_base::Init", align 1, !llfi_index !96
  %10 = alloca i8*, align 8, !llfi_index !97
  %11 = alloca i32, align 4, !llfi_index !98
  %12 = alloca i32, align 4, !llfi_index !99
  %13 = alloca %"class.__gnu_cxx::__normal_iterator", align 8, !llfi_index !100
  %14 = alloca %"class.__gnu_cxx::__normal_iterator", align 8, !llfi_index !101
  %15 = alloca i32, align 4, !llfi_index !102
  %16 = alloca double, align 8, !llfi_index !103
  %17 = alloca double, align 8, !llfi_index !104
  %18 = alloca i32, align 4, !llfi_index !105
  %19 = alloca i32, align 4, !llfi_index !106
  store double %0, double* %5, align 8, !llfi_index !107
  store double %1, double* %6, align 8, !llfi_index !108
  %20 = call i64 @_ZNKSt6vectorIdSaIdEE4sizeEv(%"class.std::vector"* nonnull align 8 dereferenceable(24) %2) #2, !llfi_index !109
  %21 = trunc i64 %20 to i32, !llfi_index !110
  store i32 %21, i32* %7, align 4, !llfi_index !111
  %22 = load i32, i32* %7, align 4, !llfi_index !112
  %23 = sext i32 %22 to i64, !llfi_index !113
  call void @_ZNSaISt4pairIdS_IddEEEC2Ev(%"class.std::ios_base::Init"* nonnull align 1 dereferenceable(1) %9) #2, !llfi_index !114
  invoke void @_ZNSt6vectorISt4pairIdS0_IddEESaIS2_EEC2EmRKS3_(%"class.std::vector.0"* nonnull align 8 dereferenceable(24) %8, i64 %23, %"class.std::ios_base::Init"* nonnull align 1 dereferenceable(1) %9)
          to label %24 unwind label %68, !llfi_index !115

24:                                               ; preds = %4
  call void @_ZNSaISt4pairIdS_IddEEED2Ev(%"class.std::ios_base::Init"* nonnull align 1 dereferenceable(1) %9) #2, !llfi_index !116
  store i32 0, i32* %12, align 4, !llfi_index !117
  br label %25, !llfi_index !118

25:                                               ; preds = %65, %24
  %26 = load i32, i32* %12, align 4, !llfi_index !119
  %27 = load i32, i32* %7, align 4, !llfi_index !120
  %28 = icmp slt i32 %26, %27, !llfi_index !121
  br i1 %28, label %29, label %72, !llfi_index !122

29:                                               ; preds = %25
  %30 = load i32, i32* %12, align 4, !llfi_index !123
  %31 = sext i32 %30 to i64, !llfi_index !124
  %32 = call nonnull align 8 dereferenceable(8) double* @_ZNSt6vectorIdSaIdEEixEm(%"class.std::vector"* nonnull align 8 dereferenceable(24) %3, i64 %31) #2, !llfi_index !125
  %33 = load double, double* %32, align 8, !llfi_index !126
  %34 = load double, double* %6, align 8, !llfi_index !127
  %35 = fsub double %33, %34, !llfi_index !128
  %36 = load i32, i32* %12, align 4, !llfi_index !129
  %37 = sext i32 %36 to i64, !llfi_index !130
  %38 = call nonnull align 8 dereferenceable(8) double* @_ZNSt6vectorIdSaIdEEixEm(%"class.std::vector"* nonnull align 8 dereferenceable(24) %2, i64 %37) #2, !llfi_index !131
  %39 = load double, double* %38, align 8, !llfi_index !132
  %40 = load double, double* %5, align 8, !llfi_index !133
  %41 = fsub double %39, %40, !llfi_index !134
  %42 = call double @atan2(double %35, double %41) #2, !llfi_index !135
  %43 = load i32, i32* %12, align 4, !llfi_index !136
  %44 = sext i32 %43 to i64, !llfi_index !137
  %45 = call nonnull align 8 dereferenceable(24) %"struct.std::pair"* @_ZNSt6vectorISt4pairIdS0_IddEESaIS2_EEixEm(%"class.std::vector.0"* nonnull align 8 dereferenceable(24) %8, i64 %44) #2, !llfi_index !138
  %46 = getelementptr inbounds %"struct.std::pair", %"struct.std::pair"* %45, i32 0, i32 0, !llfi_index !139
  store double %42, double* %46, align 8, !llfi_index !140
  %47 = load i32, i32* %12, align 4, !llfi_index !141
  %48 = sext i32 %47 to i64, !llfi_index !142
  %49 = call nonnull align 8 dereferenceable(8) double* @_ZNSt6vectorIdSaIdEEixEm(%"class.std::vector"* nonnull align 8 dereferenceable(24) %2, i64 %48) #2, !llfi_index !143
  %50 = load double, double* %49, align 8, !llfi_index !144
  %51 = load i32, i32* %12, align 4, !llfi_index !145
  %52 = sext i32 %51 to i64, !llfi_index !146
  %53 = call nonnull align 8 dereferenceable(24) %"struct.std::pair"* @_ZNSt6vectorISt4pairIdS0_IddEESaIS2_EEixEm(%"class.std::vector.0"* nonnull align 8 dereferenceable(24) %8, i64 %52) #2, !llfi_index !147
  %54 = getelementptr inbounds %"struct.std::pair", %"struct.std::pair"* %53, i32 0, i32 1, !llfi_index !148
  %55 = getelementptr inbounds %"struct.std::pair.5", %"struct.std::pair.5"* %54, i32 0, i32 0, !llfi_index !149
  store double %50, double* %55, align 8, !llfi_index !150
  %56 = load i32, i32* %12, align 4, !llfi_index !151
  %57 = sext i32 %56 to i64, !llfi_index !152
  %58 = call nonnull align 8 dereferenceable(8) double* @_ZNSt6vectorIdSaIdEEixEm(%"class.std::vector"* nonnull align 8 dereferenceable(24) %3, i64 %57) #2, !llfi_index !153
  %59 = load double, double* %58, align 8, !llfi_index !154
  %60 = load i32, i32* %12, align 4, !llfi_index !155
  %61 = sext i32 %60 to i64, !llfi_index !156
  %62 = call nonnull align 8 dereferenceable(24) %"struct.std::pair"* @_ZNSt6vectorISt4pairIdS0_IddEESaIS2_EEixEm(%"class.std::vector.0"* nonnull align 8 dereferenceable(24) %8, i64 %61) #2, !llfi_index !157
  %63 = getelementptr inbounds %"struct.std::pair", %"struct.std::pair"* %62, i32 0, i32 1, !llfi_index !158
  %64 = getelementptr inbounds %"struct.std::pair.5", %"struct.std::pair.5"* %63, i32 0, i32 1, !llfi_index !159
  store double %59, double* %64, align 8, !llfi_index !160
  br label %65, !llfi_index !161

65:                                               ; preds = %29
  %66 = load i32, i32* %12, align 4, !llfi_index !162
  %67 = add nsw i32 %66, 1, !llfi_index !163
  store i32 %67, i32* %12, align 4, !llfi_index !164
  br label %25, !llvm.loop !165, !llfi_index !167

68:                                               ; preds = %4
  %69 = landingpad { i8*, i32 }
          cleanup, !llfi_index !168
  %70 = extractvalue { i8*, i32 } %69, 0, !llfi_index !169
  store i8* %70, i8** %10, align 8, !llfi_index !170
  %71 = extractvalue { i8*, i32 } %69, 1, !llfi_index !171
  store i32 %71, i32* %11, align 4, !llfi_index !172
  call void @_ZNSaISt4pairIdS_IddEEED2Ev(%"class.std::ios_base::Init"* nonnull align 1 dereferenceable(1) %9) #2, !llfi_index !173
  br label %198, !llfi_index !174

72:                                               ; preds = %25
  %73 = call %"struct.std::pair"* @_ZNSt6vectorISt4pairIdS0_IddEESaIS2_EE5beginEv(%"class.std::vector.0"* nonnull align 8 dereferenceable(24) %8) #2, !llfi_index !175
  %74 = getelementptr inbounds %"class.__gnu_cxx::__normal_iterator", %"class.__gnu_cxx::__normal_iterator"* %13, i32 0, i32 0, !llfi_index !176
  store %"struct.std::pair"* %73, %"struct.std::pair"** %74, align 8, !llfi_index !177
  %75 = call %"struct.std::pair"* @_ZNSt6vectorISt4pairIdS0_IddEESaIS2_EE3endEv(%"class.std::vector.0"* nonnull align 8 dereferenceable(24) %8) #2, !llfi_index !178
  %76 = getelementptr inbounds %"class.__gnu_cxx::__normal_iterator", %"class.__gnu_cxx::__normal_iterator"* %14, i32 0, i32 0, !llfi_index !179
  store %"struct.std::pair"* %75, %"struct.std::pair"** %76, align 8, !llfi_index !180
  %77 = getelementptr inbounds %"class.__gnu_cxx::__normal_iterator", %"class.__gnu_cxx::__normal_iterator"* %13, i32 0, i32 0, !llfi_index !181
  %78 = load %"struct.std::pair"*, %"struct.std::pair"** %77, align 8, !llfi_index !182
  %79 = getelementptr inbounds %"class.__gnu_cxx::__normal_iterator", %"class.__gnu_cxx::__normal_iterator"* %14, i32 0, i32 0, !llfi_index !183
  %80 = load %"struct.std::pair"*, %"struct.std::pair"** %79, align 8, !llfi_index !184
  invoke void @_ZSt4sortIN9__gnu_cxx17__normal_iteratorIPSt4pairIdS2_IddEESt6vectorIS4_SaIS4_EEEEEvT_SA_(%"struct.std::pair"* %78, %"struct.std::pair"* %80)
          to label %81 unwind label %108, !llfi_index !185

81:                                               ; preds = %72
  store i32 0, i32* %15, align 4, !llfi_index !186
  br label %82, !llfi_index !187

82:                                               ; preds = %105, %81
  %83 = load i32, i32* %15, align 4, !llfi_index !188
  %84 = load i32, i32* %7, align 4, !llfi_index !189
  %85 = icmp slt i32 %83, %84, !llfi_index !190
  br i1 %85, label %86, label %112, !llfi_index !191

86:                                               ; preds = %82
  %87 = load i32, i32* %15, align 4, !llfi_index !192
  %88 = sext i32 %87 to i64, !llfi_index !193
  %89 = call nonnull align 8 dereferenceable(24) %"struct.std::pair"* @_ZNSt6vectorISt4pairIdS0_IddEESaIS2_EEixEm(%"class.std::vector.0"* nonnull align 8 dereferenceable(24) %8, i64 %88) #2, !llfi_index !194
  %90 = getelementptr inbounds %"struct.std::pair", %"struct.std::pair"* %89, i32 0, i32 1, !llfi_index !195
  %91 = getelementptr inbounds %"struct.std::pair.5", %"struct.std::pair.5"* %90, i32 0, i32 0, !llfi_index !196
  %92 = load double, double* %91, align 8, !llfi_index !197
  %93 = load i32, i32* %15, align 4, !llfi_index !198
  %94 = sext i32 %93 to i64, !llfi_index !199
  %95 = call nonnull align 8 dereferenceable(8) double* @_ZNSt6vectorIdSaIdEEixEm(%"class.std::vector"* nonnull align 8 dereferenceable(24) %2, i64 %94) #2, !llfi_index !200
  store double %92, double* %95, align 8, !llfi_index !201
  %96 = load i32, i32* %15, align 4, !llfi_index !202
  %97 = sext i32 %96 to i64, !llfi_index !203
  %98 = call nonnull align 8 dereferenceable(24) %"struct.std::pair"* @_ZNSt6vectorISt4pairIdS0_IddEESaIS2_EEixEm(%"class.std::vector.0"* nonnull align 8 dereferenceable(24) %8, i64 %97) #2, !llfi_index !204
  %99 = getelementptr inbounds %"struct.std::pair", %"struct.std::pair"* %98, i32 0, i32 1, !llfi_index !205
  %100 = getelementptr inbounds %"struct.std::pair.5", %"struct.std::pair.5"* %99, i32 0, i32 1, !llfi_index !206
  %101 = load double, double* %100, align 8, !llfi_index !207
  %102 = load i32, i32* %15, align 4, !llfi_index !208
  %103 = sext i32 %102 to i64, !llfi_index !209
  %104 = call nonnull align 8 dereferenceable(8) double* @_ZNSt6vectorIdSaIdEEixEm(%"class.std::vector"* nonnull align 8 dereferenceable(24) %3, i64 %103) #2, !llfi_index !210
  store double %101, double* %104, align 8, !llfi_index !211
  br label %105, !llfi_index !212

105:                                              ; preds = %86
  %106 = load i32, i32* %15, align 4, !llfi_index !213
  %107 = add nsw i32 %106, 1, !llfi_index !214
  store i32 %107, i32* %15, align 4, !llfi_index !215
  br label %82, !llvm.loop !216, !llfi_index !217

108:                                              ; preds = %72
  %109 = landingpad { i8*, i32 }
          cleanup, !llfi_index !218
  %110 = extractvalue { i8*, i32 } %109, 0, !llfi_index !219
  store i8* %110, i8** %10, align 8, !llfi_index !220
  %111 = extractvalue { i8*, i32 } %109, 1, !llfi_index !221
  store i32 %111, i32* %11, align 4, !llfi_index !222
  call void @_ZNSt6vectorISt4pairIdS0_IddEESaIS2_EED2Ev(%"class.std::vector.0"* nonnull align 8 dereferenceable(24) %8) #2, !llfi_index !223
  br label %198, !llfi_index !224

112:                                              ; preds = %82
  store double 0.000000e+00, double* %16, align 8, !llfi_index !225
  store double 0.000000e+00, double* %17, align 8, !llfi_index !226
  store i32 0, i32* %18, align 4, !llfi_index !227
  br label %113, !llfi_index !228

113:                                              ; preds = %143, %112
  %114 = load i32, i32* %18, align 4, !llfi_index !229
  %115 = load i32, i32* %7, align 4, !llfi_index !230
  %116 = icmp slt i32 %114, %115, !llfi_index !231
  br i1 %116, label %117, label %146, !llfi_index !232

117:                                              ; preds = %113
  %118 = load i32, i32* %18, align 4, !llfi_index !233
  %119 = sext i32 %118 to i64, !llfi_index !234
  %120 = call nonnull align 8 dereferenceable(8) double* @_ZNSt6vectorIdSaIdEEixEm(%"class.std::vector"* nonnull align 8 dereferenceable(24) %2, i64 %119) #2, !llfi_index !235
  %121 = load double, double* %120, align 8, !llfi_index !236
  %122 = load i32, i32* %18, align 4, !llfi_index !237
  %123 = sext i32 %122 to i64, !llfi_index !238
  %124 = call nonnull align 8 dereferenceable(8) double* @_ZNSt6vectorIdSaIdEEixEm(%"class.std::vector"* nonnull align 8 dereferenceable(24) %3, i64 %123) #2, !llfi_index !239
  %125 = load double, double* %124, align 8, !llfi_index !240
  %126 = load i32, i32* %18, align 4, !llfi_index !241
  %127 = add nsw i32 %126, 1, !llfi_index !242
  %128 = load i32, i32* %7, align 4, !llfi_index !243
  %129 = srem i32 %127, %128, !llfi_index !244
  %130 = sext i32 %129 to i64, !llfi_index !245
  %131 = call nonnull align 8 dereferenceable(8) double* @_ZNSt6vectorIdSaIdEEixEm(%"class.std::vector"* nonnull align 8 dereferenceable(24) %2, i64 %130) #2, !llfi_index !246
  %132 = load double, double* %131, align 8, !llfi_index !247
  %133 = load i32, i32* %18, align 4, !llfi_index !248
  %134 = add nsw i32 %133, 1, !llfi_index !249
  %135 = load i32, i32* %7, align 4, !llfi_index !250
  %136 = srem i32 %134, %135, !llfi_index !251
  %137 = sext i32 %136 to i64, !llfi_index !252
  %138 = call nonnull align 8 dereferenceable(8) double* @_ZNSt6vectorIdSaIdEEixEm(%"class.std::vector"* nonnull align 8 dereferenceable(24) %3, i64 %137) #2, !llfi_index !253
  %139 = load double, double* %138, align 8, !llfi_index !254
  %140 = call double @_Z4distdddd(double %121, double %125, double %132, double %139), !llfi_index !255
  %141 = load double, double* %16, align 8, !llfi_index !256
  %142 = fadd double %141, %140, !llfi_index !257
  store double %142, double* %16, align 8, !llfi_index !258
  br label %143, !llfi_index !259

143:                                              ; preds = %117
  %144 = load i32, i32* %18, align 4, !llfi_index !260
  %145 = add nsw i32 %144, 1, !llfi_index !261
  store i32 %145, i32* %18, align 4, !llfi_index !262
  br label %113, !llvm.loop !263, !llfi_index !264

146:                                              ; preds = %113
  store i32 0, i32* %19, align 4, !llfi_index !265
  br label %147, !llfi_index !266

147:                                              ; preds = %179, %146
  %148 = load i32, i32* %19, align 4, !llfi_index !267
  %149 = load i32, i32* %7, align 4, !llfi_index !268
  %150 = icmp slt i32 %148, %149, !llfi_index !269
  br i1 %150, label %151, label %182, !llfi_index !270

151:                                              ; preds = %147
  %152 = load double, double* %5, align 8, !llfi_index !271
  %153 = load double, double* %6, align 8, !llfi_index !272
  %154 = load i32, i32* %19, align 4, !llfi_index !273
  %155 = sext i32 %154 to i64, !llfi_index !274
  %156 = call nonnull align 8 dereferenceable(8) double* @_ZNSt6vectorIdSaIdEEixEm(%"class.std::vector"* nonnull align 8 dereferenceable(24) %2, i64 %155) #2, !llfi_index !275
  %157 = load double, double* %156, align 8, !llfi_index !276
  %158 = load i32, i32* %19, align 4, !llfi_index !277
  %159 = sext i32 %158 to i64, !llfi_index !278
  %160 = call nonnull align 8 dereferenceable(8) double* @_ZNSt6vectorIdSaIdEEixEm(%"class.std::vector"* nonnull align 8 dereferenceable(24) %3, i64 %159) #2, !llfi_index !279
  %161 = load double, double* %160, align 8, !llfi_index !280
  %162 = load i32, i32* %19, align 4, !llfi_index !281
  %163 = add nsw i32 %162, 1, !llfi_index !282
  %164 = load i32, i32* %7, align 4, !llfi_index !283
  %165 = srem i32 %163, %164, !llfi_index !284
  %166 = sext i32 %165 to i64, !llfi_index !285
  %167 = call nonnull align 8 dereferenceable(8) double* @_ZNSt6vectorIdSaIdEEixEm(%"class.std::vector"* nonnull align 8 dereferenceable(24) %2, i64 %166) #2, !llfi_index !286
  %168 = load double, double* %167, align 8, !llfi_index !287
  %169 = load i32, i32* %19, align 4, !llfi_index !288
  %170 = add nsw i32 %169, 1, !llfi_index !289
  %171 = load i32, i32* %7, align 4, !llfi_index !290
  %172 = srem i32 %170, %171, !llfi_index !291
  %173 = sext i32 %172 to i64, !llfi_index !292
  %174 = call nonnull align 8 dereferenceable(8) double* @_ZNSt6vectorIdSaIdEEixEm(%"class.std::vector"* nonnull align 8 dereferenceable(24) %3, i64 %173) #2, !llfi_index !293
  %175 = load double, double* %174, align 8, !llfi_index !294
  %176 = call double @_Z4areadddddd(double %152, double %153, double %157, double %161, double %168, double %175), !llfi_index !295
  %177 = load double, double* %17, align 8, !llfi_index !296
  %178 = fadd double %177, %176, !llfi_index !297
  store double %178, double* %17, align 8, !llfi_index !298
  br label %179, !llfi_index !299

179:                                              ; preds = %151
  %180 = load i32, i32* %19, align 4, !llfi_index !300
  %181 = add nsw i32 %180, 1, !llfi_index !301
  store i32 %181, i32* %19, align 4, !llfi_index !302
  br label %147, !llvm.loop !303, !llfi_index !304

182:                                              ; preds = %147
  %183 = load i32, i32* %7, align 4, !llfi_index !305
  %184 = mul nsw i32 4, %183, !llfi_index !306
  %185 = sitofp i32 %184 to double, !llfi_index !307
  %186 = call double @acos(double -1.000000e+00) #2, !llfi_index !308
  %187 = load i32, i32* %7, align 4, !llfi_index !309
  %188 = sitofp i32 %187 to double, !llfi_index !310
  %189 = fdiv double %186, %188, !llfi_index !311
  %190 = call double @tan(double %189) #2, !llfi_index !312
  %191 = fmul double %185, %190, !llfi_index !313
  %192 = load double, double* %16, align 8, !llfi_index !314
  %193 = load double, double* %16, align 8, !llfi_index !315
  %194 = fmul double %192, %193, !llfi_index !316
  %195 = load double, double* %17, align 8, !llfi_index !317
  %196 = fdiv double %194, %195, !llfi_index !318
  %197 = fdiv double %191, %196, !llfi_index !319
  call void @_ZNSt6vectorISt4pairIdS0_IddEESaIS2_EED2Ev(%"class.std::vector.0"* nonnull align 8 dereferenceable(24) %8) #2, !llfi_index !320
  ret double %197, !llfi_index !321

198:                                              ; preds = %108, %68
  %199 = load i8*, i8** %10, align 8, !llfi_index !322
  %200 = load i32, i32* %11, align 4, !llfi_index !323
  %201 = insertvalue { i8*, i32 } undef, i8* %199, 0, !llfi_index !324
  %202 = insertvalue { i8*, i32 } %201, i32 %200, 1, !llfi_index !325
  resume { i8*, i32 } %202, !llfi_index !326
}

declare dso_local i32 @__gxx_personality_v0(...)

; Function Attrs: mustprogress noinline nounwind uwtable
define linkonce_odr dso_local i64 @_ZNKSt6vectorIdSaIdEE4sizeEv(%"class.std::vector"* nonnull align 8 dereferenceable(24) %0) #4 comdat align 2 {
  %2 = alloca %"class.std::vector"*, align 8, !llfi_index !327
  store %"class.std::vector"* %0, %"class.std::vector"** %2, align 8, !llfi_index !328
  %3 = load %"class.std::vector"*, %"class.std::vector"** %2, align 8, !llfi_index !329
  %4 = bitcast %"class.std::vector"* %3 to %"struct.std::_Vector_base"*, !llfi_index !330
  %5 = getelementptr inbounds %"struct.std::_Vector_base", %"struct.std::_Vector_base"* %4, i32 0, i32 0, !llfi_index !331
  %6 = bitcast %"struct.std::_Vector_base<double, std::allocator<double>>::_Vector_impl"* %5 to %"struct.std::_Vector_base<double, std::allocator<double>>::_Vector_impl_data"*, !llfi_index !332
  %7 = getelementptr inbounds %"struct.std::_Vector_base<double, std::allocator<double>>::_Vector_impl_data", %"struct.std::_Vector_base<double, std::allocator<double>>::_Vector_impl_data"* %6, i32 0, i32 1, !llfi_index !333
  %8 = load double*, double** %7, align 8, !llfi_index !334
  %9 = bitcast %"class.std::vector"* %3 to %"struct.std::_Vector_base"*, !llfi_index !335
  %10 = getelementptr inbounds %"struct.std::_Vector_base", %"struct.std::_Vector_base"* %9, i32 0, i32 0, !llfi_index !336
  %11 = bitcast %"struct.std::_Vector_base<double, std::allocator<double>>::_Vector_impl"* %10 to %"struct.std::_Vector_base<double, std::allocator<double>>::_Vector_impl_data"*, !llfi_index !337
  %12 = getelementptr inbounds %"struct.std::_Vector_base<double, std::allocator<double>>::_Vector_impl_data", %"struct.std::_Vector_base<double, std::allocator<double>>::_Vector_impl_data"* %11, i32 0, i32 0, !llfi_index !338
  %13 = load double*, double** %12, align 8, !llfi_index !339
  %14 = ptrtoint double* %8 to i64, !llfi_index !340
  %15 = ptrtoint double* %13 to i64, !llfi_index !341
  %16 = sub i64 %14, %15, !llfi_index !342
  %17 = sdiv exact i64 %16, 8, !llfi_index !343
  ret i64 %17, !llfi_index !344
}

; Function Attrs: noinline nounwind uwtable
define linkonce_odr dso_local void @_ZNSaISt4pairIdS_IddEEEC2Ev(%"class.std::ios_base::Init"* nonnull align 1 dereferenceable(1) %0) unnamed_addr #6 comdat align 2 {
  %2 = alloca %"class.std::ios_base::Init"*, align 8, !llfi_index !345
  store %"class.std::ios_base::Init"* %0, %"class.std::ios_base::Init"** %2, align 8, !llfi_index !346
  %3 = load %"class.std::ios_base::Init"*, %"class.std::ios_base::Init"** %2, align 8, !llfi_index !347
  %4 = bitcast %"class.std::ios_base::Init"* %3 to %"class.std::ios_base::Init"*, !llfi_index !348
  call void @_ZN9__gnu_cxx13new_allocatorISt4pairIdS1_IddEEEC2Ev(%"class.std::ios_base::Init"* nonnull align 1 dereferenceable(1) %4) #2, !llfi_index !349
  ret void, !llfi_index !350
}

; Function Attrs: noinline uwtable
define linkonce_odr dso_local void @_ZNSt6vectorISt4pairIdS0_IddEESaIS2_EEC2EmRKS3_(%"class.std::vector.0"* nonnull align 8 dereferenceable(24) %0, i64 %1, %"class.std::ios_base::Init"* nonnull align 1 dereferenceable(1) %2) unnamed_addr #0 comdat align 2 personality i8* bitcast (i32 (...)* @__gxx_personality_v0 to i8*) {
  %4 = alloca %"class.std::vector.0"*, align 8, !llfi_index !351
  %5 = alloca i64, align 8, !llfi_index !352
  %6 = alloca %"class.std::ios_base::Init"*, align 8, !llfi_index !353
  %7 = alloca i8*, align 8, !llfi_index !354
  %8 = alloca i32, align 4, !llfi_index !355
  store %"class.std::vector.0"* %0, %"class.std::vector.0"** %4, align 8, !llfi_index !356
  store i64 %1, i64* %5, align 8, !llfi_index !357
  store %"class.std::ios_base::Init"* %2, %"class.std::ios_base::Init"** %6, align 8, !llfi_index !358
  %9 = load %"class.std::vector.0"*, %"class.std::vector.0"** %4, align 8, !llfi_index !359
  %10 = bitcast %"class.std::vector.0"* %9 to %"struct.std::_Vector_base.1"*, !llfi_index !360
  %11 = load i64, i64* %5, align 8, !llfi_index !361
  %12 = load %"class.std::ios_base::Init"*, %"class.std::ios_base::Init"** %6, align 8, !llfi_index !362
  %13 = call i64 @_ZNSt6vectorISt4pairIdS0_IddEESaIS2_EE17_S_check_init_lenEmRKS3_(i64 %11, %"class.std::ios_base::Init"* nonnull align 1 dereferenceable(1) %12), !llfi_index !363
  %14 = load %"class.std::ios_base::Init"*, %"class.std::ios_base::Init"** %6, align 8, !llfi_index !364
  call void @_ZNSt12_Vector_baseISt4pairIdS0_IddEESaIS2_EEC2EmRKS3_(%"struct.std::_Vector_base.1"* nonnull align 8 dereferenceable(24) %10, i64 %13, %"class.std::ios_base::Init"* nonnull align 1 dereferenceable(1) %14), !llfi_index !365
  %15 = load i64, i64* %5, align 8, !llfi_index !366
  invoke void @_ZNSt6vectorISt4pairIdS0_IddEESaIS2_EE21_M_default_initializeEm(%"class.std::vector.0"* nonnull align 8 dereferenceable(24) %9, i64 %15)
          to label %16 unwind label %17, !llfi_index !367

16:                                               ; preds = %3
  ret void, !llfi_index !368

17:                                               ; preds = %3
  %18 = landingpad { i8*, i32 }
          cleanup, !llfi_index !369
  %19 = extractvalue { i8*, i32 } %18, 0, !llfi_index !370
  store i8* %19, i8** %7, align 8, !llfi_index !371
  %20 = extractvalue { i8*, i32 } %18, 1, !llfi_index !372
  store i32 %20, i32* %8, align 4, !llfi_index !373
  %21 = bitcast %"class.std::vector.0"* %9 to %"struct.std::_Vector_base.1"*, !llfi_index !374
  call void @_ZNSt12_Vector_baseISt4pairIdS0_IddEESaIS2_EED2Ev(%"struct.std::_Vector_base.1"* nonnull align 8 dereferenceable(24) %21) #2, !llfi_index !375
  br label %22, !llfi_index !376

22:                                               ; preds = %17
  %23 = load i8*, i8** %7, align 8, !llfi_index !377
  %24 = load i32, i32* %8, align 4, !llfi_index !378
  %25 = insertvalue { i8*, i32 } undef, i8* %23, 0, !llfi_index !379
  %26 = insertvalue { i8*, i32 } %25, i32 %24, 1, !llfi_index !380
  resume { i8*, i32 } %26, !llfi_index !381
}

; Function Attrs: noinline nounwind uwtable
define linkonce_odr dso_local void @_ZNSaISt4pairIdS_IddEEED2Ev(%"class.std::ios_base::Init"* nonnull align 1 dereferenceable(1) %0) unnamed_addr #6 comdat align 2 {
  %2 = alloca %"class.std::ios_base::Init"*, align 8, !llfi_index !382
  store %"class.std::ios_base::Init"* %0, %"class.std::ios_base::Init"** %2, align 8, !llfi_index !383
  %3 = load %"class.std::ios_base::Init"*, %"class.std::ios_base::Init"** %2, align 8, !llfi_index !384
  %4 = bitcast %"class.std::ios_base::Init"* %3 to %"class.std::ios_base::Init"*, !llfi_index !385
  call void @_ZN9__gnu_cxx13new_allocatorISt4pairIdS1_IddEEED2Ev(%"class.std::ios_base::Init"* nonnull align 1 dereferenceable(1) %4) #2, !llfi_index !386
  ret void, !llfi_index !387
}

; Function Attrs: mustprogress noinline nounwind uwtable
define linkonce_odr dso_local nonnull align 8 dereferenceable(8) double* @_ZNSt6vectorIdSaIdEEixEm(%"class.std::vector"* nonnull align 8 dereferenceable(24) %0, i64 %1) #4 comdat align 2 {
  %3 = alloca %"class.std::vector"*, align 8, !llfi_index !388
  %4 = alloca i64, align 8, !llfi_index !389
  store %"class.std::vector"* %0, %"class.std::vector"** %3, align 8, !llfi_index !390
  store i64 %1, i64* %4, align 8, !llfi_index !391
  %5 = load %"class.std::vector"*, %"class.std::vector"** %3, align 8, !llfi_index !392
  %6 = bitcast %"class.std::vector"* %5 to %"struct.std::_Vector_base"*, !llfi_index !393
  %7 = getelementptr inbounds %"struct.std::_Vector_base", %"struct.std::_Vector_base"* %6, i32 0, i32 0, !llfi_index !394
  %8 = bitcast %"struct.std::_Vector_base<double, std::allocator<double>>::_Vector_impl"* %7 to %"struct.std::_Vector_base<double, std::allocator<double>>::_Vector_impl_data"*, !llfi_index !395
  %9 = getelementptr inbounds %"struct.std::_Vector_base<double, std::allocator<double>>::_Vector_impl_data", %"struct.std::_Vector_base<double, std::allocator<double>>::_Vector_impl_data"* %8, i32 0, i32 0, !llfi_index !396
  %10 = load double*, double** %9, align 8, !llfi_index !397
  %11 = load i64, i64* %4, align 8, !llfi_index !398
  %12 = getelementptr inbounds double, double* %10, i64 %11, !llfi_index !399
  ret double* %12, !llfi_index !400
}

; Function Attrs: nounwind
declare dso_local double @atan2(double, double) #3

; Function Attrs: mustprogress noinline nounwind uwtable
define linkonce_odr dso_local nonnull align 8 dereferenceable(24) %"struct.std::pair"* @_ZNSt6vectorISt4pairIdS0_IddEESaIS2_EEixEm(%"class.std::vector.0"* nonnull align 8 dereferenceable(24) %0, i64 %1) #4 comdat align 2 {
  %3 = alloca %"class.std::vector.0"*, align 8, !llfi_index !401
  %4 = alloca i64, align 8, !llfi_index !402
  store %"class.std::vector.0"* %0, %"class.std::vector.0"** %3, align 8, !llfi_index !403
  store i64 %1, i64* %4, align 8, !llfi_index !404
  %5 = load %"class.std::vector.0"*, %"class.std::vector.0"** %3, align 8, !llfi_index !405
  %6 = bitcast %"class.std::vector.0"* %5 to %"struct.std::_Vector_base.1"*, !llfi_index !406
  %7 = getelementptr inbounds %"struct.std::_Vector_base.1", %"struct.std::_Vector_base.1"* %6, i32 0, i32 0, !llfi_index !407
  %8 = bitcast %"struct.std::_Vector_base<std::pair<double, std::pair<double, double>>, std::allocator<std::pair<double, std::pair<double, double>>>>::_Vector_impl"* %7 to %"struct.std::_Vector_base<std::pair<double, std::pair<double, double>>, std::allocator<std::pair<double, std::pair<double, double>>>>::_Vector_impl_data"*, !llfi_index !408
  %9 = getelementptr inbounds %"struct.std::_Vector_base<std::pair<double, std::pair<double, double>>, std::allocator<std::pair<double, std::pair<double, double>>>>::_Vector_impl_data", %"struct.std::_Vector_base<std::pair<double, std::pair<double, double>>, std::allocator<std::pair<double, std::pair<double, double>>>>::_Vector_impl_data"* %8, i32 0, i32 0, !llfi_index !409
  %10 = load %"struct.std::pair"*, %"struct.std::pair"** %9, align 8, !llfi_index !410
  %11 = load i64, i64* %4, align 8, !llfi_index !411
  %12 = getelementptr inbounds %"struct.std::pair", %"struct.std::pair"* %10, i64 %11, !llfi_index !412
  ret %"struct.std::pair"* %12, !llfi_index !413
}

; Function Attrs: mustprogress noinline nounwind uwtable
define linkonce_odr dso_local %"struct.std::pair"* @_ZNSt6vectorISt4pairIdS0_IddEESaIS2_EE5beginEv(%"class.std::vector.0"* nonnull align 8 dereferenceable(24) %0) #4 comdat align 2 {
  %2 = alloca %"class.__gnu_cxx::__normal_iterator", align 8, !llfi_index !414
  %3 = alloca %"class.std::vector.0"*, align 8, !llfi_index !415
  store %"class.std::vector.0"* %0, %"class.std::vector.0"** %3, align 8, !llfi_index !416
  %4 = load %"class.std::vector.0"*, %"class.std::vector.0"** %3, align 8, !llfi_index !417
  %5 = bitcast %"class.std::vector.0"* %4 to %"struct.std::_Vector_base.1"*, !llfi_index !418
  %6 = getelementptr inbounds %"struct.std::_Vector_base.1", %"struct.std::_Vector_base.1"* %5, i32 0, i32 0, !llfi_index !419
  %7 = bitcast %"struct.std::_Vector_base<std::pair<double, std::pair<double, double>>, std::allocator<std::pair<double, std::pair<double, double>>>>::_Vector_impl"* %6 to %"struct.std::_Vector_base<std::pair<double, std::pair<double, double>>, std::allocator<std::pair<double, std::pair<double, double>>>>::_Vector_impl_data"*, !llfi_index !420
  %8 = getelementptr inbounds %"struct.std::_Vector_base<std::pair<double, std::pair<double, double>>, std::allocator<std::pair<double, std::pair<double, double>>>>::_Vector_impl_data", %"struct.std::_Vector_base<std::pair<double, std::pair<double, double>>, std::allocator<std::pair<double, std::pair<double, double>>>>::_Vector_impl_data"* %7, i32 0, i32 0, !llfi_index !421
  call void @_ZN9__gnu_cxx17__normal_iteratorIPSt4pairIdS1_IddEESt6vectorIS3_SaIS3_EEEC2ERKS4_(%"class.__gnu_cxx::__normal_iterator"* nonnull align 8 dereferenceable(8) %2, %"struct.std::pair"** nonnull align 8 dereferenceable(8) %8) #2, !llfi_index !422
  %9 = getelementptr inbounds %"class.__gnu_cxx::__normal_iterator", %"class.__gnu_cxx::__normal_iterator"* %2, i32 0, i32 0, !llfi_index !423
  %10 = load %"struct.std::pair"*, %"struct.std::pair"** %9, align 8, !llfi_index !424
  ret %"struct.std::pair"* %10, !llfi_index !425
}

; Function Attrs: mustprogress noinline nounwind uwtable
define linkonce_odr dso_local %"struct.std::pair"* @_ZNSt6vectorISt4pairIdS0_IddEESaIS2_EE3endEv(%"class.std::vector.0"* nonnull align 8 dereferenceable(24) %0) #4 comdat align 2 {
  %2 = alloca %"class.__gnu_cxx::__normal_iterator", align 8, !llfi_index !426
  %3 = alloca %"class.std::vector.0"*, align 8, !llfi_index !427
  store %"class.std::vector.0"* %0, %"class.std::vector.0"** %3, align 8, !llfi_index !428
  %4 = load %"class.std::vector.0"*, %"class.std::vector.0"** %3, align 8, !llfi_index !429
  %5 = bitcast %"class.std::vector.0"* %4 to %"struct.std::_Vector_base.1"*, !llfi_index !430
  %6 = getelementptr inbounds %"struct.std::_Vector_base.1", %"struct.std::_Vector_base.1"* %5, i32 0, i32 0, !llfi_index !431
  %7 = bitcast %"struct.std::_Vector_base<std::pair<double, std::pair<double, double>>, std::allocator<std::pair<double, std::pair<double, double>>>>::_Vector_impl"* %6 to %"struct.std::_Vector_base<std::pair<double, std::pair<double, double>>, std::allocator<std::pair<double, std::pair<double, double>>>>::_Vector_impl_data"*, !llfi_index !432
  %8 = getelementptr inbounds %"struct.std::_Vector_base<std::pair<double, std::pair<double, double>>, std::allocator<std::pair<double, std::pair<double, double>>>>::_Vector_impl_data", %"struct.std::_Vector_base<std::pair<double, std::pair<double, double>>, std::allocator<std::pair<double, std::pair<double, double>>>>::_Vector_impl_data"* %7, i32 0, i32 1, !llfi_index !433
  call void @_ZN9__gnu_cxx17__normal_iteratorIPSt4pairIdS1_IddEESt6vectorIS3_SaIS3_EEEC2ERKS4_(%"class.__gnu_cxx::__normal_iterator"* nonnull align 8 dereferenceable(8) %2, %"struct.std::pair"** nonnull align 8 dereferenceable(8) %8) #2, !llfi_index !434
  %9 = getelementptr inbounds %"class.__gnu_cxx::__normal_iterator", %"class.__gnu_cxx::__normal_iterator"* %2, i32 0, i32 0, !llfi_index !435
  %10 = load %"struct.std::pair"*, %"struct.std::pair"** %9, align 8, !llfi_index !436
  ret %"struct.std::pair"* %10, !llfi_index !437
}

; Function Attrs: mustprogress noinline uwtable
define linkonce_odr dso_local void @_ZSt4sortIN9__gnu_cxx17__normal_iteratorIPSt4pairIdS2_IddEESt6vectorIS4_SaIS4_EEEEEvT_SA_(%"struct.std::pair"* %0, %"struct.std::pair"* %1) #5 comdat {
  %3 = alloca %"class.__gnu_cxx::__normal_iterator", align 8, !llfi_index !438
  %4 = alloca %"class.__gnu_cxx::__normal_iterator", align 8, !llfi_index !439
  %5 = alloca %"class.__gnu_cxx::__normal_iterator", align 8, !llfi_index !440
  %6 = alloca %"class.__gnu_cxx::__normal_iterator", align 8, !llfi_index !441
  %7 = alloca %"class.std::ios_base::Init", align 1, !llfi_index !442
  %8 = alloca %"class.std::ios_base::Init", align 1, !llfi_index !443
  %9 = getelementptr inbounds %"class.__gnu_cxx::__normal_iterator", %"class.__gnu_cxx::__normal_iterator"* %3, i32 0, i32 0, !llfi_index !444
  store %"struct.std::pair"* %0, %"struct.std::pair"** %9, align 8, !llfi_index !445
  %10 = getelementptr inbounds %"class.__gnu_cxx::__normal_iterator", %"class.__gnu_cxx::__normal_iterator"* %4, i32 0, i32 0, !llfi_index !446
  store %"struct.std::pair"* %1, %"struct.std::pair"** %10, align 8, !llfi_index !447
  %11 = bitcast %"class.__gnu_cxx::__normal_iterator"* %5 to i8*, !llfi_index !448
  %12 = bitcast %"class.__gnu_cxx::__normal_iterator"* %3 to i8*, !llfi_index !449
  call void @llvm.memcpy.p0i8.p0i8.i64(i8* align 8 %11, i8* align 8 %12, i64 8, i1 false), !llfi_index !450
  %13 = bitcast %"class.__gnu_cxx::__normal_iterator"* %6 to i8*, !llfi_index !451
  %14 = bitcast %"class.__gnu_cxx::__normal_iterator"* %4 to i8*, !llfi_index !452
  call void @llvm.memcpy.p0i8.p0i8.i64(i8* align 8 %13, i8* align 8 %14, i64 8, i1 false), !llfi_index !453
  call void @_ZN9__gnu_cxx5__ops16__iter_less_iterEv(), !llfi_index !454
  %15 = getelementptr inbounds %"class.__gnu_cxx::__normal_iterator", %"class.__gnu_cxx::__normal_iterator"* %5, i32 0, i32 0, !llfi_index !455
  %16 = load %"struct.std::pair"*, %"struct.std::pair"** %15, align 8, !llfi_index !456
  %17 = getelementptr inbounds %"class.__gnu_cxx::__normal_iterator", %"class.__gnu_cxx::__normal_iterator"* %6, i32 0, i32 0, !llfi_index !457
  %18 = load %"struct.std::pair"*, %"struct.std::pair"** %17, align 8, !llfi_index !458
  call void @_ZSt6__sortIN9__gnu_cxx17__normal_iteratorIPSt4pairIdS2_IddEESt6vectorIS4_SaIS4_EEEENS0_5__ops15_Iter_less_iterEEvT_SC_T0_(%"struct.std::pair"* %16, %"struct.std::pair"* %18), !llfi_index !459
  ret void, !llfi_index !460
}

; Function Attrs: noinline nounwind uwtable
define linkonce_odr dso_local void @_ZNSt6vectorISt4pairIdS0_IddEESaIS2_EED2Ev(%"class.std::vector.0"* nonnull align 8 dereferenceable(24) %0) unnamed_addr #6 comdat align 2 personality i8* bitcast (i32 (...)* @__gxx_personality_v0 to i8*) {
  %2 = alloca %"class.std::vector.0"*, align 8, !llfi_index !461
  %3 = alloca i8*, align 8, !llfi_index !462
  %4 = alloca i32, align 4, !llfi_index !463
  store %"class.std::vector.0"* %0, %"class.std::vector.0"** %2, align 8, !llfi_index !464
  %5 = load %"class.std::vector.0"*, %"class.std::vector.0"** %2, align 8, !llfi_index !465
  %6 = bitcast %"class.std::vector.0"* %5 to %"struct.std::_Vector_base.1"*, !llfi_index !466
  %7 = getelementptr inbounds %"struct.std::_Vector_base.1", %"struct.std::_Vector_base.1"* %6, i32 0, i32 0, !llfi_index !467
  %8 = bitcast %"struct.std::_Vector_base<std::pair<double, std::pair<double, double>>, std::allocator<std::pair<double, std::pair<double, double>>>>::_Vector_impl"* %7 to %"struct.std::_Vector_base<std::pair<double, std::pair<double, double>>, std::allocator<std::pair<double, std::pair<double, double>>>>::_Vector_impl_data"*, !llfi_index !468
  %9 = getelementptr inbounds %"struct.std::_Vector_base<std::pair<double, std::pair<double, double>>, std::allocator<std::pair<double, std::pair<double, double>>>>::_Vector_impl_data", %"struct.std::_Vector_base<std::pair<double, std::pair<double, double>>, std::allocator<std::pair<double, std::pair<double, double>>>>::_Vector_impl_data"* %8, i32 0, i32 0, !llfi_index !469
  %10 = load %"struct.std::pair"*, %"struct.std::pair"** %9, align 8, !llfi_index !470
  %11 = bitcast %"class.std::vector.0"* %5 to %"struct.std::_Vector_base.1"*, !llfi_index !471
  %12 = getelementptr inbounds %"struct.std::_Vector_base.1", %"struct.std::_Vector_base.1"* %11, i32 0, i32 0, !llfi_index !472
  %13 = bitcast %"struct.std::_Vector_base<std::pair<double, std::pair<double, double>>, std::allocator<std::pair<double, std::pair<double, double>>>>::_Vector_impl"* %12 to %"struct.std::_Vector_base<std::pair<double, std::pair<double, double>>, std::allocator<std::pair<double, std::pair<double, double>>>>::_Vector_impl_data"*, !llfi_index !473
  %14 = getelementptr inbounds %"struct.std::_Vector_base<std::pair<double, std::pair<double, double>>, std::allocator<std::pair<double, std::pair<double, double>>>>::_Vector_impl_data", %"struct.std::_Vector_base<std::pair<double, std::pair<double, double>>, std::allocator<std::pair<double, std::pair<double, double>>>>::_Vector_impl_data"* %13, i32 0, i32 1, !llfi_index !474
  %15 = load %"struct.std::pair"*, %"struct.std::pair"** %14, align 8, !llfi_index !475
  %16 = bitcast %"class.std::vector.0"* %5 to %"struct.std::_Vector_base.1"*, !llfi_index !476
  %17 = call nonnull align 1 dereferenceable(1) %"class.std::ios_base::Init"* @_ZNSt12_Vector_baseISt4pairIdS0_IddEESaIS2_EE19_M_get_Tp_allocatorEv(%"struct.std::_Vector_base.1"* nonnull align 8 dereferenceable(24) %16) #2, !llfi_index !477
  invoke void @_ZSt8_DestroyIPSt4pairIdS0_IddEES2_EvT_S4_RSaIT0_E(%"struct.std::pair"* %10, %"struct.std::pair"* %15, %"class.std::ios_base::Init"* nonnull align 1 dereferenceable(1) %17)
          to label %18 unwind label %20, !llfi_index !478

18:                                               ; preds = %1
  %19 = bitcast %"class.std::vector.0"* %5 to %"struct.std::_Vector_base.1"*, !llfi_index !479
  call void @_ZNSt12_Vector_baseISt4pairIdS0_IddEESaIS2_EED2Ev(%"struct.std::_Vector_base.1"* nonnull align 8 dereferenceable(24) %19) #2, !llfi_index !480
  ret void, !llfi_index !481

20:                                               ; preds = %1
  %21 = landingpad { i8*, i32 }
          catch i8* null, !llfi_index !482
  %22 = extractvalue { i8*, i32 } %21, 0, !llfi_index !483
  store i8* %22, i8** %3, align 8, !llfi_index !484
  %23 = extractvalue { i8*, i32 } %21, 1, !llfi_index !485
  store i32 %23, i32* %4, align 4, !llfi_index !486
  %24 = bitcast %"class.std::vector.0"* %5 to %"struct.std::_Vector_base.1"*, !llfi_index !487
  call void @_ZNSt12_Vector_baseISt4pairIdS0_IddEESaIS2_EED2Ev(%"struct.std::_Vector_base.1"* nonnull align 8 dereferenceable(24) %24) #2, !llfi_index !488
  br label %25, !llfi_index !489

25:                                               ; preds = %20
  %26 = load i8*, i8** %3, align 8, !llfi_index !490
  call void @__clang_call_terminate(i8* %26) #15, !llfi_index !491
  unreachable, !llfi_index !492
}

; Function Attrs: nounwind
declare dso_local double @acos(double) #3

; Function Attrs: nounwind
declare dso_local double @tan(double) #3

; Function Attrs: mustprogress noinline nounwind uwtable
define linkonce_odr dso_local nonnull align 1 dereferenceable(1) %"class.std::ios_base::Init"* @_ZNSt12_Vector_baseISt4pairIdS0_IddEESaIS2_EE19_M_get_Tp_allocatorEv(%"struct.std::_Vector_base.1"* nonnull align 8 dereferenceable(24) %0) #4 comdat align 2 {
  %2 = alloca %"struct.std::_Vector_base.1"*, align 8, !llfi_index !493
  store %"struct.std::_Vector_base.1"* %0, %"struct.std::_Vector_base.1"** %2, align 8, !llfi_index !494
  %3 = load %"struct.std::_Vector_base.1"*, %"struct.std::_Vector_base.1"** %2, align 8, !llfi_index !495
  %4 = getelementptr inbounds %"struct.std::_Vector_base.1", %"struct.std::_Vector_base.1"* %3, i32 0, i32 0, !llfi_index !496
  %5 = bitcast %"struct.std::_Vector_base<std::pair<double, std::pair<double, double>>, std::allocator<std::pair<double, std::pair<double, double>>>>::_Vector_impl"* %4 to %"class.std::ios_base::Init"*, !llfi_index !497
  ret %"class.std::ios_base::Init"* %5, !llfi_index !498
}

; Function Attrs: mustprogress noinline uwtable
define linkonce_odr dso_local void @_ZSt8_DestroyIPSt4pairIdS0_IddEES2_EvT_S4_RSaIT0_E(%"struct.std::pair"* %0, %"struct.std::pair"* %1, %"class.std::ios_base::Init"* nonnull align 1 dereferenceable(1) %2) #5 comdat {
  %4 = alloca %"struct.std::pair"*, align 8, !llfi_index !499
  %5 = alloca %"struct.std::pair"*, align 8, !llfi_index !500
  %6 = alloca %"class.std::ios_base::Init"*, align 8, !llfi_index !501
  store %"struct.std::pair"* %0, %"struct.std::pair"** %4, align 8, !llfi_index !502
  store %"struct.std::pair"* %1, %"struct.std::pair"** %5, align 8, !llfi_index !503
  store %"class.std::ios_base::Init"* %2, %"class.std::ios_base::Init"** %6, align 8, !llfi_index !504
  %7 = load %"struct.std::pair"*, %"struct.std::pair"** %4, align 8, !llfi_index !505
  %8 = load %"struct.std::pair"*, %"struct.std::pair"** %5, align 8, !llfi_index !506
  call void @_ZSt8_DestroyIPSt4pairIdS0_IddEEEvT_S4_(%"struct.std::pair"* %7, %"struct.std::pair"* %8), !llfi_index !507
  ret void, !llfi_index !508
}

; Function Attrs: noinline nounwind uwtable
define linkonce_odr dso_local void @_ZNSt12_Vector_baseISt4pairIdS0_IddEESaIS2_EED2Ev(%"struct.std::_Vector_base.1"* nonnull align 8 dereferenceable(24) %0) unnamed_addr #6 comdat align 2 personality i8* bitcast (i32 (...)* @__gxx_personality_v0 to i8*) {
  %2 = alloca %"struct.std::_Vector_base.1"*, align 8, !llfi_index !509
  %3 = alloca i8*, align 8, !llfi_index !510
  %4 = alloca i32, align 4, !llfi_index !511
  store %"struct.std::_Vector_base.1"* %0, %"struct.std::_Vector_base.1"** %2, align 8, !llfi_index !512
  %5 = load %"struct.std::_Vector_base.1"*, %"struct.std::_Vector_base.1"** %2, align 8, !llfi_index !513
  %6 = getelementptr inbounds %"struct.std::_Vector_base.1", %"struct.std::_Vector_base.1"* %5, i32 0, i32 0, !llfi_index !514
  %7 = bitcast %"struct.std::_Vector_base<std::pair<double, std::pair<double, double>>, std::allocator<std::pair<double, std::pair<double, double>>>>::_Vector_impl"* %6 to %"struct.std::_Vector_base<std::pair<double, std::pair<double, double>>, std::allocator<std::pair<double, std::pair<double, double>>>>::_Vector_impl_data"*, !llfi_index !515
  %8 = getelementptr inbounds %"struct.std::_Vector_base<std::pair<double, std::pair<double, double>>, std::allocator<std::pair<double, std::pair<double, double>>>>::_Vector_impl_data", %"struct.std::_Vector_base<std::pair<double, std::pair<double, double>>, std::allocator<std::pair<double, std::pair<double, double>>>>::_Vector_impl_data"* %7, i32 0, i32 0, !llfi_index !516
  %9 = load %"struct.std::pair"*, %"struct.std::pair"** %8, align 8, !llfi_index !517
  %10 = getelementptr inbounds %"struct.std::_Vector_base.1", %"struct.std::_Vector_base.1"* %5, i32 0, i32 0, !llfi_index !518
  %11 = bitcast %"struct.std::_Vector_base<std::pair<double, std::pair<double, double>>, std::allocator<std::pair<double, std::pair<double, double>>>>::_Vector_impl"* %10 to %"struct.std::_Vector_base<std::pair<double, std::pair<double, double>>, std::allocator<std::pair<double, std::pair<double, double>>>>::_Vector_impl_data"*, !llfi_index !519
  %12 = getelementptr inbounds %"struct.std::_Vector_base<std::pair<double, std::pair<double, double>>, std::allocator<std::pair<double, std::pair<double, double>>>>::_Vector_impl_data", %"struct.std::_Vector_base<std::pair<double, std::pair<double, double>>, std::allocator<std::pair<double, std::pair<double, double>>>>::_Vector_impl_data"* %11, i32 0, i32 2, !llfi_index !520
  %13 = load %"struct.std::pair"*, %"struct.std::pair"** %12, align 8, !llfi_index !521
  %14 = getelementptr inbounds %"struct.std::_Vector_base.1", %"struct.std::_Vector_base.1"* %5, i32 0, i32 0, !llfi_index !522
  %15 = bitcast %"struct.std::_Vector_base<std::pair<double, std::pair<double, double>>, std::allocator<std::pair<double, std::pair<double, double>>>>::_Vector_impl"* %14 to %"struct.std::_Vector_base<std::pair<double, std::pair<double, double>>, std::allocator<std::pair<double, std::pair<double, double>>>>::_Vector_impl_data"*, !llfi_index !523
  %16 = getelementptr inbounds %"struct.std::_Vector_base<std::pair<double, std::pair<double, double>>, std::allocator<std::pair<double, std::pair<double, double>>>>::_Vector_impl_data", %"struct.std::_Vector_base<std::pair<double, std::pair<double, double>>, std::allocator<std::pair<double, std::pair<double, double>>>>::_Vector_impl_data"* %15, i32 0, i32 0, !llfi_index !524
  %17 = load %"struct.std::pair"*, %"struct.std::pair"** %16, align 8, !llfi_index !525
  %18 = ptrtoint %"struct.std::pair"* %13 to i64, !llfi_index !526
  %19 = ptrtoint %"struct.std::pair"* %17 to i64, !llfi_index !527
  %20 = sub i64 %18, %19, !llfi_index !528
  %21 = sdiv exact i64 %20, 24, !llfi_index !529
  invoke void @_ZNSt12_Vector_baseISt4pairIdS0_IddEESaIS2_EE13_M_deallocateEPS2_m(%"struct.std::_Vector_base.1"* nonnull align 8 dereferenceable(24) %5, %"struct.std::pair"* %9, i64 %21)
          to label %22 unwind label %24, !llfi_index !530

22:                                               ; preds = %1
  %23 = getelementptr inbounds %"struct.std::_Vector_base.1", %"struct.std::_Vector_base.1"* %5, i32 0, i32 0, !llfi_index !531
  call void @_ZNSt12_Vector_baseISt4pairIdS0_IddEESaIS2_EE12_Vector_implD2Ev(%"struct.std::_Vector_base<std::pair<double, std::pair<double, double>>, std::allocator<std::pair<double, std::pair<double, double>>>>::_Vector_impl"* nonnull align 8 dereferenceable(24) %23) #2, !llfi_index !532
  ret void, !llfi_index !533

24:                                               ; preds = %1
  %25 = landingpad { i8*, i32 }
          catch i8* null, !llfi_index !534
  %26 = extractvalue { i8*, i32 } %25, 0, !llfi_index !535
  store i8* %26, i8** %3, align 8, !llfi_index !536
  %27 = extractvalue { i8*, i32 } %25, 1, !llfi_index !537
  store i32 %27, i32* %4, align 4, !llfi_index !538
  %28 = getelementptr inbounds %"struct.std::_Vector_base.1", %"struct.std::_Vector_base.1"* %5, i32 0, i32 0, !llfi_index !539
  call void @_ZNSt12_Vector_baseISt4pairIdS0_IddEESaIS2_EE12_Vector_implD2Ev(%"struct.std::_Vector_base<std::pair<double, std::pair<double, double>>, std::allocator<std::pair<double, std::pair<double, double>>>>::_Vector_impl"* nonnull align 8 dereferenceable(24) %28) #2, !llfi_index !540
  br label %29, !llfi_index !541

29:                                               ; preds = %24
  %30 = load i8*, i8** %3, align 8, !llfi_index !542
  call void @__clang_call_terminate(i8* %30) #15, !llfi_index !543
  unreachable, !llfi_index !544
}

; Function Attrs: noinline noreturn nounwind
define linkonce_odr hidden void @__clang_call_terminate(i8* %0) #7 comdat {
  %2 = call i8* @__cxa_begin_catch(i8* %0) #2, !llfi_index !545
  call void @_ZSt9terminatev() #15, !llfi_index !546
  unreachable, !llfi_index !547
}

declare dso_local i8* @__cxa_begin_catch(i8*)

declare dso_local void @_ZSt9terminatev()

; Function Attrs: mustprogress noinline uwtable
define linkonce_odr dso_local void @_ZNSt12_Vector_baseISt4pairIdS0_IddEESaIS2_EE13_M_deallocateEPS2_m(%"struct.std::_Vector_base.1"* nonnull align 8 dereferenceable(24) %0, %"struct.std::pair"* %1, i64 %2) #5 comdat align 2 {
  %4 = alloca %"struct.std::_Vector_base.1"*, align 8, !llfi_index !548
  %5 = alloca %"struct.std::pair"*, align 8, !llfi_index !549
  %6 = alloca i64, align 8, !llfi_index !550
  store %"struct.std::_Vector_base.1"* %0, %"struct.std::_Vector_base.1"** %4, align 8, !llfi_index !551
  store %"struct.std::pair"* %1, %"struct.std::pair"** %5, align 8, !llfi_index !552
  store i64 %2, i64* %6, align 8, !llfi_index !553
  %7 = load %"struct.std::_Vector_base.1"*, %"struct.std::_Vector_base.1"** %4, align 8, !llfi_index !554
  %8 = load %"struct.std::pair"*, %"struct.std::pair"** %5, align 8, !llfi_index !555
  %9 = icmp ne %"struct.std::pair"* %8, null, !llfi_index !556
  br i1 %9, label %10, label %15, !llfi_index !557

10:                                               ; preds = %3
  %11 = getelementptr inbounds %"struct.std::_Vector_base.1", %"struct.std::_Vector_base.1"* %7, i32 0, i32 0, !llfi_index !558
  %12 = bitcast %"struct.std::_Vector_base<std::pair<double, std::pair<double, double>>, std::allocator<std::pair<double, std::pair<double, double>>>>::_Vector_impl"* %11 to %"class.std::ios_base::Init"*, !llfi_index !559
  %13 = load %"struct.std::pair"*, %"struct.std::pair"** %5, align 8, !llfi_index !560
  %14 = load i64, i64* %6, align 8, !llfi_index !561
  call void @_ZNSt16allocator_traitsISaISt4pairIdS0_IddEEEE10deallocateERS3_PS2_m(%"class.std::ios_base::Init"* nonnull align 1 dereferenceable(1) %12, %"struct.std::pair"* %13, i64 %14), !llfi_index !562
  br label %15, !llfi_index !563

15:                                               ; preds = %10, %3
  ret void, !llfi_index !564
}

; Function Attrs: noinline nounwind uwtable
define linkonce_odr dso_local void @_ZNSt12_Vector_baseISt4pairIdS0_IddEESaIS2_EE12_Vector_implD2Ev(%"struct.std::_Vector_base<std::pair<double, std::pair<double, double>>, std::allocator<std::pair<double, std::pair<double, double>>>>::_Vector_impl"* nonnull align 8 dereferenceable(24) %0) unnamed_addr #6 comdat align 2 {
  %2 = alloca %"struct.std::_Vector_base<std::pair<double, std::pair<double, double>>, std::allocator<std::pair<double, std::pair<double, double>>>>::_Vector_impl"*, align 8, !llfi_index !565
  store %"struct.std::_Vector_base<std::pair<double, std::pair<double, double>>, std::allocator<std::pair<double, std::pair<double, double>>>>::_Vector_impl"* %0, %"struct.std::_Vector_base<std::pair<double, std::pair<double, double>>, std::allocator<std::pair<double, std::pair<double, double>>>>::_Vector_impl"** %2, align 8, !llfi_index !566
  %3 = load %"struct.std::_Vector_base<std::pair<double, std::pair<double, double>>, std::allocator<std::pair<double, std::pair<double, double>>>>::_Vector_impl"*, %"struct.std::_Vector_base<std::pair<double, std::pair<double, double>>, std::allocator<std::pair<double, std::pair<double, double>>>>::_Vector_impl"** %2, align 8, !llfi_index !567
  %4 = bitcast %"struct.std::_Vector_base<std::pair<double, std::pair<double, double>>, std::allocator<std::pair<double, std::pair<double, double>>>>::_Vector_impl"* %3 to %"class.std::ios_base::Init"*, !llfi_index !568
  call void @_ZNSaISt4pairIdS_IddEEED2Ev(%"class.std::ios_base::Init"* nonnull align 1 dereferenceable(1) %4) #2, !llfi_index !569
  ret void, !llfi_index !570
}

; Function Attrs: mustprogress noinline uwtable
define linkonce_odr dso_local void @_ZNSt16allocator_traitsISaISt4pairIdS0_IddEEEE10deallocateERS3_PS2_m(%"class.std::ios_base::Init"* nonnull align 1 dereferenceable(1) %0, %"struct.std::pair"* %1, i64 %2) #5 comdat align 2 {
  %4 = alloca %"class.std::ios_base::Init"*, align 8, !llfi_index !571
  %5 = alloca %"struct.std::pair"*, align 8, !llfi_index !572
  %6 = alloca i64, align 8, !llfi_index !573
  store %"class.std::ios_base::Init"* %0, %"class.std::ios_base::Init"** %4, align 8, !llfi_index !574
  store %"struct.std::pair"* %1, %"struct.std::pair"** %5, align 8, !llfi_index !575
  store i64 %2, i64* %6, align 8, !llfi_index !576
  %7 = load %"class.std::ios_base::Init"*, %"class.std::ios_base::Init"** %4, align 8, !llfi_index !577
  %8 = bitcast %"class.std::ios_base::Init"* %7 to %"class.std::ios_base::Init"*, !llfi_index !578
  %9 = load %"struct.std::pair"*, %"struct.std::pair"** %5, align 8, !llfi_index !579
  %10 = load i64, i64* %6, align 8, !llfi_index !580
  call void @_ZN9__gnu_cxx13new_allocatorISt4pairIdS1_IddEEE10deallocateEPS3_m(%"class.std::ios_base::Init"* nonnull align 1 dereferenceable(1) %8, %"struct.std::pair"* %9, i64 %10), !llfi_index !581
  ret void, !llfi_index !582
}

; Function Attrs: mustprogress noinline nounwind uwtable
define linkonce_odr dso_local void @_ZN9__gnu_cxx13new_allocatorISt4pairIdS1_IddEEE10deallocateEPS3_m(%"class.std::ios_base::Init"* nonnull align 1 dereferenceable(1) %0, %"struct.std::pair"* %1, i64 %2) #4 comdat align 2 {
  %4 = alloca %"class.std::ios_base::Init"*, align 8, !llfi_index !583
  %5 = alloca %"struct.std::pair"*, align 8, !llfi_index !584
  %6 = alloca i64, align 8, !llfi_index !585
  store %"class.std::ios_base::Init"* %0, %"class.std::ios_base::Init"** %4, align 8, !llfi_index !586
  store %"struct.std::pair"* %1, %"struct.std::pair"** %5, align 8, !llfi_index !587
  store i64 %2, i64* %6, align 8, !llfi_index !588
  %7 = load %"class.std::ios_base::Init"*, %"class.std::ios_base::Init"** %4, align 8, !llfi_index !589
  %8 = load %"struct.std::pair"*, %"struct.std::pair"** %5, align 8, !llfi_index !590
  %9 = bitcast %"struct.std::pair"* %8 to i8*, !llfi_index !591
  call void @_ZdlPv(i8* %9) #2, !llfi_index !592
  ret void, !llfi_index !593
}

; Function Attrs: nobuiltin nounwind
declare dso_local void @_ZdlPv(i8*) #8

; Function Attrs: mustprogress noinline uwtable
define linkonce_odr dso_local void @_ZSt8_DestroyIPSt4pairIdS0_IddEEEvT_S4_(%"struct.std::pair"* %0, %"struct.std::pair"* %1) #5 comdat {
  %3 = alloca %"struct.std::pair"*, align 8, !llfi_index !594
  %4 = alloca %"struct.std::pair"*, align 8, !llfi_index !595
  store %"struct.std::pair"* %0, %"struct.std::pair"** %3, align 8, !llfi_index !596
  store %"struct.std::pair"* %1, %"struct.std::pair"** %4, align 8, !llfi_index !597
  %5 = load %"struct.std::pair"*, %"struct.std::pair"** %3, align 8, !llfi_index !598
  %6 = load %"struct.std::pair"*, %"struct.std::pair"** %4, align 8, !llfi_index !599
  call void @_ZNSt12_Destroy_auxILb1EE9__destroyIPSt4pairIdS2_IddEEEEvT_S6_(%"struct.std::pair"* %5, %"struct.std::pair"* %6), !llfi_index !600
  ret void, !llfi_index !601
}

; Function Attrs: mustprogress noinline nounwind uwtable
define linkonce_odr dso_local void @_ZNSt12_Destroy_auxILb1EE9__destroyIPSt4pairIdS2_IddEEEEvT_S6_(%"struct.std::pair"* %0, %"struct.std::pair"* %1) #4 comdat align 2 {
  %3 = alloca %"struct.std::pair"*, align 8, !llfi_index !602
  %4 = alloca %"struct.std::pair"*, align 8, !llfi_index !603
  store %"struct.std::pair"* %0, %"struct.std::pair"** %3, align 8, !llfi_index !604
  store %"struct.std::pair"* %1, %"struct.std::pair"** %4, align 8, !llfi_index !605
  ret void, !llfi_index !606
}

; Function Attrs: argmemonly nofree nounwind willreturn
declare void @llvm.memcpy.p0i8.p0i8.i64(i8* noalias nocapture writeonly, i8* noalias nocapture readonly, i64, i1 immarg) #9

; Function Attrs: mustprogress noinline nounwind uwtable
define linkonce_odr dso_local void @_ZN9__gnu_cxx5__ops16__iter_less_iterEv() #4 comdat {
  ret void, !llfi_index !607
}

; Function Attrs: mustprogress noinline uwtable
define linkonce_odr dso_local void @_ZSt6__sortIN9__gnu_cxx17__normal_iteratorIPSt4pairIdS2_IddEESt6vectorIS4_SaIS4_EEEENS0_5__ops15_Iter_less_iterEEvT_SC_T0_(%"struct.std::pair"* %0, %"struct.std::pair"* %1) #5 comdat {
  %3 = alloca %"class.__gnu_cxx::__normal_iterator", align 8, !llfi_index !608
  %4 = alloca %"class.__gnu_cxx::__normal_iterator", align 8, !llfi_index !609
  %5 = alloca %"class.std::ios_base::Init", align 1, !llfi_index !610
  %6 = alloca %"class.__gnu_cxx::__normal_iterator", align 8, !llfi_index !611
  %7 = alloca %"class.__gnu_cxx::__normal_iterator", align 8, !llfi_index !612
  %8 = alloca %"class.std::ios_base::Init", align 1, !llfi_index !613
  %9 = alloca %"class.__gnu_cxx::__normal_iterator", align 8, !llfi_index !614
  %10 = alloca %"class.__gnu_cxx::__normal_iterator", align 8, !llfi_index !615
  %11 = alloca %"class.std::ios_base::Init", align 1, !llfi_index !616
  %12 = getelementptr inbounds %"class.__gnu_cxx::__normal_iterator", %"class.__gnu_cxx::__normal_iterator"* %3, i32 0, i32 0, !llfi_index !617
  store %"struct.std::pair"* %0, %"struct.std::pair"** %12, align 8, !llfi_index !618
  %13 = getelementptr inbounds %"class.__gnu_cxx::__normal_iterator", %"class.__gnu_cxx::__normal_iterator"* %4, i32 0, i32 0, !llfi_index !619
  store %"struct.std::pair"* %1, %"struct.std::pair"** %13, align 8, !llfi_index !620
  %14 = call zeroext i1 @_ZN9__gnu_cxxneIPSt4pairIdS1_IddEESt6vectorIS3_SaIS3_EEEEbRKNS_17__normal_iteratorIT_T0_EESD_(%"class.__gnu_cxx::__normal_iterator"* nonnull align 8 dereferenceable(8) %3, %"class.__gnu_cxx::__normal_iterator"* nonnull align 8 dereferenceable(8) %4) #2, !llfi_index !621
  br i1 %14, label %15, label %35, !llfi_index !622

15:                                               ; preds = %2
  %16 = bitcast %"class.__gnu_cxx::__normal_iterator"* %6 to i8*, !llfi_index !623
  %17 = bitcast %"class.__gnu_cxx::__normal_iterator"* %3 to i8*, !llfi_index !624
  call void @llvm.memcpy.p0i8.p0i8.i64(i8* align 8 %16, i8* align 8 %17, i64 8, i1 false), !llfi_index !625
  %18 = bitcast %"class.__gnu_cxx::__normal_iterator"* %7 to i8*, !llfi_index !626
  %19 = bitcast %"class.__gnu_cxx::__normal_iterator"* %4 to i8*, !llfi_index !627
  call void @llvm.memcpy.p0i8.p0i8.i64(i8* align 8 %18, i8* align 8 %19, i64 8, i1 false), !llfi_index !628
  %20 = call i64 @_ZN9__gnu_cxxmiIPSt4pairIdS1_IddEESt6vectorIS3_SaIS3_EEEENS_17__normal_iteratorIT_T0_E15difference_typeERKSB_SE_(%"class.__gnu_cxx::__normal_iterator"* nonnull align 8 dereferenceable(8) %4, %"class.__gnu_cxx::__normal_iterator"* nonnull align 8 dereferenceable(8) %3) #2, !llfi_index !629
  %21 = call i64 @_ZSt4__lgl(i64 %20), !llfi_index !630
  %22 = mul nsw i64 %21, 2, !llfi_index !631
  %23 = getelementptr inbounds %"class.__gnu_cxx::__normal_iterator", %"class.__gnu_cxx::__normal_iterator"* %6, i32 0, i32 0, !llfi_index !632
  %24 = load %"struct.std::pair"*, %"struct.std::pair"** %23, align 8, !llfi_index !633
  %25 = getelementptr inbounds %"class.__gnu_cxx::__normal_iterator", %"class.__gnu_cxx::__normal_iterator"* %7, i32 0, i32 0, !llfi_index !634
  %26 = load %"struct.std::pair"*, %"struct.std::pair"** %25, align 8, !llfi_index !635
  call void @_ZSt16__introsort_loopIN9__gnu_cxx17__normal_iteratorIPSt4pairIdS2_IddEESt6vectorIS4_SaIS4_EEEElNS0_5__ops15_Iter_less_iterEEvT_SC_T0_T1_(%"struct.std::pair"* %24, %"struct.std::pair"* %26, i64 %22), !llfi_index !636
  %27 = bitcast %"class.__gnu_cxx::__normal_iterator"* %9 to i8*, !llfi_index !637
  %28 = bitcast %"class.__gnu_cxx::__normal_iterator"* %3 to i8*, !llfi_index !638
  call void @llvm.memcpy.p0i8.p0i8.i64(i8* align 8 %27, i8* align 8 %28, i64 8, i1 false), !llfi_index !639
  %29 = bitcast %"class.__gnu_cxx::__normal_iterator"* %10 to i8*, !llfi_index !640
  %30 = bitcast %"class.__gnu_cxx::__normal_iterator"* %4 to i8*, !llfi_index !641
  call void @llvm.memcpy.p0i8.p0i8.i64(i8* align 8 %29, i8* align 8 %30, i64 8, i1 false), !llfi_index !642
  %31 = getelementptr inbounds %"class.__gnu_cxx::__normal_iterator", %"class.__gnu_cxx::__normal_iterator"* %9, i32 0, i32 0, !llfi_index !643
  %32 = load %"struct.std::pair"*, %"struct.std::pair"** %31, align 8, !llfi_index !644
  %33 = getelementptr inbounds %"class.__gnu_cxx::__normal_iterator", %"class.__gnu_cxx::__normal_iterator"* %10, i32 0, i32 0, !llfi_index !645
  %34 = load %"struct.std::pair"*, %"struct.std::pair"** %33, align 8, !llfi_index !646
  call void @_ZSt22__final_insertion_sortIN9__gnu_cxx17__normal_iteratorIPSt4pairIdS2_IddEESt6vectorIS4_SaIS4_EEEENS0_5__ops15_Iter_less_iterEEvT_SC_T0_(%"struct.std::pair"* %32, %"struct.std::pair"* %34), !llfi_index !647
  br label %35, !llfi_index !648

35:                                               ; preds = %15, %2
  ret void, !llfi_index !649
}

; Function Attrs: mustprogress noinline nounwind uwtable
define linkonce_odr dso_local zeroext i1 @_ZN9__gnu_cxxneIPSt4pairIdS1_IddEESt6vectorIS3_SaIS3_EEEEbRKNS_17__normal_iteratorIT_T0_EESD_(%"class.__gnu_cxx::__normal_iterator"* nonnull align 8 dereferenceable(8) %0, %"class.__gnu_cxx::__normal_iterator"* nonnull align 8 dereferenceable(8) %1) #4 comdat {
  %3 = alloca %"class.__gnu_cxx::__normal_iterator"*, align 8, !llfi_index !650
  %4 = alloca %"class.__gnu_cxx::__normal_iterator"*, align 8, !llfi_index !651
  store %"class.__gnu_cxx::__normal_iterator"* %0, %"class.__gnu_cxx::__normal_iterator"** %3, align 8, !llfi_index !652
  store %"class.__gnu_cxx::__normal_iterator"* %1, %"class.__gnu_cxx::__normal_iterator"** %4, align 8, !llfi_index !653
  %5 = load %"class.__gnu_cxx::__normal_iterator"*, %"class.__gnu_cxx::__normal_iterator"** %3, align 8, !llfi_index !654
  %6 = call nonnull align 8 dereferenceable(8) %"struct.std::pair"** @_ZNK9__gnu_cxx17__normal_iteratorIPSt4pairIdS1_IddEESt6vectorIS3_SaIS3_EEE4baseEv(%"class.__gnu_cxx::__normal_iterator"* nonnull align 8 dereferenceable(8) %5) #2, !llfi_index !655
  %7 = load %"struct.std::pair"*, %"struct.std::pair"** %6, align 8, !llfi_index !656
  %8 = load %"class.__gnu_cxx::__normal_iterator"*, %"class.__gnu_cxx::__normal_iterator"** %4, align 8, !llfi_index !657
  %9 = call nonnull align 8 dereferenceable(8) %"struct.std::pair"** @_ZNK9__gnu_cxx17__normal_iteratorIPSt4pairIdS1_IddEESt6vectorIS3_SaIS3_EEE4baseEv(%"class.__gnu_cxx::__normal_iterator"* nonnull align 8 dereferenceable(8) %8) #2, !llfi_index !658
  %10 = load %"struct.std::pair"*, %"struct.std::pair"** %9, align 8, !llfi_index !659
  %11 = icmp ne %"struct.std::pair"* %7, %10, !llfi_index !660
  ret i1 %11, !llfi_index !661
}

; Function Attrs: mustprogress noinline nounwind uwtable
define linkonce_odr dso_local i64 @_ZN9__gnu_cxxmiIPSt4pairIdS1_IddEESt6vectorIS3_SaIS3_EEEENS_17__normal_iteratorIT_T0_E15difference_typeERKSB_SE_(%"class.__gnu_cxx::__normal_iterator"* nonnull align 8 dereferenceable(8) %0, %"class.__gnu_cxx::__normal_iterator"* nonnull align 8 dereferenceable(8) %1) #4 comdat {
  %3 = alloca %"class.__gnu_cxx::__normal_iterator"*, align 8, !llfi_index !662
  %4 = alloca %"class.__gnu_cxx::__normal_iterator"*, align 8, !llfi_index !663
  store %"class.__gnu_cxx::__normal_iterator"* %0, %"class.__gnu_cxx::__normal_iterator"** %3, align 8, !llfi_index !664
  store %"class.__gnu_cxx::__normal_iterator"* %1, %"class.__gnu_cxx::__normal_iterator"** %4, align 8, !llfi_index !665
  %5 = load %"class.__gnu_cxx::__normal_iterator"*, %"class.__gnu_cxx::__normal_iterator"** %3, align 8, !llfi_index !666
  %6 = call nonnull align 8 dereferenceable(8) %"struct.std::pair"** @_ZNK9__gnu_cxx17__normal_iteratorIPSt4pairIdS1_IddEESt6vectorIS3_SaIS3_EEE4baseEv(%"class.__gnu_cxx::__normal_iterator"* nonnull align 8 dereferenceable(8) %5) #2, !llfi_index !667
  %7 = load %"struct.std::pair"*, %"struct.std::pair"** %6, align 8, !llfi_index !668
  %8 = load %"class.__gnu_cxx::__normal_iterator"*, %"class.__gnu_cxx::__normal_iterator"** %4, align 8, !llfi_index !669
  %9 = call nonnull align 8 dereferenceable(8) %"struct.std::pair"** @_ZNK9__gnu_cxx17__normal_iteratorIPSt4pairIdS1_IddEESt6vectorIS3_SaIS3_EEE4baseEv(%"class.__gnu_cxx::__normal_iterator"* nonnull align 8 dereferenceable(8) %8) #2, !llfi_index !670
  %10 = load %"struct.std::pair"*, %"struct.std::pair"** %9, align 8, !llfi_index !671
  %11 = ptrtoint %"struct.std::pair"* %7 to i64, !llfi_index !672
  %12 = ptrtoint %"struct.std::pair"* %10 to i64, !llfi_index !673
  %13 = sub i64 %11, %12, !llfi_index !674
  %14 = sdiv exact i64 %13, 24, !llfi_index !675
  ret i64 %14, !llfi_index !676
}

; Function Attrs: mustprogress noinline nounwind uwtable
define linkonce_odr dso_local i64 @_ZSt4__lgl(i64 %0) #4 comdat {
  %2 = alloca i64, align 8, !llfi_index !677
  store i64 %0, i64* %2, align 8, !llfi_index !678
  %3 = load i64, i64* %2, align 8, !llfi_index !679
  %4 = call i64 @llvm.ctlz.i64(i64 %3, i1 true), !llfi_index !680
  %5 = trunc i64 %4 to i32, !llfi_index !681
  %6 = sub nsw i32 63, %5, !llfi_index !682
  %7 = sext i32 %6 to i64, !llfi_index !683
  ret i64 %7, !llfi_index !684
}

; Function Attrs: mustprogress noinline uwtable
define linkonce_odr dso_local void @_ZSt16__introsort_loopIN9__gnu_cxx17__normal_iteratorIPSt4pairIdS2_IddEESt6vectorIS4_SaIS4_EEEElNS0_5__ops15_Iter_less_iterEEvT_SC_T0_T1_(%"struct.std::pair"* %0, %"struct.std::pair"* %1, i64 %2) #5 comdat {
  %4 = alloca %"class.__gnu_cxx::__normal_iterator", align 8, !llfi_index !685
  %5 = alloca %"class.__gnu_cxx::__normal_iterator", align 8, !llfi_index !686
  %6 = alloca %"class.std::ios_base::Init", align 1, !llfi_index !687
  %7 = alloca i64, align 8, !llfi_index !688
  %8 = alloca %"class.__gnu_cxx::__normal_iterator", align 8, !llfi_index !689
  %9 = alloca %"class.__gnu_cxx::__normal_iterator", align 8, !llfi_index !690
  %10 = alloca %"class.__gnu_cxx::__normal_iterator", align 8, !llfi_index !691
  %11 = alloca %"class.std::ios_base::Init", align 1, !llfi_index !692
  %12 = alloca %"class.__gnu_cxx::__normal_iterator", align 8, !llfi_index !693
  %13 = alloca %"class.__gnu_cxx::__normal_iterator", align 8, !llfi_index !694
  %14 = alloca %"class.__gnu_cxx::__normal_iterator", align 8, !llfi_index !695
  %15 = alloca %"class.std::ios_base::Init", align 1, !llfi_index !696
  %16 = alloca %"class.__gnu_cxx::__normal_iterator", align 8, !llfi_index !697
  %17 = alloca %"class.__gnu_cxx::__normal_iterator", align 8, !llfi_index !698
  %18 = alloca %"class.std::ios_base::Init", align 1, !llfi_index !699
  %19 = getelementptr inbounds %"class.__gnu_cxx::__normal_iterator", %"class.__gnu_cxx::__normal_iterator"* %4, i32 0, i32 0, !llfi_index !700
  store %"struct.std::pair"* %0, %"struct.std::pair"** %19, align 8, !llfi_index !701
  %20 = getelementptr inbounds %"class.__gnu_cxx::__normal_iterator", %"class.__gnu_cxx::__normal_iterator"* %5, i32 0, i32 0, !llfi_index !702
  store %"struct.std::pair"* %1, %"struct.std::pair"** %20, align 8, !llfi_index !703
  store i64 %2, i64* %7, align 8, !llfi_index !704
  br label %21, !llfi_index !705

21:                                               ; preds = %40, %3
  %22 = call i64 @_ZN9__gnu_cxxmiIPSt4pairIdS1_IddEESt6vectorIS3_SaIS3_EEEENS_17__normal_iteratorIT_T0_E15difference_typeERKSB_SE_(%"class.__gnu_cxx::__normal_iterator"* nonnull align 8 dereferenceable(8) %5, %"class.__gnu_cxx::__normal_iterator"* nonnull align 8 dereferenceable(8) %4) #2, !llfi_index !706
  %23 = icmp sgt i64 %22, 16, !llfi_index !707
  br i1 %23, label %24, label %64, !llfi_index !708

24:                                               ; preds = %21
  %25 = load i64, i64* %7, align 8, !llfi_index !709
  %26 = icmp eq i64 %25, 0, !llfi_index !710
  br i1 %26, label %27, label %40, !llfi_index !711

27:                                               ; preds = %24
  %28 = bitcast %"class.__gnu_cxx::__normal_iterator"* %8 to i8*, !llfi_index !712
  %29 = bitcast %"class.__gnu_cxx::__normal_iterator"* %4 to i8*, !llfi_index !713
  call void @llvm.memcpy.p0i8.p0i8.i64(i8* align 8 %28, i8* align 8 %29, i64 8, i1 false), !llfi_index !714
  %30 = bitcast %"class.__gnu_cxx::__normal_iterator"* %9 to i8*, !llfi_index !715
  %31 = bitcast %"class.__gnu_cxx::__normal_iterator"* %5 to i8*, !llfi_index !716
  call void @llvm.memcpy.p0i8.p0i8.i64(i8* align 8 %30, i8* align 8 %31, i64 8, i1 false), !llfi_index !717
  %32 = bitcast %"class.__gnu_cxx::__normal_iterator"* %10 to i8*, !llfi_index !718
  %33 = bitcast %"class.__gnu_cxx::__normal_iterator"* %5 to i8*, !llfi_index !719
  call void @llvm.memcpy.p0i8.p0i8.i64(i8* align 8 %32, i8* align 8 %33, i64 8, i1 false), !llfi_index !720
  %34 = getelementptr inbounds %"class.__gnu_cxx::__normal_iterator", %"class.__gnu_cxx::__normal_iterator"* %8, i32 0, i32 0, !llfi_index !721
  %35 = load %"struct.std::pair"*, %"struct.std::pair"** %34, align 8, !llfi_index !722
  %36 = getelementptr inbounds %"class.__gnu_cxx::__normal_iterator", %"class.__gnu_cxx::__normal_iterator"* %9, i32 0, i32 0, !llfi_index !723
  %37 = load %"struct.std::pair"*, %"struct.std::pair"** %36, align 8, !llfi_index !724
  %38 = getelementptr inbounds %"class.__gnu_cxx::__normal_iterator", %"class.__gnu_cxx::__normal_iterator"* %10, i32 0, i32 0, !llfi_index !725
  %39 = load %"struct.std::pair"*, %"struct.std::pair"** %38, align 8, !llfi_index !726
  call void @_ZSt14__partial_sortIN9__gnu_cxx17__normal_iteratorIPSt4pairIdS2_IddEESt6vectorIS4_SaIS4_EEEENS0_5__ops15_Iter_less_iterEEvT_SC_SC_T0_(%"struct.std::pair"* %35, %"struct.std::pair"* %37, %"struct.std::pair"* %39), !llfi_index !727
  br label %64, !llfi_index !728

40:                                               ; preds = %24
  %41 = load i64, i64* %7, align 8, !llfi_index !729
  %42 = add nsw i64 %41, -1, !llfi_index !730
  store i64 %42, i64* %7, align 8, !llfi_index !731
  %43 = bitcast %"class.__gnu_cxx::__normal_iterator"* %13 to i8*, !llfi_index !732
  %44 = bitcast %"class.__gnu_cxx::__normal_iterator"* %4 to i8*, !llfi_index !733
  call void @llvm.memcpy.p0i8.p0i8.i64(i8* align 8 %43, i8* align 8 %44, i64 8, i1 false), !llfi_index !734
  %45 = bitcast %"class.__gnu_cxx::__normal_iterator"* %14 to i8*, !llfi_index !735
  %46 = bitcast %"class.__gnu_cxx::__normal_iterator"* %5 to i8*, !llfi_index !736
  call void @llvm.memcpy.p0i8.p0i8.i64(i8* align 8 %45, i8* align 8 %46, i64 8, i1 false), !llfi_index !737
  %47 = getelementptr inbounds %"class.__gnu_cxx::__normal_iterator", %"class.__gnu_cxx::__normal_iterator"* %13, i32 0, i32 0, !llfi_index !738
  %48 = load %"struct.std::pair"*, %"struct.std::pair"** %47, align 8, !llfi_index !739
  %49 = getelementptr inbounds %"class.__gnu_cxx::__normal_iterator", %"class.__gnu_cxx::__normal_iterator"* %14, i32 0, i32 0, !llfi_index !740
  %50 = load %"struct.std::pair"*, %"struct.std::pair"** %49, align 8, !llfi_index !741
  %51 = call %"struct.std::pair"* @_ZSt27__unguarded_partition_pivotIN9__gnu_cxx17__normal_iteratorIPSt4pairIdS2_IddEESt6vectorIS4_SaIS4_EEEENS0_5__ops15_Iter_less_iterEET_SC_SC_T0_(%"struct.std::pair"* %48, %"struct.std::pair"* %50), !llfi_index !742
  %52 = getelementptr inbounds %"class.__gnu_cxx::__normal_iterator", %"class.__gnu_cxx::__normal_iterator"* %12, i32 0, i32 0, !llfi_index !743
  store %"struct.std::pair"* %51, %"struct.std::pair"** %52, align 8, !llfi_index !744
  %53 = bitcast %"class.__gnu_cxx::__normal_iterator"* %16 to i8*, !llfi_index !745
  %54 = bitcast %"class.__gnu_cxx::__normal_iterator"* %12 to i8*, !llfi_index !746
  call void @llvm.memcpy.p0i8.p0i8.i64(i8* align 8 %53, i8* align 8 %54, i64 8, i1 false), !llfi_index !747
  %55 = bitcast %"class.__gnu_cxx::__normal_iterator"* %17 to i8*, !llfi_index !748
  %56 = bitcast %"class.__gnu_cxx::__normal_iterator"* %5 to i8*, !llfi_index !749
  call void @llvm.memcpy.p0i8.p0i8.i64(i8* align 8 %55, i8* align 8 %56, i64 8, i1 false), !llfi_index !750
  %57 = load i64, i64* %7, align 8, !llfi_index !751
  %58 = getelementptr inbounds %"class.__gnu_cxx::__normal_iterator", %"class.__gnu_cxx::__normal_iterator"* %16, i32 0, i32 0, !llfi_index !752
  %59 = load %"struct.std::pair"*, %"struct.std::pair"** %58, align 8, !llfi_index !753
  %60 = getelementptr inbounds %"class.__gnu_cxx::__normal_iterator", %"class.__gnu_cxx::__normal_iterator"* %17, i32 0, i32 0, !llfi_index !754
  %61 = load %"struct.std::pair"*, %"struct.std::pair"** %60, align 8, !llfi_index !755
  call void @_ZSt16__introsort_loopIN9__gnu_cxx17__normal_iteratorIPSt4pairIdS2_IddEESt6vectorIS4_SaIS4_EEEElNS0_5__ops15_Iter_less_iterEEvT_SC_T0_T1_(%"struct.std::pair"* %59, %"struct.std::pair"* %61, i64 %57), !llfi_index !756
  %62 = bitcast %"class.__gnu_cxx::__normal_iterator"* %5 to i8*, !llfi_index !757
  %63 = bitcast %"class.__gnu_cxx::__normal_iterator"* %12 to i8*, !llfi_index !758
  call void @llvm.memcpy.p0i8.p0i8.i64(i8* align 8 %62, i8* align 8 %63, i64 8, i1 false), !llfi_index !759
  br label %21, !llvm.loop !760, !llfi_index !761

64:                                               ; preds = %27, %21
  ret void, !llfi_index !762
}

; Function Attrs: mustprogress noinline uwtable
define linkonce_odr dso_local void @_ZSt22__final_insertion_sortIN9__gnu_cxx17__normal_iteratorIPSt4pairIdS2_IddEESt6vectorIS4_SaIS4_EEEENS0_5__ops15_Iter_less_iterEEvT_SC_T0_(%"struct.std::pair"* %0, %"struct.std::pair"* %1) #5 comdat {
  %3 = alloca %"class.__gnu_cxx::__normal_iterator", align 8, !llfi_index !763
  %4 = alloca %"class.__gnu_cxx::__normal_iterator", align 8, !llfi_index !764
  %5 = alloca %"class.std::ios_base::Init", align 1, !llfi_index !765
  %6 = alloca %"class.__gnu_cxx::__normal_iterator", align 8, !llfi_index !766
  %7 = alloca %"class.__gnu_cxx::__normal_iterator", align 8, !llfi_index !767
  %8 = alloca %"class.std::ios_base::Init", align 1, !llfi_index !768
  %9 = alloca %"class.__gnu_cxx::__normal_iterator", align 8, !llfi_index !769
  %10 = alloca %"class.__gnu_cxx::__normal_iterator", align 8, !llfi_index !770
  %11 = alloca %"class.std::ios_base::Init", align 1, !llfi_index !771
  %12 = alloca %"class.__gnu_cxx::__normal_iterator", align 8, !llfi_index !772
  %13 = alloca %"class.__gnu_cxx::__normal_iterator", align 8, !llfi_index !773
  %14 = alloca %"class.std::ios_base::Init", align 1, !llfi_index !774
  %15 = getelementptr inbounds %"class.__gnu_cxx::__normal_iterator", %"class.__gnu_cxx::__normal_iterator"* %3, i32 0, i32 0, !llfi_index !775
  store %"struct.std::pair"* %0, %"struct.std::pair"** %15, align 8, !llfi_index !776
  %16 = getelementptr inbounds %"class.__gnu_cxx::__normal_iterator", %"class.__gnu_cxx::__normal_iterator"* %4, i32 0, i32 0, !llfi_index !777
  store %"struct.std::pair"* %1, %"struct.std::pair"** %16, align 8, !llfi_index !778
  %17 = call i64 @_ZN9__gnu_cxxmiIPSt4pairIdS1_IddEESt6vectorIS3_SaIS3_EEEENS_17__normal_iteratorIT_T0_E15difference_typeERKSB_SE_(%"class.__gnu_cxx::__normal_iterator"* nonnull align 8 dereferenceable(8) %4, %"class.__gnu_cxx::__normal_iterator"* nonnull align 8 dereferenceable(8) %3) #2, !llfi_index !779
  %18 = icmp sgt i64 %17, 16, !llfi_index !780
  br i1 %18, label %19, label %36, !llfi_index !781

19:                                               ; preds = %2
  %20 = bitcast %"class.__gnu_cxx::__normal_iterator"* %6 to i8*, !llfi_index !782
  %21 = bitcast %"class.__gnu_cxx::__normal_iterator"* %3 to i8*, !llfi_index !783
  call void @llvm.memcpy.p0i8.p0i8.i64(i8* align 8 %20, i8* align 8 %21, i64 8, i1 false), !llfi_index !784
  %22 = call %"struct.std::pair"* @_ZNK9__gnu_cxx17__normal_iteratorIPSt4pairIdS1_IddEESt6vectorIS3_SaIS3_EEEplEl(%"class.__gnu_cxx::__normal_iterator"* nonnull align 8 dereferenceable(8) %3, i64 16) #2, !llfi_index !785
  %23 = getelementptr inbounds %"class.__gnu_cxx::__normal_iterator", %"class.__gnu_cxx::__normal_iterator"* %7, i32 0, i32 0, !llfi_index !786
  store %"struct.std::pair"* %22, %"struct.std::pair"** %23, align 8, !llfi_index !787
  %24 = getelementptr inbounds %"class.__gnu_cxx::__normal_iterator", %"class.__gnu_cxx::__normal_iterator"* %6, i32 0, i32 0, !llfi_index !788
  %25 = load %"struct.std::pair"*, %"struct.std::pair"** %24, align 8, !llfi_index !789
  %26 = getelementptr inbounds %"class.__gnu_cxx::__normal_iterator", %"class.__gnu_cxx::__normal_iterator"* %7, i32 0, i32 0, !llfi_index !790
  %27 = load %"struct.std::pair"*, %"struct.std::pair"** %26, align 8, !llfi_index !791
  call void @_ZSt16__insertion_sortIN9__gnu_cxx17__normal_iteratorIPSt4pairIdS2_IddEESt6vectorIS4_SaIS4_EEEENS0_5__ops15_Iter_less_iterEEvT_SC_T0_(%"struct.std::pair"* %25, %"struct.std::pair"* %27), !llfi_index !792
  %28 = call %"struct.std::pair"* @_ZNK9__gnu_cxx17__normal_iteratorIPSt4pairIdS1_IddEESt6vectorIS3_SaIS3_EEEplEl(%"class.__gnu_cxx::__normal_iterator"* nonnull align 8 dereferenceable(8) %3, i64 16) #2, !llfi_index !793
  %29 = getelementptr inbounds %"class.__gnu_cxx::__normal_iterator", %"class.__gnu_cxx::__normal_iterator"* %9, i32 0, i32 0, !llfi_index !794
  store %"struct.std::pair"* %28, %"struct.std::pair"** %29, align 8, !llfi_index !795
  %30 = bitcast %"class.__gnu_cxx::__normal_iterator"* %10 to i8*, !llfi_index !796
  %31 = bitcast %"class.__gnu_cxx::__normal_iterator"* %4 to i8*, !llfi_index !797
  call void @llvm.memcpy.p0i8.p0i8.i64(i8* align 8 %30, i8* align 8 %31, i64 8, i1 false), !llfi_index !798
  %32 = getelementptr inbounds %"class.__gnu_cxx::__normal_iterator", %"class.__gnu_cxx::__normal_iterator"* %9, i32 0, i32 0, !llfi_index !799
  %33 = load %"struct.std::pair"*, %"struct.std::pair"** %32, align 8, !llfi_index !800
  %34 = getelementptr inbounds %"class.__gnu_cxx::__normal_iterator", %"class.__gnu_cxx::__normal_iterator"* %10, i32 0, i32 0, !llfi_index !801
  %35 = load %"struct.std::pair"*, %"struct.std::pair"** %34, align 8, !llfi_index !802
  call void @_ZSt26__unguarded_insertion_sortIN9__gnu_cxx17__normal_iteratorIPSt4pairIdS2_IddEESt6vectorIS4_SaIS4_EEEENS0_5__ops15_Iter_less_iterEEvT_SC_T0_(%"struct.std::pair"* %33, %"struct.std::pair"* %35), !llfi_index !803
  br label %45, !llfi_index !804

36:                                               ; preds = %2
  %37 = bitcast %"class.__gnu_cxx::__normal_iterator"* %12 to i8*, !llfi_index !805
  %38 = bitcast %"class.__gnu_cxx::__normal_iterator"* %3 to i8*, !llfi_index !806
  call void @llvm.memcpy.p0i8.p0i8.i64(i8* align 8 %37, i8* align 8 %38, i64 8, i1 false), !llfi_index !807
  %39 = bitcast %"class.__gnu_cxx::__normal_iterator"* %13 to i8*, !llfi_index !808
  %40 = bitcast %"class.__gnu_cxx::__normal_iterator"* %4 to i8*, !llfi_index !809
  call void @llvm.memcpy.p0i8.p0i8.i64(i8* align 8 %39, i8* align 8 %40, i64 8, i1 false), !llfi_index !810
  %41 = getelementptr inbounds %"class.__gnu_cxx::__normal_iterator", %"class.__gnu_cxx::__normal_iterator"* %12, i32 0, i32 0, !llfi_index !811
  %42 = load %"struct.std::pair"*, %"struct.std::pair"** %41, align 8, !llfi_index !812
  %43 = getelementptr inbounds %"class.__gnu_cxx::__normal_iterator", %"class.__gnu_cxx::__normal_iterator"* %13, i32 0, i32 0, !llfi_index !813
  %44 = load %"struct.std::pair"*, %"struct.std::pair"** %43, align 8, !llfi_index !814
  call void @_ZSt16__insertion_sortIN9__gnu_cxx17__normal_iteratorIPSt4pairIdS2_IddEESt6vectorIS4_SaIS4_EEEENS0_5__ops15_Iter_less_iterEEvT_SC_T0_(%"struct.std::pair"* %42, %"struct.std::pair"* %44), !llfi_index !815
  br label %45, !llfi_index !816

45:                                               ; preds = %36, %19
  ret void, !llfi_index !817
}

; Function Attrs: mustprogress noinline nounwind uwtable
define linkonce_odr dso_local %"struct.std::pair"* @_ZNK9__gnu_cxx17__normal_iteratorIPSt4pairIdS1_IddEESt6vectorIS3_SaIS3_EEEplEl(%"class.__gnu_cxx::__normal_iterator"* nonnull align 8 dereferenceable(8) %0, i64 %1) #4 comdat align 2 {
  %3 = alloca %"class.__gnu_cxx::__normal_iterator", align 8, !llfi_index !818
  %4 = alloca %"class.__gnu_cxx::__normal_iterator"*, align 8, !llfi_index !819
  %5 = alloca i64, align 8, !llfi_index !820
  %6 = alloca %"struct.std::pair"*, align 8, !llfi_index !821
  store %"class.__gnu_cxx::__normal_iterator"* %0, %"class.__gnu_cxx::__normal_iterator"** %4, align 8, !llfi_index !822
  store i64 %1, i64* %5, align 8, !llfi_index !823
  %7 = load %"class.__gnu_cxx::__normal_iterator"*, %"class.__gnu_cxx::__normal_iterator"** %4, align 8, !llfi_index !824
  %8 = getelementptr inbounds %"class.__gnu_cxx::__normal_iterator", %"class.__gnu_cxx::__normal_iterator"* %7, i32 0, i32 0, !llfi_index !825
  %9 = load %"struct.std::pair"*, %"struct.std::pair"** %8, align 8, !llfi_index !826
  %10 = load i64, i64* %5, align 8, !llfi_index !827
  %11 = getelementptr inbounds %"struct.std::pair", %"struct.std::pair"* %9, i64 %10, !llfi_index !828
  store %"struct.std::pair"* %11, %"struct.std::pair"** %6, align 8, !llfi_index !829
  call void @_ZN9__gnu_cxx17__normal_iteratorIPSt4pairIdS1_IddEESt6vectorIS3_SaIS3_EEEC2ERKS4_(%"class.__gnu_cxx::__normal_iterator"* nonnull align 8 dereferenceable(8) %3, %"struct.std::pair"** nonnull align 8 dereferenceable(8) %6) #2, !llfi_index !830
  %12 = getelementptr inbounds %"class.__gnu_cxx::__normal_iterator", %"class.__gnu_cxx::__normal_iterator"* %3, i32 0, i32 0, !llfi_index !831
  %13 = load %"struct.std::pair"*, %"struct.std::pair"** %12, align 8, !llfi_index !832
  ret %"struct.std::pair"* %13, !llfi_index !833
}

; Function Attrs: mustprogress noinline uwtable
define linkonce_odr dso_local void @_ZSt16__insertion_sortIN9__gnu_cxx17__normal_iteratorIPSt4pairIdS2_IddEESt6vectorIS4_SaIS4_EEEENS0_5__ops15_Iter_less_iterEEvT_SC_T0_(%"struct.std::pair"* %0, %"struct.std::pair"* %1) #5 comdat {
  %3 = alloca %"class.__gnu_cxx::__normal_iterator", align 8, !llfi_index !834
  %4 = alloca %"class.__gnu_cxx::__normal_iterator", align 8, !llfi_index !835
  %5 = alloca %"class.std::ios_base::Init", align 1, !llfi_index !836
  %6 = alloca %"class.__gnu_cxx::__normal_iterator", align 8, !llfi_index !837
  %7 = alloca %"class.__gnu_cxx::__normal_iterator", align 8, !llfi_index !838
  %8 = alloca %"class.__gnu_cxx::__normal_iterator", align 8, !llfi_index !839
  %9 = alloca %"struct.std::pair", align 8, !llfi_index !840
  %10 = alloca %"class.__gnu_cxx::__normal_iterator", align 8, !llfi_index !841
  %11 = alloca %"class.__gnu_cxx::__normal_iterator", align 8, !llfi_index !842
  %12 = alloca %"class.__gnu_cxx::__normal_iterator", align 8, !llfi_index !843
  %13 = alloca %"class.__gnu_cxx::__normal_iterator", align 8, !llfi_index !844
  %14 = alloca %"class.__gnu_cxx::__normal_iterator", align 8, !llfi_index !845
  %15 = alloca %"class.std::ios_base::Init", align 1, !llfi_index !846
  %16 = alloca %"class.std::ios_base::Init", align 1, !llfi_index !847
  %17 = alloca %"class.std::ios_base::Init", align 1, !llfi_index !848
  %18 = getelementptr inbounds %"class.__gnu_cxx::__normal_iterator", %"class.__gnu_cxx::__normal_iterator"* %3, i32 0, i32 0, !llfi_index !849
  store %"struct.std::pair"* %0, %"struct.std::pair"** %18, align 8, !llfi_index !850
  %19 = getelementptr inbounds %"class.__gnu_cxx::__normal_iterator", %"class.__gnu_cxx::__normal_iterator"* %4, i32 0, i32 0, !llfi_index !851
  store %"struct.std::pair"* %1, %"struct.std::pair"** %19, align 8, !llfi_index !852
  %20 = call zeroext i1 @_ZN9__gnu_cxxeqIPSt4pairIdS1_IddEESt6vectorIS3_SaIS3_EEEEbRKNS_17__normal_iteratorIT_T0_EESD_(%"class.__gnu_cxx::__normal_iterator"* nonnull align 8 dereferenceable(8) %3, %"class.__gnu_cxx::__normal_iterator"* nonnull align 8 dereferenceable(8) %4) #2, !llfi_index !853
  br i1 %20, label %21, label %22, !llfi_index !854

21:                                               ; preds = %2
  br label %67, !llfi_index !855

22:                                               ; preds = %2
  %23 = call %"struct.std::pair"* @_ZNK9__gnu_cxx17__normal_iteratorIPSt4pairIdS1_IddEESt6vectorIS3_SaIS3_EEEplEl(%"class.__gnu_cxx::__normal_iterator"* nonnull align 8 dereferenceable(8) %3, i64 1) #2, !llfi_index !856
  %24 = getelementptr inbounds %"class.__gnu_cxx::__normal_iterator", %"class.__gnu_cxx::__normal_iterator"* %6, i32 0, i32 0, !llfi_index !857
  store %"struct.std::pair"* %23, %"struct.std::pair"** %24, align 8, !llfi_index !858
  br label %25, !llfi_index !859

25:                                               ; preds = %65, %22
  %26 = call zeroext i1 @_ZN9__gnu_cxxneIPSt4pairIdS1_IddEESt6vectorIS3_SaIS3_EEEEbRKNS_17__normal_iteratorIT_T0_EESD_(%"class.__gnu_cxx::__normal_iterator"* nonnull align 8 dereferenceable(8) %6, %"class.__gnu_cxx::__normal_iterator"* nonnull align 8 dereferenceable(8) %4) #2, !llfi_index !860
  br i1 %26, label %27, label %67, !llfi_index !861

27:                                               ; preds = %25
  %28 = bitcast %"class.__gnu_cxx::__normal_iterator"* %7 to i8*, !llfi_index !862
  %29 = bitcast %"class.__gnu_cxx::__normal_iterator"* %6 to i8*, !llfi_index !863
  call void @llvm.memcpy.p0i8.p0i8.i64(i8* align 8 %28, i8* align 8 %29, i64 8, i1 false), !llfi_index !864
  %30 = bitcast %"class.__gnu_cxx::__normal_iterator"* %8 to i8*, !llfi_index !865
  %31 = bitcast %"class.__gnu_cxx::__normal_iterator"* %3 to i8*, !llfi_index !866
  call void @llvm.memcpy.p0i8.p0i8.i64(i8* align 8 %30, i8* align 8 %31, i64 8, i1 false), !llfi_index !867
  %32 = getelementptr inbounds %"class.__gnu_cxx::__normal_iterator", %"class.__gnu_cxx::__normal_iterator"* %7, i32 0, i32 0, !llfi_index !868
  %33 = load %"struct.std::pair"*, %"struct.std::pair"** %32, align 8, !llfi_index !869
  %34 = getelementptr inbounds %"class.__gnu_cxx::__normal_iterator", %"class.__gnu_cxx::__normal_iterator"* %8, i32 0, i32 0, !llfi_index !870
  %35 = load %"struct.std::pair"*, %"struct.std::pair"** %34, align 8, !llfi_index !871
  %36 = call zeroext i1 @_ZNK9__gnu_cxx5__ops15_Iter_less_iterclINS_17__normal_iteratorIPSt4pairIdS4_IddEESt6vectorIS6_SaIS6_EEEESB_EEbT_T0_(%"class.std::ios_base::Init"* nonnull align 1 dereferenceable(1) %5, %"struct.std::pair"* %33, %"struct.std::pair"* %35), !llfi_index !872
  br i1 %36, label %37, label %59, !llfi_index !873

37:                                               ; preds = %27
  %38 = call nonnull align 8 dereferenceable(24) %"struct.std::pair"* @_ZNK9__gnu_cxx17__normal_iteratorIPSt4pairIdS1_IddEESt6vectorIS3_SaIS3_EEEdeEv(%"class.__gnu_cxx::__normal_iterator"* nonnull align 8 dereferenceable(8) %6) #2, !llfi_index !874
  %39 = call nonnull align 8 dereferenceable(24) %"struct.std::pair"* @_ZSt4moveIRSt4pairIdS0_IddEEEONSt16remove_referenceIT_E4typeEOS5_(%"struct.std::pair"* nonnull align 8 dereferenceable(24) %38) #2, !llfi_index !875
  %40 = bitcast %"struct.std::pair"* %9 to i8*, !llfi_index !876
  %41 = bitcast %"struct.std::pair"* %39 to i8*, !llfi_index !877
  call void @llvm.memcpy.p0i8.p0i8.i64(i8* align 8 %40, i8* align 8 %41, i64 24, i1 false), !llfi_index !878
  %42 = bitcast %"class.__gnu_cxx::__normal_iterator"* %10 to i8*, !llfi_index !879
  %43 = bitcast %"class.__gnu_cxx::__normal_iterator"* %3 to i8*, !llfi_index !880
  call void @llvm.memcpy.p0i8.p0i8.i64(i8* align 8 %42, i8* align 8 %43, i64 8, i1 false), !llfi_index !881
  %44 = bitcast %"class.__gnu_cxx::__normal_iterator"* %11 to i8*, !llfi_index !882
  %45 = bitcast %"class.__gnu_cxx::__normal_iterator"* %6 to i8*, !llfi_index !883
  call void @llvm.memcpy.p0i8.p0i8.i64(i8* align 8 %44, i8* align 8 %45, i64 8, i1 false), !llfi_index !884
  %46 = call %"struct.std::pair"* @_ZNK9__gnu_cxx17__normal_iteratorIPSt4pairIdS1_IddEESt6vectorIS3_SaIS3_EEEplEl(%"class.__gnu_cxx::__normal_iterator"* nonnull align 8 dereferenceable(8) %6, i64 1) #2, !llfi_index !885
  %47 = getelementptr inbounds %"class.__gnu_cxx::__normal_iterator", %"class.__gnu_cxx::__normal_iterator"* %12, i32 0, i32 0, !llfi_index !886
  store %"struct.std::pair"* %46, %"struct.std::pair"** %47, align 8, !llfi_index !887
  %48 = getelementptr inbounds %"class.__gnu_cxx::__normal_iterator", %"class.__gnu_cxx::__normal_iterator"* %10, i32 0, i32 0, !llfi_index !888
  %49 = load %"struct.std::pair"*, %"struct.std::pair"** %48, align 8, !llfi_index !889
  %50 = getelementptr inbounds %"class.__gnu_cxx::__normal_iterator", %"class.__gnu_cxx::__normal_iterator"* %11, i32 0, i32 0, !llfi_index !890
  %51 = load %"struct.std::pair"*, %"struct.std::pair"** %50, align 8, !llfi_index !891
  %52 = getelementptr inbounds %"class.__gnu_cxx::__normal_iterator", %"class.__gnu_cxx::__normal_iterator"* %12, i32 0, i32 0, !llfi_index !892
  %53 = load %"struct.std::pair"*, %"struct.std::pair"** %52, align 8, !llfi_index !893
  %54 = call %"struct.std::pair"* @_ZSt13move_backwardIN9__gnu_cxx17__normal_iteratorIPSt4pairIdS2_IddEESt6vectorIS4_SaIS4_EEEES9_ET0_T_SB_SA_(%"struct.std::pair"* %49, %"struct.std::pair"* %51, %"struct.std::pair"* %53), !llfi_index !894
  %55 = getelementptr inbounds %"class.__gnu_cxx::__normal_iterator", %"class.__gnu_cxx::__normal_iterator"* %13, i32 0, i32 0, !llfi_index !895
  store %"struct.std::pair"* %54, %"struct.std::pair"** %55, align 8, !llfi_index !896
  %56 = call nonnull align 8 dereferenceable(24) %"struct.std::pair"* @_ZSt4moveIRSt4pairIdS0_IddEEEONSt16remove_referenceIT_E4typeEOS5_(%"struct.std::pair"* nonnull align 8 dereferenceable(24) %9) #2, !llfi_index !897
  %57 = call nonnull align 8 dereferenceable(24) %"struct.std::pair"* @_ZNK9__gnu_cxx17__normal_iteratorIPSt4pairIdS1_IddEESt6vectorIS3_SaIS3_EEEdeEv(%"class.__gnu_cxx::__normal_iterator"* nonnull align 8 dereferenceable(8) %3) #2, !llfi_index !898
  %58 = call nonnull align 8 dereferenceable(24) %"struct.std::pair"* @_ZNSt4pairIdS_IddEEaSEOS1_(%"struct.std::pair"* nonnull align 8 dereferenceable(24) %57, %"struct.std::pair"* nonnull align 8 dereferenceable(24) %56) #2, !llfi_index !899
  br label %64, !llfi_index !900

59:                                               ; preds = %27
  %60 = bitcast %"class.__gnu_cxx::__normal_iterator"* %14 to i8*, !llfi_index !901
  %61 = bitcast %"class.__gnu_cxx::__normal_iterator"* %6 to i8*, !llfi_index !902
  call void @llvm.memcpy.p0i8.p0i8.i64(i8* align 8 %60, i8* align 8 %61, i64 8, i1 false), !llfi_index !903
  call void @_ZN9__gnu_cxx5__ops15__val_comp_iterENS0_15_Iter_less_iterE(), !llfi_index !904
  %62 = getelementptr inbounds %"class.__gnu_cxx::__normal_iterator", %"class.__gnu_cxx::__normal_iterator"* %14, i32 0, i32 0, !llfi_index !905
  %63 = load %"struct.std::pair"*, %"struct.std::pair"** %62, align 8, !llfi_index !906
  call void @_ZSt25__unguarded_linear_insertIN9__gnu_cxx17__normal_iteratorIPSt4pairIdS2_IddEESt6vectorIS4_SaIS4_EEEENS0_5__ops14_Val_less_iterEEvT_T0_(%"struct.std::pair"* %63), !llfi_index !907
  br label %64, !llfi_index !908

64:                                               ; preds = %59, %37
  br label %65, !llfi_index !909

65:                                               ; preds = %64
  %66 = call nonnull align 8 dereferenceable(8) %"class.__gnu_cxx::__normal_iterator"* @_ZN9__gnu_cxx17__normal_iteratorIPSt4pairIdS1_IddEESt6vectorIS3_SaIS3_EEEppEv(%"class.__gnu_cxx::__normal_iterator"* nonnull align 8 dereferenceable(8) %6) #2, !llfi_index !910
  br label %25, !llvm.loop !911, !llfi_index !912

67:                                               ; preds = %25, %21
  ret void, !llfi_index !913
}

; Function Attrs: mustprogress noinline uwtable
define linkonce_odr dso_local void @_ZSt26__unguarded_insertion_sortIN9__gnu_cxx17__normal_iteratorIPSt4pairIdS2_IddEESt6vectorIS4_SaIS4_EEEENS0_5__ops15_Iter_less_iterEEvT_SC_T0_(%"struct.std::pair"* %0, %"struct.std::pair"* %1) #5 comdat {
  %3 = alloca %"class.__gnu_cxx::__normal_iterator", align 8, !llfi_index !914
  %4 = alloca %"class.__gnu_cxx::__normal_iterator", align 8, !llfi_index !915
  %5 = alloca %"class.std::ios_base::Init", align 1, !llfi_index !916
  %6 = alloca %"class.__gnu_cxx::__normal_iterator", align 8, !llfi_index !917
  %7 = alloca %"class.__gnu_cxx::__normal_iterator", align 8, !llfi_index !918
  %8 = alloca %"class.std::ios_base::Init", align 1, !llfi_index !919
  %9 = alloca %"class.std::ios_base::Init", align 1, !llfi_index !920
  %10 = alloca %"class.std::ios_base::Init", align 1, !llfi_index !921
  %11 = getelementptr inbounds %"class.__gnu_cxx::__normal_iterator", %"class.__gnu_cxx::__normal_iterator"* %3, i32 0, i32 0, !llfi_index !922
  store %"struct.std::pair"* %0, %"struct.std::pair"** %11, align 8, !llfi_index !923
  %12 = getelementptr inbounds %"class.__gnu_cxx::__normal_iterator", %"class.__gnu_cxx::__normal_iterator"* %4, i32 0, i32 0, !llfi_index !924
  store %"struct.std::pair"* %1, %"struct.std::pair"** %12, align 8, !llfi_index !925
  %13 = bitcast %"class.__gnu_cxx::__normal_iterator"* %6 to i8*, !llfi_index !926
  %14 = bitcast %"class.__gnu_cxx::__normal_iterator"* %3 to i8*, !llfi_index !927
  call void @llvm.memcpy.p0i8.p0i8.i64(i8* align 8 %13, i8* align 8 %14, i64 8, i1 false), !llfi_index !928
  br label %15, !llfi_index !929

15:                                               ; preds = %22, %2
  %16 = call zeroext i1 @_ZN9__gnu_cxxneIPSt4pairIdS1_IddEESt6vectorIS3_SaIS3_EEEEbRKNS_17__normal_iteratorIT_T0_EESD_(%"class.__gnu_cxx::__normal_iterator"* nonnull align 8 dereferenceable(8) %6, %"class.__gnu_cxx::__normal_iterator"* nonnull align 8 dereferenceable(8) %4) #2, !llfi_index !930
  br i1 %16, label %17, label %24, !llfi_index !931

17:                                               ; preds = %15
  %18 = bitcast %"class.__gnu_cxx::__normal_iterator"* %7 to i8*, !llfi_index !932
  %19 = bitcast %"class.__gnu_cxx::__normal_iterator"* %6 to i8*, !llfi_index !933
  call void @llvm.memcpy.p0i8.p0i8.i64(i8* align 8 %18, i8* align 8 %19, i64 8, i1 false), !llfi_index !934
  call void @_ZN9__gnu_cxx5__ops15__val_comp_iterENS0_15_Iter_less_iterE(), !llfi_index !935
  %20 = getelementptr inbounds %"class.__gnu_cxx::__normal_iterator", %"class.__gnu_cxx::__normal_iterator"* %7, i32 0, i32 0, !llfi_index !936
  %21 = load %"struct.std::pair"*, %"struct.std::pair"** %20, align 8, !llfi_index !937
  call void @_ZSt25__unguarded_linear_insertIN9__gnu_cxx17__normal_iteratorIPSt4pairIdS2_IddEESt6vectorIS4_SaIS4_EEEENS0_5__ops14_Val_less_iterEEvT_T0_(%"struct.std::pair"* %21), !llfi_index !938
  br label %22, !llfi_index !939

22:                                               ; preds = %17
  %23 = call nonnull align 8 dereferenceable(8) %"class.__gnu_cxx::__normal_iterator"* @_ZN9__gnu_cxx17__normal_iteratorIPSt4pairIdS1_IddEESt6vectorIS3_SaIS3_EEEppEv(%"class.__gnu_cxx::__normal_iterator"* nonnull align 8 dereferenceable(8) %6) #2, !llfi_index !940
  br label %15, !llvm.loop !941, !llfi_index !942

24:                                               ; preds = %15
  ret void, !llfi_index !943
}

; Function Attrs: mustprogress noinline nounwind uwtable
define linkonce_odr dso_local void @_ZN9__gnu_cxx5__ops15__val_comp_iterENS0_15_Iter_less_iterE() #4 comdat {
  %1 = alloca %"class.std::ios_base::Init", align 1, !llfi_index !944
  ret void, !llfi_index !945
}

; Function Attrs: mustprogress noinline uwtable
define linkonce_odr dso_local void @_ZSt25__unguarded_linear_insertIN9__gnu_cxx17__normal_iteratorIPSt4pairIdS2_IddEESt6vectorIS4_SaIS4_EEEENS0_5__ops14_Val_less_iterEEvT_T0_(%"struct.std::pair"* %0) #5 comdat {
  %2 = alloca %"class.__gnu_cxx::__normal_iterator", align 8, !llfi_index !946
  %3 = alloca %"class.std::ios_base::Init", align 1, !llfi_index !947
  %4 = alloca %"struct.std::pair", align 8, !llfi_index !948
  %5 = alloca %"class.__gnu_cxx::__normal_iterator", align 8, !llfi_index !949
  %6 = alloca %"class.__gnu_cxx::__normal_iterator", align 8, !llfi_index !950
  %7 = getelementptr inbounds %"class.__gnu_cxx::__normal_iterator", %"class.__gnu_cxx::__normal_iterator"* %2, i32 0, i32 0, !llfi_index !951
  store %"struct.std::pair"* %0, %"struct.std::pair"** %7, align 8, !llfi_index !952
  %8 = call nonnull align 8 dereferenceable(24) %"struct.std::pair"* @_ZNK9__gnu_cxx17__normal_iteratorIPSt4pairIdS1_IddEESt6vectorIS3_SaIS3_EEEdeEv(%"class.__gnu_cxx::__normal_iterator"* nonnull align 8 dereferenceable(8) %2) #2, !llfi_index !953
  %9 = call nonnull align 8 dereferenceable(24) %"struct.std::pair"* @_ZSt4moveIRSt4pairIdS0_IddEEEONSt16remove_referenceIT_E4typeEOS5_(%"struct.std::pair"* nonnull align 8 dereferenceable(24) %8) #2, !llfi_index !954
  %10 = bitcast %"struct.std::pair"* %4 to i8*, !llfi_index !955
  %11 = bitcast %"struct.std::pair"* %9 to i8*, !llfi_index !956
  call void @llvm.memcpy.p0i8.p0i8.i64(i8* align 8 %10, i8* align 8 %11, i64 24, i1 false), !llfi_index !957
  %12 = bitcast %"class.__gnu_cxx::__normal_iterator"* %5 to i8*, !llfi_index !958
  %13 = bitcast %"class.__gnu_cxx::__normal_iterator"* %2 to i8*, !llfi_index !959
  call void @llvm.memcpy.p0i8.p0i8.i64(i8* align 8 %12, i8* align 8 %13, i64 8, i1 false), !llfi_index !960
  %14 = call nonnull align 8 dereferenceable(8) %"class.__gnu_cxx::__normal_iterator"* @_ZN9__gnu_cxx17__normal_iteratorIPSt4pairIdS1_IddEESt6vectorIS3_SaIS3_EEEmmEv(%"class.__gnu_cxx::__normal_iterator"* nonnull align 8 dereferenceable(8) %5) #2, !llfi_index !961
  br label %15, !llfi_index !962

15:                                               ; preds = %21, %1
  %16 = bitcast %"class.__gnu_cxx::__normal_iterator"* %6 to i8*, !llfi_index !963
  %17 = bitcast %"class.__gnu_cxx::__normal_iterator"* %5 to i8*, !llfi_index !964
  call void @llvm.memcpy.p0i8.p0i8.i64(i8* align 8 %16, i8* align 8 %17, i64 8, i1 false), !llfi_index !965
  %18 = getelementptr inbounds %"class.__gnu_cxx::__normal_iterator", %"class.__gnu_cxx::__normal_iterator"* %6, i32 0, i32 0, !llfi_index !966
  %19 = load %"struct.std::pair"*, %"struct.std::pair"** %18, align 8, !llfi_index !967
  %20 = call zeroext i1 @_ZNK9__gnu_cxx5__ops14_Val_less_iterclISt4pairIdS3_IddEENS_17__normal_iteratorIPS5_St6vectorIS5_SaIS5_EEEEEEbRT_T0_(%"class.std::ios_base::Init"* nonnull align 1 dereferenceable(1) %3, %"struct.std::pair"* nonnull align 8 dereferenceable(24) %4, %"struct.std::pair"* %19), !llfi_index !968
  br i1 %20, label %21, label %29, !llfi_index !969

21:                                               ; preds = %15
  %22 = call nonnull align 8 dereferenceable(24) %"struct.std::pair"* @_ZNK9__gnu_cxx17__normal_iteratorIPSt4pairIdS1_IddEESt6vectorIS3_SaIS3_EEEdeEv(%"class.__gnu_cxx::__normal_iterator"* nonnull align 8 dereferenceable(8) %5) #2, !llfi_index !970
  %23 = call nonnull align 8 dereferenceable(24) %"struct.std::pair"* @_ZSt4moveIRSt4pairIdS0_IddEEEONSt16remove_referenceIT_E4typeEOS5_(%"struct.std::pair"* nonnull align 8 dereferenceable(24) %22) #2, !llfi_index !971
  %24 = call nonnull align 8 dereferenceable(24) %"struct.std::pair"* @_ZNK9__gnu_cxx17__normal_iteratorIPSt4pairIdS1_IddEESt6vectorIS3_SaIS3_EEEdeEv(%"class.__gnu_cxx::__normal_iterator"* nonnull align 8 dereferenceable(8) %2) #2, !llfi_index !972
  %25 = call nonnull align 8 dereferenceable(24) %"struct.std::pair"* @_ZNSt4pairIdS_IddEEaSEOS1_(%"struct.std::pair"* nonnull align 8 dereferenceable(24) %24, %"struct.std::pair"* nonnull align 8 dereferenceable(24) %23) #2, !llfi_index !973
  %26 = bitcast %"class.__gnu_cxx::__normal_iterator"* %2 to i8*, !llfi_index !974
  %27 = bitcast %"class.__gnu_cxx::__normal_iterator"* %5 to i8*, !llfi_index !975
  call void @llvm.memcpy.p0i8.p0i8.i64(i8* align 8 %26, i8* align 8 %27, i64 8, i1 false), !llfi_index !976
  %28 = call nonnull align 8 dereferenceable(8) %"class.__gnu_cxx::__normal_iterator"* @_ZN9__gnu_cxx17__normal_iteratorIPSt4pairIdS1_IddEESt6vectorIS3_SaIS3_EEEmmEv(%"class.__gnu_cxx::__normal_iterator"* nonnull align 8 dereferenceable(8) %5) #2, !llfi_index !977
  br label %15, !llvm.loop !978, !llfi_index !979

29:                                               ; preds = %15
  %30 = call nonnull align 8 dereferenceable(24) %"struct.std::pair"* @_ZSt4moveIRSt4pairIdS0_IddEEEONSt16remove_referenceIT_E4typeEOS5_(%"struct.std::pair"* nonnull align 8 dereferenceable(24) %4) #2, !llfi_index !980
  %31 = call nonnull align 8 dereferenceable(24) %"struct.std::pair"* @_ZNK9__gnu_cxx17__normal_iteratorIPSt4pairIdS1_IddEESt6vectorIS3_SaIS3_EEEdeEv(%"class.__gnu_cxx::__normal_iterator"* nonnull align 8 dereferenceable(8) %2) #2, !llfi_index !981
  %32 = call nonnull align 8 dereferenceable(24) %"struct.std::pair"* @_ZNSt4pairIdS_IddEEaSEOS1_(%"struct.std::pair"* nonnull align 8 dereferenceable(24) %31, %"struct.std::pair"* nonnull align 8 dereferenceable(24) %30) #2, !llfi_index !982
  ret void, !llfi_index !983
}

; Function Attrs: mustprogress noinline nounwind uwtable
define linkonce_odr dso_local nonnull align 8 dereferenceable(8) %"class.__gnu_cxx::__normal_iterator"* @_ZN9__gnu_cxx17__normal_iteratorIPSt4pairIdS1_IddEESt6vectorIS3_SaIS3_EEEppEv(%"class.__gnu_cxx::__normal_iterator"* nonnull align 8 dereferenceable(8) %0) #4 comdat align 2 {
  %2 = alloca %"class.__gnu_cxx::__normal_iterator"*, align 8, !llfi_index !984
  store %"class.__gnu_cxx::__normal_iterator"* %0, %"class.__gnu_cxx::__normal_iterator"** %2, align 8, !llfi_index !985
  %3 = load %"class.__gnu_cxx::__normal_iterator"*, %"class.__gnu_cxx::__normal_iterator"** %2, align 8, !llfi_index !986
  %4 = getelementptr inbounds %"class.__gnu_cxx::__normal_iterator", %"class.__gnu_cxx::__normal_iterator"* %3, i32 0, i32 0, !llfi_index !987
  %5 = load %"struct.std::pair"*, %"struct.std::pair"** %4, align 8, !llfi_index !988
  %6 = getelementptr inbounds %"struct.std::pair", %"struct.std::pair"* %5, i32 1, !llfi_index !989
  store %"struct.std::pair"* %6, %"struct.std::pair"** %4, align 8, !llfi_index !990
  ret %"class.__gnu_cxx::__normal_iterator"* %3, !llfi_index !991
}

; Function Attrs: mustprogress noinline nounwind uwtable
define linkonce_odr dso_local nonnull align 8 dereferenceable(24) %"struct.std::pair"* @_ZNK9__gnu_cxx17__normal_iteratorIPSt4pairIdS1_IddEESt6vectorIS3_SaIS3_EEEdeEv(%"class.__gnu_cxx::__normal_iterator"* nonnull align 8 dereferenceable(8) %0) #4 comdat align 2 {
  %2 = alloca %"class.__gnu_cxx::__normal_iterator"*, align 8, !llfi_index !992
  store %"class.__gnu_cxx::__normal_iterator"* %0, %"class.__gnu_cxx::__normal_iterator"** %2, align 8, !llfi_index !993
  %3 = load %"class.__gnu_cxx::__normal_iterator"*, %"class.__gnu_cxx::__normal_iterator"** %2, align 8, !llfi_index !994
  %4 = getelementptr inbounds %"class.__gnu_cxx::__normal_iterator", %"class.__gnu_cxx::__normal_iterator"* %3, i32 0, i32 0, !llfi_index !995
  %5 = load %"struct.std::pair"*, %"struct.std::pair"** %4, align 8, !llfi_index !996
  ret %"struct.std::pair"* %5, !llfi_index !997
}

; Function Attrs: mustprogress noinline nounwind uwtable
define linkonce_odr dso_local nonnull align 8 dereferenceable(24) %"struct.std::pair"* @_ZSt4moveIRSt4pairIdS0_IddEEEONSt16remove_referenceIT_E4typeEOS5_(%"struct.std::pair"* nonnull align 8 dereferenceable(24) %0) #4 comdat {
  %2 = alloca %"struct.std::pair"*, align 8, !llfi_index !998
  store %"struct.std::pair"* %0, %"struct.std::pair"** %2, align 8, !llfi_index !999
  %3 = load %"struct.std::pair"*, %"struct.std::pair"** %2, align 8, !llfi_index !1000
  ret %"struct.std::pair"* %3, !llfi_index !1001
}

; Function Attrs: mustprogress noinline nounwind uwtable
define linkonce_odr dso_local nonnull align 8 dereferenceable(8) %"class.__gnu_cxx::__normal_iterator"* @_ZN9__gnu_cxx17__normal_iteratorIPSt4pairIdS1_IddEESt6vectorIS3_SaIS3_EEEmmEv(%"class.__gnu_cxx::__normal_iterator"* nonnull align 8 dereferenceable(8) %0) #4 comdat align 2 {
  %2 = alloca %"class.__gnu_cxx::__normal_iterator"*, align 8, !llfi_index !1002
  store %"class.__gnu_cxx::__normal_iterator"* %0, %"class.__gnu_cxx::__normal_iterator"** %2, align 8, !llfi_index !1003
  %3 = load %"class.__gnu_cxx::__normal_iterator"*, %"class.__gnu_cxx::__normal_iterator"** %2, align 8, !llfi_index !1004
  %4 = getelementptr inbounds %"class.__gnu_cxx::__normal_iterator", %"class.__gnu_cxx::__normal_iterator"* %3, i32 0, i32 0, !llfi_index !1005
  %5 = load %"struct.std::pair"*, %"struct.std::pair"** %4, align 8, !llfi_index !1006
  %6 = getelementptr inbounds %"struct.std::pair", %"struct.std::pair"* %5, i32 -1, !llfi_index !1007
  store %"struct.std::pair"* %6, %"struct.std::pair"** %4, align 8, !llfi_index !1008
  ret %"class.__gnu_cxx::__normal_iterator"* %3, !llfi_index !1009
}

; Function Attrs: mustprogress noinline uwtable
define linkonce_odr dso_local zeroext i1 @_ZNK9__gnu_cxx5__ops14_Val_less_iterclISt4pairIdS3_IddEENS_17__normal_iteratorIPS5_St6vectorIS5_SaIS5_EEEEEEbRT_T0_(%"class.std::ios_base::Init"* nonnull align 1 dereferenceable(1) %0, %"struct.std::pair"* nonnull align 8 dereferenceable(24) %1, %"struct.std::pair"* %2) #5 comdat align 2 {
  %4 = alloca %"class.__gnu_cxx::__normal_iterator", align 8, !llfi_index !1010
  %5 = alloca %"class.std::ios_base::Init"*, align 8, !llfi_index !1011
  %6 = alloca %"struct.std::pair"*, align 8, !llfi_index !1012
  %7 = getelementptr inbounds %"class.__gnu_cxx::__normal_iterator", %"class.__gnu_cxx::__normal_iterator"* %4, i32 0, i32 0, !llfi_index !1013
  store %"struct.std::pair"* %2, %"struct.std::pair"** %7, align 8, !llfi_index !1014
  store %"class.std::ios_base::Init"* %0, %"class.std::ios_base::Init"** %5, align 8, !llfi_index !1015
  store %"struct.std::pair"* %1, %"struct.std::pair"** %6, align 8, !llfi_index !1016
  %8 = load %"class.std::ios_base::Init"*, %"class.std::ios_base::Init"** %5, align 8, !llfi_index !1017
  %9 = load %"struct.std::pair"*, %"struct.std::pair"** %6, align 8, !llfi_index !1018
  %10 = call nonnull align 8 dereferenceable(24) %"struct.std::pair"* @_ZNK9__gnu_cxx17__normal_iteratorIPSt4pairIdS1_IddEESt6vectorIS3_SaIS3_EEEdeEv(%"class.__gnu_cxx::__normal_iterator"* nonnull align 8 dereferenceable(8) %4) #2, !llfi_index !1019
  %11 = call zeroext i1 @_ZStltIdSt4pairIddEEbRKS0_IT_T0_ES6_(%"struct.std::pair"* nonnull align 8 dereferenceable(24) %9, %"struct.std::pair"* nonnull align 8 dereferenceable(24) %10), !llfi_index !1020
  ret i1 %11, !llfi_index !1021
}

; Function Attrs: mustprogress noinline nounwind uwtable
define linkonce_odr dso_local nonnull align 8 dereferenceable(24) %"struct.std::pair"* @_ZNSt4pairIdS_IddEEaSEOS1_(%"struct.std::pair"* nonnull align 8 dereferenceable(24) %0, %"struct.std::pair"* nonnull align 8 dereferenceable(24) %1) #4 comdat align 2 {
  %3 = alloca %"struct.std::pair"*, align 8, !llfi_index !1022
  %4 = alloca %"struct.std::pair"*, align 8, !llfi_index !1023
  store %"struct.std::pair"* %0, %"struct.std::pair"** %3, align 8, !llfi_index !1024
  store %"struct.std::pair"* %1, %"struct.std::pair"** %4, align 8, !llfi_index !1025
  %5 = load %"struct.std::pair"*, %"struct.std::pair"** %3, align 8, !llfi_index !1026
  %6 = load %"struct.std::pair"*, %"struct.std::pair"** %4, align 8, !llfi_index !1027
  %7 = getelementptr inbounds %"struct.std::pair", %"struct.std::pair"* %6, i32 0, i32 0, !llfi_index !1028
  %8 = call nonnull align 8 dereferenceable(8) double* @_ZSt7forwardIdEOT_RNSt16remove_referenceIS0_E4typeE(double* nonnull align 8 dereferenceable(8) %7) #2, !llfi_index !1029
  %9 = load double, double* %8, align 8, !llfi_index !1030
  %10 = getelementptr inbounds %"struct.std::pair", %"struct.std::pair"* %5, i32 0, i32 0, !llfi_index !1031
  store double %9, double* %10, align 8, !llfi_index !1032
  %11 = load %"struct.std::pair"*, %"struct.std::pair"** %4, align 8, !llfi_index !1033
  %12 = getelementptr inbounds %"struct.std::pair", %"struct.std::pair"* %11, i32 0, i32 1, !llfi_index !1034
  %13 = call nonnull align 8 dereferenceable(16) %"struct.std::pair.5"* @_ZSt7forwardISt4pairIddEEOT_RNSt16remove_referenceIS2_E4typeE(%"struct.std::pair.5"* nonnull align 8 dereferenceable(16) %12) #2, !llfi_index !1035
  %14 = getelementptr inbounds %"struct.std::pair", %"struct.std::pair"* %5, i32 0, i32 1, !llfi_index !1036
  %15 = call nonnull align 8 dereferenceable(16) %"struct.std::pair.5"* @_ZNSt4pairIddEaSEOS0_(%"struct.std::pair.5"* nonnull align 8 dereferenceable(16) %14, %"struct.std::pair.5"* nonnull align 8 dereferenceable(16) %13) #2, !llfi_index !1037
  ret %"struct.std::pair"* %5, !llfi_index !1038
}

; Function Attrs: mustprogress noinline nounwind uwtable
define linkonce_odr dso_local nonnull align 8 dereferenceable(8) double* @_ZSt7forwardIdEOT_RNSt16remove_referenceIS0_E4typeE(double* nonnull align 8 dereferenceable(8) %0) #4 comdat {
  %2 = alloca double*, align 8, !llfi_index !1039
  store double* %0, double** %2, align 8, !llfi_index !1040
  %3 = load double*, double** %2, align 8, !llfi_index !1041
  ret double* %3, !llfi_index !1042
}

; Function Attrs: mustprogress noinline nounwind uwtable
define linkonce_odr dso_local nonnull align 8 dereferenceable(16) %"struct.std::pair.5"* @_ZSt7forwardISt4pairIddEEOT_RNSt16remove_referenceIS2_E4typeE(%"struct.std::pair.5"* nonnull align 8 dereferenceable(16) %0) #4 comdat {
  %2 = alloca %"struct.std::pair.5"*, align 8, !llfi_index !1043
  store %"struct.std::pair.5"* %0, %"struct.std::pair.5"** %2, align 8, !llfi_index !1044
  %3 = load %"struct.std::pair.5"*, %"struct.std::pair.5"** %2, align 8, !llfi_index !1045
  ret %"struct.std::pair.5"* %3, !llfi_index !1046
}

; Function Attrs: mustprogress noinline nounwind uwtable
define linkonce_odr dso_local nonnull align 8 dereferenceable(16) %"struct.std::pair.5"* @_ZNSt4pairIddEaSEOS0_(%"struct.std::pair.5"* nonnull align 8 dereferenceable(16) %0, %"struct.std::pair.5"* nonnull align 8 dereferenceable(16) %1) #4 comdat align 2 {
  %3 = alloca %"struct.std::pair.5"*, align 8, !llfi_index !1047
  %4 = alloca %"struct.std::pair.5"*, align 8, !llfi_index !1048
  store %"struct.std::pair.5"* %0, %"struct.std::pair.5"** %3, align 8, !llfi_index !1049
  store %"struct.std::pair.5"* %1, %"struct.std::pair.5"** %4, align 8, !llfi_index !1050
  %5 = load %"struct.std::pair.5"*, %"struct.std::pair.5"** %3, align 8, !llfi_index !1051
  %6 = load %"struct.std::pair.5"*, %"struct.std::pair.5"** %4, align 8, !llfi_index !1052
  %7 = getelementptr inbounds %"struct.std::pair.5", %"struct.std::pair.5"* %6, i32 0, i32 0, !llfi_index !1053
  %8 = call nonnull align 8 dereferenceable(8) double* @_ZSt7forwardIdEOT_RNSt16remove_referenceIS0_E4typeE(double* nonnull align 8 dereferenceable(8) %7) #2, !llfi_index !1054
  %9 = load double, double* %8, align 8, !llfi_index !1055
  %10 = getelementptr inbounds %"struct.std::pair.5", %"struct.std::pair.5"* %5, i32 0, i32 0, !llfi_index !1056
  store double %9, double* %10, align 8, !llfi_index !1057
  %11 = load %"struct.std::pair.5"*, %"struct.std::pair.5"** %4, align 8, !llfi_index !1058
  %12 = getelementptr inbounds %"struct.std::pair.5", %"struct.std::pair.5"* %11, i32 0, i32 1, !llfi_index !1059
  %13 = call nonnull align 8 dereferenceable(8) double* @_ZSt7forwardIdEOT_RNSt16remove_referenceIS0_E4typeE(double* nonnull align 8 dereferenceable(8) %12) #2, !llfi_index !1060
  %14 = load double, double* %13, align 8, !llfi_index !1061
  %15 = getelementptr inbounds %"struct.std::pair.5", %"struct.std::pair.5"* %5, i32 0, i32 1, !llfi_index !1062
  store double %14, double* %15, align 8, !llfi_index !1063
  ret %"struct.std::pair.5"* %5, !llfi_index !1064
}

; Function Attrs: mustprogress noinline uwtable
define linkonce_odr dso_local zeroext i1 @_ZStltIdSt4pairIddEEbRKS0_IT_T0_ES6_(%"struct.std::pair"* nonnull align 8 dereferenceable(24) %0, %"struct.std::pair"* nonnull align 8 dereferenceable(24) %1) #5 comdat {
  %3 = alloca %"struct.std::pair"*, align 8, !llfi_index !1065
  %4 = alloca %"struct.std::pair"*, align 8, !llfi_index !1066
  store %"struct.std::pair"* %0, %"struct.std::pair"** %3, align 8, !llfi_index !1067
  store %"struct.std::pair"* %1, %"struct.std::pair"** %4, align 8, !llfi_index !1068
  %5 = load %"struct.std::pair"*, %"struct.std::pair"** %3, align 8, !llfi_index !1069
  %6 = getelementptr inbounds %"struct.std::pair", %"struct.std::pair"* %5, i32 0, i32 0, !llfi_index !1070
  %7 = load double, double* %6, align 8, !llfi_index !1071
  %8 = load %"struct.std::pair"*, %"struct.std::pair"** %4, align 8, !llfi_index !1072
  %9 = getelementptr inbounds %"struct.std::pair", %"struct.std::pair"* %8, i32 0, i32 0, !llfi_index !1073
  %10 = load double, double* %9, align 8, !llfi_index !1074
  %11 = fcmp olt double %7, %10, !llfi_index !1075
  br i1 %11, label %28, label %12, !llfi_index !1076

12:                                               ; preds = %2
  %13 = load %"struct.std::pair"*, %"struct.std::pair"** %4, align 8, !llfi_index !1077
  %14 = getelementptr inbounds %"struct.std::pair", %"struct.std::pair"* %13, i32 0, i32 0, !llfi_index !1078
  %15 = load double, double* %14, align 8, !llfi_index !1079
  %16 = load %"struct.std::pair"*, %"struct.std::pair"** %3, align 8, !llfi_index !1080
  %17 = getelementptr inbounds %"struct.std::pair", %"struct.std::pair"* %16, i32 0, i32 0, !llfi_index !1081
  %18 = load double, double* %17, align 8, !llfi_index !1082
  %19 = fcmp olt double %15, %18, !llfi_index !1083
  br i1 %19, label %26, label %20, !llfi_index !1084

20:                                               ; preds = %12
  %21 = load %"struct.std::pair"*, %"struct.std::pair"** %3, align 8, !llfi_index !1085
  %22 = getelementptr inbounds %"struct.std::pair", %"struct.std::pair"* %21, i32 0, i32 1, !llfi_index !1086
  %23 = load %"struct.std::pair"*, %"struct.std::pair"** %4, align 8, !llfi_index !1087
  %24 = getelementptr inbounds %"struct.std::pair", %"struct.std::pair"* %23, i32 0, i32 1, !llfi_index !1088
  %25 = call zeroext i1 @_ZStltIddEbRKSt4pairIT_T0_ES5_(%"struct.std::pair.5"* nonnull align 8 dereferenceable(16) %22, %"struct.std::pair.5"* nonnull align 8 dereferenceable(16) %24), !llfi_index !1089
  br label %26, !llfi_index !1090

26:                                               ; preds = %20, %12
  %27 = phi i1 [ false, %12 ], [ %25, %20 ], !llfi_index !1091
  br label %28, !llfi_index !1092

28:                                               ; preds = %26, %2
  %29 = phi i1 [ true, %2 ], [ %27, %26 ], !llfi_index !1093
  ret i1 %29, !llfi_index !1094
}

; Function Attrs: mustprogress noinline nounwind uwtable
define linkonce_odr dso_local zeroext i1 @_ZStltIddEbRKSt4pairIT_T0_ES5_(%"struct.std::pair.5"* nonnull align 8 dereferenceable(16) %0, %"struct.std::pair.5"* nonnull align 8 dereferenceable(16) %1) #4 comdat {
  %3 = alloca %"struct.std::pair.5"*, align 8, !llfi_index !1095
  %4 = alloca %"struct.std::pair.5"*, align 8, !llfi_index !1096
  store %"struct.std::pair.5"* %0, %"struct.std::pair.5"** %3, align 8, !llfi_index !1097
  store %"struct.std::pair.5"* %1, %"struct.std::pair.5"** %4, align 8, !llfi_index !1098
  %5 = load %"struct.std::pair.5"*, %"struct.std::pair.5"** %3, align 8, !llfi_index !1099
  %6 = getelementptr inbounds %"struct.std::pair.5", %"struct.std::pair.5"* %5, i32 0, i32 0, !llfi_index !1100
  %7 = load double, double* %6, align 8, !llfi_index !1101
  %8 = load %"struct.std::pair.5"*, %"struct.std::pair.5"** %4, align 8, !llfi_index !1102
  %9 = getelementptr inbounds %"struct.std::pair.5", %"struct.std::pair.5"* %8, i32 0, i32 0, !llfi_index !1103
  %10 = load double, double* %9, align 8, !llfi_index !1104
  %11 = fcmp olt double %7, %10, !llfi_index !1105
  br i1 %11, label %30, label %12, !llfi_index !1106

12:                                               ; preds = %2
  %13 = load %"struct.std::pair.5"*, %"struct.std::pair.5"** %4, align 8, !llfi_index !1107
  %14 = getelementptr inbounds %"struct.std::pair.5", %"struct.std::pair.5"* %13, i32 0, i32 0, !llfi_index !1108
  %15 = load double, double* %14, align 8, !llfi_index !1109
  %16 = load %"struct.std::pair.5"*, %"struct.std::pair.5"** %3, align 8, !llfi_index !1110
  %17 = getelementptr inbounds %"struct.std::pair.5", %"struct.std::pair.5"* %16, i32 0, i32 0, !llfi_index !1111
  %18 = load double, double* %17, align 8, !llfi_index !1112
  %19 = fcmp olt double %15, %18, !llfi_index !1113
  br i1 %19, label %28, label %20, !llfi_index !1114

20:                                               ; preds = %12
  %21 = load %"struct.std::pair.5"*, %"struct.std::pair.5"** %3, align 8, !llfi_index !1115
  %22 = getelementptr inbounds %"struct.std::pair.5", %"struct.std::pair.5"* %21, i32 0, i32 1, !llfi_index !1116
  %23 = load double, double* %22, align 8, !llfi_index !1117
  %24 = load %"struct.std::pair.5"*, %"struct.std::pair.5"** %4, align 8, !llfi_index !1118
  %25 = getelementptr inbounds %"struct.std::pair.5", %"struct.std::pair.5"* %24, i32 0, i32 1, !llfi_index !1119
  %26 = load double, double* %25, align 8, !llfi_index !1120
  %27 = fcmp olt double %23, %26, !llfi_index !1121
  br label %28, !llfi_index !1122

28:                                               ; preds = %20, %12
  %29 = phi i1 [ false, %12 ], [ %27, %20 ], !llfi_index !1123
  br label %30, !llfi_index !1124

30:                                               ; preds = %28, %2
  %31 = phi i1 [ true, %2 ], [ %29, %28 ], !llfi_index !1125
  ret i1 %31, !llfi_index !1126
}

; Function Attrs: mustprogress noinline nounwind uwtable
define linkonce_odr dso_local zeroext i1 @_ZN9__gnu_cxxeqIPSt4pairIdS1_IddEESt6vectorIS3_SaIS3_EEEEbRKNS_17__normal_iteratorIT_T0_EESD_(%"class.__gnu_cxx::__normal_iterator"* nonnull align 8 dereferenceable(8) %0, %"class.__gnu_cxx::__normal_iterator"* nonnull align 8 dereferenceable(8) %1) #4 comdat {
  %3 = alloca %"class.__gnu_cxx::__normal_iterator"*, align 8, !llfi_index !1127
  %4 = alloca %"class.__gnu_cxx::__normal_iterator"*, align 8, !llfi_index !1128
  store %"class.__gnu_cxx::__normal_iterator"* %0, %"class.__gnu_cxx::__normal_iterator"** %3, align 8, !llfi_index !1129
  store %"class.__gnu_cxx::__normal_iterator"* %1, %"class.__gnu_cxx::__normal_iterator"** %4, align 8, !llfi_index !1130
  %5 = load %"class.__gnu_cxx::__normal_iterator"*, %"class.__gnu_cxx::__normal_iterator"** %3, align 8, !llfi_index !1131
  %6 = call nonnull align 8 dereferenceable(8) %"struct.std::pair"** @_ZNK9__gnu_cxx17__normal_iteratorIPSt4pairIdS1_IddEESt6vectorIS3_SaIS3_EEE4baseEv(%"class.__gnu_cxx::__normal_iterator"* nonnull align 8 dereferenceable(8) %5) #2, !llfi_index !1132
  %7 = load %"struct.std::pair"*, %"struct.std::pair"** %6, align 8, !llfi_index !1133
  %8 = load %"class.__gnu_cxx::__normal_iterator"*, %"class.__gnu_cxx::__normal_iterator"** %4, align 8, !llfi_index !1134
  %9 = call nonnull align 8 dereferenceable(8) %"struct.std::pair"** @_ZNK9__gnu_cxx17__normal_iteratorIPSt4pairIdS1_IddEESt6vectorIS3_SaIS3_EEE4baseEv(%"class.__gnu_cxx::__normal_iterator"* nonnull align 8 dereferenceable(8) %8) #2, !llfi_index !1135
  %10 = load %"struct.std::pair"*, %"struct.std::pair"** %9, align 8, !llfi_index !1136
  %11 = icmp eq %"struct.std::pair"* %7, %10, !llfi_index !1137
  ret i1 %11, !llfi_index !1138
}

; Function Attrs: mustprogress noinline uwtable
define linkonce_odr dso_local zeroext i1 @_ZNK9__gnu_cxx5__ops15_Iter_less_iterclINS_17__normal_iteratorIPSt4pairIdS4_IddEESt6vectorIS6_SaIS6_EEEESB_EEbT_T0_(%"class.std::ios_base::Init"* nonnull align 1 dereferenceable(1) %0, %"struct.std::pair"* %1, %"struct.std::pair"* %2) #5 comdat align 2 {
  %4 = alloca %"class.__gnu_cxx::__normal_iterator", align 8, !llfi_index !1139
  %5 = alloca %"class.__gnu_cxx::__normal_iterator", align 8, !llfi_index !1140
  %6 = alloca %"class.std::ios_base::Init"*, align 8, !llfi_index !1141
  %7 = getelementptr inbounds %"class.__gnu_cxx::__normal_iterator", %"class.__gnu_cxx::__normal_iterator"* %4, i32 0, i32 0, !llfi_index !1142
  store %"struct.std::pair"* %1, %"struct.std::pair"** %7, align 8, !llfi_index !1143
  %8 = getelementptr inbounds %"class.__gnu_cxx::__normal_iterator", %"class.__gnu_cxx::__normal_iterator"* %5, i32 0, i32 0, !llfi_index !1144
  store %"struct.std::pair"* %2, %"struct.std::pair"** %8, align 8, !llfi_index !1145
  store %"class.std::ios_base::Init"* %0, %"class.std::ios_base::Init"** %6, align 8, !llfi_index !1146
  %9 = load %"class.std::ios_base::Init"*, %"class.std::ios_base::Init"** %6, align 8, !llfi_index !1147
  %10 = call nonnull align 8 dereferenceable(24) %"struct.std::pair"* @_ZNK9__gnu_cxx17__normal_iteratorIPSt4pairIdS1_IddEESt6vectorIS3_SaIS3_EEEdeEv(%"class.__gnu_cxx::__normal_iterator"* nonnull align 8 dereferenceable(8) %4) #2, !llfi_index !1148
  %11 = call nonnull align 8 dereferenceable(24) %"struct.std::pair"* @_ZNK9__gnu_cxx17__normal_iteratorIPSt4pairIdS1_IddEESt6vectorIS3_SaIS3_EEEdeEv(%"class.__gnu_cxx::__normal_iterator"* nonnull align 8 dereferenceable(8) %5) #2, !llfi_index !1149
  %12 = call zeroext i1 @_ZStltIdSt4pairIddEEbRKS0_IT_T0_ES6_(%"struct.std::pair"* nonnull align 8 dereferenceable(24) %10, %"struct.std::pair"* nonnull align 8 dereferenceable(24) %11), !llfi_index !1150
  ret i1 %12, !llfi_index !1151
}

; Function Attrs: mustprogress noinline uwtable
define linkonce_odr dso_local %"struct.std::pair"* @_ZSt13move_backwardIN9__gnu_cxx17__normal_iteratorIPSt4pairIdS2_IddEESt6vectorIS4_SaIS4_EEEES9_ET0_T_SB_SA_(%"struct.std::pair"* %0, %"struct.std::pair"* %1, %"struct.std::pair"* %2) #5 comdat {
  %4 = alloca %"class.__gnu_cxx::__normal_iterator", align 8, !llfi_index !1152
  %5 = alloca %"class.__gnu_cxx::__normal_iterator", align 8, !llfi_index !1153
  %6 = alloca %"class.__gnu_cxx::__normal_iterator", align 8, !llfi_index !1154
  %7 = alloca %"class.__gnu_cxx::__normal_iterator", align 8, !llfi_index !1155
  %8 = alloca %"class.__gnu_cxx::__normal_iterator", align 8, !llfi_index !1156
  %9 = alloca %"class.__gnu_cxx::__normal_iterator", align 8, !llfi_index !1157
  %10 = alloca %"class.__gnu_cxx::__normal_iterator", align 8, !llfi_index !1158
  %11 = alloca %"class.__gnu_cxx::__normal_iterator", align 8, !llfi_index !1159
  %12 = alloca %"class.__gnu_cxx::__normal_iterator", align 8, !llfi_index !1160
  %13 = getelementptr inbounds %"class.__gnu_cxx::__normal_iterator", %"class.__gnu_cxx::__normal_iterator"* %5, i32 0, i32 0, !llfi_index !1161
  store %"struct.std::pair"* %0, %"struct.std::pair"** %13, align 8, !llfi_index !1162
  %14 = getelementptr inbounds %"class.__gnu_cxx::__normal_iterator", %"class.__gnu_cxx::__normal_iterator"* %6, i32 0, i32 0, !llfi_index !1163
  store %"struct.std::pair"* %1, %"struct.std::pair"** %14, align 8, !llfi_index !1164
  %15 = getelementptr inbounds %"class.__gnu_cxx::__normal_iterator", %"class.__gnu_cxx::__normal_iterator"* %7, i32 0, i32 0, !llfi_index !1165
  store %"struct.std::pair"* %2, %"struct.std::pair"** %15, align 8, !llfi_index !1166
  %16 = bitcast %"class.__gnu_cxx::__normal_iterator"* %9 to i8*, !llfi_index !1167
  %17 = bitcast %"class.__gnu_cxx::__normal_iterator"* %5 to i8*, !llfi_index !1168
  call void @llvm.memcpy.p0i8.p0i8.i64(i8* align 8 %16, i8* align 8 %17, i64 8, i1 false), !llfi_index !1169
  %18 = getelementptr inbounds %"class.__gnu_cxx::__normal_iterator", %"class.__gnu_cxx::__normal_iterator"* %9, i32 0, i32 0, !llfi_index !1170
  %19 = load %"struct.std::pair"*, %"struct.std::pair"** %18, align 8, !llfi_index !1171
  %20 = call %"struct.std::pair"* @_ZSt12__miter_baseIN9__gnu_cxx17__normal_iteratorIPSt4pairIdS2_IddEESt6vectorIS4_SaIS4_EEEEET_SA_(%"struct.std::pair"* %19), !llfi_index !1172
  %21 = getelementptr inbounds %"class.__gnu_cxx::__normal_iterator", %"class.__gnu_cxx::__normal_iterator"* %8, i32 0, i32 0, !llfi_index !1173
  store %"struct.std::pair"* %20, %"struct.std::pair"** %21, align 8, !llfi_index !1174
  %22 = bitcast %"class.__gnu_cxx::__normal_iterator"* %11 to i8*, !llfi_index !1175
  %23 = bitcast %"class.__gnu_cxx::__normal_iterator"* %6 to i8*, !llfi_index !1176
  call void @llvm.memcpy.p0i8.p0i8.i64(i8* align 8 %22, i8* align 8 %23, i64 8, i1 false), !llfi_index !1177
  %24 = getelementptr inbounds %"class.__gnu_cxx::__normal_iterator", %"class.__gnu_cxx::__normal_iterator"* %11, i32 0, i32 0, !llfi_index !1178
  %25 = load %"struct.std::pair"*, %"struct.std::pair"** %24, align 8, !llfi_index !1179
  %26 = call %"struct.std::pair"* @_ZSt12__miter_baseIN9__gnu_cxx17__normal_iteratorIPSt4pairIdS2_IddEESt6vectorIS4_SaIS4_EEEEET_SA_(%"struct.std::pair"* %25), !llfi_index !1180
  %27 = getelementptr inbounds %"class.__gnu_cxx::__normal_iterator", %"class.__gnu_cxx::__normal_iterator"* %10, i32 0, i32 0, !llfi_index !1181
  store %"struct.std::pair"* %26, %"struct.std::pair"** %27, align 8, !llfi_index !1182
  %28 = bitcast %"class.__gnu_cxx::__normal_iterator"* %12 to i8*, !llfi_index !1183
  %29 = bitcast %"class.__gnu_cxx::__normal_iterator"* %7 to i8*, !llfi_index !1184
  call void @llvm.memcpy.p0i8.p0i8.i64(i8* align 8 %28, i8* align 8 %29, i64 8, i1 false), !llfi_index !1185
  %30 = getelementptr inbounds %"class.__gnu_cxx::__normal_iterator", %"class.__gnu_cxx::__normal_iterator"* %8, i32 0, i32 0, !llfi_index !1186
  %31 = load %"struct.std::pair"*, %"struct.std::pair"** %30, align 8, !llfi_index !1187
  %32 = getelementptr inbounds %"class.__gnu_cxx::__normal_iterator", %"class.__gnu_cxx::__normal_iterator"* %10, i32 0, i32 0, !llfi_index !1188
  %33 = load %"struct.std::pair"*, %"struct.std::pair"** %32, align 8, !llfi_index !1189
  %34 = getelementptr inbounds %"class.__gnu_cxx::__normal_iterator", %"class.__gnu_cxx::__normal_iterator"* %12, i32 0, i32 0, !llfi_index !1190
  %35 = load %"struct.std::pair"*, %"struct.std::pair"** %34, align 8, !llfi_index !1191
  %36 = call %"struct.std::pair"* @_ZSt23__copy_move_backward_a2ILb1EN9__gnu_cxx17__normal_iteratorIPSt4pairIdS2_IddEESt6vectorIS4_SaIS4_EEEES9_ET1_T0_SB_SA_(%"struct.std::pair"* %31, %"struct.std::pair"* %33, %"struct.std::pair"* %35), !llfi_index !1192
  %37 = getelementptr inbounds %"class.__gnu_cxx::__normal_iterator", %"class.__gnu_cxx::__normal_iterator"* %4, i32 0, i32 0, !llfi_index !1193
  store %"struct.std::pair"* %36, %"struct.std::pair"** %37, align 8, !llfi_index !1194
  %38 = getelementptr inbounds %"class.__gnu_cxx::__normal_iterator", %"class.__gnu_cxx::__normal_iterator"* %4, i32 0, i32 0, !llfi_index !1195
  %39 = load %"struct.std::pair"*, %"struct.std::pair"** %38, align 8, !llfi_index !1196
  ret %"struct.std::pair"* %39, !llfi_index !1197
}

; Function Attrs: mustprogress noinline nounwind uwtable
define linkonce_odr dso_local %"struct.std::pair"* @_ZSt12__miter_baseIN9__gnu_cxx17__normal_iteratorIPSt4pairIdS2_IddEESt6vectorIS4_SaIS4_EEEEET_SA_(%"struct.std::pair"* %0) #4 comdat {
  %2 = alloca %"class.__gnu_cxx::__normal_iterator", align 8, !llfi_index !1198
  %3 = alloca %"class.__gnu_cxx::__normal_iterator", align 8, !llfi_index !1199
  %4 = getelementptr inbounds %"class.__gnu_cxx::__normal_iterator", %"class.__gnu_cxx::__normal_iterator"* %3, i32 0, i32 0, !llfi_index !1200
  store %"struct.std::pair"* %0, %"struct.std::pair"** %4, align 8, !llfi_index !1201
  %5 = bitcast %"class.__gnu_cxx::__normal_iterator"* %2 to i8*, !llfi_index !1202
  %6 = bitcast %"class.__gnu_cxx::__normal_iterator"* %3 to i8*, !llfi_index !1203
  call void @llvm.memcpy.p0i8.p0i8.i64(i8* align 8 %5, i8* align 8 %6, i64 8, i1 false), !llfi_index !1204
  %7 = getelementptr inbounds %"class.__gnu_cxx::__normal_iterator", %"class.__gnu_cxx::__normal_iterator"* %2, i32 0, i32 0, !llfi_index !1205
  %8 = load %"struct.std::pair"*, %"struct.std::pair"** %7, align 8, !llfi_index !1206
  ret %"struct.std::pair"* %8, !llfi_index !1207
}

; Function Attrs: mustprogress noinline uwtable
define linkonce_odr dso_local %"struct.std::pair"* @_ZSt23__copy_move_backward_a2ILb1EN9__gnu_cxx17__normal_iteratorIPSt4pairIdS2_IddEESt6vectorIS4_SaIS4_EEEES9_ET1_T0_SB_SA_(%"struct.std::pair"* %0, %"struct.std::pair"* %1, %"struct.std::pair"* %2) #5 comdat {
  %4 = alloca %"class.__gnu_cxx::__normal_iterator", align 8, !llfi_index !1208
  %5 = alloca %"class.__gnu_cxx::__normal_iterator", align 8, !llfi_index !1209
  %6 = alloca %"class.__gnu_cxx::__normal_iterator", align 8, !llfi_index !1210
  %7 = alloca %"class.__gnu_cxx::__normal_iterator", align 8, !llfi_index !1211
  %8 = alloca %"class.__gnu_cxx::__normal_iterator", align 8, !llfi_index !1212
  %9 = alloca %"class.__gnu_cxx::__normal_iterator", align 8, !llfi_index !1213
  %10 = alloca %"class.__gnu_cxx::__normal_iterator", align 8, !llfi_index !1214
  %11 = alloca %"class.__gnu_cxx::__normal_iterator", align 8, !llfi_index !1215
  %12 = getelementptr inbounds %"class.__gnu_cxx::__normal_iterator", %"class.__gnu_cxx::__normal_iterator"* %5, i32 0, i32 0, !llfi_index !1216
  store %"struct.std::pair"* %0, %"struct.std::pair"** %12, align 8, !llfi_index !1217
  %13 = getelementptr inbounds %"class.__gnu_cxx::__normal_iterator", %"class.__gnu_cxx::__normal_iterator"* %6, i32 0, i32 0, !llfi_index !1218
  store %"struct.std::pair"* %1, %"struct.std::pair"** %13, align 8, !llfi_index !1219
  %14 = getelementptr inbounds %"class.__gnu_cxx::__normal_iterator", %"class.__gnu_cxx::__normal_iterator"* %7, i32 0, i32 0, !llfi_index !1220
  store %"struct.std::pair"* %2, %"struct.std::pair"** %14, align 8, !llfi_index !1221
  %15 = bitcast %"class.__gnu_cxx::__normal_iterator"* %8 to i8*, !llfi_index !1222
  %16 = bitcast %"class.__gnu_cxx::__normal_iterator"* %7 to i8*, !llfi_index !1223
  call void @llvm.memcpy.p0i8.p0i8.i64(i8* align 8 %15, i8* align 8 %16, i64 8, i1 false), !llfi_index !1224
  %17 = bitcast %"class.__gnu_cxx::__normal_iterator"* %9 to i8*, !llfi_index !1225
  %18 = bitcast %"class.__gnu_cxx::__normal_iterator"* %5 to i8*, !llfi_index !1226
  call void @llvm.memcpy.p0i8.p0i8.i64(i8* align 8 %17, i8* align 8 %18, i64 8, i1 false), !llfi_index !1227
  %19 = getelementptr inbounds %"class.__gnu_cxx::__normal_iterator", %"class.__gnu_cxx::__normal_iterator"* %9, i32 0, i32 0, !llfi_index !1228
  %20 = load %"struct.std::pair"*, %"struct.std::pair"** %19, align 8, !llfi_index !1229
  %21 = call %"struct.std::pair"* @_ZSt12__niter_baseIPSt4pairIdS0_IddEESt6vectorIS2_SaIS2_EEET_N9__gnu_cxx17__normal_iteratorIS7_T0_EE(%"struct.std::pair"* %20) #2, !llfi_index !1230
  %22 = bitcast %"class.__gnu_cxx::__normal_iterator"* %10 to i8*, !llfi_index !1231
  %23 = bitcast %"class.__gnu_cxx::__normal_iterator"* %6 to i8*, !llfi_index !1232
  call void @llvm.memcpy.p0i8.p0i8.i64(i8* align 8 %22, i8* align 8 %23, i64 8, i1 false), !llfi_index !1233
  %24 = getelementptr inbounds %"class.__gnu_cxx::__normal_iterator", %"class.__gnu_cxx::__normal_iterator"* %10, i32 0, i32 0, !llfi_index !1234
  %25 = load %"struct.std::pair"*, %"struct.std::pair"** %24, align 8, !llfi_index !1235
  %26 = call %"struct.std::pair"* @_ZSt12__niter_baseIPSt4pairIdS0_IddEESt6vectorIS2_SaIS2_EEET_N9__gnu_cxx17__normal_iteratorIS7_T0_EE(%"struct.std::pair"* %25) #2, !llfi_index !1236
  %27 = bitcast %"class.__gnu_cxx::__normal_iterator"* %11 to i8*, !llfi_index !1237
  %28 = bitcast %"class.__gnu_cxx::__normal_iterator"* %7 to i8*, !llfi_index !1238
  call void @llvm.memcpy.p0i8.p0i8.i64(i8* align 8 %27, i8* align 8 %28, i64 8, i1 false), !llfi_index !1239
  %29 = getelementptr inbounds %"class.__gnu_cxx::__normal_iterator", %"class.__gnu_cxx::__normal_iterator"* %11, i32 0, i32 0, !llfi_index !1240
  %30 = load %"struct.std::pair"*, %"struct.std::pair"** %29, align 8, !llfi_index !1241
  %31 = call %"struct.std::pair"* @_ZSt12__niter_baseIPSt4pairIdS0_IddEESt6vectorIS2_SaIS2_EEET_N9__gnu_cxx17__normal_iteratorIS7_T0_EE(%"struct.std::pair"* %30) #2, !llfi_index !1242
  %32 = call %"struct.std::pair"* @_ZSt22__copy_move_backward_aILb1EPSt4pairIdS0_IddEES3_ET1_T0_S5_S4_(%"struct.std::pair"* %21, %"struct.std::pair"* %26, %"struct.std::pair"* %31), !llfi_index !1243
  %33 = getelementptr inbounds %"class.__gnu_cxx::__normal_iterator", %"class.__gnu_cxx::__normal_iterator"* %8, i32 0, i32 0, !llfi_index !1244
  %34 = load %"struct.std::pair"*, %"struct.std::pair"** %33, align 8, !llfi_index !1245
  %35 = call %"struct.std::pair"* @_ZSt12__niter_wrapIN9__gnu_cxx17__normal_iteratorIPSt4pairIdS2_IddEESt6vectorIS4_SaIS4_EEEES5_ET_SA_T0_(%"struct.std::pair"* %34, %"struct.std::pair"* %32), !llfi_index !1246
  %36 = getelementptr inbounds %"class.__gnu_cxx::__normal_iterator", %"class.__gnu_cxx::__normal_iterator"* %4, i32 0, i32 0, !llfi_index !1247
  store %"struct.std::pair"* %35, %"struct.std::pair"** %36, align 8, !llfi_index !1248
  %37 = getelementptr inbounds %"class.__gnu_cxx::__normal_iterator", %"class.__gnu_cxx::__normal_iterator"* %4, i32 0, i32 0, !llfi_index !1249
  %38 = load %"struct.std::pair"*, %"struct.std::pair"** %37, align 8, !llfi_index !1250
  ret %"struct.std::pair"* %38, !llfi_index !1251
}

; Function Attrs: mustprogress noinline nounwind uwtable
define linkonce_odr dso_local %"struct.std::pair"* @_ZSt12__niter_baseIPSt4pairIdS0_IddEESt6vectorIS2_SaIS2_EEET_N9__gnu_cxx17__normal_iteratorIS7_T0_EE(%"struct.std::pair"* %0) #4 comdat {
  %2 = alloca %"class.__gnu_cxx::__normal_iterator", align 8, !llfi_index !1252
  %3 = getelementptr inbounds %"class.__gnu_cxx::__normal_iterator", %"class.__gnu_cxx::__normal_iterator"* %2, i32 0, i32 0, !llfi_index !1253
  store %"struct.std::pair"* %0, %"struct.std::pair"** %3, align 8, !llfi_index !1254
  %4 = call nonnull align 8 dereferenceable(8) %"struct.std::pair"** @_ZNK9__gnu_cxx17__normal_iteratorIPSt4pairIdS1_IddEESt6vectorIS3_SaIS3_EEE4baseEv(%"class.__gnu_cxx::__normal_iterator"* nonnull align 8 dereferenceable(8) %2) #2, !llfi_index !1255
  %5 = load %"struct.std::pair"*, %"struct.std::pair"** %4, align 8, !llfi_index !1256
  ret %"struct.std::pair"* %5, !llfi_index !1257
}

; Function Attrs: mustprogress noinline uwtable
define linkonce_odr dso_local %"struct.std::pair"* @_ZSt22__copy_move_backward_aILb1EPSt4pairIdS0_IddEES3_ET1_T0_S5_S4_(%"struct.std::pair"* %0, %"struct.std::pair"* %1, %"struct.std::pair"* %2) #5 comdat {
  %4 = alloca %"struct.std::pair"*, align 8, !llfi_index !1258
  %5 = alloca %"struct.std::pair"*, align 8, !llfi_index !1259
  %6 = alloca %"struct.std::pair"*, align 8, !llfi_index !1260
  %7 = alloca i8, align 1, !llfi_index !1261
  store %"struct.std::pair"* %0, %"struct.std::pair"** %4, align 8, !llfi_index !1262
  store %"struct.std::pair"* %1, %"struct.std::pair"** %5, align 8, !llfi_index !1263
  store %"struct.std::pair"* %2, %"struct.std::pair"** %6, align 8, !llfi_index !1264
  store i8 0, i8* %7, align 1, !llfi_index !1265
  %8 = load %"struct.std::pair"*, %"struct.std::pair"** %4, align 8, !llfi_index !1266
  %9 = load %"struct.std::pair"*, %"struct.std::pair"** %5, align 8, !llfi_index !1267
  %10 = load %"struct.std::pair"*, %"struct.std::pair"** %6, align 8, !llfi_index !1268
  %11 = call %"struct.std::pair"* @_ZNSt20__copy_move_backwardILb1ELb0ESt26random_access_iterator_tagE13__copy_move_bIPSt4pairIdS3_IddEES6_EET0_T_S8_S7_(%"struct.std::pair"* %8, %"struct.std::pair"* %9, %"struct.std::pair"* %10), !llfi_index !1269
  ret %"struct.std::pair"* %11, !llfi_index !1270
}

; Function Attrs: mustprogress noinline nounwind uwtable
define linkonce_odr dso_local %"struct.std::pair"* @_ZSt12__niter_wrapIN9__gnu_cxx17__normal_iteratorIPSt4pairIdS2_IddEESt6vectorIS4_SaIS4_EEEES5_ET_SA_T0_(%"struct.std::pair"* %0, %"struct.std::pair"* %1) #4 comdat {
  %3 = alloca %"class.__gnu_cxx::__normal_iterator", align 8, !llfi_index !1271
  %4 = alloca %"class.__gnu_cxx::__normal_iterator", align 8, !llfi_index !1272
  %5 = alloca %"struct.std::pair"*, align 8, !llfi_index !1273
  %6 = alloca %"class.__gnu_cxx::__normal_iterator", align 8, !llfi_index !1274
  %7 = getelementptr inbounds %"class.__gnu_cxx::__normal_iterator", %"class.__gnu_cxx::__normal_iterator"* %4, i32 0, i32 0, !llfi_index !1275
  store %"struct.std::pair"* %0, %"struct.std::pair"** %7, align 8, !llfi_index !1276
  store %"struct.std::pair"* %1, %"struct.std::pair"** %5, align 8, !llfi_index !1277
  %8 = load %"struct.std::pair"*, %"struct.std::pair"** %5, align 8, !llfi_index !1278
  %9 = bitcast %"class.__gnu_cxx::__normal_iterator"* %6 to i8*, !llfi_index !1279
  %10 = bitcast %"class.__gnu_cxx::__normal_iterator"* %4 to i8*, !llfi_index !1280
  call void @llvm.memcpy.p0i8.p0i8.i64(i8* align 8 %9, i8* align 8 %10, i64 8, i1 false), !llfi_index !1281
  %11 = getelementptr inbounds %"class.__gnu_cxx::__normal_iterator", %"class.__gnu_cxx::__normal_iterator"* %6, i32 0, i32 0, !llfi_index !1282
  %12 = load %"struct.std::pair"*, %"struct.std::pair"** %11, align 8, !llfi_index !1283
  %13 = call %"struct.std::pair"* @_ZSt12__niter_baseIPSt4pairIdS0_IddEESt6vectorIS2_SaIS2_EEET_N9__gnu_cxx17__normal_iteratorIS7_T0_EE(%"struct.std::pair"* %12) #2, !llfi_index !1284
  %14 = ptrtoint %"struct.std::pair"* %8 to i64, !llfi_index !1285
  %15 = ptrtoint %"struct.std::pair"* %13 to i64, !llfi_index !1286
  %16 = sub i64 %14, %15, !llfi_index !1287
  %17 = sdiv exact i64 %16, 24, !llfi_index !1288
  %18 = call %"struct.std::pair"* @_ZNK9__gnu_cxx17__normal_iteratorIPSt4pairIdS1_IddEESt6vectorIS3_SaIS3_EEEplEl(%"class.__gnu_cxx::__normal_iterator"* nonnull align 8 dereferenceable(8) %4, i64 %17) #2, !llfi_index !1289
  %19 = getelementptr inbounds %"class.__gnu_cxx::__normal_iterator", %"class.__gnu_cxx::__normal_iterator"* %3, i32 0, i32 0, !llfi_index !1290
  store %"struct.std::pair"* %18, %"struct.std::pair"** %19, align 8, !llfi_index !1291
  %20 = getelementptr inbounds %"class.__gnu_cxx::__normal_iterator", %"class.__gnu_cxx::__normal_iterator"* %3, i32 0, i32 0, !llfi_index !1292
  %21 = load %"struct.std::pair"*, %"struct.std::pair"** %20, align 8, !llfi_index !1293
  ret %"struct.std::pair"* %21, !llfi_index !1294
}

; Function Attrs: mustprogress noinline nounwind uwtable
define linkonce_odr dso_local %"struct.std::pair"* @_ZNSt20__copy_move_backwardILb1ELb0ESt26random_access_iterator_tagE13__copy_move_bIPSt4pairIdS3_IddEES6_EET0_T_S8_S7_(%"struct.std::pair"* %0, %"struct.std::pair"* %1, %"struct.std::pair"* %2) #4 comdat align 2 {
  %4 = alloca %"struct.std::pair"*, align 8, !llfi_index !1295
  %5 = alloca %"struct.std::pair"*, align 8, !llfi_index !1296
  %6 = alloca %"struct.std::pair"*, align 8, !llfi_index !1297
  %7 = alloca i64, align 8, !llfi_index !1298
  store %"struct.std::pair"* %0, %"struct.std::pair"** %4, align 8, !llfi_index !1299
  store %"struct.std::pair"* %1, %"struct.std::pair"** %5, align 8, !llfi_index !1300
  store %"struct.std::pair"* %2, %"struct.std::pair"** %6, align 8, !llfi_index !1301
  %8 = load %"struct.std::pair"*, %"struct.std::pair"** %5, align 8, !llfi_index !1302
  %9 = load %"struct.std::pair"*, %"struct.std::pair"** %4, align 8, !llfi_index !1303
  %10 = ptrtoint %"struct.std::pair"* %8 to i64, !llfi_index !1304
  %11 = ptrtoint %"struct.std::pair"* %9 to i64, !llfi_index !1305
  %12 = sub i64 %10, %11, !llfi_index !1306
  %13 = sdiv exact i64 %12, 24, !llfi_index !1307
  store i64 %13, i64* %7, align 8, !llfi_index !1308
  br label %14, !llfi_index !1309

14:                                               ; preds = %24, %3
  %15 = load i64, i64* %7, align 8, !llfi_index !1310
  %16 = icmp sgt i64 %15, 0, !llfi_index !1311
  br i1 %16, label %17, label %27, !llfi_index !1312

17:                                               ; preds = %14
  %18 = load %"struct.std::pair"*, %"struct.std::pair"** %5, align 8, !llfi_index !1313
  %19 = getelementptr inbounds %"struct.std::pair", %"struct.std::pair"* %18, i32 -1, !llfi_index !1314
  store %"struct.std::pair"* %19, %"struct.std::pair"** %5, align 8, !llfi_index !1315
  %20 = call nonnull align 8 dereferenceable(24) %"struct.std::pair"* @_ZSt4moveIRSt4pairIdS0_IddEEEONSt16remove_referenceIT_E4typeEOS5_(%"struct.std::pair"* nonnull align 8 dereferenceable(24) %19) #2, !llfi_index !1316
  %21 = load %"struct.std::pair"*, %"struct.std::pair"** %6, align 8, !llfi_index !1317
  %22 = getelementptr inbounds %"struct.std::pair", %"struct.std::pair"* %21, i32 -1, !llfi_index !1318
  store %"struct.std::pair"* %22, %"struct.std::pair"** %6, align 8, !llfi_index !1319
  %23 = call nonnull align 8 dereferenceable(24) %"struct.std::pair"* @_ZNSt4pairIdS_IddEEaSEOS1_(%"struct.std::pair"* nonnull align 8 dereferenceable(24) %22, %"struct.std::pair"* nonnull align 8 dereferenceable(24) %20) #2, !llfi_index !1320
  br label %24, !llfi_index !1321

24:                                               ; preds = %17
  %25 = load i64, i64* %7, align 8, !llfi_index !1322
  %26 = add nsw i64 %25, -1, !llfi_index !1323
  store i64 %26, i64* %7, align 8, !llfi_index !1324
  br label %14, !llvm.loop !1325, !llfi_index !1326

27:                                               ; preds = %14
  %28 = load %"struct.std::pair"*, %"struct.std::pair"** %6, align 8, !llfi_index !1327
  ret %"struct.std::pair"* %28, !llfi_index !1328
}

; Function Attrs: mustprogress noinline nounwind uwtable
define linkonce_odr dso_local nonnull align 8 dereferenceable(8) %"struct.std::pair"** @_ZNK9__gnu_cxx17__normal_iteratorIPSt4pairIdS1_IddEESt6vectorIS3_SaIS3_EEE4baseEv(%"class.__gnu_cxx::__normal_iterator"* nonnull align 8 dereferenceable(8) %0) #4 comdat align 2 {
  %2 = alloca %"class.__gnu_cxx::__normal_iterator"*, align 8, !llfi_index !1329
  store %"class.__gnu_cxx::__normal_iterator"* %0, %"class.__gnu_cxx::__normal_iterator"** %2, align 8, !llfi_index !1330
  %3 = load %"class.__gnu_cxx::__normal_iterator"*, %"class.__gnu_cxx::__normal_iterator"** %2, align 8, !llfi_index !1331
  %4 = getelementptr inbounds %"class.__gnu_cxx::__normal_iterator", %"class.__gnu_cxx::__normal_iterator"* %3, i32 0, i32 0, !llfi_index !1332
  ret %"struct.std::pair"** %4, !llfi_index !1333
}

; Function Attrs: noinline nounwind uwtable
define linkonce_odr dso_local void @_ZN9__gnu_cxx17__normal_iteratorIPSt4pairIdS1_IddEESt6vectorIS3_SaIS3_EEEC2ERKS4_(%"class.__gnu_cxx::__normal_iterator"* nonnull align 8 dereferenceable(8) %0, %"struct.std::pair"** nonnull align 8 dereferenceable(8) %1) unnamed_addr #6 comdat align 2 {
  %3 = alloca %"class.__gnu_cxx::__normal_iterator"*, align 8, !llfi_index !1334
  %4 = alloca %"struct.std::pair"**, align 8, !llfi_index !1335
  store %"class.__gnu_cxx::__normal_iterator"* %0, %"class.__gnu_cxx::__normal_iterator"** %3, align 8, !llfi_index !1336
  store %"struct.std::pair"** %1, %"struct.std::pair"*** %4, align 8, !llfi_index !1337
  %5 = load %"class.__gnu_cxx::__normal_iterator"*, %"class.__gnu_cxx::__normal_iterator"** %3, align 8, !llfi_index !1338
  %6 = getelementptr inbounds %"class.__gnu_cxx::__normal_iterator", %"class.__gnu_cxx::__normal_iterator"* %5, i32 0, i32 0, !llfi_index !1339
  %7 = load %"struct.std::pair"**, %"struct.std::pair"*** %4, align 8, !llfi_index !1340
  %8 = load %"struct.std::pair"*, %"struct.std::pair"** %7, align 8, !llfi_index !1341
  store %"struct.std::pair"* %8, %"struct.std::pair"** %6, align 8, !llfi_index !1342
  ret void, !llfi_index !1343
}

; Function Attrs: mustprogress noinline uwtable
define linkonce_odr dso_local void @_ZSt14__partial_sortIN9__gnu_cxx17__normal_iteratorIPSt4pairIdS2_IddEESt6vectorIS4_SaIS4_EEEENS0_5__ops15_Iter_less_iterEEvT_SC_SC_T0_(%"struct.std::pair"* %0, %"struct.std::pair"* %1, %"struct.std::pair"* %2) #5 comdat {
  %4 = alloca %"class.__gnu_cxx::__normal_iterator", align 8, !llfi_index !1344
  %5 = alloca %"class.__gnu_cxx::__normal_iterator", align 8, !llfi_index !1345
  %6 = alloca %"class.__gnu_cxx::__normal_iterator", align 8, !llfi_index !1346
  %7 = alloca %"class.std::ios_base::Init", align 1, !llfi_index !1347
  %8 = alloca %"class.__gnu_cxx::__normal_iterator", align 8, !llfi_index !1348
  %9 = alloca %"class.__gnu_cxx::__normal_iterator", align 8, !llfi_index !1349
  %10 = alloca %"class.__gnu_cxx::__normal_iterator", align 8, !llfi_index !1350
  %11 = alloca %"class.std::ios_base::Init", align 1, !llfi_index !1351
  %12 = alloca %"class.__gnu_cxx::__normal_iterator", align 8, !llfi_index !1352
  %13 = alloca %"class.__gnu_cxx::__normal_iterator", align 8, !llfi_index !1353
  %14 = getelementptr inbounds %"class.__gnu_cxx::__normal_iterator", %"class.__gnu_cxx::__normal_iterator"* %4, i32 0, i32 0, !llfi_index !1354
  store %"struct.std::pair"* %0, %"struct.std::pair"** %14, align 8, !llfi_index !1355
  %15 = getelementptr inbounds %"class.__gnu_cxx::__normal_iterator", %"class.__gnu_cxx::__normal_iterator"* %5, i32 0, i32 0, !llfi_index !1356
  store %"struct.std::pair"* %1, %"struct.std::pair"** %15, align 8, !llfi_index !1357
  %16 = getelementptr inbounds %"class.__gnu_cxx::__normal_iterator", %"class.__gnu_cxx::__normal_iterator"* %6, i32 0, i32 0, !llfi_index !1358
  store %"struct.std::pair"* %2, %"struct.std::pair"** %16, align 8, !llfi_index !1359
  %17 = bitcast %"class.__gnu_cxx::__normal_iterator"* %8 to i8*, !llfi_index !1360
  %18 = bitcast %"class.__gnu_cxx::__normal_iterator"* %4 to i8*, !llfi_index !1361
  call void @llvm.memcpy.p0i8.p0i8.i64(i8* align 8 %17, i8* align 8 %18, i64 8, i1 false), !llfi_index !1362
  %19 = bitcast %"class.__gnu_cxx::__normal_iterator"* %9 to i8*, !llfi_index !1363
  %20 = bitcast %"class.__gnu_cxx::__normal_iterator"* %5 to i8*, !llfi_index !1364
  call void @llvm.memcpy.p0i8.p0i8.i64(i8* align 8 %19, i8* align 8 %20, i64 8, i1 false), !llfi_index !1365
  %21 = bitcast %"class.__gnu_cxx::__normal_iterator"* %10 to i8*, !llfi_index !1366
  %22 = bitcast %"class.__gnu_cxx::__normal_iterator"* %6 to i8*, !llfi_index !1367
  call void @llvm.memcpy.p0i8.p0i8.i64(i8* align 8 %21, i8* align 8 %22, i64 8, i1 false), !llfi_index !1368
  %23 = getelementptr inbounds %"class.__gnu_cxx::__normal_iterator", %"class.__gnu_cxx::__normal_iterator"* %8, i32 0, i32 0, !llfi_index !1369
  %24 = load %"struct.std::pair"*, %"struct.std::pair"** %23, align 8, !llfi_index !1370
  %25 = getelementptr inbounds %"class.__gnu_cxx::__normal_iterator", %"class.__gnu_cxx::__normal_iterator"* %9, i32 0, i32 0, !llfi_index !1371
  %26 = load %"struct.std::pair"*, %"struct.std::pair"** %25, align 8, !llfi_index !1372
  %27 = getelementptr inbounds %"class.__gnu_cxx::__normal_iterator", %"class.__gnu_cxx::__normal_iterator"* %10, i32 0, i32 0, !llfi_index !1373
  %28 = load %"struct.std::pair"*, %"struct.std::pair"** %27, align 8, !llfi_index !1374
  call void @_ZSt13__heap_selectIN9__gnu_cxx17__normal_iteratorIPSt4pairIdS2_IddEESt6vectorIS4_SaIS4_EEEENS0_5__ops15_Iter_less_iterEEvT_SC_SC_T0_(%"struct.std::pair"* %24, %"struct.std::pair"* %26, %"struct.std::pair"* %28), !llfi_index !1375
  %29 = bitcast %"class.__gnu_cxx::__normal_iterator"* %12 to i8*, !llfi_index !1376
  %30 = bitcast %"class.__gnu_cxx::__normal_iterator"* %4 to i8*, !llfi_index !1377
  call void @llvm.memcpy.p0i8.p0i8.i64(i8* align 8 %29, i8* align 8 %30, i64 8, i1 false), !llfi_index !1378
  %31 = bitcast %"class.__gnu_cxx::__normal_iterator"* %13 to i8*, !llfi_index !1379
  %32 = bitcast %"class.__gnu_cxx::__normal_iterator"* %5 to i8*, !llfi_index !1380
  call void @llvm.memcpy.p0i8.p0i8.i64(i8* align 8 %31, i8* align 8 %32, i64 8, i1 false), !llfi_index !1381
  %33 = getelementptr inbounds %"class.__gnu_cxx::__normal_iterator", %"class.__gnu_cxx::__normal_iterator"* %12, i32 0, i32 0, !llfi_index !1382
  %34 = load %"struct.std::pair"*, %"struct.std::pair"** %33, align 8, !llfi_index !1383
  %35 = getelementptr inbounds %"class.__gnu_cxx::__normal_iterator", %"class.__gnu_cxx::__normal_iterator"* %13, i32 0, i32 0, !llfi_index !1384
  %36 = load %"struct.std::pair"*, %"struct.std::pair"** %35, align 8, !llfi_index !1385
  call void @_ZSt11__sort_heapIN9__gnu_cxx17__normal_iteratorIPSt4pairIdS2_IddEESt6vectorIS4_SaIS4_EEEENS0_5__ops15_Iter_less_iterEEvT_SC_RT0_(%"struct.std::pair"* %34, %"struct.std::pair"* %36, %"class.std::ios_base::Init"* nonnull align 1 dereferenceable(1) %7), !llfi_index !1386
  ret void, !llfi_index !1387
}

; Function Attrs: mustprogress noinline uwtable
define linkonce_odr dso_local %"struct.std::pair"* @_ZSt27__unguarded_partition_pivotIN9__gnu_cxx17__normal_iteratorIPSt4pairIdS2_IddEESt6vectorIS4_SaIS4_EEEENS0_5__ops15_Iter_less_iterEET_SC_SC_T0_(%"struct.std::pair"* %0, %"struct.std::pair"* %1) #5 comdat {
  %3 = alloca %"class.__gnu_cxx::__normal_iterator", align 8, !llfi_index !1388
  %4 = alloca %"class.__gnu_cxx::__normal_iterator", align 8, !llfi_index !1389
  %5 = alloca %"class.__gnu_cxx::__normal_iterator", align 8, !llfi_index !1390
  %6 = alloca %"class.std::ios_base::Init", align 1, !llfi_index !1391
  %7 = alloca %"class.__gnu_cxx::__normal_iterator", align 8, !llfi_index !1392
  %8 = alloca %"class.__gnu_cxx::__normal_iterator", align 8, !llfi_index !1393
  %9 = alloca %"class.__gnu_cxx::__normal_iterator", align 8, !llfi_index !1394
  %10 = alloca %"class.__gnu_cxx::__normal_iterator", align 8, !llfi_index !1395
  %11 = alloca %"class.__gnu_cxx::__normal_iterator", align 8, !llfi_index !1396
  %12 = alloca %"class.std::ios_base::Init", align 1, !llfi_index !1397
  %13 = alloca %"class.__gnu_cxx::__normal_iterator", align 8, !llfi_index !1398
  %14 = alloca %"class.__gnu_cxx::__normal_iterator", align 8, !llfi_index !1399
  %15 = alloca %"class.__gnu_cxx::__normal_iterator", align 8, !llfi_index !1400
  %16 = alloca %"class.std::ios_base::Init", align 1, !llfi_index !1401
  %17 = getelementptr inbounds %"class.__gnu_cxx::__normal_iterator", %"class.__gnu_cxx::__normal_iterator"* %4, i32 0, i32 0, !llfi_index !1402
  store %"struct.std::pair"* %0, %"struct.std::pair"** %17, align 8, !llfi_index !1403
  %18 = getelementptr inbounds %"class.__gnu_cxx::__normal_iterator", %"class.__gnu_cxx::__normal_iterator"* %5, i32 0, i32 0, !llfi_index !1404
  store %"struct.std::pair"* %1, %"struct.std::pair"** %18, align 8, !llfi_index !1405
  %19 = call i64 @_ZN9__gnu_cxxmiIPSt4pairIdS1_IddEESt6vectorIS3_SaIS3_EEEENS_17__normal_iteratorIT_T0_E15difference_typeERKSB_SE_(%"class.__gnu_cxx::__normal_iterator"* nonnull align 8 dereferenceable(8) %5, %"class.__gnu_cxx::__normal_iterator"* nonnull align 8 dereferenceable(8) %4) #2, !llfi_index !1406
  %20 = sdiv i64 %19, 2, !llfi_index !1407
  %21 = call %"struct.std::pair"* @_ZNK9__gnu_cxx17__normal_iteratorIPSt4pairIdS1_IddEESt6vectorIS3_SaIS3_EEEplEl(%"class.__gnu_cxx::__normal_iterator"* nonnull align 8 dereferenceable(8) %4, i64 %20) #2, !llfi_index !1408
  %22 = getelementptr inbounds %"class.__gnu_cxx::__normal_iterator", %"class.__gnu_cxx::__normal_iterator"* %7, i32 0, i32 0, !llfi_index !1409
  store %"struct.std::pair"* %21, %"struct.std::pair"** %22, align 8, !llfi_index !1410
  %23 = bitcast %"class.__gnu_cxx::__normal_iterator"* %8 to i8*, !llfi_index !1411
  %24 = bitcast %"class.__gnu_cxx::__normal_iterator"* %4 to i8*, !llfi_index !1412
  call void @llvm.memcpy.p0i8.p0i8.i64(i8* align 8 %23, i8* align 8 %24, i64 8, i1 false), !llfi_index !1413
  %25 = call %"struct.std::pair"* @_ZNK9__gnu_cxx17__normal_iteratorIPSt4pairIdS1_IddEESt6vectorIS3_SaIS3_EEEplEl(%"class.__gnu_cxx::__normal_iterator"* nonnull align 8 dereferenceable(8) %4, i64 1) #2, !llfi_index !1414
  %26 = getelementptr inbounds %"class.__gnu_cxx::__normal_iterator", %"class.__gnu_cxx::__normal_iterator"* %9, i32 0, i32 0, !llfi_index !1415
  store %"struct.std::pair"* %25, %"struct.std::pair"** %26, align 8, !llfi_index !1416
  %27 = bitcast %"class.__gnu_cxx::__normal_iterator"* %10 to i8*, !llfi_index !1417
  %28 = bitcast %"class.__gnu_cxx::__normal_iterator"* %7 to i8*, !llfi_index !1418
  call void @llvm.memcpy.p0i8.p0i8.i64(i8* align 8 %27, i8* align 8 %28, i64 8, i1 false), !llfi_index !1419
  %29 = call %"struct.std::pair"* @_ZNK9__gnu_cxx17__normal_iteratorIPSt4pairIdS1_IddEESt6vectorIS3_SaIS3_EEEmiEl(%"class.__gnu_cxx::__normal_iterator"* nonnull align 8 dereferenceable(8) %5, i64 1) #2, !llfi_index !1420
  %30 = getelementptr inbounds %"class.__gnu_cxx::__normal_iterator", %"class.__gnu_cxx::__normal_iterator"* %11, i32 0, i32 0, !llfi_index !1421
  store %"struct.std::pair"* %29, %"struct.std::pair"** %30, align 8, !llfi_index !1422
  %31 = getelementptr inbounds %"class.__gnu_cxx::__normal_iterator", %"class.__gnu_cxx::__normal_iterator"* %8, i32 0, i32 0, !llfi_index !1423
  %32 = load %"struct.std::pair"*, %"struct.std::pair"** %31, align 8, !llfi_index !1424
  %33 = getelementptr inbounds %"class.__gnu_cxx::__normal_iterator", %"class.__gnu_cxx::__normal_iterator"* %9, i32 0, i32 0, !llfi_index !1425
  %34 = load %"struct.std::pair"*, %"struct.std::pair"** %33, align 8, !llfi_index !1426
  %35 = getelementptr inbounds %"class.__gnu_cxx::__normal_iterator", %"class.__gnu_cxx::__normal_iterator"* %10, i32 0, i32 0, !llfi_index !1427
  %36 = load %"struct.std::pair"*, %"struct.std::pair"** %35, align 8, !llfi_index !1428
  %37 = getelementptr inbounds %"class.__gnu_cxx::__normal_iterator", %"class.__gnu_cxx::__normal_iterator"* %11, i32 0, i32 0, !llfi_index !1429
  %38 = load %"struct.std::pair"*, %"struct.std::pair"** %37, align 8, !llfi_index !1430
  call void @_ZSt22__move_median_to_firstIN9__gnu_cxx17__normal_iteratorIPSt4pairIdS2_IddEESt6vectorIS4_SaIS4_EEEENS0_5__ops15_Iter_less_iterEEvT_SC_SC_SC_T0_(%"struct.std::pair"* %32, %"struct.std::pair"* %34, %"struct.std::pair"* %36, %"struct.std::pair"* %38), !llfi_index !1431
  %39 = call %"struct.std::pair"* @_ZNK9__gnu_cxx17__normal_iteratorIPSt4pairIdS1_IddEESt6vectorIS3_SaIS3_EEEplEl(%"class.__gnu_cxx::__normal_iterator"* nonnull align 8 dereferenceable(8) %4, i64 1) #2, !llfi_index !1432
  %40 = getelementptr inbounds %"class.__gnu_cxx::__normal_iterator", %"class.__gnu_cxx::__normal_iterator"* %13, i32 0, i32 0, !llfi_index !1433
  store %"struct.std::pair"* %39, %"struct.std::pair"** %40, align 8, !llfi_index !1434
  %41 = bitcast %"class.__gnu_cxx::__normal_iterator"* %14 to i8*, !llfi_index !1435
  %42 = bitcast %"class.__gnu_cxx::__normal_iterator"* %5 to i8*, !llfi_index !1436
  call void @llvm.memcpy.p0i8.p0i8.i64(i8* align 8 %41, i8* align 8 %42, i64 8, i1 false), !llfi_index !1437
  %43 = bitcast %"class.__gnu_cxx::__normal_iterator"* %15 to i8*, !llfi_index !1438
  %44 = bitcast %"class.__gnu_cxx::__normal_iterator"* %4 to i8*, !llfi_index !1439
  call void @llvm.memcpy.p0i8.p0i8.i64(i8* align 8 %43, i8* align 8 %44, i64 8, i1 false), !llfi_index !1440
  %45 = getelementptr inbounds %"class.__gnu_cxx::__normal_iterator", %"class.__gnu_cxx::__normal_iterator"* %13, i32 0, i32 0, !llfi_index !1441
  %46 = load %"struct.std::pair"*, %"struct.std::pair"** %45, align 8, !llfi_index !1442
  %47 = getelementptr inbounds %"class.__gnu_cxx::__normal_iterator", %"class.__gnu_cxx::__normal_iterator"* %14, i32 0, i32 0, !llfi_index !1443
  %48 = load %"struct.std::pair"*, %"struct.std::pair"** %47, align 8, !llfi_index !1444
  %49 = getelementptr inbounds %"class.__gnu_cxx::__normal_iterator", %"class.__gnu_cxx::__normal_iterator"* %15, i32 0, i32 0, !llfi_index !1445
  %50 = load %"struct.std::pair"*, %"struct.std::pair"** %49, align 8, !llfi_index !1446
  %51 = call %"struct.std::pair"* @_ZSt21__unguarded_partitionIN9__gnu_cxx17__normal_iteratorIPSt4pairIdS2_IddEESt6vectorIS4_SaIS4_EEEENS0_5__ops15_Iter_less_iterEET_SC_SC_SC_T0_(%"struct.std::pair"* %46, %"struct.std::pair"* %48, %"struct.std::pair"* %50), !llfi_index !1447
  %52 = getelementptr inbounds %"class.__gnu_cxx::__normal_iterator", %"class.__gnu_cxx::__normal_iterator"* %3, i32 0, i32 0, !llfi_index !1448
  store %"struct.std::pair"* %51, %"struct.std::pair"** %52, align 8, !llfi_index !1449
  %53 = getelementptr inbounds %"class.__gnu_cxx::__normal_iterator", %"class.__gnu_cxx::__normal_iterator"* %3, i32 0, i32 0, !llfi_index !1450
  %54 = load %"struct.std::pair"*, %"struct.std::pair"** %53, align 8, !llfi_index !1451
  ret %"struct.std::pair"* %54, !llfi_index !1452
}

; Function Attrs: mustprogress noinline nounwind uwtable
define linkonce_odr dso_local %"struct.std::pair"* @_ZNK9__gnu_cxx17__normal_iteratorIPSt4pairIdS1_IddEESt6vectorIS3_SaIS3_EEEmiEl(%"class.__gnu_cxx::__normal_iterator"* nonnull align 8 dereferenceable(8) %0, i64 %1) #4 comdat align 2 {
  %3 = alloca %"class.__gnu_cxx::__normal_iterator", align 8, !llfi_index !1453
  %4 = alloca %"class.__gnu_cxx::__normal_iterator"*, align 8, !llfi_index !1454
  %5 = alloca i64, align 8, !llfi_index !1455
  %6 = alloca %"struct.std::pair"*, align 8, !llfi_index !1456
  store %"class.__gnu_cxx::__normal_iterator"* %0, %"class.__gnu_cxx::__normal_iterator"** %4, align 8, !llfi_index !1457
  store i64 %1, i64* %5, align 8, !llfi_index !1458
  %7 = load %"class.__gnu_cxx::__normal_iterator"*, %"class.__gnu_cxx::__normal_iterator"** %4, align 8, !llfi_index !1459
  %8 = getelementptr inbounds %"class.__gnu_cxx::__normal_iterator", %"class.__gnu_cxx::__normal_iterator"* %7, i32 0, i32 0, !llfi_index !1460
  %9 = load %"struct.std::pair"*, %"struct.std::pair"** %8, align 8, !llfi_index !1461
  %10 = load i64, i64* %5, align 8, !llfi_index !1462
  %11 = sub i64 0, %10, !llfi_index !1463
  %12 = getelementptr inbounds %"struct.std::pair", %"struct.std::pair"* %9, i64 %11, !llfi_index !1464
  store %"struct.std::pair"* %12, %"struct.std::pair"** %6, align 8, !llfi_index !1465
  call void @_ZN9__gnu_cxx17__normal_iteratorIPSt4pairIdS1_IddEESt6vectorIS3_SaIS3_EEEC2ERKS4_(%"class.__gnu_cxx::__normal_iterator"* nonnull align 8 dereferenceable(8) %3, %"struct.std::pair"** nonnull align 8 dereferenceable(8) %6) #2, !llfi_index !1466
  %13 = getelementptr inbounds %"class.__gnu_cxx::__normal_iterator", %"class.__gnu_cxx::__normal_iterator"* %3, i32 0, i32 0, !llfi_index !1467
  %14 = load %"struct.std::pair"*, %"struct.std::pair"** %13, align 8, !llfi_index !1468
  ret %"struct.std::pair"* %14, !llfi_index !1469
}

; Function Attrs: mustprogress noinline uwtable
define linkonce_odr dso_local void @_ZSt22__move_median_to_firstIN9__gnu_cxx17__normal_iteratorIPSt4pairIdS2_IddEESt6vectorIS4_SaIS4_EEEENS0_5__ops15_Iter_less_iterEEvT_SC_SC_SC_T0_(%"struct.std::pair"* %0, %"struct.std::pair"* %1, %"struct.std::pair"* %2, %"struct.std::pair"* %3) #5 comdat {
  %5 = alloca %"class.__gnu_cxx::__normal_iterator", align 8, !llfi_index !1470
  %6 = alloca %"class.__gnu_cxx::__normal_iterator", align 8, !llfi_index !1471
  %7 = alloca %"class.__gnu_cxx::__normal_iterator", align 8, !llfi_index !1472
  %8 = alloca %"class.__gnu_cxx::__normal_iterator", align 8, !llfi_index !1473
  %9 = alloca %"class.std::ios_base::Init", align 1, !llfi_index !1474
  %10 = alloca %"class.__gnu_cxx::__normal_iterator", align 8, !llfi_index !1475
  %11 = alloca %"class.__gnu_cxx::__normal_iterator", align 8, !llfi_index !1476
  %12 = alloca %"class.__gnu_cxx::__normal_iterator", align 8, !llfi_index !1477
  %13 = alloca %"class.__gnu_cxx::__normal_iterator", align 8, !llfi_index !1478
  %14 = alloca %"class.__gnu_cxx::__normal_iterator", align 8, !llfi_index !1479
  %15 = alloca %"class.__gnu_cxx::__normal_iterator", align 8, !llfi_index !1480
  %16 = alloca %"class.__gnu_cxx::__normal_iterator", align 8, !llfi_index !1481
  %17 = alloca %"class.__gnu_cxx::__normal_iterator", align 8, !llfi_index !1482
  %18 = alloca %"class.__gnu_cxx::__normal_iterator", align 8, !llfi_index !1483
  %19 = alloca %"class.__gnu_cxx::__normal_iterator", align 8, !llfi_index !1484
  %20 = alloca %"class.__gnu_cxx::__normal_iterator", align 8, !llfi_index !1485
  %21 = alloca %"class.__gnu_cxx::__normal_iterator", align 8, !llfi_index !1486
  %22 = alloca %"class.__gnu_cxx::__normal_iterator", align 8, !llfi_index !1487
  %23 = alloca %"class.__gnu_cxx::__normal_iterator", align 8, !llfi_index !1488
  %24 = alloca %"class.__gnu_cxx::__normal_iterator", align 8, !llfi_index !1489
  %25 = alloca %"class.__gnu_cxx::__normal_iterator", align 8, !llfi_index !1490
  %26 = alloca %"class.__gnu_cxx::__normal_iterator", align 8, !llfi_index !1491
  %27 = alloca %"class.__gnu_cxx::__normal_iterator", align 8, !llfi_index !1492
  %28 = alloca %"class.__gnu_cxx::__normal_iterator", align 8, !llfi_index !1493
  %29 = alloca %"class.__gnu_cxx::__normal_iterator", align 8, !llfi_index !1494
  %30 = alloca %"class.__gnu_cxx::__normal_iterator", align 8, !llfi_index !1495
  %31 = alloca %"class.__gnu_cxx::__normal_iterator", align 8, !llfi_index !1496
  %32 = getelementptr inbounds %"class.__gnu_cxx::__normal_iterator", %"class.__gnu_cxx::__normal_iterator"* %5, i32 0, i32 0, !llfi_index !1497
  store %"struct.std::pair"* %0, %"struct.std::pair"** %32, align 8, !llfi_index !1498
  %33 = getelementptr inbounds %"class.__gnu_cxx::__normal_iterator", %"class.__gnu_cxx::__normal_iterator"* %6, i32 0, i32 0, !llfi_index !1499
  store %"struct.std::pair"* %1, %"struct.std::pair"** %33, align 8, !llfi_index !1500
  %34 = getelementptr inbounds %"class.__gnu_cxx::__normal_iterator", %"class.__gnu_cxx::__normal_iterator"* %7, i32 0, i32 0, !llfi_index !1501
  store %"struct.std::pair"* %2, %"struct.std::pair"** %34, align 8, !llfi_index !1502
  %35 = getelementptr inbounds %"class.__gnu_cxx::__normal_iterator", %"class.__gnu_cxx::__normal_iterator"* %8, i32 0, i32 0, !llfi_index !1503
  store %"struct.std::pair"* %3, %"struct.std::pair"** %35, align 8, !llfi_index !1504
  %36 = bitcast %"class.__gnu_cxx::__normal_iterator"* %10 to i8*, !llfi_index !1505
  %37 = bitcast %"class.__gnu_cxx::__normal_iterator"* %6 to i8*, !llfi_index !1506
  call void @llvm.memcpy.p0i8.p0i8.i64(i8* align 8 %36, i8* align 8 %37, i64 8, i1 false), !llfi_index !1507
  %38 = bitcast %"class.__gnu_cxx::__normal_iterator"* %11 to i8*, !llfi_index !1508
  %39 = bitcast %"class.__gnu_cxx::__normal_iterator"* %7 to i8*, !llfi_index !1509
  call void @llvm.memcpy.p0i8.p0i8.i64(i8* align 8 %38, i8* align 8 %39, i64 8, i1 false), !llfi_index !1510
  %40 = getelementptr inbounds %"class.__gnu_cxx::__normal_iterator", %"class.__gnu_cxx::__normal_iterator"* %10, i32 0, i32 0, !llfi_index !1511
  %41 = load %"struct.std::pair"*, %"struct.std::pair"** %40, align 8, !llfi_index !1512
  %42 = getelementptr inbounds %"class.__gnu_cxx::__normal_iterator", %"class.__gnu_cxx::__normal_iterator"* %11, i32 0, i32 0, !llfi_index !1513
  %43 = load %"struct.std::pair"*, %"struct.std::pair"** %42, align 8, !llfi_index !1514
  %44 = call zeroext i1 @_ZNK9__gnu_cxx5__ops15_Iter_less_iterclINS_17__normal_iteratorIPSt4pairIdS4_IddEESt6vectorIS6_SaIS6_EEEESB_EEbT_T0_(%"class.std::ios_base::Init"* nonnull align 1 dereferenceable(1) %9, %"struct.std::pair"* %41, %"struct.std::pair"* %43), !llfi_index !1515
  br i1 %44, label %45, label %94, !llfi_index !1516

45:                                               ; preds = %4
  %46 = bitcast %"class.__gnu_cxx::__normal_iterator"* %12 to i8*, !llfi_index !1517
  %47 = bitcast %"class.__gnu_cxx::__normal_iterator"* %7 to i8*, !llfi_index !1518
  call void @llvm.memcpy.p0i8.p0i8.i64(i8* align 8 %46, i8* align 8 %47, i64 8, i1 false), !llfi_index !1519
  %48 = bitcast %"class.__gnu_cxx::__normal_iterator"* %13 to i8*, !llfi_index !1520
  %49 = bitcast %"class.__gnu_cxx::__normal_iterator"* %8 to i8*, !llfi_index !1521
  call void @llvm.memcpy.p0i8.p0i8.i64(i8* align 8 %48, i8* align 8 %49, i64 8, i1 false), !llfi_index !1522
  %50 = getelementptr inbounds %"class.__gnu_cxx::__normal_iterator", %"class.__gnu_cxx::__normal_iterator"* %12, i32 0, i32 0, !llfi_index !1523
  %51 = load %"struct.std::pair"*, %"struct.std::pair"** %50, align 8, !llfi_index !1524
  %52 = getelementptr inbounds %"class.__gnu_cxx::__normal_iterator", %"class.__gnu_cxx::__normal_iterator"* %13, i32 0, i32 0, !llfi_index !1525
  %53 = load %"struct.std::pair"*, %"struct.std::pair"** %52, align 8, !llfi_index !1526
  %54 = call zeroext i1 @_ZNK9__gnu_cxx5__ops15_Iter_less_iterclINS_17__normal_iteratorIPSt4pairIdS4_IddEESt6vectorIS6_SaIS6_EEEESB_EEbT_T0_(%"class.std::ios_base::Init"* nonnull align 1 dereferenceable(1) %9, %"struct.std::pair"* %51, %"struct.std::pair"* %53), !llfi_index !1527
  br i1 %54, label %55, label %64, !llfi_index !1528

55:                                               ; preds = %45
  %56 = bitcast %"class.__gnu_cxx::__normal_iterator"* %14 to i8*, !llfi_index !1529
  %57 = bitcast %"class.__gnu_cxx::__normal_iterator"* %5 to i8*, !llfi_index !1530
  call void @llvm.memcpy.p0i8.p0i8.i64(i8* align 8 %56, i8* align 8 %57, i64 8, i1 false), !llfi_index !1531
  %58 = bitcast %"class.__gnu_cxx::__normal_iterator"* %15 to i8*, !llfi_index !1532
  %59 = bitcast %"class.__gnu_cxx::__normal_iterator"* %7 to i8*, !llfi_index !1533
  call void @llvm.memcpy.p0i8.p0i8.i64(i8* align 8 %58, i8* align 8 %59, i64 8, i1 false), !llfi_index !1534
  %60 = getelementptr inbounds %"class.__gnu_cxx::__normal_iterator", %"class.__gnu_cxx::__normal_iterator"* %14, i32 0, i32 0, !llfi_index !1535
  %61 = load %"struct.std::pair"*, %"struct.std::pair"** %60, align 8, !llfi_index !1536
  %62 = getelementptr inbounds %"class.__gnu_cxx::__normal_iterator", %"class.__gnu_cxx::__normal_iterator"* %15, i32 0, i32 0, !llfi_index !1537
  %63 = load %"struct.std::pair"*, %"struct.std::pair"** %62, align 8, !llfi_index !1538
  call void @_ZSt9iter_swapIN9__gnu_cxx17__normal_iteratorIPSt4pairIdS2_IddEESt6vectorIS4_SaIS4_EEEES9_EvT_T0_(%"struct.std::pair"* %61, %"struct.std::pair"* %63), !llfi_index !1539
  br label %93, !llfi_index !1540

64:                                               ; preds = %45
  %65 = bitcast %"class.__gnu_cxx::__normal_iterator"* %16 to i8*, !llfi_index !1541
  %66 = bitcast %"class.__gnu_cxx::__normal_iterator"* %6 to i8*, !llfi_index !1542
  call void @llvm.memcpy.p0i8.p0i8.i64(i8* align 8 %65, i8* align 8 %66, i64 8, i1 false), !llfi_index !1543
  %67 = bitcast %"class.__gnu_cxx::__normal_iterator"* %17 to i8*, !llfi_index !1544
  %68 = bitcast %"class.__gnu_cxx::__normal_iterator"* %8 to i8*, !llfi_index !1545
  call void @llvm.memcpy.p0i8.p0i8.i64(i8* align 8 %67, i8* align 8 %68, i64 8, i1 false), !llfi_index !1546
  %69 = getelementptr inbounds %"class.__gnu_cxx::__normal_iterator", %"class.__gnu_cxx::__normal_iterator"* %16, i32 0, i32 0, !llfi_index !1547
  %70 = load %"struct.std::pair"*, %"struct.std::pair"** %69, align 8, !llfi_index !1548
  %71 = getelementptr inbounds %"class.__gnu_cxx::__normal_iterator", %"class.__gnu_cxx::__normal_iterator"* %17, i32 0, i32 0, !llfi_index !1549
  %72 = load %"struct.std::pair"*, %"struct.std::pair"** %71, align 8, !llfi_index !1550
  %73 = call zeroext i1 @_ZNK9__gnu_cxx5__ops15_Iter_less_iterclINS_17__normal_iteratorIPSt4pairIdS4_IddEESt6vectorIS6_SaIS6_EEEESB_EEbT_T0_(%"class.std::ios_base::Init"* nonnull align 1 dereferenceable(1) %9, %"struct.std::pair"* %70, %"struct.std::pair"* %72), !llfi_index !1551
  br i1 %73, label %74, label %83, !llfi_index !1552

74:                                               ; preds = %64
  %75 = bitcast %"class.__gnu_cxx::__normal_iterator"* %18 to i8*, !llfi_index !1553
  %76 = bitcast %"class.__gnu_cxx::__normal_iterator"* %5 to i8*, !llfi_index !1554
  call void @llvm.memcpy.p0i8.p0i8.i64(i8* align 8 %75, i8* align 8 %76, i64 8, i1 false), !llfi_index !1555
  %77 = bitcast %"class.__gnu_cxx::__normal_iterator"* %19 to i8*, !llfi_index !1556
  %78 = bitcast %"class.__gnu_cxx::__normal_iterator"* %8 to i8*, !llfi_index !1557
  call void @llvm.memcpy.p0i8.p0i8.i64(i8* align 8 %77, i8* align 8 %78, i64 8, i1 false), !llfi_index !1558
  %79 = getelementptr inbounds %"class.__gnu_cxx::__normal_iterator", %"class.__gnu_cxx::__normal_iterator"* %18, i32 0, i32 0, !llfi_index !1559
  %80 = load %"struct.std::pair"*, %"struct.std::pair"** %79, align 8, !llfi_index !1560
  %81 = getelementptr inbounds %"class.__gnu_cxx::__normal_iterator", %"class.__gnu_cxx::__normal_iterator"* %19, i32 0, i32 0, !llfi_index !1561
  %82 = load %"struct.std::pair"*, %"struct.std::pair"** %81, align 8, !llfi_index !1562
  call void @_ZSt9iter_swapIN9__gnu_cxx17__normal_iteratorIPSt4pairIdS2_IddEESt6vectorIS4_SaIS4_EEEES9_EvT_T0_(%"struct.std::pair"* %80, %"struct.std::pair"* %82), !llfi_index !1563
  br label %92, !llfi_index !1564

83:                                               ; preds = %64
  %84 = bitcast %"class.__gnu_cxx::__normal_iterator"* %20 to i8*, !llfi_index !1565
  %85 = bitcast %"class.__gnu_cxx::__normal_iterator"* %5 to i8*, !llfi_index !1566
  call void @llvm.memcpy.p0i8.p0i8.i64(i8* align 8 %84, i8* align 8 %85, i64 8, i1 false), !llfi_index !1567
  %86 = bitcast %"class.__gnu_cxx::__normal_iterator"* %21 to i8*, !llfi_index !1568
  %87 = bitcast %"class.__gnu_cxx::__normal_iterator"* %6 to i8*, !llfi_index !1569
  call void @llvm.memcpy.p0i8.p0i8.i64(i8* align 8 %86, i8* align 8 %87, i64 8, i1 false), !llfi_index !1570
  %88 = getelementptr inbounds %"class.__gnu_cxx::__normal_iterator", %"class.__gnu_cxx::__normal_iterator"* %20, i32 0, i32 0, !llfi_index !1571
  %89 = load %"struct.std::pair"*, %"struct.std::pair"** %88, align 8, !llfi_index !1572
  %90 = getelementptr inbounds %"class.__gnu_cxx::__normal_iterator", %"class.__gnu_cxx::__normal_iterator"* %21, i32 0, i32 0, !llfi_index !1573
  %91 = load %"struct.std::pair"*, %"struct.std::pair"** %90, align 8, !llfi_index !1574
  call void @_ZSt9iter_swapIN9__gnu_cxx17__normal_iteratorIPSt4pairIdS2_IddEESt6vectorIS4_SaIS4_EEEES9_EvT_T0_(%"struct.std::pair"* %89, %"struct.std::pair"* %91), !llfi_index !1575
  br label %92, !llfi_index !1576

92:                                               ; preds = %83, %74
  br label %93, !llfi_index !1577

93:                                               ; preds = %92, %55
  br label %143, !llfi_index !1578

94:                                               ; preds = %4
  %95 = bitcast %"class.__gnu_cxx::__normal_iterator"* %22 to i8*, !llfi_index !1579
  %96 = bitcast %"class.__gnu_cxx::__normal_iterator"* %6 to i8*, !llfi_index !1580
  call void @llvm.memcpy.p0i8.p0i8.i64(i8* align 8 %95, i8* align 8 %96, i64 8, i1 false), !llfi_index !1581
  %97 = bitcast %"class.__gnu_cxx::__normal_iterator"* %23 to i8*, !llfi_index !1582
  %98 = bitcast %"class.__gnu_cxx::__normal_iterator"* %8 to i8*, !llfi_index !1583
  call void @llvm.memcpy.p0i8.p0i8.i64(i8* align 8 %97, i8* align 8 %98, i64 8, i1 false), !llfi_index !1584
  %99 = getelementptr inbounds %"class.__gnu_cxx::__normal_iterator", %"class.__gnu_cxx::__normal_iterator"* %22, i32 0, i32 0, !llfi_index !1585
  %100 = load %"struct.std::pair"*, %"struct.std::pair"** %99, align 8, !llfi_index !1586
  %101 = getelementptr inbounds %"class.__gnu_cxx::__normal_iterator", %"class.__gnu_cxx::__normal_iterator"* %23, i32 0, i32 0, !llfi_index !1587
  %102 = load %"struct.std::pair"*, %"struct.std::pair"** %101, align 8, !llfi_index !1588
  %103 = call zeroext i1 @_ZNK9__gnu_cxx5__ops15_Iter_less_iterclINS_17__normal_iteratorIPSt4pairIdS4_IddEESt6vectorIS6_SaIS6_EEEESB_EEbT_T0_(%"class.std::ios_base::Init"* nonnull align 1 dereferenceable(1) %9, %"struct.std::pair"* %100, %"struct.std::pair"* %102), !llfi_index !1589
  br i1 %103, label %104, label %113, !llfi_index !1590

104:                                              ; preds = %94
  %105 = bitcast %"class.__gnu_cxx::__normal_iterator"* %24 to i8*, !llfi_index !1591
  %106 = bitcast %"class.__gnu_cxx::__normal_iterator"* %5 to i8*, !llfi_index !1592
  call void @llvm.memcpy.p0i8.p0i8.i64(i8* align 8 %105, i8* align 8 %106, i64 8, i1 false), !llfi_index !1593
  %107 = bitcast %"class.__gnu_cxx::__normal_iterator"* %25 to i8*, !llfi_index !1594
  %108 = bitcast %"class.__gnu_cxx::__normal_iterator"* %6 to i8*, !llfi_index !1595
  call void @llvm.memcpy.p0i8.p0i8.i64(i8* align 8 %107, i8* align 8 %108, i64 8, i1 false), !llfi_index !1596
  %109 = getelementptr inbounds %"class.__gnu_cxx::__normal_iterator", %"class.__gnu_cxx::__normal_iterator"* %24, i32 0, i32 0, !llfi_index !1597
  %110 = load %"struct.std::pair"*, %"struct.std::pair"** %109, align 8, !llfi_index !1598
  %111 = getelementptr inbounds %"class.__gnu_cxx::__normal_iterator", %"class.__gnu_cxx::__normal_iterator"* %25, i32 0, i32 0, !llfi_index !1599
  %112 = load %"struct.std::pair"*, %"struct.std::pair"** %111, align 8, !llfi_index !1600
  call void @_ZSt9iter_swapIN9__gnu_cxx17__normal_iteratorIPSt4pairIdS2_IddEESt6vectorIS4_SaIS4_EEEES9_EvT_T0_(%"struct.std::pair"* %110, %"struct.std::pair"* %112), !llfi_index !1601
  br label %142, !llfi_index !1602

113:                                              ; preds = %94
  %114 = bitcast %"class.__gnu_cxx::__normal_iterator"* %26 to i8*, !llfi_index !1603
  %115 = bitcast %"class.__gnu_cxx::__normal_iterator"* %7 to i8*, !llfi_index !1604
  call void @llvm.memcpy.p0i8.p0i8.i64(i8* align 8 %114, i8* align 8 %115, i64 8, i1 false), !llfi_index !1605
  %116 = bitcast %"class.__gnu_cxx::__normal_iterator"* %27 to i8*, !llfi_index !1606
  %117 = bitcast %"class.__gnu_cxx::__normal_iterator"* %8 to i8*, !llfi_index !1607
  call void @llvm.memcpy.p0i8.p0i8.i64(i8* align 8 %116, i8* align 8 %117, i64 8, i1 false), !llfi_index !1608
  %118 = getelementptr inbounds %"class.__gnu_cxx::__normal_iterator", %"class.__gnu_cxx::__normal_iterator"* %26, i32 0, i32 0, !llfi_index !1609
  %119 = load %"struct.std::pair"*, %"struct.std::pair"** %118, align 8, !llfi_index !1610
  %120 = getelementptr inbounds %"class.__gnu_cxx::__normal_iterator", %"class.__gnu_cxx::__normal_iterator"* %27, i32 0, i32 0, !llfi_index !1611
  %121 = load %"struct.std::pair"*, %"struct.std::pair"** %120, align 8, !llfi_index !1612
  %122 = call zeroext i1 @_ZNK9__gnu_cxx5__ops15_Iter_less_iterclINS_17__normal_iteratorIPSt4pairIdS4_IddEESt6vectorIS6_SaIS6_EEEESB_EEbT_T0_(%"class.std::ios_base::Init"* nonnull align 1 dereferenceable(1) %9, %"struct.std::pair"* %119, %"struct.std::pair"* %121), !llfi_index !1613
  br i1 %122, label %123, label %132, !llfi_index !1614

123:                                              ; preds = %113
  %124 = bitcast %"class.__gnu_cxx::__normal_iterator"* %28 to i8*, !llfi_index !1615
  %125 = bitcast %"class.__gnu_cxx::__normal_iterator"* %5 to i8*, !llfi_index !1616
  call void @llvm.memcpy.p0i8.p0i8.i64(i8* align 8 %124, i8* align 8 %125, i64 8, i1 false), !llfi_index !1617
  %126 = bitcast %"class.__gnu_cxx::__normal_iterator"* %29 to i8*, !llfi_index !1618
  %127 = bitcast %"class.__gnu_cxx::__normal_iterator"* %8 to i8*, !llfi_index !1619
  call void @llvm.memcpy.p0i8.p0i8.i64(i8* align 8 %126, i8* align 8 %127, i64 8, i1 false), !llfi_index !1620
  %128 = getelementptr inbounds %"class.__gnu_cxx::__normal_iterator", %"class.__gnu_cxx::__normal_iterator"* %28, i32 0, i32 0, !llfi_index !1621
  %129 = load %"struct.std::pair"*, %"struct.std::pair"** %128, align 8, !llfi_index !1622
  %130 = getelementptr inbounds %"class.__gnu_cxx::__normal_iterator", %"class.__gnu_cxx::__normal_iterator"* %29, i32 0, i32 0, !llfi_index !1623
  %131 = load %"struct.std::pair"*, %"struct.std::pair"** %130, align 8, !llfi_index !1624
  call void @_ZSt9iter_swapIN9__gnu_cxx17__normal_iteratorIPSt4pairIdS2_IddEESt6vectorIS4_SaIS4_EEEES9_EvT_T0_(%"struct.std::pair"* %129, %"struct.std::pair"* %131), !llfi_index !1625
  br label %141, !llfi_index !1626

132:                                              ; preds = %113
  %133 = bitcast %"class.__gnu_cxx::__normal_iterator"* %30 to i8*, !llfi_index !1627
  %134 = bitcast %"class.__gnu_cxx::__normal_iterator"* %5 to i8*, !llfi_index !1628
  call void @llvm.memcpy.p0i8.p0i8.i64(i8* align 8 %133, i8* align 8 %134, i64 8, i1 false), !llfi_index !1629
  %135 = bitcast %"class.__gnu_cxx::__normal_iterator"* %31 to i8*, !llfi_index !1630
  %136 = bitcast %"class.__gnu_cxx::__normal_iterator"* %7 to i8*, !llfi_index !1631
  call void @llvm.memcpy.p0i8.p0i8.i64(i8* align 8 %135, i8* align 8 %136, i64 8, i1 false), !llfi_index !1632
  %137 = getelementptr inbounds %"class.__gnu_cxx::__normal_iterator", %"class.__gnu_cxx::__normal_iterator"* %30, i32 0, i32 0, !llfi_index !1633
  %138 = load %"struct.std::pair"*, %"struct.std::pair"** %137, align 8, !llfi_index !1634
  %139 = getelementptr inbounds %"class.__gnu_cxx::__normal_iterator", %"class.__gnu_cxx::__normal_iterator"* %31, i32 0, i32 0, !llfi_index !1635
  %140 = load %"struct.std::pair"*, %"struct.std::pair"** %139, align 8, !llfi_index !1636
  call void @_ZSt9iter_swapIN9__gnu_cxx17__normal_iteratorIPSt4pairIdS2_IddEESt6vectorIS4_SaIS4_EEEES9_EvT_T0_(%"struct.std::pair"* %138, %"struct.std::pair"* %140), !llfi_index !1637
  br label %141, !llfi_index !1638

141:                                              ; preds = %132, %123
  br label %142, !llfi_index !1639

142:                                              ; preds = %141, %104
  br label %143, !llfi_index !1640

143:                                              ; preds = %142, %93
  ret void, !llfi_index !1641
}

; Function Attrs: mustprogress noinline uwtable
define linkonce_odr dso_local %"struct.std::pair"* @_ZSt21__unguarded_partitionIN9__gnu_cxx17__normal_iteratorIPSt4pairIdS2_IddEESt6vectorIS4_SaIS4_EEEENS0_5__ops15_Iter_less_iterEET_SC_SC_SC_T0_(%"struct.std::pair"* %0, %"struct.std::pair"* %1, %"struct.std::pair"* %2) #5 comdat {
  %4 = alloca %"class.__gnu_cxx::__normal_iterator", align 8, !llfi_index !1642
  %5 = alloca %"class.__gnu_cxx::__normal_iterator", align 8, !llfi_index !1643
  %6 = alloca %"class.__gnu_cxx::__normal_iterator", align 8, !llfi_index !1644
  %7 = alloca %"class.__gnu_cxx::__normal_iterator", align 8, !llfi_index !1645
  %8 = alloca %"class.std::ios_base::Init", align 1, !llfi_index !1646
  %9 = alloca %"class.__gnu_cxx::__normal_iterator", align 8, !llfi_index !1647
  %10 = alloca %"class.__gnu_cxx::__normal_iterator", align 8, !llfi_index !1648
  %11 = alloca %"class.__gnu_cxx::__normal_iterator", align 8, !llfi_index !1649
  %12 = alloca %"class.__gnu_cxx::__normal_iterator", align 8, !llfi_index !1650
  %13 = alloca %"class.__gnu_cxx::__normal_iterator", align 8, !llfi_index !1651
  %14 = alloca %"class.__gnu_cxx::__normal_iterator", align 8, !llfi_index !1652
  %15 = getelementptr inbounds %"class.__gnu_cxx::__normal_iterator", %"class.__gnu_cxx::__normal_iterator"* %5, i32 0, i32 0, !llfi_index !1653
  store %"struct.std::pair"* %0, %"struct.std::pair"** %15, align 8, !llfi_index !1654
  %16 = getelementptr inbounds %"class.__gnu_cxx::__normal_iterator", %"class.__gnu_cxx::__normal_iterator"* %6, i32 0, i32 0, !llfi_index !1655
  store %"struct.std::pair"* %1, %"struct.std::pair"** %16, align 8, !llfi_index !1656
  %17 = getelementptr inbounds %"class.__gnu_cxx::__normal_iterator", %"class.__gnu_cxx::__normal_iterator"* %7, i32 0, i32 0, !llfi_index !1657
  store %"struct.std::pair"* %2, %"struct.std::pair"** %17, align 8, !llfi_index !1658
  br label %18, !llfi_index !1659

18:                                               ; preds = %52, %3
  br label %19, !llfi_index !1660

19:                                               ; preds = %29, %18
  %20 = bitcast %"class.__gnu_cxx::__normal_iterator"* %9 to i8*, !llfi_index !1661
  %21 = bitcast %"class.__gnu_cxx::__normal_iterator"* %5 to i8*, !llfi_index !1662
  call void @llvm.memcpy.p0i8.p0i8.i64(i8* align 8 %20, i8* align 8 %21, i64 8, i1 false), !llfi_index !1663
  %22 = bitcast %"class.__gnu_cxx::__normal_iterator"* %10 to i8*, !llfi_index !1664
  %23 = bitcast %"class.__gnu_cxx::__normal_iterator"* %7 to i8*, !llfi_index !1665
  call void @llvm.memcpy.p0i8.p0i8.i64(i8* align 8 %22, i8* align 8 %23, i64 8, i1 false), !llfi_index !1666
  %24 = getelementptr inbounds %"class.__gnu_cxx::__normal_iterator", %"class.__gnu_cxx::__normal_iterator"* %9, i32 0, i32 0, !llfi_index !1667
  %25 = load %"struct.std::pair"*, %"struct.std::pair"** %24, align 8, !llfi_index !1668
  %26 = getelementptr inbounds %"class.__gnu_cxx::__normal_iterator", %"class.__gnu_cxx::__normal_iterator"* %10, i32 0, i32 0, !llfi_index !1669
  %27 = load %"struct.std::pair"*, %"struct.std::pair"** %26, align 8, !llfi_index !1670
  %28 = call zeroext i1 @_ZNK9__gnu_cxx5__ops15_Iter_less_iterclINS_17__normal_iteratorIPSt4pairIdS4_IddEESt6vectorIS6_SaIS6_EEEESB_EEbT_T0_(%"class.std::ios_base::Init"* nonnull align 1 dereferenceable(1) %8, %"struct.std::pair"* %25, %"struct.std::pair"* %27), !llfi_index !1671
  br i1 %28, label %29, label %31, !llfi_index !1672

29:                                               ; preds = %19
  %30 = call nonnull align 8 dereferenceable(8) %"class.__gnu_cxx::__normal_iterator"* @_ZN9__gnu_cxx17__normal_iteratorIPSt4pairIdS1_IddEESt6vectorIS3_SaIS3_EEEppEv(%"class.__gnu_cxx::__normal_iterator"* nonnull align 8 dereferenceable(8) %5) #2, !llfi_index !1673
  br label %19, !llvm.loop !1674, !llfi_index !1675

31:                                               ; preds = %19
  %32 = call nonnull align 8 dereferenceable(8) %"class.__gnu_cxx::__normal_iterator"* @_ZN9__gnu_cxx17__normal_iteratorIPSt4pairIdS1_IddEESt6vectorIS3_SaIS3_EEEmmEv(%"class.__gnu_cxx::__normal_iterator"* nonnull align 8 dereferenceable(8) %6) #2, !llfi_index !1676
  br label %33, !llfi_index !1677

33:                                               ; preds = %43, %31
  %34 = bitcast %"class.__gnu_cxx::__normal_iterator"* %11 to i8*, !llfi_index !1678
  %35 = bitcast %"class.__gnu_cxx::__normal_iterator"* %7 to i8*, !llfi_index !1679
  call void @llvm.memcpy.p0i8.p0i8.i64(i8* align 8 %34, i8* align 8 %35, i64 8, i1 false), !llfi_index !1680
  %36 = bitcast %"class.__gnu_cxx::__normal_iterator"* %12 to i8*, !llfi_index !1681
  %37 = bitcast %"class.__gnu_cxx::__normal_iterator"* %6 to i8*, !llfi_index !1682
  call void @llvm.memcpy.p0i8.p0i8.i64(i8* align 8 %36, i8* align 8 %37, i64 8, i1 false), !llfi_index !1683
  %38 = getelementptr inbounds %"class.__gnu_cxx::__normal_iterator", %"class.__gnu_cxx::__normal_iterator"* %11, i32 0, i32 0, !llfi_index !1684
  %39 = load %"struct.std::pair"*, %"struct.std::pair"** %38, align 8, !llfi_index !1685
  %40 = getelementptr inbounds %"class.__gnu_cxx::__normal_iterator", %"class.__gnu_cxx::__normal_iterator"* %12, i32 0, i32 0, !llfi_index !1686
  %41 = load %"struct.std::pair"*, %"struct.std::pair"** %40, align 8, !llfi_index !1687
  %42 = call zeroext i1 @_ZNK9__gnu_cxx5__ops15_Iter_less_iterclINS_17__normal_iteratorIPSt4pairIdS4_IddEESt6vectorIS6_SaIS6_EEEESB_EEbT_T0_(%"class.std::ios_base::Init"* nonnull align 1 dereferenceable(1) %8, %"struct.std::pair"* %39, %"struct.std::pair"* %41), !llfi_index !1688
  br i1 %42, label %43, label %45, !llfi_index !1689

43:                                               ; preds = %33
  %44 = call nonnull align 8 dereferenceable(8) %"class.__gnu_cxx::__normal_iterator"* @_ZN9__gnu_cxx17__normal_iteratorIPSt4pairIdS1_IddEESt6vectorIS3_SaIS3_EEEmmEv(%"class.__gnu_cxx::__normal_iterator"* nonnull align 8 dereferenceable(8) %6) #2, !llfi_index !1690
  br label %33, !llvm.loop !1691, !llfi_index !1692

45:                                               ; preds = %33
  %46 = call zeroext i1 @_ZN9__gnu_cxxltIPSt4pairIdS1_IddEESt6vectorIS3_SaIS3_EEEEbRKNS_17__normal_iteratorIT_T0_EESD_(%"class.__gnu_cxx::__normal_iterator"* nonnull align 8 dereferenceable(8) %5, %"class.__gnu_cxx::__normal_iterator"* nonnull align 8 dereferenceable(8) %6) #2, !llfi_index !1693
  br i1 %46, label %52, label %47, !llfi_index !1694

47:                                               ; preds = %45
  %48 = bitcast %"class.__gnu_cxx::__normal_iterator"* %4 to i8*, !llfi_index !1695
  %49 = bitcast %"class.__gnu_cxx::__normal_iterator"* %5 to i8*, !llfi_index !1696
  call void @llvm.memcpy.p0i8.p0i8.i64(i8* align 8 %48, i8* align 8 %49, i64 8, i1 false), !llfi_index !1697
  %50 = getelementptr inbounds %"class.__gnu_cxx::__normal_iterator", %"class.__gnu_cxx::__normal_iterator"* %4, i32 0, i32 0, !llfi_index !1698
  %51 = load %"struct.std::pair"*, %"struct.std::pair"** %50, align 8, !llfi_index !1699
  ret %"struct.std::pair"* %51, !llfi_index !1700

52:                                               ; preds = %45
  %53 = bitcast %"class.__gnu_cxx::__normal_iterator"* %13 to i8*, !llfi_index !1701
  %54 = bitcast %"class.__gnu_cxx::__normal_iterator"* %5 to i8*, !llfi_index !1702
  call void @llvm.memcpy.p0i8.p0i8.i64(i8* align 8 %53, i8* align 8 %54, i64 8, i1 false), !llfi_index !1703
  %55 = bitcast %"class.__gnu_cxx::__normal_iterator"* %14 to i8*, !llfi_index !1704
  %56 = bitcast %"class.__gnu_cxx::__normal_iterator"* %6 to i8*, !llfi_index !1705
  call void @llvm.memcpy.p0i8.p0i8.i64(i8* align 8 %55, i8* align 8 %56, i64 8, i1 false), !llfi_index !1706
  %57 = getelementptr inbounds %"class.__gnu_cxx::__normal_iterator", %"class.__gnu_cxx::__normal_iterator"* %13, i32 0, i32 0, !llfi_index !1707
  %58 = load %"struct.std::pair"*, %"struct.std::pair"** %57, align 8, !llfi_index !1708
  %59 = getelementptr inbounds %"class.__gnu_cxx::__normal_iterator", %"class.__gnu_cxx::__normal_iterator"* %14, i32 0, i32 0, !llfi_index !1709
  %60 = load %"struct.std::pair"*, %"struct.std::pair"** %59, align 8, !llfi_index !1710
  call void @_ZSt9iter_swapIN9__gnu_cxx17__normal_iteratorIPSt4pairIdS2_IddEESt6vectorIS4_SaIS4_EEEES9_EvT_T0_(%"struct.std::pair"* %58, %"struct.std::pair"* %60), !llfi_index !1711
  %61 = call nonnull align 8 dereferenceable(8) %"class.__gnu_cxx::__normal_iterator"* @_ZN9__gnu_cxx17__normal_iteratorIPSt4pairIdS1_IddEESt6vectorIS3_SaIS3_EEEppEv(%"class.__gnu_cxx::__normal_iterator"* nonnull align 8 dereferenceable(8) %5) #2, !llfi_index !1712
  br label %18, !llvm.loop !1713, !llfi_index !1714
}

; Function Attrs: mustprogress noinline nounwind uwtable
define linkonce_odr dso_local zeroext i1 @_ZN9__gnu_cxxltIPSt4pairIdS1_IddEESt6vectorIS3_SaIS3_EEEEbRKNS_17__normal_iteratorIT_T0_EESD_(%"class.__gnu_cxx::__normal_iterator"* nonnull align 8 dereferenceable(8) %0, %"class.__gnu_cxx::__normal_iterator"* nonnull align 8 dereferenceable(8) %1) #4 comdat {
  %3 = alloca %"class.__gnu_cxx::__normal_iterator"*, align 8, !llfi_index !1715
  %4 = alloca %"class.__gnu_cxx::__normal_iterator"*, align 8, !llfi_index !1716
  store %"class.__gnu_cxx::__normal_iterator"* %0, %"class.__gnu_cxx::__normal_iterator"** %3, align 8, !llfi_index !1717
  store %"class.__gnu_cxx::__normal_iterator"* %1, %"class.__gnu_cxx::__normal_iterator"** %4, align 8, !llfi_index !1718
  %5 = load %"class.__gnu_cxx::__normal_iterator"*, %"class.__gnu_cxx::__normal_iterator"** %3, align 8, !llfi_index !1719
  %6 = call nonnull align 8 dereferenceable(8) %"struct.std::pair"** @_ZNK9__gnu_cxx17__normal_iteratorIPSt4pairIdS1_IddEESt6vectorIS3_SaIS3_EEE4baseEv(%"class.__gnu_cxx::__normal_iterator"* nonnull align 8 dereferenceable(8) %5) #2, !llfi_index !1720
  %7 = load %"struct.std::pair"*, %"struct.std::pair"** %6, align 8, !llfi_index !1721
  %8 = load %"class.__gnu_cxx::__normal_iterator"*, %"class.__gnu_cxx::__normal_iterator"** %4, align 8, !llfi_index !1722
  %9 = call nonnull align 8 dereferenceable(8) %"struct.std::pair"** @_ZNK9__gnu_cxx17__normal_iteratorIPSt4pairIdS1_IddEESt6vectorIS3_SaIS3_EEE4baseEv(%"class.__gnu_cxx::__normal_iterator"* nonnull align 8 dereferenceable(8) %8) #2, !llfi_index !1723
  %10 = load %"struct.std::pair"*, %"struct.std::pair"** %9, align 8, !llfi_index !1724
  %11 = icmp ult %"struct.std::pair"* %7, %10, !llfi_index !1725
  ret i1 %11, !llfi_index !1726
}

; Function Attrs: mustprogress noinline nounwind uwtable
define linkonce_odr dso_local void @_ZSt9iter_swapIN9__gnu_cxx17__normal_iteratorIPSt4pairIdS2_IddEESt6vectorIS4_SaIS4_EEEES9_EvT_T0_(%"struct.std::pair"* %0, %"struct.std::pair"* %1) #4 comdat {
  %3 = alloca %"class.__gnu_cxx::__normal_iterator", align 8, !llfi_index !1727
  %4 = alloca %"class.__gnu_cxx::__normal_iterator", align 8, !llfi_index !1728
  %5 = getelementptr inbounds %"class.__gnu_cxx::__normal_iterator", %"class.__gnu_cxx::__normal_iterator"* %3, i32 0, i32 0, !llfi_index !1729
  store %"struct.std::pair"* %0, %"struct.std::pair"** %5, align 8, !llfi_index !1730
  %6 = getelementptr inbounds %"class.__gnu_cxx::__normal_iterator", %"class.__gnu_cxx::__normal_iterator"* %4, i32 0, i32 0, !llfi_index !1731
  store %"struct.std::pair"* %1, %"struct.std::pair"** %6, align 8, !llfi_index !1732
  %7 = call nonnull align 8 dereferenceable(24) %"struct.std::pair"* @_ZNK9__gnu_cxx17__normal_iteratorIPSt4pairIdS1_IddEESt6vectorIS3_SaIS3_EEEdeEv(%"class.__gnu_cxx::__normal_iterator"* nonnull align 8 dereferenceable(8) %3) #2, !llfi_index !1733
  %8 = call nonnull align 8 dereferenceable(24) %"struct.std::pair"* @_ZNK9__gnu_cxx17__normal_iteratorIPSt4pairIdS1_IddEESt6vectorIS3_SaIS3_EEEdeEv(%"class.__gnu_cxx::__normal_iterator"* nonnull align 8 dereferenceable(8) %4) #2, !llfi_index !1734
  call void @_ZSt4swapIdSt4pairIddEENSt9enable_ifIXsr6__and_ISt14__is_swappableIT_ES3_IT0_EEE5valueEvE4typeERS0_IS4_S6_ESB_(%"struct.std::pair"* nonnull align 8 dereferenceable(24) %7, %"struct.std::pair"* nonnull align 8 dereferenceable(24) %8) #2, !llfi_index !1735
  ret void, !llfi_index !1736
}

; Function Attrs: mustprogress noinline nounwind uwtable
define linkonce_odr dso_local void @_ZSt4swapIdSt4pairIddEENSt9enable_ifIXsr6__and_ISt14__is_swappableIT_ES3_IT0_EEE5valueEvE4typeERS0_IS4_S6_ESB_(%"struct.std::pair"* nonnull align 8 dereferenceable(24) %0, %"struct.std::pair"* nonnull align 8 dereferenceable(24) %1) #4 comdat {
  %3 = alloca %"struct.std::pair"*, align 8, !llfi_index !1737
  %4 = alloca %"struct.std::pair"*, align 8, !llfi_index !1738
  store %"struct.std::pair"* %0, %"struct.std::pair"** %3, align 8, !llfi_index !1739
  store %"struct.std::pair"* %1, %"struct.std::pair"** %4, align 8, !llfi_index !1740
  %5 = load %"struct.std::pair"*, %"struct.std::pair"** %3, align 8, !llfi_index !1741
  %6 = load %"struct.std::pair"*, %"struct.std::pair"** %4, align 8, !llfi_index !1742
  call void @_ZNSt4pairIdS_IddEE4swapERS1_(%"struct.std::pair"* nonnull align 8 dereferenceable(24) %5, %"struct.std::pair"* nonnull align 8 dereferenceable(24) %6) #2, !llfi_index !1743
  ret void, !llfi_index !1744
}

; Function Attrs: mustprogress noinline nounwind uwtable
define linkonce_odr dso_local void @_ZNSt4pairIdS_IddEE4swapERS1_(%"struct.std::pair"* nonnull align 8 dereferenceable(24) %0, %"struct.std::pair"* nonnull align 8 dereferenceable(24) %1) #4 comdat align 2 {
  %3 = alloca %"struct.std::pair"*, align 8, !llfi_index !1745
  %4 = alloca %"struct.std::pair"*, align 8, !llfi_index !1746
  store %"struct.std::pair"* %0, %"struct.std::pair"** %3, align 8, !llfi_index !1747
  store %"struct.std::pair"* %1, %"struct.std::pair"** %4, align 8, !llfi_index !1748
  %5 = load %"struct.std::pair"*, %"struct.std::pair"** %3, align 8, !llfi_index !1749
  %6 = getelementptr inbounds %"struct.std::pair", %"struct.std::pair"* %5, i32 0, i32 0, !llfi_index !1750
  %7 = load %"struct.std::pair"*, %"struct.std::pair"** %4, align 8, !llfi_index !1751
  %8 = getelementptr inbounds %"struct.std::pair", %"struct.std::pair"* %7, i32 0, i32 0, !llfi_index !1752
  call void @_ZSt4swapIdENSt9enable_ifIXsr6__and_ISt6__not_ISt15__is_tuple_likeIT_EESt21is_move_constructibleIS3_ESt18is_move_assignableIS3_EEE5valueEvE4typeERS3_SC_(double* nonnull align 8 dereferenceable(8) %6, double* nonnull align 8 dereferenceable(8) %8) #2, !llfi_index !1753
  %9 = getelementptr inbounds %"struct.std::pair", %"struct.std::pair"* %5, i32 0, i32 1, !llfi_index !1754
  %10 = load %"struct.std::pair"*, %"struct.std::pair"** %4, align 8, !llfi_index !1755
  %11 = getelementptr inbounds %"struct.std::pair", %"struct.std::pair"* %10, i32 0, i32 1, !llfi_index !1756
  call void @_ZSt4swapIddENSt9enable_ifIXsr6__and_ISt14__is_swappableIT_ES1_IT0_EEE5valueEvE4typeERSt4pairIS2_S4_ESA_(%"struct.std::pair.5"* nonnull align 8 dereferenceable(16) %9, %"struct.std::pair.5"* nonnull align 8 dereferenceable(16) %11) #2, !llfi_index !1757
  ret void, !llfi_index !1758
}

; Function Attrs: mustprogress noinline nounwind uwtable
define linkonce_odr dso_local void @_ZSt4swapIdENSt9enable_ifIXsr6__and_ISt6__not_ISt15__is_tuple_likeIT_EESt21is_move_constructibleIS3_ESt18is_move_assignableIS3_EEE5valueEvE4typeERS3_SC_(double* nonnull align 8 dereferenceable(8) %0, double* nonnull align 8 dereferenceable(8) %1) #4 comdat {
  %3 = alloca double*, align 8, !llfi_index !1759
  %4 = alloca double*, align 8, !llfi_index !1760
  %5 = alloca double, align 8, !llfi_index !1761
  store double* %0, double** %3, align 8, !llfi_index !1762
  store double* %1, double** %4, align 8, !llfi_index !1763
  %6 = load double*, double** %3, align 8, !llfi_index !1764
  %7 = call nonnull align 8 dereferenceable(8) double* @_ZSt4moveIRdEONSt16remove_referenceIT_E4typeEOS2_(double* nonnull align 8 dereferenceable(8) %6) #2, !llfi_index !1765
  %8 = load double, double* %7, align 8, !llfi_index !1766
  store double %8, double* %5, align 8, !llfi_index !1767
  %9 = load double*, double** %4, align 8, !llfi_index !1768
  %10 = call nonnull align 8 dereferenceable(8) double* @_ZSt4moveIRdEONSt16remove_referenceIT_E4typeEOS2_(double* nonnull align 8 dereferenceable(8) %9) #2, !llfi_index !1769
  %11 = load double, double* %10, align 8, !llfi_index !1770
  %12 = load double*, double** %3, align 8, !llfi_index !1771
  store double %11, double* %12, align 8, !llfi_index !1772
  %13 = call nonnull align 8 dereferenceable(8) double* @_ZSt4moveIRdEONSt16remove_referenceIT_E4typeEOS2_(double* nonnull align 8 dereferenceable(8) %5) #2, !llfi_index !1773
  %14 = load double, double* %13, align 8, !llfi_index !1774
  %15 = load double*, double** %4, align 8, !llfi_index !1775
  store double %14, double* %15, align 8, !llfi_index !1776
  ret void, !llfi_index !1777
}

; Function Attrs: mustprogress noinline nounwind uwtable
define linkonce_odr dso_local void @_ZSt4swapIddENSt9enable_ifIXsr6__and_ISt14__is_swappableIT_ES1_IT0_EEE5valueEvE4typeERSt4pairIS2_S4_ESA_(%"struct.std::pair.5"* nonnull align 8 dereferenceable(16) %0, %"struct.std::pair.5"* nonnull align 8 dereferenceable(16) %1) #4 comdat {
  %3 = alloca %"struct.std::pair.5"*, align 8, !llfi_index !1778
  %4 = alloca %"struct.std::pair.5"*, align 8, !llfi_index !1779
  store %"struct.std::pair.5"* %0, %"struct.std::pair.5"** %3, align 8, !llfi_index !1780
  store %"struct.std::pair.5"* %1, %"struct.std::pair.5"** %4, align 8, !llfi_index !1781
  %5 = load %"struct.std::pair.5"*, %"struct.std::pair.5"** %3, align 8, !llfi_index !1782
  %6 = load %"struct.std::pair.5"*, %"struct.std::pair.5"** %4, align 8, !llfi_index !1783
  call void @_ZNSt4pairIddE4swapERS0_(%"struct.std::pair.5"* nonnull align 8 dereferenceable(16) %5, %"struct.std::pair.5"* nonnull align 8 dereferenceable(16) %6) #2, !llfi_index !1784
  ret void, !llfi_index !1785
}

; Function Attrs: mustprogress noinline nounwind uwtable
define linkonce_odr dso_local void @_ZNSt4pairIddE4swapERS0_(%"struct.std::pair.5"* nonnull align 8 dereferenceable(16) %0, %"struct.std::pair.5"* nonnull align 8 dereferenceable(16) %1) #4 comdat align 2 {
  %3 = alloca %"struct.std::pair.5"*, align 8, !llfi_index !1786
  %4 = alloca %"struct.std::pair.5"*, align 8, !llfi_index !1787
  store %"struct.std::pair.5"* %0, %"struct.std::pair.5"** %3, align 8, !llfi_index !1788
  store %"struct.std::pair.5"* %1, %"struct.std::pair.5"** %4, align 8, !llfi_index !1789
  %5 = load %"struct.std::pair.5"*, %"struct.std::pair.5"** %3, align 8, !llfi_index !1790
  %6 = getelementptr inbounds %"struct.std::pair.5", %"struct.std::pair.5"* %5, i32 0, i32 0, !llfi_index !1791
  %7 = load %"struct.std::pair.5"*, %"struct.std::pair.5"** %4, align 8, !llfi_index !1792
  %8 = getelementptr inbounds %"struct.std::pair.5", %"struct.std::pair.5"* %7, i32 0, i32 0, !llfi_index !1793
  call void @_ZSt4swapIdENSt9enable_ifIXsr6__and_ISt6__not_ISt15__is_tuple_likeIT_EESt21is_move_constructibleIS3_ESt18is_move_assignableIS3_EEE5valueEvE4typeERS3_SC_(double* nonnull align 8 dereferenceable(8) %6, double* nonnull align 8 dereferenceable(8) %8) #2, !llfi_index !1794
  %9 = getelementptr inbounds %"struct.std::pair.5", %"struct.std::pair.5"* %5, i32 0, i32 1, !llfi_index !1795
  %10 = load %"struct.std::pair.5"*, %"struct.std::pair.5"** %4, align 8, !llfi_index !1796
  %11 = getelementptr inbounds %"struct.std::pair.5", %"struct.std::pair.5"* %10, i32 0, i32 1, !llfi_index !1797
  call void @_ZSt4swapIdENSt9enable_ifIXsr6__and_ISt6__not_ISt15__is_tuple_likeIT_EESt21is_move_constructibleIS3_ESt18is_move_assignableIS3_EEE5valueEvE4typeERS3_SC_(double* nonnull align 8 dereferenceable(8) %9, double* nonnull align 8 dereferenceable(8) %11) #2, !llfi_index !1798
  ret void, !llfi_index !1799
}

; Function Attrs: mustprogress noinline nounwind uwtable
define linkonce_odr dso_local nonnull align 8 dereferenceable(8) double* @_ZSt4moveIRdEONSt16remove_referenceIT_E4typeEOS2_(double* nonnull align 8 dereferenceable(8) %0) #4 comdat {
  %2 = alloca double*, align 8, !llfi_index !1800
  store double* %0, double** %2, align 8, !llfi_index !1801
  %3 = load double*, double** %2, align 8, !llfi_index !1802
  ret double* %3, !llfi_index !1803
}

; Function Attrs: mustprogress noinline uwtable
define linkonce_odr dso_local void @_ZSt13__heap_selectIN9__gnu_cxx17__normal_iteratorIPSt4pairIdS2_IddEESt6vectorIS4_SaIS4_EEEENS0_5__ops15_Iter_less_iterEEvT_SC_SC_T0_(%"struct.std::pair"* %0, %"struct.std::pair"* %1, %"struct.std::pair"* %2) #5 comdat {
  %4 = alloca %"class.__gnu_cxx::__normal_iterator", align 8, !llfi_index !1804
  %5 = alloca %"class.__gnu_cxx::__normal_iterator", align 8, !llfi_index !1805
  %6 = alloca %"class.__gnu_cxx::__normal_iterator", align 8, !llfi_index !1806
  %7 = alloca %"class.std::ios_base::Init", align 1, !llfi_index !1807
  %8 = alloca %"class.__gnu_cxx::__normal_iterator", align 8, !llfi_index !1808
  %9 = alloca %"class.__gnu_cxx::__normal_iterator", align 8, !llfi_index !1809
  %10 = alloca %"class.__gnu_cxx::__normal_iterator", align 8, !llfi_index !1810
  %11 = alloca %"class.__gnu_cxx::__normal_iterator", align 8, !llfi_index !1811
  %12 = alloca %"class.__gnu_cxx::__normal_iterator", align 8, !llfi_index !1812
  %13 = alloca %"class.__gnu_cxx::__normal_iterator", align 8, !llfi_index !1813
  %14 = alloca %"class.__gnu_cxx::__normal_iterator", align 8, !llfi_index !1814
  %15 = alloca %"class.__gnu_cxx::__normal_iterator", align 8, !llfi_index !1815
  %16 = getelementptr inbounds %"class.__gnu_cxx::__normal_iterator", %"class.__gnu_cxx::__normal_iterator"* %4, i32 0, i32 0, !llfi_index !1816
  store %"struct.std::pair"* %0, %"struct.std::pair"** %16, align 8, !llfi_index !1817
  %17 = getelementptr inbounds %"class.__gnu_cxx::__normal_iterator", %"class.__gnu_cxx::__normal_iterator"* %5, i32 0, i32 0, !llfi_index !1818
  store %"struct.std::pair"* %1, %"struct.std::pair"** %17, align 8, !llfi_index !1819
  %18 = getelementptr inbounds %"class.__gnu_cxx::__normal_iterator", %"class.__gnu_cxx::__normal_iterator"* %6, i32 0, i32 0, !llfi_index !1820
  store %"struct.std::pair"* %2, %"struct.std::pair"** %18, align 8, !llfi_index !1821
  %19 = bitcast %"class.__gnu_cxx::__normal_iterator"* %8 to i8*, !llfi_index !1822
  %20 = bitcast %"class.__gnu_cxx::__normal_iterator"* %4 to i8*, !llfi_index !1823
  call void @llvm.memcpy.p0i8.p0i8.i64(i8* align 8 %19, i8* align 8 %20, i64 8, i1 false), !llfi_index !1824
  %21 = bitcast %"class.__gnu_cxx::__normal_iterator"* %9 to i8*, !llfi_index !1825
  %22 = bitcast %"class.__gnu_cxx::__normal_iterator"* %5 to i8*, !llfi_index !1826
  call void @llvm.memcpy.p0i8.p0i8.i64(i8* align 8 %21, i8* align 8 %22, i64 8, i1 false), !llfi_index !1827
  %23 = getelementptr inbounds %"class.__gnu_cxx::__normal_iterator", %"class.__gnu_cxx::__normal_iterator"* %8, i32 0, i32 0, !llfi_index !1828
  %24 = load %"struct.std::pair"*, %"struct.std::pair"** %23, align 8, !llfi_index !1829
  %25 = getelementptr inbounds %"class.__gnu_cxx::__normal_iterator", %"class.__gnu_cxx::__normal_iterator"* %9, i32 0, i32 0, !llfi_index !1830
  %26 = load %"struct.std::pair"*, %"struct.std::pair"** %25, align 8, !llfi_index !1831
  call void @_ZSt11__make_heapIN9__gnu_cxx17__normal_iteratorIPSt4pairIdS2_IddEESt6vectorIS4_SaIS4_EEEENS0_5__ops15_Iter_less_iterEEvT_SC_RT0_(%"struct.std::pair"* %24, %"struct.std::pair"* %26, %"class.std::ios_base::Init"* nonnull align 1 dereferenceable(1) %7), !llfi_index !1832
  %27 = bitcast %"class.__gnu_cxx::__normal_iterator"* %10 to i8*, !llfi_index !1833
  %28 = bitcast %"class.__gnu_cxx::__normal_iterator"* %5 to i8*, !llfi_index !1834
  call void @llvm.memcpy.p0i8.p0i8.i64(i8* align 8 %27, i8* align 8 %28, i64 8, i1 false), !llfi_index !1835
  br label %29, !llfi_index !1836

29:                                               ; preds = %55, %3
  %30 = call zeroext i1 @_ZN9__gnu_cxxltIPSt4pairIdS1_IddEESt6vectorIS3_SaIS3_EEEEbRKNS_17__normal_iteratorIT_T0_EESD_(%"class.__gnu_cxx::__normal_iterator"* nonnull align 8 dereferenceable(8) %10, %"class.__gnu_cxx::__normal_iterator"* nonnull align 8 dereferenceable(8) %6) #2, !llfi_index !1837
  br i1 %30, label %31, label %57, !llfi_index !1838

31:                                               ; preds = %29
  %32 = bitcast %"class.__gnu_cxx::__normal_iterator"* %11 to i8*, !llfi_index !1839
  %33 = bitcast %"class.__gnu_cxx::__normal_iterator"* %10 to i8*, !llfi_index !1840
  call void @llvm.memcpy.p0i8.p0i8.i64(i8* align 8 %32, i8* align 8 %33, i64 8, i1 false), !llfi_index !1841
  %34 = bitcast %"class.__gnu_cxx::__normal_iterator"* %12 to i8*, !llfi_index !1842
  %35 = bitcast %"class.__gnu_cxx::__normal_iterator"* %4 to i8*, !llfi_index !1843
  call void @llvm.memcpy.p0i8.p0i8.i64(i8* align 8 %34, i8* align 8 %35, i64 8, i1 false), !llfi_index !1844
  %36 = getelementptr inbounds %"class.__gnu_cxx::__normal_iterator", %"class.__gnu_cxx::__normal_iterator"* %11, i32 0, i32 0, !llfi_index !1845
  %37 = load %"struct.std::pair"*, %"struct.std::pair"** %36, align 8, !llfi_index !1846
  %38 = getelementptr inbounds %"class.__gnu_cxx::__normal_iterator", %"class.__gnu_cxx::__normal_iterator"* %12, i32 0, i32 0, !llfi_index !1847
  %39 = load %"struct.std::pair"*, %"struct.std::pair"** %38, align 8, !llfi_index !1848
  %40 = call zeroext i1 @_ZNK9__gnu_cxx5__ops15_Iter_less_iterclINS_17__normal_iteratorIPSt4pairIdS4_IddEESt6vectorIS6_SaIS6_EEEESB_EEbT_T0_(%"class.std::ios_base::Init"* nonnull align 1 dereferenceable(1) %7, %"struct.std::pair"* %37, %"struct.std::pair"* %39), !llfi_index !1849
  br i1 %40, label %41, label %54, !llfi_index !1850

41:                                               ; preds = %31
  %42 = bitcast %"class.__gnu_cxx::__normal_iterator"* %13 to i8*, !llfi_index !1851
  %43 = bitcast %"class.__gnu_cxx::__normal_iterator"* %4 to i8*, !llfi_index !1852
  call void @llvm.memcpy.p0i8.p0i8.i64(i8* align 8 %42, i8* align 8 %43, i64 8, i1 false), !llfi_index !1853
  %44 = bitcast %"class.__gnu_cxx::__normal_iterator"* %14 to i8*, !llfi_index !1854
  %45 = bitcast %"class.__gnu_cxx::__normal_iterator"* %5 to i8*, !llfi_index !1855
  call void @llvm.memcpy.p0i8.p0i8.i64(i8* align 8 %44, i8* align 8 %45, i64 8, i1 false), !llfi_index !1856
  %46 = bitcast %"class.__gnu_cxx::__normal_iterator"* %15 to i8*, !llfi_index !1857
  %47 = bitcast %"class.__gnu_cxx::__normal_iterator"* %10 to i8*, !llfi_index !1858
  call void @llvm.memcpy.p0i8.p0i8.i64(i8* align 8 %46, i8* align 8 %47, i64 8, i1 false), !llfi_index !1859
  %48 = getelementptr inbounds %"class.__gnu_cxx::__normal_iterator", %"class.__gnu_cxx::__normal_iterator"* %13, i32 0, i32 0, !llfi_index !1860
  %49 = load %"struct.std::pair"*, %"struct.std::pair"** %48, align 8, !llfi_index !1861
  %50 = getelementptr inbounds %"class.__gnu_cxx::__normal_iterator", %"class.__gnu_cxx::__normal_iterator"* %14, i32 0, i32 0, !llfi_index !1862
  %51 = load %"struct.std::pair"*, %"struct.std::pair"** %50, align 8, !llfi_index !1863
  %52 = getelementptr inbounds %"class.__gnu_cxx::__normal_iterator", %"class.__gnu_cxx::__normal_iterator"* %15, i32 0, i32 0, !llfi_index !1864
  %53 = load %"struct.std::pair"*, %"struct.std::pair"** %52, align 8, !llfi_index !1865
  call void @_ZSt10__pop_heapIN9__gnu_cxx17__normal_iteratorIPSt4pairIdS2_IddEESt6vectorIS4_SaIS4_EEEENS0_5__ops15_Iter_less_iterEEvT_SC_SC_RT0_(%"struct.std::pair"* %49, %"struct.std::pair"* %51, %"struct.std::pair"* %53, %"class.std::ios_base::Init"* nonnull align 1 dereferenceable(1) %7), !llfi_index !1866
  br label %54, !llfi_index !1867

54:                                               ; preds = %41, %31
  br label %55, !llfi_index !1868

55:                                               ; preds = %54
  %56 = call nonnull align 8 dereferenceable(8) %"class.__gnu_cxx::__normal_iterator"* @_ZN9__gnu_cxx17__normal_iteratorIPSt4pairIdS1_IddEESt6vectorIS3_SaIS3_EEEppEv(%"class.__gnu_cxx::__normal_iterator"* nonnull align 8 dereferenceable(8) %10) #2, !llfi_index !1869
  br label %29, !llvm.loop !1870, !llfi_index !1871

57:                                               ; preds = %29
  ret void, !llfi_index !1872
}

; Function Attrs: mustprogress noinline uwtable
define linkonce_odr dso_local void @_ZSt11__sort_heapIN9__gnu_cxx17__normal_iteratorIPSt4pairIdS2_IddEESt6vectorIS4_SaIS4_EEEENS0_5__ops15_Iter_less_iterEEvT_SC_RT0_(%"struct.std::pair"* %0, %"struct.std::pair"* %1, %"class.std::ios_base::Init"* nonnull align 1 dereferenceable(1) %2) #5 comdat {
  %4 = alloca %"class.__gnu_cxx::__normal_iterator", align 8, !llfi_index !1873
  %5 = alloca %"class.__gnu_cxx::__normal_iterator", align 8, !llfi_index !1874
  %6 = alloca %"class.std::ios_base::Init"*, align 8, !llfi_index !1875
  %7 = alloca %"class.__gnu_cxx::__normal_iterator", align 8, !llfi_index !1876
  %8 = alloca %"class.__gnu_cxx::__normal_iterator", align 8, !llfi_index !1877
  %9 = alloca %"class.__gnu_cxx::__normal_iterator", align 8, !llfi_index !1878
  %10 = getelementptr inbounds %"class.__gnu_cxx::__normal_iterator", %"class.__gnu_cxx::__normal_iterator"* %4, i32 0, i32 0, !llfi_index !1879
  store %"struct.std::pair"* %0, %"struct.std::pair"** %10, align 8, !llfi_index !1880
  %11 = getelementptr inbounds %"class.__gnu_cxx::__normal_iterator", %"class.__gnu_cxx::__normal_iterator"* %5, i32 0, i32 0, !llfi_index !1881
  store %"struct.std::pair"* %1, %"struct.std::pair"** %11, align 8, !llfi_index !1882
  store %"class.std::ios_base::Init"* %2, %"class.std::ios_base::Init"** %6, align 8, !llfi_index !1883
  br label %12, !llfi_index !1884

12:                                               ; preds = %15, %3
  %13 = call i64 @_ZN9__gnu_cxxmiIPSt4pairIdS1_IddEESt6vectorIS3_SaIS3_EEEENS_17__normal_iteratorIT_T0_E15difference_typeERKSB_SE_(%"class.__gnu_cxx::__normal_iterator"* nonnull align 8 dereferenceable(8) %5, %"class.__gnu_cxx::__normal_iterator"* nonnull align 8 dereferenceable(8) %4) #2, !llfi_index !1885
  %14 = icmp sgt i64 %13, 1, !llfi_index !1886
  br i1 %14, label %15, label %30, !llfi_index !1887

15:                                               ; preds = %12
  %16 = call nonnull align 8 dereferenceable(8) %"class.__gnu_cxx::__normal_iterator"* @_ZN9__gnu_cxx17__normal_iteratorIPSt4pairIdS1_IddEESt6vectorIS3_SaIS3_EEEmmEv(%"class.__gnu_cxx::__normal_iterator"* nonnull align 8 dereferenceable(8) %5) #2, !llfi_index !1888
  %17 = bitcast %"class.__gnu_cxx::__normal_iterator"* %7 to i8*, !llfi_index !1889
  %18 = bitcast %"class.__gnu_cxx::__normal_iterator"* %4 to i8*, !llfi_index !1890
  call void @llvm.memcpy.p0i8.p0i8.i64(i8* align 8 %17, i8* align 8 %18, i64 8, i1 false), !llfi_index !1891
  %19 = bitcast %"class.__gnu_cxx::__normal_iterator"* %8 to i8*, !llfi_index !1892
  %20 = bitcast %"class.__gnu_cxx::__normal_iterator"* %5 to i8*, !llfi_index !1893
  call void @llvm.memcpy.p0i8.p0i8.i64(i8* align 8 %19, i8* align 8 %20, i64 8, i1 false), !llfi_index !1894
  %21 = bitcast %"class.__gnu_cxx::__normal_iterator"* %9 to i8*, !llfi_index !1895
  %22 = bitcast %"class.__gnu_cxx::__normal_iterator"* %5 to i8*, !llfi_index !1896
  call void @llvm.memcpy.p0i8.p0i8.i64(i8* align 8 %21, i8* align 8 %22, i64 8, i1 false), !llfi_index !1897
  %23 = load %"class.std::ios_base::Init"*, %"class.std::ios_base::Init"** %6, align 8, !llfi_index !1898
  %24 = getelementptr inbounds %"class.__gnu_cxx::__normal_iterator", %"class.__gnu_cxx::__normal_iterator"* %7, i32 0, i32 0, !llfi_index !1899
  %25 = load %"struct.std::pair"*, %"struct.std::pair"** %24, align 8, !llfi_index !1900
  %26 = getelementptr inbounds %"class.__gnu_cxx::__normal_iterator", %"class.__gnu_cxx::__normal_iterator"* %8, i32 0, i32 0, !llfi_index !1901
  %27 = load %"struct.std::pair"*, %"struct.std::pair"** %26, align 8, !llfi_index !1902
  %28 = getelementptr inbounds %"class.__gnu_cxx::__normal_iterator", %"class.__gnu_cxx::__normal_iterator"* %9, i32 0, i32 0, !llfi_index !1903
  %29 = load %"struct.std::pair"*, %"struct.std::pair"** %28, align 8, !llfi_index !1904
  call void @_ZSt10__pop_heapIN9__gnu_cxx17__normal_iteratorIPSt4pairIdS2_IddEESt6vectorIS4_SaIS4_EEEENS0_5__ops15_Iter_less_iterEEvT_SC_SC_RT0_(%"struct.std::pair"* %25, %"struct.std::pair"* %27, %"struct.std::pair"* %29, %"class.std::ios_base::Init"* nonnull align 1 dereferenceable(1) %23), !llfi_index !1905
  br label %12, !llvm.loop !1906, !llfi_index !1907

30:                                               ; preds = %12
  ret void, !llfi_index !1908
}

; Function Attrs: mustprogress noinline uwtable
define linkonce_odr dso_local void @_ZSt10__pop_heapIN9__gnu_cxx17__normal_iteratorIPSt4pairIdS2_IddEESt6vectorIS4_SaIS4_EEEENS0_5__ops15_Iter_less_iterEEvT_SC_SC_RT0_(%"struct.std::pair"* %0, %"struct.std::pair"* %1, %"struct.std::pair"* %2, %"class.std::ios_base::Init"* nonnull align 1 dereferenceable(1) %3) #5 comdat {
  %5 = alloca %"class.__gnu_cxx::__normal_iterator", align 8, !llfi_index !1909
  %6 = alloca %"class.__gnu_cxx::__normal_iterator", align 8, !llfi_index !1910
  %7 = alloca %"class.__gnu_cxx::__normal_iterator", align 8, !llfi_index !1911
  %8 = alloca %"class.std::ios_base::Init"*, align 8, !llfi_index !1912
  %9 = alloca %"struct.std::pair", align 8, !llfi_index !1913
  %10 = alloca %"class.__gnu_cxx::__normal_iterator", align 8, !llfi_index !1914
  %11 = alloca %"struct.std::pair", align 8, !llfi_index !1915
  %12 = alloca %"class.std::ios_base::Init", align 1, !llfi_index !1916
  %13 = getelementptr inbounds %"class.__gnu_cxx::__normal_iterator", %"class.__gnu_cxx::__normal_iterator"* %5, i32 0, i32 0, !llfi_index !1917
  store %"struct.std::pair"* %0, %"struct.std::pair"** %13, align 8, !llfi_index !1918
  %14 = getelementptr inbounds %"class.__gnu_cxx::__normal_iterator", %"class.__gnu_cxx::__normal_iterator"* %6, i32 0, i32 0, !llfi_index !1919
  store %"struct.std::pair"* %1, %"struct.std::pair"** %14, align 8, !llfi_index !1920
  %15 = getelementptr inbounds %"class.__gnu_cxx::__normal_iterator", %"class.__gnu_cxx::__normal_iterator"* %7, i32 0, i32 0, !llfi_index !1921
  store %"struct.std::pair"* %2, %"struct.std::pair"** %15, align 8, !llfi_index !1922
  store %"class.std::ios_base::Init"* %3, %"class.std::ios_base::Init"** %8, align 8, !llfi_index !1923
  %16 = call nonnull align 8 dereferenceable(24) %"struct.std::pair"* @_ZNK9__gnu_cxx17__normal_iteratorIPSt4pairIdS1_IddEESt6vectorIS3_SaIS3_EEEdeEv(%"class.__gnu_cxx::__normal_iterator"* nonnull align 8 dereferenceable(8) %7) #2, !llfi_index !1924
  %17 = call nonnull align 8 dereferenceable(24) %"struct.std::pair"* @_ZSt4moveIRSt4pairIdS0_IddEEEONSt16remove_referenceIT_E4typeEOS5_(%"struct.std::pair"* nonnull align 8 dereferenceable(24) %16) #2, !llfi_index !1925
  %18 = bitcast %"struct.std::pair"* %9 to i8*, !llfi_index !1926
  %19 = bitcast %"struct.std::pair"* %17 to i8*, !llfi_index !1927
  call void @llvm.memcpy.p0i8.p0i8.i64(i8* align 8 %18, i8* align 8 %19, i64 24, i1 false), !llfi_index !1928
  %20 = call nonnull align 8 dereferenceable(24) %"struct.std::pair"* @_ZNK9__gnu_cxx17__normal_iteratorIPSt4pairIdS1_IddEESt6vectorIS3_SaIS3_EEEdeEv(%"class.__gnu_cxx::__normal_iterator"* nonnull align 8 dereferenceable(8) %5) #2, !llfi_index !1929
  %21 = call nonnull align 8 dereferenceable(24) %"struct.std::pair"* @_ZSt4moveIRSt4pairIdS0_IddEEEONSt16remove_referenceIT_E4typeEOS5_(%"struct.std::pair"* nonnull align 8 dereferenceable(24) %20) #2, !llfi_index !1930
  %22 = call nonnull align 8 dereferenceable(24) %"struct.std::pair"* @_ZNK9__gnu_cxx17__normal_iteratorIPSt4pairIdS1_IddEESt6vectorIS3_SaIS3_EEEdeEv(%"class.__gnu_cxx::__normal_iterator"* nonnull align 8 dereferenceable(8) %7) #2, !llfi_index !1931
  %23 = call nonnull align 8 dereferenceable(24) %"struct.std::pair"* @_ZNSt4pairIdS_IddEEaSEOS1_(%"struct.std::pair"* nonnull align 8 dereferenceable(24) %22, %"struct.std::pair"* nonnull align 8 dereferenceable(24) %21) #2, !llfi_index !1932
  %24 = bitcast %"class.__gnu_cxx::__normal_iterator"* %10 to i8*, !llfi_index !1933
  %25 = bitcast %"class.__gnu_cxx::__normal_iterator"* %5 to i8*, !llfi_index !1934
  call void @llvm.memcpy.p0i8.p0i8.i64(i8* align 8 %24, i8* align 8 %25, i64 8, i1 false), !llfi_index !1935
  %26 = call i64 @_ZN9__gnu_cxxmiIPSt4pairIdS1_IddEESt6vectorIS3_SaIS3_EEEENS_17__normal_iteratorIT_T0_E15difference_typeERKSB_SE_(%"class.__gnu_cxx::__normal_iterator"* nonnull align 8 dereferenceable(8) %6, %"class.__gnu_cxx::__normal_iterator"* nonnull align 8 dereferenceable(8) %5) #2, !llfi_index !1936
  %27 = call nonnull align 8 dereferenceable(24) %"struct.std::pair"* @_ZSt4moveIRSt4pairIdS0_IddEEEONSt16remove_referenceIT_E4typeEOS5_(%"struct.std::pair"* nonnull align 8 dereferenceable(24) %9) #2, !llfi_index !1937
  %28 = bitcast %"struct.std::pair"* %11 to i8*, !llfi_index !1938
  %29 = bitcast %"struct.std::pair"* %27 to i8*, !llfi_index !1939
  call void @llvm.memcpy.p0i8.p0i8.i64(i8* align 8 %28, i8* align 8 %29, i64 24, i1 false), !llfi_index !1940
  %30 = load %"class.std::ios_base::Init"*, %"class.std::ios_base::Init"** %8, align 8, !llfi_index !1941
  %31 = getelementptr inbounds %"class.__gnu_cxx::__normal_iterator", %"class.__gnu_cxx::__normal_iterator"* %10, i32 0, i32 0, !llfi_index !1942
  %32 = load %"struct.std::pair"*, %"struct.std::pair"** %31, align 8, !llfi_index !1943
  call void @_ZSt13__adjust_heapIN9__gnu_cxx17__normal_iteratorIPSt4pairIdS2_IddEESt6vectorIS4_SaIS4_EEEElS4_NS0_5__ops15_Iter_less_iterEEvT_T0_SD_T1_T2_(%"struct.std::pair"* %32, i64 0, i64 %26, %"struct.std::pair"* byval(%"struct.std::pair") align 8 %11), !llfi_index !1944
  ret void, !llfi_index !1945
}

; Function Attrs: mustprogress noinline uwtable
define linkonce_odr dso_local void @_ZSt13__adjust_heapIN9__gnu_cxx17__normal_iteratorIPSt4pairIdS2_IddEESt6vectorIS4_SaIS4_EEEElS4_NS0_5__ops15_Iter_less_iterEEvT_T0_SD_T1_T2_(%"struct.std::pair"* %0, i64 %1, i64 %2, %"struct.std::pair"* byval(%"struct.std::pair") align 8 %3) #5 comdat {
  %5 = alloca %"class.__gnu_cxx::__normal_iterator", align 8, !llfi_index !1946
  %6 = alloca %"class.std::ios_base::Init", align 1, !llfi_index !1947
  %7 = alloca i64, align 8, !llfi_index !1948
  %8 = alloca i64, align 8, !llfi_index !1949
  %9 = alloca i64, align 8, !llfi_index !1950
  %10 = alloca i64, align 8, !llfi_index !1951
  %11 = alloca %"class.__gnu_cxx::__normal_iterator", align 8, !llfi_index !1952
  %12 = alloca %"class.__gnu_cxx::__normal_iterator", align 8, !llfi_index !1953
  %13 = alloca %"class.__gnu_cxx::__normal_iterator", align 8, !llfi_index !1954
  %14 = alloca %"class.__gnu_cxx::__normal_iterator", align 8, !llfi_index !1955
  %15 = alloca %"class.__gnu_cxx::__normal_iterator", align 8, !llfi_index !1956
  %16 = alloca %"class.__gnu_cxx::__normal_iterator", align 8, !llfi_index !1957
  %17 = alloca %"class.std::ios_base::Init", align 1, !llfi_index !1958
  %18 = alloca %"class.std::ios_base::Init", align 1, !llfi_index !1959
  %19 = alloca %"class.__gnu_cxx::__normal_iterator", align 8, !llfi_index !1960
  %20 = alloca %"struct.std::pair", align 8, !llfi_index !1961
  %21 = getelementptr inbounds %"class.__gnu_cxx::__normal_iterator", %"class.__gnu_cxx::__normal_iterator"* %5, i32 0, i32 0, !llfi_index !1962
  store %"struct.std::pair"* %0, %"struct.std::pair"** %21, align 8, !llfi_index !1963
  store i64 %1, i64* %7, align 8, !llfi_index !1964
  store i64 %2, i64* %8, align 8, !llfi_index !1965
  %22 = load i64, i64* %7, align 8, !llfi_index !1966
  store i64 %22, i64* %9, align 8, !llfi_index !1967
  %23 = load i64, i64* %7, align 8, !llfi_index !1968
  store i64 %23, i64* %10, align 8, !llfi_index !1969
  br label %24, !llfi_index !1970

24:                                               ; preds = %49, %4
  %25 = load i64, i64* %10, align 8, !llfi_index !1971
  %26 = load i64, i64* %8, align 8, !llfi_index !1972
  %27 = sub nsw i64 %26, 1, !llfi_index !1973
  %28 = sdiv i64 %27, 2, !llfi_index !1974
  %29 = icmp slt i64 %25, %28, !llfi_index !1975
  br i1 %29, label %30, label %61, !llfi_index !1976

30:                                               ; preds = %24
  %31 = load i64, i64* %10, align 8, !llfi_index !1977
  %32 = add nsw i64 %31, 1, !llfi_index !1978
  %33 = mul nsw i64 2, %32, !llfi_index !1979
  store i64 %33, i64* %10, align 8, !llfi_index !1980
  %34 = load i64, i64* %10, align 8, !llfi_index !1981
  %35 = call %"struct.std::pair"* @_ZNK9__gnu_cxx17__normal_iteratorIPSt4pairIdS1_IddEESt6vectorIS3_SaIS3_EEEplEl(%"class.__gnu_cxx::__normal_iterator"* nonnull align 8 dereferenceable(8) %5, i64 %34) #2, !llfi_index !1982
  %36 = getelementptr inbounds %"class.__gnu_cxx::__normal_iterator", %"class.__gnu_cxx::__normal_iterator"* %11, i32 0, i32 0, !llfi_index !1983
  store %"struct.std::pair"* %35, %"struct.std::pair"** %36, align 8, !llfi_index !1984
