; ModuleID = '/home/hjiang/Computation-Kernel-Dataset/experiments/Fault_injection_0308_parall/O0/OrderStrings/OrderStrings.ll'
source_filename = "llvm-link"
target datalayout = "e-m:e-p270:32:32-p271:32:32-p272:64:64-i64:64-f80:128-n8:16:32:64-S128"
target triple = "x86_64-unknown-linux-gnu"

%"class.std::ios_base::Init" = type { i8 }
%struct._IO_FILE = type { i32, i8*, i8*, i8*, i8*, i8*, i8*, i8*, i8*, i8*, i8*, i8*, %struct._IO_marker*, %struct._IO_FILE*, i32, i32, i64, i16, i8, [1 x i8], i8*, i64, %struct._IO_codecvt*, %struct._IO_wide_data*, %struct._IO_FILE*, i8*, i64, i32, [20 x i8] }
%struct._IO_marker = type opaque
%struct._IO_codecvt = type opaque
%struct._IO_wide_data = type opaque
%"class.std::basic_istream" = type { i32 (...)**, i64, %"class.std::basic_ios" }
%"class.std::basic_ios" = type { %"class.std::ios_base", %"class.std::basic_ostream"*, i8, i8, %"class.std::basic_streambuf"*, %"class.std::ctype"*, %"class.std::num_put"*, %"class.std::num_put"* }
%"class.std::ios_base" = type { i32 (...)**, i64, i64, i32, i32, i32, %"struct.std::ios_base::_Callback_list"*, %"struct.std::ios_base::_Words", [8 x %"struct.std::ios_base::_Words"], i32, %"struct.std::ios_base::_Words"*, %"class.std::locale" }
%"struct.std::ios_base::_Callback_list" = type { %"struct.std::ios_base::_Callback_list"*, void (i32, %"class.std::ios_base"*, i32)*, i32, i32 }
%"struct.std::ios_base::_Words" = type { i8*, i64 }
%"class.std::locale" = type { %"class.std::locale::_Impl"* }
%"class.std::locale::_Impl" = type { i32, %"class.std::locale::facet"**, i64, %"class.std::locale::facet"**, i8** }
%"class.std::locale::facet" = type <{ i32 (...)**, i32, [4 x i8] }>
%"class.std::basic_ostream" = type { i32 (...)**, %"class.std::basic_ios" }
%"class.std::basic_streambuf" = type { i32 (...)**, i8*, i8*, i8*, i8*, i8*, i8*, %"class.std::locale" }
%"class.std::ctype" = type <{ %"class.std::locale::facet.base", [4 x i8], %struct.__locale_struct*, i8, [7 x i8], i32*, i32*, i16*, i8, [256 x i8], [256 x i8], i8, [6 x i8] }>
%"class.std::locale::facet.base" = type <{ i32 (...)**, i32 }>
%struct.__locale_struct = type { [13 x %struct.__locale_data*], i16*, i32*, i32*, [13 x i8*] }
%struct.__locale_data = type opaque
%"class.std::num_put" = type { %"class.std::locale::facet.base", [4 x i8] }
%"class.std::__cxx11::basic_string" = type { %"struct.std::__cxx11::basic_string<char>::_Alloc_hider", i64, %union.anon }
%"struct.std::__cxx11::basic_string<char>::_Alloc_hider" = type { i8* }
%union.anon = type { i64, [8 x i8] }
%"class.std::__cxx11::basic_stringstream" = type { %"class.std::basic_iostream.base", %"class.std::__cxx11::basic_stringbuf", %"class.std::basic_ios" }
%"class.std::basic_iostream.base" = type { %"class.std::basic_istream.base", %"class.std::basic_ostream.base" }
%"class.std::basic_istream.base" = type { i32 (...)**, i64 }
%"class.std::basic_ostream.base" = type { i32 (...)** }
%"class.std::__cxx11::basic_stringbuf" = type { %"class.std::basic_streambuf", i32, %"class.std::__cxx11::basic_string" }
%"struct.std::pair" = type <{ %"class.std::__cxx11::basic_string", i32, [4 x i8] }>
%"class.std::vector" = type { %"struct.std::_Vector_base" }
%"struct.std::_Vector_base" = type { %"struct.std::_Vector_base<std::__cxx11::basic_string<char>, std::allocator<std::__cxx11::basic_string<char>>>::_Vector_impl" }
%"struct.std::_Vector_base<std::__cxx11::basic_string<char>, std::allocator<std::__cxx11::basic_string<char>>>::_Vector_impl" = type { %"struct.std::_Vector_base<std::__cxx11::basic_string<char>, std::allocator<std::__cxx11::basic_string<char>>>::_Vector_impl_data" }
%"struct.std::_Vector_base<std::__cxx11::basic_string<char>, std::allocator<std::__cxx11::basic_string<char>>>::_Vector_impl_data" = type { %"class.std::__cxx11::basic_string"*, %"class.std::__cxx11::basic_string"*, %"class.std::__cxx11::basic_string"* }
%"class.std::vector.3" = type { %"struct.std::_Vector_base.4" }
%"struct.std::_Vector_base.4" = type { %"struct.std::_Vector_base<std::pair<std::__cxx11::basic_string<char>, int>, std::allocator<std::pair<std::__cxx11::basic_string<char>, int>>>::_Vector_impl" }
%"struct.std::_Vector_base<std::pair<std::__cxx11::basic_string<char>, int>, std::allocator<std::pair<std::__cxx11::basic_string<char>, int>>>::_Vector_impl" = type { %"struct.std::_Vector_base<std::pair<std::__cxx11::basic_string<char>, int>, std::allocator<std::pair<std::__cxx11::basic_string<char>, int>>>::_Vector_impl_data" }
%"struct.std::_Vector_base<std::pair<std::__cxx11::basic_string<char>, int>, std::allocator<std::pair<std::__cxx11::basic_string<char>, int>>>::_Vector_impl_data" = type { %"struct.std::pair"*, %"struct.std::pair"*, %"struct.std::pair"* }
%"class.__gnu_cxx::__normal_iterator" = type { %"struct.std::pair"* }
%"class.__gnu_cxx::__normal_iterator.8" = type { %"class.std::__cxx11::basic_string"* }
%"struct.__gnu_cxx::__ops::_Iter_comp_iter" = type { i1 (%"struct.std::pair"*, %"struct.std::pair"*)* }

$_ZSteqIcEN9__gnu_cxx11__enable_ifIXsr9__is_charIT_EE7__valueEbE6__typeERKNSt7__cxx1112basic_stringIS2_St11char_traitsIS2_ESaIS2_EEESC_ = comdat any

$_ZStltIcSt11char_traitsIcESaIcEEbRKNSt7__cxx1112basic_stringIT_T0_T1_EESA_ = comdat any

$__clang_call_terminate = comdat any

$_ZNSt11char_traitsIcE7compareEPKcS2_m = comdat any

$_ZNSt6vectorINSt7__cxx1112basic_stringIcSt11char_traitsIcESaIcEEESaIS5_EEC2Ev = comdat any

$_ZNSt6vectorISt4pairINSt7__cxx1112basic_stringIcSt11char_traitsIcESaIcEEEiESaIS7_EEC2Ev = comdat any

$_ZNSt6vectorINSt7__cxx1112basic_stringIcSt11char_traitsIcESaIcEEESaIS5_EE9push_backERKS5_ = comdat any

$_ZNSt6vectorINSt7__cxx1112basic_stringIcSt11char_traitsIcESaIcEEESaIS5_EEixEm = comdat any

$_ZSt9make_pairINSt7__cxx1112basic_stringIcSt11char_traitsIcESaIcEEERiESt4pairINSt17__decay_and_stripIT_E6__typeENS8_IT0_E6__typeEEOS9_OSC_ = comdat any

$_ZNSt6vectorISt4pairINSt7__cxx1112basic_stringIcSt11char_traitsIcESaIcEEEiESaIS7_EE9push_backEOS7_ = comdat any

$_ZNSt4pairINSt7__cxx1112basic_stringIcSt11char_traitsIcESaIcEEEiED2Ev = comdat any

$_ZNSt6vectorISt4pairINSt7__cxx1112basic_stringIcSt11char_traitsIcESaIcEEEiESaIS7_EE5beginEv = comdat any

$_ZNSt6vectorISt4pairINSt7__cxx1112basic_stringIcSt11char_traitsIcESaIcEEEiESaIS7_EE3endEv = comdat any

$_ZSt4sortIN9__gnu_cxx17__normal_iteratorIPSt4pairINSt7__cxx1112basic_stringIcSt11char_traitsIcESaIcEEEiESt6vectorIS9_SaIS9_EEEEPFbRKS9_SG_EEvT_SJ_T0_ = comdat any

$_ZSt4sortIN9__gnu_cxx17__normal_iteratorIPSt4pairINSt7__cxx1112basic_stringIcSt11char_traitsIcESaIcEEEiESt6vectorIS9_SaIS9_EEEEEvT_SF_ = comdat any

$_ZNKSt6vectorISt4pairINSt7__cxx1112basic_stringIcSt11char_traitsIcESaIcEEEiESaIS7_EE4sizeEv = comdat any

$_ZNSt6vectorISt4pairINSt7__cxx1112basic_stringIcSt11char_traitsIcESaIcEEEiESaIS7_EEixEm = comdat any

$_ZNKSt6vectorINSt7__cxx1112basic_stringIcSt11char_traitsIcESaIcEEESaIS5_EE4sizeEv = comdat any

$_ZNSt6vectorISt4pairINSt7__cxx1112basic_stringIcSt11char_traitsIcESaIcEEEiESaIS7_EED2Ev = comdat any

$_ZNSt6vectorINSt7__cxx1112basic_stringIcSt11char_traitsIcESaIcEEESaIS5_EED2Ev = comdat any

$_ZNSt12_Vector_baseINSt7__cxx1112basic_stringIcSt11char_traitsIcESaIcEEESaIS5_EE19_M_get_Tp_allocatorEv = comdat any

$_ZSt8_DestroyIPNSt7__cxx1112basic_stringIcSt11char_traitsIcESaIcEEES5_EvT_S7_RSaIT0_E = comdat any

$_ZNSt12_Vector_baseINSt7__cxx1112basic_stringIcSt11char_traitsIcESaIcEEESaIS5_EED2Ev = comdat any

$_ZNSt12_Vector_baseINSt7__cxx1112basic_stringIcSt11char_traitsIcESaIcEEESaIS5_EE13_M_deallocateEPS5_m = comdat any

$_ZNSt12_Vector_baseINSt7__cxx1112basic_stringIcSt11char_traitsIcESaIcEEESaIS5_EE12_Vector_implD2Ev = comdat any

$_ZNSaINSt7__cxx1112basic_stringIcSt11char_traitsIcESaIcEEEED2Ev = comdat any

$_ZN9__gnu_cxx13new_allocatorINSt7__cxx1112basic_stringIcSt11char_traitsIcESaIcEEEED2Ev = comdat any

$_ZNSt16allocator_traitsISaINSt7__cxx1112basic_stringIcSt11char_traitsIcESaIcEEEEE10deallocateERS6_PS5_m = comdat any

$_ZN9__gnu_cxx13new_allocatorINSt7__cxx1112basic_stringIcSt11char_traitsIcESaIcEEEE10deallocateEPS6_m = comdat any

$_ZSt8_DestroyIPNSt7__cxx1112basic_stringIcSt11char_traitsIcESaIcEEEEvT_S7_ = comdat any

$_ZNSt12_Destroy_auxILb0EE9__destroyIPNSt7__cxx1112basic_stringIcSt11char_traitsIcESaIcEEEEEvT_S9_ = comdat any

$_ZSt11__addressofINSt7__cxx1112basic_stringIcSt11char_traitsIcESaIcEEEEPT_RS6_ = comdat any

$_ZSt8_DestroyINSt7__cxx1112basic_stringIcSt11char_traitsIcESaIcEEEEvPT_ = comdat any

$_ZNSt12_Vector_baseISt4pairINSt7__cxx1112basic_stringIcSt11char_traitsIcESaIcEEEiESaIS7_EE19_M_get_Tp_allocatorEv = comdat any

$_ZSt8_DestroyIPSt4pairINSt7__cxx1112basic_stringIcSt11char_traitsIcESaIcEEEiES7_EvT_S9_RSaIT0_E = comdat any

$_ZNSt12_Vector_baseISt4pairINSt7__cxx1112basic_stringIcSt11char_traitsIcESaIcEEEiESaIS7_EED2Ev = comdat any

$_ZNSt12_Vector_baseISt4pairINSt7__cxx1112basic_stringIcSt11char_traitsIcESaIcEEEiESaIS7_EE13_M_deallocateEPS7_m = comdat any

$_ZNSt12_Vector_baseISt4pairINSt7__cxx1112basic_stringIcSt11char_traitsIcESaIcEEEiESaIS7_EE12_Vector_implD2Ev = comdat any

$_ZNSaISt4pairINSt7__cxx1112basic_stringIcSt11char_traitsIcESaIcEEEiEED2Ev = comdat any

$_ZN9__gnu_cxx13new_allocatorISt4pairINSt7__cxx1112basic_stringIcSt11char_traitsIcESaIcEEEiEED2Ev = comdat any

$_ZNSt16allocator_traitsISaISt4pairINSt7__cxx1112basic_stringIcSt11char_traitsIcESaIcEEEiEEE10deallocateERS8_PS7_m = comdat any

$_ZN9__gnu_cxx13new_allocatorISt4pairINSt7__cxx1112basic_stringIcSt11char_traitsIcESaIcEEEiEE10deallocateEPS8_m = comdat any

$_ZSt8_DestroyIPSt4pairINSt7__cxx1112basic_stringIcSt11char_traitsIcESaIcEEEiEEvT_S9_ = comdat any

$_ZNSt12_Destroy_auxILb0EE9__destroyIPSt4pairINSt7__cxx1112basic_stringIcSt11char_traitsIcESaIcEEEiEEEvT_SB_ = comdat any

$_ZSt11__addressofISt4pairINSt7__cxx1112basic_stringIcSt11char_traitsIcESaIcEEEiEEPT_RS8_ = comdat any

$_ZSt8_DestroyISt4pairINSt7__cxx1112basic_stringIcSt11char_traitsIcESaIcEEEiEEvPT_ = comdat any

$_ZN9__gnu_cxx5__ops16__iter_less_iterEv = comdat any

$_ZSt6__sortIN9__gnu_cxx17__normal_iteratorIPSt4pairINSt7__cxx1112basic_stringIcSt11char_traitsIcESaIcEEEiESt6vectorIS9_SaIS9_EEEENS0_5__ops15_Iter_less_iterEEvT_SH_T0_ = comdat any

$_ZN9__gnu_cxxneIPSt4pairINSt7__cxx1112basic_stringIcSt11char_traitsIcESaIcEEEiESt6vectorIS8_SaIS8_EEEEbRKNS_17__normal_iteratorIT_T0_EESI_ = comdat any

$_ZN9__gnu_cxxmiIPSt4pairINSt7__cxx1112basic_stringIcSt11char_traitsIcESaIcEEEiESt6vectorIS8_SaIS8_EEEENS_17__normal_iteratorIT_T0_E15difference_typeERKSG_SJ_ = comdat any

$_ZSt4__lgl = comdat any

$_ZSt16__introsort_loopIN9__gnu_cxx17__normal_iteratorIPSt4pairINSt7__cxx1112basic_stringIcSt11char_traitsIcESaIcEEEiESt6vectorIS9_SaIS9_EEEElNS0_5__ops15_Iter_less_iterEEvT_SH_T0_T1_ = comdat any

$_ZSt22__final_insertion_sortIN9__gnu_cxx17__normal_iteratorIPSt4pairINSt7__cxx1112basic_stringIcSt11char_traitsIcESaIcEEEiESt6vectorIS9_SaIS9_EEEENS0_5__ops15_Iter_less_iterEEvT_SH_T0_ = comdat any

$_ZNK9__gnu_cxx17__normal_iteratorIPSt4pairINSt7__cxx1112basic_stringIcSt11char_traitsIcESaIcEEEiESt6vectorIS8_SaIS8_EEEplEl = comdat any

$_ZSt16__insertion_sortIN9__gnu_cxx17__normal_iteratorIPSt4pairINSt7__cxx1112basic_stringIcSt11char_traitsIcESaIcEEEiESt6vectorIS9_SaIS9_EEEENS0_5__ops15_Iter_less_iterEEvT_SH_T0_ = comdat any

$_ZSt26__unguarded_insertion_sortIN9__gnu_cxx17__normal_iteratorIPSt4pairINSt7__cxx1112basic_stringIcSt11char_traitsIcESaIcEEEiESt6vectorIS9_SaIS9_EEEENS0_5__ops15_Iter_less_iterEEvT_SH_T0_ = comdat any

$_ZN9__gnu_cxx5__ops15__val_comp_iterENS0_15_Iter_less_iterE = comdat any

$_ZSt25__unguarded_linear_insertIN9__gnu_cxx17__normal_iteratorIPSt4pairINSt7__cxx1112basic_stringIcSt11char_traitsIcESaIcEEEiESt6vectorIS9_SaIS9_EEEENS0_5__ops14_Val_less_iterEEvT_T0_ = comdat any

$_ZN9__gnu_cxx17__normal_iteratorIPSt4pairINSt7__cxx1112basic_stringIcSt11char_traitsIcESaIcEEEiESt6vectorIS8_SaIS8_EEEppEv = comdat any

$_ZNK9__gnu_cxx17__normal_iteratorIPSt4pairINSt7__cxx1112basic_stringIcSt11char_traitsIcESaIcEEEiESt6vectorIS8_SaIS8_EEEdeEv = comdat any

$_ZSt4moveIRSt4pairINSt7__cxx1112basic_stringIcSt11char_traitsIcESaIcEEEiEEONSt16remove_referenceIT_E4typeEOSA_ = comdat any

$_ZNSt4pairINSt7__cxx1112basic_stringIcSt11char_traitsIcESaIcEEEiEC2EOS6_ = comdat any

$_ZN9__gnu_cxx17__normal_iteratorIPSt4pairINSt7__cxx1112basic_stringIcSt11char_traitsIcESaIcEEEiESt6vectorIS8_SaIS8_EEEmmEv = comdat any

$_ZNK9__gnu_cxx5__ops14_Val_less_iterclISt4pairINSt7__cxx1112basic_stringIcSt11char_traitsIcESaIcEEEiENS_17__normal_iteratorIPSA_St6vectorISA_SaISA_EEEEEEbRT_T0_ = comdat any

$_ZNSt4pairINSt7__cxx1112basic_stringIcSt11char_traitsIcESaIcEEEiEaSEOS6_ = comdat any

$_ZSt7forwardINSt7__cxx1112basic_stringIcSt11char_traitsIcESaIcEEEEOT_RNSt16remove_referenceIS6_E4typeE = comdat any

$_ZSt7forwardIiEOT_RNSt16remove_referenceIS0_E4typeE = comdat any

$_ZStltINSt7__cxx1112basic_stringIcSt11char_traitsIcESaIcEEEiEbRKSt4pairIT_T0_ESB_ = comdat any

$_ZN9__gnu_cxxeqIPSt4pairINSt7__cxx1112basic_stringIcSt11char_traitsIcESaIcEEEiESt6vectorIS8_SaIS8_EEEEbRKNS_17__normal_iteratorIT_T0_EESI_ = comdat any

$_ZNK9__gnu_cxx5__ops15_Iter_less_iterclINS_17__normal_iteratorIPSt4pairINSt7__cxx1112basic_stringIcSt11char_traitsIcESaIcEEEiESt6vectorISB_SaISB_EEEESG_EEbT_T0_ = comdat any

$_ZSt13move_backwardIN9__gnu_cxx17__normal_iteratorIPSt4pairINSt7__cxx1112basic_stringIcSt11char_traitsIcESaIcEEEiESt6vectorIS9_SaIS9_EEEESE_ET0_T_SG_SF_ = comdat any

$_ZSt12__miter_baseIN9__gnu_cxx17__normal_iteratorIPSt4pairINSt7__cxx1112basic_stringIcSt11char_traitsIcESaIcEEEiESt6vectorIS9_SaIS9_EEEEET_SF_ = comdat any

$_ZSt23__copy_move_backward_a2ILb1EN9__gnu_cxx17__normal_iteratorIPSt4pairINSt7__cxx1112basic_stringIcSt11char_traitsIcESaIcEEEiESt6vectorIS9_SaIS9_EEEESE_ET1_T0_SG_SF_ = comdat any

$_ZSt12__niter_baseIPSt4pairINSt7__cxx1112basic_stringIcSt11char_traitsIcESaIcEEEiESt6vectorIS7_SaIS7_EEET_N9__gnu_cxx17__normal_iteratorISC_T0_EE = comdat any

$_ZSt22__copy_move_backward_aILb1EPSt4pairINSt7__cxx1112basic_stringIcSt11char_traitsIcESaIcEEEiES8_ET1_T0_SA_S9_ = comdat any

$_ZSt12__niter_wrapIN9__gnu_cxx17__normal_iteratorIPSt4pairINSt7__cxx1112basic_stringIcSt11char_traitsIcESaIcEEEiESt6vectorIS9_SaIS9_EEEESA_ET_SF_T0_ = comdat any

$_ZNSt20__copy_move_backwardILb1ELb0ESt26random_access_iterator_tagE13__copy_move_bIPSt4pairINSt7__cxx1112basic_stringIcSt11char_traitsIcESaIcEEEiESB_EET0_T_SD_SC_ = comdat any

$_ZNK9__gnu_cxx17__normal_iteratorIPSt4pairINSt7__cxx1112basic_stringIcSt11char_traitsIcESaIcEEEiESt6vectorIS8_SaIS8_EEE4baseEv = comdat any

$_ZN9__gnu_cxx17__normal_iteratorIPSt4pairINSt7__cxx1112basic_stringIcSt11char_traitsIcESaIcEEEiESt6vectorIS8_SaIS8_EEEC2ERKS9_ = comdat any

$_ZSt14__partial_sortIN9__gnu_cxx17__normal_iteratorIPSt4pairINSt7__cxx1112basic_stringIcSt11char_traitsIcESaIcEEEiESt6vectorIS9_SaIS9_EEEENS0_5__ops15_Iter_less_iterEEvT_SH_SH_T0_ = comdat any

$_ZSt27__unguarded_partition_pivotIN9__gnu_cxx17__normal_iteratorIPSt4pairINSt7__cxx1112basic_stringIcSt11char_traitsIcESaIcEEEiESt6vectorIS9_SaIS9_EEEENS0_5__ops15_Iter_less_iterEET_SH_SH_T0_ = comdat any

$_ZNK9__gnu_cxx17__normal_iteratorIPSt4pairINSt7__cxx1112basic_stringIcSt11char_traitsIcESaIcEEEiESt6vectorIS8_SaIS8_EEEmiEl = comdat any

$_ZSt22__move_median_to_firstIN9__gnu_cxx17__normal_iteratorIPSt4pairINSt7__cxx1112basic_stringIcSt11char_traitsIcESaIcEEEiESt6vectorIS9_SaIS9_EEEENS0_5__ops15_Iter_less_iterEEvT_SH_SH_SH_T0_ = comdat any

$_ZSt21__unguarded_partitionIN9__gnu_cxx17__normal_iteratorIPSt4pairINSt7__cxx1112basic_stringIcSt11char_traitsIcESaIcEEEiESt6vectorIS9_SaIS9_EEEENS0_5__ops15_Iter_less_iterEET_SH_SH_SH_T0_ = comdat any

$_ZN9__gnu_cxxltIPSt4pairINSt7__cxx1112basic_stringIcSt11char_traitsIcESaIcEEEiESt6vectorIS8_SaIS8_EEEEbRKNS_17__normal_iteratorIT_T0_EESI_ = comdat any

$_ZSt9iter_swapIN9__gnu_cxx17__normal_iteratorIPSt4pairINSt7__cxx1112basic_stringIcSt11char_traitsIcESaIcEEEiESt6vectorIS9_SaIS9_EEEESE_EvT_T0_ = comdat any

$_ZSt4swapINSt7__cxx1112basic_stringIcSt11char_traitsIcESaIcEEEiENSt9enable_ifIXsr6__and_ISt14__is_swappableIT_ES7_IT0_EEE5valueEvE4typeERSt4pairIS8_SA_ESG_ = comdat any

$_ZNSt4pairINSt7__cxx1112basic_stringIcSt11char_traitsIcESaIcEEEiE4swapERS6_ = comdat any

$_ZSt4swapIcSt11char_traitsIcESaIcEEvRNSt7__cxx1112basic_stringIT_T0_T1_EES9_ = comdat any

$_ZSt4swapIiENSt9enable_ifIXsr6__and_ISt6__not_ISt15__is_tuple_likeIT_EESt21is_move_constructibleIS3_ESt18is_move_assignableIS3_EEE5valueEvE4typeERS3_SC_ = comdat any

$_ZSt4moveIRiEONSt16remove_referenceIT_E4typeEOS2_ = comdat any

$_ZSt13__heap_selectIN9__gnu_cxx17__normal_iteratorIPSt4pairINSt7__cxx1112basic_stringIcSt11char_traitsIcESaIcEEEiESt6vectorIS9_SaIS9_EEEENS0_5__ops15_Iter_less_iterEEvT_SH_SH_T0_ = comdat any

$_ZSt11__sort_heapIN9__gnu_cxx17__normal_iteratorIPSt4pairINSt7__cxx1112basic_stringIcSt11char_traitsIcESaIcEEEiESt6vectorIS9_SaIS9_EEEENS0_5__ops15_Iter_less_iterEEvT_SH_RT0_ = comdat any

$_ZSt10__pop_heapIN9__gnu_cxx17__normal_iteratorIPSt4pairINSt7__cxx1112basic_stringIcSt11char_traitsIcESaIcEEEiESt6vectorIS9_SaIS9_EEEENS0_5__ops15_Iter_less_iterEEvT_SH_SH_RT0_ = comdat any

$_ZSt13__adjust_heapIN9__gnu_cxx17__normal_iteratorIPSt4pairINSt7__cxx1112basic_stringIcSt11char_traitsIcESaIcEEEiESt6vectorIS9_SaIS9_EEEElS9_NS0_5__ops15_Iter_less_iterEEvT_T0_SI_T1_T2_ = comdat any

$_ZSt4moveIRN9__gnu_cxx5__ops15_Iter_less_iterEEONSt16remove_referenceIT_E4typeEOS5_ = comdat any

$_ZN9__gnu_cxx5__ops14_Iter_less_valC2ENS0_15_Iter_less_iterE = comdat any

$_ZSt11__push_heapIN9__gnu_cxx17__normal_iteratorIPSt4pairINSt7__cxx1112basic_stringIcSt11char_traitsIcESaIcEEEiESt6vectorIS9_SaIS9_EEEElS9_NS0_5__ops14_Iter_less_valEEvT_T0_SI_T1_RT2_ = comdat any

$_ZNK9__gnu_cxx5__ops14_Iter_less_valclINS_17__normal_iteratorIPSt4pairINSt7__cxx1112basic_stringIcSt11char_traitsIcESaIcEEEiESt6vectorISB_SaISB_EEEESB_EEbT_RT0_ = comdat any

$_ZSt11__make_heapIN9__gnu_cxx17__normal_iteratorIPSt4pairINSt7__cxx1112basic_stringIcSt11char_traitsIcESaIcEEEiESt6vectorIS9_SaIS9_EEEENS0_5__ops15_Iter_less_iterEEvT_SH_RT0_ = comdat any

$_ZN9__gnu_cxx5__ops16__iter_comp_iterIPFbRKSt4pairINSt7__cxx1112basic_stringIcSt11char_traitsIcESaIcEEEiESB_EEENS0_15_Iter_comp_iterIT_EESF_ = comdat any

$_ZSt6__sortIN9__gnu_cxx17__normal_iteratorIPSt4pairINSt7__cxx1112basic_stringIcSt11char_traitsIcESaIcEEEiESt6vectorIS9_SaIS9_EEEENS0_5__ops15_Iter_comp_iterIPFbRKS9_SI_EEEEvT_SM_T0_ = comdat any

$_ZSt16__introsort_loopIN9__gnu_cxx17__normal_iteratorIPSt4pairINSt7__cxx1112basic_stringIcSt11char_traitsIcESaIcEEEiESt6vectorIS9_SaIS9_EEEElNS0_5__ops15_Iter_comp_iterIPFbRKS9_SI_EEEEvT_SM_T0_T1_ = comdat any

$_ZSt22__final_insertion_sortIN9__gnu_cxx17__normal_iteratorIPSt4pairINSt7__cxx1112basic_stringIcSt11char_traitsIcESaIcEEEiESt6vectorIS9_SaIS9_EEEENS0_5__ops15_Iter_comp_iterIPFbRKS9_SI_EEEEvT_SM_T0_ = comdat any

$_ZSt16__insertion_sortIN9__gnu_cxx17__normal_iteratorIPSt4pairINSt7__cxx1112basic_stringIcSt11char_traitsIcESaIcEEEiESt6vectorIS9_SaIS9_EEEENS0_5__ops15_Iter_comp_iterIPFbRKS9_SI_EEEEvT_SM_T0_ = comdat any

$_ZSt26__unguarded_insertion_sortIN9__gnu_cxx17__normal_iteratorIPSt4pairINSt7__cxx1112basic_stringIcSt11char_traitsIcESaIcEEEiESt6vectorIS9_SaIS9_EEEENS0_5__ops15_Iter_comp_iterIPFbRKS9_SI_EEEEvT_SM_T0_ = comdat any

$_ZN9__gnu_cxx5__ops15__val_comp_iterIPFbRKSt4pairINSt7__cxx1112basic_stringIcSt11char_traitsIcESaIcEEEiESB_EEENS0_14_Val_comp_iterIT_EENS0_15_Iter_comp_iterISF_EE = comdat any

$_ZSt25__unguarded_linear_insertIN9__gnu_cxx17__normal_iteratorIPSt4pairINSt7__cxx1112basic_stringIcSt11char_traitsIcESaIcEEEiESt6vectorIS9_SaIS9_EEEENS0_5__ops14_Val_comp_iterIPFbRKS9_SI_EEEEvT_T0_ = comdat any

$_ZN9__gnu_cxx5__ops14_Val_comp_iterIPFbRKSt4pairINSt7__cxx1112basic_stringIcSt11char_traitsIcESaIcEEEiESB_EEclIS9_NS_17__normal_iteratorIPS9_St6vectorIS9_SaIS9_EEEEEEbRT_T0_ = comdat any

$_ZSt4moveIRN9__gnu_cxx5__ops15_Iter_comp_iterIPFbRKSt4pairINSt7__cxx1112basic_stringIcSt11char_traitsIcESaIcEEEiESC_EEEEONSt16remove_referenceIT_E4typeEOSI_ = comdat any

$_ZN9__gnu_cxx5__ops14_Val_comp_iterIPFbRKSt4pairINSt7__cxx1112basic_stringIcSt11char_traitsIcESaIcEEEiESB_EEC2EONS0_15_Iter_comp_iterISD_EE = comdat any

$_ZSt4moveIRPFbRKSt4pairINSt7__cxx1112basic_stringIcSt11char_traitsIcESaIcEEEiES9_EEONSt16remove_referenceIT_E4typeEOSE_ = comdat any

$_ZN9__gnu_cxx5__ops15_Iter_comp_iterIPFbRKSt4pairINSt7__cxx1112basic_stringIcSt11char_traitsIcESaIcEEEiESB_EEclINS_17__normal_iteratorIPS9_St6vectorIS9_SaIS9_EEEESL_EEbT_T0_ = comdat any

$_ZSt14__partial_sortIN9__gnu_cxx17__normal_iteratorIPSt4pairINSt7__cxx1112basic_stringIcSt11char_traitsIcESaIcEEEiESt6vectorIS9_SaIS9_EEEENS0_5__ops15_Iter_comp_iterIPFbRKS9_SI_EEEEvT_SM_SM_T0_ = comdat any

$_ZSt27__unguarded_partition_pivotIN9__gnu_cxx17__normal_iteratorIPSt4pairINSt7__cxx1112basic_stringIcSt11char_traitsIcESaIcEEEiESt6vectorIS9_SaIS9_EEEENS0_5__ops15_Iter_comp_iterIPFbRKS9_SI_EEEET_SM_SM_T0_ = comdat any

$_ZSt22__move_median_to_firstIN9__gnu_cxx17__normal_iteratorIPSt4pairINSt7__cxx1112basic_stringIcSt11char_traitsIcESaIcEEEiESt6vectorIS9_SaIS9_EEEENS0_5__ops15_Iter_comp_iterIPFbRKS9_SI_EEEEvT_SM_SM_SM_T0_ = comdat any

$_ZSt21__unguarded_partitionIN9__gnu_cxx17__normal_iteratorIPSt4pairINSt7__cxx1112basic_stringIcSt11char_traitsIcESaIcEEEiESt6vectorIS9_SaIS9_EEEENS0_5__ops15_Iter_comp_iterIPFbRKS9_SI_EEEET_SM_SM_SM_T0_ = comdat any

$_ZSt13__heap_selectIN9__gnu_cxx17__normal_iteratorIPSt4pairINSt7__cxx1112basic_stringIcSt11char_traitsIcESaIcEEEiESt6vectorIS9_SaIS9_EEEENS0_5__ops15_Iter_comp_iterIPFbRKS9_SI_EEEEvT_SM_SM_T0_ = comdat any

$_ZSt11__sort_heapIN9__gnu_cxx17__normal_iteratorIPSt4pairINSt7__cxx1112basic_stringIcSt11char_traitsIcESaIcEEEiESt6vectorIS9_SaIS9_EEEENS0_5__ops15_Iter_comp_iterIPFbRKS9_SI_EEEEvT_SM_RT0_ = comdat any

$_ZSt10__pop_heapIN9__gnu_cxx17__normal_iteratorIPSt4pairINSt7__cxx1112basic_stringIcSt11char_traitsIcESaIcEEEiESt6vectorIS9_SaIS9_EEEENS0_5__ops15_Iter_comp_iterIPFbRKS9_SI_EEEEvT_SM_SM_RT0_ = comdat any

$_ZSt13__adjust_heapIN9__gnu_cxx17__normal_iteratorIPSt4pairINSt7__cxx1112basic_stringIcSt11char_traitsIcESaIcEEEiESt6vectorIS9_SaIS9_EEEElS9_NS0_5__ops15_Iter_comp_iterIPFbRKS9_SI_EEEEvT_T0_SN_T1_T2_ = comdat any

$_ZN9__gnu_cxx5__ops14_Iter_comp_valIPFbRKSt4pairINSt7__cxx1112basic_stringIcSt11char_traitsIcESaIcEEEiESB_EEC2EONS0_15_Iter_comp_iterISD_EE = comdat any

$_ZSt11__push_heapIN9__gnu_cxx17__normal_iteratorIPSt4pairINSt7__cxx1112basic_stringIcSt11char_traitsIcESaIcEEEiESt6vectorIS9_SaIS9_EEEElS9_NS0_5__ops14_Iter_comp_valIPFbRKS9_SI_EEEEvT_T0_SN_T1_RT2_ = comdat any

$_ZN9__gnu_cxx5__ops14_Iter_comp_valIPFbRKSt4pairINSt7__cxx1112basic_stringIcSt11char_traitsIcESaIcEEEiESB_EEclINS_17__normal_iteratorIPS9_St6vectorIS9_SaIS9_EEEES9_EEbT_RT0_ = comdat any

$_ZSt11__make_heapIN9__gnu_cxx17__normal_iteratorIPSt4pairINSt7__cxx1112basic_stringIcSt11char_traitsIcESaIcEEEiESt6vectorIS9_SaIS9_EEEENS0_5__ops15_Iter_comp_iterIPFbRKS9_SI_EEEEvT_SM_RT0_ = comdat any

$_ZN9__gnu_cxx5__ops15_Iter_comp_iterIPFbRKSt4pairINSt7__cxx1112basic_stringIcSt11char_traitsIcESaIcEEEiESB_EEC2ESD_ = comdat any

$_ZNSt6vectorISt4pairINSt7__cxx1112basic_stringIcSt11char_traitsIcESaIcEEEiESaIS7_EE12emplace_backIJS7_EEEvDpOT_ = comdat any

$_ZSt7forwardISt4pairINSt7__cxx1112basic_stringIcSt11char_traitsIcESaIcEEEiEEOT_RNSt16remove_referenceIS8_E4typeE = comdat any

$_ZNSt16allocator_traitsISaISt4pairINSt7__cxx1112basic_stringIcSt11char_traitsIcESaIcEEEiEEE9constructIS7_JS7_EEEvRS8_PT_DpOT0_ = comdat any

$_ZNSt6vectorISt4pairINSt7__cxx1112basic_stringIcSt11char_traitsIcESaIcEEEiESaIS7_EE17_M_realloc_insertIJS7_EEEvN9__gnu_cxx17__normal_iteratorIPS7_S9_EEDpOT_ = comdat any

$_ZNKSt6vectorISt4pairINSt7__cxx1112basic_stringIcSt11char_traitsIcESaIcEEEiESaIS7_EE12_M_check_lenEmPKc = comdat any

$_ZNSt12_Vector_baseISt4pairINSt7__cxx1112basic_stringIcSt11char_traitsIcESaIcEEEiESaIS7_EE11_M_allocateEm = comdat any

$_ZNSt6vectorISt4pairINSt7__cxx1112basic_stringIcSt11char_traitsIcESaIcEEEiESaIS7_EE11_S_relocateEPS7_SA_SA_RS8_ = comdat any

$_ZNSt6vectorISt4pairINSt7__cxx1112basic_stringIcSt11char_traitsIcESaIcEEEiESaIS7_EE14_S_do_relocateEPS7_SA_SA_RS8_St17integral_constantIbLb1EE = comdat any

$_ZSt12__relocate_aIPSt4pairINSt7__cxx1112basic_stringIcSt11char_traitsIcESaIcEEEiES8_SaIS7_EET0_T_SB_SA_RT1_ = comdat any

$_ZSt12__niter_baseIPSt4pairINSt7__cxx1112basic_stringIcSt11char_traitsIcESaIcEEEiEET_S9_ = comdat any

$_ZSt14__relocate_a_1IPSt4pairINSt7__cxx1112basic_stringIcSt11char_traitsIcESaIcEEEiES8_SaIS7_EET0_T_SB_SA_RT1_ = comdat any

$_ZSt19__relocate_object_aISt4pairINSt7__cxx1112basic_stringIcSt11char_traitsIcESaIcEEEiES7_SaIS7_EEvPT_PT0_RT1_ = comdat any

$_ZNSt16allocator_traitsISaISt4pairINSt7__cxx1112basic_stringIcSt11char_traitsIcESaIcEEEiEEE7destroyIS7_EEvRS8_PT_ = comdat any

$_ZN9__gnu_cxx13new_allocatorISt4pairINSt7__cxx1112basic_stringIcSt11char_traitsIcESaIcEEEiEE7destroyIS8_EEvPT_ = comdat any

$_ZNSt16allocator_traitsISaISt4pairINSt7__cxx1112basic_stringIcSt11char_traitsIcESaIcEEEiEEE8allocateERS8_m = comdat any

$_ZN9__gnu_cxx13new_allocatorISt4pairINSt7__cxx1112basic_stringIcSt11char_traitsIcESaIcEEEiEE8allocateEmPKv = comdat any

$_ZNK9__gnu_cxx13new_allocatorISt4pairINSt7__cxx1112basic_stringIcSt11char_traitsIcESaIcEEEiEE8max_sizeEv = comdat any

$_ZNKSt6vectorISt4pairINSt7__cxx1112basic_stringIcSt11char_traitsIcESaIcEEEiESaIS7_EE8max_sizeEv = comdat any

$_ZSt3maxImERKT_S2_S2_ = comdat any

$_ZNKSt12_Vector_baseISt4pairINSt7__cxx1112basic_stringIcSt11char_traitsIcESaIcEEEiESaIS7_EE19_M_get_Tp_allocatorEv = comdat any

$_ZNSt6vectorISt4pairINSt7__cxx1112basic_stringIcSt11char_traitsIcESaIcEEEiESaIS7_EE11_S_max_sizeERKS8_ = comdat any

$_ZNSt16allocator_traitsISaISt4pairINSt7__cxx1112basic_stringIcSt11char_traitsIcESaIcEEEiEEE8max_sizeERKS8_ = comdat any

$_ZSt3minImERKT_S2_S2_ = comdat any

$_ZN9__gnu_cxx13new_allocatorISt4pairINSt7__cxx1112basic_stringIcSt11char_traitsIcESaIcEEEiEE9constructIS8_JS8_EEEvPT_DpOT0_ = comdat any

$_ZSt7forwardIRiEOT_RNSt16remove_referenceIS1_E4typeE = comdat any

$_ZNSt4pairINSt7__cxx1112basic_stringIcSt11char_traitsIcESaIcEEEiEC2IS5_RiLb1EEEOT_OT0_ = comdat any

$_ZNSt16allocator_traitsISaINSt7__cxx1112basic_stringIcSt11char_traitsIcESaIcEEEEE9constructIS5_JRKS5_EEEvRS6_PT_DpOT0_ = comdat any

$_ZNSt6vectorINSt7__cxx1112basic_stringIcSt11char_traitsIcESaIcEEESaIS5_EE3endEv = comdat any

$_ZNSt6vectorINSt7__cxx1112basic_stringIcSt11char_traitsIcESaIcEEESaIS5_EE17_M_realloc_insertIJRKS5_EEEvN9__gnu_cxx17__normal_iteratorIPS5_S7_EEDpOT_ = comdat any

$_ZNKSt6vectorINSt7__cxx1112basic_stringIcSt11char_traitsIcESaIcEEESaIS5_EE12_M_check_lenEmPKc = comdat any

$_ZNSt6vectorINSt7__cxx1112basic_stringIcSt11char_traitsIcESaIcEEESaIS5_EE5beginEv = comdat any

$_ZN9__gnu_cxxmiIPNSt7__cxx1112basic_stringIcSt11char_traitsIcESaIcEEESt6vectorIS6_SaIS6_EEEENS_17__normal_iteratorIT_T0_E15difference_typeERKSE_SH_ = comdat any

$_ZNSt12_Vector_baseINSt7__cxx1112basic_stringIcSt11char_traitsIcESaIcEEESaIS5_EE11_M_allocateEm = comdat any

$_ZSt7forwardIRKNSt7__cxx1112basic_stringIcSt11char_traitsIcESaIcEEEEOT_RNSt16remove_referenceIS8_E4typeE = comdat any

$_ZNK9__gnu_cxx17__normal_iteratorIPNSt7__cxx1112basic_stringIcSt11char_traitsIcESaIcEEESt6vectorIS6_SaIS6_EEE4baseEv = comdat any

$_ZNSt6vectorINSt7__cxx1112basic_stringIcSt11char_traitsIcESaIcEEESaIS5_EE11_S_relocateEPS5_S8_S8_RS6_ = comdat any

$_ZNSt16allocator_traitsISaINSt7__cxx1112basic_stringIcSt11char_traitsIcESaIcEEEEE7destroyIS5_EEvRS6_PT_ = comdat any

$_ZN9__gnu_cxx13new_allocatorINSt7__cxx1112basic_stringIcSt11char_traitsIcESaIcEEEE7destroyIS6_EEvPT_ = comdat any

$_ZNSt6vectorINSt7__cxx1112basic_stringIcSt11char_traitsIcESaIcEEESaIS5_EE14_S_do_relocateEPS5_S8_S8_RS6_St17integral_constantIbLb1EE = comdat any

$_ZSt12__relocate_aIPNSt7__cxx1112basic_stringIcSt11char_traitsIcESaIcEEES6_SaIS5_EET0_T_S9_S8_RT1_ = comdat any

$_ZSt12__niter_baseIPNSt7__cxx1112basic_stringIcSt11char_traitsIcESaIcEEEET_S7_ = comdat any

$_ZSt14__relocate_a_1IPNSt7__cxx1112basic_stringIcSt11char_traitsIcESaIcEEES6_SaIS5_EET0_T_S9_S8_RT1_ = comdat any

$_ZSt19__relocate_object_aINSt7__cxx1112basic_stringIcSt11char_traitsIcESaIcEEES5_SaIS5_EEvPT_PT0_RT1_ = comdat any

$_ZSt4moveIRNSt7__cxx1112basic_stringIcSt11char_traitsIcESaIcEEEEONSt16remove_referenceIT_E4typeEOS8_ = comdat any

$_ZNSt16allocator_traitsISaINSt7__cxx1112basic_stringIcSt11char_traitsIcESaIcEEEEE9constructIS5_JS5_EEEvRS6_PT_DpOT0_ = comdat any

$_ZN9__gnu_cxx13new_allocatorINSt7__cxx1112basic_stringIcSt11char_traitsIcESaIcEEEE9constructIS6_JS6_EEEvPT_DpOT0_ = comdat any

$_ZNSt16allocator_traitsISaINSt7__cxx1112basic_stringIcSt11char_traitsIcESaIcEEEEE8allocateERS6_m = comdat any

$_ZN9__gnu_cxx13new_allocatorINSt7__cxx1112basic_stringIcSt11char_traitsIcESaIcEEEE8allocateEmPKv = comdat any

$_ZNK9__gnu_cxx13new_allocatorINSt7__cxx1112basic_stringIcSt11char_traitsIcESaIcEEEE8max_sizeEv = comdat any

$_ZN9__gnu_cxx17__normal_iteratorIPNSt7__cxx1112basic_stringIcSt11char_traitsIcESaIcEEESt6vectorIS6_SaIS6_EEEC2ERKS7_ = comdat any

$_ZNKSt6vectorINSt7__cxx1112basic_stringIcSt11char_traitsIcESaIcEEESaIS5_EE8max_sizeEv = comdat any

$_ZNKSt12_Vector_baseINSt7__cxx1112basic_stringIcSt11char_traitsIcESaIcEEESaIS5_EE19_M_get_Tp_allocatorEv = comdat any

$_ZNSt6vectorINSt7__cxx1112basic_stringIcSt11char_traitsIcESaIcEEESaIS5_EE11_S_max_sizeERKS6_ = comdat any

$_ZNSt16allocator_traitsISaINSt7__cxx1112basic_stringIcSt11char_traitsIcESaIcEEEEE8max_sizeERKS6_ = comdat any

$_ZN9__gnu_cxx13new_allocatorINSt7__cxx1112basic_stringIcSt11char_traitsIcESaIcEEEE9constructIS6_JRKS6_EEEvPT_DpOT0_ = comdat any

$_ZNSt12_Vector_baseISt4pairINSt7__cxx1112basic_stringIcSt11char_traitsIcESaIcEEEiESaIS7_EEC2Ev = comdat any

$_ZNSt12_Vector_baseISt4pairINSt7__cxx1112basic_stringIcSt11char_traitsIcESaIcEEEiESaIS7_EE12_Vector_implC2Ev = comdat any

$_ZNSaISt4pairINSt7__cxx1112basic_stringIcSt11char_traitsIcESaIcEEEiEEC2Ev = comdat any

$_ZNSt12_Vector_baseISt4pairINSt7__cxx1112basic_stringIcSt11char_traitsIcESaIcEEEiESaIS7_EE17_Vector_impl_dataC2Ev = comdat any

$_ZN9__gnu_cxx13new_allocatorISt4pairINSt7__cxx1112basic_stringIcSt11char_traitsIcESaIcEEEiEEC2Ev = comdat any

$_ZNSt12_Vector_baseINSt7__cxx1112basic_stringIcSt11char_traitsIcESaIcEEESaIS5_EEC2Ev = comdat any

$_ZNSt12_Vector_baseINSt7__cxx1112basic_stringIcSt11char_traitsIcESaIcEEESaIS5_EE12_Vector_implC2Ev = comdat any

$_ZNSaINSt7__cxx1112basic_stringIcSt11char_traitsIcESaIcEEEEC2Ev = comdat any

$_ZNSt12_Vector_baseINSt7__cxx1112basic_stringIcSt11char_traitsIcESaIcEEESaIS5_EE17_Vector_impl_dataC2Ev = comdat any

$_ZN9__gnu_cxx13new_allocatorINSt7__cxx1112basic_stringIcSt11char_traitsIcESaIcEEEEC2Ev = comdat any

@llvm.global_ctors = appending global [1 x { i32, void ()*, i8* }] [{ i32, void ()*, i8* } { i32 65535, void ()* @_GLOBAL__sub_I_OrderStrings.cpp, i8* null }]
@_ZStL8__ioinit = internal global %"class.std::ios_base::Init" zeroinitializer, align 1
@.str = private unnamed_addr constant [28 x i8] c"../input_files/OrderStrings\00", align 1
@.str.1 = private unnamed_addr constant [2 x i8] c"r\00", align 1
@stdin = external dso_local global %struct._IO_FILE*, align 8
@.str.2 = private unnamed_addr constant [3 x i8] c"%d\00", align 1
@.str.3 = private unnamed_addr constant [2 x i8] c" \00", align 1
@_ZSt3cin = external dso_local global %"class.std::basic_istream", align 8
@.str.4 = private unnamed_addr constant [2 x i8] c"0\00", align 1
@.str.5 = private unnamed_addr constant [12 x i8] c"pp<s.size()\00", align 1
@.str.6 = private unnamed_addr constant [17 x i8] c"OrderStrings.cpp\00", align 1
@__PRETTY_FUNCTION__.main = private unnamed_addr constant [11 x i8] c"int main()\00", align 1
@_ZSt4cerr = external dso_local global %"class.std::basic_ostream", align 8
@.str.7 = private unnamed_addr constant [9 x i8] c"a.size()\00", align 1
@.str.8 = private unnamed_addr constant [5 x i8] c" :: \00", align 1
@.str.9 = private unnamed_addr constant [2 x i8] c"\0A\00", align 1
@.str.10 = private unnamed_addr constant [20 x i8] c"a[i].sc <= v.size()\00", align 1
@_ZSt4cout = external dso_local global %"class.std::basic_ostream", align 8
@.str.11 = private unnamed_addr constant [26 x i8] c"vector::_M_realloc_insert\00", align 1

; Function Attrs: noinline uwtable
define internal void @_GLOBAL__sub_I_OrderStrings.cpp() #0 section ".text.startup" {
  call void @__cxx_global_var_init(), !llfi_index !4
  ret void, !llfi_index !5
}

; Function Attrs: noinline uwtable
define internal void @__cxx_global_var_init() #0 section ".text.startup" {
  call void @_ZNSt8ios_base4InitC1Ev(%"class.std::ios_base::Init"* nonnull align 1 dereferenceable(1) @_ZStL8__ioinit), !llfi_index !6
  %1 = call i32 @atexit(void ()* @__dtor__ZStL8__ioinit) #2, !llfi_index !7
  ret void, !llfi_index !8
}

declare dso_local void @_ZNSt8ios_base4InitC1Ev(%"class.std::ios_base::Init"* nonnull align 1 dereferenceable(1)) unnamed_addr #1

; Function Attrs: noinline uwtable
define internal void @__dtor__ZStL8__ioinit() #0 section ".text.startup" {
  call void @_ZNSt8ios_base4InitD1Ev(%"class.std::ios_base::Init"* @_ZStL8__ioinit), !llfi_index !9
  ret void, !llfi_index !10
}

; Function Attrs: nounwind
declare dso_local i32 @atexit(void ()*) #2

; Function Attrs: nounwind
declare dso_local void @_ZNSt8ios_base4InitD1Ev(%"class.std::ios_base::Init"* nonnull align 1 dereferenceable(1)) unnamed_addr #3

; Function Attrs: mustprogress noinline uwtable
define dso_local void @_Z13convertstringB5cxx11x(%"class.std::__cxx11::basic_string"* noalias sret(%"class.std::__cxx11::basic_string") align 8 %0, i64 %1) #4 personality i8* bitcast (i32 (...)* @__gxx_personality_v0 to i8*) {
  %3 = alloca i8*, align 8, !llfi_index !11
  %4 = alloca i64, align 8, !llfi_index !12
  %5 = alloca %"class.std::__cxx11::basic_stringstream", align 8, !llfi_index !13
  %6 = alloca i8*, align 8, !llfi_index !14
  %7 = alloca i32, align 4, !llfi_index !15
  %8 = bitcast %"class.std::__cxx11::basic_string"* %0 to i8*, !llfi_index !16
  store i8* %8, i8** %3, align 8, !llfi_index !17
  store i64 %1, i64* %4, align 8, !llfi_index !18
  call void @_ZNSt7__cxx1118basic_stringstreamIcSt11char_traitsIcESaIcEEC1Ev(%"class.std::__cxx11::basic_stringstream"* nonnull align 8 dereferenceable(128) %5), !llfi_index !19
  %9 = bitcast %"class.std::__cxx11::basic_stringstream"* %5 to i8*, !llfi_index !20
  %10 = getelementptr inbounds i8, i8* %9, i64 16, !llfi_index !21
  %11 = bitcast i8* %10 to %"class.std::basic_ostream"*, !llfi_index !22
  %12 = load i64, i64* %4, align 8, !llfi_index !23
  %13 = invoke nonnull align 8 dereferenceable(8) %"class.std::basic_ostream"* @_ZNSolsEx(%"class.std::basic_ostream"* nonnull align 8 dereferenceable(8) %11, i64 %12)
          to label %14 unwind label %16, !llfi_index !24

14:                                               ; preds = %2
  invoke void @_ZNKSt7__cxx1118basic_stringstreamIcSt11char_traitsIcESaIcEE3strEv(%"class.std::__cxx11::basic_string"* sret(%"class.std::__cxx11::basic_string") align 8 %0, %"class.std::__cxx11::basic_stringstream"* nonnull align 8 dereferenceable(128) %5)
          to label %15 unwind label %16, !llfi_index !25

15:                                               ; preds = %14
  call void @_ZNSt7__cxx1118basic_stringstreamIcSt11char_traitsIcESaIcEED1Ev(%"class.std::__cxx11::basic_stringstream"* nonnull align 8 dereferenceable(128) %5) #2, !llfi_index !26
  ret void, !llfi_index !27

16:                                               ; preds = %14, %2
  %17 = landingpad { i8*, i32 }
          cleanup, !llfi_index !28
  %18 = extractvalue { i8*, i32 } %17, 0, !llfi_index !29
  store i8* %18, i8** %6, align 8, !llfi_index !30
  %19 = extractvalue { i8*, i32 } %17, 1, !llfi_index !31
  store i32 %19, i32* %7, align 4, !llfi_index !32
  call void @_ZNSt7__cxx1118basic_stringstreamIcSt11char_traitsIcESaIcEED1Ev(%"class.std::__cxx11::basic_stringstream"* nonnull align 8 dereferenceable(128) %5) #2, !llfi_index !33
  br label %20, !llfi_index !34

20:                                               ; preds = %16
  %21 = load i8*, i8** %6, align 8, !llfi_index !35
  %22 = load i32, i32* %7, align 4, !llfi_index !36
  %23 = insertvalue { i8*, i32 } undef, i8* %21, 0, !llfi_index !37
  %24 = insertvalue { i8*, i32 } %23, i32 %22, 1, !llfi_index !38
  resume { i8*, i32 } %24, !llfi_index !39
}

declare dso_local i32 @__gxx_personality_v0(...)

declare dso_local void @_ZNSt7__cxx1118basic_stringstreamIcSt11char_traitsIcESaIcEEC1Ev(%"class.std::__cxx11::basic_stringstream"* nonnull align 8 dereferenceable(128)) unnamed_addr #1

declare dso_local nonnull align 8 dereferenceable(8) %"class.std::basic_ostream"* @_ZNSolsEx(%"class.std::basic_ostream"* nonnull align 8 dereferenceable(8), i64) #1

declare dso_local void @_ZNKSt7__cxx1118basic_stringstreamIcSt11char_traitsIcESaIcEE3strEv(%"class.std::__cxx11::basic_string"* sret(%"class.std::__cxx11::basic_string") align 8, %"class.std::__cxx11::basic_stringstream"* nonnull align 8 dereferenceable(128)) #1

; Function Attrs: nounwind
declare dso_local void @_ZNSt7__cxx1118basic_stringstreamIcSt11char_traitsIcESaIcEED1Ev(%"class.std::__cxx11::basic_stringstream"* nonnull align 8 dereferenceable(128)) unnamed_addr #3

; Function Attrs: mustprogress noinline uwtable
define dso_local zeroext i1 @_Z3cmpRKSt4pairINSt7__cxx1112basic_stringIcSt11char_traitsIcESaIcEEEiES8_(%"struct.std::pair"* nonnull align 8 dereferenceable(36) %0, %"struct.std::pair"* nonnull align 8 dereferenceable(36) %1) #4 personality i8* bitcast (i32 (...)* @__gxx_personality_v0 to i8*) {
  %3 = alloca i1, align 1, !llfi_index !40
  %4 = alloca %"struct.std::pair"*, align 8, !llfi_index !41
  %5 = alloca %"struct.std::pair"*, align 8, !llfi_index !42
  %6 = alloca %"class.std::__cxx11::basic_string", align 8, !llfi_index !43
  %7 = alloca %"class.std::__cxx11::basic_string", align 8, !llfi_index !44
  %8 = alloca i8*, align 8, !llfi_index !45
  %9 = alloca i32, align 4, !llfi_index !46
  %10 = alloca i32, align 4, !llfi_index !47
  store %"struct.std::pair"* %0, %"struct.std::pair"** %4, align 8, !llfi_index !48
  store %"struct.std::pair"* %1, %"struct.std::pair"** %5, align 8, !llfi_index !49
  %11 = load %"struct.std::pair"*, %"struct.std::pair"** %4, align 8, !llfi_index !50
  %12 = getelementptr inbounds %"struct.std::pair", %"struct.std::pair"* %11, i32 0, i32 0, !llfi_index !51
  call void @_ZNSt7__cxx1112basic_stringIcSt11char_traitsIcESaIcEEC1ERKS4_(%"class.std::__cxx11::basic_string"* nonnull align 8 dereferenceable(32) %6, %"class.std::__cxx11::basic_string"* nonnull align 8 dereferenceable(32) %12), !llfi_index !52
  %13 = load %"struct.std::pair"*, %"struct.std::pair"** %5, align 8, !llfi_index !53
  %14 = getelementptr inbounds %"struct.std::pair", %"struct.std::pair"* %13, i32 0, i32 0, !llfi_index !54
  invoke void @_ZNSt7__cxx1112basic_stringIcSt11char_traitsIcESaIcEEC1ERKS4_(%"class.std::__cxx11::basic_string"* nonnull align 8 dereferenceable(32) %7, %"class.std::__cxx11::basic_string"* nonnull align 8 dereferenceable(32) %14)
          to label %15 unwind label %20, !llfi_index !55

15:                                               ; preds = %2
  %16 = call i64 @_ZNKSt7__cxx1112basic_stringIcSt11char_traitsIcESaIcEE6lengthEv(%"class.std::__cxx11::basic_string"* nonnull align 8 dereferenceable(32) %6) #2, !llfi_index !56
  %17 = call i64 @_ZNKSt7__cxx1112basic_stringIcSt11char_traitsIcESaIcEE6lengthEv(%"class.std::__cxx11::basic_string"* nonnull align 8 dereferenceable(32) %7) #2, !llfi_index !57
  %18 = icmp ult i64 %16, %17, !llfi_index !58
  br i1 %18, label %19, label %24, !llfi_index !59

19:                                               ; preds = %15
  store i1 true, i1* %3, align 1, !llfi_index !60
  store i32 1, i32* %10, align 4, !llfi_index !61
  br label %41, !llfi_index !62

20:                                               ; preds = %2
  %21 = landingpad { i8*, i32 }
          cleanup, !llfi_index !63
  %22 = extractvalue { i8*, i32 } %21, 0, !llfi_index !64
  store i8* %22, i8** %8, align 8, !llfi_index !65
  %23 = extractvalue { i8*, i32 } %21, 1, !llfi_index !66
  store i32 %23, i32* %9, align 4, !llfi_index !67
  call void @_ZNSt7__cxx1112basic_stringIcSt11char_traitsIcESaIcEED1Ev(%"class.std::__cxx11::basic_string"* nonnull align 8 dereferenceable(32) %6) #2, !llfi_index !68
  br label %43, !llfi_index !69

24:                                               ; preds = %15
  %25 = call i64 @_ZNKSt7__cxx1112basic_stringIcSt11char_traitsIcESaIcEE6lengthEv(%"class.std::__cxx11::basic_string"* nonnull align 8 dereferenceable(32) %7) #2, !llfi_index !70
  %26 = call i64 @_ZNKSt7__cxx1112basic_stringIcSt11char_traitsIcESaIcEE6lengthEv(%"class.std::__cxx11::basic_string"* nonnull align 8 dereferenceable(32) %6) #2, !llfi_index !71
  %27 = icmp ult i64 %25, %26, !llfi_index !72
  br i1 %27, label %28, label %29, !llfi_index !73

28:                                               ; preds = %24
  store i1 false, i1* %3, align 1, !llfi_index !74
  store i32 1, i32* %10, align 4, !llfi_index !75
  br label %41, !llfi_index !76

29:                                               ; preds = %24
  %30 = call zeroext i1 @_ZSteqIcEN9__gnu_cxx11__enable_ifIXsr9__is_charIT_EE7__valueEbE6__typeERKNSt7__cxx1112basic_stringIS2_St11char_traitsIS2_ESaIS2_EEESC_(%"class.std::__cxx11::basic_string"* nonnull align 8 dereferenceable(32) %6, %"class.std::__cxx11::basic_string"* nonnull align 8 dereferenceable(32) %7) #2, !llfi_index !77
  br i1 %30, label %31, label %39, !llfi_index !78

31:                                               ; preds = %29
  %32 = load %"struct.std::pair"*, %"struct.std::pair"** %4, align 8, !llfi_index !79
  %33 = getelementptr inbounds %"struct.std::pair", %"struct.std::pair"* %32, i32 0, i32 1, !llfi_index !80
  %34 = load i32, i32* %33, align 8, !llfi_index !81
  %35 = load %"struct.std::pair"*, %"struct.std::pair"** %5, align 8, !llfi_index !82
  %36 = getelementptr inbounds %"struct.std::pair", %"struct.std::pair"* %35, i32 0, i32 1, !llfi_index !83
  %37 = load i32, i32* %36, align 8, !llfi_index !84
  %38 = icmp slt i32 %34, %37, !llfi_index !85
  store i1 %38, i1* %3, align 1, !llfi_index !86
  store i32 1, i32* %10, align 4, !llfi_index !87
  br label %41, !llfi_index !88

39:                                               ; preds = %29
  %40 = call zeroext i1 @_ZStltIcSt11char_traitsIcESaIcEEbRKNSt7__cxx1112basic_stringIT_T0_T1_EESA_(%"class.std::__cxx11::basic_string"* nonnull align 8 dereferenceable(32) %6, %"class.std::__cxx11::basic_string"* nonnull align 8 dereferenceable(32) %7) #2, !llfi_index !89
  store i1 %40, i1* %3, align 1, !llfi_index !90
  store i32 1, i32* %10, align 4, !llfi_index !91
  br label %41, !llfi_index !92

41:                                               ; preds = %39, %31, %28, %19
  call void @_ZNSt7__cxx1112basic_stringIcSt11char_traitsIcESaIcEED1Ev(%"class.std::__cxx11::basic_string"* nonnull align 8 dereferenceable(32) %7) #2, !llfi_index !93
  call void @_ZNSt7__cxx1112basic_stringIcSt11char_traitsIcESaIcEED1Ev(%"class.std::__cxx11::basic_string"* nonnull align 8 dereferenceable(32) %6) #2, !llfi_index !94
  %42 = load i1, i1* %3, align 1, !llfi_index !95
  ret i1 %42, !llfi_index !96

43:                                               ; preds = %20
  %44 = load i8*, i8** %8, align 8, !llfi_index !97
  %45 = load i32, i32* %9, align 4, !llfi_index !98
  %46 = insertvalue { i8*, i32 } undef, i8* %44, 0, !llfi_index !99
  %47 = insertvalue { i8*, i32 } %46, i32 %45, 1, !llfi_index !100
  resume { i8*, i32 } %47, !llfi_index !101
}

declare dso_local void @_ZNSt7__cxx1112basic_stringIcSt11char_traitsIcESaIcEEC1ERKS4_(%"class.std::__cxx11::basic_string"* nonnull align 8 dereferenceable(32), %"class.std::__cxx11::basic_string"* nonnull align 8 dereferenceable(32)) unnamed_addr #1

; Function Attrs: nounwind
declare dso_local i64 @_ZNKSt7__cxx1112basic_stringIcSt11char_traitsIcESaIcEE6lengthEv(%"class.std::__cxx11::basic_string"* nonnull align 8 dereferenceable(32)) #3

; Function Attrs: nounwind
declare dso_local void @_ZNSt7__cxx1112basic_stringIcSt11char_traitsIcESaIcEED1Ev(%"class.std::__cxx11::basic_string"* nonnull align 8 dereferenceable(32)) unnamed_addr #3

; Function Attrs: mustprogress noinline nounwind uwtable
define linkonce_odr dso_local zeroext i1 @_ZSteqIcEN9__gnu_cxx11__enable_ifIXsr9__is_charIT_EE7__valueEbE6__typeERKNSt7__cxx1112basic_stringIS2_St11char_traitsIS2_ESaIS2_EEESC_(%"class.std::__cxx11::basic_string"* nonnull align 8 dereferenceable(32) %0, %"class.std::__cxx11::basic_string"* nonnull align 8 dereferenceable(32) %1) #5 comdat personality i8* bitcast (i32 (...)* @__gxx_personality_v0 to i8*) {
  %3 = alloca %"class.std::__cxx11::basic_string"*, align 8, !llfi_index !102
  %4 = alloca %"class.std::__cxx11::basic_string"*, align 8, !llfi_index !103
  store %"class.std::__cxx11::basic_string"* %0, %"class.std::__cxx11::basic_string"** %3, align 8, !llfi_index !104
  store %"class.std::__cxx11::basic_string"* %1, %"class.std::__cxx11::basic_string"** %4, align 8, !llfi_index !105
  %5 = load %"class.std::__cxx11::basic_string"*, %"class.std::__cxx11::basic_string"** %3, align 8, !llfi_index !106
  %6 = call i64 @_ZNKSt7__cxx1112basic_stringIcSt11char_traitsIcESaIcEE4sizeEv(%"class.std::__cxx11::basic_string"* nonnull align 8 dereferenceable(32) %5) #2, !llfi_index !107
  %7 = load %"class.std::__cxx11::basic_string"*, %"class.std::__cxx11::basic_string"** %4, align 8, !llfi_index !108
  %8 = call i64 @_ZNKSt7__cxx1112basic_stringIcSt11char_traitsIcESaIcEE4sizeEv(%"class.std::__cxx11::basic_string"* nonnull align 8 dereferenceable(32) %7) #2, !llfi_index !109
  %9 = icmp eq i64 %6, %8, !llfi_index !110
  br i1 %9, label %10, label %21, !llfi_index !111

10:                                               ; preds = %2
  %11 = load %"class.std::__cxx11::basic_string"*, %"class.std::__cxx11::basic_string"** %3, align 8, !llfi_index !112
  %12 = call i8* @_ZNKSt7__cxx1112basic_stringIcSt11char_traitsIcESaIcEE4dataEv(%"class.std::__cxx11::basic_string"* nonnull align 8 dereferenceable(32) %11) #2, !llfi_index !113
  %13 = load %"class.std::__cxx11::basic_string"*, %"class.std::__cxx11::basic_string"** %4, align 8, !llfi_index !114
  %14 = call i8* @_ZNKSt7__cxx1112basic_stringIcSt11char_traitsIcESaIcEE4dataEv(%"class.std::__cxx11::basic_string"* nonnull align 8 dereferenceable(32) %13) #2, !llfi_index !115
  %15 = load %"class.std::__cxx11::basic_string"*, %"class.std::__cxx11::basic_string"** %3, align 8, !llfi_index !116
  %16 = call i64 @_ZNKSt7__cxx1112basic_stringIcSt11char_traitsIcESaIcEE4sizeEv(%"class.std::__cxx11::basic_string"* nonnull align 8 dereferenceable(32) %15) #2, !llfi_index !117
  %17 = invoke i32 @_ZNSt11char_traitsIcE7compareEPKcS2_m(i8* %12, i8* %14, i64 %16)
          to label %18 unwind label %23, !llfi_index !118

18:                                               ; preds = %10
  %19 = icmp ne i32 %17, 0, !llfi_index !119
  %20 = xor i1 %19, true, !llfi_index !120
  br label %21, !llfi_index !121

21:                                               ; preds = %18, %2
  %22 = phi i1 [ false, %2 ], [ %20, %18 ], !llfi_index !122
  ret i1 %22, !llfi_index !123

23:                                               ; preds = %10
  %24 = landingpad { i8*, i32 }
          catch i8* null, !llfi_index !124
  %25 = extractvalue { i8*, i32 } %24, 0, !llfi_index !125
  call void @__clang_call_terminate(i8* %25) #15, !llfi_index !126
  unreachable, !llfi_index !127
}

; Function Attrs: mustprogress noinline nounwind uwtable
define linkonce_odr dso_local zeroext i1 @_ZStltIcSt11char_traitsIcESaIcEEbRKNSt7__cxx1112basic_stringIT_T0_T1_EESA_(%"class.std::__cxx11::basic_string"* nonnull align 8 dereferenceable(32) %0, %"class.std::__cxx11::basic_string"* nonnull align 8 dereferenceable(32) %1) #5 comdat personality i8* bitcast (i32 (...)* @__gxx_personality_v0 to i8*) {
  %3 = alloca %"class.std::__cxx11::basic_string"*, align 8, !llfi_index !128
  %4 = alloca %"class.std::__cxx11::basic_string"*, align 8, !llfi_index !129
  store %"class.std::__cxx11::basic_string"* %0, %"class.std::__cxx11::basic_string"** %3, align 8, !llfi_index !130
  store %"class.std::__cxx11::basic_string"* %1, %"class.std::__cxx11::basic_string"** %4, align 8, !llfi_index !131
  %5 = load %"class.std::__cxx11::basic_string"*, %"class.std::__cxx11::basic_string"** %3, align 8, !llfi_index !132
  %6 = load %"class.std::__cxx11::basic_string"*, %"class.std::__cxx11::basic_string"** %4, align 8, !llfi_index !133
  %7 = invoke i32 @_ZNKSt7__cxx1112basic_stringIcSt11char_traitsIcESaIcEE7compareERKS4_(%"class.std::__cxx11::basic_string"* nonnull align 8 dereferenceable(32) %5, %"class.std::__cxx11::basic_string"* nonnull align 8 dereferenceable(32) %6)
          to label %8 unwind label %10, !llfi_index !134

8:                                                ; preds = %2
  %9 = icmp slt i32 %7, 0, !llfi_index !135
  ret i1 %9, !llfi_index !136

10:                                               ; preds = %2
  %11 = landingpad { i8*, i32 }
          catch i8* null, !llfi_index !137
  %12 = extractvalue { i8*, i32 } %11, 0, !llfi_index !138
  call void @__clang_call_terminate(i8* %12) #15, !llfi_index !139
  unreachable, !llfi_index !140
}

declare dso_local i32 @_ZNKSt7__cxx1112basic_stringIcSt11char_traitsIcESaIcEE7compareERKS4_(%"class.std::__cxx11::basic_string"* nonnull align 8 dereferenceable(32), %"class.std::__cxx11::basic_string"* nonnull align 8 dereferenceable(32)) #1

; Function Attrs: noinline noreturn nounwind
define linkonce_odr hidden void @__clang_call_terminate(i8* %0) #6 comdat {
  %2 = call i8* @__cxa_begin_catch(i8* %0) #2, !llfi_index !141
  call void @_ZSt9terminatev() #15, !llfi_index !142
  unreachable, !llfi_index !143
}

declare dso_local i8* @__cxa_begin_catch(i8*)

declare dso_local void @_ZSt9terminatev()

; Function Attrs: nounwind
declare dso_local i64 @_ZNKSt7__cxx1112basic_stringIcSt11char_traitsIcESaIcEE4sizeEv(%"class.std::__cxx11::basic_string"* nonnull align 8 dereferenceable(32)) #3

; Function Attrs: nounwind
declare dso_local i8* @_ZNKSt7__cxx1112basic_stringIcSt11char_traitsIcESaIcEE4dataEv(%"class.std::__cxx11::basic_string"* nonnull align 8 dereferenceable(32)) #3

; Function Attrs: mustprogress noinline nounwind uwtable
define linkonce_odr dso_local i32 @_ZNSt11char_traitsIcE7compareEPKcS2_m(i8* %0, i8* %1, i64 %2) #5 comdat align 2 {
  %4 = alloca i32, align 4, !llfi_index !144
  %5 = alloca i8*, align 8, !llfi_index !145
  %6 = alloca i8*, align 8, !llfi_index !146
  %7 = alloca i64, align 8, !llfi_index !147
  store i8* %0, i8** %5, align 8, !llfi_index !148
  store i8* %1, i8** %6, align 8, !llfi_index !149
  store i64 %2, i64* %7, align 8, !llfi_index !150
  %8 = load i64, i64* %7, align 8, !llfi_index !151
  %9 = icmp eq i64 %8, 0, !llfi_index !152
  br i1 %9, label %10, label %11, !llfi_index !153

10:                                               ; preds = %3
  store i32 0, i32* %4, align 4, !llfi_index !154
  br label %16, !llfi_index !155

11:                                               ; preds = %3
  %12 = load i8*, i8** %5, align 8, !llfi_index !156
  %13 = load i8*, i8** %6, align 8, !llfi_index !157
  %14 = load i64, i64* %7, align 8, !llfi_index !158
  %15 = call i32 @memcmp(i8* %12, i8* %13, i64 %14) #2, !llfi_index !159
  store i32 %15, i32* %4, align 4, !llfi_index !160
  br label %16, !llfi_index !161

16:                                               ; preds = %11, %10
  %17 = load i32, i32* %4, align 4, !llfi_index !162
  ret i32 %17, !llfi_index !163
}

; Function Attrs: nounwind
declare dso_local i32 @memcmp(i8*, i8*, i64) #3

; Function Attrs: mustprogress noinline norecurse uwtable
define dso_local i32 @main() #7 personality i8* bitcast (i32 (...)* @__gxx_personality_v0 to i8*) {
  %1 = alloca i32, align 4, !llfi_index !164
  %2 = alloca i32, align 4, !llfi_index !165
  %3 = alloca i32, align 4, !llfi_index !166
  %4 = alloca %"class.std::__cxx11::basic_string", align 8, !llfi_index !167
  %5 = alloca %"class.std::vector", align 8, !llfi_index !168
  %6 = alloca %"class.std::vector.3", align 8, !llfi_index !169
  %7 = alloca [100 x i8], align 16, !llfi_index !170
  %8 = alloca i8*, align 8, !llfi_index !171
  %9 = alloca i32, align 4, !llfi_index !172
  %10 = alloca i32, align 4, !llfi_index !173
  %11 = alloca i32, align 4, !llfi_index !174
  %12 = alloca i8, align 1, !llfi_index !175
  %13 = alloca %"class.std::__cxx11::basic_string", align 8, !llfi_index !176
  %14 = alloca %"class.std::ios_base::Init", align 1, !llfi_index !177
  %15 = alloca i32, align 4, !llfi_index !178
  %16 = alloca %"class.std::__cxx11::basic_string", align 8, !llfi_index !179
  %17 = alloca %"class.std::__cxx11::basic_string", align 8, !llfi_index !180
  %18 = alloca i32, align 4, !llfi_index !181
  %19 = alloca i32, align 4, !llfi_index !182
  %20 = alloca i32, align 4, !llfi_index !183
  %21 = alloca i32, align 4, !llfi_index !184
  %22 = alloca %"class.std::__cxx11::basic_string", align 8, !llfi_index !185
  %23 = alloca i32, align 4, !llfi_index !186
  %24 = alloca %"struct.std::pair", align 8, !llfi_index !187
  %25 = alloca %"class.std::__cxx11::basic_string", align 8, !llfi_index !188
  %26 = alloca %"class.__gnu_cxx::__normal_iterator", align 8, !llfi_index !189
  %27 = alloca %"class.__gnu_cxx::__normal_iterator", align 8, !llfi_index !190
  %28 = alloca %"class.__gnu_cxx::__normal_iterator", align 8, !llfi_index !191
  %29 = alloca %"class.__gnu_cxx::__normal_iterator", align 8, !llfi_index !192
  %30 = alloca i32, align 4, !llfi_index !193
  %31 = alloca i32, align 4, !llfi_index !194
  store i32 0, i32* %1, align 4, !llfi_index !195
  %32 = load %struct._IO_FILE*, %struct._IO_FILE** @stdin, align 8, !llfi_index !196
  %33 = call %struct._IO_FILE* @freopen(i8* getelementptr inbounds ([28 x i8], [28 x i8]* @.str, i64 0, i64 0), i8* getelementptr inbounds ([2 x i8], [2 x i8]* @.str.1, i64 0, i64 0), %struct._IO_FILE* %32), !llfi_index !197
  %34 = call i32 (i8*, ...) @__isoc99_scanf(i8* getelementptr inbounds ([3 x i8], [3 x i8]* @.str.2, i64 0, i64 0), i32* %2), !llfi_index !198
  call void @_ZNSt7__cxx1112basic_stringIcSt11char_traitsIcESaIcEEC1Ev(%"class.std::__cxx11::basic_string"* nonnull align 8 dereferenceable(32) %4) #2, !llfi_index !199
  call void @_ZNSt6vectorINSt7__cxx1112basic_stringIcSt11char_traitsIcESaIcEEESaIS5_EEC2Ev(%"class.std::vector"* nonnull align 8 dereferenceable(24) %5) #2, !llfi_index !200
  call void @_ZNSt6vectorISt4pairINSt7__cxx1112basic_stringIcSt11char_traitsIcESaIcEEEiESaIS7_EEC2Ev(%"class.std::vector.3"* nonnull align 8 dereferenceable(24) %6) #2, !llfi_index !201
  %35 = invoke i32 @getchar()
          to label %36 unwind label %64, !llfi_index !202

36:                                               ; preds = %0
  store i32 89, i32* %10, align 4, !llfi_index !203
  store i32 0, i32* %3, align 4, !llfi_index !204
  br label %37, !llfi_index !205

37:                                               ; preds = %78, %36
  %38 = load i32, i32* %3, align 4, !llfi_index !206
  %39 = load i32, i32* %2, align 4, !llfi_index !207
  %40 = icmp slt i32 %38, %39, !llfi_index !208
  br i1 %40, label %41, label %85, !llfi_index !209

41:                                               ; preds = %37
  store i32 0, i32* %11, align 4, !llfi_index !210
  %42 = invoke i32 @getchar()
          to label %43 unwind label %64, !llfi_index !211

43:                                               ; preds = %41
  %44 = trunc i32 %42 to i8, !llfi_index !212
  store i8 %44, i8* %12, align 1, !llfi_index !213
  br label %45, !llfi_index !214

45:                                               ; preds = %62, %43
  %46 = load i8, i8* %12, align 1, !llfi_index !215
  %47 = sext i8 %46 to i32, !llfi_index !216
  %48 = icmp ne i32 %47, 10, !llfi_index !217
  br i1 %48, label %49, label %53, !llfi_index !218

49:                                               ; preds = %45
  %50 = load i8, i8* %12, align 1, !llfi_index !219
  %51 = sext i8 %50 to i32, !llfi_index !220
  %52 = icmp ne i32 %51, -1, !llfi_index !221
  br label %53, !llfi_index !222

53:                                               ; preds = %49, %45
  %54 = phi i1 [ false, %45 ], [ %52, %49 ], !llfi_index !223
  br i1 %54, label %55, label %68, !llfi_index !224

55:                                               ; preds = %53
  %56 = load i8, i8* %12, align 1, !llfi_index !225
  %57 = load i32, i32* %11, align 4, !llfi_index !226
  %58 = add nsw i32 %57, 1, !llfi_index !227
  store i32 %58, i32* %11, align 4, !llfi_index !228
  %59 = sext i32 %57 to i64, !llfi_index !229
  %60 = getelementptr inbounds [100 x i8], [100 x i8]* %7, i64 0, i64 %59, !llfi_index !230
  store i8 %56, i8* %60, align 1, !llfi_index !231
  %61 = invoke i32 @getchar()
          to label %62 unwind label %64, !llfi_index !232

62:                                               ; preds = %55
  %63 = trunc i32 %61 to i8, !llfi_index !233
  store i8 %63, i8* %12, align 1, !llfi_index !234
  br label %45, !llvm.loop !235, !llfi_index !237

64:                                               ; preds = %85, %76, %73, %55, %41, %0
  %65 = landingpad { i8*, i32 }
          cleanup, !llfi_index !238
  %66 = extractvalue { i8*, i32 } %65, 0, !llfi_index !239
  store i8* %66, i8** %8, align 8, !llfi_index !240
  %67 = extractvalue { i8*, i32 } %65, 1, !llfi_index !241
  store i32 %67, i32* %9, align 4, !llfi_index !242
  br label %314, !llfi_index !243

68:                                               ; preds = %53
  %69 = load i32, i32* %11, align 4, !llfi_index !244
  %70 = sext i32 %69 to i64, !llfi_index !245
  %71 = getelementptr inbounds [100 x i8], [100 x i8]* %7, i64 0, i64 %70, !llfi_index !246
  store i8 0, i8* %71, align 1, !llfi_index !247
  %72 = getelementptr inbounds [100 x i8], [100 x i8]* %7, i64 0, i64 0, !llfi_index !248
  call void @_ZNSaIcEC1Ev(%"class.std::ios_base::Init"* nonnull align 1 dereferenceable(1) %14) #2, !llfi_index !249
  invoke void @_ZNSt7__cxx1112basic_stringIcSt11char_traitsIcESaIcEEC1EPKcRKS3_(%"class.std::__cxx11::basic_string"* nonnull align 8 dereferenceable(32) %13, i8* %72, %"class.std::ios_base::Init"* nonnull align 1 dereferenceable(1) %14)
          to label %73 unwind label %81, !llfi_index !250

73:                                               ; preds = %68
  %74 = call nonnull align 8 dereferenceable(32) %"class.std::__cxx11::basic_string"* @_ZNSt7__cxx1112basic_stringIcSt11char_traitsIcESaIcEEaSEOS4_(%"class.std::__cxx11::basic_string"* nonnull align 8 dereferenceable(32) %4, %"class.std::__cxx11::basic_string"* nonnull align 8 dereferenceable(32) %13) #2, !llfi_index !251
  call void @_ZNSt7__cxx1112basic_stringIcSt11char_traitsIcESaIcEED1Ev(%"class.std::__cxx11::basic_string"* nonnull align 8 dereferenceable(32) %13) #2, !llfi_index !252
  call void @_ZNSaIcED1Ev(%"class.std::ios_base::Init"* nonnull align 1 dereferenceable(1) %14) #2, !llfi_index !253
  %75 = invoke nonnull align 8 dereferenceable(32) %"class.std::__cxx11::basic_string"* @_ZNSt7__cxx1112basic_stringIcSt11char_traitsIcESaIcEEpLEPKc(%"class.std::__cxx11::basic_string"* nonnull align 8 dereferenceable(32) %4, i8* getelementptr inbounds ([2 x i8], [2 x i8]* @.str.3, i64 0, i64 0))
          to label %76 unwind label %64, !llfi_index !254

76:                                               ; preds = %73
  invoke void @_ZNSt6vectorINSt7__cxx1112basic_stringIcSt11char_traitsIcESaIcEEESaIS5_EE9push_backERKS5_(%"class.std::vector"* nonnull align 8 dereferenceable(24) %5, %"class.std::__cxx11::basic_string"* nonnull align 8 dereferenceable(32) %4)
          to label %77 unwind label %64, !llfi_index !255

77:                                               ; preds = %76
  br label %78, !llfi_index !256

78:                                               ; preds = %77
  %79 = load i32, i32* %3, align 4, !llfi_index !257
  %80 = add nsw i32 %79, 1, !llfi_index !258
  store i32 %80, i32* %3, align 4, !llfi_index !259
  br label %37, !llvm.loop !260, !llfi_index !261

81:                                               ; preds = %68
  %82 = landingpad { i8*, i32 }
          cleanup, !llfi_index !262
  %83 = extractvalue { i8*, i32 } %82, 0, !llfi_index !263
  store i8* %83, i8** %8, align 8, !llfi_index !264
  %84 = extractvalue { i8*, i32 } %82, 1, !llfi_index !265
  store i32 %84, i32* %9, align 4, !llfi_index !266
  call void @_ZNSaIcED1Ev(%"class.std::ios_base::Init"* nonnull align 1 dereferenceable(1) %14) #2, !llfi_index !267
  br label %314, !llfi_index !268

85:                                               ; preds = %37
  %86 = invoke i32 (i8*, ...) @__isoc99_scanf(i8* getelementptr inbounds ([3 x i8], [3 x i8]* @.str.2, i64 0, i64 0), i32* %15)
          to label %87 unwind label %64, !llfi_index !269

87:                                               ; preds = %85
  call void @_ZNSt7__cxx1112basic_stringIcSt11char_traitsIcESaIcEEC1Ev(%"class.std::__cxx11::basic_string"* nonnull align 8 dereferenceable(32) %16) #2, !llfi_index !270
  call void @_ZNSt7__cxx1112basic_stringIcSt11char_traitsIcESaIcEEC1Ev(%"class.std::__cxx11::basic_string"* nonnull align 8 dereferenceable(32) %17) #2, !llfi_index !271
  %88 = invoke nonnull align 8 dereferenceable(16) %"class.std::basic_istream"* @_ZStrsIcSt11char_traitsIcESaIcEERSt13basic_istreamIT_T0_ES7_RNSt7__cxx1112basic_stringIS4_S5_T1_EE(%"class.std::basic_istream"* nonnull align 8 dereferenceable(16) @_ZSt3cin, %"class.std::__cxx11::basic_string"* nonnull align 8 dereferenceable(32) %16)
          to label %89 unwind label %157, !llfi_index !272

89:                                               ; preds = %87
  %90 = invoke nonnull align 8 dereferenceable(16) %"class.std::basic_istream"* @_ZStrsIcSt11char_traitsIcESaIcEERSt13basic_istreamIT_T0_ES7_RNSt7__cxx1112basic_stringIS4_S5_T1_EE(%"class.std::basic_istream"* nonnull align 8 dereferenceable(16) %88, %"class.std::__cxx11::basic_string"* nonnull align 8 dereferenceable(32) %17)
          to label %91 unwind label %157, !llfi_index !273

91:                                               ; preds = %89
  store i32 89, i32* %10, align 4, !llfi_index !274
  store i32 0, i32* %18, align 4, !llfi_index !275
  br label %92, !llfi_index !276

92:                                               ; preds = %210, %91
  %93 = load i32, i32* %18, align 4, !llfi_index !277
  %94 = load i32, i32* %2, align 4, !llfi_index !278
  %95 = icmp slt i32 %93, %94, !llfi_index !279
  br i1 %95, label %96, label %213, !llfi_index !280

96:                                               ; preds = %92
  store i32 0, i32* %19, align 4, !llfi_index !281
  store i32 0, i32* %20, align 4, !llfi_index !282
  store i32 0, i32* %21, align 4, !llfi_index !283
  br label %97, !llfi_index !284

97:                                               ; preds = %206, %96
  %98 = load i32, i32* %21, align 4, !llfi_index !285
  %99 = sext i32 %98 to i64, !llfi_index !286
  %100 = load i32, i32* %18, align 4, !llfi_index !287
  %101 = sext i32 %100 to i64, !llfi_index !288
  %102 = call nonnull align 8 dereferenceable(32) %"class.std::__cxx11::basic_string"* @_ZNSt6vectorINSt7__cxx1112basic_stringIcSt11char_traitsIcESaIcEEESaIS5_EEixEm(%"class.std::vector"* nonnull align 8 dereferenceable(24) %5, i64 %101) #2, !llfi_index !289
  %103 = call i64 @_ZNKSt7__cxx1112basic_stringIcSt11char_traitsIcESaIcEE4sizeEv(%"class.std::__cxx11::basic_string"* nonnull align 8 dereferenceable(32) %102) #2, !llfi_index !290
  %104 = icmp ult i64 %99, %103, !llfi_index !291
  br i1 %104, label %105, label %209, !llfi_index !292

105:                                              ; preds = %97
  %106 = load i32, i32* %18, align 4, !llfi_index !293
  %107 = sext i32 %106 to i64, !llfi_index !294
  %108 = call nonnull align 8 dereferenceable(32) %"class.std::__cxx11::basic_string"* @_ZNSt6vectorINSt7__cxx1112basic_stringIcSt11char_traitsIcESaIcEEESaIS5_EEixEm(%"class.std::vector"* nonnull align 8 dereferenceable(24) %5, i64 %107) #2, !llfi_index !295
  %109 = load i32, i32* %21, align 4, !llfi_index !296
  %110 = sext i32 %109 to i64, !llfi_index !297
  %111 = invoke nonnull align 1 dereferenceable(1) i8* @_ZNSt7__cxx1112basic_stringIcSt11char_traitsIcESaIcEEixEm(%"class.std::__cxx11::basic_string"* nonnull align 8 dereferenceable(32) %108, i64 %110)
          to label %112 unwind label %157, !llfi_index !298

112:                                              ; preds = %105
  %113 = load i8, i8* %111, align 1, !llfi_index !299
  %114 = sext i8 %113 to i32, !llfi_index !300
  %115 = icmp eq i32 %114, 32, !llfi_index !301
  br i1 %115, label %116, label %205, !llfi_index !302

116:                                              ; preds = %112
  %117 = load i32, i32* %19, align 4, !llfi_index !303
  %118 = add nsw i32 %117, 1, !llfi_index !304
  store i32 %118, i32* %19, align 4, !llfi_index !305
  %119 = load i32, i32* %19, align 4, !llfi_index !306
  %120 = load i32, i32* %15, align 4, !llfi_index !307
  %121 = icmp eq i32 %119, %120, !llfi_index !308
  br i1 %121, label %122, label %202, !llfi_index !309

122:                                              ; preds = %116
  %123 = load i32, i32* %18, align 4, !llfi_index !310
  %124 = sext i32 %123 to i64, !llfi_index !311
  %125 = call nonnull align 8 dereferenceable(32) %"class.std::__cxx11::basic_string"* @_ZNSt6vectorINSt7__cxx1112basic_stringIcSt11char_traitsIcESaIcEEESaIS5_EEixEm(%"class.std::vector"* nonnull align 8 dereferenceable(24) %5, i64 %124) #2, !llfi_index !312
  %126 = load i32, i32* %20, align 4, !llfi_index !313
  %127 = sext i32 %126 to i64, !llfi_index !314
  %128 = load i32, i32* %21, align 4, !llfi_index !315
  %129 = load i32, i32* %20, align 4, !llfi_index !316
  %130 = sub nsw i32 %128, %129, !llfi_index !317
  %131 = sext i32 %130 to i64, !llfi_index !318
  invoke void @_ZNKSt7__cxx1112basic_stringIcSt11char_traitsIcESaIcEE6substrEmm(%"class.std::__cxx11::basic_string"* sret(%"class.std::__cxx11::basic_string") align 8 %22, %"class.std::__cxx11::basic_string"* nonnull align 8 dereferenceable(32) %125, i64 %127, i64 %131)
          to label %132 unwind label %157, !llfi_index !319

132:                                              ; preds = %122
  store i32 0, i32* %23, align 4, !llfi_index !320
  %133 = invoke nonnull align 1 dereferenceable(1) i8* @_ZNSt7__cxx1112basic_stringIcSt11char_traitsIcESaIcEEixEm(%"class.std::__cxx11::basic_string"* nonnull align 8 dereferenceable(32) %17, i64 0)
          to label %134 unwind label %161, !llfi_index !321

134:                                              ; preds = %132
  %135 = load i8, i8* %133, align 1, !llfi_index !322
  %136 = sext i8 %135 to i32, !llfi_index !323
  %137 = icmp eq i32 %136, 110, !llfi_index !324
  br i1 %137, label %138, label %174, !llfi_index !325

138:                                              ; preds = %134
  br label %139, !llfi_index !326

139:                                              ; preds = %154, %138
  %140 = load i32, i32* %23, align 4, !llfi_index !327
  %141 = sext i32 %140 to i64, !llfi_index !328
  %142 = call i64 @_ZNKSt7__cxx1112basic_stringIcSt11char_traitsIcESaIcEE4sizeEv(%"class.std::__cxx11::basic_string"* nonnull align 8 dereferenceable(32) %22) #2, !llfi_index !329
  %143 = icmp ult i64 %141, %142, !llfi_index !330
  br i1 %143, label %144, label %152, !llfi_index !331

144:                                              ; preds = %139
  %145 = load i32, i32* %23, align 4, !llfi_index !332
  %146 = sext i32 %145 to i64, !llfi_index !333
  %147 = invoke nonnull align 1 dereferenceable(1) i8* @_ZNSt7__cxx1112basic_stringIcSt11char_traitsIcESaIcEEixEm(%"class.std::__cxx11::basic_string"* nonnull align 8 dereferenceable(32) %22, i64 %146)
          to label %148 unwind label %161, !llfi_index !334

148:                                              ; preds = %144
  %149 = load i8, i8* %147, align 1, !llfi_index !335
  %150 = sext i8 %149 to i32, !llfi_index !336
  %151 = icmp eq i32 %150, 48, !llfi_index !337
  br label %152, !llfi_index !338

152:                                              ; preds = %148, %139
  %153 = phi i1 [ false, %139 ], [ %151, %148 ], !llfi_index !339
  br i1 %153, label %154, label %165, !llfi_index !340

154:                                              ; preds = %152
  %155 = load i32, i32* %23, align 4, !llfi_index !341
  %156 = add nsw i32 %155, 1, !llfi_index !342
  store i32 %156, i32* %23, align 4, !llfi_index !343
  br label %139, !llvm.loop !344, !llfi_index !345

157:                                              ; preds = %304, %295, %281, %272, %248, %246, %243, %241, %239, %229, %219, %213, %122, %105, %89, %87
  %158 = landingpad { i8*, i32 }
          cleanup, !llfi_index !346
  %159 = extractvalue { i8*, i32 } %158, 0, !llfi_index !347
  store i8* %159, i8** %8, align 8, !llfi_index !348
  %160 = extractvalue { i8*, i32 } %158, 1, !llfi_index !349
  store i32 %160, i32* %9, align 4, !llfi_index !350
  br label %313, !llfi_index !351

161:                                              ; preds = %182, %170, %144, %132
  %162 = landingpad { i8*, i32 }
          cleanup, !llfi_index !352
  %163 = extractvalue { i8*, i32 } %162, 0, !llfi_index !353
  store i8* %163, i8** %8, align 8, !llfi_index !354
  %164 = extractvalue { i8*, i32 } %162, 1, !llfi_index !355
  store i32 %164, i32* %9, align 4, !llfi_index !356
  br label %201, !llfi_index !357

165:                                              ; preds = %152
  %166 = load i32, i32* %23, align 4, !llfi_index !358
  %167 = sext i32 %166 to i64, !llfi_index !359
  %168 = call i64 @_ZNKSt7__cxx1112basic_stringIcSt11char_traitsIcESaIcEE4sizeEv(%"class.std::__cxx11::basic_string"* nonnull align 8 dereferenceable(32) %22) #2, !llfi_index !360
  %169 = icmp eq i64 %167, %168, !llfi_index !361
  br i1 %169, label %170, label %173, !llfi_index !362

170:                                              ; preds = %165
  %171 = invoke nonnull align 8 dereferenceable(32) %"class.std::__cxx11::basic_string"* @_ZNSt7__cxx1112basic_stringIcSt11char_traitsIcESaIcEEaSEPKc(%"class.std::__cxx11::basic_string"* nonnull align 8 dereferenceable(32) %22, i8* getelementptr inbounds ([2 x i8], [2 x i8]* @.str.4, i64 0, i64 0))
          to label %172 unwind label %161, !llfi_index !363

172:                                              ; preds = %170
  store i32 0, i32* %23, align 4, !llfi_index !364
  br label %173, !llfi_index !365

173:                                              ; preds = %172, %165
  br label %174, !llfi_index !366

174:                                              ; preds = %173, %134
  %175 = load i32, i32* %23, align 4, !llfi_index !367
  %176 = sext i32 %175 to i64, !llfi_index !368
  %177 = call i64 @_ZNKSt7__cxx1112basic_stringIcSt11char_traitsIcESaIcEE4sizeEv(%"class.std::__cxx11::basic_string"* nonnull align 8 dereferenceable(32) %22) #2, !llfi_index !369
  %178 = icmp ult i64 %176, %177, !llfi_index !370
  br i1 %178, label %179, label %180, !llfi_index !371

179:                                              ; preds = %174
  br label %182, !llfi_index !372

180:                                              ; preds = %174
  call void @__assert_fail(i8* getelementptr inbounds ([12 x i8], [12 x i8]* @.str.5, i64 0, i64 0), i8* getelementptr inbounds ([17 x i8], [17 x i8]* @.str.6, i64 0, i64 0), i32 113, i8* getelementptr inbounds ([11 x i8], [11 x i8]* @__PRETTY_FUNCTION__.main, i64 0, i64 0)) #15, !llfi_index !373
  unreachable, !llfi_index !374

181:                                              ; No predecessors!
  br label %182, !llfi_index !375

182:                                              ; preds = %181, %179
  %183 = load i32, i32* %23, align 4, !llfi_index !376
  %184 = sext i32 %183 to i64, !llfi_index !377
  %185 = call i64 @_ZNKSt7__cxx1112basic_stringIcSt11char_traitsIcESaIcEE4sizeEv(%"class.std::__cxx11::basic_string"* nonnull align 8 dereferenceable(32) %22) #2, !llfi_index !378
  %186 = load i32, i32* %23, align 4, !llfi_index !379
  %187 = sext i32 %186 to i64, !llfi_index !380
  %188 = sub i64 %185, %187, !llfi_index !381
  invoke void @_ZNKSt7__cxx1112basic_stringIcSt11char_traitsIcESaIcEE6substrEmm(%"class.std::__cxx11::basic_string"* sret(%"class.std::__cxx11::basic_string") align 8 %25, %"class.std::__cxx11::basic_string"* nonnull align 8 dereferenceable(32) %22, i64 %184, i64 %188)
          to label %189 unwind label %161, !llfi_index !382

189:                                              ; preds = %182
  invoke void @_ZSt9make_pairINSt7__cxx1112basic_stringIcSt11char_traitsIcESaIcEEERiESt4pairINSt17__decay_and_stripIT_E6__typeENS8_IT0_E6__typeEEOS9_OSC_(%"struct.std::pair"* sret(%"struct.std::pair") align 8 %24, %"class.std::__cxx11::basic_string"* nonnull align 8 dereferenceable(32) %25, i32* nonnull align 4 dereferenceable(4) %18)
          to label %190 unwind label %192, !llfi_index !383

190:                                              ; preds = %189
  invoke void @_ZNSt6vectorISt4pairINSt7__cxx1112basic_stringIcSt11char_traitsIcESaIcEEEiESaIS7_EE9push_backEOS7_(%"class.std::vector.3"* nonnull align 8 dereferenceable(24) %6, %"struct.std::pair"* nonnull align 8 dereferenceable(36) %24)
          to label %191 unwind label %196, !llfi_index !384

191:                                              ; preds = %190
  call void @_ZNSt4pairINSt7__cxx1112basic_stringIcSt11char_traitsIcESaIcEEEiED2Ev(%"struct.std::pair"* nonnull align 8 dereferenceable(36) %24) #2, !llfi_index !385
  call void @_ZNSt7__cxx1112basic_stringIcSt11char_traitsIcESaIcEED1Ev(%"class.std::__cxx11::basic_string"* nonnull align 8 dereferenceable(32) %25) #2, !llfi_index !386
  call void @_ZNSt7__cxx1112basic_stringIcSt11char_traitsIcESaIcEED1Ev(%"class.std::__cxx11::basic_string"* nonnull align 8 dereferenceable(32) %22) #2, !llfi_index !387
  br label %209, !llfi_index !388

192:                                              ; preds = %189
  %193 = landingpad { i8*, i32 }
          cleanup, !llfi_index !389
  %194 = extractvalue { i8*, i32 } %193, 0, !llfi_index !390
  store i8* %194, i8** %8, align 8, !llfi_index !391
  %195 = extractvalue { i8*, i32 } %193, 1, !llfi_index !392
  store i32 %195, i32* %9, align 4, !llfi_index !393
  br label %200, !llfi_index !394

196:                                              ; preds = %190
  %197 = landingpad { i8*, i32 }
          cleanup, !llfi_index !395
  %198 = extractvalue { i8*, i32 } %197, 0, !llfi_index !396
  store i8* %198, i8** %8, align 8, !llfi_index !397
  %199 = extractvalue { i8*, i32 } %197, 1, !llfi_index !398
  store i32 %199, i32* %9, align 4, !llfi_index !399
  call void @_ZNSt4pairINSt7__cxx1112basic_stringIcSt11char_traitsIcESaIcEEEiED2Ev(%"struct.std::pair"* nonnull align 8 dereferenceable(36) %24) #2, !llfi_index !400
  br label %200, !llfi_index !401

200:                                              ; preds = %196, %192
  call void @_ZNSt7__cxx1112basic_stringIcSt11char_traitsIcESaIcEED1Ev(%"class.std::__cxx11::basic_string"* nonnull align 8 dereferenceable(32) %25) #2, !llfi_index !402
  br label %201, !llfi_index !403

201:                                              ; preds = %200, %161
  call void @_ZNSt7__cxx1112basic_stringIcSt11char_traitsIcESaIcEED1Ev(%"class.std::__cxx11::basic_string"* nonnull align 8 dereferenceable(32) %22) #2, !llfi_index !404
  br label %313, !llfi_index !405

202:                                              ; preds = %116
  %203 = load i32, i32* %21, align 4, !llfi_index !406
  %204 = add nsw i32 %203, 1, !llfi_index !407
  store i32 %204, i32* %20, align 4, !llfi_index !408
  br label %205, !llfi_index !409

205:                                              ; preds = %202, %112
  br label %206, !llfi_index !410

206:                                              ; preds = %205
  %207 = load i32, i32* %21, align 4, !llfi_index !411
  %208 = add nsw i32 %207, 1, !llfi_index !412
  store i32 %208, i32* %21, align 4, !llfi_index !413
  br label %97, !llvm.loop !414, !llfi_index !415

209:                                              ; preds = %191, %97
  br label %210, !llfi_index !416

210:                                              ; preds = %209
  %211 = load i32, i32* %18, align 4, !llfi_index !417
  %212 = add nsw i32 %211, 1, !llfi_index !418
  store i32 %212, i32* %18, align 4, !llfi_index !419
  br label %92, !llvm.loop !420, !llfi_index !421

213:                                              ; preds = %92
  %214 = invoke nonnull align 1 dereferenceable(1) i8* @_ZNSt7__cxx1112basic_stringIcSt11char_traitsIcESaIcEEixEm(%"class.std::__cxx11::basic_string"* nonnull align 8 dereferenceable(32) %17, i64 0)
          to label %215 unwind label %157, !llfi_index !422

215:                                              ; preds = %213
  %216 = load i8, i8* %214, align 1, !llfi_index !423
  %217 = sext i8 %216 to i32, !llfi_index !424
  %218 = icmp eq i32 %217, 110, !llfi_index !425
  br i1 %218, label %219, label %229, !llfi_index !426

219:                                              ; preds = %215
  %220 = call %"struct.std::pair"* @_ZNSt6vectorISt4pairINSt7__cxx1112basic_stringIcSt11char_traitsIcESaIcEEEiESaIS7_EE5beginEv(%"class.std::vector.3"* nonnull align 8 dereferenceable(24) %6) #2, !llfi_index !427
  %221 = getelementptr inbounds %"class.__gnu_cxx::__normal_iterator", %"class.__gnu_cxx::__normal_iterator"* %26, i32 0, i32 0, !llfi_index !428
  store %"struct.std::pair"* %220, %"struct.std::pair"** %221, align 8, !llfi_index !429
  %222 = call %"struct.std::pair"* @_ZNSt6vectorISt4pairINSt7__cxx1112basic_stringIcSt11char_traitsIcESaIcEEEiESaIS7_EE3endEv(%"class.std::vector.3"* nonnull align 8 dereferenceable(24) %6) #2, !llfi_index !430
  %223 = getelementptr inbounds %"class.__gnu_cxx::__normal_iterator", %"class.__gnu_cxx::__normal_iterator"* %27, i32 0, i32 0, !llfi_index !431
  store %"struct.std::pair"* %222, %"struct.std::pair"** %223, align 8, !llfi_index !432
  %224 = getelementptr inbounds %"class.__gnu_cxx::__normal_iterator", %"class.__gnu_cxx::__normal_iterator"* %26, i32 0, i32 0, !llfi_index !433
  %225 = load %"struct.std::pair"*, %"struct.std::pair"** %224, align 8, !llfi_index !434
  %226 = getelementptr inbounds %"class.__gnu_cxx::__normal_iterator", %"class.__gnu_cxx::__normal_iterator"* %27, i32 0, i32 0, !llfi_index !435
  %227 = load %"struct.std::pair"*, %"struct.std::pair"** %226, align 8, !llfi_index !436
  invoke void @_ZSt4sortIN9__gnu_cxx17__normal_iteratorIPSt4pairINSt7__cxx1112basic_stringIcSt11char_traitsIcESaIcEEEiESt6vectorIS9_SaIS9_EEEEPFbRKS9_SG_EEvT_SJ_T0_(%"struct.std::pair"* %225, %"struct.std::pair"* %227, i1 (%"struct.std::pair"*, %"struct.std::pair"*)* @_Z3cmpRKSt4pairINSt7__cxx1112basic_stringIcSt11char_traitsIcESaIcEEEiES8_)
          to label %228 unwind label %157, !llfi_index !437

228:                                              ; preds = %219
  br label %239, !llfi_index !438

229:                                              ; preds = %215
  %230 = call %"struct.std::pair"* @_ZNSt6vectorISt4pairINSt7__cxx1112basic_stringIcSt11char_traitsIcESaIcEEEiESaIS7_EE5beginEv(%"class.std::vector.3"* nonnull align 8 dereferenceable(24) %6) #2, !llfi_index !439
  %231 = getelementptr inbounds %"class.__gnu_cxx::__normal_iterator", %"class.__gnu_cxx::__normal_iterator"* %28, i32 0, i32 0, !llfi_index !440
  store %"struct.std::pair"* %230, %"struct.std::pair"** %231, align 8, !llfi_index !441
  %232 = call %"struct.std::pair"* @_ZNSt6vectorISt4pairINSt7__cxx1112basic_stringIcSt11char_traitsIcESaIcEEEiESaIS7_EE3endEv(%"class.std::vector.3"* nonnull align 8 dereferenceable(24) %6) #2, !llfi_index !442
  %233 = getelementptr inbounds %"class.__gnu_cxx::__normal_iterator", %"class.__gnu_cxx::__normal_iterator"* %29, i32 0, i32 0, !llfi_index !443
  store %"struct.std::pair"* %232, %"struct.std::pair"** %233, align 8, !llfi_index !444
  %234 = getelementptr inbounds %"class.__gnu_cxx::__normal_iterator", %"class.__gnu_cxx::__normal_iterator"* %28, i32 0, i32 0, !llfi_index !445
  %235 = load %"struct.std::pair"*, %"struct.std::pair"** %234, align 8, !llfi_index !446
  %236 = getelementptr inbounds %"class.__gnu_cxx::__normal_iterator", %"class.__gnu_cxx::__normal_iterator"* %29, i32 0, i32 0, !llfi_index !447
  %237 = load %"struct.std::pair"*, %"struct.std::pair"** %236, align 8, !llfi_index !448
  invoke void @_ZSt4sortIN9__gnu_cxx17__normal_iteratorIPSt4pairINSt7__cxx1112basic_stringIcSt11char_traitsIcESaIcEEEiESt6vectorIS9_SaIS9_EEEEEvT_SF_(%"struct.std::pair"* %235, %"struct.std::pair"* %237)
          to label %238 unwind label %157, !llfi_index !449

238:                                              ; preds = %229
  br label %239, !llfi_index !450

239:                                              ; preds = %238, %228
  %240 = invoke nonnull align 8 dereferenceable(8) %"class.std::basic_ostream"* @_ZStlsISt11char_traitsIcEERSt13basic_ostreamIcT_ES5_PKc(%"class.std::basic_ostream"* nonnull align 8 dereferenceable(8) @_ZSt4cerr, i8* getelementptr inbounds ([9 x i8], [9 x i8]* @.str.7, i64 0, i64 0))
          to label %241 unwind label %157, !llfi_index !451

241:                                              ; preds = %239
  %242 = invoke nonnull align 8 dereferenceable(8) %"class.std::basic_ostream"* @_ZStlsISt11char_traitsIcEERSt13basic_ostreamIcT_ES5_PKc(%"class.std::basic_ostream"* nonnull align 8 dereferenceable(8) %240, i8* getelementptr inbounds ([5 x i8], [5 x i8]* @.str.8, i64 0, i64 0))
          to label %243 unwind label %157, !llfi_index !452

243:                                              ; preds = %241
  %244 = call i64 @_ZNKSt6vectorISt4pairINSt7__cxx1112basic_stringIcSt11char_traitsIcESaIcEEEiESaIS7_EE4sizeEv(%"class.std::vector.3"* nonnull align 8 dereferenceable(24) %6) #2, !llfi_index !453
  %245 = invoke nonnull align 8 dereferenceable(8) %"class.std::basic_ostream"* @_ZNSolsEm(%"class.std::basic_ostream"* nonnull align 8 dereferenceable(8) %242, i64 %244)
          to label %246 unwind label %157, !llfi_index !454

246:                                              ; preds = %243
  %247 = invoke nonnull align 8 dereferenceable(8) %"class.std::basic_ostream"* @_ZStlsISt11char_traitsIcEERSt13basic_ostreamIcT_ES5_PKc(%"class.std::basic_ostream"* nonnull align 8 dereferenceable(8) %245, i8* getelementptr inbounds ([2 x i8], [2 x i8]* @.str.9, i64 0, i64 0))
          to label %248 unwind label %157, !llfi_index !455

248:                                              ; preds = %246
  store i32 89, i32* %10, align 4, !llfi_index !456
  %249 = invoke nonnull align 1 dereferenceable(1) i8* @_ZNSt7__cxx1112basic_stringIcSt11char_traitsIcESaIcEEixEm(%"class.std::__cxx11::basic_string"* nonnull align 8 dereferenceable(32) %16, i64 0)
          to label %250 unwind label %157, !llfi_index !457

250:                                              ; preds = %248
  %251 = load i8, i8* %249, align 1, !llfi_index !458
  %252 = sext i8 %251 to i32, !llfi_index !459
  %253 = icmp eq i32 %252, 102, !llfi_index !460
  br i1 %253, label %254, label %288, !llfi_index !461

254:                                              ; preds = %250
  store i32 0, i32* %30, align 4, !llfi_index !462
  br label %255, !llfi_index !463

255:                                              ; preds = %284, %254
  %256 = load i32, i32* %30, align 4, !llfi_index !464
  %257 = sext i32 %256 to i64, !llfi_index !465
  %258 = call i64 @_ZNKSt6vectorISt4pairINSt7__cxx1112basic_stringIcSt11char_traitsIcESaIcEEEiESaIS7_EE4sizeEv(%"class.std::vector.3"* nonnull align 8 dereferenceable(24) %6) #2, !llfi_index !466
  %259 = icmp ult i64 %257, %258, !llfi_index !467
  br i1 %259, label %260, label %287, !llfi_index !468

260:                                              ; preds = %255
  %261 = load i32, i32* %30, align 4, !llfi_index !469
  %262 = sext i32 %261 to i64, !llfi_index !470
  %263 = call nonnull align 8 dereferenceable(36) %"struct.std::pair"* @_ZNSt6vectorISt4pairINSt7__cxx1112basic_stringIcSt11char_traitsIcESaIcEEEiESaIS7_EEixEm(%"class.std::vector.3"* nonnull align 8 dereferenceable(24) %6, i64 %262) #2, !llfi_index !471
  %264 = getelementptr inbounds %"struct.std::pair", %"struct.std::pair"* %263, i32 0, i32 1, !llfi_index !472
  %265 = load i32, i32* %264, align 8, !llfi_index !473
  %266 = sext i32 %265 to i64, !llfi_index !474
  %267 = call i64 @_ZNKSt6vectorINSt7__cxx1112basic_stringIcSt11char_traitsIcESaIcEEESaIS5_EE4sizeEv(%"class.std::vector"* nonnull align 8 dereferenceable(24) %5) #2, !llfi_index !475
  %268 = icmp ule i64 %266, %267, !llfi_index !476
  br i1 %268, label %269, label %270, !llfi_index !477

269:                                              ; preds = %260
  br label %272, !llfi_index !478

270:                                              ; preds = %260
  call void @__assert_fail(i8* getelementptr inbounds ([20 x i8], [20 x i8]* @.str.10, i64 0, i64 0), i8* getelementptr inbounds ([17 x i8], [17 x i8]* @.str.6, i64 0, i64 0), i32 133, i8* getelementptr inbounds ([11 x i8], [11 x i8]* @__PRETTY_FUNCTION__.main, i64 0, i64 0)) #15, !llfi_index !479
  unreachable, !llfi_index !480

271:                                              ; No predecessors!
  br label %272, !llfi_index !481

272:                                              ; preds = %271, %269
  %273 = load i32, i32* %30, align 4, !llfi_index !482
  %274 = sext i32 %273 to i64, !llfi_index !483
  %275 = call nonnull align 8 dereferenceable(36) %"struct.std::pair"* @_ZNSt6vectorISt4pairINSt7__cxx1112basic_stringIcSt11char_traitsIcESaIcEEEiESaIS7_EEixEm(%"class.std::vector.3"* nonnull align 8 dereferenceable(24) %6, i64 %274) #2, !llfi_index !484
  %276 = getelementptr inbounds %"struct.std::pair", %"struct.std::pair"* %275, i32 0, i32 1, !llfi_index !485
  %277 = load i32, i32* %276, align 8, !llfi_index !486
  %278 = sext i32 %277 to i64, !llfi_index !487
  %279 = call nonnull align 8 dereferenceable(32) %"class.std::__cxx11::basic_string"* @_ZNSt6vectorINSt7__cxx1112basic_stringIcSt11char_traitsIcESaIcEEESaIS5_EEixEm(%"class.std::vector"* nonnull align 8 dereferenceable(24) %5, i64 %278) #2, !llfi_index !488
  %280 = invoke nonnull align 8 dereferenceable(8) %"class.std::basic_ostream"* @_ZStlsIcSt11char_traitsIcESaIcEERSt13basic_ostreamIT_T0_ES7_RKNSt7__cxx1112basic_stringIS4_S5_T1_EE(%"class.std::basic_ostream"* nonnull align 8 dereferenceable(8) @_ZSt4cout, %"class.std::__cxx11::basic_string"* nonnull align 8 dereferenceable(32) %279)
          to label %281 unwind label %157, !llfi_index !489

281:                                              ; preds = %272
  %282 = invoke nonnull align 8 dereferenceable(8) %"class.std::basic_ostream"* @_ZNSolsEPFRSoS_E(%"class.std::basic_ostream"* nonnull align 8 dereferenceable(8) %280, %"class.std::basic_ostream"* (%"class.std::basic_ostream"*)* @_ZSt4endlIcSt11char_traitsIcEERSt13basic_ostreamIT_T0_ES6_)
          to label %283 unwind label %157, !llfi_index !490

283:                                              ; preds = %281
  br label %284, !llfi_index !491

284:                                              ; preds = %283
  %285 = load i32, i32* %30, align 4, !llfi_index !492
  %286 = add nsw i32 %285, 1, !llfi_index !493
  store i32 %286, i32* %30, align 4, !llfi_index !494
  br label %255, !llvm.loop !495, !llfi_index !496

287:                                              ; preds = %255
  br label %311, !llfi_index !497

288:                                              ; preds = %250
  %289 = call i64 @_ZNKSt6vectorISt4pairINSt7__cxx1112basic_stringIcSt11char_traitsIcESaIcEEEiESaIS7_EE4sizeEv(%"class.std::vector.3"* nonnull align 8 dereferenceable(24) %6) #2, !llfi_index !498
  %290 = sub i64 %289, 1, !llfi_index !499
  %291 = trunc i64 %290 to i32, !llfi_index !500
  store i32 %291, i32* %31, align 4, !llfi_index !501
  br label %292, !llfi_index !502

292:                                              ; preds = %307, %288
  %293 = load i32, i32* %31, align 4, !llfi_index !503
  %294 = icmp sge i32 %293, 0, !llfi_index !504
  br i1 %294, label %295, label %310, !llfi_index !505

295:                                              ; preds = %292
  %296 = load i32, i32* %31, align 4, !llfi_index !506
  %297 = sext i32 %296 to i64, !llfi_index !507
  %298 = call nonnull align 8 dereferenceable(36) %"struct.std::pair"* @_ZNSt6vectorISt4pairINSt7__cxx1112basic_stringIcSt11char_traitsIcESaIcEEEiESaIS7_EEixEm(%"class.std::vector.3"* nonnull align 8 dereferenceable(24) %6, i64 %297) #2, !llfi_index !508
  %299 = getelementptr inbounds %"struct.std::pair", %"struct.std::pair"* %298, i32 0, i32 1, !llfi_index !509
  %300 = load i32, i32* %299, align 8, !llfi_index !510
  %301 = sext i32 %300 to i64, !llfi_index !511
  %302 = call nonnull align 8 dereferenceable(32) %"class.std::__cxx11::basic_string"* @_ZNSt6vectorINSt7__cxx1112basic_stringIcSt11char_traitsIcESaIcEEESaIS5_EEixEm(%"class.std::vector"* nonnull align 8 dereferenceable(24) %5, i64 %301) #2, !llfi_index !512
  %303 = invoke nonnull align 8 dereferenceable(8) %"class.std::basic_ostream"* @_ZStlsIcSt11char_traitsIcESaIcEERSt13basic_ostreamIT_T0_ES7_RKNSt7__cxx1112basic_stringIS4_S5_T1_EE(%"class.std::basic_ostream"* nonnull align 8 dereferenceable(8) @_ZSt4cout, %"class.std::__cxx11::basic_string"* nonnull align 8 dereferenceable(32) %302)
          to label %304 unwind label %157, !llfi_index !513

304:                                              ; preds = %295
  %305 = invoke nonnull align 8 dereferenceable(8) %"class.std::basic_ostream"* @_ZNSolsEPFRSoS_E(%"class.std::basic_ostream"* nonnull align 8 dereferenceable(8) %303, %"class.std::basic_ostream"* (%"class.std::basic_ostream"*)* @_ZSt4endlIcSt11char_traitsIcEERSt13basic_ostreamIT_T0_ES6_)
          to label %306 unwind label %157, !llfi_index !514

306:                                              ; preds = %304
  br label %307, !llfi_index !515

307:                                              ; preds = %306
  %308 = load i32, i32* %31, align 4, !llfi_index !516
  %309 = add nsw i32 %308, -1, !llfi_index !517
  store i32 %309, i32* %31, align 4, !llfi_index !518
  br label %292, !llvm.loop !519, !llfi_index !520

310:                                              ; preds = %292
  br label %311, !llfi_index !521

311:                                              ; preds = %310, %287
  store i32 0, i32* %1, align 4, !llfi_index !522
  call void @_ZNSt7__cxx1112basic_stringIcSt11char_traitsIcESaIcEED1Ev(%"class.std::__cxx11::basic_string"* nonnull align 8 dereferenceable(32) %17) #2, !llfi_index !523
  call void @_ZNSt7__cxx1112basic_stringIcSt11char_traitsIcESaIcEED1Ev(%"class.std::__cxx11::basic_string"* nonnull align 8 dereferenceable(32) %16) #2, !llfi_index !524
  call void @_ZNSt6vectorISt4pairINSt7__cxx1112basic_stringIcSt11char_traitsIcESaIcEEEiESaIS7_EED2Ev(%"class.std::vector.3"* nonnull align 8 dereferenceable(24) %6) #2, !llfi_index !525
  call void @_ZNSt6vectorINSt7__cxx1112basic_stringIcSt11char_traitsIcESaIcEEESaIS5_EED2Ev(%"class.std::vector"* nonnull align 8 dereferenceable(24) %5) #2, !llfi_index !526
  call void @_ZNSt7__cxx1112basic_stringIcSt11char_traitsIcESaIcEED1Ev(%"class.std::__cxx11::basic_string"* nonnull align 8 dereferenceable(32) %4) #2, !llfi_index !527
  %312 = load i32, i32* %1, align 4, !llfi_index !528
  ret i32 %312, !llfi_index !529

313:                                              ; preds = %201, %157
  call void @_ZNSt7__cxx1112basic_stringIcSt11char_traitsIcESaIcEED1Ev(%"class.std::__cxx11::basic_string"* nonnull align 8 dereferenceable(32) %17) #2, !llfi_index !530
  call void @_ZNSt7__cxx1112basic_stringIcSt11char_traitsIcESaIcEED1Ev(%"class.std::__cxx11::basic_string"* nonnull align 8 dereferenceable(32) %16) #2, !llfi_index !531
  br label %314, !llfi_index !532

314:                                              ; preds = %313, %81, %64
  call void @_ZNSt6vectorISt4pairINSt7__cxx1112basic_stringIcSt11char_traitsIcESaIcEEEiESaIS7_EED2Ev(%"class.std::vector.3"* nonnull align 8 dereferenceable(24) %6) #2, !llfi_index !533
  call void @_ZNSt6vectorINSt7__cxx1112basic_stringIcSt11char_traitsIcESaIcEEESaIS5_EED2Ev(%"class.std::vector"* nonnull align 8 dereferenceable(24) %5) #2, !llfi_index !534
  call void @_ZNSt7__cxx1112basic_stringIcSt11char_traitsIcESaIcEED1Ev(%"class.std::__cxx11::basic_string"* nonnull align 8 dereferenceable(32) %4) #2, !llfi_index !535
  br label %315, !llfi_index !536

315:                                              ; preds = %314
  %316 = load i8*, i8** %8, align 8, !llfi_index !537
  %317 = load i32, i32* %9, align 4, !llfi_index !538
  %318 = insertvalue { i8*, i32 } undef, i8* %316, 0, !llfi_index !539
  %319 = insertvalue { i8*, i32 } %318, i32 %317, 1, !llfi_index !540
  resume { i8*, i32 } %319, !llfi_index !541
}

declare dso_local %struct._IO_FILE* @freopen(i8*, i8*, %struct._IO_FILE*) #1

declare dso_local i32 @__isoc99_scanf(i8*, ...) #1

; Function Attrs: nounwind
declare dso_local void @_ZNSt7__cxx1112basic_stringIcSt11char_traitsIcESaIcEEC1Ev(%"class.std::__cxx11::basic_string"* nonnull align 8 dereferenceable(32)) unnamed_addr #3

; Function Attrs: noinline nounwind uwtable
define linkonce_odr dso_local void @_ZNSt6vectorINSt7__cxx1112basic_stringIcSt11char_traitsIcESaIcEEESaIS5_EEC2Ev(%"class.std::vector"* nonnull align 8 dereferenceable(24) %0) unnamed_addr #8 comdat align 2 {
  %2 = alloca %"class.std::vector"*, align 8, !llfi_index !542
  store %"class.std::vector"* %0, %"class.std::vector"** %2, align 8, !llfi_index !543
  %3 = load %"class.std::vector"*, %"class.std::vector"** %2, align 8, !llfi_index !544
  %4 = bitcast %"class.std::vector"* %3 to %"struct.std::_Vector_base"*, !llfi_index !545
  call void @_ZNSt12_Vector_baseINSt7__cxx1112basic_stringIcSt11char_traitsIcESaIcEEESaIS5_EEC2Ev(%"struct.std::_Vector_base"* nonnull align 8 dereferenceable(24) %4) #2, !llfi_index !546
  ret void, !llfi_index !547
}

; Function Attrs: noinline nounwind uwtable
define linkonce_odr dso_local void @_ZNSt6vectorISt4pairINSt7__cxx1112basic_stringIcSt11char_traitsIcESaIcEEEiESaIS7_EEC2Ev(%"class.std::vector.3"* nonnull align 8 dereferenceable(24) %0) unnamed_addr #8 comdat align 2 {
  %2 = alloca %"class.std::vector.3"*, align 8, !llfi_index !548
  store %"class.std::vector.3"* %0, %"class.std::vector.3"** %2, align 8, !llfi_index !549
  %3 = load %"class.std::vector.3"*, %"class.std::vector.3"** %2, align 8, !llfi_index !550
  %4 = bitcast %"class.std::vector.3"* %3 to %"struct.std::_Vector_base.4"*, !llfi_index !551
  call void @_ZNSt12_Vector_baseISt4pairINSt7__cxx1112basic_stringIcSt11char_traitsIcESaIcEEEiESaIS7_EEC2Ev(%"struct.std::_Vector_base.4"* nonnull align 8 dereferenceable(24) %4) #2, !llfi_index !552
  ret void, !llfi_index !553
}

declare dso_local i32 @getchar() #1

; Function Attrs: nounwind
declare dso_local void @_ZNSaIcEC1Ev(%"class.std::ios_base::Init"* nonnull align 1 dereferenceable(1)) unnamed_addr #3

declare dso_local void @_ZNSt7__cxx1112basic_stringIcSt11char_traitsIcESaIcEEC1EPKcRKS3_(%"class.std::__cxx11::basic_string"* nonnull align 8 dereferenceable(32), i8*, %"class.std::ios_base::Init"* nonnull align 1 dereferenceable(1)) unnamed_addr #1

; Function Attrs: nounwind
declare dso_local nonnull align 8 dereferenceable(32) %"class.std::__cxx11::basic_string"* @_ZNSt7__cxx1112basic_stringIcSt11char_traitsIcESaIcEEaSEOS4_(%"class.std::__cxx11::basic_string"* nonnull align 8 dereferenceable(32), %"class.std::__cxx11::basic_string"* nonnull align 8 dereferenceable(32)) #3

; Function Attrs: nounwind
declare dso_local void @_ZNSaIcED1Ev(%"class.std::ios_base::Init"* nonnull align 1 dereferenceable(1)) unnamed_addr #3

declare dso_local nonnull align 8 dereferenceable(32) %"class.std::__cxx11::basic_string"* @_ZNSt7__cxx1112basic_stringIcSt11char_traitsIcESaIcEEpLEPKc(%"class.std::__cxx11::basic_string"* nonnull align 8 dereferenceable(32), i8*) #1

; Function Attrs: mustprogress noinline uwtable
define linkonce_odr dso_local void @_ZNSt6vectorINSt7__cxx1112basic_stringIcSt11char_traitsIcESaIcEEESaIS5_EE9push_backERKS5_(%"class.std::vector"* nonnull align 8 dereferenceable(24) %0, %"class.std::__cxx11::basic_string"* nonnull align 8 dereferenceable(32) %1) #4 comdat align 2 {
  %3 = alloca %"class.std::vector"*, align 8, !llfi_index !554
  %4 = alloca %"class.std::__cxx11::basic_string"*, align 8, !llfi_index !555
  %5 = alloca %"class.__gnu_cxx::__normal_iterator.8", align 8, !llfi_index !556
  store %"class.std::vector"* %0, %"class.std::vector"** %3, align 8, !llfi_index !557
  store %"class.std::__cxx11::basic_string"* %1, %"class.std::__cxx11::basic_string"** %4, align 8, !llfi_index !558
  %6 = load %"class.std::vector"*, %"class.std::vector"** %3, align 8, !llfi_index !559
  %7 = bitcast %"class.std::vector"* %6 to %"struct.std::_Vector_base"*, !llfi_index !560
  %8 = getelementptr inbounds %"struct.std::_Vector_base", %"struct.std::_Vector_base"* %7, i32 0, i32 0, !llfi_index !561
  %9 = bitcast %"struct.std::_Vector_base<std::__cxx11::basic_string<char>, std::allocator<std::__cxx11::basic_string<char>>>::_Vector_impl"* %8 to %"struct.std::_Vector_base<std::__cxx11::basic_string<char>, std::allocator<std::__cxx11::basic_string<char>>>::_Vector_impl_data"*, !llfi_index !562
  %10 = getelementptr inbounds %"struct.std::_Vector_base<std::__cxx11::basic_string<char>, std::allocator<std::__cxx11::basic_string<char>>>::_Vector_impl_data", %"struct.std::_Vector_base<std::__cxx11::basic_string<char>, std::allocator<std::__cxx11::basic_string<char>>>::_Vector_impl_data"* %9, i32 0, i32 1, !llfi_index !563
  %11 = load %"class.std::__cxx11::basic_string"*, %"class.std::__cxx11::basic_string"** %10, align 8, !llfi_index !564
  %12 = bitcast %"class.std::vector"* %6 to %"struct.std::_Vector_base"*, !llfi_index !565
  %13 = getelementptr inbounds %"struct.std::_Vector_base", %"struct.std::_Vector_base"* %12, i32 0, i32 0, !llfi_index !566
  %14 = bitcast %"struct.std::_Vector_base<std::__cxx11::basic_string<char>, std::allocator<std::__cxx11::basic_string<char>>>::_Vector_impl"* %13 to %"struct.std::_Vector_base<std::__cxx11::basic_string<char>, std::allocator<std::__cxx11::basic_string<char>>>::_Vector_impl_data"*, !llfi_index !567
  %15 = getelementptr inbounds %"struct.std::_Vector_base<std::__cxx11::basic_string<char>, std::allocator<std::__cxx11::basic_string<char>>>::_Vector_impl_data", %"struct.std::_Vector_base<std::__cxx11::basic_string<char>, std::allocator<std::__cxx11::basic_string<char>>>::_Vector_impl_data"* %14, i32 0, i32 2, !llfi_index !568
  %16 = load %"class.std::__cxx11::basic_string"*, %"class.std::__cxx11::basic_string"** %15, align 8, !llfi_index !569
  %17 = icmp ne %"class.std::__cxx11::basic_string"* %11, %16, !llfi_index !570
  br i1 %17, label %18, label %34, !llfi_index !571

18:                                               ; preds = %2
  %19 = bitcast %"class.std::vector"* %6 to %"struct.std::_Vector_base"*, !llfi_index !572
  %20 = getelementptr inbounds %"struct.std::_Vector_base", %"struct.std::_Vector_base"* %19, i32 0, i32 0, !llfi_index !573
  %21 = bitcast %"struct.std::_Vector_base<std::__cxx11::basic_string<char>, std::allocator<std::__cxx11::basic_string<char>>>::_Vector_impl"* %20 to %"class.std::ios_base::Init"*, !llfi_index !574
  %22 = bitcast %"class.std::vector"* %6 to %"struct.std::_Vector_base"*, !llfi_index !575
  %23 = getelementptr inbounds %"struct.std::_Vector_base", %"struct.std::_Vector_base"* %22, i32 0, i32 0, !llfi_index !576
  %24 = bitcast %"struct.std::_Vector_base<std::__cxx11::basic_string<char>, std::allocator<std::__cxx11::basic_string<char>>>::_Vector_impl"* %23 to %"struct.std::_Vector_base<std::__cxx11::basic_string<char>, std::allocator<std::__cxx11::basic_string<char>>>::_Vector_impl_data"*, !llfi_index !577
  %25 = getelementptr inbounds %"struct.std::_Vector_base<std::__cxx11::basic_string<char>, std::allocator<std::__cxx11::basic_string<char>>>::_Vector_impl_data", %"struct.std::_Vector_base<std::__cxx11::basic_string<char>, std::allocator<std::__cxx11::basic_string<char>>>::_Vector_impl_data"* %24, i32 0, i32 1, !llfi_index !578
  %26 = load %"class.std::__cxx11::basic_string"*, %"class.std::__cxx11::basic_string"** %25, align 8, !llfi_index !579
  %27 = load %"class.std::__cxx11::basic_string"*, %"class.std::__cxx11::basic_string"** %4, align 8, !llfi_index !580
  call void @_ZNSt16allocator_traitsISaINSt7__cxx1112basic_stringIcSt11char_traitsIcESaIcEEEEE9constructIS5_JRKS5_EEEvRS6_PT_DpOT0_(%"class.std::ios_base::Init"* nonnull align 1 dereferenceable(1) %21, %"class.std::__cxx11::basic_string"* %26, %"class.std::__cxx11::basic_string"* nonnull align 8 dereferenceable(32) %27), !llfi_index !581
  %28 = bitcast %"class.std::vector"* %6 to %"struct.std::_Vector_base"*, !llfi_index !582
  %29 = getelementptr inbounds %"struct.std::_Vector_base", %"struct.std::_Vector_base"* %28, i32 0, i32 0, !llfi_index !583
  %30 = bitcast %"struct.std::_Vector_base<std::__cxx11::basic_string<char>, std::allocator<std::__cxx11::basic_string<char>>>::_Vector_impl"* %29 to %"struct.std::_Vector_base<std::__cxx11::basic_string<char>, std::allocator<std::__cxx11::basic_string<char>>>::_Vector_impl_data"*, !llfi_index !584
  %31 = getelementptr inbounds %"struct.std::_Vector_base<std::__cxx11::basic_string<char>, std::allocator<std::__cxx11::basic_string<char>>>::_Vector_impl_data", %"struct.std::_Vector_base<std::__cxx11::basic_string<char>, std::allocator<std::__cxx11::basic_string<char>>>::_Vector_impl_data"* %30, i32 0, i32 1, !llfi_index !585
  %32 = load %"class.std::__cxx11::basic_string"*, %"class.std::__cxx11::basic_string"** %31, align 8, !llfi_index !586
  %33 = getelementptr inbounds %"class.std::__cxx11::basic_string", %"class.std::__cxx11::basic_string"* %32, i32 1, !llfi_index !587
  store %"class.std::__cxx11::basic_string"* %33, %"class.std::__cxx11::basic_string"** %31, align 8, !llfi_index !588
  br label %40, !llfi_index !589

34:                                               ; preds = %2
  %35 = call %"class.std::__cxx11::basic_string"* @_ZNSt6vectorINSt7__cxx1112basic_stringIcSt11char_traitsIcESaIcEEESaIS5_EE3endEv(%"class.std::vector"* nonnull align 8 dereferenceable(24) %6) #2, !llfi_index !590
  %36 = getelementptr inbounds %"class.__gnu_cxx::__normal_iterator.8", %"class.__gnu_cxx::__normal_iterator.8"* %5, i32 0, i32 0, !llfi_index !591
  store %"class.std::__cxx11::basic_string"* %35, %"class.std::__cxx11::basic_string"** %36, align 8, !llfi_index !592
  %37 = load %"class.std::__cxx11::basic_string"*, %"class.std::__cxx11::basic_string"** %4, align 8, !llfi_index !593
  %38 = getelementptr inbounds %"class.__gnu_cxx::__normal_iterator.8", %"class.__gnu_cxx::__normal_iterator.8"* %5, i32 0, i32 0, !llfi_index !594
  %39 = load %"class.std::__cxx11::basic_string"*, %"class.std::__cxx11::basic_string"** %38, align 8, !llfi_index !595
  call void @_ZNSt6vectorINSt7__cxx1112basic_stringIcSt11char_traitsIcESaIcEEESaIS5_EE17_M_realloc_insertIJRKS5_EEEvN9__gnu_cxx17__normal_iteratorIPS5_S7_EEDpOT_(%"class.std::vector"* nonnull align 8 dereferenceable(24) %6, %"class.std::__cxx11::basic_string"* %39, %"class.std::__cxx11::basic_string"* nonnull align 8 dereferenceable(32) %37), !llfi_index !596
  br label %40, !llfi_index !597

40:                                               ; preds = %34, %18
  ret void, !llfi_index !598
}

declare dso_local nonnull align 8 dereferenceable(16) %"class.std::basic_istream"* @_ZStrsIcSt11char_traitsIcESaIcEERSt13basic_istreamIT_T0_ES7_RNSt7__cxx1112basic_stringIS4_S5_T1_EE(%"class.std::basic_istream"* nonnull align 8 dereferenceable(16), %"class.std::__cxx11::basic_string"* nonnull align 8 dereferenceable(32)) #1

; Function Attrs: mustprogress noinline nounwind uwtable
define linkonce_odr dso_local nonnull align 8 dereferenceable(32) %"class.std::__cxx11::basic_string"* @_ZNSt6vectorINSt7__cxx1112basic_stringIcSt11char_traitsIcESaIcEEESaIS5_EEixEm(%"class.std::vector"* nonnull align 8 dereferenceable(24) %0, i64 %1) #5 comdat align 2 {
  %3 = alloca %"class.std::vector"*, align 8, !llfi_index !599
  %4 = alloca i64, align 8, !llfi_index !600
  store %"class.std::vector"* %0, %"class.std::vector"** %3, align 8, !llfi_index !601
  store i64 %1, i64* %4, align 8, !llfi_index !602
  %5 = load %"class.std::vector"*, %"class.std::vector"** %3, align 8, !llfi_index !603
  %6 = bitcast %"class.std::vector"* %5 to %"struct.std::_Vector_base"*, !llfi_index !604
  %7 = getelementptr inbounds %"struct.std::_Vector_base", %"struct.std::_Vector_base"* %6, i32 0, i32 0, !llfi_index !605
  %8 = bitcast %"struct.std::_Vector_base<std::__cxx11::basic_string<char>, std::allocator<std::__cxx11::basic_string<char>>>::_Vector_impl"* %7 to %"struct.std::_Vector_base<std::__cxx11::basic_string<char>, std::allocator<std::__cxx11::basic_string<char>>>::_Vector_impl_data"*, !llfi_index !606
  %9 = getelementptr inbounds %"struct.std::_Vector_base<std::__cxx11::basic_string<char>, std::allocator<std::__cxx11::basic_string<char>>>::_Vector_impl_data", %"struct.std::_Vector_base<std::__cxx11::basic_string<char>, std::allocator<std::__cxx11::basic_string<char>>>::_Vector_impl_data"* %8, i32 0, i32 0, !llfi_index !607
  %10 = load %"class.std::__cxx11::basic_string"*, %"class.std::__cxx11::basic_string"** %9, align 8, !llfi_index !608
  %11 = load i64, i64* %4, align 8, !llfi_index !609
  %12 = getelementptr inbounds %"class.std::__cxx11::basic_string", %"class.std::__cxx11::basic_string"* %10, i64 %11, !llfi_index !610
  ret %"class.std::__cxx11::basic_string"* %12, !llfi_index !611
}

declare dso_local nonnull align 1 dereferenceable(1) i8* @_ZNSt7__cxx1112basic_stringIcSt11char_traitsIcESaIcEEixEm(%"class.std::__cxx11::basic_string"* nonnull align 8 dereferenceable(32), i64) #1

declare dso_local void @_ZNKSt7__cxx1112basic_stringIcSt11char_traitsIcESaIcEE6substrEmm(%"class.std::__cxx11::basic_string"* sret(%"class.std::__cxx11::basic_string") align 8, %"class.std::__cxx11::basic_string"* nonnull align 8 dereferenceable(32), i64, i64) #1

declare dso_local nonnull align 8 dereferenceable(32) %"class.std::__cxx11::basic_string"* @_ZNSt7__cxx1112basic_stringIcSt11char_traitsIcESaIcEEaSEPKc(%"class.std::__cxx11::basic_string"* nonnull align 8 dereferenceable(32), i8*) #1

; Function Attrs: noreturn nounwind
declare dso_local void @__assert_fail(i8*, i8*, i32, i8*) #9

; Function Attrs: mustprogress noinline uwtable
define linkonce_odr dso_local void @_ZSt9make_pairINSt7__cxx1112basic_stringIcSt11char_traitsIcESaIcEEERiESt4pairINSt17__decay_and_stripIT_E6__typeENS8_IT0_E6__typeEEOS9_OSC_(%"struct.std::pair"* noalias sret(%"struct.std::pair") align 8 %0, %"class.std::__cxx11::basic_string"* nonnull align 8 dereferenceable(32) %1, i32* nonnull align 4 dereferenceable(4) %2) #4 comdat {
  %4 = alloca i8*, align 8, !llfi_index !612
  %5 = alloca %"class.std::__cxx11::basic_string"*, align 8, !llfi_index !613
  %6 = alloca i32*, align 8, !llfi_index !614
  %7 = bitcast %"struct.std::pair"* %0 to i8*, !llfi_index !615
  store i8* %7, i8** %4, align 8, !llfi_index !616
  store %"class.std::__cxx11::basic_string"* %1, %"class.std::__cxx11::basic_string"** %5, align 8, !llfi_index !617
  store i32* %2, i32** %6, align 8, !llfi_index !618
  %8 = load %"class.std::__cxx11::basic_string"*, %"class.std::__cxx11::basic_string"** %5, align 8, !llfi_index !619
  %9 = call nonnull align 8 dereferenceable(32) %"class.std::__cxx11::basic_string"* @_ZSt7forwardINSt7__cxx1112basic_stringIcSt11char_traitsIcESaIcEEEEOT_RNSt16remove_referenceIS6_E4typeE(%"class.std::__cxx11::basic_string"* nonnull align 8 dereferenceable(32) %8) #2, !llfi_index !620
  %10 = load i32*, i32** %6, align 8, !llfi_index !621
  %11 = call nonnull align 4 dereferenceable(4) i32* @_ZSt7forwardIRiEOT_RNSt16remove_referenceIS1_E4typeE(i32* nonnull align 4 dereferenceable(4) %10) #2, !llfi_index !622
  call void @_ZNSt4pairINSt7__cxx1112basic_stringIcSt11char_traitsIcESaIcEEEiEC2IS5_RiLb1EEEOT_OT0_(%"struct.std::pair"* nonnull align 8 dereferenceable(36) %0, %"class.std::__cxx11::basic_string"* nonnull align 8 dereferenceable(32) %9, i32* nonnull align 4 dereferenceable(4) %11), !llfi_index !623
  ret void, !llfi_index !624
}

; Function Attrs: mustprogress noinline uwtable
define linkonce_odr dso_local void @_ZNSt6vectorISt4pairINSt7__cxx1112basic_stringIcSt11char_traitsIcESaIcEEEiESaIS7_EE9push_backEOS7_(%"class.std::vector.3"* nonnull align 8 dereferenceable(24) %0, %"struct.std::pair"* nonnull align 8 dereferenceable(36) %1) #4 comdat align 2 {
  %3 = alloca %"class.std::vector.3"*, align 8, !llfi_index !625
  %4 = alloca %"struct.std::pair"*, align 8, !llfi_index !626
  store %"class.std::vector.3"* %0, %"class.std::vector.3"** %3, align 8, !llfi_index !627
  store %"struct.std::pair"* %1, %"struct.std::pair"** %4, align 8, !llfi_index !628
  %5 = load %"class.std::vector.3"*, %"class.std::vector.3"** %3, align 8, !llfi_index !629
  %6 = load %"struct.std::pair"*, %"struct.std::pair"** %4, align 8, !llfi_index !630
  %7 = call nonnull align 8 dereferenceable(36) %"struct.std::pair"* @_ZSt4moveIRSt4pairINSt7__cxx1112basic_stringIcSt11char_traitsIcESaIcEEEiEEONSt16remove_referenceIT_E4typeEOSA_(%"struct.std::pair"* nonnull align 8 dereferenceable(36) %6) #2, !llfi_index !631
  call void @_ZNSt6vectorISt4pairINSt7__cxx1112basic_stringIcSt11char_traitsIcESaIcEEEiESaIS7_EE12emplace_backIJS7_EEEvDpOT_(%"class.std::vector.3"* nonnull align 8 dereferenceable(24) %5, %"struct.std::pair"* nonnull align 8 dereferenceable(36) %7), !llfi_index !632
  ret void, !llfi_index !633
}

; Function Attrs: noinline nounwind uwtable
define linkonce_odr dso_local void @_ZNSt4pairINSt7__cxx1112basic_stringIcSt11char_traitsIcESaIcEEEiED2Ev(%"struct.std::pair"* nonnull align 8 dereferenceable(36) %0) unnamed_addr #8 comdat align 2 {
  %2 = alloca %"struct.std::pair"*, align 8, !llfi_index !634
  store %"struct.std::pair"* %0, %"struct.std::pair"** %2, align 8, !llfi_index !635
  %3 = load %"struct.std::pair"*, %"struct.std::pair"** %2, align 8, !llfi_index !636
  %4 = getelementptr inbounds %"struct.std::pair", %"struct.std::pair"* %3, i32 0, i32 0, !llfi_index !637
  call void @_ZNSt7__cxx1112basic_stringIcSt11char_traitsIcESaIcEED1Ev(%"class.std::__cxx11::basic_string"* nonnull align 8 dereferenceable(32) %4) #2, !llfi_index !638
  ret void, !llfi_index !639
}

; Function Attrs: mustprogress noinline nounwind uwtable
define linkonce_odr dso_local %"struct.std::pair"* @_ZNSt6vectorISt4pairINSt7__cxx1112basic_stringIcSt11char_traitsIcESaIcEEEiESaIS7_EE5beginEv(%"class.std::vector.3"* nonnull align 8 dereferenceable(24) %0) #5 comdat align 2 {
  %2 = alloca %"class.__gnu_cxx::__normal_iterator", align 8, !llfi_index !640
  %3 = alloca %"class.std::vector.3"*, align 8, !llfi_index !641
  store %"class.std::vector.3"* %0, %"class.std::vector.3"** %3, align 8, !llfi_index !642
  %4 = load %"class.std::vector.3"*, %"class.std::vector.3"** %3, align 8, !llfi_index !643
  %5 = bitcast %"class.std::vector.3"* %4 to %"struct.std::_Vector_base.4"*, !llfi_index !644
  %6 = getelementptr inbounds %"struct.std::_Vector_base.4", %"struct.std::_Vector_base.4"* %5, i32 0, i32 0, !llfi_index !645
  %7 = bitcast %"struct.std::_Vector_base<std::pair<std::__cxx11::basic_string<char>, int>, std::allocator<std::pair<std::__cxx11::basic_string<char>, int>>>::_Vector_impl"* %6 to %"struct.std::_Vector_base<std::pair<std::__cxx11::basic_string<char>, int>, std::allocator<std::pair<std::__cxx11::basic_string<char>, int>>>::_Vector_impl_data"*, !llfi_index !646
  %8 = getelementptr inbounds %"struct.std::_Vector_base<std::pair<std::__cxx11::basic_string<char>, int>, std::allocator<std::pair<std::__cxx11::basic_string<char>, int>>>::_Vector_impl_data", %"struct.std::_Vector_base<std::pair<std::__cxx11::basic_string<char>, int>, std::allocator<std::pair<std::__cxx11::basic_string<char>, int>>>::_Vector_impl_data"* %7, i32 0, i32 0, !llfi_index !647
  call void @_ZN9__gnu_cxx17__normal_iteratorIPSt4pairINSt7__cxx1112basic_stringIcSt11char_traitsIcESaIcEEEiESt6vectorIS8_SaIS8_EEEC2ERKS9_(%"class.__gnu_cxx::__normal_iterator"* nonnull align 8 dereferenceable(8) %2, %"struct.std::pair"** nonnull align 8 dereferenceable(8) %8) #2, !llfi_index !648
  %9 = getelementptr inbounds %"class.__gnu_cxx::__normal_iterator", %"class.__gnu_cxx::__normal_iterator"* %2, i32 0, i32 0, !llfi_index !649
  %10 = load %"struct.std::pair"*, %"struct.std::pair"** %9, align 8, !llfi_index !650
  ret %"struct.std::pair"* %10, !llfi_index !651
}

; Function Attrs: mustprogress noinline nounwind uwtable
define linkonce_odr dso_local %"struct.std::pair"* @_ZNSt6vectorISt4pairINSt7__cxx1112basic_stringIcSt11char_traitsIcESaIcEEEiESaIS7_EE3endEv(%"class.std::vector.3"* nonnull align 8 dereferenceable(24) %0) #5 comdat align 2 {
  %2 = alloca %"class.__gnu_cxx::__normal_iterator", align 8, !llfi_index !652
  %3 = alloca %"class.std::vector.3"*, align 8, !llfi_index !653
  store %"class.std::vector.3"* %0, %"class.std::vector.3"** %3, align 8, !llfi_index !654
  %4 = load %"class.std::vector.3"*, %"class.std::vector.3"** %3, align 8, !llfi_index !655
  %5 = bitcast %"class.std::vector.3"* %4 to %"struct.std::_Vector_base.4"*, !llfi_index !656
  %6 = getelementptr inbounds %"struct.std::_Vector_base.4", %"struct.std::_Vector_base.4"* %5, i32 0, i32 0, !llfi_index !657
  %7 = bitcast %"struct.std::_Vector_base<std::pair<std::__cxx11::basic_string<char>, int>, std::allocator<std::pair<std::__cxx11::basic_string<char>, int>>>::_Vector_impl"* %6 to %"struct.std::_Vector_base<std::pair<std::__cxx11::basic_string<char>, int>, std::allocator<std::pair<std::__cxx11::basic_string<char>, int>>>::_Vector_impl_data"*, !llfi_index !658
  %8 = getelementptr inbounds %"struct.std::_Vector_base<std::pair<std::__cxx11::basic_string<char>, int>, std::allocator<std::pair<std::__cxx11::basic_string<char>, int>>>::_Vector_impl_data", %"struct.std::_Vector_base<std::pair<std::__cxx11::basic_string<char>, int>, std::allocator<std::pair<std::__cxx11::basic_string<char>, int>>>::_Vector_impl_data"* %7, i32 0, i32 1, !llfi_index !659
  call void @_ZN9__gnu_cxx17__normal_iteratorIPSt4pairINSt7__cxx1112basic_stringIcSt11char_traitsIcESaIcEEEiESt6vectorIS8_SaIS8_EEEC2ERKS9_(%"class.__gnu_cxx::__normal_iterator"* nonnull align 8 dereferenceable(8) %2, %"struct.std::pair"** nonnull align 8 dereferenceable(8) %8) #2, !llfi_index !660
  %9 = getelementptr inbounds %"class.__gnu_cxx::__normal_iterator", %"class.__gnu_cxx::__normal_iterator"* %2, i32 0, i32 0, !llfi_index !661
  %10 = load %"struct.std::pair"*, %"struct.std::pair"** %9, align 8, !llfi_index !662
  ret %"struct.std::pair"* %10, !llfi_index !663
}

; Function Attrs: mustprogress noinline uwtable
define linkonce_odr dso_local void @_ZSt4sortIN9__gnu_cxx17__normal_iteratorIPSt4pairINSt7__cxx1112basic_stringIcSt11char_traitsIcESaIcEEEiESt6vectorIS9_SaIS9_EEEEPFbRKS9_SG_EEvT_SJ_T0_(%"struct.std::pair"* %0, %"struct.std::pair"* %1, i1 (%"struct.std::pair"*, %"struct.std::pair"*)* %2) #4 comdat {
  %4 = alloca %"class.__gnu_cxx::__normal_iterator", align 8, !llfi_index !664
  %5 = alloca %"class.__gnu_cxx::__normal_iterator", align 8, !llfi_index !665
  %6 = alloca i1 (%"struct.std::pair"*, %"struct.std::pair"*)*, align 8, !llfi_index !666
  %7 = alloca %"class.__gnu_cxx::__normal_iterator", align 8, !llfi_index !667
  %8 = alloca %"class.__gnu_cxx::__normal_iterator", align 8, !llfi_index !668
  %9 = alloca %"struct.__gnu_cxx::__ops::_Iter_comp_iter", align 8, !llfi_index !669
  %10 = getelementptr inbounds %"class.__gnu_cxx::__normal_iterator", %"class.__gnu_cxx::__normal_iterator"* %4, i32 0, i32 0, !llfi_index !670
  store %"struct.std::pair"* %0, %"struct.std::pair"** %10, align 8, !llfi_index !671
  %11 = getelementptr inbounds %"class.__gnu_cxx::__normal_iterator", %"class.__gnu_cxx::__normal_iterator"* %5, i32 0, i32 0, !llfi_index !672
  store %"struct.std::pair"* %1, %"struct.std::pair"** %11, align 8, !llfi_index !673
  store i1 (%"struct.std::pair"*, %"struct.std::pair"*)* %2, i1 (%"struct.std::pair"*, %"struct.std::pair"*)** %6, align 8, !llfi_index !674
  %12 = bitcast %"class.__gnu_cxx::__normal_iterator"* %7 to i8*, !llfi_index !675
  %13 = bitcast %"class.__gnu_cxx::__normal_iterator"* %4 to i8*, !llfi_index !676
  call void @llvm.memcpy.p0i8.p0i8.i64(i8* align 8 %12, i8* align 8 %13, i64 8, i1 false), !llfi_index !677
  %14 = bitcast %"class.__gnu_cxx::__normal_iterator"* %8 to i8*, !llfi_index !678
  %15 = bitcast %"class.__gnu_cxx::__normal_iterator"* %5 to i8*, !llfi_index !679
  call void @llvm.memcpy.p0i8.p0i8.i64(i8* align 8 %14, i8* align 8 %15, i64 8, i1 false), !llfi_index !680
  %16 = load i1 (%"struct.std::pair"*, %"struct.std::pair"*)*, i1 (%"struct.std::pair"*, %"struct.std::pair"*)** %6, align 8, !llfi_index !681
  %17 = call i1 (%"struct.std::pair"*, %"struct.std::pair"*)* @_ZN9__gnu_cxx5__ops16__iter_comp_iterIPFbRKSt4pairINSt7__cxx1112basic_stringIcSt11char_traitsIcESaIcEEEiESB_EEENS0_15_Iter_comp_iterIT_EESF_(i1 (%"struct.std::pair"*, %"struct.std::pair"*)* %16), !llfi_index !682
  %18 = getelementptr inbounds %"struct.__gnu_cxx::__ops::_Iter_comp_iter", %"struct.__gnu_cxx::__ops::_Iter_comp_iter"* %9, i32 0, i32 0, !llfi_index !683
  store i1 (%"struct.std::pair"*, %"struct.std::pair"*)* %17, i1 (%"struct.std::pair"*, %"struct.std::pair"*)** %18, align 8, !llfi_index !684
  %19 = getelementptr inbounds %"class.__gnu_cxx::__normal_iterator", %"class.__gnu_cxx::__normal_iterator"* %7, i32 0, i32 0, !llfi_index !685
  %20 = load %"struct.std::pair"*, %"struct.std::pair"** %19, align 8, !llfi_index !686
  %21 = getelementptr inbounds %"class.__gnu_cxx::__normal_iterator", %"class.__gnu_cxx::__normal_iterator"* %8, i32 0, i32 0, !llfi_index !687
  %22 = load %"struct.std::pair"*, %"struct.std::pair"** %21, align 8, !llfi_index !688
  %23 = getelementptr inbounds %"struct.__gnu_cxx::__ops::_Iter_comp_iter", %"struct.__gnu_cxx::__ops::_Iter_comp_iter"* %9, i32 0, i32 0, !llfi_index !689
  %24 = load i1 (%"struct.std::pair"*, %"struct.std::pair"*)*, i1 (%"struct.std::pair"*, %"struct.std::pair"*)** %23, align 8, !llfi_index !690
  call void @_ZSt6__sortIN9__gnu_cxx17__normal_iteratorIPSt4pairINSt7__cxx1112basic_stringIcSt11char_traitsIcESaIcEEEiESt6vectorIS9_SaIS9_EEEENS0_5__ops15_Iter_comp_iterIPFbRKS9_SI_EEEEvT_SM_T0_(%"struct.std::pair"* %20, %"struct.std::pair"* %22, i1 (%"struct.std::pair"*, %"struct.std::pair"*)* %24), !llfi_index !691
  ret void, !llfi_index !692
}

; Function Attrs: mustprogress noinline uwtable
define linkonce_odr dso_local void @_ZSt4sortIN9__gnu_cxx17__normal_iteratorIPSt4pairINSt7__cxx1112basic_stringIcSt11char_traitsIcESaIcEEEiESt6vectorIS9_SaIS9_EEEEEvT_SF_(%"struct.std::pair"* %0, %"struct.std::pair"* %1) #4 comdat {
  %3 = alloca %"class.__gnu_cxx::__normal_iterator", align 8, !llfi_index !693
  %4 = alloca %"class.__gnu_cxx::__normal_iterator", align 8, !llfi_index !694
  %5 = alloca %"class.__gnu_cxx::__normal_iterator", align 8, !llfi_index !695
  %6 = alloca %"class.__gnu_cxx::__normal_iterator", align 8, !llfi_index !696
  %7 = alloca %"class.std::ios_base::Init", align 1, !llfi_index !697
  %8 = alloca %"class.std::ios_base::Init", align 1, !llfi_index !698
  %9 = getelementptr inbounds %"class.__gnu_cxx::__normal_iterator", %"class.__gnu_cxx::__normal_iterator"* %3, i32 0, i32 0, !llfi_index !699
  store %"struct.std::pair"* %0, %"struct.std::pair"** %9, align 8, !llfi_index !700
  %10 = getelementptr inbounds %"class.__gnu_cxx::__normal_iterator", %"class.__gnu_cxx::__normal_iterator"* %4, i32 0, i32 0, !llfi_index !701
  store %"struct.std::pair"* %1, %"struct.std::pair"** %10, align 8, !llfi_index !702
  %11 = bitcast %"class.__gnu_cxx::__normal_iterator"* %5 to i8*, !llfi_index !703
  %12 = bitcast %"class.__gnu_cxx::__normal_iterator"* %3 to i8*, !llfi_index !704
  call void @llvm.memcpy.p0i8.p0i8.i64(i8* align 8 %11, i8* align 8 %12, i64 8, i1 false), !llfi_index !705
  %13 = bitcast %"class.__gnu_cxx::__normal_iterator"* %6 to i8*, !llfi_index !706
  %14 = bitcast %"class.__gnu_cxx::__normal_iterator"* %4 to i8*, !llfi_index !707
  call void @llvm.memcpy.p0i8.p0i8.i64(i8* align 8 %13, i8* align 8 %14, i64 8, i1 false), !llfi_index !708
  call void @_ZN9__gnu_cxx5__ops16__iter_less_iterEv(), !llfi_index !709
  %15 = getelementptr inbounds %"class.__gnu_cxx::__normal_iterator", %"class.__gnu_cxx::__normal_iterator"* %5, i32 0, i32 0, !llfi_index !710
  %16 = load %"struct.std::pair"*, %"struct.std::pair"** %15, align 8, !llfi_index !711
  %17 = getelementptr inbounds %"class.__gnu_cxx::__normal_iterator", %"class.__gnu_cxx::__normal_iterator"* %6, i32 0, i32 0, !llfi_index !712
  %18 = load %"struct.std::pair"*, %"struct.std::pair"** %17, align 8, !llfi_index !713
  call void @_ZSt6__sortIN9__gnu_cxx17__normal_iteratorIPSt4pairINSt7__cxx1112basic_stringIcSt11char_traitsIcESaIcEEEiESt6vectorIS9_SaIS9_EEEENS0_5__ops15_Iter_less_iterEEvT_SH_T0_(%"struct.std::pair"* %16, %"struct.std::pair"* %18), !llfi_index !714
  ret void, !llfi_index !715
}

declare dso_local nonnull align 8 dereferenceable(8) %"class.std::basic_ostream"* @_ZStlsISt11char_traitsIcEERSt13basic_ostreamIcT_ES5_PKc(%"class.std::basic_ostream"* nonnull align 8 dereferenceable(8), i8*) #1

; Function Attrs: mustprogress noinline nounwind uwtable
define linkonce_odr dso_local i64 @_ZNKSt6vectorISt4pairINSt7__cxx1112basic_stringIcSt11char_traitsIcESaIcEEEiESaIS7_EE4sizeEv(%"class.std::vector.3"* nonnull align 8 dereferenceable(24) %0) #5 comdat align 2 {
  %2 = alloca %"class.std::vector.3"*, align 8, !llfi_index !716
  store %"class.std::vector.3"* %0, %"class.std::vector.3"** %2, align 8, !llfi_index !717
  %3 = load %"class.std::vector.3"*, %"class.std::vector.3"** %2, align 8, !llfi_index !718
  %4 = bitcast %"class.std::vector.3"* %3 to %"struct.std::_Vector_base.4"*, !llfi_index !719
  %5 = getelementptr inbounds %"struct.std::_Vector_base.4", %"struct.std::_Vector_base.4"* %4, i32 0, i32 0, !llfi_index !720
  %6 = bitcast %"struct.std::_Vector_base<std::pair<std::__cxx11::basic_string<char>, int>, std::allocator<std::pair<std::__cxx11::basic_string<char>, int>>>::_Vector_impl"* %5 to %"struct.std::_Vector_base<std::pair<std::__cxx11::basic_string<char>, int>, std::allocator<std::pair<std::__cxx11::basic_string<char>, int>>>::_Vector_impl_data"*, !llfi_index !721
  %7 = getelementptr inbounds %"struct.std::_Vector_base<std::pair<std::__cxx11::basic_string<char>, int>, std::allocator<std::pair<std::__cxx11::basic_string<char>, int>>>::_Vector_impl_data", %"struct.std::_Vector_base<std::pair<std::__cxx11::basic_string<char>, int>, std::allocator<std::pair<std::__cxx11::basic_string<char>, int>>>::_Vector_impl_data"* %6, i32 0, i32 1, !llfi_index !722
  %8 = load %"struct.std::pair"*, %"struct.std::pair"** %7, align 8, !llfi_index !723
  %9 = bitcast %"class.std::vector.3"* %3 to %"struct.std::_Vector_base.4"*, !llfi_index !724
  %10 = getelementptr inbounds %"struct.std::_Vector_base.4", %"struct.std::_Vector_base.4"* %9, i32 0, i32 0, !llfi_index !725
  %11 = bitcast %"struct.std::_Vector_base<std::pair<std::__cxx11::basic_string<char>, int>, std::allocator<std::pair<std::__cxx11::basic_string<char>, int>>>::_Vector_impl"* %10 to %"struct.std::_Vector_base<std::pair<std::__cxx11::basic_string<char>, int>, std::allocator<std::pair<std::__cxx11::basic_string<char>, int>>>::_Vector_impl_data"*, !llfi_index !726
  %12 = getelementptr inbounds %"struct.std::_Vector_base<std::pair<std::__cxx11::basic_string<char>, int>, std::allocator<std::pair<std::__cxx11::basic_string<char>, int>>>::_Vector_impl_data", %"struct.std::_Vector_base<std::pair<std::__cxx11::basic_string<char>, int>, std::allocator<std::pair<std::__cxx11::basic_string<char>, int>>>::_Vector_impl_data"* %11, i32 0, i32 0, !llfi_index !727
  %13 = load %"struct.std::pair"*, %"struct.std::pair"** %12, align 8, !llfi_index !728
  %14 = ptrtoint %"struct.std::pair"* %8 to i64, !llfi_index !729
  %15 = ptrtoint %"struct.std::pair"* %13 to i64, !llfi_index !730
  %16 = sub i64 %14, %15, !llfi_index !731
  %17 = sdiv exact i64 %16, 40, !llfi_index !732
  ret i64 %17, !llfi_index !733
}

declare dso_local nonnull align 8 dereferenceable(8) %"class.std::basic_ostream"* @_ZNSolsEm(%"class.std::basic_ostream"* nonnull align 8 dereferenceable(8), i64) #1

; Function Attrs: mustprogress noinline nounwind uwtable
define linkonce_odr dso_local nonnull align 8 dereferenceable(36) %"struct.std::pair"* @_ZNSt6vectorISt4pairINSt7__cxx1112basic_stringIcSt11char_traitsIcESaIcEEEiESaIS7_EEixEm(%"class.std::vector.3"* nonnull align 8 dereferenceable(24) %0, i64 %1) #5 comdat align 2 {
  %3 = alloca %"class.std::vector.3"*, align 8, !llfi_index !734
  %4 = alloca i64, align 8, !llfi_index !735
  store %"class.std::vector.3"* %0, %"class.std::vector.3"** %3, align 8, !llfi_index !736
  store i64 %1, i64* %4, align 8, !llfi_index !737
  %5 = load %"class.std::vector.3"*, %"class.std::vector.3"** %3, align 8, !llfi_index !738
  %6 = bitcast %"class.std::vector.3"* %5 to %"struct.std::_Vector_base.4"*, !llfi_index !739
  %7 = getelementptr inbounds %"struct.std::_Vector_base.4", %"struct.std::_Vector_base.4"* %6, i32 0, i32 0, !llfi_index !740
  %8 = bitcast %"struct.std::_Vector_base<std::pair<std::__cxx11::basic_string<char>, int>, std::allocator<std::pair<std::__cxx11::basic_string<char>, int>>>::_Vector_impl"* %7 to %"struct.std::_Vector_base<std::pair<std::__cxx11::basic_string<char>, int>, std::allocator<std::pair<std::__cxx11::basic_string<char>, int>>>::_Vector_impl_data"*, !llfi_index !741
  %9 = getelementptr inbounds %"struct.std::_Vector_base<std::pair<std::__cxx11::basic_string<char>, int>, std::allocator<std::pair<std::__cxx11::basic_string<char>, int>>>::_Vector_impl_data", %"struct.std::_Vector_base<std::pair<std::__cxx11::basic_string<char>, int>, std::allocator<std::pair<std::__cxx11::basic_string<char>, int>>>::_Vector_impl_data"* %8, i32 0, i32 0, !llfi_index !742
  %10 = load %"struct.std::pair"*, %"struct.std::pair"** %9, align 8, !llfi_index !743
  %11 = load i64, i64* %4, align 8, !llfi_index !744
  %12 = getelementptr inbounds %"struct.std::pair", %"struct.std::pair"* %10, i64 %11, !llfi_index !745
  ret %"struct.std::pair"* %12, !llfi_index !746
}

; Function Attrs: mustprogress noinline nounwind uwtable
define linkonce_odr dso_local i64 @_ZNKSt6vectorINSt7__cxx1112basic_stringIcSt11char_traitsIcESaIcEEESaIS5_EE4sizeEv(%"class.std::vector"* nonnull align 8 dereferenceable(24) %0) #5 comdat align 2 {
  %2 = alloca %"class.std::vector"*, align 8, !llfi_index !747
  store %"class.std::vector"* %0, %"class.std::vector"** %2, align 8, !llfi_index !748
  %3 = load %"class.std::vector"*, %"class.std::vector"** %2, align 8, !llfi_index !749
  %4 = bitcast %"class.std::vector"* %3 to %"struct.std::_Vector_base"*, !llfi_index !750
  %5 = getelementptr inbounds %"struct.std::_Vector_base", %"struct.std::_Vector_base"* %4, i32 0, i32 0, !llfi_index !751
  %6 = bitcast %"struct.std::_Vector_base<std::__cxx11::basic_string<char>, std::allocator<std::__cxx11::basic_string<char>>>::_Vector_impl"* %5 to %"struct.std::_Vector_base<std::__cxx11::basic_string<char>, std::allocator<std::__cxx11::basic_string<char>>>::_Vector_impl_data"*, !llfi_index !752
  %7 = getelementptr inbounds %"struct.std::_Vector_base<std::__cxx11::basic_string<char>, std::allocator<std::__cxx11::basic_string<char>>>::_Vector_impl_data", %"struct.std::_Vector_base<std::__cxx11::basic_string<char>, std::allocator<std::__cxx11::basic_string<char>>>::_Vector_impl_data"* %6, i32 0, i32 1, !llfi_index !753
  %8 = load %"class.std::__cxx11::basic_string"*, %"class.std::__cxx11::basic_string"** %7, align 8, !llfi_index !754
  %9 = bitcast %"class.std::vector"* %3 to %"struct.std::_Vector_base"*, !llfi_index !755
  %10 = getelementptr inbounds %"struct.std::_Vector_base", %"struct.std::_Vector_base"* %9, i32 0, i32 0, !llfi_index !756
  %11 = bitcast %"struct.std::_Vector_base<std::__cxx11::basic_string<char>, std::allocator<std::__cxx11::basic_string<char>>>::_Vector_impl"* %10 to %"struct.std::_Vector_base<std::__cxx11::basic_string<char>, std::allocator<std::__cxx11::basic_string<char>>>::_Vector_impl_data"*, !llfi_index !757
  %12 = getelementptr inbounds %"struct.std::_Vector_base<std::__cxx11::basic_string<char>, std::allocator<std::__cxx11::basic_string<char>>>::_Vector_impl_data", %"struct.std::_Vector_base<std::__cxx11::basic_string<char>, std::allocator<std::__cxx11::basic_string<char>>>::_Vector_impl_data"* %11, i32 0, i32 0, !llfi_index !758
  %13 = load %"class.std::__cxx11::basic_string"*, %"class.std::__cxx11::basic_string"** %12, align 8, !llfi_index !759
  %14 = ptrtoint %"class.std::__cxx11::basic_string"* %8 to i64, !llfi_index !760
  %15 = ptrtoint %"class.std::__cxx11::basic_string"* %13 to i64, !llfi_index !761
  %16 = sub i64 %14, %15, !llfi_index !762
  %17 = sdiv exact i64 %16, 32, !llfi_index !763
  ret i64 %17, !llfi_index !764
}

declare dso_local nonnull align 8 dereferenceable(8) %"class.std::basic_ostream"* @_ZStlsIcSt11char_traitsIcESaIcEERSt13basic_ostreamIT_T0_ES7_RKNSt7__cxx1112basic_stringIS4_S5_T1_EE(%"class.std::basic_ostream"* nonnull align 8 dereferenceable(8), %"class.std::__cxx11::basic_string"* nonnull align 8 dereferenceable(32)) #1

declare dso_local nonnull align 8 dereferenceable(8) %"class.std::basic_ostream"* @_ZSt4endlIcSt11char_traitsIcEERSt13basic_ostreamIT_T0_ES6_(%"class.std::basic_ostream"* nonnull align 8 dereferenceable(8)) #1

declare dso_local nonnull align 8 dereferenceable(8) %"class.std::basic_ostream"* @_ZNSolsEPFRSoS_E(%"class.std::basic_ostream"* nonnull align 8 dereferenceable(8), %"class.std::basic_ostream"* (%"class.std::basic_ostream"*)*) #1

; Function Attrs: noinline nounwind uwtable
define linkonce_odr dso_local void @_ZNSt6vectorISt4pairINSt7__cxx1112basic_stringIcSt11char_traitsIcESaIcEEEiESaIS7_EED2Ev(%"class.std::vector.3"* nonnull align 8 dereferenceable(24) %0) unnamed_addr #8 comdat align 2 personality i8* bitcast (i32 (...)* @__gxx_personality_v0 to i8*) {
  %2 = alloca %"class.std::vector.3"*, align 8, !llfi_index !765
  %3 = alloca i8*, align 8, !llfi_index !766
  %4 = alloca i32, align 4, !llfi_index !767
  store %"class.std::vector.3"* %0, %"class.std::vector.3"** %2, align 8, !llfi_index !768
  %5 = load %"class.std::vector.3"*, %"class.std::vector.3"** %2, align 8, !llfi_index !769
  %6 = bitcast %"class.std::vector.3"* %5 to %"struct.std::_Vector_base.4"*, !llfi_index !770
  %7 = getelementptr inbounds %"struct.std::_Vector_base.4", %"struct.std::_Vector_base.4"* %6, i32 0, i32 0, !llfi_index !771
  %8 = bitcast %"struct.std::_Vector_base<std::pair<std::__cxx11::basic_string<char>, int>, std::allocator<std::pair<std::__cxx11::basic_string<char>, int>>>::_Vector_impl"* %7 to %"struct.std::_Vector_base<std::pair<std::__cxx11::basic_string<char>, int>, std::allocator<std::pair<std::__cxx11::basic_string<char>, int>>>::_Vector_impl_data"*, !llfi_index !772
  %9 = getelementptr inbounds %"struct.std::_Vector_base<std::pair<std::__cxx11::basic_string<char>, int>, std::allocator<std::pair<std::__cxx11::basic_string<char>, int>>>::_Vector_impl_data", %"struct.std::_Vector_base<std::pair<std::__cxx11::basic_string<char>, int>, std::allocator<std::pair<std::__cxx11::basic_string<char>, int>>>::_Vector_impl_data"* %8, i32 0, i32 0, !llfi_index !773
  %10 = load %"struct.std::pair"*, %"struct.std::pair"** %9, align 8, !llfi_index !774
  %11 = bitcast %"class.std::vector.3"* %5 to %"struct.std::_Vector_base.4"*, !llfi_index !775
  %12 = getelementptr inbounds %"struct.std::_Vector_base.4", %"struct.std::_Vector_base.4"* %11, i32 0, i32 0, !llfi_index !776
  %13 = bitcast %"struct.std::_Vector_base<std::pair<std::__cxx11::basic_string<char>, int>, std::allocator<std::pair<std::__cxx11::basic_string<char>, int>>>::_Vector_impl"* %12 to %"struct.std::_Vector_base<std::pair<std::__cxx11::basic_string<char>, int>, std::allocator<std::pair<std::__cxx11::basic_string<char>, int>>>::_Vector_impl_data"*, !llfi_index !777
  %14 = getelementptr inbounds %"struct.std::_Vector_base<std::pair<std::__cxx11::basic_string<char>, int>, std::allocator<std::pair<std::__cxx11::basic_string<char>, int>>>::_Vector_impl_data", %"struct.std::_Vector_base<std::pair<std::__cxx11::basic_string<char>, int>, std::allocator<std::pair<std::__cxx11::basic_string<char>, int>>>::_Vector_impl_data"* %13, i32 0, i32 1, !llfi_index !778
  %15 = load %"struct.std::pair"*, %"struct.std::pair"** %14, align 8, !llfi_index !779
  %16 = bitcast %"class.std::vector.3"* %5 to %"struct.std::_Vector_base.4"*, !llfi_index !780
  %17 = call nonnull align 1 dereferenceable(1) %"class.std::ios_base::Init"* @_ZNSt12_Vector_baseISt4pairINSt7__cxx1112basic_stringIcSt11char_traitsIcESaIcEEEiESaIS7_EE19_M_get_Tp_allocatorEv(%"struct.std::_Vector_base.4"* nonnull align 8 dereferenceable(24) %16) #2, !llfi_index !781
  invoke void @_ZSt8_DestroyIPSt4pairINSt7__cxx1112basic_stringIcSt11char_traitsIcESaIcEEEiES7_EvT_S9_RSaIT0_E(%"struct.std::pair"* %10, %"struct.std::pair"* %15, %"class.std::ios_base::Init"* nonnull align 1 dereferenceable(1) %17)
          to label %18 unwind label %20, !llfi_index !782

18:                                               ; preds = %1
  %19 = bitcast %"class.std::vector.3"* %5 to %"struct.std::_Vector_base.4"*, !llfi_index !783
  call void @_ZNSt12_Vector_baseISt4pairINSt7__cxx1112basic_stringIcSt11char_traitsIcESaIcEEEiESaIS7_EED2Ev(%"struct.std::_Vector_base.4"* nonnull align 8 dereferenceable(24) %19) #2, !llfi_index !784
  ret void, !llfi_index !785

20:                                               ; preds = %1
  %21 = landingpad { i8*, i32 }
          catch i8* null, !llfi_index !786
  %22 = extractvalue { i8*, i32 } %21, 0, !llfi_index !787
  store i8* %22, i8** %3, align 8, !llfi_index !788
  %23 = extractvalue { i8*, i32 } %21, 1, !llfi_index !789
  store i32 %23, i32* %4, align 4, !llfi_index !790
  %24 = bitcast %"class.std::vector.3"* %5 to %"struct.std::_Vector_base.4"*, !llfi_index !791
  call void @_ZNSt12_Vector_baseISt4pairINSt7__cxx1112basic_stringIcSt11char_traitsIcESaIcEEEiESaIS7_EED2Ev(%"struct.std::_Vector_base.4"* nonnull align 8 dereferenceable(24) %24) #2, !llfi_index !792
  br label %25, !llfi_index !793

25:                                               ; preds = %20
  %26 = load i8*, i8** %3, align 8, !llfi_index !794
  call void @__clang_call_terminate(i8* %26) #15, !llfi_index !795
  unreachable, !llfi_index !796
}

; Function Attrs: noinline nounwind uwtable
define linkonce_odr dso_local void @_ZNSt6vectorINSt7__cxx1112basic_stringIcSt11char_traitsIcESaIcEEESaIS5_EED2Ev(%"class.std::vector"* nonnull align 8 dereferenceable(24) %0) unnamed_addr #8 comdat align 2 personality i8* bitcast (i32 (...)* @__gxx_personality_v0 to i8*) {
  %2 = alloca %"class.std::vector"*, align 8, !llfi_index !797
  %3 = alloca i8*, align 8, !llfi_index !798
  %4 = alloca i32, align 4, !llfi_index !799
  store %"class.std::vector"* %0, %"class.std::vector"** %2, align 8, !llfi_index !800
  %5 = load %"class.std::vector"*, %"class.std::vector"** %2, align 8, !llfi_index !801
  %6 = bitcast %"class.std::vector"* %5 to %"struct.std::_Vector_base"*, !llfi_index !802
  %7 = getelementptr inbounds %"struct.std::_Vector_base", %"struct.std::_Vector_base"* %6, i32 0, i32 0, !llfi_index !803
  %8 = bitcast %"struct.std::_Vector_base<std::__cxx11::basic_string<char>, std::allocator<std::__cxx11::basic_string<char>>>::_Vector_impl"* %7 to %"struct.std::_Vector_base<std::__cxx11::basic_string<char>, std::allocator<std::__cxx11::basic_string<char>>>::_Vector_impl_data"*, !llfi_index !804
  %9 = getelementptr inbounds %"struct.std::_Vector_base<std::__cxx11::basic_string<char>, std::allocator<std::__cxx11::basic_string<char>>>::_Vector_impl_data", %"struct.std::_Vector_base<std::__cxx11::basic_string<char>, std::allocator<std::__cxx11::basic_string<char>>>::_Vector_impl_data"* %8, i32 0, i32 0, !llfi_index !805
  %10 = load %"class.std::__cxx11::basic_string"*, %"class.std::__cxx11::basic_string"** %9, align 8, !llfi_index !806
  %11 = bitcast %"class.std::vector"* %5 to %"struct.std::_Vector_base"*, !llfi_index !807
  %12 = getelementptr inbounds %"struct.std::_Vector_base", %"struct.std::_Vector_base"* %11, i32 0, i32 0, !llfi_index !808
  %13 = bitcast %"struct.std::_Vector_base<std::__cxx11::basic_string<char>, std::allocator<std::__cxx11::basic_string<char>>>::_Vector_impl"* %12 to %"struct.std::_Vector_base<std::__cxx11::basic_string<char>, std::allocator<std::__cxx11::basic_string<char>>>::_Vector_impl_data"*, !llfi_index !809
  %14 = getelementptr inbounds %"struct.std::_Vector_base<std::__cxx11::basic_string<char>, std::allocator<std::__cxx11::basic_string<char>>>::_Vector_impl_data", %"struct.std::_Vector_base<std::__cxx11::basic_string<char>, std::allocator<std::__cxx11::basic_string<char>>>::_Vector_impl_data"* %13, i32 0, i32 1, !llfi_index !810
  %15 = load %"class.std::__cxx11::basic_string"*, %"class.std::__cxx11::basic_string"** %14, align 8, !llfi_index !811
  %16 = bitcast %"class.std::vector"* %5 to %"struct.std::_Vector_base"*, !llfi_index !812
  %17 = call nonnull align 1 dereferenceable(1) %"class.std::ios_base::Init"* @_ZNSt12_Vector_baseINSt7__cxx1112basic_stringIcSt11char_traitsIcESaIcEEESaIS5_EE19_M_get_Tp_allocatorEv(%"struct.std::_Vector_base"* nonnull align 8 dereferenceable(24) %16) #2, !llfi_index !813
  invoke void @_ZSt8_DestroyIPNSt7__cxx1112basic_stringIcSt11char_traitsIcESaIcEEES5_EvT_S7_RSaIT0_E(%"class.std::__cxx11::basic_string"* %10, %"class.std::__cxx11::basic_string"* %15, %"class.std::ios_base::Init"* nonnull align 1 dereferenceable(1) %17)
          to label %18 unwind label %20, !llfi_index !814

18:                                               ; preds = %1
  %19 = bitcast %"class.std::vector"* %5 to %"struct.std::_Vector_base"*, !llfi_index !815
  call void @_ZNSt12_Vector_baseINSt7__cxx1112basic_stringIcSt11char_traitsIcESaIcEEESaIS5_EED2Ev(%"struct.std::_Vector_base"* nonnull align 8 dereferenceable(24) %19) #2, !llfi_index !816
  ret void, !llfi_index !817

20:                                               ; preds = %1
  %21 = landingpad { i8*, i32 }
          catch i8* null, !llfi_index !818
  %22 = extractvalue { i8*, i32 } %21, 0, !llfi_index !819
  store i8* %22, i8** %3, align 8, !llfi_index !820
  %23 = extractvalue { i8*, i32 } %21, 1, !llfi_index !821
  store i32 %23, i32* %4, align 4, !llfi_index !822
  %24 = bitcast %"class.std::vector"* %5 to %"struct.std::_Vector_base"*, !llfi_index !823
  call void @_ZNSt12_Vector_baseINSt7__cxx1112basic_stringIcSt11char_traitsIcESaIcEEESaIS5_EED2Ev(%"struct.std::_Vector_base"* nonnull align 8 dereferenceable(24) %24) #2, !llfi_index !824
  br label %25, !llfi_index !825

25:                                               ; preds = %20
  %26 = load i8*, i8** %3, align 8, !llfi_index !826
  call void @__clang_call_terminate(i8* %26) #15, !llfi_index !827
  unreachable, !llfi_index !828
}

; Function Attrs: mustprogress noinline nounwind uwtable
define linkonce_odr dso_local nonnull align 1 dereferenceable(1) %"class.std::ios_base::Init"* @_ZNSt12_Vector_baseINSt7__cxx1112basic_stringIcSt11char_traitsIcESaIcEEESaIS5_EE19_M_get_Tp_allocatorEv(%"struct.std::_Vector_base"* nonnull align 8 dereferenceable(24) %0) #5 comdat align 2 {
  %2 = alloca %"struct.std::_Vector_base"*, align 8, !llfi_index !829
  store %"struct.std::_Vector_base"* %0, %"struct.std::_Vector_base"** %2, align 8, !llfi_index !830
  %3 = load %"struct.std::_Vector_base"*, %"struct.std::_Vector_base"** %2, align 8, !llfi_index !831
  %4 = getelementptr inbounds %"struct.std::_Vector_base", %"struct.std::_Vector_base"* %3, i32 0, i32 0, !llfi_index !832
  %5 = bitcast %"struct.std::_Vector_base<std::__cxx11::basic_string<char>, std::allocator<std::__cxx11::basic_string<char>>>::_Vector_impl"* %4 to %"class.std::ios_base::Init"*, !llfi_index !833
  ret %"class.std::ios_base::Init"* %5, !llfi_index !834
}

; Function Attrs: mustprogress noinline uwtable
define linkonce_odr dso_local void @_ZSt8_DestroyIPNSt7__cxx1112basic_stringIcSt11char_traitsIcESaIcEEES5_EvT_S7_RSaIT0_E(%"class.std::__cxx11::basic_string"* %0, %"class.std::__cxx11::basic_string"* %1, %"class.std::ios_base::Init"* nonnull align 1 dereferenceable(1) %2) #4 comdat {
  %4 = alloca %"class.std::__cxx11::basic_string"*, align 8, !llfi_index !835
  %5 = alloca %"class.std::__cxx11::basic_string"*, align 8, !llfi_index !836
  %6 = alloca %"class.std::ios_base::Init"*, align 8, !llfi_index !837
  store %"class.std::__cxx11::basic_string"* %0, %"class.std::__cxx11::basic_string"** %4, align 8, !llfi_index !838
  store %"class.std::__cxx11::basic_string"* %1, %"class.std::__cxx11::basic_string"** %5, align 8, !llfi_index !839
  store %"class.std::ios_base::Init"* %2, %"class.std::ios_base::Init"** %6, align 8, !llfi_index !840
  %7 = load %"class.std::__cxx11::basic_string"*, %"class.std::__cxx11::basic_string"** %4, align 8, !llfi_index !841
  %8 = load %"class.std::__cxx11::basic_string"*, %"class.std::__cxx11::basic_string"** %5, align 8, !llfi_index !842
  call void @_ZSt8_DestroyIPNSt7__cxx1112basic_stringIcSt11char_traitsIcESaIcEEEEvT_S7_(%"class.std::__cxx11::basic_string"* %7, %"class.std::__cxx11::basic_string"* %8), !llfi_index !843
  ret void, !llfi_index !844
}

; Function Attrs: noinline nounwind uwtable
define linkonce_odr dso_local void @_ZNSt12_Vector_baseINSt7__cxx1112basic_stringIcSt11char_traitsIcESaIcEEESaIS5_EED2Ev(%"struct.std::_Vector_base"* nonnull align 8 dereferenceable(24) %0) unnamed_addr #8 comdat align 2 personality i8* bitcast (i32 (...)* @__gxx_personality_v0 to i8*) {
  %2 = alloca %"struct.std::_Vector_base"*, align 8, !llfi_index !845
  %3 = alloca i8*, align 8, !llfi_index !846
  %4 = alloca i32, align 4, !llfi_index !847
  store %"struct.std::_Vector_base"* %0, %"struct.std::_Vector_base"** %2, align 8, !llfi_index !848
  %5 = load %"struct.std::_Vector_base"*, %"struct.std::_Vector_base"** %2, align 8, !llfi_index !849
  %6 = getelementptr inbounds %"struct.std::_Vector_base", %"struct.std::_Vector_base"* %5, i32 0, i32 0, !llfi_index !850
  %7 = bitcast %"struct.std::_Vector_base<std::__cxx11::basic_string<char>, std::allocator<std::__cxx11::basic_string<char>>>::_Vector_impl"* %6 to %"struct.std::_Vector_base<std::__cxx11::basic_string<char>, std::allocator<std::__cxx11::basic_string<char>>>::_Vector_impl_data"*, !llfi_index !851
  %8 = getelementptr inbounds %"struct.std::_Vector_base<std::__cxx11::basic_string<char>, std::allocator<std::__cxx11::basic_string<char>>>::_Vector_impl_data", %"struct.std::_Vector_base<std::__cxx11::basic_string<char>, std::allocator<std::__cxx11::basic_string<char>>>::_Vector_impl_data"* %7, i32 0, i32 0, !llfi_index !852
  %9 = load %"class.std::__cxx11::basic_string"*, %"class.std::__cxx11::basic_string"** %8, align 8, !llfi_index !853
  %10 = getelementptr inbounds %"struct.std::_Vector_base", %"struct.std::_Vector_base"* %5, i32 0, i32 0, !llfi_index !854
  %11 = bitcast %"struct.std::_Vector_base<std::__cxx11::basic_string<char>, std::allocator<std::__cxx11::basic_string<char>>>::_Vector_impl"* %10 to %"struct.std::_Vector_base<std::__cxx11::basic_string<char>, std::allocator<std::__cxx11::basic_string<char>>>::_Vector_impl_data"*, !llfi_index !855
  %12 = getelementptr inbounds %"struct.std::_Vector_base<std::__cxx11::basic_string<char>, std::allocator<std::__cxx11::basic_string<char>>>::_Vector_impl_data", %"struct.std::_Vector_base<std::__cxx11::basic_string<char>, std::allocator<std::__cxx11::basic_string<char>>>::_Vector_impl_data"* %11, i32 0, i32 2, !llfi_index !856
  %13 = load %"class.std::__cxx11::basic_string"*, %"class.std::__cxx11::basic_string"** %12, align 8, !llfi_index !857
  %14 = getelementptr inbounds %"struct.std::_Vector_base", %"struct.std::_Vector_base"* %5, i32 0, i32 0, !llfi_index !858
  %15 = bitcast %"struct.std::_Vector_base<std::__cxx11::basic_string<char>, std::allocator<std::__cxx11::basic_string<char>>>::_Vector_impl"* %14 to %"struct.std::_Vector_base<std::__cxx11::basic_string<char>, std::allocator<std::__cxx11::basic_string<char>>>::_Vector_impl_data"*, !llfi_index !859
  %16 = getelementptr inbounds %"struct.std::_Vector_base<std::__cxx11::basic_string<char>, std::allocator<std::__cxx11::basic_string<char>>>::_Vector_impl_data", %"struct.std::_Vector_base<std::__cxx11::basic_string<char>, std::allocator<std::__cxx11::basic_string<char>>>::_Vector_impl_data"* %15, i32 0, i32 0, !llfi_index !860
  %17 = load %"class.std::__cxx11::basic_string"*, %"class.std::__cxx11::basic_string"** %16, align 8, !llfi_index !861
  %18 = ptrtoint %"class.std::__cxx11::basic_string"* %13 to i64, !llfi_index !862
  %19 = ptrtoint %"class.std::__cxx11::basic_string"* %17 to i64, !llfi_index !863
  %20 = sub i64 %18, %19, !llfi_index !864
  %21 = sdiv exact i64 %20, 32, !llfi_index !865
  invoke void @_ZNSt12_Vector_baseINSt7__cxx1112basic_stringIcSt11char_traitsIcESaIcEEESaIS5_EE13_M_deallocateEPS5_m(%"struct.std::_Vector_base"* nonnull align 8 dereferenceable(24) %5, %"class.std::__cxx11::basic_string"* %9, i64 %21)
          to label %22 unwind label %24, !llfi_index !866

22:                                               ; preds = %1
  %23 = getelementptr inbounds %"struct.std::_Vector_base", %"struct.std::_Vector_base"* %5, i32 0, i32 0, !llfi_index !867
  call void @_ZNSt12_Vector_baseINSt7__cxx1112basic_stringIcSt11char_traitsIcESaIcEEESaIS5_EE12_Vector_implD2Ev(%"struct.std::_Vector_base<std::__cxx11::basic_string<char>, std::allocator<std::__cxx11::basic_string<char>>>::_Vector_impl"* nonnull align 8 dereferenceable(24) %23) #2, !llfi_index !868
  ret void, !llfi_index !869

24:                                               ; preds = %1
  %25 = landingpad { i8*, i32 }
          catch i8* null, !llfi_index !870
  %26 = extractvalue { i8*, i32 } %25, 0, !llfi_index !871
  store i8* %26, i8** %3, align 8, !llfi_index !872
  %27 = extractvalue { i8*, i32 } %25, 1, !llfi_index !873
  store i32 %27, i32* %4, align 4, !llfi_index !874
  %28 = getelementptr inbounds %"struct.std::_Vector_base", %"struct.std::_Vector_base"* %5, i32 0, i32 0, !llfi_index !875
  call void @_ZNSt12_Vector_baseINSt7__cxx1112basic_stringIcSt11char_traitsIcESaIcEEESaIS5_EE12_Vector_implD2Ev(%"struct.std::_Vector_base<std::__cxx11::basic_string<char>, std::allocator<std::__cxx11::basic_string<char>>>::_Vector_impl"* nonnull align 8 dereferenceable(24) %28) #2, !llfi_index !876
  br label %29, !llfi_index !877

29:                                               ; preds = %24
  %30 = load i8*, i8** %3, align 8, !llfi_index !878
  call void @__clang_call_terminate(i8* %30) #15, !llfi_index !879
  unreachable, !llfi_index !880
}

; Function Attrs: mustprogress noinline uwtable
define linkonce_odr dso_local void @_ZNSt12_Vector_baseINSt7__cxx1112basic_stringIcSt11char_traitsIcESaIcEEESaIS5_EE13_M_deallocateEPS5_m(%"struct.std::_Vector_base"* nonnull align 8 dereferenceable(24) %0, %"class.std::__cxx11::basic_string"* %1, i64 %2) #4 comdat align 2 {
  %4 = alloca %"struct.std::_Vector_base"*, align 8, !llfi_index !881
  %5 = alloca %"class.std::__cxx11::basic_string"*, align 8, !llfi_index !882
  %6 = alloca i64, align 8, !llfi_index !883
  store %"struct.std::_Vector_base"* %0, %"struct.std::_Vector_base"** %4, align 8, !llfi_index !884
  store %"class.std::__cxx11::basic_string"* %1, %"class.std::__cxx11::basic_string"** %5, align 8, !llfi_index !885
  store i64 %2, i64* %6, align 8, !llfi_index !886
  %7 = load %"struct.std::_Vector_base"*, %"struct.std::_Vector_base"** %4, align 8, !llfi_index !887
  %8 = load %"class.std::__cxx11::basic_string"*, %"class.std::__cxx11::basic_string"** %5, align 8, !llfi_index !888
  %9 = icmp ne %"class.std::__cxx11::basic_string"* %8, null, !llfi_index !889
  br i1 %9, label %10, label %15, !llfi_index !890

10:                                               ; preds = %3
  %11 = getelementptr inbounds %"struct.std::_Vector_base", %"struct.std::_Vector_base"* %7, i32 0, i32 0, !llfi_index !891
  %12 = bitcast %"struct.std::_Vector_base<std::__cxx11::basic_string<char>, std::allocator<std::__cxx11::basic_string<char>>>::_Vector_impl"* %11 to %"class.std::ios_base::Init"*, !llfi_index !892
  %13 = load %"class.std::__cxx11::basic_string"*, %"class.std::__cxx11::basic_string"** %5, align 8, !llfi_index !893
  %14 = load i64, i64* %6, align 8, !llfi_index !894
  call void @_ZNSt16allocator_traitsISaINSt7__cxx1112basic_stringIcSt11char_traitsIcESaIcEEEEE10deallocateERS6_PS5_m(%"class.std::ios_base::Init"* nonnull align 1 dereferenceable(1) %12, %"class.std::__cxx11::basic_string"* %13, i64 %14), !llfi_index !895
  br label %15, !llfi_index !896

15:                                               ; preds = %10, %3
  ret void, !llfi_index !897
}

; Function Attrs: noinline nounwind uwtable
define linkonce_odr dso_local void @_ZNSt12_Vector_baseINSt7__cxx1112basic_stringIcSt11char_traitsIcESaIcEEESaIS5_EE12_Vector_implD2Ev(%"struct.std::_Vector_base<std::__cxx11::basic_string<char>, std::allocator<std::__cxx11::basic_string<char>>>::_Vector_impl"* nonnull align 8 dereferenceable(24) %0) unnamed_addr #8 comdat align 2 {
  %2 = alloca %"struct.std::_Vector_base<std::__cxx11::basic_string<char>, std::allocator<std::__cxx11::basic_string<char>>>::_Vector_impl"*, align 8, !llfi_index !898
  store %"struct.std::_Vector_base<std::__cxx11::basic_string<char>, std::allocator<std::__cxx11::basic_string<char>>>::_Vector_impl"* %0, %"struct.std::_Vector_base<std::__cxx11::basic_string<char>, std::allocator<std::__cxx11::basic_string<char>>>::_Vector_impl"** %2, align 8, !llfi_index !899
  %3 = load %"struct.std::_Vector_base<std::__cxx11::basic_string<char>, std::allocator<std::__cxx11::basic_string<char>>>::_Vector_impl"*, %"struct.std::_Vector_base<std::__cxx11::basic_string<char>, std::allocator<std::__cxx11::basic_string<char>>>::_Vector_impl"** %2, align 8, !llfi_index !900
  %4 = bitcast %"struct.std::_Vector_base<std::__cxx11::basic_string<char>, std::allocator<std::__cxx11::basic_string<char>>>::_Vector_impl"* %3 to %"class.std::ios_base::Init"*, !llfi_index !901
  call void @_ZNSaINSt7__cxx1112basic_stringIcSt11char_traitsIcESaIcEEEED2Ev(%"class.std::ios_base::Init"* nonnull align 1 dereferenceable(1) %4) #2, !llfi_index !902
  ret void, !llfi_index !903
}

; Function Attrs: noinline nounwind uwtable
define linkonce_odr dso_local void @_ZNSaINSt7__cxx1112basic_stringIcSt11char_traitsIcESaIcEEEED2Ev(%"class.std::ios_base::Init"* nonnull align 1 dereferenceable(1) %0) unnamed_addr #8 comdat align 2 {
  %2 = alloca %"class.std::ios_base::Init"*, align 8, !llfi_index !904
  store %"class.std::ios_base::Init"* %0, %"class.std::ios_base::Init"** %2, align 8, !llfi_index !905
  %3 = load %"class.std::ios_base::Init"*, %"class.std::ios_base::Init"** %2, align 8, !llfi_index !906
  %4 = bitcast %"class.std::ios_base::Init"* %3 to %"class.std::ios_base::Init"*, !llfi_index !907
  call void @_ZN9__gnu_cxx13new_allocatorINSt7__cxx1112basic_stringIcSt11char_traitsIcESaIcEEEED2Ev(%"class.std::ios_base::Init"* nonnull align 1 dereferenceable(1) %4) #2, !llfi_index !908
  ret void, !llfi_index !909
}

; Function Attrs: noinline nounwind uwtable
define linkonce_odr dso_local void @_ZN9__gnu_cxx13new_allocatorINSt7__cxx1112basic_stringIcSt11char_traitsIcESaIcEEEED2Ev(%"class.std::ios_base::Init"* nonnull align 1 dereferenceable(1) %0) unnamed_addr #8 comdat align 2 {
  %2 = alloca %"class.std::ios_base::Init"*, align 8, !llfi_index !910
  store %"class.std::ios_base::Init"* %0, %"class.std::ios_base::Init"** %2, align 8, !llfi_index !911
  %3 = load %"class.std::ios_base::Init"*, %"class.std::ios_base::Init"** %2, align 8, !llfi_index !912
  ret void, !llfi_index !913
}

; Function Attrs: mustprogress noinline uwtable
define linkonce_odr dso_local void @_ZNSt16allocator_traitsISaINSt7__cxx1112basic_stringIcSt11char_traitsIcESaIcEEEEE10deallocateERS6_PS5_m(%"class.std::ios_base::Init"* nonnull align 1 dereferenceable(1) %0, %"class.std::__cxx11::basic_string"* %1, i64 %2) #4 comdat align 2 {
  %4 = alloca %"class.std::ios_base::Init"*, align 8, !llfi_index !914
  %5 = alloca %"class.std::__cxx11::basic_string"*, align 8, !llfi_index !915
  %6 = alloca i64, align 8, !llfi_index !916
  store %"class.std::ios_base::Init"* %0, %"class.std::ios_base::Init"** %4, align 8, !llfi_index !917
  store %"class.std::__cxx11::basic_string"* %1, %"class.std::__cxx11::basic_string"** %5, align 8, !llfi_index !918
  store i64 %2, i64* %6, align 8, !llfi_index !919
  %7 = load %"class.std::ios_base::Init"*, %"class.std::ios_base::Init"** %4, align 8, !llfi_index !920
  %8 = bitcast %"class.std::ios_base::Init"* %7 to %"class.std::ios_base::Init"*, !llfi_index !921
  %9 = load %"class.std::__cxx11::basic_string"*, %"class.std::__cxx11::basic_string"** %5, align 8, !llfi_index !922
  %10 = load i64, i64* %6, align 8, !llfi_index !923
  call void @_ZN9__gnu_cxx13new_allocatorINSt7__cxx1112basic_stringIcSt11char_traitsIcESaIcEEEE10deallocateEPS6_m(%"class.std::ios_base::Init"* nonnull align 1 dereferenceable(1) %8, %"class.std::__cxx11::basic_string"* %9, i64 %10), !llfi_index !924
  ret void, !llfi_index !925
}

; Function Attrs: mustprogress noinline nounwind uwtable
define linkonce_odr dso_local void @_ZN9__gnu_cxx13new_allocatorINSt7__cxx1112basic_stringIcSt11char_traitsIcESaIcEEEE10deallocateEPS6_m(%"class.std::ios_base::Init"* nonnull align 1 dereferenceable(1) %0, %"class.std::__cxx11::basic_string"* %1, i64 %2) #5 comdat align 2 {
  %4 = alloca %"class.std::ios_base::Init"*, align 8, !llfi_index !926
  %5 = alloca %"class.std::__cxx11::basic_string"*, align 8, !llfi_index !927
  %6 = alloca i64, align 8, !llfi_index !928
  store %"class.std::ios_base::Init"* %0, %"class.std::ios_base::Init"** %4, align 8, !llfi_index !929
  store %"class.std::__cxx11::basic_string"* %1, %"class.std::__cxx11::basic_string"** %5, align 8, !llfi_index !930
  store i64 %2, i64* %6, align 8, !llfi_index !931
  %7 = load %"class.std::ios_base::Init"*, %"class.std::ios_base::Init"** %4, align 8, !llfi_index !932
  %8 = load %"class.std::__cxx11::basic_string"*, %"class.std::__cxx11::basic_string"** %5, align 8, !llfi_index !933
  %9 = bitcast %"class.std::__cxx11::basic_string"* %8 to i8*, !llfi_index !934
  call void @_ZdlPv(i8* %9) #2, !llfi_index !935
  ret void, !llfi_index !936
}

; Function Attrs: nobuiltin nounwind
declare dso_local void @_ZdlPv(i8*) #10

; Function Attrs: mustprogress noinline uwtable
define linkonce_odr dso_local void @_ZSt8_DestroyIPNSt7__cxx1112basic_stringIcSt11char_traitsIcESaIcEEEEvT_S7_(%"class.std::__cxx11::basic_string"* %0, %"class.std::__cxx11::basic_string"* %1) #4 comdat {
  %3 = alloca %"class.std::__cxx11::basic_string"*, align 8, !llfi_index !937
  %4 = alloca %"class.std::__cxx11::basic_string"*, align 8, !llfi_index !938
  store %"class.std::__cxx11::basic_string"* %0, %"class.std::__cxx11::basic_string"** %3, align 8, !llfi_index !939
  store %"class.std::__cxx11::basic_string"* %1, %"class.std::__cxx11::basic_string"** %4, align 8, !llfi_index !940
  %5 = load %"class.std::__cxx11::basic_string"*, %"class.std::__cxx11::basic_string"** %3, align 8, !llfi_index !941
  %6 = load %"class.std::__cxx11::basic_string"*, %"class.std::__cxx11::basic_string"** %4, align 8, !llfi_index !942
  call void @_ZNSt12_Destroy_auxILb0EE9__destroyIPNSt7__cxx1112basic_stringIcSt11char_traitsIcESaIcEEEEEvT_S9_(%"class.std::__cxx11::basic_string"* %5, %"class.std::__cxx11::basic_string"* %6), !llfi_index !943
  ret void, !llfi_index !944
}

; Function Attrs: mustprogress noinline uwtable
define linkonce_odr dso_local void @_ZNSt12_Destroy_auxILb0EE9__destroyIPNSt7__cxx1112basic_stringIcSt11char_traitsIcESaIcEEEEEvT_S9_(%"class.std::__cxx11::basic_string"* %0, %"class.std::__cxx11::basic_string"* %1) #4 comdat align 2 {
  %3 = alloca %"class.std::__cxx11::basic_string"*, align 8, !llfi_index !945
  %4 = alloca %"class.std::__cxx11::basic_string"*, align 8, !llfi_index !946
  store %"class.std::__cxx11::basic_string"* %0, %"class.std::__cxx11::basic_string"** %3, align 8, !llfi_index !947
  store %"class.std::__cxx11::basic_string"* %1, %"class.std::__cxx11::basic_string"** %4, align 8, !llfi_index !948
  br label %5, !llfi_index !949

5:                                                ; preds = %12, %2
  %6 = load %"class.std::__cxx11::basic_string"*, %"class.std::__cxx11::basic_string"** %3, align 8, !llfi_index !950
  %7 = load %"class.std::__cxx11::basic_string"*, %"class.std::__cxx11::basic_string"** %4, align 8, !llfi_index !951
  %8 = icmp ne %"class.std::__cxx11::basic_string"* %6, %7, !llfi_index !952
  br i1 %8, label %9, label %15, !llfi_index !953

9:                                                ; preds = %5
  %10 = load %"class.std::__cxx11::basic_string"*, %"class.std::__cxx11::basic_string"** %3, align 8, !llfi_index !954
  %11 = call %"class.std::__cxx11::basic_string"* @_ZSt11__addressofINSt7__cxx1112basic_stringIcSt11char_traitsIcESaIcEEEEPT_RS6_(%"class.std::__cxx11::basic_string"* nonnull align 8 dereferenceable(32) %10) #2, !llfi_index !955
  call void @_ZSt8_DestroyINSt7__cxx1112basic_stringIcSt11char_traitsIcESaIcEEEEvPT_(%"class.std::__cxx11::basic_string"* %11), !llfi_index !956
  br label %12, !llfi_index !957

12:                                               ; preds = %9
  %13 = load %"class.std::__cxx11::basic_string"*, %"class.std::__cxx11::basic_string"** %3, align 8, !llfi_index !958
  %14 = getelementptr inbounds %"class.std::__cxx11::basic_string", %"class.std::__cxx11::basic_string"* %13, i32 1, !llfi_index !959
  store %"class.std::__cxx11::basic_string"* %14, %"class.std::__cxx11::basic_string"** %3, align 8, !llfi_index !960
  br label %5, !llvm.loop !961, !llfi_index !962

15:                                               ; preds = %5
  ret void, !llfi_index !963
}

; Function Attrs: mustprogress noinline nounwind uwtable
define linkonce_odr dso_local %"class.std::__cxx11::basic_string"* @_ZSt11__addressofINSt7__cxx1112basic_stringIcSt11char_traitsIcESaIcEEEEPT_RS6_(%"class.std::__cxx11::basic_string"* nonnull align 8 dereferenceable(32) %0) #5 comdat {
  %2 = alloca %"class.std::__cxx11::basic_string"*, align 8, !llfi_index !964
  store %"class.std::__cxx11::basic_string"* %0, %"class.std::__cxx11::basic_string"** %2, align 8, !llfi_index !965
  %3 = load %"class.std::__cxx11::basic_string"*, %"class.std::__cxx11::basic_string"** %2, align 8, !llfi_index !966
  ret %"class.std::__cxx11::basic_string"* %3, !llfi_index !967
}

; Function Attrs: mustprogress noinline nounwind uwtable
define linkonce_odr dso_local void @_ZSt8_DestroyINSt7__cxx1112basic_stringIcSt11char_traitsIcESaIcEEEEvPT_(%"class.std::__cxx11::basic_string"* %0) #5 comdat {
  %2 = alloca %"class.std::__cxx11::basic_string"*, align 8, !llfi_index !968
  store %"class.std::__cxx11::basic_string"* %0, %"class.std::__cxx11::basic_string"** %2, align 8, !llfi_index !969
  %3 = load %"class.std::__cxx11::basic_string"*, %"class.std::__cxx11::basic_string"** %2, align 8, !llfi_index !970
  call void @_ZNSt7__cxx1112basic_stringIcSt11char_traitsIcESaIcEED1Ev(%"class.std::__cxx11::basic_string"* nonnull align 8 dereferenceable(32) %3) #2, !llfi_index !971
  ret void, !llfi_index !972
}

; Function Attrs: mustprogress noinline nounwind uwtable
define linkonce_odr dso_local nonnull align 1 dereferenceable(1) %"class.std::ios_base::Init"* @_ZNSt12_Vector_baseISt4pairINSt7__cxx1112basic_stringIcSt11char_traitsIcESaIcEEEiESaIS7_EE19_M_get_Tp_allocatorEv(%"struct.std::_Vector_base.4"* nonnull align 8 dereferenceable(24) %0) #5 comdat align 2 {
  %2 = alloca %"struct.std::_Vector_base.4"*, align 8, !llfi_index !973
  store %"struct.std::_Vector_base.4"* %0, %"struct.std::_Vector_base.4"** %2, align 8, !llfi_index !974
  %3 = load %"struct.std::_Vector_base.4"*, %"struct.std::_Vector_base.4"** %2, align 8, !llfi_index !975
  %4 = getelementptr inbounds %"struct.std::_Vector_base.4", %"struct.std::_Vector_base.4"* %3, i32 0, i32 0, !llfi_index !976
  %5 = bitcast %"struct.std::_Vector_base<std::pair<std::__cxx11::basic_string<char>, int>, std::allocator<std::pair<std::__cxx11::basic_string<char>, int>>>::_Vector_impl"* %4 to %"class.std::ios_base::Init"*, !llfi_index !977
  ret %"class.std::ios_base::Init"* %5, !llfi_index !978
}

; Function Attrs: mustprogress noinline uwtable
define linkonce_odr dso_local void @_ZSt8_DestroyIPSt4pairINSt7__cxx1112basic_stringIcSt11char_traitsIcESaIcEEEiES7_EvT_S9_RSaIT0_E(%"struct.std::pair"* %0, %"struct.std::pair"* %1, %"class.std::ios_base::Init"* nonnull align 1 dereferenceable(1) %2) #4 comdat {
  %4 = alloca %"struct.std::pair"*, align 8, !llfi_index !979
  %5 = alloca %"struct.std::pair"*, align 8, !llfi_index !980
  %6 = alloca %"class.std::ios_base::Init"*, align 8, !llfi_index !981
  store %"struct.std::pair"* %0, %"struct.std::pair"** %4, align 8, !llfi_index !982
  store %"struct.std::pair"* %1, %"struct.std::pair"** %5, align 8, !llfi_index !983
  store %"class.std::ios_base::Init"* %2, %"class.std::ios_base::Init"** %6, align 8, !llfi_index !984
  %7 = load %"struct.std::pair"*, %"struct.std::pair"** %4, align 8, !llfi_index !985
  %8 = load %"struct.std::pair"*, %"struct.std::pair"** %5, align 8, !llfi_index !986
  call void @_ZSt8_DestroyIPSt4pairINSt7__cxx1112basic_stringIcSt11char_traitsIcESaIcEEEiEEvT_S9_(%"struct.std::pair"* %7, %"struct.std::pair"* %8), !llfi_index !987
  ret void, !llfi_index !988
}

; Function Attrs: noinline nounwind uwtable
define linkonce_odr dso_local void @_ZNSt12_Vector_baseISt4pairINSt7__cxx1112basic_stringIcSt11char_traitsIcESaIcEEEiESaIS7_EED2Ev(%"struct.std::_Vector_base.4"* nonnull align 8 dereferenceable(24) %0) unnamed_addr #8 comdat align 2 personality i8* bitcast (i32 (...)* @__gxx_personality_v0 to i8*) {
  %2 = alloca %"struct.std::_Vector_base.4"*, align 8, !llfi_index !989
  %3 = alloca i8*, align 8, !llfi_index !990
  %4 = alloca i32, align 4, !llfi_index !991
  store %"struct.std::_Vector_base.4"* %0, %"struct.std::_Vector_base.4"** %2, align 8, !llfi_index !992
  %5 = load %"struct.std::_Vector_base.4"*, %"struct.std::_Vector_base.4"** %2, align 8, !llfi_index !993
  %6 = getelementptr inbounds %"struct.std::_Vector_base.4", %"struct.std::_Vector_base.4"* %5, i32 0, i32 0, !llfi_index !994
  %7 = bitcast %"struct.std::_Vector_base<std::pair<std::__cxx11::basic_string<char>, int>, std::allocator<std::pair<std::__cxx11::basic_string<char>, int>>>::_Vector_impl"* %6 to %"struct.std::_Vector_base<std::pair<std::__cxx11::basic_string<char>, int>, std::allocator<std::pair<std::__cxx11::basic_string<char>, int>>>::_Vector_impl_data"*, !llfi_index !995
  %8 = getelementptr inbounds %"struct.std::_Vector_base<std::pair<std::__cxx11::basic_string<char>, int>, std::allocator<std::pair<std::__cxx11::basic_string<char>, int>>>::_Vector_impl_data", %"struct.std::_Vector_base<std::pair<std::__cxx11::basic_string<char>, int>, std::allocator<std::pair<std::__cxx11::basic_string<char>, int>>>::_Vector_impl_data"* %7, i32 0, i32 0, !llfi_index !996
  %9 = load %"struct.std::pair"*, %"struct.std::pair"** %8, align 8, !llfi_index !997
  %10 = getelementptr inbounds %"struct.std::_Vector_base.4", %"struct.std::_Vector_base.4"* %5, i32 0, i32 0, !llfi_index !998
  %11 = bitcast %"struct.std::_Vector_base<std::pair<std::__cxx11::basic_string<char>, int>, std::allocator<std::pair<std::__cxx11::basic_string<char>, int>>>::_Vector_impl"* %10 to %"struct.std::_Vector_base<std::pair<std::__cxx11::basic_string<char>, int>, std::allocator<std::pair<std::__cxx11::basic_string<char>, int>>>::_Vector_impl_data"*, !llfi_index !999
  %12 = getelementptr inbounds %"struct.std::_Vector_base<std::pair<std::__cxx11::basic_string<char>, int>, std::allocator<std::pair<std::__cxx11::basic_string<char>, int>>>::_Vector_impl_data", %"struct.std::_Vector_base<std::pair<std::__cxx11::basic_string<char>, int>, std::allocator<std::pair<std::__cxx11::basic_string<char>, int>>>::_Vector_impl_data"* %11, i32 0, i32 2, !llfi_index !1000
  %13 = load %"struct.std::pair"*, %"struct.std::pair"** %12, align 8, !llfi_index !1001
  %14 = getelementptr inbounds %"struct.std::_Vector_base.4", %"struct.std::_Vector_base.4"* %5, i32 0, i32 0, !llfi_index !1002
  %15 = bitcast %"struct.std::_Vector_base<std::pair<std::__cxx11::basic_string<char>, int>, std::allocator<std::pair<std::__cxx11::basic_string<char>, int>>>::_Vector_impl"* %14 to %"struct.std::_Vector_base<std::pair<std::__cxx11::basic_string<char>, int>, std::allocator<std::pair<std::__cxx11::basic_string<char>, int>>>::_Vector_impl_data"*, !llfi_index !1003
  %16 = getelementptr inbounds %"struct.std::_Vector_base<std::pair<std::__cxx11::basic_string<char>, int>, std::allocator<std::pair<std::__cxx11::basic_string<char>, int>>>::_Vector_impl_data", %"struct.std::_Vector_base<std::pair<std::__cxx11::basic_string<char>, int>, std::allocator<std::pair<std::__cxx11::basic_string<char>, int>>>::_Vector_impl_data"* %15, i32 0, i32 0, !llfi_index !1004
  %17 = load %"struct.std::pair"*, %"struct.std::pair"** %16, align 8, !llfi_index !1005
  %18 = ptrtoint %"struct.std::pair"* %13 to i64, !llfi_index !1006
  %19 = ptrtoint %"struct.std::pair"* %17 to i64, !llfi_index !1007
  %20 = sub i64 %18, %19, !llfi_index !1008
  %21 = sdiv exact i64 %20, 40, !llfi_index !1009
  invoke void @_ZNSt12_Vector_baseISt4pairINSt7__cxx1112basic_stringIcSt11char_traitsIcESaIcEEEiESaIS7_EE13_M_deallocateEPS7_m(%"struct.std::_Vector_base.4"* nonnull align 8 dereferenceable(24) %5, %"struct.std::pair"* %9, i64 %21)
          to label %22 unwind label %24, !llfi_index !1010

22:                                               ; preds = %1
  %23 = getelementptr inbounds %"struct.std::_Vector_base.4", %"struct.std::_Vector_base.4"* %5, i32 0, i32 0, !llfi_index !1011
  call void @_ZNSt12_Vector_baseISt4pairINSt7__cxx1112basic_stringIcSt11char_traitsIcESaIcEEEiESaIS7_EE12_Vector_implD2Ev(%"struct.std::_Vector_base<std::pair<std::__cxx11::basic_string<char>, int>, std::allocator<std::pair<std::__cxx11::basic_string<char>, int>>>::_Vector_impl"* nonnull align 8 dereferenceable(24) %23) #2, !llfi_index !1012
  ret void, !llfi_index !1013

24:                                               ; preds = %1
  %25 = landingpad { i8*, i32 }
          catch i8* null, !llfi_index !1014
  %26 = extractvalue { i8*, i32 } %25, 0, !llfi_index !1015
  store i8* %26, i8** %3, align 8, !llfi_index !1016
  %27 = extractvalue { i8*, i32 } %25, 1, !llfi_index !1017
  store i32 %27, i32* %4, align 4, !llfi_index !1018
  %28 = getelementptr inbounds %"struct.std::_Vector_base.4", %"struct.std::_Vector_base.4"* %5, i32 0, i32 0, !llfi_index !1019
  call void @_ZNSt12_Vector_baseISt4pairINSt7__cxx1112basic_stringIcSt11char_traitsIcESaIcEEEiESaIS7_EE12_Vector_implD2Ev(%"struct.std::_Vector_base<std::pair<std::__cxx11::basic_string<char>, int>, std::allocator<std::pair<std::__cxx11::basic_string<char>, int>>>::_Vector_impl"* nonnull align 8 dereferenceable(24) %28) #2, !llfi_index !1020
  br label %29, !llfi_index !1021

29:                                               ; preds = %24
  %30 = load i8*, i8** %3, align 8, !llfi_index !1022
  call void @__clang_call_terminate(i8* %30) #15, !llfi_index !1023
  unreachable, !llfi_index !1024
}

; Function Attrs: mustprogress noinline uwtable
define linkonce_odr dso_local void @_ZNSt12_Vector_baseISt4pairINSt7__cxx1112basic_stringIcSt11char_traitsIcESaIcEEEiESaIS7_EE13_M_deallocateEPS7_m(%"struct.std::_Vector_base.4"* nonnull align 8 dereferenceable(24) %0, %"struct.std::pair"* %1, i64 %2) #4 comdat align 2 {
  %4 = alloca %"struct.std::_Vector_base.4"*, align 8, !llfi_index !1025
  %5 = alloca %"struct.std::pair"*, align 8, !llfi_index !1026
  %6 = alloca i64, align 8, !llfi_index !1027
  store %"struct.std::_Vector_base.4"* %0, %"struct.std::_Vector_base.4"** %4, align 8, !llfi_index !1028
  store %"struct.std::pair"* %1, %"struct.std::pair"** %5, align 8, !llfi_index !1029
  store i64 %2, i64* %6, align 8, !llfi_index !1030
  %7 = load %"struct.std::_Vector_base.4"*, %"struct.std::_Vector_base.4"** %4, align 8, !llfi_index !1031
  %8 = load %"struct.std::pair"*, %"struct.std::pair"** %5, align 8, !llfi_index !1032
  %9 = icmp ne %"struct.std::pair"* %8, null, !llfi_index !1033
  br i1 %9, label %10, label %15, !llfi_index !1034

10:                                               ; preds = %3
  %11 = getelementptr inbounds %"struct.std::_Vector_base.4", %"struct.std::_Vector_base.4"* %7, i32 0, i32 0, !llfi_index !1035
  %12 = bitcast %"struct.std::_Vector_base<std::pair<std::__cxx11::basic_string<char>, int>, std::allocator<std::pair<std::__cxx11::basic_string<char>, int>>>::_Vector_impl"* %11 to %"class.std::ios_base::Init"*, !llfi_index !1036
  %13 = load %"struct.std::pair"*, %"struct.std::pair"** %5, align 8, !llfi_index !1037
  %14 = load i64, i64* %6, align 8, !llfi_index !1038
  call void @_ZNSt16allocator_traitsISaISt4pairINSt7__cxx1112basic_stringIcSt11char_traitsIcESaIcEEEiEEE10deallocateERS8_PS7_m(%"class.std::ios_base::Init"* nonnull align 1 dereferenceable(1) %12, %"struct.std::pair"* %13, i64 %14), !llfi_index !1039
  br label %15, !llfi_index !1040

15:                                               ; preds = %10, %3
  ret void, !llfi_index !1041
}

; Function Attrs: noinline nounwind uwtable
define linkonce_odr dso_local void @_ZNSt12_Vector_baseISt4pairINSt7__cxx1112basic_stringIcSt11char_traitsIcESaIcEEEiESaIS7_EE12_Vector_implD2Ev(%"struct.std::_Vector_base<std::pair<std::__cxx11::basic_string<char>, int>, std::allocator<std::pair<std::__cxx11::basic_string<char>, int>>>::_Vector_impl"* nonnull align 8 dereferenceable(24) %0) unnamed_addr #8 comdat align 2 {
  %2 = alloca %"struct.std::_Vector_base<std::pair<std::__cxx11::basic_string<char>, int>, std::allocator<std::pair<std::__cxx11::basic_string<char>, int>>>::_Vector_impl"*, align 8, !llfi_index !1042
  store %"struct.std::_Vector_base<std::pair<std::__cxx11::basic_string<char>, int>, std::allocator<std::pair<std::__cxx11::basic_string<char>, int>>>::_Vector_impl"* %0, %"struct.std::_Vector_base<std::pair<std::__cxx11::basic_string<char>, int>, std::allocator<std::pair<std::__cxx11::basic_string<char>, int>>>::_Vector_impl"** %2, align 8, !llfi_index !1043
  %3 = load %"struct.std::_Vector_base<std::pair<std::__cxx11::basic_string<char>, int>, std::allocator<std::pair<std::__cxx11::basic_string<char>, int>>>::_Vector_impl"*, %"struct.std::_Vector_base<std::pair<std::__cxx11::basic_string<char>, int>, std::allocator<std::pair<std::__cxx11::basic_string<char>, int>>>::_Vector_impl"** %2, align 8, !llfi_index !1044
  %4 = bitcast %"struct.std::_Vector_base<std::pair<std::__cxx11::basic_string<char>, int>, std::allocator<std::pair<std::__cxx11::basic_string<char>, int>>>::_Vector_impl"* %3 to %"class.std::ios_base::Init"*, !llfi_index !1045
  call void @_ZNSaISt4pairINSt7__cxx1112basic_stringIcSt11char_traitsIcESaIcEEEiEED2Ev(%"class.std::ios_base::Init"* nonnull align 1 dereferenceable(1) %4) #2, !llfi_index !1046
  ret void, !llfi_index !1047
}

; Function Attrs: noinline nounwind uwtable
define linkonce_odr dso_local void @_ZNSaISt4pairINSt7__cxx1112basic_stringIcSt11char_traitsIcESaIcEEEiEED2Ev(%"class.std::ios_base::Init"* nonnull align 1 dereferenceable(1) %0) unnamed_addr #8 comdat align 2 {
  %2 = alloca %"class.std::ios_base::Init"*, align 8, !llfi_index !1048
  store %"class.std::ios_base::Init"* %0, %"class.std::ios_base::Init"** %2, align 8, !llfi_index !1049
  %3 = load %"class.std::ios_base::Init"*, %"class.std::ios_base::Init"** %2, align 8, !llfi_index !1050
  %4 = bitcast %"class.std::ios_base::Init"* %3 to %"class.std::ios_base::Init"*, !llfi_index !1051
  call void @_ZN9__gnu_cxx13new_allocatorISt4pairINSt7__cxx1112basic_stringIcSt11char_traitsIcESaIcEEEiEED2Ev(%"class.std::ios_base::Init"* nonnull align 1 dereferenceable(1) %4) #2, !llfi_index !1052
  ret void, !llfi_index !1053
}

; Function Attrs: noinline nounwind uwtable
define linkonce_odr dso_local void @_ZN9__gnu_cxx13new_allocatorISt4pairINSt7__cxx1112basic_stringIcSt11char_traitsIcESaIcEEEiEED2Ev(%"class.std::ios_base::Init"* nonnull align 1 dereferenceable(1) %0) unnamed_addr #8 comdat align 2 {
  %2 = alloca %"class.std::ios_base::Init"*, align 8, !llfi_index !1054
  store %"class.std::ios_base::Init"* %0, %"class.std::ios_base::Init"** %2, align 8, !llfi_index !1055
  %3 = load %"class.std::ios_base::Init"*, %"class.std::ios_base::Init"** %2, align 8, !llfi_index !1056
  ret void, !llfi_index !1057
}

; Function Attrs: mustprogress noinline uwtable
define linkonce_odr dso_local void @_ZNSt16allocator_traitsISaISt4pairINSt7__cxx1112basic_stringIcSt11char_traitsIcESaIcEEEiEEE10deallocateERS8_PS7_m(%"class.std::ios_base::Init"* nonnull align 1 dereferenceable(1) %0, %"struct.std::pair"* %1, i64 %2) #4 comdat align 2 {
  %4 = alloca %"class.std::ios_base::Init"*, align 8, !llfi_index !1058
  %5 = alloca %"struct.std::pair"*, align 8, !llfi_index !1059
  %6 = alloca i64, align 8, !llfi_index !1060
  store %"class.std::ios_base::Init"* %0, %"class.std::ios_base::Init"** %4, align 8, !llfi_index !1061
  store %"struct.std::pair"* %1, %"struct.std::pair"** %5, align 8, !llfi_index !1062
  store i64 %2, i64* %6, align 8, !llfi_index !1063
  %7 = load %"class.std::ios_base::Init"*, %"class.std::ios_base::Init"** %4, align 8, !llfi_index !1064
  %8 = bitcast %"class.std::ios_base::Init"* %7 to %"class.std::ios_base::Init"*, !llfi_index !1065
  %9 = load %"struct.std::pair"*, %"struct.std::pair"** %5, align 8, !llfi_index !1066
  %10 = load i64, i64* %6, align 8, !llfi_index !1067
  call void @_ZN9__gnu_cxx13new_allocatorISt4pairINSt7__cxx1112basic_stringIcSt11char_traitsIcESaIcEEEiEE10deallocateEPS8_m(%"class.std::ios_base::Init"* nonnull align 1 dereferenceable(1) %8, %"struct.std::pair"* %9, i64 %10), !llfi_index !1068
  ret void, !llfi_index !1069
}

; Function Attrs: mustprogress noinline nounwind uwtable
define linkonce_odr dso_local void @_ZN9__gnu_cxx13new_allocatorISt4pairINSt7__cxx1112basic_stringIcSt11char_traitsIcESaIcEEEiEE10deallocateEPS8_m(%"class.std::ios_base::Init"* nonnull align 1 dereferenceable(1) %0, %"struct.std::pair"* %1, i64 %2) #5 comdat align 2 {
  %4 = alloca %"class.std::ios_base::Init"*, align 8, !llfi_index !1070
  %5 = alloca %"struct.std::pair"*, align 8, !llfi_index !1071
  %6 = alloca i64, align 8, !llfi_index !1072
  store %"class.std::ios_base::Init"* %0, %"class.std::ios_base::Init"** %4, align 8, !llfi_index !1073
  store %"struct.std::pair"* %1, %"struct.std::pair"** %5, align 8, !llfi_index !1074
  store i64 %2, i64* %6, align 8, !llfi_index !1075
  %7 = load %"class.std::ios_base::Init"*, %"class.std::ios_base::Init"** %4, align 8, !llfi_index !1076
  %8 = load %"struct.std::pair"*, %"struct.std::pair"** %5, align 8, !llfi_index !1077
  %9 = bitcast %"struct.std::pair"* %8 to i8*, !llfi_index !1078
  call void @_ZdlPv(i8* %9) #2, !llfi_index !1079
  ret void, !llfi_index !1080
}

; Function Attrs: mustprogress noinline uwtable
define linkonce_odr dso_local void @_ZSt8_DestroyIPSt4pairINSt7__cxx1112basic_stringIcSt11char_traitsIcESaIcEEEiEEvT_S9_(%"struct.std::pair"* %0, %"struct.std::pair"* %1) #4 comdat {
  %3 = alloca %"struct.std::pair"*, align 8, !llfi_index !1081
  %4 = alloca %"struct.std::pair"*, align 8, !llfi_index !1082
  store %"struct.std::pair"* %0, %"struct.std::pair"** %3, align 8, !llfi_index !1083
  store %"struct.std::pair"* %1, %"struct.std::pair"** %4, align 8, !llfi_index !1084
  %5 = load %"struct.std::pair"*, %"struct.std::pair"** %3, align 8, !llfi_index !1085
  %6 = load %"struct.std::pair"*, %"struct.std::pair"** %4, align 8, !llfi_index !1086
  call void @_ZNSt12_Destroy_auxILb0EE9__destroyIPSt4pairINSt7__cxx1112basic_stringIcSt11char_traitsIcESaIcEEEiEEEvT_SB_(%"struct.std::pair"* %5, %"struct.std::pair"* %6), !llfi_index !1087
  ret void, !llfi_index !1088
}

; Function Attrs: mustprogress noinline uwtable
define linkonce_odr dso_local void @_ZNSt12_Destroy_auxILb0EE9__destroyIPSt4pairINSt7__cxx1112basic_stringIcSt11char_traitsIcESaIcEEEiEEEvT_SB_(%"struct.std::pair"* %0, %"struct.std::pair"* %1) #4 comdat align 2 {
  %3 = alloca %"struct.std::pair"*, align 8, !llfi_index !1089
  %4 = alloca %"struct.std::pair"*, align 8, !llfi_index !1090
  store %"struct.std::pair"* %0, %"struct.std::pair"** %3, align 8, !llfi_index !1091
  store %"struct.std::pair"* %1, %"struct.std::pair"** %4, align 8, !llfi_index !1092
  br label %5, !llfi_index !1093

5:                                                ; preds = %12, %2
  %6 = load %"struct.std::pair"*, %"struct.std::pair"** %3, align 8, !llfi_index !1094
  %7 = load %"struct.std::pair"*, %"struct.std::pair"** %4, align 8, !llfi_index !1095
  %8 = icmp ne %"struct.std::pair"* %6, %7, !llfi_index !1096
  br i1 %8, label %9, label %15, !llfi_index !1097

9:                                                ; preds = %5
  %10 = load %"struct.std::pair"*, %"struct.std::pair"** %3, align 8, !llfi_index !1098
  %11 = call %"struct.std::pair"* @_ZSt11__addressofISt4pairINSt7__cxx1112basic_stringIcSt11char_traitsIcESaIcEEEiEEPT_RS8_(%"struct.std::pair"* nonnull align 8 dereferenceable(36) %10) #2, !llfi_index !1099
  call void @_ZSt8_DestroyISt4pairINSt7__cxx1112basic_stringIcSt11char_traitsIcESaIcEEEiEEvPT_(%"struct.std::pair"* %11), !llfi_index !1100
  br label %12, !llfi_index !1101

12:                                               ; preds = %9
  %13 = load %"struct.std::pair"*, %"struct.std::pair"** %3, align 8, !llfi_index !1102
  %14 = getelementptr inbounds %"struct.std::pair", %"struct.std::pair"* %13, i32 1, !llfi_index !1103
  store %"struct.std::pair"* %14, %"struct.std::pair"** %3, align 8, !llfi_index !1104
  br label %5, !llvm.loop !1105, !llfi_index !1106

15:                                               ; preds = %5
  ret void, !llfi_index !1107
}

; Function Attrs: mustprogress noinline nounwind uwtable
define linkonce_odr dso_local %"struct.std::pair"* @_ZSt11__addressofISt4pairINSt7__cxx1112basic_stringIcSt11char_traitsIcESaIcEEEiEEPT_RS8_(%"struct.std::pair"* nonnull align 8 dereferenceable(36) %0) #5 comdat {
  %2 = alloca %"struct.std::pair"*, align 8, !llfi_index !1108
  store %"struct.std::pair"* %0, %"struct.std::pair"** %2, align 8, !llfi_index !1109
  %3 = load %"struct.std::pair"*, %"struct.std::pair"** %2, align 8, !llfi_index !1110
  ret %"struct.std::pair"* %3, !llfi_index !1111
}

; Function Attrs: mustprogress noinline nounwind uwtable
define linkonce_odr dso_local void @_ZSt8_DestroyISt4pairINSt7__cxx1112basic_stringIcSt11char_traitsIcESaIcEEEiEEvPT_(%"struct.std::pair"* %0) #5 comdat {
  %2 = alloca %"struct.std::pair"*, align 8, !llfi_index !1112
  store %"struct.std::pair"* %0, %"struct.std::pair"** %2, align 8, !llfi_index !1113
  %3 = load %"struct.std::pair"*, %"struct.std::pair"** %2, align 8, !llfi_index !1114
  call void @_ZNSt4pairINSt7__cxx1112basic_stringIcSt11char_traitsIcESaIcEEEiED2Ev(%"struct.std::pair"* nonnull align 8 dereferenceable(36) %3) #2, !llfi_index !1115
  ret void, !llfi_index !1116
}

; Function Attrs: argmemonly nofree nounwind willreturn
declare void @llvm.memcpy.p0i8.p0i8.i64(i8* noalias nocapture writeonly, i8* noalias nocapture readonly, i64, i1 immarg) #11

; Function Attrs: mustprogress noinline nounwind uwtable
define linkonce_odr dso_local void @_ZN9__gnu_cxx5__ops16__iter_less_iterEv() #5 comdat {
  ret void, !llfi_index !1117
}

; Function Attrs: mustprogress noinline uwtable
define linkonce_odr dso_local void @_ZSt6__sortIN9__gnu_cxx17__normal_iteratorIPSt4pairINSt7__cxx1112basic_stringIcSt11char_traitsIcESaIcEEEiESt6vectorIS9_SaIS9_EEEENS0_5__ops15_Iter_less_iterEEvT_SH_T0_(%"struct.std::pair"* %0, %"struct.std::pair"* %1) #4 comdat {
  %3 = alloca %"class.__gnu_cxx::__normal_iterator", align 8, !llfi_index !1118
  %4 = alloca %"class.__gnu_cxx::__normal_iterator", align 8, !llfi_index !1119
  %5 = alloca %"class.std::ios_base::Init", align 1, !llfi_index !1120
  %6 = alloca %"class.__gnu_cxx::__normal_iterator", align 8, !llfi_index !1121
  %7 = alloca %"class.__gnu_cxx::__normal_iterator", align 8, !llfi_index !1122
  %8 = alloca %"class.std::ios_base::Init", align 1, !llfi_index !1123
  %9 = alloca %"class.__gnu_cxx::__normal_iterator", align 8, !llfi_index !1124
  %10 = alloca %"class.__gnu_cxx::__normal_iterator", align 8, !llfi_index !1125
  %11 = alloca %"class.std::ios_base::Init", align 1, !llfi_index !1126
  %12 = getelementptr inbounds %"class.__gnu_cxx::__normal_iterator", %"class.__gnu_cxx::__normal_iterator"* %3, i32 0, i32 0, !llfi_index !1127
  store %"struct.std::pair"* %0, %"struct.std::pair"** %12, align 8, !llfi_index !1128
  %13 = getelementptr inbounds %"class.__gnu_cxx::__normal_iterator", %"class.__gnu_cxx::__normal_iterator"* %4, i32 0, i32 0, !llfi_index !1129
  store %"struct.std::pair"* %1, %"struct.std::pair"** %13, align 8, !llfi_index !1130
  %14 = call zeroext i1 @_ZN9__gnu_cxxneIPSt4pairINSt7__cxx1112basic_stringIcSt11char_traitsIcESaIcEEEiESt6vectorIS8_SaIS8_EEEEbRKNS_17__normal_iteratorIT_T0_EESI_(%"class.__gnu_cxx::__normal_iterator"* nonnull align 8 dereferenceable(8) %3, %"class.__gnu_cxx::__normal_iterator"* nonnull align 8 dereferenceable(8) %4) #2, !llfi_index !1131
  br i1 %14, label %15, label %35, !llfi_index !1132

15:                                               ; preds = %2
  %16 = bitcast %"class.__gnu_cxx::__normal_iterator"* %6 to i8*, !llfi_index !1133
  %17 = bitcast %"class.__gnu_cxx::__normal_iterator"* %3 to i8*, !llfi_index !1134
  call void @llvm.memcpy.p0i8.p0i8.i64(i8* align 8 %16, i8* align 8 %17, i64 8, i1 false), !llfi_index !1135
  %18 = bitcast %"class.__gnu_cxx::__normal_iterator"* %7 to i8*, !llfi_index !1136
  %19 = bitcast %"class.__gnu_cxx::__normal_iterator"* %4 to i8*, !llfi_index !1137
  call void @llvm.memcpy.p0i8.p0i8.i64(i8* align 8 %18, i8* align 8 %19, i64 8, i1 false), !llfi_index !1138
  %20 = call i64 @_ZN9__gnu_cxxmiIPSt4pairINSt7__cxx1112basic_stringIcSt11char_traitsIcESaIcEEEiESt6vectorIS8_SaIS8_EEEENS_17__normal_iteratorIT_T0_E15difference_typeERKSG_SJ_(%"class.__gnu_cxx::__normal_iterator"* nonnull align 8 dereferenceable(8) %4, %"class.__gnu_cxx::__normal_iterator"* nonnull align 8 dereferenceable(8) %3) #2, !llfi_index !1139
  %21 = call i64 @_ZSt4__lgl(i64 %20), !llfi_index !1140
  %22 = mul nsw i64 %21, 2, !llfi_index !1141
  %23 = getelementptr inbounds %"class.__gnu_cxx::__normal_iterator", %"class.__gnu_cxx::__normal_iterator"* %6, i32 0, i32 0, !llfi_index !1142
  %24 = load %"struct.std::pair"*, %"struct.std::pair"** %23, align 8, !llfi_index !1143
  %25 = getelementptr inbounds %"class.__gnu_cxx::__normal_iterator", %"class.__gnu_cxx::__normal_iterator"* %7, i32 0, i32 0, !llfi_index !1144
  %26 = load %"struct.std::pair"*, %"struct.std::pair"** %25, align 8, !llfi_index !1145
  call void @_ZSt16__introsort_loopIN9__gnu_cxx17__normal_iteratorIPSt4pairINSt7__cxx1112basic_stringIcSt11char_traitsIcESaIcEEEiESt6vectorIS9_SaIS9_EEEElNS0_5__ops15_Iter_less_iterEEvT_SH_T0_T1_(%"struct.std::pair"* %24, %"struct.std::pair"* %26, i64 %22), !llfi_index !1146
  %27 = bitcast %"class.__gnu_cxx::__normal_iterator"* %9 to i8*, !llfi_index !1147
  %28 = bitcast %"class.__gnu_cxx::__normal_iterator"* %3 to i8*, !llfi_index !1148
  call void @llvm.memcpy.p0i8.p0i8.i64(i8* align 8 %27, i8* align 8 %28, i64 8, i1 false), !llfi_index !1149
  %29 = bitcast %"class.__gnu_cxx::__normal_iterator"* %10 to i8*, !llfi_index !1150
  %30 = bitcast %"class.__gnu_cxx::__normal_iterator"* %4 to i8*, !llfi_index !1151
  call void @llvm.memcpy.p0i8.p0i8.i64(i8* align 8 %29, i8* align 8 %30, i64 8, i1 false), !llfi_index !1152
  %31 = getelementptr inbounds %"class.__gnu_cxx::__normal_iterator", %"class.__gnu_cxx::__normal_iterator"* %9, i32 0, i32 0, !llfi_index !1153
  %32 = load %"struct.std::pair"*, %"struct.std::pair"** %31, align 8, !llfi_index !1154
  %33 = getelementptr inbounds %"class.__gnu_cxx::__normal_iterator", %"class.__gnu_cxx::__normal_iterator"* %10, i32 0, i32 0, !llfi_index !1155
  %34 = load %"struct.std::pair"*, %"struct.std::pair"** %33, align 8, !llfi_index !1156
  call void @_ZSt22__final_insertion_sortIN9__gnu_cxx17__normal_iteratorIPSt4pairINSt7__cxx1112basic_stringIcSt11char_traitsIcESaIcEEEiESt6vectorIS9_SaIS9_EEEENS0_5__ops15_Iter_less_iterEEvT_SH_T0_(%"struct.std::pair"* %32, %"struct.std::pair"* %34), !llfi_index !1157
  br label %35, !llfi_index !1158

35:                                               ; preds = %15, %2
  ret void, !llfi_index !1159
}

; Function Attrs: mustprogress noinline nounwind uwtable
define linkonce_odr dso_local zeroext i1 @_ZN9__gnu_cxxneIPSt4pairINSt7__cxx1112basic_stringIcSt11char_traitsIcESaIcEEEiESt6vectorIS8_SaIS8_EEEEbRKNS_17__normal_iteratorIT_T0_EESI_(%"class.__gnu_cxx::__normal_iterator"* nonnull align 8 dereferenceable(8) %0, %"class.__gnu_cxx::__normal_iterator"* nonnull align 8 dereferenceable(8) %1) #5 comdat {
  %3 = alloca %"class.__gnu_cxx::__normal_iterator"*, align 8, !llfi_index !1160
  %4 = alloca %"class.__gnu_cxx::__normal_iterator"*, align 8, !llfi_index !1161
  store %"class.__gnu_cxx::__normal_iterator"* %0, %"class.__gnu_cxx::__normal_iterator"** %3, align 8, !llfi_index !1162
  store %"class.__gnu_cxx::__normal_iterator"* %1, %"class.__gnu_cxx::__normal_iterator"** %4, align 8, !llfi_index !1163
  %5 = load %"class.__gnu_cxx::__normal_iterator"*, %"class.__gnu_cxx::__normal_iterator"** %3, align 8, !llfi_index !1164
  %6 = call nonnull align 8 dereferenceable(8) %"struct.std::pair"** @_ZNK9__gnu_cxx17__normal_iteratorIPSt4pairINSt7__cxx1112basic_stringIcSt11char_traitsIcESaIcEEEiESt6vectorIS8_SaIS8_EEE4baseEv(%"class.__gnu_cxx::__normal_iterator"* nonnull align 8 dereferenceable(8) %5) #2, !llfi_index !1165
  %7 = load %"struct.std::pair"*, %"struct.std::pair"** %6, align 8, !llfi_index !1166
  %8 = load %"class.__gnu_cxx::__normal_iterator"*, %"class.__gnu_cxx::__normal_iterator"** %4, align 8, !llfi_index !1167
  %9 = call nonnull align 8 dereferenceable(8) %"struct.std::pair"** @_ZNK9__gnu_cxx17__normal_iteratorIPSt4pairINSt7__cxx1112basic_stringIcSt11char_traitsIcESaIcEEEiESt6vectorIS8_SaIS8_EEE4baseEv(%"class.__gnu_cxx::__normal_iterator"* nonnull align 8 dereferenceable(8) %8) #2, !llfi_index !1168
  %10 = load %"struct.std::pair"*, %"struct.std::pair"** %9, align 8, !llfi_index !1169
  %11 = icmp ne %"struct.std::pair"* %7, %10, !llfi_index !1170
  ret i1 %11, !llfi_index !1171
}

; Function Attrs: mustprogress noinline nounwind uwtable
define linkonce_odr dso_local i64 @_ZN9__gnu_cxxmiIPSt4pairINSt7__cxx1112basic_stringIcSt11char_traitsIcESaIcEEEiESt6vectorIS8_SaIS8_EEEENS_17__normal_iteratorIT_T0_E15difference_typeERKSG_SJ_(%"class.__gnu_cxx::__normal_iterator"* nonnull align 8 dereferenceable(8) %0, %"class.__gnu_cxx::__normal_iterator"* nonnull align 8 dereferenceable(8) %1) #5 comdat {
  %3 = alloca %"class.__gnu_cxx::__normal_iterator"*, align 8, !llfi_index !1172
  %4 = alloca %"class.__gnu_cxx::__normal_iterator"*, align 8, !llfi_index !1173
  store %"class.__gnu_cxx::__normal_iterator"* %0, %"class.__gnu_cxx::__normal_iterator"** %3, align 8, !llfi_index !1174
  store %"class.__gnu_cxx::__normal_iterator"* %1, %"class.__gnu_cxx::__normal_iterator"** %4, align 8, !llfi_index !1175
  %5 = load %"class.__gnu_cxx::__normal_iterator"*, %"class.__gnu_cxx::__normal_iterator"** %3, align 8, !llfi_index !1176
  %6 = call nonnull align 8 dereferenceable(8) %"struct.std::pair"** @_ZNK9__gnu_cxx17__normal_iteratorIPSt4pairINSt7__cxx1112basic_stringIcSt11char_traitsIcESaIcEEEiESt6vectorIS8_SaIS8_EEE4baseEv(%"class.__gnu_cxx::__normal_iterator"* nonnull align 8 dereferenceable(8) %5) #2, !llfi_index !1177
  %7 = load %"struct.std::pair"*, %"struct.std::pair"** %6, align 8, !llfi_index !1178
  %8 = load %"class.__gnu_cxx::__normal_iterator"*, %"class.__gnu_cxx::__normal_iterator"** %4, align 8, !llfi_index !1179
  %9 = call nonnull align 8 dereferenceable(8) %"struct.std::pair"** @_ZNK9__gnu_cxx17__normal_iteratorIPSt4pairINSt7__cxx1112basic_stringIcSt11char_traitsIcESaIcEEEiESt6vectorIS8_SaIS8_EEE4baseEv(%"class.__gnu_cxx::__normal_iterator"* nonnull align 8 dereferenceable(8) %8) #2, !llfi_index !1180
  %10 = load %"struct.std::pair"*, %"struct.std::pair"** %9, align 8, !llfi_index !1181
  %11 = ptrtoint %"struct.std::pair"* %7 to i64, !llfi_index !1182
  %12 = ptrtoint %"struct.std::pair"* %10 to i64, !llfi_index !1183
  %13 = sub i64 %11, %12, !llfi_index !1184
  %14 = sdiv exact i64 %13, 40, !llfi_index !1185
  ret i64 %14, !llfi_index !1186
}

; Function Attrs: mustprogress noinline nounwind uwtable
define linkonce_odr dso_local i64 @_ZSt4__lgl(i64 %0) #5 comdat {
  %2 = alloca i64, align 8, !llfi_index !1187
  store i64 %0, i64* %2, align 8, !llfi_index !1188
  %3 = load i64, i64* %2, align 8, !llfi_index !1189
  %4 = call i64 @llvm.ctlz.i64(i64 %3, i1 true), !llfi_index !1190
  %5 = trunc i64 %4 to i32, !llfi_index !1191
  %6 = sub nsw i32 63, %5, !llfi_index !1192
  %7 = sext i32 %6 to i64, !llfi_index !1193
  ret i64 %7, !llfi_index !1194
}

; Function Attrs: mustprogress noinline uwtable
define linkonce_odr dso_local void @_ZSt16__introsort_loopIN9__gnu_cxx17__normal_iteratorIPSt4pairINSt7__cxx1112basic_stringIcSt11char_traitsIcESaIcEEEiESt6vectorIS9_SaIS9_EEEElNS0_5__ops15_Iter_less_iterEEvT_SH_T0_T1_(%"struct.std::pair"* %0, %"struct.std::pair"* %1, i64 %2) #4 comdat {
  %4 = alloca %"class.__gnu_cxx::__normal_iterator", align 8, !llfi_index !1195
  %5 = alloca %"class.__gnu_cxx::__normal_iterator", align 8, !llfi_index !1196
  %6 = alloca %"class.std::ios_base::Init", align 1, !llfi_index !1197
  %7 = alloca i64, align 8, !llfi_index !1198
  %8 = alloca %"class.__gnu_cxx::__normal_iterator", align 8, !llfi_index !1199
  %9 = alloca %"class.__gnu_cxx::__normal_iterator", align 8, !llfi_index !1200
  %10 = alloca %"class.__gnu_cxx::__normal_iterator", align 8, !llfi_index !1201
  %11 = alloca %"class.std::ios_base::Init", align 1, !llfi_index !1202
  %12 = alloca %"class.__gnu_cxx::__normal_iterator", align 8, !llfi_index !1203
  %13 = alloca %"class.__gnu_cxx::__normal_iterator", align 8, !llfi_index !1204
  %14 = alloca %"class.__gnu_cxx::__normal_iterator", align 8, !llfi_index !1205
  %15 = alloca %"class.std::ios_base::Init", align 1, !llfi_index !1206
  %16 = alloca %"class.__gnu_cxx::__normal_iterator", align 8, !llfi_index !1207
  %17 = alloca %"class.__gnu_cxx::__normal_iterator", align 8, !llfi_index !1208
  %18 = alloca %"class.std::ios_base::Init", align 1, !llfi_index !1209
  %19 = getelementptr inbounds %"class.__gnu_cxx::__normal_iterator", %"class.__gnu_cxx::__normal_iterator"* %4, i32 0, i32 0, !llfi_index !1210
  store %"struct.std::pair"* %0, %"struct.std::pair"** %19, align 8, !llfi_index !1211
  %20 = getelementptr inbounds %"class.__gnu_cxx::__normal_iterator", %"class.__gnu_cxx::__normal_iterator"* %5, i32 0, i32 0, !llfi_index !1212
  store %"struct.std::pair"* %1, %"struct.std::pair"** %20, align 8, !llfi_index !1213
  store i64 %2, i64* %7, align 8, !llfi_index !1214
  br label %21, !llfi_index !1215

21:                                               ; preds = %40, %3
  %22 = call i64 @_ZN9__gnu_cxxmiIPSt4pairINSt7__cxx1112basic_stringIcSt11char_traitsIcESaIcEEEiESt6vectorIS8_SaIS8_EEEENS_17__normal_iteratorIT_T0_E15difference_typeERKSG_SJ_(%"class.__gnu_cxx::__normal_iterator"* nonnull align 8 dereferenceable(8) %5, %"class.__gnu_cxx::__normal_iterator"* nonnull align 8 dereferenceable(8) %4) #2, !llfi_index !1216
  %23 = icmp sgt i64 %22, 16, !llfi_index !1217
  br i1 %23, label %24, label %64, !llfi_index !1218

24:                                               ; preds = %21
  %25 = load i64, i64* %7, align 8, !llfi_index !1219
  %26 = icmp eq i64 %25, 0, !llfi_index !1220
  br i1 %26, label %27, label %40, !llfi_index !1221

27:                                               ; preds = %24
  %28 = bitcast %"class.__gnu_cxx::__normal_iterator"* %8 to i8*, !llfi_index !1222
  %29 = bitcast %"class.__gnu_cxx::__normal_iterator"* %4 to i8*, !llfi_index !1223
  call void @llvm.memcpy.p0i8.p0i8.i64(i8* align 8 %28, i8* align 8 %29, i64 8, i1 false), !llfi_index !1224
  %30 = bitcast %"class.__gnu_cxx::__normal_iterator"* %9 to i8*, !llfi_index !1225
  %31 = bitcast %"class.__gnu_cxx::__normal_iterator"* %5 to i8*, !llfi_index !1226
  call void @llvm.memcpy.p0i8.p0i8.i64(i8* align 8 %30, i8* align 8 %31, i64 8, i1 false), !llfi_index !1227
  %32 = bitcast %"class.__gnu_cxx::__normal_iterator"* %10 to i8*, !llfi_index !1228
  %33 = bitcast %"class.__gnu_cxx::__normal_iterator"* %5 to i8*, !llfi_index !1229
  call void @llvm.memcpy.p0i8.p0i8.i64(i8* align 8 %32, i8* align 8 %33, i64 8, i1 false), !llfi_index !1230
  %34 = getelementptr inbounds %"class.__gnu_cxx::__normal_iterator", %"class.__gnu_cxx::__normal_iterator"* %8, i32 0, i32 0, !llfi_index !1231
  %35 = load %"struct.std::pair"*, %"struct.std::pair"** %34, align 8, !llfi_index !1232
  %36 = getelementptr inbounds %"class.__gnu_cxx::__normal_iterator", %"class.__gnu_cxx::__normal_iterator"* %9, i32 0, i32 0, !llfi_index !1233
  %37 = load %"struct.std::pair"*, %"struct.std::pair"** %36, align 8, !llfi_index !1234
  %38 = getelementptr inbounds %"class.__gnu_cxx::__normal_iterator", %"class.__gnu_cxx::__normal_iterator"* %10, i32 0, i32 0, !llfi_index !1235
  %39 = load %"struct.std::pair"*, %"struct.std::pair"** %38, align 8, !llfi_index !1236
  call void @_ZSt14__partial_sortIN9__gnu_cxx17__normal_iteratorIPSt4pairINSt7__cxx1112basic_stringIcSt11char_traitsIcESaIcEEEiESt6vectorIS9_SaIS9_EEEENS0_5__ops15_Iter_less_iterEEvT_SH_SH_T0_(%"struct.std::pair"* %35, %"struct.std::pair"* %37, %"struct.std::pair"* %39), !llfi_index !1237
  br label %64, !llfi_index !1238

40:                                               ; preds = %24
  %41 = load i64, i64* %7, align 8, !llfi_index !1239
  %42 = add nsw i64 %41, -1, !llfi_index !1240
  store i64 %42, i64* %7, align 8, !llfi_index !1241
  %43 = bitcast %"class.__gnu_cxx::__normal_iterator"* %13 to i8*, !llfi_index !1242
  %44 = bitcast %"class.__gnu_cxx::__normal_iterator"* %4 to i8*, !llfi_index !1243
  call void @llvm.memcpy.p0i8.p0i8.i64(i8* align 8 %43, i8* align 8 %44, i64 8, i1 false), !llfi_index !1244
  %45 = bitcast %"class.__gnu_cxx::__normal_iterator"* %14 to i8*, !llfi_index !1245
  %46 = bitcast %"class.__gnu_cxx::__normal_iterator"* %5 to i8*, !llfi_index !1246
  call void @llvm.memcpy.p0i8.p0i8.i64(i8* align 8 %45, i8* align 8 %46, i64 8, i1 false), !llfi_index !1247
  %47 = getelementptr inbounds %"class.__gnu_cxx::__normal_iterator", %"class.__gnu_cxx::__normal_iterator"* %13, i32 0, i32 0, !llfi_index !1248
  %48 = load %"struct.std::pair"*, %"struct.std::pair"** %47, align 8, !llfi_index !1249
  %49 = getelementptr inbounds %"class.__gnu_cxx::__normal_iterator", %"class.__gnu_cxx::__normal_iterator"* %14, i32 0, i32 0, !llfi_index !1250
  %50 = load %"struct.std::pair"*, %"struct.std::pair"** %49, align 8, !llfi_index !1251
  %51 = call %"struct.std::pair"* @_ZSt27__unguarded_partition_pivotIN9__gnu_cxx17__normal_iteratorIPSt4pairINSt7__cxx1112basic_stringIcSt11char_traitsIcESaIcEEEiESt6vectorIS9_SaIS9_EEEENS0_5__ops15_Iter_less_iterEET_SH_SH_T0_(%"struct.std::pair"* %48, %"struct.std::pair"* %50), !llfi_index !1252
  %52 = getelementptr inbounds %"class.__gnu_cxx::__normal_iterator", %"class.__gnu_cxx::__normal_iterator"* %12, i32 0, i32 0, !llfi_index !1253
  store %"struct.std::pair"* %51, %"struct.std::pair"** %52, align 8, !llfi_index !1254
  %53 = bitcast %"class.__gnu_cxx::__normal_iterator"* %16 to i8*, !llfi_index !1255
  %54 = bitcast %"class.__gnu_cxx::__normal_iterator"* %12 to i8*, !llfi_index !1256
  call void @llvm.memcpy.p0i8.p0i8.i64(i8* align 8 %53, i8* align 8 %54, i64 8, i1 false), !llfi_index !1257
  %55 = bitcast %"class.__gnu_cxx::__normal_iterator"* %17 to i8*, !llfi_index !1258
  %56 = bitcast %"class.__gnu_cxx::__normal_iterator"* %5 to i8*, !llfi_index !1259
  call void @llvm.memcpy.p0i8.p0i8.i64(i8* align 8 %55, i8* align 8 %56, i64 8, i1 false), !llfi_index !1260
  %57 = load i64, i64* %7, align 8, !llfi_index !1261
  %58 = getelementptr inbounds %"class.__gnu_cxx::__normal_iterator", %"class.__gnu_cxx::__normal_iterator"* %16, i32 0, i32 0, !llfi_index !1262
  %59 = load %"struct.std::pair"*, %"struct.std::pair"** %58, align 8, !llfi_index !1263
  %60 = getelementptr inbounds %"class.__gnu_cxx::__normal_iterator", %"class.__gnu_cxx::__normal_iterator"* %17, i32 0, i32 0, !llfi_index !1264
  %61 = load %"struct.std::pair"*, %"struct.std::pair"** %60, align 8, !llfi_index !1265
  call void @_ZSt16__introsort_loopIN9__gnu_cxx17__normal_iteratorIPSt4pairINSt7__cxx1112basic_stringIcSt11char_traitsIcESaIcEEEiESt6vectorIS9_SaIS9_EEEElNS0_5__ops15_Iter_less_iterEEvT_SH_T0_T1_(%"struct.std::pair"* %59, %"struct.std::pair"* %61, i64 %57), !llfi_index !1266
  %62 = bitcast %"class.__gnu_cxx::__normal_iterator"* %5 to i8*, !llfi_index !1267
  %63 = bitcast %"class.__gnu_cxx::__normal_iterator"* %12 to i8*, !llfi_index !1268
  call void @llvm.memcpy.p0i8.p0i8.i64(i8* align 8 %62, i8* align 8 %63, i64 8, i1 false), !llfi_index !1269
  br label %21, !llvm.loop !1270, !llfi_index !1271

64:                                               ; preds = %27, %21
  ret void, !llfi_index !1272
}

; Function Attrs: mustprogress noinline uwtable
define linkonce_odr dso_local void @_ZSt22__final_insertion_sortIN9__gnu_cxx17__normal_iteratorIPSt4pairINSt7__cxx1112basic_stringIcSt11char_traitsIcESaIcEEEiESt6vectorIS9_SaIS9_EEEENS0_5__ops15_Iter_less_iterEEvT_SH_T0_(%"struct.std::pair"* %0, %"struct.std::pair"* %1) #4 comdat {
  %3 = alloca %"class.__gnu_cxx::__normal_iterator", align 8, !llfi_index !1273
  %4 = alloca %"class.__gnu_cxx::__normal_iterator", align 8, !llfi_index !1274
  %5 = alloca %"class.std::ios_base::Init", align 1, !llfi_index !1275
  %6 = alloca %"class.__gnu_cxx::__normal_iterator", align 8, !llfi_index !1276
  %7 = alloca %"class.__gnu_cxx::__normal_iterator", align 8, !llfi_index !1277
  %8 = alloca %"class.std::ios_base::Init", align 1, !llfi_index !1278
  %9 = alloca %"class.__gnu_cxx::__normal_iterator", align 8, !llfi_index !1279
  %10 = alloca %"class.__gnu_cxx::__normal_iterator", align 8, !llfi_index !1280
  %11 = alloca %"class.std::ios_base::Init", align 1, !llfi_index !1281
  %12 = alloca %"class.__gnu_cxx::__normal_iterator", align 8, !llfi_index !1282
  %13 = alloca %"class.__gnu_cxx::__normal_iterator", align 8, !llfi_index !1283
  %14 = alloca %"class.std::ios_base::Init", align 1, !llfi_index !1284
  %15 = getelementptr inbounds %"class.__gnu_cxx::__normal_iterator", %"class.__gnu_cxx::__normal_iterator"* %3, i32 0, i32 0, !llfi_index !1285
  store %"struct.std::pair"* %0, %"struct.std::pair"** %15, align 8, !llfi_index !1286
  %16 = getelementptr inbounds %"class.__gnu_cxx::__normal_iterator", %"class.__gnu_cxx::__normal_iterator"* %4, i32 0, i32 0, !llfi_index !1287
  store %"struct.std::pair"* %1, %"struct.std::pair"** %16, align 8, !llfi_index !1288
  %17 = call i64 @_ZN9__gnu_cxxmiIPSt4pairINSt7__cxx1112basic_stringIcSt11char_traitsIcESaIcEEEiESt6vectorIS8_SaIS8_EEEENS_17__normal_iteratorIT_T0_E15difference_typeERKSG_SJ_(%"class.__gnu_cxx::__normal_iterator"* nonnull align 8 dereferenceable(8) %4, %"class.__gnu_cxx::__normal_iterator"* nonnull align 8 dereferenceable(8) %3) #2, !llfi_index !1289
  %18 = icmp sgt i64 %17, 16, !llfi_index !1290
  br i1 %18, label %19, label %36, !llfi_index !1291

19:                                               ; preds = %2
  %20 = bitcast %"class.__gnu_cxx::__normal_iterator"* %6 to i8*, !llfi_index !1292
  %21 = bitcast %"class.__gnu_cxx::__normal_iterator"* %3 to i8*, !llfi_index !1293
  call void @llvm.memcpy.p0i8.p0i8.i64(i8* align 8 %20, i8* align 8 %21, i64 8, i1 false), !llfi_index !1294
  %22 = call %"struct.std::pair"* @_ZNK9__gnu_cxx17__normal_iteratorIPSt4pairINSt7__cxx1112basic_stringIcSt11char_traitsIcESaIcEEEiESt6vectorIS8_SaIS8_EEEplEl(%"class.__gnu_cxx::__normal_iterator"* nonnull align 8 dereferenceable(8) %3, i64 16) #2, !llfi_index !1295
  %23 = getelementptr inbounds %"class.__gnu_cxx::__normal_iterator", %"class.__gnu_cxx::__normal_iterator"* %7, i32 0, i32 0, !llfi_index !1296
  store %"struct.std::pair"* %22, %"struct.std::pair"** %23, align 8, !llfi_index !1297
  %24 = getelementptr inbounds %"class.__gnu_cxx::__normal_iterator", %"class.__gnu_cxx::__normal_iterator"* %6, i32 0, i32 0, !llfi_index !1298
  %25 = load %"struct.std::pair"*, %"struct.std::pair"** %24, align 8, !llfi_index !1299
  %26 = getelementptr inbounds %"class.__gnu_cxx::__normal_iterator", %"class.__gnu_cxx::__normal_iterator"* %7, i32 0, i32 0, !llfi_index !1300
  %27 = load %"struct.std::pair"*, %"struct.std::pair"** %26, align 8, !llfi_index !1301
  call void @_ZSt16__insertion_sortIN9__gnu_cxx17__normal_iteratorIPSt4pairINSt7__cxx1112basic_stringIcSt11char_traitsIcESaIcEEEiESt6vectorIS9_SaIS9_EEEENS0_5__ops15_Iter_less_iterEEvT_SH_T0_(%"struct.std::pair"* %25, %"struct.std::pair"* %27), !llfi_index !1302
  %28 = call %"struct.std::pair"* @_ZNK9__gnu_cxx17__normal_iteratorIPSt4pairINSt7__cxx1112basic_stringIcSt11char_traitsIcESaIcEEEiESt6vectorIS8_SaIS8_EEEplEl(%"class.__gnu_cxx::__normal_iterator"* nonnull align 8 dereferenceable(8) %3, i64 16) #2, !llfi_index !1303
  %29 = getelementptr inbounds %"class.__gnu_cxx::__normal_iterator", %"class.__gnu_cxx::__normal_iterator"* %9, i32 0, i32 0, !llfi_index !1304
  store %"struct.std::pair"* %28, %"struct.std::pair"** %29, align 8, !llfi_index !1305
  %30 = bitcast %"class.__gnu_cxx::__normal_iterator"* %10 to i8*, !llfi_index !1306
  %31 = bitcast %"class.__gnu_cxx::__normal_iterator"* %4 to i8*, !llfi_index !1307
  call void @llvm.memcpy.p0i8.p0i8.i64(i8* align 8 %30, i8* align 8 %31, i64 8, i1 false), !llfi_index !1308
  %32 = getelementptr inbounds %"class.__gnu_cxx::__normal_iterator", %"class.__gnu_cxx::__normal_iterator"* %9, i32 0, i32 0, !llfi_index !1309
  %33 = load %"struct.std::pair"*, %"struct.std::pair"** %32, align 8, !llfi_index !1310
  %34 = getelementptr inbounds %"class.__gnu_cxx::__normal_iterator", %"class.__gnu_cxx::__normal_iterator"* %10, i32 0, i32 0, !llfi_index !1311
  %35 = load %"struct.std::pair"*, %"struct.std::pair"** %34, align 8, !llfi_index !1312
  call void @_ZSt26__unguarded_insertion_sortIN9__gnu_cxx17__normal_iteratorIPSt4pairINSt7__cxx1112basic_stringIcSt11char_traitsIcESaIcEEEiESt6vectorIS9_SaIS9_EEEENS0_5__ops15_Iter_less_iterEEvT_SH_T0_(%"struct.std::pair"* %33, %"struct.std::pair"* %35), !llfi_index !1313
  br label %45, !llfi_index !1314

36:                                               ; preds = %2
  %37 = bitcast %"class.__gnu_cxx::__normal_iterator"* %12 to i8*, !llfi_index !1315
  %38 = bitcast %"class.__gnu_cxx::__normal_iterator"* %3 to i8*, !llfi_index !1316
  call void @llvm.memcpy.p0i8.p0i8.i64(i8* align 8 %37, i8* align 8 %38, i64 8, i1 false), !llfi_index !1317
  %39 = bitcast %"class.__gnu_cxx::__normal_iterator"* %13 to i8*, !llfi_index !1318
  %40 = bitcast %"class.__gnu_cxx::__normal_iterator"* %4 to i8*, !llfi_index !1319
  call void @llvm.memcpy.p0i8.p0i8.i64(i8* align 8 %39, i8* align 8 %40, i64 8, i1 false), !llfi_index !1320
  %41 = getelementptr inbounds %"class.__gnu_cxx::__normal_iterator", %"class.__gnu_cxx::__normal_iterator"* %12, i32 0, i32 0, !llfi_index !1321
  %42 = load %"struct.std::pair"*, %"struct.std::pair"** %41, align 8, !llfi_index !1322
  %43 = getelementptr inbounds %"class.__gnu_cxx::__normal_iterator", %"class.__gnu_cxx::__normal_iterator"* %13, i32 0, i32 0, !llfi_index !1323
  %44 = load %"struct.std::pair"*, %"struct.std::pair"** %43, align 8, !llfi_index !1324
  call void @_ZSt16__insertion_sortIN9__gnu_cxx17__normal_iteratorIPSt4pairINSt7__cxx1112basic_stringIcSt11char_traitsIcESaIcEEEiESt6vectorIS9_SaIS9_EEEENS0_5__ops15_Iter_less_iterEEvT_SH_T0_(%"struct.std::pair"* %42, %"struct.std::pair"* %44), !llfi_index !1325
  br label %45, !llfi_index !1326

45:                                               ; preds = %36, %19
  ret void, !llfi_index !1327
}

; Function Attrs: mustprogress noinline nounwind uwtable
define linkonce_odr dso_local %"struct.std::pair"* @_ZNK9__gnu_cxx17__normal_iteratorIPSt4pairINSt7__cxx1112basic_stringIcSt11char_traitsIcESaIcEEEiESt6vectorIS8_SaIS8_EEEplEl(%"class.__gnu_cxx::__normal_iterator"* nonnull align 8 dereferenceable(8) %0, i64 %1) #5 comdat align 2 {
  %3 = alloca %"class.__gnu_cxx::__normal_iterator", align 8, !llfi_index !1328
  %4 = alloca %"class.__gnu_cxx::__normal_iterator"*, align 8, !llfi_index !1329
  %5 = alloca i64, align 8, !llfi_index !1330
  %6 = alloca %"struct.std::pair"*, align 8, !llfi_index !1331
  store %"class.__gnu_cxx::__normal_iterator"* %0, %"class.__gnu_cxx::__normal_iterator"** %4, align 8, !llfi_index !1332
  store i64 %1, i64* %5, align 8, !llfi_index !1333
  %7 = load %"class.__gnu_cxx::__normal_iterator"*, %"class.__gnu_cxx::__normal_iterator"** %4, align 8, !llfi_index !1334
  %8 = getelementptr inbounds %"class.__gnu_cxx::__normal_iterator", %"class.__gnu_cxx::__normal_iterator"* %7, i32 0, i32 0, !llfi_index !1335
  %9 = load %"struct.std::pair"*, %"struct.std::pair"** %8, align 8, !llfi_index !1336
  %10 = load i64, i64* %5, align 8, !llfi_index !1337
  %11 = getelementptr inbounds %"struct.std::pair", %"struct.std::pair"* %9, i64 %10, !llfi_index !1338
  store %"struct.std::pair"* %11, %"struct.std::pair"** %6, align 8, !llfi_index !1339
  call void @_ZN9__gnu_cxx17__normal_iteratorIPSt4pairINSt7__cxx1112basic_stringIcSt11char_traitsIcESaIcEEEiESt6vectorIS8_SaIS8_EEEC2ERKS9_(%"class.__gnu_cxx::__normal_iterator"* nonnull align 8 dereferenceable(8) %3, %"struct.std::pair"** nonnull align 8 dereferenceable(8) %6) #2, !llfi_index !1340
  %12 = getelementptr inbounds %"class.__gnu_cxx::__normal_iterator", %"class.__gnu_cxx::__normal_iterator"* %3, i32 0, i32 0, !llfi_index !1341
  %13 = load %"struct.std::pair"*, %"struct.std::pair"** %12, align 8, !llfi_index !1342
  ret %"struct.std::pair"* %13, !llfi_index !1343
}

; Function Attrs: mustprogress noinline uwtable
define linkonce_odr dso_local void @_ZSt16__insertion_sortIN9__gnu_cxx17__normal_iteratorIPSt4pairINSt7__cxx1112basic_stringIcSt11char_traitsIcESaIcEEEiESt6vectorIS9_SaIS9_EEEENS0_5__ops15_Iter_less_iterEEvT_SH_T0_(%"struct.std::pair"* %0, %"struct.std::pair"* %1) #4 comdat personality i8* bitcast (i32 (...)* @__gxx_personality_v0 to i8*) {
  %3 = alloca %"class.__gnu_cxx::__normal_iterator", align 8, !llfi_index !1344
  %4 = alloca %"class.__gnu_cxx::__normal_iterator", align 8, !llfi_index !1345
  %5 = alloca %"class.std::ios_base::Init", align 1, !llfi_index !1346
  %6 = alloca %"class.__gnu_cxx::__normal_iterator", align 8, !llfi_index !1347
  %7 = alloca %"class.__gnu_cxx::__normal_iterator", align 8, !llfi_index !1348
  %8 = alloca %"class.__gnu_cxx::__normal_iterator", align 8, !llfi_index !1349
  %9 = alloca %"struct.std::pair", align 8, !llfi_index !1350
  %10 = alloca %"class.__gnu_cxx::__normal_iterator", align 8, !llfi_index !1351
  %11 = alloca %"class.__gnu_cxx::__normal_iterator", align 8, !llfi_index !1352
  %12 = alloca %"class.__gnu_cxx::__normal_iterator", align 8, !llfi_index !1353
  %13 = alloca i8*, align 8, !llfi_index !1354
  %14 = alloca i32, align 4, !llfi_index !1355
  %15 = alloca %"class.__gnu_cxx::__normal_iterator", align 8, !llfi_index !1356
  %16 = alloca %"class.__gnu_cxx::__normal_iterator", align 8, !llfi_index !1357
  %17 = alloca %"class.std::ios_base::Init", align 1, !llfi_index !1358
  %18 = alloca %"class.std::ios_base::Init", align 1, !llfi_index !1359
  %19 = alloca %"class.std::ios_base::Init", align 1, !llfi_index !1360
  %20 = getelementptr inbounds %"class.__gnu_cxx::__normal_iterator", %"class.__gnu_cxx::__normal_iterator"* %3, i32 0, i32 0, !llfi_index !1361
  store %"struct.std::pair"* %0, %"struct.std::pair"** %20, align 8, !llfi_index !1362
  %21 = getelementptr inbounds %"class.__gnu_cxx::__normal_iterator", %"class.__gnu_cxx::__normal_iterator"* %4, i32 0, i32 0, !llfi_index !1363
  store %"struct.std::pair"* %1, %"struct.std::pair"** %21, align 8, !llfi_index !1364
  %22 = call zeroext i1 @_ZN9__gnu_cxxeqIPSt4pairINSt7__cxx1112basic_stringIcSt11char_traitsIcESaIcEEEiESt6vectorIS8_SaIS8_EEEEbRKNS_17__normal_iteratorIT_T0_EESI_(%"class.__gnu_cxx::__normal_iterator"* nonnull align 8 dereferenceable(8) %3, %"class.__gnu_cxx::__normal_iterator"* nonnull align 8 dereferenceable(8) %4) #2, !llfi_index !1365
  br i1 %22, label %23, label %24, !llfi_index !1366

23:                                               ; preds = %2
  br label %72, !llfi_index !1367

24:                                               ; preds = %2
  %25 = call %"struct.std::pair"* @_ZNK9__gnu_cxx17__normal_iteratorIPSt4pairINSt7__cxx1112basic_stringIcSt11char_traitsIcESaIcEEEiESt6vectorIS8_SaIS8_EEEplEl(%"class.__gnu_cxx::__normal_iterator"* nonnull align 8 dereferenceable(8) %3, i64 1) #2, !llfi_index !1368
  %26 = getelementptr inbounds %"class.__gnu_cxx::__normal_iterator", %"class.__gnu_cxx::__normal_iterator"* %6, i32 0, i32 0, !llfi_index !1369
  store %"struct.std::pair"* %25, %"struct.std::pair"** %26, align 8, !llfi_index !1370
  br label %27, !llfi_index !1371

27:                                               ; preds = %70, %24
  %28 = call zeroext i1 @_ZN9__gnu_cxxneIPSt4pairINSt7__cxx1112basic_stringIcSt11char_traitsIcESaIcEEEiESt6vectorIS8_SaIS8_EEEEbRKNS_17__normal_iteratorIT_T0_EESI_(%"class.__gnu_cxx::__normal_iterator"* nonnull align 8 dereferenceable(8) %6, %"class.__gnu_cxx::__normal_iterator"* nonnull align 8 dereferenceable(8) %4) #2, !llfi_index !1372
  br i1 %28, label %29, label %72, !llfi_index !1373

29:                                               ; preds = %27
  %30 = bitcast %"class.__gnu_cxx::__normal_iterator"* %7 to i8*, !llfi_index !1374
  %31 = bitcast %"class.__gnu_cxx::__normal_iterator"* %6 to i8*, !llfi_index !1375
  call void @llvm.memcpy.p0i8.p0i8.i64(i8* align 8 %30, i8* align 8 %31, i64 8, i1 false), !llfi_index !1376
  %32 = bitcast %"class.__gnu_cxx::__normal_iterator"* %8 to i8*, !llfi_index !1377
  %33 = bitcast %"class.__gnu_cxx::__normal_iterator"* %3 to i8*, !llfi_index !1378
  call void @llvm.memcpy.p0i8.p0i8.i64(i8* align 8 %32, i8* align 8 %33, i64 8, i1 false), !llfi_index !1379
  %34 = getelementptr inbounds %"class.__gnu_cxx::__normal_iterator", %"class.__gnu_cxx::__normal_iterator"* %7, i32 0, i32 0, !llfi_index !1380
  %35 = load %"struct.std::pair"*, %"struct.std::pair"** %34, align 8, !llfi_index !1381
  %36 = getelementptr inbounds %"class.__gnu_cxx::__normal_iterator", %"class.__gnu_cxx::__normal_iterator"* %8, i32 0, i32 0, !llfi_index !1382
  %37 = load %"struct.std::pair"*, %"struct.std::pair"** %36, align 8, !llfi_index !1383
  %38 = call zeroext i1 @_ZNK9__gnu_cxx5__ops15_Iter_less_iterclINS_17__normal_iteratorIPSt4pairINSt7__cxx1112basic_stringIcSt11char_traitsIcESaIcEEEiESt6vectorISB_SaISB_EEEESG_EEbT_T0_(%"class.std::ios_base::Init"* nonnull align 1 dereferenceable(1) %5, %"struct.std::pair"* %35, %"struct.std::pair"* %37), !llfi_index !1384
  br i1 %38, label %39, label %64, !llfi_index !1385

39:                                               ; preds = %29
  %40 = call nonnull align 8 dereferenceable(36) %"struct.std::pair"* @_ZNK9__gnu_cxx17__normal_iteratorIPSt4pairINSt7__cxx1112basic_stringIcSt11char_traitsIcESaIcEEEiESt6vectorIS8_SaIS8_EEEdeEv(%"class.__gnu_cxx::__normal_iterator"* nonnull align 8 dereferenceable(8) %6) #2, !llfi_index !1386
  %41 = call nonnull align 8 dereferenceable(36) %"struct.std::pair"* @_ZSt4moveIRSt4pairINSt7__cxx1112basic_stringIcSt11char_traitsIcESaIcEEEiEEONSt16remove_referenceIT_E4typeEOSA_(%"struct.std::pair"* nonnull align 8 dereferenceable(36) %40) #2, !llfi_index !1387
  call void @_ZNSt4pairINSt7__cxx1112basic_stringIcSt11char_traitsIcESaIcEEEiEC2EOS6_(%"struct.std::pair"* nonnull align 8 dereferenceable(36) %9, %"struct.std::pair"* nonnull align 8 dereferenceable(36) %41) #2, !llfi_index !1388
  %42 = bitcast %"class.__gnu_cxx::__normal_iterator"* %10 to i8*, !llfi_index !1389
  %43 = bitcast %"class.__gnu_cxx::__normal_iterator"* %3 to i8*, !llfi_index !1390
  call void @llvm.memcpy.p0i8.p0i8.i64(i8* align 8 %42, i8* align 8 %43, i64 8, i1 false), !llfi_index !1391
  %44 = bitcast %"class.__gnu_cxx::__normal_iterator"* %11 to i8*, !llfi_index !1392
  %45 = bitcast %"class.__gnu_cxx::__normal_iterator"* %6 to i8*, !llfi_index !1393
  call void @llvm.memcpy.p0i8.p0i8.i64(i8* align 8 %44, i8* align 8 %45, i64 8, i1 false), !llfi_index !1394
  %46 = call %"struct.std::pair"* @_ZNK9__gnu_cxx17__normal_iteratorIPSt4pairINSt7__cxx1112basic_stringIcSt11char_traitsIcESaIcEEEiESt6vectorIS8_SaIS8_EEEplEl(%"class.__gnu_cxx::__normal_iterator"* nonnull align 8 dereferenceable(8) %6, i64 1) #2, !llfi_index !1395
  %47 = getelementptr inbounds %"class.__gnu_cxx::__normal_iterator", %"class.__gnu_cxx::__normal_iterator"* %12, i32 0, i32 0, !llfi_index !1396
  store %"struct.std::pair"* %46, %"struct.std::pair"** %47, align 8, !llfi_index !1397
  %48 = getelementptr inbounds %"class.__gnu_cxx::__normal_iterator", %"class.__gnu_cxx::__normal_iterator"* %10, i32 0, i32 0, !llfi_index !1398
  %49 = load %"struct.std::pair"*, %"struct.std::pair"** %48, align 8, !llfi_index !1399
  %50 = getelementptr inbounds %"class.__gnu_cxx::__normal_iterator", %"class.__gnu_cxx::__normal_iterator"* %11, i32 0, i32 0, !llfi_index !1400
  %51 = load %"struct.std::pair"*, %"struct.std::pair"** %50, align 8, !llfi_index !1401
  %52 = getelementptr inbounds %"class.__gnu_cxx::__normal_iterator", %"class.__gnu_cxx::__normal_iterator"* %12, i32 0, i32 0, !llfi_index !1402
  %53 = load %"struct.std::pair"*, %"struct.std::pair"** %52, align 8, !llfi_index !1403
  %54 = invoke %"struct.std::pair"* @_ZSt13move_backwardIN9__gnu_cxx17__normal_iteratorIPSt4pairINSt7__cxx1112basic_stringIcSt11char_traitsIcESaIcEEEiESt6vectorIS9_SaIS9_EEEESE_ET0_T_SG_SF_(%"struct.std::pair"* %49, %"struct.std::pair"* %51, %"struct.std::pair"* %53)
          to label %55 unwind label %60, !llfi_index !1404

55:                                               ; preds = %39
  %56 = getelementptr inbounds %"class.__gnu_cxx::__normal_iterator", %"class.__gnu_cxx::__normal_iterator"* %15, i32 0, i32 0, !llfi_index !1405
  store %"struct.std::pair"* %54, %"struct.std::pair"** %56, align 8, !llfi_index !1406
  %57 = call nonnull align 8 dereferenceable(36) %"struct.std::pair"* @_ZSt4moveIRSt4pairINSt7__cxx1112basic_stringIcSt11char_traitsIcESaIcEEEiEEONSt16remove_referenceIT_E4typeEOSA_(%"struct.std::pair"* nonnull align 8 dereferenceable(36) %9) #2, !llfi_index !1407
  %58 = call nonnull align 8 dereferenceable(36) %"struct.std::pair"* @_ZNK9__gnu_cxx17__normal_iteratorIPSt4pairINSt7__cxx1112basic_stringIcSt11char_traitsIcESaIcEEEiESt6vectorIS8_SaIS8_EEEdeEv(%"class.__gnu_cxx::__normal_iterator"* nonnull align 8 dereferenceable(8) %3) #2, !llfi_index !1408
  %59 = call nonnull align 8 dereferenceable(36) %"struct.std::pair"* @_ZNSt4pairINSt7__cxx1112basic_stringIcSt11char_traitsIcESaIcEEEiEaSEOS6_(%"struct.std::pair"* nonnull align 8 dereferenceable(36) %58, %"struct.std::pair"* nonnull align 8 dereferenceable(36) %57) #2, !llfi_index !1409
  call void @_ZNSt4pairINSt7__cxx1112basic_stringIcSt11char_traitsIcESaIcEEEiED2Ev(%"struct.std::pair"* nonnull align 8 dereferenceable(36) %9) #2, !llfi_index !1410
  br label %69, !llfi_index !1411

60:                                               ; preds = %39
  %61 = landingpad { i8*, i32 }
          cleanup, !llfi_index !1412
  %62 = extractvalue { i8*, i32 } %61, 0, !llfi_index !1413
  store i8* %62, i8** %13, align 8, !llfi_index !1414
  %63 = extractvalue { i8*, i32 } %61, 1, !llfi_index !1415
  store i32 %63, i32* %14, align 4, !llfi_index !1416
  call void @_ZNSt4pairINSt7__cxx1112basic_stringIcSt11char_traitsIcESaIcEEEiED2Ev(%"struct.std::pair"* nonnull align 8 dereferenceable(36) %9) #2, !llfi_index !1417
  br label %73, !llfi_index !1418

64:                                               ; preds = %29
  %65 = bitcast %"class.__gnu_cxx::__normal_iterator"* %16 to i8*, !llfi_index !1419
  %66 = bitcast %"class.__gnu_cxx::__normal_iterator"* %6 to i8*, !llfi_index !1420
  call void @llvm.memcpy.p0i8.p0i8.i64(i8* align 8 %65, i8* align 8 %66, i64 8, i1 false), !llfi_index !1421
  call void @_ZN9__gnu_cxx5__ops15__val_comp_iterENS0_15_Iter_less_iterE(), !llfi_index !1422
  %67 = getelementptr inbounds %"class.__gnu_cxx::__normal_iterator", %"class.__gnu_cxx::__normal_iterator"* %16, i32 0, i32 0, !llfi_index !1423
  %68 = load %"struct.std::pair"*, %"struct.std::pair"** %67, align 8, !llfi_index !1424
  call void @_ZSt25__unguarded_linear_insertIN9__gnu_cxx17__normal_iteratorIPSt4pairINSt7__cxx1112basic_stringIcSt11char_traitsIcESaIcEEEiESt6vectorIS9_SaIS9_EEEENS0_5__ops14_Val_less_iterEEvT_T0_(%"struct.std::pair"* %68), !llfi_index !1425
  br label %69, !llfi_index !1426

69:                                               ; preds = %64, %55
  br label %70, !llfi_index !1427

70:                                               ; preds = %69
  %71 = call nonnull align 8 dereferenceable(8) %"class.__gnu_cxx::__normal_iterator"* @_ZN9__gnu_cxx17__normal_iteratorIPSt4pairINSt7__cxx1112basic_stringIcSt11char_traitsIcESaIcEEEiESt6vectorIS8_SaIS8_EEEppEv(%"class.__gnu_cxx::__normal_iterator"* nonnull align 8 dereferenceable(8) %6) #2, !llfi_index !1428
  br label %27, !llvm.loop !1429, !llfi_index !1430

72:                                               ; preds = %27, %23
  ret void, !llfi_index !1431

73:                                               ; preds = %60
  %74 = load i8*, i8** %13, align 8, !llfi_index !1432
  %75 = load i32, i32* %14, align 4, !llfi_index !1433
  %76 = insertvalue { i8*, i32 } undef, i8* %74, 0, !llfi_index !1434
  %77 = insertvalue { i8*, i32 } %76, i32 %75, 1, !llfi_index !1435
  resume { i8*, i32 } %77, !llfi_index !1436
}

; Function Attrs: mustprogress noinline uwtable
define linkonce_odr dso_local void @_ZSt26__unguarded_insertion_sortIN9__gnu_cxx17__normal_iteratorIPSt4pairINSt7__cxx1112basic_stringIcSt11char_traitsIcESaIcEEEiESt6vectorIS9_SaIS9_EEEENS0_5__ops15_Iter_less_iterEEvT_SH_T0_(%"struct.std::pair"* %0, %"struct.std::pair"* %1) #4 comdat {
  %3 = alloca %"class.__gnu_cxx::__normal_iterator", align 8, !llfi_index !1437
  %4 = alloca %"class.__gnu_cxx::__normal_iterator", align 8, !llfi_index !1438
  %5 = alloca %"class.std::ios_base::Init", align 1, !llfi_index !1439
  %6 = alloca %"class.__gnu_cxx::__normal_iterator", align 8, !llfi_index !1440
  %7 = alloca %"class.__gnu_cxx::__normal_iterator", align 8, !llfi_index !1441
  %8 = alloca %"class.std::ios_base::Init", align 1, !llfi_index !1442
  %9 = alloca %"class.std::ios_base::Init", align 1, !llfi_index !1443
  %10 = alloca %"class.std::ios_base::Init", align 1, !llfi_index !1444
  %11 = getelementptr inbounds %"class.__gnu_cxx::__normal_iterator", %"class.__gnu_cxx::__normal_iterator"* %3, i32 0, i32 0, !llfi_index !1445
  store %"struct.std::pair"* %0, %"struct.std::pair"** %11, align 8, !llfi_index !1446
  %12 = getelementptr inbounds %"class.__gnu_cxx::__normal_iterator", %"class.__gnu_cxx::__normal_iterator"* %4, i32 0, i32 0, !llfi_index !1447
  store %"struct.std::pair"* %1, %"struct.std::pair"** %12, align 8, !llfi_index !1448
  %13 = bitcast %"class.__gnu_cxx::__normal_iterator"* %6 to i8*, !llfi_index !1449
  %14 = bitcast %"class.__gnu_cxx::__normal_iterator"* %3 to i8*, !llfi_index !1450
  call void @llvm.memcpy.p0i8.p0i8.i64(i8* align 8 %13, i8* align 8 %14, i64 8, i1 false), !llfi_index !1451
  br label %15, !llfi_index !1452

15:                                               ; preds = %22, %2
  %16 = call zeroext i1 @_ZN9__gnu_cxxneIPSt4pairINSt7__cxx1112basic_stringIcSt11char_traitsIcESaIcEEEiESt6vectorIS8_SaIS8_EEEEbRKNS_17__normal_iteratorIT_T0_EESI_(%"class.__gnu_cxx::__normal_iterator"* nonnull align 8 dereferenceable(8) %6, %"class.__gnu_cxx::__normal_iterator"* nonnull align 8 dereferenceable(8) %4) #2, !llfi_index !1453
  br i1 %16, label %17, label %24, !llfi_index !1454

17:                                               ; preds = %15
  %18 = bitcast %"class.__gnu_cxx::__normal_iterator"* %7 to i8*, !llfi_index !1455
  %19 = bitcast %"class.__gnu_cxx::__normal_iterator"* %6 to i8*, !llfi_index !1456
  call void @llvm.memcpy.p0i8.p0i8.i64(i8* align 8 %18, i8* align 8 %19, i64 8, i1 false), !llfi_index !1457
  call void @_ZN9__gnu_cxx5__ops15__val_comp_iterENS0_15_Iter_less_iterE(), !llfi_index !1458
  %20 = getelementptr inbounds %"class.__gnu_cxx::__normal_iterator", %"class.__gnu_cxx::__normal_iterator"* %7, i32 0, i32 0, !llfi_index !1459
  %21 = load %"struct.std::pair"*, %"struct.std::pair"** %20, align 8, !llfi_index !1460
  call void @_ZSt25__unguarded_linear_insertIN9__gnu_cxx17__normal_iteratorIPSt4pairINSt7__cxx1112basic_stringIcSt11char_traitsIcESaIcEEEiESt6vectorIS9_SaIS9_EEEENS0_5__ops14_Val_less_iterEEvT_T0_(%"struct.std::pair"* %21), !llfi_index !1461
  br label %22, !llfi_index !1462

22:                                               ; preds = %17
  %23 = call nonnull align 8 dereferenceable(8) %"class.__gnu_cxx::__normal_iterator"* @_ZN9__gnu_cxx17__normal_iteratorIPSt4pairINSt7__cxx1112basic_stringIcSt11char_traitsIcESaIcEEEiESt6vectorIS8_SaIS8_EEEppEv(%"class.__gnu_cxx::__normal_iterator"* nonnull align 8 dereferenceable(8) %6) #2, !llfi_index !1463
  br label %15, !llvm.loop !1464, !llfi_index !1465

24:                                               ; preds = %15
  ret void, !llfi_index !1466
}

; Function Attrs: mustprogress noinline nounwind uwtable
define linkonce_odr dso_local void @_ZN9__gnu_cxx5__ops15__val_comp_iterENS0_15_Iter_less_iterE() #5 comdat {
  %1 = alloca %"class.std::ios_base::Init", align 1, !llfi_index !1467
  ret void, !llfi_index !1468
}

; Function Attrs: mustprogress noinline uwtable
define linkonce_odr dso_local void @_ZSt25__unguarded_linear_insertIN9__gnu_cxx17__normal_iteratorIPSt4pairINSt7__cxx1112basic_stringIcSt11char_traitsIcESaIcEEEiESt6vectorIS9_SaIS9_EEEENS0_5__ops14_Val_less_iterEEvT_T0_(%"struct.std::pair"* %0) #4 comdat personality i8* bitcast (i32 (...)* @__gxx_personality_v0 to i8*) {
  %2 = alloca %"class.__gnu_cxx::__normal_iterator", align 8, !llfi_index !1469
  %3 = alloca %"class.std::ios_base::Init", align 1, !llfi_index !1470
  %4 = alloca %"struct.std::pair", align 8, !llfi_index !1471
  %5 = alloca %"class.__gnu_cxx::__normal_iterator", align 8, !llfi_index !1472
  %6 = alloca %"class.__gnu_cxx::__normal_iterator", align 8, !llfi_index !1473
  %7 = alloca i8*, align 8, !llfi_index !1474
  %8 = alloca i32, align 4, !llfi_index !1475
  %9 = getelementptr inbounds %"class.__gnu_cxx::__normal_iterator", %"class.__gnu_cxx::__normal_iterator"* %2, i32 0, i32 0, !llfi_index !1476
  store %"struct.std::pair"* %0, %"struct.std::pair"** %9, align 8, !llfi_index !1477
  %10 = call nonnull align 8 dereferenceable(36) %"struct.std::pair"* @_ZNK9__gnu_cxx17__normal_iteratorIPSt4pairINSt7__cxx1112basic_stringIcSt11char_traitsIcESaIcEEEiESt6vectorIS8_SaIS8_EEEdeEv(%"class.__gnu_cxx::__normal_iterator"* nonnull align 8 dereferenceable(8) %2) #2, !llfi_index !1478
  %11 = call nonnull align 8 dereferenceable(36) %"struct.std::pair"* @_ZSt4moveIRSt4pairINSt7__cxx1112basic_stringIcSt11char_traitsIcESaIcEEEiEEONSt16remove_referenceIT_E4typeEOSA_(%"struct.std::pair"* nonnull align 8 dereferenceable(36) %10) #2, !llfi_index !1479
  call void @_ZNSt4pairINSt7__cxx1112basic_stringIcSt11char_traitsIcESaIcEEEiEC2EOS6_(%"struct.std::pair"* nonnull align 8 dereferenceable(36) %4, %"struct.std::pair"* nonnull align 8 dereferenceable(36) %11) #2, !llfi_index !1480
  %12 = bitcast %"class.__gnu_cxx::__normal_iterator"* %5 to i8*, !llfi_index !1481
  %13 = bitcast %"class.__gnu_cxx::__normal_iterator"* %2 to i8*, !llfi_index !1482
  call void @llvm.memcpy.p0i8.p0i8.i64(i8* align 8 %12, i8* align 8 %13, i64 8, i1 false), !llfi_index !1483
  %14 = call nonnull align 8 dereferenceable(8) %"class.__gnu_cxx::__normal_iterator"* @_ZN9__gnu_cxx17__normal_iteratorIPSt4pairINSt7__cxx1112basic_stringIcSt11char_traitsIcESaIcEEEiESt6vectorIS8_SaIS8_EEEmmEv(%"class.__gnu_cxx::__normal_iterator"* nonnull align 8 dereferenceable(8) %5) #2, !llfi_index !1484
  br label %15, !llfi_index !1485

15:                                               ; preds = %22, %1
  %16 = bitcast %"class.__gnu_cxx::__normal_iterator"* %6 to i8*, !llfi_index !1486
  %17 = bitcast %"class.__gnu_cxx::__normal_iterator"* %5 to i8*, !llfi_index !1487
  call void @llvm.memcpy.p0i8.p0i8.i64(i8* align 8 %16, i8* align 8 %17, i64 8, i1 false), !llfi_index !1488
  %18 = getelementptr inbounds %"class.__gnu_cxx::__normal_iterator", %"class.__gnu_cxx::__normal_iterator"* %6, i32 0, i32 0, !llfi_index !1489
  %19 = load %"struct.std::pair"*, %"struct.std::pair"** %18, align 8, !llfi_index !1490
  %20 = invoke zeroext i1 @_ZNK9__gnu_cxx5__ops14_Val_less_iterclISt4pairINSt7__cxx1112basic_stringIcSt11char_traitsIcESaIcEEEiENS_17__normal_iteratorIPSA_St6vectorISA_SaISA_EEEEEEbRT_T0_(%"class.std::ios_base::Init"* nonnull align 1 dereferenceable(1) %3, %"struct.std::pair"* nonnull align 8 dereferenceable(36) %4, %"struct.std::pair"* %19)
          to label %21 unwind label %30, !llfi_index !1491

21:                                               ; preds = %15
  br i1 %20, label %22, label %34, !llfi_index !1492

22:                                               ; preds = %21
  %23 = call nonnull align 8 dereferenceable(36) %"struct.std::pair"* @_ZNK9__gnu_cxx17__normal_iteratorIPSt4pairINSt7__cxx1112basic_stringIcSt11char_traitsIcESaIcEEEiESt6vectorIS8_SaIS8_EEEdeEv(%"class.__gnu_cxx::__normal_iterator"* nonnull align 8 dereferenceable(8) %5) #2, !llfi_index !1493
  %24 = call nonnull align 8 dereferenceable(36) %"struct.std::pair"* @_ZSt4moveIRSt4pairINSt7__cxx1112basic_stringIcSt11char_traitsIcESaIcEEEiEEONSt16remove_referenceIT_E4typeEOSA_(%"struct.std::pair"* nonnull align 8 dereferenceable(36) %23) #2, !llfi_index !1494
  %25 = call nonnull align 8 dereferenceable(36) %"struct.std::pair"* @_ZNK9__gnu_cxx17__normal_iteratorIPSt4pairINSt7__cxx1112basic_stringIcSt11char_traitsIcESaIcEEEiESt6vectorIS8_SaIS8_EEEdeEv(%"class.__gnu_cxx::__normal_iterator"* nonnull align 8 dereferenceable(8) %2) #2, !llfi_index !1495
  %26 = call nonnull align 8 dereferenceable(36) %"struct.std::pair"* @_ZNSt4pairINSt7__cxx1112basic_stringIcSt11char_traitsIcESaIcEEEiEaSEOS6_(%"struct.std::pair"* nonnull align 8 dereferenceable(36) %25, %"struct.std::pair"* nonnull align 8 dereferenceable(36) %24) #2, !llfi_index !1496
  %27 = bitcast %"class.__gnu_cxx::__normal_iterator"* %2 to i8*, !llfi_index !1497
  %28 = bitcast %"class.__gnu_cxx::__normal_iterator"* %5 to i8*, !llfi_index !1498
  call void @llvm.memcpy.p0i8.p0i8.i64(i8* align 8 %27, i8* align 8 %28, i64 8, i1 false), !llfi_index !1499
  %29 = call nonnull align 8 dereferenceable(8) %"class.__gnu_cxx::__normal_iterator"* @_ZN9__gnu_cxx17__normal_iteratorIPSt4pairINSt7__cxx1112basic_stringIcSt11char_traitsIcESaIcEEEiESt6vectorIS8_SaIS8_EEEmmEv(%"class.__gnu_cxx::__normal_iterator"* nonnull align 8 dereferenceable(8) %5) #2, !llfi_index !1500
  br label %15, !llvm.loop !1501, !llfi_index !1502

30:                                               ; preds = %15
  %31 = landingpad { i8*, i32 }
          cleanup, !llfi_index !1503
  %32 = extractvalue { i8*, i32 } %31, 0, !llfi_index !1504
  store i8* %32, i8** %7, align 8, !llfi_index !1505
  %33 = extractvalue { i8*, i32 } %31, 1, !llfi_index !1506
  store i32 %33, i32* %8, align 4, !llfi_index !1507
  call void @_ZNSt4pairINSt7__cxx1112basic_stringIcSt11char_traitsIcESaIcEEEiED2Ev(%"struct.std::pair"* nonnull align 8 dereferenceable(36) %4) #2, !llfi_index !1508
  br label %38, !llfi_index !1509

34:                                               ; preds = %21
  %35 = call nonnull align 8 dereferenceable(36) %"struct.std::pair"* @_ZSt4moveIRSt4pairINSt7__cxx1112basic_stringIcSt11char_traitsIcESaIcEEEiEEONSt16remove_referenceIT_E4typeEOSA_(%"struct.std::pair"* nonnull align 8 dereferenceable(36) %4) #2, !llfi_index !1510
  %36 = call nonnull align 8 dereferenceable(36) %"struct.std::pair"* @_ZNK9__gnu_cxx17__normal_iteratorIPSt4pairINSt7__cxx1112basic_stringIcSt11char_traitsIcESaIcEEEiESt6vectorIS8_SaIS8_EEEdeEv(%"class.__gnu_cxx::__normal_iterator"* nonnull align 8 dereferenceable(8) %2) #2, !llfi_index !1511
  %37 = call nonnull align 8 dereferenceable(36) %"struct.std::pair"* @_ZNSt4pairINSt7__cxx1112basic_stringIcSt11char_traitsIcESaIcEEEiEaSEOS6_(%"struct.std::pair"* nonnull align 8 dereferenceable(36) %36, %"struct.std::pair"* nonnull align 8 dereferenceable(36) %35) #2, !llfi_index !1512
  call void @_ZNSt4pairINSt7__cxx1112basic_stringIcSt11char_traitsIcESaIcEEEiED2Ev(%"struct.std::pair"* nonnull align 8 dereferenceable(36) %4) #2, !llfi_index !1513
  ret void, !llfi_index !1514

38:                                               ; preds = %30
  %39 = load i8*, i8** %7, align 8, !llfi_index !1515
  %40 = load i32, i32* %8, align 4, !llfi_index !1516
  %41 = insertvalue { i8*, i32 } undef, i8* %39, 0, !llfi_index !1517
  %42 = insertvalue { i8*, i32 } %41, i32 %40, 1, !llfi_index !1518
  resume { i8*, i32 } %42, !llfi_index !1519
}

; Function Attrs: mustprogress noinline nounwind uwtable
define linkonce_odr dso_local nonnull align 8 dereferenceable(8) %"class.__gnu_cxx::__normal_iterator"* @_ZN9__gnu_cxx17__normal_iteratorIPSt4pairINSt7__cxx1112basic_stringIcSt11char_traitsIcESaIcEEEiESt6vectorIS8_SaIS8_EEEppEv(%"class.__gnu_cxx::__normal_iterator"* nonnull align 8 dereferenceable(8) %0) #5 comdat align 2 {
  %2 = alloca %"class.__gnu_cxx::__normal_iterator"*, align 8, !llfi_index !1520
  store %"class.__gnu_cxx::__normal_iterator"* %0, %"class.__gnu_cxx::__normal_iterator"** %2, align 8, !llfi_index !1521
  %3 = load %"class.__gnu_cxx::__normal_iterator"*, %"class.__gnu_cxx::__normal_iterator"** %2, align 8, !llfi_index !1522
  %4 = getelementptr inbounds %"class.__gnu_cxx::__normal_iterator", %"class.__gnu_cxx::__normal_iterator"* %3, i32 0, i32 0, !llfi_index !1523
  %5 = load %"struct.std::pair"*, %"struct.std::pair"** %4, align 8, !llfi_index !1524
  %6 = getelementptr inbounds %"struct.std::pair", %"struct.std::pair"* %5, i32 1, !llfi_index !1525
  store %"struct.std::pair"* %6, %"struct.std::pair"** %4, align 8, !llfi_index !1526
  ret %"class.__gnu_cxx::__normal_iterator"* %3, !llfi_index !1527
}

; Function Attrs: mustprogress noinline nounwind uwtable
define linkonce_odr dso_local nonnull align 8 dereferenceable(36) %"struct.std::pair"* @_ZNK9__gnu_cxx17__normal_iteratorIPSt4pairINSt7__cxx1112basic_stringIcSt11char_traitsIcESaIcEEEiESt6vectorIS8_SaIS8_EEEdeEv(%"class.__gnu_cxx::__normal_iterator"* nonnull align 8 dereferenceable(8) %0) #5 comdat align 2 {
  %2 = alloca %"class.__gnu_cxx::__normal_iterator"*, align 8, !llfi_index !1528
  store %"class.__gnu_cxx::__normal_iterator"* %0, %"class.__gnu_cxx::__normal_iterator"** %2, align 8, !llfi_index !1529
  %3 = load %"class.__gnu_cxx::__normal_iterator"*, %"class.__gnu_cxx::__normal_iterator"** %2, align 8, !llfi_index !1530
  %4 = getelementptr inbounds %"class.__gnu_cxx::__normal_iterator", %"class.__gnu_cxx::__normal_iterator"* %3, i32 0, i32 0, !llfi_index !1531
  %5 = load %"struct.std::pair"*, %"struct.std::pair"** %4, align 8, !llfi_index !1532
  ret %"struct.std::pair"* %5, !llfi_index !1533
}

; Function Attrs: mustprogress noinline nounwind uwtable
define linkonce_odr dso_local nonnull align 8 dereferenceable(36) %"struct.std::pair"* @_ZSt4moveIRSt4pairINSt7__cxx1112basic_stringIcSt11char_traitsIcESaIcEEEiEEONSt16remove_referenceIT_E4typeEOSA_(%"struct.std::pair"* nonnull align 8 dereferenceable(36) %0) #5 comdat {
  %2 = alloca %"struct.std::pair"*, align 8, !llfi_index !1534
  store %"struct.std::pair"* %0, %"struct.std::pair"** %2, align 8, !llfi_index !1535
  %3 = load %"struct.std::pair"*, %"struct.std::pair"** %2, align 8, !llfi_index !1536
  ret %"struct.std::pair"* %3, !llfi_index !1537
}

; Function Attrs: noinline nounwind uwtable
define linkonce_odr dso_local void @_ZNSt4pairINSt7__cxx1112basic_stringIcSt11char_traitsIcESaIcEEEiEC2EOS6_(%"struct.std::pair"* nonnull align 8 dereferenceable(36) %0, %"struct.std::pair"* nonnull align 8 dereferenceable(36) %1) unnamed_addr #8 comdat align 2 {
  %3 = alloca %"struct.std::pair"*, align 8, !llfi_index !1538
  %4 = alloca %"struct.std::pair"*, align 8, !llfi_index !1539
  store %"struct.std::pair"* %0, %"struct.std::pair"** %3, align 8, !llfi_index !1540
  store %"struct.std::pair"* %1, %"struct.std::pair"** %4, align 8, !llfi_index !1541
  %5 = load %"struct.std::pair"*, %"struct.std::pair"** %3, align 8, !llfi_index !1542
  %6 = bitcast %"struct.std::pair"* %5 to %"class.std::ios_base::Init"*, !llfi_index !1543
  %7 = load %"struct.std::pair"*, %"struct.std::pair"** %4, align 8, !llfi_index !1544
  %8 = bitcast %"struct.std::pair"* %7 to %"class.std::ios_base::Init"*, !llfi_index !1545
  %9 = getelementptr inbounds %"struct.std::pair", %"struct.std::pair"* %5, i32 0, i32 0, !llfi_index !1546
  %10 = load %"struct.std::pair"*, %"struct.std::pair"** %4, align 8, !llfi_index !1547
  %11 = getelementptr inbounds %"struct.std::pair", %"struct.std::pair"* %10, i32 0, i32 0, !llfi_index !1548
  call void @_ZNSt7__cxx1112basic_stringIcSt11char_traitsIcESaIcEEC1EOS4_(%"class.std::__cxx11::basic_string"* nonnull align 8 dereferenceable(32) %9, %"class.std::__cxx11::basic_string"* nonnull align 8 dereferenceable(32) %11) #2, !llfi_index !1549
  %12 = getelementptr inbounds %"struct.std::pair", %"struct.std::pair"* %5, i32 0, i32 1, !llfi_index !1550
  %13 = load %"struct.std::pair"*, %"struct.std::pair"** %4, align 8, !llfi_index !1551
  %14 = getelementptr inbounds %"struct.std::pair", %"struct.std::pair"* %13, i32 0, i32 1, !llfi_index !1552
  %15 = load i32, i32* %14, align 8, !llfi_index !1553
  store i32 %15, i32* %12, align 8, !llfi_index !1554
  ret void, !llfi_index !1555
}

; Function Attrs: mustprogress noinline nounwind uwtable
define linkonce_odr dso_local nonnull align 8 dereferenceable(8) %"class.__gnu_cxx::__normal_iterator"* @_ZN9__gnu_cxx17__normal_iteratorIPSt4pairINSt7__cxx1112basic_stringIcSt11char_traitsIcESaIcEEEiESt6vectorIS8_SaIS8_EEEmmEv(%"class.__gnu_cxx::__normal_iterator"* nonnull align 8 dereferenceable(8) %0) #5 comdat align 2 {
  %2 = alloca %"class.__gnu_cxx::__normal_iterator"*, align 8, !llfi_index !1556
  store %"class.__gnu_cxx::__normal_iterator"* %0, %"class.__gnu_cxx::__normal_iterator"** %2, align 8, !llfi_index !1557
  %3 = load %"class.__gnu_cxx::__normal_iterator"*, %"class.__gnu_cxx::__normal_iterator"** %2, align 8, !llfi_index !1558
  %4 = getelementptr inbounds %"class.__gnu_cxx::__normal_iterator", %"class.__gnu_cxx::__normal_iterator"* %3, i32 0, i32 0, !llfi_index !1559
  %5 = load %"struct.std::pair"*, %"struct.std::pair"** %4, align 8, !llfi_index !1560
  %6 = getelementptr inbounds %"struct.std::pair", %"struct.std::pair"* %5, i32 -1, !llfi_index !1561
  store %"struct.std::pair"* %6, %"struct.std::pair"** %4, align 8, !llfi_index !1562
  ret %"class.__gnu_cxx::__normal_iterator"* %3, !llfi_index !1563
}

; Function Attrs: mustprogress noinline nounwind uwtable
define linkonce_odr dso_local zeroext i1 @_ZNK9__gnu_cxx5__ops14_Val_less_iterclISt4pairINSt7__cxx1112basic_stringIcSt11char_traitsIcESaIcEEEiENS_17__normal_iteratorIPSA_St6vectorISA_SaISA_EEEEEEbRT_T0_(%"class.std::ios_base::Init"* nonnull align 1 dereferenceable(1) %0, %"struct.std::pair"* nonnull align 8 dereferenceable(36) %1, %"struct.std::pair"* %2) #5 comdat align 2 {
  %4 = alloca %"class.__gnu_cxx::__normal_iterator", align 8, !llfi_index !1564
  %5 = alloca %"class.std::ios_base::Init"*, align 8, !llfi_index !1565
  %6 = alloca %"struct.std::pair"*, align 8, !llfi_index !1566
  %7 = getelementptr inbounds %"class.__gnu_cxx::__normal_iterator", %"class.__gnu_cxx::__normal_iterator"* %4, i32 0, i32 0, !llfi_index !1567
  store %"struct.std::pair"* %2, %"struct.std::pair"** %7, align 8, !llfi_index !1568
  store %"class.std::ios_base::Init"* %0, %"class.std::ios_base::Init"** %5, align 8, !llfi_index !1569
  store %"struct.std::pair"* %1, %"struct.std::pair"** %6, align 8, !llfi_index !1570
  %8 = load %"class.std::ios_base::Init"*, %"class.std::ios_base::Init"** %5, align 8, !llfi_index !1571
  %9 = load %"struct.std::pair"*, %"struct.std::pair"** %6, align 8, !llfi_index !1572
  %10 = call nonnull align 8 dereferenceable(36) %"struct.std::pair"* @_ZNK9__gnu_cxx17__normal_iteratorIPSt4pairINSt7__cxx1112basic_stringIcSt11char_traitsIcESaIcEEEiESt6vectorIS8_SaIS8_EEEdeEv(%"class.__gnu_cxx::__normal_iterator"* nonnull align 8 dereferenceable(8) %4) #2, !llfi_index !1573
  %11 = call zeroext i1 @_ZStltINSt7__cxx1112basic_stringIcSt11char_traitsIcESaIcEEEiEbRKSt4pairIT_T0_ESB_(%"struct.std::pair"* nonnull align 8 dereferenceable(36) %9, %"struct.std::pair"* nonnull align 8 dereferenceable(36) %10), !llfi_index !1574
  ret i1 %11, !llfi_index !1575
}

; Function Attrs: mustprogress noinline nounwind uwtable
define linkonce_odr dso_local nonnull align 8 dereferenceable(36) %"struct.std::pair"* @_ZNSt4pairINSt7__cxx1112basic_stringIcSt11char_traitsIcESaIcEEEiEaSEOS6_(%"struct.std::pair"* nonnull align 8 dereferenceable(36) %0, %"struct.std::pair"* nonnull align 8 dereferenceable(36) %1) #5 comdat align 2 {
  %3 = alloca %"struct.std::pair"*, align 8, !llfi_index !1576
  %4 = alloca %"struct.std::pair"*, align 8, !llfi_index !1577
  store %"struct.std::pair"* %0, %"struct.std::pair"** %3, align 8, !llfi_index !1578
  store %"struct.std::pair"* %1, %"struct.std::pair"** %4, align 8, !llfi_index !1579
  %5 = load %"struct.std::pair"*, %"struct.std::pair"** %3, align 8, !llfi_index !1580
  %6 = load %"struct.std::pair"*, %"struct.std::pair"** %4, align 8, !llfi_index !1581
  %7 = getelementptr inbounds %"struct.std::pair", %"struct.std::pair"* %6, i32 0, i32 0, !llfi_index !1582
  %8 = call nonnull align 8 dereferenceable(32) %"class.std::__cxx11::basic_string"* @_ZSt7forwardINSt7__cxx1112basic_stringIcSt11char_traitsIcESaIcEEEEOT_RNSt16remove_referenceIS6_E4typeE(%"class.std::__cxx11::basic_string"* nonnull align 8 dereferenceable(32) %7) #2, !llfi_index !1583
  %9 = getelementptr inbounds %"struct.std::pair", %"struct.std::pair"* %5, i32 0, i32 0, !llfi_index !1584
  %10 = call nonnull align 8 dereferenceable(32) %"class.std::__cxx11::basic_string"* @_ZNSt7__cxx1112basic_stringIcSt11char_traitsIcESaIcEEaSEOS4_(%"class.std::__cxx11::basic_string"* nonnull align 8 dereferenceable(32) %9, %"class.std::__cxx11::basic_string"* nonnull align 8 dereferenceable(32) %8) #2, !llfi_index !1585
  %11 = load %"struct.std::pair"*, %"struct.std::pair"** %4, align 8, !llfi_index !1586
  %12 = getelementptr inbounds %"struct.std::pair", %"struct.std::pair"* %11, i32 0, i32 1, !llfi_index !1587
  %13 = call nonnull align 4 dereferenceable(4) i32* @_ZSt7forwardIiEOT_RNSt16remove_referenceIS0_E4typeE(i32* nonnull align 4 dereferenceable(4) %12) #2, !llfi_index !1588
  %14 = load i32, i32* %13, align 4, !llfi_index !1589
  %15 = getelementptr inbounds %"struct.std::pair", %"struct.std::pair"* %5, i32 0, i32 1, !llfi_index !1590
  store i32 %14, i32* %15, align 8, !llfi_index !1591
  ret %"struct.std::pair"* %5, !llfi_index !1592
}

; Function Attrs: mustprogress noinline nounwind uwtable
define linkonce_odr dso_local nonnull align 8 dereferenceable(32) %"class.std::__cxx11::basic_string"* @_ZSt7forwardINSt7__cxx1112basic_stringIcSt11char_traitsIcESaIcEEEEOT_RNSt16remove_referenceIS6_E4typeE(%"class.std::__cxx11::basic_string"* nonnull align 8 dereferenceable(32) %0) #5 comdat {
  %2 = alloca %"class.std::__cxx11::basic_string"*, align 8, !llfi_index !1593
  store %"class.std::__cxx11::basic_string"* %0, %"class.std::__cxx11::basic_string"** %2, align 8, !llfi_index !1594
  %3 = load %"class.std::__cxx11::basic_string"*, %"class.std::__cxx11::basic_string"** %2, align 8, !llfi_index !1595
  ret %"class.std::__cxx11::basic_string"* %3, !llfi_index !1596
}

; Function Attrs: mustprogress noinline nounwind uwtable
define linkonce_odr dso_local nonnull align 4 dereferenceable(4) i32* @_ZSt7forwardIiEOT_RNSt16remove_referenceIS0_E4typeE(i32* nonnull align 4 dereferenceable(4) %0) #5 comdat {
  %2 = alloca i32*, align 8, !llfi_index !1597
  store i32* %0, i32** %2, align 8, !llfi_index !1598
  %3 = load i32*, i32** %2, align 8, !llfi_index !1599
  ret i32* %3, !llfi_index !1600
}

; Function Attrs: mustprogress noinline nounwind uwtable
define linkonce_odr dso_local zeroext i1 @_ZStltINSt7__cxx1112basic_stringIcSt11char_traitsIcESaIcEEEiEbRKSt4pairIT_T0_ESB_(%"struct.std::pair"* nonnull align 8 dereferenceable(36) %0, %"struct.std::pair"* nonnull align 8 dereferenceable(36) %1) #5 comdat {
  %3 = alloca %"struct.std::pair"*, align 8, !llfi_index !1601
  %4 = alloca %"struct.std::pair"*, align 8, !llfi_index !1602
  store %"struct.std::pair"* %0, %"struct.std::pair"** %3, align 8, !llfi_index !1603
  store %"struct.std::pair"* %1, %"struct.std::pair"** %4, align 8, !llfi_index !1604
  %5 = load %"struct.std::pair"*, %"struct.std::pair"** %3, align 8, !llfi_index !1605
  %6 = getelementptr inbounds %"struct.std::pair", %"struct.std::pair"* %5, i32 0, i32 0, !llfi_index !1606
  %7 = load %"struct.std::pair"*, %"struct.std::pair"** %4, align 8, !llfi_index !1607
  %8 = getelementptr inbounds %"struct.std::pair", %"struct.std::pair"* %7, i32 0, i32 0, !llfi_index !1608
  %9 = call zeroext i1 @_ZStltIcSt11char_traitsIcESaIcEEbRKNSt7__cxx1112basic_stringIT_T0_T1_EESA_(%"class.std::__cxx11::basic_string"* nonnull align 8 dereferenceable(32) %6, %"class.std::__cxx11::basic_string"* nonnull align 8 dereferenceable(32) %8) #2, !llfi_index !1609
  br i1 %9, label %26, label %10, !llfi_index !1610

10:                                               ; preds = %2
  %11 = load %"struct.std::pair"*, %"struct.std::pair"** %4, align 8, !llfi_index !1611
  %12 = getelementptr inbounds %"struct.std::pair", %"struct.std::pair"* %11, i32 0, i32 0, !llfi_index !1612
  %13 = load %"struct.std::pair"*, %"struct.std::pair"** %3, align 8, !llfi_index !1613
  %14 = getelementptr inbounds %"struct.std::pair", %"struct.std::pair"* %13, i32 0, i32 0, !llfi_index !1614
  %15 = call zeroext i1 @_ZStltIcSt11char_traitsIcESaIcEEbRKNSt7__cxx1112basic_stringIT_T0_T1_EESA_(%"class.std::__cxx11::basic_string"* nonnull align 8 dereferenceable(32) %12, %"class.std::__cxx11::basic_string"* nonnull align 8 dereferenceable(32) %14) #2, !llfi_index !1615
  br i1 %15, label %24, label %16, !llfi_index !1616

16:                                               ; preds = %10
  %17 = load %"struct.std::pair"*, %"struct.std::pair"** %3, align 8, !llfi_index !1617
  %18 = getelementptr inbounds %"struct.std::pair", %"struct.std::pair"* %17, i32 0, i32 1, !llfi_index !1618
  %19 = load i32, i32* %18, align 8, !llfi_index !1619
  %20 = load %"struct.std::pair"*, %"struct.std::pair"** %4, align 8, !llfi_index !1620
  %21 = getelementptr inbounds %"struct.std::pair", %"struct.std::pair"* %20, i32 0, i32 1, !llfi_index !1621
  %22 = load i32, i32* %21, align 8, !llfi_index !1622
  %23 = icmp slt i32 %19, %22, !llfi_index !1623
  br label %24, !llfi_index !1624

24:                                               ; preds = %16, %10
  %25 = phi i1 [ false, %10 ], [ %23, %16 ], !llfi_index !1625
  br label %26, !llfi_index !1626

26:                                               ; preds = %24, %2
  %27 = phi i1 [ true, %2 ], [ %25, %24 ], !llfi_index !1627
  ret i1 %27, !llfi_index !1628
}

; Function Attrs: nounwind
declare dso_local void @_ZNSt7__cxx1112basic_stringIcSt11char_traitsIcESaIcEEC1EOS4_(%"class.std::__cxx11::basic_string"* nonnull align 8 dereferenceable(32), %"class.std::__cxx11::basic_string"* nonnull align 8 dereferenceable(32)) unnamed_addr #3

; Function Attrs: mustprogress noinline nounwind uwtable
define linkonce_odr dso_local zeroext i1 @_ZN9__gnu_cxxeqIPSt4pairINSt7__cxx1112basic_stringIcSt11char_traitsIcESaIcEEEiESt6vectorIS8_SaIS8_EEEEbRKNS_17__normal_iteratorIT_T0_EESI_(%"class.__gnu_cxx::__normal_iterator"* nonnull align 8 dereferenceable(8) %0, %"class.__gnu_cxx::__normal_iterator"* nonnull align 8 dereferenceable(8) %1) #5 comdat {
  %3 = alloca %"class.__gnu_cxx::__normal_iterator"*, align 8, !llfi_index !1629
  %4 = alloca %"class.__gnu_cxx::__normal_iterator"*, align 8, !llfi_index !1630
  store %"class.__gnu_cxx::__normal_iterator"* %0, %"class.__gnu_cxx::__normal_iterator"** %3, align 8, !llfi_index !1631
  store %"class.__gnu_cxx::__normal_iterator"* %1, %"class.__gnu_cxx::__normal_iterator"** %4, align 8, !llfi_index !1632
  %5 = load %"class.__gnu_cxx::__normal_iterator"*, %"class.__gnu_cxx::__normal_iterator"** %3, align 8, !llfi_index !1633
  %6 = call nonnull align 8 dereferenceable(8) %"struct.std::pair"** @_ZNK9__gnu_cxx17__normal_iteratorIPSt4pairINSt7__cxx1112basic_stringIcSt11char_traitsIcESaIcEEEiESt6vectorIS8_SaIS8_EEE4baseEv(%"class.__gnu_cxx::__normal_iterator"* nonnull align 8 dereferenceable(8) %5) #2, !llfi_index !1634
  %7 = load %"struct.std::pair"*, %"struct.std::pair"** %6, align 8, !llfi_index !1635
  %8 = load %"class.__gnu_cxx::__normal_iterator"*, %"class.__gnu_cxx::__normal_iterator"** %4, align 8, !llfi_index !1636
  %9 = call nonnull align 8 dereferenceable(8) %"struct.std::pair"** @_ZNK9__gnu_cxx17__normal_iteratorIPSt4pairINSt7__cxx1112basic_stringIcSt11char_traitsIcESaIcEEEiESt6vectorIS8_SaIS8_EEE4baseEv(%"class.__gnu_cxx::__normal_iterator"* nonnull align 8 dereferenceable(8) %8) #2, !llfi_index !1637
  %10 = load %"struct.std::pair"*, %"struct.std::pair"** %9, align 8, !llfi_index !1638
  %11 = icmp eq %"struct.std::pair"* %7, %10, !llfi_index !1639
  ret i1 %11, !llfi_index !1640
}

; Function Attrs: mustprogress noinline nounwind uwtable
define linkonce_odr dso_local zeroext i1 @_ZNK9__gnu_cxx5__ops15_Iter_less_iterclINS_17__normal_iteratorIPSt4pairINSt7__cxx1112basic_stringIcSt11char_traitsIcESaIcEEEiESt6vectorISB_SaISB_EEEESG_EEbT_T0_(%"class.std::ios_base::Init"* nonnull align 1 dereferenceable(1) %0, %"struct.std::pair"* %1, %"struct.std::pair"* %2) #5 comdat align 2 {
  %4 = alloca %"class.__gnu_cxx::__normal_iterator", align 8, !llfi_index !1641
  %5 = alloca %"class.__gnu_cxx::__normal_iterator", align 8, !llfi_index !1642
  %6 = alloca %"class.std::ios_base::Init"*, align 8, !llfi_index !1643
  %7 = getelementptr inbounds %"class.__gnu_cxx::__normal_iterator", %"class.__gnu_cxx::__normal_iterator"* %4, i32 0, i32 0, !llfi_index !1644
  store %"struct.std::pair"* %1, %"struct.std::pair"** %7, align 8, !llfi_index !1645
  %8 = getelementptr inbounds %"class.__gnu_cxx::__normal_iterator", %"class.__gnu_cxx::__normal_iterator"* %5, i32 0, i32 0, !llfi_index !1646
  store %"struct.std::pair"* %2, %"struct.std::pair"** %8, align 8, !llfi_index !1647
  store %"class.std::ios_base::Init"* %0, %"class.std::ios_base::Init"** %6, align 8, !llfi_index !1648
  %9 = load %"class.std::ios_base::Init"*, %"class.std::ios_base::Init"** %6, align 8, !llfi_index !1649
  %10 = call nonnull align 8 dereferenceable(36) %"struct.std::pair"* @_ZNK9__gnu_cxx17__normal_iteratorIPSt4pairINSt7__cxx1112basic_stringIcSt11char_traitsIcESaIcEEEiESt6vectorIS8_SaIS8_EEEdeEv(%"class.__gnu_cxx::__normal_iterator"* nonnull align 8 dereferenceable(8) %4) #2, !llfi_index !1650
  %11 = call nonnull align 8 dereferenceable(36) %"struct.std::pair"* @_ZNK9__gnu_cxx17__normal_iteratorIPSt4pairINSt7__cxx1112basic_stringIcSt11char_traitsIcESaIcEEEiESt6vectorIS8_SaIS8_EEEdeEv(%"class.__gnu_cxx::__normal_iterator"* nonnull align 8 dereferenceable(8) %5) #2, !llfi_index !1651
  %12 = call zeroext i1 @_ZStltINSt7__cxx1112basic_stringIcSt11char_traitsIcESaIcEEEiEbRKSt4pairIT_T0_ESB_(%"struct.std::pair"* nonnull align 8 dereferenceable(36) %10, %"struct.std::pair"* nonnull align 8 dereferenceable(36) %11), !llfi_index !1652
  ret i1 %12, !llfi_index !1653
}

; Function Attrs: mustprogress noinline uwtable
define linkonce_odr dso_local %"struct.std::pair"* @_ZSt13move_backwardIN9__gnu_cxx17__normal_iteratorIPSt4pairINSt7__cxx1112basic_stringIcSt11char_traitsIcESaIcEEEiESt6vectorIS9_SaIS9_EEEESE_ET0_T_SG_SF_(%"struct.std::pair"* %0, %"struct.std::pair"* %1, %"struct.std::pair"* %2) #4 comdat {
  %4 = alloca %"class.__gnu_cxx::__normal_iterator", align 8, !llfi_index !1654
  %5 = alloca %"class.__gnu_cxx::__normal_iterator", align 8, !llfi_index !1655
  %6 = alloca %"class.__gnu_cxx::__normal_iterator", align 8, !llfi_index !1656
  %7 = alloca %"class.__gnu_cxx::__normal_iterator", align 8, !llfi_index !1657
  %8 = alloca %"class.__gnu_cxx::__normal_iterator", align 8, !llfi_index !1658
  %9 = alloca %"class.__gnu_cxx::__normal_iterator", align 8, !llfi_index !1659
  %10 = alloca %"class.__gnu_cxx::__normal_iterator", align 8, !llfi_index !1660
  %11 = alloca %"class.__gnu_cxx::__normal_iterator", align 8, !llfi_index !1661
  %12 = alloca %"class.__gnu_cxx::__normal_iterator", align 8, !llfi_index !1662
  %13 = getelementptr inbounds %"class.__gnu_cxx::__normal_iterator", %"class.__gnu_cxx::__normal_iterator"* %5, i32 0, i32 0, !llfi_index !1663
  store %"struct.std::pair"* %0, %"struct.std::pair"** %13, align 8, !llfi_index !1664
  %14 = getelementptr inbounds %"class.__gnu_cxx::__normal_iterator", %"class.__gnu_cxx::__normal_iterator"* %6, i32 0, i32 0, !llfi_index !1665
