; ModuleID = '/home/hjiang/Computation-Kernel-Dataset/experiments/Fault_injection_0308_parall/O0/pangrams/pangrams.ll'
source_filename = "llvm-link"
target datalayout = "e-m:e-p270:32:32-p271:32:32-p272:64:64-i64:64-f80:128-n8:16:32:64-S128"
target triple = "x86_64-unknown-linux-gnu"

%"class.std::ios_base::Init" = type { i8 }
%struct._IO_FILE = type { i32, i8*, i8*, i8*, i8*, i8*, i8*, i8*, i8*, i8*, i8*, i8*, %struct._IO_marker*, %struct._IO_FILE*, i32, i32, i64, i16, i8, [1 x i8], i8*, i64, %struct._IO_codecvt*, %struct._IO_wide_data*, %struct._IO_FILE*, i8*, i64, i32, [20 x i8] }
%struct._IO_marker = type opaque
%struct._IO_codecvt = type opaque
%struct._IO_wide_data = type opaque
%"class.std::basic_istream" = type { i32 (...)**, i64, %"class.std::basic_ios" }
%"class.std::basic_ios" = type { %"class.std::ios_base", %"class.std::basic_ostream"*, i8, i8, %"class.std::basic_streambuf"*, %"class.std::ctype"*, %"class.std::num_put"*, %"class.std::num_put"* }
%"class.std::ios_base" = type { i32 (...)**, i64, i64, i32, i32, i32, %"struct.std::ios_base::_Callback_list"*, %"struct.std::ios_base::_Words", [8 x %"struct.std::ios_base::_Words"], i32, %"struct.std::ios_base::_Words"*, %"class.std::locale" }
%"struct.std::ios_base::_Callback_list" = type { %"struct.std::ios_base::_Callback_list"*, void (i32, %"class.std::ios_base"*, i32)*, i32, i32 }
%"struct.std::ios_base::_Words" = type { i8*, i64 }
%"class.std::locale" = type { %"class.std::locale::_Impl"* }
%"class.std::locale::_Impl" = type { i32, %"class.std::locale::facet"**, i64, %"class.std::locale::facet"**, i8** }
%"class.std::locale::facet" = type <{ i32 (...)**, i32, [4 x i8] }>
%"class.std::basic_ostream" = type { i32 (...)**, %"class.std::basic_ios" }
%"class.std::basic_streambuf" = type { i32 (...)**, i8*, i8*, i8*, i8*, i8*, i8*, %"class.std::locale" }
%"class.std::ctype" = type <{ %"class.std::locale::facet.base", [4 x i8], %struct.__locale_struct*, i8, [7 x i8], i32*, i32*, i16*, i8, [256 x i8], [256 x i8], i8, [6 x i8] }>
%"class.std::locale::facet.base" = type <{ i32 (...)**, i32 }>
%struct.__locale_struct = type { [13 x %struct.__locale_data*], i16*, i32*, i32*, [13 x i8*] }
%struct.__locale_data = type opaque
%"class.std::num_put" = type { %"class.std::locale::facet.base", [4 x i8] }
%"class.std::__cxx11::basic_string" = type { %"struct.std::__cxx11::basic_string<char>::_Alloc_hider", i64, %union.anon }
%"struct.std::__cxx11::basic_string<char>::_Alloc_hider" = type { i8* }
%union.anon = type { i64, [8 x i8] }
%"class.std::set" = type { %"class.std::_Rb_tree" }
%"class.std::_Rb_tree" = type { %"struct.std::_Rb_tree<int, int, std::_Identity<int>, std::less<int>>::_Rb_tree_impl" }
%"struct.std::_Rb_tree<int, int, std::_Identity<int>, std::less<int>>::_Rb_tree_impl" = type { %"struct.std::_Rb_tree_key_compare", %"struct.std::_Rb_tree_header" }
%"struct.std::_Rb_tree_key_compare" = type { %"class.std::ios_base::Init" }
%"struct.std::_Rb_tree_header" = type { %"struct.std::_Rb_tree_node_base", i64 }
%"struct.std::_Rb_tree_node_base" = type { i32, %"struct.std::_Rb_tree_node_base"*, %"struct.std::_Rb_tree_node_base"*, %"struct.std::_Rb_tree_node_base"* }
%"struct.std::pair" = type <{ %"struct.std::_Rb_tree_const_iterator", i8, [7 x i8] }>
%"struct.std::_Rb_tree_const_iterator" = type { %"struct.std::_Rb_tree_node_base"* }
%"struct.std::pair.10" = type { %"struct.std::_Rb_tree_const_iterator", %"struct.std::_Rb_tree_const_iterator" }
%"struct.std::_Rb_tree_node" = type <{ %"struct.std::_Rb_tree_node_base", %"struct.__gnu_cxx::__aligned_membuf", [4 x i8] }>
%"struct.__gnu_cxx::__aligned_membuf" = type { [4 x i8] }
%"struct.std::pair.7" = type { %"struct.std::_Rb_tree_node_base"*, %"struct.std::_Rb_tree_node_base"* }
%"struct.std::_Rb_tree<int, int, std::_Identity<int>, std::less<int>>::_Alloc_node" = type { %"class.std::_Rb_tree"* }

$_ZNSt3setIiSt4lessIiESaIiEEC2Ev = comdat any

$_ZNSt3setIiSt4lessIiESaIiEE6insertERKi = comdat any

$_ZNSt3setIiSt4lessIiESaIiEED2Ev = comdat any

$_ZNKSt3setIiSt4lessIiESaIiEE5emptyEv = comdat any

$_ZNSt3setIiSt4lessIiESaIiEE5eraseERKi = comdat any

$_ZNSt8_Rb_treeIiiSt9_IdentityIiESt4lessIiESaIiEE5eraseERKi = comdat any

$_ZNSt8_Rb_treeIiiSt9_IdentityIiESt4lessIiESaIiEE11equal_rangeERKi = comdat any

$_ZNKSt8_Rb_treeIiiSt9_IdentityIiESt4lessIiESaIiEE4sizeEv = comdat any

$_ZNSt23_Rb_tree_const_iteratorIiEC2ERKSt17_Rb_tree_iteratorIiE = comdat any

$_ZNSt8_Rb_treeIiiSt9_IdentityIiESt4lessIiESaIiEE12_M_erase_auxESt23_Rb_tree_const_iteratorIiES7_ = comdat any

$_ZNSt8_Rb_treeIiiSt9_IdentityIiESt4lessIiESaIiEE5beginEv = comdat any

$_ZSteqRKSt23_Rb_tree_const_iteratorIiES2_ = comdat any

$_ZNSt8_Rb_treeIiiSt9_IdentityIiESt4lessIiESaIiEE3endEv = comdat any

$_ZNSt8_Rb_treeIiiSt9_IdentityIiESt4lessIiESaIiEE5clearEv = comdat any

$_ZStneRKSt23_Rb_tree_const_iteratorIiES2_ = comdat any

$_ZNSt23_Rb_tree_const_iteratorIiEppEi = comdat any

$_ZNSt8_Rb_treeIiiSt9_IdentityIiESt4lessIiESaIiEE12_M_erase_auxESt23_Rb_tree_const_iteratorIiE = comdat any

$_ZNSt8_Rb_treeIiiSt9_IdentityIiESt4lessIiESaIiEE12_M_drop_nodeEPSt13_Rb_tree_nodeIiE = comdat any

$_ZNSt8_Rb_treeIiiSt9_IdentityIiESt4lessIiESaIiEE15_M_destroy_nodeEPSt13_Rb_tree_nodeIiE = comdat any

$_ZNSt8_Rb_treeIiiSt9_IdentityIiESt4lessIiESaIiEE11_M_put_nodeEPSt13_Rb_tree_nodeIiE = comdat any

$_ZNSt8_Rb_treeIiiSt9_IdentityIiESt4lessIiESaIiEE21_M_get_Node_allocatorEv = comdat any

$_ZNSt16allocator_traitsISaISt13_Rb_tree_nodeIiEEE10deallocateERS2_PS1_m = comdat any

$__clang_call_terminate = comdat any

$_ZN9__gnu_cxx13new_allocatorISt13_Rb_tree_nodeIiEE10deallocateEPS2_m = comdat any

$_ZNSt13_Rb_tree_nodeIiE9_M_valptrEv = comdat any

$_ZNSt16allocator_traitsISaISt13_Rb_tree_nodeIiEEE7destroyIiEEvRS2_PT_ = comdat any

$_ZN9__gnu_cxx13new_allocatorISt13_Rb_tree_nodeIiEE7destroyIiEEvPT_ = comdat any

$_ZN9__gnu_cxx16__aligned_membufIiE6_M_ptrEv = comdat any

$_ZN9__gnu_cxx16__aligned_membufIiE7_M_addrEv = comdat any

$_ZNSt8_Rb_treeIiiSt9_IdentityIiESt4lessIiESaIiEE8_M_beginEv = comdat any

$_ZNSt8_Rb_treeIiiSt9_IdentityIiESt4lessIiESaIiEE8_M_eraseEPSt13_Rb_tree_nodeIiE = comdat any

$_ZNSt15_Rb_tree_header8_M_resetEv = comdat any

$_ZNSt8_Rb_treeIiiSt9_IdentityIiESt4lessIiESaIiEE8_S_rightEPSt18_Rb_tree_node_base = comdat any

$_ZNSt8_Rb_treeIiiSt9_IdentityIiESt4lessIiESaIiEE7_S_leftEPSt18_Rb_tree_node_base = comdat any

$_ZNSt17_Rb_tree_iteratorIiEC2EPSt18_Rb_tree_node_base = comdat any

$_ZNSt8_Rb_treeIiiSt9_IdentityIiESt4lessIiESaIiEE6_M_endEv = comdat any

$_ZNSt8_Rb_treeIiiSt9_IdentityIiESt4lessIiESaIiEE6_S_keyEPKSt13_Rb_tree_nodeIiE = comdat any

$_ZNKSt4lessIiEclERKiS2_ = comdat any

$_ZNSt8_Rb_treeIiiSt9_IdentityIiESt4lessIiESaIiEE14_M_lower_boundEPSt13_Rb_tree_nodeIiEPSt18_Rb_tree_node_baseRKi = comdat any

$_ZNSt8_Rb_treeIiiSt9_IdentityIiESt4lessIiESaIiEE14_M_upper_boundEPSt13_Rb_tree_nodeIiEPSt18_Rb_tree_node_baseRKi = comdat any

$_ZNSt4pairISt17_Rb_tree_iteratorIiES1_EC2IS1_S1_Lb1EEEOT_OT0_ = comdat any

$_ZSt7forwardISt17_Rb_tree_iteratorIiEEOT_RNSt16remove_referenceIS2_E4typeE = comdat any

$_ZNKSt13_Rb_tree_nodeIiE9_M_valptrEv = comdat any

$_ZNKSt9_IdentityIiEclERKi = comdat any

$_ZNK9__gnu_cxx16__aligned_membufIiE6_M_ptrEv = comdat any

$_ZNK9__gnu_cxx16__aligned_membufIiE7_M_addrEv = comdat any

$_ZNKSt8_Rb_treeIiiSt9_IdentityIiESt4lessIiESaIiEE5emptyEv = comdat any

$_ZNSt8_Rb_treeIiiSt9_IdentityIiESt4lessIiESaIiEED2Ev = comdat any

$_ZNSt8_Rb_treeIiiSt9_IdentityIiESt4lessIiESaIiEE13_Rb_tree_implIS3_Lb1EED2Ev = comdat any

$_ZNSaISt13_Rb_tree_nodeIiEED2Ev = comdat any

$_ZN9__gnu_cxx13new_allocatorISt13_Rb_tree_nodeIiEED2Ev = comdat any

$_ZNSt8_Rb_treeIiiSt9_IdentityIiESt4lessIiESaIiEE16_M_insert_uniqueIRKiEESt4pairISt17_Rb_tree_iteratorIiEbEOT_ = comdat any

$_ZNSt4pairISt23_Rb_tree_const_iteratorIiEbEC2IRSt17_Rb_tree_iteratorIiERbLb1EEEOT_OT0_ = comdat any

$_ZSt7forwardIRSt17_Rb_tree_iteratorIiEEOT_RNSt16remove_referenceIS3_E4typeE = comdat any

$_ZSt7forwardIRbEOT_RNSt16remove_referenceIS1_E4typeE = comdat any

$_ZNSt8_Rb_treeIiiSt9_IdentityIiESt4lessIiESaIiEE24_M_get_insert_unique_posERKi = comdat any

$_ZNSt8_Rb_treeIiiSt9_IdentityIiESt4lessIiESaIiEE11_Alloc_nodeC2ERS5_ = comdat any

$_ZSt7forwardIRKiEOT_RNSt16remove_referenceIS2_E4typeE = comdat any

$_ZNSt8_Rb_treeIiiSt9_IdentityIiESt4lessIiESaIiEE10_M_insert_IRKiNS5_11_Alloc_nodeEEESt17_Rb_tree_iteratorIiEPSt18_Rb_tree_node_baseSD_OT_RT0_ = comdat any

$_ZNSt4pairISt17_Rb_tree_iteratorIiEbEC2IS1_bLb1EEEOT_OT0_ = comdat any

$_ZSt7forwardIbEOT_RNSt16remove_referenceIS0_E4typeE = comdat any

$_ZNSt8_Rb_treeIiiSt9_IdentityIiESt4lessIiESaIiEE6_S_keyEPKSt18_Rb_tree_node_base = comdat any

$_ZNKSt8_Rb_treeIiiSt9_IdentityIiESt4lessIiESaIiEE11_Alloc_nodeclIRKiEEPSt13_Rb_tree_nodeIiEOT_ = comdat any

$_ZNSt8_Rb_treeIiiSt9_IdentityIiESt4lessIiESaIiEE14_M_create_nodeIJRKiEEEPSt13_Rb_tree_nodeIiEDpOT_ = comdat any

$_ZNSt8_Rb_treeIiiSt9_IdentityIiESt4lessIiESaIiEE11_M_get_nodeEv = comdat any

$_ZNSt8_Rb_treeIiiSt9_IdentityIiESt4lessIiESaIiEE17_M_construct_nodeIJRKiEEEvPSt13_Rb_tree_nodeIiEDpOT_ = comdat any

$_ZNSt16allocator_traitsISaISt13_Rb_tree_nodeIiEEE9constructIiJRKiEEEvRS2_PT_DpOT0_ = comdat any

$_ZN9__gnu_cxx13new_allocatorISt13_Rb_tree_nodeIiEE9constructIiJRKiEEEvPT_DpOT0_ = comdat any

$_ZNSt16allocator_traitsISaISt13_Rb_tree_nodeIiEEE8allocateERS2_m = comdat any

$_ZN9__gnu_cxx13new_allocatorISt13_Rb_tree_nodeIiEE8allocateEmPKv = comdat any

$_ZNK9__gnu_cxx13new_allocatorISt13_Rb_tree_nodeIiEE8max_sizeEv = comdat any

$_ZSteqRKSt17_Rb_tree_iteratorIiES2_ = comdat any

$_ZNSt4pairIPSt18_Rb_tree_node_baseS1_EC2IRPSt13_Rb_tree_nodeIiERS1_Lb1EEEOT_OT0_ = comdat any

$_ZNSt17_Rb_tree_iteratorIiEmmEv = comdat any

$_ZNSt4pairIPSt18_Rb_tree_node_baseS1_EC2IRS1_Lb1EEEOT_RKS1_ = comdat any

$_ZSt7forwardIRPSt18_Rb_tree_node_baseEOT_RNSt16remove_referenceIS3_E4typeE = comdat any

$_ZSt7forwardIRPSt13_Rb_tree_nodeIiEEOT_RNSt16remove_referenceIS4_E4typeE = comdat any

$_ZNSt8_Rb_treeIiiSt9_IdentityIiESt4lessIiESaIiEEC2Ev = comdat any

$_ZNSt8_Rb_treeIiiSt9_IdentityIiESt4lessIiESaIiEE13_Rb_tree_implIS3_Lb1EEC2Ev = comdat any

$_ZNSaISt13_Rb_tree_nodeIiEEC2Ev = comdat any

$_ZNSt20_Rb_tree_key_compareISt4lessIiEEC2Ev = comdat any

$_ZNSt15_Rb_tree_headerC2Ev = comdat any

$_ZN9__gnu_cxx13new_allocatorISt13_Rb_tree_nodeIiEEC2Ev = comdat any

@llvm.global_ctors = appending global [1 x { i32, void ()*, i8* }] [{ i32, void ()*, i8* } { i32 65535, void ()* @_GLOBAL__sub_I_pangrams.cpp, i8* null }]
@_ZStL8__ioinit = internal global %"class.std::ios_base::Init" zeroinitializer, align 1
@.str = private unnamed_addr constant [24 x i8] c"../input_files/pangrams\00", align 1
@.str.1 = private unnamed_addr constant [2 x i8] c"r\00", align 1
@stdin = external dso_local global %struct._IO_FILE*, align 8
@_ZSt3cin = external dso_local global %"class.std::basic_istream", align 8
@_ZSt4cout = external dso_local global %"class.std::basic_ostream", align 8
@.str.2 = private unnamed_addr constant [8 x i8] c"pangram\00", align 1
@.str.3 = private unnamed_addr constant [12 x i8] c"not pangram\00", align 1

; Function Attrs: noinline uwtable
define internal void @_GLOBAL__sub_I_pangrams.cpp() #0 section ".text.startup" {
  call void @__cxx_global_var_init(), !llfi_index !4
  ret void, !llfi_index !5
}

; Function Attrs: noinline uwtable
define internal void @__cxx_global_var_init() #0 section ".text.startup" {
  call void @_ZNSt8ios_base4InitC1Ev(%"class.std::ios_base::Init"* nonnull align 1 dereferenceable(1) @_ZStL8__ioinit), !llfi_index !6
  %1 = call i32 @atexit(void ()* @__dtor__ZStL8__ioinit) #2, !llfi_index !7
  ret void, !llfi_index !8
}

declare dso_local void @_ZNSt8ios_base4InitC1Ev(%"class.std::ios_base::Init"* nonnull align 1 dereferenceable(1)) unnamed_addr #1

; Function Attrs: noinline uwtable
define internal void @__dtor__ZStL8__ioinit() #0 section ".text.startup" {
  call void @_ZNSt8ios_base4InitD1Ev(%"class.std::ios_base::Init"* @_ZStL8__ioinit), !llfi_index !9
  ret void, !llfi_index !10
}

; Function Attrs: nounwind
declare dso_local i32 @atexit(void ()*) #2

; Function Attrs: nounwind
declare dso_local void @_ZNSt8ios_base4InitD1Ev(%"class.std::ios_base::Init"* nonnull align 1 dereferenceable(1)) unnamed_addr #3

; Function Attrs: mustprogress noinline norecurse uwtable
define dso_local i32 @main() #4 personality i8* bitcast (i32 (...)* @__gxx_personality_v0 to i8*) {
  %1 = alloca i32, align 4, !llfi_index !11
  %2 = alloca %"class.std::__cxx11::basic_string", align 8, !llfi_index !12
  %3 = alloca i8*, align 8, !llfi_index !13
  %4 = alloca i32, align 4, !llfi_index !14
  %5 = alloca %"class.std::set", align 8, !llfi_index !15
  %6 = alloca i32, align 4, !llfi_index !16
  %7 = alloca i32, align 4, !llfi_index !17
  %8 = alloca %"struct.std::pair", align 8, !llfi_index !18
  %9 = alloca i64, align 8, !llfi_index !19
  %10 = alloca i64, align 8, !llfi_index !20
  %11 = alloca i32, align 4, !llfi_index !21
  store i32 0, i32* %1, align 4, !llfi_index !22
  %12 = load %struct._IO_FILE*, %struct._IO_FILE** @stdin, align 8, !llfi_index !23
  %13 = call %struct._IO_FILE* @freopen(i8* getelementptr inbounds ([24 x i8], [24 x i8]* @.str, i64 0, i64 0), i8* getelementptr inbounds ([2 x i8], [2 x i8]* @.str.1, i64 0, i64 0), %struct._IO_FILE* %12), !llfi_index !24
  call void @_ZNSt7__cxx1112basic_stringIcSt11char_traitsIcESaIcEEC1Ev(%"class.std::__cxx11::basic_string"* nonnull align 8 dereferenceable(32) %2) #2, !llfi_index !25
  %14 = invoke nonnull align 8 dereferenceable(16) %"class.std::basic_istream"* @_ZSt7getlineIcSt11char_traitsIcESaIcEERSt13basic_istreamIT_T0_ES7_RNSt7__cxx1112basic_stringIS4_S5_T1_EE(%"class.std::basic_istream"* nonnull align 8 dereferenceable(16) @_ZSt3cin, %"class.std::__cxx11::basic_string"* nonnull align 8 dereferenceable(32) %2)
          to label %15 unwind label %32, !llfi_index !26

15:                                               ; preds = %0
  %16 = invoke nonnull align 8 dereferenceable(16) %"class.std::basic_istream"* @_ZNSi6ignoreEv(%"class.std::basic_istream"* nonnull align 8 dereferenceable(16) @_ZSt3cin)
          to label %17 unwind label %32, !llfi_index !27

17:                                               ; preds = %15
  call void @_ZNSt3setIiSt4lessIiESaIiEEC2Ev(%"class.std::set"* nonnull align 8 dereferenceable(48) %5) #2, !llfi_index !28
  store i32 89, i32* %6, align 4, !llfi_index !29
  store i32 0, i32* %7, align 4, !llfi_index !30
  br label %18, !llfi_index !31

18:                                               ; preds = %29, %17
  %19 = load i32, i32* %7, align 4, !llfi_index !32
  %20 = icmp slt i32 %19, 26, !llfi_index !33
  br i1 %20, label %21, label %40, !llfi_index !34

21:                                               ; preds = %18
  %22 = invoke { %"struct.std::_Rb_tree_node_base"*, i8 } @_ZNSt3setIiSt4lessIiESaIiEE6insertERKi(%"class.std::set"* nonnull align 8 dereferenceable(48) %5, i32* nonnull align 4 dereferenceable(4) %7)
          to label %23 unwind label %36, !llfi_index !35

23:                                               ; preds = %21
  %24 = bitcast %"struct.std::pair"* %8 to { %"struct.std::_Rb_tree_node_base"*, i8 }*, !llfi_index !36
  %25 = getelementptr inbounds { %"struct.std::_Rb_tree_node_base"*, i8 }, { %"struct.std::_Rb_tree_node_base"*, i8 }* %24, i32 0, i32 0, !llfi_index !37
  %26 = extractvalue { %"struct.std::_Rb_tree_node_base"*, i8 } %22, 0, !llfi_index !38
  store %"struct.std::_Rb_tree_node_base"* %26, %"struct.std::_Rb_tree_node_base"** %25, align 8, !llfi_index !39
  %27 = getelementptr inbounds { %"struct.std::_Rb_tree_node_base"*, i8 }, { %"struct.std::_Rb_tree_node_base"*, i8 }* %24, i32 0, i32 1, !llfi_index !40
  %28 = extractvalue { %"struct.std::_Rb_tree_node_base"*, i8 } %22, 1, !llfi_index !41
  store i8 %28, i8* %27, align 8, !llfi_index !42
  br label %29, !llfi_index !43

29:                                               ; preds = %23
  %30 = load i32, i32* %7, align 4, !llfi_index !44
  %31 = add nsw i32 %30, 1, !llfi_index !45
  store i32 %31, i32* %7, align 4, !llfi_index !46
  br label %18, !llvm.loop !47, !llfi_index !49

32:                                               ; preds = %15, %0
  %33 = landingpad { i8*, i32 }
          cleanup, !llfi_index !50
  %34 = extractvalue { i8*, i32 } %33, 0, !llfi_index !51
  store i8* %34, i8** %3, align 8, !llfi_index !52
  %35 = extractvalue { i8*, i32 } %33, 1, !llfi_index !53
  store i32 %35, i32* %4, align 4, !llfi_index !54
  br label %77, !llfi_index !55

36:                                               ; preds = %72, %70, %67, %65, %54, %51, %21
  %37 = landingpad { i8*, i32 }
          cleanup, !llfi_index !56
  %38 = extractvalue { i8*, i32 } %37, 0, !llfi_index !57
  store i8* %38, i8** %3, align 8, !llfi_index !58
  %39 = extractvalue { i8*, i32 } %37, 1, !llfi_index !59
  store i32 %39, i32* %4, align 4, !llfi_index !60
  call void @_ZNSt3setIiSt4lessIiESaIiEED2Ev(%"class.std::set"* nonnull align 8 dereferenceable(48) %5) #2, !llfi_index !61
  br label %77, !llfi_index !62

40:                                               ; preds = %18
  %41 = call i64 @_ZNKSt7__cxx1112basic_stringIcSt11char_traitsIcESaIcEE6lengthEv(%"class.std::__cxx11::basic_string"* nonnull align 8 dereferenceable(32) %2) #2, !llfi_index !63
  store i64 %41, i64* %9, align 8, !llfi_index !64
  store i64 0, i64* %10, align 8, !llfi_index !65
  store i32 89, i32* %6, align 4, !llfi_index !66
  br label %42, !llfi_index !67

42:                                               ; preds = %60, %40
  %43 = load i64, i64* %10, align 8, !llfi_index !68
  %44 = load i64, i64* %9, align 8, !llfi_index !69
  %45 = icmp ult i64 %43, %44, !llfi_index !70
  br i1 %45, label %46, label %49, !llfi_index !71

46:                                               ; preds = %42
  %47 = call zeroext i1 @_ZNKSt3setIiSt4lessIiESaIiEE5emptyEv(%"class.std::set"* nonnull align 8 dereferenceable(48) %5) #2, !llfi_index !72
  %48 = xor i1 %47, true, !llfi_index !73
  br label %49, !llfi_index !74

49:                                               ; preds = %46, %42
  %50 = phi i1 [ false, %42 ], [ %48, %46 ], !llfi_index !75
  br i1 %50, label %51, label %63, !llfi_index !76

51:                                               ; preds = %49
  %52 = load i64, i64* %10, align 8, !llfi_index !77
  %53 = invoke nonnull align 1 dereferenceable(1) i8* @_ZNSt7__cxx1112basic_stringIcSt11char_traitsIcESaIcEEixEm(%"class.std::__cxx11::basic_string"* nonnull align 8 dereferenceable(32) %2, i64 %52)
          to label %54 unwind label %36, !llfi_index !78

54:                                               ; preds = %51
  %55 = load i8, i8* %53, align 1, !llfi_index !79
  %56 = sext i8 %55 to i32, !llfi_index !80
  %57 = call i32 @toupper(i32 %56) #14, !llfi_index !81
  %58 = sub nsw i32 %57, 65, !llfi_index !82
  store i32 %58, i32* %11, align 4, !llfi_index !83
  %59 = invoke i64 @_ZNSt3setIiSt4lessIiESaIiEE5eraseERKi(%"class.std::set"* nonnull align 8 dereferenceable(48) %5, i32* nonnull align 4 dereferenceable(4) %11)
          to label %60 unwind label %36, !llfi_index !84

60:                                               ; preds = %54
  %61 = load i64, i64* %10, align 8, !llfi_index !85
  %62 = add i64 %61, 1, !llfi_index !86
  store i64 %62, i64* %10, align 8, !llfi_index !87
  br label %42, !llvm.loop !88, !llfi_index !89

63:                                               ; preds = %49
  %64 = call zeroext i1 @_ZNKSt3setIiSt4lessIiESaIiEE5emptyEv(%"class.std::set"* nonnull align 8 dereferenceable(48) %5) #2, !llfi_index !90
  br i1 %64, label %65, label %70, !llfi_index !91

65:                                               ; preds = %63
  %66 = invoke nonnull align 8 dereferenceable(8) %"class.std::basic_ostream"* @_ZStlsISt11char_traitsIcEERSt13basic_ostreamIcT_ES5_PKc(%"class.std::basic_ostream"* nonnull align 8 dereferenceable(8) @_ZSt4cout, i8* getelementptr inbounds ([8 x i8], [8 x i8]* @.str.2, i64 0, i64 0))
          to label %67 unwind label %36, !llfi_index !92

67:                                               ; preds = %65
  %68 = invoke nonnull align 8 dereferenceable(8) %"class.std::basic_ostream"* @_ZNSolsEPFRSoS_E(%"class.std::basic_ostream"* nonnull align 8 dereferenceable(8) %66, %"class.std::basic_ostream"* (%"class.std::basic_ostream"*)* @_ZSt4endlIcSt11char_traitsIcEERSt13basic_ostreamIT_T0_ES6_)
          to label %69 unwind label %36, !llfi_index !93

69:                                               ; preds = %67
  br label %75, !llfi_index !94

70:                                               ; preds = %63
  %71 = invoke nonnull align 8 dereferenceable(8) %"class.std::basic_ostream"* @_ZStlsISt11char_traitsIcEERSt13basic_ostreamIcT_ES5_PKc(%"class.std::basic_ostream"* nonnull align 8 dereferenceable(8) @_ZSt4cout, i8* getelementptr inbounds ([12 x i8], [12 x i8]* @.str.3, i64 0, i64 0))
          to label %72 unwind label %36, !llfi_index !95

72:                                               ; preds = %70
  %73 = invoke nonnull align 8 dereferenceable(8) %"class.std::basic_ostream"* @_ZNSolsEPFRSoS_E(%"class.std::basic_ostream"* nonnull align 8 dereferenceable(8) %71, %"class.std::basic_ostream"* (%"class.std::basic_ostream"*)* @_ZSt4endlIcSt11char_traitsIcEERSt13basic_ostreamIT_T0_ES6_)
          to label %74 unwind label %36, !llfi_index !96

74:                                               ; preds = %72
  br label %75, !llfi_index !97

75:                                               ; preds = %74, %69
  store i32 0, i32* %1, align 4, !llfi_index !98
  call void @_ZNSt3setIiSt4lessIiESaIiEED2Ev(%"class.std::set"* nonnull align 8 dereferenceable(48) %5) #2, !llfi_index !99
  call void @_ZNSt7__cxx1112basic_stringIcSt11char_traitsIcESaIcEED1Ev(%"class.std::__cxx11::basic_string"* nonnull align 8 dereferenceable(32) %2) #2, !llfi_index !100
  %76 = load i32, i32* %1, align 4, !llfi_index !101
  ret i32 %76, !llfi_index !102

77:                                               ; preds = %36, %32
  call void @_ZNSt7__cxx1112basic_stringIcSt11char_traitsIcESaIcEED1Ev(%"class.std::__cxx11::basic_string"* nonnull align 8 dereferenceable(32) %2) #2, !llfi_index !103
  br label %78, !llfi_index !104

78:                                               ; preds = %77
  %79 = load i8*, i8** %3, align 8, !llfi_index !105
  %80 = load i32, i32* %4, align 4, !llfi_index !106
  %81 = insertvalue { i8*, i32 } undef, i8* %79, 0, !llfi_index !107
  %82 = insertvalue { i8*, i32 } %81, i32 %80, 1, !llfi_index !108
  resume { i8*, i32 } %82, !llfi_index !109
}

declare dso_local i32 @__gxx_personality_v0(...)

declare dso_local %struct._IO_FILE* @freopen(i8*, i8*, %struct._IO_FILE*) #1

; Function Attrs: nounwind
declare dso_local void @_ZNSt7__cxx1112basic_stringIcSt11char_traitsIcESaIcEEC1Ev(%"class.std::__cxx11::basic_string"* nonnull align 8 dereferenceable(32)) unnamed_addr #3

declare dso_local nonnull align 8 dereferenceable(16) %"class.std::basic_istream"* @_ZSt7getlineIcSt11char_traitsIcESaIcEERSt13basic_istreamIT_T0_ES7_RNSt7__cxx1112basic_stringIS4_S5_T1_EE(%"class.std::basic_istream"* nonnull align 8 dereferenceable(16), %"class.std::__cxx11::basic_string"* nonnull align 8 dereferenceable(32)) #1

declare dso_local nonnull align 8 dereferenceable(16) %"class.std::basic_istream"* @_ZNSi6ignoreEv(%"class.std::basic_istream"* nonnull align 8 dereferenceable(16)) #1

; Function Attrs: noinline nounwind uwtable
define linkonce_odr dso_local void @_ZNSt3setIiSt4lessIiESaIiEEC2Ev(%"class.std::set"* nonnull align 8 dereferenceable(48) %0) unnamed_addr #5 comdat align 2 {
  %2 = alloca %"class.std::set"*, align 8, !llfi_index !110
  store %"class.std::set"* %0, %"class.std::set"** %2, align 8, !llfi_index !111
  %3 = load %"class.std::set"*, %"class.std::set"** %2, align 8, !llfi_index !112
  %4 = getelementptr inbounds %"class.std::set", %"class.std::set"* %3, i32 0, i32 0, !llfi_index !113
  call void @_ZNSt8_Rb_treeIiiSt9_IdentityIiESt4lessIiESaIiEEC2Ev(%"class.std::_Rb_tree"* nonnull align 8 dereferenceable(48) %4) #2, !llfi_index !114
  ret void, !llfi_index !115
}

; Function Attrs: mustprogress noinline uwtable
define linkonce_odr dso_local { %"struct.std::_Rb_tree_node_base"*, i8 } @_ZNSt3setIiSt4lessIiESaIiEE6insertERKi(%"class.std::set"* nonnull align 8 dereferenceable(48) %0, i32* nonnull align 4 dereferenceable(4) %1) #6 comdat align 2 {
  %3 = alloca %"struct.std::pair", align 8, !llfi_index !116
  %4 = alloca %"class.std::set"*, align 8, !llfi_index !117
  %5 = alloca i32*, align 8, !llfi_index !118
  %6 = alloca %"struct.std::pair", align 8, !llfi_index !119
  store %"class.std::set"* %0, %"class.std::set"** %4, align 8, !llfi_index !120
  store i32* %1, i32** %5, align 8, !llfi_index !121
  %7 = load %"class.std::set"*, %"class.std::set"** %4, align 8, !llfi_index !122
  %8 = getelementptr inbounds %"class.std::set", %"class.std::set"* %7, i32 0, i32 0, !llfi_index !123
  %9 = load i32*, i32** %5, align 8, !llfi_index !124
  %10 = call { %"struct.std::_Rb_tree_node_base"*, i8 } @_ZNSt8_Rb_treeIiiSt9_IdentityIiESt4lessIiESaIiEE16_M_insert_uniqueIRKiEESt4pairISt17_Rb_tree_iteratorIiEbEOT_(%"class.std::_Rb_tree"* nonnull align 8 dereferenceable(48) %8, i32* nonnull align 4 dereferenceable(4) %9), !llfi_index !125
  %11 = bitcast %"struct.std::pair"* %6 to { %"struct.std::_Rb_tree_node_base"*, i8 }*, !llfi_index !126
  %12 = getelementptr inbounds { %"struct.std::_Rb_tree_node_base"*, i8 }, { %"struct.std::_Rb_tree_node_base"*, i8 }* %11, i32 0, i32 0, !llfi_index !127
  %13 = extractvalue { %"struct.std::_Rb_tree_node_base"*, i8 } %10, 0, !llfi_index !128
  store %"struct.std::_Rb_tree_node_base"* %13, %"struct.std::_Rb_tree_node_base"** %12, align 8, !llfi_index !129
  %14 = getelementptr inbounds { %"struct.std::_Rb_tree_node_base"*, i8 }, { %"struct.std::_Rb_tree_node_base"*, i8 }* %11, i32 0, i32 1, !llfi_index !130
  %15 = extractvalue { %"struct.std::_Rb_tree_node_base"*, i8 } %10, 1, !llfi_index !131
  store i8 %15, i8* %14, align 8, !llfi_index !132
  %16 = getelementptr inbounds %"struct.std::pair", %"struct.std::pair"* %6, i32 0, i32 0, !llfi_index !133
  %17 = getelementptr inbounds %"struct.std::pair", %"struct.std::pair"* %6, i32 0, i32 1, !llfi_index !134
  call void @_ZNSt4pairISt23_Rb_tree_const_iteratorIiEbEC2IRSt17_Rb_tree_iteratorIiERbLb1EEEOT_OT0_(%"struct.std::pair"* nonnull align 8 dereferenceable(9) %3, %"struct.std::_Rb_tree_const_iterator"* nonnull align 8 dereferenceable(8) %16, i8* nonnull align 1 dereferenceable(1) %17), !llfi_index !135
  %18 = bitcast %"struct.std::pair"* %3 to { %"struct.std::_Rb_tree_node_base"*, i8 }*, !llfi_index !136
  %19 = load { %"struct.std::_Rb_tree_node_base"*, i8 }, { %"struct.std::_Rb_tree_node_base"*, i8 }* %18, align 8, !llfi_index !137
  ret { %"struct.std::_Rb_tree_node_base"*, i8 } %19, !llfi_index !138
}

; Function Attrs: noinline nounwind uwtable
define linkonce_odr dso_local void @_ZNSt3setIiSt4lessIiESaIiEED2Ev(%"class.std::set"* nonnull align 8 dereferenceable(48) %0) unnamed_addr #5 comdat align 2 {
  %2 = alloca %"class.std::set"*, align 8, !llfi_index !139
  store %"class.std::set"* %0, %"class.std::set"** %2, align 8, !llfi_index !140
  %3 = load %"class.std::set"*, %"class.std::set"** %2, align 8, !llfi_index !141
  %4 = getelementptr inbounds %"class.std::set", %"class.std::set"* %3, i32 0, i32 0, !llfi_index !142
  call void @_ZNSt8_Rb_treeIiiSt9_IdentityIiESt4lessIiESaIiEED2Ev(%"class.std::_Rb_tree"* nonnull align 8 dereferenceable(48) %4) #2, !llfi_index !143
  ret void, !llfi_index !144
}

; Function Attrs: nounwind
declare dso_local i64 @_ZNKSt7__cxx1112basic_stringIcSt11char_traitsIcESaIcEE6lengthEv(%"class.std::__cxx11::basic_string"* nonnull align 8 dereferenceable(32)) #3

; Function Attrs: mustprogress noinline nounwind uwtable
define linkonce_odr dso_local zeroext i1 @_ZNKSt3setIiSt4lessIiESaIiEE5emptyEv(%"class.std::set"* nonnull align 8 dereferenceable(48) %0) #7 comdat align 2 {
  %2 = alloca %"class.std::set"*, align 8, !llfi_index !145
  store %"class.std::set"* %0, %"class.std::set"** %2, align 8, !llfi_index !146
  %3 = load %"class.std::set"*, %"class.std::set"** %2, align 8, !llfi_index !147
  %4 = getelementptr inbounds %"class.std::set", %"class.std::set"* %3, i32 0, i32 0, !llfi_index !148
  %5 = call zeroext i1 @_ZNKSt8_Rb_treeIiiSt9_IdentityIiESt4lessIiESaIiEE5emptyEv(%"class.std::_Rb_tree"* nonnull align 8 dereferenceable(48) %4) #2, !llfi_index !149
  ret i1 %5, !llfi_index !150
}

declare dso_local nonnull align 1 dereferenceable(1) i8* @_ZNSt7__cxx1112basic_stringIcSt11char_traitsIcESaIcEEixEm(%"class.std::__cxx11::basic_string"* nonnull align 8 dereferenceable(32), i64) #1

; Function Attrs: nounwind readonly willreturn
declare dso_local i32 @toupper(i32) #8

; Function Attrs: mustprogress noinline uwtable
define linkonce_odr dso_local i64 @_ZNSt3setIiSt4lessIiESaIiEE5eraseERKi(%"class.std::set"* nonnull align 8 dereferenceable(48) %0, i32* nonnull align 4 dereferenceable(4) %1) #6 comdat align 2 {
  %3 = alloca %"class.std::set"*, align 8, !llfi_index !151
  %4 = alloca i32*, align 8, !llfi_index !152
  store %"class.std::set"* %0, %"class.std::set"** %3, align 8, !llfi_index !153
  store i32* %1, i32** %4, align 8, !llfi_index !154
  %5 = load %"class.std::set"*, %"class.std::set"** %3, align 8, !llfi_index !155
  %6 = getelementptr inbounds %"class.std::set", %"class.std::set"* %5, i32 0, i32 0, !llfi_index !156
  %7 = load i32*, i32** %4, align 8, !llfi_index !157
  %8 = call i64 @_ZNSt8_Rb_treeIiiSt9_IdentityIiESt4lessIiESaIiEE5eraseERKi(%"class.std::_Rb_tree"* nonnull align 8 dereferenceable(48) %6, i32* nonnull align 4 dereferenceable(4) %7), !llfi_index !158
  ret i64 %8, !llfi_index !159
}

declare dso_local nonnull align 8 dereferenceable(8) %"class.std::basic_ostream"* @_ZStlsISt11char_traitsIcEERSt13basic_ostreamIcT_ES5_PKc(%"class.std::basic_ostream"* nonnull align 8 dereferenceable(8), i8*) #1

declare dso_local nonnull align 8 dereferenceable(8) %"class.std::basic_ostream"* @_ZSt4endlIcSt11char_traitsIcEERSt13basic_ostreamIT_T0_ES6_(%"class.std::basic_ostream"* nonnull align 8 dereferenceable(8)) #1

declare dso_local nonnull align 8 dereferenceable(8) %"class.std::basic_ostream"* @_ZNSolsEPFRSoS_E(%"class.std::basic_ostream"* nonnull align 8 dereferenceable(8), %"class.std::basic_ostream"* (%"class.std::basic_ostream"*)*) #1

; Function Attrs: nounwind
declare dso_local void @_ZNSt7__cxx1112basic_stringIcSt11char_traitsIcESaIcEED1Ev(%"class.std::__cxx11::basic_string"* nonnull align 8 dereferenceable(32)) unnamed_addr #3

; Function Attrs: mustprogress noinline uwtable
define linkonce_odr dso_local i64 @_ZNSt8_Rb_treeIiiSt9_IdentityIiESt4lessIiESaIiEE5eraseERKi(%"class.std::_Rb_tree"* nonnull align 8 dereferenceable(48) %0, i32* nonnull align 4 dereferenceable(4) %1) #6 comdat align 2 {
  %3 = alloca %"class.std::_Rb_tree"*, align 8, !llfi_index !160
  %4 = alloca i32*, align 8, !llfi_index !161
  %5 = alloca %"struct.std::pair.10", align 8, !llfi_index !162
  %6 = alloca i64, align 8, !llfi_index !163
  %7 = alloca %"struct.std::_Rb_tree_const_iterator", align 8, !llfi_index !164
  %8 = alloca %"struct.std::_Rb_tree_const_iterator", align 8, !llfi_index !165
  store %"class.std::_Rb_tree"* %0, %"class.std::_Rb_tree"** %3, align 8, !llfi_index !166
  store i32* %1, i32** %4, align 8, !llfi_index !167
  %9 = load %"class.std::_Rb_tree"*, %"class.std::_Rb_tree"** %3, align 8, !llfi_index !168
  %10 = load i32*, i32** %4, align 8, !llfi_index !169
  %11 = call { %"struct.std::_Rb_tree_node_base"*, %"struct.std::_Rb_tree_node_base"* } @_ZNSt8_Rb_treeIiiSt9_IdentityIiESt4lessIiESaIiEE11equal_rangeERKi(%"class.std::_Rb_tree"* nonnull align 8 dereferenceable(48) %9, i32* nonnull align 4 dereferenceable(4) %10), !llfi_index !170
  %12 = bitcast %"struct.std::pair.10"* %5 to { %"struct.std::_Rb_tree_node_base"*, %"struct.std::_Rb_tree_node_base"* }*, !llfi_index !171
  %13 = getelementptr inbounds { %"struct.std::_Rb_tree_node_base"*, %"struct.std::_Rb_tree_node_base"* }, { %"struct.std::_Rb_tree_node_base"*, %"struct.std::_Rb_tree_node_base"* }* %12, i32 0, i32 0, !llfi_index !172
  %14 = extractvalue { %"struct.std::_Rb_tree_node_base"*, %"struct.std::_Rb_tree_node_base"* } %11, 0, !llfi_index !173
  store %"struct.std::_Rb_tree_node_base"* %14, %"struct.std::_Rb_tree_node_base"** %13, align 8, !llfi_index !174
  %15 = getelementptr inbounds { %"struct.std::_Rb_tree_node_base"*, %"struct.std::_Rb_tree_node_base"* }, { %"struct.std::_Rb_tree_node_base"*, %"struct.std::_Rb_tree_node_base"* }* %12, i32 0, i32 1, !llfi_index !175
  %16 = extractvalue { %"struct.std::_Rb_tree_node_base"*, %"struct.std::_Rb_tree_node_base"* } %11, 1, !llfi_index !176
  store %"struct.std::_Rb_tree_node_base"* %16, %"struct.std::_Rb_tree_node_base"** %15, align 8, !llfi_index !177
  %17 = call i64 @_ZNKSt8_Rb_treeIiiSt9_IdentityIiESt4lessIiESaIiEE4sizeEv(%"class.std::_Rb_tree"* nonnull align 8 dereferenceable(48) %9) #2, !llfi_index !178
  store i64 %17, i64* %6, align 8, !llfi_index !179
  %18 = getelementptr inbounds %"struct.std::pair.10", %"struct.std::pair.10"* %5, i32 0, i32 0, !llfi_index !180
  call void @_ZNSt23_Rb_tree_const_iteratorIiEC2ERKSt17_Rb_tree_iteratorIiE(%"struct.std::_Rb_tree_const_iterator"* nonnull align 8 dereferenceable(8) %7, %"struct.std::_Rb_tree_const_iterator"* nonnull align 8 dereferenceable(8) %18) #2, !llfi_index !181
  %19 = getelementptr inbounds %"struct.std::pair.10", %"struct.std::pair.10"* %5, i32 0, i32 1, !llfi_index !182
  call void @_ZNSt23_Rb_tree_const_iteratorIiEC2ERKSt17_Rb_tree_iteratorIiE(%"struct.std::_Rb_tree_const_iterator"* nonnull align 8 dereferenceable(8) %8, %"struct.std::_Rb_tree_const_iterator"* nonnull align 8 dereferenceable(8) %19) #2, !llfi_index !183
  %20 = getelementptr inbounds %"struct.std::_Rb_tree_const_iterator", %"struct.std::_Rb_tree_const_iterator"* %7, i32 0, i32 0, !llfi_index !184
  %21 = load %"struct.std::_Rb_tree_node_base"*, %"struct.std::_Rb_tree_node_base"** %20, align 8, !llfi_index !185
  %22 = getelementptr inbounds %"struct.std::_Rb_tree_const_iterator", %"struct.std::_Rb_tree_const_iterator"* %8, i32 0, i32 0, !llfi_index !186
  %23 = load %"struct.std::_Rb_tree_node_base"*, %"struct.std::_Rb_tree_node_base"** %22, align 8, !llfi_index !187
  call void @_ZNSt8_Rb_treeIiiSt9_IdentityIiESt4lessIiESaIiEE12_M_erase_auxESt23_Rb_tree_const_iteratorIiES7_(%"class.std::_Rb_tree"* nonnull align 8 dereferenceable(48) %9, %"struct.std::_Rb_tree_node_base"* %21, %"struct.std::_Rb_tree_node_base"* %23), !llfi_index !188
  %24 = load i64, i64* %6, align 8, !llfi_index !189
  %25 = call i64 @_ZNKSt8_Rb_treeIiiSt9_IdentityIiESt4lessIiESaIiEE4sizeEv(%"class.std::_Rb_tree"* nonnull align 8 dereferenceable(48) %9) #2, !llfi_index !190
  %26 = sub i64 %24, %25, !llfi_index !191
  ret i64 %26, !llfi_index !192
}

; Function Attrs: mustprogress noinline uwtable
define linkonce_odr dso_local { %"struct.std::_Rb_tree_node_base"*, %"struct.std::_Rb_tree_node_base"* } @_ZNSt8_Rb_treeIiiSt9_IdentityIiESt4lessIiESaIiEE11equal_rangeERKi(%"class.std::_Rb_tree"* nonnull align 8 dereferenceable(48) %0, i32* nonnull align 4 dereferenceable(4) %1) #6 comdat align 2 {
  %3 = alloca %"struct.std::pair.10", align 8, !llfi_index !193
  %4 = alloca %"class.std::_Rb_tree"*, align 8, !llfi_index !194
  %5 = alloca i32*, align 8, !llfi_index !195
  %6 = alloca %"struct.std::_Rb_tree_node"*, align 8, !llfi_index !196
  %7 = alloca %"struct.std::_Rb_tree_node_base"*, align 8, !llfi_index !197
  %8 = alloca %"struct.std::_Rb_tree_node"*, align 8, !llfi_index !198
  %9 = alloca %"struct.std::_Rb_tree_node_base"*, align 8, !llfi_index !199
  %10 = alloca %"struct.std::_Rb_tree_const_iterator", align 8, !llfi_index !200
  %11 = alloca %"struct.std::_Rb_tree_const_iterator", align 8, !llfi_index !201
  %12 = alloca %"struct.std::_Rb_tree_const_iterator", align 8, !llfi_index !202
  %13 = alloca %"struct.std::_Rb_tree_const_iterator", align 8, !llfi_index !203
  store %"class.std::_Rb_tree"* %0, %"class.std::_Rb_tree"** %4, align 8, !llfi_index !204
  store i32* %1, i32** %5, align 8, !llfi_index !205
  %14 = load %"class.std::_Rb_tree"*, %"class.std::_Rb_tree"** %4, align 8, !llfi_index !206
  %15 = call %"struct.std::_Rb_tree_node"* @_ZNSt8_Rb_treeIiiSt9_IdentityIiESt4lessIiESaIiEE8_M_beginEv(%"class.std::_Rb_tree"* nonnull align 8 dereferenceable(48) %14) #2, !llfi_index !207
  store %"struct.std::_Rb_tree_node"* %15, %"struct.std::_Rb_tree_node"** %6, align 8, !llfi_index !208
  %16 = call %"struct.std::_Rb_tree_node_base"* @_ZNSt8_Rb_treeIiiSt9_IdentityIiESt4lessIiESaIiEE6_M_endEv(%"class.std::_Rb_tree"* nonnull align 8 dereferenceable(48) %14) #2, !llfi_index !209
  store %"struct.std::_Rb_tree_node_base"* %16, %"struct.std::_Rb_tree_node_base"** %7, align 8, !llfi_index !210
  br label %17, !llfi_index !211

17:                                               ; preds = %68, %2
  %18 = load %"struct.std::_Rb_tree_node"*, %"struct.std::_Rb_tree_node"** %6, align 8, !llfi_index !212
  %19 = icmp ne %"struct.std::_Rb_tree_node"* %18, null, !llfi_index !213
  br i1 %19, label %20, label %69, !llfi_index !214

20:                                               ; preds = %17
  %21 = getelementptr inbounds %"class.std::_Rb_tree", %"class.std::_Rb_tree"* %14, i32 0, i32 0, !llfi_index !215
  %22 = bitcast %"struct.std::_Rb_tree<int, int, std::_Identity<int>, std::less<int>>::_Rb_tree_impl"* %21 to %"struct.std::_Rb_tree_key_compare"*, !llfi_index !216
  %23 = getelementptr inbounds %"struct.std::_Rb_tree_key_compare", %"struct.std::_Rb_tree_key_compare"* %22, i32 0, i32 0, !llfi_index !217
  %24 = load %"struct.std::_Rb_tree_node"*, %"struct.std::_Rb_tree_node"** %6, align 8, !llfi_index !218
  %25 = call nonnull align 4 dereferenceable(4) i32* @_ZNSt8_Rb_treeIiiSt9_IdentityIiESt4lessIiESaIiEE6_S_keyEPKSt13_Rb_tree_nodeIiE(%"struct.std::_Rb_tree_node"* %24), !llfi_index !219
  %26 = load i32*, i32** %5, align 8, !llfi_index !220
  %27 = call zeroext i1 @_ZNKSt4lessIiEclERKiS2_(%"class.std::ios_base::Init"* nonnull align 1 dereferenceable(1) %23, i32* nonnull align 4 dereferenceable(4) %25, i32* nonnull align 4 dereferenceable(4) %26), !llfi_index !221
  br i1 %27, label %28, label %32, !llfi_index !222

28:                                               ; preds = %20
  %29 = load %"struct.std::_Rb_tree_node"*, %"struct.std::_Rb_tree_node"** %6, align 8, !llfi_index !223
  %30 = bitcast %"struct.std::_Rb_tree_node"* %29 to %"struct.std::_Rb_tree_node_base"*, !llfi_index !224
  %31 = call %"struct.std::_Rb_tree_node"* @_ZNSt8_Rb_treeIiiSt9_IdentityIiESt4lessIiESaIiEE8_S_rightEPSt18_Rb_tree_node_base(%"struct.std::_Rb_tree_node_base"* %30) #2, !llfi_index !225
  store %"struct.std::_Rb_tree_node"* %31, %"struct.std::_Rb_tree_node"** %6, align 8, !llfi_index !226
  br label %68, !llfi_index !227

32:                                               ; preds = %20
  %33 = getelementptr inbounds %"class.std::_Rb_tree", %"class.std::_Rb_tree"* %14, i32 0, i32 0, !llfi_index !228
  %34 = bitcast %"struct.std::_Rb_tree<int, int, std::_Identity<int>, std::less<int>>::_Rb_tree_impl"* %33 to %"struct.std::_Rb_tree_key_compare"*, !llfi_index !229
  %35 = getelementptr inbounds %"struct.std::_Rb_tree_key_compare", %"struct.std::_Rb_tree_key_compare"* %34, i32 0, i32 0, !llfi_index !230
  %36 = load i32*, i32** %5, align 8, !llfi_index !231
  %37 = load %"struct.std::_Rb_tree_node"*, %"struct.std::_Rb_tree_node"** %6, align 8, !llfi_index !232
  %38 = call nonnull align 4 dereferenceable(4) i32* @_ZNSt8_Rb_treeIiiSt9_IdentityIiESt4lessIiESaIiEE6_S_keyEPKSt13_Rb_tree_nodeIiE(%"struct.std::_Rb_tree_node"* %37), !llfi_index !233
  %39 = call zeroext i1 @_ZNKSt4lessIiEclERKiS2_(%"class.std::ios_base::Init"* nonnull align 1 dereferenceable(1) %35, i32* nonnull align 4 dereferenceable(4) %36, i32* nonnull align 4 dereferenceable(4) %38), !llfi_index !234
  br i1 %39, label %40, label %46, !llfi_index !235

40:                                               ; preds = %32
  %41 = load %"struct.std::_Rb_tree_node"*, %"struct.std::_Rb_tree_node"** %6, align 8, !llfi_index !236
  %42 = bitcast %"struct.std::_Rb_tree_node"* %41 to %"struct.std::_Rb_tree_node_base"*, !llfi_index !237
  store %"struct.std::_Rb_tree_node_base"* %42, %"struct.std::_Rb_tree_node_base"** %7, align 8, !llfi_index !238
  %43 = load %"struct.std::_Rb_tree_node"*, %"struct.std::_Rb_tree_node"** %6, align 8, !llfi_index !239
  %44 = bitcast %"struct.std::_Rb_tree_node"* %43 to %"struct.std::_Rb_tree_node_base"*, !llfi_index !240
  %45 = call %"struct.std::_Rb_tree_node"* @_ZNSt8_Rb_treeIiiSt9_IdentityIiESt4lessIiESaIiEE7_S_leftEPSt18_Rb_tree_node_base(%"struct.std::_Rb_tree_node_base"* %44) #2, !llfi_index !241
  store %"struct.std::_Rb_tree_node"* %45, %"struct.std::_Rb_tree_node"** %6, align 8, !llfi_index !242
  br label %67, !llfi_index !243

46:                                               ; preds = %32
  %47 = load %"struct.std::_Rb_tree_node"*, %"struct.std::_Rb_tree_node"** %6, align 8, !llfi_index !244
  store %"struct.std::_Rb_tree_node"* %47, %"struct.std::_Rb_tree_node"** %8, align 8, !llfi_index !245
  %48 = load %"struct.std::_Rb_tree_node_base"*, %"struct.std::_Rb_tree_node_base"** %7, align 8, !llfi_index !246
  store %"struct.std::_Rb_tree_node_base"* %48, %"struct.std::_Rb_tree_node_base"** %9, align 8, !llfi_index !247
  %49 = load %"struct.std::_Rb_tree_node"*, %"struct.std::_Rb_tree_node"** %6, align 8, !llfi_index !248
  %50 = bitcast %"struct.std::_Rb_tree_node"* %49 to %"struct.std::_Rb_tree_node_base"*, !llfi_index !249
  store %"struct.std::_Rb_tree_node_base"* %50, %"struct.std::_Rb_tree_node_base"** %7, align 8, !llfi_index !250
  %51 = load %"struct.std::_Rb_tree_node"*, %"struct.std::_Rb_tree_node"** %6, align 8, !llfi_index !251
  %52 = bitcast %"struct.std::_Rb_tree_node"* %51 to %"struct.std::_Rb_tree_node_base"*, !llfi_index !252
  %53 = call %"struct.std::_Rb_tree_node"* @_ZNSt8_Rb_treeIiiSt9_IdentityIiESt4lessIiESaIiEE7_S_leftEPSt18_Rb_tree_node_base(%"struct.std::_Rb_tree_node_base"* %52) #2, !llfi_index !253
  store %"struct.std::_Rb_tree_node"* %53, %"struct.std::_Rb_tree_node"** %6, align 8, !llfi_index !254
  %54 = load %"struct.std::_Rb_tree_node"*, %"struct.std::_Rb_tree_node"** %8, align 8, !llfi_index !255
  %55 = bitcast %"struct.std::_Rb_tree_node"* %54 to %"struct.std::_Rb_tree_node_base"*, !llfi_index !256
  %56 = call %"struct.std::_Rb_tree_node"* @_ZNSt8_Rb_treeIiiSt9_IdentityIiESt4lessIiESaIiEE8_S_rightEPSt18_Rb_tree_node_base(%"struct.std::_Rb_tree_node_base"* %55) #2, !llfi_index !257
  store %"struct.std::_Rb_tree_node"* %56, %"struct.std::_Rb_tree_node"** %8, align 8, !llfi_index !258
  %57 = load %"struct.std::_Rb_tree_node"*, %"struct.std::_Rb_tree_node"** %6, align 8, !llfi_index !259
  %58 = load %"struct.std::_Rb_tree_node_base"*, %"struct.std::_Rb_tree_node_base"** %7, align 8, !llfi_index !260
  %59 = load i32*, i32** %5, align 8, !llfi_index !261
  %60 = call %"struct.std::_Rb_tree_node_base"* @_ZNSt8_Rb_treeIiiSt9_IdentityIiESt4lessIiESaIiEE14_M_lower_boundEPSt13_Rb_tree_nodeIiEPSt18_Rb_tree_node_baseRKi(%"class.std::_Rb_tree"* nonnull align 8 dereferenceable(48) %14, %"struct.std::_Rb_tree_node"* %57, %"struct.std::_Rb_tree_node_base"* %58, i32* nonnull align 4 dereferenceable(4) %59), !llfi_index !262
  %61 = getelementptr inbounds %"struct.std::_Rb_tree_const_iterator", %"struct.std::_Rb_tree_const_iterator"* %10, i32 0, i32 0, !llfi_index !263
  store %"struct.std::_Rb_tree_node_base"* %60, %"struct.std::_Rb_tree_node_base"** %61, align 8, !llfi_index !264
  %62 = load %"struct.std::_Rb_tree_node"*, %"struct.std::_Rb_tree_node"** %8, align 8, !llfi_index !265
  %63 = load %"struct.std::_Rb_tree_node_base"*, %"struct.std::_Rb_tree_node_base"** %9, align 8, !llfi_index !266
  %64 = load i32*, i32** %5, align 8, !llfi_index !267
  %65 = call %"struct.std::_Rb_tree_node_base"* @_ZNSt8_Rb_treeIiiSt9_IdentityIiESt4lessIiESaIiEE14_M_upper_boundEPSt13_Rb_tree_nodeIiEPSt18_Rb_tree_node_baseRKi(%"class.std::_Rb_tree"* nonnull align 8 dereferenceable(48) %14, %"struct.std::_Rb_tree_node"* %62, %"struct.std::_Rb_tree_node_base"* %63, i32* nonnull align 4 dereferenceable(4) %64), !llfi_index !268
  %66 = getelementptr inbounds %"struct.std::_Rb_tree_const_iterator", %"struct.std::_Rb_tree_const_iterator"* %11, i32 0, i32 0, !llfi_index !269
  store %"struct.std::_Rb_tree_node_base"* %65, %"struct.std::_Rb_tree_node_base"** %66, align 8, !llfi_index !270
  call void @_ZNSt4pairISt17_Rb_tree_iteratorIiES1_EC2IS1_S1_Lb1EEEOT_OT0_(%"struct.std::pair.10"* nonnull align 8 dereferenceable(16) %3, %"struct.std::_Rb_tree_const_iterator"* nonnull align 8 dereferenceable(8) %10, %"struct.std::_Rb_tree_const_iterator"* nonnull align 8 dereferenceable(8) %11), !llfi_index !271
  br label %72, !llfi_index !272

67:                                               ; preds = %40
  br label %68, !llfi_index !273

68:                                               ; preds = %67, %28
  br label %17, !llvm.loop !274, !llfi_index !275

69:                                               ; preds = %17
  %70 = load %"struct.std::_Rb_tree_node_base"*, %"struct.std::_Rb_tree_node_base"** %7, align 8, !llfi_index !276
  call void @_ZNSt17_Rb_tree_iteratorIiEC2EPSt18_Rb_tree_node_base(%"struct.std::_Rb_tree_const_iterator"* nonnull align 8 dereferenceable(8) %12, %"struct.std::_Rb_tree_node_base"* %70) #2, !llfi_index !277
  %71 = load %"struct.std::_Rb_tree_node_base"*, %"struct.std::_Rb_tree_node_base"** %7, align 8, !llfi_index !278
  call void @_ZNSt17_Rb_tree_iteratorIiEC2EPSt18_Rb_tree_node_base(%"struct.std::_Rb_tree_const_iterator"* nonnull align 8 dereferenceable(8) %13, %"struct.std::_Rb_tree_node_base"* %71) #2, !llfi_index !279
  call void @_ZNSt4pairISt17_Rb_tree_iteratorIiES1_EC2IS1_S1_Lb1EEEOT_OT0_(%"struct.std::pair.10"* nonnull align 8 dereferenceable(16) %3, %"struct.std::_Rb_tree_const_iterator"* nonnull align 8 dereferenceable(8) %12, %"struct.std::_Rb_tree_const_iterator"* nonnull align 8 dereferenceable(8) %13), !llfi_index !280
  br label %72, !llfi_index !281

72:                                               ; preds = %69, %46
  %73 = bitcast %"struct.std::pair.10"* %3 to { %"struct.std::_Rb_tree_node_base"*, %"struct.std::_Rb_tree_node_base"* }*, !llfi_index !282
  %74 = load { %"struct.std::_Rb_tree_node_base"*, %"struct.std::_Rb_tree_node_base"* }, { %"struct.std::_Rb_tree_node_base"*, %"struct.std::_Rb_tree_node_base"* }* %73, align 8, !llfi_index !283
  ret { %"struct.std::_Rb_tree_node_base"*, %"struct.std::_Rb_tree_node_base"* } %74, !llfi_index !284
}

; Function Attrs: mustprogress noinline nounwind uwtable
define linkonce_odr dso_local i64 @_ZNKSt8_Rb_treeIiiSt9_IdentityIiESt4lessIiESaIiEE4sizeEv(%"class.std::_Rb_tree"* nonnull align 8 dereferenceable(48) %0) #7 comdat align 2 {
  %2 = alloca %"class.std::_Rb_tree"*, align 8, !llfi_index !285
  store %"class.std::_Rb_tree"* %0, %"class.std::_Rb_tree"** %2, align 8, !llfi_index !286
  %3 = load %"class.std::_Rb_tree"*, %"class.std::_Rb_tree"** %2, align 8, !llfi_index !287
  %4 = getelementptr inbounds %"class.std::_Rb_tree", %"class.std::_Rb_tree"* %3, i32 0, i32 0, !llfi_index !288
  %5 = bitcast %"struct.std::_Rb_tree<int, int, std::_Identity<int>, std::less<int>>::_Rb_tree_impl"* %4 to i8*, !llfi_index !289
  %6 = getelementptr inbounds i8, i8* %5, i64 8, !llfi_index !290
  %7 = bitcast i8* %6 to %"struct.std::_Rb_tree_header"*, !llfi_index !291
  %8 = getelementptr inbounds %"struct.std::_Rb_tree_header", %"struct.std::_Rb_tree_header"* %7, i32 0, i32 1, !llfi_index !292
  %9 = load i64, i64* %8, align 8, !llfi_index !293
  ret i64 %9, !llfi_index !294
}

; Function Attrs: noinline nounwind uwtable
define linkonce_odr dso_local void @_ZNSt23_Rb_tree_const_iteratorIiEC2ERKSt17_Rb_tree_iteratorIiE(%"struct.std::_Rb_tree_const_iterator"* nonnull align 8 dereferenceable(8) %0, %"struct.std::_Rb_tree_const_iterator"* nonnull align 8 dereferenceable(8) %1) unnamed_addr #5 comdat align 2 {
  %3 = alloca %"struct.std::_Rb_tree_const_iterator"*, align 8, !llfi_index !295
  %4 = alloca %"struct.std::_Rb_tree_const_iterator"*, align 8, !llfi_index !296
  store %"struct.std::_Rb_tree_const_iterator"* %0, %"struct.std::_Rb_tree_const_iterator"** %3, align 8, !llfi_index !297
  store %"struct.std::_Rb_tree_const_iterator"* %1, %"struct.std::_Rb_tree_const_iterator"** %4, align 8, !llfi_index !298
  %5 = load %"struct.std::_Rb_tree_const_iterator"*, %"struct.std::_Rb_tree_const_iterator"** %3, align 8, !llfi_index !299
  %6 = getelementptr inbounds %"struct.std::_Rb_tree_const_iterator", %"struct.std::_Rb_tree_const_iterator"* %5, i32 0, i32 0, !llfi_index !300
  %7 = load %"struct.std::_Rb_tree_const_iterator"*, %"struct.std::_Rb_tree_const_iterator"** %4, align 8, !llfi_index !301
  %8 = getelementptr inbounds %"struct.std::_Rb_tree_const_iterator", %"struct.std::_Rb_tree_const_iterator"* %7, i32 0, i32 0, !llfi_index !302
  %9 = load %"struct.std::_Rb_tree_node_base"*, %"struct.std::_Rb_tree_node_base"** %8, align 8, !llfi_index !303
  store %"struct.std::_Rb_tree_node_base"* %9, %"struct.std::_Rb_tree_node_base"** %6, align 8, !llfi_index !304
  ret void, !llfi_index !305
}

; Function Attrs: mustprogress noinline uwtable
define linkonce_odr dso_local void @_ZNSt8_Rb_treeIiiSt9_IdentityIiESt4lessIiESaIiEE12_M_erase_auxESt23_Rb_tree_const_iteratorIiES7_(%"class.std::_Rb_tree"* nonnull align 8 dereferenceable(48) %0, %"struct.std::_Rb_tree_node_base"* %1, %"struct.std::_Rb_tree_node_base"* %2) #6 comdat align 2 {
  %4 = alloca %"struct.std::_Rb_tree_const_iterator", align 8, !llfi_index !306
  %5 = alloca %"struct.std::_Rb_tree_const_iterator", align 8, !llfi_index !307
  %6 = alloca %"class.std::_Rb_tree"*, align 8, !llfi_index !308
  %7 = alloca %"struct.std::_Rb_tree_const_iterator", align 8, !llfi_index !309
  %8 = alloca %"struct.std::_Rb_tree_const_iterator", align 8, !llfi_index !310
  %9 = alloca %"struct.std::_Rb_tree_const_iterator", align 8, !llfi_index !311
  %10 = alloca %"struct.std::_Rb_tree_const_iterator", align 8, !llfi_index !312
  %11 = alloca %"struct.std::_Rb_tree_const_iterator", align 8, !llfi_index !313
  %12 = getelementptr inbounds %"struct.std::_Rb_tree_const_iterator", %"struct.std::_Rb_tree_const_iterator"* %4, i32 0, i32 0, !llfi_index !314
  store %"struct.std::_Rb_tree_node_base"* %1, %"struct.std::_Rb_tree_node_base"** %12, align 8, !llfi_index !315
  %13 = getelementptr inbounds %"struct.std::_Rb_tree_const_iterator", %"struct.std::_Rb_tree_const_iterator"* %5, i32 0, i32 0, !llfi_index !316
  store %"struct.std::_Rb_tree_node_base"* %2, %"struct.std::_Rb_tree_node_base"** %13, align 8, !llfi_index !317
  store %"class.std::_Rb_tree"* %0, %"class.std::_Rb_tree"** %6, align 8, !llfi_index !318
  %14 = load %"class.std::_Rb_tree"*, %"class.std::_Rb_tree"** %6, align 8, !llfi_index !319
  %15 = call %"struct.std::_Rb_tree_node_base"* @_ZNSt8_Rb_treeIiiSt9_IdentityIiESt4lessIiESaIiEE5beginEv(%"class.std::_Rb_tree"* nonnull align 8 dereferenceable(48) %14) #2, !llfi_index !320
  %16 = getelementptr inbounds %"struct.std::_Rb_tree_const_iterator", %"struct.std::_Rb_tree_const_iterator"* %8, i32 0, i32 0, !llfi_index !321
  store %"struct.std::_Rb_tree_node_base"* %15, %"struct.std::_Rb_tree_node_base"** %16, align 8, !llfi_index !322
  call void @_ZNSt23_Rb_tree_const_iteratorIiEC2ERKSt17_Rb_tree_iteratorIiE(%"struct.std::_Rb_tree_const_iterator"* nonnull align 8 dereferenceable(8) %7, %"struct.std::_Rb_tree_const_iterator"* nonnull align 8 dereferenceable(8) %8) #2, !llfi_index !323
  %17 = call zeroext i1 @_ZSteqRKSt23_Rb_tree_const_iteratorIiES2_(%"struct.std::_Rb_tree_const_iterator"* nonnull align 8 dereferenceable(8) %4, %"struct.std::_Rb_tree_const_iterator"* nonnull align 8 dereferenceable(8) %7) #2, !llfi_index !324
  br i1 %17, label %18, label %22, !llfi_index !325

18:                                               ; preds = %3
  %19 = call %"struct.std::_Rb_tree_node_base"* @_ZNSt8_Rb_treeIiiSt9_IdentityIiESt4lessIiESaIiEE3endEv(%"class.std::_Rb_tree"* nonnull align 8 dereferenceable(48) %14) #2, !llfi_index !326
  %20 = getelementptr inbounds %"struct.std::_Rb_tree_const_iterator", %"struct.std::_Rb_tree_const_iterator"* %10, i32 0, i32 0, !llfi_index !327
  store %"struct.std::_Rb_tree_node_base"* %19, %"struct.std::_Rb_tree_node_base"** %20, align 8, !llfi_index !328
  call void @_ZNSt23_Rb_tree_const_iteratorIiEC2ERKSt17_Rb_tree_iteratorIiE(%"struct.std::_Rb_tree_const_iterator"* nonnull align 8 dereferenceable(8) %9, %"struct.std::_Rb_tree_const_iterator"* nonnull align 8 dereferenceable(8) %10) #2, !llfi_index !329
  %21 = call zeroext i1 @_ZSteqRKSt23_Rb_tree_const_iteratorIiES2_(%"struct.std::_Rb_tree_const_iterator"* nonnull align 8 dereferenceable(8) %5, %"struct.std::_Rb_tree_const_iterator"* nonnull align 8 dereferenceable(8) %9) #2, !llfi_index !330
  br label %22, !llfi_index !331

22:                                               ; preds = %18, %3
  %23 = phi i1 [ false, %3 ], [ %21, %18 ], !llfi_index !332
  br i1 %23, label %24, label %25, !llfi_index !333

24:                                               ; preds = %22
  call void @_ZNSt8_Rb_treeIiiSt9_IdentityIiESt4lessIiESaIiEE5clearEv(%"class.std::_Rb_tree"* nonnull align 8 dereferenceable(48) %14) #2, !llfi_index !334
  br label %34, !llfi_index !335

25:                                               ; preds = %22
  br label %26, !llfi_index !336

26:                                               ; preds = %28, %25
  %27 = call zeroext i1 @_ZStneRKSt23_Rb_tree_const_iteratorIiES2_(%"struct.std::_Rb_tree_const_iterator"* nonnull align 8 dereferenceable(8) %4, %"struct.std::_Rb_tree_const_iterator"* nonnull align 8 dereferenceable(8) %5) #2, !llfi_index !337
  br i1 %27, label %28, label %33, !llfi_index !338

28:                                               ; preds = %26
  %29 = call %"struct.std::_Rb_tree_node_base"* @_ZNSt23_Rb_tree_const_iteratorIiEppEi(%"struct.std::_Rb_tree_const_iterator"* nonnull align 8 dereferenceable(8) %4, i32 0) #2, !llfi_index !339
  %30 = getelementptr inbounds %"struct.std::_Rb_tree_const_iterator", %"struct.std::_Rb_tree_const_iterator"* %11, i32 0, i32 0, !llfi_index !340
  store %"struct.std::_Rb_tree_node_base"* %29, %"struct.std::_Rb_tree_node_base"** %30, align 8, !llfi_index !341
  %31 = getelementptr inbounds %"struct.std::_Rb_tree_const_iterator", %"struct.std::_Rb_tree_const_iterator"* %11, i32 0, i32 0, !llfi_index !342
  %32 = load %"struct.std::_Rb_tree_node_base"*, %"struct.std::_Rb_tree_node_base"** %31, align 8, !llfi_index !343
  call void @_ZNSt8_Rb_treeIiiSt9_IdentityIiESt4lessIiESaIiEE12_M_erase_auxESt23_Rb_tree_const_iteratorIiE(%"class.std::_Rb_tree"* nonnull align 8 dereferenceable(48) %14, %"struct.std::_Rb_tree_node_base"* %32), !llfi_index !344
  br label %26, !llvm.loop !345, !llfi_index !346

33:                                               ; preds = %26
  br label %34, !llfi_index !347

34:                                               ; preds = %33, %24
  ret void, !llfi_index !348
}

; Function Attrs: mustprogress noinline nounwind uwtable
define linkonce_odr dso_local %"struct.std::_Rb_tree_node_base"* @_ZNSt8_Rb_treeIiiSt9_IdentityIiESt4lessIiESaIiEE5beginEv(%"class.std::_Rb_tree"* nonnull align 8 dereferenceable(48) %0) #7 comdat align 2 {
  %2 = alloca %"struct.std::_Rb_tree_const_iterator", align 8, !llfi_index !349
  %3 = alloca %"class.std::_Rb_tree"*, align 8, !llfi_index !350
  store %"class.std::_Rb_tree"* %0, %"class.std::_Rb_tree"** %3, align 8, !llfi_index !351
  %4 = load %"class.std::_Rb_tree"*, %"class.std::_Rb_tree"** %3, align 8, !llfi_index !352
  %5 = getelementptr inbounds %"class.std::_Rb_tree", %"class.std::_Rb_tree"* %4, i32 0, i32 0, !llfi_index !353
  %6 = bitcast %"struct.std::_Rb_tree<int, int, std::_Identity<int>, std::less<int>>::_Rb_tree_impl"* %5 to i8*, !llfi_index !354
  %7 = getelementptr inbounds i8, i8* %6, i64 8, !llfi_index !355
  %8 = bitcast i8* %7 to %"struct.std::_Rb_tree_header"*, !llfi_index !356
  %9 = getelementptr inbounds %"struct.std::_Rb_tree_header", %"struct.std::_Rb_tree_header"* %8, i32 0, i32 0, !llfi_index !357
  %10 = getelementptr inbounds %"struct.std::_Rb_tree_node_base", %"struct.std::_Rb_tree_node_base"* %9, i32 0, i32 2, !llfi_index !358
  %11 = load %"struct.std::_Rb_tree_node_base"*, %"struct.std::_Rb_tree_node_base"** %10, align 8, !llfi_index !359
  call void @_ZNSt17_Rb_tree_iteratorIiEC2EPSt18_Rb_tree_node_base(%"struct.std::_Rb_tree_const_iterator"* nonnull align 8 dereferenceable(8) %2, %"struct.std::_Rb_tree_node_base"* %11) #2, !llfi_index !360
  %12 = getelementptr inbounds %"struct.std::_Rb_tree_const_iterator", %"struct.std::_Rb_tree_const_iterator"* %2, i32 0, i32 0, !llfi_index !361
  %13 = load %"struct.std::_Rb_tree_node_base"*, %"struct.std::_Rb_tree_node_base"** %12, align 8, !llfi_index !362
  ret %"struct.std::_Rb_tree_node_base"* %13, !llfi_index !363
}

; Function Attrs: mustprogress noinline nounwind uwtable
define linkonce_odr dso_local zeroext i1 @_ZSteqRKSt23_Rb_tree_const_iteratorIiES2_(%"struct.std::_Rb_tree_const_iterator"* nonnull align 8 dereferenceable(8) %0, %"struct.std::_Rb_tree_const_iterator"* nonnull align 8 dereferenceable(8) %1) #7 comdat {
  %3 = alloca %"struct.std::_Rb_tree_const_iterator"*, align 8, !llfi_index !364
  %4 = alloca %"struct.std::_Rb_tree_const_iterator"*, align 8, !llfi_index !365
  store %"struct.std::_Rb_tree_const_iterator"* %0, %"struct.std::_Rb_tree_const_iterator"** %3, align 8, !llfi_index !366
  store %"struct.std::_Rb_tree_const_iterator"* %1, %"struct.std::_Rb_tree_const_iterator"** %4, align 8, !llfi_index !367
  %5 = load %"struct.std::_Rb_tree_const_iterator"*, %"struct.std::_Rb_tree_const_iterator"** %3, align 8, !llfi_index !368
  %6 = getelementptr inbounds %"struct.std::_Rb_tree_const_iterator", %"struct.std::_Rb_tree_const_iterator"* %5, i32 0, i32 0, !llfi_index !369
  %7 = load %"struct.std::_Rb_tree_node_base"*, %"struct.std::_Rb_tree_node_base"** %6, align 8, !llfi_index !370
  %8 = load %"struct.std::_Rb_tree_const_iterator"*, %"struct.std::_Rb_tree_const_iterator"** %4, align 8, !llfi_index !371
  %9 = getelementptr inbounds %"struct.std::_Rb_tree_const_iterator", %"struct.std::_Rb_tree_const_iterator"* %8, i32 0, i32 0, !llfi_index !372
  %10 = load %"struct.std::_Rb_tree_node_base"*, %"struct.std::_Rb_tree_node_base"** %9, align 8, !llfi_index !373
  %11 = icmp eq %"struct.std::_Rb_tree_node_base"* %7, %10, !llfi_index !374
  ret i1 %11, !llfi_index !375
}

; Function Attrs: mustprogress noinline nounwind uwtable
define linkonce_odr dso_local %"struct.std::_Rb_tree_node_base"* @_ZNSt8_Rb_treeIiiSt9_IdentityIiESt4lessIiESaIiEE3endEv(%"class.std::_Rb_tree"* nonnull align 8 dereferenceable(48) %0) #7 comdat align 2 {
  %2 = alloca %"struct.std::_Rb_tree_const_iterator", align 8, !llfi_index !376
  %3 = alloca %"class.std::_Rb_tree"*, align 8, !llfi_index !377
  store %"class.std::_Rb_tree"* %0, %"class.std::_Rb_tree"** %3, align 8, !llfi_index !378
  %4 = load %"class.std::_Rb_tree"*, %"class.std::_Rb_tree"** %3, align 8, !llfi_index !379
  %5 = getelementptr inbounds %"class.std::_Rb_tree", %"class.std::_Rb_tree"* %4, i32 0, i32 0, !llfi_index !380
  %6 = bitcast %"struct.std::_Rb_tree<int, int, std::_Identity<int>, std::less<int>>::_Rb_tree_impl"* %5 to i8*, !llfi_index !381
  %7 = getelementptr inbounds i8, i8* %6, i64 8, !llfi_index !382
  %8 = bitcast i8* %7 to %"struct.std::_Rb_tree_header"*, !llfi_index !383
  %9 = getelementptr inbounds %"struct.std::_Rb_tree_header", %"struct.std::_Rb_tree_header"* %8, i32 0, i32 0, !llfi_index !384
  call void @_ZNSt17_Rb_tree_iteratorIiEC2EPSt18_Rb_tree_node_base(%"struct.std::_Rb_tree_const_iterator"* nonnull align 8 dereferenceable(8) %2, %"struct.std::_Rb_tree_node_base"* %9) #2, !llfi_index !385
  %10 = getelementptr inbounds %"struct.std::_Rb_tree_const_iterator", %"struct.std::_Rb_tree_const_iterator"* %2, i32 0, i32 0, !llfi_index !386
  %11 = load %"struct.std::_Rb_tree_node_base"*, %"struct.std::_Rb_tree_node_base"** %10, align 8, !llfi_index !387
  ret %"struct.std::_Rb_tree_node_base"* %11, !llfi_index !388
}

; Function Attrs: mustprogress noinline nounwind uwtable
define linkonce_odr dso_local void @_ZNSt8_Rb_treeIiiSt9_IdentityIiESt4lessIiESaIiEE5clearEv(%"class.std::_Rb_tree"* nonnull align 8 dereferenceable(48) %0) #7 comdat align 2 personality i8* bitcast (i32 (...)* @__gxx_personality_v0 to i8*) {
  %2 = alloca %"class.std::_Rb_tree"*, align 8, !llfi_index !389
  store %"class.std::_Rb_tree"* %0, %"class.std::_Rb_tree"** %2, align 8, !llfi_index !390
  %3 = load %"class.std::_Rb_tree"*, %"class.std::_Rb_tree"** %2, align 8, !llfi_index !391
  %4 = call %"struct.std::_Rb_tree_node"* @_ZNSt8_Rb_treeIiiSt9_IdentityIiESt4lessIiESaIiEE8_M_beginEv(%"class.std::_Rb_tree"* nonnull align 8 dereferenceable(48) %3) #2, !llfi_index !392
  invoke void @_ZNSt8_Rb_treeIiiSt9_IdentityIiESt4lessIiESaIiEE8_M_eraseEPSt13_Rb_tree_nodeIiE(%"class.std::_Rb_tree"* nonnull align 8 dereferenceable(48) %3, %"struct.std::_Rb_tree_node"* %4)
          to label %5 unwind label %10, !llfi_index !393

5:                                                ; preds = %1
  %6 = getelementptr inbounds %"class.std::_Rb_tree", %"class.std::_Rb_tree"* %3, i32 0, i32 0, !llfi_index !394
  %7 = bitcast %"struct.std::_Rb_tree<int, int, std::_Identity<int>, std::less<int>>::_Rb_tree_impl"* %6 to i8*, !llfi_index !395
  %8 = getelementptr inbounds i8, i8* %7, i64 8, !llfi_index !396
  %9 = bitcast i8* %8 to %"struct.std::_Rb_tree_header"*, !llfi_index !397
  call void @_ZNSt15_Rb_tree_header8_M_resetEv(%"struct.std::_Rb_tree_header"* nonnull align 8 dereferenceable(40) %9), !llfi_index !398
  ret void, !llfi_index !399

10:                                               ; preds = %1
  %11 = landingpad { i8*, i32 }
          catch i8* null, !llfi_index !400
  %12 = extractvalue { i8*, i32 } %11, 0, !llfi_index !401
  call void @__clang_call_terminate(i8* %12) #15, !llfi_index !402
  unreachable, !llfi_index !403
}

; Function Attrs: mustprogress noinline nounwind uwtable
define linkonce_odr dso_local zeroext i1 @_ZStneRKSt23_Rb_tree_const_iteratorIiES2_(%"struct.std::_Rb_tree_const_iterator"* nonnull align 8 dereferenceable(8) %0, %"struct.std::_Rb_tree_const_iterator"* nonnull align 8 dereferenceable(8) %1) #7 comdat {
  %3 = alloca %"struct.std::_Rb_tree_const_iterator"*, align 8, !llfi_index !404
  %4 = alloca %"struct.std::_Rb_tree_const_iterator"*, align 8, !llfi_index !405
  store %"struct.std::_Rb_tree_const_iterator"* %0, %"struct.std::_Rb_tree_const_iterator"** %3, align 8, !llfi_index !406
  store %"struct.std::_Rb_tree_const_iterator"* %1, %"struct.std::_Rb_tree_const_iterator"** %4, align 8, !llfi_index !407
  %5 = load %"struct.std::_Rb_tree_const_iterator"*, %"struct.std::_Rb_tree_const_iterator"** %3, align 8, !llfi_index !408
  %6 = getelementptr inbounds %"struct.std::_Rb_tree_const_iterator", %"struct.std::_Rb_tree_const_iterator"* %5, i32 0, i32 0, !llfi_index !409
  %7 = load %"struct.std::_Rb_tree_node_base"*, %"struct.std::_Rb_tree_node_base"** %6, align 8, !llfi_index !410
  %8 = load %"struct.std::_Rb_tree_const_iterator"*, %"struct.std::_Rb_tree_const_iterator"** %4, align 8, !llfi_index !411
  %9 = getelementptr inbounds %"struct.std::_Rb_tree_const_iterator", %"struct.std::_Rb_tree_const_iterator"* %8, i32 0, i32 0, !llfi_index !412
  %10 = load %"struct.std::_Rb_tree_node_base"*, %"struct.std::_Rb_tree_node_base"** %9, align 8, !llfi_index !413
  %11 = icmp ne %"struct.std::_Rb_tree_node_base"* %7, %10, !llfi_index !414
  ret i1 %11, !llfi_index !415
}

; Function Attrs: mustprogress noinline nounwind uwtable
define linkonce_odr dso_local %"struct.std::_Rb_tree_node_base"* @_ZNSt23_Rb_tree_const_iteratorIiEppEi(%"struct.std::_Rb_tree_const_iterator"* nonnull align 8 dereferenceable(8) %0, i32 %1) #7 comdat align 2 {
  %3 = alloca %"struct.std::_Rb_tree_const_iterator", align 8, !llfi_index !416
  %4 = alloca %"struct.std::_Rb_tree_const_iterator"*, align 8, !llfi_index !417
  %5 = alloca i32, align 4, !llfi_index !418
  store %"struct.std::_Rb_tree_const_iterator"* %0, %"struct.std::_Rb_tree_const_iterator"** %4, align 8, !llfi_index !419
  store i32 %1, i32* %5, align 4, !llfi_index !420
  %6 = load %"struct.std::_Rb_tree_const_iterator"*, %"struct.std::_Rb_tree_const_iterator"** %4, align 8, !llfi_index !421
  %7 = bitcast %"struct.std::_Rb_tree_const_iterator"* %3 to i8*, !llfi_index !422
  %8 = bitcast %"struct.std::_Rb_tree_const_iterator"* %6 to i8*, !llfi_index !423
  call void @llvm.memcpy.p0i8.p0i8.i64(i8* align 8 %7, i8* align 8 %8, i64 8, i1 false), !llfi_index !424
  %9 = getelementptr inbounds %"struct.std::_Rb_tree_const_iterator", %"struct.std::_Rb_tree_const_iterator"* %6, i32 0, i32 0, !llfi_index !425
  %10 = load %"struct.std::_Rb_tree_node_base"*, %"struct.std::_Rb_tree_node_base"** %9, align 8, !llfi_index !426
  %11 = call %"struct.std::_Rb_tree_node_base"* @_ZSt18_Rb_tree_incrementPKSt18_Rb_tree_node_base(%"struct.std::_Rb_tree_node_base"* %10) #14, !llfi_index !427
  %12 = getelementptr inbounds %"struct.std::_Rb_tree_const_iterator", %"struct.std::_Rb_tree_const_iterator"* %6, i32 0, i32 0, !llfi_index !428
  store %"struct.std::_Rb_tree_node_base"* %11, %"struct.std::_Rb_tree_node_base"** %12, align 8, !llfi_index !429
  %13 = getelementptr inbounds %"struct.std::_Rb_tree_const_iterator", %"struct.std::_Rb_tree_const_iterator"* %3, i32 0, i32 0, !llfi_index !430
  %14 = load %"struct.std::_Rb_tree_node_base"*, %"struct.std::_Rb_tree_node_base"** %13, align 8, !llfi_index !431
  ret %"struct.std::_Rb_tree_node_base"* %14, !llfi_index !432
}

; Function Attrs: mustprogress noinline nounwind uwtable
define linkonce_odr dso_local void @_ZNSt8_Rb_treeIiiSt9_IdentityIiESt4lessIiESaIiEE12_M_erase_auxESt23_Rb_tree_const_iteratorIiE(%"class.std::_Rb_tree"* nonnull align 8 dereferenceable(48) %0, %"struct.std::_Rb_tree_node_base"* %1) #7 comdat align 2 {
  %3 = alloca %"struct.std::_Rb_tree_const_iterator", align 8, !llfi_index !433
  %4 = alloca %"class.std::_Rb_tree"*, align 8, !llfi_index !434
  %5 = alloca %"struct.std::_Rb_tree_node"*, align 8, !llfi_index !435
  %6 = getelementptr inbounds %"struct.std::_Rb_tree_const_iterator", %"struct.std::_Rb_tree_const_iterator"* %3, i32 0, i32 0, !llfi_index !436
  store %"struct.std::_Rb_tree_node_base"* %1, %"struct.std::_Rb_tree_node_base"** %6, align 8, !llfi_index !437
  store %"class.std::_Rb_tree"* %0, %"class.std::_Rb_tree"** %4, align 8, !llfi_index !438
  %7 = load %"class.std::_Rb_tree"*, %"class.std::_Rb_tree"** %4, align 8, !llfi_index !439
  %8 = getelementptr inbounds %"struct.std::_Rb_tree_const_iterator", %"struct.std::_Rb_tree_const_iterator"* %3, i32 0, i32 0, !llfi_index !440
  %9 = load %"struct.std::_Rb_tree_node_base"*, %"struct.std::_Rb_tree_node_base"** %8, align 8, !llfi_index !441
  %10 = getelementptr inbounds %"class.std::_Rb_tree", %"class.std::_Rb_tree"* %7, i32 0, i32 0, !llfi_index !442
  %11 = bitcast %"struct.std::_Rb_tree<int, int, std::_Identity<int>, std::less<int>>::_Rb_tree_impl"* %10 to i8*, !llfi_index !443
  %12 = getelementptr inbounds i8, i8* %11, i64 8, !llfi_index !444
  %13 = bitcast i8* %12 to %"struct.std::_Rb_tree_header"*, !llfi_index !445
  %14 = getelementptr inbounds %"struct.std::_Rb_tree_header", %"struct.std::_Rb_tree_header"* %13, i32 0, i32 0, !llfi_index !446
  %15 = call %"struct.std::_Rb_tree_node_base"* @_ZSt28_Rb_tree_rebalance_for_erasePSt18_Rb_tree_node_baseRS_(%"struct.std::_Rb_tree_node_base"* %9, %"struct.std::_Rb_tree_node_base"* nonnull align 8 dereferenceable(32) %14) #2, !llfi_index !447
  %16 = bitcast %"struct.std::_Rb_tree_node_base"* %15 to %"struct.std::_Rb_tree_node"*, !llfi_index !448
  store %"struct.std::_Rb_tree_node"* %16, %"struct.std::_Rb_tree_node"** %5, align 8, !llfi_index !449
  %17 = load %"struct.std::_Rb_tree_node"*, %"struct.std::_Rb_tree_node"** %5, align 8, !llfi_index !450
  call void @_ZNSt8_Rb_treeIiiSt9_IdentityIiESt4lessIiESaIiEE12_M_drop_nodeEPSt13_Rb_tree_nodeIiE(%"class.std::_Rb_tree"* nonnull align 8 dereferenceable(48) %7, %"struct.std::_Rb_tree_node"* %17) #2, !llfi_index !451
  %18 = getelementptr inbounds %"class.std::_Rb_tree", %"class.std::_Rb_tree"* %7, i32 0, i32 0, !llfi_index !452
  %19 = bitcast %"struct.std::_Rb_tree<int, int, std::_Identity<int>, std::less<int>>::_Rb_tree_impl"* %18 to i8*, !llfi_index !453
  %20 = getelementptr inbounds i8, i8* %19, i64 8, !llfi_index !454
  %21 = bitcast i8* %20 to %"struct.std::_Rb_tree_header"*, !llfi_index !455
  %22 = getelementptr inbounds %"struct.std::_Rb_tree_header", %"struct.std::_Rb_tree_header"* %21, i32 0, i32 1, !llfi_index !456
  %23 = load i64, i64* %22, align 8, !llfi_index !457
  %24 = add i64 %23, -1, !llfi_index !458
  store i64 %24, i64* %22, align 8, !llfi_index !459
  ret void, !llfi_index !460
}

; Function Attrs: nounwind
declare dso_local %"struct.std::_Rb_tree_node_base"* @_ZSt28_Rb_tree_rebalance_for_erasePSt18_Rb_tree_node_baseRS_(%"struct.std::_Rb_tree_node_base"*, %"struct.std::_Rb_tree_node_base"* nonnull align 8 dereferenceable(32)) #3

; Function Attrs: mustprogress noinline nounwind uwtable
define linkonce_odr dso_local void @_ZNSt8_Rb_treeIiiSt9_IdentityIiESt4lessIiESaIiEE12_M_drop_nodeEPSt13_Rb_tree_nodeIiE(%"class.std::_Rb_tree"* nonnull align 8 dereferenceable(48) %0, %"struct.std::_Rb_tree_node"* %1) #7 comdat align 2 {
  %3 = alloca %"class.std::_Rb_tree"*, align 8, !llfi_index !461
  %4 = alloca %"struct.std::_Rb_tree_node"*, align 8, !llfi_index !462
  store %"class.std::_Rb_tree"* %0, %"class.std::_Rb_tree"** %3, align 8, !llfi_index !463
  store %"struct.std::_Rb_tree_node"* %1, %"struct.std::_Rb_tree_node"** %4, align 8, !llfi_index !464
  %5 = load %"class.std::_Rb_tree"*, %"class.std::_Rb_tree"** %3, align 8, !llfi_index !465
  %6 = load %"struct.std::_Rb_tree_node"*, %"struct.std::_Rb_tree_node"** %4, align 8, !llfi_index !466
  call void @_ZNSt8_Rb_treeIiiSt9_IdentityIiESt4lessIiESaIiEE15_M_destroy_nodeEPSt13_Rb_tree_nodeIiE(%"class.std::_Rb_tree"* nonnull align 8 dereferenceable(48) %5, %"struct.std::_Rb_tree_node"* %6) #2, !llfi_index !467
  %7 = load %"struct.std::_Rb_tree_node"*, %"struct.std::_Rb_tree_node"** %4, align 8, !llfi_index !468
  call void @_ZNSt8_Rb_treeIiiSt9_IdentityIiESt4lessIiESaIiEE11_M_put_nodeEPSt13_Rb_tree_nodeIiE(%"class.std::_Rb_tree"* nonnull align 8 dereferenceable(48) %5, %"struct.std::_Rb_tree_node"* %7) #2, !llfi_index !469
  ret void, !llfi_index !470
}

; Function Attrs: mustprogress noinline nounwind uwtable
define linkonce_odr dso_local void @_ZNSt8_Rb_treeIiiSt9_IdentityIiESt4lessIiESaIiEE15_M_destroy_nodeEPSt13_Rb_tree_nodeIiE(%"class.std::_Rb_tree"* nonnull align 8 dereferenceable(48) %0, %"struct.std::_Rb_tree_node"* %1) #7 comdat align 2 personality i8* bitcast (i32 (...)* @__gxx_personality_v0 to i8*) {
  %3 = alloca %"class.std::_Rb_tree"*, align 8, !llfi_index !471
  %4 = alloca %"struct.std::_Rb_tree_node"*, align 8, !llfi_index !472
  store %"class.std::_Rb_tree"* %0, %"class.std::_Rb_tree"** %3, align 8, !llfi_index !473
  store %"struct.std::_Rb_tree_node"* %1, %"struct.std::_Rb_tree_node"** %4, align 8, !llfi_index !474
  %5 = load %"class.std::_Rb_tree"*, %"class.std::_Rb_tree"** %3, align 8, !llfi_index !475
  %6 = call nonnull align 1 dereferenceable(1) %"class.std::ios_base::Init"* @_ZNSt8_Rb_treeIiiSt9_IdentityIiESt4lessIiESaIiEE21_M_get_Node_allocatorEv(%"class.std::_Rb_tree"* nonnull align 8 dereferenceable(48) %5) #2, !llfi_index !476
  %7 = load %"struct.std::_Rb_tree_node"*, %"struct.std::_Rb_tree_node"** %4, align 8, !llfi_index !477
  %8 = invoke i32* @_ZNSt13_Rb_tree_nodeIiE9_M_valptrEv(%"struct.std::_Rb_tree_node"* nonnull align 8 dereferenceable(36) %7)
          to label %9 unwind label %11, !llfi_index !478

9:                                                ; preds = %2
  call void @_ZNSt16allocator_traitsISaISt13_Rb_tree_nodeIiEEE7destroyIiEEvRS2_PT_(%"class.std::ios_base::Init"* nonnull align 1 dereferenceable(1) %6, i32* %8) #2, !llfi_index !479
  %10 = load %"struct.std::_Rb_tree_node"*, %"struct.std::_Rb_tree_node"** %4, align 8, !llfi_index !480
  ret void, !llfi_index !481

11:                                               ; preds = %2
  %12 = landingpad { i8*, i32 }
          catch i8* null, !llfi_index !482
  %13 = extractvalue { i8*, i32 } %12, 0, !llfi_index !483
  call void @__clang_call_terminate(i8* %13) #15, !llfi_index !484
  unreachable, !llfi_index !485
}

; Function Attrs: mustprogress noinline nounwind uwtable
define linkonce_odr dso_local void @_ZNSt8_Rb_treeIiiSt9_IdentityIiESt4lessIiESaIiEE11_M_put_nodeEPSt13_Rb_tree_nodeIiE(%"class.std::_Rb_tree"* nonnull align 8 dereferenceable(48) %0, %"struct.std::_Rb_tree_node"* %1) #7 comdat align 2 personality i8* bitcast (i32 (...)* @__gxx_personality_v0 to i8*) {
  %3 = alloca %"class.std::_Rb_tree"*, align 8, !llfi_index !486
  %4 = alloca %"struct.std::_Rb_tree_node"*, align 8, !llfi_index !487
  store %"class.std::_Rb_tree"* %0, %"class.std::_Rb_tree"** %3, align 8, !llfi_index !488
  store %"struct.std::_Rb_tree_node"* %1, %"struct.std::_Rb_tree_node"** %4, align 8, !llfi_index !489
  %5 = load %"class.std::_Rb_tree"*, %"class.std::_Rb_tree"** %3, align 8, !llfi_index !490
  %6 = call nonnull align 1 dereferenceable(1) %"class.std::ios_base::Init"* @_ZNSt8_Rb_treeIiiSt9_IdentityIiESt4lessIiESaIiEE21_M_get_Node_allocatorEv(%"class.std::_Rb_tree"* nonnull align 8 dereferenceable(48) %5) #2, !llfi_index !491
  %7 = load %"struct.std::_Rb_tree_node"*, %"struct.std::_Rb_tree_node"** %4, align 8, !llfi_index !492
  invoke void @_ZNSt16allocator_traitsISaISt13_Rb_tree_nodeIiEEE10deallocateERS2_PS1_m(%"class.std::ios_base::Init"* nonnull align 1 dereferenceable(1) %6, %"struct.std::_Rb_tree_node"* %7, i64 1)
          to label %8 unwind label %9, !llfi_index !493

8:                                                ; preds = %2
  ret void, !llfi_index !494

9:                                                ; preds = %2
  %10 = landingpad { i8*, i32 }
          catch i8* null, !llfi_index !495
  %11 = extractvalue { i8*, i32 } %10, 0, !llfi_index !496
  call void @__clang_call_terminate(i8* %11) #15, !llfi_index !497
  unreachable, !llfi_index !498
}

; Function Attrs: mustprogress noinline nounwind uwtable
define linkonce_odr dso_local nonnull align 1 dereferenceable(1) %"class.std::ios_base::Init"* @_ZNSt8_Rb_treeIiiSt9_IdentityIiESt4lessIiESaIiEE21_M_get_Node_allocatorEv(%"class.std::_Rb_tree"* nonnull align 8 dereferenceable(48) %0) #7 comdat align 2 {
  %2 = alloca %"class.std::_Rb_tree"*, align 8, !llfi_index !499
  store %"class.std::_Rb_tree"* %0, %"class.std::_Rb_tree"** %2, align 8, !llfi_index !500
  %3 = load %"class.std::_Rb_tree"*, %"class.std::_Rb_tree"** %2, align 8, !llfi_index !501
  %4 = getelementptr inbounds %"class.std::_Rb_tree", %"class.std::_Rb_tree"* %3, i32 0, i32 0, !llfi_index !502
  %5 = bitcast %"struct.std::_Rb_tree<int, int, std::_Identity<int>, std::less<int>>::_Rb_tree_impl"* %4 to %"class.std::ios_base::Init"*, !llfi_index !503
  ret %"class.std::ios_base::Init"* %5, !llfi_index !504
}

; Function Attrs: mustprogress noinline uwtable
define linkonce_odr dso_local void @_ZNSt16allocator_traitsISaISt13_Rb_tree_nodeIiEEE10deallocateERS2_PS1_m(%"class.std::ios_base::Init"* nonnull align 1 dereferenceable(1) %0, %"struct.std::_Rb_tree_node"* %1, i64 %2) #6 comdat align 2 {
  %4 = alloca %"class.std::ios_base::Init"*, align 8, !llfi_index !505
  %5 = alloca %"struct.std::_Rb_tree_node"*, align 8, !llfi_index !506
  %6 = alloca i64, align 8, !llfi_index !507
  store %"class.std::ios_base::Init"* %0, %"class.std::ios_base::Init"** %4, align 8, !llfi_index !508
  store %"struct.std::_Rb_tree_node"* %1, %"struct.std::_Rb_tree_node"** %5, align 8, !llfi_index !509
  store i64 %2, i64* %6, align 8, !llfi_index !510
  %7 = load %"class.std::ios_base::Init"*, %"class.std::ios_base::Init"** %4, align 8, !llfi_index !511
  %8 = bitcast %"class.std::ios_base::Init"* %7 to %"class.std::ios_base::Init"*, !llfi_index !512
  %9 = load %"struct.std::_Rb_tree_node"*, %"struct.std::_Rb_tree_node"** %5, align 8, !llfi_index !513
  %10 = load i64, i64* %6, align 8, !llfi_index !514
  call void @_ZN9__gnu_cxx13new_allocatorISt13_Rb_tree_nodeIiEE10deallocateEPS2_m(%"class.std::ios_base::Init"* nonnull align 1 dereferenceable(1) %8, %"struct.std::_Rb_tree_node"* %9, i64 %10), !llfi_index !515
  ret void, !llfi_index !516
}

; Function Attrs: noinline noreturn nounwind
define linkonce_odr hidden void @__clang_call_terminate(i8* %0) #9 comdat {
  %2 = call i8* @__cxa_begin_catch(i8* %0) #2, !llfi_index !517
  call void @_ZSt9terminatev() #15, !llfi_index !518
  unreachable, !llfi_index !519
}

declare dso_local i8* @__cxa_begin_catch(i8*)

declare dso_local void @_ZSt9terminatev()

; Function Attrs: mustprogress noinline nounwind uwtable
define linkonce_odr dso_local void @_ZN9__gnu_cxx13new_allocatorISt13_Rb_tree_nodeIiEE10deallocateEPS2_m(%"class.std::ios_base::Init"* nonnull align 1 dereferenceable(1) %0, %"struct.std::_Rb_tree_node"* %1, i64 %2) #7 comdat align 2 {
  %4 = alloca %"class.std::ios_base::Init"*, align 8, !llfi_index !520
  %5 = alloca %"struct.std::_Rb_tree_node"*, align 8, !llfi_index !521
  %6 = alloca i64, align 8, !llfi_index !522
  store %"class.std::ios_base::Init"* %0, %"class.std::ios_base::Init"** %4, align 8, !llfi_index !523
  store %"struct.std::_Rb_tree_node"* %1, %"struct.std::_Rb_tree_node"** %5, align 8, !llfi_index !524
  store i64 %2, i64* %6, align 8, !llfi_index !525
  %7 = load %"class.std::ios_base::Init"*, %"class.std::ios_base::Init"** %4, align 8, !llfi_index !526
  %8 = load %"struct.std::_Rb_tree_node"*, %"struct.std::_Rb_tree_node"** %5, align 8, !llfi_index !527
  %9 = bitcast %"struct.std::_Rb_tree_node"* %8 to i8*, !llfi_index !528
  call void @_ZdlPv(i8* %9) #2, !llfi_index !529
  ret void, !llfi_index !530
}

; Function Attrs: nobuiltin nounwind
declare dso_local void @_ZdlPv(i8*) #10

; Function Attrs: mustprogress noinline nounwind uwtable
define linkonce_odr dso_local i32* @_ZNSt13_Rb_tree_nodeIiE9_M_valptrEv(%"struct.std::_Rb_tree_node"* nonnull align 8 dereferenceable(36) %0) #7 comdat align 2 {
  %2 = alloca %"struct.std::_Rb_tree_node"*, align 8, !llfi_index !531
  store %"struct.std::_Rb_tree_node"* %0, %"struct.std::_Rb_tree_node"** %2, align 8, !llfi_index !532
  %3 = load %"struct.std::_Rb_tree_node"*, %"struct.std::_Rb_tree_node"** %2, align 8, !llfi_index !533
  %4 = getelementptr inbounds %"struct.std::_Rb_tree_node", %"struct.std::_Rb_tree_node"* %3, i32 0, i32 1, !llfi_index !534
  %5 = call i32* @_ZN9__gnu_cxx16__aligned_membufIiE6_M_ptrEv(%"struct.__gnu_cxx::__aligned_membuf"* nonnull align 4 dereferenceable(4) %4) #2, !llfi_index !535
  ret i32* %5, !llfi_index !536
}

; Function Attrs: mustprogress noinline nounwind uwtable
define linkonce_odr dso_local void @_ZNSt16allocator_traitsISaISt13_Rb_tree_nodeIiEEE7destroyIiEEvRS2_PT_(%"class.std::ios_base::Init"* nonnull align 1 dereferenceable(1) %0, i32* %1) #7 comdat align 2 {
  %3 = alloca %"class.std::ios_base::Init"*, align 8, !llfi_index !537
  %4 = alloca i32*, align 8, !llfi_index !538
  store %"class.std::ios_base::Init"* %0, %"class.std::ios_base::Init"** %3, align 8, !llfi_index !539
  store i32* %1, i32** %4, align 8, !llfi_index !540
  %5 = load %"class.std::ios_base::Init"*, %"class.std::ios_base::Init"** %3, align 8, !llfi_index !541
  %6 = bitcast %"class.std::ios_base::Init"* %5 to %"class.std::ios_base::Init"*, !llfi_index !542
  %7 = load i32*, i32** %4, align 8, !llfi_index !543
  call void @_ZN9__gnu_cxx13new_allocatorISt13_Rb_tree_nodeIiEE7destroyIiEEvPT_(%"class.std::ios_base::Init"* nonnull align 1 dereferenceable(1) %6, i32* %7) #2, !llfi_index !544
  ret void, !llfi_index !545
}

; Function Attrs: mustprogress noinline nounwind uwtable
define linkonce_odr dso_local void @_ZN9__gnu_cxx13new_allocatorISt13_Rb_tree_nodeIiEE7destroyIiEEvPT_(%"class.std::ios_base::Init"* nonnull align 1 dereferenceable(1) %0, i32* %1) #7 comdat align 2 {
  %3 = alloca %"class.std::ios_base::Init"*, align 8, !llfi_index !546
  %4 = alloca i32*, align 8, !llfi_index !547
  store %"class.std::ios_base::Init"* %0, %"class.std::ios_base::Init"** %3, align 8, !llfi_index !548
  store i32* %1, i32** %4, align 8, !llfi_index !549
  %5 = load %"class.std::ios_base::Init"*, %"class.std::ios_base::Init"** %3, align 8, !llfi_index !550
  %6 = load i32*, i32** %4, align 8, !llfi_index !551
  ret void, !llfi_index !552
}

; Function Attrs: mustprogress noinline nounwind uwtable
define linkonce_odr dso_local i32* @_ZN9__gnu_cxx16__aligned_membufIiE6_M_ptrEv(%"struct.__gnu_cxx::__aligned_membuf"* nonnull align 4 dereferenceable(4) %0) #7 comdat align 2 {
  %2 = alloca %"struct.__gnu_cxx::__aligned_membuf"*, align 8, !llfi_index !553
  store %"struct.__gnu_cxx::__aligned_membuf"* %0, %"struct.__gnu_cxx::__aligned_membuf"** %2, align 8, !llfi_index !554
  %3 = load %"struct.__gnu_cxx::__aligned_membuf"*, %"struct.__gnu_cxx::__aligned_membuf"** %2, align 8, !llfi_index !555
  %4 = call i8* @_ZN9__gnu_cxx16__aligned_membufIiE7_M_addrEv(%"struct.__gnu_cxx::__aligned_membuf"* nonnull align 4 dereferenceable(4) %3) #2, !llfi_index !556
  %5 = bitcast i8* %4 to i32*, !llfi_index !557
  ret i32* %5, !llfi_index !558
}

; Function Attrs: mustprogress noinline nounwind uwtable
define linkonce_odr dso_local i8* @_ZN9__gnu_cxx16__aligned_membufIiE7_M_addrEv(%"struct.__gnu_cxx::__aligned_membuf"* nonnull align 4 dereferenceable(4) %0) #7 comdat align 2 {
  %2 = alloca %"struct.__gnu_cxx::__aligned_membuf"*, align 8, !llfi_index !559
  store %"struct.__gnu_cxx::__aligned_membuf"* %0, %"struct.__gnu_cxx::__aligned_membuf"** %2, align 8, !llfi_index !560
  %3 = load %"struct.__gnu_cxx::__aligned_membuf"*, %"struct.__gnu_cxx::__aligned_membuf"** %2, align 8, !llfi_index !561
  %4 = getelementptr inbounds %"struct.__gnu_cxx::__aligned_membuf", %"struct.__gnu_cxx::__aligned_membuf"* %3, i32 0, i32 0, !llfi_index !562
  %5 = bitcast [4 x i8]* %4 to i8*, !llfi_index !563
  ret i8* %5, !llfi_index !564
}

; Function Attrs: argmemonly nofree nounwind willreturn
declare void @llvm.memcpy.p0i8.p0i8.i64(i8* noalias nocapture writeonly, i8* noalias nocapture readonly, i64, i1 immarg) #11

; Function Attrs: nounwind readonly willreturn
declare dso_local %"struct.std::_Rb_tree_node_base"* @_ZSt18_Rb_tree_incrementPKSt18_Rb_tree_node_base(%"struct.std::_Rb_tree_node_base"*) #8

; Function Attrs: mustprogress noinline nounwind uwtable
define linkonce_odr dso_local %"struct.std::_Rb_tree_node"* @_ZNSt8_Rb_treeIiiSt9_IdentityIiESt4lessIiESaIiEE8_M_beginEv(%"class.std::_Rb_tree"* nonnull align 8 dereferenceable(48) %0) #7 comdat align 2 {
  %2 = alloca %"class.std::_Rb_tree"*, align 8, !llfi_index !565
  store %"class.std::_Rb_tree"* %0, %"class.std::_Rb_tree"** %2, align 8, !llfi_index !566
  %3 = load %"class.std::_Rb_tree"*, %"class.std::_Rb_tree"** %2, align 8, !llfi_index !567
  %4 = getelementptr inbounds %"class.std::_Rb_tree", %"class.std::_Rb_tree"* %3, i32 0, i32 0, !llfi_index !568
  %5 = bitcast %"struct.std::_Rb_tree<int, int, std::_Identity<int>, std::less<int>>::_Rb_tree_impl"* %4 to i8*, !llfi_index !569
  %6 = getelementptr inbounds i8, i8* %5, i64 8, !llfi_index !570
  %7 = bitcast i8* %6 to %"struct.std::_Rb_tree_header"*, !llfi_index !571
  %8 = getelementptr inbounds %"struct.std::_Rb_tree_header", %"struct.std::_Rb_tree_header"* %7, i32 0, i32 0, !llfi_index !572
  %9 = getelementptr inbounds %"struct.std::_Rb_tree_node_base", %"struct.std::_Rb_tree_node_base"* %8, i32 0, i32 1, !llfi_index !573
  %10 = load %"struct.std::_Rb_tree_node_base"*, %"struct.std::_Rb_tree_node_base"** %9, align 8, !llfi_index !574
  %11 = bitcast %"struct.std::_Rb_tree_node_base"* %10 to %"struct.std::_Rb_tree_node"*, !llfi_index !575
  ret %"struct.std::_Rb_tree_node"* %11, !llfi_index !576
}

; Function Attrs: mustprogress noinline uwtable
define linkonce_odr dso_local void @_ZNSt8_Rb_treeIiiSt9_IdentityIiESt4lessIiESaIiEE8_M_eraseEPSt13_Rb_tree_nodeIiE(%"class.std::_Rb_tree"* nonnull align 8 dereferenceable(48) %0, %"struct.std::_Rb_tree_node"* %1) #6 comdat align 2 {
  %3 = alloca %"class.std::_Rb_tree"*, align 8, !llfi_index !577
  %4 = alloca %"struct.std::_Rb_tree_node"*, align 8, !llfi_index !578
  %5 = alloca %"struct.std::_Rb_tree_node"*, align 8, !llfi_index !579
  store %"class.std::_Rb_tree"* %0, %"class.std::_Rb_tree"** %3, align 8, !llfi_index !580
  store %"struct.std::_Rb_tree_node"* %1, %"struct.std::_Rb_tree_node"** %4, align 8, !llfi_index !581
  %6 = load %"class.std::_Rb_tree"*, %"class.std::_Rb_tree"** %3, align 8, !llfi_index !582
  br label %7, !llfi_index !583

7:                                                ; preds = %10, %2
  %8 = load %"struct.std::_Rb_tree_node"*, %"struct.std::_Rb_tree_node"** %4, align 8, !llfi_index !584
  %9 = icmp ne %"struct.std::_Rb_tree_node"* %8, null, !llfi_index !585
  br i1 %9, label %10, label %19, !llfi_index !586

10:                                               ; preds = %7
  %11 = load %"struct.std::_Rb_tree_node"*, %"struct.std::_Rb_tree_node"** %4, align 8, !llfi_index !587
  %12 = bitcast %"struct.std::_Rb_tree_node"* %11 to %"struct.std::_Rb_tree_node_base"*, !llfi_index !588
  %13 = call %"struct.std::_Rb_tree_node"* @_ZNSt8_Rb_treeIiiSt9_IdentityIiESt4lessIiESaIiEE8_S_rightEPSt18_Rb_tree_node_base(%"struct.std::_Rb_tree_node_base"* %12) #2, !llfi_index !589
  call void @_ZNSt8_Rb_treeIiiSt9_IdentityIiESt4lessIiESaIiEE8_M_eraseEPSt13_Rb_tree_nodeIiE(%"class.std::_Rb_tree"* nonnull align 8 dereferenceable(48) %6, %"struct.std::_Rb_tree_node"* %13), !llfi_index !590
  %14 = load %"struct.std::_Rb_tree_node"*, %"struct.std::_Rb_tree_node"** %4, align 8, !llfi_index !591
  %15 = bitcast %"struct.std::_Rb_tree_node"* %14 to %"struct.std::_Rb_tree_node_base"*, !llfi_index !592
  %16 = call %"struct.std::_Rb_tree_node"* @_ZNSt8_Rb_treeIiiSt9_IdentityIiESt4lessIiESaIiEE7_S_leftEPSt18_Rb_tree_node_base(%"struct.std::_Rb_tree_node_base"* %15) #2, !llfi_index !593
  store %"struct.std::_Rb_tree_node"* %16, %"struct.std::_Rb_tree_node"** %5, align 8, !llfi_index !594
  %17 = load %"struct.std::_Rb_tree_node"*, %"struct.std::_Rb_tree_node"** %4, align 8, !llfi_index !595
  call void @_ZNSt8_Rb_treeIiiSt9_IdentityIiESt4lessIiESaIiEE12_M_drop_nodeEPSt13_Rb_tree_nodeIiE(%"class.std::_Rb_tree"* nonnull align 8 dereferenceable(48) %6, %"struct.std::_Rb_tree_node"* %17) #2, !llfi_index !596
  %18 = load %"struct.std::_Rb_tree_node"*, %"struct.std::_Rb_tree_node"** %5, align 8, !llfi_index !597
  store %"struct.std::_Rb_tree_node"* %18, %"struct.std::_Rb_tree_node"** %4, align 8, !llfi_index !598
  br label %7, !llvm.loop !599, !llfi_index !600

19:                                               ; preds = %7
  ret void, !llfi_index !601
}

; Function Attrs: mustprogress noinline nounwind uwtable
define linkonce_odr dso_local void @_ZNSt15_Rb_tree_header8_M_resetEv(%"struct.std::_Rb_tree_header"* nonnull align 8 dereferenceable(40) %0) #7 comdat align 2 {
  %2 = alloca %"struct.std::_Rb_tree_header"*, align 8, !llfi_index !602
  store %"struct.std::_Rb_tree_header"* %0, %"struct.std::_Rb_tree_header"** %2, align 8, !llfi_index !603
  %3 = load %"struct.std::_Rb_tree_header"*, %"struct.std::_Rb_tree_header"** %2, align 8, !llfi_index !604
  %4 = getelementptr inbounds %"struct.std::_Rb_tree_header", %"struct.std::_Rb_tree_header"* %3, i32 0, i32 0, !llfi_index !605
  %5 = getelementptr inbounds %"struct.std::_Rb_tree_node_base", %"struct.std::_Rb_tree_node_base"* %4, i32 0, i32 1, !llfi_index !606
  store %"struct.std::_Rb_tree_node_base"* null, %"struct.std::_Rb_tree_node_base"** %5, align 8, !llfi_index !607
  %6 = getelementptr inbounds %"struct.std::_Rb_tree_header", %"struct.std::_Rb_tree_header"* %3, i32 0, i32 0, !llfi_index !608
  %7 = getelementptr inbounds %"struct.std::_Rb_tree_header", %"struct.std::_Rb_tree_header"* %3, i32 0, i32 0, !llfi_index !609
  %8 = getelementptr inbounds %"struct.std::_Rb_tree_node_base", %"struct.std::_Rb_tree_node_base"* %7, i32 0, i32 2, !llfi_index !610
  store %"struct.std::_Rb_tree_node_base"* %6, %"struct.std::_Rb_tree_node_base"** %8, align 8, !llfi_index !611
  %9 = getelementptr inbounds %"struct.std::_Rb_tree_header", %"struct.std::_Rb_tree_header"* %3, i32 0, i32 0, !llfi_index !612
  %10 = getelementptr inbounds %"struct.std::_Rb_tree_header", %"struct.std::_Rb_tree_header"* %3, i32 0, i32 0, !llfi_index !613
  %11 = getelementptr inbounds %"struct.std::_Rb_tree_node_base", %"struct.std::_Rb_tree_node_base"* %10, i32 0, i32 3, !llfi_index !614
  store %"struct.std::_Rb_tree_node_base"* %9, %"struct.std::_Rb_tree_node_base"** %11, align 8, !llfi_index !615
  %12 = getelementptr inbounds %"struct.std::_Rb_tree_header", %"struct.std::_Rb_tree_header"* %3, i32 0, i32 1, !llfi_index !616
  store i64 0, i64* %12, align 8, !llfi_index !617
  ret void, !llfi_index !618
}

; Function Attrs: mustprogress noinline nounwind uwtable
define linkonce_odr dso_local %"struct.std::_Rb_tree_node"* @_ZNSt8_Rb_treeIiiSt9_IdentityIiESt4lessIiESaIiEE8_S_rightEPSt18_Rb_tree_node_base(%"struct.std::_Rb_tree_node_base"* %0) #7 comdat align 2 {
  %2 = alloca %"struct.std::_Rb_tree_node_base"*, align 8, !llfi_index !619
  store %"struct.std::_Rb_tree_node_base"* %0, %"struct.std::_Rb_tree_node_base"** %2, align 8, !llfi_index !620
  %3 = load %"struct.std::_Rb_tree_node_base"*, %"struct.std::_Rb_tree_node_base"** %2, align 8, !llfi_index !621
  %4 = getelementptr inbounds %"struct.std::_Rb_tree_node_base", %"struct.std::_Rb_tree_node_base"* %3, i32 0, i32 3, !llfi_index !622
  %5 = load %"struct.std::_Rb_tree_node_base"*, %"struct.std::_Rb_tree_node_base"** %4, align 8, !llfi_index !623
  %6 = bitcast %"struct.std::_Rb_tree_node_base"* %5 to %"struct.std::_Rb_tree_node"*, !llfi_index !624
  ret %"struct.std::_Rb_tree_node"* %6, !llfi_index !625
}

; Function Attrs: mustprogress noinline nounwind uwtable
define linkonce_odr dso_local %"struct.std::_Rb_tree_node"* @_ZNSt8_Rb_treeIiiSt9_IdentityIiESt4lessIiESaIiEE7_S_leftEPSt18_Rb_tree_node_base(%"struct.std::_Rb_tree_node_base"* %0) #7 comdat align 2 {
  %2 = alloca %"struct.std::_Rb_tree_node_base"*, align 8, !llfi_index !626
  store %"struct.std::_Rb_tree_node_base"* %0, %"struct.std::_Rb_tree_node_base"** %2, align 8, !llfi_index !627
  %3 = load %"struct.std::_Rb_tree_node_base"*, %"struct.std::_Rb_tree_node_base"** %2, align 8, !llfi_index !628
  %4 = getelementptr inbounds %"struct.std::_Rb_tree_node_base", %"struct.std::_Rb_tree_node_base"* %3, i32 0, i32 2, !llfi_index !629
  %5 = load %"struct.std::_Rb_tree_node_base"*, %"struct.std::_Rb_tree_node_base"** %4, align 8, !llfi_index !630
  %6 = bitcast %"struct.std::_Rb_tree_node_base"* %5 to %"struct.std::_Rb_tree_node"*, !llfi_index !631
  ret %"struct.std::_Rb_tree_node"* %6, !llfi_index !632
}

; Function Attrs: noinline nounwind uwtable
define linkonce_odr dso_local void @_ZNSt17_Rb_tree_iteratorIiEC2EPSt18_Rb_tree_node_base(%"struct.std::_Rb_tree_const_iterator"* nonnull align 8 dereferenceable(8) %0, %"struct.std::_Rb_tree_node_base"* %1) unnamed_addr #5 comdat align 2 {
  %3 = alloca %"struct.std::_Rb_tree_const_iterator"*, align 8, !llfi_index !633
  %4 = alloca %"struct.std::_Rb_tree_node_base"*, align 8, !llfi_index !634
  store %"struct.std::_Rb_tree_const_iterator"* %0, %"struct.std::_Rb_tree_const_iterator"** %3, align 8, !llfi_index !635
  store %"struct.std::_Rb_tree_node_base"* %1, %"struct.std::_Rb_tree_node_base"** %4, align 8, !llfi_index !636
  %5 = load %"struct.std::_Rb_tree_const_iterator"*, %"struct.std::_Rb_tree_const_iterator"** %3, align 8, !llfi_index !637
  %6 = getelementptr inbounds %"struct.std::_Rb_tree_const_iterator", %"struct.std::_Rb_tree_const_iterator"* %5, i32 0, i32 0, !llfi_index !638
  %7 = load %"struct.std::_Rb_tree_node_base"*, %"struct.std::_Rb_tree_node_base"** %4, align 8, !llfi_index !639
  store %"struct.std::_Rb_tree_node_base"* %7, %"struct.std::_Rb_tree_node_base"** %6, align 8, !llfi_index !640
  ret void, !llfi_index !641
}

; Function Attrs: mustprogress noinline nounwind uwtable
define linkonce_odr dso_local %"struct.std::_Rb_tree_node_base"* @_ZNSt8_Rb_treeIiiSt9_IdentityIiESt4lessIiESaIiEE6_M_endEv(%"class.std::_Rb_tree"* nonnull align 8 dereferenceable(48) %0) #7 comdat align 2 {
  %2 = alloca %"class.std::_Rb_tree"*, align 8, !llfi_index !642
  store %"class.std::_Rb_tree"* %0, %"class.std::_Rb_tree"** %2, align 8, !llfi_index !643
  %3 = load %"class.std::_Rb_tree"*, %"class.std::_Rb_tree"** %2, align 8, !llfi_index !644
  %4 = getelementptr inbounds %"class.std::_Rb_tree", %"class.std::_Rb_tree"* %3, i32 0, i32 0, !llfi_index !645
  %5 = bitcast %"struct.std::_Rb_tree<int, int, std::_Identity<int>, std::less<int>>::_Rb_tree_impl"* %4 to i8*, !llfi_index !646
  %6 = getelementptr inbounds i8, i8* %5, i64 8, !llfi_index !647
  %7 = bitcast i8* %6 to %"struct.std::_Rb_tree_header"*, !llfi_index !648
  %8 = getelementptr inbounds %"struct.std::_Rb_tree_header", %"struct.std::_Rb_tree_header"* %7, i32 0, i32 0, !llfi_index !649
  ret %"struct.std::_Rb_tree_node_base"* %8, !llfi_index !650
}

; Function Attrs: mustprogress noinline uwtable
define linkonce_odr dso_local nonnull align 4 dereferenceable(4) i32* @_ZNSt8_Rb_treeIiiSt9_IdentityIiESt4lessIiESaIiEE6_S_keyEPKSt13_Rb_tree_nodeIiE(%"struct.std::_Rb_tree_node"* %0) #6 comdat align 2 {
  %2 = alloca %"struct.std::_Rb_tree_node"*, align 8, !llfi_index !651
  %3 = alloca %"class.std::ios_base::Init", align 1, !llfi_index !652
  store %"struct.std::_Rb_tree_node"* %0, %"struct.std::_Rb_tree_node"** %2, align 8, !llfi_index !653
  %4 = load %"struct.std::_Rb_tree_node"*, %"struct.std::_Rb_tree_node"** %2, align 8, !llfi_index !654
  %5 = call i32* @_ZNKSt13_Rb_tree_nodeIiE9_M_valptrEv(%"struct.std::_Rb_tree_node"* nonnull align 8 dereferenceable(36) %4), !llfi_index !655
  %6 = call nonnull align 4 dereferenceable(4) i32* @_ZNKSt9_IdentityIiEclERKi(%"class.std::ios_base::Init"* nonnull align 1 dereferenceable(1) %3, i32* nonnull align 4 dereferenceable(4) %5), !llfi_index !656
  ret i32* %6, !llfi_index !657
}

; Function Attrs: mustprogress noinline nounwind uwtable
define linkonce_odr dso_local zeroext i1 @_ZNKSt4lessIiEclERKiS2_(%"class.std::ios_base::Init"* nonnull align 1 dereferenceable(1) %0, i32* nonnull align 4 dereferenceable(4) %1, i32* nonnull align 4 dereferenceable(4) %2) #7 comdat align 2 {
  %4 = alloca %"class.std::ios_base::Init"*, align 8, !llfi_index !658
  %5 = alloca i32*, align 8, !llfi_index !659
  %6 = alloca i32*, align 8, !llfi_index !660
  store %"class.std::ios_base::Init"* %0, %"class.std::ios_base::Init"** %4, align 8, !llfi_index !661
  store i32* %1, i32** %5, align 8, !llfi_index !662
  store i32* %2, i32** %6, align 8, !llfi_index !663
  %7 = load %"class.std::ios_base::Init"*, %"class.std::ios_base::Init"** %4, align 8, !llfi_index !664
  %8 = load i32*, i32** %5, align 8, !llfi_index !665
  %9 = load i32, i32* %8, align 4, !llfi_index !666
  %10 = load i32*, i32** %6, align 8, !llfi_index !667
  %11 = load i32, i32* %10, align 4, !llfi_index !668
  %12 = icmp slt i32 %9, %11, !llfi_index !669
  ret i1 %12, !llfi_index !670
}

; Function Attrs: mustprogress noinline uwtable
define linkonce_odr dso_local %"struct.std::_Rb_tree_node_base"* @_ZNSt8_Rb_treeIiiSt9_IdentityIiESt4lessIiESaIiEE14_M_lower_boundEPSt13_Rb_tree_nodeIiEPSt18_Rb_tree_node_baseRKi(%"class.std::_Rb_tree"* nonnull align 8 dereferenceable(48) %0, %"struct.std::_Rb_tree_node"* %1, %"struct.std::_Rb_tree_node_base"* %2, i32* nonnull align 4 dereferenceable(4) %3) #6 comdat align 2 {
  %5 = alloca %"struct.std::_Rb_tree_const_iterator", align 8, !llfi_index !671
  %6 = alloca %"class.std::_Rb_tree"*, align 8, !llfi_index !672
  %7 = alloca %"struct.std::_Rb_tree_node"*, align 8, !llfi_index !673
  %8 = alloca %"struct.std::_Rb_tree_node_base"*, align 8, !llfi_index !674
  %9 = alloca i32*, align 8, !llfi_index !675
  store %"class.std::_Rb_tree"* %0, %"class.std::_Rb_tree"** %6, align 8, !llfi_index !676
  store %"struct.std::_Rb_tree_node"* %1, %"struct.std::_Rb_tree_node"** %7, align 8, !llfi_index !677
  store %"struct.std::_Rb_tree_node_base"* %2, %"struct.std::_Rb_tree_node_base"** %8, align 8, !llfi_index !678
  store i32* %3, i32** %9, align 8, !llfi_index !679
  %10 = load %"class.std::_Rb_tree"*, %"class.std::_Rb_tree"** %6, align 8, !llfi_index !680
  br label %11, !llfi_index !681

11:                                               ; preds = %32, %4
  %12 = load %"struct.std::_Rb_tree_node"*, %"struct.std::_Rb_tree_node"** %7, align 8, !llfi_index !682
  %13 = icmp ne %"struct.std::_Rb_tree_node"* %12, null, !llfi_index !683
  br i1 %13, label %14, label %33, !llfi_index !684

14:                                               ; preds = %11
  %15 = getelementptr inbounds %"class.std::_Rb_tree", %"class.std::_Rb_tree"* %10, i32 0, i32 0, !llfi_index !685
  %16 = bitcast %"struct.std::_Rb_tree<int, int, std::_Identity<int>, std::less<int>>::_Rb_tree_impl"* %15 to %"struct.std::_Rb_tree_key_compare"*, !llfi_index !686
  %17 = getelementptr inbounds %"struct.std::_Rb_tree_key_compare", %"struct.std::_Rb_tree_key_compare"* %16, i32 0, i32 0, !llfi_index !687
  %18 = load %"struct.std::_Rb_tree_node"*, %"struct.std::_Rb_tree_node"** %7, align 8, !llfi_index !688
  %19 = call nonnull align 4 dereferenceable(4) i32* @_ZNSt8_Rb_treeIiiSt9_IdentityIiESt4lessIiESaIiEE6_S_keyEPKSt13_Rb_tree_nodeIiE(%"struct.std::_Rb_tree_node"* %18), !llfi_index !689
  %20 = load i32*, i32** %9, align 8, !llfi_index !690
  %21 = call zeroext i1 @_ZNKSt4lessIiEclERKiS2_(%"class.std::ios_base::Init"* nonnull align 1 dereferenceable(1) %17, i32* nonnull align 4 dereferenceable(4) %19, i32* nonnull align 4 dereferenceable(4) %20), !llfi_index !691
  br i1 %21, label %28, label %22, !llfi_index !692

22:                                               ; preds = %14
  %23 = load %"struct.std::_Rb_tree_node"*, %"struct.std::_Rb_tree_node"** %7, align 8, !llfi_index !693
  %24 = bitcast %"struct.std::_Rb_tree_node"* %23 to %"struct.std::_Rb_tree_node_base"*, !llfi_index !694
  store %"struct.std::_Rb_tree_node_base"* %24, %"struct.std::_Rb_tree_node_base"** %8, align 8, !llfi_index !695
  %25 = load %"struct.std::_Rb_tree_node"*, %"struct.std::_Rb_tree_node"** %7, align 8, !llfi_index !696
  %26 = bitcast %"struct.std::_Rb_tree_node"* %25 to %"struct.std::_Rb_tree_node_base"*, !llfi_index !697
  %27 = call %"struct.std::_Rb_tree_node"* @_ZNSt8_Rb_treeIiiSt9_IdentityIiESt4lessIiESaIiEE7_S_leftEPSt18_Rb_tree_node_base(%"struct.std::_Rb_tree_node_base"* %26) #2, !llfi_index !698
  store %"struct.std::_Rb_tree_node"* %27, %"struct.std::_Rb_tree_node"** %7, align 8, !llfi_index !699
  br label %32, !llfi_index !700

28:                                               ; preds = %14
  %29 = load %"struct.std::_Rb_tree_node"*, %"struct.std::_Rb_tree_node"** %7, align 8, !llfi_index !701
  %30 = bitcast %"struct.std::_Rb_tree_node"* %29 to %"struct.std::_Rb_tree_node_base"*, !llfi_index !702
  %31 = call %"struct.std::_Rb_tree_node"* @_ZNSt8_Rb_treeIiiSt9_IdentityIiESt4lessIiESaIiEE8_S_rightEPSt18_Rb_tree_node_base(%"struct.std::_Rb_tree_node_base"* %30) #2, !llfi_index !703
  store %"struct.std::_Rb_tree_node"* %31, %"struct.std::_Rb_tree_node"** %7, align 8, !llfi_index !704
  br label %32, !llfi_index !705

32:                                               ; preds = %28, %22
  br label %11, !llvm.loop !706, !llfi_index !707

33:                                               ; preds = %11
  %34 = load %"struct.std::_Rb_tree_node_base"*, %"struct.std::_Rb_tree_node_base"** %8, align 8, !llfi_index !708
  call void @_ZNSt17_Rb_tree_iteratorIiEC2EPSt18_Rb_tree_node_base(%"struct.std::_Rb_tree_const_iterator"* nonnull align 8 dereferenceable(8) %5, %"struct.std::_Rb_tree_node_base"* %34) #2, !llfi_index !709
  %35 = getelementptr inbounds %"struct.std::_Rb_tree_const_iterator", %"struct.std::_Rb_tree_const_iterator"* %5, i32 0, i32 0, !llfi_index !710
  %36 = load %"struct.std::_Rb_tree_node_base"*, %"struct.std::_Rb_tree_node_base"** %35, align 8, !llfi_index !711
  ret %"struct.std::_Rb_tree_node_base"* %36, !llfi_index !712
}

; Function Attrs: mustprogress noinline uwtable
define linkonce_odr dso_local %"struct.std::_Rb_tree_node_base"* @_ZNSt8_Rb_treeIiiSt9_IdentityIiESt4lessIiESaIiEE14_M_upper_boundEPSt13_Rb_tree_nodeIiEPSt18_Rb_tree_node_baseRKi(%"class.std::_Rb_tree"* nonnull align 8 dereferenceable(48) %0, %"struct.std::_Rb_tree_node"* %1, %"struct.std::_Rb_tree_node_base"* %2, i32* nonnull align 4 dereferenceable(4) %3) #6 comdat align 2 {
  %5 = alloca %"struct.std::_Rb_tree_const_iterator", align 8, !llfi_index !713
  %6 = alloca %"class.std::_Rb_tree"*, align 8, !llfi_index !714
  %7 = alloca %"struct.std::_Rb_tree_node"*, align 8, !llfi_index !715
  %8 = alloca %"struct.std::_Rb_tree_node_base"*, align 8, !llfi_index !716
  %9 = alloca i32*, align 8, !llfi_index !717
  store %"class.std::_Rb_tree"* %0, %"class.std::_Rb_tree"** %6, align 8, !llfi_index !718
  store %"struct.std::_Rb_tree_node"* %1, %"struct.std::_Rb_tree_node"** %7, align 8, !llfi_index !719
  store %"struct.std::_Rb_tree_node_base"* %2, %"struct.std::_Rb_tree_node_base"** %8, align 8, !llfi_index !720
  store i32* %3, i32** %9, align 8, !llfi_index !721
  %10 = load %"class.std::_Rb_tree"*, %"class.std::_Rb_tree"** %6, align 8, !llfi_index !722
  br label %11, !llfi_index !723

11:                                               ; preds = %32, %4
  %12 = load %"struct.std::_Rb_tree_node"*, %"struct.std::_Rb_tree_node"** %7, align 8, !llfi_index !724
  %13 = icmp ne %"struct.std::_Rb_tree_node"* %12, null, !llfi_index !725
  br i1 %13, label %14, label %33, !llfi_index !726

14:                                               ; preds = %11
  %15 = getelementptr inbounds %"class.std::_Rb_tree", %"class.std::_Rb_tree"* %10, i32 0, i32 0, !llfi_index !727
  %16 = bitcast %"struct.std::_Rb_tree<int, int, std::_Identity<int>, std::less<int>>::_Rb_tree_impl"* %15 to %"struct.std::_Rb_tree_key_compare"*, !llfi_index !728
  %17 = getelementptr inbounds %"struct.std::_Rb_tree_key_compare", %"struct.std::_Rb_tree_key_compare"* %16, i32 0, i32 0, !llfi_index !729
  %18 = load i32*, i32** %9, align 8, !llfi_index !730
  %19 = load %"struct.std::_Rb_tree_node"*, %"struct.std::_Rb_tree_node"** %7, align 8, !llfi_index !731
  %20 = call nonnull align 4 dereferenceable(4) i32* @_ZNSt8_Rb_treeIiiSt9_IdentityIiESt4lessIiESaIiEE6_S_keyEPKSt13_Rb_tree_nodeIiE(%"struct.std::_Rb_tree_node"* %19), !llfi_index !732
  %21 = call zeroext i1 @_ZNKSt4lessIiEclERKiS2_(%"class.std::ios_base::Init"* nonnull align 1 dereferenceable(1) %17, i32* nonnull align 4 dereferenceable(4) %18, i32* nonnull align 4 dereferenceable(4) %20), !llfi_index !733
  br i1 %21, label %22, label %28, !llfi_index !734

22:                                               ; preds = %14
  %23 = load %"struct.std::_Rb_tree_node"*, %"struct.std::_Rb_tree_node"** %7, align 8, !llfi_index !735
  %24 = bitcast %"struct.std::_Rb_tree_node"* %23 to %"struct.std::_Rb_tree_node_base"*, !llfi_index !736
  store %"struct.std::_Rb_tree_node_base"* %24, %"struct.std::_Rb_tree_node_base"** %8, align 8, !llfi_index !737
  %25 = load %"struct.std::_Rb_tree_node"*, %"struct.std::_Rb_tree_node"** %7, align 8, !llfi_index !738
  %26 = bitcast %"struct.std::_Rb_tree_node"* %25 to %"struct.std::_Rb_tree_node_base"*, !llfi_index !739
  %27 = call %"struct.std::_Rb_tree_node"* @_ZNSt8_Rb_treeIiiSt9_IdentityIiESt4lessIiESaIiEE7_S_leftEPSt18_Rb_tree_node_base(%"struct.std::_Rb_tree_node_base"* %26) #2, !llfi_index !740
  store %"struct.std::_Rb_tree_node"* %27, %"struct.std::_Rb_tree_node"** %7, align 8, !llfi_index !741
  br label %32, !llfi_index !742

28:                                               ; preds = %14
  %29 = load %"struct.std::_Rb_tree_node"*, %"struct.std::_Rb_tree_node"** %7, align 8, !llfi_index !743
  %30 = bitcast %"struct.std::_Rb_tree_node"* %29 to %"struct.std::_Rb_tree_node_base"*, !llfi_index !744
  %31 = call %"struct.std::_Rb_tree_node"* @_ZNSt8_Rb_treeIiiSt9_IdentityIiESt4lessIiESaIiEE8_S_rightEPSt18_Rb_tree_node_base(%"struct.std::_Rb_tree_node_base"* %30) #2, !llfi_index !745
  store %"struct.std::_Rb_tree_node"* %31, %"struct.std::_Rb_tree_node"** %7, align 8, !llfi_index !746
  br label %32, !llfi_index !747

32:                                               ; preds = %28, %22
  br label %11, !llvm.loop !748, !llfi_index !749

33:                                               ; preds = %11
  %34 = load %"struct.std::_Rb_tree_node_base"*, %"struct.std::_Rb_tree_node_base"** %8, align 8, !llfi_index !750
  call void @_ZNSt17_Rb_tree_iteratorIiEC2EPSt18_Rb_tree_node_base(%"struct.std::_Rb_tree_const_iterator"* nonnull align 8 dereferenceable(8) %5, %"struct.std::_Rb_tree_node_base"* %34) #2, !llfi_index !751
  %35 = getelementptr inbounds %"struct.std::_Rb_tree_const_iterator", %"struct.std::_Rb_tree_const_iterator"* %5, i32 0, i32 0, !llfi_index !752
  %36 = load %"struct.std::_Rb_tree_node_base"*, %"struct.std::_Rb_tree_node_base"** %35, align 8, !llfi_index !753
  ret %"struct.std::_Rb_tree_node_base"* %36, !llfi_index !754
}

; Function Attrs: noinline nounwind uwtable
define linkonce_odr dso_local void @_ZNSt4pairISt17_Rb_tree_iteratorIiES1_EC2IS1_S1_Lb1EEEOT_OT0_(%"struct.std::pair.10"* nonnull align 8 dereferenceable(16) %0, %"struct.std::_Rb_tree_const_iterator"* nonnull align 8 dereferenceable(8) %1, %"struct.std::_Rb_tree_const_iterator"* nonnull align 8 dereferenceable(8) %2) unnamed_addr #5 comdat align 2 {
  %4 = alloca %"struct.std::pair.10"*, align 8, !llfi_index !755
  %5 = alloca %"struct.std::_Rb_tree_const_iterator"*, align 8, !llfi_index !756
  %6 = alloca %"struct.std::_Rb_tree_const_iterator"*, align 8, !llfi_index !757
  store %"struct.std::pair.10"* %0, %"struct.std::pair.10"** %4, align 8, !llfi_index !758
  store %"struct.std::_Rb_tree_const_iterator"* %1, %"struct.std::_Rb_tree_const_iterator"** %5, align 8, !llfi_index !759
  store %"struct.std::_Rb_tree_const_iterator"* %2, %"struct.std::_Rb_tree_const_iterator"** %6, align 8, !llfi_index !760
  %7 = load %"struct.std::pair.10"*, %"struct.std::pair.10"** %4, align 8, !llfi_index !761
  %8 = bitcast %"struct.std::pair.10"* %7 to %"class.std::ios_base::Init"*, !llfi_index !762
  %9 = getelementptr inbounds %"struct.std::pair.10", %"struct.std::pair.10"* %7, i32 0, i32 0, !llfi_index !763
  %10 = load %"struct.std::_Rb_tree_const_iterator"*, %"struct.std::_Rb_tree_const_iterator"** %5, align 8, !llfi_index !764
  %11 = call nonnull align 8 dereferenceable(8) %"struct.std::_Rb_tree_const_iterator"* @_ZSt7forwardISt17_Rb_tree_iteratorIiEEOT_RNSt16remove_referenceIS2_E4typeE(%"struct.std::_Rb_tree_const_iterator"* nonnull align 8 dereferenceable(8) %10) #2, !llfi_index !765
  %12 = bitcast %"struct.std::_Rb_tree_const_iterator"* %9 to i8*, !llfi_index !766
  %13 = bitcast %"struct.std::_Rb_tree_const_iterator"* %11 to i8*, !llfi_index !767
  call void @llvm.memcpy.p0i8.p0i8.i64(i8* align 8 %12, i8* align 8 %13, i64 8, i1 false), !llfi_index !768
  %14 = getelementptr inbounds %"struct.std::pair.10", %"struct.std::pair.10"* %7, i32 0, i32 1, !llfi_index !769
  %15 = load %"struct.std::_Rb_tree_const_iterator"*, %"struct.std::_Rb_tree_const_iterator"** %6, align 8, !llfi_index !770
  %16 = call nonnull align 8 dereferenceable(8) %"struct.std::_Rb_tree_const_iterator"* @_ZSt7forwardISt17_Rb_tree_iteratorIiEEOT_RNSt16remove_referenceIS2_E4typeE(%"struct.std::_Rb_tree_const_iterator"* nonnull align 8 dereferenceable(8) %15) #2, !llfi_index !771
  %17 = bitcast %"struct.std::_Rb_tree_const_iterator"* %14 to i8*, !llfi_index !772
  %18 = bitcast %"struct.std::_Rb_tree_const_iterator"* %16 to i8*, !llfi_index !773
  call void @llvm.memcpy.p0i8.p0i8.i64(i8* align 8 %17, i8* align 8 %18, i64 8, i1 false), !llfi_index !774
  ret void, !llfi_index !775
}

; Function Attrs: mustprogress noinline nounwind uwtable
define linkonce_odr dso_local nonnull align 8 dereferenceable(8) %"struct.std::_Rb_tree_const_iterator"* @_ZSt7forwardISt17_Rb_tree_iteratorIiEEOT_RNSt16remove_referenceIS2_E4typeE(%"struct.std::_Rb_tree_const_iterator"* nonnull align 8 dereferenceable(8) %0) #7 comdat {
  %2 = alloca %"struct.std::_Rb_tree_const_iterator"*, align 8, !llfi_index !776
  store %"struct.std::_Rb_tree_const_iterator"* %0, %"struct.std::_Rb_tree_const_iterator"** %2, align 8, !llfi_index !777
  %3 = load %"struct.std::_Rb_tree_const_iterator"*, %"struct.std::_Rb_tree_const_iterator"** %2, align 8, !llfi_index !778
  ret %"struct.std::_Rb_tree_const_iterator"* %3, !llfi_index !779
}

; Function Attrs: mustprogress noinline nounwind uwtable
define linkonce_odr dso_local i32* @_ZNKSt13_Rb_tree_nodeIiE9_M_valptrEv(%"struct.std::_Rb_tree_node"* nonnull align 8 dereferenceable(36) %0) #7 comdat align 2 {
  %2 = alloca %"struct.std::_Rb_tree_node"*, align 8, !llfi_index !780
  store %"struct.std::_Rb_tree_node"* %0, %"struct.std::_Rb_tree_node"** %2, align 8, !llfi_index !781
  %3 = load %"struct.std::_Rb_tree_node"*, %"struct.std::_Rb_tree_node"** %2, align 8, !llfi_index !782
  %4 = getelementptr inbounds %"struct.std::_Rb_tree_node", %"struct.std::_Rb_tree_node"* %3, i32 0, i32 1, !llfi_index !783
  %5 = call i32* @_ZNK9__gnu_cxx16__aligned_membufIiE6_M_ptrEv(%"struct.__gnu_cxx::__aligned_membuf"* nonnull align 4 dereferenceable(4) %4) #2, !llfi_index !784
  ret i32* %5, !llfi_index !785
}

; Function Attrs: mustprogress noinline nounwind uwtable
define linkonce_odr dso_local nonnull align 4 dereferenceable(4) i32* @_ZNKSt9_IdentityIiEclERKi(%"class.std::ios_base::Init"* nonnull align 1 dereferenceable(1) %0, i32* nonnull align 4 dereferenceable(4) %1) #7 comdat align 2 {
  %3 = alloca %"class.std::ios_base::Init"*, align 8, !llfi_index !786
  %4 = alloca i32*, align 8, !llfi_index !787
  store %"class.std::ios_base::Init"* %0, %"class.std::ios_base::Init"** %3, align 8, !llfi_index !788
  store i32* %1, i32** %4, align 8, !llfi_index !789
  %5 = load %"class.std::ios_base::Init"*, %"class.std::ios_base::Init"** %3, align 8, !llfi_index !790
  %6 = load i32*, i32** %4, align 8, !llfi_index !791
  ret i32* %6, !llfi_index !792
}

; Function Attrs: mustprogress noinline nounwind uwtable
define linkonce_odr dso_local i32* @_ZNK9__gnu_cxx16__aligned_membufIiE6_M_ptrEv(%"struct.__gnu_cxx::__aligned_membuf"* nonnull align 4 dereferenceable(4) %0) #7 comdat align 2 {
  %2 = alloca %"struct.__gnu_cxx::__aligned_membuf"*, align 8, !llfi_index !793
  store %"struct.__gnu_cxx::__aligned_membuf"* %0, %"struct.__gnu_cxx::__aligned_membuf"** %2, align 8, !llfi_index !794
  %3 = load %"struct.__gnu_cxx::__aligned_membuf"*, %"struct.__gnu_cxx::__aligned_membuf"** %2, align 8, !llfi_index !795
  %4 = call i8* @_ZNK9__gnu_cxx16__aligned_membufIiE7_M_addrEv(%"struct.__gnu_cxx::__aligned_membuf"* nonnull align 4 dereferenceable(4) %3) #2, !llfi_index !796
  %5 = bitcast i8* %4 to i32*, !llfi_index !797
  ret i32* %5, !llfi_index !798
}

; Function Attrs: mustprogress noinline nounwind uwtable
define linkonce_odr dso_local i8* @_ZNK9__gnu_cxx16__aligned_membufIiE7_M_addrEv(%"struct.__gnu_cxx::__aligned_membuf"* nonnull align 4 dereferenceable(4) %0) #7 comdat align 2 {
  %2 = alloca %"struct.__gnu_cxx::__aligned_membuf"*, align 8, !llfi_index !799
  store %"struct.__gnu_cxx::__aligned_membuf"* %0, %"struct.__gnu_cxx::__aligned_membuf"** %2, align 8, !llfi_index !800
  %3 = load %"struct.__gnu_cxx::__aligned_membuf"*, %"struct.__gnu_cxx::__aligned_membuf"** %2, align 8, !llfi_index !801
  %4 = getelementptr inbounds %"struct.__gnu_cxx::__aligned_membuf", %"struct.__gnu_cxx::__aligned_membuf"* %3, i32 0, i32 0, !llfi_index !802
  %5 = bitcast [4 x i8]* %4 to i8*, !llfi_index !803
  ret i8* %5, !llfi_index !804
}

; Function Attrs: mustprogress noinline nounwind uwtable
define linkonce_odr dso_local zeroext i1 @_ZNKSt8_Rb_treeIiiSt9_IdentityIiESt4lessIiESaIiEE5emptyEv(%"class.std::_Rb_tree"* nonnull align 8 dereferenceable(48) %0) #7 comdat align 2 {
  %2 = alloca %"class.std::_Rb_tree"*, align 8, !llfi_index !805
  store %"class.std::_Rb_tree"* %0, %"class.std::_Rb_tree"** %2, align 8, !llfi_index !806
  %3 = load %"class.std::_Rb_tree"*, %"class.std::_Rb_tree"** %2, align 8, !llfi_index !807
  %4 = getelementptr inbounds %"class.std::_Rb_tree", %"class.std::_Rb_tree"* %3, i32 0, i32 0, !llfi_index !808
  %5 = bitcast %"struct.std::_Rb_tree<int, int, std::_Identity<int>, std::less<int>>::_Rb_tree_impl"* %4 to i8*, !llfi_index !809
  %6 = getelementptr inbounds i8, i8* %5, i64 8, !llfi_index !810
  %7 = bitcast i8* %6 to %"struct.std::_Rb_tree_header"*, !llfi_index !811
  %8 = getelementptr inbounds %"struct.std::_Rb_tree_header", %"struct.std::_Rb_tree_header"* %7, i32 0, i32 1, !llfi_index !812
  %9 = load i64, i64* %8, align 8, !llfi_index !813
  %10 = icmp eq i64 %9, 0, !llfi_index !814
  ret i1 %10, !llfi_index !815
}

; Function Attrs: noinline nounwind uwtable
define linkonce_odr dso_local void @_ZNSt8_Rb_treeIiiSt9_IdentityIiESt4lessIiESaIiEED2Ev(%"class.std::_Rb_tree"* nonnull align 8 dereferenceable(48) %0) unnamed_addr #5 comdat align 2 personality i8* bitcast (i32 (...)* @__gxx_personality_v0 to i8*) {
  %2 = alloca %"class.std::_Rb_tree"*, align 8, !llfi_index !816
  %3 = alloca i8*, align 8, !llfi_index !817
  %4 = alloca i32, align 4, !llfi_index !818
  store %"class.std::_Rb_tree"* %0, %"class.std::_Rb_tree"** %2, align 8, !llfi_index !819
  %5 = load %"class.std::_Rb_tree"*, %"class.std::_Rb_tree"** %2, align 8, !llfi_index !820
  %6 = call %"struct.std::_Rb_tree_node"* @_ZNSt8_Rb_treeIiiSt9_IdentityIiESt4lessIiESaIiEE8_M_beginEv(%"class.std::_Rb_tree"* nonnull align 8 dereferenceable(48) %5) #2, !llfi_index !821
  invoke void @_ZNSt8_Rb_treeIiiSt9_IdentityIiESt4lessIiESaIiEE8_M_eraseEPSt13_Rb_tree_nodeIiE(%"class.std::_Rb_tree"* nonnull align 8 dereferenceable(48) %5, %"struct.std::_Rb_tree_node"* %6)
          to label %7 unwind label %9, !llfi_index !822

7:                                                ; preds = %1
  %8 = getelementptr inbounds %"class.std::_Rb_tree", %"class.std::_Rb_tree"* %5, i32 0, i32 0, !llfi_index !823
  call void @_ZNSt8_Rb_treeIiiSt9_IdentityIiESt4lessIiESaIiEE13_Rb_tree_implIS3_Lb1EED2Ev(%"struct.std::_Rb_tree<int, int, std::_Identity<int>, std::less<int>>::_Rb_tree_impl"* nonnull align 8 dereferenceable(48) %8) #2, !llfi_index !824
  ret void, !llfi_index !825

9:                                                ; preds = %1
  %10 = landingpad { i8*, i32 }
          catch i8* null, !llfi_index !826
  %11 = extractvalue { i8*, i32 } %10, 0, !llfi_index !827
  store i8* %11, i8** %3, align 8, !llfi_index !828
  %12 = extractvalue { i8*, i32 } %10, 1, !llfi_index !829
  store i32 %12, i32* %4, align 4, !llfi_index !830
  %13 = getelementptr inbounds %"class.std::_Rb_tree", %"class.std::_Rb_tree"* %5, i32 0, i32 0, !llfi_index !831
  call void @_ZNSt8_Rb_treeIiiSt9_IdentityIiESt4lessIiESaIiEE13_Rb_tree_implIS3_Lb1EED2Ev(%"struct.std::_Rb_tree<int, int, std::_Identity<int>, std::less<int>>::_Rb_tree_impl"* nonnull align 8 dereferenceable(48) %13) #2, !llfi_index !832
  br label %14, !llfi_index !833

14:                                               ; preds = %9
  %15 = load i8*, i8** %3, align 8, !llfi_index !834
  call void @__clang_call_terminate(i8* %15) #15, !llfi_index !835
  unreachable, !llfi_index !836
}

; Function Attrs: noinline nounwind uwtable
define linkonce_odr dso_local void @_ZNSt8_Rb_treeIiiSt9_IdentityIiESt4lessIiESaIiEE13_Rb_tree_implIS3_Lb1EED2Ev(%"struct.std::_Rb_tree<int, int, std::_Identity<int>, std::less<int>>::_Rb_tree_impl"* nonnull align 8 dereferenceable(48) %0) unnamed_addr #5 comdat align 2 {
  %2 = alloca %"struct.std::_Rb_tree<int, int, std::_Identity<int>, std::less<int>>::_Rb_tree_impl"*, align 8, !llfi_index !837
  store %"struct.std::_Rb_tree<int, int, std::_Identity<int>, std::less<int>>::_Rb_tree_impl"* %0, %"struct.std::_Rb_tree<int, int, std::_Identity<int>, std::less<int>>::_Rb_tree_impl"** %2, align 8, !llfi_index !838
  %3 = load %"struct.std::_Rb_tree<int, int, std::_Identity<int>, std::less<int>>::_Rb_tree_impl"*, %"struct.std::_Rb_tree<int, int, std::_Identity<int>, std::less<int>>::_Rb_tree_impl"** %2, align 8, !llfi_index !839
  %4 = bitcast %"struct.std::_Rb_tree<int, int, std::_Identity<int>, std::less<int>>::_Rb_tree_impl"* %3 to %"class.std::ios_base::Init"*, !llfi_index !840
  call void @_ZNSaISt13_Rb_tree_nodeIiEED2Ev(%"class.std::ios_base::Init"* nonnull align 1 dereferenceable(1) %4) #2, !llfi_index !841
  ret void, !llfi_index !842
}

; Function Attrs: noinline nounwind uwtable
define linkonce_odr dso_local void @_ZNSaISt13_Rb_tree_nodeIiEED2Ev(%"class.std::ios_base::Init"* nonnull align 1 dereferenceable(1) %0) unnamed_addr #5 comdat align 2 {
  %2 = alloca %"class.std::ios_base::Init"*, align 8, !llfi_index !843
  store %"class.std::ios_base::Init"* %0, %"class.std::ios_base::Init"** %2, align 8, !llfi_index !844
  %3 = load %"class.std::ios_base::Init"*, %"class.std::ios_base::Init"** %2, align 8, !llfi_index !845
  %4 = bitcast %"class.std::ios_base::Init"* %3 to %"class.std::ios_base::Init"*, !llfi_index !846
  call void @_ZN9__gnu_cxx13new_allocatorISt13_Rb_tree_nodeIiEED2Ev(%"class.std::ios_base::Init"* nonnull align 1 dereferenceable(1) %4) #2, !llfi_index !847
  ret void, !llfi_index !848
}

; Function Attrs: noinline nounwind uwtable
define linkonce_odr dso_local void @_ZN9__gnu_cxx13new_allocatorISt13_Rb_tree_nodeIiEED2Ev(%"class.std::ios_base::Init"* nonnull align 1 dereferenceable(1) %0) unnamed_addr #5 comdat align 2 {
  %2 = alloca %"class.std::ios_base::Init"*, align 8, !llfi_index !849
  store %"class.std::ios_base::Init"* %0, %"class.std::ios_base::Init"** %2, align 8, !llfi_index !850
  %3 = load %"class.std::ios_base::Init"*, %"class.std::ios_base::Init"** %2, align 8, !llfi_index !851
  ret void, !llfi_index !852
}

; Function Attrs: mustprogress noinline uwtable
define linkonce_odr dso_local { %"struct.std::_Rb_tree_node_base"*, i8 } @_ZNSt8_Rb_treeIiiSt9_IdentityIiESt4lessIiESaIiEE16_M_insert_uniqueIRKiEESt4pairISt17_Rb_tree_iteratorIiEbEOT_(%"class.std::_Rb_tree"* nonnull align 8 dereferenceable(48) %0, i32* nonnull align 4 dereferenceable(4) %1) #6 comdat align 2 {
  %3 = alloca %"struct.std::pair", align 8, !llfi_index !853
  %4 = alloca %"class.std::_Rb_tree"*, align 8, !llfi_index !854
  %5 = alloca i32*, align 8, !llfi_index !855
  %6 = alloca %"struct.std::pair.7", align 8, !llfi_index !856
  %7 = alloca %"class.std::ios_base::Init", align 1, !llfi_index !857
  %8 = alloca %"struct.std::_Rb_tree<int, int, std::_Identity<int>, std::less<int>>::_Alloc_node", align 8, !llfi_index !858
  %9 = alloca %"struct.std::_Rb_tree_const_iterator", align 8, !llfi_index !859
  %10 = alloca i8, align 1, !llfi_index !860
  %11 = alloca %"struct.std::_Rb_tree_const_iterator", align 8, !llfi_index !861
  %12 = alloca i8, align 1, !llfi_index !862
  store %"class.std::_Rb_tree"* %0, %"class.std::_Rb_tree"** %4, align 8, !llfi_index !863
  store i32* %1, i32** %5, align 8, !llfi_index !864
  %13 = load %"class.std::_Rb_tree"*, %"class.std::_Rb_tree"** %4, align 8, !llfi_index !865
  %14 = load i32*, i32** %5, align 8, !llfi_index !866
  %15 = call nonnull align 4 dereferenceable(4) i32* @_ZNKSt9_IdentityIiEclERKi(%"class.std::ios_base::Init"* nonnull align 1 dereferenceable(1) %7, i32* nonnull align 4 dereferenceable(4) %14), !llfi_index !867
  %16 = call { %"struct.std::_Rb_tree_node_base"*, %"struct.std::_Rb_tree_node_base"* } @_ZNSt8_Rb_treeIiiSt9_IdentityIiESt4lessIiESaIiEE24_M_get_insert_unique_posERKi(%"class.std::_Rb_tree"* nonnull align 8 dereferenceable(48) %13, i32* nonnull align 4 dereferenceable(4) %15), !llfi_index !868
  %17 = bitcast %"struct.std::pair.7"* %6 to { %"struct.std::_Rb_tree_node_base"*, %"struct.std::_Rb_tree_node_base"* }*, !llfi_index !869
  %18 = getelementptr inbounds { %"struct.std::_Rb_tree_node_base"*, %"struct.std::_Rb_tree_node_base"* }, { %"struct.std::_Rb_tree_node_base"*, %"struct.std::_Rb_tree_node_base"* }* %17, i32 0, i32 0, !llfi_index !870
  %19 = extractvalue { %"struct.std::_Rb_tree_node_base"*, %"struct.std::_Rb_tree_node_base"* } %16, 0, !llfi_index !871
  store %"struct.std::_Rb_tree_node_base"* %19, %"struct.std::_Rb_tree_node_base"** %18, align 8, !llfi_index !872
  %20 = getelementptr inbounds { %"struct.std::_Rb_tree_node_base"*, %"struct.std::_Rb_tree_node_base"* }, { %"struct.std::_Rb_tree_node_base"*, %"struct.std::_Rb_tree_node_base"* }* %17, i32 0, i32 1, !llfi_index !873
  %21 = extractvalue { %"struct.std::_Rb_tree_node_base"*, %"struct.std::_Rb_tree_node_base"* } %16, 1, !llfi_index !874
  store %"struct.std::_Rb_tree_node_base"* %21, %"struct.std::_Rb_tree_node_base"** %20, align 8, !llfi_index !875
  %22 = getelementptr inbounds %"struct.std::pair.7", %"struct.std::pair.7"* %6, i32 0, i32 1, !llfi_index !876
  %23 = load %"struct.std::_Rb_tree_node_base"*, %"struct.std::_Rb_tree_node_base"** %22, align 8, !llfi_index !877
  %24 = icmp ne %"struct.std::_Rb_tree_node_base"* %23, null, !llfi_index !878
  br i1 %24, label %25, label %34, !llfi_index !879

25:                                               ; preds = %2
  call void @_ZNSt8_Rb_treeIiiSt9_IdentityIiESt4lessIiESaIiEE11_Alloc_nodeC2ERS5_(%"struct.std::_Rb_tree<int, int, std::_Identity<int>, std::less<int>>::_Alloc_node"* nonnull align 8 dereferenceable(8) %8, %"class.std::_Rb_tree"* nonnull align 8 dereferenceable(48) %13), !llfi_index !880
  %26 = getelementptr inbounds %"struct.std::pair.7", %"struct.std::pair.7"* %6, i32 0, i32 0, !llfi_index !881
  %27 = load %"struct.std::_Rb_tree_node_base"*, %"struct.std::_Rb_tree_node_base"** %26, align 8, !llfi_index !882
  %28 = getelementptr inbounds %"struct.std::pair.7", %"struct.std::pair.7"* %6, i32 0, i32 1, !llfi_index !883
  %29 = load %"struct.std::_Rb_tree_node_base"*, %"struct.std::_Rb_tree_node_base"** %28, align 8, !llfi_index !884
  %30 = load i32*, i32** %5, align 8, !llfi_index !885
  %31 = call nonnull align 4 dereferenceable(4) i32* @_ZSt7forwardIRKiEOT_RNSt16remove_referenceIS2_E4typeE(i32* nonnull align 4 dereferenceable(4) %30) #2, !llfi_index !886
  %32 = call %"struct.std::_Rb_tree_node_base"* @_ZNSt8_Rb_treeIiiSt9_IdentityIiESt4lessIiESaIiEE10_M_insert_IRKiNS5_11_Alloc_nodeEEESt17_Rb_tree_iteratorIiEPSt18_Rb_tree_node_baseSD_OT_RT0_(%"class.std::_Rb_tree"* nonnull align 8 dereferenceable(48) %13, %"struct.std::_Rb_tree_node_base"* %27, %"struct.std::_Rb_tree_node_base"* %29, i32* nonnull align 4 dereferenceable(4) %31, %"struct.std::_Rb_tree<int, int, std::_Identity<int>, std::less<int>>::_Alloc_node"* nonnull align 8 dereferenceable(8) %8), !llfi_index !887
  %33 = getelementptr inbounds %"struct.std::_Rb_tree_const_iterator", %"struct.std::_Rb_tree_const_iterator"* %9, i32 0, i32 0, !llfi_index !888
  store %"struct.std::_Rb_tree_node_base"* %32, %"struct.std::_Rb_tree_node_base"** %33, align 8, !llfi_index !889
  store i8 1, i8* %10, align 1, !llfi_index !890
  call void @_ZNSt4pairISt17_Rb_tree_iteratorIiEbEC2IS1_bLb1EEEOT_OT0_(%"struct.std::pair"* nonnull align 8 dereferenceable(9) %3, %"struct.std::_Rb_tree_const_iterator"* nonnull align 8 dereferenceable(8) %9, i8* nonnull align 1 dereferenceable(1) %10), !llfi_index !891
  br label %37, !llfi_index !892

34:                                               ; preds = %2
  %35 = getelementptr inbounds %"struct.std::pair.7", %"struct.std::pair.7"* %6, i32 0, i32 0, !llfi_index !893
  %36 = load %"struct.std::_Rb_tree_node_base"*, %"struct.std::_Rb_tree_node_base"** %35, align 8, !llfi_index !894
  call void @_ZNSt17_Rb_tree_iteratorIiEC2EPSt18_Rb_tree_node_base(%"struct.std::_Rb_tree_const_iterator"* nonnull align 8 dereferenceable(8) %11, %"struct.std::_Rb_tree_node_base"* %36) #2, !llfi_index !895
  store i8 0, i8* %12, align 1, !llfi_index !896
  call void @_ZNSt4pairISt17_Rb_tree_iteratorIiEbEC2IS1_bLb1EEEOT_OT0_(%"struct.std::pair"* nonnull align 8 dereferenceable(9) %3, %"struct.std::_Rb_tree_const_iterator"* nonnull align 8 dereferenceable(8) %11, i8* nonnull align 1 dereferenceable(1) %12), !llfi_index !897
  br label %37, !llfi_index !898

37:                                               ; preds = %34, %25
  %38 = bitcast %"struct.std::pair"* %3 to { %"struct.std::_Rb_tree_node_base"*, i8 }*, !llfi_index !899
  %39 = load { %"struct.std::_Rb_tree_node_base"*, i8 }, { %"struct.std::_Rb_tree_node_base"*, i8 }* %38, align 8, !llfi_index !900
  ret { %"struct.std::_Rb_tree_node_base"*, i8 } %39, !llfi_index !901
}

; Function Attrs: noinline nounwind uwtable
define linkonce_odr dso_local void @_ZNSt4pairISt23_Rb_tree_const_iteratorIiEbEC2IRSt17_Rb_tree_iteratorIiERbLb1EEEOT_OT0_(%"struct.std::pair"* nonnull align 8 dereferenceable(9) %0, %"struct.std::_Rb_tree_const_iterator"* nonnull align 8 dereferenceable(8) %1, i8* nonnull align 1 dereferenceable(1) %2) unnamed_addr #5 comdat align 2 {
  %4 = alloca %"struct.std::pair"*, align 8, !llfi_index !902
  %5 = alloca %"struct.std::_Rb_tree_const_iterator"*, align 8, !llfi_index !903
  %6 = alloca i8*, align 8, !llfi_index !904
  store %"struct.std::pair"* %0, %"struct.std::pair"** %4, align 8, !llfi_index !905
  store %"struct.std::_Rb_tree_const_iterator"* %1, %"struct.std::_Rb_tree_const_iterator"** %5, align 8, !llfi_index !906
  store i8* %2, i8** %6, align 8, !llfi_index !907
  %7 = load %"struct.std::pair"*, %"struct.std::pair"** %4, align 8, !llfi_index !908
  %8 = bitcast %"struct.std::pair"* %7 to %"class.std::ios_base::Init"*, !llfi_index !909
  %9 = getelementptr inbounds %"struct.std::pair", %"struct.std::pair"* %7, i32 0, i32 0, !llfi_index !910
  %10 = load %"struct.std::_Rb_tree_const_iterator"*, %"struct.std::_Rb_tree_const_iterator"** %5, align 8, !llfi_index !911
  %11 = call nonnull align 8 dereferenceable(8) %"struct.std::_Rb_tree_const_iterator"* @_ZSt7forwardIRSt17_Rb_tree_iteratorIiEEOT_RNSt16remove_referenceIS3_E4typeE(%"struct.std::_Rb_tree_const_iterator"* nonnull align 8 dereferenceable(8) %10) #2, !llfi_index !912
  call void @_ZNSt23_Rb_tree_const_iteratorIiEC2ERKSt17_Rb_tree_iteratorIiE(%"struct.std::_Rb_tree_const_iterator"* nonnull align 8 dereferenceable(8) %9, %"struct.std::_Rb_tree_const_iterator"* nonnull align 8 dereferenceable(8) %11) #2, !llfi_index !913
  %12 = getelementptr inbounds %"struct.std::pair", %"struct.std::pair"* %7, i32 0, i32 1, !llfi_index !914
  %13 = load i8*, i8** %6, align 8, !llfi_index !915
  %14 = call nonnull align 1 dereferenceable(1) i8* @_ZSt7forwardIRbEOT_RNSt16remove_referenceIS1_E4typeE(i8* nonnull align 1 dereferenceable(1) %13) #2, !llfi_index !916
  %15 = load i8, i8* %14, align 1, !llfi_index !917
  %16 = trunc i8 %15 to i1, !llfi_index !918
  %17 = zext i1 %16 to i8, !llfi_index !919
  store i8 %17, i8* %12, align 8, !llfi_index !920
  ret void, !llfi_index !921
}

; Function Attrs: mustprogress noinline nounwind uwtable
define linkonce_odr dso_local nonnull align 8 dereferenceable(8) %"struct.std::_Rb_tree_const_iterator"* @_ZSt7forwardIRSt17_Rb_tree_iteratorIiEEOT_RNSt16remove_referenceIS3_E4typeE(%"struct.std::_Rb_tree_const_iterator"* nonnull align 8 dereferenceable(8) %0) #7 comdat {
  %2 = alloca %"struct.std::_Rb_tree_const_iterator"*, align 8, !llfi_index !922
  store %"struct.std::_Rb_tree_const_iterator"* %0, %"struct.std::_Rb_tree_const_iterator"** %2, align 8, !llfi_index !923
  %3 = load %"struct.std::_Rb_tree_const_iterator"*, %"struct.std::_Rb_tree_const_iterator"** %2, align 8, !llfi_index !924
  ret %"struct.std::_Rb_tree_const_iterator"* %3, !llfi_index !925
}

; Function Attrs: mustprogress noinline nounwind uwtable
define linkonce_odr dso_local nonnull align 1 dereferenceable(1) i8* @_ZSt7forwardIRbEOT_RNSt16remove_referenceIS1_E4typeE(i8* nonnull align 1 dereferenceable(1) %0) #7 comdat {
  %2 = alloca i8*, align 8, !llfi_index !926
  store i8* %0, i8** %2, align 8, !llfi_index !927
  %3 = load i8*, i8** %2, align 8, !llfi_index !928
  ret i8* %3, !llfi_index !929
}

; Function Attrs: mustprogress noinline uwtable
define linkonce_odr dso_local { %"struct.std::_Rb_tree_node_base"*, %"struct.std::_Rb_tree_node_base"* } @_ZNSt8_Rb_treeIiiSt9_IdentityIiESt4lessIiESaIiEE24_M_get_insert_unique_posERKi(%"class.std::_Rb_tree"* nonnull align 8 dereferenceable(48) %0, i32* nonnull align 4 dereferenceable(4) %1) #6 comdat align 2 {
  %3 = alloca %"struct.std::pair.7", align 8, !llfi_index !930
  %4 = alloca %"class.std::_Rb_tree"*, align 8, !llfi_index !931
  %5 = alloca i32*, align 8, !llfi_index !932
  %6 = alloca %"struct.std::_Rb_tree_node"*, align 8, !llfi_index !933
  %7 = alloca %"struct.std::_Rb_tree_node_base"*, align 8, !llfi_index !934
  %8 = alloca i8, align 1, !llfi_index !935
  %9 = alloca %"struct.std::_Rb_tree_const_iterator", align 8, !llfi_index !936
  %10 = alloca %"struct.std::_Rb_tree_const_iterator", align 8, !llfi_index !937
  %11 = alloca %"struct.std::_Rb_tree_node_base"*, align 8, !llfi_index !938
  store %"class.std::_Rb_tree"* %0, %"class.std::_Rb_tree"** %4, align 8, !llfi_index !939
  store i32* %1, i32** %5, align 8, !llfi_index !940
  %12 = load %"class.std::_Rb_tree"*, %"class.std::_Rb_tree"** %4, align 8, !llfi_index !941
  %13 = call %"struct.std::_Rb_tree_node"* @_ZNSt8_Rb_treeIiiSt9_IdentityIiESt4lessIiESaIiEE8_M_beginEv(%"class.std::_Rb_tree"* nonnull align 8 dereferenceable(48) %12) #2, !llfi_index !942
  store %"struct.std::_Rb_tree_node"* %13, %"struct.std::_Rb_tree_node"** %6, align 8, !llfi_index !943
  %14 = call %"struct.std::_Rb_tree_node_base"* @_ZNSt8_Rb_treeIiiSt9_IdentityIiESt4lessIiESaIiEE6_M_endEv(%"class.std::_Rb_tree"* nonnull align 8 dereferenceable(48) %12) #2, !llfi_index !944
  store %"struct.std::_Rb_tree_node_base"* %14, %"struct.std::_Rb_tree_node_base"** %7, align 8, !llfi_index !945
  store i8 1, i8* %8, align 1, !llfi_index !946
  br label %15, !llfi_index !947

15:                                               ; preds = %39, %2
  %16 = load %"struct.std::_Rb_tree_node"*, %"struct.std::_Rb_tree_node"** %6, align 8, !llfi_index !948
  %17 = icmp ne %"struct.std::_Rb_tree_node"* %16, null, !llfi_index !949
  br i1 %17, label %18, label %41, !llfi_index !950

18:                                               ; preds = %15
  %19 = load %"struct.std::_Rb_tree_node"*, %"struct.std::_Rb_tree_node"** %6, align 8, !llfi_index !951
  %20 = bitcast %"struct.std::_Rb_tree_node"* %19 to %"struct.std::_Rb_tree_node_base"*, !llfi_index !952
  store %"struct.std::_Rb_tree_node_base"* %20, %"struct.std::_Rb_tree_node_base"** %7, align 8, !llfi_index !953
  %21 = getelementptr inbounds %"class.std::_Rb_tree", %"class.std::_Rb_tree"* %12, i32 0, i32 0, !llfi_index !954
  %22 = bitcast %"struct.std::_Rb_tree<int, int, std::_Identity<int>, std::less<int>>::_Rb_tree_impl"* %21 to %"struct.std::_Rb_tree_key_compare"*, !llfi_index !955
  %23 = getelementptr inbounds %"struct.std::_Rb_tree_key_compare", %"struct.std::_Rb_tree_key_compare"* %22, i32 0, i32 0, !llfi_index !956
  %24 = load i32*, i32** %5, align 8, !llfi_index !957
  %25 = load %"struct.std::_Rb_tree_node"*, %"struct.std::_Rb_tree_node"** %6, align 8, !llfi_index !958
  %26 = call nonnull align 4 dereferenceable(4) i32* @_ZNSt8_Rb_treeIiiSt9_IdentityIiESt4lessIiESaIiEE6_S_keyEPKSt13_Rb_tree_nodeIiE(%"struct.std::_Rb_tree_node"* %25), !llfi_index !959
  %27 = call zeroext i1 @_ZNKSt4lessIiEclERKiS2_(%"class.std::ios_base::Init"* nonnull align 1 dereferenceable(1) %23, i32* nonnull align 4 dereferenceable(4) %24, i32* nonnull align 4 dereferenceable(4) %26), !llfi_index !960
  %28 = zext i1 %27 to i8, !llfi_index !961
  store i8 %28, i8* %8, align 1, !llfi_index !962
  %29 = load i8, i8* %8, align 1, !llfi_index !963
  %30 = trunc i8 %29 to i1, !llfi_index !964
  br i1 %30, label %31, label %35, !llfi_index !965

31:                                               ; preds = %18
  %32 = load %"struct.std::_Rb_tree_node"*, %"struct.std::_Rb_tree_node"** %6, align 8, !llfi_index !966
  %33 = bitcast %"struct.std::_Rb_tree_node"* %32 to %"struct.std::_Rb_tree_node_base"*, !llfi_index !967
  %34 = call %"struct.std::_Rb_tree_node"* @_ZNSt8_Rb_treeIiiSt9_IdentityIiESt4lessIiESaIiEE7_S_leftEPSt18_Rb_tree_node_base(%"struct.std::_Rb_tree_node_base"* %33) #2, !llfi_index !968
  br label %39, !llfi_index !969

35:                                               ; preds = %18
  %36 = load %"struct.std::_Rb_tree_node"*, %"struct.std::_Rb_tree_node"** %6, align 8, !llfi_index !970
  %37 = bitcast %"struct.std::_Rb_tree_node"* %36 to %"struct.std::_Rb_tree_node_base"*, !llfi_index !971
  %38 = call %"struct.std::_Rb_tree_node"* @_ZNSt8_Rb_treeIiiSt9_IdentityIiESt4lessIiESaIiEE8_S_rightEPSt18_Rb_tree_node_base(%"struct.std::_Rb_tree_node_base"* %37) #2, !llfi_index !972
  br label %39, !llfi_index !973

39:                                               ; preds = %35, %31
  %40 = phi %"struct.std::_Rb_tree_node"* [ %34, %31 ], [ %38, %35 ], !llfi_index !974
  store %"struct.std::_Rb_tree_node"* %40, %"struct.std::_Rb_tree_node"** %6, align 8, !llfi_index !975
  br label %15, !llvm.loop !976, !llfi_index !977

41:                                               ; preds = %15
  %42 = load %"struct.std::_Rb_tree_node_base"*, %"struct.std::_Rb_tree_node_base"** %7, align 8, !llfi_index !978
  call void @_ZNSt17_Rb_tree_iteratorIiEC2EPSt18_Rb_tree_node_base(%"struct.std::_Rb_tree_const_iterator"* nonnull align 8 dereferenceable(8) %9, %"struct.std::_Rb_tree_node_base"* %42) #2, !llfi_index !979
  %43 = load i8, i8* %8, align 1, !llfi_index !980
  %44 = trunc i8 %43 to i1, !llfi_index !981
  br i1 %44, label %45, label %53, !llfi_index !982

45:                                               ; preds = %41
  %46 = call %"struct.std::_Rb_tree_node_base"* @_ZNSt8_Rb_treeIiiSt9_IdentityIiESt4lessIiESaIiEE5beginEv(%"class.std::_Rb_tree"* nonnull align 8 dereferenceable(48) %12) #2, !llfi_index !983
  %47 = getelementptr inbounds %"struct.std::_Rb_tree_const_iterator", %"struct.std::_Rb_tree_const_iterator"* %10, i32 0, i32 0, !llfi_index !984
  store %"struct.std::_Rb_tree_node_base"* %46, %"struct.std::_Rb_tree_node_base"** %47, align 8, !llfi_index !985
  %48 = call zeroext i1 @_ZSteqRKSt17_Rb_tree_iteratorIiES2_(%"struct.std::_Rb_tree_const_iterator"* nonnull align 8 dereferenceable(8) %9, %"struct.std::_Rb_tree_const_iterator"* nonnull align 8 dereferenceable(8) %10) #2, !llfi_index !986
  br i1 %48, label %49, label %50, !llfi_index !987

49:                                               ; preds = %45
  call void @_ZNSt4pairIPSt18_Rb_tree_node_baseS1_EC2IRPSt13_Rb_tree_nodeIiERS1_Lb1EEEOT_OT0_(%"struct.std::pair.7"* nonnull align 8 dereferenceable(16) %3, %"struct.std::_Rb_tree_node"** nonnull align 8 dereferenceable(8) %6, %"struct.std::_Rb_tree_node_base"** nonnull align 8 dereferenceable(8) %7), !llfi_index !988
  br label %65, !llfi_index !989

50:                                               ; preds = %45
  %51 = call nonnull align 8 dereferenceable(8) %"struct.std::_Rb_tree_const_iterator"* @_ZNSt17_Rb_tree_iteratorIiEmmEv(%"struct.std::_Rb_tree_const_iterator"* nonnull align 8 dereferenceable(8) %9) #2, !llfi_index !990
  br label %52, !llfi_index !991

52:                                               ; preds = %50
  br label %53, !llfi_index !992

53:                                               ; preds = %52, %41
  %54 = getelementptr inbounds %"class.std::_Rb_tree", %"class.std::_Rb_tree"* %12, i32 0, i32 0, !llfi_index !993
  %55 = bitcast %"struct.std::_Rb_tree<int, int, std::_Identity<int>, std::less<int>>::_Rb_tree_impl"* %54 to %"struct.std::_Rb_tree_key_compare"*, !llfi_index !994
  %56 = getelementptr inbounds %"struct.std::_Rb_tree_key_compare", %"struct.std::_Rb_tree_key_compare"* %55, i32 0, i32 0, !llfi_index !995
  %57 = getelementptr inbounds %"struct.std::_Rb_tree_const_iterator", %"struct.std::_Rb_tree_const_iterator"* %9, i32 0, i32 0, !llfi_index !996
  %58 = load %"struct.std::_Rb_tree_node_base"*, %"struct.std::_Rb_tree_node_base"** %57, align 8, !llfi_index !997
  %59 = call nonnull align 4 dereferenceable(4) i32* @_ZNSt8_Rb_treeIiiSt9_IdentityIiESt4lessIiESaIiEE6_S_keyEPKSt18_Rb_tree_node_base(%"struct.std::_Rb_tree_node_base"* %58), !llfi_index !998
  %60 = load i32*, i32** %5, align 8, !llfi_index !999
  %61 = call zeroext i1 @_ZNKSt4lessIiEclERKiS2_(%"class.std::ios_base::Init"* nonnull align 1 dereferenceable(1) %56, i32* nonnull align 4 dereferenceable(4) %59, i32* nonnull align 4 dereferenceable(4) %60), !llfi_index !1000
  br i1 %61, label %62, label %63, !llfi_index !1001

62:                                               ; preds = %53
  call void @_ZNSt4pairIPSt18_Rb_tree_node_baseS1_EC2IRPSt13_Rb_tree_nodeIiERS1_Lb1EEEOT_OT0_(%"struct.std::pair.7"* nonnull align 8 dereferenceable(16) %3, %"struct.std::_Rb_tree_node"** nonnull align 8 dereferenceable(8) %6, %"struct.std::_Rb_tree_node_base"** nonnull align 8 dereferenceable(8) %7), !llfi_index !1002
  br label %65, !llfi_index !1003

63:                                               ; preds = %53
  %64 = getelementptr inbounds %"struct.std::_Rb_tree_const_iterator", %"struct.std::_Rb_tree_const_iterator"* %9, i32 0, i32 0, !llfi_index !1004
  store %"struct.std::_Rb_tree_node_base"* null, %"struct.std::_Rb_tree_node_base"** %11, align 8, !llfi_index !1005
  call void @_ZNSt4pairIPSt18_Rb_tree_node_baseS1_EC2IRS1_Lb1EEEOT_RKS1_(%"struct.std::pair.7"* nonnull align 8 dereferenceable(16) %3, %"struct.std::_Rb_tree_node_base"** nonnull align 8 dereferenceable(8) %64, %"struct.std::_Rb_tree_node_base"** nonnull align 8 dereferenceable(8) %11), !llfi_index !1006
  br label %65, !llfi_index !1007

65:                                               ; preds = %63, %62, %49
  %66 = bitcast %"struct.std::pair.7"* %3 to { %"struct.std::_Rb_tree_node_base"*, %"struct.std::_Rb_tree_node_base"* }*, !llfi_index !1008
  %67 = load { %"struct.std::_Rb_tree_node_base"*, %"struct.std::_Rb_tree_node_base"* }, { %"struct.std::_Rb_tree_node_base"*, %"struct.std::_Rb_tree_node_base"* }* %66, align 8, !llfi_index !1009
  ret { %"struct.std::_Rb_tree_node_base"*, %"struct.std::_Rb_tree_node_base"* } %67, !llfi_index !1010
}

; Function Attrs: noinline nounwind uwtable
define linkonce_odr dso_local void @_ZNSt8_Rb_treeIiiSt9_IdentityIiESt4lessIiESaIiEE11_Alloc_nodeC2ERS5_(%"struct.std::_Rb_tree<int, int, std::_Identity<int>, std::less<int>>::_Alloc_node"* nonnull align 8 dereferenceable(8) %0, %"class.std::_Rb_tree"* nonnull align 8 dereferenceable(48) %1) unnamed_addr #5 comdat align 2 {
  %3 = alloca %"struct.std::_Rb_tree<int, int, std::_Identity<int>, std::less<int>>::_Alloc_node"*, align 8, !llfi_index !1011
  %4 = alloca %"class.std::_Rb_tree"*, align 8, !llfi_index !1012
  store %"struct.std::_Rb_tree<int, int, std::_Identity<int>, std::less<int>>::_Alloc_node"* %0, %"struct.std::_Rb_tree<int, int, std::_Identity<int>, std::less<int>>::_Alloc_node"** %3, align 8, !llfi_index !1013
  store %"class.std::_Rb_tree"* %1, %"class.std::_Rb_tree"** %4, align 8, !llfi_index !1014
  %5 = load %"struct.std::_Rb_tree<int, int, std::_Identity<int>, std::less<int>>::_Alloc_node"*, %"struct.std::_Rb_tree<int, int, std::_Identity<int>, std::less<int>>::_Alloc_node"** %3, align 8, !llfi_index !1015
  %6 = getelementptr inbounds %"struct.std::_Rb_tree<int, int, std::_Identity<int>, std::less<int>>::_Alloc_node", %"struct.std::_Rb_tree<int, int, std::_Identity<int>, std::less<int>>::_Alloc_node"* %5, i32 0, i32 0, !llfi_index !1016
  %7 = load %"class.std::_Rb_tree"*, %"class.std::_Rb_tree"** %4, align 8, !llfi_index !1017
  store %"class.std::_Rb_tree"* %7, %"class.std::_Rb_tree"** %6, align 8, !llfi_index !1018
  ret void, !llfi_index !1019
}

; Function Attrs: mustprogress noinline nounwind uwtable
define linkonce_odr dso_local nonnull align 4 dereferenceable(4) i32* @_ZSt7forwardIRKiEOT_RNSt16remove_referenceIS2_E4typeE(i32* nonnull align 4 dereferenceable(4) %0) #7 comdat {
  %2 = alloca i32*, align 8, !llfi_index !1020
  store i32* %0, i32** %2, align 8, !llfi_index !1021
  %3 = load i32*, i32** %2, align 8, !llfi_index !1022
  ret i32* %3, !llfi_index !1023
}

; Function Attrs: mustprogress noinline uwtable
define linkonce_odr dso_local %"struct.std::_Rb_tree_node_base"* @_ZNSt8_Rb_treeIiiSt9_IdentityIiESt4lessIiESaIiEE10_M_insert_IRKiNS5_11_Alloc_nodeEEESt17_Rb_tree_iteratorIiEPSt18_Rb_tree_node_baseSD_OT_RT0_(%"class.std::_Rb_tree"* nonnull align 8 dereferenceable(48) %0, %"struct.std::_Rb_tree_node_base"* %1, %"struct.std::_Rb_tree_node_base"* %2, i32* nonnull align 4 dereferenceable(4) %3, %"struct.std::_Rb_tree<int, int, std::_Identity<int>, std::less<int>>::_Alloc_node"* nonnull align 8 dereferenceable(8) %4) #6 comdat align 2 {
  %6 = alloca %"struct.std::_Rb_tree_const_iterator", align 8, !llfi_index !1024
  %7 = alloca %"class.std::_Rb_tree"*, align 8, !llfi_index !1025
  %8 = alloca %"struct.std::_Rb_tree_node_base"*, align 8, !llfi_index !1026
  %9 = alloca %"struct.std::_Rb_tree_node_base"*, align 8, !llfi_index !1027
  %10 = alloca i32*, align 8, !llfi_index !1028
  %11 = alloca %"struct.std::_Rb_tree<int, int, std::_Identity<int>, std::less<int>>::_Alloc_node"*, align 8, !llfi_index !1029
  %12 = alloca i8, align 1, !llfi_index !1030
  %13 = alloca %"class.std::ios_base::Init", align 1, !llfi_index !1031
  %14 = alloca %"struct.std::_Rb_tree_node"*, align 8, !llfi_index !1032
  store %"class.std::_Rb_tree"* %0, %"class.std::_Rb_tree"** %7, align 8, !llfi_index !1033
  store %"struct.std::_Rb_tree_node_base"* %1, %"struct.std::_Rb_tree_node_base"** %8, align 8, !llfi_index !1034
  store %"struct.std::_Rb_tree_node_base"* %2, %"struct.std::_Rb_tree_node_base"** %9, align 8, !llfi_index !1035
  store i32* %3, i32** %10, align 8, !llfi_index !1036
  store %"struct.std::_Rb_tree<int, int, std::_Identity<int>, std::less<int>>::_Alloc_node"* %4, %"struct.std::_Rb_tree<int, int, std::_Identity<int>, std::less<int>>::_Alloc_node"** %11, align 8, !llfi_index !1037
  %15 = load %"class.std::_Rb_tree"*, %"class.std::_Rb_tree"** %7, align 8, !llfi_index !1038
  %16 = load %"struct.std::_Rb_tree_node_base"*, %"struct.std::_Rb_tree_node_base"** %8, align 8, !llfi_index !1039
  %17 = icmp ne %"struct.std::_Rb_tree_node_base"* %16, null, !llfi_index !1040
  br i1 %17, label %31, label %18, !llfi_index !1041

18:                                               ; preds = %5
  %19 = load %"struct.std::_Rb_tree_node_base"*, %"struct.std::_Rb_tree_node_base"** %9, align 8, !llfi_index !1042
  %20 = call %"struct.std::_Rb_tree_node_base"* @_ZNSt8_Rb_treeIiiSt9_IdentityIiESt4lessIiESaIiEE6_M_endEv(%"class.std::_Rb_tree"* nonnull align 8 dereferenceable(48) %15) #2, !llfi_index !1043
  %21 = icmp eq %"struct.std::_Rb_tree_node_base"* %19, %20, !llfi_index !1044
  br i1 %21, label %31, label %22, !llfi_index !1045

22:                                               ; preds = %18
  %23 = getelementptr inbounds %"class.std::_Rb_tree", %"class.std::_Rb_tree"* %15, i32 0, i32 0, !llfi_index !1046
  %24 = bitcast %"struct.std::_Rb_tree<int, int, std::_Identity<int>, std::less<int>>::_Rb_tree_impl"* %23 to %"struct.std::_Rb_tree_key_compare"*, !llfi_index !1047
  %25 = getelementptr inbounds %"struct.std::_Rb_tree_key_compare", %"struct.std::_Rb_tree_key_compare"* %24, i32 0, i32 0, !llfi_index !1048
  %26 = load i32*, i32** %10, align 8, !llfi_index !1049
  %27 = call nonnull align 4 dereferenceable(4) i32* @_ZNKSt9_IdentityIiEclERKi(%"class.std::ios_base::Init"* nonnull align 1 dereferenceable(1) %13, i32* nonnull align 4 dereferenceable(4) %26), !llfi_index !1050
  %28 = load %"struct.std::_Rb_tree_node_base"*, %"struct.std::_Rb_tree_node_base"** %9, align 8, !llfi_index !1051
  %29 = call nonnull align 4 dereferenceable(4) i32* @_ZNSt8_Rb_treeIiiSt9_IdentityIiESt4lessIiESaIiEE6_S_keyEPKSt18_Rb_tree_node_base(%"struct.std::_Rb_tree_node_base"* %28), !llfi_index !1052
  %30 = call zeroext i1 @_ZNKSt4lessIiEclERKiS2_(%"class.std::ios_base::Init"* nonnull align 1 dereferenceable(1) %25, i32* nonnull align 4 dereferenceable(4) %27, i32* nonnull align 4 dereferenceable(4) %29), !llfi_index !1053
  br label %31, !llfi_index !1054

31:                                               ; preds = %22, %18, %5
  %32 = phi i1 [ true, %18 ], [ true, %5 ], [ %30, %22 ], !llfi_index !1055
  %33 = zext i1 %32 to i8, !llfi_index !1056
  store i8 %33, i8* %12, align 1, !llfi_index !1057
  %34 = load %"struct.std::_Rb_tree<int, int, std::_Identity<int>, std::less<int>>::_Alloc_node"*, %"struct.std::_Rb_tree<int, int, std::_Identity<int>, std::less<int>>::_Alloc_node"** %11, align 8, !llfi_index !1058
  %35 = load i32*, i32** %10, align 8, !llfi_index !1059
  %36 = call nonnull align 4 dereferenceable(4) i32* @_ZSt7forwardIRKiEOT_RNSt16remove_referenceIS2_E4typeE(i32* nonnull align 4 dereferenceable(4) %35) #2, !llfi_index !1060
  %37 = call %"struct.std::_Rb_tree_node"* @_ZNKSt8_Rb_treeIiiSt9_IdentityIiESt4lessIiESaIiEE11_Alloc_nodeclIRKiEEPSt13_Rb_tree_nodeIiEOT_(%"struct.std::_Rb_tree<int, int, std::_Identity<int>, std::less<int>>::_Alloc_node"* nonnull align 8 dereferenceable(8) %34, i32* nonnull align 4 dereferenceable(4) %36), !llfi_index !1061
  store %"struct.std::_Rb_tree_node"* %37, %"struct.std::_Rb_tree_node"** %14, align 8, !llfi_index !1062
  %38 = load i8, i8* %12, align 1, !llfi_index !1063
  %39 = trunc i8 %38 to i1, !llfi_index !1064
  %40 = load %"struct.std::_Rb_tree_node"*, %"struct.std::_Rb_tree_node"** %14, align 8, !llfi_index !1065
  %41 = bitcast %"struct.std::_Rb_tree_node"* %40 to %"struct.std::_Rb_tree_node_base"*, !llfi_index !1066
  %42 = load %"struct.std::_Rb_tree_node_base"*, %"struct.std::_Rb_tree_node_base"** %9, align 8, !llfi_index !1067
  %43 = getelementptr inbounds %"class.std::_Rb_tree", %"class.std::_Rb_tree"* %15, i32 0, i32 0, !llfi_index !1068
  %44 = bitcast %"struct.std::_Rb_tree<int, int, std::_Identity<int>, std::less<int>>::_Rb_tree_impl"* %43 to i8*, !llfi_index !1069
  %45 = getelementptr inbounds i8, i8* %44, i64 8, !llfi_index !1070
  %46 = bitcast i8* %45 to %"struct.std::_Rb_tree_header"*, !llfi_index !1071
  %47 = getelementptr inbounds %"struct.std::_Rb_tree_header", %"struct.std::_Rb_tree_header"* %46, i32 0, i32 0, !llfi_index !1072
  call void @_ZSt29_Rb_tree_insert_and_rebalancebPSt18_Rb_tree_node_baseS0_RS_(i1 zeroext %39, %"struct.std::_Rb_tree_node_base"* %41, %"struct.std::_Rb_tree_node_base"* %42, %"struct.std::_Rb_tree_node_base"* nonnull align 8 dereferenceable(32) %47) #2, !llfi_index !1073
  %48 = getelementptr inbounds %"class.std::_Rb_tree", %"class.std::_Rb_tree"* %15, i32 0, i32 0, !llfi_index !1074
  %49 = bitcast %"struct.std::_Rb_tree<int, int, std::_Identity<int>, std::less<int>>::_Rb_tree_impl"* %48 to i8*, !llfi_index !1075
  %50 = getelementptr inbounds i8, i8* %49, i64 8, !llfi_index !1076
  %51 = bitcast i8* %50 to %"struct.std::_Rb_tree_header"*, !llfi_index !1077
  %52 = getelementptr inbounds %"struct.std::_Rb_tree_header", %"struct.std::_Rb_tree_header"* %51, i32 0, i32 1, !llfi_index !1078
  %53 = load i64, i64* %52, align 8, !llfi_index !1079
  %54 = add i64 %53, 1, !llfi_index !1080
  store i64 %54, i64* %52, align 8, !llfi_index !1081
  %55 = load %"struct.std::_Rb_tree_node"*, %"struct.std::_Rb_tree_node"** %14, align 8, !llfi_index !1082
  %56 = bitcast %"struct.std::_Rb_tree_node"* %55 to %"struct.std::_Rb_tree_node_base"*, !llfi_index !1083
  call void @_ZNSt17_Rb_tree_iteratorIiEC2EPSt18_Rb_tree_node_base(%"struct.std::_Rb_tree_const_iterator"* nonnull align 8 dereferenceable(8) %6, %"struct.std::_Rb_tree_node_base"* %56) #2, !llfi_index !1084
  %57 = getelementptr inbounds %"struct.std::_Rb_tree_const_iterator", %"struct.std::_Rb_tree_const_iterator"* %6, i32 0, i32 0, !llfi_index !1085
  %58 = load %"struct.std::_Rb_tree_node_base"*, %"struct.std::_Rb_tree_node_base"** %57, align 8, !llfi_index !1086
  ret %"struct.std::_Rb_tree_node_base"* %58, !llfi_index !1087
}

; Function Attrs: noinline nounwind uwtable
define linkonce_odr dso_local void @_ZNSt4pairISt17_Rb_tree_iteratorIiEbEC2IS1_bLb1EEEOT_OT0_(%"struct.std::pair"* nonnull align 8 dereferenceable(9) %0, %"struct.std::_Rb_tree_const_iterator"* nonnull align 8 dereferenceable(8) %1, i8* nonnull align 1 dereferenceable(1) %2) unnamed_addr #5 comdat align 2 {
  %4 = alloca %"struct.std::pair"*, align 8, !llfi_index !1088
  %5 = alloca %"struct.std::_Rb_tree_const_iterator"*, align 8, !llfi_index !1089
  %6 = alloca i8*, align 8, !llfi_index !1090
  store %"struct.std::pair"* %0, %"struct.std::pair"** %4, align 8, !llfi_index !1091
  store %"struct.std::_Rb_tree_const_iterator"* %1, %"struct.std::_Rb_tree_const_iterator"** %5, align 8, !llfi_index !1092
  store i8* %2, i8** %6, align 8, !llfi_index !1093
  %7 = load %"struct.std::pair"*, %"struct.std::pair"** %4, align 8, !llfi_index !1094
  %8 = bitcast %"struct.std::pair"* %7 to %"class.std::ios_base::Init"*, !llfi_index !1095
  %9 = getelementptr inbounds %"struct.std::pair", %"struct.std::pair"* %7, i32 0, i32 0, !llfi_index !1096
  %10 = load %"struct.std::_Rb_tree_const_iterator"*, %"struct.std::_Rb_tree_const_iterator"** %5, align 8, !llfi_index !1097
  %11 = call nonnull align 8 dereferenceable(8) %"struct.std::_Rb_tree_const_iterator"* @_ZSt7forwardISt17_Rb_tree_iteratorIiEEOT_RNSt16remove_referenceIS2_E4typeE(%"struct.std::_Rb_tree_const_iterator"* nonnull align 8 dereferenceable(8) %10) #2, !llfi_index !1098
  %12 = bitcast %"struct.std::_Rb_tree_const_iterator"* %9 to i8*, !llfi_index !1099
  %13 = bitcast %"struct.std::_Rb_tree_const_iterator"* %11 to i8*, !llfi_index !1100
  call void @llvm.memcpy.p0i8.p0i8.i64(i8* align 8 %12, i8* align 8 %13, i64 8, i1 false), !llfi_index !1101
  %14 = getelementptr inbounds %"struct.std::pair", %"struct.std::pair"* %7, i32 0, i32 1, !llfi_index !1102
  %15 = load i8*, i8** %6, align 8, !llfi_index !1103
  %16 = call nonnull align 1 dereferenceable(1) i8* @_ZSt7forwardIbEOT_RNSt16remove_referenceIS0_E4typeE(i8* nonnull align 1 dereferenceable(1) %15) #2, !llfi_index !1104
  %17 = load i8, i8* %16, align 1, !llfi_index !1105
  %18 = trunc i8 %17 to i1, !llfi_index !1106
  %19 = zext i1 %18 to i8, !llfi_index !1107
  store i8 %19, i8* %14, align 8, !llfi_index !1108
  ret void, !llfi_index !1109
}

; Function Attrs: mustprogress noinline nounwind uwtable
define linkonce_odr dso_local nonnull align 1 dereferenceable(1) i8* @_ZSt7forwardIbEOT_RNSt16remove_referenceIS0_E4typeE(i8* nonnull align 1 dereferenceable(1) %0) #7 comdat {
  %2 = alloca i8*, align 8, !llfi_index !1110
  store i8* %0, i8** %2, align 8, !llfi_index !1111
  %3 = load i8*, i8** %2, align 8, !llfi_index !1112
  ret i8* %3, !llfi_index !1113
}

; Function Attrs: mustprogress noinline uwtable
define linkonce_odr dso_local nonnull align 4 dereferenceable(4) i32* @_ZNSt8_Rb_treeIiiSt9_IdentityIiESt4lessIiESaIiEE6_S_keyEPKSt18_Rb_tree_node_base(%"struct.std::_Rb_tree_node_base"* %0) #6 comdat align 2 {
  %2 = alloca %"struct.std::_Rb_tree_node_base"*, align 8, !llfi_index !1114
  store %"struct.std::_Rb_tree_node_base"* %0, %"struct.std::_Rb_tree_node_base"** %2, align 8, !llfi_index !1115
  %3 = load %"struct.std::_Rb_tree_node_base"*, %"struct.std::_Rb_tree_node_base"** %2, align 8, !llfi_index !1116
  %4 = bitcast %"struct.std::_Rb_tree_node_base"* %3 to %"struct.std::_Rb_tree_node"*, !llfi_index !1117
  %5 = call nonnull align 4 dereferenceable(4) i32* @_ZNSt8_Rb_treeIiiSt9_IdentityIiESt4lessIiESaIiEE6_S_keyEPKSt13_Rb_tree_nodeIiE(%"struct.std::_Rb_tree_node"* %4), !llfi_index !1118
  ret i32* %5, !llfi_index !1119
}

; Function Attrs: mustprogress noinline uwtable
define linkonce_odr dso_local %"struct.std::_Rb_tree_node"* @_ZNKSt8_Rb_treeIiiSt9_IdentityIiESt4lessIiESaIiEE11_Alloc_nodeclIRKiEEPSt13_Rb_tree_nodeIiEOT_(%"struct.std::_Rb_tree<int, int, std::_Identity<int>, std::less<int>>::_Alloc_node"* nonnull align 8 dereferenceable(8) %0, i32* nonnull align 4 dereferenceable(4) %1) #6 comdat align 2 {
  %3 = alloca %"struct.std::_Rb_tree<int, int, std::_Identity<int>, std::less<int>>::_Alloc_node"*, align 8, !llfi_index !1120
  %4 = alloca i32*, align 8, !llfi_index !1121
  store %"struct.std::_Rb_tree<int, int, std::_Identity<int>, std::less<int>>::_Alloc_node"* %0, %"struct.std::_Rb_tree<int, int, std::_Identity<int>, std::less<int>>::_Alloc_node"** %3, align 8, !llfi_index !1122
  store i32* %1, i32** %4, align 8, !llfi_index !1123
  %5 = load %"struct.std::_Rb_tree<int, int, std::_Identity<int>, std::less<int>>::_Alloc_node"*, %"struct.std::_Rb_tree<int, int, std::_Identity<int>, std::less<int>>::_Alloc_node"** %3, align 8, !llfi_index !1124
  %6 = getelementptr inbounds %"struct.std::_Rb_tree<int, int, std::_Identity<int>, std::less<int>>::_Alloc_node", %"struct.std::_Rb_tree<int, int, std::_Identity<int>, std::less<int>>::_Alloc_node"* %5, i32 0, i32 0, !llfi_index !1125
  %7 = load %"class.std::_Rb_tree"*, %"class.std::_Rb_tree"** %6, align 8, !llfi_index !1126
  %8 = load i32*, i32** %4, align 8, !llfi_index !1127
  %9 = call nonnull align 4 dereferenceable(4) i32* @_ZSt7forwardIRKiEOT_RNSt16remove_referenceIS2_E4typeE(i32* nonnull align 4 dereferenceable(4) %8) #2, !llfi_index !1128
  %10 = call %"struct.std::_Rb_tree_node"* @_ZNSt8_Rb_treeIiiSt9_IdentityIiESt4lessIiESaIiEE14_M_create_nodeIJRKiEEEPSt13_Rb_tree_nodeIiEDpOT_(%"class.std::_Rb_tree"* nonnull align 8 dereferenceable(48) %7, i32* nonnull align 4 dereferenceable(4) %9), !llfi_index !1129
  ret %"struct.std::_Rb_tree_node"* %10, !llfi_index !1130
}

; Function Attrs: nounwind
declare dso_local void @_ZSt29_Rb_tree_insert_and_rebalancebPSt18_Rb_tree_node_baseS0_RS_(i1 zeroext, %"struct.std::_Rb_tree_node_base"*, %"struct.std::_Rb_tree_node_base"*, %"struct.std::_Rb_tree_node_base"* nonnull align 8 dereferenceable(32)) #3

; Function Attrs: mustprogress noinline uwtable
define linkonce_odr dso_local %"struct.std::_Rb_tree_node"* @_ZNSt8_Rb_treeIiiSt9_IdentityIiESt4lessIiESaIiEE14_M_create_nodeIJRKiEEEPSt13_Rb_tree_nodeIiEDpOT_(%"class.std::_Rb_tree"* nonnull align 8 dereferenceable(48) %0, i32* nonnull align 4 dereferenceable(4) %1) #6 comdat align 2 {
  %3 = alloca %"class.std::_Rb_tree"*, align 8, !llfi_index !1131
  %4 = alloca i32*, align 8, !llfi_index !1132
  %5 = alloca %"struct.std::_Rb_tree_node"*, align 8, !llfi_index !1133
  store %"class.std::_Rb_tree"* %0, %"class.std::_Rb_tree"** %3, align 8, !llfi_index !1134
  store i32* %1, i32** %4, align 8, !llfi_index !1135
  %6 = load %"class.std::_Rb_tree"*, %"class.std::_Rb_tree"** %3, align 8, !llfi_index !1136
  %7 = call %"struct.std::_Rb_tree_node"* @_ZNSt8_Rb_treeIiiSt9_IdentityIiESt4lessIiESaIiEE11_M_get_nodeEv(%"class.std::_Rb_tree"* nonnull align 8 dereferenceable(48) %6), !llfi_index !1137
  store %"struct.std::_Rb_tree_node"* %7, %"struct.std::_Rb_tree_node"** %5, align 8, !llfi_index !1138
  %8 = load %"struct.std::_Rb_tree_node"*, %"struct.std::_Rb_tree_node"** %5, align 8, !llfi_index !1139
  %9 = load i32*, i32** %4, align 8, !llfi_index !1140
  %10 = call nonnull align 4 dereferenceable(4) i32* @_ZSt7forwardIRKiEOT_RNSt16remove_referenceIS2_E4typeE(i32* nonnull align 4 dereferenceable(4) %9) #2, !llfi_index !1141
  call void @_ZNSt8_Rb_treeIiiSt9_IdentityIiESt4lessIiESaIiEE17_M_construct_nodeIJRKiEEEvPSt13_Rb_tree_nodeIiEDpOT_(%"class.std::_Rb_tree"* nonnull align 8 dereferenceable(48) %6, %"struct.std::_Rb_tree_node"* %8, i32* nonnull align 4 dereferenceable(4) %10), !llfi_index !1142
  %11 = load %"struct.std::_Rb_tree_node"*, %"struct.std::_Rb_tree_node"** %5, align 8, !llfi_index !1143
  ret %"struct.std::_Rb_tree_node"* %11, !llfi_index !1144
}

; Function Attrs: mustprogress noinline uwtable
define linkonce_odr dso_local %"struct.std::_Rb_tree_node"* @_ZNSt8_Rb_treeIiiSt9_IdentityIiESt4lessIiESaIiEE11_M_get_nodeEv(%"class.std::_Rb_tree"* nonnull align 8 dereferenceable(48) %0) #6 comdat align 2 {
  %2 = alloca %"class.std::_Rb_tree"*, align 8, !llfi_index !1145
  store %"class.std::_Rb_tree"* %0, %"class.std::_Rb_tree"** %2, align 8, !llfi_index !1146
  %3 = load %"class.std::_Rb_tree"*, %"class.std::_Rb_tree"** %2, align 8, !llfi_index !1147
  %4 = call nonnull align 1 dereferenceable(1) %"class.std::ios_base::Init"* @_ZNSt8_Rb_treeIiiSt9_IdentityIiESt4lessIiESaIiEE21_M_get_Node_allocatorEv(%"class.std::_Rb_tree"* nonnull align 8 dereferenceable(48) %3) #2, !llfi_index !1148
  %5 = call %"struct.std::_Rb_tree_node"* @_ZNSt16allocator_traitsISaISt13_Rb_tree_nodeIiEEE8allocateERS2_m(%"class.std::ios_base::Init"* nonnull align 1 dereferenceable(1) %4, i64 1), !llfi_index !1149
  ret %"struct.std::_Rb_tree_node"* %5, !llfi_index !1150
}

; Function Attrs: mustprogress noinline nounwind uwtable
define linkonce_odr dso_local void @_ZNSt8_Rb_treeIiiSt9_IdentityIiESt4lessIiESaIiEE17_M_construct_nodeIJRKiEEEvPSt13_Rb_tree_nodeIiEDpOT_(%"class.std::_Rb_tree"* nonnull align 8 dereferenceable(48) %0, %"struct.std::_Rb_tree_node"* %1, i32* nonnull align 4 dereferenceable(4) %2) #7 comdat align 2 {
  %4 = alloca %"class.std::_Rb_tree"*, align 8, !llfi_index !1151
  %5 = alloca %"struct.std::_Rb_tree_node"*, align 8, !llfi_index !1152
  %6 = alloca i32*, align 8, !llfi_index !1153
  store %"class.std::_Rb_tree"* %0, %"class.std::_Rb_tree"** %4, align 8, !llfi_index !1154
  store %"struct.std::_Rb_tree_node"* %1, %"struct.std::_Rb_tree_node"** %5, align 8, !llfi_index !1155
  store i32* %2, i32** %6, align 8, !llfi_index !1156
  %7 = load %"class.std::_Rb_tree"*, %"class.std::_Rb_tree"** %4, align 8, !llfi_index !1157
  %8 = load %"struct.std::_Rb_tree_node"*, %"struct.std::_Rb_tree_node"** %5, align 8, !llfi_index !1158
  %9 = bitcast %"struct.std::_Rb_tree_node"* %8 to i8*, !llfi_index !1159
  %10 = bitcast i8* %9 to %"struct.std::_Rb_tree_node"*, !llfi_index !1160
  %11 = call nonnull align 1 dereferenceable(1) %"class.std::ios_base::Init"* @_ZNSt8_Rb_treeIiiSt9_IdentityIiESt4lessIiESaIiEE21_M_get_Node_allocatorEv(%"class.std::_Rb_tree"* nonnull align 8 dereferenceable(48) %7) #2, !llfi_index !1161
  %12 = load %"struct.std::_Rb_tree_node"*, %"struct.std::_Rb_tree_node"** %5, align 8, !llfi_index !1162
  %13 = call i32* @_ZNSt13_Rb_tree_nodeIiE9_M_valptrEv(%"struct.std::_Rb_tree_node"* nonnull align 8 dereferenceable(36) %12), !llfi_index !1163
  %14 = load i32*, i32** %6, align 8, !llfi_index !1164
  %15 = call nonnull align 4 dereferenceable(4) i32* @_ZSt7forwardIRKiEOT_RNSt16remove_referenceIS2_E4typeE(i32* nonnull align 4 dereferenceable(4) %14) #2, !llfi_index !1165
  call void @_ZNSt16allocator_traitsISaISt13_Rb_tree_nodeIiEEE9constructIiJRKiEEEvRS2_PT_DpOT0_(%"class.std::ios_base::Init"* nonnull align 1 dereferenceable(1) %11, i32* %13, i32* nonnull align 4 dereferenceable(4) %15) #2, !llfi_index !1166
  ret void, !llfi_index !1167
}

; Function Attrs: mustprogress noinline nounwind uwtable
define linkonce_odr dso_local void @_ZNSt16allocator_traitsISaISt13_Rb_tree_nodeIiEEE9constructIiJRKiEEEvRS2_PT_DpOT0_(%"class.std::ios_base::Init"* nonnull align 1 dereferenceable(1) %0, i32* %1, i32* nonnull align 4 dereferenceable(4) %2) #7 comdat align 2 {
  %4 = alloca %"class.std::ios_base::Init"*, align 8, !llfi_index !1168
  %5 = alloca i32*, align 8, !llfi_index !1169
  %6 = alloca i32*, align 8, !llfi_index !1170
  store %"class.std::ios_base::Init"* %0, %"class.std::ios_base::Init"** %4, align 8, !llfi_index !1171
  store i32* %1, i32** %5, align 8, !llfi_index !1172
  store i32* %2, i32** %6, align 8, !llfi_index !1173
  %7 = load %"class.std::ios_base::Init"*, %"class.std::ios_base::Init"** %4, align 8, !llfi_index !1174
  %8 = bitcast %"class.std::ios_base::Init"* %7 to %"class.std::ios_base::Init"*, !llfi_index !1175
  %9 = load i32*, i32** %5, align 8, !llfi_index !1176
  %10 = load i32*, i32** %6, align 8, !llfi_index !1177
  %11 = call nonnull align 4 dereferenceable(4) i32* @_ZSt7forwardIRKiEOT_RNSt16remove_referenceIS2_E4typeE(i32* nonnull align 4 dereferenceable(4) %10) #2, !llfi_index !1178
  call void @_ZN9__gnu_cxx13new_allocatorISt13_Rb_tree_nodeIiEE9constructIiJRKiEEEvPT_DpOT0_(%"class.std::ios_base::Init"* nonnull align 1 dereferenceable(1) %8, i32* %9, i32* nonnull align 4 dereferenceable(4) %11) #2, !llfi_index !1179
  ret void, !llfi_index !1180
}

; Function Attrs: mustprogress noinline nounwind uwtable
define linkonce_odr dso_local void @_ZN9__gnu_cxx13new_allocatorISt13_Rb_tree_nodeIiEE9constructIiJRKiEEEvPT_DpOT0_(%"class.std::ios_base::Init"* nonnull align 1 dereferenceable(1) %0, i32* %1, i32* nonnull align 4 dereferenceable(4) %2) #7 comdat align 2 {
  %4 = alloca %"class.std::ios_base::Init"*, align 8, !llfi_index !1181
  %5 = alloca i32*, align 8, !llfi_index !1182
  %6 = alloca i32*, align 8, !llfi_index !1183
  store %"class.std::ios_base::Init"* %0, %"class.std::ios_base::Init"** %4, align 8, !llfi_index !1184
  store i32* %1, i32** %5, align 8, !llfi_index !1185
  store i32* %2, i32** %6, align 8, !llfi_index !1186
  %7 = load %"class.std::ios_base::Init"*, %"class.std::ios_base::Init"** %4, align 8, !llfi_index !1187
  %8 = load i32*, i32** %5, align 8, !llfi_index !1188
  %9 = bitcast i32* %8 to i8*, !llfi_index !1189
  %10 = bitcast i8* %9 to i32*, !llfi_index !1190
  %11 = load i32*, i32** %6, align 8, !llfi_index !1191
  %12 = call nonnull align 4 dereferenceable(4) i32* @_ZSt7forwardIRKiEOT_RNSt16remove_referenceIS2_E4typeE(i32* nonnull align 4 dereferenceable(4) %11) #2, !llfi_index !1192
  %13 = load i32, i32* %12, align 4, !llfi_index !1193
  store i32 %13, i32* %10, align 4, !llfi_index !1194
  ret void, !llfi_index !1195
}

; Function Attrs: mustprogress noinline uwtable
define linkonce_odr dso_local %"struct.std::_Rb_tree_node"* @_ZNSt16allocator_traitsISaISt13_Rb_tree_nodeIiEEE8allocateERS2_m(%"class.std::ios_base::Init"* nonnull align 1 dereferenceable(1) %0, i64 %1) #6 comdat align 2 {
  %3 = alloca %"class.std::ios_base::Init"*, align 8, !llfi_index !1196
  %4 = alloca i64, align 8, !llfi_index !1197
  store %"class.std::ios_base::Init"* %0, %"class.std::ios_base::Init"** %3, align 8, !llfi_index !1198
  store i64 %1, i64* %4, align 8, !llfi_index !1199
  %5 = load %"class.std::ios_base::Init"*, %"class.std::ios_base::Init"** %3, align 8, !llfi_index !1200
  %6 = bitcast %"class.std::ios_base::Init"* %5 to %"class.std::ios_base::Init"*, !llfi_index !1201
  %7 = load i64, i64* %4, align 8, !llfi_index !1202
  %8 = call %"struct.std::_Rb_tree_node"* @_ZN9__gnu_cxx13new_allocatorISt13_Rb_tree_nodeIiEE8allocateEmPKv(%"class.std::ios_base::Init"* nonnull align 1 dereferenceable(1) %6, i64 %7, i8* null), !llfi_index !1203
  ret %"struct.std::_Rb_tree_node"* %8, !llfi_index !1204
}

; Function Attrs: mustprogress noinline uwtable
define linkonce_odr dso_local %"struct.std::_Rb_tree_node"* @_ZN9__gnu_cxx13new_allocatorISt13_Rb_tree_nodeIiEE8allocateEmPKv(%"class.std::ios_base::Init"* nonnull align 1 dereferenceable(1) %0, i64 %1, i8* %2) #6 comdat align 2 {
  %4 = alloca %"class.std::ios_base::Init"*, align 8, !llfi_index !1205
  %5 = alloca i64, align 8, !llfi_index !1206
  %6 = alloca i8*, align 8, !llfi_index !1207
  store %"class.std::ios_base::Init"* %0, %"class.std::ios_base::Init"** %4, align 8, !llfi_index !1208
  store i64 %1, i64* %5, align 8, !llfi_index !1209
  store i8* %2, i8** %6, align 8, !llfi_index !1210
  %7 = load %"class.std::ios_base::Init"*, %"class.std::ios_base::Init"** %4, align 8, !llfi_index !1211
  %8 = load i64, i64* %5, align 8, !llfi_index !1212
  %9 = call i64 @_ZNK9__gnu_cxx13new_allocatorISt13_Rb_tree_nodeIiEE8max_sizeEv(%"class.std::ios_base::Init"* nonnull align 1 dereferenceable(1) %7) #2, !llfi_index !1213
  %10 = icmp ugt i64 %8, %9, !llfi_index !1214
  br i1 %10, label %11, label %12, !llfi_index !1215

11:                                               ; preds = %3
  call void @_ZSt17__throw_bad_allocv() #16, !llfi_index !1216
  unreachable, !llfi_index !1217

12:                                               ; preds = %3
  %13 = load i64, i64* %5, align 8, !llfi_index !1218
  %14 = mul i64 %13, 40, !llfi_index !1219
  %15 = call noalias nonnull i8* @_Znwm(i64 %14) #17, !llfi_index !1220
  %16 = bitcast i8* %15 to %"struct.std::_Rb_tree_node"*, !llfi_index !1221
  ret %"struct.std::_Rb_tree_node"* %16, !llfi_index !1222
}

; Function Attrs: mustprogress noinline nounwind uwtable
define linkonce_odr dso_local i64 @_ZNK9__gnu_cxx13new_allocatorISt13_Rb_tree_nodeIiEE8max_sizeEv(%"class.std::ios_base::Init"* nonnull align 1 dereferenceable(1) %0) #7 comdat align 2 {
  %2 = alloca %"class.std::ios_base::Init"*, align 8, !llfi_index !1223
  store %"class.std::ios_base::Init"* %0, %"class.std::ios_base::Init"** %2, align 8, !llfi_index !1224
  %3 = load %"class.std::ios_base::Init"*, %"class.std::ios_base::Init"** %2, align 8, !llfi_index !1225
  ret i64 230584300921369395, !llfi_index !1226
}

; Function Attrs: noreturn
declare dso_local void @_ZSt17__throw_bad_allocv() #12

; Function Attrs: nobuiltin allocsize(0)
declare dso_local nonnull i8* @_Znwm(i64) #13

; Function Attrs: mustprogress noinline nounwind uwtable
define linkonce_odr dso_local zeroext i1 @_ZSteqRKSt17_Rb_tree_iteratorIiES2_(%"struct.std::_Rb_tree_const_iterator"* nonnull align 8 dereferenceable(8) %0, %"struct.std::_Rb_tree_const_iterator"* nonnull align 8 dereferenceable(8) %1) #7 comdat {
  %3 = alloca %"struct.std::_Rb_tree_const_iterator"*, align 8, !llfi_index !1227
  %4 = alloca %"struct.std::_Rb_tree_const_iterator"*, align 8, !llfi_index !1228
  store %"struct.std::_Rb_tree_const_iterator"* %0, %"struct.std::_Rb_tree_const_iterator"** %3, align 8, !llfi_index !1229
  store %"struct.std::_Rb_tree_const_iterator"* %1, %"struct.std::_Rb_tree_const_iterator"** %4, align 8, !llfi_index !1230
  %5 = load %"struct.std::_Rb_tree_const_iterator"*, %"struct.std::_Rb_tree_const_iterator"** %3, align 8, !llfi_index !1231
  %6 = getelementptr inbounds %"struct.std::_Rb_tree_const_iterator", %"struct.std::_Rb_tree_const_iterator"* %5, i32 0, i32 0, !llfi_index !1232
  %7 = load %"struct.std::_Rb_tree_node_base"*, %"struct.std::_Rb_tree_node_base"** %6, align 8, !llfi_index !1233
  %8 = load %"struct.std::_Rb_tree_const_iterator"*, %"struct.std::_Rb_tree_const_iterator"** %4, align 8, !llfi_index !1234
  %9 = getelementptr inbounds %"struct.std::_Rb_tree_const_iterator", %"struct.std::_Rb_tree_const_iterator"* %8, i32 0, i32 0, !llfi_index !1235
  %10 = load %"struct.std::_Rb_tree_node_base"*, %"struct.std::_Rb_tree_node_base"** %9, align 8, !llfi_index !1236
  %11 = icmp eq %"struct.std::_Rb_tree_node_base"* %7, %10, !llfi_index !1237
  ret i1 %11, !llfi_index !1238
}

; Function Attrs: noinline nounwind uwtable
define linkonce_odr dso_local void @_ZNSt4pairIPSt18_Rb_tree_node_baseS1_EC2IRPSt13_Rb_tree_nodeIiERS1_Lb1EEEOT_OT0_(%"struct.std::pair.7"* nonnull align 8 dereferenceable(16) %0, %"struct.std::_Rb_tree_node"** nonnull align 8 dereferenceable(8) %1, %"struct.std::_Rb_tree_node_base"** nonnull align 8 dereferenceable(8) %2) unnamed_addr #5 comdat align 2 {
  %4 = alloca %"struct.std::pair.7"*, align 8, !llfi_index !1239
  %5 = alloca %"struct.std::_Rb_tree_node"**, align 8, !llfi_index !1240
  %6 = alloca %"struct.std::_Rb_tree_node_base"**, align 8, !llfi_index !1241
  store %"struct.std::pair.7"* %0, %"struct.std::pair.7"** %4, align 8, !llfi_index !1242
  store %"struct.std::_Rb_tree_node"** %1, %"struct.std::_Rb_tree_node"*** %5, align 8, !llfi_index !1243
  store %"struct.std::_Rb_tree_node_base"** %2, %"struct.std::_Rb_tree_node_base"*** %6, align 8, !llfi_index !1244
  %7 = load %"struct.std::pair.7"*, %"struct.std::pair.7"** %4, align 8, !llfi_index !1245
  %8 = bitcast %"struct.std::pair.7"* %7 to %"class.std::ios_base::Init"*, !llfi_index !1246
  %9 = getelementptr inbounds %"struct.std::pair.7", %"struct.std::pair.7"* %7, i32 0, i32 0, !llfi_index !1247
  %10 = load %"struct.std::_Rb_tree_node"**, %"struct.std::_Rb_tree_node"*** %5, align 8, !llfi_index !1248
  %11 = call nonnull align 8 dereferenceable(8) %"struct.std::_Rb_tree_node"** @_ZSt7forwardIRPSt13_Rb_tree_nodeIiEEOT_RNSt16remove_referenceIS4_E4typeE(%"struct.std::_Rb_tree_node"** nonnull align 8 dereferenceable(8) %10) #2, !llfi_index !1249
  %12 = load %"struct.std::_Rb_tree_node"*, %"struct.std::_Rb_tree_node"** %11, align 8, !llfi_index !1250
  %13 = bitcast %"struct.std::_Rb_tree_node"* %12 to %"struct.std::_Rb_tree_node_base"*, !llfi_index !1251
  store %"struct.std::_Rb_tree_node_base"* %13, %"struct.std::_Rb_tree_node_base"** %9, align 8, !llfi_index !1252
  %14 = getelementptr inbounds %"struct.std::pair.7", %"struct.std::pair.7"* %7, i32 0, i32 1, !llfi_index !1253
  %15 = load %"struct.std::_Rb_tree_node_base"**, %"struct.std::_Rb_tree_node_base"*** %6, align 8, !llfi_index !1254
  %16 = call nonnull align 8 dereferenceable(8) %"struct.std::_Rb_tree_node_base"** @_ZSt7forwardIRPSt18_Rb_tree_node_baseEOT_RNSt16remove_referenceIS3_E4typeE(%"struct.std::_Rb_tree_node_base"** nonnull align 8 dereferenceable(8) %15) #2, !llfi_index !1255
  %17 = load %"struct.std::_Rb_tree_node_base"*, %"struct.std::_Rb_tree_node_base"** %16, align 8, !llfi_index !1256
  store %"struct.std::_Rb_tree_node_base"* %17, %"struct.std::_Rb_tree_node_base"** %14, align 8, !llfi_index !1257
  ret void, !llfi_index !1258
}

; Function Attrs: mustprogress noinline nounwind uwtable
define linkonce_odr dso_local nonnull align 8 dereferenceable(8) %"struct.std::_Rb_tree_const_iterator"* @_ZNSt17_Rb_tree_iteratorIiEmmEv(%"struct.std::_Rb_tree_const_iterator"* nonnull align 8 dereferenceable(8) %0) #7 comdat align 2 {
  %2 = alloca %"struct.std::_Rb_tree_const_iterator"*, align 8, !llfi_index !1259
  store %"struct.std::_Rb_tree_const_iterator"* %0, %"struct.std::_Rb_tree_const_iterator"** %2, align 8, !llfi_index !1260
  %3 = load %"struct.std::_Rb_tree_const_iterator"*, %"struct.std::_Rb_tree_const_iterator"** %2, align 8, !llfi_index !1261
  %4 = getelementptr inbounds %"struct.std::_Rb_tree_const_iterator", %"struct.std::_Rb_tree_const_iterator"* %3, i32 0, i32 0, !llfi_index !1262
  %5 = load %"struct.std::_Rb_tree_node_base"*, %"struct.std::_Rb_tree_node_base"** %4, align 8, !llfi_index !1263
  %6 = call %"struct.std::_Rb_tree_node_base"* @_ZSt18_Rb_tree_decrementPSt18_Rb_tree_node_base(%"struct.std::_Rb_tree_node_base"* %5) #14, !llfi_index !1264
  %7 = getelementptr inbounds %"struct.std::_Rb_tree_const_iterator", %"struct.std::_Rb_tree_const_iterator"* %3, i32 0, i32 0, !llfi_index !1265
  store %"struct.std::_Rb_tree_node_base"* %6, %"struct.std::_Rb_tree_node_base"** %7, align 8, !llfi_index !1266
  ret %"struct.std::_Rb_tree_const_iterator"* %3, !llfi_index !1267
}

; Function Attrs: noinline nounwind uwtable
define linkonce_odr dso_local void @_ZNSt4pairIPSt18_Rb_tree_node_baseS1_EC2IRS1_Lb1EEEOT_RKS1_(%"struct.std::pair.7"* nonnull align 8 dereferenceable(16) %0, %"struct.std::_Rb_tree_node_base"** nonnull align 8 dereferenceable(8) %1, %"struct.std::_Rb_tree_node_base"** nonnull align 8 dereferenceable(8) %2) unnamed_addr #5 comdat align 2 {
  %4 = alloca %"struct.std::pair.7"*, align 8, !llfi_index !1268
  %5 = alloca %"struct.std::_Rb_tree_node_base"**, align 8, !llfi_index !1269
  %6 = alloca %"struct.std::_Rb_tree_node_base"**, align 8, !llfi_index !1270
  store %"struct.std::pair.7"* %0, %"struct.std::pair.7"** %4, align 8, !llfi_index !1271
  store %"struct.std::_Rb_tree_node_base"** %1, %"struct.std::_Rb_tree_node_base"*** %5, align 8, !llfi_index !1272
  store %"struct.std::_Rb_tree_node_base"** %2, %"struct.std::_Rb_tree_node_base"*** %6, align 8, !llfi_index !1273
  %7 = load %"struct.std::pair.7"*, %"struct.std::pair.7"** %4, align 8, !llfi_index !1274
  %8 = bitcast %"struct.std::pair.7"* %7 to %"class.std::ios_base::Init"*, !llfi_index !1275
  %9 = getelementptr inbounds %"struct.std::pair.7", %"struct.std::pair.7"* %7, i32 0, i32 0, !llfi_index !1276
  %10 = load %"struct.std::_Rb_tree_node_base"**, %"struct.std::_Rb_tree_node_base"*** %5, align 8, !llfi_index !1277
  %11 = call nonnull align 8 dereferenceable(8) %"struct.std::_Rb_tree_node_base"** @_ZSt7forwardIRPSt18_Rb_tree_node_baseEOT_RNSt16remove_referenceIS3_E4typeE(%"struct.std::_Rb_tree_node_base"** nonnull align 8 dereferenceable(8) %10) #2, !llfi_index !1278
  %12 = load %"struct.std::_Rb_tree_node_base"*, %"struct.std::_Rb_tree_node_base"** %11, align 8, !llfi_index !1279
  store %"struct.std::_Rb_tree_node_base"* %12, %"struct.std::_Rb_tree_node_base"** %9, align 8, !llfi_index !1280
  %13 = getelementptr inbounds %"struct.std::pair.7", %"struct.std::pair.7"* %7, i32 0, i32 1, !llfi_index !1281
  %14 = load %"struct.std::_Rb_tree_node_base"**, %"struct.std::_Rb_tree_node_base"*** %6, align 8, !llfi_index !1282
  %15 = load %"struct.std::_Rb_tree_node_base"*, %"struct.std::_Rb_tree_node_base"** %14, align 8, !llfi_index !1283
  store %"struct.std::_Rb_tree_node_base"* %15, %"struct.std::_Rb_tree_node_base"** %13, align 8, !llfi_index !1284
  ret void, !llfi_index !1285
}

; Function Attrs: mustprogress noinline nounwind uwtable
define linkonce_odr dso_local nonnull align 8 dereferenceable(8) %"struct.std::_Rb_tree_node_base"** @_ZSt7forwardIRPSt18_Rb_tree_node_baseEOT_RNSt16remove_referenceIS3_E4typeE(%"struct.std::_Rb_tree_node_base"** nonnull align 8 dereferenceable(8) %0) #7 comdat {
  %2 = alloca %"struct.std::_Rb_tree_node_base"**, align 8, !llfi_index !1286
  store %"struct.std::_Rb_tree_node_base"** %0, %"struct.std::_Rb_tree_node_base"*** %2, align 8, !llfi_index !1287
  %3 = load %"struct.std::_Rb_tree_node_base"**, %"struct.std::_Rb_tree_node_base"*** %2, align 8, !llfi_index !1288
  ret %"struct.std::_Rb_tree_node_base"** %3, !llfi_index !1289
}

; Function Attrs: nounwind readonly willreturn
declare dso_local %"struct.std::_Rb_tree_node_base"* @_ZSt18_Rb_tree_decrementPSt18_Rb_tree_node_base(%"struct.std::_Rb_tree_node_base"*) #8

; Function Attrs: mustprogress noinline nounwind uwtable
define linkonce_odr dso_local nonnull align 8 dereferenceable(8) %"struct.std::_Rb_tree_node"** @_ZSt7forwardIRPSt13_Rb_tree_nodeIiEEOT_RNSt16remove_referenceIS4_E4typeE(%"struct.std::_Rb_tree_node"** nonnull align 8 dereferenceable(8) %0) #7 comdat {
  %2 = alloca %"struct.std::_Rb_tree_node"**, align 8, !llfi_index !1290
  store %"struct.std::_Rb_tree_node"** %0, %"struct.std::_Rb_tree_node"*** %2, align 8, !llfi_index !1291
  %3 = load %"struct.std::_Rb_tree_node"**, %"struct.std::_Rb_tree_node"*** %2, align 8, !llfi_index !1292
  ret %"struct.std::_Rb_tree_node"** %3, !llfi_index !1293
}

; Function Attrs: noinline nounwind uwtable
define linkonce_odr dso_local void @_ZNSt8_Rb_treeIiiSt9_IdentityIiESt4lessIiESaIiEEC2Ev(%"class.std::_Rb_tree"* nonnull align 8 dereferenceable(48) %0) unnamed_addr #5 comdat align 2 {
  %2 = alloca %"class.std::_Rb_tree"*, align 8, !llfi_index !1294
  store %"class.std::_Rb_tree"* %0, %"class.std::_Rb_tree"** %2, align 8, !llfi_index !1295
  %3 = load %"class.std::_Rb_tree"*, %"class.std::_Rb_tree"** %2, align 8, !llfi_index !1296
  %4 = getelementptr inbounds %"class.std::_Rb_tree", %"class.std::_Rb_tree"* %3, i32 0, i32 0, !llfi_index !1297
  call void @_ZNSt8_Rb_treeIiiSt9_IdentityIiESt4lessIiESaIiEE13_Rb_tree_implIS3_Lb1EEC2Ev(%"struct.std::_Rb_tree<int, int, std::_Identity<int>, std::less<int>>::_Rb_tree_impl"* nonnull align 8 dereferenceable(48) %4) #2, !llfi_index !1298
  ret void, !llfi_index !1299
}

; Function Attrs: noinline nounwind uwtable
define linkonce_odr dso_local void @_ZNSt8_Rb_treeIiiSt9_IdentityIiESt4lessIiESaIiEE13_Rb_tree_implIS3_Lb1EEC2Ev(%"struct.std::_Rb_tree<int, int, std::_Identity<int>, std::less<int>>::_Rb_tree_impl"* nonnull align 8 dereferenceable(48) %0) unnamed_addr #5 comdat align 2 {
  %2 = alloca %"struct.std::_Rb_tree<int, int, std::_Identity<int>, std::less<int>>::_Rb_tree_impl"*, align 8, !llfi_index !1300
  store %"struct.std::_Rb_tree<int, int, std::_Identity<int>, std::less<int>>::_Rb_tree_impl"* %0, %"struct.std::_Rb_tree<int, int, std::_Identity<int>, std::less<int>>::_Rb_tree_impl"** %2, align 8, !llfi_index !1301
  %3 = load %"struct.std::_Rb_tree<int, int, std::_Identity<int>, std::less<int>>::_Rb_tree_impl"*, %"struct.std::_Rb_tree<int, int, std::_Identity<int>, std::less<int>>::_Rb_tree_impl"** %2, align 8, !llfi_index !1302
  %4 = bitcast %"struct.std::_Rb_tree<int, int, std::_Identity<int>, std::less<int>>::_Rb_tree_impl"* %3 to %"class.std::ios_base::Init"*, !llfi_index !1303
  call void @_ZNSaISt13_Rb_tree_nodeIiEEC2Ev(%"class.std::ios_base::Init"* nonnull align 1 dereferenceable(1) %4) #2, !llfi_index !1304
  %5 = bitcast %"struct.std::_Rb_tree<int, int, std::_Identity<int>, std::less<int>>::_Rb_tree_impl"* %3 to %"struct.std::_Rb_tree_key_compare"*, !llfi_index !1305
  call void @_ZNSt20_Rb_tree_key_compareISt4lessIiEEC2Ev(%"struct.std::_Rb_tree_key_compare"* nonnull align 1 dereferenceable(1) %5) #2, !llfi_index !1306
  %6 = bitcast %"struct.std::_Rb_tree<int, int, std::_Identity<int>, std::less<int>>::_Rb_tree_impl"* %3 to i8*, !llfi_index !1307
  %7 = getelementptr inbounds i8, i8* %6, i64 8, !llfi_index !1308
  %8 = bitcast i8* %7 to %"struct.std::_Rb_tree_header"*, !llfi_index !1309
  call void @_ZNSt15_Rb_tree_headerC2Ev(%"struct.std::_Rb_tree_header"* nonnull align 8 dereferenceable(40) %8) #2, !llfi_index !1310
  ret void, !llfi_index !1311
}

; Function Attrs: noinline nounwind uwtable
define linkonce_odr dso_local void @_ZNSaISt13_Rb_tree_nodeIiEEC2Ev(%"class.std::ios_base::Init"* nonnull align 1 dereferenceable(1) %0) unnamed_addr #5 comdat align 2 {
  %2 = alloca %"class.std::ios_base::Init"*, align 8, !llfi_index !1312
  store %"class.std::ios_base::Init"* %0, %"class.std::ios_base::Init"** %2, align 8, !llfi_index !1313
  %3 = load %"class.std::ios_base::Init"*, %"class.std::ios_base::Init"** %2, align 8, !llfi_index !1314
  %4 = bitcast %"class.std::ios_base::Init"* %3 to %"class.std::ios_base::Init"*, !llfi_index !1315
  call void @_ZN9__gnu_cxx13new_allocatorISt13_Rb_tree_nodeIiEEC2Ev(%"class.std::ios_base::Init"* nonnull align 1 dereferenceable(1) %4) #2, !llfi_index !1316
  ret void, !llfi_index !1317
}

; Function Attrs: noinline nounwind uwtable
define linkonce_odr dso_local void @_ZNSt20_Rb_tree_key_compareISt4lessIiEEC2Ev(%"struct.std::_Rb_tree_key_compare"* nonnull align 1 dereferenceable(1) %0) unnamed_addr #5 comdat align 2 {
  %2 = alloca %"struct.std::_Rb_tree_key_compare"*, align 8, !llfi_index !1318
  store %"struct.std::_Rb_tree_key_compare"* %0, %"struct.std::_Rb_tree_key_compare"** %2, align 8, !llfi_index !1319
  %3 = load %"struct.std::_Rb_tree_key_compare"*, %"struct.std::_Rb_tree_key_compare"** %2, align 8, !llfi_index !1320
  %4 = getelementptr inbounds %"struct.std::_Rb_tree_key_compare", %"struct.std::_Rb_tree_key_compare"* %3, i32 0, i32 0, !llfi_index !1321
  ret void, !llfi_index !1322
}

; Function Attrs: noinline nounwind uwtable
define linkonce_odr dso_local void @_ZNSt15_Rb_tree_headerC2Ev(%"struct.std::_Rb_tree_header"* nonnull align 8 dereferenceable(40) %0) unnamed_addr #5 comdat align 2 personality i8* bitcast (i32 (...)* @__gxx_personality_v0 to i8*) {
  %2 = alloca %"struct.std::_Rb_tree_header"*, align 8, !llfi_index !1323
  store %"struct.std::_Rb_tree_header"* %0, %"struct.std::_Rb_tree_header"** %2, align 8, !llfi_index !1324
  %3 = load %"struct.std::_Rb_tree_header"*, %"struct.std::_Rb_tree_header"** %2, align 8, !llfi_index !1325
  %4 = getelementptr inbounds %"struct.std::_Rb_tree_header", %"struct.std::_Rb_tree_header"* %3, i32 0, i32 0, !llfi_index !1326
  %5 = getelementptr inbounds %"struct.std::_Rb_tree_header", %"struct.std::_Rb_tree_header"* %3, i32 0, i32 0, !llfi_index !1327
  %6 = getelementptr inbounds %"struct.std::_Rb_tree_node_base", %"struct.std::_Rb_tree_node_base"* %5, i32 0, i32 0, !llfi_index !1328
  store i32 0, i32* %6, align 8, !llfi_index !1329
  invoke void @_ZNSt15_Rb_tree_header8_M_resetEv(%"struct.std::_Rb_tree_header"* nonnull align 8 dereferenceable(40) %3)
          to label %7 unwind label %8, !llfi_index !1330

7:                                                ; preds = %1
  ret void, !llfi_index !1331

8:                                                ; preds = %1
  %9 = landingpad { i8*, i32 }
          catch i8* null, !llfi_index !1332
  %10 = extractvalue { i8*, i32 } %9, 0, !llfi_index !1333
  call void @__clang_call_terminate(i8* %10) #15, !llfi_index !1334
  unreachable, !llfi_index !1335
}

; Function Attrs: noinline nounwind uwtable
define linkonce_odr dso_local void @_ZN9__gnu_cxx13new_allocatorISt13_Rb_tree_nodeIiEEC2Ev(%"class.std::ios_base::Init"* nonnull align 1 dereferenceable(1) %0) unnamed_addr #5 comdat align 2 {
  %2 = alloca %"class.std::ios_base::Init"*, align 8, !llfi_index !1336
  store %"class.std::ios_base::Init"* %0, %"class.std::ios_base::Init"** %2, align 8, !llfi_index !1337
  %3 = load %"class.std::ios_base::Init"*, %"class.std::ios_base::Init"** %2, align 8, !llfi_index !1338
  ret void, !llfi_index !1339
}

attributes #0 = { noinline uwtable "frame-pointer"="all" "min-legal-vector-width"="0" "no-trapping-math"="true" "stack-protector-buffer-size"="8" "target-cpu"="x86-64" "target-features"="+cx8,+fxsr,+mmx,+sse,+sse2,+x87" "tune-cpu"="generic" }
attributes #1 = { "frame-pointer"="all" "no-trapping-math"="true" "stack-protector-buffer-size"="8" "target-cpu"="x86-64" "target-features"="+cx8,+fxsr,+mmx,+sse,+sse2,+x87" "tune-cpu"="generic" }
attributes #2 = { nounwind }
attributes #3 = { nounwind "frame-pointer"="all" "no-trapping-math"="true" "stack-protector-buffer-size"="8" "target-cpu"="x86-64" "target-features"="+cx8,+fxsr,+mmx,+sse,+sse2,+x87" "tune-cpu"="generic" }
attributes #4 = { mustprogress noinline norecurse uwtable "frame-pointer"="all" "min-legal-vector-width"="0" "no-trapping-math"="true" "stack-protector-buffer-size"="8" "target-cpu"="x86-64" "target-features"="+cx8,+fxsr,+mmx,+sse,+sse2,+x87" "tune-cpu"="generic" }
attributes #5 = { noinline nounwind uwtable "frame-pointer"="all" "min-legal-vector-width"="0" "no-trapping-math"="true" "stack-protector-buffer-size"="8" "target-cpu"="x86-64" "target-features"="+cx8,+fxsr,+mmx,+sse,+sse2,+x87" "tune-cpu"="generic" }
attributes #6 = { mustprogress noinline uwtable "frame-pointer"="all" "min-legal-vector-width"="0" "no-trapping-math"="true" "stack-protector-buffer-size"="8" "target-cpu"="x86-64" "target-features"="+cx8,+fxsr,+mmx,+sse,+sse2,+x87" "tune-cpu"="generic" }
attributes #7 = { mustprogress noinline nounwind uwtable "frame-pointer"="all" "min-legal-vector-width"="0" "no-trapping-math"="true" "stack-protector-buffer-size"="8" "target-cpu"="x86-64" "target-features"="+cx8,+fxsr,+mmx,+sse,+sse2,+x87" "tune-cpu"="generic" }
attributes #8 = { nounwind readonly willreturn "frame-pointer"="all" "no-trapping-math"="true" "stack-protector-buffer-size"="8" "target-cpu"="x86-64" "target-features"="+cx8,+fxsr,+mmx,+sse,+sse2,+x87" "tune-cpu"="generic" }
attributes #9 = { noinline noreturn nounwind }
attributes #10 = { nobuiltin nounwind "frame-pointer"="all" "no-trapping-math"="true" "stack-protector-buffer-size"="8" "target-cpu"="x86-64" "target-features"="+cx8,+fxsr,+mmx,+sse,+sse2,+x87" "tune-cpu"="generic" }
attributes #11 = { argmemonly nofree nounwind willreturn }
attributes #12 = { noreturn "frame-pointer"="all" "no-trapping-math"="true" "stack-protector-buffer-size"="8" "target-cpu"="x86-64" "target-features"="+cx8,+fxsr,+mmx,+sse,+sse2,+x87" "tune-cpu"="generic" }
attributes #13 = { nobuiltin allocsize(0) "frame-pointer"="all" "no-trapping-math"="true" "stack-protector-buffer-size"="8" "target-cpu"="x86-64" "target-features"="+cx8,+fxsr,+mmx,+sse,+sse2,+x87" "tune-cpu"="generic" }
attributes #14 = { nounwind readonly willreturn }
attributes #15 = { noreturn nounwind }
attributes #16 = { noreturn }
attributes #17 = { allocsize(0) }

!llvm.ident = !{!0}
!llvm.module.flags = !{!1, !2, !3}

!0 = !{!"clang version 13.0.0 (https://github.com/llvm/llvm-project.git d7b669b3a30345cfcdb2fde2af6f48aa4b94845d)"}
!1 = !{i32 1, !"wchar_size", i32 4}
!2 = !{i32 7, !"uwtable", i32 1}
!3 = !{i32 7, !"frame-pointer", i32 2}
!4 = !{i64 1}
!5 = !{i64 2}
!6 = !{i64 3}
!7 = !{i64 4}
!8 = !{i64 5}
!9 = !{i64 6}
!10 = !{i64 7}
!11 = !{i64 8}
!12 = !{i64 9}
!13 = !{i64 10}
!14 = !{i64 11}
!15 = !{i64 12}
!16 = !{i64 13}
!17 = !{i64 14}
!18 = !{i64 15}
!19 = !{i64 16}
!20 = !{i64 17}
!21 = !{i64 18}
!22 = !{i64 19}
!23 = !{i64 20}
!24 = !{i64 21}
!25 = !{i64 22}
!26 = !{i64 23}
!27 = !{i64 24}
!28 = !{i64 25}
!29 = !{i64 26}
!30 = !{i64 27}
!31 = !{i64 28}
!32 = !{i64 29}
!33 = !{i64 30}
!34 = !{i64 31}
!35 = !{i64 32}
!36 = !{i64 33}
!37 = !{i64 34}
!38 = !{i64 35}
!39 = !{i64 36}
!40 = !{i64 37}
!41 = !{i64 38}
!42 = !{i64 39}
!43 = !{i64 40}
!44 = !{i64 41}
!45 = !{i64 42}
!46 = !{i64 43}
!47 = distinct !{!47, !48}
!48 = !{!"llvm.loop.mustprogress"}
!49 = !{i64 44}
!50 = !{i64 45}
!51 = !{i64 46}
!52 = !{i64 47}
!53 = !{i64 48}
!54 = !{i64 49}
!55 = !{i64 50}
!56 = !{i64 51}
!57 = !{i64 52}
!58 = !{i64 53}
!59 = !{i64 54}
!60 = !{i64 55}
!61 = !{i64 56}
!62 = !{i64 57}
!63 = !{i64 58}
!64 = !{i64 59}
!65 = !{i64 60}
!66 = !{i64 61}
!67 = !{i64 62}
!68 = !{i64 63}
!69 = !{i64 64}
!70 = !{i64 65}
!71 = !{i64 66}
!72 = !{i64 67}
!73 = !{i64 68}
!74 = !{i64 69}
!75 = !{i64 70}
!76 = !{i64 71}
!77 = !{i64 72}
!78 = !{i64 73}
!79 = !{i64 74}
!80 = !{i64 75}
!81 = !{i64 76}
!82 = !{i64 77}
!83 = !{i64 78}
!84 = !{i64 79}
!85 = !{i64 80}
!86 = !{i64 81}
!87 = !{i64 82}
!88 = distinct !{!88, !48}
!89 = !{i64 83}
!90 = !{i64 84}
!91 = !{i64 85}
!92 = !{i64 86}
!93 = !{i64 87}
!94 = !{i64 88}
!95 = !{i64 89}
!96 = !{i64 90}
!97 = !{i64 91}
!98 = !{i64 92}
!99 = !{i64 93}
!100 = !{i64 94}
!101 = !{i64 95}
!102 = !{i64 96}
!103 = !{i64 97}
!104 = !{i64 98}
!105 = !{i64 99}
!106 = !{i64 100}
!107 = !{i64 101}
!108 = !{i64 102}
!109 = !{i64 103}
!110 = !{i64 104}
!111 = !{i64 105}
!112 = !{i64 106}
!113 = !{i64 107}
!114 = !{i64 108}
!115 = !{i64 109}
!116 = !{i64 110}
!117 = !{i64 111}
!118 = !{i64 112}
!119 = !{i64 113}
!120 = !{i64 114}
!121 = !{i64 115}
!122 = !{i64 116}
!123 = !{i64 117}
!124 = !{i64 118}
!125 = !{i64 119}
!126 = !{i64 120}
!127 = !{i64 121}
!128 = !{i64 122}
!129 = !{i64 123}
!130 = !{i64 124}
!131 = !{i64 125}
!132 = !{i64 126}
!133 = !{i64 127}
!134 = !{i64 128}
!135 = !{i64 129}
!136 = !{i64 130}
!137 = !{i64 131}
!138 = !{i64 132}
!139 = !{i64 133}
!140 = !{i64 134}
!141 = !{i64 135}
!142 = !{i64 136}
!143 = !{i64 137}
!144 = !{i64 138}
!145 = !{i64 139}
!146 = !{i64 140}
!147 = !{i64 141}
!148 = !{i64 142}
!149 = !{i64 143}
!150 = !{i64 144}
!151 = !{i64 145}
!152 = !{i64 146}
!153 = !{i64 147}
!154 = !{i64 148}
!155 = !{i64 149}
!156 = !{i64 150}
!157 = !{i64 151}
!158 = !{i64 152}
!159 = !{i64 153}
!160 = !{i64 154}
!161 = !{i64 155}
!162 = !{i64 156}
!163 = !{i64 157}
!164 = !{i64 158}
!165 = !{i64 159}
!166 = !{i64 160}
!167 = !{i64 161}
!168 = !{i64 162}
!169 = !{i64 163}
!170 = !{i64 164}
!171 = !{i64 165}
!172 = !{i64 166}
!173 = !{i64 167}
!174 = !{i64 168}
!175 = !{i64 169}
!176 = !{i64 170}
!177 = !{i64 171}
!178 = !{i64 172}
!179 = !{i64 173}
!180 = !{i64 174}
!181 = !{i64 175}
!182 = !{i64 176}
!183 = !{i64 177}
!184 = !{i64 178}
!185 = !{i64 179}
!186 = !{i64 180}
!187 = !{i64 181}
!188 = !{i64 182}
!189 = !{i64 183}
!190 = !{i64 184}
!191 = !{i64 185}
!192 = !{i64 186}
!193 = !{i64 187}
!194 = !{i64 188}
!195 = !{i64 189}
!196 = !{i64 190}
!197 = !{i64 191}
!198 = !{i64 192}
!199 = !{i64 193}
!200 = !{i64 194}
!201 = !{i64 195}
!202 = !{i64 196}
!203 = !{i64 197}
!204 = !{i64 198}
!205 = !{i64 199}
!206 = !{i64 200}
!207 = !{i64 201}
!208 = !{i64 202}
!209 = !{i64 203}
!210 = !{i64 204}
!211 = !{i64 205}
!212 = !{i64 206}
!213 = !{i64 207}
!214 = !{i64 208}
!215 = !{i64 209}
!216 = !{i64 210}
!217 = !{i64 211}
!218 = !{i64 212}
!219 = !{i64 213}
!220 = !{i64 214}
!221 = !{i64 215}
!222 = !{i64 216}
!223 = !{i64 217}
!224 = !{i64 218}
!225 = !{i64 219}
!226 = !{i64 220}
!227 = !{i64 221}
!228 = !{i64 222}
!229 = !{i64 223}
!230 = !{i64 224}
!231 = !{i64 225}
!232 = !{i64 226}
!233 = !{i64 227}
!234 = !{i64 228}
!235 = !{i64 229}
!236 = !{i64 230}
!237 = !{i64 231}
!238 = !{i64 232}
!239 = !{i64 233}
!240 = !{i64 234}
!241 = !{i64 235}
!242 = !{i64 236}
!243 = !{i64 237}
!244 = !{i64 238}
!245 = !{i64 239}
!246 = !{i64 240}
!247 = !{i64 241}
!248 = !{i64 242}
!249 = !{i64 243}
!250 = !{i64 244}
!251 = !{i64 245}
!252 = !{i64 246}
!253 = !{i64 247}
!254 = !{i64 248}
!255 = !{i64 249}
!256 = !{i64 250}
!257 = !{i64 251}
!258 = !{i64 252}
!259 = !{i64 253}
!260 = !{i64 254}
!261 = !{i64 255}
!262 = !{i64 256}
!263 = !{i64 257}
!264 = !{i64 258}
!265 = !{i64 259}
!266 = !{i64 260}
!267 = !{i64 261}
!268 = !{i64 262}
!269 = !{i64 263}
!270 = !{i64 264}
!271 = !{i64 265}
!272 = !{i64 266}
!273 = !{i64 267}
!274 = distinct !{!274, !48}
!275 = !{i64 268}
!276 = !{i64 269}
!277 = !{i64 270}
!278 = !{i64 271}
!279 = !{i64 272}
!280 = !{i64 273}
!281 = !{i64 274}
!282 = !{i64 275}
!283 = !{i64 276}
!284 = !{i64 277}
!285 = !{i64 278}
!286 = !{i64 279}
!287 = !{i64 280}
!288 = !{i64 281}
!289 = !{i64 282}
!290 = !{i64 283}
!291 = !{i64 284}
!292 = !{i64 285}
!293 = !{i64 286}
!294 = !{i64 287}
!295 = !{i64 288}
!296 = !{i64 289}
!297 = !{i64 290}
!298 = !{i64 291}
!299 = !{i64 292}
!300 = !{i64 293}
!301 = !{i64 294}
!302 = !{i64 295}
!303 = !{i64 296}
!304 = !{i64 297}
!305 = !{i64 298}
!306 = !{i64 299}
!307 = !{i64 300}
!308 = !{i64 301}
!309 = !{i64 302}
!310 = !{i64 303}
!311 = !{i64 304}
!312 = !{i64 305}
!313 = !{i64 306}
!314 = !{i64 307}
!315 = !{i64 308}
!316 = !{i64 309}
!317 = !{i64 310}
!318 = !{i64 311}
!319 = !{i64 312}
!320 = !{i64 313}
!321 = !{i64 314}
!322 = !{i64 315}
!323 = !{i64 316}
!324 = !{i64 317}
!325 = !{i64 318}
!326 = !{i64 319}
!327 = !{i64 320}
!328 = !{i64 321}
!329 = !{i64 322}
!330 = !{i64 323}
!331 = !{i64 324}
!332 = !{i64 325}
!333 = !{i64 326}
!334 = !{i64 327}
!335 = !{i64 328}
!336 = !{i64 329}
!337 = !{i64 330}
!338 = !{i64 331}
!339 = !{i64 332}
!340 = !{i64 333}
!341 = !{i64 334}
!342 = !{i64 335}
!343 = !{i64 336}
!344 = !{i64 337}
!345 = distinct !{!345, !48}
!346 = !{i64 338}
!347 = !{i64 339}
!348 = !{i64 340}
!349 = !{i64 341}
!350 = !{i64 342}
!351 = !{i64 343}
!352 = !{i64 344}
!353 = !{i64 345}
!354 = !{i64 346}
!355 = !{i64 347}
!356 = !{i64 348}
!357 = !{i64 349}
!358 = !{i64 350}
!359 = !{i64 351}
!360 = !{i64 352}
!361 = !{i64 353}
!362 = !{i64 354}
!363 = !{i64 355}
!364 = !{i64 356}
!365 = !{i64 357}
!366 = !{i64 358}
!367 = !{i64 359}
!368 = !{i64 360}
!369 = !{i64 361}
!370 = !{i64 362}
!371 = !{i64 363}
!372 = !{i64 364}
!373 = !{i64 365}
!374 = !{i64 366}
!375 = !{i64 367}
!376 = !{i64 368}
!377 = !{i64 369}
!378 = !{i64 370}
!379 = !{i64 371}
!380 = !{i64 372}
!381 = !{i64 373}
!382 = !{i64 374}
!383 = !{i64 375}
!384 = !{i64 376}
!385 = !{i64 377}
!386 = !{i64 378}
!387 = !{i64 379}
!388 = !{i64 380}
!389 = !{i64 381}
!390 = !{i64 382}
!391 = !{i64 383}
!392 = !{i64 384}
!393 = !{i64 385}
!394 = !{i64 386}
!395 = !{i64 387}
!396 = !{i64 388}
!397 = !{i64 389}
!398 = !{i64 390}
!399 = !{i64 391}
!400 = !{i64 392}
!401 = !{i64 393}
!402 = !{i64 394}
!403 = !{i64 395}
!404 = !{i64 396}
!405 = !{i64 397}
!406 = !{i64 398}
!407 = !{i64 399}
!408 = !{i64 400}
!409 = !{i64 401}
!410 = !{i64 402}
!411 = !{i64 403}
!412 = !{i64 404}
!413 = !{i64 405}
!414 = !{i64 406}
!415 = !{i64 407}
!416 = !{i64 408}
!417 = !{i64 409}
!418 = !{i64 410}
!419 = !{i64 411}
!420 = !{i64 412}
!421 = !{i64 413}
!422 = !{i64 414}
!423 = !{i64 415}
!424 = !{i64 416}
!425 = !{i64 417}
!426 = !{i64 418}
!427 = !{i64 419}
!428 = !{i64 420}
!429 = !{i64 421}
!430 = !{i64 422}
!431 = !{i64 423}
!432 = !{i64 424}
!433 = !{i64 425}
!434 = !{i64 426}
!435 = !{i64 427}
!436 = !{i64 428}
!437 = !{i64 429}
!438 = !{i64 430}
!439 = !{i64 431}
!440 = !{i64 432}
!441 = !{i64 433}
!442 = !{i64 434}
!443 = !{i64 435}
!444 = !{i64 436}
!445 = !{i64 437}
!446 = !{i64 438}
!447 = !{i64 439}
!448 = !{i64 440}
!449 = !{i64 441}
!450 = !{i64 442}
!451 = !{i64 443}
!452 = !{i64 444}
!453 = !{i64 445}
!454 = !{i64 446}
!455 = !{i64 447}
!456 = !{i64 448}
!457 = !{i64 449}
!458 = !{i64 450}
!459 = !{i64 451}
!460 = !{i64 452}
!461 = !{i64 453}
!462 = !{i64 454}
!463 = !{i64 455}
!464 = !{i64 456}
!465 = !{i64 457}
!466 = !{i64 458}
!467 = !{i64 459}
!468 = !{i64 460}
!469 = !{i64 461}
!470 = !{i64 462}
!471 = !{i64 463}
!472 = !{i64 464}
!473 = !{i64 465}
!474 = !{i64 466}
!475 = !{i64 467}
!476 = !{i64 468}
!477 = !{i64 469}
!478 = !{i64 470}
!479 = !{i64 471}
!480 = !{i64 472}
!481 = !{i64 473}
!482 = !{i64 474}
!483 = !{i64 475}
!484 = !{i64 476}
!485 = !{i64 477}
!486 = !{i64 478}
!487 = !{i64 479}
!488 = !{i64 480}
!489 = !{i64 481}
!490 = !{i64 482}
!491 = !{i64 483}
!492 = !{i64 484}
!493 = !{i64 485}
!494 = !{i64 486}
!495 = !{i64 487}
!496 = !{i64 488}
!497 = !{i64 489}
!498 = !{i64 490}
!499 = !{i64 491}
!500 = !{i64 492}
!501 = !{i64 493}
!502 = !{i64 494}
!503 = !{i64 495}
!504 = !{i64 496}
!505 = !{i64 497}
!506 = !{i64 498}
!507 = !{i64 499}
!508 = !{i64 500}
!509 = !{i64 501}
!510 = !{i64 502}
!511 = !{i64 503}
!512 = !{i64 504}
!513 = !{i64 505}
!514 = !{i64 506}
!515 = !{i64 507}
!516 = !{i64 508}
!517 = !{i64 509}
!518 = !{i64 510}
!519 = !{i64 511}
!520 = !{i64 512}
!521 = !{i64 513}
!522 = !{i64 514}
!523 = !{i64 515}
!524 = !{i64 516}
!525 = !{i64 517}
!526 = !{i64 518}
!527 = !{i64 519}
!528 = !{i64 520}
!529 = !{i64 521}
!530 = !{i64 522}
!531 = !{i64 523}
!532 = !{i64 524}
!533 = !{i64 525}
!534 = !{i64 526}
!535 = !{i64 527}
!536 = !{i64 528}
!537 = !{i64 529}
!538 = !{i64 530}
!539 = !{i64 531}
!540 = !{i64 532}
!541 = !{i64 533}
!542 = !{i64 534}
!543 = !{i64 535}
!544 = !{i64 536}
!545 = !{i64 537}
!546 = !{i64 538}
!547 = !{i64 539}
!548 = !{i64 540}
!549 = !{i64 541}
!550 = !{i64 542}
!551 = !{i64 543}
!552 = !{i64 544}
!553 = !{i64 545}
!554 = !{i64 546}
!555 = !{i64 547}
!556 = !{i64 548}
!557 = !{i64 549}
!558 = !{i64 550}
!559 = !{i64 551}
!560 = !{i64 552}
!561 = !{i64 553}
!562 = !{i64 554}
!563 = !{i64 555}
!564 = !{i64 556}
!565 = !{i64 557}
!566 = !{i64 558}
!567 = !{i64 559}
!568 = !{i64 560}
!569 = !{i64 561}
!570 = !{i64 562}
!571 = !{i64 563}
!572 = !{i64 564}
!573 = !{i64 565}
!574 = !{i64 566}
!575 = !{i64 567}
!576 = !{i64 568}
!577 = !{i64 569}
!578 = !{i64 570}
!579 = !{i64 571}
!580 = !{i64 572}
!581 = !{i64 573}
!582 = !{i64 574}
!583 = !{i64 575}
!584 = !{i64 576}
!585 = !{i64 577}
!586 = !{i64 578}
!587 = !{i64 579}
!588 = !{i64 580}
!589 = !{i64 581}
!590 = !{i64 582}
!591 = !{i64 583}
!592 = !{i64 584}
!593 = !{i64 585}
!594 = !{i64 586}
!595 = !{i64 587}
!596 = !{i64 588}
!597 = !{i64 589}
!598 = !{i64 590}
!599 = distinct !{!599, !48}
!600 = !{i64 591}
!601 = !{i64 592}
!602 = !{i64 593}
!603 = !{i64 594}
!604 = !{i64 595}
!605 = !{i64 596}
!606 = !{i64 597}
!607 = !{i64 598}
!608 = !{i64 599}
!609 = !{i64 600}
!610 = !{i64 601}
!611 = !{i64 602}
!612 = !{i64 603}
!613 = !{i64 604}
!614 = !{i64 605}
!615 = !{i64 606}
!616 = !{i64 607}
!617 = !{i64 608}
!618 = !{i64 609}
!619 = !{i64 610}
!620 = !{i64 611}
!621 = !{i64 612}
!622 = !{i64 613}
!623 = !{i64 614}
!624 = !{i64 615}
!625 = !{i64 616}
!626 = !{i64 617}
!627 = !{i64 618}
!628 = !{i64 619}
!629 = !{i64 620}
!630 = !{i64 621}
!631 = !{i64 622}
!632 = !{i64 623}
!633 = !{i64 624}
!634 = !{i64 625}
!635 = !{i64 626}
!636 = !{i64 627}
!637 = !{i64 628}
!638 = !{i64 629}
!639 = !{i64 630}
!640 = !{i64 631}
!641 = !{i64 632}
!642 = !{i64 633}
!643 = !{i64 634}
!644 = !{i64 635}
!645 = !{i64 636}
!646 = !{i64 637}
!647 = !{i64 638}
!648 = !{i64 639}
!649 = !{i64 640}
!650 = !{i64 641}
!651 = !{i64 642}
!652 = !{i64 643}
!653 = !{i64 644}
!654 = !{i64 645}
!655 = !{i64 646}
!656 = !{i64 647}
!657 = !{i64 648}
!658 = !{i64 649}
!659 = !{i64 650}
!660 = !{i64 651}
!661 = !{i64 652}
!662 = !{i64 653}
!663 = !{i64 654}
!664 = !{i64 655}
!665 = !{i64 656}
!666 = !{i64 657}
!667 = !{i64 658}
!668 = !{i64 659}
!669 = !{i64 660}
!670 = !{i64 661}
!671 = !{i64 662}
!672 = !{i64 663}
!673 = !{i64 664}
!674 = !{i64 665}
!675 = !{i64 666}
!676 = !{i64 667}
!677 = !{i64 668}
!678 = !{i64 669}
!679 = !{i64 670}
!680 = !{i64 671}
!681 = !{i64 672}
!682 = !{i64 673}
!683 = !{i64 674}
!684 = !{i64 675}
!685 = !{i64 676}
!686 = !{i64 677}
!687 = !{i64 678}
!688 = !{i64 679}
!689 = !{i64 680}
!690 = !{i64 681}
!691 = !{i64 682}
!692 = !{i64 683}
!693 = !{i64 684}
!694 = !{i64 685}
!695 = !{i64 686}
!696 = !{i64 687}
!697 = !{i64 688}
!698 = !{i64 689}
!699 = !{i64 690}
!700 = !{i64 691}
!701 = !{i64 692}
!702 = !{i64 693}
!703 = !{i64 694}
!704 = !{i64 695}
!705 = !{i64 696}
!706 = distinct !{!706, !48}
!707 = !{i64 697}
!708 = !{i64 698}
!709 = !{i64 699}
!710 = !{i64 700}
!711 = !{i64 701}
!712 = !{i64 702}
!713 = !{i64 703}
!714 = !{i64 704}
!715 = !{i64 705}
!716 = !{i64 706}
!717 = !{i64 707}
!718 = !{i64 708}
!719 = !{i64 709}
!720 = !{i64 710}
!721 = !{i64 711}
!722 = !{i64 712}
!723 = !{i64 713}
!724 = !{i64 714}
!725 = !{i64 715}
!726 = !{i64 716}
!727 = !{i64 717}
!728 = !{i64 718}
!729 = !{i64 719}
!730 = !{i64 720}
!731 = !{i64 721}
!732 = !{i64 722}
!733 = !{i64 723}
!734 = !{i64 724}
!735 = !{i64 725}
!736 = !{i64 726}
!737 = !{i64 727}
!738 = !{i64 728}
!739 = !{i64 729}
!740 = !{i64 730}
!741 = !{i64 731}
!742 = !{i64 732}
!743 = !{i64 733}
!744 = !{i64 734}
!745 = !{i64 735}
!746 = !{i64 736}
!747 = !{i64 737}
!748 = distinct !{!748, !48}
!749 = !{i64 738}
!750 = !{i64 739}
!751 = !{i64 740}
!752 = !{i64 741}
!753 = !{i64 742}
!754 = !{i64 743}
!755 = !{i64 744}
!756 = !{i64 745}
!757 = !{i64 746}
!758 = !{i64 747}
!759 = !{i64 748}
!760 = !{i64 749}
!761 = !{i64 750}
!762 = !{i64 751}
!763 = !{i64 752}
!764 = !{i64 753}
!765 = !{i64 754}
!766 = !{i64 755}
!767 = !{i64 756}
!768 = !{i64 757}
!769 = !{i64 758}
!770 = !{i64 759}
!771 = !{i64 760}
!772 = !{i64 761}
!773 = !{i64 762}
!774 = !{i64 763}
!775 = !{i64 764}
!776 = !{i64 765}
!777 = !{i64 766}
!778 = !{i64 767}
!779 = !{i64 768}
!780 = !{i64 769}
!781 = !{i64 770}
!782 = !{i64 771}
!783 = !{i64 772}
!784 = !{i64 773}
!785 = !{i64 774}
!786 = !{i64 775}
!787 = !{i64 776}
!788 = !{i64 777}
!789 = !{i64 778}
!790 = !{i64 779}
!791 = !{i64 780}
!792 = !{i64 781}
!793 = !{i64 782}
!794 = !{i64 783}
!795 = !{i64 784}
!796 = !{i64 785}
!797 = !{i64 786}
!798 = !{i64 787}
!799 = !{i64 788}
!800 = !{i64 789}
!801 = !{i64 790}
!802 = !{i64 791}
!803 = !{i64 792}
!804 = !{i64 793}
!805 = !{i64 794}
!806 = !{i64 795}
!807 = !{i64 796}
!808 = !{i64 797}
!809 = !{i64 798}
!810 = !{i64 799}
!811 = !{i64 800}
!812 = !{i64 801}
!813 = !{i64 802}
!814 = !{i64 803}
!815 = !{i64 804}
!816 = !{i64 805}
!817 = !{i64 806}
!818 = !{i64 807}
!819 = !{i64 808}
!820 = !{i64 809}
!821 = !{i64 810}
!822 = !{i64 811}
!823 = !{i64 812}
!824 = !{i64 813}
!825 = !{i64 814}
!826 = !{i64 815}
!827 = !{i64 816}
!828 = !{i64 817}
!829 = !{i64 818}
!830 = !{i64 819}
!831 = !{i64 820}
!832 = !{i64 821}
!833 = !{i64 822}
!834 = !{i64 823}
!835 = !{i64 824}
!836 = !{i64 825}
!837 = !{i64 826}
!838 = !{i64 827}
!839 = !{i64 828}
!840 = !{i64 829}
!841 = !{i64 830}
!842 = !{i64 831}
!843 = !{i64 832}
!844 = !{i64 833}
!845 = !{i64 834}
!846 = !{i64 835}
!847 = !{i64 836}
!848 = !{i64 837}
!849 = !{i64 838}
!850 = !{i64 839}
!851 = !{i64 840}
!852 = !{i64 841}
!853 = !{i64 842}
!854 = !{i64 843}
!855 = !{i64 844}
!856 = !{i64 845}
!857 = !{i64 846}
!858 = !{i64 847}
!859 = !{i64 848}
!860 = !{i64 849}
!861 = !{i64 850}
!862 = !{i64 851}
!863 = !{i64 852}
!864 = !{i64 853}
!865 = !{i64 854}
!866 = !{i64 855}
!867 = !{i64 856}
!868 = !{i64 857}
!869 = !{i64 858}
!870 = !{i64 859}
!871 = !{i64 860}
!872 = !{i64 861}
!873 = !{i64 862}
!874 = !{i64 863}
!875 = !{i64 864}
!876 = !{i64 865}
!877 = !{i64 866}
!878 = !{i64 867}
!879 = !{i64 868}
!880 = !{i64 869}
!881 = !{i64 870}
!882 = !{i64 871}
!883 = !{i64 872}
!884 = !{i64 873}
!885 = !{i64 874}
!886 = !{i64 875}
!887 = !{i64 876}
!888 = !{i64 877}
!889 = !{i64 878}
!890 = !{i64 879}
!891 = !{i64 880}
!892 = !{i64 881}
!893 = !{i64 882}
!894 = !{i64 883}
!895 = !{i64 884}
!896 = !{i64 885}
!897 = !{i64 886}
!898 = !{i64 887}
!899 = !{i64 888}
!900 = !{i64 889}
!901 = !{i64 890}
!902 = !{i64 891}
!903 = !{i64 892}
!904 = !{i64 893}
!905 = !{i64 894}
!906 = !{i64 895}
!907 = !{i64 896}
!908 = !{i64 897}
!909 = !{i64 898}
!910 = !{i64 899}
!911 = !{i64 900}
!912 = !{i64 901}
!913 = !{i64 902}
!914 = !{i64 903}
!915 = !{i64 904}
!916 = !{i64 905}
!917 = !{i64 906}
!918 = !{i64 907}
!919 = !{i64 908}
!920 = !{i64 909}
!921 = !{i64 910}
!922 = !{i64 911}
!923 = !{i64 912}
!924 = !{i64 913}
!925 = !{i64 914}
!926 = !{i64 915}
!927 = !{i64 916}
!928 = !{i64 917}
!929 = !{i64 918}
!930 = !{i64 919}
!931 = !{i64 920}
!932 = !{i64 921}
!933 = !{i64 922}
!934 = !{i64 923}
!935 = !{i64 924}
!936 = !{i64 925}
!937 = !{i64 926}
!938 = !{i64 927}
!939 = !{i64 928}
!940 = !{i64 929}
!941 = !{i64 930}
!942 = !{i64 931}
!943 = !{i64 932}
!944 = !{i64 933}
!945 = !{i64 934}
!946 = !{i64 935}
!947 = !{i64 936}
!948 = !{i64 937}
!949 = !{i64 938}
!950 = !{i64 939}
!951 = !{i64 940}
!952 = !{i64 941}
!953 = !{i64 942}
!954 = !{i64 943}
!955 = !{i64 944}
!956 = !{i64 945}
!957 = !{i64 946}
!958 = !{i64 947}
!959 = !{i64 948}
!960 = !{i64 949}
!961 = !{i64 950}
!962 = !{i64 951}
!963 = !{i64 952}
!964 = !{i64 953}
!965 = !{i64 954}
!966 = !{i64 955}
!967 = !{i64 956}
!968 = !{i64 957}
!969 = !{i64 958}
!970 = !{i64 959}
!971 = !{i64 960}
!972 = !{i64 961}
!973 = !{i64 962}
!974 = !{i64 963}
!975 = !{i64 964}
!976 = distinct !{!976, !48}
!977 = !{i64 965}
!978 = !{i64 966}
!979 = !{i64 967}
!980 = !{i64 968}
!981 = !{i64 969}
!982 = !{i64 970}
!983 = !{i64 971}
!984 = !{i64 972}
!985 = !{i64 973}
!986 = !{i64 974}
!987 = !{i64 975}
!988 = !{i64 976}
!989 = !{i64 977}
!990 = !{i64 978}
!991 = !{i64 979}
!992 = !{i64 980}
!993 = !{i64 981}
!994 = !{i64 982}
!995 = !{i64 983}
!996 = !{i64 984}
!997 = !{i64 985}
!998 = !{i64 986}
!999 = !{i64 987}
!1000 = !{i64 988}
!1001 = !{i64 989}
!1002 = !{i64 990}
!1003 = !{i64 991}
!1004 = !{i64 992}
!1005 = !{i64 993}
!1006 = !{i64 994}
!1007 = !{i64 995}
!1008 = !{i64 996}
!1009 = !{i64 997}
!1010 = !{i64 998}
!1011 = !{i64 999}
!1012 = !{i64 1000}
!1013 = !{i64 1001}
!1014 = !{i64 1002}
!1015 = !{i64 1003}
!1016 = !{i64 1004}
!1017 = !{i64 1005}
!1018 = !{i64 1006}
!1019 = !{i64 1007}
!1020 = !{i64 1008}
!1021 = !{i64 1009}
!1022 = !{i64 1010}
!1023 = !{i64 1011}
!1024 = !{i64 1012}
!1025 = !{i64 1013}
!1026 = !{i64 1014}
!1027 = !{i64 1015}
!1028 = !{i64 1016}
!1029 = !{i64 1017}
!1030 = !{i64 1018}
!1031 = !{i64 1019}
!1032 = !{i64 1020}
!1033 = !{i64 1021}
!1034 = !{i64 1022}
!1035 = !{i64 1023}
!1036 = !{i64 1024}
!1037 = !{i64 1025}
!1038 = !{i64 1026}
!1039 = !{i64 1027}
!1040 = !{i64 1028}
!1041 = !{i64 1029}
!1042 = !{i64 1030}
!1043 = !{i64 1031}
!1044 = !{i64 1032}
!1045 = !{i64 1033}
!1046 = !{i64 1034}
!1047 = !{i64 1035}
!1048 = !{i64 1036}
!1049 = !{i64 1037}
!1050 = !{i64 1038}
!1051 = !{i64 1039}
!1052 = !{i64 1040}
!1053 = !{i64 1041}
!1054 = !{i64 1042}
!1055 = !{i64 1043}
!1056 = !{i64 1044}
!1057 = !{i64 1045}
!1058 = !{i64 1046}
!1059 = !{i64 1047}
!1060 = !{i64 1048}
!1061 = !{i64 1049}
!1062 = !{i64 1050}
!1063 = !{i64 1051}
!1064 = !{i64 1052}
!1065 = !{i64 1053}
!1066 = !{i64 1054}
!1067 = !{i64 1055}
!1068 = !{i64 1056}
!1069 = !{i64 1057}
!1070 = !{i64 1058}
!1071 = !{i64 1059}
!1072 = !{i64 1060}
!1073 = !{i64 1061}
!1074 = !{i64 1062}
!1075 = !{i64 1063}
!1076 = !{i64 1064}
!1077 = !{i64 1065}
!1078 = !{i64 1066}
!1079 = !{i64 1067}
!1080 = !{i64 1068}
!1081 = !{i64 1069}
!1082 = !{i64 1070}
!1083 = !{i64 1071}
!1084 = !{i64 1072}
!1085 = !{i64 1073}
!1086 = !{i64 1074}
!1087 = !{i64 1075}
!1088 = !{i64 1076}
!1089 = !{i64 1077}
!1090 = !{i64 1078}
!1091 = !{i64 1079}
!1092 = !{i64 1080}
!1093 = !{i64 1081}
!1094 = !{i64 1082}
!1095 = !{i64 1083}
!1096 = !{i64 1084}
!1097 = !{i64 1085}
!1098 = !{i64 1086}
!1099 = !{i64 1087}
!1100 = !{i64 1088}
!1101 = !{i64 1089}
!1102 = !{i64 1090}
!1103 = !{i64 1091}
!1104 = !{i64 1092}
!1105 = !{i64 1093}
!1106 = !{i64 1094}
!1107 = !{i64 1095}
!1108 = !{i64 1096}
!1109 = !{i64 1097}
!1110 = !{i64 1098}
!1111 = !{i64 1099}
!1112 = !{i64 1100}
!1113 = !{i64 1101}
!1114 = !{i64 1102}
!1115 = !{i64 1103}
!1116 = !{i64 1104}
!1117 = !{i64 1105}
!1118 = !{i64 1106}
!1119 = !{i64 1107}
!1120 = !{i64 1108}
!1121 = !{i64 1109}
!1122 = !{i64 1110}
!1123 = !{i64 1111}
!1124 = !{i64 1112}
!1125 = !{i64 1113}
!1126 = !{i64 1114}
!1127 = !{i64 1115}
!1128 = !{i64 1116}
!1129 = !{i64 1117}
!1130 = !{i64 1118}
!1131 = !{i64 1119}
!1132 = !{i64 1120}
!1133 = !{i64 1121}
!1134 = !{i64 1122}
!1135 = !{i64 1123}
!1136 = !{i64 1124}
!1137 = !{i64 1125}
!1138 = !{i64 1126}
!1139 = !{i64 1127}
!1140 = !{i64 1128}
!1141 = !{i64 1129}
!1142 = !{i64 1130}
!1143 = !{i64 1131}
!1144 = !{i64 1132}
!1145 = !{i64 1133}
!1146 = !{i64 1134}
!1147 = !{i64 1135}
!1148 = !{i64 1136}
!1149 = !{i64 1137}
!1150 = !{i64 1138}
!1151 = !{i64 1139}
!1152 = !{i64 1140}
!1153 = !{i64 1141}
!1154 = !{i64 1142}
!1155 = !{i64 1143}
!1156 = !{i64 1144}
!1157 = !{i64 1145}
!1158 = !{i64 1146}
!1159 = !{i64 1147}
!1160 = !{i64 1148}
!1161 = !{i64 1149}
!1162 = !{i64 1150}
!1163 = !{i64 1151}
!1164 = !{i64 1152}
!1165 = !{i64 1153}
!1166 = !{i64 1154}
!1167 = !{i64 1155}
!1168 = !{i64 1156}
!1169 = !{i64 1157}
!1170 = !{i64 1158}
!1171 = !{i64 1159}
!1172 = !{i64 1160}
!1173 = !{i64 1161}
!1174 = !{i64 1162}
!1175 = !{i64 1163}
!1176 = !{i64 1164}
!1177 = !{i64 1165}
!1178 = !{i64 1166}
!1179 = !{i64 1167}
!1180 = !{i64 1168}
!1181 = !{i64 1169}
!1182 = !{i64 1170}
!1183 = !{i64 1171}
!1184 = !{i64 1172}
!1185 = !{i64 1173}
!1186 = !{i64 1174}
!1187 = !{i64 1175}
!1188 = !{i64 1176}
!1189 = !{i64 1177}
!1190 = !{i64 1178}
!1191 = !{i64 1179}
!1192 = !{i64 1180}
!1193 = !{i64 1181}
!1194 = !{i64 1182}
!1195 = !{i64 1183}
!1196 = !{i64 1184}
!1197 = !{i64 1185}
!1198 = !{i64 1186}
!1199 = !{i64 1187}
!1200 = !{i64 1188}
!1201 = !{i64 1189}
!1202 = !{i64 1190}
!1203 = !{i64 1191}
!1204 = !{i64 1192}
!1205 = !{i64 1193}
!1206 = !{i64 1194}
!1207 = !{i64 1195}
!1208 = !{i64 1196}
!1209 = !{i64 1197}
!1210 = !{i64 1198}
!1211 = !{i64 1199}
!1212 = !{i64 1200}
!1213 = !{i64 1201}
!1214 = !{i64 1202}
!1215 = !{i64 1203}
!1216 = !{i64 1204}
!1217 = !{i64 1205}
!1218 = !{i64 1206}
!1219 = !{i64 1207}
!1220 = !{i64 1208}
!1221 = !{i64 1209}
!1222 = !{i64 1210}
!1223 = !{i64 1211}
!1224 = !{i64 1212}
!1225 = !{i64 1213}
!1226 = !{i64 1214}
!1227 = !{i64 1215}
!1228 = !{i64 1216}
!1229 = !{i64 1217}
!1230 = !{i64 1218}
!1231 = !{i64 1219}
!1232 = !{i64 1220}
!1233 = !{i64 1221}
!1234 = !{i64 1222}
!1235 = !{i64 1223}
!1236 = !{i64 1224}
!1237 = !{i64 1225}
!1238 = !{i64 1226}
!1239 = !{i64 1227}
!1240 = !{i64 1228}
!1241 = !{i64 1229}
!1242 = !{i64 1230}
!1243 = !{i64 1231}
!1244 = !{i64 1232}
!1245 = !{i64 1233}
!1246 = !{i64 1234}
!1247 = !{i64 1235}
!1248 = !{i64 1236}
!1249 = !{i64 1237}
!1250 = !{i64 1238}
!1251 = !{i64 1239}
!1252 = !{i64 1240}
!1253 = !{i64 1241}
!1254 = !{i64 1242}
!1255 = !{i64 1243}
!1256 = !{i64 1244}
!1257 = !{i64 1245}
!1258 = !{i64 1246}
!1259 = !{i64 1247}
!1260 = !{i64 1248}
!1261 = !{i64 1249}
!1262 = !{i64 1250}
!1263 = !{i64 1251}
!1264 = !{i64 1252}
!1265 = !{i64 1253}
!1266 = !{i64 1254}
!1267 = !{i64 1255}
!1268 = !{i64 1256}
!1269 = !{i64 1257}
!1270 = !{i64 1258}
!1271 = !{i64 1259}
!1272 = !{i64 1260}
!1273 = !{i64 1261}
!1274 = !{i64 1262}
!1275 = !{i64 1263}
!1276 = !{i64 1264}
!1277 = !{i64 1265}
!1278 = !{i64 1266}
!1279 = !{i64 1267}
!1280 = !{i64 1268}
!1281 = !{i64 1269}
!1282 = !{i64 1270}
!1283 = !{i64 1271}
!1284 = !{i64 1272}
!1285 = !{i64 1273}
!1286 = !{i64 1274}
!1287 = !{i64 1275}
!1288 = !{i64 1276}
!1289 = !{i64 1277}
!1290 = !{i64 1278}
!1291 = !{i64 1279}
!1292 = !{i64 1280}
!1293 = !{i64 1281}
!1294 = !{i64 1282}
!1295 = !{i64 1283}
!1296 = !{i64 1284}
!1297 = !{i64 1285}
!1298 = !{i64 1286}
!1299 = !{i64 1287}
!1300 = !{i64 1288}
!1301 = !{i64 1289}
!1302 = !{i64 1290}
!1303 = !{i64 1291}
!1304 = !{i64 1292}
!1305 = !{i64 1293}
!1306 = !{i64 1294}
!1307 = !{i64 1295}
!1308 = !{i64 1296}
!1309 = !{i64 1297}
!1310 = !{i64 1298}
!1311 = !{i64 1299}
!1312 = !{i64 1300}
!1313 = !{i64 1301}
!1314 = !{i64 1302}
!1315 = !{i64 1303}
!1316 = !{i64 1304}
!1317 = !{i64 1305}
!1318 = !{i64 1306}
!1319 = !{i64 1307}
!1320 = !{i64 1308}
!1321 = !{i64 1309}
!1322 = !{i64 1310}
!1323 = !{i64 1311}
!1324 = !{i64 1312}
!1325 = !{i64 1313}
!1326 = !{i64 1314}
!1327 = !{i64 1315}
!1328 = !{i64 1316}
!1329 = !{i64 1317}
!1330 = !{i64 1318}
!1331 = !{i64 1319}
!1332 = !{i64 1320}
!1333 = !{i64 1321}
!1334 = !{i64 1322}
!1335 = !{i64 1323}
!1336 = !{i64 1324}
!1337 = !{i64 1325}
!1338 = !{i64 1326}
!1339 = !{i64 1327}
