; ModuleID = '/home/hjiang/Computation-Kernel-Dataset/experiments/Fault_injection_0308_parall/O0/Salesman/Salesman.ll'
source_filename = "llvm-link"
target datalayout = "e-m:e-p270:32:32-p271:32:32-p272:64:64-i64:64-f80:128-n8:16:32:64-S128"
target triple = "x86_64-unknown-linux-gnu"

%"class.std::ios_base::Init" = type { i8 }
%struct._IO_FILE = type { i32, i8*, i8*, i8*, i8*, i8*, i8*, i8*, i8*, i8*, i8*, i8*, %struct._IO_marker*, %struct._IO_FILE*, i32, i32, i64, i16, i8, [1 x i8], i8*, i64, %struct._IO_codecvt*, %struct._IO_wide_data*, %struct._IO_FILE*, i8*, i64, i32, [20 x i8] }
%struct._IO_marker = type opaque
%struct._IO_codecvt = type opaque
%struct._IO_wide_data = type opaque
%"class.std::vector" = type { %"struct.std::_Vector_base" }
%"struct.std::_Vector_base" = type { %"struct.std::_Vector_base<int, std::allocator<int>>::_Vector_impl" }
%"struct.std::_Vector_base<int, std::allocator<int>>::_Vector_impl" = type { %"struct.std::_Vector_base<int, std::allocator<int>>::_Vector_impl_data" }
%"struct.std::_Vector_base<int, std::allocator<int>>::_Vector_impl_data" = type { i32*, i32*, i32* }
%"class.__gnu_cxx::__normal_iterator" = type { i32* }

$_ZNSaIiEC2Ev = comdat any

$_ZNSt6vectorIiSaIiEEC2EmRKS0_ = comdat any

$_ZNSaIiED2Ev = comdat any

$_ZNSt6vectorIiSaIiEEixEm = comdat any

$_ZNSt6vectorIiSaIiEED2Ev = comdat any

$_ZNSt6vectorIiSaIiEE5beginEv = comdat any

$_ZNSt6vectorIiSaIiEE3endEv = comdat any

$_ZSt4sortIN9__gnu_cxx17__normal_iteratorIPiSt6vectorIiSaIiEEEEEvT_S7_ = comdat any

$_ZN9__gnu_cxx5__ops16__iter_less_iterEv = comdat any

$_ZSt6__sortIN9__gnu_cxx17__normal_iteratorIPiSt6vectorIiSaIiEEEENS0_5__ops15_Iter_less_iterEEvT_S9_T0_ = comdat any

$_ZN9__gnu_cxxneIPiSt6vectorIiSaIiEEEEbRKNS_17__normal_iteratorIT_T0_EESA_ = comdat any

$_ZN9__gnu_cxxmiIPiSt6vectorIiSaIiEEEENS_17__normal_iteratorIT_T0_E15difference_typeERKS8_SB_ = comdat any

$_ZSt4__lgl = comdat any

$_ZSt16__introsort_loopIN9__gnu_cxx17__normal_iteratorIPiSt6vectorIiSaIiEEEElNS0_5__ops15_Iter_less_iterEEvT_S9_T0_T1_ = comdat any

$_ZSt22__final_insertion_sortIN9__gnu_cxx17__normal_iteratorIPiSt6vectorIiSaIiEEEENS0_5__ops15_Iter_less_iterEEvT_S9_T0_ = comdat any

$_ZNK9__gnu_cxx17__normal_iteratorIPiSt6vectorIiSaIiEEEplEl = comdat any

$_ZSt16__insertion_sortIN9__gnu_cxx17__normal_iteratorIPiSt6vectorIiSaIiEEEENS0_5__ops15_Iter_less_iterEEvT_S9_T0_ = comdat any

$_ZSt26__unguarded_insertion_sortIN9__gnu_cxx17__normal_iteratorIPiSt6vectorIiSaIiEEEENS0_5__ops15_Iter_less_iterEEvT_S9_T0_ = comdat any

$_ZN9__gnu_cxx5__ops15__val_comp_iterENS0_15_Iter_less_iterE = comdat any

$_ZSt25__unguarded_linear_insertIN9__gnu_cxx17__normal_iteratorIPiSt6vectorIiSaIiEEEENS0_5__ops14_Val_less_iterEEvT_T0_ = comdat any

$_ZN9__gnu_cxx17__normal_iteratorIPiSt6vectorIiSaIiEEEppEv = comdat any

$_ZNK9__gnu_cxx17__normal_iteratorIPiSt6vectorIiSaIiEEEdeEv = comdat any

$_ZSt4moveIRiEONSt16remove_referenceIT_E4typeEOS2_ = comdat any

$_ZN9__gnu_cxx17__normal_iteratorIPiSt6vectorIiSaIiEEEmmEv = comdat any

$_ZNK9__gnu_cxx5__ops14_Val_less_iterclIiNS_17__normal_iteratorIPiSt6vectorIiSaIiEEEEEEbRT_T0_ = comdat any

$_ZN9__gnu_cxxeqIPiSt6vectorIiSaIiEEEEbRKNS_17__normal_iteratorIT_T0_EESA_ = comdat any

$_ZNK9__gnu_cxx5__ops15_Iter_less_iterclINS_17__normal_iteratorIPiSt6vectorIiSaIiEEEES8_EEbT_T0_ = comdat any

$_ZSt13move_backwardIN9__gnu_cxx17__normal_iteratorIPiSt6vectorIiSaIiEEEES6_ET0_T_S8_S7_ = comdat any

$_ZSt12__miter_baseIN9__gnu_cxx17__normal_iteratorIPiSt6vectorIiSaIiEEEEET_S7_ = comdat any

$_ZSt23__copy_move_backward_a2ILb1EN9__gnu_cxx17__normal_iteratorIPiSt6vectorIiSaIiEEEES6_ET1_T0_S8_S7_ = comdat any

$_ZSt12__niter_baseIPiSt6vectorIiSaIiEEET_N9__gnu_cxx17__normal_iteratorIS4_T0_EE = comdat any

$_ZSt22__copy_move_backward_aILb1EPiS0_ET1_T0_S2_S1_ = comdat any

$_ZSt12__niter_wrapIN9__gnu_cxx17__normal_iteratorIPiSt6vectorIiSaIiEEEES2_ET_S7_T0_ = comdat any

$_ZNSt20__copy_move_backwardILb1ELb1ESt26random_access_iterator_tagE13__copy_move_bIiEEPT_PKS3_S6_S4_ = comdat any

$_ZNK9__gnu_cxx17__normal_iteratorIPiSt6vectorIiSaIiEEE4baseEv = comdat any

$_ZN9__gnu_cxx17__normal_iteratorIPiSt6vectorIiSaIiEEEC2ERKS1_ = comdat any

$_ZSt14__partial_sortIN9__gnu_cxx17__normal_iteratorIPiSt6vectorIiSaIiEEEENS0_5__ops15_Iter_less_iterEEvT_S9_S9_T0_ = comdat any

$_ZSt27__unguarded_partition_pivotIN9__gnu_cxx17__normal_iteratorIPiSt6vectorIiSaIiEEEENS0_5__ops15_Iter_less_iterEET_S9_S9_T0_ = comdat any

$_ZNK9__gnu_cxx17__normal_iteratorIPiSt6vectorIiSaIiEEEmiEl = comdat any

$_ZSt22__move_median_to_firstIN9__gnu_cxx17__normal_iteratorIPiSt6vectorIiSaIiEEEENS0_5__ops15_Iter_less_iterEEvT_S9_S9_S9_T0_ = comdat any

$_ZSt21__unguarded_partitionIN9__gnu_cxx17__normal_iteratorIPiSt6vectorIiSaIiEEEENS0_5__ops15_Iter_less_iterEET_S9_S9_S9_T0_ = comdat any

$_ZN9__gnu_cxxltIPiSt6vectorIiSaIiEEEEbRKNS_17__normal_iteratorIT_T0_EESA_ = comdat any

$_ZSt9iter_swapIN9__gnu_cxx17__normal_iteratorIPiSt6vectorIiSaIiEEEES6_EvT_T0_ = comdat any

$_ZSt4swapIiENSt9enable_ifIXsr6__and_ISt6__not_ISt15__is_tuple_likeIT_EESt21is_move_constructibleIS3_ESt18is_move_assignableIS3_EEE5valueEvE4typeERS3_SC_ = comdat any

$_ZSt13__heap_selectIN9__gnu_cxx17__normal_iteratorIPiSt6vectorIiSaIiEEEENS0_5__ops15_Iter_less_iterEEvT_S9_S9_T0_ = comdat any

$_ZSt11__sort_heapIN9__gnu_cxx17__normal_iteratorIPiSt6vectorIiSaIiEEEENS0_5__ops15_Iter_less_iterEEvT_S9_RT0_ = comdat any

$_ZSt10__pop_heapIN9__gnu_cxx17__normal_iteratorIPiSt6vectorIiSaIiEEEENS0_5__ops15_Iter_less_iterEEvT_S9_S9_RT0_ = comdat any

$_ZSt13__adjust_heapIN9__gnu_cxx17__normal_iteratorIPiSt6vectorIiSaIiEEEEliNS0_5__ops15_Iter_less_iterEEvT_T0_SA_T1_T2_ = comdat any

$_ZSt4moveIRN9__gnu_cxx5__ops15_Iter_less_iterEEONSt16remove_referenceIT_E4typeEOS5_ = comdat any

$_ZN9__gnu_cxx5__ops14_Iter_less_valC2ENS0_15_Iter_less_iterE = comdat any

$_ZSt11__push_heapIN9__gnu_cxx17__normal_iteratorIPiSt6vectorIiSaIiEEEEliNS0_5__ops14_Iter_less_valEEvT_T0_SA_T1_RT2_ = comdat any

$_ZNK9__gnu_cxx5__ops14_Iter_less_valclINS_17__normal_iteratorIPiSt6vectorIiSaIiEEEEiEEbT_RT0_ = comdat any

$_ZSt11__make_heapIN9__gnu_cxx17__normal_iteratorIPiSt6vectorIiSaIiEEEENS0_5__ops15_Iter_less_iterEEvT_S9_RT0_ = comdat any

$_ZNSt12_Vector_baseIiSaIiEE19_M_get_Tp_allocatorEv = comdat any

$_ZSt8_DestroyIPiiEvT_S1_RSaIT0_E = comdat any

$_ZNSt12_Vector_baseIiSaIiEED2Ev = comdat any

$__clang_call_terminate = comdat any

$_ZNSt12_Vector_baseIiSaIiEE13_M_deallocateEPim = comdat any

$_ZNSt12_Vector_baseIiSaIiEE12_Vector_implD2Ev = comdat any

$_ZNSt16allocator_traitsISaIiEE10deallocateERS0_Pim = comdat any

$_ZN9__gnu_cxx13new_allocatorIiE10deallocateEPim = comdat any

$_ZSt8_DestroyIPiEvT_S1_ = comdat any

$_ZNSt12_Destroy_auxILb1EE9__destroyIPiEEvT_S3_ = comdat any

$_ZN9__gnu_cxx13new_allocatorIiED2Ev = comdat any

$_ZNSt6vectorIiSaIiEE17_S_check_init_lenEmRKS0_ = comdat any

$_ZNSt12_Vector_baseIiSaIiEEC2EmRKS0_ = comdat any

$_ZNSt6vectorIiSaIiEE21_M_default_initializeEm = comdat any

$_ZSt27__uninitialized_default_n_aIPimiET_S1_T0_RSaIT1_E = comdat any

$_ZSt25__uninitialized_default_nIPimET_S1_T0_ = comdat any

$_ZNSt27__uninitialized_default_n_1ILb1EE18__uninit_default_nIPimEET_S3_T0_ = comdat any

$_ZSt6fill_nIPimiET_S1_T0_RKT1_ = comdat any

$_ZSt12__niter_baseIPiET_S1_ = comdat any

$_ZSt10__fill_n_aIPimiEN9__gnu_cxx11__enable_ifIXsr11__is_scalarIT1_EE7__valueET_E6__typeES4_T0_RKS3_ = comdat any

$_ZSt12__niter_wrapIPiET_RKS1_S1_ = comdat any

$_ZNSt12_Vector_baseIiSaIiEE12_Vector_implC2ERKS0_ = comdat any

$_ZNSt12_Vector_baseIiSaIiEE17_M_create_storageEm = comdat any

$_ZNSt12_Vector_baseIiSaIiEE11_M_allocateEm = comdat any

$_ZNSt16allocator_traitsISaIiEE8allocateERS0_m = comdat any

$_ZN9__gnu_cxx13new_allocatorIiE8allocateEmPKv = comdat any

$_ZNK9__gnu_cxx13new_allocatorIiE8max_sizeEv = comdat any

$_ZNSaIiEC2ERKS_ = comdat any

$_ZNSt12_Vector_baseIiSaIiEE17_Vector_impl_dataC2Ev = comdat any

$_ZN9__gnu_cxx13new_allocatorIiEC2ERKS1_ = comdat any

$_ZNSt6vectorIiSaIiEE11_S_max_sizeERKS0_ = comdat any

$_ZNSt16allocator_traitsISaIiEE8max_sizeERKS0_ = comdat any

$_ZSt3minImERKT_S2_S2_ = comdat any

$_ZN9__gnu_cxx13new_allocatorIiEC2Ev = comdat any

@llvm.global_ctors = appending global [1 x { i32, void ()*, i8* }] [{ i32, void ()*, i8* } { i32 65535, void ()* @_GLOBAL__sub_I_Salesman.cpp, i8* null }]
@_ZStL8__ioinit = internal global %"class.std::ios_base::Init" zeroinitializer, align 1
@.str = private unnamed_addr constant [24 x i8] c"../input_files/Salesman\00", align 1
@.str.1 = private unnamed_addr constant [2 x i8] c"r\00", align 1
@stdin = external dso_local global %struct._IO_FILE*, align 8
@.str.2 = private unnamed_addr constant [3 x i8] c"%d\00", align 1
@.str.3 = private unnamed_addr constant [4 x i8] c"%d\0A\00", align 1
@.str.4 = private unnamed_addr constant [49 x i8] c"cannot create std::vector larger than max_size()\00", align 1

; Function Attrs: noinline uwtable
define internal void @_GLOBAL__sub_I_Salesman.cpp() #0 section ".text.startup" {
  call void @__cxx_global_var_init(), !llfi_index !4
  ret void, !llfi_index !5
}

; Function Attrs: noinline uwtable
define internal void @__cxx_global_var_init() #0 section ".text.startup" {
  call void @_ZNSt8ios_base4InitC1Ev(%"class.std::ios_base::Init"* nonnull align 1 dereferenceable(1) @_ZStL8__ioinit), !llfi_index !6
  %1 = call i32 @atexit(void ()* @__dtor__ZStL8__ioinit) #2, !llfi_index !7
  ret void, !llfi_index !8
}

declare dso_local void @_ZNSt8ios_base4InitC1Ev(%"class.std::ios_base::Init"* nonnull align 1 dereferenceable(1)) unnamed_addr #1

; Function Attrs: noinline uwtable
define internal void @__dtor__ZStL8__ioinit() #0 section ".text.startup" {
  call void @_ZNSt8ios_base4InitD1Ev(%"class.std::ios_base::Init"* @_ZStL8__ioinit), !llfi_index !9
  ret void, !llfi_index !10
}

; Function Attrs: nounwind
declare dso_local i32 @atexit(void ()*) #2

; Function Attrs: nounwind
declare dso_local void @_ZNSt8ios_base4InitD1Ev(%"class.std::ios_base::Init"* nonnull align 1 dereferenceable(1)) unnamed_addr #3

; Function Attrs: mustprogress noinline norecurse uwtable
define dso_local i32 @main() #4 personality i8* bitcast (i32 (...)* @__gxx_personality_v0 to i8*) {
  %1 = alloca i32, align 4, !llfi_index !11
  %2 = alloca i32, align 4, !llfi_index !12
  %3 = alloca i32, align 4, !llfi_index !13
  %4 = alloca i32, align 4, !llfi_index !14
  %5 = alloca %"class.std::vector", align 8, !llfi_index !15
  %6 = alloca %"class.std::ios_base::Init", align 1, !llfi_index !16
  %7 = alloca i8*, align 8, !llfi_index !17
  %8 = alloca i32, align 4, !llfi_index !18
  %9 = alloca i32, align 4, !llfi_index !19
  %10 = alloca %"class.__gnu_cxx::__normal_iterator", align 8, !llfi_index !20
  %11 = alloca %"class.__gnu_cxx::__normal_iterator", align 8, !llfi_index !21
  store i32 0, i32* %1, align 4, !llfi_index !22
  %12 = load %struct._IO_FILE*, %struct._IO_FILE** @stdin, align 8, !llfi_index !23
  %13 = call %struct._IO_FILE* @freopen(i8* getelementptr inbounds ([24 x i8], [24 x i8]* @.str, i64 0, i64 0), i8* getelementptr inbounds ([2 x i8], [2 x i8]* @.str.1, i64 0, i64 0), %struct._IO_FILE* %12), !llfi_index !24
  %14 = call i32 (i8*, ...) @__isoc99_scanf(i8* getelementptr inbounds ([3 x i8], [3 x i8]* @.str.2, i64 0, i64 0), i32* %2), !llfi_index !25
  store i32 89, i32* %3, align 4, !llfi_index !26
  br label %15, !llfi_index !27

15:                                               ; preds = %64, %0
  %16 = load i32, i32* %2, align 4, !llfi_index !28
  %17 = add nsw i32 %16, -1, !llfi_index !29
  store i32 %17, i32* %2, align 4, !llfi_index !30
  %18 = icmp ne i32 %16, 0, !llfi_index !31
  br i1 %18, label %19, label %65, !llfi_index !32

19:                                               ; preds = %15
  %20 = call i32 (i8*, ...) @__isoc99_scanf(i8* getelementptr inbounds ([3 x i8], [3 x i8]* @.str.2, i64 0, i64 0), i32* %4), !llfi_index !33
  %21 = load i32, i32* %4, align 4, !llfi_index !34
  %22 = sext i32 %21 to i64, !llfi_index !35
  call void @_ZNSaIiEC2Ev(%"class.std::ios_base::Init"* nonnull align 1 dereferenceable(1) %6) #2, !llfi_index !36
  invoke void @_ZNSt6vectorIiSaIiEEC2EmRKS0_(%"class.std::vector"* nonnull align 8 dereferenceable(24) %5, i64 %22, %"class.std::ios_base::Init"* nonnull align 1 dereferenceable(1) %6)
          to label %23 unwind label %37, !llfi_index !37

23:                                               ; preds = %19
  call void @_ZNSaIiED2Ev(%"class.std::ios_base::Init"* nonnull align 1 dereferenceable(1) %6) #2, !llfi_index !38
  store i32 89, i32* %3, align 4, !llfi_index !39
  store i32 0, i32* %9, align 4, !llfi_index !40
  br label %24, !llfi_index !41

24:                                               ; preds = %34, %23
  %25 = load i32, i32* %9, align 4, !llfi_index !42
  %26 = load i32, i32* %4, align 4, !llfi_index !43
  %27 = icmp slt i32 %25, %26, !llfi_index !44
  br i1 %27, label %28, label %45, !llfi_index !45

28:                                               ; preds = %24
  %29 = load i32, i32* %9, align 4, !llfi_index !46
  %30 = sext i32 %29 to i64, !llfi_index !47
  %31 = call nonnull align 4 dereferenceable(4) i32* @_ZNSt6vectorIiSaIiEEixEm(%"class.std::vector"* nonnull align 8 dereferenceable(24) %5, i64 %30) #2, !llfi_index !48
  %32 = invoke i32 (i8*, ...) @__isoc99_scanf(i8* getelementptr inbounds ([3 x i8], [3 x i8]* @.str.2, i64 0, i64 0), i32* %31)
          to label %33 unwind label %41, !llfi_index !49

33:                                               ; preds = %28
  br label %34, !llfi_index !50

34:                                               ; preds = %33
  %35 = load i32, i32* %9, align 4, !llfi_index !51
  %36 = add nsw i32 %35, 1, !llfi_index !52
  store i32 %36, i32* %9, align 4, !llfi_index !53
  br label %24, !llvm.loop !54, !llfi_index !56

37:                                               ; preds = %19
  %38 = landingpad { i8*, i32 }
          cleanup, !llfi_index !57
  %39 = extractvalue { i8*, i32 } %38, 0, !llfi_index !58
  store i8* %39, i8** %7, align 8, !llfi_index !59
  %40 = extractvalue { i8*, i32 } %38, 1, !llfi_index !60
  store i32 %40, i32* %8, align 4, !llfi_index !61
  call void @_ZNSaIiED2Ev(%"class.std::ios_base::Init"* nonnull align 1 dereferenceable(1) %6) #2, !llfi_index !62
  br label %66, !llfi_index !63

41:                                               ; preds = %54, %45, %28
  %42 = landingpad { i8*, i32 }
          cleanup, !llfi_index !64
  %43 = extractvalue { i8*, i32 } %42, 0, !llfi_index !65
  store i8* %43, i8** %7, align 8, !llfi_index !66
  %44 = extractvalue { i8*, i32 } %42, 1, !llfi_index !67
  store i32 %44, i32* %8, align 4, !llfi_index !68
  call void @_ZNSt6vectorIiSaIiEED2Ev(%"class.std::vector"* nonnull align 8 dereferenceable(24) %5) #2, !llfi_index !69
  br label %66, !llfi_index !70

45:                                               ; preds = %24
  %46 = call i32* @_ZNSt6vectorIiSaIiEE5beginEv(%"class.std::vector"* nonnull align 8 dereferenceable(24) %5) #2, !llfi_index !71
  %47 = getelementptr inbounds %"class.__gnu_cxx::__normal_iterator", %"class.__gnu_cxx::__normal_iterator"* %10, i32 0, i32 0, !llfi_index !72
  store i32* %46, i32** %47, align 8, !llfi_index !73
  %48 = call i32* @_ZNSt6vectorIiSaIiEE3endEv(%"class.std::vector"* nonnull align 8 dereferenceable(24) %5) #2, !llfi_index !74
  %49 = getelementptr inbounds %"class.__gnu_cxx::__normal_iterator", %"class.__gnu_cxx::__normal_iterator"* %11, i32 0, i32 0, !llfi_index !75
  store i32* %48, i32** %49, align 8, !llfi_index !76
  %50 = getelementptr inbounds %"class.__gnu_cxx::__normal_iterator", %"class.__gnu_cxx::__normal_iterator"* %10, i32 0, i32 0, !llfi_index !77
  %51 = load i32*, i32** %50, align 8, !llfi_index !78
  %52 = getelementptr inbounds %"class.__gnu_cxx::__normal_iterator", %"class.__gnu_cxx::__normal_iterator"* %11, i32 0, i32 0, !llfi_index !79
  %53 = load i32*, i32** %52, align 8, !llfi_index !80
  invoke void @_ZSt4sortIN9__gnu_cxx17__normal_iteratorIPiSt6vectorIiSaIiEEEEEvT_S7_(i32* %51, i32* %53)
          to label %54 unwind label %41, !llfi_index !81

54:                                               ; preds = %45
  %55 = load i32, i32* %4, align 4, !llfi_index !82
  %56 = sub nsw i32 %55, 1, !llfi_index !83
  %57 = sext i32 %56 to i64, !llfi_index !84
  %58 = call nonnull align 4 dereferenceable(4) i32* @_ZNSt6vectorIiSaIiEEixEm(%"class.std::vector"* nonnull align 8 dereferenceable(24) %5, i64 %57) #2, !llfi_index !85
  %59 = load i32, i32* %58, align 4, !llfi_index !86
  %60 = call nonnull align 4 dereferenceable(4) i32* @_ZNSt6vectorIiSaIiEEixEm(%"class.std::vector"* nonnull align 8 dereferenceable(24) %5, i64 0) #2, !llfi_index !87
  %61 = load i32, i32* %60, align 4, !llfi_index !88
  %62 = sub nsw i32 %59, %61, !llfi_index !89
  %63 = invoke i32 (i8*, ...) @printf(i8* getelementptr inbounds ([4 x i8], [4 x i8]* @.str.3, i64 0, i64 0), i32 %62)
          to label %64 unwind label %41, !llfi_index !90

64:                                               ; preds = %54
  call void @_ZNSt6vectorIiSaIiEED2Ev(%"class.std::vector"* nonnull align 8 dereferenceable(24) %5) #2, !llfi_index !91
  br label %15, !llvm.loop !92, !llfi_index !93

65:                                               ; preds = %15
  ret i32 0, !llfi_index !94

66:                                               ; preds = %41, %37
  %67 = load i8*, i8** %7, align 8, !llfi_index !95
  %68 = load i32, i32* %8, align 4, !llfi_index !96
  %69 = insertvalue { i8*, i32 } undef, i8* %67, 0, !llfi_index !97
  %70 = insertvalue { i8*, i32 } %69, i32 %68, 1, !llfi_index !98
  resume { i8*, i32 } %70, !llfi_index !99
}

declare dso_local i32 @__gxx_personality_v0(...)

declare dso_local %struct._IO_FILE* @freopen(i8*, i8*, %struct._IO_FILE*) #1

declare dso_local i32 @__isoc99_scanf(i8*, ...) #1

; Function Attrs: noinline nounwind uwtable
define linkonce_odr dso_local void @_ZNSaIiEC2Ev(%"class.std::ios_base::Init"* nonnull align 1 dereferenceable(1) %0) unnamed_addr #5 comdat align 2 {
  %2 = alloca %"class.std::ios_base::Init"*, align 8, !llfi_index !100
  store %"class.std::ios_base::Init"* %0, %"class.std::ios_base::Init"** %2, align 8, !llfi_index !101
  %3 = load %"class.std::ios_base::Init"*, %"class.std::ios_base::Init"** %2, align 8, !llfi_index !102
  %4 = bitcast %"class.std::ios_base::Init"* %3 to %"class.std::ios_base::Init"*, !llfi_index !103
  call void @_ZN9__gnu_cxx13new_allocatorIiEC2Ev(%"class.std::ios_base::Init"* nonnull align 1 dereferenceable(1) %4) #2, !llfi_index !104
  ret void, !llfi_index !105
}

; Function Attrs: noinline uwtable
define linkonce_odr dso_local void @_ZNSt6vectorIiSaIiEEC2EmRKS0_(%"class.std::vector"* nonnull align 8 dereferenceable(24) %0, i64 %1, %"class.std::ios_base::Init"* nonnull align 1 dereferenceable(1) %2) unnamed_addr #0 comdat align 2 personality i8* bitcast (i32 (...)* @__gxx_personality_v0 to i8*) {
  %4 = alloca %"class.std::vector"*, align 8, !llfi_index !106
  %5 = alloca i64, align 8, !llfi_index !107
  %6 = alloca %"class.std::ios_base::Init"*, align 8, !llfi_index !108
  %7 = alloca i8*, align 8, !llfi_index !109
  %8 = alloca i32, align 4, !llfi_index !110
  store %"class.std::vector"* %0, %"class.std::vector"** %4, align 8, !llfi_index !111
  store i64 %1, i64* %5, align 8, !llfi_index !112
  store %"class.std::ios_base::Init"* %2, %"class.std::ios_base::Init"** %6, align 8, !llfi_index !113
  %9 = load %"class.std::vector"*, %"class.std::vector"** %4, align 8, !llfi_index !114
  %10 = bitcast %"class.std::vector"* %9 to %"struct.std::_Vector_base"*, !llfi_index !115
  %11 = load i64, i64* %5, align 8, !llfi_index !116
  %12 = load %"class.std::ios_base::Init"*, %"class.std::ios_base::Init"** %6, align 8, !llfi_index !117
  %13 = call i64 @_ZNSt6vectorIiSaIiEE17_S_check_init_lenEmRKS0_(i64 %11, %"class.std::ios_base::Init"* nonnull align 1 dereferenceable(1) %12), !llfi_index !118
  %14 = load %"class.std::ios_base::Init"*, %"class.std::ios_base::Init"** %6, align 8, !llfi_index !119
  call void @_ZNSt12_Vector_baseIiSaIiEEC2EmRKS0_(%"struct.std::_Vector_base"* nonnull align 8 dereferenceable(24) %10, i64 %13, %"class.std::ios_base::Init"* nonnull align 1 dereferenceable(1) %14), !llfi_index !120
  %15 = load i64, i64* %5, align 8, !llfi_index !121
  invoke void @_ZNSt6vectorIiSaIiEE21_M_default_initializeEm(%"class.std::vector"* nonnull align 8 dereferenceable(24) %9, i64 %15)
          to label %16 unwind label %17, !llfi_index !122

16:                                               ; preds = %3
  ret void, !llfi_index !123

17:                                               ; preds = %3
  %18 = landingpad { i8*, i32 }
          cleanup, !llfi_index !124
  %19 = extractvalue { i8*, i32 } %18, 0, !llfi_index !125
  store i8* %19, i8** %7, align 8, !llfi_index !126
  %20 = extractvalue { i8*, i32 } %18, 1, !llfi_index !127
  store i32 %20, i32* %8, align 4, !llfi_index !128
  %21 = bitcast %"class.std::vector"* %9 to %"struct.std::_Vector_base"*, !llfi_index !129
  call void @_ZNSt12_Vector_baseIiSaIiEED2Ev(%"struct.std::_Vector_base"* nonnull align 8 dereferenceable(24) %21) #2, !llfi_index !130
  br label %22, !llfi_index !131

22:                                               ; preds = %17
  %23 = load i8*, i8** %7, align 8, !llfi_index !132
  %24 = load i32, i32* %8, align 4, !llfi_index !133
  %25 = insertvalue { i8*, i32 } undef, i8* %23, 0, !llfi_index !134
  %26 = insertvalue { i8*, i32 } %25, i32 %24, 1, !llfi_index !135
  resume { i8*, i32 } %26, !llfi_index !136
}

; Function Attrs: noinline nounwind uwtable
define linkonce_odr dso_local void @_ZNSaIiED2Ev(%"class.std::ios_base::Init"* nonnull align 1 dereferenceable(1) %0) unnamed_addr #5 comdat align 2 {
  %2 = alloca %"class.std::ios_base::Init"*, align 8, !llfi_index !137
  store %"class.std::ios_base::Init"* %0, %"class.std::ios_base::Init"** %2, align 8, !llfi_index !138
  %3 = load %"class.std::ios_base::Init"*, %"class.std::ios_base::Init"** %2, align 8, !llfi_index !139
  %4 = bitcast %"class.std::ios_base::Init"* %3 to %"class.std::ios_base::Init"*, !llfi_index !140
  call void @_ZN9__gnu_cxx13new_allocatorIiED2Ev(%"class.std::ios_base::Init"* nonnull align 1 dereferenceable(1) %4) #2, !llfi_index !141
  ret void, !llfi_index !142
}

; Function Attrs: mustprogress noinline nounwind uwtable
define linkonce_odr dso_local nonnull align 4 dereferenceable(4) i32* @_ZNSt6vectorIiSaIiEEixEm(%"class.std::vector"* nonnull align 8 dereferenceable(24) %0, i64 %1) #6 comdat align 2 {
  %3 = alloca %"class.std::vector"*, align 8, !llfi_index !143
  %4 = alloca i64, align 8, !llfi_index !144
  store %"class.std::vector"* %0, %"class.std::vector"** %3, align 8, !llfi_index !145
  store i64 %1, i64* %4, align 8, !llfi_index !146
  %5 = load %"class.std::vector"*, %"class.std::vector"** %3, align 8, !llfi_index !147
  %6 = bitcast %"class.std::vector"* %5 to %"struct.std::_Vector_base"*, !llfi_index !148
  %7 = getelementptr inbounds %"struct.std::_Vector_base", %"struct.std::_Vector_base"* %6, i32 0, i32 0, !llfi_index !149
  %8 = bitcast %"struct.std::_Vector_base<int, std::allocator<int>>::_Vector_impl"* %7 to %"struct.std::_Vector_base<int, std::allocator<int>>::_Vector_impl_data"*, !llfi_index !150
  %9 = getelementptr inbounds %"struct.std::_Vector_base<int, std::allocator<int>>::_Vector_impl_data", %"struct.std::_Vector_base<int, std::allocator<int>>::_Vector_impl_data"* %8, i32 0, i32 0, !llfi_index !151
  %10 = load i32*, i32** %9, align 8, !llfi_index !152
  %11 = load i64, i64* %4, align 8, !llfi_index !153
  %12 = getelementptr inbounds i32, i32* %10, i64 %11, !llfi_index !154
  ret i32* %12, !llfi_index !155
}

; Function Attrs: noinline nounwind uwtable
define linkonce_odr dso_local void @_ZNSt6vectorIiSaIiEED2Ev(%"class.std::vector"* nonnull align 8 dereferenceable(24) %0) unnamed_addr #5 comdat align 2 personality i8* bitcast (i32 (...)* @__gxx_personality_v0 to i8*) {
  %2 = alloca %"class.std::vector"*, align 8, !llfi_index !156
  %3 = alloca i8*, align 8, !llfi_index !157
  %4 = alloca i32, align 4, !llfi_index !158
  store %"class.std::vector"* %0, %"class.std::vector"** %2, align 8, !llfi_index !159
  %5 = load %"class.std::vector"*, %"class.std::vector"** %2, align 8, !llfi_index !160
  %6 = bitcast %"class.std::vector"* %5 to %"struct.std::_Vector_base"*, !llfi_index !161
  %7 = getelementptr inbounds %"struct.std::_Vector_base", %"struct.std::_Vector_base"* %6, i32 0, i32 0, !llfi_index !162
  %8 = bitcast %"struct.std::_Vector_base<int, std::allocator<int>>::_Vector_impl"* %7 to %"struct.std::_Vector_base<int, std::allocator<int>>::_Vector_impl_data"*, !llfi_index !163
  %9 = getelementptr inbounds %"struct.std::_Vector_base<int, std::allocator<int>>::_Vector_impl_data", %"struct.std::_Vector_base<int, std::allocator<int>>::_Vector_impl_data"* %8, i32 0, i32 0, !llfi_index !164
  %10 = load i32*, i32** %9, align 8, !llfi_index !165
  %11 = bitcast %"class.std::vector"* %5 to %"struct.std::_Vector_base"*, !llfi_index !166
  %12 = getelementptr inbounds %"struct.std::_Vector_base", %"struct.std::_Vector_base"* %11, i32 0, i32 0, !llfi_index !167
  %13 = bitcast %"struct.std::_Vector_base<int, std::allocator<int>>::_Vector_impl"* %12 to %"struct.std::_Vector_base<int, std::allocator<int>>::_Vector_impl_data"*, !llfi_index !168
  %14 = getelementptr inbounds %"struct.std::_Vector_base<int, std::allocator<int>>::_Vector_impl_data", %"struct.std::_Vector_base<int, std::allocator<int>>::_Vector_impl_data"* %13, i32 0, i32 1, !llfi_index !169
  %15 = load i32*, i32** %14, align 8, !llfi_index !170
  %16 = bitcast %"class.std::vector"* %5 to %"struct.std::_Vector_base"*, !llfi_index !171
  %17 = call nonnull align 1 dereferenceable(1) %"class.std::ios_base::Init"* @_ZNSt12_Vector_baseIiSaIiEE19_M_get_Tp_allocatorEv(%"struct.std::_Vector_base"* nonnull align 8 dereferenceable(24) %16) #2, !llfi_index !172
  invoke void @_ZSt8_DestroyIPiiEvT_S1_RSaIT0_E(i32* %10, i32* %15, %"class.std::ios_base::Init"* nonnull align 1 dereferenceable(1) %17)
          to label %18 unwind label %20, !llfi_index !173

18:                                               ; preds = %1
  %19 = bitcast %"class.std::vector"* %5 to %"struct.std::_Vector_base"*, !llfi_index !174
  call void @_ZNSt12_Vector_baseIiSaIiEED2Ev(%"struct.std::_Vector_base"* nonnull align 8 dereferenceable(24) %19) #2, !llfi_index !175
  ret void, !llfi_index !176

20:                                               ; preds = %1
  %21 = landingpad { i8*, i32 }
          catch i8* null, !llfi_index !177
  %22 = extractvalue { i8*, i32 } %21, 0, !llfi_index !178
  store i8* %22, i8** %3, align 8, !llfi_index !179
  %23 = extractvalue { i8*, i32 } %21, 1, !llfi_index !180
  store i32 %23, i32* %4, align 4, !llfi_index !181
  %24 = bitcast %"class.std::vector"* %5 to %"struct.std::_Vector_base"*, !llfi_index !182
  call void @_ZNSt12_Vector_baseIiSaIiEED2Ev(%"struct.std::_Vector_base"* nonnull align 8 dereferenceable(24) %24) #2, !llfi_index !183
  br label %25, !llfi_index !184

25:                                               ; preds = %20
  %26 = load i8*, i8** %3, align 8, !llfi_index !185
  call void @__clang_call_terminate(i8* %26) #14, !llfi_index !186
  unreachable, !llfi_index !187
}

; Function Attrs: mustprogress noinline nounwind uwtable
define linkonce_odr dso_local i32* @_ZNSt6vectorIiSaIiEE5beginEv(%"class.std::vector"* nonnull align 8 dereferenceable(24) %0) #6 comdat align 2 {
  %2 = alloca %"class.__gnu_cxx::__normal_iterator", align 8, !llfi_index !188
  %3 = alloca %"class.std::vector"*, align 8, !llfi_index !189
  store %"class.std::vector"* %0, %"class.std::vector"** %3, align 8, !llfi_index !190
  %4 = load %"class.std::vector"*, %"class.std::vector"** %3, align 8, !llfi_index !191
  %5 = bitcast %"class.std::vector"* %4 to %"struct.std::_Vector_base"*, !llfi_index !192
  %6 = getelementptr inbounds %"struct.std::_Vector_base", %"struct.std::_Vector_base"* %5, i32 0, i32 0, !llfi_index !193
  %7 = bitcast %"struct.std::_Vector_base<int, std::allocator<int>>::_Vector_impl"* %6 to %"struct.std::_Vector_base<int, std::allocator<int>>::_Vector_impl_data"*, !llfi_index !194
  %8 = getelementptr inbounds %"struct.std::_Vector_base<int, std::allocator<int>>::_Vector_impl_data", %"struct.std::_Vector_base<int, std::allocator<int>>::_Vector_impl_data"* %7, i32 0, i32 0, !llfi_index !195
  call void @_ZN9__gnu_cxx17__normal_iteratorIPiSt6vectorIiSaIiEEEC2ERKS1_(%"class.__gnu_cxx::__normal_iterator"* nonnull align 8 dereferenceable(8) %2, i32** nonnull align 8 dereferenceable(8) %8) #2, !llfi_index !196
  %9 = getelementptr inbounds %"class.__gnu_cxx::__normal_iterator", %"class.__gnu_cxx::__normal_iterator"* %2, i32 0, i32 0, !llfi_index !197
  %10 = load i32*, i32** %9, align 8, !llfi_index !198
  ret i32* %10, !llfi_index !199
}

; Function Attrs: mustprogress noinline nounwind uwtable
define linkonce_odr dso_local i32* @_ZNSt6vectorIiSaIiEE3endEv(%"class.std::vector"* nonnull align 8 dereferenceable(24) %0) #6 comdat align 2 {
  %2 = alloca %"class.__gnu_cxx::__normal_iterator", align 8, !llfi_index !200
  %3 = alloca %"class.std::vector"*, align 8, !llfi_index !201
  store %"class.std::vector"* %0, %"class.std::vector"** %3, align 8, !llfi_index !202
  %4 = load %"class.std::vector"*, %"class.std::vector"** %3, align 8, !llfi_index !203
  %5 = bitcast %"class.std::vector"* %4 to %"struct.std::_Vector_base"*, !llfi_index !204
  %6 = getelementptr inbounds %"struct.std::_Vector_base", %"struct.std::_Vector_base"* %5, i32 0, i32 0, !llfi_index !205
  %7 = bitcast %"struct.std::_Vector_base<int, std::allocator<int>>::_Vector_impl"* %6 to %"struct.std::_Vector_base<int, std::allocator<int>>::_Vector_impl_data"*, !llfi_index !206
  %8 = getelementptr inbounds %"struct.std::_Vector_base<int, std::allocator<int>>::_Vector_impl_data", %"struct.std::_Vector_base<int, std::allocator<int>>::_Vector_impl_data"* %7, i32 0, i32 1, !llfi_index !207
  call void @_ZN9__gnu_cxx17__normal_iteratorIPiSt6vectorIiSaIiEEEC2ERKS1_(%"class.__gnu_cxx::__normal_iterator"* nonnull align 8 dereferenceable(8) %2, i32** nonnull align 8 dereferenceable(8) %8) #2, !llfi_index !208
  %9 = getelementptr inbounds %"class.__gnu_cxx::__normal_iterator", %"class.__gnu_cxx::__normal_iterator"* %2, i32 0, i32 0, !llfi_index !209
  %10 = load i32*, i32** %9, align 8, !llfi_index !210
  ret i32* %10, !llfi_index !211
}

; Function Attrs: mustprogress noinline uwtable
define linkonce_odr dso_local void @_ZSt4sortIN9__gnu_cxx17__normal_iteratorIPiSt6vectorIiSaIiEEEEEvT_S7_(i32* %0, i32* %1) #7 comdat {
  %3 = alloca %"class.__gnu_cxx::__normal_iterator", align 8, !llfi_index !212
  %4 = alloca %"class.__gnu_cxx::__normal_iterator", align 8, !llfi_index !213
  %5 = alloca %"class.__gnu_cxx::__normal_iterator", align 8, !llfi_index !214
  %6 = alloca %"class.__gnu_cxx::__normal_iterator", align 8, !llfi_index !215
  %7 = alloca %"class.std::ios_base::Init", align 1, !llfi_index !216
  %8 = alloca %"class.std::ios_base::Init", align 1, !llfi_index !217
  %9 = getelementptr inbounds %"class.__gnu_cxx::__normal_iterator", %"class.__gnu_cxx::__normal_iterator"* %3, i32 0, i32 0, !llfi_index !218
  store i32* %0, i32** %9, align 8, !llfi_index !219
  %10 = getelementptr inbounds %"class.__gnu_cxx::__normal_iterator", %"class.__gnu_cxx::__normal_iterator"* %4, i32 0, i32 0, !llfi_index !220
  store i32* %1, i32** %10, align 8, !llfi_index !221
  %11 = bitcast %"class.__gnu_cxx::__normal_iterator"* %5 to i8*, !llfi_index !222
  %12 = bitcast %"class.__gnu_cxx::__normal_iterator"* %3 to i8*, !llfi_index !223
  call void @llvm.memcpy.p0i8.p0i8.i64(i8* align 8 %11, i8* align 8 %12, i64 8, i1 false), !llfi_index !224
  %13 = bitcast %"class.__gnu_cxx::__normal_iterator"* %6 to i8*, !llfi_index !225
  %14 = bitcast %"class.__gnu_cxx::__normal_iterator"* %4 to i8*, !llfi_index !226
  call void @llvm.memcpy.p0i8.p0i8.i64(i8* align 8 %13, i8* align 8 %14, i64 8, i1 false), !llfi_index !227
  call void @_ZN9__gnu_cxx5__ops16__iter_less_iterEv(), !llfi_index !228
  %15 = getelementptr inbounds %"class.__gnu_cxx::__normal_iterator", %"class.__gnu_cxx::__normal_iterator"* %5, i32 0, i32 0, !llfi_index !229
  %16 = load i32*, i32** %15, align 8, !llfi_index !230
  %17 = getelementptr inbounds %"class.__gnu_cxx::__normal_iterator", %"class.__gnu_cxx::__normal_iterator"* %6, i32 0, i32 0, !llfi_index !231
  %18 = load i32*, i32** %17, align 8, !llfi_index !232
  call void @_ZSt6__sortIN9__gnu_cxx17__normal_iteratorIPiSt6vectorIiSaIiEEEENS0_5__ops15_Iter_less_iterEEvT_S9_T0_(i32* %16, i32* %18), !llfi_index !233
  ret void, !llfi_index !234
}

declare dso_local i32 @printf(i8*, ...) #1

; Function Attrs: argmemonly nofree nounwind willreturn
declare void @llvm.memcpy.p0i8.p0i8.i64(i8* noalias nocapture writeonly, i8* noalias nocapture readonly, i64, i1 immarg) #8

; Function Attrs: mustprogress noinline nounwind uwtable
define linkonce_odr dso_local void @_ZN9__gnu_cxx5__ops16__iter_less_iterEv() #6 comdat {
  ret void, !llfi_index !235
}

; Function Attrs: mustprogress noinline uwtable
define linkonce_odr dso_local void @_ZSt6__sortIN9__gnu_cxx17__normal_iteratorIPiSt6vectorIiSaIiEEEENS0_5__ops15_Iter_less_iterEEvT_S9_T0_(i32* %0, i32* %1) #7 comdat {
  %3 = alloca %"class.__gnu_cxx::__normal_iterator", align 8, !llfi_index !236
  %4 = alloca %"class.__gnu_cxx::__normal_iterator", align 8, !llfi_index !237
  %5 = alloca %"class.std::ios_base::Init", align 1, !llfi_index !238
  %6 = alloca %"class.__gnu_cxx::__normal_iterator", align 8, !llfi_index !239
  %7 = alloca %"class.__gnu_cxx::__normal_iterator", align 8, !llfi_index !240
  %8 = alloca %"class.std::ios_base::Init", align 1, !llfi_index !241
  %9 = alloca %"class.__gnu_cxx::__normal_iterator", align 8, !llfi_index !242
  %10 = alloca %"class.__gnu_cxx::__normal_iterator", align 8, !llfi_index !243
  %11 = alloca %"class.std::ios_base::Init", align 1, !llfi_index !244
  %12 = getelementptr inbounds %"class.__gnu_cxx::__normal_iterator", %"class.__gnu_cxx::__normal_iterator"* %3, i32 0, i32 0, !llfi_index !245
  store i32* %0, i32** %12, align 8, !llfi_index !246
  %13 = getelementptr inbounds %"class.__gnu_cxx::__normal_iterator", %"class.__gnu_cxx::__normal_iterator"* %4, i32 0, i32 0, !llfi_index !247
  store i32* %1, i32** %13, align 8, !llfi_index !248
  %14 = call zeroext i1 @_ZN9__gnu_cxxneIPiSt6vectorIiSaIiEEEEbRKNS_17__normal_iteratorIT_T0_EESA_(%"class.__gnu_cxx::__normal_iterator"* nonnull align 8 dereferenceable(8) %3, %"class.__gnu_cxx::__normal_iterator"* nonnull align 8 dereferenceable(8) %4) #2, !llfi_index !249
  br i1 %14, label %15, label %35, !llfi_index !250

15:                                               ; preds = %2
  %16 = bitcast %"class.__gnu_cxx::__normal_iterator"* %6 to i8*, !llfi_index !251
  %17 = bitcast %"class.__gnu_cxx::__normal_iterator"* %3 to i8*, !llfi_index !252
  call void @llvm.memcpy.p0i8.p0i8.i64(i8* align 8 %16, i8* align 8 %17, i64 8, i1 false), !llfi_index !253
  %18 = bitcast %"class.__gnu_cxx::__normal_iterator"* %7 to i8*, !llfi_index !254
  %19 = bitcast %"class.__gnu_cxx::__normal_iterator"* %4 to i8*, !llfi_index !255
  call void @llvm.memcpy.p0i8.p0i8.i64(i8* align 8 %18, i8* align 8 %19, i64 8, i1 false), !llfi_index !256
  %20 = call i64 @_ZN9__gnu_cxxmiIPiSt6vectorIiSaIiEEEENS_17__normal_iteratorIT_T0_E15difference_typeERKS8_SB_(%"class.__gnu_cxx::__normal_iterator"* nonnull align 8 dereferenceable(8) %4, %"class.__gnu_cxx::__normal_iterator"* nonnull align 8 dereferenceable(8) %3) #2, !llfi_index !257
  %21 = call i64 @_ZSt4__lgl(i64 %20), !llfi_index !258
  %22 = mul nsw i64 %21, 2, !llfi_index !259
  %23 = getelementptr inbounds %"class.__gnu_cxx::__normal_iterator", %"class.__gnu_cxx::__normal_iterator"* %6, i32 0, i32 0, !llfi_index !260
  %24 = load i32*, i32** %23, align 8, !llfi_index !261
  %25 = getelementptr inbounds %"class.__gnu_cxx::__normal_iterator", %"class.__gnu_cxx::__normal_iterator"* %7, i32 0, i32 0, !llfi_index !262
  %26 = load i32*, i32** %25, align 8, !llfi_index !263
  call void @_ZSt16__introsort_loopIN9__gnu_cxx17__normal_iteratorIPiSt6vectorIiSaIiEEEElNS0_5__ops15_Iter_less_iterEEvT_S9_T0_T1_(i32* %24, i32* %26, i64 %22), !llfi_index !264
  %27 = bitcast %"class.__gnu_cxx::__normal_iterator"* %9 to i8*, !llfi_index !265
  %28 = bitcast %"class.__gnu_cxx::__normal_iterator"* %3 to i8*, !llfi_index !266
  call void @llvm.memcpy.p0i8.p0i8.i64(i8* align 8 %27, i8* align 8 %28, i64 8, i1 false), !llfi_index !267
  %29 = bitcast %"class.__gnu_cxx::__normal_iterator"* %10 to i8*, !llfi_index !268
  %30 = bitcast %"class.__gnu_cxx::__normal_iterator"* %4 to i8*, !llfi_index !269
  call void @llvm.memcpy.p0i8.p0i8.i64(i8* align 8 %29, i8* align 8 %30, i64 8, i1 false), !llfi_index !270
  %31 = getelementptr inbounds %"class.__gnu_cxx::__normal_iterator", %"class.__gnu_cxx::__normal_iterator"* %9, i32 0, i32 0, !llfi_index !271
  %32 = load i32*, i32** %31, align 8, !llfi_index !272
  %33 = getelementptr inbounds %"class.__gnu_cxx::__normal_iterator", %"class.__gnu_cxx::__normal_iterator"* %10, i32 0, i32 0, !llfi_index !273
  %34 = load i32*, i32** %33, align 8, !llfi_index !274
  call void @_ZSt22__final_insertion_sortIN9__gnu_cxx17__normal_iteratorIPiSt6vectorIiSaIiEEEENS0_5__ops15_Iter_less_iterEEvT_S9_T0_(i32* %32, i32* %34), !llfi_index !275
  br label %35, !llfi_index !276

35:                                               ; preds = %15, %2
  ret void, !llfi_index !277
}

; Function Attrs: mustprogress noinline nounwind uwtable
define linkonce_odr dso_local zeroext i1 @_ZN9__gnu_cxxneIPiSt6vectorIiSaIiEEEEbRKNS_17__normal_iteratorIT_T0_EESA_(%"class.__gnu_cxx::__normal_iterator"* nonnull align 8 dereferenceable(8) %0, %"class.__gnu_cxx::__normal_iterator"* nonnull align 8 dereferenceable(8) %1) #6 comdat {
  %3 = alloca %"class.__gnu_cxx::__normal_iterator"*, align 8, !llfi_index !278
  %4 = alloca %"class.__gnu_cxx::__normal_iterator"*, align 8, !llfi_index !279
  store %"class.__gnu_cxx::__normal_iterator"* %0, %"class.__gnu_cxx::__normal_iterator"** %3, align 8, !llfi_index !280
  store %"class.__gnu_cxx::__normal_iterator"* %1, %"class.__gnu_cxx::__normal_iterator"** %4, align 8, !llfi_index !281
  %5 = load %"class.__gnu_cxx::__normal_iterator"*, %"class.__gnu_cxx::__normal_iterator"** %3, align 8, !llfi_index !282
  %6 = call nonnull align 8 dereferenceable(8) i32** @_ZNK9__gnu_cxx17__normal_iteratorIPiSt6vectorIiSaIiEEE4baseEv(%"class.__gnu_cxx::__normal_iterator"* nonnull align 8 dereferenceable(8) %5) #2, !llfi_index !283
  %7 = load i32*, i32** %6, align 8, !llfi_index !284
  %8 = load %"class.__gnu_cxx::__normal_iterator"*, %"class.__gnu_cxx::__normal_iterator"** %4, align 8, !llfi_index !285
  %9 = call nonnull align 8 dereferenceable(8) i32** @_ZNK9__gnu_cxx17__normal_iteratorIPiSt6vectorIiSaIiEEE4baseEv(%"class.__gnu_cxx::__normal_iterator"* nonnull align 8 dereferenceable(8) %8) #2, !llfi_index !286
  %10 = load i32*, i32** %9, align 8, !llfi_index !287
  %11 = icmp ne i32* %7, %10, !llfi_index !288
  ret i1 %11, !llfi_index !289
}

; Function Attrs: mustprogress noinline nounwind uwtable
define linkonce_odr dso_local i64 @_ZN9__gnu_cxxmiIPiSt6vectorIiSaIiEEEENS_17__normal_iteratorIT_T0_E15difference_typeERKS8_SB_(%"class.__gnu_cxx::__normal_iterator"* nonnull align 8 dereferenceable(8) %0, %"class.__gnu_cxx::__normal_iterator"* nonnull align 8 dereferenceable(8) %1) #6 comdat {
  %3 = alloca %"class.__gnu_cxx::__normal_iterator"*, align 8, !llfi_index !290
  %4 = alloca %"class.__gnu_cxx::__normal_iterator"*, align 8, !llfi_index !291
  store %"class.__gnu_cxx::__normal_iterator"* %0, %"class.__gnu_cxx::__normal_iterator"** %3, align 8, !llfi_index !292
  store %"class.__gnu_cxx::__normal_iterator"* %1, %"class.__gnu_cxx::__normal_iterator"** %4, align 8, !llfi_index !293
  %5 = load %"class.__gnu_cxx::__normal_iterator"*, %"class.__gnu_cxx::__normal_iterator"** %3, align 8, !llfi_index !294
  %6 = call nonnull align 8 dereferenceable(8) i32** @_ZNK9__gnu_cxx17__normal_iteratorIPiSt6vectorIiSaIiEEE4baseEv(%"class.__gnu_cxx::__normal_iterator"* nonnull align 8 dereferenceable(8) %5) #2, !llfi_index !295
  %7 = load i32*, i32** %6, align 8, !llfi_index !296
  %8 = load %"class.__gnu_cxx::__normal_iterator"*, %"class.__gnu_cxx::__normal_iterator"** %4, align 8, !llfi_index !297
  %9 = call nonnull align 8 dereferenceable(8) i32** @_ZNK9__gnu_cxx17__normal_iteratorIPiSt6vectorIiSaIiEEE4baseEv(%"class.__gnu_cxx::__normal_iterator"* nonnull align 8 dereferenceable(8) %8) #2, !llfi_index !298
  %10 = load i32*, i32** %9, align 8, !llfi_index !299
  %11 = ptrtoint i32* %7 to i64, !llfi_index !300
  %12 = ptrtoint i32* %10 to i64, !llfi_index !301
  %13 = sub i64 %11, %12, !llfi_index !302
  %14 = sdiv exact i64 %13, 4, !llfi_index !303
  ret i64 %14, !llfi_index !304
}

; Function Attrs: mustprogress noinline nounwind uwtable
define linkonce_odr dso_local i64 @_ZSt4__lgl(i64 %0) #6 comdat {
  %2 = alloca i64, align 8, !llfi_index !305
  store i64 %0, i64* %2, align 8, !llfi_index !306
  %3 = load i64, i64* %2, align 8, !llfi_index !307
  %4 = call i64 @llvm.ctlz.i64(i64 %3, i1 true), !llfi_index !308
  %5 = trunc i64 %4 to i32, !llfi_index !309
  %6 = sub nsw i32 63, %5, !llfi_index !310
  %7 = sext i32 %6 to i64, !llfi_index !311
  ret i64 %7, !llfi_index !312
}

; Function Attrs: mustprogress noinline uwtable
define linkonce_odr dso_local void @_ZSt16__introsort_loopIN9__gnu_cxx17__normal_iteratorIPiSt6vectorIiSaIiEEEElNS0_5__ops15_Iter_less_iterEEvT_S9_T0_T1_(i32* %0, i32* %1, i64 %2) #7 comdat {
  %4 = alloca %"class.__gnu_cxx::__normal_iterator", align 8, !llfi_index !313
  %5 = alloca %"class.__gnu_cxx::__normal_iterator", align 8, !llfi_index !314
  %6 = alloca %"class.std::ios_base::Init", align 1, !llfi_index !315
  %7 = alloca i64, align 8, !llfi_index !316
  %8 = alloca %"class.__gnu_cxx::__normal_iterator", align 8, !llfi_index !317
  %9 = alloca %"class.__gnu_cxx::__normal_iterator", align 8, !llfi_index !318
  %10 = alloca %"class.__gnu_cxx::__normal_iterator", align 8, !llfi_index !319
  %11 = alloca %"class.std::ios_base::Init", align 1, !llfi_index !320
  %12 = alloca %"class.__gnu_cxx::__normal_iterator", align 8, !llfi_index !321
  %13 = alloca %"class.__gnu_cxx::__normal_iterator", align 8, !llfi_index !322
  %14 = alloca %"class.__gnu_cxx::__normal_iterator", align 8, !llfi_index !323
  %15 = alloca %"class.std::ios_base::Init", align 1, !llfi_index !324
  %16 = alloca %"class.__gnu_cxx::__normal_iterator", align 8, !llfi_index !325
  %17 = alloca %"class.__gnu_cxx::__normal_iterator", align 8, !llfi_index !326
  %18 = alloca %"class.std::ios_base::Init", align 1, !llfi_index !327
  %19 = getelementptr inbounds %"class.__gnu_cxx::__normal_iterator", %"class.__gnu_cxx::__normal_iterator"* %4, i32 0, i32 0, !llfi_index !328
  store i32* %0, i32** %19, align 8, !llfi_index !329
  %20 = getelementptr inbounds %"class.__gnu_cxx::__normal_iterator", %"class.__gnu_cxx::__normal_iterator"* %5, i32 0, i32 0, !llfi_index !330
  store i32* %1, i32** %20, align 8, !llfi_index !331
  store i64 %2, i64* %7, align 8, !llfi_index !332
  br label %21, !llfi_index !333

21:                                               ; preds = %40, %3
  %22 = call i64 @_ZN9__gnu_cxxmiIPiSt6vectorIiSaIiEEEENS_17__normal_iteratorIT_T0_E15difference_typeERKS8_SB_(%"class.__gnu_cxx::__normal_iterator"* nonnull align 8 dereferenceable(8) %5, %"class.__gnu_cxx::__normal_iterator"* nonnull align 8 dereferenceable(8) %4) #2, !llfi_index !334
  %23 = icmp sgt i64 %22, 16, !llfi_index !335
  br i1 %23, label %24, label %64, !llfi_index !336

24:                                               ; preds = %21
  %25 = load i64, i64* %7, align 8, !llfi_index !337
  %26 = icmp eq i64 %25, 0, !llfi_index !338
  br i1 %26, label %27, label %40, !llfi_index !339

27:                                               ; preds = %24
  %28 = bitcast %"class.__gnu_cxx::__normal_iterator"* %8 to i8*, !llfi_index !340
  %29 = bitcast %"class.__gnu_cxx::__normal_iterator"* %4 to i8*, !llfi_index !341
  call void @llvm.memcpy.p0i8.p0i8.i64(i8* align 8 %28, i8* align 8 %29, i64 8, i1 false), !llfi_index !342
  %30 = bitcast %"class.__gnu_cxx::__normal_iterator"* %9 to i8*, !llfi_index !343
  %31 = bitcast %"class.__gnu_cxx::__normal_iterator"* %5 to i8*, !llfi_index !344
  call void @llvm.memcpy.p0i8.p0i8.i64(i8* align 8 %30, i8* align 8 %31, i64 8, i1 false), !llfi_index !345
  %32 = bitcast %"class.__gnu_cxx::__normal_iterator"* %10 to i8*, !llfi_index !346
  %33 = bitcast %"class.__gnu_cxx::__normal_iterator"* %5 to i8*, !llfi_index !347
  call void @llvm.memcpy.p0i8.p0i8.i64(i8* align 8 %32, i8* align 8 %33, i64 8, i1 false), !llfi_index !348
  %34 = getelementptr inbounds %"class.__gnu_cxx::__normal_iterator", %"class.__gnu_cxx::__normal_iterator"* %8, i32 0, i32 0, !llfi_index !349
  %35 = load i32*, i32** %34, align 8, !llfi_index !350
  %36 = getelementptr inbounds %"class.__gnu_cxx::__normal_iterator", %"class.__gnu_cxx::__normal_iterator"* %9, i32 0, i32 0, !llfi_index !351
  %37 = load i32*, i32** %36, align 8, !llfi_index !352
  %38 = getelementptr inbounds %"class.__gnu_cxx::__normal_iterator", %"class.__gnu_cxx::__normal_iterator"* %10, i32 0, i32 0, !llfi_index !353
  %39 = load i32*, i32** %38, align 8, !llfi_index !354
  call void @_ZSt14__partial_sortIN9__gnu_cxx17__normal_iteratorIPiSt6vectorIiSaIiEEEENS0_5__ops15_Iter_less_iterEEvT_S9_S9_T0_(i32* %35, i32* %37, i32* %39), !llfi_index !355
  br label %64, !llfi_index !356

40:                                               ; preds = %24
  %41 = load i64, i64* %7, align 8, !llfi_index !357
  %42 = add nsw i64 %41, -1, !llfi_index !358
  store i64 %42, i64* %7, align 8, !llfi_index !359
  %43 = bitcast %"class.__gnu_cxx::__normal_iterator"* %13 to i8*, !llfi_index !360
  %44 = bitcast %"class.__gnu_cxx::__normal_iterator"* %4 to i8*, !llfi_index !361
  call void @llvm.memcpy.p0i8.p0i8.i64(i8* align 8 %43, i8* align 8 %44, i64 8, i1 false), !llfi_index !362
  %45 = bitcast %"class.__gnu_cxx::__normal_iterator"* %14 to i8*, !llfi_index !363
  %46 = bitcast %"class.__gnu_cxx::__normal_iterator"* %5 to i8*, !llfi_index !364
  call void @llvm.memcpy.p0i8.p0i8.i64(i8* align 8 %45, i8* align 8 %46, i64 8, i1 false), !llfi_index !365
  %47 = getelementptr inbounds %"class.__gnu_cxx::__normal_iterator", %"class.__gnu_cxx::__normal_iterator"* %13, i32 0, i32 0, !llfi_index !366
  %48 = load i32*, i32** %47, align 8, !llfi_index !367
  %49 = getelementptr inbounds %"class.__gnu_cxx::__normal_iterator", %"class.__gnu_cxx::__normal_iterator"* %14, i32 0, i32 0, !llfi_index !368
  %50 = load i32*, i32** %49, align 8, !llfi_index !369
  %51 = call i32* @_ZSt27__unguarded_partition_pivotIN9__gnu_cxx17__normal_iteratorIPiSt6vectorIiSaIiEEEENS0_5__ops15_Iter_less_iterEET_S9_S9_T0_(i32* %48, i32* %50), !llfi_index !370
  %52 = getelementptr inbounds %"class.__gnu_cxx::__normal_iterator", %"class.__gnu_cxx::__normal_iterator"* %12, i32 0, i32 0, !llfi_index !371
  store i32* %51, i32** %52, align 8, !llfi_index !372
  %53 = bitcast %"class.__gnu_cxx::__normal_iterator"* %16 to i8*, !llfi_index !373
  %54 = bitcast %"class.__gnu_cxx::__normal_iterator"* %12 to i8*, !llfi_index !374
  call void @llvm.memcpy.p0i8.p0i8.i64(i8* align 8 %53, i8* align 8 %54, i64 8, i1 false), !llfi_index !375
  %55 = bitcast %"class.__gnu_cxx::__normal_iterator"* %17 to i8*, !llfi_index !376
  %56 = bitcast %"class.__gnu_cxx::__normal_iterator"* %5 to i8*, !llfi_index !377
  call void @llvm.memcpy.p0i8.p0i8.i64(i8* align 8 %55, i8* align 8 %56, i64 8, i1 false), !llfi_index !378
  %57 = load i64, i64* %7, align 8, !llfi_index !379
  %58 = getelementptr inbounds %"class.__gnu_cxx::__normal_iterator", %"class.__gnu_cxx::__normal_iterator"* %16, i32 0, i32 0, !llfi_index !380
  %59 = load i32*, i32** %58, align 8, !llfi_index !381
  %60 = getelementptr inbounds %"class.__gnu_cxx::__normal_iterator", %"class.__gnu_cxx::__normal_iterator"* %17, i32 0, i32 0, !llfi_index !382
  %61 = load i32*, i32** %60, align 8, !llfi_index !383
  call void @_ZSt16__introsort_loopIN9__gnu_cxx17__normal_iteratorIPiSt6vectorIiSaIiEEEElNS0_5__ops15_Iter_less_iterEEvT_S9_T0_T1_(i32* %59, i32* %61, i64 %57), !llfi_index !384
  %62 = bitcast %"class.__gnu_cxx::__normal_iterator"* %5 to i8*, !llfi_index !385
  %63 = bitcast %"class.__gnu_cxx::__normal_iterator"* %12 to i8*, !llfi_index !386
  call void @llvm.memcpy.p0i8.p0i8.i64(i8* align 8 %62, i8* align 8 %63, i64 8, i1 false), !llfi_index !387
  br label %21, !llvm.loop !388, !llfi_index !389

64:                                               ; preds = %27, %21
  ret void, !llfi_index !390
}

; Function Attrs: mustprogress noinline uwtable
define linkonce_odr dso_local void @_ZSt22__final_insertion_sortIN9__gnu_cxx17__normal_iteratorIPiSt6vectorIiSaIiEEEENS0_5__ops15_Iter_less_iterEEvT_S9_T0_(i32* %0, i32* %1) #7 comdat {
  %3 = alloca %"class.__gnu_cxx::__normal_iterator", align 8, !llfi_index !391
  %4 = alloca %"class.__gnu_cxx::__normal_iterator", align 8, !llfi_index !392
  %5 = alloca %"class.std::ios_base::Init", align 1, !llfi_index !393
  %6 = alloca %"class.__gnu_cxx::__normal_iterator", align 8, !llfi_index !394
  %7 = alloca %"class.__gnu_cxx::__normal_iterator", align 8, !llfi_index !395
  %8 = alloca %"class.std::ios_base::Init", align 1, !llfi_index !396
  %9 = alloca %"class.__gnu_cxx::__normal_iterator", align 8, !llfi_index !397
  %10 = alloca %"class.__gnu_cxx::__normal_iterator", align 8, !llfi_index !398
  %11 = alloca %"class.std::ios_base::Init", align 1, !llfi_index !399
  %12 = alloca %"class.__gnu_cxx::__normal_iterator", align 8, !llfi_index !400
  %13 = alloca %"class.__gnu_cxx::__normal_iterator", align 8, !llfi_index !401
  %14 = alloca %"class.std::ios_base::Init", align 1, !llfi_index !402
  %15 = getelementptr inbounds %"class.__gnu_cxx::__normal_iterator", %"class.__gnu_cxx::__normal_iterator"* %3, i32 0, i32 0, !llfi_index !403
  store i32* %0, i32** %15, align 8, !llfi_index !404
  %16 = getelementptr inbounds %"class.__gnu_cxx::__normal_iterator", %"class.__gnu_cxx::__normal_iterator"* %4, i32 0, i32 0, !llfi_index !405
  store i32* %1, i32** %16, align 8, !llfi_index !406
  %17 = call i64 @_ZN9__gnu_cxxmiIPiSt6vectorIiSaIiEEEENS_17__normal_iteratorIT_T0_E15difference_typeERKS8_SB_(%"class.__gnu_cxx::__normal_iterator"* nonnull align 8 dereferenceable(8) %4, %"class.__gnu_cxx::__normal_iterator"* nonnull align 8 dereferenceable(8) %3) #2, !llfi_index !407
  %18 = icmp sgt i64 %17, 16, !llfi_index !408
  br i1 %18, label %19, label %36, !llfi_index !409

19:                                               ; preds = %2
  %20 = bitcast %"class.__gnu_cxx::__normal_iterator"* %6 to i8*, !llfi_index !410
  %21 = bitcast %"class.__gnu_cxx::__normal_iterator"* %3 to i8*, !llfi_index !411
  call void @llvm.memcpy.p0i8.p0i8.i64(i8* align 8 %20, i8* align 8 %21, i64 8, i1 false), !llfi_index !412
  %22 = call i32* @_ZNK9__gnu_cxx17__normal_iteratorIPiSt6vectorIiSaIiEEEplEl(%"class.__gnu_cxx::__normal_iterator"* nonnull align 8 dereferenceable(8) %3, i64 16) #2, !llfi_index !413
  %23 = getelementptr inbounds %"class.__gnu_cxx::__normal_iterator", %"class.__gnu_cxx::__normal_iterator"* %7, i32 0, i32 0, !llfi_index !414
  store i32* %22, i32** %23, align 8, !llfi_index !415
  %24 = getelementptr inbounds %"class.__gnu_cxx::__normal_iterator", %"class.__gnu_cxx::__normal_iterator"* %6, i32 0, i32 0, !llfi_index !416
  %25 = load i32*, i32** %24, align 8, !llfi_index !417
  %26 = getelementptr inbounds %"class.__gnu_cxx::__normal_iterator", %"class.__gnu_cxx::__normal_iterator"* %7, i32 0, i32 0, !llfi_index !418
  %27 = load i32*, i32** %26, align 8, !llfi_index !419
  call void @_ZSt16__insertion_sortIN9__gnu_cxx17__normal_iteratorIPiSt6vectorIiSaIiEEEENS0_5__ops15_Iter_less_iterEEvT_S9_T0_(i32* %25, i32* %27), !llfi_index !420
  %28 = call i32* @_ZNK9__gnu_cxx17__normal_iteratorIPiSt6vectorIiSaIiEEEplEl(%"class.__gnu_cxx::__normal_iterator"* nonnull align 8 dereferenceable(8) %3, i64 16) #2, !llfi_index !421
  %29 = getelementptr inbounds %"class.__gnu_cxx::__normal_iterator", %"class.__gnu_cxx::__normal_iterator"* %9, i32 0, i32 0, !llfi_index !422
  store i32* %28, i32** %29, align 8, !llfi_index !423
  %30 = bitcast %"class.__gnu_cxx::__normal_iterator"* %10 to i8*, !llfi_index !424
  %31 = bitcast %"class.__gnu_cxx::__normal_iterator"* %4 to i8*, !llfi_index !425
  call void @llvm.memcpy.p0i8.p0i8.i64(i8* align 8 %30, i8* align 8 %31, i64 8, i1 false), !llfi_index !426
  %32 = getelementptr inbounds %"class.__gnu_cxx::__normal_iterator", %"class.__gnu_cxx::__normal_iterator"* %9, i32 0, i32 0, !llfi_index !427
  %33 = load i32*, i32** %32, align 8, !llfi_index !428
  %34 = getelementptr inbounds %"class.__gnu_cxx::__normal_iterator", %"class.__gnu_cxx::__normal_iterator"* %10, i32 0, i32 0, !llfi_index !429
  %35 = load i32*, i32** %34, align 8, !llfi_index !430
  call void @_ZSt26__unguarded_insertion_sortIN9__gnu_cxx17__normal_iteratorIPiSt6vectorIiSaIiEEEENS0_5__ops15_Iter_less_iterEEvT_S9_T0_(i32* %33, i32* %35), !llfi_index !431
  br label %45, !llfi_index !432

36:                                               ; preds = %2
  %37 = bitcast %"class.__gnu_cxx::__normal_iterator"* %12 to i8*, !llfi_index !433
  %38 = bitcast %"class.__gnu_cxx::__normal_iterator"* %3 to i8*, !llfi_index !434
  call void @llvm.memcpy.p0i8.p0i8.i64(i8* align 8 %37, i8* align 8 %38, i64 8, i1 false), !llfi_index !435
  %39 = bitcast %"class.__gnu_cxx::__normal_iterator"* %13 to i8*, !llfi_index !436
  %40 = bitcast %"class.__gnu_cxx::__normal_iterator"* %4 to i8*, !llfi_index !437
  call void @llvm.memcpy.p0i8.p0i8.i64(i8* align 8 %39, i8* align 8 %40, i64 8, i1 false), !llfi_index !438
  %41 = getelementptr inbounds %"class.__gnu_cxx::__normal_iterator", %"class.__gnu_cxx::__normal_iterator"* %12, i32 0, i32 0, !llfi_index !439
  %42 = load i32*, i32** %41, align 8, !llfi_index !440
  %43 = getelementptr inbounds %"class.__gnu_cxx::__normal_iterator", %"class.__gnu_cxx::__normal_iterator"* %13, i32 0, i32 0, !llfi_index !441
  %44 = load i32*, i32** %43, align 8, !llfi_index !442
  call void @_ZSt16__insertion_sortIN9__gnu_cxx17__normal_iteratorIPiSt6vectorIiSaIiEEEENS0_5__ops15_Iter_less_iterEEvT_S9_T0_(i32* %42, i32* %44), !llfi_index !443
  br label %45, !llfi_index !444

45:                                               ; preds = %36, %19
  ret void, !llfi_index !445
}

; Function Attrs: mustprogress noinline nounwind uwtable
define linkonce_odr dso_local i32* @_ZNK9__gnu_cxx17__normal_iteratorIPiSt6vectorIiSaIiEEEplEl(%"class.__gnu_cxx::__normal_iterator"* nonnull align 8 dereferenceable(8) %0, i64 %1) #6 comdat align 2 {
  %3 = alloca %"class.__gnu_cxx::__normal_iterator", align 8, !llfi_index !446
  %4 = alloca %"class.__gnu_cxx::__normal_iterator"*, align 8, !llfi_index !447
  %5 = alloca i64, align 8, !llfi_index !448
  %6 = alloca i32*, align 8, !llfi_index !449
  store %"class.__gnu_cxx::__normal_iterator"* %0, %"class.__gnu_cxx::__normal_iterator"** %4, align 8, !llfi_index !450
  store i64 %1, i64* %5, align 8, !llfi_index !451
  %7 = load %"class.__gnu_cxx::__normal_iterator"*, %"class.__gnu_cxx::__normal_iterator"** %4, align 8, !llfi_index !452
  %8 = getelementptr inbounds %"class.__gnu_cxx::__normal_iterator", %"class.__gnu_cxx::__normal_iterator"* %7, i32 0, i32 0, !llfi_index !453
  %9 = load i32*, i32** %8, align 8, !llfi_index !454
  %10 = load i64, i64* %5, align 8, !llfi_index !455
  %11 = getelementptr inbounds i32, i32* %9, i64 %10, !llfi_index !456
  store i32* %11, i32** %6, align 8, !llfi_index !457
  call void @_ZN9__gnu_cxx17__normal_iteratorIPiSt6vectorIiSaIiEEEC2ERKS1_(%"class.__gnu_cxx::__normal_iterator"* nonnull align 8 dereferenceable(8) %3, i32** nonnull align 8 dereferenceable(8) %6) #2, !llfi_index !458
  %12 = getelementptr inbounds %"class.__gnu_cxx::__normal_iterator", %"class.__gnu_cxx::__normal_iterator"* %3, i32 0, i32 0, !llfi_index !459
  %13 = load i32*, i32** %12, align 8, !llfi_index !460
  ret i32* %13, !llfi_index !461
}

; Function Attrs: mustprogress noinline uwtable
define linkonce_odr dso_local void @_ZSt16__insertion_sortIN9__gnu_cxx17__normal_iteratorIPiSt6vectorIiSaIiEEEENS0_5__ops15_Iter_less_iterEEvT_S9_T0_(i32* %0, i32* %1) #7 comdat {
  %3 = alloca %"class.__gnu_cxx::__normal_iterator", align 8, !llfi_index !462
  %4 = alloca %"class.__gnu_cxx::__normal_iterator", align 8, !llfi_index !463
  %5 = alloca %"class.std::ios_base::Init", align 1, !llfi_index !464
  %6 = alloca %"class.__gnu_cxx::__normal_iterator", align 8, !llfi_index !465
  %7 = alloca %"class.__gnu_cxx::__normal_iterator", align 8, !llfi_index !466
  %8 = alloca %"class.__gnu_cxx::__normal_iterator", align 8, !llfi_index !467
  %9 = alloca i32, align 4, !llfi_index !468
  %10 = alloca %"class.__gnu_cxx::__normal_iterator", align 8, !llfi_index !469
  %11 = alloca %"class.__gnu_cxx::__normal_iterator", align 8, !llfi_index !470
  %12 = alloca %"class.__gnu_cxx::__normal_iterator", align 8, !llfi_index !471
  %13 = alloca %"class.__gnu_cxx::__normal_iterator", align 8, !llfi_index !472
  %14 = alloca %"class.__gnu_cxx::__normal_iterator", align 8, !llfi_index !473
  %15 = alloca %"class.std::ios_base::Init", align 1, !llfi_index !474
  %16 = alloca %"class.std::ios_base::Init", align 1, !llfi_index !475
  %17 = alloca %"class.std::ios_base::Init", align 1, !llfi_index !476
  %18 = getelementptr inbounds %"class.__gnu_cxx::__normal_iterator", %"class.__gnu_cxx::__normal_iterator"* %3, i32 0, i32 0, !llfi_index !477
  store i32* %0, i32** %18, align 8, !llfi_index !478
  %19 = getelementptr inbounds %"class.__gnu_cxx::__normal_iterator", %"class.__gnu_cxx::__normal_iterator"* %4, i32 0, i32 0, !llfi_index !479
  store i32* %1, i32** %19, align 8, !llfi_index !480
  %20 = call zeroext i1 @_ZN9__gnu_cxxeqIPiSt6vectorIiSaIiEEEEbRKNS_17__normal_iteratorIT_T0_EESA_(%"class.__gnu_cxx::__normal_iterator"* nonnull align 8 dereferenceable(8) %3, %"class.__gnu_cxx::__normal_iterator"* nonnull align 8 dereferenceable(8) %4) #2, !llfi_index !481
  br i1 %20, label %21, label %22, !llfi_index !482

21:                                               ; preds = %2
  br label %66, !llfi_index !483

22:                                               ; preds = %2
  %23 = call i32* @_ZNK9__gnu_cxx17__normal_iteratorIPiSt6vectorIiSaIiEEEplEl(%"class.__gnu_cxx::__normal_iterator"* nonnull align 8 dereferenceable(8) %3, i64 1) #2, !llfi_index !484
  %24 = getelementptr inbounds %"class.__gnu_cxx::__normal_iterator", %"class.__gnu_cxx::__normal_iterator"* %6, i32 0, i32 0, !llfi_index !485
  store i32* %23, i32** %24, align 8, !llfi_index !486
  br label %25, !llfi_index !487

25:                                               ; preds = %64, %22
  %26 = call zeroext i1 @_ZN9__gnu_cxxneIPiSt6vectorIiSaIiEEEEbRKNS_17__normal_iteratorIT_T0_EESA_(%"class.__gnu_cxx::__normal_iterator"* nonnull align 8 dereferenceable(8) %6, %"class.__gnu_cxx::__normal_iterator"* nonnull align 8 dereferenceable(8) %4) #2, !llfi_index !488
  br i1 %26, label %27, label %66, !llfi_index !489

27:                                               ; preds = %25
  %28 = bitcast %"class.__gnu_cxx::__normal_iterator"* %7 to i8*, !llfi_index !490
  %29 = bitcast %"class.__gnu_cxx::__normal_iterator"* %6 to i8*, !llfi_index !491
  call void @llvm.memcpy.p0i8.p0i8.i64(i8* align 8 %28, i8* align 8 %29, i64 8, i1 false), !llfi_index !492
  %30 = bitcast %"class.__gnu_cxx::__normal_iterator"* %8 to i8*, !llfi_index !493
  %31 = bitcast %"class.__gnu_cxx::__normal_iterator"* %3 to i8*, !llfi_index !494
  call void @llvm.memcpy.p0i8.p0i8.i64(i8* align 8 %30, i8* align 8 %31, i64 8, i1 false), !llfi_index !495
  %32 = getelementptr inbounds %"class.__gnu_cxx::__normal_iterator", %"class.__gnu_cxx::__normal_iterator"* %7, i32 0, i32 0, !llfi_index !496
  %33 = load i32*, i32** %32, align 8, !llfi_index !497
  %34 = getelementptr inbounds %"class.__gnu_cxx::__normal_iterator", %"class.__gnu_cxx::__normal_iterator"* %8, i32 0, i32 0, !llfi_index !498
  %35 = load i32*, i32** %34, align 8, !llfi_index !499
  %36 = call zeroext i1 @_ZNK9__gnu_cxx5__ops15_Iter_less_iterclINS_17__normal_iteratorIPiSt6vectorIiSaIiEEEES8_EEbT_T0_(%"class.std::ios_base::Init"* nonnull align 1 dereferenceable(1) %5, i32* %33, i32* %35), !llfi_index !500
  br i1 %36, label %37, label %58, !llfi_index !501

37:                                               ; preds = %27
  %38 = call nonnull align 4 dereferenceable(4) i32* @_ZNK9__gnu_cxx17__normal_iteratorIPiSt6vectorIiSaIiEEEdeEv(%"class.__gnu_cxx::__normal_iterator"* nonnull align 8 dereferenceable(8) %6) #2, !llfi_index !502
  %39 = call nonnull align 4 dereferenceable(4) i32* @_ZSt4moveIRiEONSt16remove_referenceIT_E4typeEOS2_(i32* nonnull align 4 dereferenceable(4) %38) #2, !llfi_index !503
  %40 = load i32, i32* %39, align 4, !llfi_index !504
  store i32 %40, i32* %9, align 4, !llfi_index !505
  %41 = bitcast %"class.__gnu_cxx::__normal_iterator"* %10 to i8*, !llfi_index !506
  %42 = bitcast %"class.__gnu_cxx::__normal_iterator"* %3 to i8*, !llfi_index !507
  call void @llvm.memcpy.p0i8.p0i8.i64(i8* align 8 %41, i8* align 8 %42, i64 8, i1 false), !llfi_index !508
  %43 = bitcast %"class.__gnu_cxx::__normal_iterator"* %11 to i8*, !llfi_index !509
  %44 = bitcast %"class.__gnu_cxx::__normal_iterator"* %6 to i8*, !llfi_index !510
  call void @llvm.memcpy.p0i8.p0i8.i64(i8* align 8 %43, i8* align 8 %44, i64 8, i1 false), !llfi_index !511
  %45 = call i32* @_ZNK9__gnu_cxx17__normal_iteratorIPiSt6vectorIiSaIiEEEplEl(%"class.__gnu_cxx::__normal_iterator"* nonnull align 8 dereferenceable(8) %6, i64 1) #2, !llfi_index !512
  %46 = getelementptr inbounds %"class.__gnu_cxx::__normal_iterator", %"class.__gnu_cxx::__normal_iterator"* %12, i32 0, i32 0, !llfi_index !513
  store i32* %45, i32** %46, align 8, !llfi_index !514
  %47 = getelementptr inbounds %"class.__gnu_cxx::__normal_iterator", %"class.__gnu_cxx::__normal_iterator"* %10, i32 0, i32 0, !llfi_index !515
  %48 = load i32*, i32** %47, align 8, !llfi_index !516
  %49 = getelementptr inbounds %"class.__gnu_cxx::__normal_iterator", %"class.__gnu_cxx::__normal_iterator"* %11, i32 0, i32 0, !llfi_index !517
  %50 = load i32*, i32** %49, align 8, !llfi_index !518
  %51 = getelementptr inbounds %"class.__gnu_cxx::__normal_iterator", %"class.__gnu_cxx::__normal_iterator"* %12, i32 0, i32 0, !llfi_index !519
  %52 = load i32*, i32** %51, align 8, !llfi_index !520
  %53 = call i32* @_ZSt13move_backwardIN9__gnu_cxx17__normal_iteratorIPiSt6vectorIiSaIiEEEES6_ET0_T_S8_S7_(i32* %48, i32* %50, i32* %52), !llfi_index !521
  %54 = getelementptr inbounds %"class.__gnu_cxx::__normal_iterator", %"class.__gnu_cxx::__normal_iterator"* %13, i32 0, i32 0, !llfi_index !522
  store i32* %53, i32** %54, align 8, !llfi_index !523
  %55 = call nonnull align 4 dereferenceable(4) i32* @_ZSt4moveIRiEONSt16remove_referenceIT_E4typeEOS2_(i32* nonnull align 4 dereferenceable(4) %9) #2, !llfi_index !524
  %56 = load i32, i32* %55, align 4, !llfi_index !525
  %57 = call nonnull align 4 dereferenceable(4) i32* @_ZNK9__gnu_cxx17__normal_iteratorIPiSt6vectorIiSaIiEEEdeEv(%"class.__gnu_cxx::__normal_iterator"* nonnull align 8 dereferenceable(8) %3) #2, !llfi_index !526
  store i32 %56, i32* %57, align 4, !llfi_index !527
  br label %63, !llfi_index !528

58:                                               ; preds = %27
  %59 = bitcast %"class.__gnu_cxx::__normal_iterator"* %14 to i8*, !llfi_index !529
  %60 = bitcast %"class.__gnu_cxx::__normal_iterator"* %6 to i8*, !llfi_index !530
  call void @llvm.memcpy.p0i8.p0i8.i64(i8* align 8 %59, i8* align 8 %60, i64 8, i1 false), !llfi_index !531
  call void @_ZN9__gnu_cxx5__ops15__val_comp_iterENS0_15_Iter_less_iterE(), !llfi_index !532
  %61 = getelementptr inbounds %"class.__gnu_cxx::__normal_iterator", %"class.__gnu_cxx::__normal_iterator"* %14, i32 0, i32 0, !llfi_index !533
  %62 = load i32*, i32** %61, align 8, !llfi_index !534
  call void @_ZSt25__unguarded_linear_insertIN9__gnu_cxx17__normal_iteratorIPiSt6vectorIiSaIiEEEENS0_5__ops14_Val_less_iterEEvT_T0_(i32* %62), !llfi_index !535
  br label %63, !llfi_index !536

63:                                               ; preds = %58, %37
  br label %64, !llfi_index !537

64:                                               ; preds = %63
  %65 = call nonnull align 8 dereferenceable(8) %"class.__gnu_cxx::__normal_iterator"* @_ZN9__gnu_cxx17__normal_iteratorIPiSt6vectorIiSaIiEEEppEv(%"class.__gnu_cxx::__normal_iterator"* nonnull align 8 dereferenceable(8) %6) #2, !llfi_index !538
  br label %25, !llvm.loop !539, !llfi_index !540

66:                                               ; preds = %25, %21
  ret void, !llfi_index !541
}

; Function Attrs: mustprogress noinline uwtable
define linkonce_odr dso_local void @_ZSt26__unguarded_insertion_sortIN9__gnu_cxx17__normal_iteratorIPiSt6vectorIiSaIiEEEENS0_5__ops15_Iter_less_iterEEvT_S9_T0_(i32* %0, i32* %1) #7 comdat {
  %3 = alloca %"class.__gnu_cxx::__normal_iterator", align 8, !llfi_index !542
  %4 = alloca %"class.__gnu_cxx::__normal_iterator", align 8, !llfi_index !543
  %5 = alloca %"class.std::ios_base::Init", align 1, !llfi_index !544
  %6 = alloca %"class.__gnu_cxx::__normal_iterator", align 8, !llfi_index !545
  %7 = alloca %"class.__gnu_cxx::__normal_iterator", align 8, !llfi_index !546
  %8 = alloca %"class.std::ios_base::Init", align 1, !llfi_index !547
  %9 = alloca %"class.std::ios_base::Init", align 1, !llfi_index !548
  %10 = alloca %"class.std::ios_base::Init", align 1, !llfi_index !549
  %11 = getelementptr inbounds %"class.__gnu_cxx::__normal_iterator", %"class.__gnu_cxx::__normal_iterator"* %3, i32 0, i32 0, !llfi_index !550
  store i32* %0, i32** %11, align 8, !llfi_index !551
  %12 = getelementptr inbounds %"class.__gnu_cxx::__normal_iterator", %"class.__gnu_cxx::__normal_iterator"* %4, i32 0, i32 0, !llfi_index !552
  store i32* %1, i32** %12, align 8, !llfi_index !553
  %13 = bitcast %"class.__gnu_cxx::__normal_iterator"* %6 to i8*, !llfi_index !554
  %14 = bitcast %"class.__gnu_cxx::__normal_iterator"* %3 to i8*, !llfi_index !555
  call void @llvm.memcpy.p0i8.p0i8.i64(i8* align 8 %13, i8* align 8 %14, i64 8, i1 false), !llfi_index !556
  br label %15, !llfi_index !557

15:                                               ; preds = %22, %2
  %16 = call zeroext i1 @_ZN9__gnu_cxxneIPiSt6vectorIiSaIiEEEEbRKNS_17__normal_iteratorIT_T0_EESA_(%"class.__gnu_cxx::__normal_iterator"* nonnull align 8 dereferenceable(8) %6, %"class.__gnu_cxx::__normal_iterator"* nonnull align 8 dereferenceable(8) %4) #2, !llfi_index !558
  br i1 %16, label %17, label %24, !llfi_index !559

17:                                               ; preds = %15
  %18 = bitcast %"class.__gnu_cxx::__normal_iterator"* %7 to i8*, !llfi_index !560
  %19 = bitcast %"class.__gnu_cxx::__normal_iterator"* %6 to i8*, !llfi_index !561
  call void @llvm.memcpy.p0i8.p0i8.i64(i8* align 8 %18, i8* align 8 %19, i64 8, i1 false), !llfi_index !562
  call void @_ZN9__gnu_cxx5__ops15__val_comp_iterENS0_15_Iter_less_iterE(), !llfi_index !563
  %20 = getelementptr inbounds %"class.__gnu_cxx::__normal_iterator", %"class.__gnu_cxx::__normal_iterator"* %7, i32 0, i32 0, !llfi_index !564
  %21 = load i32*, i32** %20, align 8, !llfi_index !565
  call void @_ZSt25__unguarded_linear_insertIN9__gnu_cxx17__normal_iteratorIPiSt6vectorIiSaIiEEEENS0_5__ops14_Val_less_iterEEvT_T0_(i32* %21), !llfi_index !566
  br label %22, !llfi_index !567

22:                                               ; preds = %17
  %23 = call nonnull align 8 dereferenceable(8) %"class.__gnu_cxx::__normal_iterator"* @_ZN9__gnu_cxx17__normal_iteratorIPiSt6vectorIiSaIiEEEppEv(%"class.__gnu_cxx::__normal_iterator"* nonnull align 8 dereferenceable(8) %6) #2, !llfi_index !568
  br label %15, !llvm.loop !569, !llfi_index !570

24:                                               ; preds = %15
  ret void, !llfi_index !571
}

; Function Attrs: mustprogress noinline nounwind uwtable
define linkonce_odr dso_local void @_ZN9__gnu_cxx5__ops15__val_comp_iterENS0_15_Iter_less_iterE() #6 comdat {
  %1 = alloca %"class.std::ios_base::Init", align 1, !llfi_index !572
  ret void, !llfi_index !573
}

; Function Attrs: mustprogress noinline uwtable
define linkonce_odr dso_local void @_ZSt25__unguarded_linear_insertIN9__gnu_cxx17__normal_iteratorIPiSt6vectorIiSaIiEEEENS0_5__ops14_Val_less_iterEEvT_T0_(i32* %0) #7 comdat {
  %2 = alloca %"class.__gnu_cxx::__normal_iterator", align 8, !llfi_index !574
  %3 = alloca %"class.std::ios_base::Init", align 1, !llfi_index !575
  %4 = alloca i32, align 4, !llfi_index !576
  %5 = alloca %"class.__gnu_cxx::__normal_iterator", align 8, !llfi_index !577
  %6 = alloca %"class.__gnu_cxx::__normal_iterator", align 8, !llfi_index !578
  %7 = getelementptr inbounds %"class.__gnu_cxx::__normal_iterator", %"class.__gnu_cxx::__normal_iterator"* %2, i32 0, i32 0, !llfi_index !579
  store i32* %0, i32** %7, align 8, !llfi_index !580
  %8 = call nonnull align 4 dereferenceable(4) i32* @_ZNK9__gnu_cxx17__normal_iteratorIPiSt6vectorIiSaIiEEEdeEv(%"class.__gnu_cxx::__normal_iterator"* nonnull align 8 dereferenceable(8) %2) #2, !llfi_index !581
  %9 = call nonnull align 4 dereferenceable(4) i32* @_ZSt4moveIRiEONSt16remove_referenceIT_E4typeEOS2_(i32* nonnull align 4 dereferenceable(4) %8) #2, !llfi_index !582
  %10 = load i32, i32* %9, align 4, !llfi_index !583
  store i32 %10, i32* %4, align 4, !llfi_index !584
  %11 = bitcast %"class.__gnu_cxx::__normal_iterator"* %5 to i8*, !llfi_index !585
  %12 = bitcast %"class.__gnu_cxx::__normal_iterator"* %2 to i8*, !llfi_index !586
  call void @llvm.memcpy.p0i8.p0i8.i64(i8* align 8 %11, i8* align 8 %12, i64 8, i1 false), !llfi_index !587
  %13 = call nonnull align 8 dereferenceable(8) %"class.__gnu_cxx::__normal_iterator"* @_ZN9__gnu_cxx17__normal_iteratorIPiSt6vectorIiSaIiEEEmmEv(%"class.__gnu_cxx::__normal_iterator"* nonnull align 8 dereferenceable(8) %5) #2, !llfi_index !588
  br label %14, !llfi_index !589

14:                                               ; preds = %20, %1
  %15 = bitcast %"class.__gnu_cxx::__normal_iterator"* %6 to i8*, !llfi_index !590
  %16 = bitcast %"class.__gnu_cxx::__normal_iterator"* %5 to i8*, !llfi_index !591
  call void @llvm.memcpy.p0i8.p0i8.i64(i8* align 8 %15, i8* align 8 %16, i64 8, i1 false), !llfi_index !592
  %17 = getelementptr inbounds %"class.__gnu_cxx::__normal_iterator", %"class.__gnu_cxx::__normal_iterator"* %6, i32 0, i32 0, !llfi_index !593
  %18 = load i32*, i32** %17, align 8, !llfi_index !594
  %19 = call zeroext i1 @_ZNK9__gnu_cxx5__ops14_Val_less_iterclIiNS_17__normal_iteratorIPiSt6vectorIiSaIiEEEEEEbRT_T0_(%"class.std::ios_base::Init"* nonnull align 1 dereferenceable(1) %3, i32* nonnull align 4 dereferenceable(4) %4, i32* %18), !llfi_index !595
  br i1 %19, label %20, label %28, !llfi_index !596

20:                                               ; preds = %14
  %21 = call nonnull align 4 dereferenceable(4) i32* @_ZNK9__gnu_cxx17__normal_iteratorIPiSt6vectorIiSaIiEEEdeEv(%"class.__gnu_cxx::__normal_iterator"* nonnull align 8 dereferenceable(8) %5) #2, !llfi_index !597
  %22 = call nonnull align 4 dereferenceable(4) i32* @_ZSt4moveIRiEONSt16remove_referenceIT_E4typeEOS2_(i32* nonnull align 4 dereferenceable(4) %21) #2, !llfi_index !598
  %23 = load i32, i32* %22, align 4, !llfi_index !599
  %24 = call nonnull align 4 dereferenceable(4) i32* @_ZNK9__gnu_cxx17__normal_iteratorIPiSt6vectorIiSaIiEEEdeEv(%"class.__gnu_cxx::__normal_iterator"* nonnull align 8 dereferenceable(8) %2) #2, !llfi_index !600
  store i32 %23, i32* %24, align 4, !llfi_index !601
  %25 = bitcast %"class.__gnu_cxx::__normal_iterator"* %2 to i8*, !llfi_index !602
  %26 = bitcast %"class.__gnu_cxx::__normal_iterator"* %5 to i8*, !llfi_index !603
  call void @llvm.memcpy.p0i8.p0i8.i64(i8* align 8 %25, i8* align 8 %26, i64 8, i1 false), !llfi_index !604
  %27 = call nonnull align 8 dereferenceable(8) %"class.__gnu_cxx::__normal_iterator"* @_ZN9__gnu_cxx17__normal_iteratorIPiSt6vectorIiSaIiEEEmmEv(%"class.__gnu_cxx::__normal_iterator"* nonnull align 8 dereferenceable(8) %5) #2, !llfi_index !605
  br label %14, !llvm.loop !606, !llfi_index !607

28:                                               ; preds = %14
  %29 = call nonnull align 4 dereferenceable(4) i32* @_ZSt4moveIRiEONSt16remove_referenceIT_E4typeEOS2_(i32* nonnull align 4 dereferenceable(4) %4) #2, !llfi_index !608
  %30 = load i32, i32* %29, align 4, !llfi_index !609
  %31 = call nonnull align 4 dereferenceable(4) i32* @_ZNK9__gnu_cxx17__normal_iteratorIPiSt6vectorIiSaIiEEEdeEv(%"class.__gnu_cxx::__normal_iterator"* nonnull align 8 dereferenceable(8) %2) #2, !llfi_index !610
  store i32 %30, i32* %31, align 4, !llfi_index !611
  ret void, !llfi_index !612
}

; Function Attrs: mustprogress noinline nounwind uwtable
define linkonce_odr dso_local nonnull align 8 dereferenceable(8) %"class.__gnu_cxx::__normal_iterator"* @_ZN9__gnu_cxx17__normal_iteratorIPiSt6vectorIiSaIiEEEppEv(%"class.__gnu_cxx::__normal_iterator"* nonnull align 8 dereferenceable(8) %0) #6 comdat align 2 {
  %2 = alloca %"class.__gnu_cxx::__normal_iterator"*, align 8, !llfi_index !613
  store %"class.__gnu_cxx::__normal_iterator"* %0, %"class.__gnu_cxx::__normal_iterator"** %2, align 8, !llfi_index !614
  %3 = load %"class.__gnu_cxx::__normal_iterator"*, %"class.__gnu_cxx::__normal_iterator"** %2, align 8, !llfi_index !615
  %4 = getelementptr inbounds %"class.__gnu_cxx::__normal_iterator", %"class.__gnu_cxx::__normal_iterator"* %3, i32 0, i32 0, !llfi_index !616
  %5 = load i32*, i32** %4, align 8, !llfi_index !617
  %6 = getelementptr inbounds i32, i32* %5, i32 1, !llfi_index !618
  store i32* %6, i32** %4, align 8, !llfi_index !619
  ret %"class.__gnu_cxx::__normal_iterator"* %3, !llfi_index !620
}

; Function Attrs: mustprogress noinline nounwind uwtable
define linkonce_odr dso_local nonnull align 4 dereferenceable(4) i32* @_ZNK9__gnu_cxx17__normal_iteratorIPiSt6vectorIiSaIiEEEdeEv(%"class.__gnu_cxx::__normal_iterator"* nonnull align 8 dereferenceable(8) %0) #6 comdat align 2 {
  %2 = alloca %"class.__gnu_cxx::__normal_iterator"*, align 8, !llfi_index !621
  store %"class.__gnu_cxx::__normal_iterator"* %0, %"class.__gnu_cxx::__normal_iterator"** %2, align 8, !llfi_index !622
  %3 = load %"class.__gnu_cxx::__normal_iterator"*, %"class.__gnu_cxx::__normal_iterator"** %2, align 8, !llfi_index !623
  %4 = getelementptr inbounds %"class.__gnu_cxx::__normal_iterator", %"class.__gnu_cxx::__normal_iterator"* %3, i32 0, i32 0, !llfi_index !624
  %5 = load i32*, i32** %4, align 8, !llfi_index !625
  ret i32* %5, !llfi_index !626
}

; Function Attrs: mustprogress noinline nounwind uwtable
define linkonce_odr dso_local nonnull align 4 dereferenceable(4) i32* @_ZSt4moveIRiEONSt16remove_referenceIT_E4typeEOS2_(i32* nonnull align 4 dereferenceable(4) %0) #6 comdat {
  %2 = alloca i32*, align 8, !llfi_index !627
  store i32* %0, i32** %2, align 8, !llfi_index !628
  %3 = load i32*, i32** %2, align 8, !llfi_index !629
  ret i32* %3, !llfi_index !630
}

; Function Attrs: mustprogress noinline nounwind uwtable
define linkonce_odr dso_local nonnull align 8 dereferenceable(8) %"class.__gnu_cxx::__normal_iterator"* @_ZN9__gnu_cxx17__normal_iteratorIPiSt6vectorIiSaIiEEEmmEv(%"class.__gnu_cxx::__normal_iterator"* nonnull align 8 dereferenceable(8) %0) #6 comdat align 2 {
  %2 = alloca %"class.__gnu_cxx::__normal_iterator"*, align 8, !llfi_index !631
  store %"class.__gnu_cxx::__normal_iterator"* %0, %"class.__gnu_cxx::__normal_iterator"** %2, align 8, !llfi_index !632
  %3 = load %"class.__gnu_cxx::__normal_iterator"*, %"class.__gnu_cxx::__normal_iterator"** %2, align 8, !llfi_index !633
  %4 = getelementptr inbounds %"class.__gnu_cxx::__normal_iterator", %"class.__gnu_cxx::__normal_iterator"* %3, i32 0, i32 0, !llfi_index !634
  %5 = load i32*, i32** %4, align 8, !llfi_index !635
  %6 = getelementptr inbounds i32, i32* %5, i32 -1, !llfi_index !636
  store i32* %6, i32** %4, align 8, !llfi_index !637
  ret %"class.__gnu_cxx::__normal_iterator"* %3, !llfi_index !638
}

; Function Attrs: mustprogress noinline nounwind uwtable
define linkonce_odr dso_local zeroext i1 @_ZNK9__gnu_cxx5__ops14_Val_less_iterclIiNS_17__normal_iteratorIPiSt6vectorIiSaIiEEEEEEbRT_T0_(%"class.std::ios_base::Init"* nonnull align 1 dereferenceable(1) %0, i32* nonnull align 4 dereferenceable(4) %1, i32* %2) #6 comdat align 2 {
  %4 = alloca %"class.__gnu_cxx::__normal_iterator", align 8, !llfi_index !639
  %5 = alloca %"class.std::ios_base::Init"*, align 8, !llfi_index !640
  %6 = alloca i32*, align 8, !llfi_index !641
  %7 = getelementptr inbounds %"class.__gnu_cxx::__normal_iterator", %"class.__gnu_cxx::__normal_iterator"* %4, i32 0, i32 0, !llfi_index !642
  store i32* %2, i32** %7, align 8, !llfi_index !643
  store %"class.std::ios_base::Init"* %0, %"class.std::ios_base::Init"** %5, align 8, !llfi_index !644
  store i32* %1, i32** %6, align 8, !llfi_index !645
  %8 = load %"class.std::ios_base::Init"*, %"class.std::ios_base::Init"** %5, align 8, !llfi_index !646
  %9 = load i32*, i32** %6, align 8, !llfi_index !647
  %10 = load i32, i32* %9, align 4, !llfi_index !648
  %11 = call nonnull align 4 dereferenceable(4) i32* @_ZNK9__gnu_cxx17__normal_iteratorIPiSt6vectorIiSaIiEEEdeEv(%"class.__gnu_cxx::__normal_iterator"* nonnull align 8 dereferenceable(8) %4) #2, !llfi_index !649
  %12 = load i32, i32* %11, align 4, !llfi_index !650
  %13 = icmp slt i32 %10, %12, !llfi_index !651
  ret i1 %13, !llfi_index !652
}

; Function Attrs: mustprogress noinline nounwind uwtable
define linkonce_odr dso_local zeroext i1 @_ZN9__gnu_cxxeqIPiSt6vectorIiSaIiEEEEbRKNS_17__normal_iteratorIT_T0_EESA_(%"class.__gnu_cxx::__normal_iterator"* nonnull align 8 dereferenceable(8) %0, %"class.__gnu_cxx::__normal_iterator"* nonnull align 8 dereferenceable(8) %1) #6 comdat {
  %3 = alloca %"class.__gnu_cxx::__normal_iterator"*, align 8, !llfi_index !653
  %4 = alloca %"class.__gnu_cxx::__normal_iterator"*, align 8, !llfi_index !654
  store %"class.__gnu_cxx::__normal_iterator"* %0, %"class.__gnu_cxx::__normal_iterator"** %3, align 8, !llfi_index !655
  store %"class.__gnu_cxx::__normal_iterator"* %1, %"class.__gnu_cxx::__normal_iterator"** %4, align 8, !llfi_index !656
  %5 = load %"class.__gnu_cxx::__normal_iterator"*, %"class.__gnu_cxx::__normal_iterator"** %3, align 8, !llfi_index !657
  %6 = call nonnull align 8 dereferenceable(8) i32** @_ZNK9__gnu_cxx17__normal_iteratorIPiSt6vectorIiSaIiEEE4baseEv(%"class.__gnu_cxx::__normal_iterator"* nonnull align 8 dereferenceable(8) %5) #2, !llfi_index !658
  %7 = load i32*, i32** %6, align 8, !llfi_index !659
  %8 = load %"class.__gnu_cxx::__normal_iterator"*, %"class.__gnu_cxx::__normal_iterator"** %4, align 8, !llfi_index !660
  %9 = call nonnull align 8 dereferenceable(8) i32** @_ZNK9__gnu_cxx17__normal_iteratorIPiSt6vectorIiSaIiEEE4baseEv(%"class.__gnu_cxx::__normal_iterator"* nonnull align 8 dereferenceable(8) %8) #2, !llfi_index !661
  %10 = load i32*, i32** %9, align 8, !llfi_index !662
  %11 = icmp eq i32* %7, %10, !llfi_index !663
  ret i1 %11, !llfi_index !664
}

; Function Attrs: mustprogress noinline nounwind uwtable
define linkonce_odr dso_local zeroext i1 @_ZNK9__gnu_cxx5__ops15_Iter_less_iterclINS_17__normal_iteratorIPiSt6vectorIiSaIiEEEES8_EEbT_T0_(%"class.std::ios_base::Init"* nonnull align 1 dereferenceable(1) %0, i32* %1, i32* %2) #6 comdat align 2 {
  %4 = alloca %"class.__gnu_cxx::__normal_iterator", align 8, !llfi_index !665
  %5 = alloca %"class.__gnu_cxx::__normal_iterator", align 8, !llfi_index !666
  %6 = alloca %"class.std::ios_base::Init"*, align 8, !llfi_index !667
  %7 = getelementptr inbounds %"class.__gnu_cxx::__normal_iterator", %"class.__gnu_cxx::__normal_iterator"* %4, i32 0, i32 0, !llfi_index !668
  store i32* %1, i32** %7, align 8, !llfi_index !669
  %8 = getelementptr inbounds %"class.__gnu_cxx::__normal_iterator", %"class.__gnu_cxx::__normal_iterator"* %5, i32 0, i32 0, !llfi_index !670
  store i32* %2, i32** %8, align 8, !llfi_index !671
  store %"class.std::ios_base::Init"* %0, %"class.std::ios_base::Init"** %6, align 8, !llfi_index !672
  %9 = load %"class.std::ios_base::Init"*, %"class.std::ios_base::Init"** %6, align 8, !llfi_index !673
  %10 = call nonnull align 4 dereferenceable(4) i32* @_ZNK9__gnu_cxx17__normal_iteratorIPiSt6vectorIiSaIiEEEdeEv(%"class.__gnu_cxx::__normal_iterator"* nonnull align 8 dereferenceable(8) %4) #2, !llfi_index !674
  %11 = load i32, i32* %10, align 4, !llfi_index !675
  %12 = call nonnull align 4 dereferenceable(4) i32* @_ZNK9__gnu_cxx17__normal_iteratorIPiSt6vectorIiSaIiEEEdeEv(%"class.__gnu_cxx::__normal_iterator"* nonnull align 8 dereferenceable(8) %5) #2, !llfi_index !676
  %13 = load i32, i32* %12, align 4, !llfi_index !677
  %14 = icmp slt i32 %11, %13, !llfi_index !678
  ret i1 %14, !llfi_index !679
}

; Function Attrs: mustprogress noinline uwtable
define linkonce_odr dso_local i32* @_ZSt13move_backwardIN9__gnu_cxx17__normal_iteratorIPiSt6vectorIiSaIiEEEES6_ET0_T_S8_S7_(i32* %0, i32* %1, i32* %2) #7 comdat {
  %4 = alloca %"class.__gnu_cxx::__normal_iterator", align 8, !llfi_index !680
  %5 = alloca %"class.__gnu_cxx::__normal_iterator", align 8, !llfi_index !681
  %6 = alloca %"class.__gnu_cxx::__normal_iterator", align 8, !llfi_index !682
  %7 = alloca %"class.__gnu_cxx::__normal_iterator", align 8, !llfi_index !683
  %8 = alloca %"class.__gnu_cxx::__normal_iterator", align 8, !llfi_index !684
  %9 = alloca %"class.__gnu_cxx::__normal_iterator", align 8, !llfi_index !685
  %10 = alloca %"class.__gnu_cxx::__normal_iterator", align 8, !llfi_index !686
  %11 = alloca %"class.__gnu_cxx::__normal_iterator", align 8, !llfi_index !687
  %12 = alloca %"class.__gnu_cxx::__normal_iterator", align 8, !llfi_index !688
  %13 = getelementptr inbounds %"class.__gnu_cxx::__normal_iterator", %"class.__gnu_cxx::__normal_iterator"* %5, i32 0, i32 0, !llfi_index !689
  store i32* %0, i32** %13, align 8, !llfi_index !690
  %14 = getelementptr inbounds %"class.__gnu_cxx::__normal_iterator", %"class.__gnu_cxx::__normal_iterator"* %6, i32 0, i32 0, !llfi_index !691
  store i32* %1, i32** %14, align 8, !llfi_index !692
  %15 = getelementptr inbounds %"class.__gnu_cxx::__normal_iterator", %"class.__gnu_cxx::__normal_iterator"* %7, i32 0, i32 0, !llfi_index !693
  store i32* %2, i32** %15, align 8, !llfi_index !694
  %16 = bitcast %"class.__gnu_cxx::__normal_iterator"* %9 to i8*, !llfi_index !695
  %17 = bitcast %"class.__gnu_cxx::__normal_iterator"* %5 to i8*, !llfi_index !696
  call void @llvm.memcpy.p0i8.p0i8.i64(i8* align 8 %16, i8* align 8 %17, i64 8, i1 false), !llfi_index !697
  %18 = getelementptr inbounds %"class.__gnu_cxx::__normal_iterator", %"class.__gnu_cxx::__normal_iterator"* %9, i32 0, i32 0, !llfi_index !698
  %19 = load i32*, i32** %18, align 8, !llfi_index !699
  %20 = call i32* @_ZSt12__miter_baseIN9__gnu_cxx17__normal_iteratorIPiSt6vectorIiSaIiEEEEET_S7_(i32* %19), !llfi_index !700
  %21 = getelementptr inbounds %"class.__gnu_cxx::__normal_iterator", %"class.__gnu_cxx::__normal_iterator"* %8, i32 0, i32 0, !llfi_index !701
  store i32* %20, i32** %21, align 8, !llfi_index !702
  %22 = bitcast %"class.__gnu_cxx::__normal_iterator"* %11 to i8*, !llfi_index !703
  %23 = bitcast %"class.__gnu_cxx::__normal_iterator"* %6 to i8*, !llfi_index !704
  call void @llvm.memcpy.p0i8.p0i8.i64(i8* align 8 %22, i8* align 8 %23, i64 8, i1 false), !llfi_index !705
  %24 = getelementptr inbounds %"class.__gnu_cxx::__normal_iterator", %"class.__gnu_cxx::__normal_iterator"* %11, i32 0, i32 0, !llfi_index !706
  %25 = load i32*, i32** %24, align 8, !llfi_index !707
  %26 = call i32* @_ZSt12__miter_baseIN9__gnu_cxx17__normal_iteratorIPiSt6vectorIiSaIiEEEEET_S7_(i32* %25), !llfi_index !708
  %27 = getelementptr inbounds %"class.__gnu_cxx::__normal_iterator", %"class.__gnu_cxx::__normal_iterator"* %10, i32 0, i32 0, !llfi_index !709
  store i32* %26, i32** %27, align 8, !llfi_index !710
  %28 = bitcast %"class.__gnu_cxx::__normal_iterator"* %12 to i8*, !llfi_index !711
  %29 = bitcast %"class.__gnu_cxx::__normal_iterator"* %7 to i8*, !llfi_index !712
  call void @llvm.memcpy.p0i8.p0i8.i64(i8* align 8 %28, i8* align 8 %29, i64 8, i1 false), !llfi_index !713
  %30 = getelementptr inbounds %"class.__gnu_cxx::__normal_iterator", %"class.__gnu_cxx::__normal_iterator"* %8, i32 0, i32 0, !llfi_index !714
  %31 = load i32*, i32** %30, align 8, !llfi_index !715
  %32 = getelementptr inbounds %"class.__gnu_cxx::__normal_iterator", %"class.__gnu_cxx::__normal_iterator"* %10, i32 0, i32 0, !llfi_index !716
  %33 = load i32*, i32** %32, align 8, !llfi_index !717
  %34 = getelementptr inbounds %"class.__gnu_cxx::__normal_iterator", %"class.__gnu_cxx::__normal_iterator"* %12, i32 0, i32 0, !llfi_index !718
  %35 = load i32*, i32** %34, align 8, !llfi_index !719
  %36 = call i32* @_ZSt23__copy_move_backward_a2ILb1EN9__gnu_cxx17__normal_iteratorIPiSt6vectorIiSaIiEEEES6_ET1_T0_S8_S7_(i32* %31, i32* %33, i32* %35), !llfi_index !720
  %37 = getelementptr inbounds %"class.__gnu_cxx::__normal_iterator", %"class.__gnu_cxx::__normal_iterator"* %4, i32 0, i32 0, !llfi_index !721
  store i32* %36, i32** %37, align 8, !llfi_index !722
  %38 = getelementptr inbounds %"class.__gnu_cxx::__normal_iterator", %"class.__gnu_cxx::__normal_iterator"* %4, i32 0, i32 0, !llfi_index !723
  %39 = load i32*, i32** %38, align 8, !llfi_index !724
  ret i32* %39, !llfi_index !725
}

; Function Attrs: mustprogress noinline nounwind uwtable
define linkonce_odr dso_local i32* @_ZSt12__miter_baseIN9__gnu_cxx17__normal_iteratorIPiSt6vectorIiSaIiEEEEET_S7_(i32* %0) #6 comdat {
  %2 = alloca %"class.__gnu_cxx::__normal_iterator", align 8, !llfi_index !726
  %3 = alloca %"class.__gnu_cxx::__normal_iterator", align 8, !llfi_index !727
  %4 = getelementptr inbounds %"class.__gnu_cxx::__normal_iterator", %"class.__gnu_cxx::__normal_iterator"* %3, i32 0, i32 0, !llfi_index !728
  store i32* %0, i32** %4, align 8, !llfi_index !729
  %5 = bitcast %"class.__gnu_cxx::__normal_iterator"* %2 to i8*, !llfi_index !730
  %6 = bitcast %"class.__gnu_cxx::__normal_iterator"* %3 to i8*, !llfi_index !731
  call void @llvm.memcpy.p0i8.p0i8.i64(i8* align 8 %5, i8* align 8 %6, i64 8, i1 false), !llfi_index !732
  %7 = getelementptr inbounds %"class.__gnu_cxx::__normal_iterator", %"class.__gnu_cxx::__normal_iterator"* %2, i32 0, i32 0, !llfi_index !733
  %8 = load i32*, i32** %7, align 8, !llfi_index !734
  ret i32* %8, !llfi_index !735
}

; Function Attrs: mustprogress noinline uwtable
define linkonce_odr dso_local i32* @_ZSt23__copy_move_backward_a2ILb1EN9__gnu_cxx17__normal_iteratorIPiSt6vectorIiSaIiEEEES6_ET1_T0_S8_S7_(i32* %0, i32* %1, i32* %2) #7 comdat {
  %4 = alloca %"class.__gnu_cxx::__normal_iterator", align 8, !llfi_index !736
  %5 = alloca %"class.__gnu_cxx::__normal_iterator", align 8, !llfi_index !737
  %6 = alloca %"class.__gnu_cxx::__normal_iterator", align 8, !llfi_index !738
  %7 = alloca %"class.__gnu_cxx::__normal_iterator", align 8, !llfi_index !739
  %8 = alloca %"class.__gnu_cxx::__normal_iterator", align 8, !llfi_index !740
  %9 = alloca %"class.__gnu_cxx::__normal_iterator", align 8, !llfi_index !741
  %10 = alloca %"class.__gnu_cxx::__normal_iterator", align 8, !llfi_index !742
  %11 = alloca %"class.__gnu_cxx::__normal_iterator", align 8, !llfi_index !743
  %12 = getelementptr inbounds %"class.__gnu_cxx::__normal_iterator", %"class.__gnu_cxx::__normal_iterator"* %5, i32 0, i32 0, !llfi_index !744
  store i32* %0, i32** %12, align 8, !llfi_index !745
  %13 = getelementptr inbounds %"class.__gnu_cxx::__normal_iterator", %"class.__gnu_cxx::__normal_iterator"* %6, i32 0, i32 0, !llfi_index !746
  store i32* %1, i32** %13, align 8, !llfi_index !747
  %14 = getelementptr inbounds %"class.__gnu_cxx::__normal_iterator", %"class.__gnu_cxx::__normal_iterator"* %7, i32 0, i32 0, !llfi_index !748
  store i32* %2, i32** %14, align 8, !llfi_index !749
  %15 = bitcast %"class.__gnu_cxx::__normal_iterator"* %8 to i8*, !llfi_index !750
  %16 = bitcast %"class.__gnu_cxx::__normal_iterator"* %7 to i8*, !llfi_index !751
  call void @llvm.memcpy.p0i8.p0i8.i64(i8* align 8 %15, i8* align 8 %16, i64 8, i1 false), !llfi_index !752
  %17 = bitcast %"class.__gnu_cxx::__normal_iterator"* %9 to i8*, !llfi_index !753
  %18 = bitcast %"class.__gnu_cxx::__normal_iterator"* %5 to i8*, !llfi_index !754
  call void @llvm.memcpy.p0i8.p0i8.i64(i8* align 8 %17, i8* align 8 %18, i64 8, i1 false), !llfi_index !755
  %19 = getelementptr inbounds %"class.__gnu_cxx::__normal_iterator", %"class.__gnu_cxx::__normal_iterator"* %9, i32 0, i32 0, !llfi_index !756
  %20 = load i32*, i32** %19, align 8, !llfi_index !757
  %21 = call i32* @_ZSt12__niter_baseIPiSt6vectorIiSaIiEEET_N9__gnu_cxx17__normal_iteratorIS4_T0_EE(i32* %20) #2, !llfi_index !758
  %22 = bitcast %"class.__gnu_cxx::__normal_iterator"* %10 to i8*, !llfi_index !759
  %23 = bitcast %"class.__gnu_cxx::__normal_iterator"* %6 to i8*, !llfi_index !760
  call void @llvm.memcpy.p0i8.p0i8.i64(i8* align 8 %22, i8* align 8 %23, i64 8, i1 false), !llfi_index !761
  %24 = getelementptr inbounds %"class.__gnu_cxx::__normal_iterator", %"class.__gnu_cxx::__normal_iterator"* %10, i32 0, i32 0, !llfi_index !762
  %25 = load i32*, i32** %24, align 8, !llfi_index !763
  %26 = call i32* @_ZSt12__niter_baseIPiSt6vectorIiSaIiEEET_N9__gnu_cxx17__normal_iteratorIS4_T0_EE(i32* %25) #2, !llfi_index !764
  %27 = bitcast %"class.__gnu_cxx::__normal_iterator"* %11 to i8*, !llfi_index !765
  %28 = bitcast %"class.__gnu_cxx::__normal_iterator"* %7 to i8*, !llfi_index !766
  call void @llvm.memcpy.p0i8.p0i8.i64(i8* align 8 %27, i8* align 8 %28, i64 8, i1 false), !llfi_index !767
  %29 = getelementptr inbounds %"class.__gnu_cxx::__normal_iterator", %"class.__gnu_cxx::__normal_iterator"* %11, i32 0, i32 0, !llfi_index !768
  %30 = load i32*, i32** %29, align 8, !llfi_index !769
  %31 = call i32* @_ZSt12__niter_baseIPiSt6vectorIiSaIiEEET_N9__gnu_cxx17__normal_iteratorIS4_T0_EE(i32* %30) #2, !llfi_index !770
  %32 = call i32* @_ZSt22__copy_move_backward_aILb1EPiS0_ET1_T0_S2_S1_(i32* %21, i32* %26, i32* %31), !llfi_index !771
  %33 = getelementptr inbounds %"class.__gnu_cxx::__normal_iterator", %"class.__gnu_cxx::__normal_iterator"* %8, i32 0, i32 0, !llfi_index !772
  %34 = load i32*, i32** %33, align 8, !llfi_index !773
  %35 = call i32* @_ZSt12__niter_wrapIN9__gnu_cxx17__normal_iteratorIPiSt6vectorIiSaIiEEEES2_ET_S7_T0_(i32* %34, i32* %32), !llfi_index !774
  %36 = getelementptr inbounds %"class.__gnu_cxx::__normal_iterator", %"class.__gnu_cxx::__normal_iterator"* %4, i32 0, i32 0, !llfi_index !775
  store i32* %35, i32** %36, align 8, !llfi_index !776
  %37 = getelementptr inbounds %"class.__gnu_cxx::__normal_iterator", %"class.__gnu_cxx::__normal_iterator"* %4, i32 0, i32 0, !llfi_index !777
  %38 = load i32*, i32** %37, align 8, !llfi_index !778
  ret i32* %38, !llfi_index !779
}

; Function Attrs: mustprogress noinline nounwind uwtable
define linkonce_odr dso_local i32* @_ZSt12__niter_baseIPiSt6vectorIiSaIiEEET_N9__gnu_cxx17__normal_iteratorIS4_T0_EE(i32* %0) #6 comdat {
  %2 = alloca %"class.__gnu_cxx::__normal_iterator", align 8, !llfi_index !780
  %3 = getelementptr inbounds %"class.__gnu_cxx::__normal_iterator", %"class.__gnu_cxx::__normal_iterator"* %2, i32 0, i32 0, !llfi_index !781
  store i32* %0, i32** %3, align 8, !llfi_index !782
  %4 = call nonnull align 8 dereferenceable(8) i32** @_ZNK9__gnu_cxx17__normal_iteratorIPiSt6vectorIiSaIiEEE4baseEv(%"class.__gnu_cxx::__normal_iterator"* nonnull align 8 dereferenceable(8) %2) #2, !llfi_index !783
  %5 = load i32*, i32** %4, align 8, !llfi_index !784
  ret i32* %5, !llfi_index !785
}

; Function Attrs: mustprogress noinline uwtable
define linkonce_odr dso_local i32* @_ZSt22__copy_move_backward_aILb1EPiS0_ET1_T0_S2_S1_(i32* %0, i32* %1, i32* %2) #7 comdat {
  %4 = alloca i32*, align 8, !llfi_index !786
  %5 = alloca i32*, align 8, !llfi_index !787
  %6 = alloca i32*, align 8, !llfi_index !788
  %7 = alloca i8, align 1, !llfi_index !789
  store i32* %0, i32** %4, align 8, !llfi_index !790
  store i32* %1, i32** %5, align 8, !llfi_index !791
  store i32* %2, i32** %6, align 8, !llfi_index !792
  store i8 1, i8* %7, align 1, !llfi_index !793
  %8 = load i32*, i32** %4, align 8, !llfi_index !794
  %9 = load i32*, i32** %5, align 8, !llfi_index !795
  %10 = load i32*, i32** %6, align 8, !llfi_index !796
  %11 = call i32* @_ZNSt20__copy_move_backwardILb1ELb1ESt26random_access_iterator_tagE13__copy_move_bIiEEPT_PKS3_S6_S4_(i32* %8, i32* %9, i32* %10), !llfi_index !797
  ret i32* %11, !llfi_index !798
}

; Function Attrs: mustprogress noinline nounwind uwtable
define linkonce_odr dso_local i32* @_ZSt12__niter_wrapIN9__gnu_cxx17__normal_iteratorIPiSt6vectorIiSaIiEEEES2_ET_S7_T0_(i32* %0, i32* %1) #6 comdat {
  %3 = alloca %"class.__gnu_cxx::__normal_iterator", align 8, !llfi_index !799
  %4 = alloca %"class.__gnu_cxx::__normal_iterator", align 8, !llfi_index !800
  %5 = alloca i32*, align 8, !llfi_index !801
  %6 = alloca %"class.__gnu_cxx::__normal_iterator", align 8, !llfi_index !802
  %7 = getelementptr inbounds %"class.__gnu_cxx::__normal_iterator", %"class.__gnu_cxx::__normal_iterator"* %4, i32 0, i32 0, !llfi_index !803
  store i32* %0, i32** %7, align 8, !llfi_index !804
  store i32* %1, i32** %5, align 8, !llfi_index !805
  %8 = load i32*, i32** %5, align 8, !llfi_index !806
  %9 = bitcast %"class.__gnu_cxx::__normal_iterator"* %6 to i8*, !llfi_index !807
  %10 = bitcast %"class.__gnu_cxx::__normal_iterator"* %4 to i8*, !llfi_index !808
  call void @llvm.memcpy.p0i8.p0i8.i64(i8* align 8 %9, i8* align 8 %10, i64 8, i1 false), !llfi_index !809
  %11 = getelementptr inbounds %"class.__gnu_cxx::__normal_iterator", %"class.__gnu_cxx::__normal_iterator"* %6, i32 0, i32 0, !llfi_index !810
  %12 = load i32*, i32** %11, align 8, !llfi_index !811
  %13 = call i32* @_ZSt12__niter_baseIPiSt6vectorIiSaIiEEET_N9__gnu_cxx17__normal_iteratorIS4_T0_EE(i32* %12) #2, !llfi_index !812
  %14 = ptrtoint i32* %8 to i64, !llfi_index !813
  %15 = ptrtoint i32* %13 to i64, !llfi_index !814
  %16 = sub i64 %14, %15, !llfi_index !815
  %17 = sdiv exact i64 %16, 4, !llfi_index !816
  %18 = call i32* @_ZNK9__gnu_cxx17__normal_iteratorIPiSt6vectorIiSaIiEEEplEl(%"class.__gnu_cxx::__normal_iterator"* nonnull align 8 dereferenceable(8) %4, i64 %17) #2, !llfi_index !817
  %19 = getelementptr inbounds %"class.__gnu_cxx::__normal_iterator", %"class.__gnu_cxx::__normal_iterator"* %3, i32 0, i32 0, !llfi_index !818
  store i32* %18, i32** %19, align 8, !llfi_index !819
  %20 = getelementptr inbounds %"class.__gnu_cxx::__normal_iterator", %"class.__gnu_cxx::__normal_iterator"* %3, i32 0, i32 0, !llfi_index !820
  %21 = load i32*, i32** %20, align 8, !llfi_index !821
  ret i32* %21, !llfi_index !822
}

; Function Attrs: mustprogress noinline nounwind uwtable
define linkonce_odr dso_local i32* @_ZNSt20__copy_move_backwardILb1ELb1ESt26random_access_iterator_tagE13__copy_move_bIiEEPT_PKS3_S6_S4_(i32* %0, i32* %1, i32* %2) #6 comdat align 2 {
  %4 = alloca i32*, align 8, !llfi_index !823
  %5 = alloca i32*, align 8, !llfi_index !824
  %6 = alloca i32*, align 8, !llfi_index !825
  %7 = alloca i64, align 8, !llfi_index !826
  store i32* %0, i32** %4, align 8, !llfi_index !827
  store i32* %1, i32** %5, align 8, !llfi_index !828
  store i32* %2, i32** %6, align 8, !llfi_index !829
  %8 = load i32*, i32** %5, align 8, !llfi_index !830
  %9 = load i32*, i32** %4, align 8, !llfi_index !831
  %10 = ptrtoint i32* %8 to i64, !llfi_index !832
  %11 = ptrtoint i32* %9 to i64, !llfi_index !833
  %12 = sub i64 %10, %11, !llfi_index !834
  %13 = sdiv exact i64 %12, 4, !llfi_index !835
  store i64 %13, i64* %7, align 8, !llfi_index !836
  %14 = load i64, i64* %7, align 8, !llfi_index !837
  %15 = icmp ne i64 %14, 0, !llfi_index !838
  br i1 %15, label %16, label %26, !llfi_index !839

16:                                               ; preds = %3
  %17 = load i32*, i32** %6, align 8, !llfi_index !840
  %18 = load i64, i64* %7, align 8, !llfi_index !841
  %19 = sub i64 0, %18, !llfi_index !842
  %20 = getelementptr inbounds i32, i32* %17, i64 %19, !llfi_index !843
  %21 = bitcast i32* %20 to i8*, !llfi_index !844
  %22 = load i32*, i32** %4, align 8, !llfi_index !845
  %23 = bitcast i32* %22 to i8*, !llfi_index !846
  %24 = load i64, i64* %7, align 8, !llfi_index !847
  %25 = mul i64 4, %24, !llfi_index !848
  call void @llvm.memmove.p0i8.p0i8.i64(i8* align 4 %21, i8* align 4 %23, i64 %25, i1 false), !llfi_index !849
  br label %26, !llfi_index !850

26:                                               ; preds = %16, %3
  %27 = load i32*, i32** %6, align 8, !llfi_index !851
  %28 = load i64, i64* %7, align 8, !llfi_index !852
  %29 = sub i64 0, %28, !llfi_index !853
  %30 = getelementptr inbounds i32, i32* %27, i64 %29, !llfi_index !854
  ret i32* %30, !llfi_index !855
}

; Function Attrs: argmemonly nofree nounwind willreturn
declare void @llvm.memmove.p0i8.p0i8.i64(i8* nocapture writeonly, i8* nocapture readonly, i64, i1 immarg) #8

; Function Attrs: mustprogress noinline nounwind uwtable
define linkonce_odr dso_local nonnull align 8 dereferenceable(8) i32** @_ZNK9__gnu_cxx17__normal_iteratorIPiSt6vectorIiSaIiEEE4baseEv(%"class.__gnu_cxx::__normal_iterator"* nonnull align 8 dereferenceable(8) %0) #6 comdat align 2 {
  %2 = alloca %"class.__gnu_cxx::__normal_iterator"*, align 8, !llfi_index !856
  store %"class.__gnu_cxx::__normal_iterator"* %0, %"class.__gnu_cxx::__normal_iterator"** %2, align 8, !llfi_index !857
  %3 = load %"class.__gnu_cxx::__normal_iterator"*, %"class.__gnu_cxx::__normal_iterator"** %2, align 8, !llfi_index !858
  %4 = getelementptr inbounds %"class.__gnu_cxx::__normal_iterator", %"class.__gnu_cxx::__normal_iterator"* %3, i32 0, i32 0, !llfi_index !859
  ret i32** %4, !llfi_index !860
}

; Function Attrs: noinline nounwind uwtable
define linkonce_odr dso_local void @_ZN9__gnu_cxx17__normal_iteratorIPiSt6vectorIiSaIiEEEC2ERKS1_(%"class.__gnu_cxx::__normal_iterator"* nonnull align 8 dereferenceable(8) %0, i32** nonnull align 8 dereferenceable(8) %1) unnamed_addr #5 comdat align 2 {
  %3 = alloca %"class.__gnu_cxx::__normal_iterator"*, align 8, !llfi_index !861
  %4 = alloca i32**, align 8, !llfi_index !862
  store %"class.__gnu_cxx::__normal_iterator"* %0, %"class.__gnu_cxx::__normal_iterator"** %3, align 8, !llfi_index !863
  store i32** %1, i32*** %4, align 8, !llfi_index !864
  %5 = load %"class.__gnu_cxx::__normal_iterator"*, %"class.__gnu_cxx::__normal_iterator"** %3, align 8, !llfi_index !865
  %6 = getelementptr inbounds %"class.__gnu_cxx::__normal_iterator", %"class.__gnu_cxx::__normal_iterator"* %5, i32 0, i32 0, !llfi_index !866
  %7 = load i32**, i32*** %4, align 8, !llfi_index !867
  %8 = load i32*, i32** %7, align 8, !llfi_index !868
  store i32* %8, i32** %6, align 8, !llfi_index !869
  ret void, !llfi_index !870
}

; Function Attrs: mustprogress noinline uwtable
define linkonce_odr dso_local void @_ZSt14__partial_sortIN9__gnu_cxx17__normal_iteratorIPiSt6vectorIiSaIiEEEENS0_5__ops15_Iter_less_iterEEvT_S9_S9_T0_(i32* %0, i32* %1, i32* %2) #7 comdat {
  %4 = alloca %"class.__gnu_cxx::__normal_iterator", align 8, !llfi_index !871
  %5 = alloca %"class.__gnu_cxx::__normal_iterator", align 8, !llfi_index !872
  %6 = alloca %"class.__gnu_cxx::__normal_iterator", align 8, !llfi_index !873
  %7 = alloca %"class.std::ios_base::Init", align 1, !llfi_index !874
  %8 = alloca %"class.__gnu_cxx::__normal_iterator", align 8, !llfi_index !875
  %9 = alloca %"class.__gnu_cxx::__normal_iterator", align 8, !llfi_index !876
  %10 = alloca %"class.__gnu_cxx::__normal_iterator", align 8, !llfi_index !877
  %11 = alloca %"class.std::ios_base::Init", align 1, !llfi_index !878
  %12 = alloca %"class.__gnu_cxx::__normal_iterator", align 8, !llfi_index !879
  %13 = alloca %"class.__gnu_cxx::__normal_iterator", align 8, !llfi_index !880
  %14 = getelementptr inbounds %"class.__gnu_cxx::__normal_iterator", %"class.__gnu_cxx::__normal_iterator"* %4, i32 0, i32 0, !llfi_index !881
  store i32* %0, i32** %14, align 8, !llfi_index !882
  %15 = getelementptr inbounds %"class.__gnu_cxx::__normal_iterator", %"class.__gnu_cxx::__normal_iterator"* %5, i32 0, i32 0, !llfi_index !883
  store i32* %1, i32** %15, align 8, !llfi_index !884
  %16 = getelementptr inbounds %"class.__gnu_cxx::__normal_iterator", %"class.__gnu_cxx::__normal_iterator"* %6, i32 0, i32 0, !llfi_index !885
  store i32* %2, i32** %16, align 8, !llfi_index !886
  %17 = bitcast %"class.__gnu_cxx::__normal_iterator"* %8 to i8*, !llfi_index !887
  %18 = bitcast %"class.__gnu_cxx::__normal_iterator"* %4 to i8*, !llfi_index !888
  call void @llvm.memcpy.p0i8.p0i8.i64(i8* align 8 %17, i8* align 8 %18, i64 8, i1 false), !llfi_index !889
  %19 = bitcast %"class.__gnu_cxx::__normal_iterator"* %9 to i8*, !llfi_index !890
  %20 = bitcast %"class.__gnu_cxx::__normal_iterator"* %5 to i8*, !llfi_index !891
  call void @llvm.memcpy.p0i8.p0i8.i64(i8* align 8 %19, i8* align 8 %20, i64 8, i1 false), !llfi_index !892
  %21 = bitcast %"class.__gnu_cxx::__normal_iterator"* %10 to i8*, !llfi_index !893
  %22 = bitcast %"class.__gnu_cxx::__normal_iterator"* %6 to i8*, !llfi_index !894
  call void @llvm.memcpy.p0i8.p0i8.i64(i8* align 8 %21, i8* align 8 %22, i64 8, i1 false), !llfi_index !895
  %23 = getelementptr inbounds %"class.__gnu_cxx::__normal_iterator", %"class.__gnu_cxx::__normal_iterator"* %8, i32 0, i32 0, !llfi_index !896
  %24 = load i32*, i32** %23, align 8, !llfi_index !897
  %25 = getelementptr inbounds %"class.__gnu_cxx::__normal_iterator", %"class.__gnu_cxx::__normal_iterator"* %9, i32 0, i32 0, !llfi_index !898
  %26 = load i32*, i32** %25, align 8, !llfi_index !899
  %27 = getelementptr inbounds %"class.__gnu_cxx::__normal_iterator", %"class.__gnu_cxx::__normal_iterator"* %10, i32 0, i32 0, !llfi_index !900
  %28 = load i32*, i32** %27, align 8, !llfi_index !901
  call void @_ZSt13__heap_selectIN9__gnu_cxx17__normal_iteratorIPiSt6vectorIiSaIiEEEENS0_5__ops15_Iter_less_iterEEvT_S9_S9_T0_(i32* %24, i32* %26, i32* %28), !llfi_index !902
  %29 = bitcast %"class.__gnu_cxx::__normal_iterator"* %12 to i8*, !llfi_index !903
  %30 = bitcast %"class.__gnu_cxx::__normal_iterator"* %4 to i8*, !llfi_index !904
  call void @llvm.memcpy.p0i8.p0i8.i64(i8* align 8 %29, i8* align 8 %30, i64 8, i1 false), !llfi_index !905
  %31 = bitcast %"class.__gnu_cxx::__normal_iterator"* %13 to i8*, !llfi_index !906
  %32 = bitcast %"class.__gnu_cxx::__normal_iterator"* %5 to i8*, !llfi_index !907
  call void @llvm.memcpy.p0i8.p0i8.i64(i8* align 8 %31, i8* align 8 %32, i64 8, i1 false), !llfi_index !908
  %33 = getelementptr inbounds %"class.__gnu_cxx::__normal_iterator", %"class.__gnu_cxx::__normal_iterator"* %12, i32 0, i32 0, !llfi_index !909
  %34 = load i32*, i32** %33, align 8, !llfi_index !910
  %35 = getelementptr inbounds %"class.__gnu_cxx::__normal_iterator", %"class.__gnu_cxx::__normal_iterator"* %13, i32 0, i32 0, !llfi_index !911
  %36 = load i32*, i32** %35, align 8, !llfi_index !912
  call void @_ZSt11__sort_heapIN9__gnu_cxx17__normal_iteratorIPiSt6vectorIiSaIiEEEENS0_5__ops15_Iter_less_iterEEvT_S9_RT0_(i32* %34, i32* %36, %"class.std::ios_base::Init"* nonnull align 1 dereferenceable(1) %7), !llfi_index !913
  ret void, !llfi_index !914
}

; Function Attrs: mustprogress noinline uwtable
define linkonce_odr dso_local i32* @_ZSt27__unguarded_partition_pivotIN9__gnu_cxx17__normal_iteratorIPiSt6vectorIiSaIiEEEENS0_5__ops15_Iter_less_iterEET_S9_S9_T0_(i32* %0, i32* %1) #7 comdat {
  %3 = alloca %"class.__gnu_cxx::__normal_iterator", align 8, !llfi_index !915
  %4 = alloca %"class.__gnu_cxx::__normal_iterator", align 8, !llfi_index !916
  %5 = alloca %"class.__gnu_cxx::__normal_iterator", align 8, !llfi_index !917
  %6 = alloca %"class.std::ios_base::Init", align 1, !llfi_index !918
  %7 = alloca %"class.__gnu_cxx::__normal_iterator", align 8, !llfi_index !919
  %8 = alloca %"class.__gnu_cxx::__normal_iterator", align 8, !llfi_index !920
  %9 = alloca %"class.__gnu_cxx::__normal_iterator", align 8, !llfi_index !921
  %10 = alloca %"class.__gnu_cxx::__normal_iterator", align 8, !llfi_index !922
  %11 = alloca %"class.__gnu_cxx::__normal_iterator", align 8, !llfi_index !923
  %12 = alloca %"class.std::ios_base::Init", align 1, !llfi_index !924
  %13 = alloca %"class.__gnu_cxx::__normal_iterator", align 8, !llfi_index !925
  %14 = alloca %"class.__gnu_cxx::__normal_iterator", align 8, !llfi_index !926
  %15 = alloca %"class.__gnu_cxx::__normal_iterator", align 8, !llfi_index !927
  %16 = alloca %"class.std::ios_base::Init", align 1, !llfi_index !928
  %17 = getelementptr inbounds %"class.__gnu_cxx::__normal_iterator", %"class.__gnu_cxx::__normal_iterator"* %4, i32 0, i32 0, !llfi_index !929
  store i32* %0, i32** %17, align 8, !llfi_index !930
  %18 = getelementptr inbounds %"class.__gnu_cxx::__normal_iterator", %"class.__gnu_cxx::__normal_iterator"* %5, i32 0, i32 0, !llfi_index !931
  store i32* %1, i32** %18, align 8, !llfi_index !932
  %19 = call i64 @_ZN9__gnu_cxxmiIPiSt6vectorIiSaIiEEEENS_17__normal_iteratorIT_T0_E15difference_typeERKS8_SB_(%"class.__gnu_cxx::__normal_iterator"* nonnull align 8 dereferenceable(8) %5, %"class.__gnu_cxx::__normal_iterator"* nonnull align 8 dereferenceable(8) %4) #2, !llfi_index !933
  %20 = sdiv i64 %19, 2, !llfi_index !934
  %21 = call i32* @_ZNK9__gnu_cxx17__normal_iteratorIPiSt6vectorIiSaIiEEEplEl(%"class.__gnu_cxx::__normal_iterator"* nonnull align 8 dereferenceable(8) %4, i64 %20) #2, !llfi_index !935
  %22 = getelementptr inbounds %"class.__gnu_cxx::__normal_iterator", %"class.__gnu_cxx::__normal_iterator"* %7, i32 0, i32 0, !llfi_index !936
  store i32* %21, i32** %22, align 8, !llfi_index !937
  %23 = bitcast %"class.__gnu_cxx::__normal_iterator"* %8 to i8*, !llfi_index !938
  %24 = bitcast %"class.__gnu_cxx::__normal_iterator"* %4 to i8*, !llfi_index !939
  call void @llvm.memcpy.p0i8.p0i8.i64(i8* align 8 %23, i8* align 8 %24, i64 8, i1 false), !llfi_index !940
  %25 = call i32* @_ZNK9__gnu_cxx17__normal_iteratorIPiSt6vectorIiSaIiEEEplEl(%"class.__gnu_cxx::__normal_iterator"* nonnull align 8 dereferenceable(8) %4, i64 1) #2, !llfi_index !941
  %26 = getelementptr inbounds %"class.__gnu_cxx::__normal_iterator", %"class.__gnu_cxx::__normal_iterator"* %9, i32 0, i32 0, !llfi_index !942
  store i32* %25, i32** %26, align 8, !llfi_index !943
  %27 = bitcast %"class.__gnu_cxx::__normal_iterator"* %10 to i8*, !llfi_index !944
  %28 = bitcast %"class.__gnu_cxx::__normal_iterator"* %7 to i8*, !llfi_index !945
  call void @llvm.memcpy.p0i8.p0i8.i64(i8* align 8 %27, i8* align 8 %28, i64 8, i1 false), !llfi_index !946
  %29 = call i32* @_ZNK9__gnu_cxx17__normal_iteratorIPiSt6vectorIiSaIiEEEmiEl(%"class.__gnu_cxx::__normal_iterator"* nonnull align 8 dereferenceable(8) %5, i64 1) #2, !llfi_index !947
  %30 = getelementptr inbounds %"class.__gnu_cxx::__normal_iterator", %"class.__gnu_cxx::__normal_iterator"* %11, i32 0, i32 0, !llfi_index !948
  store i32* %29, i32** %30, align 8, !llfi_index !949
  %31 = getelementptr inbounds %"class.__gnu_cxx::__normal_iterator", %"class.__gnu_cxx::__normal_iterator"* %8, i32 0, i32 0, !llfi_index !950
  %32 = load i32*, i32** %31, align 8, !llfi_index !951
  %33 = getelementptr inbounds %"class.__gnu_cxx::__normal_iterator", %"class.__gnu_cxx::__normal_iterator"* %9, i32 0, i32 0, !llfi_index !952
  %34 = load i32*, i32** %33, align 8, !llfi_index !953
  %35 = getelementptr inbounds %"class.__gnu_cxx::__normal_iterator", %"class.__gnu_cxx::__normal_iterator"* %10, i32 0, i32 0, !llfi_index !954
  %36 = load i32*, i32** %35, align 8, !llfi_index !955
  %37 = getelementptr inbounds %"class.__gnu_cxx::__normal_iterator", %"class.__gnu_cxx::__normal_iterator"* %11, i32 0, i32 0, !llfi_index !956
  %38 = load i32*, i32** %37, align 8, !llfi_index !957
  call void @_ZSt22__move_median_to_firstIN9__gnu_cxx17__normal_iteratorIPiSt6vectorIiSaIiEEEENS0_5__ops15_Iter_less_iterEEvT_S9_S9_S9_T0_(i32* %32, i32* %34, i32* %36, i32* %38), !llfi_index !958
  %39 = call i32* @_ZNK9__gnu_cxx17__normal_iteratorIPiSt6vectorIiSaIiEEEplEl(%"class.__gnu_cxx::__normal_iterator"* nonnull align 8 dereferenceable(8) %4, i64 1) #2, !llfi_index !959
  %40 = getelementptr inbounds %"class.__gnu_cxx::__normal_iterator", %"class.__gnu_cxx::__normal_iterator"* %13, i32 0, i32 0, !llfi_index !960
  store i32* %39, i32** %40, align 8, !llfi_index !961
  %41 = bitcast %"class.__gnu_cxx::__normal_iterator"* %14 to i8*, !llfi_index !962
  %42 = bitcast %"class.__gnu_cxx::__normal_iterator"* %5 to i8*, !llfi_index !963
  call void @llvm.memcpy.p0i8.p0i8.i64(i8* align 8 %41, i8* align 8 %42, i64 8, i1 false), !llfi_index !964
  %43 = bitcast %"class.__gnu_cxx::__normal_iterator"* %15 to i8*, !llfi_index !965
  %44 = bitcast %"class.__gnu_cxx::__normal_iterator"* %4 to i8*, !llfi_index !966
  call void @llvm.memcpy.p0i8.p0i8.i64(i8* align 8 %43, i8* align 8 %44, i64 8, i1 false), !llfi_index !967
  %45 = getelementptr inbounds %"class.__gnu_cxx::__normal_iterator", %"class.__gnu_cxx::__normal_iterator"* %13, i32 0, i32 0, !llfi_index !968
  %46 = load i32*, i32** %45, align 8, !llfi_index !969
  %47 = getelementptr inbounds %"class.__gnu_cxx::__normal_iterator", %"class.__gnu_cxx::__normal_iterator"* %14, i32 0, i32 0, !llfi_index !970
  %48 = load i32*, i32** %47, align 8, !llfi_index !971
  %49 = getelementptr inbounds %"class.__gnu_cxx::__normal_iterator", %"class.__gnu_cxx::__normal_iterator"* %15, i32 0, i32 0, !llfi_index !972
  %50 = load i32*, i32** %49, align 8, !llfi_index !973
  %51 = call i32* @_ZSt21__unguarded_partitionIN9__gnu_cxx17__normal_iteratorIPiSt6vectorIiSaIiEEEENS0_5__ops15_Iter_less_iterEET_S9_S9_S9_T0_(i32* %46, i32* %48, i32* %50), !llfi_index !974
  %52 = getelementptr inbounds %"class.__gnu_cxx::__normal_iterator", %"class.__gnu_cxx::__normal_iterator"* %3, i32 0, i32 0, !llfi_index !975
  store i32* %51, i32** %52, align 8, !llfi_index !976
  %53 = getelementptr inbounds %"class.__gnu_cxx::__normal_iterator", %"class.__gnu_cxx::__normal_iterator"* %3, i32 0, i32 0, !llfi_index !977
  %54 = load i32*, i32** %53, align 8, !llfi_index !978
  ret i32* %54, !llfi_index !979
}

; Function Attrs: mustprogress noinline nounwind uwtable
define linkonce_odr dso_local i32* @_ZNK9__gnu_cxx17__normal_iteratorIPiSt6vectorIiSaIiEEEmiEl(%"class.__gnu_cxx::__normal_iterator"* nonnull align 8 dereferenceable(8) %0, i64 %1) #6 comdat align 2 {
  %3 = alloca %"class.__gnu_cxx::__normal_iterator", align 8, !llfi_index !980
  %4 = alloca %"class.__gnu_cxx::__normal_iterator"*, align 8, !llfi_index !981
  %5 = alloca i64, align 8, !llfi_index !982
  %6 = alloca i32*, align 8, !llfi_index !983
  store %"class.__gnu_cxx::__normal_iterator"* %0, %"class.__gnu_cxx::__normal_iterator"** %4, align 8, !llfi_index !984
  store i64 %1, i64* %5, align 8, !llfi_index !985
  %7 = load %"class.__gnu_cxx::__normal_iterator"*, %"class.__gnu_cxx::__normal_iterator"** %4, align 8, !llfi_index !986
  %8 = getelementptr inbounds %"class.__gnu_cxx::__normal_iterator", %"class.__gnu_cxx::__normal_iterator"* %7, i32 0, i32 0, !llfi_index !987
  %9 = load i32*, i32** %8, align 8, !llfi_index !988
  %10 = load i64, i64* %5, align 8, !llfi_index !989
  %11 = sub i64 0, %10, !llfi_index !990
  %12 = getelementptr inbounds i32, i32* %9, i64 %11, !llfi_index !991
  store i32* %12, i32** %6, align 8, !llfi_index !992
  call void @_ZN9__gnu_cxx17__normal_iteratorIPiSt6vectorIiSaIiEEEC2ERKS1_(%"class.__gnu_cxx::__normal_iterator"* nonnull align 8 dereferenceable(8) %3, i32** nonnull align 8 dereferenceable(8) %6) #2, !llfi_index !993
  %13 = getelementptr inbounds %"class.__gnu_cxx::__normal_iterator", %"class.__gnu_cxx::__normal_iterator"* %3, i32 0, i32 0, !llfi_index !994
  %14 = load i32*, i32** %13, align 8, !llfi_index !995
  ret i32* %14, !llfi_index !996
}

; Function Attrs: mustprogress noinline uwtable
define linkonce_odr dso_local void @_ZSt22__move_median_to_firstIN9__gnu_cxx17__normal_iteratorIPiSt6vectorIiSaIiEEEENS0_5__ops15_Iter_less_iterEEvT_S9_S9_S9_T0_(i32* %0, i32* %1, i32* %2, i32* %3) #7 comdat {
  %5 = alloca %"class.__gnu_cxx::__normal_iterator", align 8, !llfi_index !997
  %6 = alloca %"class.__gnu_cxx::__normal_iterator", align 8, !llfi_index !998
  %7 = alloca %"class.__gnu_cxx::__normal_iterator", align 8, !llfi_index !999
  %8 = alloca %"class.__gnu_cxx::__normal_iterator", align 8, !llfi_index !1000
  %9 = alloca %"class.std::ios_base::Init", align 1, !llfi_index !1001
  %10 = alloca %"class.__gnu_cxx::__normal_iterator", align 8, !llfi_index !1002
  %11 = alloca %"class.__gnu_cxx::__normal_iterator", align 8, !llfi_index !1003
  %12 = alloca %"class.__gnu_cxx::__normal_iterator", align 8, !llfi_index !1004
  %13 = alloca %"class.__gnu_cxx::__normal_iterator", align 8, !llfi_index !1005
  %14 = alloca %"class.__gnu_cxx::__normal_iterator", align 8, !llfi_index !1006
  %15 = alloca %"class.__gnu_cxx::__normal_iterator", align 8, !llfi_index !1007
  %16 = alloca %"class.__gnu_cxx::__normal_iterator", align 8, !llfi_index !1008
  %17 = alloca %"class.__gnu_cxx::__normal_iterator", align 8, !llfi_index !1009
  %18 = alloca %"class.__gnu_cxx::__normal_iterator", align 8, !llfi_index !1010
  %19 = alloca %"class.__gnu_cxx::__normal_iterator", align 8, !llfi_index !1011
  %20 = alloca %"class.__gnu_cxx::__normal_iterator", align 8, !llfi_index !1012
  %21 = alloca %"class.__gnu_cxx::__normal_iterator", align 8, !llfi_index !1013
  %22 = alloca %"class.__gnu_cxx::__normal_iterator", align 8, !llfi_index !1014
  %23 = alloca %"class.__gnu_cxx::__normal_iterator", align 8, !llfi_index !1015
  %24 = alloca %"class.__gnu_cxx::__normal_iterator", align 8, !llfi_index !1016
  %25 = alloca %"class.__gnu_cxx::__normal_iterator", align 8, !llfi_index !1017
  %26 = alloca %"class.__gnu_cxx::__normal_iterator", align 8, !llfi_index !1018
  %27 = alloca %"class.__gnu_cxx::__normal_iterator", align 8, !llfi_index !1019
  %28 = alloca %"class.__gnu_cxx::__normal_iterator", align 8, !llfi_index !1020
  %29 = alloca %"class.__gnu_cxx::__normal_iterator", align 8, !llfi_index !1021
  %30 = alloca %"class.__gnu_cxx::__normal_iterator", align 8, !llfi_index !1022
  %31 = alloca %"class.__gnu_cxx::__normal_iterator", align 8, !llfi_index !1023
  %32 = getelementptr inbounds %"class.__gnu_cxx::__normal_iterator", %"class.__gnu_cxx::__normal_iterator"* %5, i32 0, i32 0, !llfi_index !1024
  store i32* %0, i32** %32, align 8, !llfi_index !1025
  %33 = getelementptr inbounds %"class.__gnu_cxx::__normal_iterator", %"class.__gnu_cxx::__normal_iterator"* %6, i32 0, i32 0, !llfi_index !1026
  store i32* %1, i32** %33, align 8, !llfi_index !1027
  %34 = getelementptr inbounds %"class.__gnu_cxx::__normal_iterator", %"class.__gnu_cxx::__normal_iterator"* %7, i32 0, i32 0, !llfi_index !1028
  store i32* %2, i32** %34, align 8, !llfi_index !1029
  %35 = getelementptr inbounds %"class.__gnu_cxx::__normal_iterator", %"class.__gnu_cxx::__normal_iterator"* %8, i32 0, i32 0, !llfi_index !1030
  store i32* %3, i32** %35, align 8, !llfi_index !1031
  %36 = bitcast %"class.__gnu_cxx::__normal_iterator"* %10 to i8*, !llfi_index !1032
  %37 = bitcast %"class.__gnu_cxx::__normal_iterator"* %6 to i8*, !llfi_index !1033
  call void @llvm.memcpy.p0i8.p0i8.i64(i8* align 8 %36, i8* align 8 %37, i64 8, i1 false), !llfi_index !1034
  %38 = bitcast %"class.__gnu_cxx::__normal_iterator"* %11 to i8*, !llfi_index !1035
  %39 = bitcast %"class.__gnu_cxx::__normal_iterator"* %7 to i8*, !llfi_index !1036
  call void @llvm.memcpy.p0i8.p0i8.i64(i8* align 8 %38, i8* align 8 %39, i64 8, i1 false), !llfi_index !1037
  %40 = getelementptr inbounds %"class.__gnu_cxx::__normal_iterator", %"class.__gnu_cxx::__normal_iterator"* %10, i32 0, i32 0, !llfi_index !1038
  %41 = load i32*, i32** %40, align 8, !llfi_index !1039
  %42 = getelementptr inbounds %"class.__gnu_cxx::__normal_iterator", %"class.__gnu_cxx::__normal_iterator"* %11, i32 0, i32 0, !llfi_index !1040
  %43 = load i32*, i32** %42, align 8, !llfi_index !1041
  %44 = call zeroext i1 @_ZNK9__gnu_cxx5__ops15_Iter_less_iterclINS_17__normal_iteratorIPiSt6vectorIiSaIiEEEES8_EEbT_T0_(%"class.std::ios_base::Init"* nonnull align 1 dereferenceable(1) %9, i32* %41, i32* %43), !llfi_index !1042
  br i1 %44, label %45, label %94, !llfi_index !1043

45:                                               ; preds = %4
  %46 = bitcast %"class.__gnu_cxx::__normal_iterator"* %12 to i8*, !llfi_index !1044
  %47 = bitcast %"class.__gnu_cxx::__normal_iterator"* %7 to i8*, !llfi_index !1045
  call void @llvm.memcpy.p0i8.p0i8.i64(i8* align 8 %46, i8* align 8 %47, i64 8, i1 false), !llfi_index !1046
  %48 = bitcast %"class.__gnu_cxx::__normal_iterator"* %13 to i8*, !llfi_index !1047
  %49 = bitcast %"class.__gnu_cxx::__normal_iterator"* %8 to i8*, !llfi_index !1048
  call void @llvm.memcpy.p0i8.p0i8.i64(i8* align 8 %48, i8* align 8 %49, i64 8, i1 false), !llfi_index !1049
  %50 = getelementptr inbounds %"class.__gnu_cxx::__normal_iterator", %"class.__gnu_cxx::__normal_iterator"* %12, i32 0, i32 0, !llfi_index !1050
  %51 = load i32*, i32** %50, align 8, !llfi_index !1051
  %52 = getelementptr inbounds %"class.__gnu_cxx::__normal_iterator", %"class.__gnu_cxx::__normal_iterator"* %13, i32 0, i32 0, !llfi_index !1052
  %53 = load i32*, i32** %52, align 8, !llfi_index !1053
  %54 = call zeroext i1 @_ZNK9__gnu_cxx5__ops15_Iter_less_iterclINS_17__normal_iteratorIPiSt6vectorIiSaIiEEEES8_EEbT_T0_(%"class.std::ios_base::Init"* nonnull align 1 dereferenceable(1) %9, i32* %51, i32* %53), !llfi_index !1054
  br i1 %54, label %55, label %64, !llfi_index !1055

55:                                               ; preds = %45
  %56 = bitcast %"class.__gnu_cxx::__normal_iterator"* %14 to i8*, !llfi_index !1056
  %57 = bitcast %"class.__gnu_cxx::__normal_iterator"* %5 to i8*, !llfi_index !1057
  call void @llvm.memcpy.p0i8.p0i8.i64(i8* align 8 %56, i8* align 8 %57, i64 8, i1 false), !llfi_index !1058
  %58 = bitcast %"class.__gnu_cxx::__normal_iterator"* %15 to i8*, !llfi_index !1059
  %59 = bitcast %"class.__gnu_cxx::__normal_iterator"* %7 to i8*, !llfi_index !1060
  call void @llvm.memcpy.p0i8.p0i8.i64(i8* align 8 %58, i8* align 8 %59, i64 8, i1 false), !llfi_index !1061
  %60 = getelementptr inbounds %"class.__gnu_cxx::__normal_iterator", %"class.__gnu_cxx::__normal_iterator"* %14, i32 0, i32 0, !llfi_index !1062
  %61 = load i32*, i32** %60, align 8, !llfi_index !1063
  %62 = getelementptr inbounds %"class.__gnu_cxx::__normal_iterator", %"class.__gnu_cxx::__normal_iterator"* %15, i32 0, i32 0, !llfi_index !1064
  %63 = load i32*, i32** %62, align 8, !llfi_index !1065
  call void @_ZSt9iter_swapIN9__gnu_cxx17__normal_iteratorIPiSt6vectorIiSaIiEEEES6_EvT_T0_(i32* %61, i32* %63), !llfi_index !1066
  br label %93, !llfi_index !1067

64:                                               ; preds = %45
  %65 = bitcast %"class.__gnu_cxx::__normal_iterator"* %16 to i8*, !llfi_index !1068
  %66 = bitcast %"class.__gnu_cxx::__normal_iterator"* %6 to i8*, !llfi_index !1069
  call void @llvm.memcpy.p0i8.p0i8.i64(i8* align 8 %65, i8* align 8 %66, i64 8, i1 false), !llfi_index !1070
  %67 = bitcast %"class.__gnu_cxx::__normal_iterator"* %17 to i8*, !llfi_index !1071
  %68 = bitcast %"class.__gnu_cxx::__normal_iterator"* %8 to i8*, !llfi_index !1072
  call void @llvm.memcpy.p0i8.p0i8.i64(i8* align 8 %67, i8* align 8 %68, i64 8, i1 false), !llfi_index !1073
  %69 = getelementptr inbounds %"class.__gnu_cxx::__normal_iterator", %"class.__gnu_cxx::__normal_iterator"* %16, i32 0, i32 0, !llfi_index !1074
  %70 = load i32*, i32** %69, align 8, !llfi_index !1075
  %71 = getelementptr inbounds %"class.__gnu_cxx::__normal_iterator", %"class.__gnu_cxx::__normal_iterator"* %17, i32 0, i32 0, !llfi_index !1076
  %72 = load i32*, i32** %71, align 8, !llfi_index !1077
  %73 = call zeroext i1 @_ZNK9__gnu_cxx5__ops15_Iter_less_iterclINS_17__normal_iteratorIPiSt6vectorIiSaIiEEEES8_EEbT_T0_(%"class.std::ios_base::Init"* nonnull align 1 dereferenceable(1) %9, i32* %70, i32* %72), !llfi_index !1078
  br i1 %73, label %74, label %83, !llfi_index !1079

74:                                               ; preds = %64
  %75 = bitcast %"class.__gnu_cxx::__normal_iterator"* %18 to i8*, !llfi_index !1080
  %76 = bitcast %"class.__gnu_cxx::__normal_iterator"* %5 to i8*, !llfi_index !1081
  call void @llvm.memcpy.p0i8.p0i8.i64(i8* align 8 %75, i8* align 8 %76, i64 8, i1 false), !llfi_index !1082
  %77 = bitcast %"class.__gnu_cxx::__normal_iterator"* %19 to i8*, !llfi_index !1083
  %78 = bitcast %"class.__gnu_cxx::__normal_iterator"* %8 to i8*, !llfi_index !1084
  call void @llvm.memcpy.p0i8.p0i8.i64(i8* align 8 %77, i8* align 8 %78, i64 8, i1 false), !llfi_index !1085
  %79 = getelementptr inbounds %"class.__gnu_cxx::__normal_iterator", %"class.__gnu_cxx::__normal_iterator"* %18, i32 0, i32 0, !llfi_index !1086
  %80 = load i32*, i32** %79, align 8, !llfi_index !1087
  %81 = getelementptr inbounds %"class.__gnu_cxx::__normal_iterator", %"class.__gnu_cxx::__normal_iterator"* %19, i32 0, i32 0, !llfi_index !1088
  %82 = load i32*, i32** %81, align 8, !llfi_index !1089
  call void @_ZSt9iter_swapIN9__gnu_cxx17__normal_iteratorIPiSt6vectorIiSaIiEEEES6_EvT_T0_(i32* %80, i32* %82), !llfi_index !1090
  br label %92, !llfi_index !1091

83:                                               ; preds = %64
  %84 = bitcast %"class.__gnu_cxx::__normal_iterator"* %20 to i8*, !llfi_index !1092
  %85 = bitcast %"class.__gnu_cxx::__normal_iterator"* %5 to i8*, !llfi_index !1093
  call void @llvm.memcpy.p0i8.p0i8.i64(i8* align 8 %84, i8* align 8 %85, i64 8, i1 false), !llfi_index !1094
  %86 = bitcast %"class.__gnu_cxx::__normal_iterator"* %21 to i8*, !llfi_index !1095
  %87 = bitcast %"class.__gnu_cxx::__normal_iterator"* %6 to i8*, !llfi_index !1096
  call void @llvm.memcpy.p0i8.p0i8.i64(i8* align 8 %86, i8* align 8 %87, i64 8, i1 false), !llfi_index !1097
  %88 = getelementptr inbounds %"class.__gnu_cxx::__normal_iterator", %"class.__gnu_cxx::__normal_iterator"* %20, i32 0, i32 0, !llfi_index !1098
  %89 = load i32*, i32** %88, align 8, !llfi_index !1099
  %90 = getelementptr inbounds %"class.__gnu_cxx::__normal_iterator", %"class.__gnu_cxx::__normal_iterator"* %21, i32 0, i32 0, !llfi_index !1100
  %91 = load i32*, i32** %90, align 8, !llfi_index !1101
  call void @_ZSt9iter_swapIN9__gnu_cxx17__normal_iteratorIPiSt6vectorIiSaIiEEEES6_EvT_T0_(i32* %89, i32* %91), !llfi_index !1102
  br label %92, !llfi_index !1103

92:                                               ; preds = %83, %74
  br label %93, !llfi_index !1104

93:                                               ; preds = %92, %55
  br label %143, !llfi_index !1105

94:                                               ; preds = %4
  %95 = bitcast %"class.__gnu_cxx::__normal_iterator"* %22 to i8*, !llfi_index !1106
  %96 = bitcast %"class.__gnu_cxx::__normal_iterator"* %6 to i8*, !llfi_index !1107
  call void @llvm.memcpy.p0i8.p0i8.i64(i8* align 8 %95, i8* align 8 %96, i64 8, i1 false), !llfi_index !1108
  %97 = bitcast %"class.__gnu_cxx::__normal_iterator"* %23 to i8*, !llfi_index !1109
  %98 = bitcast %"class.__gnu_cxx::__normal_iterator"* %8 to i8*, !llfi_index !1110
  call void @llvm.memcpy.p0i8.p0i8.i64(i8* align 8 %97, i8* align 8 %98, i64 8, i1 false), !llfi_index !1111
  %99 = getelementptr inbounds %"class.__gnu_cxx::__normal_iterator", %"class.__gnu_cxx::__normal_iterator"* %22, i32 0, i32 0, !llfi_index !1112
  %100 = load i32*, i32** %99, align 8, !llfi_index !1113
  %101 = getelementptr inbounds %"class.__gnu_cxx::__normal_iterator", %"class.__gnu_cxx::__normal_iterator"* %23, i32 0, i32 0, !llfi_index !1114
  %102 = load i32*, i32** %101, align 8, !llfi_index !1115
  %103 = call zeroext i1 @_ZNK9__gnu_cxx5__ops15_Iter_less_iterclINS_17__normal_iteratorIPiSt6vectorIiSaIiEEEES8_EEbT_T0_(%"class.std::ios_base::Init"* nonnull align 1 dereferenceable(1) %9, i32* %100, i32* %102), !llfi_index !1116
  br i1 %103, label %104, label %113, !llfi_index !1117

104:                                              ; preds = %94
  %105 = bitcast %"class.__gnu_cxx::__normal_iterator"* %24 to i8*, !llfi_index !1118
  %106 = bitcast %"class.__gnu_cxx::__normal_iterator"* %5 to i8*, !llfi_index !1119
  call void @llvm.memcpy.p0i8.p0i8.i64(i8* align 8 %105, i8* align 8 %106, i64 8, i1 false), !llfi_index !1120
  %107 = bitcast %"class.__gnu_cxx::__normal_iterator"* %25 to i8*, !llfi_index !1121
  %108 = bitcast %"class.__gnu_cxx::__normal_iterator"* %6 to i8*, !llfi_index !1122
  call void @llvm.memcpy.p0i8.p0i8.i64(i8* align 8 %107, i8* align 8 %108, i64 8, i1 false), !llfi_index !1123
  %109 = getelementptr inbounds %"class.__gnu_cxx::__normal_iterator", %"class.__gnu_cxx::__normal_iterator"* %24, i32 0, i32 0, !llfi_index !1124
  %110 = load i32*, i32** %109, align 8, !llfi_index !1125
  %111 = getelementptr inbounds %"class.__gnu_cxx::__normal_iterator", %"class.__gnu_cxx::__normal_iterator"* %25, i32 0, i32 0, !llfi_index !1126
  %112 = load i32*, i32** %111, align 8, !llfi_index !1127
  call void @_ZSt9iter_swapIN9__gnu_cxx17__normal_iteratorIPiSt6vectorIiSaIiEEEES6_EvT_T0_(i32* %110, i32* %112), !llfi_index !1128
  br label %142, !llfi_index !1129

113:                                              ; preds = %94
  %114 = bitcast %"class.__gnu_cxx::__normal_iterator"* %26 to i8*, !llfi_index !1130
  %115 = bitcast %"class.__gnu_cxx::__normal_iterator"* %7 to i8*, !llfi_index !1131
  call void @llvm.memcpy.p0i8.p0i8.i64(i8* align 8 %114, i8* align 8 %115, i64 8, i1 false), !llfi_index !1132
  %116 = bitcast %"class.__gnu_cxx::__normal_iterator"* %27 to i8*, !llfi_index !1133
  %117 = bitcast %"class.__gnu_cxx::__normal_iterator"* %8 to i8*, !llfi_index !1134
  call void @llvm.memcpy.p0i8.p0i8.i64(i8* align 8 %116, i8* align 8 %117, i64 8, i1 false), !llfi_index !1135
  %118 = getelementptr inbounds %"class.__gnu_cxx::__normal_iterator", %"class.__gnu_cxx::__normal_iterator"* %26, i32 0, i32 0, !llfi_index !1136
  %119 = load i32*, i32** %118, align 8, !llfi_index !1137
  %120 = getelementptr inbounds %"class.__gnu_cxx::__normal_iterator", %"class.__gnu_cxx::__normal_iterator"* %27, i32 0, i32 0, !llfi_index !1138
  %121 = load i32*, i32** %120, align 8, !llfi_index !1139
  %122 = call zeroext i1 @_ZNK9__gnu_cxx5__ops15_Iter_less_iterclINS_17__normal_iteratorIPiSt6vectorIiSaIiEEEES8_EEbT_T0_(%"class.std::ios_base::Init"* nonnull align 1 dereferenceable(1) %9, i32* %119, i32* %121), !llfi_index !1140
  br i1 %122, label %123, label %132, !llfi_index !1141

123:                                              ; preds = %113
  %124 = bitcast %"class.__gnu_cxx::__normal_iterator"* %28 to i8*, !llfi_index !1142
  %125 = bitcast %"class.__gnu_cxx::__normal_iterator"* %5 to i8*, !llfi_index !1143
  call void @llvm.memcpy.p0i8.p0i8.i64(i8* align 8 %124, i8* align 8 %125, i64 8, i1 false), !llfi_index !1144
  %126 = bitcast %"class.__gnu_cxx::__normal_iterator"* %29 to i8*, !llfi_index !1145
  %127 = bitcast %"class.__gnu_cxx::__normal_iterator"* %8 to i8*, !llfi_index !1146
  call void @llvm.memcpy.p0i8.p0i8.i64(i8* align 8 %126, i8* align 8 %127, i64 8, i1 false), !llfi_index !1147
  %128 = getelementptr inbounds %"class.__gnu_cxx::__normal_iterator", %"class.__gnu_cxx::__normal_iterator"* %28, i32 0, i32 0, !llfi_index !1148
  %129 = load i32*, i32** %128, align 8, !llfi_index !1149
  %130 = getelementptr inbounds %"class.__gnu_cxx::__normal_iterator", %"class.__gnu_cxx::__normal_iterator"* %29, i32 0, i32 0, !llfi_index !1150
  %131 = load i32*, i32** %130, align 8, !llfi_index !1151
  call void @_ZSt9iter_swapIN9__gnu_cxx17__normal_iteratorIPiSt6vectorIiSaIiEEEES6_EvT_T0_(i32* %129, i32* %131), !llfi_index !1152
  br label %141, !llfi_index !1153

132:                                              ; preds = %113
  %133 = bitcast %"class.__gnu_cxx::__normal_iterator"* %30 to i8*, !llfi_index !1154
  %134 = bitcast %"class.__gnu_cxx::__normal_iterator"* %5 to i8*, !llfi_index !1155
  call void @llvm.memcpy.p0i8.p0i8.i64(i8* align 8 %133, i8* align 8 %134, i64 8, i1 false), !llfi_index !1156
  %135 = bitcast %"class.__gnu_cxx::__normal_iterator"* %31 to i8*, !llfi_index !1157
  %136 = bitcast %"class.__gnu_cxx::__normal_iterator"* %7 to i8*, !llfi_index !1158
  call void @llvm.memcpy.p0i8.p0i8.i64(i8* align 8 %135, i8* align 8 %136, i64 8, i1 false), !llfi_index !1159
  %137 = getelementptr inbounds %"class.__gnu_cxx::__normal_iterator", %"class.__gnu_cxx::__normal_iterator"* %30, i32 0, i32 0, !llfi_index !1160
  %138 = load i32*, i32** %137, align 8, !llfi_index !1161
  %139 = getelementptr inbounds %"class.__gnu_cxx::__normal_iterator", %"class.__gnu_cxx::__normal_iterator"* %31, i32 0, i32 0, !llfi_index !1162
  %140 = load i32*, i32** %139, align 8, !llfi_index !1163
  call void @_ZSt9iter_swapIN9__gnu_cxx17__normal_iteratorIPiSt6vectorIiSaIiEEEES6_EvT_T0_(i32* %138, i32* %140), !llfi_index !1164
  br label %141, !llfi_index !1165

141:                                              ; preds = %132, %123
  br label %142, !llfi_index !1166

142:                                              ; preds = %141, %104
  br label %143, !llfi_index !1167

143:                                              ; preds = %142, %93
  ret void, !llfi_index !1168
}

; Function Attrs: mustprogress noinline nounwind uwtable
define linkonce_odr dso_local i32* @_ZSt21__unguarded_partitionIN9__gnu_cxx17__normal_iteratorIPiSt6vectorIiSaIiEEEENS0_5__ops15_Iter_less_iterEET_S9_S9_S9_T0_(i32* %0, i32* %1, i32* %2) #6 comdat {
  %4 = alloca %"class.__gnu_cxx::__normal_iterator", align 8, !llfi_index !1169
  %5 = alloca %"class.__gnu_cxx::__normal_iterator", align 8, !llfi_index !1170
  %6 = alloca %"class.__gnu_cxx::__normal_iterator", align 8, !llfi_index !1171
  %7 = alloca %"class.__gnu_cxx::__normal_iterator", align 8, !llfi_index !1172
  %8 = alloca %"class.std::ios_base::Init", align 1, !llfi_index !1173
  %9 = alloca %"class.__gnu_cxx::__normal_iterator", align 8, !llfi_index !1174
  %10 = alloca %"class.__gnu_cxx::__normal_iterator", align 8, !llfi_index !1175
  %11 = alloca %"class.__gnu_cxx::__normal_iterator", align 8, !llfi_index !1176
  %12 = alloca %"class.__gnu_cxx::__normal_iterator", align 8, !llfi_index !1177
  %13 = alloca %"class.__gnu_cxx::__normal_iterator", align 8, !llfi_index !1178
  %14 = alloca %"class.__gnu_cxx::__normal_iterator", align 8, !llfi_index !1179
  %15 = getelementptr inbounds %"class.__gnu_cxx::__normal_iterator", %"class.__gnu_cxx::__normal_iterator"* %5, i32 0, i32 0, !llfi_index !1180
  store i32* %0, i32** %15, align 8, !llfi_index !1181
  %16 = getelementptr inbounds %"class.__gnu_cxx::__normal_iterator", %"class.__gnu_cxx::__normal_iterator"* %6, i32 0, i32 0, !llfi_index !1182
  store i32* %1, i32** %16, align 8, !llfi_index !1183
  %17 = getelementptr inbounds %"class.__gnu_cxx::__normal_iterator", %"class.__gnu_cxx::__normal_iterator"* %7, i32 0, i32 0, !llfi_index !1184
  store i32* %2, i32** %17, align 8, !llfi_index !1185
  br label %18, !llfi_index !1186

18:                                               ; preds = %52, %3
  br label %19, !llfi_index !1187

19:                                               ; preds = %29, %18
  %20 = bitcast %"class.__gnu_cxx::__normal_iterator"* %9 to i8*, !llfi_index !1188
  %21 = bitcast %"class.__gnu_cxx::__normal_iterator"* %5 to i8*, !llfi_index !1189
  call void @llvm.memcpy.p0i8.p0i8.i64(i8* align 8 %20, i8* align 8 %21, i64 8, i1 false), !llfi_index !1190
  %22 = bitcast %"class.__gnu_cxx::__normal_iterator"* %10 to i8*, !llfi_index !1191
  %23 = bitcast %"class.__gnu_cxx::__normal_iterator"* %7 to i8*, !llfi_index !1192
  call void @llvm.memcpy.p0i8.p0i8.i64(i8* align 8 %22, i8* align 8 %23, i64 8, i1 false), !llfi_index !1193
  %24 = getelementptr inbounds %"class.__gnu_cxx::__normal_iterator", %"class.__gnu_cxx::__normal_iterator"* %9, i32 0, i32 0, !llfi_index !1194
  %25 = load i32*, i32** %24, align 8, !llfi_index !1195
  %26 = getelementptr inbounds %"class.__gnu_cxx::__normal_iterator", %"class.__gnu_cxx::__normal_iterator"* %10, i32 0, i32 0, !llfi_index !1196
  %27 = load i32*, i32** %26, align 8, !llfi_index !1197
  %28 = call zeroext i1 @_ZNK9__gnu_cxx5__ops15_Iter_less_iterclINS_17__normal_iteratorIPiSt6vectorIiSaIiEEEES8_EEbT_T0_(%"class.std::ios_base::Init"* nonnull align 1 dereferenceable(1) %8, i32* %25, i32* %27), !llfi_index !1198
  br i1 %28, label %29, label %31, !llfi_index !1199

29:                                               ; preds = %19
  %30 = call nonnull align 8 dereferenceable(8) %"class.__gnu_cxx::__normal_iterator"* @_ZN9__gnu_cxx17__normal_iteratorIPiSt6vectorIiSaIiEEEppEv(%"class.__gnu_cxx::__normal_iterator"* nonnull align 8 dereferenceable(8) %5) #2, !llfi_index !1200
  br label %19, !llvm.loop !1201, !llfi_index !1202

31:                                               ; preds = %19
  %32 = call nonnull align 8 dereferenceable(8) %"class.__gnu_cxx::__normal_iterator"* @_ZN9__gnu_cxx17__normal_iteratorIPiSt6vectorIiSaIiEEEmmEv(%"class.__gnu_cxx::__normal_iterator"* nonnull align 8 dereferenceable(8) %6) #2, !llfi_index !1203
  br label %33, !llfi_index !1204

33:                                               ; preds = %43, %31
  %34 = bitcast %"class.__gnu_cxx::__normal_iterator"* %11 to i8*, !llfi_index !1205
  %35 = bitcast %"class.__gnu_cxx::__normal_iterator"* %7 to i8*, !llfi_index !1206
  call void @llvm.memcpy.p0i8.p0i8.i64(i8* align 8 %34, i8* align 8 %35, i64 8, i1 false), !llfi_index !1207
  %36 = bitcast %"class.__gnu_cxx::__normal_iterator"* %12 to i8*, !llfi_index !1208
  %37 = bitcast %"class.__gnu_cxx::__normal_iterator"* %6 to i8*, !llfi_index !1209
  call void @llvm.memcpy.p0i8.p0i8.i64(i8* align 8 %36, i8* align 8 %37, i64 8, i1 false), !llfi_index !1210
  %38 = getelementptr inbounds %"class.__gnu_cxx::__normal_iterator", %"class.__gnu_cxx::__normal_iterator"* %11, i32 0, i32 0, !llfi_index !1211
  %39 = load i32*, i32** %38, align 8, !llfi_index !1212
  %40 = getelementptr inbounds %"class.__gnu_cxx::__normal_iterator", %"class.__gnu_cxx::__normal_iterator"* %12, i32 0, i32 0, !llfi_index !1213
  %41 = load i32*, i32** %40, align 8, !llfi_index !1214
  %42 = call zeroext i1 @_ZNK9__gnu_cxx5__ops15_Iter_less_iterclINS_17__normal_iteratorIPiSt6vectorIiSaIiEEEES8_EEbT_T0_(%"class.std::ios_base::Init"* nonnull align 1 dereferenceable(1) %8, i32* %39, i32* %41), !llfi_index !1215
  br i1 %42, label %43, label %45, !llfi_index !1216

43:                                               ; preds = %33
  %44 = call nonnull align 8 dereferenceable(8) %"class.__gnu_cxx::__normal_iterator"* @_ZN9__gnu_cxx17__normal_iteratorIPiSt6vectorIiSaIiEEEmmEv(%"class.__gnu_cxx::__normal_iterator"* nonnull align 8 dereferenceable(8) %6) #2, !llfi_index !1217
  br label %33, !llvm.loop !1218, !llfi_index !1219

45:                                               ; preds = %33
  %46 = call zeroext i1 @_ZN9__gnu_cxxltIPiSt6vectorIiSaIiEEEEbRKNS_17__normal_iteratorIT_T0_EESA_(%"class.__gnu_cxx::__normal_iterator"* nonnull align 8 dereferenceable(8) %5, %"class.__gnu_cxx::__normal_iterator"* nonnull align 8 dereferenceable(8) %6) #2, !llfi_index !1220
  br i1 %46, label %52, label %47, !llfi_index !1221

47:                                               ; preds = %45
  %48 = bitcast %"class.__gnu_cxx::__normal_iterator"* %4 to i8*, !llfi_index !1222
  %49 = bitcast %"class.__gnu_cxx::__normal_iterator"* %5 to i8*, !llfi_index !1223
  call void @llvm.memcpy.p0i8.p0i8.i64(i8* align 8 %48, i8* align 8 %49, i64 8, i1 false), !llfi_index !1224
  %50 = getelementptr inbounds %"class.__gnu_cxx::__normal_iterator", %"class.__gnu_cxx::__normal_iterator"* %4, i32 0, i32 0, !llfi_index !1225
  %51 = load i32*, i32** %50, align 8, !llfi_index !1226
  ret i32* %51, !llfi_index !1227

52:                                               ; preds = %45
  %53 = bitcast %"class.__gnu_cxx::__normal_iterator"* %13 to i8*, !llfi_index !1228
  %54 = bitcast %"class.__gnu_cxx::__normal_iterator"* %5 to i8*, !llfi_index !1229
  call void @llvm.memcpy.p0i8.p0i8.i64(i8* align 8 %53, i8* align 8 %54, i64 8, i1 false), !llfi_index !1230
  %55 = bitcast %"class.__gnu_cxx::__normal_iterator"* %14 to i8*, !llfi_index !1231
  %56 = bitcast %"class.__gnu_cxx::__normal_iterator"* %6 to i8*, !llfi_index !1232
  call void @llvm.memcpy.p0i8.p0i8.i64(i8* align 8 %55, i8* align 8 %56, i64 8, i1 false), !llfi_index !1233
  %57 = getelementptr inbounds %"class.__gnu_cxx::__normal_iterator", %"class.__gnu_cxx::__normal_iterator"* %13, i32 0, i32 0, !llfi_index !1234
  %58 = load i32*, i32** %57, align 8, !llfi_index !1235
  %59 = getelementptr inbounds %"class.__gnu_cxx::__normal_iterator", %"class.__gnu_cxx::__normal_iterator"* %14, i32 0, i32 0, !llfi_index !1236
  %60 = load i32*, i32** %59, align 8, !llfi_index !1237
  call void @_ZSt9iter_swapIN9__gnu_cxx17__normal_iteratorIPiSt6vectorIiSaIiEEEES6_EvT_T0_(i32* %58, i32* %60), !llfi_index !1238
  %61 = call nonnull align 8 dereferenceable(8) %"class.__gnu_cxx::__normal_iterator"* @_ZN9__gnu_cxx17__normal_iteratorIPiSt6vectorIiSaIiEEEppEv(%"class.__gnu_cxx::__normal_iterator"* nonnull align 8 dereferenceable(8) %5) #2, !llfi_index !1239
  br label %18, !llvm.loop !1240, !llfi_index !1241
}

; Function Attrs: mustprogress noinline nounwind uwtable
define linkonce_odr dso_local zeroext i1 @_ZN9__gnu_cxxltIPiSt6vectorIiSaIiEEEEbRKNS_17__normal_iteratorIT_T0_EESA_(%"class.__gnu_cxx::__normal_iterator"* nonnull align 8 dereferenceable(8) %0, %"class.__gnu_cxx::__normal_iterator"* nonnull align 8 dereferenceable(8) %1) #6 comdat {
  %3 = alloca %"class.__gnu_cxx::__normal_iterator"*, align 8, !llfi_index !1242
  %4 = alloca %"class.__gnu_cxx::__normal_iterator"*, align 8, !llfi_index !1243
  store %"class.__gnu_cxx::__normal_iterator"* %0, %"class.__gnu_cxx::__normal_iterator"** %3, align 8, !llfi_index !1244
  store %"class.__gnu_cxx::__normal_iterator"* %1, %"class.__gnu_cxx::__normal_iterator"** %4, align 8, !llfi_index !1245
  %5 = load %"class.__gnu_cxx::__normal_iterator"*, %"class.__gnu_cxx::__normal_iterator"** %3, align 8, !llfi_index !1246
  %6 = call nonnull align 8 dereferenceable(8) i32** @_ZNK9__gnu_cxx17__normal_iteratorIPiSt6vectorIiSaIiEEE4baseEv(%"class.__gnu_cxx::__normal_iterator"* nonnull align 8 dereferenceable(8) %5) #2, !llfi_index !1247
  %7 = load i32*, i32** %6, align 8, !llfi_index !1248
  %8 = load %"class.__gnu_cxx::__normal_iterator"*, %"class.__gnu_cxx::__normal_iterator"** %4, align 8, !llfi_index !1249
  %9 = call nonnull align 8 dereferenceable(8) i32** @_ZNK9__gnu_cxx17__normal_iteratorIPiSt6vectorIiSaIiEEE4baseEv(%"class.__gnu_cxx::__normal_iterator"* nonnull align 8 dereferenceable(8) %8) #2, !llfi_index !1250
  %10 = load i32*, i32** %9, align 8, !llfi_index !1251
  %11 = icmp ult i32* %7, %10, !llfi_index !1252
  ret i1 %11, !llfi_index !1253
}

; Function Attrs: mustprogress noinline nounwind uwtable
define linkonce_odr dso_local void @_ZSt9iter_swapIN9__gnu_cxx17__normal_iteratorIPiSt6vectorIiSaIiEEEES6_EvT_T0_(i32* %0, i32* %1) #6 comdat {
  %3 = alloca %"class.__gnu_cxx::__normal_iterator", align 8, !llfi_index !1254
  %4 = alloca %"class.__gnu_cxx::__normal_iterator", align 8, !llfi_index !1255
  %5 = getelementptr inbounds %"class.__gnu_cxx::__normal_iterator", %"class.__gnu_cxx::__normal_iterator"* %3, i32 0, i32 0, !llfi_index !1256
  store i32* %0, i32** %5, align 8, !llfi_index !1257
  %6 = getelementptr inbounds %"class.__gnu_cxx::__normal_iterator", %"class.__gnu_cxx::__normal_iterator"* %4, i32 0, i32 0, !llfi_index !1258
  store i32* %1, i32** %6, align 8, !llfi_index !1259
  %7 = call nonnull align 4 dereferenceable(4) i32* @_ZNK9__gnu_cxx17__normal_iteratorIPiSt6vectorIiSaIiEEEdeEv(%"class.__gnu_cxx::__normal_iterator"* nonnull align 8 dereferenceable(8) %3) #2, !llfi_index !1260
  %8 = call nonnull align 4 dereferenceable(4) i32* @_ZNK9__gnu_cxx17__normal_iteratorIPiSt6vectorIiSaIiEEEdeEv(%"class.__gnu_cxx::__normal_iterator"* nonnull align 8 dereferenceable(8) %4) #2, !llfi_index !1261
  call void @_ZSt4swapIiENSt9enable_ifIXsr6__and_ISt6__not_ISt15__is_tuple_likeIT_EESt21is_move_constructibleIS3_ESt18is_move_assignableIS3_EEE5valueEvE4typeERS3_SC_(i32* nonnull align 4 dereferenceable(4) %7, i32* nonnull align 4 dereferenceable(4) %8) #2, !llfi_index !1262
  ret void, !llfi_index !1263
}

; Function Attrs: mustprogress noinline nounwind uwtable
define linkonce_odr dso_local void @_ZSt4swapIiENSt9enable_ifIXsr6__and_ISt6__not_ISt15__is_tuple_likeIT_EESt21is_move_constructibleIS3_ESt18is_move_assignableIS3_EEE5valueEvE4typeERS3_SC_(i32* nonnull align 4 dereferenceable(4) %0, i32* nonnull align 4 dereferenceable(4) %1) #6 comdat {
  %3 = alloca i32*, align 8, !llfi_index !1264
  %4 = alloca i32*, align 8, !llfi_index !1265
  %5 = alloca i32, align 4, !llfi_index !1266
  store i32* %0, i32** %3, align 8, !llfi_index !1267
  store i32* %1, i32** %4, align 8, !llfi_index !1268
  %6 = load i32*, i32** %3, align 8, !llfi_index !1269
  %7 = call nonnull align 4 dereferenceable(4) i32* @_ZSt4moveIRiEONSt16remove_referenceIT_E4typeEOS2_(i32* nonnull align 4 dereferenceable(4) %6) #2, !llfi_index !1270
  %8 = load i32, i32* %7, align 4, !llfi_index !1271
  store i32 %8, i32* %5, align 4, !llfi_index !1272
  %9 = load i32*, i32** %4, align 8, !llfi_index !1273
  %10 = call nonnull align 4 dereferenceable(4) i32* @_ZSt4moveIRiEONSt16remove_referenceIT_E4typeEOS2_(i32* nonnull align 4 dereferenceable(4) %9) #2, !llfi_index !1274
  %11 = load i32, i32* %10, align 4, !llfi_index !1275
  %12 = load i32*, i32** %3, align 8, !llfi_index !1276
  store i32 %11, i32* %12, align 4, !llfi_index !1277
  %13 = call nonnull align 4 dereferenceable(4) i32* @_ZSt4moveIRiEONSt16remove_referenceIT_E4typeEOS2_(i32* nonnull align 4 dereferenceable(4) %5) #2, !llfi_index !1278
  %14 = load i32, i32* %13, align 4, !llfi_index !1279
  %15 = load i32*, i32** %4, align 8, !llfi_index !1280
  store i32 %14, i32* %15, align 4, !llfi_index !1281
  ret void, !llfi_index !1282
}

; Function Attrs: mustprogress noinline uwtable
define linkonce_odr dso_local void @_ZSt13__heap_selectIN9__gnu_cxx17__normal_iteratorIPiSt6vectorIiSaIiEEEENS0_5__ops15_Iter_less_iterEEvT_S9_S9_T0_(i32* %0, i32* %1, i32* %2) #7 comdat {
  %4 = alloca %"class.__gnu_cxx::__normal_iterator", align 8, !llfi_index !1283
  %5 = alloca %"class.__gnu_cxx::__normal_iterator", align 8, !llfi_index !1284
  %6 = alloca %"class.__gnu_cxx::__normal_iterator", align 8, !llfi_index !1285
  %7 = alloca %"class.std::ios_base::Init", align 1, !llfi_index !1286
  %8 = alloca %"class.__gnu_cxx::__normal_iterator", align 8, !llfi_index !1287
  %9 = alloca %"class.__gnu_cxx::__normal_iterator", align 8, !llfi_index !1288
  %10 = alloca %"class.__gnu_cxx::__normal_iterator", align 8, !llfi_index !1289
  %11 = alloca %"class.__gnu_cxx::__normal_iterator", align 8, !llfi_index !1290
  %12 = alloca %"class.__gnu_cxx::__normal_iterator", align 8, !llfi_index !1291
  %13 = alloca %"class.__gnu_cxx::__normal_iterator", align 8, !llfi_index !1292
  %14 = alloca %"class.__gnu_cxx::__normal_iterator", align 8, !llfi_index !1293
  %15 = alloca %"class.__gnu_cxx::__normal_iterator", align 8, !llfi_index !1294
  %16 = getelementptr inbounds %"class.__gnu_cxx::__normal_iterator", %"class.__gnu_cxx::__normal_iterator"* %4, i32 0, i32 0, !llfi_index !1295
  store i32* %0, i32** %16, align 8, !llfi_index !1296
  %17 = getelementptr inbounds %"class.__gnu_cxx::__normal_iterator", %"class.__gnu_cxx::__normal_iterator"* %5, i32 0, i32 0, !llfi_index !1297
  store i32* %1, i32** %17, align 8, !llfi_index !1298
  %18 = getelementptr inbounds %"class.__gnu_cxx::__normal_iterator", %"class.__gnu_cxx::__normal_iterator"* %6, i32 0, i32 0, !llfi_index !1299
  store i32* %2, i32** %18, align 8, !llfi_index !1300
  %19 = bitcast %"class.__gnu_cxx::__normal_iterator"* %8 to i8*, !llfi_index !1301
  %20 = bitcast %"class.__gnu_cxx::__normal_iterator"* %4 to i8*, !llfi_index !1302
  call void @llvm.memcpy.p0i8.p0i8.i64(i8* align 8 %19, i8* align 8 %20, i64 8, i1 false), !llfi_index !1303
  %21 = bitcast %"class.__gnu_cxx::__normal_iterator"* %9 to i8*, !llfi_index !1304
  %22 = bitcast %"class.__gnu_cxx::__normal_iterator"* %5 to i8*, !llfi_index !1305
  call void @llvm.memcpy.p0i8.p0i8.i64(i8* align 8 %21, i8* align 8 %22, i64 8, i1 false), !llfi_index !1306
  %23 = getelementptr inbounds %"class.__gnu_cxx::__normal_iterator", %"class.__gnu_cxx::__normal_iterator"* %8, i32 0, i32 0, !llfi_index !1307
  %24 = load i32*, i32** %23, align 8, !llfi_index !1308
  %25 = getelementptr inbounds %"class.__gnu_cxx::__normal_iterator", %"class.__gnu_cxx::__normal_iterator"* %9, i32 0, i32 0, !llfi_index !1309
  %26 = load i32*, i32** %25, align 8, !llfi_index !1310
  call void @_ZSt11__make_heapIN9__gnu_cxx17__normal_iteratorIPiSt6vectorIiSaIiEEEENS0_5__ops15_Iter_less_iterEEvT_S9_RT0_(i32* %24, i32* %26, %"class.std::ios_base::Init"* nonnull align 1 dereferenceable(1) %7), !llfi_index !1311
  %27 = bitcast %"class.__gnu_cxx::__normal_iterator"* %10 to i8*, !llfi_index !1312
  %28 = bitcast %"class.__gnu_cxx::__normal_iterator"* %5 to i8*, !llfi_index !1313
  call void @llvm.memcpy.p0i8.p0i8.i64(i8* align 8 %27, i8* align 8 %28, i64 8, i1 false), !llfi_index !1314
  br label %29, !llfi_index !1315

29:                                               ; preds = %55, %3
  %30 = call zeroext i1 @_ZN9__gnu_cxxltIPiSt6vectorIiSaIiEEEEbRKNS_17__normal_iteratorIT_T0_EESA_(%"class.__gnu_cxx::__normal_iterator"* nonnull align 8 dereferenceable(8) %10, %"class.__gnu_cxx::__normal_iterator"* nonnull align 8 dereferenceable(8) %6) #2, !llfi_index !1316
  br i1 %30, label %31, label %57, !llfi_index !1317

31:                                               ; preds = %29
  %32 = bitcast %"class.__gnu_cxx::__normal_iterator"* %11 to i8*, !llfi_index !1318
  %33 = bitcast %"class.__gnu_cxx::__normal_iterator"* %10 to i8*, !llfi_index !1319
  call void @llvm.memcpy.p0i8.p0i8.i64(i8* align 8 %32, i8* align 8 %33, i64 8, i1 false), !llfi_index !1320
  %34 = bitcast %"class.__gnu_cxx::__normal_iterator"* %12 to i8*, !llfi_index !1321
  %35 = bitcast %"class.__gnu_cxx::__normal_iterator"* %4 to i8*, !llfi_index !1322
  call void @llvm.memcpy.p0i8.p0i8.i64(i8* align 8 %34, i8* align 8 %35, i64 8, i1 false), !llfi_index !1323
  %36 = getelementptr inbounds %"class.__gnu_cxx::__normal_iterator", %"class.__gnu_cxx::__normal_iterator"* %11, i32 0, i32 0, !llfi_index !1324
  %37 = load i32*, i32** %36, align 8, !llfi_index !1325
  %38 = getelementptr inbounds %"class.__gnu_cxx::__normal_iterator", %"class.__gnu_cxx::__normal_iterator"* %12, i32 0, i32 0, !llfi_index !1326
  %39 = load i32*, i32** %38, align 8, !llfi_index !1327
  %40 = call zeroext i1 @_ZNK9__gnu_cxx5__ops15_Iter_less_iterclINS_17__normal_iteratorIPiSt6vectorIiSaIiEEEES8_EEbT_T0_(%"class.std::ios_base::Init"* nonnull align 1 dereferenceable(1) %7, i32* %37, i32* %39), !llfi_index !1328
  br i1 %40, label %41, label %54, !llfi_index !1329

41:                                               ; preds = %31
  %42 = bitcast %"class.__gnu_cxx::__normal_iterator"* %13 to i8*, !llfi_index !1330
  %43 = bitcast %"class.__gnu_cxx::__normal_iterator"* %4 to i8*, !llfi_index !1331
  call void @llvm.memcpy.p0i8.p0i8.i64(i8* align 8 %42, i8* align 8 %43, i64 8, i1 false), !llfi_index !1332
  %44 = bitcast %"class.__gnu_cxx::__normal_iterator"* %14 to i8*, !llfi_index !1333
  %45 = bitcast %"class.__gnu_cxx::__normal_iterator"* %5 to i8*, !llfi_index !1334
  call void @llvm.memcpy.p0i8.p0i8.i64(i8* align 8 %44, i8* align 8 %45, i64 8, i1 false), !llfi_index !1335
  %46 = bitcast %"class.__gnu_cxx::__normal_iterator"* %15 to i8*, !llfi_index !1336
  %47 = bitcast %"class.__gnu_cxx::__normal_iterator"* %10 to i8*, !llfi_index !1337
  call void @llvm.memcpy.p0i8.p0i8.i64(i8* align 8 %46, i8* align 8 %47, i64 8, i1 false), !llfi_index !1338
  %48 = getelementptr inbounds %"class.__gnu_cxx::__normal_iterator", %"class.__gnu_cxx::__normal_iterator"* %13, i32 0, i32 0, !llfi_index !1339
  %49 = load i32*, i32** %48, align 8, !llfi_index !1340
  %50 = getelementptr inbounds %"class.__gnu_cxx::__normal_iterator", %"class.__gnu_cxx::__normal_iterator"* %14, i32 0, i32 0, !llfi_index !1341
  %51 = load i32*, i32** %50, align 8, !llfi_index !1342
  %52 = getelementptr inbounds %"class.__gnu_cxx::__normal_iterator", %"class.__gnu_cxx::__normal_iterator"* %15, i32 0, i32 0, !llfi_index !1343
  %53 = load i32*, i32** %52, align 8, !llfi_index !1344
  call void @_ZSt10__pop_heapIN9__gnu_cxx17__normal_iteratorIPiSt6vectorIiSaIiEEEENS0_5__ops15_Iter_less_iterEEvT_S9_S9_RT0_(i32* %49, i32* %51, i32* %53, %"class.std::ios_base::Init"* nonnull align 1 dereferenceable(1) %7), !llfi_index !1345
  br label %54, !llfi_index !1346

54:                                               ; preds = %41, %31
  br label %55, !llfi_index !1347

55:                                               ; preds = %54
  %56 = call nonnull align 8 dereferenceable(8) %"class.__gnu_cxx::__normal_iterator"* @_ZN9__gnu_cxx17__normal_iteratorIPiSt6vectorIiSaIiEEEppEv(%"class.__gnu_cxx::__normal_iterator"* nonnull align 8 dereferenceable(8) %10) #2, !llfi_index !1348
  br label %29, !llvm.loop !1349, !llfi_index !1350

57:                                               ; preds = %29
  ret void, !llfi_index !1351
}

; Function Attrs: mustprogress noinline uwtable
define linkonce_odr dso_local void @_ZSt11__sort_heapIN9__gnu_cxx17__normal_iteratorIPiSt6vectorIiSaIiEEEENS0_5__ops15_Iter_less_iterEEvT_S9_RT0_(i32* %0, i32* %1, %"class.std::ios_base::Init"* nonnull align 1 dereferenceable(1) %2) #7 comdat {
  %4 = alloca %"class.__gnu_cxx::__normal_iterator", align 8, !llfi_index !1352
  %5 = alloca %"class.__gnu_cxx::__normal_iterator", align 8, !llfi_index !1353
  %6 = alloca %"class.std::ios_base::Init"*, align 8, !llfi_index !1354
  %7 = alloca %"class.__gnu_cxx::__normal_iterator", align 8, !llfi_index !1355
  %8 = alloca %"class.__gnu_cxx::__normal_iterator", align 8, !llfi_index !1356
  %9 = alloca %"class.__gnu_cxx::__normal_iterator", align 8, !llfi_index !1357
  %10 = getelementptr inbounds %"class.__gnu_cxx::__normal_iterator", %"class.__gnu_cxx::__normal_iterator"* %4, i32 0, i32 0, !llfi_index !1358
  store i32* %0, i32** %10, align 8, !llfi_index !1359
  %11 = getelementptr inbounds %"class.__gnu_cxx::__normal_iterator", %"class.__gnu_cxx::__normal_iterator"* %5, i32 0, i32 0, !llfi_index !1360
  store i32* %1, i32** %11, align 8, !llfi_index !1361
  store %"class.std::ios_base::Init"* %2, %"class.std::ios_base::Init"** %6, align 8, !llfi_index !1362
  br label %12, !llfi_index !1363

12:                                               ; preds = %15, %3
  %13 = call i64 @_ZN9__gnu_cxxmiIPiSt6vectorIiSaIiEEEENS_17__normal_iteratorIT_T0_E15difference_typeERKS8_SB_(%"class.__gnu_cxx::__normal_iterator"* nonnull align 8 dereferenceable(8) %5, %"class.__gnu_cxx::__normal_iterator"* nonnull align 8 dereferenceable(8) %4) #2, !llfi_index !1364
  %14 = icmp sgt i64 %13, 1, !llfi_index !1365
  br i1 %14, label %15, label %30, !llfi_index !1366

15:                                               ; preds = %12
  %16 = call nonnull align 8 dereferenceable(8) %"class.__gnu_cxx::__normal_iterator"* @_ZN9__gnu_cxx17__normal_iteratorIPiSt6vectorIiSaIiEEEmmEv(%"class.__gnu_cxx::__normal_iterator"* nonnull align 8 dereferenceable(8) %5) #2, !llfi_index !1367
  %17 = bitcast %"class.__gnu_cxx::__normal_iterator"* %7 to i8*, !llfi_index !1368
  %18 = bitcast %"class.__gnu_cxx::__normal_iterator"* %4 to i8*, !llfi_index !1369
  call void @llvm.memcpy.p0i8.p0i8.i64(i8* align 8 %17, i8* align 8 %18, i64 8, i1 false), !llfi_index !1370
  %19 = bitcast %"class.__gnu_cxx::__normal_iterator"* %8 to i8*, !llfi_index !1371
  %20 = bitcast %"class.__gnu_cxx::__normal_iterator"* %5 to i8*, !llfi_index !1372
  call void @llvm.memcpy.p0i8.p0i8.i64(i8* align 8 %19, i8* align 8 %20, i64 8, i1 false), !llfi_index !1373
  %21 = bitcast %"class.__gnu_cxx::__normal_iterator"* %9 to i8*, !llfi_index !1374
  %22 = bitcast %"class.__gnu_cxx::__normal_iterator"* %5 to i8*, !llfi_index !1375
  call void @llvm.memcpy.p0i8.p0i8.i64(i8* align 8 %21, i8* align 8 %22, i64 8, i1 false), !llfi_index !1376
  %23 = load %"class.std::ios_base::Init"*, %"class.std::ios_base::Init"** %6, align 8, !llfi_index !1377
  %24 = getelementptr inbounds %"class.__gnu_cxx::__normal_iterator", %"class.__gnu_cxx::__normal_iterator"* %7, i32 0, i32 0, !llfi_index !1378
  %25 = load i32*, i32** %24, align 8, !llfi_index !1379
  %26 = getelementptr inbounds %"class.__gnu_cxx::__normal_iterator", %"class.__gnu_cxx::__normal_iterator"* %8, i32 0, i32 0, !llfi_index !1380
  %27 = load i32*, i32** %26, align 8, !llfi_index !1381
  %28 = getelementptr inbounds %"class.__gnu_cxx::__normal_iterator", %"class.__gnu_cxx::__normal_iterator"* %9, i32 0, i32 0, !llfi_index !1382
  %29 = load i32*, i32** %28, align 8, !llfi_index !1383
  call void @_ZSt10__pop_heapIN9__gnu_cxx17__normal_iteratorIPiSt6vectorIiSaIiEEEENS0_5__ops15_Iter_less_iterEEvT_S9_S9_RT0_(i32* %25, i32* %27, i32* %29, %"class.std::ios_base::Init"* nonnull align 1 dereferenceable(1) %23), !llfi_index !1384
  br label %12, !llvm.loop !1385, !llfi_index !1386

30:                                               ; preds = %12
  ret void, !llfi_index !1387
}

; Function Attrs: mustprogress noinline uwtable
define linkonce_odr dso_local void @_ZSt10__pop_heapIN9__gnu_cxx17__normal_iteratorIPiSt6vectorIiSaIiEEEENS0_5__ops15_Iter_less_iterEEvT_S9_S9_RT0_(i32* %0, i32* %1, i32* %2, %"class.std::ios_base::Init"* nonnull align 1 dereferenceable(1) %3) #7 comdat {
  %5 = alloca %"class.__gnu_cxx::__normal_iterator", align 8, !llfi_index !1388
  %6 = alloca %"class.__gnu_cxx::__normal_iterator", align 8, !llfi_index !1389
  %7 = alloca %"class.__gnu_cxx::__normal_iterator", align 8, !llfi_index !1390
  %8 = alloca %"class.std::ios_base::Init"*, align 8, !llfi_index !1391
  %9 = alloca i32, align 4, !llfi_index !1392
  %10 = alloca %"class.__gnu_cxx::__normal_iterator", align 8, !llfi_index !1393
  %11 = alloca %"class.std::ios_base::Init", align 1, !llfi_index !1394
  %12 = getelementptr inbounds %"class.__gnu_cxx::__normal_iterator", %"class.__gnu_cxx::__normal_iterator"* %5, i32 0, i32 0, !llfi_index !1395
  store i32* %0, i32** %12, align 8, !llfi_index !1396
  %13 = getelementptr inbounds %"class.__gnu_cxx::__normal_iterator", %"class.__gnu_cxx::__normal_iterator"* %6, i32 0, i32 0, !llfi_index !1397
  store i32* %1, i32** %13, align 8, !llfi_index !1398
  %14 = getelementptr inbounds %"class.__gnu_cxx::__normal_iterator", %"class.__gnu_cxx::__normal_iterator"* %7, i32 0, i32 0, !llfi_index !1399
  store i32* %2, i32** %14, align 8, !llfi_index !1400
  store %"class.std::ios_base::Init"* %3, %"class.std::ios_base::Init"** %8, align 8, !llfi_index !1401
  %15 = call nonnull align 4 dereferenceable(4) i32* @_ZNK9__gnu_cxx17__normal_iteratorIPiSt6vectorIiSaIiEEEdeEv(%"class.__gnu_cxx::__normal_iterator"* nonnull align 8 dereferenceable(8) %7) #2, !llfi_index !1402
  %16 = call nonnull align 4 dereferenceable(4) i32* @_ZSt4moveIRiEONSt16remove_referenceIT_E4typeEOS2_(i32* nonnull align 4 dereferenceable(4) %15) #2, !llfi_index !1403
  %17 = load i32, i32* %16, align 4, !llfi_index !1404
  store i32 %17, i32* %9, align 4, !llfi_index !1405
  %18 = call nonnull align 4 dereferenceable(4) i32* @_ZNK9__gnu_cxx17__normal_iteratorIPiSt6vectorIiSaIiEEEdeEv(%"class.__gnu_cxx::__normal_iterator"* nonnull align 8 dereferenceable(8) %5) #2, !llfi_index !1406
  %19 = call nonnull align 4 dereferenceable(4) i32* @_ZSt4moveIRiEONSt16remove_referenceIT_E4typeEOS2_(i32* nonnull align 4 dereferenceable(4) %18) #2, !llfi_index !1407
  %20 = load i32, i32* %19, align 4, !llfi_index !1408
  %21 = call nonnull align 4 dereferenceable(4) i32* @_ZNK9__gnu_cxx17__normal_iteratorIPiSt6vectorIiSaIiEEEdeEv(%"class.__gnu_cxx::__normal_iterator"* nonnull align 8 dereferenceable(8) %7) #2, !llfi_index !1409
  store i32 %20, i32* %21, align 4, !llfi_index !1410
  %22 = bitcast %"class.__gnu_cxx::__normal_iterator"* %10 to i8*, !llfi_index !1411
  %23 = bitcast %"class.__gnu_cxx::__normal_iterator"* %5 to i8*, !llfi_index !1412
  call void @llvm.memcpy.p0i8.p0i8.i64(i8* align 8 %22, i8* align 8 %23, i64 8, i1 false), !llfi_index !1413
  %24 = call i64 @_ZN9__gnu_cxxmiIPiSt6vectorIiSaIiEEEENS_17__normal_iteratorIT_T0_E15difference_typeERKS8_SB_(%"class.__gnu_cxx::__normal_iterator"* nonnull align 8 dereferenceable(8) %6, %"class.__gnu_cxx::__normal_iterator"* nonnull align 8 dereferenceable(8) %5) #2, !llfi_index !1414
  %25 = call nonnull align 4 dereferenceable(4) i32* @_ZSt4moveIRiEONSt16remove_referenceIT_E4typeEOS2_(i32* nonnull align 4 dereferenceable(4) %9) #2, !llfi_index !1415
  %26 = load i32, i32* %25, align 4, !llfi_index !1416
  %27 = load %"class.std::ios_base::Init"*, %"class.std::ios_base::Init"** %8, align 8, !llfi_index !1417
  %28 = getelementptr inbounds %"class.__gnu_cxx::__normal_iterator", %"class.__gnu_cxx::__normal_iterator"* %10, i32 0, i32 0, !llfi_index !1418
  %29 = load i32*, i32** %28, align 8, !llfi_index !1419
  call void @_ZSt13__adjust_heapIN9__gnu_cxx17__normal_iteratorIPiSt6vectorIiSaIiEEEEliNS0_5__ops15_Iter_less_iterEEvT_T0_SA_T1_T2_(i32* %29, i64 0, i64 %24, i32 %26), !llfi_index !1420
  ret void, !llfi_index !1421
}

; Function Attrs: mustprogress noinline uwtable
define linkonce_odr dso_local void @_ZSt13__adjust_heapIN9__gnu_cxx17__normal_iteratorIPiSt6vectorIiSaIiEEEEliNS0_5__ops15_Iter_less_iterEEvT_T0_SA_T1_T2_(i32* %0, i64 %1, i64 %2, i32 %3) #7 comdat {
  %5 = alloca %"class.__gnu_cxx::__normal_iterator", align 8, !llfi_index !1422
  %6 = alloca %"class.std::ios_base::Init", align 1, !llfi_index !1423
  %7 = alloca i64, align 8, !llfi_index !1424
  %8 = alloca i64, align 8, !llfi_index !1425
  %9 = alloca i32, align 4, !llfi_index !1426
  %10 = alloca i64, align 8, !llfi_index !1427
  %11 = alloca i64, align 8, !llfi_index !1428
  %12 = alloca %"class.__gnu_cxx::__normal_iterator", align 8, !llfi_index !1429
  %13 = alloca %"class.__gnu_cxx::__normal_iterator", align 8, !llfi_index !1430
  %14 = alloca %"class.__gnu_cxx::__normal_iterator", align 8, !llfi_index !1431
  %15 = alloca %"class.__gnu_cxx::__normal_iterator", align 8, !llfi_index !1432
  %16 = alloca %"class.__gnu_cxx::__normal_iterator", align 8, !llfi_index !1433
  %17 = alloca %"class.__gnu_cxx::__normal_iterator", align 8, !llfi_index !1434
  %18 = alloca %"class.std::ios_base::Init", align 1, !llfi_index !1435
  %19 = alloca %"class.std::ios_base::Init", align 1, !llfi_index !1436
  %20 = alloca %"class.__gnu_cxx::__normal_iterator", align 8, !llfi_index !1437
  %21 = getelementptr inbounds %"class.__gnu_cxx::__normal_iterator", %"class.__gnu_cxx::__normal_iterator"* %5, i32 0, i32 0, !llfi_index !1438
  store i32* %0, i32** %21, align 8, !llfi_index !1439
  store i64 %1, i64* %7, align 8, !llfi_index !1440
  store i64 %2, i64* %8, align 8, !llfi_index !1441
  store i32 %3, i32* %9, align 4, !llfi_index !1442
  %22 = load i64, i64* %7, align 8, !llfi_index !1443
  store i64 %22, i64* %10, align 8, !llfi_index !1444
  %23 = load i64, i64* %7, align 8, !llfi_index !1445
  store i64 %23, i64* %11, align 8, !llfi_index !1446
  br label %24, !llfi_index !1447

24:                                               ; preds = %49, %4
  %25 = load i64, i64* %11, align 8, !llfi_index !1448
  %26 = load i64, i64* %8, align 8, !llfi_index !1449
  %27 = sub nsw i64 %26, 1, !llfi_index !1450
  %28 = sdiv i64 %27, 2, !llfi_index !1451
  %29 = icmp slt i64 %25, %28, !llfi_index !1452
  br i1 %29, label %30, label %61, !llfi_index !1453

30:                                               ; preds = %24
  %31 = load i64, i64* %11, align 8, !llfi_index !1454
  %32 = add nsw i64 %31, 1, !llfi_index !1455
  %33 = mul nsw i64 2, %32, !llfi_index !1456
  store i64 %33, i64* %11, align 8, !llfi_index !1457
  %34 = load i64, i64* %11, align 8, !llfi_index !1458
  %35 = call i32* @_ZNK9__gnu_cxx17__normal_iteratorIPiSt6vectorIiSaIiEEEplEl(%"class.__gnu_cxx::__normal_iterator"* nonnull align 8 dereferenceable(8) %5, i64 %34) #2, !llfi_index !1459
  %36 = getelementptr inbounds %"class.__gnu_cxx::__normal_iterator", %"class.__gnu_cxx::__normal_iterator"* %12, i32 0, i32 0, !llfi_index !1460
  store i32* %35, i32** %36, align 8, !llfi_index !1461
  %37 = load i64, i64* %11, align 8, !llfi_index !1462
  %38 = sub nsw i64 %37, 1, !llfi_index !1463
  %39 = call i32* @_ZNK9__gnu_cxx17__normal_iteratorIPiSt6vectorIiSaIiEEEplEl(%"class.__gnu_cxx::__normal_iterator"* nonnull align 8 dereferenceable(8) %5, i64 %38) #2, !llfi_index !1464
  %40 = getelementptr inbounds %"class.__gnu_cxx::__normal_iterator", %"class.__gnu_cxx::__normal_iterator"* %13, i32 0, i32 0, !llfi_index !1465
  store i32* %39, i32** %40, align 8, !llfi_index !1466
  %41 = getelementptr inbounds %"class.__gnu_cxx::__normal_iterator", %"class.__gnu_cxx::__normal_iterator"* %12, i32 0, i32 0, !llfi_index !1467
  %42 = load i32*, i32** %41, align 8, !llfi_index !1468
  %43 = getelementptr inbounds %"class.__gnu_cxx::__normal_iterator", %"class.__gnu_cxx::__normal_iterator"* %13, i32 0, i32 0, !llfi_index !1469
  %44 = load i32*, i32** %43, align 8, !llfi_index !1470
  %45 = call zeroext i1 @_ZNK9__gnu_cxx5__ops15_Iter_less_iterclINS_17__normal_iteratorIPiSt6vectorIiSaIiEEEES8_EEbT_T0_(%"class.std::ios_base::Init"* nonnull align 1 dereferenceable(1) %6, i32* %42, i32* %44), !llfi_index !1471
  br i1 %45, label %46, label %49, !llfi_index !1472

46:                                               ; preds = %30
  %47 = load i64, i64* %11, align 8, !llfi_index !1473
  %48 = add nsw i64 %47, -1, !llfi_index !1474
  store i64 %48, i64* %11, align 8, !llfi_index !1475
  br label %49, !llfi_index !1476

49:                                               ; preds = %46, %30
  %50 = load i64, i64* %11, align 8, !llfi_index !1477
  %51 = call i32* @_ZNK9__gnu_cxx17__normal_iteratorIPiSt6vectorIiSaIiEEEplEl(%"class.__gnu_cxx::__normal_iterator"* nonnull align 8 dereferenceable(8) %5, i64 %50) #2, !llfi_index !1478
  %52 = getelementptr inbounds %"class.__gnu_cxx::__normal_iterator", %"class.__gnu_cxx::__normal_iterator"* %14, i32 0, i32 0, !llfi_index !1479
  store i32* %51, i32** %52, align 8, !llfi_index !1480
  %53 = call nonnull align 4 dereferenceable(4) i32* @_ZNK9__gnu_cxx17__normal_iteratorIPiSt6vectorIiSaIiEEEdeEv(%"class.__gnu_cxx::__normal_iterator"* nonnull align 8 dereferenceable(8) %14) #2, !llfi_index !1481
  %54 = call nonnull align 4 dereferenceable(4) i32* @_ZSt4moveIRiEONSt16remove_referenceIT_E4typeEOS2_(i32* nonnull align 4 dereferenceable(4) %53) #2, !llfi_index !1482
  %55 = load i32, i32* %54, align 4, !llfi_index !1483
  %56 = load i64, i64* %7, align 8, !llfi_index !1484
  %57 = call i32* @_ZNK9__gnu_cxx17__normal_iteratorIPiSt6vectorIiSaIiEEEplEl(%"class.__gnu_cxx::__normal_iterator"* nonnull align 8 dereferenceable(8) %5, i64 %56) #2, !llfi_index !1485
  %58 = getelementptr inbounds %"class.__gnu_cxx::__normal_iterator", %"class.__gnu_cxx::__normal_iterator"* %15, i32 0, i32 0, !llfi_index !1486
  store i32* %57, i32** %58, align 8, !llfi_index !1487
  %59 = call nonnull align 4 dereferenceable(4) i32* @_ZNK9__gnu_cxx17__normal_iteratorIPiSt6vectorIiSaIiEEEdeEv(%"class.__gnu_cxx::__normal_iterator"* nonnull align 8 dereferenceable(8) %15) #2, !llfi_index !1488
  store i32 %55, i32* %59, align 4, !llfi_index !1489
  %60 = load i64, i64* %11, align 8, !llfi_index !1490
  store i64 %60, i64* %7, align 8, !llfi_index !1491
  br label %24, !llvm.loop !1492, !llfi_index !1493

61:                                               ; preds = %24
  %62 = load i64, i64* %8, align 8, !llfi_index !1494
  %63 = and i64 %62, 1, !llfi_index !1495
  %64 = icmp eq i64 %63, 0, !llfi_index !1496
  br i1 %64, label %65, label %88, !llfi_index !1497

65:                                               ; preds = %61
  %66 = load i64, i64* %11, align 8, !llfi_index !1498
  %67 = load i64, i64* %8, align 8, !llfi_index !1499
  %68 = sub nsw i64 %67, 2, !llfi_index !1500
  %69 = sdiv i64 %68, 2, !llfi_index !1501
  %70 = icmp eq i64 %66, %69, !llfi_index !1502
  br i1 %70, label %71, label %88, !llfi_index !1503

71:                                               ; preds = %65
  %72 = load i64, i64* %11, align 8, !llfi_index !1504
  %73 = add nsw i64 %72, 1, !llfi_index !1505
  %74 = mul nsw i64 2, %73, !llfi_index !1506
  store i64 %74, i64* %11, align 8, !llfi_index !1507
  %75 = load i64, i64* %11, align 8, !llfi_index !1508
  %76 = sub nsw i64 %75, 1, !llfi_index !1509
  %77 = call i32* @_ZNK9__gnu_cxx17__normal_iteratorIPiSt6vectorIiSaIiEEEplEl(%"class.__gnu_cxx::__normal_iterator"* nonnull align 8 dereferenceable(8) %5, i64 %76) #2, !llfi_index !1510
  %78 = getelementptr inbounds %"class.__gnu_cxx::__normal_iterator", %"class.__gnu_cxx::__normal_iterator"* %16, i32 0, i32 0, !llfi_index !1511
  store i32* %77, i32** %78, align 8, !llfi_index !1512
  %79 = call nonnull align 4 dereferenceable(4) i32* @_ZNK9__gnu_cxx17__normal_iteratorIPiSt6vectorIiSaIiEEEdeEv(%"class.__gnu_cxx::__normal_iterator"* nonnull align 8 dereferenceable(8) %16) #2, !llfi_index !1513
  %80 = call nonnull align 4 dereferenceable(4) i32* @_ZSt4moveIRiEONSt16remove_referenceIT_E4typeEOS2_(i32* nonnull align 4 dereferenceable(4) %79) #2, !llfi_index !1514
  %81 = load i32, i32* %80, align 4, !llfi_index !1515
  %82 = load i64, i64* %7, align 8, !llfi_index !1516
  %83 = call i32* @_ZNK9__gnu_cxx17__normal_iteratorIPiSt6vectorIiSaIiEEEplEl(%"class.__gnu_cxx::__normal_iterator"* nonnull align 8 dereferenceable(8) %5, i64 %82) #2, !llfi_index !1517
  %84 = getelementptr inbounds %"class.__gnu_cxx::__normal_iterator", %"class.__gnu_cxx::__normal_iterator"* %17, i32 0, i32 0, !llfi_index !1518
  store i32* %83, i32** %84, align 8, !llfi_index !1519
  %85 = call nonnull align 4 dereferenceable(4) i32* @_ZNK9__gnu_cxx17__normal_iteratorIPiSt6vectorIiSaIiEEEdeEv(%"class.__gnu_cxx::__normal_iterator"* nonnull align 8 dereferenceable(8) %17) #2, !llfi_index !1520
  store i32 %81, i32* %85, align 4, !llfi_index !1521
  %86 = load i64, i64* %11, align 8, !llfi_index !1522
  %87 = sub nsw i64 %86, 1, !llfi_index !1523
  store i64 %87, i64* %7, align 8, !llfi_index !1524
  br label %88, !llfi_index !1525

88:                                               ; preds = %71, %65, %61
  %89 = call nonnull align 1 dereferenceable(1) %"class.std::ios_base::Init"* @_ZSt4moveIRN9__gnu_cxx5__ops15_Iter_less_iterEEONSt16remove_referenceIT_E4typeEOS5_(%"class.std::ios_base::Init"* nonnull align 1 dereferenceable(1) %6) #2, !llfi_index !1526
  call void @_ZN9__gnu_cxx5__ops14_Iter_less_valC2ENS0_15_Iter_less_iterE(%"class.std::ios_base::Init"* nonnull align 1 dereferenceable(1) %18), !llfi_index !1527
  %90 = bitcast %"class.__gnu_cxx::__normal_iterator"* %20 to i8*, !llfi_index !1528
  %91 = bitcast %"class.__gnu_cxx::__normal_iterator"* %5 to i8*, !llfi_index !1529
  call void @llvm.memcpy.p0i8.p0i8.i64(i8* align 8 %90, i8* align 8 %91, i64 8, i1 false), !llfi_index !1530
  %92 = load i64, i64* %7, align 8, !llfi_index !1531
  %93 = load i64, i64* %10, align 8, !llfi_index !1532
  %94 = call nonnull align 4 dereferenceable(4) i32* @_ZSt4moveIRiEONSt16remove_referenceIT_E4typeEOS2_(i32* nonnull align 4 dereferenceable(4) %9) #2, !llfi_index !1533
  %95 = load i32, i32* %94, align 4, !llfi_index !1534
  %96 = getelementptr inbounds %"class.__gnu_cxx::__normal_iterator", %"class.__gnu_cxx::__normal_iterator"* %20, i32 0, i32 0, !llfi_index !1535
  %97 = load i32*, i32** %96, align 8, !llfi_index !1536
  call void @_ZSt11__push_heapIN9__gnu_cxx17__normal_iteratorIPiSt6vectorIiSaIiEEEEliNS0_5__ops14_Iter_less_valEEvT_T0_SA_T1_RT2_(i32* %97, i64 %92, i64 %93, i32 %95, %"class.std::ios_base::Init"* nonnull align 1 dereferenceable(1) %18), !llfi_index !1537
  ret void, !llfi_index !1538
}

; Function Attrs: mustprogress noinline nounwind uwtable
define linkonce_odr dso_local nonnull align 1 dereferenceable(1) %"class.std::ios_base::Init"* @_ZSt4moveIRN9__gnu_cxx5__ops15_Iter_less_iterEEONSt16remove_referenceIT_E4typeEOS5_(%"class.std::ios_base::Init"* nonnull align 1 dereferenceable(1) %0) #6 comdat {
  %2 = alloca %"class.std::ios_base::Init"*, align 8, !llfi_index !1539
  store %"class.std::ios_base::Init"* %0, %"class.std::ios_base::Init"** %2, align 8, !llfi_index !1540
  %3 = load %"class.std::ios_base::Init"*, %"class.std::ios_base::Init"** %2, align 8, !llfi_index !1541
  ret %"class.std::ios_base::Init"* %3, !llfi_index !1542
}

; Function Attrs: noinline nounwind uwtable
define linkonce_odr dso_local void @_ZN9__gnu_cxx5__ops14_Iter_less_valC2ENS0_15_Iter_less_iterE(%"class.std::ios_base::Init"* nonnull align 1 dereferenceable(1) %0) unnamed_addr #5 comdat align 2 {
  %2 = alloca %"class.std::ios_base::Init", align 1, !llfi_index !1543
  %3 = alloca %"class.std::ios_base::Init"*, align 8, !llfi_index !1544
  store %"class.std::ios_base::Init"* %0, %"class.std::ios_base::Init"** %3, align 8, !llfi_index !1545
  %4 = load %"class.std::ios_base::Init"*, %"class.std::ios_base::Init"** %3, align 8, !llfi_index !1546
  ret void, !llfi_index !1547
}

; Function Attrs: mustprogress noinline uwtable
define linkonce_odr dso_local void @_ZSt11__push_heapIN9__gnu_cxx17__normal_iteratorIPiSt6vectorIiSaIiEEEEliNS0_5__ops14_Iter_less_valEEvT_T0_SA_T1_RT2_(i32* %0, i64 %1, i64 %2, i32 %3, %"class.std::ios_base::Init"* nonnull align 1 dereferenceable(1) %4) #7 comdat {
  %6 = alloca %"class.__gnu_cxx::__normal_iterator", align 8, !llfi_index !1548
  %7 = alloca i64, align 8, !llfi_index !1549
  %8 = alloca i64, align 8, !llfi_index !1550
  %9 = alloca i32, align 4, !llfi_index !1551
  %10 = alloca %"class.std::ios_base::Init"*, align 8, !llfi_index !1552
  %11 = alloca i64, align 8, !llfi_index !1553
  %12 = alloca %"class.__gnu_cxx::__normal_iterator", align 8, !llfi_index !1554
  %13 = alloca %"class.__gnu_cxx::__normal_iterator", align 8, !llfi_index !1555
  %14 = alloca %"class.__gnu_cxx::__normal_iterator", align 8, !llfi_index !1556
  %15 = alloca %"class.__gnu_cxx::__normal_iterator", align 8, !llfi_index !1557
  %16 = getelementptr inbounds %"class.__gnu_cxx::__normal_iterator", %"class.__gnu_cxx::__normal_iterator"* %6, i32 0, i32 0, !llfi_index !1558
  store i32* %0, i32** %16, align 8, !llfi_index !1559
  store i64 %1, i64* %7, align 8, !llfi_index !1560
  store i64 %2, i64* %8, align 8, !llfi_index !1561
  store i32 %3, i32* %9, align 4, !llfi_index !1562
  store %"class.std::ios_base::Init"* %4, %"class.std::ios_base::Init"** %10, align 8, !llfi_index !1563
  %17 = load i64, i64* %7, align 8, !llfi_index !1564
  %18 = sub nsw i64 %17, 1, !llfi_index !1565
  %19 = sdiv i64 %18, 2, !llfi_index !1566
  store i64 %19, i64* %11, align 8, !llfi_index !1567
  br label %20, !llfi_index !1568

20:                                               ; preds = %34, %5
  %21 = load i64, i64* %7, align 8, !llfi_index !1569
  %22 = load i64, i64* %8, align 8, !llfi_index !1570
  %23 = icmp sgt i64 %21, %22, !llfi_index !1571
  br i1 %23, label %24, label %32, !llfi_index !1572

24:                                               ; preds = %20
  %25 = load %"class.std::ios_base::Init"*, %"class.std::ios_base::Init"** %10, align 8, !llfi_index !1573
  %26 = load i64, i64* %11, align 8, !llfi_index !1574
  %27 = call i32* @_ZNK9__gnu_cxx17__normal_iteratorIPiSt6vectorIiSaIiEEEplEl(%"class.__gnu_cxx::__normal_iterator"* nonnull align 8 dereferenceable(8) %6, i64 %26) #2, !llfi_index !1575
  %28 = getelementptr inbounds %"class.__gnu_cxx::__normal_iterator", %"class.__gnu_cxx::__normal_iterator"* %12, i32 0, i32 0, !llfi_index !1576
  store i32* %27, i32** %28, align 8, !llfi_index !1577
  %29 = getelementptr inbounds %"class.__gnu_cxx::__normal_iterator", %"class.__gnu_cxx::__normal_iterator"* %12, i32 0, i32 0, !llfi_index !1578
  %30 = load i32*, i32** %29, align 8, !llfi_index !1579
  %31 = call zeroext i1 @_ZNK9__gnu_cxx5__ops14_Iter_less_valclINS_17__normal_iteratorIPiSt6vectorIiSaIiEEEEiEEbT_RT0_(%"class.std::ios_base::Init"* nonnull align 1 dereferenceable(1) %25, i32* %30, i32* nonnull align 4 dereferenceable(4) %9), !llfi_index !1580
  br label %32, !llfi_index !1581

32:                                               ; preds = %24, %20
  %33 = phi i1 [ false, %20 ], [ %31, %24 ], !llfi_index !1582
  br i1 %33, label %34, label %49, !llfi_index !1583

34:                                               ; preds = %32
  %35 = load i64, i64* %11, align 8, !llfi_index !1584
  %36 = call i32* @_ZNK9__gnu_cxx17__normal_iteratorIPiSt6vectorIiSaIiEEEplEl(%"class.__gnu_cxx::__normal_iterator"* nonnull align 8 dereferenceable(8) %6, i64 %35) #2, !llfi_index !1585
  %37 = getelementptr inbounds %"class.__gnu_cxx::__normal_iterator", %"class.__gnu_cxx::__normal_iterator"* %13, i32 0, i32 0, !llfi_index !1586
  store i32* %36, i32** %37, align 8, !llfi_index !1587
  %38 = call nonnull align 4 dereferenceable(4) i32* @_ZNK9__gnu_cxx17__normal_iteratorIPiSt6vectorIiSaIiEEEdeEv(%"class.__gnu_cxx::__normal_iterator"* nonnull align 8 dereferenceable(8) %13) #2, !llfi_index !1588
  %39 = call nonnull align 4 dereferenceable(4) i32* @_ZSt4moveIRiEONSt16remove_referenceIT_E4typeEOS2_(i32* nonnull align 4 dereferenceable(4) %38) #2, !llfi_index !1589
  %40 = load i32, i32* %39, align 4, !llfi_index !1590
  %41 = load i64, i64* %7, align 8, !llfi_index !1591
  %42 = call i32* @_ZNK9__gnu_cxx17__normal_iteratorIPiSt6vectorIiSaIiEEEplEl(%"class.__gnu_cxx::__normal_iterator"* nonnull align 8 dereferenceable(8) %6, i64 %41) #2, !llfi_index !1592
  %43 = getelementptr inbounds %"class.__gnu_cxx::__normal_iterator", %"class.__gnu_cxx::__normal_iterator"* %14, i32 0, i32 0, !llfi_index !1593
  store i32* %42, i32** %43, align 8, !llfi_index !1594
  %44 = call nonnull align 4 dereferenceable(4) i32* @_ZNK9__gnu_cxx17__normal_iteratorIPiSt6vectorIiSaIiEEEdeEv(%"class.__gnu_cxx::__normal_iterator"* nonnull align 8 dereferenceable(8) %14) #2, !llfi_index !1595
  store i32 %40, i32* %44, align 4, !llfi_index !1596
  %45 = load i64, i64* %11, align 8, !llfi_index !1597
  store i64 %45, i64* %7, align 8, !llfi_index !1598
  %46 = load i64, i64* %7, align 8, !llfi_index !1599
  %47 = sub nsw i64 %46, 1, !llfi_index !1600
  %48 = sdiv i64 %47, 2, !llfi_index !1601
  store i64 %48, i64* %11, align 8, !llfi_index !1602
  br label %20, !llvm.loop !1603, !llfi_index !1604

49:                                               ; preds = %32
  %50 = call nonnull align 4 dereferenceable(4) i32* @_ZSt4moveIRiEONSt16remove_referenceIT_E4typeEOS2_(i32* nonnull align 4 dereferenceable(4) %9) #2, !llfi_index !1605
  %51 = load i32, i32* %50, align 4, !llfi_index !1606
  %52 = load i64, i64* %7, align 8, !llfi_index !1607
  %53 = call i32* @_ZNK9__gnu_cxx17__normal_iteratorIPiSt6vectorIiSaIiEEEplEl(%"class.__gnu_cxx::__normal_iterator"* nonnull align 8 dereferenceable(8) %6, i64 %52) #2, !llfi_index !1608
  %54 = getelementptr inbounds %"class.__gnu_cxx::__normal_iterator", %"class.__gnu_cxx::__normal_iterator"* %15, i32 0, i32 0, !llfi_index !1609
  store i32* %53, i32** %54, align 8, !llfi_index !1610
  %55 = call nonnull align 4 dereferenceable(4) i32* @_ZNK9__gnu_cxx17__normal_iteratorIPiSt6vectorIiSaIiEEEdeEv(%"class.__gnu_cxx::__normal_iterator"* nonnull align 8 dereferenceable(8) %15) #2, !llfi_index !1611
  store i32 %51, i32* %55, align 4, !llfi_index !1612
  ret void, !llfi_index !1613
}

; Function Attrs: mustprogress noinline nounwind uwtable
define linkonce_odr dso_local zeroext i1 @_ZNK9__gnu_cxx5__ops14_Iter_less_valclINS_17__normal_iteratorIPiSt6vectorIiSaIiEEEEiEEbT_RT0_(%"class.std::ios_base::Init"* nonnull align 1 dereferenceable(1) %0, i32* %1, i32* nonnull align 4 dereferenceable(4) %2) #6 comdat align 2 {
  %4 = alloca %"class.__gnu_cxx::__normal_iterator", align 8, !llfi_index !1614
  %5 = alloca %"class.std::ios_base::Init"*, align 8, !llfi_index !1615
  %6 = alloca i32*, align 8, !llfi_index !1616
  %7 = getelementptr inbounds %"class.__gnu_cxx::__normal_iterator", %"class.__gnu_cxx::__normal_iterator"* %4, i32 0, i32 0, !llfi_index !1617
  store i32* %1, i32** %7, align 8, !llfi_index !1618
  store %"class.std::ios_base::Init"* %0, %"class.std::ios_base::Init"** %5, align 8, !llfi_index !1619
  store i32* %2, i32** %6, align 8, !llfi_index !1620
  %8 = load %"class.std::ios_base::Init"*, %"class.std::ios_base::Init"** %5, align 8, !llfi_index !1621
  %9 = call nonnull align 4 dereferenceable(4) i32* @_ZNK9__gnu_cxx17__normal_iteratorIPiSt6vectorIiSaIiEEEdeEv(%"class.__gnu_cxx::__normal_iterator"* nonnull align 8 dereferenceable(8) %4) #2, !llfi_index !1622
  %10 = load i32, i32* %9, align 4, !llfi_index !1623
  %11 = load i32*, i32** %6, align 8, !llfi_index !1624
  %12 = load i32, i32* %11, align 4, !llfi_index !1625
  %13 = icmp slt i32 %10, %12, !llfi_index !1626
  ret i1 %13, !llfi_index !1627
}

; Function Attrs: mustprogress noinline uwtable
define linkonce_odr dso_local void @_ZSt11__make_heapIN9__gnu_cxx17__normal_iteratorIPiSt6vectorIiSaIiEEEENS0_5__ops15_Iter_less_iterEEvT_S9_RT0_(i32* %0, i32* %1, %"class.std::ios_base::Init"* nonnull align 1 dereferenceable(1) %2) #7 comdat {
  %4 = alloca %"class.__gnu_cxx::__normal_iterator", align 8, !llfi_index !1628
  %5 = alloca %"class.__gnu_cxx::__normal_iterator", align 8, !llfi_index !1629
  %6 = alloca %"class.std::ios_base::Init"*, align 8, !llfi_index !1630
  %7 = alloca i64, align 8, !llfi_index !1631
  %8 = alloca i64, align 8, !llfi_index !1632
  %9 = alloca i32, align 4, !llfi_index !1633
  %10 = alloca %"class.__gnu_cxx::__normal_iterator", align 8, !llfi_index !1634
  %11 = alloca %"class.__gnu_cxx::__normal_iterator", align 8, !llfi_index !1635
  %12 = alloca %"class.std::ios_base::Init", align 1, !llfi_index !1636
  %13 = getelementptr inbounds %"class.__gnu_cxx::__normal_iterator", %"class.__gnu_cxx::__normal_iterator"* %4, i32 0, i32 0, !llfi_index !1637
  store i32* %0, i32** %13, align 8, !llfi_index !1638
  %14 = getelementptr inbounds %"class.__gnu_cxx::__normal_iterator", %"class.__gnu_cxx::__normal_iterator"* %5, i32 0, i32 0, !llfi_index !1639
  store i32* %1, i32** %14, align 8, !llfi_index !1640
  store %"class.std::ios_base::Init"* %2, %"class.std::ios_base::Init"** %6, align 8, !llfi_index !1641
  %15 = call i64 @_ZN9__gnu_cxxmiIPiSt6vectorIiSaIiEEEENS_17__normal_iteratorIT_T0_E15difference_typeERKS8_SB_(%"class.__gnu_cxx::__normal_iterator"* nonnull align 8 dereferenceable(8) %5, %"class.__gnu_cxx::__normal_iterator"* nonnull align 8 dereferenceable(8) %4) #2, !llfi_index !1642
  %16 = icmp slt i64 %15, 2, !llfi_index !1643
  br i1 %16, label %17, label %18, !llfi_index !1644

17:                                               ; preds = %3
  br label %45, !llfi_index !1645

18:                                               ; preds = %3
  %19 = call i64 @_ZN9__gnu_cxxmiIPiSt6vectorIiSaIiEEEENS_17__normal_iteratorIT_T0_E15difference_typeERKS8_SB_(%"class.__gnu_cxx::__normal_iterator"* nonnull align 8 dereferenceable(8) %5, %"class.__gnu_cxx::__normal_iterator"* nonnull align 8 dereferenceable(8) %4) #2, !llfi_index !1646
  store i64 %19, i64* %7, align 8, !llfi_index !1647
  %20 = load i64, i64* %7, align 8, !llfi_index !1648
  %21 = sub nsw i64 %20, 2, !llfi_index !1649
  %22 = sdiv i64 %21, 2, !llfi_index !1650
  store i64 %22, i64* %8, align 8, !llfi_index !1651
  br label %23, !llfi_index !1652

23:                                               ; preds = %42, %18
  %24 = load i64, i64* %8, align 8, !llfi_index !1653
  %25 = call i32* @_ZNK9__gnu_cxx17__normal_iteratorIPiSt6vectorIiSaIiEEEplEl(%"class.__gnu_cxx::__normal_iterator"* nonnull align 8 dereferenceable(8) %4, i64 %24) #2, !llfi_index !1654
  %26 = getelementptr inbounds %"class.__gnu_cxx::__normal_iterator", %"class.__gnu_cxx::__normal_iterator"* %10, i32 0, i32 0, !llfi_index !1655
  store i32* %25, i32** %26, align 8, !llfi_index !1656
  %27 = call nonnull align 4 dereferenceable(4) i32* @_ZNK9__gnu_cxx17__normal_iteratorIPiSt6vectorIiSaIiEEEdeEv(%"class.__gnu_cxx::__normal_iterator"* nonnull align 8 dereferenceable(8) %10) #2, !llfi_index !1657
  %28 = call nonnull align 4 dereferenceable(4) i32* @_ZSt4moveIRiEONSt16remove_referenceIT_E4typeEOS2_(i32* nonnull align 4 dereferenceable(4) %27) #2, !llfi_index !1658
  %29 = load i32, i32* %28, align 4, !llfi_index !1659
  store i32 %29, i32* %9, align 4, !llfi_index !1660
  %30 = bitcast %"class.__gnu_cxx::__normal_iterator"* %11 to i8*, !llfi_index !1661
  %31 = bitcast %"class.__gnu_cxx::__normal_iterator"* %4 to i8*, !llfi_index !1662
  call void @llvm.memcpy.p0i8.p0i8.i64(i8* align 8 %30, i8* align 8 %31, i64 8, i1 false), !llfi_index !1663
  %32 = load i64, i64* %8, align 8, !llfi_index !1664
  %33 = load i64, i64* %7, align 8, !llfi_index !1665
  %34 = call nonnull align 4 dereferenceable(4) i32* @_ZSt4moveIRiEONSt16remove_referenceIT_E4typeEOS2_(i32* nonnull align 4 dereferenceable(4) %9) #2, !llfi_index !1666
  %35 = load i32, i32* %34, align 4, !llfi_index !1667
  %36 = load %"class.std::ios_base::Init"*, %"class.std::ios_base::Init"** %6, align 8, !llfi_index !1668
  %37 = getelementptr inbounds %"class.__gnu_cxx::__normal_iterator", %"class.__gnu_cxx::__normal_iterator"* %11, i32 0, i32 0, !llfi_index !1669
  %38 = load i32*, i32** %37, align 8, !llfi_index !1670
  call void @_ZSt13__adjust_heapIN9__gnu_cxx17__normal_iteratorIPiSt6vectorIiSaIiEEEEliNS0_5__ops15_Iter_less_iterEEvT_T0_SA_T1_T2_(i32* %38, i64 %32, i64 %33, i32 %35), !llfi_index !1671
  %39 = load i64, i64* %8, align 8, !llfi_index !1672
  %40 = icmp eq i64 %39, 0, !llfi_index !1673
  br i1 %40, label %41, label %42, !llfi_index !1674

41:                                               ; preds = %23
  br label %45, !llfi_index !1675

42:                                               ; preds = %23
  %43 = load i64, i64* %8, align 8, !llfi_index !1676
  %44 = add nsw i64 %43, -1, !llfi_index !1677
  store i64 %44, i64* %8, align 8, !llfi_index !1678
  br label %23, !llvm.loop !1679, !llfi_index !1680

45:                                               ; preds = %41, %17
  ret void, !llfi_index !1681
}

; Function Attrs: nofree nosync nounwind readnone speculatable willreturn
declare i64 @llvm.ctlz.i64(i64, i1 immarg) #9

; Function Attrs: mustprogress noinline nounwind uwtable
define linkonce_odr dso_local nonnull align 1 dereferenceable(1) %"class.std::ios_base::Init"* @_ZNSt12_Vector_baseIiSaIiEE19_M_get_Tp_allocatorEv(%"struct.std::_Vector_base"* nonnull align 8 dereferenceable(24) %0) #6 comdat align 2 {
  %2 = alloca %"struct.std::_Vector_base"*, align 8, !llfi_index !1682
  store %"struct.std::_Vector_base"* %0, %"struct.std::_Vector_base"** %2, align 8, !llfi_index !1683
  %3 = load %"struct.std::_Vector_base"*, %"struct.std::_Vector_base"** %2, align 8, !llfi_index !1684
  %4 = getelementptr inbounds %"struct.std::_Vector_base", %"struct.std::_Vector_base"* %3, i32 0, i32 0, !llfi_index !1685
  %5 = bitcast %"struct.std::_Vector_base<int, std::allocator<int>>::_Vector_impl"* %4 to %"class.std::ios_base::Init"*, !llfi_index !1686
  ret %"class.std::ios_base::Init"* %5, !llfi_index !1687
}

; Function Attrs: mustprogress noinline uwtable
define linkonce_odr dso_local void @_ZSt8_DestroyIPiiEvT_S1_RSaIT0_E(i32* %0, i32* %1, %"class.std::ios_base::Init"* nonnull align 1 dereferenceable(1) %2) #7 comdat {
  %4 = alloca i32*, align 8, !llfi_index !1688
  %5 = alloca i32*, align 8, !llfi_index !1689
  %6 = alloca %"class.std::ios_base::Init"*, align 8, !llfi_index !1690
  store i32* %0, i32** %4, align 8, !llfi_index !1691
  store i32* %1, i32** %5, align 8, !llfi_index !1692
  store %"class.std::ios_base::Init"* %2, %"class.std::ios_base::Init"** %6, align 8, !llfi_index !1693
  %7 = load i32*, i32** %4, align 8, !llfi_index !1694
  %8 = load i32*, i32** %5, align 8, !llfi_index !1695
  call void @_ZSt8_DestroyIPiEvT_S1_(i32* %7, i32* %8), !llfi_index !1696
  ret void, !llfi_index !1697
}

; Function Attrs: noinline nounwind uwtable
define linkonce_odr dso_local void @_ZNSt12_Vector_baseIiSaIiEED2Ev(%"struct.std::_Vector_base"* nonnull align 8 dereferenceable(24) %0) unnamed_addr #5 comdat align 2 personality i8* bitcast (i32 (...)* @__gxx_personality_v0 to i8*) {
  %2 = alloca %"struct.std::_Vector_base"*, align 8, !llfi_index !1698
  %3 = alloca i8*, align 8, !llfi_index !1699
  %4 = alloca i32, align 4, !llfi_index !1700
  store %"struct.std::_Vector_base"* %0, %"struct.std::_Vector_base"** %2, align 8, !llfi_index !1701
  %5 = load %"struct.std::_Vector_base"*, %"struct.std::_Vector_base"** %2, align 8, !llfi_index !1702
  %6 = getelementptr inbounds %"struct.std::_Vector_base", %"struct.std::_Vector_base"* %5, i32 0, i32 0, !llfi_index !1703
  %7 = bitcast %"struct.std::_Vector_base<int, std::allocator<int>>::_Vector_impl"* %6 to %"struct.std::_Vector_base<int, std::allocator<int>>::_Vector_impl_data"*, !llfi_index !1704
  %8 = getelementptr inbounds %"struct.std::_Vector_base<int, std::allocator<int>>::_Vector_impl_data", %"struct.std::_Vector_base<int, std::allocator<int>>::_Vector_impl_data"* %7, i32 0, i32 0, !llfi_index !1705
  %9 = load i32*, i32** %8, align 8, !llfi_index !1706
  %10 = getelementptr inbounds %"struct.std::_Vector_base", %"struct.std::_Vector_base"* %5, i32 0, i32 0, !llfi_index !1707
  %11 = bitcast %"struct.std::_Vector_base<int, std::allocator<int>>::_Vector_impl"* %10 to %"struct.std::_Vector_base<int, std::allocator<int>>::_Vector_impl_data"*, !llfi_index !1708
  %12 = getelementptr inbounds %"struct.std::_Vector_base<int, std::allocator<int>>::_Vector_impl_data", %"struct.std::_Vector_base<int, std::allocator<int>>::_Vector_impl_data"* %11, i32 0, i32 2, !llfi_index !1709
  %13 = load i32*, i32** %12, align 8, !llfi_index !1710
  %14 = getelementptr inbounds %"struct.std::_Vector_base", %"struct.std::_Vector_base"* %5, i32 0, i32 0, !llfi_index !1711
  %15 = bitcast %"struct.std::_Vector_base<int, std::allocator<int>>::_Vector_impl"* %14 to %"struct.std::_Vector_base<int, std::allocator<int>>::_Vector_impl_data"*, !llfi_index !1712
  %16 = getelementptr inbounds %"struct.std::_Vector_base<int, std::allocator<int>>::_Vector_impl_data", %"struct.std::_Vector_base<int, std::allocator<int>>::_Vector_impl_data"* %15, i32 0, i32 0, !llfi_index !1713
  %17 = load i32*, i32** %16, align 8, !llfi_index !1714
  %18 = ptrtoint i32* %13 to i64, !llfi_index !1715
  %19 = ptrtoint i32* %17 to i64, !llfi_index !1716
  %20 = sub i64 %18, %19, !llfi_index !1717
  %21 = sdiv exact i64 %20, 4, !llfi_index !1718
  invoke void @_ZNSt12_Vector_baseIiSaIiEE13_M_deallocateEPim(%"struct.std::_Vector_base"* nonnull align 8 dereferenceable(24) %5, i32* %9, i64 %21)
          to label %22 unwind label %24, !llfi_index !1719

22:                                               ; preds = %1
  %23 = getelementptr inbounds %"struct.std::_Vector_base", %"struct.std::_Vector_base"* %5, i32 0, i32 0, !llfi_index !1720
  call void @_ZNSt12_Vector_baseIiSaIiEE12_Vector_implD2Ev(%"struct.std::_Vector_base<int, std::allocator<int>>::_Vector_impl"* nonnull align 8 dereferenceable(24) %23) #2, !llfi_index !1721
  ret void, !llfi_index !1722

24:                                               ; preds = %1
  %25 = landingpad { i8*, i32 }
          catch i8* null, !llfi_index !1723
  %26 = extractvalue { i8*, i32 } %25, 0, !llfi_index !1724
  store i8* %26, i8** %3, align 8, !llfi_index !1725
  %27 = extractvalue { i8*, i32 } %25, 1, !llfi_index !1726
  store i32 %27, i32* %4, align 4, !llfi_index !1727
  %28 = getelementptr inbounds %"struct.std::_Vector_base", %"struct.std::_Vector_base"* %5, i32 0, i32 0, !llfi_index !1728
  call void @_ZNSt12_Vector_baseIiSaIiEE12_Vector_implD2Ev(%"struct.std::_Vector_base<int, std::allocator<int>>::_Vector_impl"* nonnull align 8 dereferenceable(24) %28) #2, !llfi_index !1729
  br label %29, !llfi_index !1730

29:                                               ; preds = %24
  %30 = load i8*, i8** %3, align 8, !llfi_index !1731
  call void @__clang_call_terminate(i8* %30) #14, !llfi_index !1732
  unreachable, !llfi_index !1733
}

; Function Attrs: noinline noreturn nounwind
define linkonce_odr hidden void @__clang_call_terminate(i8* %0) #10 comdat {
  %2 = call i8* @__cxa_begin_catch(i8* %0) #2, !llfi_index !1734
  call void @_ZSt9terminatev() #14, !llfi_index !1735
  unreachable, !llfi_index !1736
}

declare dso_local i8* @__cxa_begin_catch(i8*)

declare dso_local void @_ZSt9terminatev()

; Function Attrs: mustprogress noinline uwtable
define linkonce_odr dso_local void @_ZNSt12_Vector_baseIiSaIiEE13_M_deallocateEPim(%"struct.std::_Vector_base"* nonnull align 8 dereferenceable(24) %0, i32* %1, i64 %2) #7 comdat align 2 {
  %4 = alloca %"struct.std::_Vector_base"*, align 8, !llfi_index !1737
  %5 = alloca i32*, align 8, !llfi_index !1738
  %6 = alloca i64, align 8, !llfi_index !1739
  store %"struct.std::_Vector_base"* %0, %"struct.std::_Vector_base"** %4, align 8, !llfi_index !1740
  store i32* %1, i32** %5, align 8, !llfi_index !1741
  store i64 %2, i64* %6, align 8, !llfi_index !1742
  %7 = load %"struct.std::_Vector_base"*, %"struct.std::_Vector_base"** %4, align 8, !llfi_index !1743
  %8 = load i32*, i32** %5, align 8, !llfi_index !1744
  %9 = icmp ne i32* %8, null, !llfi_index !1745
  br i1 %9, label %10, label %15, !llfi_index !1746

10:                                               ; preds = %3
  %11 = getelementptr inbounds %"struct.std::_Vector_base", %"struct.std::_Vector_base"* %7, i32 0, i32 0, !llfi_index !1747
  %12 = bitcast %"struct.std::_Vector_base<int, std::allocator<int>>::_Vector_impl"* %11 to %"class.std::ios_base::Init"*, !llfi_index !1748
  %13 = load i32*, i32** %5, align 8, !llfi_index !1749
  %14 = load i64, i64* %6, align 8, !llfi_index !1750
  call void @_ZNSt16allocator_traitsISaIiEE10deallocateERS0_Pim(%"class.std::ios_base::Init"* nonnull align 1 dereferenceable(1) %12, i32* %13, i64 %14), !llfi_index !1751
  br label %15, !llfi_index !1752

15:                                               ; preds = %10, %3
  ret void, !llfi_index !1753
}

; Function Attrs: noinline nounwind uwtable
define linkonce_odr dso_local void @_ZNSt12_Vector_baseIiSaIiEE12_Vector_implD2Ev(%"struct.std::_Vector_base<int, std::allocator<int>>::_Vector_impl"* nonnull align 8 dereferenceable(24) %0) unnamed_addr #5 comdat align 2 {
  %2 = alloca %"struct.std::_Vector_base<int, std::allocator<int>>::_Vector_impl"*, align 8, !llfi_index !1754
  store %"struct.std::_Vector_base<int, std::allocator<int>>::_Vector_impl"* %0, %"struct.std::_Vector_base<int, std::allocator<int>>::_Vector_impl"** %2, align 8, !llfi_index !1755
  %3 = load %"struct.std::_Vector_base<int, std::allocator<int>>::_Vector_impl"*, %"struct.std::_Vector_base<int, std::allocator<int>>::_Vector_impl"** %2, align 8, !llfi_index !1756
  %4 = bitcast %"struct.std::_Vector_base<int, std::allocator<int>>::_Vector_impl"* %3 to %"class.std::ios_base::Init"*, !llfi_index !1757
  call void @_ZNSaIiED2Ev(%"class.std::ios_base::Init"* nonnull align 1 dereferenceable(1) %4) #2, !llfi_index !1758
  ret void, !llfi_index !1759
}

; Function Attrs: mustprogress noinline uwtable
define linkonce_odr dso_local void @_ZNSt16allocator_traitsISaIiEE10deallocateERS0_Pim(%"class.std::ios_base::Init"* nonnull align 1 dereferenceable(1) %0, i32* %1, i64 %2) #7 comdat align 2 {
  %4 = alloca %"class.std::ios_base::Init"*, align 8, !llfi_index !1760
  %5 = alloca i32*, align 8, !llfi_index !1761
  %6 = alloca i64, align 8, !llfi_index !1762
  store %"class.std::ios_base::Init"* %0, %"class.std::ios_base::Init"** %4, align 8, !llfi_index !1763
  store i32* %1, i32** %5, align 8, !llfi_index !1764
  store i64 %2, i64* %6, align 8, !llfi_index !1765
  %7 = load %"class.std::ios_base::Init"*, %"class.std::ios_base::Init"** %4, align 8, !llfi_index !1766
  %8 = bitcast %"class.std::ios_base::Init"* %7 to %"class.std::ios_base::Init"*, !llfi_index !1767
  %9 = load i32*, i32** %5, align 8, !llfi_index !1768
  %10 = load i64, i64* %6, align 8, !llfi_index !1769
  call void @_ZN9__gnu_cxx13new_allocatorIiE10deallocateEPim(%"class.std::ios_base::Init"* nonnull align 1 dereferenceable(1) %8, i32* %9, i64 %10), !llfi_index !1770
  ret void, !llfi_index !1771
}

; Function Attrs: mustprogress noinline nounwind uwtable
define linkonce_odr dso_local void @_ZN9__gnu_cxx13new_allocatorIiE10deallocateEPim(%"class.std::ios_base::Init"* nonnull align 1 dereferenceable(1) %0, i32* %1, i64 %2) #6 comdat align 2 {
  %4 = alloca %"class.std::ios_base::Init"*, align 8, !llfi_index !1772
  %5 = alloca i32*, align 8, !llfi_index !1773
  %6 = alloca i64, align 8, !llfi_index !1774
  store %"class.std::ios_base::Init"* %0, %"class.std::ios_base::Init"** %4, align 8, !llfi_index !1775
  store i32* %1, i32** %5, align 8, !llfi_index !1776
  store i64 %2, i64* %6, align 8, !llfi_index !1777
  %7 = load %"class.std::ios_base::Init"*, %"class.std::ios_base::Init"** %4, align 8, !llfi_index !1778
  %8 = load i32*, i32** %5, align 8, !llfi_index !1779
  %9 = bitcast i32* %8 to i8*, !llfi_index !1780
  call void @_ZdlPv(i8* %9) #2, !llfi_index !1781
  ret void, !llfi_index !1782
}

; Function Attrs: nobuiltin nounwind
declare dso_local void @_ZdlPv(i8*) #11

; Function Attrs: mustprogress noinline uwtable
define linkonce_odr dso_local void @_ZSt8_DestroyIPiEvT_S1_(i32* %0, i32* %1) #7 comdat {
  %3 = alloca i32*, align 8, !llfi_index !1783
  %4 = alloca i32*, align 8, !llfi_index !1784
  store i32* %0, i32** %3, align 8, !llfi_index !1785
  store i32* %1, i32** %4, align 8, !llfi_index !1786
  %5 = load i32*, i32** %3, align 8, !llfi_index !1787
  %6 = load i32*, i32** %4, align 8, !llfi_index !1788
  call void @_ZNSt12_Destroy_auxILb1EE9__destroyIPiEEvT_S3_(i32* %5, i32* %6), !llfi_index !1789
  ret void, !llfi_index !1790
}

; Function Attrs: mustprogress noinline nounwind uwtable
define linkonce_odr dso_local void @_ZNSt12_Destroy_auxILb1EE9__destroyIPiEEvT_S3_(i32* %0, i32* %1) #6 comdat align 2 {
  %3 = alloca i32*, align 8, !llfi_index !1791
  %4 = alloca i32*, align 8, !llfi_index !1792
  store i32* %0, i32** %3, align 8, !llfi_index !1793
  store i32* %1, i32** %4, align 8, !llfi_index !1794
  ret void, !llfi_index !1795
}

; Function Attrs: noinline nounwind uwtable
define linkonce_odr dso_local void @_ZN9__gnu_cxx13new_allocatorIiED2Ev(%"class.std::ios_base::Init"* nonnull align 1 dereferenceable(1) %0) unnamed_addr #5 comdat align 2 {
  %2 = alloca %"class.std::ios_base::Init"*, align 8, !llfi_index !1796
  store %"class.std::ios_base::Init"* %0, %"class.std::ios_base::Init"** %2, align 8, !llfi_index !1797
  %3 = load %"class.std::ios_base::Init"*, %"class.std::ios_base::Init"** %2, align 8, !llfi_index !1798
  ret void, !llfi_index !1799
}

; Function Attrs: mustprogress noinline uwtable
define linkonce_odr dso_local i64 @_ZNSt6vectorIiSaIiEE17_S_check_init_lenEmRKS0_(i64 %0, %"class.std::ios_base::Init"* nonnull align 1 dereferenceable(1) %1) #7 comdat align 2 {
  %3 = alloca i64, align 8, !llfi_index !1800
  %4 = alloca %"class.std::ios_base::Init"*, align 8, !llfi_index !1801
  %5 = alloca %"class.std::ios_base::Init", align 1, !llfi_index !1802
  store i64 %0, i64* %3, align 8, !llfi_index !1803
  store %"class.std::ios_base::Init"* %1, %"class.std::ios_base::Init"** %4, align 8, !llfi_index !1804
  %6 = load i64, i64* %3, align 8, !llfi_index !1805
  %7 = load %"class.std::ios_base::Init"*, %"class.std::ios_base::Init"** %4, align 8, !llfi_index !1806
  call void @_ZNSaIiEC2ERKS_(%"class.std::ios_base::Init"* nonnull align 1 dereferenceable(1) %5, %"class.std::ios_base::Init"* nonnull align 1 dereferenceable(1) %7) #2, !llfi_index !1807
  %8 = call i64 @_ZNSt6vectorIiSaIiEE11_S_max_sizeERKS0_(%"class.std::ios_base::Init"* nonnull align 1 dereferenceable(1) %5) #2, !llfi_index !1808
  %9 = icmp ugt i64 %6, %8, !llfi_index !1809
  call void @_ZNSaIiED2Ev(%"class.std::ios_base::Init"* nonnull align 1 dereferenceable(1) %5) #2, !llfi_index !1810
  br i1 %9, label %10, label %11, !llfi_index !1811

10:                                               ; preds = %2
  call void @_ZSt20__throw_length_errorPKc(i8* getelementptr inbounds ([49 x i8], [49 x i8]* @.str.4, i64 0, i64 0)) #15, !llfi_index !1812
  unreachable, !llfi_index !1813

11:                                               ; preds = %2
  %12 = load i64, i64* %3, align 8, !llfi_index !1814
  ret i64 %12, !llfi_index !1815
}

; Function Attrs: noinline uwtable
define linkonce_odr dso_local void @_ZNSt12_Vector_baseIiSaIiEEC2EmRKS0_(%"struct.std::_Vector_base"* nonnull align 8 dereferenceable(24) %0, i64 %1, %"class.std::ios_base::Init"* nonnull align 1 dereferenceable(1) %2) unnamed_addr #0 comdat align 2 personality i8* bitcast (i32 (...)* @__gxx_personality_v0 to i8*) {
  %4 = alloca %"struct.std::_Vector_base"*, align 8, !llfi_index !1816
  %5 = alloca i64, align 8, !llfi_index !1817
  %6 = alloca %"class.std::ios_base::Init"*, align 8, !llfi_index !1818
  %7 = alloca i8*, align 8, !llfi_index !1819
  %8 = alloca i32, align 4, !llfi_index !1820
  store %"struct.std::_Vector_base"* %0, %"struct.std::_Vector_base"** %4, align 8, !llfi_index !1821
  store i64 %1, i64* %5, align 8, !llfi_index !1822
  store %"class.std::ios_base::Init"* %2, %"class.std::ios_base::Init"** %6, align 8, !llfi_index !1823
  %9 = load %"struct.std::_Vector_base"*, %"struct.std::_Vector_base"** %4, align 8, !llfi_index !1824
  %10 = getelementptr inbounds %"struct.std::_Vector_base", %"struct.std::_Vector_base"* %9, i32 0, i32 0, !llfi_index !1825
  %11 = load %"class.std::ios_base::Init"*, %"class.std::ios_base::Init"** %6, align 8, !llfi_index !1826
  call void @_ZNSt12_Vector_baseIiSaIiEE12_Vector_implC2ERKS0_(%"struct.std::_Vector_base<int, std::allocator<int>>::_Vector_impl"* nonnull align 8 dereferenceable(24) %10, %"class.std::ios_base::Init"* nonnull align 1 dereferenceable(1) %11) #2, !llfi_index !1827
  %12 = load i64, i64* %5, align 8, !llfi_index !1828
  invoke void @_ZNSt12_Vector_baseIiSaIiEE17_M_create_storageEm(%"struct.std::_Vector_base"* nonnull align 8 dereferenceable(24) %9, i64 %12)
          to label %13 unwind label %14, !llfi_index !1829

13:                                               ; preds = %3
  ret void, !llfi_index !1830

14:                                               ; preds = %3
  %15 = landingpad { i8*, i32 }
          cleanup, !llfi_index !1831
  %16 = extractvalue { i8*, i32 } %15, 0, !llfi_index !1832
  store i8* %16, i8** %7, align 8, !llfi_index !1833
  %17 = extractvalue { i8*, i32 } %15, 1, !llfi_index !1834
  store i32 %17, i32* %8, align 4, !llfi_index !1835
  call void @_ZNSt12_Vector_baseIiSaIiEE12_Vector_implD2Ev(%"struct.std::_Vector_base<int, std::allocator<int>>::_Vector_impl"* nonnull align 8 dereferenceable(24) %10) #2, !llfi_index !1836
  br label %18, !llfi_index !1837

18:                                               ; preds = %14
  %19 = load i8*, i8** %7, align 8, !llfi_index !1838
  %20 = load i32, i32* %8, align 4, !llfi_index !1839
  %21 = insertvalue { i8*, i32 } undef, i8* %19, 0, !llfi_index !1840
  %22 = insertvalue { i8*, i32 } %21, i32 %20, 1, !llfi_index !1841
  resume { i8*, i32 } %22, !llfi_index !1842
}

; Function Attrs: mustprogress noinline uwtable
define linkonce_odr dso_local void @_ZNSt6vectorIiSaIiEE21_M_default_initializeEm(%"class.std::vector"* nonnull align 8 dereferenceable(24) %0, i64 %1) #7 comdat align 2 {
  %3 = alloca %"class.std::vector"*, align 8, !llfi_index !1843
  %4 = alloca i64, align 8, !llfi_index !1844
  store %"class.std::vector"* %0, %"class.std::vector"** %3, align 8, !llfi_index !1845
  store i64 %1, i64* %4, align 8, !llfi_index !1846
  %5 = load %"class.std::vector"*, %"class.std::vector"** %3, align 8, !llfi_index !1847
  %6 = bitcast %"class.std::vector"* %5 to %"struct.std::_Vector_base"*, !llfi_index !1848
  %7 = getelementptr inbounds %"struct.std::_Vector_base", %"struct.std::_Vector_base"* %6, i32 0, i32 0, !llfi_index !1849
  %8 = bitcast %"struct.std::_Vector_base<int, std::allocator<int>>::_Vector_impl"* %7 to %"struct.std::_Vector_base<int, std::allocator<int>>::_Vector_impl_data"*, !llfi_index !1850
  %9 = getelementptr inbounds %"struct.std::_Vector_base<int, std::allocator<int>>::_Vector_impl_data", %"struct.std::_Vector_base<int, std::allocator<int>>::_Vector_impl_data"* %8, i32 0, i32 0, !llfi_index !1851
  %10 = load i32*, i32** %9, align 8, !llfi_index !1852
  %11 = load i64, i64* %4, align 8, !llfi_index !1853
  %12 = bitcast %"class.std::vector"* %5 to %"struct.std::_Vector_base"*, !llfi_index !1854
  %13 = call nonnull align 1 dereferenceable(1) %"class.std::ios_base::Init"* @_ZNSt12_Vector_baseIiSaIiEE19_M_get_Tp_allocatorEv(%"struct.std::_Vector_base"* nonnull align 8 dereferenceable(24) %12) #2, !llfi_index !1855
  %14 = call i32* @_ZSt27__uninitialized_default_n_aIPimiET_S1_T0_RSaIT1_E(i32* %10, i64 %11, %"class.std::ios_base::Init"* nonnull align 1 dereferenceable(1) %13), !llfi_index !1856
  %15 = bitcast %"class.std::vector"* %5 to %"struct.std::_Vector_base"*, !llfi_index !1857
  %16 = getelementptr inbounds %"struct.std::_Vector_base", %"struct.std::_Vector_base"* %15, i32 0, i32 0, !llfi_index !1858
  %17 = bitcast %"struct.std::_Vector_base<int, std::allocator<int>>::_Vector_impl"* %16 to %"struct.std::_Vector_base<int, std::allocator<int>>::_Vector_impl_data"*, !llfi_index !1859
  %18 = getelementptr inbounds %"struct.std::_Vector_base<int, std::allocator<int>>::_Vector_impl_data", %"struct.std::_Vector_base<int, std::allocator<int>>::_Vector_impl_data"* %17, i32 0, i32 1, !llfi_index !1860
  store i32* %14, i32** %18, align 8, !llfi_index !1861
  ret void, !llfi_index !1862
}

; Function Attrs: mustprogress noinline uwtable
define linkonce_odr dso_local i32* @_ZSt27__uninitialized_default_n_aIPimiET_S1_T0_RSaIT1_E(i32* %0, i64 %1, %"class.std::ios_base::Init"* nonnull align 1 dereferenceable(1) %2) #7 comdat {
  %4 = alloca i32*, align 8, !llfi_index !1863
  %5 = alloca i64, align 8, !llfi_index !1864
  %6 = alloca %"class.std::ios_base::Init"*, align 8, !llfi_index !1865
  store i32* %0, i32** %4, align 8, !llfi_index !1866
  store i64 %1, i64* %5, align 8, !llfi_index !1867
  store %"class.std::ios_base::Init"* %2, %"class.std::ios_base::Init"** %6, align 8, !llfi_index !1868
  %7 = load i32*, i32** %4, align 8, !llfi_index !1869
  %8 = load i64, i64* %5, align 8, !llfi_index !1870
  %9 = call i32* @_ZSt25__uninitialized_default_nIPimET_S1_T0_(i32* %7, i64 %8), !llfi_index !1871
  ret i32* %9, !llfi_index !1872
}

; Function Attrs: mustprogress noinline uwtable
define linkonce_odr dso_local i32* @_ZSt25__uninitialized_default_nIPimET_S1_T0_(i32* %0, i64 %1) #7 comdat {
  %3 = alloca i32*, align 8, !llfi_index !1873
  %4 = alloca i64, align 8, !llfi_index !1874
  %5 = alloca i8, align 1, !llfi_index !1875
  store i32* %0, i32** %3, align 8, !llfi_index !1876
  store i64 %1, i64* %4, align 8, !llfi_index !1877
  store i8 1, i8* %5, align 1, !llfi_index !1878
  %6 = load i32*, i32** %3, align 8, !llfi_index !1879
  %7 = load i64, i64* %4, align 8, !llfi_index !1880
  %8 = call i32* @_ZNSt27__uninitialized_default_n_1ILb1EE18__uninit_default_nIPimEET_S3_T0_(i32* %6, i64 %7), !llfi_index !1881
  ret i32* %8, !llfi_index !1882
}

; Function Attrs: mustprogress noinline uwtable
define linkonce_odr dso_local i32* @_ZNSt27__uninitialized_default_n_1ILb1EE18__uninit_default_nIPimEET_S3_T0_(i32* %0, i64 %1) #7 comdat align 2 {
  %3 = alloca i32*, align 8, !llfi_index !1883
  %4 = alloca i64, align 8, !llfi_index !1884
  %5 = alloca i32, align 4, !llfi_index !1885
  store i32* %0, i32** %3, align 8, !llfi_index !1886
  store i64 %1, i64* %4, align 8, !llfi_index !1887
  %6 = load i32*, i32** %3, align 8, !llfi_index !1888
  %7 = load i64, i64* %4, align 8, !llfi_index !1889
  store i32 0, i32* %5, align 4, !llfi_index !1890
  %8 = call i32* @_ZSt6fill_nIPimiET_S1_T0_RKT1_(i32* %6, i64 %7, i32* nonnull align 4 dereferenceable(4) %5), !llfi_index !1891
  ret i32* %8, !llfi_index !1892
}

; Function Attrs: mustprogress noinline uwtable
define linkonce_odr dso_local i32* @_ZSt6fill_nIPimiET_S1_T0_RKT1_(i32* %0, i64 %1, i32* nonnull align 4 dereferenceable(4) %2) #7 comdat {
  %4 = alloca i32*, align 8, !llfi_index !1893
  %5 = alloca i64, align 8, !llfi_index !1894
  %6 = alloca i32*, align 8, !llfi_index !1895
  store i32* %0, i32** %4, align 8, !llfi_index !1896
  store i64 %1, i64* %5, align 8, !llfi_index !1897
  store i32* %2, i32** %6, align 8, !llfi_index !1898
  %7 = load i32*, i32** %4, align 8, !llfi_index !1899
  %8 = call i32* @_ZSt12__niter_baseIPiET_S1_(i32* %7) #2, !llfi_index !1900
  %9 = load i64, i64* %5, align 8, !llfi_index !1901
  %10 = load i32*, i32** %6, align 8, !llfi_index !1902
  %11 = call i32* @_ZSt10__fill_n_aIPimiEN9__gnu_cxx11__enable_ifIXsr11__is_scalarIT1_EE7__valueET_E6__typeES4_T0_RKS3_(i32* %8, i64 %9, i32* nonnull align 4 dereferenceable(4) %10), !llfi_index !1903
  %12 = call i32* @_ZSt12__niter_wrapIPiET_RKS1_S1_(i32** nonnull align 8 dereferenceable(8) %4, i32* %11), !llfi_index !1904
  ret i32* %12, !llfi_index !1905
}

; Function Attrs: mustprogress noinline nounwind uwtable
define linkonce_odr dso_local i32* @_ZSt12__niter_baseIPiET_S1_(i32* %0) #6 comdat {
  %2 = alloca i32*, align 8, !llfi_index !1906
  store i32* %0, i32** %2, align 8, !llfi_index !1907
  %3 = load i32*, i32** %2, align 8, !llfi_index !1908
  ret i32* %3, !llfi_index !1909
}

; Function Attrs: mustprogress noinline nounwind uwtable
define linkonce_odr dso_local i32* @_ZSt10__fill_n_aIPimiEN9__gnu_cxx11__enable_ifIXsr11__is_scalarIT1_EE7__valueET_E6__typeES4_T0_RKS3_(i32* %0, i64 %1, i32* nonnull align 4 dereferenceable(4) %2) #6 comdat {
  %4 = alloca i32*, align 8, !llfi_index !1910
  %5 = alloca i64, align 8, !llfi_index !1911
  %6 = alloca i32*, align 8, !llfi_index !1912
  %7 = alloca i32, align 4, !llfi_index !1913
  %8 = alloca i64, align 8, !llfi_index !1914
  store i32* %0, i32** %4, align 8, !llfi_index !1915
  store i64 %1, i64* %5, align 8, !llfi_index !1916
  store i32* %2, i32** %6, align 8, !llfi_index !1917
  %9 = load i32*, i32** %6, align 8, !llfi_index !1918
  %10 = load i32, i32* %9, align 4, !llfi_index !1919
  store i32 %10, i32* %7, align 4, !llfi_index !1920
  %11 = load i64, i64* %5, align 8, !llfi_index !1921
  store i64 %11, i64* %8, align 8, !llfi_index !1922
  br label %12, !llfi_index !1923

12:                                               ; preds = %18, %3
  %13 = load i64, i64* %8, align 8, !llfi_index !1924
  %14 = icmp ugt i64 %13, 0, !llfi_index !1925
  br i1 %14, label %15, label %23, !llfi_index !1926

15:                                               ; preds = %12
  %16 = load i32, i32* %7, align 4, !llfi_index !1927
  %17 = load i32*, i32** %4, align 8, !llfi_index !1928
  store i32 %16, i32* %17, align 4, !llfi_index !1929
  br label %18, !llfi_index !1930

18:                                               ; preds = %15
  %19 = load i64, i64* %8, align 8, !llfi_index !1931
  %20 = add i64 %19, -1, !llfi_index !1932
  store i64 %20, i64* %8, align 8, !llfi_index !1933
  %21 = load i32*, i32** %4, align 8, !llfi_index !1934
  %22 = getelementptr inbounds i32, i32* %21, i32 1, !llfi_index !1935
  store i32* %22, i32** %4, align 8, !llfi_index !1936
  br label %12, !llvm.loop !1937, !llfi_index !1938

23:                                               ; preds = %12
  %24 = load i32*, i32** %4, align 8, !llfi_index !1939
  ret i32* %24, !llfi_index !1940
}

; Function Attrs: mustprogress noinline nounwind uwtable
define linkonce_odr dso_local i32* @_ZSt12__niter_wrapIPiET_RKS1_S1_(i32** nonnull align 8 dereferenceable(8) %0, i32* %1) #6 comdat {
  %3 = alloca i32**, align 8, !llfi_index !1941
  %4 = alloca i32*, align 8, !llfi_index !1942
  store i32** %0, i32*** %3, align 8, !llfi_index !1943
  store i32* %1, i32** %4, align 8, !llfi_index !1944
  %5 = load i32*, i32** %4, align 8, !llfi_index !1945
  ret i32* %5, !llfi_index !1946
}

; Function Attrs: noinline nounwind uwtable
define linkonce_odr dso_local void @_ZNSt12_Vector_baseIiSaIiEE12_Vector_implC2ERKS0_(%"struct.std::_Vector_base<int, std::allocator<int>>::_Vector_impl"* nonnull align 8 dereferenceable(24) %0, %"class.std::ios_base::Init"* nonnull align 1 dereferenceable(1) %1) unnamed_addr #5 comdat align 2 {
  %3 = alloca %"struct.std::_Vector_base<int, std::allocator<int>>::_Vector_impl"*, align 8, !llfi_index !1947
  %4 = alloca %"class.std::ios_base::Init"*, align 8, !llfi_index !1948
  store %"struct.std::_Vector_base<int, std::allocator<int>>::_Vector_impl"* %0, %"struct.std::_Vector_base<int, std::allocator<int>>::_Vector_impl"** %3, align 8, !llfi_index !1949
  store %"class.std::ios_base::Init"* %1, %"class.std::ios_base::Init"** %4, align 8, !llfi_index !1950
  %5 = load %"struct.std::_Vector_base<int, std::allocator<int>>::_Vector_impl"*, %"struct.std::_Vector_base<int, std::allocator<int>>::_Vector_impl"** %3, align 8, !llfi_index !1951
  %6 = bitcast %"struct.std::_Vector_base<int, std::allocator<int>>::_Vector_impl"* %5 to %"class.std::ios_base::Init"*, !llfi_index !1952
  %7 = load %"class.std::ios_base::Init"*, %"class.std::ios_base::Init"** %4, align 8, !llfi_index !1953
  call void @_ZNSaIiEC2ERKS_(%"class.std::ios_base::Init"* nonnull align 1 dereferenceable(1) %6, %"class.std::ios_base::Init"* nonnull align 1 dereferenceable(1) %7) #2, !llfi_index !1954
  %8 = bitcast %"struct.std::_Vector_base<int, std::allocator<int>>::_Vector_impl"* %5 to %"struct.std::_Vector_base<int, std::allocator<int>>::_Vector_impl_data"*, !llfi_index !1955
  call void @_ZNSt12_Vector_baseIiSaIiEE17_Vector_impl_dataC2Ev(%"struct.std::_Vector_base<int, std::allocator<int>>::_Vector_impl_data"* nonnull align 8 dereferenceable(24) %8) #2, !llfi_index !1956
  ret void, !llfi_index !1957
}

; Function Attrs: mustprogress noinline uwtable
define linkonce_odr dso_local void @_ZNSt12_Vector_baseIiSaIiEE17_M_create_storageEm(%"struct.std::_Vector_base"* nonnull align 8 dereferenceable(24) %0, i64 %1) #7 comdat align 2 {
  %3 = alloca %"struct.std::_Vector_base"*, align 8, !llfi_index !1958
  %4 = alloca i64, align 8, !llfi_index !1959
  store %"struct.std::_Vector_base"* %0, %"struct.std::_Vector_base"** %3, align 8, !llfi_index !1960
  store i64 %1, i64* %4, align 8, !llfi_index !1961
  %5 = load %"struct.std::_Vector_base"*, %"struct.std::_Vector_base"** %3, align 8, !llfi_index !1962
  %6 = load i64, i64* %4, align 8, !llfi_index !1963
  %7 = call i32* @_ZNSt12_Vector_baseIiSaIiEE11_M_allocateEm(%"struct.std::_Vector_base"* nonnull align 8 dereferenceable(24) %5, i64 %6), !llfi_index !1964
  %8 = getelementptr inbounds %"struct.std::_Vector_base", %"struct.std::_Vector_base"* %5, i32 0, i32 0, !llfi_index !1965
  %9 = bitcast %"struct.std::_Vector_base<int, std::allocator<int>>::_Vector_impl"* %8 to %"struct.std::_Vector_base<int, std::allocator<int>>::_Vector_impl_data"*, !llfi_index !1966
  %10 = getelementptr inbounds %"struct.std::_Vector_base<int, std::allocator<int>>::_Vector_impl_data", %"struct.std::_Vector_base<int, std::allocator<int>>::_Vector_impl_data"* %9, i32 0, i32 0, !llfi_index !1967
  store i32* %7, i32** %10, align 8, !llfi_index !1968
  %11 = getelementptr inbounds %"struct.std::_Vector_base", %"struct.std::_Vector_base"* %5, i32 0, i32 0, !llfi_index !1969
  %12 = bitcast %"struct.std::_Vector_base<int, std::allocator<int>>::_Vector_impl"* %11 to %"struct.std::_Vector_base<int, std::allocator<int>>::_Vector_impl_data"*, !llfi_index !1970
  %13 = getelementptr inbounds %"struct.std::_Vector_base<int, std::allocator<int>>::_Vector_impl_data", %"struct.std::_Vector_base<int, std::allocator<int>>::_Vector_impl_data"* %12, i32 0, i32 0, !llfi_index !1971
  %14 = load i32*, i32** %13, align 8, !llfi_index !1972
  %15 = getelementptr inbounds %"struct.std::_Vector_base", %"struct.std::_Vector_base"* %5, i32 0, i32 0, !llfi_index !1973
  %16 = bitcast %"struct.std::_Vector_base<int, std::allocator<int>>::_Vector_impl"* %15 to %"struct.std::_Vector_base<int, std::allocator<int>>::_Vector_impl_data"*, !llfi_index !1974
  %17 = getelementptr inbounds %"struct.std::_Vector_base<int, std::allocator<int>>::_Vector_impl_data", %"struct.std::_Vector_base<int, std::allocator<int>>::_Vector_impl_data"* %16, i32 0, i32 1, !llfi_index !1975
  store i32* %14, i32** %17, align 8, !llfi_index !1976
  %18 = getelementptr inbounds %"struct.std::_Vector_base", %"struct.std::_Vector_base"* %5, i32 0, i32 0, !llfi_index !1977
  %19 = bitcast %"struct.std::_Vector_base<int, std::allocator<int>>::_Vector_impl"* %18 to %"struct.std::_Vector_base<int, std::allocator<int>>::_Vector_impl_data"*, !llfi_index !1978
  %20 = getelementptr inbounds %"struct.std::_Vector_base<int, std::allocator<int>>::_Vector_impl_data", %"struct.std::_Vector_base<int, std::allocator<int>>::_Vector_impl_data"* %19, i32 0, i32 0, !llfi_index !1979
  %21 = load i32*, i32** %20, align 8, !llfi_index !1980
  %22 = load i64, i64* %4, align 8, !llfi_index !1981
  %23 = getelementptr inbounds i32, i32* %21, i64 %22, !llfi_index !1982
  %24 = getelementptr inbounds %"struct.std::_Vector_base", %"struct.std::_Vector_base"* %5, i32 0, i32 0, !llfi_index !1983
  %25 = bitcast %"struct.std::_Vector_base<int, std::allocator<int>>::_Vector_impl"* %24 to %"struct.std::_Vector_base<int, std::allocator<int>>::_Vector_impl_data"*, !llfi_index !1984
  %26 = getelementptr inbounds %"struct.std::_Vector_base<int, std::allocator<int>>::_Vector_impl_data", %"struct.std::_Vector_base<int, std::allocator<int>>::_Vector_impl_data"* %25, i32 0, i32 2, !llfi_index !1985
  store i32* %23, i32** %26, align 8, !llfi_index !1986
  ret void, !llfi_index !1987
}

; Function Attrs: mustprogress noinline uwtable
define linkonce_odr dso_local i32* @_ZNSt12_Vector_baseIiSaIiEE11_M_allocateEm(%"struct.std::_Vector_base"* nonnull align 8 dereferenceable(24) %0, i64 %1) #7 comdat align 2 {
  %3 = alloca %"struct.std::_Vector_base"*, align 8, !llfi_index !1988
  %4 = alloca i64, align 8, !llfi_index !1989
  store %"struct.std::_Vector_base"* %0, %"struct.std::_Vector_base"** %3, align 8, !llfi_index !1990
  store i64 %1, i64* %4, align 8, !llfi_index !1991
  %5 = load %"struct.std::_Vector_base"*, %"struct.std::_Vector_base"** %3, align 8, !llfi_index !1992
  %6 = load i64, i64* %4, align 8, !llfi_index !1993
  %7 = icmp ne i64 %6, 0, !llfi_index !1994
  br i1 %7, label %8, label %13, !llfi_index !1995

8:                                                ; preds = %2
  %9 = getelementptr inbounds %"struct.std::_Vector_base", %"struct.std::_Vector_base"* %5, i32 0, i32 0, !llfi_index !1996
  %10 = bitcast %"struct.std::_Vector_base<int, std::allocator<int>>::_Vector_impl"* %9 to %"class.std::ios_base::Init"*, !llfi_index !1997
  %11 = load i64, i64* %4, align 8, !llfi_index !1998
  %12 = call i32* @_ZNSt16allocator_traitsISaIiEE8allocateERS0_m(%"class.std::ios_base::Init"* nonnull align 1 dereferenceable(1) %10, i64 %11), !llfi_index !1999
  br label %14, !llfi_index !2000

13:                                               ; preds = %2
  br label %14, !llfi_index !2001

14:                                               ; preds = %13, %8
  %15 = phi i32* [ %12, %8 ], [ null, %13 ], !llfi_index !2002
  ret i32* %15, !llfi_index !2003
}

; Function Attrs: mustprogress noinline uwtable
define linkonce_odr dso_local i32* @_ZNSt16allocator_traitsISaIiEE8allocateERS0_m(%"class.std::ios_base::Init"* nonnull align 1 dereferenceable(1) %0, i64 %1) #7 comdat align 2 {
  %3 = alloca %"class.std::ios_base::Init"*, align 8, !llfi_index !2004
  %4 = alloca i64, align 8, !llfi_index !2005
  store %"class.std::ios_base::Init"* %0, %"class.std::ios_base::Init"** %3, align 8, !llfi_index !2006
  store i64 %1, i64* %4, align 8, !llfi_index !2007
  %5 = load %"class.std::ios_base::Init"*, %"class.std::ios_base::Init"** %3, align 8, !llfi_index !2008
  %6 = bitcast %"class.std::ios_base::Init"* %5 to %"class.std::ios_base::Init"*, !llfi_index !2009
  %7 = load i64, i64* %4, align 8, !llfi_index !2010
  %8 = call i32* @_ZN9__gnu_cxx13new_allocatorIiE8allocateEmPKv(%"class.std::ios_base::Init"* nonnull align 1 dereferenceable(1) %6, i64 %7, i8* null), !llfi_index !2011
  ret i32* %8, !llfi_index !2012
}

; Function Attrs: mustprogress noinline uwtable
define linkonce_odr dso_local i32* @_ZN9__gnu_cxx13new_allocatorIiE8allocateEmPKv(%"class.std::ios_base::Init"* nonnull align 1 dereferenceable(1) %0, i64 %1, i8* %2) #7 comdat align 2 {
  %4 = alloca %"class.std::ios_base::Init"*, align 8, !llfi_index !2013
  %5 = alloca i64, align 8, !llfi_index !2014
  %6 = alloca i8*, align 8, !llfi_index !2015
  store %"class.std::ios_base::Init"* %0, %"class.std::ios_base::Init"** %4, align 8, !llfi_index !2016
  store i64 %1, i64* %5, align 8, !llfi_index !2017
  store i8* %2, i8** %6, align 8, !llfi_index !2018
  %7 = load %"class.std::ios_base::Init"*, %"class.std::ios_base::Init"** %4, align 8, !llfi_index !2019
  %8 = load i64, i64* %5, align 8, !llfi_index !2020
  %9 = call i64 @_ZNK9__gnu_cxx13new_allocatorIiE8max_sizeEv(%"class.std::ios_base::Init"* nonnull align 1 dereferenceable(1) %7) #2, !llfi_index !2021
  %10 = icmp ugt i64 %8, %9, !llfi_index !2022
  br i1 %10, label %11, label %12, !llfi_index !2023

11:                                               ; preds = %3
  call void @_ZSt17__throw_bad_allocv() #15, !llfi_index !2024
  unreachable, !llfi_index !2025

12:                                               ; preds = %3
  %13 = load i64, i64* %5, align 8, !llfi_index !2026
  %14 = mul i64 %13, 4, !llfi_index !2027
  %15 = call noalias nonnull i8* @_Znwm(i64 %14) #16, !llfi_index !2028
  %16 = bitcast i8* %15 to i32*, !llfi_index !2029
  ret i32* %16, !llfi_index !2030
}

; Function Attrs: mustprogress noinline nounwind uwtable
define linkonce_odr dso_local i64 @_ZNK9__gnu_cxx13new_allocatorIiE8max_sizeEv(%"class.std::ios_base::Init"* nonnull align 1 dereferenceable(1) %0) #6 comdat align 2 {
  %2 = alloca %"class.std::ios_base::Init"*, align 8, !llfi_index !2031
  store %"class.std::ios_base::Init"* %0, %"class.std::ios_base::Init"** %2, align 8, !llfi_index !2032
  %3 = load %"class.std::ios_base::Init"*, %"class.std::ios_base::Init"** %2, align 8, !llfi_index !2033
  ret i64 2305843009213693951, !llfi_index !2034
}

; Function Attrs: noreturn
declare dso_local void @_ZSt17__throw_bad_allocv() #12

; Function Attrs: nobuiltin allocsize(0)
declare dso_local nonnull i8* @_Znwm(i64) #13

; Function Attrs: noinline nounwind uwtable
define linkonce_odr dso_local void @_ZNSaIiEC2ERKS_(%"class.std::ios_base::Init"* nonnull align 1 dereferenceable(1) %0, %"class.std::ios_base::Init"* nonnull align 1 dereferenceable(1) %1) unnamed_addr #5 comdat align 2 {
  %3 = alloca %"class.std::ios_base::Init"*, align 8, !llfi_index !2035
  %4 = alloca %"class.std::ios_base::Init"*, align 8, !llfi_index !2036
  store %"class.std::ios_base::Init"* %0, %"class.std::ios_base::Init"** %3, align 8, !llfi_index !2037
  store %"class.std::ios_base::Init"* %1, %"class.std::ios_base::Init"** %4, align 8, !llfi_index !2038
  %5 = load %"class.std::ios_base::Init"*, %"class.std::ios_base::Init"** %3, align 8, !llfi_index !2039
  %6 = bitcast %"class.std::ios_base::Init"* %5 to %"class.std::ios_base::Init"*, !llfi_index !2040
  %7 = load %"class.std::ios_base::Init"*, %"class.std::ios_base::Init"** %4, align 8, !llfi_index !2041
  %8 = bitcast %"class.std::ios_base::Init"* %7 to %"class.std::ios_base::Init"*, !llfi_index !2042
  call void @_ZN9__gnu_cxx13new_allocatorIiEC2ERKS1_(%"class.std::ios_base::Init"* nonnull align 1 dereferenceable(1) %6, %"class.std::ios_base::Init"* nonnull align 1 dereferenceable(1) %8) #2, !llfi_index !2043
  ret void, !llfi_index !2044
}

; Function Attrs: noinline nounwind uwtable
define linkonce_odr dso_local void @_ZNSt12_Vector_baseIiSaIiEE17_Vector_impl_dataC2Ev(%"struct.std::_Vector_base<int, std::allocator<int>>::_Vector_impl_data"* nonnull align 8 dereferenceable(24) %0) unnamed_addr #5 comdat align 2 {
  %2 = alloca %"struct.std::_Vector_base<int, std::allocator<int>>::_Vector_impl_data"*, align 8, !llfi_index !2045
  store %"struct.std::_Vector_base<int, std::allocator<int>>::_Vector_impl_data"* %0, %"struct.std::_Vector_base<int, std::allocator<int>>::_Vector_impl_data"** %2, align 8, !llfi_index !2046
  %3 = load %"struct.std::_Vector_base<int, std::allocator<int>>::_Vector_impl_data"*, %"struct.std::_Vector_base<int, std::allocator<int>>::_Vector_impl_data"** %2, align 8, !llfi_index !2047
  %4 = getelementptr inbounds %"struct.std::_Vector_base<int, std::allocator<int>>::_Vector_impl_data", %"struct.std::_Vector_base<int, std::allocator<int>>::_Vector_impl_data"* %3, i32 0, i32 0, !llfi_index !2048
  store i32* null, i32** %4, align 8, !llfi_index !2049
  %5 = getelementptr inbounds %"struct.std::_Vector_base<int, std::allocator<int>>::_Vector_impl_data", %"struct.std::_Vector_base<int, std::allocator<int>>::_Vector_impl_data"* %3, i32 0, i32 1, !llfi_index !2050
  store i32* null, i32** %5, align 8, !llfi_index !2051
  %6 = getelementptr inbounds %"struct.std::_Vector_base<int, std::allocator<int>>::_Vector_impl_data", %"struct.std::_Vector_base<int, std::allocator<int>>::_Vector_impl_data"* %3, i32 0, i32 2, !llfi_index !2052
  store i32* null, i32** %6, align 8, !llfi_index !2053
  ret void, !llfi_index !2054
}

; Function Attrs: noinline nounwind uwtable
define linkonce_odr dso_local void @_ZN9__gnu_cxx13new_allocatorIiEC2ERKS1_(%"class.std::ios_base::Init"* nonnull align 1 dereferenceable(1) %0, %"class.std::ios_base::Init"* nonnull align 1 dereferenceable(1) %1) unnamed_addr #5 comdat align 2 {
  %3 = alloca %"class.std::ios_base::Init"*, align 8, !llfi_index !2055
  %4 = alloca %"class.std::ios_base::Init"*, align 8, !llfi_index !2056
  store %"class.std::ios_base::Init"* %0, %"class.std::ios_base::Init"** %3, align 8, !llfi_index !2057
  store %"class.std::ios_base::Init"* %1, %"class.std::ios_base::Init"** %4, align 8, !llfi_index !2058
  %5 = load %"class.std::ios_base::Init"*, %"class.std::ios_base::Init"** %3, align 8, !llfi_index !2059
  ret void, !llfi_index !2060
}

; Function Attrs: mustprogress noinline nounwind uwtable
define linkonce_odr dso_local i64 @_ZNSt6vectorIiSaIiEE11_S_max_sizeERKS0_(%"class.std::ios_base::Init"* nonnull align 1 dereferenceable(1) %0) #6 comdat align 2 personality i8* bitcast (i32 (...)* @__gxx_personality_v0 to i8*) {
  %2 = alloca %"class.std::ios_base::Init"*, align 8, !llfi_index !2061
  %3 = alloca i64, align 8, !llfi_index !2062
  %4 = alloca i64, align 8, !llfi_index !2063
  store %"class.std::ios_base::Init"* %0, %"class.std::ios_base::Init"** %2, align 8, !llfi_index !2064
  store i64 2305843009213693951, i64* %3, align 8, !llfi_index !2065
  %5 = load %"class.std::ios_base::Init"*, %"class.std::ios_base::Init"** %2, align 8, !llfi_index !2066
  %6 = call i64 @_ZNSt16allocator_traitsISaIiEE8max_sizeERKS0_(%"class.std::ios_base::Init"* nonnull align 1 dereferenceable(1) %5) #2, !llfi_index !2067
  store i64 %6, i64* %4, align 8, !llfi_index !2068
  %7 = invoke nonnull align 8 dereferenceable(8) i64* @_ZSt3minImERKT_S2_S2_(i64* nonnull align 8 dereferenceable(8) %3, i64* nonnull align 8 dereferenceable(8) %4)
          to label %8 unwind label %10, !llfi_index !2069

8:                                                ; preds = %1
  %9 = load i64, i64* %7, align 8, !llfi_index !2070
  ret i64 %9, !llfi_index !2071

10:                                               ; preds = %1
  %11 = landingpad { i8*, i32 }
          catch i8* null, !llfi_index !2072
  %12 = extractvalue { i8*, i32 } %11, 0, !llfi_index !2073
  call void @__clang_call_terminate(i8* %12) #14, !llfi_index !2074
  unreachable, !llfi_index !2075
}

; Function Attrs: noreturn
declare dso_local void @_ZSt20__throw_length_errorPKc(i8*) #12

; Function Attrs: mustprogress noinline nounwind uwtable
define linkonce_odr dso_local i64 @_ZNSt16allocator_traitsISaIiEE8max_sizeERKS0_(%"class.std::ios_base::Init"* nonnull align 1 dereferenceable(1) %0) #6 comdat align 2 {
  %2 = alloca %"class.std::ios_base::Init"*, align 8, !llfi_index !2076
  store %"class.std::ios_base::Init"* %0, %"class.std::ios_base::Init"** %2, align 8, !llfi_index !2077
  %3 = load %"class.std::ios_base::Init"*, %"class.std::ios_base::Init"** %2, align 8, !llfi_index !2078
  %4 = bitcast %"class.std::ios_base::Init"* %3 to %"class.std::ios_base::Init"*, !llfi_index !2079
  %5 = call i64 @_ZNK9__gnu_cxx13new_allocatorIiE8max_sizeEv(%"class.std::ios_base::Init"* nonnull align 1 dereferenceable(1) %4) #2, !llfi_index !2080
  ret i64 %5, !llfi_index !2081
}

; Function Attrs: mustprogress noinline nounwind uwtable
define linkonce_odr dso_local nonnull align 8 dereferenceable(8) i64* @_ZSt3minImERKT_S2_S2_(i64* nonnull align 8 dereferenceable(8) %0, i64* nonnull align 8 dereferenceable(8) %1) #6 comdat {
  %3 = alloca i64*, align 8, !llfi_index !2082
  %4 = alloca i64*, align 8, !llfi_index !2083
  %5 = alloca i64*, align 8, !llfi_index !2084
  store i64* %0, i64** %4, align 8, !llfi_index !2085
  store i64* %1, i64** %5, align 8, !llfi_index !2086
  %6 = load i64*, i64** %5, align 8, !llfi_index !2087
  %7 = load i64, i64* %6, align 8, !llfi_index !2088
  %8 = load i64*, i64** %4, align 8, !llfi_index !2089
  %9 = load i64, i64* %8, align 8, !llfi_index !2090
  %10 = icmp ult i64 %7, %9, !llfi_index !2091
  br i1 %10, label %11, label %13, !llfi_index !2092

11:                                               ; preds = %2
  %12 = load i64*, i64** %5, align 8, !llfi_index !2093
  store i64* %12, i64** %3, align 8, !llfi_index !2094
  br label %15, !llfi_index !2095

13:                                               ; preds = %2
  %14 = load i64*, i64** %4, align 8, !llfi_index !2096
  store i64* %14, i64** %3, align 8, !llfi_index !2097
  br label %15, !llfi_index !2098

15:                                               ; preds = %13, %11
  %16 = load i64*, i64** %3, align 8, !llfi_index !2099
  ret i64* %16, !llfi_index !2100
}

; Function Attrs: noinline nounwind uwtable
define linkonce_odr dso_local void @_ZN9__gnu_cxx13new_allocatorIiEC2Ev(%"class.std::ios_base::Init"* nonnull align 1 dereferenceable(1) %0) unnamed_addr #5 comdat align 2 {
  %2 = alloca %"class.std::ios_base::Init"*, align 8, !llfi_index !2101
  store %"class.std::ios_base::Init"* %0, %"class.std::ios_base::Init"** %2, align 8, !llfi_index !2102
  %3 = load %"class.std::ios_base::Init"*, %"class.std::ios_base::Init"** %2, align 8, !llfi_index !2103
  ret void, !llfi_index !2104
}

attributes #0 = { noinline uwtable "frame-pointer"="all" "min-legal-vector-width"="0" "no-trapping-math"="true" "stack-protector-buffer-size"="8" "target-cpu"="x86-64" "target-features"="+cx8,+fxsr,+mmx,+sse,+sse2,+x87" "tune-cpu"="generic" }
attributes #1 = { "frame-pointer"="all" "no-trapping-math"="true" "stack-protector-buffer-size"="8" "target-cpu"="x86-64" "target-features"="+cx8,+fxsr,+mmx,+sse,+sse2,+x87" "tune-cpu"="generic" }
attributes #2 = { nounwind }
attributes #3 = { nounwind "frame-pointer"="all" "no-trapping-math"="true" "stack-protector-buffer-size"="8" "target-cpu"="x86-64" "target-features"="+cx8,+fxsr,+mmx,+sse,+sse2,+x87" "tune-cpu"="generic" }
attributes #4 = { mustprogress noinline norecurse uwtable "frame-pointer"="all" "min-legal-vector-width"="0" "no-trapping-math"="true" "stack-protector-buffer-size"="8" "target-cpu"="x86-64" "target-features"="+cx8,+fxsr,+mmx,+sse,+sse2,+x87" "tune-cpu"="generic" }
attributes #5 = { noinline nounwind uwtable "frame-pointer"="all" "min-legal-vector-width"="0" "no-trapping-math"="true" "stack-protector-buffer-size"="8" "target-cpu"="x86-64" "target-features"="+cx8,+fxsr,+mmx,+sse,+sse2,+x87" "tune-cpu"="generic" }
attributes #6 = { mustprogress noinline nounwind uwtable "frame-pointer"="all" "min-legal-vector-width"="0" "no-trapping-math"="true" "stack-protector-buffer-size"="8" "target-cpu"="x86-64" "target-features"="+cx8,+fxsr,+mmx,+sse,+sse2,+x87" "tune-cpu"="generic" }
attributes #7 = { mustprogress noinline uwtable "frame-pointer"="all" "min-legal-vector-width"="0" "no-trapping-math"="true" "stack-protector-buffer-size"="8" "target-cpu"="x86-64" "target-features"="+cx8,+fxsr,+mmx,+sse,+sse2,+x87" "tune-cpu"="generic" }
attributes #8 = { argmemonly nofree nounwind willreturn }
attributes #9 = { nofree nosync nounwind readnone speculatable willreturn }
attributes #10 = { noinline noreturn nounwind }
attributes #11 = { nobuiltin nounwind "frame-pointer"="all" "no-trapping-math"="true" "stack-protector-buffer-size"="8" "target-cpu"="x86-64" "target-features"="+cx8,+fxsr,+mmx,+sse,+sse2,+x87" "tune-cpu"="generic" }
attributes #12 = { noreturn "frame-pointer"="all" "no-trapping-math"="true" "stack-protector-buffer-size"="8" "target-cpu"="x86-64" "target-features"="+cx8,+fxsr,+mmx,+sse,+sse2,+x87" "tune-cpu"="generic" }
attributes #13 = { nobuiltin allocsize(0) "frame-pointer"="all" "no-trapping-math"="true" "stack-protector-buffer-size"="8" "target-cpu"="x86-64" "target-features"="+cx8,+fxsr,+mmx,+sse,+sse2,+x87" "tune-cpu"="generic" }
attributes #14 = { noreturn nounwind }
attributes #15 = { noreturn }
attributes #16 = { allocsize(0) }

!llvm.ident = !{!0}
!llvm.module.flags = !{!1, !2, !3}

!0 = !{!"clang version 13.0.0 (https://github.com/llvm/llvm-project.git d7b669b3a30345cfcdb2fde2af6f48aa4b94845d)"}
!1 = !{i32 1, !"wchar_size", i32 4}
!2 = !{i32 7, !"uwtable", i32 1}
!3 = !{i32 7, !"frame-pointer", i32 2}
!4 = !{i64 1}
!5 = !{i64 2}
!6 = !{i64 3}
!7 = !{i64 4}
!8 = !{i64 5}
!9 = !{i64 6}
!10 = !{i64 7}
!11 = !{i64 8}
!12 = !{i64 9}
!13 = !{i64 10}
!14 = !{i64 11}
!15 = !{i64 12}
!16 = !{i64 13}
!17 = !{i64 14}
!18 = !{i64 15}
!19 = !{i64 16}
!20 = !{i64 17}
!21 = !{i64 18}
!22 = !{i64 19}
!23 = !{i64 20}
!24 = !{i64 21}
!25 = !{i64 22}
!26 = !{i64 23}
!27 = !{i64 24}
!28 = !{i64 25}
!29 = !{i64 26}
!30 = !{i64 27}
!31 = !{i64 28}
!32 = !{i64 29}
!33 = !{i64 30}
!34 = !{i64 31}
!35 = !{i64 32}
!36 = !{i64 33}
!37 = !{i64 34}
!38 = !{i64 35}
!39 = !{i64 36}
!40 = !{i64 37}
!41 = !{i64 38}
!42 = !{i64 39}
!43 = !{i64 40}
!44 = !{i64 41}
!45 = !{i64 42}
!46 = !{i64 43}
!47 = !{i64 44}
!48 = !{i64 45}
!49 = !{i64 46}
!50 = !{i64 47}
!51 = !{i64 48}
!52 = !{i64 49}
!53 = !{i64 50}
!54 = distinct !{!54, !55}
!55 = !{!"llvm.loop.mustprogress"}
!56 = !{i64 51}
!57 = !{i64 52}
!58 = !{i64 53}
!59 = !{i64 54}
!60 = !{i64 55}
!61 = !{i64 56}
!62 = !{i64 57}
!63 = !{i64 58}
!64 = !{i64 59}
!65 = !{i64 60}
!66 = !{i64 61}
!67 = !{i64 62}
!68 = !{i64 63}
!69 = !{i64 64}
!70 = !{i64 65}
!71 = !{i64 66}
!72 = !{i64 67}
!73 = !{i64 68}
!74 = !{i64 69}
!75 = !{i64 70}
!76 = !{i64 71}
!77 = !{i64 72}
!78 = !{i64 73}
!79 = !{i64 74}
!80 = !{i64 75}
!81 = !{i64 76}
!82 = !{i64 77}
!83 = !{i64 78}
!84 = !{i64 79}
!85 = !{i64 80}
!86 = !{i64 81}
!87 = !{i64 82}
!88 = !{i64 83}
!89 = !{i64 84}
!90 = !{i64 85}
!91 = !{i64 86}
!92 = distinct !{!92, !55}
!93 = !{i64 87}
!94 = !{i64 88}
!95 = !{i64 89}
!96 = !{i64 90}
!97 = !{i64 91}
!98 = !{i64 92}
!99 = !{i64 93}
!100 = !{i64 94}
!101 = !{i64 95}
!102 = !{i64 96}
!103 = !{i64 97}
!104 = !{i64 98}
!105 = !{i64 99}
!106 = !{i64 100}
!107 = !{i64 101}
!108 = !{i64 102}
!109 = !{i64 103}
!110 = !{i64 104}
!111 = !{i64 105}
!112 = !{i64 106}
!113 = !{i64 107}
!114 = !{i64 108}
!115 = !{i64 109}
!116 = !{i64 110}
!117 = !{i64 111}
!118 = !{i64 112}
!119 = !{i64 113}
!120 = !{i64 114}
!121 = !{i64 115}
!122 = !{i64 116}
!123 = !{i64 117}
!124 = !{i64 118}
!125 = !{i64 119}
!126 = !{i64 120}
!127 = !{i64 121}
!128 = !{i64 122}
!129 = !{i64 123}
!130 = !{i64 124}
!131 = !{i64 125}
!132 = !{i64 126}
!133 = !{i64 127}
!134 = !{i64 128}
!135 = !{i64 129}
!136 = !{i64 130}
!137 = !{i64 131}
!138 = !{i64 132}
!139 = !{i64 133}
!140 = !{i64 134}
!141 = !{i64 135}
!142 = !{i64 136}
!143 = !{i64 137}
!144 = !{i64 138}
!145 = !{i64 139}
!146 = !{i64 140}
!147 = !{i64 141}
!148 = !{i64 142}
!149 = !{i64 143}
!150 = !{i64 144}
!151 = !{i64 145}
!152 = !{i64 146}
!153 = !{i64 147}
!154 = !{i64 148}
!155 = !{i64 149}
!156 = !{i64 150}
!157 = !{i64 151}
!158 = !{i64 152}
!159 = !{i64 153}
!160 = !{i64 154}
!161 = !{i64 155}
!162 = !{i64 156}
!163 = !{i64 157}
!164 = !{i64 158}
!165 = !{i64 159}
!166 = !{i64 160}
!167 = !{i64 161}
!168 = !{i64 162}
!169 = !{i64 163}
!170 = !{i64 164}
!171 = !{i64 165}
!172 = !{i64 166}
!173 = !{i64 167}
!174 = !{i64 168}
!175 = !{i64 169}
!176 = !{i64 170}
!177 = !{i64 171}
!178 = !{i64 172}
!179 = !{i64 173}
!180 = !{i64 174}
!181 = !{i64 175}
!182 = !{i64 176}
!183 = !{i64 177}
!184 = !{i64 178}
!185 = !{i64 179}
!186 = !{i64 180}
!187 = !{i64 181}
!188 = !{i64 182}
!189 = !{i64 183}
!190 = !{i64 184}
!191 = !{i64 185}
!192 = !{i64 186}
!193 = !{i64 187}
!194 = !{i64 188}
!195 = !{i64 189}
!196 = !{i64 190}
!197 = !{i64 191}
!198 = !{i64 192}
!199 = !{i64 193}
!200 = !{i64 194}
!201 = !{i64 195}
!202 = !{i64 196}
!203 = !{i64 197}
!204 = !{i64 198}
!205 = !{i64 199}
!206 = !{i64 200}
!207 = !{i64 201}
!208 = !{i64 202}
!209 = !{i64 203}
!210 = !{i64 204}
!211 = !{i64 205}
!212 = !{i64 206}
!213 = !{i64 207}
!214 = !{i64 208}
!215 = !{i64 209}
!216 = !{i64 210}
!217 = !{i64 211}
!218 = !{i64 212}
!219 = !{i64 213}
!220 = !{i64 214}
!221 = !{i64 215}
!222 = !{i64 216}
!223 = !{i64 217}
!224 = !{i64 218}
!225 = !{i64 219}
!226 = !{i64 220}
!227 = !{i64 221}
!228 = !{i64 222}
!229 = !{i64 223}
!230 = !{i64 224}
!231 = !{i64 225}
!232 = !{i64 226}
!233 = !{i64 227}
!234 = !{i64 228}
!235 = !{i64 229}
!236 = !{i64 230}
!237 = !{i64 231}
!238 = !{i64 232}
!239 = !{i64 233}
!240 = !{i64 234}
!241 = !{i64 235}
!242 = !{i64 236}
!243 = !{i64 237}
!244 = !{i64 238}
!245 = !{i64 239}
!246 = !{i64 240}
!247 = !{i64 241}
!248 = !{i64 242}
!249 = !{i64 243}
!250 = !{i64 244}
!251 = !{i64 245}
!252 = !{i64 246}
!253 = !{i64 247}
!254 = !{i64 248}
!255 = !{i64 249}
!256 = !{i64 250}
!257 = !{i64 251}
!258 = !{i64 252}
!259 = !{i64 253}
!260 = !{i64 254}
!261 = !{i64 255}
!262 = !{i64 256}
!263 = !{i64 257}
!264 = !{i64 258}
!265 = !{i64 259}
!266 = !{i64 260}
!267 = !{i64 261}
!268 = !{i64 262}
!269 = !{i64 263}
!270 = !{i64 264}
!271 = !{i64 265}
!272 = !{i64 266}
!273 = !{i64 267}
!274 = !{i64 268}
!275 = !{i64 269}
!276 = !{i64 270}
!277 = !{i64 271}
!278 = !{i64 272}
!279 = !{i64 273}
!280 = !{i64 274}
!281 = !{i64 275}
!282 = !{i64 276}
!283 = !{i64 277}
!284 = !{i64 278}
!285 = !{i64 279}
!286 = !{i64 280}
!287 = !{i64 281}
!288 = !{i64 282}
!289 = !{i64 283}
!290 = !{i64 284}
!291 = !{i64 285}
!292 = !{i64 286}
!293 = !{i64 287}
!294 = !{i64 288}
!295 = !{i64 289}
!296 = !{i64 290}
!297 = !{i64 291}
!298 = !{i64 292}
!299 = !{i64 293}
!300 = !{i64 294}
!301 = !{i64 295}
!302 = !{i64 296}
!303 = !{i64 297}
!304 = !{i64 298}
!305 = !{i64 299}
!306 = !{i64 300}
!307 = !{i64 301}
!308 = !{i64 302}
!309 = !{i64 303}
!310 = !{i64 304}
!311 = !{i64 305}
!312 = !{i64 306}
!313 = !{i64 307}
!314 = !{i64 308}
!315 = !{i64 309}
!316 = !{i64 310}
!317 = !{i64 311}
!318 = !{i64 312}
!319 = !{i64 313}
!320 = !{i64 314}
!321 = !{i64 315}
!322 = !{i64 316}
!323 = !{i64 317}
!324 = !{i64 318}
!325 = !{i64 319}
!326 = !{i64 320}
!327 = !{i64 321}
!328 = !{i64 322}
!329 = !{i64 323}
!330 = !{i64 324}
!331 = !{i64 325}
!332 = !{i64 326}
!333 = !{i64 327}
!334 = !{i64 328}
!335 = !{i64 329}
!336 = !{i64 330}
!337 = !{i64 331}
!338 = !{i64 332}
!339 = !{i64 333}
!340 = !{i64 334}
!341 = !{i64 335}
!342 = !{i64 336}
!343 = !{i64 337}
!344 = !{i64 338}
!345 = !{i64 339}
!346 = !{i64 340}
!347 = !{i64 341}
!348 = !{i64 342}
!349 = !{i64 343}
!350 = !{i64 344}
!351 = !{i64 345}
!352 = !{i64 346}
!353 = !{i64 347}
!354 = !{i64 348}
!355 = !{i64 349}
!356 = !{i64 350}
!357 = !{i64 351}
!358 = !{i64 352}
!359 = !{i64 353}
!360 = !{i64 354}
!361 = !{i64 355}
!362 = !{i64 356}
!363 = !{i64 357}
!364 = !{i64 358}
!365 = !{i64 359}
!366 = !{i64 360}
!367 = !{i64 361}
!368 = !{i64 362}
!369 = !{i64 363}
!370 = !{i64 364}
!371 = !{i64 365}
!372 = !{i64 366}
!373 = !{i64 367}
!374 = !{i64 368}
!375 = !{i64 369}
!376 = !{i64 370}
!377 = !{i64 371}
!378 = !{i64 372}
!379 = !{i64 373}
!380 = !{i64 374}
!381 = !{i64 375}
!382 = !{i64 376}
!383 = !{i64 377}
!384 = !{i64 378}
!385 = !{i64 379}
!386 = !{i64 380}
!387 = !{i64 381}
!388 = distinct !{!388, !55}
!389 = !{i64 382}
!390 = !{i64 383}
!391 = !{i64 384}
!392 = !{i64 385}
!393 = !{i64 386}
!394 = !{i64 387}
!395 = !{i64 388}
!396 = !{i64 389}
!397 = !{i64 390}
!398 = !{i64 391}
!399 = !{i64 392}
!400 = !{i64 393}
!401 = !{i64 394}
!402 = !{i64 395}
!403 = !{i64 396}
!404 = !{i64 397}
!405 = !{i64 398}
!406 = !{i64 399}
!407 = !{i64 400}
!408 = !{i64 401}
!409 = !{i64 402}
!410 = !{i64 403}
!411 = !{i64 404}
!412 = !{i64 405}
!413 = !{i64 406}
!414 = !{i64 407}
!415 = !{i64 408}
!416 = !{i64 409}
!417 = !{i64 410}
!418 = !{i64 411}
!419 = !{i64 412}
!420 = !{i64 413}
!421 = !{i64 414}
!422 = !{i64 415}
!423 = !{i64 416}
!424 = !{i64 417}
!425 = !{i64 418}
!426 = !{i64 419}
!427 = !{i64 420}
!428 = !{i64 421}
!429 = !{i64 422}
!430 = !{i64 423}
!431 = !{i64 424}
!432 = !{i64 425}
!433 = !{i64 426}
!434 = !{i64 427}
!435 = !{i64 428}
!436 = !{i64 429}
!437 = !{i64 430}
!438 = !{i64 431}
!439 = !{i64 432}
!440 = !{i64 433}
!441 = !{i64 434}
!442 = !{i64 435}
!443 = !{i64 436}
!444 = !{i64 437}
!445 = !{i64 438}
!446 = !{i64 439}
!447 = !{i64 440}
!448 = !{i64 441}
!449 = !{i64 442}
!450 = !{i64 443}
!451 = !{i64 444}
!452 = !{i64 445}
!453 = !{i64 446}
!454 = !{i64 447}
!455 = !{i64 448}
!456 = !{i64 449}
!457 = !{i64 450}
!458 = !{i64 451}
!459 = !{i64 452}
!460 = !{i64 453}
!461 = !{i64 454}
!462 = !{i64 455}
!463 = !{i64 456}
!464 = !{i64 457}
!465 = !{i64 458}
!466 = !{i64 459}
!467 = !{i64 460}
!468 = !{i64 461}
!469 = !{i64 462}
!470 = !{i64 463}
!471 = !{i64 464}
!472 = !{i64 465}
!473 = !{i64 466}
!474 = !{i64 467}
!475 = !{i64 468}
!476 = !{i64 469}
!477 = !{i64 470}
!478 = !{i64 471}
!479 = !{i64 472}
!480 = !{i64 473}
!481 = !{i64 474}
!482 = !{i64 475}
!483 = !{i64 476}
!484 = !{i64 477}
!485 = !{i64 478}
!486 = !{i64 479}
!487 = !{i64 480}
!488 = !{i64 481}
!489 = !{i64 482}
!490 = !{i64 483}
!491 = !{i64 484}
!492 = !{i64 485}
!493 = !{i64 486}
!494 = !{i64 487}
!495 = !{i64 488}
!496 = !{i64 489}
!497 = !{i64 490}
!498 = !{i64 491}
!499 = !{i64 492}
!500 = !{i64 493}
!501 = !{i64 494}
!502 = !{i64 495}
!503 = !{i64 496}
!504 = !{i64 497}
!505 = !{i64 498}
!506 = !{i64 499}
!507 = !{i64 500}
!508 = !{i64 501}
!509 = !{i64 502}
!510 = !{i64 503}
!511 = !{i64 504}
!512 = !{i64 505}
!513 = !{i64 506}
!514 = !{i64 507}
!515 = !{i64 508}
!516 = !{i64 509}
!517 = !{i64 510}
!518 = !{i64 511}
!519 = !{i64 512}
!520 = !{i64 513}
!521 = !{i64 514}
!522 = !{i64 515}
!523 = !{i64 516}
!524 = !{i64 517}
!525 = !{i64 518}
!526 = !{i64 519}
!527 = !{i64 520}
!528 = !{i64 521}
!529 = !{i64 522}
!530 = !{i64 523}
!531 = !{i64 524}
!532 = !{i64 525}
!533 = !{i64 526}
!534 = !{i64 527}
!535 = !{i64 528}
!536 = !{i64 529}
!537 = !{i64 530}
!538 = !{i64 531}
!539 = distinct !{!539, !55}
!540 = !{i64 532}
!541 = !{i64 533}
!542 = !{i64 534}
!543 = !{i64 535}
!544 = !{i64 536}
!545 = !{i64 537}
!546 = !{i64 538}
!547 = !{i64 539}
!548 = !{i64 540}
!549 = !{i64 541}
!550 = !{i64 542}
!551 = !{i64 543}
!552 = !{i64 544}
!553 = !{i64 545}
!554 = !{i64 546}
!555 = !{i64 547}
!556 = !{i64 548}
!557 = !{i64 549}
!558 = !{i64 550}
!559 = !{i64 551}
!560 = !{i64 552}
!561 = !{i64 553}
!562 = !{i64 554}
!563 = !{i64 555}
!564 = !{i64 556}
!565 = !{i64 557}
!566 = !{i64 558}
!567 = !{i64 559}
!568 = !{i64 560}
!569 = distinct !{!569, !55}
!570 = !{i64 561}
!571 = !{i64 562}
!572 = !{i64 563}
!573 = !{i64 564}
!574 = !{i64 565}
!575 = !{i64 566}
!576 = !{i64 567}
!577 = !{i64 568}
!578 = !{i64 569}
!579 = !{i64 570}
!580 = !{i64 571}
!581 = !{i64 572}
!582 = !{i64 573}
!583 = !{i64 574}
!584 = !{i64 575}
!585 = !{i64 576}
!586 = !{i64 577}
!587 = !{i64 578}
!588 = !{i64 579}
!589 = !{i64 580}
!590 = !{i64 581}
!591 = !{i64 582}
!592 = !{i64 583}
!593 = !{i64 584}
!594 = !{i64 585}
!595 = !{i64 586}
!596 = !{i64 587}
!597 = !{i64 588}
!598 = !{i64 589}
!599 = !{i64 590}
!600 = !{i64 591}
!601 = !{i64 592}
!602 = !{i64 593}
!603 = !{i64 594}
!604 = !{i64 595}
!605 = !{i64 596}
!606 = distinct !{!606, !55}
!607 = !{i64 597}
!608 = !{i64 598}
!609 = !{i64 599}
!610 = !{i64 600}
!611 = !{i64 601}
!612 = !{i64 602}
!613 = !{i64 603}
!614 = !{i64 604}
!615 = !{i64 605}
!616 = !{i64 606}
!617 = !{i64 607}
!618 = !{i64 608}
!619 = !{i64 609}
!620 = !{i64 610}
!621 = !{i64 611}
!622 = !{i64 612}
!623 = !{i64 613}
!624 = !{i64 614}
!625 = !{i64 615}
!626 = !{i64 616}
!627 = !{i64 617}
!628 = !{i64 618}
!629 = !{i64 619}
!630 = !{i64 620}
!631 = !{i64 621}
!632 = !{i64 622}
!633 = !{i64 623}
!634 = !{i64 624}
!635 = !{i64 625}
!636 = !{i64 626}
!637 = !{i64 627}
!638 = !{i64 628}
!639 = !{i64 629}
!640 = !{i64 630}
!641 = !{i64 631}
!642 = !{i64 632}
!643 = !{i64 633}
!644 = !{i64 634}
!645 = !{i64 635}
!646 = !{i64 636}
!647 = !{i64 637}
!648 = !{i64 638}
!649 = !{i64 639}
!650 = !{i64 640}
!651 = !{i64 641}
!652 = !{i64 642}
!653 = !{i64 643}
!654 = !{i64 644}
!655 = !{i64 645}
!656 = !{i64 646}
!657 = !{i64 647}
!658 = !{i64 648}
!659 = !{i64 649}
!660 = !{i64 650}
!661 = !{i64 651}
!662 = !{i64 652}
!663 = !{i64 653}
!664 = !{i64 654}
!665 = !{i64 655}
!666 = !{i64 656}
!667 = !{i64 657}
!668 = !{i64 658}
!669 = !{i64 659}
!670 = !{i64 660}
!671 = !{i64 661}
!672 = !{i64 662}
!673 = !{i64 663}
!674 = !{i64 664}
!675 = !{i64 665}
!676 = !{i64 666}
!677 = !{i64 667}
!678 = !{i64 668}
!679 = !{i64 669}
!680 = !{i64 670}
!681 = !{i64 671}
!682 = !{i64 672}
!683 = !{i64 673}
!684 = !{i64 674}
!685 = !{i64 675}
!686 = !{i64 676}
!687 = !{i64 677}
!688 = !{i64 678}
!689 = !{i64 679}
!690 = !{i64 680}
!691 = !{i64 681}
!692 = !{i64 682}
!693 = !{i64 683}
!694 = !{i64 684}
!695 = !{i64 685}
!696 = !{i64 686}
!697 = !{i64 687}
!698 = !{i64 688}
!699 = !{i64 689}
!700 = !{i64 690}
!701 = !{i64 691}
!702 = !{i64 692}
!703 = !{i64 693}
!704 = !{i64 694}
!705 = !{i64 695}
!706 = !{i64 696}
!707 = !{i64 697}
!708 = !{i64 698}
!709 = !{i64 699}
!710 = !{i64 700}
!711 = !{i64 701}
!712 = !{i64 702}
!713 = !{i64 703}
!714 = !{i64 704}
!715 = !{i64 705}
!716 = !{i64 706}
!717 = !{i64 707}
!718 = !{i64 708}
!719 = !{i64 709}
!720 = !{i64 710}
!721 = !{i64 711}
!722 = !{i64 712}
!723 = !{i64 713}
!724 = !{i64 714}
!725 = !{i64 715}
!726 = !{i64 716}
!727 = !{i64 717}
!728 = !{i64 718}
!729 = !{i64 719}
!730 = !{i64 720}
!731 = !{i64 721}
!732 = !{i64 722}
!733 = !{i64 723}
!734 = !{i64 724}
!735 = !{i64 725}
!736 = !{i64 726}
!737 = !{i64 727}
!738 = !{i64 728}
!739 = !{i64 729}
!740 = !{i64 730}
!741 = !{i64 731}
!742 = !{i64 732}
!743 = !{i64 733}
!744 = !{i64 734}
!745 = !{i64 735}
!746 = !{i64 736}
!747 = !{i64 737}
!748 = !{i64 738}
!749 = !{i64 739}
!750 = !{i64 740}
!751 = !{i64 741}
!752 = !{i64 742}
!753 = !{i64 743}
!754 = !{i64 744}
!755 = !{i64 745}
!756 = !{i64 746}
!757 = !{i64 747}
!758 = !{i64 748}
!759 = !{i64 749}
!760 = !{i64 750}
!761 = !{i64 751}
!762 = !{i64 752}
!763 = !{i64 753}
!764 = !{i64 754}
!765 = !{i64 755}
!766 = !{i64 756}
!767 = !{i64 757}
!768 = !{i64 758}
!769 = !{i64 759}
!770 = !{i64 760}
!771 = !{i64 761}
!772 = !{i64 762}
!773 = !{i64 763}
!774 = !{i64 764}
!775 = !{i64 765}
!776 = !{i64 766}
!777 = !{i64 767}
!778 = !{i64 768}
!779 = !{i64 769}
!780 = !{i64 770}
!781 = !{i64 771}
!782 = !{i64 772}
!783 = !{i64 773}
!784 = !{i64 774}
!785 = !{i64 775}
!786 = !{i64 776}
!787 = !{i64 777}
!788 = !{i64 778}
!789 = !{i64 779}
!790 = !{i64 780}
!791 = !{i64 781}
!792 = !{i64 782}
!793 = !{i64 783}
!794 = !{i64 784}
!795 = !{i64 785}
!796 = !{i64 786}
!797 = !{i64 787}
!798 = !{i64 788}
!799 = !{i64 789}
!800 = !{i64 790}
!801 = !{i64 791}
!802 = !{i64 792}
!803 = !{i64 793}
!804 = !{i64 794}
!805 = !{i64 795}
!806 = !{i64 796}
!807 = !{i64 797}
!808 = !{i64 798}
!809 = !{i64 799}
!810 = !{i64 800}
!811 = !{i64 801}
!812 = !{i64 802}
!813 = !{i64 803}
!814 = !{i64 804}
!815 = !{i64 805}
!816 = !{i64 806}
!817 = !{i64 807}
!818 = !{i64 808}
!819 = !{i64 809}
!820 = !{i64 810}
!821 = !{i64 811}
!822 = !{i64 812}
!823 = !{i64 813}
!824 = !{i64 814}
!825 = !{i64 815}
!826 = !{i64 816}
!827 = !{i64 817}
!828 = !{i64 818}
!829 = !{i64 819}
!830 = !{i64 820}
!831 = !{i64 821}
!832 = !{i64 822}
!833 = !{i64 823}
!834 = !{i64 824}
!835 = !{i64 825}
!836 = !{i64 826}
!837 = !{i64 827}
!838 = !{i64 828}
!839 = !{i64 829}
!840 = !{i64 830}
!841 = !{i64 831}
!842 = !{i64 832}
!843 = !{i64 833}
!844 = !{i64 834}
!845 = !{i64 835}
!846 = !{i64 836}
!847 = !{i64 837}
!848 = !{i64 838}
!849 = !{i64 839}
!850 = !{i64 840}
!851 = !{i64 841}
!852 = !{i64 842}
!853 = !{i64 843}
!854 = !{i64 844}
!855 = !{i64 845}
!856 = !{i64 846}
!857 = !{i64 847}
!858 = !{i64 848}
!859 = !{i64 849}
!860 = !{i64 850}
!861 = !{i64 851}
!862 = !{i64 852}
!863 = !{i64 853}
!864 = !{i64 854}
!865 = !{i64 855}
!866 = !{i64 856}
!867 = !{i64 857}
!868 = !{i64 858}
!869 = !{i64 859}
!870 = !{i64 860}
!871 = !{i64 861}
!872 = !{i64 862}
!873 = !{i64 863}
!874 = !{i64 864}
!875 = !{i64 865}
!876 = !{i64 866}
!877 = !{i64 867}
!878 = !{i64 868}
!879 = !{i64 869}
!880 = !{i64 870}
!881 = !{i64 871}
!882 = !{i64 872}
!883 = !{i64 873}
!884 = !{i64 874}
!885 = !{i64 875}
!886 = !{i64 876}
!887 = !{i64 877}
!888 = !{i64 878}
!889 = !{i64 879}
!890 = !{i64 880}
!891 = !{i64 881}
!892 = !{i64 882}
!893 = !{i64 883}
!894 = !{i64 884}
!895 = !{i64 885}
!896 = !{i64 886}
!897 = !{i64 887}
!898 = !{i64 888}
!899 = !{i64 889}
!900 = !{i64 890}
!901 = !{i64 891}
!902 = !{i64 892}
!903 = !{i64 893}
!904 = !{i64 894}
!905 = !{i64 895}
!906 = !{i64 896}
!907 = !{i64 897}
!908 = !{i64 898}
!909 = !{i64 899}
!910 = !{i64 900}
!911 = !{i64 901}
!912 = !{i64 902}
!913 = !{i64 903}
!914 = !{i64 904}
!915 = !{i64 905}
!916 = !{i64 906}
!917 = !{i64 907}
!918 = !{i64 908}
!919 = !{i64 909}
!920 = !{i64 910}
!921 = !{i64 911}
!922 = !{i64 912}
!923 = !{i64 913}
!924 = !{i64 914}
!925 = !{i64 915}
!926 = !{i64 916}
!927 = !{i64 917}
!928 = !{i64 918}
!929 = !{i64 919}
!930 = !{i64 920}
!931 = !{i64 921}
!932 = !{i64 922}
!933 = !{i64 923}
!934 = !{i64 924}
!935 = !{i64 925}
!936 = !{i64 926}
!937 = !{i64 927}
!938 = !{i64 928}
!939 = !{i64 929}
!940 = !{i64 930}
!941 = !{i64 931}
!942 = !{i64 932}
!943 = !{i64 933}
!944 = !{i64 934}
!945 = !{i64 935}
!946 = !{i64 936}
!947 = !{i64 937}
!948 = !{i64 938}
!949 = !{i64 939}
!950 = !{i64 940}
!951 = !{i64 941}
!952 = !{i64 942}
!953 = !{i64 943}
!954 = !{i64 944}
!955 = !{i64 945}
!956 = !{i64 946}
!957 = !{i64 947}
!958 = !{i64 948}
!959 = !{i64 949}
!960 = !{i64 950}
!961 = !{i64 951}
!962 = !{i64 952}
!963 = !{i64 953}
!964 = !{i64 954}
!965 = !{i64 955}
!966 = !{i64 956}
!967 = !{i64 957}
!968 = !{i64 958}
!969 = !{i64 959}
!970 = !{i64 960}
!971 = !{i64 961}
!972 = !{i64 962}
!973 = !{i64 963}
!974 = !{i64 964}
!975 = !{i64 965}
!976 = !{i64 966}
!977 = !{i64 967}
!978 = !{i64 968}
!979 = !{i64 969}
!980 = !{i64 970}
!981 = !{i64 971}
!982 = !{i64 972}
!983 = !{i64 973}
!984 = !{i64 974}
!985 = !{i64 975}
!986 = !{i64 976}
!987 = !{i64 977}
!988 = !{i64 978}
!989 = !{i64 979}
!990 = !{i64 980}
!991 = !{i64 981}
!992 = !{i64 982}
!993 = !{i64 983}
!994 = !{i64 984}
!995 = !{i64 985}
!996 = !{i64 986}
!997 = !{i64 987}
!998 = !{i64 988}
!999 = !{i64 989}
!1000 = !{i64 990}
!1001 = !{i64 991}
!1002 = !{i64 992}
!1003 = !{i64 993}
!1004 = !{i64 994}
!1005 = !{i64 995}
!1006 = !{i64 996}
!1007 = !{i64 997}
!1008 = !{i64 998}
!1009 = !{i64 999}
!1010 = !{i64 1000}
!1011 = !{i64 1001}
!1012 = !{i64 1002}
!1013 = !{i64 1003}
!1014 = !{i64 1004}
!1015 = !{i64 1005}
!1016 = !{i64 1006}
!1017 = !{i64 1007}
!1018 = !{i64 1008}
!1019 = !{i64 1009}
!1020 = !{i64 1010}
!1021 = !{i64 1011}
!1022 = !{i64 1012}
!1023 = !{i64 1013}
!1024 = !{i64 1014}
!1025 = !{i64 1015}
!1026 = !{i64 1016}
!1027 = !{i64 1017}
!1028 = !{i64 1018}
!1029 = !{i64 1019}
!1030 = !{i64 1020}
!1031 = !{i64 1021}
!1032 = !{i64 1022}
!1033 = !{i64 1023}
!1034 = !{i64 1024}
!1035 = !{i64 1025}
!1036 = !{i64 1026}
!1037 = !{i64 1027}
!1038 = !{i64 1028}
!1039 = !{i64 1029}
!1040 = !{i64 1030}
!1041 = !{i64 1031}
!1042 = !{i64 1032}
!1043 = !{i64 1033}
!1044 = !{i64 1034}
!1045 = !{i64 1035}
!1046 = !{i64 1036}
!1047 = !{i64 1037}
!1048 = !{i64 1038}
!1049 = !{i64 1039}
!1050 = !{i64 1040}
!1051 = !{i64 1041}
!1052 = !{i64 1042}
!1053 = !{i64 1043}
!1054 = !{i64 1044}
!1055 = !{i64 1045}
!1056 = !{i64 1046}
!1057 = !{i64 1047}
!1058 = !{i64 1048}
!1059 = !{i64 1049}
!1060 = !{i64 1050}
!1061 = !{i64 1051}
!1062 = !{i64 1052}
!1063 = !{i64 1053}
!1064 = !{i64 1054}
!1065 = !{i64 1055}
!1066 = !{i64 1056}
!1067 = !{i64 1057}
!1068 = !{i64 1058}
!1069 = !{i64 1059}
!1070 = !{i64 1060}
!1071 = !{i64 1061}
!1072 = !{i64 1062}
!1073 = !{i64 1063}
!1074 = !{i64 1064}
!1075 = !{i64 1065}
!1076 = !{i64 1066}
!1077 = !{i64 1067}
!1078 = !{i64 1068}
!1079 = !{i64 1069}
!1080 = !{i64 1070}
!1081 = !{i64 1071}
!1082 = !{i64 1072}
!1083 = !{i64 1073}
!1084 = !{i64 1074}
!1085 = !{i64 1075}
!1086 = !{i64 1076}
!1087 = !{i64 1077}
!1088 = !{i64 1078}
!1089 = !{i64 1079}
!1090 = !{i64 1080}
!1091 = !{i64 1081}
!1092 = !{i64 1082}
!1093 = !{i64 1083}
!1094 = !{i64 1084}
!1095 = !{i64 1085}
!1096 = !{i64 1086}
!1097 = !{i64 1087}
!1098 = !{i64 1088}
