; ModuleID = '/home/hjiang/Computation-Kernel-Dataset/experiments/Fault_injection_0308_parall/O0/Service_lane/Service_lane.ll'
source_filename = "llvm-link"
target datalayout = "e-m:e-p270:32:32-p271:32:32-p272:64:64-i64:64-f80:128-n8:16:32:64-S128"
target triple = "x86_64-unknown-linux-gnu"

%"class.std::ios_base::Init" = type { i8 }
%struct._IO_FILE = type { i32, i8*, i8*, i8*, i8*, i8*, i8*, i8*, i8*, i8*, i8*, i8*, %struct._IO_marker*, %struct._IO_FILE*, i32, i32, i64, i16, i8, [1 x i8], i8*, i64, %struct._IO_codecvt*, %struct._IO_wide_data*, %struct._IO_FILE*, i8*, i64, i32, [20 x i8] }
%struct._IO_marker = type opaque
%struct._IO_codecvt = type opaque
%struct._IO_wide_data = type opaque
%"class.std::basic_istream" = type { i32 (...)**, i64, %"class.std::basic_ios" }
%"class.std::basic_ios" = type { %"class.std::ios_base", %"class.std::basic_ostream"*, i8, i8, %"class.std::basic_streambuf"*, %"class.std::ctype"*, %"class.std::num_put"*, %"class.std::num_put"* }
%"class.std::ios_base" = type { i32 (...)**, i64, i64, i32, i32, i32, %"struct.std::ios_base::_Callback_list"*, %"struct.std::ios_base::_Words", [8 x %"struct.std::ios_base::_Words"], i32, %"struct.std::ios_base::_Words"*, %"class.std::locale" }
%"struct.std::ios_base::_Callback_list" = type { %"struct.std::ios_base::_Callback_list"*, void (i32, %"class.std::ios_base"*, i32)*, i32, i32 }
%"struct.std::ios_base::_Words" = type { i8*, i64 }
%"class.std::locale" = type { %"class.std::locale::_Impl"* }
%"class.std::locale::_Impl" = type { i32, %"class.std::locale::facet"**, i64, %"class.std::locale::facet"**, i8** }
%"class.std::locale::facet" = type <{ i32 (...)**, i32, [4 x i8] }>
%"class.std::basic_ostream" = type { i32 (...)**, %"class.std::basic_ios" }
%"class.std::basic_streambuf" = type { i32 (...)**, i8*, i8*, i8*, i8*, i8*, i8*, %"class.std::locale" }
%"class.std::ctype" = type <{ %"class.std::locale::facet.base", [4 x i8], %struct.__locale_struct*, i8, [7 x i8], i32*, i32*, i16*, i8, [256 x i8], [256 x i8], i8, [6 x i8] }>
%"class.std::locale::facet.base" = type <{ i32 (...)**, i32 }>
%struct.__locale_struct = type { [13 x %struct.__locale_data*], i16*, i32*, i32*, [13 x i8*] }
%struct.__locale_data = type opaque
%"class.std::num_put" = type { %"class.std::locale::facet.base", [4 x i8] }

$_ZSt11min_elementIPjET_S1_S1_ = comdat any

$_ZN9__gnu_cxx5__ops16__iter_less_iterEv = comdat any

$_ZSt13__min_elementIPjN9__gnu_cxx5__ops15_Iter_less_iterEET_S4_S4_T0_ = comdat any

$_ZNK9__gnu_cxx5__ops15_Iter_less_iterclIPjS3_EEbT_T0_ = comdat any

@llvm.global_ctors = appending global [1 x { i32, void ()*, i8* }] [{ i32, void ()*, i8* } { i32 65535, void ()* @_GLOBAL__sub_I_Service_lane.cpp, i8* null }]
@_ZStL8__ioinit = internal global %"class.std::ios_base::Init" zeroinitializer, align 1
@.str = private unnamed_addr constant [28 x i8] c"../input_files/Service_lane\00", align 1
@.str.1 = private unnamed_addr constant [2 x i8] c"r\00", align 1
@stdin = external dso_local global %struct._IO_FILE*, align 8
@_ZSt3cin = external dso_local global %"class.std::basic_istream", align 8
@_ZSt4cout = external dso_local global %"class.std::basic_ostream", align 8

; Function Attrs: noinline uwtable
define internal void @_GLOBAL__sub_I_Service_lane.cpp() #0 section ".text.startup" {
  call void @__cxx_global_var_init(), !llfi_index !4
  ret void, !llfi_index !5
}

; Function Attrs: noinline uwtable
define internal void @__cxx_global_var_init() #0 section ".text.startup" {
  call void @_ZNSt8ios_base4InitC1Ev(%"class.std::ios_base::Init"* nonnull align 1 dereferenceable(1) @_ZStL8__ioinit), !llfi_index !6
  %1 = call i32 @atexit(void ()* @__dtor__ZStL8__ioinit) #2, !llfi_index !7
  ret void, !llfi_index !8
}

declare dso_local void @_ZNSt8ios_base4InitC1Ev(%"class.std::ios_base::Init"* nonnull align 1 dereferenceable(1)) unnamed_addr #1

; Function Attrs: noinline uwtable
define internal void @__dtor__ZStL8__ioinit() #0 section ".text.startup" {
  call void @_ZNSt8ios_base4InitD1Ev(%"class.std::ios_base::Init"* @_ZStL8__ioinit), !llfi_index !9
  ret void, !llfi_index !10
}

; Function Attrs: nounwind
declare dso_local i32 @atexit(void ()*) #2

; Function Attrs: nounwind
declare dso_local void @_ZNSt8ios_base4InitD1Ev(%"class.std::ios_base::Init"* nonnull align 1 dereferenceable(1)) unnamed_addr #3

; Function Attrs: mustprogress noinline norecurse uwtable
define dso_local i32 @main() #4 {
  %1 = alloca i32, align 4, !llfi_index !11
  %2 = alloca i32, align 4, !llfi_index !12
  %3 = alloca i32, align 4, !llfi_index !13
  %4 = alloca i32, align 4, !llfi_index !14
  %5 = alloca i32, align 4, !llfi_index !15
  %6 = alloca i32*, align 8, !llfi_index !16
  %7 = alloca i32, align 4, !llfi_index !17
  %8 = alloca i32, align 4, !llfi_index !18
  %9 = alloca i32, align 4, !llfi_index !19
  store i32 0, i32* %1, align 4, !llfi_index !20
  %10 = load %struct._IO_FILE*, %struct._IO_FILE** @stdin, align 8, !llfi_index !21
  %11 = call %struct._IO_FILE* @freopen(i8* getelementptr inbounds ([28 x i8], [28 x i8]* @.str, i64 0, i64 0), i8* getelementptr inbounds ([2 x i8], [2 x i8]* @.str.1, i64 0, i64 0), %struct._IO_FILE* %10), !llfi_index !22
  %12 = call nonnull align 8 dereferenceable(16) %"class.std::basic_istream"* @_ZNSirsERj(%"class.std::basic_istream"* nonnull align 8 dereferenceable(16) @_ZSt3cin, i32* nonnull align 4 dereferenceable(4) %2), !llfi_index !23
  %13 = call nonnull align 8 dereferenceable(16) %"class.std::basic_istream"* @_ZNSirsERj(%"class.std::basic_istream"* nonnull align 8 dereferenceable(16) @_ZSt3cin, i32* nonnull align 4 dereferenceable(4) %3), !llfi_index !24
  %14 = load i32, i32* %2, align 4, !llfi_index !25
  %15 = zext i32 %14 to i64, !llfi_index !26
  %16 = call { i64, i1 } @llvm.umul.with.overflow.i64(i64 %15, i64 4), !llfi_index !27
  %17 = extractvalue { i64, i1 } %16, 1, !llfi_index !28
  %18 = extractvalue { i64, i1 } %16, 0, !llfi_index !29
  %19 = select i1 %17, i64 -1, i64 %18, !llfi_index !30
  %20 = call noalias nonnull i8* @_Znam(i64 %19) #10, !llfi_index !31
  %21 = bitcast i8* %20 to i32*, !llfi_index !32
  store i32* %21, i32** %6, align 8, !llfi_index !33
  store i32 89, i32* %7, align 4, !llfi_index !34
  store i32 0, i32* %8, align 4, !llfi_index !35
  br label %22, !llfi_index !36

22:                                               ; preds = %32, %0
  %23 = load i32, i32* %8, align 4, !llfi_index !37
  %24 = load i32, i32* %2, align 4, !llfi_index !38
  %25 = icmp ult i32 %23, %24, !llfi_index !39
  br i1 %25, label %26, label %35, !llfi_index !40

26:                                               ; preds = %22
  %27 = load i32*, i32** %6, align 8, !llfi_index !41
  %28 = load i32, i32* %8, align 4, !llfi_index !42
  %29 = sext i32 %28 to i64, !llfi_index !43
  %30 = getelementptr inbounds i32, i32* %27, i64 %29, !llfi_index !44
  %31 = call nonnull align 8 dereferenceable(16) %"class.std::basic_istream"* @_ZNSirsERj(%"class.std::basic_istream"* nonnull align 8 dereferenceable(16) @_ZSt3cin, i32* nonnull align 4 dereferenceable(4) %30), !llfi_index !45
  br label %32, !llfi_index !46

32:                                               ; preds = %26
  %33 = load i32, i32* %8, align 4, !llfi_index !47
  %34 = add nsw i32 %33, 1, !llfi_index !48
  store i32 %34, i32* %8, align 4, !llfi_index !49
  br label %22, !llvm.loop !50, !llfi_index !52

35:                                               ; preds = %22
  store i32 89, i32* %7, align 4, !llfi_index !53
  store i32 0, i32* %9, align 4, !llfi_index !54
  br label %36, !llfi_index !55

36:                                               ; preds = %56, %35
  %37 = load i32, i32* %9, align 4, !llfi_index !56
  %38 = load i32, i32* %3, align 4, !llfi_index !57
  %39 = icmp ult i32 %37, %38, !llfi_index !58
  br i1 %39, label %40, label %59, !llfi_index !59

40:                                               ; preds = %36
  %41 = call nonnull align 8 dereferenceable(16) %"class.std::basic_istream"* @_ZNSirsERj(%"class.std::basic_istream"* nonnull align 8 dereferenceable(16) @_ZSt3cin, i32* nonnull align 4 dereferenceable(4) %4), !llfi_index !60
  %42 = call nonnull align 8 dereferenceable(16) %"class.std::basic_istream"* @_ZNSirsERj(%"class.std::basic_istream"* nonnull align 8 dereferenceable(16) @_ZSt3cin, i32* nonnull align 4 dereferenceable(4) %5), !llfi_index !61
  %43 = load i32*, i32** %6, align 8, !llfi_index !62
  %44 = load i32, i32* %4, align 4, !llfi_index !63
  %45 = zext i32 %44 to i64, !llfi_index !64
  %46 = getelementptr inbounds i32, i32* %43, i64 %45, !llfi_index !65
  %47 = load i32*, i32** %6, align 8, !llfi_index !66
  %48 = load i32, i32* %5, align 4, !llfi_index !67
  %49 = zext i32 %48 to i64, !llfi_index !68
  %50 = getelementptr inbounds i32, i32* %47, i64 %49, !llfi_index !69
  %51 = getelementptr inbounds i32, i32* %50, i64 1, !llfi_index !70
  %52 = call i32* @_ZSt11min_elementIPjET_S1_S1_(i32* %46, i32* %51), !llfi_index !71
  %53 = load i32, i32* %52, align 4, !llfi_index !72
  %54 = call nonnull align 8 dereferenceable(8) %"class.std::basic_ostream"* @_ZNSolsEj(%"class.std::basic_ostream"* nonnull align 8 dereferenceable(8) @_ZSt4cout, i32 %53), !llfi_index !73
  %55 = call nonnull align 8 dereferenceable(8) %"class.std::basic_ostream"* @_ZNSolsEPFRSoS_E(%"class.std::basic_ostream"* nonnull align 8 dereferenceable(8) %54, %"class.std::basic_ostream"* (%"class.std::basic_ostream"*)* @_ZSt4endlIcSt11char_traitsIcEERSt13basic_ostreamIT_T0_ES6_), !llfi_index !74
  br label %56, !llfi_index !75

56:                                               ; preds = %40
  %57 = load i32, i32* %9, align 4, !llfi_index !76
  %58 = add nsw i32 %57, 1, !llfi_index !77
  store i32 %58, i32* %9, align 4, !llfi_index !78
  br label %36, !llvm.loop !79, !llfi_index !80

59:                                               ; preds = %36
  %60 = load i32*, i32** %6, align 8, !llfi_index !81
  %61 = icmp eq i32* %60, null, !llfi_index !82
  br i1 %61, label %64, label %62, !llfi_index !83

62:                                               ; preds = %59
  %63 = bitcast i32* %60 to i8*, !llfi_index !84
  call void @_ZdaPv(i8* %63) #11, !llfi_index !85
  br label %64, !llfi_index !86

64:                                               ; preds = %62, %59
  ret i32 0, !llfi_index !87
}

declare dso_local %struct._IO_FILE* @freopen(i8*, i8*, %struct._IO_FILE*) #1

declare dso_local nonnull align 8 dereferenceable(16) %"class.std::basic_istream"* @_ZNSirsERj(%"class.std::basic_istream"* nonnull align 8 dereferenceable(16), i32* nonnull align 4 dereferenceable(4)) #1

; Function Attrs: nofree nosync nounwind readnone speculatable willreturn
declare { i64, i1 } @llvm.umul.with.overflow.i64(i64, i64) #5

; Function Attrs: nobuiltin allocsize(0)
declare dso_local nonnull i8* @_Znam(i64) #6

; Function Attrs: mustprogress noinline uwtable
define linkonce_odr dso_local i32* @_ZSt11min_elementIPjET_S1_S1_(i32* %0, i32* %1) #7 comdat {
  %3 = alloca i32*, align 8, !llfi_index !88
  %4 = alloca i32*, align 8, !llfi_index !89
  %5 = alloca %"class.std::ios_base::Init", align 1, !llfi_index !90
  %6 = alloca %"class.std::ios_base::Init", align 1, !llfi_index !91
  store i32* %0, i32** %3, align 8, !llfi_index !92
  store i32* %1, i32** %4, align 8, !llfi_index !93
  %7 = load i32*, i32** %3, align 8, !llfi_index !94
  %8 = load i32*, i32** %4, align 8, !llfi_index !95
  call void @_ZN9__gnu_cxx5__ops16__iter_less_iterEv(), !llfi_index !96
  %9 = call i32* @_ZSt13__min_elementIPjN9__gnu_cxx5__ops15_Iter_less_iterEET_S4_S4_T0_(i32* %7, i32* %8), !llfi_index !97
  ret i32* %9, !llfi_index !98
}

declare dso_local nonnull align 8 dereferenceable(8) %"class.std::basic_ostream"* @_ZNSolsEj(%"class.std::basic_ostream"* nonnull align 8 dereferenceable(8), i32) #1

declare dso_local nonnull align 8 dereferenceable(8) %"class.std::basic_ostream"* @_ZSt4endlIcSt11char_traitsIcEERSt13basic_ostreamIT_T0_ES6_(%"class.std::basic_ostream"* nonnull align 8 dereferenceable(8)) #1

declare dso_local nonnull align 8 dereferenceable(8) %"class.std::basic_ostream"* @_ZNSolsEPFRSoS_E(%"class.std::basic_ostream"* nonnull align 8 dereferenceable(8), %"class.std::basic_ostream"* (%"class.std::basic_ostream"*)*) #1

; Function Attrs: nobuiltin nounwind
declare dso_local void @_ZdaPv(i8*) #8

; Function Attrs: mustprogress noinline nounwind uwtable
define linkonce_odr dso_local void @_ZN9__gnu_cxx5__ops16__iter_less_iterEv() #9 comdat {
  ret void, !llfi_index !99
}

; Function Attrs: mustprogress noinline uwtable
define linkonce_odr dso_local i32* @_ZSt13__min_elementIPjN9__gnu_cxx5__ops15_Iter_less_iterEET_S4_S4_T0_(i32* %0, i32* %1) #7 comdat {
  %3 = alloca i32*, align 8, !llfi_index !100
  %4 = alloca %"class.std::ios_base::Init", align 1, !llfi_index !101
  %5 = alloca i32*, align 8, !llfi_index !102
  %6 = alloca i32*, align 8, !llfi_index !103
  %7 = alloca i32*, align 8, !llfi_index !104
  store i32* %0, i32** %5, align 8, !llfi_index !105
  store i32* %1, i32** %6, align 8, !llfi_index !106
  %8 = load i32*, i32** %5, align 8, !llfi_index !107
  %9 = load i32*, i32** %6, align 8, !llfi_index !108
  %10 = icmp eq i32* %8, %9, !llfi_index !109
  br i1 %10, label %11, label %13, !llfi_index !110

11:                                               ; preds = %2
  %12 = load i32*, i32** %5, align 8, !llfi_index !111
  store i32* %12, i32** %3, align 8, !llfi_index !112
  br label %29, !llfi_index !113

13:                                               ; preds = %2
  %14 = load i32*, i32** %5, align 8, !llfi_index !114
  store i32* %14, i32** %7, align 8, !llfi_index !115
  br label %15, !llfi_index !116

15:                                               ; preds = %26, %13
  %16 = load i32*, i32** %5, align 8, !llfi_index !117
  %17 = getelementptr inbounds i32, i32* %16, i32 1, !llfi_index !118
  store i32* %17, i32** %5, align 8, !llfi_index !119
  %18 = load i32*, i32** %6, align 8, !llfi_index !120
  %19 = icmp ne i32* %17, %18, !llfi_index !121
  br i1 %19, label %20, label %27, !llfi_index !122

20:                                               ; preds = %15
  %21 = load i32*, i32** %5, align 8, !llfi_index !123
  %22 = load i32*, i32** %7, align 8, !llfi_index !124
  %23 = call zeroext i1 @_ZNK9__gnu_cxx5__ops15_Iter_less_iterclIPjS3_EEbT_T0_(%"class.std::ios_base::Init"* nonnull align 1 dereferenceable(1) %4, i32* %21, i32* %22), !llfi_index !125
  br i1 %23, label %24, label %26, !llfi_index !126

24:                                               ; preds = %20
  %25 = load i32*, i32** %5, align 8, !llfi_index !127
  store i32* %25, i32** %7, align 8, !llfi_index !128
  br label %26, !llfi_index !129

26:                                               ; preds = %24, %20
  br label %15, !llvm.loop !130, !llfi_index !131

27:                                               ; preds = %15
  %28 = load i32*, i32** %7, align 8, !llfi_index !132
  store i32* %28, i32** %3, align 8, !llfi_index !133
  br label %29, !llfi_index !134

29:                                               ; preds = %27, %11
  %30 = load i32*, i32** %3, align 8, !llfi_index !135
  ret i32* %30, !llfi_index !136
}

; Function Attrs: mustprogress noinline nounwind uwtable
define linkonce_odr dso_local zeroext i1 @_ZNK9__gnu_cxx5__ops15_Iter_less_iterclIPjS3_EEbT_T0_(%"class.std::ios_base::Init"* nonnull align 1 dereferenceable(1) %0, i32* %1, i32* %2) #9 comdat align 2 {
  %4 = alloca %"class.std::ios_base::Init"*, align 8, !llfi_index !137
  %5 = alloca i32*, align 8, !llfi_index !138
  %6 = alloca i32*, align 8, !llfi_index !139
  store %"class.std::ios_base::Init"* %0, %"class.std::ios_base::Init"** %4, align 8, !llfi_index !140
  store i32* %1, i32** %5, align 8, !llfi_index !141
  store i32* %2, i32** %6, align 8, !llfi_index !142
  %7 = load %"class.std::ios_base::Init"*, %"class.std::ios_base::Init"** %4, align 8, !llfi_index !143
  %8 = load i32*, i32** %5, align 8, !llfi_index !144
  %9 = load i32, i32* %8, align 4, !llfi_index !145
  %10 = load i32*, i32** %6, align 8, !llfi_index !146
  %11 = load i32, i32* %10, align 4, !llfi_index !147
  %12 = icmp ult i32 %9, %11, !llfi_index !148
  ret i1 %12, !llfi_index !149
}

attributes #0 = { noinline uwtable "frame-pointer"="all" "min-legal-vector-width"="0" "no-trapping-math"="true" "stack-protector-buffer-size"="8" "target-cpu"="x86-64" "target-features"="+cx8,+fxsr,+mmx,+sse,+sse2,+x87" "tune-cpu"="generic" }
attributes #1 = { "frame-pointer"="all" "no-trapping-math"="true" "stack-protector-buffer-size"="8" "target-cpu"="x86-64" "target-features"="+cx8,+fxsr,+mmx,+sse,+sse2,+x87" "tune-cpu"="generic" }
attributes #2 = { nounwind }
attributes #3 = { nounwind "frame-pointer"="all" "no-trapping-math"="true" "stack-protector-buffer-size"="8" "target-cpu"="x86-64" "target-features"="+cx8,+fxsr,+mmx,+sse,+sse2,+x87" "tune-cpu"="generic" }
attributes #4 = { mustprogress noinline norecurse uwtable "frame-pointer"="all" "min-legal-vector-width"="0" "no-trapping-math"="true" "stack-protector-buffer-size"="8" "target-cpu"="x86-64" "target-features"="+cx8,+fxsr,+mmx,+sse,+sse2,+x87" "tune-cpu"="generic" }
attributes #5 = { nofree nosync nounwind readnone speculatable willreturn }
attributes #6 = { nobuiltin allocsize(0) "frame-pointer"="all" "no-trapping-math"="true" "stack-protector-buffer-size"="8" "target-cpu"="x86-64" "target-features"="+cx8,+fxsr,+mmx,+sse,+sse2,+x87" "tune-cpu"="generic" }
attributes #7 = { mustprogress noinline uwtable "frame-pointer"="all" "min-legal-vector-width"="0" "no-trapping-math"="true" "stack-protector-buffer-size"="8" "target-cpu"="x86-64" "target-features"="+cx8,+fxsr,+mmx,+sse,+sse2,+x87" "tune-cpu"="generic" }
attributes #8 = { nobuiltin nounwind "frame-pointer"="all" "no-trapping-math"="true" "stack-protector-buffer-size"="8" "target-cpu"="x86-64" "target-features"="+cx8,+fxsr,+mmx,+sse,+sse2,+x87" "tune-cpu"="generic" }
attributes #9 = { mustprogress noinline nounwind uwtable "frame-pointer"="all" "min-legal-vector-width"="0" "no-trapping-math"="true" "stack-protector-buffer-size"="8" "target-cpu"="x86-64" "target-features"="+cx8,+fxsr,+mmx,+sse,+sse2,+x87" "tune-cpu"="generic" }
attributes #10 = { builtin allocsize(0) }
attributes #11 = { builtin nounwind }

!llvm.ident = !{!0}
!llvm.module.flags = !{!1, !2, !3}

!0 = !{!"clang version 13.0.0 (https://github.com/llvm/llvm-project.git d7b669b3a30345cfcdb2fde2af6f48aa4b94845d)"}
!1 = !{i32 1, !"wchar_size", i32 4}
!2 = !{i32 7, !"uwtable", i32 1}
!3 = !{i32 7, !"frame-pointer", i32 2}
!4 = !{i64 1}
!5 = !{i64 2}
!6 = !{i64 3}
!7 = !{i64 4}
!8 = !{i64 5}
!9 = !{i64 6}
!10 = !{i64 7}
!11 = !{i64 8}
!12 = !{i64 9}
!13 = !{i64 10}
!14 = !{i64 11}
!15 = !{i64 12}
!16 = !{i64 13}
!17 = !{i64 14}
!18 = !{i64 15}
!19 = !{i64 16}
!20 = !{i64 17}
!21 = !{i64 18}
!22 = !{i64 19}
!23 = !{i64 20}
!24 = !{i64 21}
!25 = !{i64 22}
!26 = !{i64 23}
!27 = !{i64 24}
!28 = !{i64 25}
!29 = !{i64 26}
!30 = !{i64 27}
!31 = !{i64 28}
!32 = !{i64 29}
!33 = !{i64 30}
!34 = !{i64 31}
!35 = !{i64 32}
!36 = !{i64 33}
!37 = !{i64 34}
!38 = !{i64 35}
!39 = !{i64 36}
!40 = !{i64 37}
!41 = !{i64 38}
!42 = !{i64 39}
!43 = !{i64 40}
!44 = !{i64 41}
!45 = !{i64 42}
!46 = !{i64 43}
!47 = !{i64 44}
!48 = !{i64 45}
!49 = !{i64 46}
!50 = distinct !{!50, !51}
!51 = !{!"llvm.loop.mustprogress"}
!52 = !{i64 47}
!53 = !{i64 48}
!54 = !{i64 49}
!55 = !{i64 50}
!56 = !{i64 51}
!57 = !{i64 52}
!58 = !{i64 53}
!59 = !{i64 54}
!60 = !{i64 55}
!61 = !{i64 56}
!62 = !{i64 57}
!63 = !{i64 58}
!64 = !{i64 59}
!65 = !{i64 60}
!66 = !{i64 61}
!67 = !{i64 62}
!68 = !{i64 63}
!69 = !{i64 64}
!70 = !{i64 65}
!71 = !{i64 66}
!72 = !{i64 67}
!73 = !{i64 68}
!74 = !{i64 69}
!75 = !{i64 70}
!76 = !{i64 71}
!77 = !{i64 72}
!78 = !{i64 73}
!79 = distinct !{!79, !51}
!80 = !{i64 74}
!81 = !{i64 75}
!82 = !{i64 76}
!83 = !{i64 77}
!84 = !{i64 78}
!85 = !{i64 79}
!86 = !{i64 80}
!87 = !{i64 81}
!88 = !{i64 82}
!89 = !{i64 83}
!90 = !{i64 84}
!91 = !{i64 85}
!92 = !{i64 86}
!93 = !{i64 87}
!94 = !{i64 88}
!95 = !{i64 89}
!96 = !{i64 90}
!97 = !{i64 91}
!98 = !{i64 92}
!99 = !{i64 93}
!100 = !{i64 94}
!101 = !{i64 95}
!102 = !{i64 96}
!103 = !{i64 97}
!104 = !{i64 98}
!105 = !{i64 99}
!106 = !{i64 100}
!107 = !{i64 101}
!108 = !{i64 102}
!109 = !{i64 103}
!110 = !{i64 104}
!111 = !{i64 105}
!112 = !{i64 106}
!113 = !{i64 107}
!114 = !{i64 108}
!115 = !{i64 109}
!116 = !{i64 110}
!117 = !{i64 111}
!118 = !{i64 112}
!119 = !{i64 113}
!120 = !{i64 114}
!121 = !{i64 115}
!122 = !{i64 116}
!123 = !{i64 117}
!124 = !{i64 118}
!125 = !{i64 119}
!126 = !{i64 120}
!127 = !{i64 121}
!128 = !{i64 122}
!129 = !{i64 123}
!130 = distinct !{!130, !51}
!131 = !{i64 124}
!132 = !{i64 125}
!133 = !{i64 126}
!134 = !{i64 127}
!135 = !{i64 128}
!136 = !{i64 129}
!137 = !{i64 130}
!138 = !{i64 131}
!139 = !{i64 132}
!140 = !{i64 133}
!141 = !{i64 134}
!142 = !{i64 135}
!143 = !{i64 136}
!144 = !{i64 137}
!145 = !{i64 138}
!146 = !{i64 139}
!147 = !{i64 140}
!148 = !{i64 141}
!149 = !{i64 142}
