; ModuleID = '/home/hjiang/Computation-Kernel-Dataset/experiments/Fault_injection_0308_parall/O0/SherlockAndPairs/SherlockAndPairs.ll'
source_filename = "llvm-link"
target datalayout = "e-m:e-p270:32:32-p271:32:32-p272:64:64-i64:64-f80:128-n8:16:32:64-S128"
target triple = "x86_64-unknown-linux-gnu"

%"class.std::ios_base::Init" = type { i8 }
%struct._IO_FILE = type { i32, i8*, i8*, i8*, i8*, i8*, i8*, i8*, i8*, i8*, i8*, i8*, %struct._IO_marker*, %struct._IO_FILE*, i32, i32, i64, i16, i8, [1 x i8], i8*, i64, %struct._IO_codecvt*, %struct._IO_wide_data*, %struct._IO_FILE*, i8*, i64, i32, [20 x i8] }
%struct._IO_marker = type opaque
%struct._IO_codecvt = type opaque
%struct._IO_wide_data = type opaque
%"class.std::basic_istream" = type { i32 (...)**, i64, %"class.std::basic_ios" }
%"class.std::basic_ios" = type { %"class.std::ios_base", %"class.std::basic_ostream"*, i8, i8, %"class.std::basic_streambuf"*, %"class.std::ctype"*, %"class.std::num_put"*, %"class.std::num_put"* }
%"class.std::ios_base" = type { i32 (...)**, i64, i64, i32, i32, i32, %"struct.std::ios_base::_Callback_list"*, %"struct.std::ios_base::_Words", [8 x %"struct.std::ios_base::_Words"], i32, %"struct.std::ios_base::_Words"*, %"class.std::locale" }
%"struct.std::ios_base::_Callback_list" = type { %"struct.std::ios_base::_Callback_list"*, void (i32, %"class.std::ios_base"*, i32)*, i32, i32 }
%"struct.std::ios_base::_Words" = type { i8*, i64 }
%"class.std::locale" = type { %"class.std::locale::_Impl"* }
%"class.std::locale::_Impl" = type { i32, %"class.std::locale::facet"**, i64, %"class.std::locale::facet"**, i8** }
%"class.std::locale::facet" = type <{ i32 (...)**, i32, [4 x i8] }>
%"class.std::basic_ostream" = type { i32 (...)**, %"class.std::basic_ios" }
%"class.std::basic_streambuf" = type { i32 (...)**, i8*, i8*, i8*, i8*, i8*, i8*, %"class.std::locale" }
%"class.std::ctype" = type <{ %"class.std::locale::facet.base", [4 x i8], %struct.__locale_struct*, i8, [7 x i8], i32*, i32*, i16*, i8, [256 x i8], [256 x i8], i8, [6 x i8] }>
%"class.std::locale::facet.base" = type <{ i32 (...)**, i32 }>
%struct.__locale_struct = type { [13 x %struct.__locale_data*], i16*, i32*, i32*, [13 x i8*] }
%struct.__locale_data = type opaque
%"class.std::num_put" = type { %"class.std::locale::facet.base", [4 x i8] }
%"class.std::map" = type { %"class.std::_Rb_tree" }
%"class.std::_Rb_tree" = type { %"struct.std::_Rb_tree<long, std::pair<const long, long>, std::_Select1st<std::pair<const long, long>>, std::less<long>>::_Rb_tree_impl" }
%"struct.std::_Rb_tree<long, std::pair<const long, long>, std::_Select1st<std::pair<const long, long>>, std::less<long>>::_Rb_tree_impl" = type { %"struct.std::_Rb_tree_key_compare", %"struct.std::_Rb_tree_header" }
%"struct.std::_Rb_tree_key_compare" = type { %"class.std::ios_base::Init" }
%"struct.std::_Rb_tree_header" = type { %"struct.std::_Rb_tree_node_base", i64 }
%"struct.std::_Rb_tree_node_base" = type { i32, %"struct.std::_Rb_tree_node_base"*, %"struct.std::_Rb_tree_node_base"*, %"struct.std::_Rb_tree_node_base"* }
%"struct.std::_Rb_tree_const_iterator" = type { %"struct.std::_Rb_tree_node_base"* }
%"struct.std::pair" = type { i64, i64 }
%"class.std::tuple" = type { %"struct.std::_Tuple_impl" }
%"struct.std::_Tuple_impl" = type { %"struct.std::_Head_base" }
%"struct.std::_Head_base" = type { i64* }
%"struct.std::_Rb_tree_node" = type { %"struct.std::_Rb_tree_node_base", %"struct.__gnu_cxx::__aligned_membuf" }
%"struct.__gnu_cxx::__aligned_membuf" = type { [16 x i8] }
%"struct.std::pair.1" = type { %"struct.std::_Rb_tree_node_base"*, %"struct.std::_Rb_tree_node_base"* }

$_ZNSt3mapIllSt4lessIlESaISt4pairIKllEEEC2Ev = comdat any

$_ZNSt3mapIllSt4lessIlESaISt4pairIKllEEEixERS3_ = comdat any

$_ZNSt3mapIllSt4lessIlESaISt4pairIKllEEED2Ev = comdat any

$_ZNSt23_Rb_tree_const_iteratorISt4pairIKllEEC2Ev = comdat any

$_ZNSt3mapIllSt4lessIlESaISt4pairIKllEEE5beginEv = comdat any

$_ZNSt23_Rb_tree_const_iteratorISt4pairIKllEEC2ERKSt17_Rb_tree_iteratorIS2_E = comdat any

$_ZNSt3mapIllSt4lessIlESaISt4pairIKllEEE3endEv = comdat any

$_ZStneRKSt23_Rb_tree_const_iteratorISt4pairIKllEES5_ = comdat any

$_ZNKSt23_Rb_tree_const_iteratorISt4pairIKllEEptEv = comdat any

$_ZNSt23_Rb_tree_const_iteratorISt4pairIKllEEppEi = comdat any

$_ZNKSt13_Rb_tree_nodeISt4pairIKllEE9_M_valptrEv = comdat any

$_ZNK9__gnu_cxx16__aligned_membufISt4pairIKllEE6_M_ptrEv = comdat any

$_ZNK9__gnu_cxx16__aligned_membufISt4pairIKllEE7_M_addrEv = comdat any

$_ZNSt8_Rb_treeIlSt4pairIKllESt10_Select1stIS2_ESt4lessIlESaIS2_EE3endEv = comdat any

$_ZNSt17_Rb_tree_iteratorISt4pairIKllEEC2EPSt18_Rb_tree_node_base = comdat any

$_ZNSt8_Rb_treeIlSt4pairIKllESt10_Select1stIS2_ESt4lessIlESaIS2_EE5beginEv = comdat any

$_ZNSt8_Rb_treeIlSt4pairIKllESt10_Select1stIS2_ESt4lessIlESaIS2_EED2Ev = comdat any

$_ZNSt8_Rb_treeIlSt4pairIKllESt10_Select1stIS2_ESt4lessIlESaIS2_EE8_M_beginEv = comdat any

$_ZNSt8_Rb_treeIlSt4pairIKllESt10_Select1stIS2_ESt4lessIlESaIS2_EE8_M_eraseEPSt13_Rb_tree_nodeIS2_E = comdat any

$_ZNSt8_Rb_treeIlSt4pairIKllESt10_Select1stIS2_ESt4lessIlESaIS2_EE13_Rb_tree_implIS6_Lb1EED2Ev = comdat any

$__clang_call_terminate = comdat any

$_ZNSaISt13_Rb_tree_nodeISt4pairIKllEEED2Ev = comdat any

$_ZN9__gnu_cxx13new_allocatorISt13_Rb_tree_nodeISt4pairIKllEEED2Ev = comdat any

$_ZNSt8_Rb_treeIlSt4pairIKllESt10_Select1stIS2_ESt4lessIlESaIS2_EE8_S_rightEPSt18_Rb_tree_node_base = comdat any

$_ZNSt8_Rb_treeIlSt4pairIKllESt10_Select1stIS2_ESt4lessIlESaIS2_EE7_S_leftEPSt18_Rb_tree_node_base = comdat any

$_ZNSt8_Rb_treeIlSt4pairIKllESt10_Select1stIS2_ESt4lessIlESaIS2_EE12_M_drop_nodeEPSt13_Rb_tree_nodeIS2_E = comdat any

$_ZNSt8_Rb_treeIlSt4pairIKllESt10_Select1stIS2_ESt4lessIlESaIS2_EE15_M_destroy_nodeEPSt13_Rb_tree_nodeIS2_E = comdat any

$_ZNSt8_Rb_treeIlSt4pairIKllESt10_Select1stIS2_ESt4lessIlESaIS2_EE11_M_put_nodeEPSt13_Rb_tree_nodeIS2_E = comdat any

$_ZNSt8_Rb_treeIlSt4pairIKllESt10_Select1stIS2_ESt4lessIlESaIS2_EE21_M_get_Node_allocatorEv = comdat any

$_ZNSt16allocator_traitsISaISt13_Rb_tree_nodeISt4pairIKllEEEE10deallocateERS5_PS4_m = comdat any

$_ZN9__gnu_cxx13new_allocatorISt13_Rb_tree_nodeISt4pairIKllEEE10deallocateEPS5_m = comdat any

$_ZNSt13_Rb_tree_nodeISt4pairIKllEE9_M_valptrEv = comdat any

$_ZNSt16allocator_traitsISaISt13_Rb_tree_nodeISt4pairIKllEEEE7destroyIS3_EEvRS5_PT_ = comdat any

$_ZN9__gnu_cxx13new_allocatorISt13_Rb_tree_nodeISt4pairIKllEEE7destroyIS4_EEvPT_ = comdat any

$_ZN9__gnu_cxx16__aligned_membufISt4pairIKllEE6_M_ptrEv = comdat any

$_ZN9__gnu_cxx16__aligned_membufISt4pairIKllEE7_M_addrEv = comdat any

$_ZNSt3mapIllSt4lessIlESaISt4pairIKllEEE11lower_boundERS3_ = comdat any

$_ZSteqRKSt17_Rb_tree_iteratorISt4pairIKllEES5_ = comdat any

$_ZNKSt3mapIllSt4lessIlESaISt4pairIKllEEE8key_compEv = comdat any

$_ZNKSt17_Rb_tree_iteratorISt4pairIKllEEdeEv = comdat any

$_ZNKSt4lessIlEclERKlS2_ = comdat any

$_ZNSt5tupleIJRKlEEC2IvLb1EEES1_ = comdat any

$_ZNSt8_Rb_treeIlSt4pairIKllESt10_Select1stIS2_ESt4lessIlESaIS2_EE22_M_emplace_hint_uniqueIJRKSt21piecewise_construct_tSt5tupleIJRS1_EESD_IJEEEEESt17_Rb_tree_iteratorIS2_ESt23_Rb_tree_const_iteratorIS2_EDpOT_ = comdat any

$_ZSt7forwardIRKSt21piecewise_construct_tEOT_RNSt16remove_referenceIS3_E4typeE = comdat any

$_ZSt7forwardISt5tupleIJRKlEEEOT_RNSt16remove_referenceIS4_E4typeE = comdat any

$_ZSt7forwardISt5tupleIJEEEOT_RNSt16remove_referenceIS2_E4typeE = comdat any

$_ZNSt8_Rb_treeIlSt4pairIKllESt10_Select1stIS2_ESt4lessIlESaIS2_EE14_M_create_nodeIJRKSt21piecewise_construct_tSt5tupleIJRS1_EESD_IJEEEEEPSt13_Rb_tree_nodeIS2_EDpOT_ = comdat any

$_ZNSt8_Rb_treeIlSt4pairIKllESt10_Select1stIS2_ESt4lessIlESaIS2_EE6_S_keyEPKSt13_Rb_tree_nodeIS2_E = comdat any

$_ZNSt8_Rb_treeIlSt4pairIKllESt10_Select1stIS2_ESt4lessIlESaIS2_EE29_M_get_insert_hint_unique_posESt23_Rb_tree_const_iteratorIS2_ERS1_ = comdat any

$_ZNSt8_Rb_treeIlSt4pairIKllESt10_Select1stIS2_ESt4lessIlESaIS2_EE14_M_insert_nodeEPSt18_Rb_tree_node_baseSA_PSt13_Rb_tree_nodeIS2_E = comdat any

$_ZNSt8_Rb_treeIlSt4pairIKllESt10_Select1stIS2_ESt4lessIlESaIS2_EE6_M_endEv = comdat any

$_ZNSt8_Rb_treeIlSt4pairIKllESt10_Select1stIS2_ESt4lessIlESaIS2_EE6_S_keyEPKSt18_Rb_tree_node_base = comdat any

$_ZNKSt23_Rb_tree_const_iteratorISt4pairIKllEE13_M_const_castEv = comdat any

$_ZNKSt8_Rb_treeIlSt4pairIKllESt10_Select1stIS2_ESt4lessIlESaIS2_EE4sizeEv = comdat any

$_ZNSt8_Rb_treeIlSt4pairIKllESt10_Select1stIS2_ESt4lessIlESaIS2_EE12_M_rightmostEv = comdat any

$_ZNSt4pairIPSt18_Rb_tree_node_baseS1_EC2IRS1_Lb1EEERKS1_OT_ = comdat any

$_ZNSt8_Rb_treeIlSt4pairIKllESt10_Select1stIS2_ESt4lessIlESaIS2_EE24_M_get_insert_unique_posERS1_ = comdat any

$_ZNSt8_Rb_treeIlSt4pairIKllESt10_Select1stIS2_ESt4lessIlESaIS2_EE11_M_leftmostEv = comdat any

$_ZNSt4pairIPSt18_Rb_tree_node_baseS1_EC2IRS1_S4_Lb1EEEOT_OT0_ = comdat any

$_ZNSt17_Rb_tree_iteratorISt4pairIKllEEmmEv = comdat any

$_ZNSt17_Rb_tree_iteratorISt4pairIKllEEppEv = comdat any

$_ZNSt4pairIPSt18_Rb_tree_node_baseS1_EC2IRS1_Lb1EEEOT_RKS1_ = comdat any

$_ZSt7forwardIRPSt18_Rb_tree_node_baseEOT_RNSt16remove_referenceIS3_E4typeE = comdat any

$_ZNSt4pairIPSt18_Rb_tree_node_baseS1_EC2IRPSt13_Rb_tree_nodeIS_IKllEERS1_Lb1EEEOT_OT0_ = comdat any

$_ZSt7forwardIRPSt13_Rb_tree_nodeISt4pairIKllEEEOT_RNSt16remove_referenceIS7_E4typeE = comdat any

$_ZNKSt10_Select1stISt4pairIKllEEclERKS2_ = comdat any

$_ZNSt8_Rb_treeIlSt4pairIKllESt10_Select1stIS2_ESt4lessIlESaIS2_EE11_M_get_nodeEv = comdat any

$_ZNSt8_Rb_treeIlSt4pairIKllESt10_Select1stIS2_ESt4lessIlESaIS2_EE17_M_construct_nodeIJRKSt21piecewise_construct_tSt5tupleIJRS1_EESD_IJEEEEEvPSt13_Rb_tree_nodeIS2_EDpOT_ = comdat any

$_ZNSt16allocator_traitsISaISt13_Rb_tree_nodeISt4pairIKllEEEE9constructIS3_JRKSt21piecewise_construct_tSt5tupleIJRS2_EESB_IJEEEEEvRS5_PT_DpOT0_ = comdat any

$_ZN9__gnu_cxx13new_allocatorISt13_Rb_tree_nodeISt4pairIKllEEE9constructIS4_JRKSt21piecewise_construct_tSt5tupleIJRS3_EESB_IJEEEEEvPT_DpOT0_ = comdat any

$_ZNSt5tupleIJRKlEEC2EOS2_ = comdat any

$_ZNSt4pairIKllEC2IJRS0_EJEEESt21piecewise_construct_tSt5tupleIJDpT_EES5_IJDpT0_EE = comdat any

$_ZNSt4pairIKllEC2IJRS0_EJLm0EEJEJEEERSt5tupleIJDpT_EERS4_IJDpT1_EESt12_Index_tupleIJXspT0_EEESD_IJXspT2_EEE = comdat any

$_ZSt3getILm0EJRKlEERNSt13tuple_elementIXT_ESt5tupleIJDpT0_EEE4typeERS6_ = comdat any

$_ZSt7forwardIRKlEOT_RNSt16remove_referenceIS2_E4typeE = comdat any

$_ZSt12__get_helperILm0ERKlJEERT0_RSt11_Tuple_implIXT_EJS2_DpT1_EE = comdat any

$_ZNSt11_Tuple_implILm0EJRKlEE7_M_headERS2_ = comdat any

$_ZNSt10_Head_baseILm0ERKlLb0EE7_M_headERS2_ = comdat any

$_ZNSt11_Tuple_implILm0EJRKlEEC2EOS2_ = comdat any

$_ZNSt10_Head_baseILm0ERKlLb0EEC2ES1_ = comdat any

$_ZNSt16allocator_traitsISaISt13_Rb_tree_nodeISt4pairIKllEEEE8allocateERS5_m = comdat any

$_ZN9__gnu_cxx13new_allocatorISt13_Rb_tree_nodeISt4pairIKllEEE8allocateEmPKv = comdat any

$_ZNK9__gnu_cxx13new_allocatorISt13_Rb_tree_nodeISt4pairIKllEEE8max_sizeEv = comdat any

$_ZNSt11_Tuple_implILm0EJRKlEEC2ES1_ = comdat any

$_ZNKSt8_Rb_treeIlSt4pairIKllESt10_Select1stIS2_ESt4lessIlESaIS2_EE8key_compEv = comdat any

$_ZNSt8_Rb_treeIlSt4pairIKllESt10_Select1stIS2_ESt4lessIlESaIS2_EE11lower_boundERS1_ = comdat any

$_ZNSt8_Rb_treeIlSt4pairIKllESt10_Select1stIS2_ESt4lessIlESaIS2_EE14_M_lower_boundEPSt13_Rb_tree_nodeIS2_EPSt18_Rb_tree_node_baseRS1_ = comdat any

$_ZNSt8_Rb_treeIlSt4pairIKllESt10_Select1stIS2_ESt4lessIlESaIS2_EEC2Ev = comdat any

$_ZNSt8_Rb_treeIlSt4pairIKllESt10_Select1stIS2_ESt4lessIlESaIS2_EE13_Rb_tree_implIS6_Lb1EEC2Ev = comdat any

$_ZNSaISt13_Rb_tree_nodeISt4pairIKllEEEC2Ev = comdat any

$_ZNSt20_Rb_tree_key_compareISt4lessIlEEC2Ev = comdat any

$_ZNSt15_Rb_tree_headerC2Ev = comdat any

$_ZNSt15_Rb_tree_header8_M_resetEv = comdat any

$_ZN9__gnu_cxx13new_allocatorISt13_Rb_tree_nodeISt4pairIKllEEEC2Ev = comdat any

@llvm.global_ctors = appending global [1 x { i32, void ()*, i8* }] [{ i32, void ()*, i8* } { i32 65535, void ()* @_GLOBAL__sub_I_SherlockAndPairs.cpp, i8* null }]
@_ZStL8__ioinit = internal global %"class.std::ios_base::Init" zeroinitializer, align 1
@.str = private unnamed_addr constant [32 x i8] c"../input_files/SherlockAndPairs\00", align 1
@.str.1 = private unnamed_addr constant [2 x i8] c"r\00", align 1
@stdin = external dso_local global %struct._IO_FILE*, align 8
@_ZSt3cin = external dso_local global %"class.std::basic_istream", align 8
@_ZSt4cout = external dso_local global %"class.std::basic_ostream", align 8
@_ZStL19piecewise_construct = internal constant %"class.std::ios_base::Init" undef, align 1

; Function Attrs: noinline uwtable
define internal void @_GLOBAL__sub_I_SherlockAndPairs.cpp() #0 section ".text.startup" {
  call void @__cxx_global_var_init(), !llfi_index !4
  ret void, !llfi_index !5
}

; Function Attrs: noinline uwtable
define internal void @__cxx_global_var_init() #0 section ".text.startup" {
  call void @_ZNSt8ios_base4InitC1Ev(%"class.std::ios_base::Init"* nonnull align 1 dereferenceable(1) @_ZStL8__ioinit), !llfi_index !6
  %1 = call i32 @atexit(void ()* @__dtor__ZStL8__ioinit) #2, !llfi_index !7
  ret void, !llfi_index !8
}

declare dso_local void @_ZNSt8ios_base4InitC1Ev(%"class.std::ios_base::Init"* nonnull align 1 dereferenceable(1)) unnamed_addr #1

; Function Attrs: noinline uwtable
define internal void @__dtor__ZStL8__ioinit() #0 section ".text.startup" {
  call void @_ZNSt8ios_base4InitD1Ev(%"class.std::ios_base::Init"* @_ZStL8__ioinit), !llfi_index !9
  ret void, !llfi_index !10
}

; Function Attrs: nounwind
declare dso_local i32 @atexit(void ()*) #2

; Function Attrs: nounwind
declare dso_local void @_ZNSt8ios_base4InitD1Ev(%"class.std::ios_base::Init"* nonnull align 1 dereferenceable(1)) unnamed_addr #3

; Function Attrs: mustprogress noinline norecurse uwtable
define dso_local i32 @main() #4 personality i8* bitcast (i32 (...)* @__gxx_personality_v0 to i8*) {
  %1 = alloca i32, align 4, !llfi_index !11
  %2 = alloca i32, align 4, !llfi_index !12
  %3 = alloca i32, align 4, !llfi_index !13
  %4 = alloca i64, align 8, !llfi_index !14
  %5 = alloca %"class.std::map", align 8, !llfi_index !15
  %6 = alloca i8*, align 8, !llfi_index !16
  %7 = alloca i32, align 4, !llfi_index !17
  %8 = alloca i32, align 4, !llfi_index !18
  %9 = alloca i64, align 8, !llfi_index !19
  %10 = alloca i64*, align 8, !llfi_index !20
  %11 = alloca i64, align 8, !llfi_index !21
  %12 = alloca %"struct.std::_Rb_tree_const_iterator", align 8, !llfi_index !22
  %13 = alloca %"struct.std::_Rb_tree_const_iterator", align 8, !llfi_index !23
  %14 = alloca %"struct.std::_Rb_tree_const_iterator", align 8, !llfi_index !24
  %15 = alloca %"struct.std::_Rb_tree_const_iterator", align 8, !llfi_index !25
  %16 = alloca %"struct.std::_Rb_tree_const_iterator", align 8, !llfi_index !26
  %17 = alloca i64, align 8, !llfi_index !27
  %18 = alloca %"struct.std::_Rb_tree_const_iterator", align 8, !llfi_index !28
  store i32 0, i32* %1, align 4, !llfi_index !29
  %19 = load %struct._IO_FILE*, %struct._IO_FILE** @stdin, align 8, !llfi_index !30
  %20 = call %struct._IO_FILE* @freopen(i8* getelementptr inbounds ([32 x i8], [32 x i8]* @.str, i64 0, i64 0), i8* getelementptr inbounds ([2 x i8], [2 x i8]* @.str.1, i64 0, i64 0), %struct._IO_FILE* %19), !llfi_index !31
  %21 = call nonnull align 8 dereferenceable(16) %"class.std::basic_istream"* @_ZNSirsERi(%"class.std::basic_istream"* nonnull align 8 dereferenceable(16) @_ZSt3cin, i32* nonnull align 4 dereferenceable(4) %2), !llfi_index !32
  store i32 89, i32* %3, align 4, !llfi_index !33
  br label %22, !llfi_index !34

22:                                               ; preds = %80, %0
  %23 = load i32, i32* %2, align 4, !llfi_index !35
  %24 = add nsw i32 %23, -1, !llfi_index !36
  store i32 %24, i32* %2, align 4, !llfi_index !37
  %25 = icmp ne i32 %23, 0, !llfi_index !38
  br i1 %25, label %26, label %81, !llfi_index !39

26:                                               ; preds = %22
  call void @_ZNSt3mapIllSt4lessIlESaISt4pairIKllEEEC2Ev(%"class.std::map"* nonnull align 8 dereferenceable(48) %5) #2, !llfi_index !40
  %27 = invoke nonnull align 8 dereferenceable(16) %"class.std::basic_istream"* @_ZNSirsERl(%"class.std::basic_istream"* nonnull align 8 dereferenceable(16) @_ZSt3cin, i64* nonnull align 8 dereferenceable(8) %4)
          to label %28 unwind label %45, !llfi_index !41

28:                                               ; preds = %26
  store i32 89, i32* %3, align 4, !llfi_index !42
  store i32 0, i32* %8, align 4, !llfi_index !43
  br label %29, !llfi_index !44

29:                                               ; preds = %42, %28
  %30 = load i32, i32* %8, align 4, !llfi_index !45
  %31 = sext i32 %30 to i64, !llfi_index !46
  %32 = load i64, i64* %4, align 8, !llfi_index !47
  %33 = icmp slt i64 %31, %32, !llfi_index !48
  br i1 %33, label %34, label %49, !llfi_index !49

34:                                               ; preds = %29
  %35 = invoke nonnull align 8 dereferenceable(16) %"class.std::basic_istream"* @_ZNSirsERl(%"class.std::basic_istream"* nonnull align 8 dereferenceable(16) @_ZSt3cin, i64* nonnull align 8 dereferenceable(8) %9)
          to label %36 unwind label %45, !llfi_index !50

36:                                               ; preds = %34
  %37 = invoke nonnull align 8 dereferenceable(8) i64* @_ZNSt3mapIllSt4lessIlESaISt4pairIKllEEEixERS3_(%"class.std::map"* nonnull align 8 dereferenceable(48) %5, i64* nonnull align 8 dereferenceable(8) %9)
          to label %38 unwind label %45, !llfi_index !51

38:                                               ; preds = %36
  store i64* %37, i64** %10, align 8, !llfi_index !52
  %39 = load i64*, i64** %10, align 8, !llfi_index !53
  %40 = load i64, i64* %39, align 8, !llfi_index !54
  %41 = add nsw i64 %40, 1, !llfi_index !55
  store i64 %41, i64* %39, align 8, !llfi_index !56
  br label %42, !llfi_index !57

42:                                               ; preds = %38
  %43 = load i32, i32* %8, align 4, !llfi_index !58
  %44 = add nsw i32 %43, 1, !llfi_index !59
  store i32 %44, i32* %8, align 4, !llfi_index !60
  br label %29, !llvm.loop !61, !llfi_index !63

45:                                               ; preds = %78, %75, %36, %34, %26
  %46 = landingpad { i8*, i32 }
          cleanup, !llfi_index !64
  %47 = extractvalue { i8*, i32 } %46, 0, !llfi_index !65
  store i8* %47, i8** %6, align 8, !llfi_index !66
  %48 = extractvalue { i8*, i32 } %46, 1, !llfi_index !67
  store i32 %48, i32* %7, align 4, !llfi_index !68
  call void @_ZNSt3mapIllSt4lessIlESaISt4pairIKllEEED2Ev(%"class.std::map"* nonnull align 8 dereferenceable(48) %5) #2, !llfi_index !69
  br label %82, !llfi_index !70

49:                                               ; preds = %29
  store i64 0, i64* %11, align 8, !llfi_index !71
  call void @_ZNSt23_Rb_tree_const_iteratorISt4pairIKllEEC2Ev(%"struct.std::_Rb_tree_const_iterator"* nonnull align 8 dereferenceable(8) %12) #2, !llfi_index !72
  store i32 89, i32* %3, align 4, !llfi_index !73
  %50 = call %"struct.std::_Rb_tree_node_base"* @_ZNSt3mapIllSt4lessIlESaISt4pairIKllEEE5beginEv(%"class.std::map"* nonnull align 8 dereferenceable(48) %5) #2, !llfi_index !74
  %51 = getelementptr inbounds %"struct.std::_Rb_tree_const_iterator", %"struct.std::_Rb_tree_const_iterator"* %14, i32 0, i32 0, !llfi_index !75
  store %"struct.std::_Rb_tree_node_base"* %50, %"struct.std::_Rb_tree_node_base"** %51, align 8, !llfi_index !76
  call void @_ZNSt23_Rb_tree_const_iteratorISt4pairIKllEEC2ERKSt17_Rb_tree_iteratorIS2_E(%"struct.std::_Rb_tree_const_iterator"* nonnull align 8 dereferenceable(8) %13, %"struct.std::_Rb_tree_const_iterator"* nonnull align 8 dereferenceable(8) %14) #2, !llfi_index !77
  %52 = bitcast %"struct.std::_Rb_tree_const_iterator"* %12 to i8*, !llfi_index !78
  %53 = bitcast %"struct.std::_Rb_tree_const_iterator"* %13 to i8*, !llfi_index !79
  call void @llvm.memcpy.p0i8.p0i8.i64(i8* align 8 %52, i8* align 8 %53, i64 8, i1 false), !llfi_index !80
  br label %54, !llfi_index !81

54:                                               ; preds = %72, %49
  %55 = call %"struct.std::_Rb_tree_node_base"* @_ZNSt3mapIllSt4lessIlESaISt4pairIKllEEE3endEv(%"class.std::map"* nonnull align 8 dereferenceable(48) %5) #2, !llfi_index !82
  %56 = getelementptr inbounds %"struct.std::_Rb_tree_const_iterator", %"struct.std::_Rb_tree_const_iterator"* %16, i32 0, i32 0, !llfi_index !83
  store %"struct.std::_Rb_tree_node_base"* %55, %"struct.std::_Rb_tree_node_base"** %56, align 8, !llfi_index !84
  call void @_ZNSt23_Rb_tree_const_iteratorISt4pairIKllEEC2ERKSt17_Rb_tree_iteratorIS2_E(%"struct.std::_Rb_tree_const_iterator"* nonnull align 8 dereferenceable(8) %15, %"struct.std::_Rb_tree_const_iterator"* nonnull align 8 dereferenceable(8) %16) #2, !llfi_index !85
  %57 = call zeroext i1 @_ZStneRKSt23_Rb_tree_const_iteratorISt4pairIKllEES5_(%"struct.std::_Rb_tree_const_iterator"* nonnull align 8 dereferenceable(8) %12, %"struct.std::_Rb_tree_const_iterator"* nonnull align 8 dereferenceable(8) %15) #2, !llfi_index !86
  br i1 %57, label %58, label %75, !llfi_index !87

58:                                               ; preds = %54
  %59 = call %"struct.std::pair"* @_ZNKSt23_Rb_tree_const_iteratorISt4pairIKllEEptEv(%"struct.std::_Rb_tree_const_iterator"* nonnull align 8 dereferenceable(8) %12) #2, !llfi_index !88
  %60 = getelementptr inbounds %"struct.std::pair", %"struct.std::pair"* %59, i32 0, i32 1, !llfi_index !89
  %61 = load i64, i64* %60, align 8, !llfi_index !90
  store i64 %61, i64* %17, align 8, !llfi_index !91
  %62 = load i64, i64* %17, align 8, !llfi_index !92
  %63 = icmp sgt i64 %62, 1, !llfi_index !93
  br i1 %63, label %64, label %71, !llfi_index !94

64:                                               ; preds = %58
  %65 = load i64, i64* %17, align 8, !llfi_index !95
  %66 = load i64, i64* %17, align 8, !llfi_index !96
  %67 = sub nsw i64 %66, 1, !llfi_index !97
  %68 = mul nsw i64 %65, %67, !llfi_index !98
  %69 = load i64, i64* %11, align 8, !llfi_index !99
  %70 = add nsw i64 %69, %68, !llfi_index !100
  store i64 %70, i64* %11, align 8, !llfi_index !101
  br label %71, !llfi_index !102

71:                                               ; preds = %64, %58
  br label %72, !llfi_index !103

72:                                               ; preds = %71
  %73 = call %"struct.std::_Rb_tree_node_base"* @_ZNSt23_Rb_tree_const_iteratorISt4pairIKllEEppEi(%"struct.std::_Rb_tree_const_iterator"* nonnull align 8 dereferenceable(8) %12, i32 0) #2, !llfi_index !104
  %74 = getelementptr inbounds %"struct.std::_Rb_tree_const_iterator", %"struct.std::_Rb_tree_const_iterator"* %18, i32 0, i32 0, !llfi_index !105
  store %"struct.std::_Rb_tree_node_base"* %73, %"struct.std::_Rb_tree_node_base"** %74, align 8, !llfi_index !106
  br label %54, !llvm.loop !107, !llfi_index !108

75:                                               ; preds = %54
  %76 = load i64, i64* %11, align 8, !llfi_index !109
  %77 = invoke nonnull align 8 dereferenceable(8) %"class.std::basic_ostream"* @_ZNSolsEx(%"class.std::basic_ostream"* nonnull align 8 dereferenceable(8) @_ZSt4cout, i64 %76)
          to label %78 unwind label %45, !llfi_index !110

78:                                               ; preds = %75
  %79 = invoke nonnull align 8 dereferenceable(8) %"class.std::basic_ostream"* @_ZNSolsEPFRSoS_E(%"class.std::basic_ostream"* nonnull align 8 dereferenceable(8) %77, %"class.std::basic_ostream"* (%"class.std::basic_ostream"*)* @_ZSt4endlIcSt11char_traitsIcEERSt13basic_ostreamIT_T0_ES6_)
          to label %80 unwind label %45, !llfi_index !111

80:                                               ; preds = %78
  call void @_ZNSt3mapIllSt4lessIlESaISt4pairIKllEEED2Ev(%"class.std::map"* nonnull align 8 dereferenceable(48) %5) #2, !llfi_index !112
  br label %22, !llvm.loop !113, !llfi_index !114

81:                                               ; preds = %22
  ret i32 0, !llfi_index !115

82:                                               ; preds = %45
  %83 = load i8*, i8** %6, align 8, !llfi_index !116
  %84 = load i32, i32* %7, align 4, !llfi_index !117
  %85 = insertvalue { i8*, i32 } undef, i8* %83, 0, !llfi_index !118
  %86 = insertvalue { i8*, i32 } %85, i32 %84, 1, !llfi_index !119
  resume { i8*, i32 } %86, !llfi_index !120
}

declare dso_local i32 @__gxx_personality_v0(...)

declare dso_local %struct._IO_FILE* @freopen(i8*, i8*, %struct._IO_FILE*) #1

declare dso_local nonnull align 8 dereferenceable(16) %"class.std::basic_istream"* @_ZNSirsERi(%"class.std::basic_istream"* nonnull align 8 dereferenceable(16), i32* nonnull align 4 dereferenceable(4)) #1

; Function Attrs: noinline nounwind uwtable
define linkonce_odr dso_local void @_ZNSt3mapIllSt4lessIlESaISt4pairIKllEEEC2Ev(%"class.std::map"* nonnull align 8 dereferenceable(48) %0) unnamed_addr #5 comdat align 2 {
  %2 = alloca %"class.std::map"*, align 8, !llfi_index !121
  store %"class.std::map"* %0, %"class.std::map"** %2, align 8, !llfi_index !122
  %3 = load %"class.std::map"*, %"class.std::map"** %2, align 8, !llfi_index !123
  %4 = getelementptr inbounds %"class.std::map", %"class.std::map"* %3, i32 0, i32 0, !llfi_index !124
  call void @_ZNSt8_Rb_treeIlSt4pairIKllESt10_Select1stIS2_ESt4lessIlESaIS2_EEC2Ev(%"class.std::_Rb_tree"* nonnull align 8 dereferenceable(48) %4) #2, !llfi_index !125
  ret void, !llfi_index !126
}

declare dso_local nonnull align 8 dereferenceable(16) %"class.std::basic_istream"* @_ZNSirsERl(%"class.std::basic_istream"* nonnull align 8 dereferenceable(16), i64* nonnull align 8 dereferenceable(8)) #1

; Function Attrs: mustprogress noinline uwtable
define linkonce_odr dso_local nonnull align 8 dereferenceable(8) i64* @_ZNSt3mapIllSt4lessIlESaISt4pairIKllEEEixERS3_(%"class.std::map"* nonnull align 8 dereferenceable(48) %0, i64* nonnull align 8 dereferenceable(8) %1) #6 comdat align 2 {
  %3 = alloca %"class.std::map"*, align 8, !llfi_index !127
  %4 = alloca i64*, align 8, !llfi_index !128
  %5 = alloca %"struct.std::_Rb_tree_const_iterator", align 8, !llfi_index !129
  %6 = alloca %"struct.std::_Rb_tree_const_iterator", align 8, !llfi_index !130
  %7 = alloca %"class.std::ios_base::Init", align 1, !llfi_index !131
  %8 = alloca %"class.std::ios_base::Init", align 1, !llfi_index !132
  %9 = alloca %"struct.std::_Rb_tree_const_iterator", align 8, !llfi_index !133
  %10 = alloca %"struct.std::_Rb_tree_const_iterator", align 8, !llfi_index !134
  %11 = alloca %"class.std::tuple", align 8, !llfi_index !135
  %12 = alloca %"class.std::ios_base::Init", align 1, !llfi_index !136
  store %"class.std::map"* %0, %"class.std::map"** %3, align 8, !llfi_index !137
  store i64* %1, i64** %4, align 8, !llfi_index !138
  %13 = load %"class.std::map"*, %"class.std::map"** %3, align 8, !llfi_index !139
  %14 = load i64*, i64** %4, align 8, !llfi_index !140
  %15 = call %"struct.std::_Rb_tree_node_base"* @_ZNSt3mapIllSt4lessIlESaISt4pairIKllEEE11lower_boundERS3_(%"class.std::map"* nonnull align 8 dereferenceable(48) %13, i64* nonnull align 8 dereferenceable(8) %14), !llfi_index !141
  %16 = getelementptr inbounds %"struct.std::_Rb_tree_const_iterator", %"struct.std::_Rb_tree_const_iterator"* %5, i32 0, i32 0, !llfi_index !142
  store %"struct.std::_Rb_tree_node_base"* %15, %"struct.std::_Rb_tree_node_base"** %16, align 8, !llfi_index !143
  %17 = call %"struct.std::_Rb_tree_node_base"* @_ZNSt3mapIllSt4lessIlESaISt4pairIKllEEE3endEv(%"class.std::map"* nonnull align 8 dereferenceable(48) %13) #2, !llfi_index !144
  %18 = getelementptr inbounds %"struct.std::_Rb_tree_const_iterator", %"struct.std::_Rb_tree_const_iterator"* %6, i32 0, i32 0, !llfi_index !145
  store %"struct.std::_Rb_tree_node_base"* %17, %"struct.std::_Rb_tree_node_base"** %18, align 8, !llfi_index !146
  %19 = call zeroext i1 @_ZSteqRKSt17_Rb_tree_iteratorISt4pairIKllEES5_(%"struct.std::_Rb_tree_const_iterator"* nonnull align 8 dereferenceable(8) %5, %"struct.std::_Rb_tree_const_iterator"* nonnull align 8 dereferenceable(8) %6) #2, !llfi_index !147
  br i1 %19, label %25, label %20, !llfi_index !148

20:                                               ; preds = %2
  call void @_ZNKSt3mapIllSt4lessIlESaISt4pairIKllEEE8key_compEv(%"class.std::map"* nonnull align 8 dereferenceable(48) %13), !llfi_index !149
  %21 = load i64*, i64** %4, align 8, !llfi_index !150
  %22 = call nonnull align 8 dereferenceable(16) %"struct.std::pair"* @_ZNKSt17_Rb_tree_iteratorISt4pairIKllEEdeEv(%"struct.std::_Rb_tree_const_iterator"* nonnull align 8 dereferenceable(8) %5) #2, !llfi_index !151
  %23 = getelementptr inbounds %"struct.std::pair", %"struct.std::pair"* %22, i32 0, i32 0, !llfi_index !152
  %24 = call zeroext i1 @_ZNKSt4lessIlEclERKlS2_(%"class.std::ios_base::Init"* nonnull align 1 dereferenceable(1) %7, i64* nonnull align 8 dereferenceable(8) %21, i64* nonnull align 8 dereferenceable(8) %23), !llfi_index !153
  br label %25, !llfi_index !154

25:                                               ; preds = %20, %2
  %26 = phi i1 [ true, %2 ], [ %24, %20 ], !llfi_index !155
  br i1 %26, label %27, label %36, !llfi_index !156

27:                                               ; preds = %25
  %28 = getelementptr inbounds %"class.std::map", %"class.std::map"* %13, i32 0, i32 0, !llfi_index !157
  call void @_ZNSt23_Rb_tree_const_iteratorISt4pairIKllEEC2ERKSt17_Rb_tree_iteratorIS2_E(%"struct.std::_Rb_tree_const_iterator"* nonnull align 8 dereferenceable(8) %10, %"struct.std::_Rb_tree_const_iterator"* nonnull align 8 dereferenceable(8) %5) #2, !llfi_index !158
  %29 = load i64*, i64** %4, align 8, !llfi_index !159
  call void @_ZNSt5tupleIJRKlEEC2IvLb1EEES1_(%"class.std::tuple"* nonnull align 8 dereferenceable(8) %11, i64* nonnull align 8 dereferenceable(8) %29), !llfi_index !160
  %30 = getelementptr inbounds %"struct.std::_Rb_tree_const_iterator", %"struct.std::_Rb_tree_const_iterator"* %10, i32 0, i32 0, !llfi_index !161
  %31 = load %"struct.std::_Rb_tree_node_base"*, %"struct.std::_Rb_tree_node_base"** %30, align 8, !llfi_index !162
  %32 = call %"struct.std::_Rb_tree_node_base"* @_ZNSt8_Rb_treeIlSt4pairIKllESt10_Select1stIS2_ESt4lessIlESaIS2_EE22_M_emplace_hint_uniqueIJRKSt21piecewise_construct_tSt5tupleIJRS1_EESD_IJEEEEESt17_Rb_tree_iteratorIS2_ESt23_Rb_tree_const_iteratorIS2_EDpOT_(%"class.std::_Rb_tree"* nonnull align 8 dereferenceable(48) %28, %"struct.std::_Rb_tree_node_base"* %31, %"class.std::ios_base::Init"* nonnull align 1 dereferenceable(1) @_ZStL19piecewise_construct, %"class.std::tuple"* nonnull align 8 dereferenceable(8) %11, %"class.std::ios_base::Init"* nonnull align 1 dereferenceable(1) %12), !llfi_index !163
  %33 = getelementptr inbounds %"struct.std::_Rb_tree_const_iterator", %"struct.std::_Rb_tree_const_iterator"* %9, i32 0, i32 0, !llfi_index !164
  store %"struct.std::_Rb_tree_node_base"* %32, %"struct.std::_Rb_tree_node_base"** %33, align 8, !llfi_index !165
  %34 = bitcast %"struct.std::_Rb_tree_const_iterator"* %5 to i8*, !llfi_index !166
  %35 = bitcast %"struct.std::_Rb_tree_const_iterator"* %9 to i8*, !llfi_index !167
  call void @llvm.memcpy.p0i8.p0i8.i64(i8* align 8 %34, i8* align 8 %35, i64 8, i1 false), !llfi_index !168
  br label %36, !llfi_index !169

36:                                               ; preds = %27, %25
  %37 = call nonnull align 8 dereferenceable(16) %"struct.std::pair"* @_ZNKSt17_Rb_tree_iteratorISt4pairIKllEEdeEv(%"struct.std::_Rb_tree_const_iterator"* nonnull align 8 dereferenceable(8) %5) #2, !llfi_index !170
  %38 = getelementptr inbounds %"struct.std::pair", %"struct.std::pair"* %37, i32 0, i32 1, !llfi_index !171
  ret i64* %38, !llfi_index !172
}

; Function Attrs: noinline nounwind uwtable
define linkonce_odr dso_local void @_ZNSt3mapIllSt4lessIlESaISt4pairIKllEEED2Ev(%"class.std::map"* nonnull align 8 dereferenceable(48) %0) unnamed_addr #5 comdat align 2 {
  %2 = alloca %"class.std::map"*, align 8, !llfi_index !173
  store %"class.std::map"* %0, %"class.std::map"** %2, align 8, !llfi_index !174
  %3 = load %"class.std::map"*, %"class.std::map"** %2, align 8, !llfi_index !175
  %4 = getelementptr inbounds %"class.std::map", %"class.std::map"* %3, i32 0, i32 0, !llfi_index !176
  call void @_ZNSt8_Rb_treeIlSt4pairIKllESt10_Select1stIS2_ESt4lessIlESaIS2_EED2Ev(%"class.std::_Rb_tree"* nonnull align 8 dereferenceable(48) %4) #2, !llfi_index !177
  ret void, !llfi_index !178
}

; Function Attrs: noinline nounwind uwtable
define linkonce_odr dso_local void @_ZNSt23_Rb_tree_const_iteratorISt4pairIKllEEC2Ev(%"struct.std::_Rb_tree_const_iterator"* nonnull align 8 dereferenceable(8) %0) unnamed_addr #5 comdat align 2 {
  %2 = alloca %"struct.std::_Rb_tree_const_iterator"*, align 8, !llfi_index !179
  store %"struct.std::_Rb_tree_const_iterator"* %0, %"struct.std::_Rb_tree_const_iterator"** %2, align 8, !llfi_index !180
  %3 = load %"struct.std::_Rb_tree_const_iterator"*, %"struct.std::_Rb_tree_const_iterator"** %2, align 8, !llfi_index !181
  %4 = getelementptr inbounds %"struct.std::_Rb_tree_const_iterator", %"struct.std::_Rb_tree_const_iterator"* %3, i32 0, i32 0, !llfi_index !182
  store %"struct.std::_Rb_tree_node_base"* null, %"struct.std::_Rb_tree_node_base"** %4, align 8, !llfi_index !183
  ret void, !llfi_index !184
}

; Function Attrs: mustprogress noinline nounwind uwtable
define linkonce_odr dso_local %"struct.std::_Rb_tree_node_base"* @_ZNSt3mapIllSt4lessIlESaISt4pairIKllEEE5beginEv(%"class.std::map"* nonnull align 8 dereferenceable(48) %0) #7 comdat align 2 {
  %2 = alloca %"struct.std::_Rb_tree_const_iterator", align 8, !llfi_index !185
  %3 = alloca %"class.std::map"*, align 8, !llfi_index !186
  store %"class.std::map"* %0, %"class.std::map"** %3, align 8, !llfi_index !187
  %4 = load %"class.std::map"*, %"class.std::map"** %3, align 8, !llfi_index !188
  %5 = getelementptr inbounds %"class.std::map", %"class.std::map"* %4, i32 0, i32 0, !llfi_index !189
  %6 = call %"struct.std::_Rb_tree_node_base"* @_ZNSt8_Rb_treeIlSt4pairIKllESt10_Select1stIS2_ESt4lessIlESaIS2_EE5beginEv(%"class.std::_Rb_tree"* nonnull align 8 dereferenceable(48) %5) #2, !llfi_index !190
  %7 = getelementptr inbounds %"struct.std::_Rb_tree_const_iterator", %"struct.std::_Rb_tree_const_iterator"* %2, i32 0, i32 0, !llfi_index !191
  store %"struct.std::_Rb_tree_node_base"* %6, %"struct.std::_Rb_tree_node_base"** %7, align 8, !llfi_index !192
  %8 = getelementptr inbounds %"struct.std::_Rb_tree_const_iterator", %"struct.std::_Rb_tree_const_iterator"* %2, i32 0, i32 0, !llfi_index !193
  %9 = load %"struct.std::_Rb_tree_node_base"*, %"struct.std::_Rb_tree_node_base"** %8, align 8, !llfi_index !194
  ret %"struct.std::_Rb_tree_node_base"* %9, !llfi_index !195
}

; Function Attrs: noinline nounwind uwtable
define linkonce_odr dso_local void @_ZNSt23_Rb_tree_const_iteratorISt4pairIKllEEC2ERKSt17_Rb_tree_iteratorIS2_E(%"struct.std::_Rb_tree_const_iterator"* nonnull align 8 dereferenceable(8) %0, %"struct.std::_Rb_tree_const_iterator"* nonnull align 8 dereferenceable(8) %1) unnamed_addr #5 comdat align 2 {
  %3 = alloca %"struct.std::_Rb_tree_const_iterator"*, align 8, !llfi_index !196
  %4 = alloca %"struct.std::_Rb_tree_const_iterator"*, align 8, !llfi_index !197
  store %"struct.std::_Rb_tree_const_iterator"* %0, %"struct.std::_Rb_tree_const_iterator"** %3, align 8, !llfi_index !198
  store %"struct.std::_Rb_tree_const_iterator"* %1, %"struct.std::_Rb_tree_const_iterator"** %4, align 8, !llfi_index !199
  %5 = load %"struct.std::_Rb_tree_const_iterator"*, %"struct.std::_Rb_tree_const_iterator"** %3, align 8, !llfi_index !200
  %6 = getelementptr inbounds %"struct.std::_Rb_tree_const_iterator", %"struct.std::_Rb_tree_const_iterator"* %5, i32 0, i32 0, !llfi_index !201
  %7 = load %"struct.std::_Rb_tree_const_iterator"*, %"struct.std::_Rb_tree_const_iterator"** %4, align 8, !llfi_index !202
  %8 = getelementptr inbounds %"struct.std::_Rb_tree_const_iterator", %"struct.std::_Rb_tree_const_iterator"* %7, i32 0, i32 0, !llfi_index !203
  %9 = load %"struct.std::_Rb_tree_node_base"*, %"struct.std::_Rb_tree_node_base"** %8, align 8, !llfi_index !204
  store %"struct.std::_Rb_tree_node_base"* %9, %"struct.std::_Rb_tree_node_base"** %6, align 8, !llfi_index !205
  ret void, !llfi_index !206
}

; Function Attrs: argmemonly nofree nounwind willreturn
declare void @llvm.memcpy.p0i8.p0i8.i64(i8* noalias nocapture writeonly, i8* noalias nocapture readonly, i64, i1 immarg) #8

; Function Attrs: mustprogress noinline nounwind uwtable
define linkonce_odr dso_local %"struct.std::_Rb_tree_node_base"* @_ZNSt3mapIllSt4lessIlESaISt4pairIKllEEE3endEv(%"class.std::map"* nonnull align 8 dereferenceable(48) %0) #7 comdat align 2 {
  %2 = alloca %"struct.std::_Rb_tree_const_iterator", align 8, !llfi_index !207
  %3 = alloca %"class.std::map"*, align 8, !llfi_index !208
  store %"class.std::map"* %0, %"class.std::map"** %3, align 8, !llfi_index !209
  %4 = load %"class.std::map"*, %"class.std::map"** %3, align 8, !llfi_index !210
  %5 = getelementptr inbounds %"class.std::map", %"class.std::map"* %4, i32 0, i32 0, !llfi_index !211
  %6 = call %"struct.std::_Rb_tree_node_base"* @_ZNSt8_Rb_treeIlSt4pairIKllESt10_Select1stIS2_ESt4lessIlESaIS2_EE3endEv(%"class.std::_Rb_tree"* nonnull align 8 dereferenceable(48) %5) #2, !llfi_index !212
  %7 = getelementptr inbounds %"struct.std::_Rb_tree_const_iterator", %"struct.std::_Rb_tree_const_iterator"* %2, i32 0, i32 0, !llfi_index !213
  store %"struct.std::_Rb_tree_node_base"* %6, %"struct.std::_Rb_tree_node_base"** %7, align 8, !llfi_index !214
  %8 = getelementptr inbounds %"struct.std::_Rb_tree_const_iterator", %"struct.std::_Rb_tree_const_iterator"* %2, i32 0, i32 0, !llfi_index !215
  %9 = load %"struct.std::_Rb_tree_node_base"*, %"struct.std::_Rb_tree_node_base"** %8, align 8, !llfi_index !216
  ret %"struct.std::_Rb_tree_node_base"* %9, !llfi_index !217
}

; Function Attrs: mustprogress noinline nounwind uwtable
define linkonce_odr dso_local zeroext i1 @_ZStneRKSt23_Rb_tree_const_iteratorISt4pairIKllEES5_(%"struct.std::_Rb_tree_const_iterator"* nonnull align 8 dereferenceable(8) %0, %"struct.std::_Rb_tree_const_iterator"* nonnull align 8 dereferenceable(8) %1) #7 comdat {
  %3 = alloca %"struct.std::_Rb_tree_const_iterator"*, align 8, !llfi_index !218
  %4 = alloca %"struct.std::_Rb_tree_const_iterator"*, align 8, !llfi_index !219
  store %"struct.std::_Rb_tree_const_iterator"* %0, %"struct.std::_Rb_tree_const_iterator"** %3, align 8, !llfi_index !220
  store %"struct.std::_Rb_tree_const_iterator"* %1, %"struct.std::_Rb_tree_const_iterator"** %4, align 8, !llfi_index !221
  %5 = load %"struct.std::_Rb_tree_const_iterator"*, %"struct.std::_Rb_tree_const_iterator"** %3, align 8, !llfi_index !222
  %6 = getelementptr inbounds %"struct.std::_Rb_tree_const_iterator", %"struct.std::_Rb_tree_const_iterator"* %5, i32 0, i32 0, !llfi_index !223
  %7 = load %"struct.std::_Rb_tree_node_base"*, %"struct.std::_Rb_tree_node_base"** %6, align 8, !llfi_index !224
  %8 = load %"struct.std::_Rb_tree_const_iterator"*, %"struct.std::_Rb_tree_const_iterator"** %4, align 8, !llfi_index !225
  %9 = getelementptr inbounds %"struct.std::_Rb_tree_const_iterator", %"struct.std::_Rb_tree_const_iterator"* %8, i32 0, i32 0, !llfi_index !226
  %10 = load %"struct.std::_Rb_tree_node_base"*, %"struct.std::_Rb_tree_node_base"** %9, align 8, !llfi_index !227
  %11 = icmp ne %"struct.std::_Rb_tree_node_base"* %7, %10, !llfi_index !228
  ret i1 %11, !llfi_index !229
}

; Function Attrs: mustprogress noinline nounwind uwtable
define linkonce_odr dso_local %"struct.std::pair"* @_ZNKSt23_Rb_tree_const_iteratorISt4pairIKllEEptEv(%"struct.std::_Rb_tree_const_iterator"* nonnull align 8 dereferenceable(8) %0) #7 comdat align 2 {
  %2 = alloca %"struct.std::_Rb_tree_const_iterator"*, align 8, !llfi_index !230
  store %"struct.std::_Rb_tree_const_iterator"* %0, %"struct.std::_Rb_tree_const_iterator"** %2, align 8, !llfi_index !231
  %3 = load %"struct.std::_Rb_tree_const_iterator"*, %"struct.std::_Rb_tree_const_iterator"** %2, align 8, !llfi_index !232
  %4 = getelementptr inbounds %"struct.std::_Rb_tree_const_iterator", %"struct.std::_Rb_tree_const_iterator"* %3, i32 0, i32 0, !llfi_index !233
  %5 = load %"struct.std::_Rb_tree_node_base"*, %"struct.std::_Rb_tree_node_base"** %4, align 8, !llfi_index !234
  %6 = bitcast %"struct.std::_Rb_tree_node_base"* %5 to %"struct.std::_Rb_tree_node"*, !llfi_index !235
  %7 = call %"struct.std::pair"* @_ZNKSt13_Rb_tree_nodeISt4pairIKllEE9_M_valptrEv(%"struct.std::_Rb_tree_node"* nonnull align 8 dereferenceable(48) %6), !llfi_index !236
  ret %"struct.std::pair"* %7, !llfi_index !237
}

; Function Attrs: mustprogress noinline nounwind uwtable
define linkonce_odr dso_local %"struct.std::_Rb_tree_node_base"* @_ZNSt23_Rb_tree_const_iteratorISt4pairIKllEEppEi(%"struct.std::_Rb_tree_const_iterator"* nonnull align 8 dereferenceable(8) %0, i32 %1) #7 comdat align 2 {
  %3 = alloca %"struct.std::_Rb_tree_const_iterator", align 8, !llfi_index !238
  %4 = alloca %"struct.std::_Rb_tree_const_iterator"*, align 8, !llfi_index !239
  %5 = alloca i32, align 4, !llfi_index !240
  store %"struct.std::_Rb_tree_const_iterator"* %0, %"struct.std::_Rb_tree_const_iterator"** %4, align 8, !llfi_index !241
  store i32 %1, i32* %5, align 4, !llfi_index !242
  %6 = load %"struct.std::_Rb_tree_const_iterator"*, %"struct.std::_Rb_tree_const_iterator"** %4, align 8, !llfi_index !243
  %7 = bitcast %"struct.std::_Rb_tree_const_iterator"* %3 to i8*, !llfi_index !244
  %8 = bitcast %"struct.std::_Rb_tree_const_iterator"* %6 to i8*, !llfi_index !245
  call void @llvm.memcpy.p0i8.p0i8.i64(i8* align 8 %7, i8* align 8 %8, i64 8, i1 false), !llfi_index !246
  %9 = getelementptr inbounds %"struct.std::_Rb_tree_const_iterator", %"struct.std::_Rb_tree_const_iterator"* %6, i32 0, i32 0, !llfi_index !247
  %10 = load %"struct.std::_Rb_tree_node_base"*, %"struct.std::_Rb_tree_node_base"** %9, align 8, !llfi_index !248
  %11 = call %"struct.std::_Rb_tree_node_base"* @_ZSt18_Rb_tree_incrementPKSt18_Rb_tree_node_base(%"struct.std::_Rb_tree_node_base"* %10) #15, !llfi_index !249
  %12 = getelementptr inbounds %"struct.std::_Rb_tree_const_iterator", %"struct.std::_Rb_tree_const_iterator"* %6, i32 0, i32 0, !llfi_index !250
  store %"struct.std::_Rb_tree_node_base"* %11, %"struct.std::_Rb_tree_node_base"** %12, align 8, !llfi_index !251
  %13 = getelementptr inbounds %"struct.std::_Rb_tree_const_iterator", %"struct.std::_Rb_tree_const_iterator"* %3, i32 0, i32 0, !llfi_index !252
  %14 = load %"struct.std::_Rb_tree_node_base"*, %"struct.std::_Rb_tree_node_base"** %13, align 8, !llfi_index !253
  ret %"struct.std::_Rb_tree_node_base"* %14, !llfi_index !254
}

declare dso_local nonnull align 8 dereferenceable(8) %"class.std::basic_ostream"* @_ZNSolsEx(%"class.std::basic_ostream"* nonnull align 8 dereferenceable(8), i64) #1

declare dso_local nonnull align 8 dereferenceable(8) %"class.std::basic_ostream"* @_ZSt4endlIcSt11char_traitsIcEERSt13basic_ostreamIT_T0_ES6_(%"class.std::basic_ostream"* nonnull align 8 dereferenceable(8)) #1

declare dso_local nonnull align 8 dereferenceable(8) %"class.std::basic_ostream"* @_ZNSolsEPFRSoS_E(%"class.std::basic_ostream"* nonnull align 8 dereferenceable(8), %"class.std::basic_ostream"* (%"class.std::basic_ostream"*)*) #1

; Function Attrs: nounwind readonly willreturn
declare dso_local %"struct.std::_Rb_tree_node_base"* @_ZSt18_Rb_tree_incrementPKSt18_Rb_tree_node_base(%"struct.std::_Rb_tree_node_base"*) #9

; Function Attrs: mustprogress noinline nounwind uwtable
define linkonce_odr dso_local %"struct.std::pair"* @_ZNKSt13_Rb_tree_nodeISt4pairIKllEE9_M_valptrEv(%"struct.std::_Rb_tree_node"* nonnull align 8 dereferenceable(48) %0) #7 comdat align 2 {
  %2 = alloca %"struct.std::_Rb_tree_node"*, align 8, !llfi_index !255
  store %"struct.std::_Rb_tree_node"* %0, %"struct.std::_Rb_tree_node"** %2, align 8, !llfi_index !256
  %3 = load %"struct.std::_Rb_tree_node"*, %"struct.std::_Rb_tree_node"** %2, align 8, !llfi_index !257
  %4 = getelementptr inbounds %"struct.std::_Rb_tree_node", %"struct.std::_Rb_tree_node"* %3, i32 0, i32 1, !llfi_index !258
  %5 = call %"struct.std::pair"* @_ZNK9__gnu_cxx16__aligned_membufISt4pairIKllEE6_M_ptrEv(%"struct.__gnu_cxx::__aligned_membuf"* nonnull align 8 dereferenceable(16) %4) #2, !llfi_index !259
  ret %"struct.std::pair"* %5, !llfi_index !260
}

; Function Attrs: mustprogress noinline nounwind uwtable
define linkonce_odr dso_local %"struct.std::pair"* @_ZNK9__gnu_cxx16__aligned_membufISt4pairIKllEE6_M_ptrEv(%"struct.__gnu_cxx::__aligned_membuf"* nonnull align 8 dereferenceable(16) %0) #7 comdat align 2 {
  %2 = alloca %"struct.__gnu_cxx::__aligned_membuf"*, align 8, !llfi_index !261
  store %"struct.__gnu_cxx::__aligned_membuf"* %0, %"struct.__gnu_cxx::__aligned_membuf"** %2, align 8, !llfi_index !262
  %3 = load %"struct.__gnu_cxx::__aligned_membuf"*, %"struct.__gnu_cxx::__aligned_membuf"** %2, align 8, !llfi_index !263
  %4 = call i8* @_ZNK9__gnu_cxx16__aligned_membufISt4pairIKllEE7_M_addrEv(%"struct.__gnu_cxx::__aligned_membuf"* nonnull align 8 dereferenceable(16) %3) #2, !llfi_index !264
  %5 = bitcast i8* %4 to %"struct.std::pair"*, !llfi_index !265
  ret %"struct.std::pair"* %5, !llfi_index !266
}

; Function Attrs: mustprogress noinline nounwind uwtable
define linkonce_odr dso_local i8* @_ZNK9__gnu_cxx16__aligned_membufISt4pairIKllEE7_M_addrEv(%"struct.__gnu_cxx::__aligned_membuf"* nonnull align 8 dereferenceable(16) %0) #7 comdat align 2 {
  %2 = alloca %"struct.__gnu_cxx::__aligned_membuf"*, align 8, !llfi_index !267
  store %"struct.__gnu_cxx::__aligned_membuf"* %0, %"struct.__gnu_cxx::__aligned_membuf"** %2, align 8, !llfi_index !268
  %3 = load %"struct.__gnu_cxx::__aligned_membuf"*, %"struct.__gnu_cxx::__aligned_membuf"** %2, align 8, !llfi_index !269
  %4 = getelementptr inbounds %"struct.__gnu_cxx::__aligned_membuf", %"struct.__gnu_cxx::__aligned_membuf"* %3, i32 0, i32 0, !llfi_index !270
  %5 = bitcast [16 x i8]* %4 to i8*, !llfi_index !271
  ret i8* %5, !llfi_index !272
}

; Function Attrs: mustprogress noinline nounwind uwtable
define linkonce_odr dso_local %"struct.std::_Rb_tree_node_base"* @_ZNSt8_Rb_treeIlSt4pairIKllESt10_Select1stIS2_ESt4lessIlESaIS2_EE3endEv(%"class.std::_Rb_tree"* nonnull align 8 dereferenceable(48) %0) #7 comdat align 2 {
  %2 = alloca %"struct.std::_Rb_tree_const_iterator", align 8, !llfi_index !273
  %3 = alloca %"class.std::_Rb_tree"*, align 8, !llfi_index !274
  store %"class.std::_Rb_tree"* %0, %"class.std::_Rb_tree"** %3, align 8, !llfi_index !275
  %4 = load %"class.std::_Rb_tree"*, %"class.std::_Rb_tree"** %3, align 8, !llfi_index !276
  %5 = getelementptr inbounds %"class.std::_Rb_tree", %"class.std::_Rb_tree"* %4, i32 0, i32 0, !llfi_index !277
  %6 = bitcast %"struct.std::_Rb_tree<long, std::pair<const long, long>, std::_Select1st<std::pair<const long, long>>, std::less<long>>::_Rb_tree_impl"* %5 to i8*, !llfi_index !278
  %7 = getelementptr inbounds i8, i8* %6, i64 8, !llfi_index !279
  %8 = bitcast i8* %7 to %"struct.std::_Rb_tree_header"*, !llfi_index !280
  %9 = getelementptr inbounds %"struct.std::_Rb_tree_header", %"struct.std::_Rb_tree_header"* %8, i32 0, i32 0, !llfi_index !281
  call void @_ZNSt17_Rb_tree_iteratorISt4pairIKllEEC2EPSt18_Rb_tree_node_base(%"struct.std::_Rb_tree_const_iterator"* nonnull align 8 dereferenceable(8) %2, %"struct.std::_Rb_tree_node_base"* %9) #2, !llfi_index !282
  %10 = getelementptr inbounds %"struct.std::_Rb_tree_const_iterator", %"struct.std::_Rb_tree_const_iterator"* %2, i32 0, i32 0, !llfi_index !283
  %11 = load %"struct.std::_Rb_tree_node_base"*, %"struct.std::_Rb_tree_node_base"** %10, align 8, !llfi_index !284
  ret %"struct.std::_Rb_tree_node_base"* %11, !llfi_index !285
}

; Function Attrs: noinline nounwind uwtable
define linkonce_odr dso_local void @_ZNSt17_Rb_tree_iteratorISt4pairIKllEEC2EPSt18_Rb_tree_node_base(%"struct.std::_Rb_tree_const_iterator"* nonnull align 8 dereferenceable(8) %0, %"struct.std::_Rb_tree_node_base"* %1) unnamed_addr #5 comdat align 2 {
  %3 = alloca %"struct.std::_Rb_tree_const_iterator"*, align 8, !llfi_index !286
  %4 = alloca %"struct.std::_Rb_tree_node_base"*, align 8, !llfi_index !287
  store %"struct.std::_Rb_tree_const_iterator"* %0, %"struct.std::_Rb_tree_const_iterator"** %3, align 8, !llfi_index !288
  store %"struct.std::_Rb_tree_node_base"* %1, %"struct.std::_Rb_tree_node_base"** %4, align 8, !llfi_index !289
  %5 = load %"struct.std::_Rb_tree_const_iterator"*, %"struct.std::_Rb_tree_const_iterator"** %3, align 8, !llfi_index !290
  %6 = getelementptr inbounds %"struct.std::_Rb_tree_const_iterator", %"struct.std::_Rb_tree_const_iterator"* %5, i32 0, i32 0, !llfi_index !291
  %7 = load %"struct.std::_Rb_tree_node_base"*, %"struct.std::_Rb_tree_node_base"** %4, align 8, !llfi_index !292
  store %"struct.std::_Rb_tree_node_base"* %7, %"struct.std::_Rb_tree_node_base"** %6, align 8, !llfi_index !293
  ret void, !llfi_index !294
}

; Function Attrs: mustprogress noinline nounwind uwtable
define linkonce_odr dso_local %"struct.std::_Rb_tree_node_base"* @_ZNSt8_Rb_treeIlSt4pairIKllESt10_Select1stIS2_ESt4lessIlESaIS2_EE5beginEv(%"class.std::_Rb_tree"* nonnull align 8 dereferenceable(48) %0) #7 comdat align 2 {
  %2 = alloca %"struct.std::_Rb_tree_const_iterator", align 8, !llfi_index !295
  %3 = alloca %"class.std::_Rb_tree"*, align 8, !llfi_index !296
  store %"class.std::_Rb_tree"* %0, %"class.std::_Rb_tree"** %3, align 8, !llfi_index !297
  %4 = load %"class.std::_Rb_tree"*, %"class.std::_Rb_tree"** %3, align 8, !llfi_index !298
  %5 = getelementptr inbounds %"class.std::_Rb_tree", %"class.std::_Rb_tree"* %4, i32 0, i32 0, !llfi_index !299
  %6 = bitcast %"struct.std::_Rb_tree<long, std::pair<const long, long>, std::_Select1st<std::pair<const long, long>>, std::less<long>>::_Rb_tree_impl"* %5 to i8*, !llfi_index !300
  %7 = getelementptr inbounds i8, i8* %6, i64 8, !llfi_index !301
  %8 = bitcast i8* %7 to %"struct.std::_Rb_tree_header"*, !llfi_index !302
  %9 = getelementptr inbounds %"struct.std::_Rb_tree_header", %"struct.std::_Rb_tree_header"* %8, i32 0, i32 0, !llfi_index !303
  %10 = getelementptr inbounds %"struct.std::_Rb_tree_node_base", %"struct.std::_Rb_tree_node_base"* %9, i32 0, i32 2, !llfi_index !304
  %11 = load %"struct.std::_Rb_tree_node_base"*, %"struct.std::_Rb_tree_node_base"** %10, align 8, !llfi_index !305
  call void @_ZNSt17_Rb_tree_iteratorISt4pairIKllEEC2EPSt18_Rb_tree_node_base(%"struct.std::_Rb_tree_const_iterator"* nonnull align 8 dereferenceable(8) %2, %"struct.std::_Rb_tree_node_base"* %11) #2, !llfi_index !306
  %12 = getelementptr inbounds %"struct.std::_Rb_tree_const_iterator", %"struct.std::_Rb_tree_const_iterator"* %2, i32 0, i32 0, !llfi_index !307
  %13 = load %"struct.std::_Rb_tree_node_base"*, %"struct.std::_Rb_tree_node_base"** %12, align 8, !llfi_index !308
  ret %"struct.std::_Rb_tree_node_base"* %13, !llfi_index !309
}

; Function Attrs: noinline nounwind uwtable
define linkonce_odr dso_local void @_ZNSt8_Rb_treeIlSt4pairIKllESt10_Select1stIS2_ESt4lessIlESaIS2_EED2Ev(%"class.std::_Rb_tree"* nonnull align 8 dereferenceable(48) %0) unnamed_addr #5 comdat align 2 personality i8* bitcast (i32 (...)* @__gxx_personality_v0 to i8*) {
  %2 = alloca %"class.std::_Rb_tree"*, align 8, !llfi_index !310
  %3 = alloca i8*, align 8, !llfi_index !311
  %4 = alloca i32, align 4, !llfi_index !312
  store %"class.std::_Rb_tree"* %0, %"class.std::_Rb_tree"** %2, align 8, !llfi_index !313
  %5 = load %"class.std::_Rb_tree"*, %"class.std::_Rb_tree"** %2, align 8, !llfi_index !314
  %6 = call %"struct.std::_Rb_tree_node"* @_ZNSt8_Rb_treeIlSt4pairIKllESt10_Select1stIS2_ESt4lessIlESaIS2_EE8_M_beginEv(%"class.std::_Rb_tree"* nonnull align 8 dereferenceable(48) %5) #2, !llfi_index !315
  invoke void @_ZNSt8_Rb_treeIlSt4pairIKllESt10_Select1stIS2_ESt4lessIlESaIS2_EE8_M_eraseEPSt13_Rb_tree_nodeIS2_E(%"class.std::_Rb_tree"* nonnull align 8 dereferenceable(48) %5, %"struct.std::_Rb_tree_node"* %6)
          to label %7 unwind label %9, !llfi_index !316

7:                                                ; preds = %1
  %8 = getelementptr inbounds %"class.std::_Rb_tree", %"class.std::_Rb_tree"* %5, i32 0, i32 0, !llfi_index !317
  call void @_ZNSt8_Rb_treeIlSt4pairIKllESt10_Select1stIS2_ESt4lessIlESaIS2_EE13_Rb_tree_implIS6_Lb1EED2Ev(%"struct.std::_Rb_tree<long, std::pair<const long, long>, std::_Select1st<std::pair<const long, long>>, std::less<long>>::_Rb_tree_impl"* nonnull align 8 dereferenceable(48) %8) #2, !llfi_index !318
  ret void, !llfi_index !319

9:                                                ; preds = %1
  %10 = landingpad { i8*, i32 }
          catch i8* null, !llfi_index !320
  %11 = extractvalue { i8*, i32 } %10, 0, !llfi_index !321
  store i8* %11, i8** %3, align 8, !llfi_index !322
  %12 = extractvalue { i8*, i32 } %10, 1, !llfi_index !323
  store i32 %12, i32* %4, align 4, !llfi_index !324
  %13 = getelementptr inbounds %"class.std::_Rb_tree", %"class.std::_Rb_tree"* %5, i32 0, i32 0, !llfi_index !325
  call void @_ZNSt8_Rb_treeIlSt4pairIKllESt10_Select1stIS2_ESt4lessIlESaIS2_EE13_Rb_tree_implIS6_Lb1EED2Ev(%"struct.std::_Rb_tree<long, std::pair<const long, long>, std::_Select1st<std::pair<const long, long>>, std::less<long>>::_Rb_tree_impl"* nonnull align 8 dereferenceable(48) %13) #2, !llfi_index !326
  br label %14, !llfi_index !327

14:                                               ; preds = %9
  %15 = load i8*, i8** %3, align 8, !llfi_index !328
  call void @__clang_call_terminate(i8* %15) #16, !llfi_index !329
  unreachable, !llfi_index !330
}

; Function Attrs: mustprogress noinline nounwind uwtable
define linkonce_odr dso_local %"struct.std::_Rb_tree_node"* @_ZNSt8_Rb_treeIlSt4pairIKllESt10_Select1stIS2_ESt4lessIlESaIS2_EE8_M_beginEv(%"class.std::_Rb_tree"* nonnull align 8 dereferenceable(48) %0) #7 comdat align 2 {
  %2 = alloca %"class.std::_Rb_tree"*, align 8, !llfi_index !331
  store %"class.std::_Rb_tree"* %0, %"class.std::_Rb_tree"** %2, align 8, !llfi_index !332
  %3 = load %"class.std::_Rb_tree"*, %"class.std::_Rb_tree"** %2, align 8, !llfi_index !333
  %4 = getelementptr inbounds %"class.std::_Rb_tree", %"class.std::_Rb_tree"* %3, i32 0, i32 0, !llfi_index !334
  %5 = bitcast %"struct.std::_Rb_tree<long, std::pair<const long, long>, std::_Select1st<std::pair<const long, long>>, std::less<long>>::_Rb_tree_impl"* %4 to i8*, !llfi_index !335
  %6 = getelementptr inbounds i8, i8* %5, i64 8, !llfi_index !336
  %7 = bitcast i8* %6 to %"struct.std::_Rb_tree_header"*, !llfi_index !337
  %8 = getelementptr inbounds %"struct.std::_Rb_tree_header", %"struct.std::_Rb_tree_header"* %7, i32 0, i32 0, !llfi_index !338
  %9 = getelementptr inbounds %"struct.std::_Rb_tree_node_base", %"struct.std::_Rb_tree_node_base"* %8, i32 0, i32 1, !llfi_index !339
  %10 = load %"struct.std::_Rb_tree_node_base"*, %"struct.std::_Rb_tree_node_base"** %9, align 8, !llfi_index !340
  %11 = bitcast %"struct.std::_Rb_tree_node_base"* %10 to %"struct.std::_Rb_tree_node"*, !llfi_index !341
  ret %"struct.std::_Rb_tree_node"* %11, !llfi_index !342
}

; Function Attrs: mustprogress noinline uwtable
define linkonce_odr dso_local void @_ZNSt8_Rb_treeIlSt4pairIKllESt10_Select1stIS2_ESt4lessIlESaIS2_EE8_M_eraseEPSt13_Rb_tree_nodeIS2_E(%"class.std::_Rb_tree"* nonnull align 8 dereferenceable(48) %0, %"struct.std::_Rb_tree_node"* %1) #6 comdat align 2 {
  %3 = alloca %"class.std::_Rb_tree"*, align 8, !llfi_index !343
  %4 = alloca %"struct.std::_Rb_tree_node"*, align 8, !llfi_index !344
  %5 = alloca %"struct.std::_Rb_tree_node"*, align 8, !llfi_index !345
  store %"class.std::_Rb_tree"* %0, %"class.std::_Rb_tree"** %3, align 8, !llfi_index !346
  store %"struct.std::_Rb_tree_node"* %1, %"struct.std::_Rb_tree_node"** %4, align 8, !llfi_index !347
  %6 = load %"class.std::_Rb_tree"*, %"class.std::_Rb_tree"** %3, align 8, !llfi_index !348
  br label %7, !llfi_index !349

7:                                                ; preds = %10, %2
  %8 = load %"struct.std::_Rb_tree_node"*, %"struct.std::_Rb_tree_node"** %4, align 8, !llfi_index !350
  %9 = icmp ne %"struct.std::_Rb_tree_node"* %8, null, !llfi_index !351
  br i1 %9, label %10, label %19, !llfi_index !352

10:                                               ; preds = %7
  %11 = load %"struct.std::_Rb_tree_node"*, %"struct.std::_Rb_tree_node"** %4, align 8, !llfi_index !353
  %12 = bitcast %"struct.std::_Rb_tree_node"* %11 to %"struct.std::_Rb_tree_node_base"*, !llfi_index !354
  %13 = call %"struct.std::_Rb_tree_node"* @_ZNSt8_Rb_treeIlSt4pairIKllESt10_Select1stIS2_ESt4lessIlESaIS2_EE8_S_rightEPSt18_Rb_tree_node_base(%"struct.std::_Rb_tree_node_base"* %12) #2, !llfi_index !355
  call void @_ZNSt8_Rb_treeIlSt4pairIKllESt10_Select1stIS2_ESt4lessIlESaIS2_EE8_M_eraseEPSt13_Rb_tree_nodeIS2_E(%"class.std::_Rb_tree"* nonnull align 8 dereferenceable(48) %6, %"struct.std::_Rb_tree_node"* %13), !llfi_index !356
  %14 = load %"struct.std::_Rb_tree_node"*, %"struct.std::_Rb_tree_node"** %4, align 8, !llfi_index !357
  %15 = bitcast %"struct.std::_Rb_tree_node"* %14 to %"struct.std::_Rb_tree_node_base"*, !llfi_index !358
  %16 = call %"struct.std::_Rb_tree_node"* @_ZNSt8_Rb_treeIlSt4pairIKllESt10_Select1stIS2_ESt4lessIlESaIS2_EE7_S_leftEPSt18_Rb_tree_node_base(%"struct.std::_Rb_tree_node_base"* %15) #2, !llfi_index !359
  store %"struct.std::_Rb_tree_node"* %16, %"struct.std::_Rb_tree_node"** %5, align 8, !llfi_index !360
  %17 = load %"struct.std::_Rb_tree_node"*, %"struct.std::_Rb_tree_node"** %4, align 8, !llfi_index !361
  call void @_ZNSt8_Rb_treeIlSt4pairIKllESt10_Select1stIS2_ESt4lessIlESaIS2_EE12_M_drop_nodeEPSt13_Rb_tree_nodeIS2_E(%"class.std::_Rb_tree"* nonnull align 8 dereferenceable(48) %6, %"struct.std::_Rb_tree_node"* %17) #2, !llfi_index !362
  %18 = load %"struct.std::_Rb_tree_node"*, %"struct.std::_Rb_tree_node"** %5, align 8, !llfi_index !363
  store %"struct.std::_Rb_tree_node"* %18, %"struct.std::_Rb_tree_node"** %4, align 8, !llfi_index !364
  br label %7, !llvm.loop !365, !llfi_index !366

19:                                               ; preds = %7
  ret void, !llfi_index !367
}

; Function Attrs: noinline nounwind uwtable
define linkonce_odr dso_local void @_ZNSt8_Rb_treeIlSt4pairIKllESt10_Select1stIS2_ESt4lessIlESaIS2_EE13_Rb_tree_implIS6_Lb1EED2Ev(%"struct.std::_Rb_tree<long, std::pair<const long, long>, std::_Select1st<std::pair<const long, long>>, std::less<long>>::_Rb_tree_impl"* nonnull align 8 dereferenceable(48) %0) unnamed_addr #5 comdat align 2 {
  %2 = alloca %"struct.std::_Rb_tree<long, std::pair<const long, long>, std::_Select1st<std::pair<const long, long>>, std::less<long>>::_Rb_tree_impl"*, align 8, !llfi_index !368
  store %"struct.std::_Rb_tree<long, std::pair<const long, long>, std::_Select1st<std::pair<const long, long>>, std::less<long>>::_Rb_tree_impl"* %0, %"struct.std::_Rb_tree<long, std::pair<const long, long>, std::_Select1st<std::pair<const long, long>>, std::less<long>>::_Rb_tree_impl"** %2, align 8, !llfi_index !369
  %3 = load %"struct.std::_Rb_tree<long, std::pair<const long, long>, std::_Select1st<std::pair<const long, long>>, std::less<long>>::_Rb_tree_impl"*, %"struct.std::_Rb_tree<long, std::pair<const long, long>, std::_Select1st<std::pair<const long, long>>, std::less<long>>::_Rb_tree_impl"** %2, align 8, !llfi_index !370
  %4 = bitcast %"struct.std::_Rb_tree<long, std::pair<const long, long>, std::_Select1st<std::pair<const long, long>>, std::less<long>>::_Rb_tree_impl"* %3 to %"class.std::ios_base::Init"*, !llfi_index !371
  call void @_ZNSaISt13_Rb_tree_nodeISt4pairIKllEEED2Ev(%"class.std::ios_base::Init"* nonnull align 1 dereferenceable(1) %4) #2, !llfi_index !372
  ret void, !llfi_index !373
}

; Function Attrs: noinline noreturn nounwind
define linkonce_odr hidden void @__clang_call_terminate(i8* %0) #10 comdat {
  %2 = call i8* @__cxa_begin_catch(i8* %0) #2, !llfi_index !374
  call void @_ZSt9terminatev() #16, !llfi_index !375
  unreachable, !llfi_index !376
}

declare dso_local i8* @__cxa_begin_catch(i8*)

declare dso_local void @_ZSt9terminatev()

; Function Attrs: noinline nounwind uwtable
define linkonce_odr dso_local void @_ZNSaISt13_Rb_tree_nodeISt4pairIKllEEED2Ev(%"class.std::ios_base::Init"* nonnull align 1 dereferenceable(1) %0) unnamed_addr #5 comdat align 2 {
  %2 = alloca %"class.std::ios_base::Init"*, align 8, !llfi_index !377
  store %"class.std::ios_base::Init"* %0, %"class.std::ios_base::Init"** %2, align 8, !llfi_index !378
  %3 = load %"class.std::ios_base::Init"*, %"class.std::ios_base::Init"** %2, align 8, !llfi_index !379
  %4 = bitcast %"class.std::ios_base::Init"* %3 to %"class.std::ios_base::Init"*, !llfi_index !380
  call void @_ZN9__gnu_cxx13new_allocatorISt13_Rb_tree_nodeISt4pairIKllEEED2Ev(%"class.std::ios_base::Init"* nonnull align 1 dereferenceable(1) %4) #2, !llfi_index !381
  ret void, !llfi_index !382
}

; Function Attrs: noinline nounwind uwtable
define linkonce_odr dso_local void @_ZN9__gnu_cxx13new_allocatorISt13_Rb_tree_nodeISt4pairIKllEEED2Ev(%"class.std::ios_base::Init"* nonnull align 1 dereferenceable(1) %0) unnamed_addr #5 comdat align 2 {
  %2 = alloca %"class.std::ios_base::Init"*, align 8, !llfi_index !383
  store %"class.std::ios_base::Init"* %0, %"class.std::ios_base::Init"** %2, align 8, !llfi_index !384
  %3 = load %"class.std::ios_base::Init"*, %"class.std::ios_base::Init"** %2, align 8, !llfi_index !385
  ret void, !llfi_index !386
}

; Function Attrs: mustprogress noinline nounwind uwtable
define linkonce_odr dso_local %"struct.std::_Rb_tree_node"* @_ZNSt8_Rb_treeIlSt4pairIKllESt10_Select1stIS2_ESt4lessIlESaIS2_EE8_S_rightEPSt18_Rb_tree_node_base(%"struct.std::_Rb_tree_node_base"* %0) #7 comdat align 2 {
  %2 = alloca %"struct.std::_Rb_tree_node_base"*, align 8, !llfi_index !387
  store %"struct.std::_Rb_tree_node_base"* %0, %"struct.std::_Rb_tree_node_base"** %2, align 8, !llfi_index !388
  %3 = load %"struct.std::_Rb_tree_node_base"*, %"struct.std::_Rb_tree_node_base"** %2, align 8, !llfi_index !389
  %4 = getelementptr inbounds %"struct.std::_Rb_tree_node_base", %"struct.std::_Rb_tree_node_base"* %3, i32 0, i32 3, !llfi_index !390
  %5 = load %"struct.std::_Rb_tree_node_base"*, %"struct.std::_Rb_tree_node_base"** %4, align 8, !llfi_index !391
  %6 = bitcast %"struct.std::_Rb_tree_node_base"* %5 to %"struct.std::_Rb_tree_node"*, !llfi_index !392
  ret %"struct.std::_Rb_tree_node"* %6, !llfi_index !393
}

; Function Attrs: mustprogress noinline nounwind uwtable
define linkonce_odr dso_local %"struct.std::_Rb_tree_node"* @_ZNSt8_Rb_treeIlSt4pairIKllESt10_Select1stIS2_ESt4lessIlESaIS2_EE7_S_leftEPSt18_Rb_tree_node_base(%"struct.std::_Rb_tree_node_base"* %0) #7 comdat align 2 {
  %2 = alloca %"struct.std::_Rb_tree_node_base"*, align 8, !llfi_index !394
  store %"struct.std::_Rb_tree_node_base"* %0, %"struct.std::_Rb_tree_node_base"** %2, align 8, !llfi_index !395
  %3 = load %"struct.std::_Rb_tree_node_base"*, %"struct.std::_Rb_tree_node_base"** %2, align 8, !llfi_index !396
  %4 = getelementptr inbounds %"struct.std::_Rb_tree_node_base", %"struct.std::_Rb_tree_node_base"* %3, i32 0, i32 2, !llfi_index !397
  %5 = load %"struct.std::_Rb_tree_node_base"*, %"struct.std::_Rb_tree_node_base"** %4, align 8, !llfi_index !398
  %6 = bitcast %"struct.std::_Rb_tree_node_base"* %5 to %"struct.std::_Rb_tree_node"*, !llfi_index !399
  ret %"struct.std::_Rb_tree_node"* %6, !llfi_index !400
}

; Function Attrs: mustprogress noinline nounwind uwtable
define linkonce_odr dso_local void @_ZNSt8_Rb_treeIlSt4pairIKllESt10_Select1stIS2_ESt4lessIlESaIS2_EE12_M_drop_nodeEPSt13_Rb_tree_nodeIS2_E(%"class.std::_Rb_tree"* nonnull align 8 dereferenceable(48) %0, %"struct.std::_Rb_tree_node"* %1) #7 comdat align 2 {
  %3 = alloca %"class.std::_Rb_tree"*, align 8, !llfi_index !401
  %4 = alloca %"struct.std::_Rb_tree_node"*, align 8, !llfi_index !402
  store %"class.std::_Rb_tree"* %0, %"class.std::_Rb_tree"** %3, align 8, !llfi_index !403
  store %"struct.std::_Rb_tree_node"* %1, %"struct.std::_Rb_tree_node"** %4, align 8, !llfi_index !404
  %5 = load %"class.std::_Rb_tree"*, %"class.std::_Rb_tree"** %3, align 8, !llfi_index !405
  %6 = load %"struct.std::_Rb_tree_node"*, %"struct.std::_Rb_tree_node"** %4, align 8, !llfi_index !406
  call void @_ZNSt8_Rb_treeIlSt4pairIKllESt10_Select1stIS2_ESt4lessIlESaIS2_EE15_M_destroy_nodeEPSt13_Rb_tree_nodeIS2_E(%"class.std::_Rb_tree"* nonnull align 8 dereferenceable(48) %5, %"struct.std::_Rb_tree_node"* %6) #2, !llfi_index !407
  %7 = load %"struct.std::_Rb_tree_node"*, %"struct.std::_Rb_tree_node"** %4, align 8, !llfi_index !408
  call void @_ZNSt8_Rb_treeIlSt4pairIKllESt10_Select1stIS2_ESt4lessIlESaIS2_EE11_M_put_nodeEPSt13_Rb_tree_nodeIS2_E(%"class.std::_Rb_tree"* nonnull align 8 dereferenceable(48) %5, %"struct.std::_Rb_tree_node"* %7) #2, !llfi_index !409
  ret void, !llfi_index !410
}

; Function Attrs: mustprogress noinline nounwind uwtable
define linkonce_odr dso_local void @_ZNSt8_Rb_treeIlSt4pairIKllESt10_Select1stIS2_ESt4lessIlESaIS2_EE15_M_destroy_nodeEPSt13_Rb_tree_nodeIS2_E(%"class.std::_Rb_tree"* nonnull align 8 dereferenceable(48) %0, %"struct.std::_Rb_tree_node"* %1) #7 comdat align 2 personality i8* bitcast (i32 (...)* @__gxx_personality_v0 to i8*) {
  %3 = alloca %"class.std::_Rb_tree"*, align 8, !llfi_index !411
  %4 = alloca %"struct.std::_Rb_tree_node"*, align 8, !llfi_index !412
  store %"class.std::_Rb_tree"* %0, %"class.std::_Rb_tree"** %3, align 8, !llfi_index !413
  store %"struct.std::_Rb_tree_node"* %1, %"struct.std::_Rb_tree_node"** %4, align 8, !llfi_index !414
  %5 = load %"class.std::_Rb_tree"*, %"class.std::_Rb_tree"** %3, align 8, !llfi_index !415
  %6 = call nonnull align 1 dereferenceable(1) %"class.std::ios_base::Init"* @_ZNSt8_Rb_treeIlSt4pairIKllESt10_Select1stIS2_ESt4lessIlESaIS2_EE21_M_get_Node_allocatorEv(%"class.std::_Rb_tree"* nonnull align 8 dereferenceable(48) %5) #2, !llfi_index !416
  %7 = load %"struct.std::_Rb_tree_node"*, %"struct.std::_Rb_tree_node"** %4, align 8, !llfi_index !417
  %8 = invoke %"struct.std::pair"* @_ZNSt13_Rb_tree_nodeISt4pairIKllEE9_M_valptrEv(%"struct.std::_Rb_tree_node"* nonnull align 8 dereferenceable(48) %7)
          to label %9 unwind label %11, !llfi_index !418

9:                                                ; preds = %2
  call void @_ZNSt16allocator_traitsISaISt13_Rb_tree_nodeISt4pairIKllEEEE7destroyIS3_EEvRS5_PT_(%"class.std::ios_base::Init"* nonnull align 1 dereferenceable(1) %6, %"struct.std::pair"* %8) #2, !llfi_index !419
  %10 = load %"struct.std::_Rb_tree_node"*, %"struct.std::_Rb_tree_node"** %4, align 8, !llfi_index !420
  ret void, !llfi_index !421

11:                                               ; preds = %2
  %12 = landingpad { i8*, i32 }
          catch i8* null, !llfi_index !422
  %13 = extractvalue { i8*, i32 } %12, 0, !llfi_index !423
  call void @__clang_call_terminate(i8* %13) #16, !llfi_index !424
  unreachable, !llfi_index !425
}

; Function Attrs: mustprogress noinline nounwind uwtable
define linkonce_odr dso_local void @_ZNSt8_Rb_treeIlSt4pairIKllESt10_Select1stIS2_ESt4lessIlESaIS2_EE11_M_put_nodeEPSt13_Rb_tree_nodeIS2_E(%"class.std::_Rb_tree"* nonnull align 8 dereferenceable(48) %0, %"struct.std::_Rb_tree_node"* %1) #7 comdat align 2 personality i8* bitcast (i32 (...)* @__gxx_personality_v0 to i8*) {
  %3 = alloca %"class.std::_Rb_tree"*, align 8, !llfi_index !426
  %4 = alloca %"struct.std::_Rb_tree_node"*, align 8, !llfi_index !427
  store %"class.std::_Rb_tree"* %0, %"class.std::_Rb_tree"** %3, align 8, !llfi_index !428
  store %"struct.std::_Rb_tree_node"* %1, %"struct.std::_Rb_tree_node"** %4, align 8, !llfi_index !429
  %5 = load %"class.std::_Rb_tree"*, %"class.std::_Rb_tree"** %3, align 8, !llfi_index !430
  %6 = call nonnull align 1 dereferenceable(1) %"class.std::ios_base::Init"* @_ZNSt8_Rb_treeIlSt4pairIKllESt10_Select1stIS2_ESt4lessIlESaIS2_EE21_M_get_Node_allocatorEv(%"class.std::_Rb_tree"* nonnull align 8 dereferenceable(48) %5) #2, !llfi_index !431
  %7 = load %"struct.std::_Rb_tree_node"*, %"struct.std::_Rb_tree_node"** %4, align 8, !llfi_index !432
  invoke void @_ZNSt16allocator_traitsISaISt13_Rb_tree_nodeISt4pairIKllEEEE10deallocateERS5_PS4_m(%"class.std::ios_base::Init"* nonnull align 1 dereferenceable(1) %6, %"struct.std::_Rb_tree_node"* %7, i64 1)
          to label %8 unwind label %9, !llfi_index !433

8:                                                ; preds = %2
  ret void, !llfi_index !434

9:                                                ; preds = %2
  %10 = landingpad { i8*, i32 }
          catch i8* null, !llfi_index !435
  %11 = extractvalue { i8*, i32 } %10, 0, !llfi_index !436
  call void @__clang_call_terminate(i8* %11) #16, !llfi_index !437
  unreachable, !llfi_index !438
}

; Function Attrs: mustprogress noinline nounwind uwtable
define linkonce_odr dso_local nonnull align 1 dereferenceable(1) %"class.std::ios_base::Init"* @_ZNSt8_Rb_treeIlSt4pairIKllESt10_Select1stIS2_ESt4lessIlESaIS2_EE21_M_get_Node_allocatorEv(%"class.std::_Rb_tree"* nonnull align 8 dereferenceable(48) %0) #7 comdat align 2 {
  %2 = alloca %"class.std::_Rb_tree"*, align 8, !llfi_index !439
  store %"class.std::_Rb_tree"* %0, %"class.std::_Rb_tree"** %2, align 8, !llfi_index !440
  %3 = load %"class.std::_Rb_tree"*, %"class.std::_Rb_tree"** %2, align 8, !llfi_index !441
  %4 = getelementptr inbounds %"class.std::_Rb_tree", %"class.std::_Rb_tree"* %3, i32 0, i32 0, !llfi_index !442
  %5 = bitcast %"struct.std::_Rb_tree<long, std::pair<const long, long>, std::_Select1st<std::pair<const long, long>>, std::less<long>>::_Rb_tree_impl"* %4 to %"class.std::ios_base::Init"*, !llfi_index !443
  ret %"class.std::ios_base::Init"* %5, !llfi_index !444
}

; Function Attrs: mustprogress noinline uwtable
define linkonce_odr dso_local void @_ZNSt16allocator_traitsISaISt13_Rb_tree_nodeISt4pairIKllEEEE10deallocateERS5_PS4_m(%"class.std::ios_base::Init"* nonnull align 1 dereferenceable(1) %0, %"struct.std::_Rb_tree_node"* %1, i64 %2) #6 comdat align 2 {
  %4 = alloca %"class.std::ios_base::Init"*, align 8, !llfi_index !445
  %5 = alloca %"struct.std::_Rb_tree_node"*, align 8, !llfi_index !446
  %6 = alloca i64, align 8, !llfi_index !447
  store %"class.std::ios_base::Init"* %0, %"class.std::ios_base::Init"** %4, align 8, !llfi_index !448
  store %"struct.std::_Rb_tree_node"* %1, %"struct.std::_Rb_tree_node"** %5, align 8, !llfi_index !449
  store i64 %2, i64* %6, align 8, !llfi_index !450
  %7 = load %"class.std::ios_base::Init"*, %"class.std::ios_base::Init"** %4, align 8, !llfi_index !451
  %8 = bitcast %"class.std::ios_base::Init"* %7 to %"class.std::ios_base::Init"*, !llfi_index !452
  %9 = load %"struct.std::_Rb_tree_node"*, %"struct.std::_Rb_tree_node"** %5, align 8, !llfi_index !453
  %10 = load i64, i64* %6, align 8, !llfi_index !454
  call void @_ZN9__gnu_cxx13new_allocatorISt13_Rb_tree_nodeISt4pairIKllEEE10deallocateEPS5_m(%"class.std::ios_base::Init"* nonnull align 1 dereferenceable(1) %8, %"struct.std::_Rb_tree_node"* %9, i64 %10), !llfi_index !455
  ret void, !llfi_index !456
}

; Function Attrs: mustprogress noinline nounwind uwtable
define linkonce_odr dso_local void @_ZN9__gnu_cxx13new_allocatorISt13_Rb_tree_nodeISt4pairIKllEEE10deallocateEPS5_m(%"class.std::ios_base::Init"* nonnull align 1 dereferenceable(1) %0, %"struct.std::_Rb_tree_node"* %1, i64 %2) #7 comdat align 2 {
  %4 = alloca %"class.std::ios_base::Init"*, align 8, !llfi_index !457
  %5 = alloca %"struct.std::_Rb_tree_node"*, align 8, !llfi_index !458
  %6 = alloca i64, align 8, !llfi_index !459
  store %"class.std::ios_base::Init"* %0, %"class.std::ios_base::Init"** %4, align 8, !llfi_index !460
  store %"struct.std::_Rb_tree_node"* %1, %"struct.std::_Rb_tree_node"** %5, align 8, !llfi_index !461
  store i64 %2, i64* %6, align 8, !llfi_index !462
  %7 = load %"class.std::ios_base::Init"*, %"class.std::ios_base::Init"** %4, align 8, !llfi_index !463
  %8 = load %"struct.std::_Rb_tree_node"*, %"struct.std::_Rb_tree_node"** %5, align 8, !llfi_index !464
  %9 = bitcast %"struct.std::_Rb_tree_node"* %8 to i8*, !llfi_index !465
  call void @_ZdlPv(i8* %9) #2, !llfi_index !466
  ret void, !llfi_index !467
}

; Function Attrs: nobuiltin nounwind
declare dso_local void @_ZdlPv(i8*) #11

; Function Attrs: mustprogress noinline nounwind uwtable
define linkonce_odr dso_local %"struct.std::pair"* @_ZNSt13_Rb_tree_nodeISt4pairIKllEE9_M_valptrEv(%"struct.std::_Rb_tree_node"* nonnull align 8 dereferenceable(48) %0) #7 comdat align 2 {
  %2 = alloca %"struct.std::_Rb_tree_node"*, align 8, !llfi_index !468
  store %"struct.std::_Rb_tree_node"* %0, %"struct.std::_Rb_tree_node"** %2, align 8, !llfi_index !469
  %3 = load %"struct.std::_Rb_tree_node"*, %"struct.std::_Rb_tree_node"** %2, align 8, !llfi_index !470
  %4 = getelementptr inbounds %"struct.std::_Rb_tree_node", %"struct.std::_Rb_tree_node"* %3, i32 0, i32 1, !llfi_index !471
  %5 = call %"struct.std::pair"* @_ZN9__gnu_cxx16__aligned_membufISt4pairIKllEE6_M_ptrEv(%"struct.__gnu_cxx::__aligned_membuf"* nonnull align 8 dereferenceable(16) %4) #2, !llfi_index !472
  ret %"struct.std::pair"* %5, !llfi_index !473
}

; Function Attrs: mustprogress noinline nounwind uwtable
define linkonce_odr dso_local void @_ZNSt16allocator_traitsISaISt13_Rb_tree_nodeISt4pairIKllEEEE7destroyIS3_EEvRS5_PT_(%"class.std::ios_base::Init"* nonnull align 1 dereferenceable(1) %0, %"struct.std::pair"* %1) #7 comdat align 2 {
  %3 = alloca %"class.std::ios_base::Init"*, align 8, !llfi_index !474
  %4 = alloca %"struct.std::pair"*, align 8, !llfi_index !475
  store %"class.std::ios_base::Init"* %0, %"class.std::ios_base::Init"** %3, align 8, !llfi_index !476
  store %"struct.std::pair"* %1, %"struct.std::pair"** %4, align 8, !llfi_index !477
  %5 = load %"class.std::ios_base::Init"*, %"class.std::ios_base::Init"** %3, align 8, !llfi_index !478
  %6 = bitcast %"class.std::ios_base::Init"* %5 to %"class.std::ios_base::Init"*, !llfi_index !479
  %7 = load %"struct.std::pair"*, %"struct.std::pair"** %4, align 8, !llfi_index !480
  call void @_ZN9__gnu_cxx13new_allocatorISt13_Rb_tree_nodeISt4pairIKllEEE7destroyIS4_EEvPT_(%"class.std::ios_base::Init"* nonnull align 1 dereferenceable(1) %6, %"struct.std::pair"* %7) #2, !llfi_index !481
  ret void, !llfi_index !482
}

; Function Attrs: mustprogress noinline nounwind uwtable
define linkonce_odr dso_local void @_ZN9__gnu_cxx13new_allocatorISt13_Rb_tree_nodeISt4pairIKllEEE7destroyIS4_EEvPT_(%"class.std::ios_base::Init"* nonnull align 1 dereferenceable(1) %0, %"struct.std::pair"* %1) #7 comdat align 2 {
  %3 = alloca %"class.std::ios_base::Init"*, align 8, !llfi_index !483
  %4 = alloca %"struct.std::pair"*, align 8, !llfi_index !484
  store %"class.std::ios_base::Init"* %0, %"class.std::ios_base::Init"** %3, align 8, !llfi_index !485
  store %"struct.std::pair"* %1, %"struct.std::pair"** %4, align 8, !llfi_index !486
  %5 = load %"class.std::ios_base::Init"*, %"class.std::ios_base::Init"** %3, align 8, !llfi_index !487
  %6 = load %"struct.std::pair"*, %"struct.std::pair"** %4, align 8, !llfi_index !488
  ret void, !llfi_index !489
}

; Function Attrs: mustprogress noinline nounwind uwtable
define linkonce_odr dso_local %"struct.std::pair"* @_ZN9__gnu_cxx16__aligned_membufISt4pairIKllEE6_M_ptrEv(%"struct.__gnu_cxx::__aligned_membuf"* nonnull align 8 dereferenceable(16) %0) #7 comdat align 2 {
  %2 = alloca %"struct.__gnu_cxx::__aligned_membuf"*, align 8, !llfi_index !490
  store %"struct.__gnu_cxx::__aligned_membuf"* %0, %"struct.__gnu_cxx::__aligned_membuf"** %2, align 8, !llfi_index !491
  %3 = load %"struct.__gnu_cxx::__aligned_membuf"*, %"struct.__gnu_cxx::__aligned_membuf"** %2, align 8, !llfi_index !492
  %4 = call i8* @_ZN9__gnu_cxx16__aligned_membufISt4pairIKllEE7_M_addrEv(%"struct.__gnu_cxx::__aligned_membuf"* nonnull align 8 dereferenceable(16) %3) #2, !llfi_index !493
  %5 = bitcast i8* %4 to %"struct.std::pair"*, !llfi_index !494
  ret %"struct.std::pair"* %5, !llfi_index !495
}

; Function Attrs: mustprogress noinline nounwind uwtable
define linkonce_odr dso_local i8* @_ZN9__gnu_cxx16__aligned_membufISt4pairIKllEE7_M_addrEv(%"struct.__gnu_cxx::__aligned_membuf"* nonnull align 8 dereferenceable(16) %0) #7 comdat align 2 {
  %2 = alloca %"struct.__gnu_cxx::__aligned_membuf"*, align 8, !llfi_index !496
  store %"struct.__gnu_cxx::__aligned_membuf"* %0, %"struct.__gnu_cxx::__aligned_membuf"** %2, align 8, !llfi_index !497
  %3 = load %"struct.__gnu_cxx::__aligned_membuf"*, %"struct.__gnu_cxx::__aligned_membuf"** %2, align 8, !llfi_index !498
  %4 = getelementptr inbounds %"struct.__gnu_cxx::__aligned_membuf", %"struct.__gnu_cxx::__aligned_membuf"* %3, i32 0, i32 0, !llfi_index !499
  %5 = bitcast [16 x i8]* %4 to i8*, !llfi_index !500
  ret i8* %5, !llfi_index !501
}

; Function Attrs: mustprogress noinline uwtable
define linkonce_odr dso_local %"struct.std::_Rb_tree_node_base"* @_ZNSt3mapIllSt4lessIlESaISt4pairIKllEEE11lower_boundERS3_(%"class.std::map"* nonnull align 8 dereferenceable(48) %0, i64* nonnull align 8 dereferenceable(8) %1) #6 comdat align 2 {
  %3 = alloca %"struct.std::_Rb_tree_const_iterator", align 8, !llfi_index !502
  %4 = alloca %"class.std::map"*, align 8, !llfi_index !503
  %5 = alloca i64*, align 8, !llfi_index !504
  store %"class.std::map"* %0, %"class.std::map"** %4, align 8, !llfi_index !505
  store i64* %1, i64** %5, align 8, !llfi_index !506
  %6 = load %"class.std::map"*, %"class.std::map"** %4, align 8, !llfi_index !507
  %7 = getelementptr inbounds %"class.std::map", %"class.std::map"* %6, i32 0, i32 0, !llfi_index !508
  %8 = load i64*, i64** %5, align 8, !llfi_index !509
  %9 = call %"struct.std::_Rb_tree_node_base"* @_ZNSt8_Rb_treeIlSt4pairIKllESt10_Select1stIS2_ESt4lessIlESaIS2_EE11lower_boundERS1_(%"class.std::_Rb_tree"* nonnull align 8 dereferenceable(48) %7, i64* nonnull align 8 dereferenceable(8) %8), !llfi_index !510
  %10 = getelementptr inbounds %"struct.std::_Rb_tree_const_iterator", %"struct.std::_Rb_tree_const_iterator"* %3, i32 0, i32 0, !llfi_index !511
  store %"struct.std::_Rb_tree_node_base"* %9, %"struct.std::_Rb_tree_node_base"** %10, align 8, !llfi_index !512
  %11 = getelementptr inbounds %"struct.std::_Rb_tree_const_iterator", %"struct.std::_Rb_tree_const_iterator"* %3, i32 0, i32 0, !llfi_index !513
  %12 = load %"struct.std::_Rb_tree_node_base"*, %"struct.std::_Rb_tree_node_base"** %11, align 8, !llfi_index !514
  ret %"struct.std::_Rb_tree_node_base"* %12, !llfi_index !515
}

; Function Attrs: mustprogress noinline nounwind uwtable
define linkonce_odr dso_local zeroext i1 @_ZSteqRKSt17_Rb_tree_iteratorISt4pairIKllEES5_(%"struct.std::_Rb_tree_const_iterator"* nonnull align 8 dereferenceable(8) %0, %"struct.std::_Rb_tree_const_iterator"* nonnull align 8 dereferenceable(8) %1) #7 comdat {
  %3 = alloca %"struct.std::_Rb_tree_const_iterator"*, align 8, !llfi_index !516
  %4 = alloca %"struct.std::_Rb_tree_const_iterator"*, align 8, !llfi_index !517
  store %"struct.std::_Rb_tree_const_iterator"* %0, %"struct.std::_Rb_tree_const_iterator"** %3, align 8, !llfi_index !518
  store %"struct.std::_Rb_tree_const_iterator"* %1, %"struct.std::_Rb_tree_const_iterator"** %4, align 8, !llfi_index !519
  %5 = load %"struct.std::_Rb_tree_const_iterator"*, %"struct.std::_Rb_tree_const_iterator"** %3, align 8, !llfi_index !520
  %6 = getelementptr inbounds %"struct.std::_Rb_tree_const_iterator", %"struct.std::_Rb_tree_const_iterator"* %5, i32 0, i32 0, !llfi_index !521
  %7 = load %"struct.std::_Rb_tree_node_base"*, %"struct.std::_Rb_tree_node_base"** %6, align 8, !llfi_index !522
  %8 = load %"struct.std::_Rb_tree_const_iterator"*, %"struct.std::_Rb_tree_const_iterator"** %4, align 8, !llfi_index !523
  %9 = getelementptr inbounds %"struct.std::_Rb_tree_const_iterator", %"struct.std::_Rb_tree_const_iterator"* %8, i32 0, i32 0, !llfi_index !524
  %10 = load %"struct.std::_Rb_tree_node_base"*, %"struct.std::_Rb_tree_node_base"** %9, align 8, !llfi_index !525
  %11 = icmp eq %"struct.std::_Rb_tree_node_base"* %7, %10, !llfi_index !526
  ret i1 %11, !llfi_index !527
}

; Function Attrs: mustprogress noinline uwtable
define linkonce_odr dso_local void @_ZNKSt3mapIllSt4lessIlESaISt4pairIKllEEE8key_compEv(%"class.std::map"* nonnull align 8 dereferenceable(48) %0) #6 comdat align 2 {
  %2 = alloca %"class.std::map"*, align 8, !llfi_index !528
  %3 = alloca %"class.std::ios_base::Init", align 1, !llfi_index !529
  store %"class.std::map"* %0, %"class.std::map"** %2, align 8, !llfi_index !530
  %4 = load %"class.std::map"*, %"class.std::map"** %2, align 8, !llfi_index !531
  %5 = getelementptr inbounds %"class.std::map", %"class.std::map"* %4, i32 0, i32 0, !llfi_index !532
  call void @_ZNKSt8_Rb_treeIlSt4pairIKllESt10_Select1stIS2_ESt4lessIlESaIS2_EE8key_compEv(%"class.std::_Rb_tree"* nonnull align 8 dereferenceable(48) %5), !llfi_index !533
  ret void, !llfi_index !534
}

; Function Attrs: mustprogress noinline nounwind uwtable
define linkonce_odr dso_local nonnull align 8 dereferenceable(16) %"struct.std::pair"* @_ZNKSt17_Rb_tree_iteratorISt4pairIKllEEdeEv(%"struct.std::_Rb_tree_const_iterator"* nonnull align 8 dereferenceable(8) %0) #7 comdat align 2 {
  %2 = alloca %"struct.std::_Rb_tree_const_iterator"*, align 8, !llfi_index !535
  store %"struct.std::_Rb_tree_const_iterator"* %0, %"struct.std::_Rb_tree_const_iterator"** %2, align 8, !llfi_index !536
  %3 = load %"struct.std::_Rb_tree_const_iterator"*, %"struct.std::_Rb_tree_const_iterator"** %2, align 8, !llfi_index !537
  %4 = getelementptr inbounds %"struct.std::_Rb_tree_const_iterator", %"struct.std::_Rb_tree_const_iterator"* %3, i32 0, i32 0, !llfi_index !538
  %5 = load %"struct.std::_Rb_tree_node_base"*, %"struct.std::_Rb_tree_node_base"** %4, align 8, !llfi_index !539
  %6 = bitcast %"struct.std::_Rb_tree_node_base"* %5 to %"struct.std::_Rb_tree_node"*, !llfi_index !540
  %7 = call %"struct.std::pair"* @_ZNSt13_Rb_tree_nodeISt4pairIKllEE9_M_valptrEv(%"struct.std::_Rb_tree_node"* nonnull align 8 dereferenceable(48) %6), !llfi_index !541
  ret %"struct.std::pair"* %7, !llfi_index !542
}

; Function Attrs: mustprogress noinline nounwind uwtable
define linkonce_odr dso_local zeroext i1 @_ZNKSt4lessIlEclERKlS2_(%"class.std::ios_base::Init"* nonnull align 1 dereferenceable(1) %0, i64* nonnull align 8 dereferenceable(8) %1, i64* nonnull align 8 dereferenceable(8) %2) #7 comdat align 2 {
  %4 = alloca %"class.std::ios_base::Init"*, align 8, !llfi_index !543
  %5 = alloca i64*, align 8, !llfi_index !544
  %6 = alloca i64*, align 8, !llfi_index !545
  store %"class.std::ios_base::Init"* %0, %"class.std::ios_base::Init"** %4, align 8, !llfi_index !546
  store i64* %1, i64** %5, align 8, !llfi_index !547
  store i64* %2, i64** %6, align 8, !llfi_index !548
  %7 = load %"class.std::ios_base::Init"*, %"class.std::ios_base::Init"** %4, align 8, !llfi_index !549
  %8 = load i64*, i64** %5, align 8, !llfi_index !550
  %9 = load i64, i64* %8, align 8, !llfi_index !551
  %10 = load i64*, i64** %6, align 8, !llfi_index !552
  %11 = load i64, i64* %10, align 8, !llfi_index !553
  %12 = icmp slt i64 %9, %11, !llfi_index !554
  ret i1 %12, !llfi_index !555
}

; Function Attrs: noinline uwtable
define linkonce_odr dso_local void @_ZNSt5tupleIJRKlEEC2IvLb1EEES1_(%"class.std::tuple"* nonnull align 8 dereferenceable(8) %0, i64* nonnull align 8 dereferenceable(8) %1) unnamed_addr #0 comdat align 2 {
  %3 = alloca %"class.std::tuple"*, align 8, !llfi_index !556
  %4 = alloca i64*, align 8, !llfi_index !557
  store %"class.std::tuple"* %0, %"class.std::tuple"** %3, align 8, !llfi_index !558
  store i64* %1, i64** %4, align 8, !llfi_index !559
  %5 = load %"class.std::tuple"*, %"class.std::tuple"** %3, align 8, !llfi_index !560
  %6 = bitcast %"class.std::tuple"* %5 to %"struct.std::_Tuple_impl"*, !llfi_index !561
  %7 = load i64*, i64** %4, align 8, !llfi_index !562
  call void @_ZNSt11_Tuple_implILm0EJRKlEEC2ES1_(%"struct.std::_Tuple_impl"* nonnull align 8 dereferenceable(8) %6, i64* nonnull align 8 dereferenceable(8) %7), !llfi_index !563
  ret void, !llfi_index !564
}

; Function Attrs: mustprogress noinline uwtable
define linkonce_odr dso_local %"struct.std::_Rb_tree_node_base"* @_ZNSt8_Rb_treeIlSt4pairIKllESt10_Select1stIS2_ESt4lessIlESaIS2_EE22_M_emplace_hint_uniqueIJRKSt21piecewise_construct_tSt5tupleIJRS1_EESD_IJEEEEESt17_Rb_tree_iteratorIS2_ESt23_Rb_tree_const_iteratorIS2_EDpOT_(%"class.std::_Rb_tree"* nonnull align 8 dereferenceable(48) %0, %"struct.std::_Rb_tree_node_base"* %1, %"class.std::ios_base::Init"* nonnull align 1 dereferenceable(1) %2, %"class.std::tuple"* nonnull align 8 dereferenceable(8) %3, %"class.std::ios_base::Init"* nonnull align 1 dereferenceable(1) %4) #6 comdat align 2 personality i8* bitcast (i32 (...)* @__gxx_personality_v0 to i8*) {
  %6 = alloca %"struct.std::_Rb_tree_const_iterator", align 8, !llfi_index !565
  %7 = alloca %"struct.std::_Rb_tree_const_iterator", align 8, !llfi_index !566
  %8 = alloca %"class.std::_Rb_tree"*, align 8, !llfi_index !567
  %9 = alloca %"class.std::ios_base::Init"*, align 8, !llfi_index !568
  %10 = alloca %"class.std::tuple"*, align 8, !llfi_index !569
  %11 = alloca %"class.std::ios_base::Init"*, align 8, !llfi_index !570
  %12 = alloca %"struct.std::_Rb_tree_node"*, align 8, !llfi_index !571
  %13 = alloca %"struct.std::pair.1", align 8, !llfi_index !572
  %14 = alloca %"struct.std::_Rb_tree_const_iterator", align 8, !llfi_index !573
  %15 = alloca i8*, align 8, !llfi_index !574
  %16 = alloca i32, align 4, !llfi_index !575
  %17 = getelementptr inbounds %"struct.std::_Rb_tree_const_iterator", %"struct.std::_Rb_tree_const_iterator"* %7, i32 0, i32 0, !llfi_index !576
  store %"struct.std::_Rb_tree_node_base"* %1, %"struct.std::_Rb_tree_node_base"** %17, align 8, !llfi_index !577
  store %"class.std::_Rb_tree"* %0, %"class.std::_Rb_tree"** %8, align 8, !llfi_index !578
  store %"class.std::ios_base::Init"* %2, %"class.std::ios_base::Init"** %9, align 8, !llfi_index !579
  store %"class.std::tuple"* %3, %"class.std::tuple"** %10, align 8, !llfi_index !580
  store %"class.std::ios_base::Init"* %4, %"class.std::ios_base::Init"** %11, align 8, !llfi_index !581
  %18 = load %"class.std::_Rb_tree"*, %"class.std::_Rb_tree"** %8, align 8, !llfi_index !582
  %19 = load %"class.std::ios_base::Init"*, %"class.std::ios_base::Init"** %9, align 8, !llfi_index !583
  %20 = call nonnull align 1 dereferenceable(1) %"class.std::ios_base::Init"* @_ZSt7forwardIRKSt21piecewise_construct_tEOT_RNSt16remove_referenceIS3_E4typeE(%"class.std::ios_base::Init"* nonnull align 1 dereferenceable(1) %19) #2, !llfi_index !584
  %21 = load %"class.std::tuple"*, %"class.std::tuple"** %10, align 8, !llfi_index !585
  %22 = call nonnull align 8 dereferenceable(8) %"class.std::tuple"* @_ZSt7forwardISt5tupleIJRKlEEEOT_RNSt16remove_referenceIS4_E4typeE(%"class.std::tuple"* nonnull align 8 dereferenceable(8) %21) #2, !llfi_index !586
  %23 = load %"class.std::ios_base::Init"*, %"class.std::ios_base::Init"** %11, align 8, !llfi_index !587
  %24 = call nonnull align 1 dereferenceable(1) %"class.std::ios_base::Init"* @_ZSt7forwardISt5tupleIJEEEOT_RNSt16remove_referenceIS2_E4typeE(%"class.std::ios_base::Init"* nonnull align 1 dereferenceable(1) %23) #2, !llfi_index !588
  %25 = call %"struct.std::_Rb_tree_node"* @_ZNSt8_Rb_treeIlSt4pairIKllESt10_Select1stIS2_ESt4lessIlESaIS2_EE14_M_create_nodeIJRKSt21piecewise_construct_tSt5tupleIJRS1_EESD_IJEEEEEPSt13_Rb_tree_nodeIS2_EDpOT_(%"class.std::_Rb_tree"* nonnull align 8 dereferenceable(48) %18, %"class.std::ios_base::Init"* nonnull align 1 dereferenceable(1) %20, %"class.std::tuple"* nonnull align 8 dereferenceable(8) %22, %"class.std::ios_base::Init"* nonnull align 1 dereferenceable(1) %24), !llfi_index !589
  store %"struct.std::_Rb_tree_node"* %25, %"struct.std::_Rb_tree_node"** %12, align 8, !llfi_index !590
  %26 = bitcast %"struct.std::_Rb_tree_const_iterator"* %14 to i8*, !llfi_index !591
  %27 = bitcast %"struct.std::_Rb_tree_const_iterator"* %7 to i8*, !llfi_index !592
  call void @llvm.memcpy.p0i8.p0i8.i64(i8* align 8 %26, i8* align 8 %27, i64 8, i1 false), !llfi_index !593
  %28 = load %"struct.std::_Rb_tree_node"*, %"struct.std::_Rb_tree_node"** %12, align 8, !llfi_index !594
  %29 = invoke nonnull align 8 dereferenceable(8) i64* @_ZNSt8_Rb_treeIlSt4pairIKllESt10_Select1stIS2_ESt4lessIlESaIS2_EE6_S_keyEPKSt13_Rb_tree_nodeIS2_E(%"struct.std::_Rb_tree_node"* %28)
          to label %30 unwind label %52, !llfi_index !595

30:                                               ; preds = %5
  %31 = getelementptr inbounds %"struct.std::_Rb_tree_const_iterator", %"struct.std::_Rb_tree_const_iterator"* %14, i32 0, i32 0, !llfi_index !596
  %32 = load %"struct.std::_Rb_tree_node_base"*, %"struct.std::_Rb_tree_node_base"** %31, align 8, !llfi_index !597
  %33 = invoke { %"struct.std::_Rb_tree_node_base"*, %"struct.std::_Rb_tree_node_base"* } @_ZNSt8_Rb_treeIlSt4pairIKllESt10_Select1stIS2_ESt4lessIlESaIS2_EE29_M_get_insert_hint_unique_posESt23_Rb_tree_const_iteratorIS2_ERS1_(%"class.std::_Rb_tree"* nonnull align 8 dereferenceable(48) %18, %"struct.std::_Rb_tree_node_base"* %32, i64* nonnull align 8 dereferenceable(8) %29)
          to label %34 unwind label %52, !llfi_index !598

34:                                               ; preds = %30
  %35 = bitcast %"struct.std::pair.1"* %13 to { %"struct.std::_Rb_tree_node_base"*, %"struct.std::_Rb_tree_node_base"* }*, !llfi_index !599
  %36 = getelementptr inbounds { %"struct.std::_Rb_tree_node_base"*, %"struct.std::_Rb_tree_node_base"* }, { %"struct.std::_Rb_tree_node_base"*, %"struct.std::_Rb_tree_node_base"* }* %35, i32 0, i32 0, !llfi_index !600
  %37 = extractvalue { %"struct.std::_Rb_tree_node_base"*, %"struct.std::_Rb_tree_node_base"* } %33, 0, !llfi_index !601
  store %"struct.std::_Rb_tree_node_base"* %37, %"struct.std::_Rb_tree_node_base"** %36, align 8, !llfi_index !602
  %38 = getelementptr inbounds { %"struct.std::_Rb_tree_node_base"*, %"struct.std::_Rb_tree_node_base"* }, { %"struct.std::_Rb_tree_node_base"*, %"struct.std::_Rb_tree_node_base"* }* %35, i32 0, i32 1, !llfi_index !603
  %39 = extractvalue { %"struct.std::_Rb_tree_node_base"*, %"struct.std::_Rb_tree_node_base"* } %33, 1, !llfi_index !604
  store %"struct.std::_Rb_tree_node_base"* %39, %"struct.std::_Rb_tree_node_base"** %38, align 8, !llfi_index !605
  %40 = getelementptr inbounds %"struct.std::pair.1", %"struct.std::pair.1"* %13, i32 0, i32 1, !llfi_index !606
  %41 = load %"struct.std::_Rb_tree_node_base"*, %"struct.std::_Rb_tree_node_base"** %40, align 8, !llfi_index !607
  %42 = icmp ne %"struct.std::_Rb_tree_node_base"* %41, null, !llfi_index !608
  br i1 %42, label %43, label %60, !llfi_index !609

43:                                               ; preds = %34
  %44 = getelementptr inbounds %"struct.std::pair.1", %"struct.std::pair.1"* %13, i32 0, i32 0, !llfi_index !610
  %45 = load %"struct.std::_Rb_tree_node_base"*, %"struct.std::_Rb_tree_node_base"** %44, align 8, !llfi_index !611
  %46 = getelementptr inbounds %"struct.std::pair.1", %"struct.std::pair.1"* %13, i32 0, i32 1, !llfi_index !612
  %47 = load %"struct.std::_Rb_tree_node_base"*, %"struct.std::_Rb_tree_node_base"** %46, align 8, !llfi_index !613
  %48 = load %"struct.std::_Rb_tree_node"*, %"struct.std::_Rb_tree_node"** %12, align 8, !llfi_index !614
  %49 = invoke %"struct.std::_Rb_tree_node_base"* @_ZNSt8_Rb_treeIlSt4pairIKllESt10_Select1stIS2_ESt4lessIlESaIS2_EE14_M_insert_nodeEPSt18_Rb_tree_node_baseSA_PSt13_Rb_tree_nodeIS2_E(%"class.std::_Rb_tree"* nonnull align 8 dereferenceable(48) %18, %"struct.std::_Rb_tree_node_base"* %45, %"struct.std::_Rb_tree_node_base"* %47, %"struct.std::_Rb_tree_node"* %48)
          to label %50 unwind label %52, !llfi_index !615

50:                                               ; preds = %43
  %51 = getelementptr inbounds %"struct.std::_Rb_tree_const_iterator", %"struct.std::_Rb_tree_const_iterator"* %6, i32 0, i32 0, !llfi_index !616
  store %"struct.std::_Rb_tree_node_base"* %49, %"struct.std::_Rb_tree_node_base"** %51, align 8, !llfi_index !617
  br label %70, !llfi_index !618

52:                                               ; preds = %43, %30, %5
  %53 = landingpad { i8*, i32 }
          catch i8* null, !llfi_index !619
  %54 = extractvalue { i8*, i32 } %53, 0, !llfi_index !620
  store i8* %54, i8** %15, align 8, !llfi_index !621
  %55 = extractvalue { i8*, i32 } %53, 1, !llfi_index !622
  store i32 %55, i32* %16, align 4, !llfi_index !623
  br label %56, !llfi_index !624

56:                                               ; preds = %52
  %57 = load i8*, i8** %15, align 8, !llfi_index !625
  %58 = call i8* @__cxa_begin_catch(i8* %57) #2, !llfi_index !626
  %59 = load %"struct.std::_Rb_tree_node"*, %"struct.std::_Rb_tree_node"** %12, align 8, !llfi_index !627
  call void @_ZNSt8_Rb_treeIlSt4pairIKllESt10_Select1stIS2_ESt4lessIlESaIS2_EE12_M_drop_nodeEPSt13_Rb_tree_nodeIS2_E(%"class.std::_Rb_tree"* nonnull align 8 dereferenceable(48) %18, %"struct.std::_Rb_tree_node"* %59) #2, !llfi_index !628
  invoke void @__cxa_rethrow() #17
          to label %81 unwind label %64, !llfi_index !629

60:                                               ; preds = %34
  %61 = load %"struct.std::_Rb_tree_node"*, %"struct.std::_Rb_tree_node"** %12, align 8, !llfi_index !630
  call void @_ZNSt8_Rb_treeIlSt4pairIKllESt10_Select1stIS2_ESt4lessIlESaIS2_EE12_M_drop_nodeEPSt13_Rb_tree_nodeIS2_E(%"class.std::_Rb_tree"* nonnull align 8 dereferenceable(48) %18, %"struct.std::_Rb_tree_node"* %61) #2, !llfi_index !631
  %62 = getelementptr inbounds %"struct.std::pair.1", %"struct.std::pair.1"* %13, i32 0, i32 0, !llfi_index !632
  %63 = load %"struct.std::_Rb_tree_node_base"*, %"struct.std::_Rb_tree_node_base"** %62, align 8, !llfi_index !633
  call void @_ZNSt17_Rb_tree_iteratorISt4pairIKllEEC2EPSt18_Rb_tree_node_base(%"struct.std::_Rb_tree_const_iterator"* nonnull align 8 dereferenceable(8) %6, %"struct.std::_Rb_tree_node_base"* %63) #2, !llfi_index !634
  br label %70, !llfi_index !635

64:                                               ; preds = %56
  %65 = landingpad { i8*, i32 }
          cleanup, !llfi_index !636
  %66 = extractvalue { i8*, i32 } %65, 0, !llfi_index !637
  store i8* %66, i8** %15, align 8, !llfi_index !638
  %67 = extractvalue { i8*, i32 } %65, 1, !llfi_index !639
  store i32 %67, i32* %16, align 4, !llfi_index !640
  invoke void @__cxa_end_catch()
          to label %68 unwind label %78, !llfi_index !641

68:                                               ; preds = %64
  br label %73, !llfi_index !642

69:                                               ; No predecessors!
  call void @llvm.trap(), !llfi_index !643
  unreachable, !llfi_index !644

70:                                               ; preds = %60, %50
  %71 = getelementptr inbounds %"struct.std::_Rb_tree_const_iterator", %"struct.std::_Rb_tree_const_iterator"* %6, i32 0, i32 0, !llfi_index !645
  %72 = load %"struct.std::_Rb_tree_node_base"*, %"struct.std::_Rb_tree_node_base"** %71, align 8, !llfi_index !646
  ret %"struct.std::_Rb_tree_node_base"* %72, !llfi_index !647

73:                                               ; preds = %68
  %74 = load i8*, i8** %15, align 8, !llfi_index !648
  %75 = load i32, i32* %16, align 4, !llfi_index !649
  %76 = insertvalue { i8*, i32 } undef, i8* %74, 0, !llfi_index !650
  %77 = insertvalue { i8*, i32 } %76, i32 %75, 1, !llfi_index !651
  resume { i8*, i32 } %77, !llfi_index !652

78:                                               ; preds = %64
  %79 = landingpad { i8*, i32 }
          catch i8* null, !llfi_index !653
  %80 = extractvalue { i8*, i32 } %79, 0, !llfi_index !654
  call void @__clang_call_terminate(i8* %80) #16, !llfi_index !655
  unreachable, !llfi_index !656

81:                                               ; preds = %56
  unreachable, !llfi_index !657
}

; Function Attrs: mustprogress noinline nounwind uwtable
define linkonce_odr dso_local nonnull align 1 dereferenceable(1) %"class.std::ios_base::Init"* @_ZSt7forwardIRKSt21piecewise_construct_tEOT_RNSt16remove_referenceIS3_E4typeE(%"class.std::ios_base::Init"* nonnull align 1 dereferenceable(1) %0) #7 comdat {
  %2 = alloca %"class.std::ios_base::Init"*, align 8, !llfi_index !658
  store %"class.std::ios_base::Init"* %0, %"class.std::ios_base::Init"** %2, align 8, !llfi_index !659
  %3 = load %"class.std::ios_base::Init"*, %"class.std::ios_base::Init"** %2, align 8, !llfi_index !660
  ret %"class.std::ios_base::Init"* %3, !llfi_index !661
}

; Function Attrs: mustprogress noinline nounwind uwtable
define linkonce_odr dso_local nonnull align 8 dereferenceable(8) %"class.std::tuple"* @_ZSt7forwardISt5tupleIJRKlEEEOT_RNSt16remove_referenceIS4_E4typeE(%"class.std::tuple"* nonnull align 8 dereferenceable(8) %0) #7 comdat {
  %2 = alloca %"class.std::tuple"*, align 8, !llfi_index !662
  store %"class.std::tuple"* %0, %"class.std::tuple"** %2, align 8, !llfi_index !663
  %3 = load %"class.std::tuple"*, %"class.std::tuple"** %2, align 8, !llfi_index !664
  ret %"class.std::tuple"* %3, !llfi_index !665
}

; Function Attrs: mustprogress noinline nounwind uwtable
define linkonce_odr dso_local nonnull align 1 dereferenceable(1) %"class.std::ios_base::Init"* @_ZSt7forwardISt5tupleIJEEEOT_RNSt16remove_referenceIS2_E4typeE(%"class.std::ios_base::Init"* nonnull align 1 dereferenceable(1) %0) #7 comdat {
  %2 = alloca %"class.std::ios_base::Init"*, align 8, !llfi_index !666
  store %"class.std::ios_base::Init"* %0, %"class.std::ios_base::Init"** %2, align 8, !llfi_index !667
  %3 = load %"class.std::ios_base::Init"*, %"class.std::ios_base::Init"** %2, align 8, !llfi_index !668
  ret %"class.std::ios_base::Init"* %3, !llfi_index !669
}

; Function Attrs: mustprogress noinline uwtable
define linkonce_odr dso_local %"struct.std::_Rb_tree_node"* @_ZNSt8_Rb_treeIlSt4pairIKllESt10_Select1stIS2_ESt4lessIlESaIS2_EE14_M_create_nodeIJRKSt21piecewise_construct_tSt5tupleIJRS1_EESD_IJEEEEEPSt13_Rb_tree_nodeIS2_EDpOT_(%"class.std::_Rb_tree"* nonnull align 8 dereferenceable(48) %0, %"class.std::ios_base::Init"* nonnull align 1 dereferenceable(1) %1, %"class.std::tuple"* nonnull align 8 dereferenceable(8) %2, %"class.std::ios_base::Init"* nonnull align 1 dereferenceable(1) %3) #6 comdat align 2 {
  %5 = alloca %"class.std::_Rb_tree"*, align 8, !llfi_index !670
  %6 = alloca %"class.std::ios_base::Init"*, align 8, !llfi_index !671
  %7 = alloca %"class.std::tuple"*, align 8, !llfi_index !672
  %8 = alloca %"class.std::ios_base::Init"*, align 8, !llfi_index !673
  %9 = alloca %"struct.std::_Rb_tree_node"*, align 8, !llfi_index !674
  store %"class.std::_Rb_tree"* %0, %"class.std::_Rb_tree"** %5, align 8, !llfi_index !675
  store %"class.std::ios_base::Init"* %1, %"class.std::ios_base::Init"** %6, align 8, !llfi_index !676
  store %"class.std::tuple"* %2, %"class.std::tuple"** %7, align 8, !llfi_index !677
  store %"class.std::ios_base::Init"* %3, %"class.std::ios_base::Init"** %8, align 8, !llfi_index !678
  %10 = load %"class.std::_Rb_tree"*, %"class.std::_Rb_tree"** %5, align 8, !llfi_index !679
  %11 = call %"struct.std::_Rb_tree_node"* @_ZNSt8_Rb_treeIlSt4pairIKllESt10_Select1stIS2_ESt4lessIlESaIS2_EE11_M_get_nodeEv(%"class.std::_Rb_tree"* nonnull align 8 dereferenceable(48) %10), !llfi_index !680
  store %"struct.std::_Rb_tree_node"* %11, %"struct.std::_Rb_tree_node"** %9, align 8, !llfi_index !681
  %12 = load %"struct.std::_Rb_tree_node"*, %"struct.std::_Rb_tree_node"** %9, align 8, !llfi_index !682
  %13 = load %"class.std::ios_base::Init"*, %"class.std::ios_base::Init"** %6, align 8, !llfi_index !683
  %14 = call nonnull align 1 dereferenceable(1) %"class.std::ios_base::Init"* @_ZSt7forwardIRKSt21piecewise_construct_tEOT_RNSt16remove_referenceIS3_E4typeE(%"class.std::ios_base::Init"* nonnull align 1 dereferenceable(1) %13) #2, !llfi_index !684
  %15 = load %"class.std::tuple"*, %"class.std::tuple"** %7, align 8, !llfi_index !685
  %16 = call nonnull align 8 dereferenceable(8) %"class.std::tuple"* @_ZSt7forwardISt5tupleIJRKlEEEOT_RNSt16remove_referenceIS4_E4typeE(%"class.std::tuple"* nonnull align 8 dereferenceable(8) %15) #2, !llfi_index !686
  %17 = load %"class.std::ios_base::Init"*, %"class.std::ios_base::Init"** %8, align 8, !llfi_index !687
  %18 = call nonnull align 1 dereferenceable(1) %"class.std::ios_base::Init"* @_ZSt7forwardISt5tupleIJEEEOT_RNSt16remove_referenceIS2_E4typeE(%"class.std::ios_base::Init"* nonnull align 1 dereferenceable(1) %17) #2, !llfi_index !688
  call void @_ZNSt8_Rb_treeIlSt4pairIKllESt10_Select1stIS2_ESt4lessIlESaIS2_EE17_M_construct_nodeIJRKSt21piecewise_construct_tSt5tupleIJRS1_EESD_IJEEEEEvPSt13_Rb_tree_nodeIS2_EDpOT_(%"class.std::_Rb_tree"* nonnull align 8 dereferenceable(48) %10, %"struct.std::_Rb_tree_node"* %12, %"class.std::ios_base::Init"* nonnull align 1 dereferenceable(1) %14, %"class.std::tuple"* nonnull align 8 dereferenceable(8) %16, %"class.std::ios_base::Init"* nonnull align 1 dereferenceable(1) %18), !llfi_index !689
  %19 = load %"struct.std::_Rb_tree_node"*, %"struct.std::_Rb_tree_node"** %9, align 8, !llfi_index !690
  ret %"struct.std::_Rb_tree_node"* %19, !llfi_index !691
}

; Function Attrs: mustprogress noinline uwtable
define linkonce_odr dso_local nonnull align 8 dereferenceable(8) i64* @_ZNSt8_Rb_treeIlSt4pairIKllESt10_Select1stIS2_ESt4lessIlESaIS2_EE6_S_keyEPKSt13_Rb_tree_nodeIS2_E(%"struct.std::_Rb_tree_node"* %0) #6 comdat align 2 {
  %2 = alloca %"struct.std::_Rb_tree_node"*, align 8, !llfi_index !692
  %3 = alloca %"class.std::ios_base::Init", align 1, !llfi_index !693
  store %"struct.std::_Rb_tree_node"* %0, %"struct.std::_Rb_tree_node"** %2, align 8, !llfi_index !694
  %4 = load %"struct.std::_Rb_tree_node"*, %"struct.std::_Rb_tree_node"** %2, align 8, !llfi_index !695
  %5 = call %"struct.std::pair"* @_ZNKSt13_Rb_tree_nodeISt4pairIKllEE9_M_valptrEv(%"struct.std::_Rb_tree_node"* nonnull align 8 dereferenceable(48) %4), !llfi_index !696
  %6 = call nonnull align 8 dereferenceable(8) i64* @_ZNKSt10_Select1stISt4pairIKllEEclERKS2_(%"class.std::ios_base::Init"* nonnull align 1 dereferenceable(1) %3, %"struct.std::pair"* nonnull align 8 dereferenceable(16) %5), !llfi_index !697
  ret i64* %6, !llfi_index !698
}

; Function Attrs: mustprogress noinline uwtable
define linkonce_odr dso_local { %"struct.std::_Rb_tree_node_base"*, %"struct.std::_Rb_tree_node_base"* } @_ZNSt8_Rb_treeIlSt4pairIKllESt10_Select1stIS2_ESt4lessIlESaIS2_EE29_M_get_insert_hint_unique_posESt23_Rb_tree_const_iteratorIS2_ERS1_(%"class.std::_Rb_tree"* nonnull align 8 dereferenceable(48) %0, %"struct.std::_Rb_tree_node_base"* %1, i64* nonnull align 8 dereferenceable(8) %2) #6 comdat align 2 {
  %4 = alloca %"struct.std::pair.1", align 8, !llfi_index !699
  %5 = alloca %"struct.std::_Rb_tree_const_iterator", align 8, !llfi_index !700
  %6 = alloca %"class.std::_Rb_tree"*, align 8, !llfi_index !701
  %7 = alloca i64*, align 8, !llfi_index !702
  %8 = alloca %"struct.std::_Rb_tree_const_iterator", align 8, !llfi_index !703
  %9 = alloca %"struct.std::_Rb_tree_node_base"*, align 8, !llfi_index !704
  %10 = alloca %"struct.std::_Rb_tree_const_iterator", align 8, !llfi_index !705
  %11 = alloca %"struct.std::_Rb_tree_node_base"*, align 8, !llfi_index !706
  %12 = alloca %"struct.std::_Rb_tree_const_iterator", align 8, !llfi_index !707
  %13 = alloca %"struct.std::_Rb_tree_node_base"*, align 8, !llfi_index !708
  %14 = alloca %"struct.std::_Rb_tree_node_base"*, align 8, !llfi_index !709
  %15 = alloca %"struct.std::_Rb_tree_node_base"*, align 8, !llfi_index !710
  %16 = getelementptr inbounds %"struct.std::_Rb_tree_const_iterator", %"struct.std::_Rb_tree_const_iterator"* %5, i32 0, i32 0, !llfi_index !711
  store %"struct.std::_Rb_tree_node_base"* %1, %"struct.std::_Rb_tree_node_base"** %16, align 8, !llfi_index !712
  store %"class.std::_Rb_tree"* %0, %"class.std::_Rb_tree"** %6, align 8, !llfi_index !713
  store i64* %2, i64** %7, align 8, !llfi_index !714
  %17 = load %"class.std::_Rb_tree"*, %"class.std::_Rb_tree"** %6, align 8, !llfi_index !715
  %18 = call %"struct.std::_Rb_tree_node_base"* @_ZNKSt23_Rb_tree_const_iteratorISt4pairIKllEE13_M_const_castEv(%"struct.std::_Rb_tree_const_iterator"* nonnull align 8 dereferenceable(8) %5) #2, !llfi_index !716
  %19 = getelementptr inbounds %"struct.std::_Rb_tree_const_iterator", %"struct.std::_Rb_tree_const_iterator"* %8, i32 0, i32 0, !llfi_index !717
  store %"struct.std::_Rb_tree_node_base"* %18, %"struct.std::_Rb_tree_node_base"** %19, align 8, !llfi_index !718
  %20 = getelementptr inbounds %"struct.std::_Rb_tree_const_iterator", %"struct.std::_Rb_tree_const_iterator"* %8, i32 0, i32 0, !llfi_index !719
  %21 = load %"struct.std::_Rb_tree_node_base"*, %"struct.std::_Rb_tree_node_base"** %20, align 8, !llfi_index !720
  %22 = call %"struct.std::_Rb_tree_node_base"* @_ZNSt8_Rb_treeIlSt4pairIKllESt10_Select1stIS2_ESt4lessIlESaIS2_EE6_M_endEv(%"class.std::_Rb_tree"* nonnull align 8 dereferenceable(48) %17) #2, !llfi_index !721
  %23 = icmp eq %"struct.std::_Rb_tree_node_base"* %21, %22, !llfi_index !722
  br i1 %23, label %24, label %46, !llfi_index !723

24:                                               ; preds = %3
  %25 = call i64 @_ZNKSt8_Rb_treeIlSt4pairIKllESt10_Select1stIS2_ESt4lessIlESaIS2_EE4sizeEv(%"class.std::_Rb_tree"* nonnull align 8 dereferenceable(48) %17) #2, !llfi_index !724
  %26 = icmp ugt i64 %25, 0, !llfi_index !725
  br i1 %26, label %27, label %38, !llfi_index !726

27:                                               ; preds = %24
  %28 = getelementptr inbounds %"class.std::_Rb_tree", %"class.std::_Rb_tree"* %17, i32 0, i32 0, !llfi_index !727
  %29 = bitcast %"struct.std::_Rb_tree<long, std::pair<const long, long>, std::_Select1st<std::pair<const long, long>>, std::less<long>>::_Rb_tree_impl"* %28 to %"struct.std::_Rb_tree_key_compare"*, !llfi_index !728
  %30 = getelementptr inbounds %"struct.std::_Rb_tree_key_compare", %"struct.std::_Rb_tree_key_compare"* %29, i32 0, i32 0, !llfi_index !729
  %31 = call nonnull align 8 dereferenceable(8) %"struct.std::_Rb_tree_node_base"** @_ZNSt8_Rb_treeIlSt4pairIKllESt10_Select1stIS2_ESt4lessIlESaIS2_EE12_M_rightmostEv(%"class.std::_Rb_tree"* nonnull align 8 dereferenceable(48) %17) #2, !llfi_index !730
  %32 = load %"struct.std::_Rb_tree_node_base"*, %"struct.std::_Rb_tree_node_base"** %31, align 8, !llfi_index !731
  %33 = call nonnull align 8 dereferenceable(8) i64* @_ZNSt8_Rb_treeIlSt4pairIKllESt10_Select1stIS2_ESt4lessIlESaIS2_EE6_S_keyEPKSt18_Rb_tree_node_base(%"struct.std::_Rb_tree_node_base"* %32), !llfi_index !732
  %34 = load i64*, i64** %7, align 8, !llfi_index !733
  %35 = call zeroext i1 @_ZNKSt4lessIlEclERKlS2_(%"class.std::ios_base::Init"* nonnull align 1 dereferenceable(1) %30, i64* nonnull align 8 dereferenceable(8) %33, i64* nonnull align 8 dereferenceable(8) %34), !llfi_index !734
  br i1 %35, label %36, label %38, !llfi_index !735

36:                                               ; preds = %27
  store %"struct.std::_Rb_tree_node_base"* null, %"struct.std::_Rb_tree_node_base"** %9, align 8, !llfi_index !736
  %37 = call nonnull align 8 dereferenceable(8) %"struct.std::_Rb_tree_node_base"** @_ZNSt8_Rb_treeIlSt4pairIKllESt10_Select1stIS2_ESt4lessIlESaIS2_EE12_M_rightmostEv(%"class.std::_Rb_tree"* nonnull align 8 dereferenceable(48) %17) #2, !llfi_index !737
  call void @_ZNSt4pairIPSt18_Rb_tree_node_baseS1_EC2IRS1_Lb1EEERKS1_OT_(%"struct.std::pair.1"* nonnull align 8 dereferenceable(16) %4, %"struct.std::_Rb_tree_node_base"** nonnull align 8 dereferenceable(8) %9, %"struct.std::_Rb_tree_node_base"** nonnull align 8 dereferenceable(8) %37), !llfi_index !738
  br label %143, !llfi_index !739

38:                                               ; preds = %27, %24
  %39 = load i64*, i64** %7, align 8, !llfi_index !740
  %40 = call { %"struct.std::_Rb_tree_node_base"*, %"struct.std::_Rb_tree_node_base"* } @_ZNSt8_Rb_treeIlSt4pairIKllESt10_Select1stIS2_ESt4lessIlESaIS2_EE24_M_get_insert_unique_posERS1_(%"class.std::_Rb_tree"* nonnull align 8 dereferenceable(48) %17, i64* nonnull align 8 dereferenceable(8) %39), !llfi_index !741
  %41 = bitcast %"struct.std::pair.1"* %4 to { %"struct.std::_Rb_tree_node_base"*, %"struct.std::_Rb_tree_node_base"* }*, !llfi_index !742
  %42 = getelementptr inbounds { %"struct.std::_Rb_tree_node_base"*, %"struct.std::_Rb_tree_node_base"* }, { %"struct.std::_Rb_tree_node_base"*, %"struct.std::_Rb_tree_node_base"* }* %41, i32 0, i32 0, !llfi_index !743
  %43 = extractvalue { %"struct.std::_Rb_tree_node_base"*, %"struct.std::_Rb_tree_node_base"* } %40, 0, !llfi_index !744
  store %"struct.std::_Rb_tree_node_base"* %43, %"struct.std::_Rb_tree_node_base"** %42, align 8, !llfi_index !745
  %44 = getelementptr inbounds { %"struct.std::_Rb_tree_node_base"*, %"struct.std::_Rb_tree_node_base"* }, { %"struct.std::_Rb_tree_node_base"*, %"struct.std::_Rb_tree_node_base"* }* %41, i32 0, i32 1, !llfi_index !746
  %45 = extractvalue { %"struct.std::_Rb_tree_node_base"*, %"struct.std::_Rb_tree_node_base"* } %40, 1, !llfi_index !747
  store %"struct.std::_Rb_tree_node_base"* %45, %"struct.std::_Rb_tree_node_base"** %44, align 8, !llfi_index !748
  br label %143, !llfi_index !749

46:                                               ; preds = %3
  %47 = getelementptr inbounds %"class.std::_Rb_tree", %"class.std::_Rb_tree"* %17, i32 0, i32 0, !llfi_index !750
  %48 = bitcast %"struct.std::_Rb_tree<long, std::pair<const long, long>, std::_Select1st<std::pair<const long, long>>, std::less<long>>::_Rb_tree_impl"* %47 to %"struct.std::_Rb_tree_key_compare"*, !llfi_index !751
  %49 = getelementptr inbounds %"struct.std::_Rb_tree_key_compare", %"struct.std::_Rb_tree_key_compare"* %48, i32 0, i32 0, !llfi_index !752
  %50 = load i64*, i64** %7, align 8, !llfi_index !753
  %51 = getelementptr inbounds %"struct.std::_Rb_tree_const_iterator", %"struct.std::_Rb_tree_const_iterator"* %8, i32 0, i32 0, !llfi_index !754
  %52 = load %"struct.std::_Rb_tree_node_base"*, %"struct.std::_Rb_tree_node_base"** %51, align 8, !llfi_index !755
  %53 = call nonnull align 8 dereferenceable(8) i64* @_ZNSt8_Rb_treeIlSt4pairIKllESt10_Select1stIS2_ESt4lessIlESaIS2_EE6_S_keyEPKSt18_Rb_tree_node_base(%"struct.std::_Rb_tree_node_base"* %52), !llfi_index !756
  %54 = call zeroext i1 @_ZNKSt4lessIlEclERKlS2_(%"class.std::ios_base::Init"* nonnull align 1 dereferenceable(1) %49, i64* nonnull align 8 dereferenceable(8) %50, i64* nonnull align 8 dereferenceable(8) %53), !llfi_index !757
  br i1 %54, label %55, label %94, !llfi_index !758

55:                                               ; preds = %46
  %56 = bitcast %"struct.std::_Rb_tree_const_iterator"* %10 to i8*, !llfi_index !759
  %57 = bitcast %"struct.std::_Rb_tree_const_iterator"* %8 to i8*, !llfi_index !760
  call void @llvm.memcpy.p0i8.p0i8.i64(i8* align 8 %56, i8* align 8 %57, i64 8, i1 false), !llfi_index !761
  %58 = getelementptr inbounds %"struct.std::_Rb_tree_const_iterator", %"struct.std::_Rb_tree_const_iterator"* %8, i32 0, i32 0, !llfi_index !762
  %59 = load %"struct.std::_Rb_tree_node_base"*, %"struct.std::_Rb_tree_node_base"** %58, align 8, !llfi_index !763
  %60 = call nonnull align 8 dereferenceable(8) %"struct.std::_Rb_tree_node_base"** @_ZNSt8_Rb_treeIlSt4pairIKllESt10_Select1stIS2_ESt4lessIlESaIS2_EE11_M_leftmostEv(%"class.std::_Rb_tree"* nonnull align 8 dereferenceable(48) %17) #2, !llfi_index !764
  %61 = load %"struct.std::_Rb_tree_node_base"*, %"struct.std::_Rb_tree_node_base"** %60, align 8, !llfi_index !765
  %62 = icmp eq %"struct.std::_Rb_tree_node_base"* %59, %61, !llfi_index !766
  br i1 %62, label %63, label %66, !llfi_index !767

63:                                               ; preds = %55
  %64 = call nonnull align 8 dereferenceable(8) %"struct.std::_Rb_tree_node_base"** @_ZNSt8_Rb_treeIlSt4pairIKllESt10_Select1stIS2_ESt4lessIlESaIS2_EE11_M_leftmostEv(%"class.std::_Rb_tree"* nonnull align 8 dereferenceable(48) %17) #2, !llfi_index !768
  %65 = call nonnull align 8 dereferenceable(8) %"struct.std::_Rb_tree_node_base"** @_ZNSt8_Rb_treeIlSt4pairIKllESt10_Select1stIS2_ESt4lessIlESaIS2_EE11_M_leftmostEv(%"class.std::_Rb_tree"* nonnull align 8 dereferenceable(48) %17) #2, !llfi_index !769
  call void @_ZNSt4pairIPSt18_Rb_tree_node_baseS1_EC2IRS1_S4_Lb1EEEOT_OT0_(%"struct.std::pair.1"* nonnull align 8 dereferenceable(16) %4, %"struct.std::_Rb_tree_node_base"** nonnull align 8 dereferenceable(8) %64, %"struct.std::_Rb_tree_node_base"** nonnull align 8 dereferenceable(8) %65), !llfi_index !770
  br label %143, !llfi_index !771

66:                                               ; preds = %55
  %67 = getelementptr inbounds %"class.std::_Rb_tree", %"class.std::_Rb_tree"* %17, i32 0, i32 0, !llfi_index !772
  %68 = bitcast %"struct.std::_Rb_tree<long, std::pair<const long, long>, std::_Select1st<std::pair<const long, long>>, std::less<long>>::_Rb_tree_impl"* %67 to %"struct.std::_Rb_tree_key_compare"*, !llfi_index !773
  %69 = getelementptr inbounds %"struct.std::_Rb_tree_key_compare", %"struct.std::_Rb_tree_key_compare"* %68, i32 0, i32 0, !llfi_index !774
  %70 = call nonnull align 8 dereferenceable(8) %"struct.std::_Rb_tree_const_iterator"* @_ZNSt17_Rb_tree_iteratorISt4pairIKllEEmmEv(%"struct.std::_Rb_tree_const_iterator"* nonnull align 8 dereferenceable(8) %10) #2, !llfi_index !775
  %71 = getelementptr inbounds %"struct.std::_Rb_tree_const_iterator", %"struct.std::_Rb_tree_const_iterator"* %70, i32 0, i32 0, !llfi_index !776
  %72 = load %"struct.std::_Rb_tree_node_base"*, %"struct.std::_Rb_tree_node_base"** %71, align 8, !llfi_index !777
  %73 = call nonnull align 8 dereferenceable(8) i64* @_ZNSt8_Rb_treeIlSt4pairIKllESt10_Select1stIS2_ESt4lessIlESaIS2_EE6_S_keyEPKSt18_Rb_tree_node_base(%"struct.std::_Rb_tree_node_base"* %72), !llfi_index !778
  %74 = load i64*, i64** %7, align 8, !llfi_index !779
  %75 = call zeroext i1 @_ZNKSt4lessIlEclERKlS2_(%"class.std::ios_base::Init"* nonnull align 1 dereferenceable(1) %69, i64* nonnull align 8 dereferenceable(8) %73, i64* nonnull align 8 dereferenceable(8) %74), !llfi_index !780
  br i1 %75, label %76, label %86, !llfi_index !781

76:                                               ; preds = %66
  %77 = getelementptr inbounds %"struct.std::_Rb_tree_const_iterator", %"struct.std::_Rb_tree_const_iterator"* %10, i32 0, i32 0, !llfi_index !782
  %78 = load %"struct.std::_Rb_tree_node_base"*, %"struct.std::_Rb_tree_node_base"** %77, align 8, !llfi_index !783
  %79 = call %"struct.std::_Rb_tree_node"* @_ZNSt8_Rb_treeIlSt4pairIKllESt10_Select1stIS2_ESt4lessIlESaIS2_EE8_S_rightEPSt18_Rb_tree_node_base(%"struct.std::_Rb_tree_node_base"* %78) #2, !llfi_index !784
  %80 = icmp eq %"struct.std::_Rb_tree_node"* %79, null, !llfi_index !785
  br i1 %80, label %81, label %83, !llfi_index !786

81:                                               ; preds = %76
  store %"struct.std::_Rb_tree_node_base"* null, %"struct.std::_Rb_tree_node_base"** %11, align 8, !llfi_index !787
  %82 = getelementptr inbounds %"struct.std::_Rb_tree_const_iterator", %"struct.std::_Rb_tree_const_iterator"* %10, i32 0, i32 0, !llfi_index !788
  call void @_ZNSt4pairIPSt18_Rb_tree_node_baseS1_EC2IRS1_Lb1EEERKS1_OT_(%"struct.std::pair.1"* nonnull align 8 dereferenceable(16) %4, %"struct.std::_Rb_tree_node_base"** nonnull align 8 dereferenceable(8) %11, %"struct.std::_Rb_tree_node_base"** nonnull align 8 dereferenceable(8) %82), !llfi_index !789
  br label %143, !llfi_index !790

83:                                               ; preds = %76
  %84 = getelementptr inbounds %"struct.std::_Rb_tree_const_iterator", %"struct.std::_Rb_tree_const_iterator"* %8, i32 0, i32 0, !llfi_index !791
  %85 = getelementptr inbounds %"struct.std::_Rb_tree_const_iterator", %"struct.std::_Rb_tree_const_iterator"* %8, i32 0, i32 0, !llfi_index !792
  call void @_ZNSt4pairIPSt18_Rb_tree_node_baseS1_EC2IRS1_S4_Lb1EEEOT_OT0_(%"struct.std::pair.1"* nonnull align 8 dereferenceable(16) %4, %"struct.std::_Rb_tree_node_base"** nonnull align 8 dereferenceable(8) %84, %"struct.std::_Rb_tree_node_base"** nonnull align 8 dereferenceable(8) %85), !llfi_index !793
  br label %143, !llfi_index !794

86:                                               ; preds = %66
  %87 = load i64*, i64** %7, align 8, !llfi_index !795
  %88 = call { %"struct.std::_Rb_tree_node_base"*, %"struct.std::_Rb_tree_node_base"* } @_ZNSt8_Rb_treeIlSt4pairIKllESt10_Select1stIS2_ESt4lessIlESaIS2_EE24_M_get_insert_unique_posERS1_(%"class.std::_Rb_tree"* nonnull align 8 dereferenceable(48) %17, i64* nonnull align 8 dereferenceable(8) %87), !llfi_index !796
  %89 = bitcast %"struct.std::pair.1"* %4 to { %"struct.std::_Rb_tree_node_base"*, %"struct.std::_Rb_tree_node_base"* }*, !llfi_index !797
  %90 = getelementptr inbounds { %"struct.std::_Rb_tree_node_base"*, %"struct.std::_Rb_tree_node_base"* }, { %"struct.std::_Rb_tree_node_base"*, %"struct.std::_Rb_tree_node_base"* }* %89, i32 0, i32 0, !llfi_index !798
  %91 = extractvalue { %"struct.std::_Rb_tree_node_base"*, %"struct.std::_Rb_tree_node_base"* } %88, 0, !llfi_index !799
  store %"struct.std::_Rb_tree_node_base"* %91, %"struct.std::_Rb_tree_node_base"** %90, align 8, !llfi_index !800
  %92 = getelementptr inbounds { %"struct.std::_Rb_tree_node_base"*, %"struct.std::_Rb_tree_node_base"* }, { %"struct.std::_Rb_tree_node_base"*, %"struct.std::_Rb_tree_node_base"* }* %89, i32 0, i32 1, !llfi_index !801
  %93 = extractvalue { %"struct.std::_Rb_tree_node_base"*, %"struct.std::_Rb_tree_node_base"* } %88, 1, !llfi_index !802
  store %"struct.std::_Rb_tree_node_base"* %93, %"struct.std::_Rb_tree_node_base"** %92, align 8, !llfi_index !803
  br label %143, !llfi_index !804

94:                                               ; preds = %46
  %95 = getelementptr inbounds %"class.std::_Rb_tree", %"class.std::_Rb_tree"* %17, i32 0, i32 0, !llfi_index !805
  %96 = bitcast %"struct.std::_Rb_tree<long, std::pair<const long, long>, std::_Select1st<std::pair<const long, long>>, std::less<long>>::_Rb_tree_impl"* %95 to %"struct.std::_Rb_tree_key_compare"*, !llfi_index !806
  %97 = getelementptr inbounds %"struct.std::_Rb_tree_key_compare", %"struct.std::_Rb_tree_key_compare"* %96, i32 0, i32 0, !llfi_index !807
  %98 = getelementptr inbounds %"struct.std::_Rb_tree_const_iterator", %"struct.std::_Rb_tree_const_iterator"* %8, i32 0, i32 0, !llfi_index !808
  %99 = load %"struct.std::_Rb_tree_node_base"*, %"struct.std::_Rb_tree_node_base"** %98, align 8, !llfi_index !809
  %100 = call nonnull align 8 dereferenceable(8) i64* @_ZNSt8_Rb_treeIlSt4pairIKllESt10_Select1stIS2_ESt4lessIlESaIS2_EE6_S_keyEPKSt18_Rb_tree_node_base(%"struct.std::_Rb_tree_node_base"* %99), !llfi_index !810
  %101 = load i64*, i64** %7, align 8, !llfi_index !811
  %102 = call zeroext i1 @_ZNKSt4lessIlEclERKlS2_(%"class.std::ios_base::Init"* nonnull align 1 dereferenceable(1) %97, i64* nonnull align 8 dereferenceable(8) %100, i64* nonnull align 8 dereferenceable(8) %101), !llfi_index !812
  br i1 %102, label %103, label %141, !llfi_index !813

103:                                              ; preds = %94
  %104 = bitcast %"struct.std::_Rb_tree_const_iterator"* %12 to i8*, !llfi_index !814
  %105 = bitcast %"struct.std::_Rb_tree_const_iterator"* %8 to i8*, !llfi_index !815
  call void @llvm.memcpy.p0i8.p0i8.i64(i8* align 8 %104, i8* align 8 %105, i64 8, i1 false), !llfi_index !816
  %106 = getelementptr inbounds %"struct.std::_Rb_tree_const_iterator", %"struct.std::_Rb_tree_const_iterator"* %8, i32 0, i32 0, !llfi_index !817
  %107 = load %"struct.std::_Rb_tree_node_base"*, %"struct.std::_Rb_tree_node_base"** %106, align 8, !llfi_index !818
  %108 = call nonnull align 8 dereferenceable(8) %"struct.std::_Rb_tree_node_base"** @_ZNSt8_Rb_treeIlSt4pairIKllESt10_Select1stIS2_ESt4lessIlESaIS2_EE12_M_rightmostEv(%"class.std::_Rb_tree"* nonnull align 8 dereferenceable(48) %17) #2, !llfi_index !819
  %109 = load %"struct.std::_Rb_tree_node_base"*, %"struct.std::_Rb_tree_node_base"** %108, align 8, !llfi_index !820
  %110 = icmp eq %"struct.std::_Rb_tree_node_base"* %107, %109, !llfi_index !821
  br i1 %110, label %111, label %113, !llfi_index !822

111:                                              ; preds = %103
  store %"struct.std::_Rb_tree_node_base"* null, %"struct.std::_Rb_tree_node_base"** %13, align 8, !llfi_index !823
  %112 = call nonnull align 8 dereferenceable(8) %"struct.std::_Rb_tree_node_base"** @_ZNSt8_Rb_treeIlSt4pairIKllESt10_Select1stIS2_ESt4lessIlESaIS2_EE12_M_rightmostEv(%"class.std::_Rb_tree"* nonnull align 8 dereferenceable(48) %17) #2, !llfi_index !824
  call void @_ZNSt4pairIPSt18_Rb_tree_node_baseS1_EC2IRS1_Lb1EEERKS1_OT_(%"struct.std::pair.1"* nonnull align 8 dereferenceable(16) %4, %"struct.std::_Rb_tree_node_base"** nonnull align 8 dereferenceable(8) %13, %"struct.std::_Rb_tree_node_base"** nonnull align 8 dereferenceable(8) %112), !llfi_index !825
  br label %143, !llfi_index !826

113:                                              ; preds = %103
  %114 = getelementptr inbounds %"class.std::_Rb_tree", %"class.std::_Rb_tree"* %17, i32 0, i32 0, !llfi_index !827
  %115 = bitcast %"struct.std::_Rb_tree<long, std::pair<const long, long>, std::_Select1st<std::pair<const long, long>>, std::less<long>>::_Rb_tree_impl"* %114 to %"struct.std::_Rb_tree_key_compare"*, !llfi_index !828
  %116 = getelementptr inbounds %"struct.std::_Rb_tree_key_compare", %"struct.std::_Rb_tree_key_compare"* %115, i32 0, i32 0, !llfi_index !829
  %117 = load i64*, i64** %7, align 8, !llfi_index !830
  %118 = call nonnull align 8 dereferenceable(8) %"struct.std::_Rb_tree_const_iterator"* @_ZNSt17_Rb_tree_iteratorISt4pairIKllEEppEv(%"struct.std::_Rb_tree_const_iterator"* nonnull align 8 dereferenceable(8) %12) #2, !llfi_index !831
  %119 = getelementptr inbounds %"struct.std::_Rb_tree_const_iterator", %"struct.std::_Rb_tree_const_iterator"* %118, i32 0, i32 0, !llfi_index !832
  %120 = load %"struct.std::_Rb_tree_node_base"*, %"struct.std::_Rb_tree_node_base"** %119, align 8, !llfi_index !833
  %121 = call nonnull align 8 dereferenceable(8) i64* @_ZNSt8_Rb_treeIlSt4pairIKllESt10_Select1stIS2_ESt4lessIlESaIS2_EE6_S_keyEPKSt18_Rb_tree_node_base(%"struct.std::_Rb_tree_node_base"* %120), !llfi_index !834
  %122 = call zeroext i1 @_ZNKSt4lessIlEclERKlS2_(%"class.std::ios_base::Init"* nonnull align 1 dereferenceable(1) %116, i64* nonnull align 8 dereferenceable(8) %117, i64* nonnull align 8 dereferenceable(8) %121), !llfi_index !835
  br i1 %122, label %123, label %133, !llfi_index !836

123:                                              ; preds = %113
  %124 = getelementptr inbounds %"struct.std::_Rb_tree_const_iterator", %"struct.std::_Rb_tree_const_iterator"* %8, i32 0, i32 0, !llfi_index !837
  %125 = load %"struct.std::_Rb_tree_node_base"*, %"struct.std::_Rb_tree_node_base"** %124, align 8, !llfi_index !838
  %126 = call %"struct.std::_Rb_tree_node"* @_ZNSt8_Rb_treeIlSt4pairIKllESt10_Select1stIS2_ESt4lessIlESaIS2_EE8_S_rightEPSt18_Rb_tree_node_base(%"struct.std::_Rb_tree_node_base"* %125) #2, !llfi_index !839
  %127 = icmp eq %"struct.std::_Rb_tree_node"* %126, null, !llfi_index !840
  br i1 %127, label %128, label %130, !llfi_index !841

128:                                              ; preds = %123
  store %"struct.std::_Rb_tree_node_base"* null, %"struct.std::_Rb_tree_node_base"** %14, align 8, !llfi_index !842
  %129 = getelementptr inbounds %"struct.std::_Rb_tree_const_iterator", %"struct.std::_Rb_tree_const_iterator"* %8, i32 0, i32 0, !llfi_index !843
  call void @_ZNSt4pairIPSt18_Rb_tree_node_baseS1_EC2IRS1_Lb1EEERKS1_OT_(%"struct.std::pair.1"* nonnull align 8 dereferenceable(16) %4, %"struct.std::_Rb_tree_node_base"** nonnull align 8 dereferenceable(8) %14, %"struct.std::_Rb_tree_node_base"** nonnull align 8 dereferenceable(8) %129), !llfi_index !844
  br label %143, !llfi_index !845

130:                                              ; preds = %123
  %131 = getelementptr inbounds %"struct.std::_Rb_tree_const_iterator", %"struct.std::_Rb_tree_const_iterator"* %12, i32 0, i32 0, !llfi_index !846
  %132 = getelementptr inbounds %"struct.std::_Rb_tree_const_iterator", %"struct.std::_Rb_tree_const_iterator"* %12, i32 0, i32 0, !llfi_index !847
  call void @_ZNSt4pairIPSt18_Rb_tree_node_baseS1_EC2IRS1_S4_Lb1EEEOT_OT0_(%"struct.std::pair.1"* nonnull align 8 dereferenceable(16) %4, %"struct.std::_Rb_tree_node_base"** nonnull align 8 dereferenceable(8) %131, %"struct.std::_Rb_tree_node_base"** nonnull align 8 dereferenceable(8) %132), !llfi_index !848
  br label %143, !llfi_index !849

133:                                              ; preds = %113
  %134 = load i64*, i64** %7, align 8, !llfi_index !850
  %135 = call { %"struct.std::_Rb_tree_node_base"*, %"struct.std::_Rb_tree_node_base"* } @_ZNSt8_Rb_treeIlSt4pairIKllESt10_Select1stIS2_ESt4lessIlESaIS2_EE24_M_get_insert_unique_posERS1_(%"class.std::_Rb_tree"* nonnull align 8 dereferenceable(48) %17, i64* nonnull align 8 dereferenceable(8) %134), !llfi_index !851
  %136 = bitcast %"struct.std::pair.1"* %4 to { %"struct.std::_Rb_tree_node_base"*, %"struct.std::_Rb_tree_node_base"* }*, !llfi_index !852
  %137 = getelementptr inbounds { %"struct.std::_Rb_tree_node_base"*, %"struct.std::_Rb_tree_node_base"* }, { %"struct.std::_Rb_tree_node_base"*, %"struct.std::_Rb_tree_node_base"* }* %136, i32 0, i32 0, !llfi_index !853
  %138 = extractvalue { %"struct.std::_Rb_tree_node_base"*, %"struct.std::_Rb_tree_node_base"* } %135, 0, !llfi_index !854
  store %"struct.std::_Rb_tree_node_base"* %138, %"struct.std::_Rb_tree_node_base"** %137, align 8, !llfi_index !855
  %139 = getelementptr inbounds { %"struct.std::_Rb_tree_node_base"*, %"struct.std::_Rb_tree_node_base"* }, { %"struct.std::_Rb_tree_node_base"*, %"struct.std::_Rb_tree_node_base"* }* %136, i32 0, i32 1, !llfi_index !856
  %140 = extractvalue { %"struct.std::_Rb_tree_node_base"*, %"struct.std::_Rb_tree_node_base"* } %135, 1, !llfi_index !857
  store %"struct.std::_Rb_tree_node_base"* %140, %"struct.std::_Rb_tree_node_base"** %139, align 8, !llfi_index !858
  br label %143, !llfi_index !859

141:                                              ; preds = %94
  %142 = getelementptr inbounds %"struct.std::_Rb_tree_const_iterator", %"struct.std::_Rb_tree_const_iterator"* %8, i32 0, i32 0, !llfi_index !860
  store %"struct.std::_Rb_tree_node_base"* null, %"struct.std::_Rb_tree_node_base"** %15, align 8, !llfi_index !861
  call void @_ZNSt4pairIPSt18_Rb_tree_node_baseS1_EC2IRS1_Lb1EEEOT_RKS1_(%"struct.std::pair.1"* nonnull align 8 dereferenceable(16) %4, %"struct.std::_Rb_tree_node_base"** nonnull align 8 dereferenceable(8) %142, %"struct.std::_Rb_tree_node_base"** nonnull align 8 dereferenceable(8) %15), !llfi_index !862
  br label %143, !llfi_index !863

143:                                              ; preds = %141, %133, %130, %128, %111, %86, %83, %81, %63, %38, %36
  %144 = bitcast %"struct.std::pair.1"* %4 to { %"struct.std::_Rb_tree_node_base"*, %"struct.std::_Rb_tree_node_base"* }*, !llfi_index !864
  %145 = load { %"struct.std::_Rb_tree_node_base"*, %"struct.std::_Rb_tree_node_base"* }, { %"struct.std::_Rb_tree_node_base"*, %"struct.std::_Rb_tree_node_base"* }* %144, align 8, !llfi_index !865
  ret { %"struct.std::_Rb_tree_node_base"*, %"struct.std::_Rb_tree_node_base"* } %145, !llfi_index !866
}

; Function Attrs: mustprogress noinline uwtable
define linkonce_odr dso_local %"struct.std::_Rb_tree_node_base"* @_ZNSt8_Rb_treeIlSt4pairIKllESt10_Select1stIS2_ESt4lessIlESaIS2_EE14_M_insert_nodeEPSt18_Rb_tree_node_baseSA_PSt13_Rb_tree_nodeIS2_E(%"class.std::_Rb_tree"* nonnull align 8 dereferenceable(48) %0, %"struct.std::_Rb_tree_node_base"* %1, %"struct.std::_Rb_tree_node_base"* %2, %"struct.std::_Rb_tree_node"* %3) #6 comdat align 2 {
  %5 = alloca %"struct.std::_Rb_tree_const_iterator", align 8, !llfi_index !867
  %6 = alloca %"class.std::_Rb_tree"*, align 8, !llfi_index !868
  %7 = alloca %"struct.std::_Rb_tree_node_base"*, align 8, !llfi_index !869
  %8 = alloca %"struct.std::_Rb_tree_node_base"*, align 8, !llfi_index !870
  %9 = alloca %"struct.std::_Rb_tree_node"*, align 8, !llfi_index !871
  %10 = alloca i8, align 1, !llfi_index !872
  store %"class.std::_Rb_tree"* %0, %"class.std::_Rb_tree"** %6, align 8, !llfi_index !873
  store %"struct.std::_Rb_tree_node_base"* %1, %"struct.std::_Rb_tree_node_base"** %7, align 8, !llfi_index !874
  store %"struct.std::_Rb_tree_node_base"* %2, %"struct.std::_Rb_tree_node_base"** %8, align 8, !llfi_index !875
  store %"struct.std::_Rb_tree_node"* %3, %"struct.std::_Rb_tree_node"** %9, align 8, !llfi_index !876
  %11 = load %"class.std::_Rb_tree"*, %"class.std::_Rb_tree"** %6, align 8, !llfi_index !877
  %12 = load %"struct.std::_Rb_tree_node_base"*, %"struct.std::_Rb_tree_node_base"** %7, align 8, !llfi_index !878
  %13 = icmp ne %"struct.std::_Rb_tree_node_base"* %12, null, !llfi_index !879
  br i1 %13, label %27, label %14, !llfi_index !880

14:                                               ; preds = %4
  %15 = load %"struct.std::_Rb_tree_node_base"*, %"struct.std::_Rb_tree_node_base"** %8, align 8, !llfi_index !881
  %16 = call %"struct.std::_Rb_tree_node_base"* @_ZNSt8_Rb_treeIlSt4pairIKllESt10_Select1stIS2_ESt4lessIlESaIS2_EE6_M_endEv(%"class.std::_Rb_tree"* nonnull align 8 dereferenceable(48) %11) #2, !llfi_index !882
  %17 = icmp eq %"struct.std::_Rb_tree_node_base"* %15, %16, !llfi_index !883
  br i1 %17, label %27, label %18, !llfi_index !884

18:                                               ; preds = %14
  %19 = getelementptr inbounds %"class.std::_Rb_tree", %"class.std::_Rb_tree"* %11, i32 0, i32 0, !llfi_index !885
  %20 = bitcast %"struct.std::_Rb_tree<long, std::pair<const long, long>, std::_Select1st<std::pair<const long, long>>, std::less<long>>::_Rb_tree_impl"* %19 to %"struct.std::_Rb_tree_key_compare"*, !llfi_index !886
  %21 = getelementptr inbounds %"struct.std::_Rb_tree_key_compare", %"struct.std::_Rb_tree_key_compare"* %20, i32 0, i32 0, !llfi_index !887
  %22 = load %"struct.std::_Rb_tree_node"*, %"struct.std::_Rb_tree_node"** %9, align 8, !llfi_index !888
  %23 = call nonnull align 8 dereferenceable(8) i64* @_ZNSt8_Rb_treeIlSt4pairIKllESt10_Select1stIS2_ESt4lessIlESaIS2_EE6_S_keyEPKSt13_Rb_tree_nodeIS2_E(%"struct.std::_Rb_tree_node"* %22), !llfi_index !889
  %24 = load %"struct.std::_Rb_tree_node_base"*, %"struct.std::_Rb_tree_node_base"** %8, align 8, !llfi_index !890
  %25 = call nonnull align 8 dereferenceable(8) i64* @_ZNSt8_Rb_treeIlSt4pairIKllESt10_Select1stIS2_ESt4lessIlESaIS2_EE6_S_keyEPKSt18_Rb_tree_node_base(%"struct.std::_Rb_tree_node_base"* %24), !llfi_index !891
  %26 = call zeroext i1 @_ZNKSt4lessIlEclERKlS2_(%"class.std::ios_base::Init"* nonnull align 1 dereferenceable(1) %21, i64* nonnull align 8 dereferenceable(8) %23, i64* nonnull align 8 dereferenceable(8) %25), !llfi_index !892
  br label %27, !llfi_index !893

27:                                               ; preds = %18, %14, %4
  %28 = phi i1 [ true, %14 ], [ true, %4 ], [ %26, %18 ], !llfi_index !894
  %29 = zext i1 %28 to i8, !llfi_index !895
  store i8 %29, i8* %10, align 1, !llfi_index !896
  %30 = load i8, i8* %10, align 1, !llfi_index !897
  %31 = trunc i8 %30 to i1, !llfi_index !898
  %32 = load %"struct.std::_Rb_tree_node"*, %"struct.std::_Rb_tree_node"** %9, align 8, !llfi_index !899
  %33 = bitcast %"struct.std::_Rb_tree_node"* %32 to %"struct.std::_Rb_tree_node_base"*, !llfi_index !900
  %34 = load %"struct.std::_Rb_tree_node_base"*, %"struct.std::_Rb_tree_node_base"** %8, align 8, !llfi_index !901
  %35 = getelementptr inbounds %"class.std::_Rb_tree", %"class.std::_Rb_tree"* %11, i32 0, i32 0, !llfi_index !902
  %36 = bitcast %"struct.std::_Rb_tree<long, std::pair<const long, long>, std::_Select1st<std::pair<const long, long>>, std::less<long>>::_Rb_tree_impl"* %35 to i8*, !llfi_index !903
  %37 = getelementptr inbounds i8, i8* %36, i64 8, !llfi_index !904
  %38 = bitcast i8* %37 to %"struct.std::_Rb_tree_header"*, !llfi_index !905
  %39 = getelementptr inbounds %"struct.std::_Rb_tree_header", %"struct.std::_Rb_tree_header"* %38, i32 0, i32 0, !llfi_index !906
  call void @_ZSt29_Rb_tree_insert_and_rebalancebPSt18_Rb_tree_node_baseS0_RS_(i1 zeroext %31, %"struct.std::_Rb_tree_node_base"* %33, %"struct.std::_Rb_tree_node_base"* %34, %"struct.std::_Rb_tree_node_base"* nonnull align 8 dereferenceable(32) %39) #2, !llfi_index !907
  %40 = getelementptr inbounds %"class.std::_Rb_tree", %"class.std::_Rb_tree"* %11, i32 0, i32 0, !llfi_index !908
  %41 = bitcast %"struct.std::_Rb_tree<long, std::pair<const long, long>, std::_Select1st<std::pair<const long, long>>, std::less<long>>::_Rb_tree_impl"* %40 to i8*, !llfi_index !909
  %42 = getelementptr inbounds i8, i8* %41, i64 8, !llfi_index !910
  %43 = bitcast i8* %42 to %"struct.std::_Rb_tree_header"*, !llfi_index !911
  %44 = getelementptr inbounds %"struct.std::_Rb_tree_header", %"struct.std::_Rb_tree_header"* %43, i32 0, i32 1, !llfi_index !912
  %45 = load i64, i64* %44, align 8, !llfi_index !913
  %46 = add i64 %45, 1, !llfi_index !914
  store i64 %46, i64* %44, align 8, !llfi_index !915
  %47 = load %"struct.std::_Rb_tree_node"*, %"struct.std::_Rb_tree_node"** %9, align 8, !llfi_index !916
  %48 = bitcast %"struct.std::_Rb_tree_node"* %47 to %"struct.std::_Rb_tree_node_base"*, !llfi_index !917
  call void @_ZNSt17_Rb_tree_iteratorISt4pairIKllEEC2EPSt18_Rb_tree_node_base(%"struct.std::_Rb_tree_const_iterator"* nonnull align 8 dereferenceable(8) %5, %"struct.std::_Rb_tree_node_base"* %48) #2, !llfi_index !918
  %49 = getelementptr inbounds %"struct.std::_Rb_tree_const_iterator", %"struct.std::_Rb_tree_const_iterator"* %5, i32 0, i32 0, !llfi_index !919
  %50 = load %"struct.std::_Rb_tree_node_base"*, %"struct.std::_Rb_tree_node_base"** %49, align 8, !llfi_index !920
  ret %"struct.std::_Rb_tree_node_base"* %50, !llfi_index !921
}

declare dso_local void @__cxa_rethrow()

declare dso_local void @__cxa_end_catch()

; Function Attrs: cold noreturn nounwind
declare void @llvm.trap() #12

; Function Attrs: mustprogress noinline nounwind uwtable
define linkonce_odr dso_local %"struct.std::_Rb_tree_node_base"* @_ZNSt8_Rb_treeIlSt4pairIKllESt10_Select1stIS2_ESt4lessIlESaIS2_EE6_M_endEv(%"class.std::_Rb_tree"* nonnull align 8 dereferenceable(48) %0) #7 comdat align 2 {
  %2 = alloca %"class.std::_Rb_tree"*, align 8, !llfi_index !922
  store %"class.std::_Rb_tree"* %0, %"class.std::_Rb_tree"** %2, align 8, !llfi_index !923
  %3 = load %"class.std::_Rb_tree"*, %"class.std::_Rb_tree"** %2, align 8, !llfi_index !924
  %4 = getelementptr inbounds %"class.std::_Rb_tree", %"class.std::_Rb_tree"* %3, i32 0, i32 0, !llfi_index !925
  %5 = bitcast %"struct.std::_Rb_tree<long, std::pair<const long, long>, std::_Select1st<std::pair<const long, long>>, std::less<long>>::_Rb_tree_impl"* %4 to i8*, !llfi_index !926
  %6 = getelementptr inbounds i8, i8* %5, i64 8, !llfi_index !927
  %7 = bitcast i8* %6 to %"struct.std::_Rb_tree_header"*, !llfi_index !928
  %8 = getelementptr inbounds %"struct.std::_Rb_tree_header", %"struct.std::_Rb_tree_header"* %7, i32 0, i32 0, !llfi_index !929
  ret %"struct.std::_Rb_tree_node_base"* %8, !llfi_index !930
}

; Function Attrs: mustprogress noinline uwtable
define linkonce_odr dso_local nonnull align 8 dereferenceable(8) i64* @_ZNSt8_Rb_treeIlSt4pairIKllESt10_Select1stIS2_ESt4lessIlESaIS2_EE6_S_keyEPKSt18_Rb_tree_node_base(%"struct.std::_Rb_tree_node_base"* %0) #6 comdat align 2 {
  %2 = alloca %"struct.std::_Rb_tree_node_base"*, align 8, !llfi_index !931
  store %"struct.std::_Rb_tree_node_base"* %0, %"struct.std::_Rb_tree_node_base"** %2, align 8, !llfi_index !932
  %3 = load %"struct.std::_Rb_tree_node_base"*, %"struct.std::_Rb_tree_node_base"** %2, align 8, !llfi_index !933
  %4 = bitcast %"struct.std::_Rb_tree_node_base"* %3 to %"struct.std::_Rb_tree_node"*, !llfi_index !934
  %5 = call nonnull align 8 dereferenceable(8) i64* @_ZNSt8_Rb_treeIlSt4pairIKllESt10_Select1stIS2_ESt4lessIlESaIS2_EE6_S_keyEPKSt13_Rb_tree_nodeIS2_E(%"struct.std::_Rb_tree_node"* %4), !llfi_index !935
  ret i64* %5, !llfi_index !936
}

; Function Attrs: nounwind
declare dso_local void @_ZSt29_Rb_tree_insert_and_rebalancebPSt18_Rb_tree_node_baseS0_RS_(i1 zeroext, %"struct.std::_Rb_tree_node_base"*, %"struct.std::_Rb_tree_node_base"*, %"struct.std::_Rb_tree_node_base"* nonnull align 8 dereferenceable(32)) #3

; Function Attrs: mustprogress noinline nounwind uwtable
define linkonce_odr dso_local %"struct.std::_Rb_tree_node_base"* @_ZNKSt23_Rb_tree_const_iteratorISt4pairIKllEE13_M_const_castEv(%"struct.std::_Rb_tree_const_iterator"* nonnull align 8 dereferenceable(8) %0) #7 comdat align 2 {
  %2 = alloca %"struct.std::_Rb_tree_const_iterator", align 8, !llfi_index !937
  %3 = alloca %"struct.std::_Rb_tree_const_iterator"*, align 8, !llfi_index !938
  store %"struct.std::_Rb_tree_const_iterator"* %0, %"struct.std::_Rb_tree_const_iterator"** %3, align 8, !llfi_index !939
  %4 = load %"struct.std::_Rb_tree_const_iterator"*, %"struct.std::_Rb_tree_const_iterator"** %3, align 8, !llfi_index !940
  %5 = getelementptr inbounds %"struct.std::_Rb_tree_const_iterator", %"struct.std::_Rb_tree_const_iterator"* %4, i32 0, i32 0, !llfi_index !941
  %6 = load %"struct.std::_Rb_tree_node_base"*, %"struct.std::_Rb_tree_node_base"** %5, align 8, !llfi_index !942
  call void @_ZNSt17_Rb_tree_iteratorISt4pairIKllEEC2EPSt18_Rb_tree_node_base(%"struct.std::_Rb_tree_const_iterator"* nonnull align 8 dereferenceable(8) %2, %"struct.std::_Rb_tree_node_base"* %6) #2, !llfi_index !943
  %7 = getelementptr inbounds %"struct.std::_Rb_tree_const_iterator", %"struct.std::_Rb_tree_const_iterator"* %2, i32 0, i32 0, !llfi_index !944
  %8 = load %"struct.std::_Rb_tree_node_base"*, %"struct.std::_Rb_tree_node_base"** %7, align 8, !llfi_index !945
  ret %"struct.std::_Rb_tree_node_base"* %8, !llfi_index !946
}

; Function Attrs: mustprogress noinline nounwind uwtable
define linkonce_odr dso_local i64 @_ZNKSt8_Rb_treeIlSt4pairIKllESt10_Select1stIS2_ESt4lessIlESaIS2_EE4sizeEv(%"class.std::_Rb_tree"* nonnull align 8 dereferenceable(48) %0) #7 comdat align 2 {
  %2 = alloca %"class.std::_Rb_tree"*, align 8, !llfi_index !947
  store %"class.std::_Rb_tree"* %0, %"class.std::_Rb_tree"** %2, align 8, !llfi_index !948
  %3 = load %"class.std::_Rb_tree"*, %"class.std::_Rb_tree"** %2, align 8, !llfi_index !949
  %4 = getelementptr inbounds %"class.std::_Rb_tree", %"class.std::_Rb_tree"* %3, i32 0, i32 0, !llfi_index !950
  %5 = bitcast %"struct.std::_Rb_tree<long, std::pair<const long, long>, std::_Select1st<std::pair<const long, long>>, std::less<long>>::_Rb_tree_impl"* %4 to i8*, !llfi_index !951
  %6 = getelementptr inbounds i8, i8* %5, i64 8, !llfi_index !952
  %7 = bitcast i8* %6 to %"struct.std::_Rb_tree_header"*, !llfi_index !953
  %8 = getelementptr inbounds %"struct.std::_Rb_tree_header", %"struct.std::_Rb_tree_header"* %7, i32 0, i32 1, !llfi_index !954
  %9 = load i64, i64* %8, align 8, !llfi_index !955
  ret i64 %9, !llfi_index !956
}

; Function Attrs: mustprogress noinline nounwind uwtable
define linkonce_odr dso_local nonnull align 8 dereferenceable(8) %"struct.std::_Rb_tree_node_base"** @_ZNSt8_Rb_treeIlSt4pairIKllESt10_Select1stIS2_ESt4lessIlESaIS2_EE12_M_rightmostEv(%"class.std::_Rb_tree"* nonnull align 8 dereferenceable(48) %0) #7 comdat align 2 {
  %2 = alloca %"class.std::_Rb_tree"*, align 8, !llfi_index !957
  store %"class.std::_Rb_tree"* %0, %"class.std::_Rb_tree"** %2, align 8, !llfi_index !958
  %3 = load %"class.std::_Rb_tree"*, %"class.std::_Rb_tree"** %2, align 8, !llfi_index !959
  %4 = getelementptr inbounds %"class.std::_Rb_tree", %"class.std::_Rb_tree"* %3, i32 0, i32 0, !llfi_index !960
  %5 = bitcast %"struct.std::_Rb_tree<long, std::pair<const long, long>, std::_Select1st<std::pair<const long, long>>, std::less<long>>::_Rb_tree_impl"* %4 to i8*, !llfi_index !961
  %6 = getelementptr inbounds i8, i8* %5, i64 8, !llfi_index !962
  %7 = bitcast i8* %6 to %"struct.std::_Rb_tree_header"*, !llfi_index !963
  %8 = getelementptr inbounds %"struct.std::_Rb_tree_header", %"struct.std::_Rb_tree_header"* %7, i32 0, i32 0, !llfi_index !964
  %9 = getelementptr inbounds %"struct.std::_Rb_tree_node_base", %"struct.std::_Rb_tree_node_base"* %8, i32 0, i32 3, !llfi_index !965
  ret %"struct.std::_Rb_tree_node_base"** %9, !llfi_index !966
}

; Function Attrs: noinline nounwind uwtable
define linkonce_odr dso_local void @_ZNSt4pairIPSt18_Rb_tree_node_baseS1_EC2IRS1_Lb1EEERKS1_OT_(%"struct.std::pair.1"* nonnull align 8 dereferenceable(16) %0, %"struct.std::_Rb_tree_node_base"** nonnull align 8 dereferenceable(8) %1, %"struct.std::_Rb_tree_node_base"** nonnull align 8 dereferenceable(8) %2) unnamed_addr #5 comdat align 2 {
  %4 = alloca %"struct.std::pair.1"*, align 8, !llfi_index !967
  %5 = alloca %"struct.std::_Rb_tree_node_base"**, align 8, !llfi_index !968
  %6 = alloca %"struct.std::_Rb_tree_node_base"**, align 8, !llfi_index !969
  store %"struct.std::pair.1"* %0, %"struct.std::pair.1"** %4, align 8, !llfi_index !970
  store %"struct.std::_Rb_tree_node_base"** %1, %"struct.std::_Rb_tree_node_base"*** %5, align 8, !llfi_index !971
  store %"struct.std::_Rb_tree_node_base"** %2, %"struct.std::_Rb_tree_node_base"*** %6, align 8, !llfi_index !972
  %7 = load %"struct.std::pair.1"*, %"struct.std::pair.1"** %4, align 8, !llfi_index !973
  %8 = bitcast %"struct.std::pair.1"* %7 to %"class.std::ios_base::Init"*, !llfi_index !974
  %9 = getelementptr inbounds %"struct.std::pair.1", %"struct.std::pair.1"* %7, i32 0, i32 0, !llfi_index !975
  %10 = load %"struct.std::_Rb_tree_node_base"**, %"struct.std::_Rb_tree_node_base"*** %5, align 8, !llfi_index !976
  %11 = load %"struct.std::_Rb_tree_node_base"*, %"struct.std::_Rb_tree_node_base"** %10, align 8, !llfi_index !977
  store %"struct.std::_Rb_tree_node_base"* %11, %"struct.std::_Rb_tree_node_base"** %9, align 8, !llfi_index !978
  %12 = getelementptr inbounds %"struct.std::pair.1", %"struct.std::pair.1"* %7, i32 0, i32 1, !llfi_index !979
  %13 = load %"struct.std::_Rb_tree_node_base"**, %"struct.std::_Rb_tree_node_base"*** %6, align 8, !llfi_index !980
  %14 = call nonnull align 8 dereferenceable(8) %"struct.std::_Rb_tree_node_base"** @_ZSt7forwardIRPSt18_Rb_tree_node_baseEOT_RNSt16remove_referenceIS3_E4typeE(%"struct.std::_Rb_tree_node_base"** nonnull align 8 dereferenceable(8) %13) #2, !llfi_index !981
  %15 = load %"struct.std::_Rb_tree_node_base"*, %"struct.std::_Rb_tree_node_base"** %14, align 8, !llfi_index !982
  store %"struct.std::_Rb_tree_node_base"* %15, %"struct.std::_Rb_tree_node_base"** %12, align 8, !llfi_index !983
  ret void, !llfi_index !984
}

; Function Attrs: mustprogress noinline uwtable
define linkonce_odr dso_local { %"struct.std::_Rb_tree_node_base"*, %"struct.std::_Rb_tree_node_base"* } @_ZNSt8_Rb_treeIlSt4pairIKllESt10_Select1stIS2_ESt4lessIlESaIS2_EE24_M_get_insert_unique_posERS1_(%"class.std::_Rb_tree"* nonnull align 8 dereferenceable(48) %0, i64* nonnull align 8 dereferenceable(8) %1) #6 comdat align 2 {
  %3 = alloca %"struct.std::pair.1", align 8, !llfi_index !985
  %4 = alloca %"class.std::_Rb_tree"*, align 8, !llfi_index !986
  %5 = alloca i64*, align 8, !llfi_index !987
  %6 = alloca %"struct.std::_Rb_tree_node"*, align 8, !llfi_index !988
  %7 = alloca %"struct.std::_Rb_tree_node_base"*, align 8, !llfi_index !989
  %8 = alloca i8, align 1, !llfi_index !990
  %9 = alloca %"struct.std::_Rb_tree_const_iterator", align 8, !llfi_index !991
  %10 = alloca %"struct.std::_Rb_tree_const_iterator", align 8, !llfi_index !992
  %11 = alloca %"struct.std::_Rb_tree_node_base"*, align 8, !llfi_index !993
  store %"class.std::_Rb_tree"* %0, %"class.std::_Rb_tree"** %4, align 8, !llfi_index !994
  store i64* %1, i64** %5, align 8, !llfi_index !995
  %12 = load %"class.std::_Rb_tree"*, %"class.std::_Rb_tree"** %4, align 8, !llfi_index !996
  %13 = call %"struct.std::_Rb_tree_node"* @_ZNSt8_Rb_treeIlSt4pairIKllESt10_Select1stIS2_ESt4lessIlESaIS2_EE8_M_beginEv(%"class.std::_Rb_tree"* nonnull align 8 dereferenceable(48) %12) #2, !llfi_index !997
  store %"struct.std::_Rb_tree_node"* %13, %"struct.std::_Rb_tree_node"** %6, align 8, !llfi_index !998
  %14 = call %"struct.std::_Rb_tree_node_base"* @_ZNSt8_Rb_treeIlSt4pairIKllESt10_Select1stIS2_ESt4lessIlESaIS2_EE6_M_endEv(%"class.std::_Rb_tree"* nonnull align 8 dereferenceable(48) %12) #2, !llfi_index !999
  store %"struct.std::_Rb_tree_node_base"* %14, %"struct.std::_Rb_tree_node_base"** %7, align 8, !llfi_index !1000
  store i8 1, i8* %8, align 1, !llfi_index !1001
  br label %15, !llfi_index !1002

15:                                               ; preds = %39, %2
  %16 = load %"struct.std::_Rb_tree_node"*, %"struct.std::_Rb_tree_node"** %6, align 8, !llfi_index !1003
  %17 = icmp ne %"struct.std::_Rb_tree_node"* %16, null, !llfi_index !1004
  br i1 %17, label %18, label %41, !llfi_index !1005

18:                                               ; preds = %15
  %19 = load %"struct.std::_Rb_tree_node"*, %"struct.std::_Rb_tree_node"** %6, align 8, !llfi_index !1006
  %20 = bitcast %"struct.std::_Rb_tree_node"* %19 to %"struct.std::_Rb_tree_node_base"*, !llfi_index !1007
  store %"struct.std::_Rb_tree_node_base"* %20, %"struct.std::_Rb_tree_node_base"** %7, align 8, !llfi_index !1008
  %21 = getelementptr inbounds %"class.std::_Rb_tree", %"class.std::_Rb_tree"* %12, i32 0, i32 0, !llfi_index !1009
  %22 = bitcast %"struct.std::_Rb_tree<long, std::pair<const long, long>, std::_Select1st<std::pair<const long, long>>, std::less<long>>::_Rb_tree_impl"* %21 to %"struct.std::_Rb_tree_key_compare"*, !llfi_index !1010
  %23 = getelementptr inbounds %"struct.std::_Rb_tree_key_compare", %"struct.std::_Rb_tree_key_compare"* %22, i32 0, i32 0, !llfi_index !1011
  %24 = load i64*, i64** %5, align 8, !llfi_index !1012
  %25 = load %"struct.std::_Rb_tree_node"*, %"struct.std::_Rb_tree_node"** %6, align 8, !llfi_index !1013
  %26 = call nonnull align 8 dereferenceable(8) i64* @_ZNSt8_Rb_treeIlSt4pairIKllESt10_Select1stIS2_ESt4lessIlESaIS2_EE6_S_keyEPKSt13_Rb_tree_nodeIS2_E(%"struct.std::_Rb_tree_node"* %25), !llfi_index !1014
  %27 = call zeroext i1 @_ZNKSt4lessIlEclERKlS2_(%"class.std::ios_base::Init"* nonnull align 1 dereferenceable(1) %23, i64* nonnull align 8 dereferenceable(8) %24, i64* nonnull align 8 dereferenceable(8) %26), !llfi_index !1015
  %28 = zext i1 %27 to i8, !llfi_index !1016
  store i8 %28, i8* %8, align 1, !llfi_index !1017
  %29 = load i8, i8* %8, align 1, !llfi_index !1018
  %30 = trunc i8 %29 to i1, !llfi_index !1019
  br i1 %30, label %31, label %35, !llfi_index !1020

31:                                               ; preds = %18
  %32 = load %"struct.std::_Rb_tree_node"*, %"struct.std::_Rb_tree_node"** %6, align 8, !llfi_index !1021
  %33 = bitcast %"struct.std::_Rb_tree_node"* %32 to %"struct.std::_Rb_tree_node_base"*, !llfi_index !1022
  %34 = call %"struct.std::_Rb_tree_node"* @_ZNSt8_Rb_treeIlSt4pairIKllESt10_Select1stIS2_ESt4lessIlESaIS2_EE7_S_leftEPSt18_Rb_tree_node_base(%"struct.std::_Rb_tree_node_base"* %33) #2, !llfi_index !1023
  br label %39, !llfi_index !1024

35:                                               ; preds = %18
  %36 = load %"struct.std::_Rb_tree_node"*, %"struct.std::_Rb_tree_node"** %6, align 8, !llfi_index !1025
  %37 = bitcast %"struct.std::_Rb_tree_node"* %36 to %"struct.std::_Rb_tree_node_base"*, !llfi_index !1026
  %38 = call %"struct.std::_Rb_tree_node"* @_ZNSt8_Rb_treeIlSt4pairIKllESt10_Select1stIS2_ESt4lessIlESaIS2_EE8_S_rightEPSt18_Rb_tree_node_base(%"struct.std::_Rb_tree_node_base"* %37) #2, !llfi_index !1027
  br label %39, !llfi_index !1028

39:                                               ; preds = %35, %31
  %40 = phi %"struct.std::_Rb_tree_node"* [ %34, %31 ], [ %38, %35 ], !llfi_index !1029
  store %"struct.std::_Rb_tree_node"* %40, %"struct.std::_Rb_tree_node"** %6, align 8, !llfi_index !1030
  br label %15, !llvm.loop !1031, !llfi_index !1032

41:                                               ; preds = %15
  %42 = load %"struct.std::_Rb_tree_node_base"*, %"struct.std::_Rb_tree_node_base"** %7, align 8, !llfi_index !1033
  call void @_ZNSt17_Rb_tree_iteratorISt4pairIKllEEC2EPSt18_Rb_tree_node_base(%"struct.std::_Rb_tree_const_iterator"* nonnull align 8 dereferenceable(8) %9, %"struct.std::_Rb_tree_node_base"* %42) #2, !llfi_index !1034
  %43 = load i8, i8* %8, align 1, !llfi_index !1035
  %44 = trunc i8 %43 to i1, !llfi_index !1036
  br i1 %44, label %45, label %53, !llfi_index !1037

45:                                               ; preds = %41
  %46 = call %"struct.std::_Rb_tree_node_base"* @_ZNSt8_Rb_treeIlSt4pairIKllESt10_Select1stIS2_ESt4lessIlESaIS2_EE5beginEv(%"class.std::_Rb_tree"* nonnull align 8 dereferenceable(48) %12) #2, !llfi_index !1038
  %47 = getelementptr inbounds %"struct.std::_Rb_tree_const_iterator", %"struct.std::_Rb_tree_const_iterator"* %10, i32 0, i32 0, !llfi_index !1039
  store %"struct.std::_Rb_tree_node_base"* %46, %"struct.std::_Rb_tree_node_base"** %47, align 8, !llfi_index !1040
  %48 = call zeroext i1 @_ZSteqRKSt17_Rb_tree_iteratorISt4pairIKllEES5_(%"struct.std::_Rb_tree_const_iterator"* nonnull align 8 dereferenceable(8) %9, %"struct.std::_Rb_tree_const_iterator"* nonnull align 8 dereferenceable(8) %10) #2, !llfi_index !1041
  br i1 %48, label %49, label %50, !llfi_index !1042

49:                                               ; preds = %45
  call void @_ZNSt4pairIPSt18_Rb_tree_node_baseS1_EC2IRPSt13_Rb_tree_nodeIS_IKllEERS1_Lb1EEEOT_OT0_(%"struct.std::pair.1"* nonnull align 8 dereferenceable(16) %3, %"struct.std::_Rb_tree_node"** nonnull align 8 dereferenceable(8) %6, %"struct.std::_Rb_tree_node_base"** nonnull align 8 dereferenceable(8) %7), !llfi_index !1043
  br label %65, !llfi_index !1044

50:                                               ; preds = %45
  %51 = call nonnull align 8 dereferenceable(8) %"struct.std::_Rb_tree_const_iterator"* @_ZNSt17_Rb_tree_iteratorISt4pairIKllEEmmEv(%"struct.std::_Rb_tree_const_iterator"* nonnull align 8 dereferenceable(8) %9) #2, !llfi_index !1045
  br label %52, !llfi_index !1046

52:                                               ; preds = %50
  br label %53, !llfi_index !1047

53:                                               ; preds = %52, %41
  %54 = getelementptr inbounds %"class.std::_Rb_tree", %"class.std::_Rb_tree"* %12, i32 0, i32 0, !llfi_index !1048
  %55 = bitcast %"struct.std::_Rb_tree<long, std::pair<const long, long>, std::_Select1st<std::pair<const long, long>>, std::less<long>>::_Rb_tree_impl"* %54 to %"struct.std::_Rb_tree_key_compare"*, !llfi_index !1049
  %56 = getelementptr inbounds %"struct.std::_Rb_tree_key_compare", %"struct.std::_Rb_tree_key_compare"* %55, i32 0, i32 0, !llfi_index !1050
  %57 = getelementptr inbounds %"struct.std::_Rb_tree_const_iterator", %"struct.std::_Rb_tree_const_iterator"* %9, i32 0, i32 0, !llfi_index !1051
  %58 = load %"struct.std::_Rb_tree_node_base"*, %"struct.std::_Rb_tree_node_base"** %57, align 8, !llfi_index !1052
  %59 = call nonnull align 8 dereferenceable(8) i64* @_ZNSt8_Rb_treeIlSt4pairIKllESt10_Select1stIS2_ESt4lessIlESaIS2_EE6_S_keyEPKSt18_Rb_tree_node_base(%"struct.std::_Rb_tree_node_base"* %58), !llfi_index !1053
  %60 = load i64*, i64** %5, align 8, !llfi_index !1054
  %61 = call zeroext i1 @_ZNKSt4lessIlEclERKlS2_(%"class.std::ios_base::Init"* nonnull align 1 dereferenceable(1) %56, i64* nonnull align 8 dereferenceable(8) %59, i64* nonnull align 8 dereferenceable(8) %60), !llfi_index !1055
  br i1 %61, label %62, label %63, !llfi_index !1056

62:                                               ; preds = %53
  call void @_ZNSt4pairIPSt18_Rb_tree_node_baseS1_EC2IRPSt13_Rb_tree_nodeIS_IKllEERS1_Lb1EEEOT_OT0_(%"struct.std::pair.1"* nonnull align 8 dereferenceable(16) %3, %"struct.std::_Rb_tree_node"** nonnull align 8 dereferenceable(8) %6, %"struct.std::_Rb_tree_node_base"** nonnull align 8 dereferenceable(8) %7), !llfi_index !1057
  br label %65, !llfi_index !1058

63:                                               ; preds = %53
  %64 = getelementptr inbounds %"struct.std::_Rb_tree_const_iterator", %"struct.std::_Rb_tree_const_iterator"* %9, i32 0, i32 0, !llfi_index !1059
  store %"struct.std::_Rb_tree_node_base"* null, %"struct.std::_Rb_tree_node_base"** %11, align 8, !llfi_index !1060
  call void @_ZNSt4pairIPSt18_Rb_tree_node_baseS1_EC2IRS1_Lb1EEEOT_RKS1_(%"struct.std::pair.1"* nonnull align 8 dereferenceable(16) %3, %"struct.std::_Rb_tree_node_base"** nonnull align 8 dereferenceable(8) %64, %"struct.std::_Rb_tree_node_base"** nonnull align 8 dereferenceable(8) %11), !llfi_index !1061
  br label %65, !llfi_index !1062

65:                                               ; preds = %63, %62, %49
  %66 = bitcast %"struct.std::pair.1"* %3 to { %"struct.std::_Rb_tree_node_base"*, %"struct.std::_Rb_tree_node_base"* }*, !llfi_index !1063
  %67 = load { %"struct.std::_Rb_tree_node_base"*, %"struct.std::_Rb_tree_node_base"* }, { %"struct.std::_Rb_tree_node_base"*, %"struct.std::_Rb_tree_node_base"* }* %66, align 8, !llfi_index !1064
  ret { %"struct.std::_Rb_tree_node_base"*, %"struct.std::_Rb_tree_node_base"* } %67, !llfi_index !1065
}

; Function Attrs: mustprogress noinline nounwind uwtable
define linkonce_odr dso_local nonnull align 8 dereferenceable(8) %"struct.std::_Rb_tree_node_base"** @_ZNSt8_Rb_treeIlSt4pairIKllESt10_Select1stIS2_ESt4lessIlESaIS2_EE11_M_leftmostEv(%"class.std::_Rb_tree"* nonnull align 8 dereferenceable(48) %0) #7 comdat align 2 {
  %2 = alloca %"class.std::_Rb_tree"*, align 8, !llfi_index !1066
  store %"class.std::_Rb_tree"* %0, %"class.std::_Rb_tree"** %2, align 8, !llfi_index !1067
  %3 = load %"class.std::_Rb_tree"*, %"class.std::_Rb_tree"** %2, align 8, !llfi_index !1068
  %4 = getelementptr inbounds %"class.std::_Rb_tree", %"class.std::_Rb_tree"* %3, i32 0, i32 0, !llfi_index !1069
  %5 = bitcast %"struct.std::_Rb_tree<long, std::pair<const long, long>, std::_Select1st<std::pair<const long, long>>, std::less<long>>::_Rb_tree_impl"* %4 to i8*, !llfi_index !1070
  %6 = getelementptr inbounds i8, i8* %5, i64 8, !llfi_index !1071
  %7 = bitcast i8* %6 to %"struct.std::_Rb_tree_header"*, !llfi_index !1072
  %8 = getelementptr inbounds %"struct.std::_Rb_tree_header", %"struct.std::_Rb_tree_header"* %7, i32 0, i32 0, !llfi_index !1073
  %9 = getelementptr inbounds %"struct.std::_Rb_tree_node_base", %"struct.std::_Rb_tree_node_base"* %8, i32 0, i32 2, !llfi_index !1074
  ret %"struct.std::_Rb_tree_node_base"** %9, !llfi_index !1075
}

; Function Attrs: noinline nounwind uwtable
define linkonce_odr dso_local void @_ZNSt4pairIPSt18_Rb_tree_node_baseS1_EC2IRS1_S4_Lb1EEEOT_OT0_(%"struct.std::pair.1"* nonnull align 8 dereferenceable(16) %0, %"struct.std::_Rb_tree_node_base"** nonnull align 8 dereferenceable(8) %1, %"struct.std::_Rb_tree_node_base"** nonnull align 8 dereferenceable(8) %2) unnamed_addr #5 comdat align 2 {
  %4 = alloca %"struct.std::pair.1"*, align 8, !llfi_index !1076
  %5 = alloca %"struct.std::_Rb_tree_node_base"**, align 8, !llfi_index !1077
  %6 = alloca %"struct.std::_Rb_tree_node_base"**, align 8, !llfi_index !1078
  store %"struct.std::pair.1"* %0, %"struct.std::pair.1"** %4, align 8, !llfi_index !1079
  store %"struct.std::_Rb_tree_node_base"** %1, %"struct.std::_Rb_tree_node_base"*** %5, align 8, !llfi_index !1080
  store %"struct.std::_Rb_tree_node_base"** %2, %"struct.std::_Rb_tree_node_base"*** %6, align 8, !llfi_index !1081
  %7 = load %"struct.std::pair.1"*, %"struct.std::pair.1"** %4, align 8, !llfi_index !1082
  %8 = bitcast %"struct.std::pair.1"* %7 to %"class.std::ios_base::Init"*, !llfi_index !1083
  %9 = getelementptr inbounds %"struct.std::pair.1", %"struct.std::pair.1"* %7, i32 0, i32 0, !llfi_index !1084
  %10 = load %"struct.std::_Rb_tree_node_base"**, %"struct.std::_Rb_tree_node_base"*** %5, align 8, !llfi_index !1085
  %11 = call nonnull align 8 dereferenceable(8) %"struct.std::_Rb_tree_node_base"** @_ZSt7forwardIRPSt18_Rb_tree_node_baseEOT_RNSt16remove_referenceIS3_E4typeE(%"struct.std::_Rb_tree_node_base"** nonnull align 8 dereferenceable(8) %10) #2, !llfi_index !1086
  %12 = load %"struct.std::_Rb_tree_node_base"*, %"struct.std::_Rb_tree_node_base"** %11, align 8, !llfi_index !1087
  store %"struct.std::_Rb_tree_node_base"* %12, %"struct.std::_Rb_tree_node_base"** %9, align 8, !llfi_index !1088
  %13 = getelementptr inbounds %"struct.std::pair.1", %"struct.std::pair.1"* %7, i32 0, i32 1, !llfi_index !1089
  %14 = load %"struct.std::_Rb_tree_node_base"**, %"struct.std::_Rb_tree_node_base"*** %6, align 8, !llfi_index !1090
  %15 = call nonnull align 8 dereferenceable(8) %"struct.std::_Rb_tree_node_base"** @_ZSt7forwardIRPSt18_Rb_tree_node_baseEOT_RNSt16remove_referenceIS3_E4typeE(%"struct.std::_Rb_tree_node_base"** nonnull align 8 dereferenceable(8) %14) #2, !llfi_index !1091
  %16 = load %"struct.std::_Rb_tree_node_base"*, %"struct.std::_Rb_tree_node_base"** %15, align 8, !llfi_index !1092
  store %"struct.std::_Rb_tree_node_base"* %16, %"struct.std::_Rb_tree_node_base"** %13, align 8, !llfi_index !1093
  ret void, !llfi_index !1094
}

; Function Attrs: mustprogress noinline nounwind uwtable
define linkonce_odr dso_local nonnull align 8 dereferenceable(8) %"struct.std::_Rb_tree_const_iterator"* @_ZNSt17_Rb_tree_iteratorISt4pairIKllEEmmEv(%"struct.std::_Rb_tree_const_iterator"* nonnull align 8 dereferenceable(8) %0) #7 comdat align 2 {
  %2 = alloca %"struct.std::_Rb_tree_const_iterator"*, align 8, !llfi_index !1095
  store %"struct.std::_Rb_tree_const_iterator"* %0, %"struct.std::_Rb_tree_const_iterator"** %2, align 8, !llfi_index !1096
  %3 = load %"struct.std::_Rb_tree_const_iterator"*, %"struct.std::_Rb_tree_const_iterator"** %2, align 8, !llfi_index !1097
  %4 = getelementptr inbounds %"struct.std::_Rb_tree_const_iterator", %"struct.std::_Rb_tree_const_iterator"* %3, i32 0, i32 0, !llfi_index !1098
  %5 = load %"struct.std::_Rb_tree_node_base"*, %"struct.std::_Rb_tree_node_base"** %4, align 8, !llfi_index !1099
  %6 = call %"struct.std::_Rb_tree_node_base"* @_ZSt18_Rb_tree_decrementPSt18_Rb_tree_node_base(%"struct.std::_Rb_tree_node_base"* %5) #15, !llfi_index !1100
  %7 = getelementptr inbounds %"struct.std::_Rb_tree_const_iterator", %"struct.std::_Rb_tree_const_iterator"* %3, i32 0, i32 0, !llfi_index !1101
  store %"struct.std::_Rb_tree_node_base"* %6, %"struct.std::_Rb_tree_node_base"** %7, align 8, !llfi_index !1102
  ret %"struct.std::_Rb_tree_const_iterator"* %3, !llfi_index !1103
}

; Function Attrs: mustprogress noinline nounwind uwtable
define linkonce_odr dso_local nonnull align 8 dereferenceable(8) %"struct.std::_Rb_tree_const_iterator"* @_ZNSt17_Rb_tree_iteratorISt4pairIKllEEppEv(%"struct.std::_Rb_tree_const_iterator"* nonnull align 8 dereferenceable(8) %0) #7 comdat align 2 {
  %2 = alloca %"struct.std::_Rb_tree_const_iterator"*, align 8, !llfi_index !1104
  store %"struct.std::_Rb_tree_const_iterator"* %0, %"struct.std::_Rb_tree_const_iterator"** %2, align 8, !llfi_index !1105
  %3 = load %"struct.std::_Rb_tree_const_iterator"*, %"struct.std::_Rb_tree_const_iterator"** %2, align 8, !llfi_index !1106
  %4 = getelementptr inbounds %"struct.std::_Rb_tree_const_iterator", %"struct.std::_Rb_tree_const_iterator"* %3, i32 0, i32 0, !llfi_index !1107
  %5 = load %"struct.std::_Rb_tree_node_base"*, %"struct.std::_Rb_tree_node_base"** %4, align 8, !llfi_index !1108
  %6 = call %"struct.std::_Rb_tree_node_base"* @_ZSt18_Rb_tree_incrementPSt18_Rb_tree_node_base(%"struct.std::_Rb_tree_node_base"* %5) #15, !llfi_index !1109
  %7 = getelementptr inbounds %"struct.std::_Rb_tree_const_iterator", %"struct.std::_Rb_tree_const_iterator"* %3, i32 0, i32 0, !llfi_index !1110
  store %"struct.std::_Rb_tree_node_base"* %6, %"struct.std::_Rb_tree_node_base"** %7, align 8, !llfi_index !1111
  ret %"struct.std::_Rb_tree_const_iterator"* %3, !llfi_index !1112
}

; Function Attrs: noinline nounwind uwtable
define linkonce_odr dso_local void @_ZNSt4pairIPSt18_Rb_tree_node_baseS1_EC2IRS1_Lb1EEEOT_RKS1_(%"struct.std::pair.1"* nonnull align 8 dereferenceable(16) %0, %"struct.std::_Rb_tree_node_base"** nonnull align 8 dereferenceable(8) %1, %"struct.std::_Rb_tree_node_base"** nonnull align 8 dereferenceable(8) %2) unnamed_addr #5 comdat align 2 {
  %4 = alloca %"struct.std::pair.1"*, align 8, !llfi_index !1113
  %5 = alloca %"struct.std::_Rb_tree_node_base"**, align 8, !llfi_index !1114
  %6 = alloca %"struct.std::_Rb_tree_node_base"**, align 8, !llfi_index !1115
  store %"struct.std::pair.1"* %0, %"struct.std::pair.1"** %4, align 8, !llfi_index !1116
  store %"struct.std::_Rb_tree_node_base"** %1, %"struct.std::_Rb_tree_node_base"*** %5, align 8, !llfi_index !1117
  store %"struct.std::_Rb_tree_node_base"** %2, %"struct.std::_Rb_tree_node_base"*** %6, align 8, !llfi_index !1118
  %7 = load %"struct.std::pair.1"*, %"struct.std::pair.1"** %4, align 8, !llfi_index !1119
  %8 = bitcast %"struct.std::pair.1"* %7 to %"class.std::ios_base::Init"*, !llfi_index !1120
  %9 = getelementptr inbounds %"struct.std::pair.1", %"struct.std::pair.1"* %7, i32 0, i32 0, !llfi_index !1121
  %10 = load %"struct.std::_Rb_tree_node_base"**, %"struct.std::_Rb_tree_node_base"*** %5, align 8, !llfi_index !1122
  %11 = call nonnull align 8 dereferenceable(8) %"struct.std::_Rb_tree_node_base"** @_ZSt7forwardIRPSt18_Rb_tree_node_baseEOT_RNSt16remove_referenceIS3_E4typeE(%"struct.std::_Rb_tree_node_base"** nonnull align 8 dereferenceable(8) %10) #2, !llfi_index !1123
  %12 = load %"struct.std::_Rb_tree_node_base"*, %"struct.std::_Rb_tree_node_base"** %11, align 8, !llfi_index !1124
  store %"struct.std::_Rb_tree_node_base"* %12, %"struct.std::_Rb_tree_node_base"** %9, align 8, !llfi_index !1125
  %13 = getelementptr inbounds %"struct.std::pair.1", %"struct.std::pair.1"* %7, i32 0, i32 1, !llfi_index !1126
  %14 = load %"struct.std::_Rb_tree_node_base"**, %"struct.std::_Rb_tree_node_base"*** %6, align 8, !llfi_index !1127
  %15 = load %"struct.std::_Rb_tree_node_base"*, %"struct.std::_Rb_tree_node_base"** %14, align 8, !llfi_index !1128
  store %"struct.std::_Rb_tree_node_base"* %15, %"struct.std::_Rb_tree_node_base"** %13, align 8, !llfi_index !1129
  ret void, !llfi_index !1130
}

; Function Attrs: mustprogress noinline nounwind uwtable
define linkonce_odr dso_local nonnull align 8 dereferenceable(8) %"struct.std::_Rb_tree_node_base"** @_ZSt7forwardIRPSt18_Rb_tree_node_baseEOT_RNSt16remove_referenceIS3_E4typeE(%"struct.std::_Rb_tree_node_base"** nonnull align 8 dereferenceable(8) %0) #7 comdat {
  %2 = alloca %"struct.std::_Rb_tree_node_base"**, align 8, !llfi_index !1131
  store %"struct.std::_Rb_tree_node_base"** %0, %"struct.std::_Rb_tree_node_base"*** %2, align 8, !llfi_index !1132
  %3 = load %"struct.std::_Rb_tree_node_base"**, %"struct.std::_Rb_tree_node_base"*** %2, align 8, !llfi_index !1133
  ret %"struct.std::_Rb_tree_node_base"** %3, !llfi_index !1134
}

; Function Attrs: nounwind readonly willreturn
declare dso_local %"struct.std::_Rb_tree_node_base"* @_ZSt18_Rb_tree_incrementPSt18_Rb_tree_node_base(%"struct.std::_Rb_tree_node_base"*) #9

; Function Attrs: nounwind readonly willreturn
declare dso_local %"struct.std::_Rb_tree_node_base"* @_ZSt18_Rb_tree_decrementPSt18_Rb_tree_node_base(%"struct.std::_Rb_tree_node_base"*) #9

; Function Attrs: noinline nounwind uwtable
define linkonce_odr dso_local void @_ZNSt4pairIPSt18_Rb_tree_node_baseS1_EC2IRPSt13_Rb_tree_nodeIS_IKllEERS1_Lb1EEEOT_OT0_(%"struct.std::pair.1"* nonnull align 8 dereferenceable(16) %0, %"struct.std::_Rb_tree_node"** nonnull align 8 dereferenceable(8) %1, %"struct.std::_Rb_tree_node_base"** nonnull align 8 dereferenceable(8) %2) unnamed_addr #5 comdat align 2 {
  %4 = alloca %"struct.std::pair.1"*, align 8, !llfi_index !1135
  %5 = alloca %"struct.std::_Rb_tree_node"**, align 8, !llfi_index !1136
  %6 = alloca %"struct.std::_Rb_tree_node_base"**, align 8, !llfi_index !1137
  store %"struct.std::pair.1"* %0, %"struct.std::pair.1"** %4, align 8, !llfi_index !1138
  store %"struct.std::_Rb_tree_node"** %1, %"struct.std::_Rb_tree_node"*** %5, align 8, !llfi_index !1139
  store %"struct.std::_Rb_tree_node_base"** %2, %"struct.std::_Rb_tree_node_base"*** %6, align 8, !llfi_index !1140
  %7 = load %"struct.std::pair.1"*, %"struct.std::pair.1"** %4, align 8, !llfi_index !1141
  %8 = bitcast %"struct.std::pair.1"* %7 to %"class.std::ios_base::Init"*, !llfi_index !1142
  %9 = getelementptr inbounds %"struct.std::pair.1", %"struct.std::pair.1"* %7, i32 0, i32 0, !llfi_index !1143
  %10 = load %"struct.std::_Rb_tree_node"**, %"struct.std::_Rb_tree_node"*** %5, align 8, !llfi_index !1144
  %11 = call nonnull align 8 dereferenceable(8) %"struct.std::_Rb_tree_node"** @_ZSt7forwardIRPSt13_Rb_tree_nodeISt4pairIKllEEEOT_RNSt16remove_referenceIS7_E4typeE(%"struct.std::_Rb_tree_node"** nonnull align 8 dereferenceable(8) %10) #2, !llfi_index !1145
  %12 = load %"struct.std::_Rb_tree_node"*, %"struct.std::_Rb_tree_node"** %11, align 8, !llfi_index !1146
  %13 = bitcast %"struct.std::_Rb_tree_node"* %12 to %"struct.std::_Rb_tree_node_base"*, !llfi_index !1147
  store %"struct.std::_Rb_tree_node_base"* %13, %"struct.std::_Rb_tree_node_base"** %9, align 8, !llfi_index !1148
  %14 = getelementptr inbounds %"struct.std::pair.1", %"struct.std::pair.1"* %7, i32 0, i32 1, !llfi_index !1149
  %15 = load %"struct.std::_Rb_tree_node_base"**, %"struct.std::_Rb_tree_node_base"*** %6, align 8, !llfi_index !1150
  %16 = call nonnull align 8 dereferenceable(8) %"struct.std::_Rb_tree_node_base"** @_ZSt7forwardIRPSt18_Rb_tree_node_baseEOT_RNSt16remove_referenceIS3_E4typeE(%"struct.std::_Rb_tree_node_base"** nonnull align 8 dereferenceable(8) %15) #2, !llfi_index !1151
  %17 = load %"struct.std::_Rb_tree_node_base"*, %"struct.std::_Rb_tree_node_base"** %16, align 8, !llfi_index !1152
  store %"struct.std::_Rb_tree_node_base"* %17, %"struct.std::_Rb_tree_node_base"** %14, align 8, !llfi_index !1153
  ret void, !llfi_index !1154
}

; Function Attrs: mustprogress noinline nounwind uwtable
define linkonce_odr dso_local nonnull align 8 dereferenceable(8) %"struct.std::_Rb_tree_node"** @_ZSt7forwardIRPSt13_Rb_tree_nodeISt4pairIKllEEEOT_RNSt16remove_referenceIS7_E4typeE(%"struct.std::_Rb_tree_node"** nonnull align 8 dereferenceable(8) %0) #7 comdat {
  %2 = alloca %"struct.std::_Rb_tree_node"**, align 8, !llfi_index !1155
  store %"struct.std::_Rb_tree_node"** %0, %"struct.std::_Rb_tree_node"*** %2, align 8, !llfi_index !1156
  %3 = load %"struct.std::_Rb_tree_node"**, %"struct.std::_Rb_tree_node"*** %2, align 8, !llfi_index !1157
  ret %"struct.std::_Rb_tree_node"** %3, !llfi_index !1158
}

; Function Attrs: mustprogress noinline nounwind uwtable
define linkonce_odr dso_local nonnull align 8 dereferenceable(8) i64* @_ZNKSt10_Select1stISt4pairIKllEEclERKS2_(%"class.std::ios_base::Init"* nonnull align 1 dereferenceable(1) %0, %"struct.std::pair"* nonnull align 8 dereferenceable(16) %1) #7 comdat align 2 {
  %3 = alloca %"class.std::ios_base::Init"*, align 8, !llfi_index !1159
  %4 = alloca %"struct.std::pair"*, align 8, !llfi_index !1160
  store %"class.std::ios_base::Init"* %0, %"class.std::ios_base::Init"** %3, align 8, !llfi_index !1161
  store %"struct.std::pair"* %1, %"struct.std::pair"** %4, align 8, !llfi_index !1162
  %5 = load %"class.std::ios_base::Init"*, %"class.std::ios_base::Init"** %3, align 8, !llfi_index !1163
  %6 = load %"struct.std::pair"*, %"struct.std::pair"** %4, align 8, !llfi_index !1164
  %7 = getelementptr inbounds %"struct.std::pair", %"struct.std::pair"* %6, i32 0, i32 0, !llfi_index !1165
  ret i64* %7, !llfi_index !1166
}

; Function Attrs: mustprogress noinline uwtable
define linkonce_odr dso_local %"struct.std::_Rb_tree_node"* @_ZNSt8_Rb_treeIlSt4pairIKllESt10_Select1stIS2_ESt4lessIlESaIS2_EE11_M_get_nodeEv(%"class.std::_Rb_tree"* nonnull align 8 dereferenceable(48) %0) #6 comdat align 2 {
  %2 = alloca %"class.std::_Rb_tree"*, align 8, !llfi_index !1167
  store %"class.std::_Rb_tree"* %0, %"class.std::_Rb_tree"** %2, align 8, !llfi_index !1168
  %3 = load %"class.std::_Rb_tree"*, %"class.std::_Rb_tree"** %2, align 8, !llfi_index !1169
  %4 = call nonnull align 1 dereferenceable(1) %"class.std::ios_base::Init"* @_ZNSt8_Rb_treeIlSt4pairIKllESt10_Select1stIS2_ESt4lessIlESaIS2_EE21_M_get_Node_allocatorEv(%"class.std::_Rb_tree"* nonnull align 8 dereferenceable(48) %3) #2, !llfi_index !1170
  %5 = call %"struct.std::_Rb_tree_node"* @_ZNSt16allocator_traitsISaISt13_Rb_tree_nodeISt4pairIKllEEEE8allocateERS5_m(%"class.std::ios_base::Init"* nonnull align 1 dereferenceable(1) %4, i64 1), !llfi_index !1171
  ret %"struct.std::_Rb_tree_node"* %5, !llfi_index !1172
}

; Function Attrs: mustprogress noinline uwtable
define linkonce_odr dso_local void @_ZNSt8_Rb_treeIlSt4pairIKllESt10_Select1stIS2_ESt4lessIlESaIS2_EE17_M_construct_nodeIJRKSt21piecewise_construct_tSt5tupleIJRS1_EESD_IJEEEEEvPSt13_Rb_tree_nodeIS2_EDpOT_(%"class.std::_Rb_tree"* nonnull align 8 dereferenceable(48) %0, %"struct.std::_Rb_tree_node"* %1, %"class.std::ios_base::Init"* nonnull align 1 dereferenceable(1) %2, %"class.std::tuple"* nonnull align 8 dereferenceable(8) %3, %"class.std::ios_base::Init"* nonnull align 1 dereferenceable(1) %4) #6 comdat align 2 personality i8* bitcast (i32 (...)* @__gxx_personality_v0 to i8*) {
  %6 = alloca %"class.std::_Rb_tree"*, align 8, !llfi_index !1173
  %7 = alloca %"struct.std::_Rb_tree_node"*, align 8, !llfi_index !1174
  %8 = alloca %"class.std::ios_base::Init"*, align 8, !llfi_index !1175
  %9 = alloca %"class.std::tuple"*, align 8, !llfi_index !1176
  %10 = alloca %"class.std::ios_base::Init"*, align 8, !llfi_index !1177
  %11 = alloca i8*, align 8, !llfi_index !1178
  %12 = alloca i32, align 4, !llfi_index !1179
  store %"class.std::_Rb_tree"* %0, %"class.std::_Rb_tree"** %6, align 8, !llfi_index !1180
  store %"struct.std::_Rb_tree_node"* %1, %"struct.std::_Rb_tree_node"** %7, align 8, !llfi_index !1181
  store %"class.std::ios_base::Init"* %2, %"class.std::ios_base::Init"** %8, align 8, !llfi_index !1182
  store %"class.std::tuple"* %3, %"class.std::tuple"** %9, align 8, !llfi_index !1183
  store %"class.std::ios_base::Init"* %4, %"class.std::ios_base::Init"** %10, align 8, !llfi_index !1184
  %13 = load %"class.std::_Rb_tree"*, %"class.std::_Rb_tree"** %6, align 8, !llfi_index !1185
  %14 = load %"struct.std::_Rb_tree_node"*, %"struct.std::_Rb_tree_node"** %7, align 8, !llfi_index !1186
  %15 = bitcast %"struct.std::_Rb_tree_node"* %14 to i8*, !llfi_index !1187
  %16 = bitcast i8* %15 to %"struct.std::_Rb_tree_node"*, !llfi_index !1188
  %17 = call nonnull align 1 dereferenceable(1) %"class.std::ios_base::Init"* @_ZNSt8_Rb_treeIlSt4pairIKllESt10_Select1stIS2_ESt4lessIlESaIS2_EE21_M_get_Node_allocatorEv(%"class.std::_Rb_tree"* nonnull align 8 dereferenceable(48) %13) #2, !llfi_index !1189
  %18 = load %"struct.std::_Rb_tree_node"*, %"struct.std::_Rb_tree_node"** %7, align 8, !llfi_index !1190
  %19 = call %"struct.std::pair"* @_ZNSt13_Rb_tree_nodeISt4pairIKllEE9_M_valptrEv(%"struct.std::_Rb_tree_node"* nonnull align 8 dereferenceable(48) %18), !llfi_index !1191
  %20 = load %"class.std::ios_base::Init"*, %"class.std::ios_base::Init"** %8, align 8, !llfi_index !1192
  %21 = call nonnull align 1 dereferenceable(1) %"class.std::ios_base::Init"* @_ZSt7forwardIRKSt21piecewise_construct_tEOT_RNSt16remove_referenceIS3_E4typeE(%"class.std::ios_base::Init"* nonnull align 1 dereferenceable(1) %20) #2, !llfi_index !1193
  %22 = load %"class.std::tuple"*, %"class.std::tuple"** %9, align 8, !llfi_index !1194
  %23 = call nonnull align 8 dereferenceable(8) %"class.std::tuple"* @_ZSt7forwardISt5tupleIJRKlEEEOT_RNSt16remove_referenceIS4_E4typeE(%"class.std::tuple"* nonnull align 8 dereferenceable(8) %22) #2, !llfi_index !1195
  %24 = load %"class.std::ios_base::Init"*, %"class.std::ios_base::Init"** %10, align 8, !llfi_index !1196
  %25 = call nonnull align 1 dereferenceable(1) %"class.std::ios_base::Init"* @_ZSt7forwardISt5tupleIJEEEOT_RNSt16remove_referenceIS2_E4typeE(%"class.std::ios_base::Init"* nonnull align 1 dereferenceable(1) %24) #2, !llfi_index !1197
  invoke void @_ZNSt16allocator_traitsISaISt13_Rb_tree_nodeISt4pairIKllEEEE9constructIS3_JRKSt21piecewise_construct_tSt5tupleIJRS2_EESB_IJEEEEEvRS5_PT_DpOT0_(%"class.std::ios_base::Init"* nonnull align 1 dereferenceable(1) %17, %"struct.std::pair"* %19, %"class.std::ios_base::Init"* nonnull align 1 dereferenceable(1) %21, %"class.std::tuple"* nonnull align 8 dereferenceable(8) %23, %"class.std::ios_base::Init"* nonnull align 1 dereferenceable(1) %25)
          to label %26 unwind label %27, !llfi_index !1198

26:                                               ; preds = %5
  br label %41, !llfi_index !1199

27:                                               ; preds = %5
  %28 = landingpad { i8*, i32 }
          catch i8* null, !llfi_index !1200
  %29 = extractvalue { i8*, i32 } %28, 0, !llfi_index !1201
  store i8* %29, i8** %11, align 8, !llfi_index !1202
  %30 = extractvalue { i8*, i32 } %28, 1, !llfi_index !1203
  store i32 %30, i32* %12, align 4, !llfi_index !1204
  br label %31, !llfi_index !1205

31:                                               ; preds = %27
  %32 = load i8*, i8** %11, align 8, !llfi_index !1206
  %33 = call i8* @__cxa_begin_catch(i8* %32) #2, !llfi_index !1207
  %34 = load %"struct.std::_Rb_tree_node"*, %"struct.std::_Rb_tree_node"** %7, align 8, !llfi_index !1208
  %35 = load %"struct.std::_Rb_tree_node"*, %"struct.std::_Rb_tree_node"** %7, align 8, !llfi_index !1209
  call void @_ZNSt8_Rb_treeIlSt4pairIKllESt10_Select1stIS2_ESt4lessIlESaIS2_EE11_M_put_nodeEPSt13_Rb_tree_nodeIS2_E(%"class.std::_Rb_tree"* nonnull align 8 dereferenceable(48) %13, %"struct.std::_Rb_tree_node"* %35) #2, !llfi_index !1210
  invoke void @__cxa_rethrow() #17
          to label %50 unwind label %36, !llfi_index !1211

36:                                               ; preds = %31
  %37 = landingpad { i8*, i32 }
          cleanup, !llfi_index !1212
  %38 = extractvalue { i8*, i32 } %37, 0, !llfi_index !1213
  store i8* %38, i8** %11, align 8, !llfi_index !1214
  %39 = extractvalue { i8*, i32 } %37, 1, !llfi_index !1215
  store i32 %39, i32* %12, align 4, !llfi_index !1216
  invoke void @__cxa_end_catch()
          to label %40 unwind label %47, !llfi_index !1217

40:                                               ; preds = %36
  br label %42, !llfi_index !1218

41:                                               ; preds = %26
  ret void, !llfi_index !1219

42:                                               ; preds = %40
  %43 = load i8*, i8** %11, align 8, !llfi_index !1220
  %44 = load i32, i32* %12, align 4, !llfi_index !1221
  %45 = insertvalue { i8*, i32 } undef, i8* %43, 0, !llfi_index !1222
  %46 = insertvalue { i8*, i32 } %45, i32 %44, 1, !llfi_index !1223
  resume { i8*, i32 } %46, !llfi_index !1224

47:                                               ; preds = %36
  %48 = landingpad { i8*, i32 }
          catch i8* null, !llfi_index !1225
  %49 = extractvalue { i8*, i32 } %48, 0, !llfi_index !1226
  call void @__clang_call_terminate(i8* %49) #16, !llfi_index !1227
  unreachable, !llfi_index !1228

50:                                               ; preds = %31
  unreachable, !llfi_index !1229
}

; Function Attrs: mustprogress noinline uwtable
define linkonce_odr dso_local void @_ZNSt16allocator_traitsISaISt13_Rb_tree_nodeISt4pairIKllEEEE9constructIS3_JRKSt21piecewise_construct_tSt5tupleIJRS2_EESB_IJEEEEEvRS5_PT_DpOT0_(%"class.std::ios_base::Init"* nonnull align 1 dereferenceable(1) %0, %"struct.std::pair"* %1, %"class.std::ios_base::Init"* nonnull align 1 dereferenceable(1) %2, %"class.std::tuple"* nonnull align 8 dereferenceable(8) %3, %"class.std::ios_base::Init"* nonnull align 1 dereferenceable(1) %4) #6 comdat align 2 {
  %6 = alloca %"class.std::ios_base::Init"*, align 8, !llfi_index !1230
  %7 = alloca %"struct.std::pair"*, align 8, !llfi_index !1231
  %8 = alloca %"class.std::ios_base::Init"*, align 8, !llfi_index !1232
  %9 = alloca %"class.std::tuple"*, align 8, !llfi_index !1233
  %10 = alloca %"class.std::ios_base::Init"*, align 8, !llfi_index !1234
  store %"class.std::ios_base::Init"* %0, %"class.std::ios_base::Init"** %6, align 8, !llfi_index !1235
  store %"struct.std::pair"* %1, %"struct.std::pair"** %7, align 8, !llfi_index !1236
  store %"class.std::ios_base::Init"* %2, %"class.std::ios_base::Init"** %8, align 8, !llfi_index !1237
  store %"class.std::tuple"* %3, %"class.std::tuple"** %9, align 8, !llfi_index !1238
  store %"class.std::ios_base::Init"* %4, %"class.std::ios_base::Init"** %10, align 8, !llfi_index !1239
  %11 = load %"class.std::ios_base::Init"*, %"class.std::ios_base::Init"** %6, align 8, !llfi_index !1240
  %12 = bitcast %"class.std::ios_base::Init"* %11 to %"class.std::ios_base::Init"*, !llfi_index !1241
  %13 = load %"struct.std::pair"*, %"struct.std::pair"** %7, align 8, !llfi_index !1242
  %14 = load %"class.std::ios_base::Init"*, %"class.std::ios_base::Init"** %8, align 8, !llfi_index !1243
  %15 = call nonnull align 1 dereferenceable(1) %"class.std::ios_base::Init"* @_ZSt7forwardIRKSt21piecewise_construct_tEOT_RNSt16remove_referenceIS3_E4typeE(%"class.std::ios_base::Init"* nonnull align 1 dereferenceable(1) %14) #2, !llfi_index !1244
  %16 = load %"class.std::tuple"*, %"class.std::tuple"** %9, align 8, !llfi_index !1245
  %17 = call nonnull align 8 dereferenceable(8) %"class.std::tuple"* @_ZSt7forwardISt5tupleIJRKlEEEOT_RNSt16remove_referenceIS4_E4typeE(%"class.std::tuple"* nonnull align 8 dereferenceable(8) %16) #2, !llfi_index !1246
  %18 = load %"class.std::ios_base::Init"*, %"class.std::ios_base::Init"** %10, align 8, !llfi_index !1247
  %19 = call nonnull align 1 dereferenceable(1) %"class.std::ios_base::Init"* @_ZSt7forwardISt5tupleIJEEEOT_RNSt16remove_referenceIS2_E4typeE(%"class.std::ios_base::Init"* nonnull align 1 dereferenceable(1) %18) #2, !llfi_index !1248
  call void @_ZN9__gnu_cxx13new_allocatorISt13_Rb_tree_nodeISt4pairIKllEEE9constructIS4_JRKSt21piecewise_construct_tSt5tupleIJRS3_EESB_IJEEEEEvPT_DpOT0_(%"class.std::ios_base::Init"* nonnull align 1 dereferenceable(1) %12, %"struct.std::pair"* %13, %"class.std::ios_base::Init"* nonnull align 1 dereferenceable(1) %15, %"class.std::tuple"* nonnull align 8 dereferenceable(8) %17, %"class.std::ios_base::Init"* nonnull align 1 dereferenceable(1) %19), !llfi_index !1249
  ret void, !llfi_index !1250
}

; Function Attrs: mustprogress noinline uwtable
define linkonce_odr dso_local void @_ZN9__gnu_cxx13new_allocatorISt13_Rb_tree_nodeISt4pairIKllEEE9constructIS4_JRKSt21piecewise_construct_tSt5tupleIJRS3_EESB_IJEEEEEvPT_DpOT0_(%"class.std::ios_base::Init"* nonnull align 1 dereferenceable(1) %0, %"struct.std::pair"* %1, %"class.std::ios_base::Init"* nonnull align 1 dereferenceable(1) %2, %"class.std::tuple"* nonnull align 8 dereferenceable(8) %3, %"class.std::ios_base::Init"* nonnull align 1 dereferenceable(1) %4) #6 comdat align 2 {
  %6 = alloca %"class.std::ios_base::Init"*, align 8, !llfi_index !1251
  %7 = alloca %"struct.std::pair"*, align 8, !llfi_index !1252
  %8 = alloca %"class.std::ios_base::Init"*, align 8, !llfi_index !1253
  %9 = alloca %"class.std::tuple"*, align 8, !llfi_index !1254
  %10 = alloca %"class.std::ios_base::Init"*, align 8, !llfi_index !1255
  %11 = alloca %"class.std::ios_base::Init", align 1, !llfi_index !1256
  %12 = alloca %"class.std::tuple", align 8, !llfi_index !1257
  %13 = alloca %"class.std::ios_base::Init", align 1, !llfi_index !1258
  store %"class.std::ios_base::Init"* %0, %"class.std::ios_base::Init"** %6, align 8, !llfi_index !1259
  store %"struct.std::pair"* %1, %"struct.std::pair"** %7, align 8, !llfi_index !1260
  store %"class.std::ios_base::Init"* %2, %"class.std::ios_base::Init"** %8, align 8, !llfi_index !1261
  store %"class.std::tuple"* %3, %"class.std::tuple"** %9, align 8, !llfi_index !1262
  store %"class.std::ios_base::Init"* %4, %"class.std::ios_base::Init"** %10, align 8, !llfi_index !1263
  %14 = load %"class.std::ios_base::Init"*, %"class.std::ios_base::Init"** %6, align 8, !llfi_index !1264
  %15 = load %"struct.std::pair"*, %"struct.std::pair"** %7, align 8, !llfi_index !1265
  %16 = bitcast %"struct.std::pair"* %15 to i8*, !llfi_index !1266
  %17 = bitcast i8* %16 to %"struct.std::pair"*, !llfi_index !1267
  %18 = load %"class.std::ios_base::Init"*, %"class.std::ios_base::Init"** %8, align 8, !llfi_index !1268
  %19 = call nonnull align 1 dereferenceable(1) %"class.std::ios_base::Init"* @_ZSt7forwardIRKSt21piecewise_construct_tEOT_RNSt16remove_referenceIS3_E4typeE(%"class.std::ios_base::Init"* nonnull align 1 dereferenceable(1) %18) #2, !llfi_index !1269
  %20 = load %"class.std::tuple"*, %"class.std::tuple"** %9, align 8, !llfi_index !1270
  %21 = call nonnull align 8 dereferenceable(8) %"class.std::tuple"* @_ZSt7forwardISt5tupleIJRKlEEEOT_RNSt16remove_referenceIS4_E4typeE(%"class.std::tuple"* nonnull align 8 dereferenceable(8) %20) #2, !llfi_index !1271
  call void @_ZNSt5tupleIJRKlEEC2EOS2_(%"class.std::tuple"* nonnull align 8 dereferenceable(8) %12, %"class.std::tuple"* nonnull align 8 dereferenceable(8) %21) #2, !llfi_index !1272
  %22 = load %"class.std::ios_base::Init"*, %"class.std::ios_base::Init"** %10, align 8, !llfi_index !1273
  %23 = call nonnull align 1 dereferenceable(1) %"class.std::ios_base::Init"* @_ZSt7forwardISt5tupleIJEEEOT_RNSt16remove_referenceIS2_E4typeE(%"class.std::ios_base::Init"* nonnull align 1 dereferenceable(1) %22) #2, !llfi_index !1274
  call void @_ZNSt4pairIKllEC2IJRS0_EJEEESt21piecewise_construct_tSt5tupleIJDpT_EES5_IJDpT0_EE(%"struct.std::pair"* nonnull align 8 dereferenceable(16) %17, %"class.std::tuple"* %12), !llfi_index !1275
  ret void, !llfi_index !1276
}

; Function Attrs: noinline nounwind uwtable
define linkonce_odr dso_local void @_ZNSt5tupleIJRKlEEC2EOS2_(%"class.std::tuple"* nonnull align 8 dereferenceable(8) %0, %"class.std::tuple"* nonnull align 8 dereferenceable(8) %1) unnamed_addr #5 comdat align 2 {
  %3 = alloca %"class.std::tuple"*, align 8, !llfi_index !1277
  %4 = alloca %"class.std::tuple"*, align 8, !llfi_index !1278
  store %"class.std::tuple"* %0, %"class.std::tuple"** %3, align 8, !llfi_index !1279
  store %"class.std::tuple"* %1, %"class.std::tuple"** %4, align 8, !llfi_index !1280
  %5 = load %"class.std::tuple"*, %"class.std::tuple"** %3, align 8, !llfi_index !1281
  %6 = bitcast %"class.std::tuple"* %5 to %"struct.std::_Tuple_impl"*, !llfi_index !1282
  %7 = load %"class.std::tuple"*, %"class.std::tuple"** %4, align 8, !llfi_index !1283
  %8 = bitcast %"class.std::tuple"* %7 to %"struct.std::_Tuple_impl"*, !llfi_index !1284
  call void @_ZNSt11_Tuple_implILm0EJRKlEEC2EOS2_(%"struct.std::_Tuple_impl"* nonnull align 8 dereferenceable(8) %6, %"struct.std::_Tuple_impl"* nonnull align 8 dereferenceable(8) %8) #2, !llfi_index !1285
  ret void, !llfi_index !1286
}

; Function Attrs: noinline uwtable
define linkonce_odr dso_local void @_ZNSt4pairIKllEC2IJRS0_EJEEESt21piecewise_construct_tSt5tupleIJDpT_EES5_IJDpT0_EE(%"struct.std::pair"* nonnull align 8 dereferenceable(16) %0, %"class.std::tuple"* %1) unnamed_addr #0 comdat align 2 {
  %3 = alloca %"class.std::ios_base::Init", align 1, !llfi_index !1287
  %4 = alloca %"class.std::ios_base::Init", align 1, !llfi_index !1288
  %5 = alloca %"struct.std::pair"*, align 8, !llfi_index !1289
  %6 = alloca %"class.std::ios_base::Init", align 1, !llfi_index !1290
  %7 = alloca %"class.std::ios_base::Init", align 1, !llfi_index !1291
  store %"struct.std::pair"* %0, %"struct.std::pair"** %5, align 8, !llfi_index !1292
  %8 = load %"struct.std::pair"*, %"struct.std::pair"** %5, align 8, !llfi_index !1293
  call void @_ZNSt4pairIKllEC2IJRS0_EJLm0EEJEJEEERSt5tupleIJDpT_EERS4_IJDpT1_EESt12_Index_tupleIJXspT0_EEESD_IJXspT2_EEE(%"struct.std::pair"* nonnull align 8 dereferenceable(16) %8, %"class.std::tuple"* nonnull align 8 dereferenceable(8) %1, %"class.std::ios_base::Init"* nonnull align 1 dereferenceable(1) %4), !llfi_index !1294
  ret void, !llfi_index !1295
}

; Function Attrs: noinline nounwind uwtable
define linkonce_odr dso_local void @_ZNSt4pairIKllEC2IJRS0_EJLm0EEJEJEEERSt5tupleIJDpT_EERS4_IJDpT1_EESt12_Index_tupleIJXspT0_EEESD_IJXspT2_EEE(%"struct.std::pair"* nonnull align 8 dereferenceable(16) %0, %"class.std::tuple"* nonnull align 8 dereferenceable(8) %1, %"class.std::ios_base::Init"* nonnull align 1 dereferenceable(1) %2) unnamed_addr #5 comdat align 2 {
  %4 = alloca %"class.std::ios_base::Init", align 1, !llfi_index !1296
  %5 = alloca %"class.std::ios_base::Init", align 1, !llfi_index !1297
  %6 = alloca %"struct.std::pair"*, align 8, !llfi_index !1298
  %7 = alloca %"class.std::tuple"*, align 8, !llfi_index !1299
  %8 = alloca %"class.std::ios_base::Init"*, align 8, !llfi_index !1300
  store %"struct.std::pair"* %0, %"struct.std::pair"** %6, align 8, !llfi_index !1301
  store %"class.std::tuple"* %1, %"class.std::tuple"** %7, align 8, !llfi_index !1302
  store %"class.std::ios_base::Init"* %2, %"class.std::ios_base::Init"** %8, align 8, !llfi_index !1303
  %9 = load %"struct.std::pair"*, %"struct.std::pair"** %6, align 8, !llfi_index !1304
  %10 = bitcast %"struct.std::pair"* %9 to %"class.std::ios_base::Init"*, !llfi_index !1305
  %11 = getelementptr inbounds %"struct.std::pair", %"struct.std::pair"* %9, i32 0, i32 0, !llfi_index !1306
  %12 = load %"class.std::tuple"*, %"class.std::tuple"** %7, align 8, !llfi_index !1307
  %13 = call nonnull align 8 dereferenceable(8) i64* @_ZSt3getILm0EJRKlEERNSt13tuple_elementIXT_ESt5tupleIJDpT0_EEE4typeERS6_(%"class.std::tuple"* nonnull align 8 dereferenceable(8) %12) #2, !llfi_index !1308
  %14 = call nonnull align 8 dereferenceable(8) i64* @_ZSt7forwardIRKlEOT_RNSt16remove_referenceIS2_E4typeE(i64* nonnull align 8 dereferenceable(8) %13) #2, !llfi_index !1309
  %15 = load i64, i64* %14, align 8, !llfi_index !1310
  store i64 %15, i64* %11, align 8, !llfi_index !1311
  %16 = getelementptr inbounds %"struct.std::pair", %"struct.std::pair"* %9, i32 0, i32 1, !llfi_index !1312
  store i64 0, i64* %16, align 8, !llfi_index !1313
  ret void, !llfi_index !1314
}

; Function Attrs: mustprogress noinline nounwind uwtable
define linkonce_odr dso_local nonnull align 8 dereferenceable(8) i64* @_ZSt3getILm0EJRKlEERNSt13tuple_elementIXT_ESt5tupleIJDpT0_EEE4typeERS6_(%"class.std::tuple"* nonnull align 8 dereferenceable(8) %0) #7 comdat {
  %2 = alloca %"class.std::tuple"*, align 8, !llfi_index !1315
  store %"class.std::tuple"* %0, %"class.std::tuple"** %2, align 8, !llfi_index !1316
  %3 = load %"class.std::tuple"*, %"class.std::tuple"** %2, align 8, !llfi_index !1317
  %4 = bitcast %"class.std::tuple"* %3 to %"struct.std::_Tuple_impl"*, !llfi_index !1318
  %5 = call nonnull align 8 dereferenceable(8) i64* @_ZSt12__get_helperILm0ERKlJEERT0_RSt11_Tuple_implIXT_EJS2_DpT1_EE(%"struct.std::_Tuple_impl"* nonnull align 8 dereferenceable(8) %4) #2, !llfi_index !1319
  ret i64* %5, !llfi_index !1320
}

; Function Attrs: mustprogress noinline nounwind uwtable
define linkonce_odr dso_local nonnull align 8 dereferenceable(8) i64* @_ZSt7forwardIRKlEOT_RNSt16remove_referenceIS2_E4typeE(i64* nonnull align 8 dereferenceable(8) %0) #7 comdat {
  %2 = alloca i64*, align 8, !llfi_index !1321
  store i64* %0, i64** %2, align 8, !llfi_index !1322
  %3 = load i64*, i64** %2, align 8, !llfi_index !1323
  ret i64* %3, !llfi_index !1324
}

; Function Attrs: mustprogress noinline nounwind uwtable
define linkonce_odr dso_local nonnull align 8 dereferenceable(8) i64* @_ZSt12__get_helperILm0ERKlJEERT0_RSt11_Tuple_implIXT_EJS2_DpT1_EE(%"struct.std::_Tuple_impl"* nonnull align 8 dereferenceable(8) %0) #7 comdat {
  %2 = alloca %"struct.std::_Tuple_impl"*, align 8, !llfi_index !1325
  store %"struct.std::_Tuple_impl"* %0, %"struct.std::_Tuple_impl"** %2, align 8, !llfi_index !1326
  %3 = load %"struct.std::_Tuple_impl"*, %"struct.std::_Tuple_impl"** %2, align 8, !llfi_index !1327
  %4 = call nonnull align 8 dereferenceable(8) i64* @_ZNSt11_Tuple_implILm0EJRKlEE7_M_headERS2_(%"struct.std::_Tuple_impl"* nonnull align 8 dereferenceable(8) %3) #2, !llfi_index !1328
  ret i64* %4, !llfi_index !1329
}

; Function Attrs: mustprogress noinline nounwind uwtable
define linkonce_odr dso_local nonnull align 8 dereferenceable(8) i64* @_ZNSt11_Tuple_implILm0EJRKlEE7_M_headERS2_(%"struct.std::_Tuple_impl"* nonnull align 8 dereferenceable(8) %0) #7 comdat align 2 {
  %2 = alloca %"struct.std::_Tuple_impl"*, align 8, !llfi_index !1330
  store %"struct.std::_Tuple_impl"* %0, %"struct.std::_Tuple_impl"** %2, align 8, !llfi_index !1331
  %3 = load %"struct.std::_Tuple_impl"*, %"struct.std::_Tuple_impl"** %2, align 8, !llfi_index !1332
  %4 = bitcast %"struct.std::_Tuple_impl"* %3 to %"struct.std::_Head_base"*, !llfi_index !1333
  %5 = call nonnull align 8 dereferenceable(8) i64* @_ZNSt10_Head_baseILm0ERKlLb0EE7_M_headERS2_(%"struct.std::_Head_base"* nonnull align 8 dereferenceable(8) %4) #2, !llfi_index !1334
  ret i64* %5, !llfi_index !1335
}

; Function Attrs: mustprogress noinline nounwind uwtable
define linkonce_odr dso_local nonnull align 8 dereferenceable(8) i64* @_ZNSt10_Head_baseILm0ERKlLb0EE7_M_headERS2_(%"struct.std::_Head_base"* nonnull align 8 dereferenceable(8) %0) #7 comdat align 2 {
  %2 = alloca %"struct.std::_Head_base"*, align 8, !llfi_index !1336
  store %"struct.std::_Head_base"* %0, %"struct.std::_Head_base"** %2, align 8, !llfi_index !1337
  %3 = load %"struct.std::_Head_base"*, %"struct.std::_Head_base"** %2, align 8, !llfi_index !1338
  %4 = getelementptr inbounds %"struct.std::_Head_base", %"struct.std::_Head_base"* %3, i32 0, i32 0, !llfi_index !1339
  %5 = load i64*, i64** %4, align 8, !llfi_index !1340
  ret i64* %5, !llfi_index !1341
}

; Function Attrs: noinline nounwind uwtable
define linkonce_odr dso_local void @_ZNSt11_Tuple_implILm0EJRKlEEC2EOS2_(%"struct.std::_Tuple_impl"* nonnull align 8 dereferenceable(8) %0, %"struct.std::_Tuple_impl"* nonnull align 8 dereferenceable(8) %1) unnamed_addr #5 comdat align 2 personality i8* bitcast (i32 (...)* @__gxx_personality_v0 to i8*) {
  %3 = alloca %"struct.std::_Tuple_impl"*, align 8, !llfi_index !1342
  %4 = alloca %"struct.std::_Tuple_impl"*, align 8, !llfi_index !1343
  store %"struct.std::_Tuple_impl"* %0, %"struct.std::_Tuple_impl"** %3, align 8, !llfi_index !1344
  store %"struct.std::_Tuple_impl"* %1, %"struct.std::_Tuple_impl"** %4, align 8, !llfi_index !1345
  %5 = load %"struct.std::_Tuple_impl"*, %"struct.std::_Tuple_impl"** %3, align 8, !llfi_index !1346
  %6 = bitcast %"struct.std::_Tuple_impl"* %5 to %"struct.std::_Head_base"*, !llfi_index !1347
  %7 = load %"struct.std::_Tuple_impl"*, %"struct.std::_Tuple_impl"** %4, align 8, !llfi_index !1348
  %8 = call nonnull align 8 dereferenceable(8) i64* @_ZNSt11_Tuple_implILm0EJRKlEE7_M_headERS2_(%"struct.std::_Tuple_impl"* nonnull align 8 dereferenceable(8) %7) #2, !llfi_index !1349
  %9 = call nonnull align 8 dereferenceable(8) i64* @_ZSt7forwardIRKlEOT_RNSt16remove_referenceIS2_E4typeE(i64* nonnull align 8 dereferenceable(8) %8) #2, !llfi_index !1350
  invoke void @_ZNSt10_Head_baseILm0ERKlLb0EEC2ES1_(%"struct.std::_Head_base"* nonnull align 8 dereferenceable(8) %6, i64* nonnull align 8 dereferenceable(8) %9)
          to label %10 unwind label %11, !llfi_index !1351

10:                                               ; preds = %2
  ret void, !llfi_index !1352

11:                                               ; preds = %2
  %12 = landingpad { i8*, i32 }
          catch i8* null, !llfi_index !1353
  %13 = extractvalue { i8*, i32 } %12, 0, !llfi_index !1354
  call void @__clang_call_terminate(i8* %13) #16, !llfi_index !1355
  unreachable, !llfi_index !1356
}

; Function Attrs: noinline nounwind uwtable
define linkonce_odr dso_local void @_ZNSt10_Head_baseILm0ERKlLb0EEC2ES1_(%"struct.std::_Head_base"* nonnull align 8 dereferenceable(8) %0, i64* nonnull align 8 dereferenceable(8) %1) unnamed_addr #5 comdat align 2 {
  %3 = alloca %"struct.std::_Head_base"*, align 8, !llfi_index !1357
  %4 = alloca i64*, align 8, !llfi_index !1358
  store %"struct.std::_Head_base"* %0, %"struct.std::_Head_base"** %3, align 8, !llfi_index !1359
  store i64* %1, i64** %4, align 8, !llfi_index !1360
  %5 = load %"struct.std::_Head_base"*, %"struct.std::_Head_base"** %3, align 8, !llfi_index !1361
  %6 = getelementptr inbounds %"struct.std::_Head_base", %"struct.std::_Head_base"* %5, i32 0, i32 0, !llfi_index !1362
  %7 = load i64*, i64** %4, align 8, !llfi_index !1363
  store i64* %7, i64** %6, align 8, !llfi_index !1364
  ret void, !llfi_index !1365
}

; Function Attrs: mustprogress noinline uwtable
define linkonce_odr dso_local %"struct.std::_Rb_tree_node"* @_ZNSt16allocator_traitsISaISt13_Rb_tree_nodeISt4pairIKllEEEE8allocateERS5_m(%"class.std::ios_base::Init"* nonnull align 1 dereferenceable(1) %0, i64 %1) #6 comdat align 2 {
  %3 = alloca %"class.std::ios_base::Init"*, align 8, !llfi_index !1366
  %4 = alloca i64, align 8, !llfi_index !1367
  store %"class.std::ios_base::Init"* %0, %"class.std::ios_base::Init"** %3, align 8, !llfi_index !1368
  store i64 %1, i64* %4, align 8, !llfi_index !1369
  %5 = load %"class.std::ios_base::Init"*, %"class.std::ios_base::Init"** %3, align 8, !llfi_index !1370
  %6 = bitcast %"class.std::ios_base::Init"* %5 to %"class.std::ios_base::Init"*, !llfi_index !1371
  %7 = load i64, i64* %4, align 8, !llfi_index !1372
  %8 = call %"struct.std::_Rb_tree_node"* @_ZN9__gnu_cxx13new_allocatorISt13_Rb_tree_nodeISt4pairIKllEEE8allocateEmPKv(%"class.std::ios_base::Init"* nonnull align 1 dereferenceable(1) %6, i64 %7, i8* null), !llfi_index !1373
  ret %"struct.std::_Rb_tree_node"* %8, !llfi_index !1374
}

; Function Attrs: mustprogress noinline uwtable
define linkonce_odr dso_local %"struct.std::_Rb_tree_node"* @_ZN9__gnu_cxx13new_allocatorISt13_Rb_tree_nodeISt4pairIKllEEE8allocateEmPKv(%"class.std::ios_base::Init"* nonnull align 1 dereferenceable(1) %0, i64 %1, i8* %2) #6 comdat align 2 {
  %4 = alloca %"class.std::ios_base::Init"*, align 8, !llfi_index !1375
  %5 = alloca i64, align 8, !llfi_index !1376
  %6 = alloca i8*, align 8, !llfi_index !1377
  store %"class.std::ios_base::Init"* %0, %"class.std::ios_base::Init"** %4, align 8, !llfi_index !1378
  store i64 %1, i64* %5, align 8, !llfi_index !1379
  store i8* %2, i8** %6, align 8, !llfi_index !1380
  %7 = load %"class.std::ios_base::Init"*, %"class.std::ios_base::Init"** %4, align 8, !llfi_index !1381
  %8 = load i64, i64* %5, align 8, !llfi_index !1382
  %9 = call i64 @_ZNK9__gnu_cxx13new_allocatorISt13_Rb_tree_nodeISt4pairIKllEEE8max_sizeEv(%"class.std::ios_base::Init"* nonnull align 1 dereferenceable(1) %7) #2, !llfi_index !1383
  %10 = icmp ugt i64 %8, %9, !llfi_index !1384
  br i1 %10, label %11, label %12, !llfi_index !1385

11:                                               ; preds = %3
  call void @_ZSt17__throw_bad_allocv() #17, !llfi_index !1386
  unreachable, !llfi_index !1387

12:                                               ; preds = %3
  %13 = load i64, i64* %5, align 8, !llfi_index !1388
  %14 = mul i64 %13, 48, !llfi_index !1389
  %15 = call noalias nonnull i8* @_Znwm(i64 %14) #18, !llfi_index !1390
  %16 = bitcast i8* %15 to %"struct.std::_Rb_tree_node"*, !llfi_index !1391
  ret %"struct.std::_Rb_tree_node"* %16, !llfi_index !1392
}

; Function Attrs: mustprogress noinline nounwind uwtable
define linkonce_odr dso_local i64 @_ZNK9__gnu_cxx13new_allocatorISt13_Rb_tree_nodeISt4pairIKllEEE8max_sizeEv(%"class.std::ios_base::Init"* nonnull align 1 dereferenceable(1) %0) #7 comdat align 2 {
  %2 = alloca %"class.std::ios_base::Init"*, align 8, !llfi_index !1393
  store %"class.std::ios_base::Init"* %0, %"class.std::ios_base::Init"** %2, align 8, !llfi_index !1394
  %3 = load %"class.std::ios_base::Init"*, %"class.std::ios_base::Init"** %2, align 8, !llfi_index !1395
  ret i64 192153584101141162, !llfi_index !1396
}

; Function Attrs: noreturn
declare dso_local void @_ZSt17__throw_bad_allocv() #13

; Function Attrs: nobuiltin allocsize(0)
declare dso_local nonnull i8* @_Znwm(i64) #14

; Function Attrs: noinline nounwind uwtable
define linkonce_odr dso_local void @_ZNSt11_Tuple_implILm0EJRKlEEC2ES1_(%"struct.std::_Tuple_impl"* nonnull align 8 dereferenceable(8) %0, i64* nonnull align 8 dereferenceable(8) %1) unnamed_addr #5 comdat align 2 {
  %3 = alloca %"struct.std::_Tuple_impl"*, align 8, !llfi_index !1397
  %4 = alloca i64*, align 8, !llfi_index !1398
  store %"struct.std::_Tuple_impl"* %0, %"struct.std::_Tuple_impl"** %3, align 8, !llfi_index !1399
  store i64* %1, i64** %4, align 8, !llfi_index !1400
  %5 = load %"struct.std::_Tuple_impl"*, %"struct.std::_Tuple_impl"** %3, align 8, !llfi_index !1401
  %6 = bitcast %"struct.std::_Tuple_impl"* %5 to %"struct.std::_Head_base"*, !llfi_index !1402
  %7 = load i64*, i64** %4, align 8, !llfi_index !1403
  call void @_ZNSt10_Head_baseILm0ERKlLb0EEC2ES1_(%"struct.std::_Head_base"* nonnull align 8 dereferenceable(8) %6, i64* nonnull align 8 dereferenceable(8) %7), !llfi_index !1404
  ret void, !llfi_index !1405
}

; Function Attrs: mustprogress noinline nounwind uwtable
define linkonce_odr dso_local void @_ZNKSt8_Rb_treeIlSt4pairIKllESt10_Select1stIS2_ESt4lessIlESaIS2_EE8key_compEv(%"class.std::_Rb_tree"* nonnull align 8 dereferenceable(48) %0) #7 comdat align 2 {
  %2 = alloca %"class.std::_Rb_tree"*, align 8, !llfi_index !1406
  store %"class.std::_Rb_tree"* %0, %"class.std::_Rb_tree"** %2, align 8, !llfi_index !1407
  %3 = load %"class.std::_Rb_tree"*, %"class.std::_Rb_tree"** %2, align 8, !llfi_index !1408
  %4 = getelementptr inbounds %"class.std::_Rb_tree", %"class.std::_Rb_tree"* %3, i32 0, i32 0, !llfi_index !1409
  %5 = bitcast %"struct.std::_Rb_tree<long, std::pair<const long, long>, std::_Select1st<std::pair<const long, long>>, std::less<long>>::_Rb_tree_impl"* %4 to %"struct.std::_Rb_tree_key_compare"*, !llfi_index !1410
  %6 = getelementptr inbounds %"struct.std::_Rb_tree_key_compare", %"struct.std::_Rb_tree_key_compare"* %5, i32 0, i32 0, !llfi_index !1411
  ret void, !llfi_index !1412
}

; Function Attrs: mustprogress noinline uwtable
define linkonce_odr dso_local %"struct.std::_Rb_tree_node_base"* @_ZNSt8_Rb_treeIlSt4pairIKllESt10_Select1stIS2_ESt4lessIlESaIS2_EE11lower_boundERS1_(%"class.std::_Rb_tree"* nonnull align 8 dereferenceable(48) %0, i64* nonnull align 8 dereferenceable(8) %1) #6 comdat align 2 {
  %3 = alloca %"struct.std::_Rb_tree_const_iterator", align 8, !llfi_index !1413
  %4 = alloca %"class.std::_Rb_tree"*, align 8, !llfi_index !1414
  %5 = alloca i64*, align 8, !llfi_index !1415
  store %"class.std::_Rb_tree"* %0, %"class.std::_Rb_tree"** %4, align 8, !llfi_index !1416
  store i64* %1, i64** %5, align 8, !llfi_index !1417
  %6 = load %"class.std::_Rb_tree"*, %"class.std::_Rb_tree"** %4, align 8, !llfi_index !1418
  %7 = call %"struct.std::_Rb_tree_node"* @_ZNSt8_Rb_treeIlSt4pairIKllESt10_Select1stIS2_ESt4lessIlESaIS2_EE8_M_beginEv(%"class.std::_Rb_tree"* nonnull align 8 dereferenceable(48) %6) #2, !llfi_index !1419
  %8 = call %"struct.std::_Rb_tree_node_base"* @_ZNSt8_Rb_treeIlSt4pairIKllESt10_Select1stIS2_ESt4lessIlESaIS2_EE6_M_endEv(%"class.std::_Rb_tree"* nonnull align 8 dereferenceable(48) %6) #2, !llfi_index !1420
  %9 = load i64*, i64** %5, align 8, !llfi_index !1421
  %10 = call %"struct.std::_Rb_tree_node_base"* @_ZNSt8_Rb_treeIlSt4pairIKllESt10_Select1stIS2_ESt4lessIlESaIS2_EE14_M_lower_boundEPSt13_Rb_tree_nodeIS2_EPSt18_Rb_tree_node_baseRS1_(%"class.std::_Rb_tree"* nonnull align 8 dereferenceable(48) %6, %"struct.std::_Rb_tree_node"* %7, %"struct.std::_Rb_tree_node_base"* %8, i64* nonnull align 8 dereferenceable(8) %9), !llfi_index !1422
  %11 = getelementptr inbounds %"struct.std::_Rb_tree_const_iterator", %"struct.std::_Rb_tree_const_iterator"* %3, i32 0, i32 0, !llfi_index !1423
  store %"struct.std::_Rb_tree_node_base"* %10, %"struct.std::_Rb_tree_node_base"** %11, align 8, !llfi_index !1424
  %12 = getelementptr inbounds %"struct.std::_Rb_tree_const_iterator", %"struct.std::_Rb_tree_const_iterator"* %3, i32 0, i32 0, !llfi_index !1425
  %13 = load %"struct.std::_Rb_tree_node_base"*, %"struct.std::_Rb_tree_node_base"** %12, align 8, !llfi_index !1426
  ret %"struct.std::_Rb_tree_node_base"* %13, !llfi_index !1427
}

; Function Attrs: mustprogress noinline uwtable
define linkonce_odr dso_local %"struct.std::_Rb_tree_node_base"* @_ZNSt8_Rb_treeIlSt4pairIKllESt10_Select1stIS2_ESt4lessIlESaIS2_EE14_M_lower_boundEPSt13_Rb_tree_nodeIS2_EPSt18_Rb_tree_node_baseRS1_(%"class.std::_Rb_tree"* nonnull align 8 dereferenceable(48) %0, %"struct.std::_Rb_tree_node"* %1, %"struct.std::_Rb_tree_node_base"* %2, i64* nonnull align 8 dereferenceable(8) %3) #6 comdat align 2 {
  %5 = alloca %"struct.std::_Rb_tree_const_iterator", align 8, !llfi_index !1428
  %6 = alloca %"class.std::_Rb_tree"*, align 8, !llfi_index !1429
  %7 = alloca %"struct.std::_Rb_tree_node"*, align 8, !llfi_index !1430
  %8 = alloca %"struct.std::_Rb_tree_node_base"*, align 8, !llfi_index !1431
  %9 = alloca i64*, align 8, !llfi_index !1432
  store %"class.std::_Rb_tree"* %0, %"class.std::_Rb_tree"** %6, align 8, !llfi_index !1433
  store %"struct.std::_Rb_tree_node"* %1, %"struct.std::_Rb_tree_node"** %7, align 8, !llfi_index !1434
  store %"struct.std::_Rb_tree_node_base"* %2, %"struct.std::_Rb_tree_node_base"** %8, align 8, !llfi_index !1435
  store i64* %3, i64** %9, align 8, !llfi_index !1436
  %10 = load %"class.std::_Rb_tree"*, %"class.std::_Rb_tree"** %6, align 8, !llfi_index !1437
  br label %11, !llfi_index !1438

11:                                               ; preds = %32, %4
  %12 = load %"struct.std::_Rb_tree_node"*, %"struct.std::_Rb_tree_node"** %7, align 8, !llfi_index !1439
  %13 = icmp ne %"struct.std::_Rb_tree_node"* %12, null, !llfi_index !1440
  br i1 %13, label %14, label %33, !llfi_index !1441

14:                                               ; preds = %11
  %15 = getelementptr inbounds %"class.std::_Rb_tree", %"class.std::_Rb_tree"* %10, i32 0, i32 0, !llfi_index !1442
  %16 = bitcast %"struct.std::_Rb_tree<long, std::pair<const long, long>, std::_Select1st<std::pair<const long, long>>, std::less<long>>::_Rb_tree_impl"* %15 to %"struct.std::_Rb_tree_key_compare"*, !llfi_index !1443
  %17 = getelementptr inbounds %"struct.std::_Rb_tree_key_compare", %"struct.std::_Rb_tree_key_compare"* %16, i32 0, i32 0, !llfi_index !1444
  %18 = load %"struct.std::_Rb_tree_node"*, %"struct.std::_Rb_tree_node"** %7, align 8, !llfi_index !1445
  %19 = call nonnull align 8 dereferenceable(8) i64* @_ZNSt8_Rb_treeIlSt4pairIKllESt10_Select1stIS2_ESt4lessIlESaIS2_EE6_S_keyEPKSt13_Rb_tree_nodeIS2_E(%"struct.std::_Rb_tree_node"* %18), !llfi_index !1446
  %20 = load i64*, i64** %9, align 8, !llfi_index !1447
  %21 = call zeroext i1 @_ZNKSt4lessIlEclERKlS2_(%"class.std::ios_base::Init"* nonnull align 1 dereferenceable(1) %17, i64* nonnull align 8 dereferenceable(8) %19, i64* nonnull align 8 dereferenceable(8) %20), !llfi_index !1448
  br i1 %21, label %28, label %22, !llfi_index !1449

22:                                               ; preds = %14
  %23 = load %"struct.std::_Rb_tree_node"*, %"struct.std::_Rb_tree_node"** %7, align 8, !llfi_index !1450
  %24 = bitcast %"struct.std::_Rb_tree_node"* %23 to %"struct.std::_Rb_tree_node_base"*, !llfi_index !1451
  store %"struct.std::_Rb_tree_node_base"* %24, %"struct.std::_Rb_tree_node_base"** %8, align 8, !llfi_index !1452
  %25 = load %"struct.std::_Rb_tree_node"*, %"struct.std::_Rb_tree_node"** %7, align 8, !llfi_index !1453
  %26 = bitcast %"struct.std::_Rb_tree_node"* %25 to %"struct.std::_Rb_tree_node_base"*, !llfi_index !1454
  %27 = call %"struct.std::_Rb_tree_node"* @_ZNSt8_Rb_treeIlSt4pairIKllESt10_Select1stIS2_ESt4lessIlESaIS2_EE7_S_leftEPSt18_Rb_tree_node_base(%"struct.std::_Rb_tree_node_base"* %26) #2, !llfi_index !1455
  store %"struct.std::_Rb_tree_node"* %27, %"struct.std::_Rb_tree_node"** %7, align 8, !llfi_index !1456
  br label %32, !llfi_index !1457

28:                                               ; preds = %14
  %29 = load %"struct.std::_Rb_tree_node"*, %"struct.std::_Rb_tree_node"** %7, align 8, !llfi_index !1458
  %30 = bitcast %"struct.std::_Rb_tree_node"* %29 to %"struct.std::_Rb_tree_node_base"*, !llfi_index !1459
  %31 = call %"struct.std::_Rb_tree_node"* @_ZNSt8_Rb_treeIlSt4pairIKllESt10_Select1stIS2_ESt4lessIlESaIS2_EE8_S_rightEPSt18_Rb_tree_node_base(%"struct.std::_Rb_tree_node_base"* %30) #2, !llfi_index !1460
  store %"struct.std::_Rb_tree_node"* %31, %"struct.std::_Rb_tree_node"** %7, align 8, !llfi_index !1461
  br label %32, !llfi_index !1462

32:                                               ; preds = %28, %22
  br label %11, !llvm.loop !1463, !llfi_index !1464

33:                                               ; preds = %11
  %34 = load %"struct.std::_Rb_tree_node_base"*, %"struct.std::_Rb_tree_node_base"** %8, align 8, !llfi_index !1465
  call void @_ZNSt17_Rb_tree_iteratorISt4pairIKllEEC2EPSt18_Rb_tree_node_base(%"struct.std::_Rb_tree_const_iterator"* nonnull align 8 dereferenceable(8) %5, %"struct.std::_Rb_tree_node_base"* %34) #2, !llfi_index !1466
  %35 = getelementptr inbounds %"struct.std::_Rb_tree_const_iterator", %"struct.std::_Rb_tree_const_iterator"* %5, i32 0, i32 0, !llfi_index !1467
  %36 = load %"struct.std::_Rb_tree_node_base"*, %"struct.std::_Rb_tree_node_base"** %35, align 8, !llfi_index !1468
  ret %"struct.std::_Rb_tree_node_base"* %36, !llfi_index !1469
}

; Function Attrs: noinline nounwind uwtable
define linkonce_odr dso_local void @_ZNSt8_Rb_treeIlSt4pairIKllESt10_Select1stIS2_ESt4lessIlESaIS2_EEC2Ev(%"class.std::_Rb_tree"* nonnull align 8 dereferenceable(48) %0) unnamed_addr #5 comdat align 2 {
  %2 = alloca %"class.std::_Rb_tree"*, align 8, !llfi_index !1470
  store %"class.std::_Rb_tree"* %0, %"class.std::_Rb_tree"** %2, align 8, !llfi_index !1471
  %3 = load %"class.std::_Rb_tree"*, %"class.std::_Rb_tree"** %2, align 8, !llfi_index !1472
  %4 = getelementptr inbounds %"class.std::_Rb_tree", %"class.std::_Rb_tree"* %3, i32 0, i32 0, !llfi_index !1473
  call void @_ZNSt8_Rb_treeIlSt4pairIKllESt10_Select1stIS2_ESt4lessIlESaIS2_EE13_Rb_tree_implIS6_Lb1EEC2Ev(%"struct.std::_Rb_tree<long, std::pair<const long, long>, std::_Select1st<std::pair<const long, long>>, std::less<long>>::_Rb_tree_impl"* nonnull align 8 dereferenceable(48) %4) #2, !llfi_index !1474
  ret void, !llfi_index !1475
}

; Function Attrs: noinline nounwind uwtable
define linkonce_odr dso_local void @_ZNSt8_Rb_treeIlSt4pairIKllESt10_Select1stIS2_ESt4lessIlESaIS2_EE13_Rb_tree_implIS6_Lb1EEC2Ev(%"struct.std::_Rb_tree<long, std::pair<const long, long>, std::_Select1st<std::pair<const long, long>>, std::less<long>>::_Rb_tree_impl"* nonnull align 8 dereferenceable(48) %0) unnamed_addr #5 comdat align 2 {
  %2 = alloca %"struct.std::_Rb_tree<long, std::pair<const long, long>, std::_Select1st<std::pair<const long, long>>, std::less<long>>::_Rb_tree_impl"*, align 8, !llfi_index !1476
  store %"struct.std::_Rb_tree<long, std::pair<const long, long>, std::_Select1st<std::pair<const long, long>>, std::less<long>>::_Rb_tree_impl"* %0, %"struct.std::_Rb_tree<long, std::pair<const long, long>, std::_Select1st<std::pair<const long, long>>, std::less<long>>::_Rb_tree_impl"** %2, align 8, !llfi_index !1477
  %3 = load %"struct.std::_Rb_tree<long, std::pair<const long, long>, std::_Select1st<std::pair<const long, long>>, std::less<long>>::_Rb_tree_impl"*, %"struct.std::_Rb_tree<long, std::pair<const long, long>, std::_Select1st<std::pair<const long, long>>, std::less<long>>::_Rb_tree_impl"** %2, align 8, !llfi_index !1478
  %4 = bitcast %"struct.std::_Rb_tree<long, std::pair<const long, long>, std::_Select1st<std::pair<const long, long>>, std::less<long>>::_Rb_tree_impl"* %3 to %"class.std::ios_base::Init"*, !llfi_index !1479
  call void @_ZNSaISt13_Rb_tree_nodeISt4pairIKllEEEC2Ev(%"class.std::ios_base::Init"* nonnull align 1 dereferenceable(1) %4) #2, !llfi_index !1480
  %5 = bitcast %"struct.std::_Rb_tree<long, std::pair<const long, long>, std::_Select1st<std::pair<const long, long>>, std::less<long>>::_Rb_tree_impl"* %3 to %"struct.std::_Rb_tree_key_compare"*, !llfi_index !1481
  call void @_ZNSt20_Rb_tree_key_compareISt4lessIlEEC2Ev(%"struct.std::_Rb_tree_key_compare"* nonnull align 1 dereferenceable(1) %5) #2, !llfi_index !1482
  %6 = bitcast %"struct.std::_Rb_tree<long, std::pair<const long, long>, std::_Select1st<std::pair<const long, long>>, std::less<long>>::_Rb_tree_impl"* %3 to i8*, !llfi_index !1483
  %7 = getelementptr inbounds i8, i8* %6, i64 8, !llfi_index !1484
  %8 = bitcast i8* %7 to %"struct.std::_Rb_tree_header"*, !llfi_index !1485
  call void @_ZNSt15_Rb_tree_headerC2Ev(%"struct.std::_Rb_tree_header"* nonnull align 8 dereferenceable(40) %8) #2, !llfi_index !1486
  ret void, !llfi_index !1487
}

; Function Attrs: noinline nounwind uwtable
define linkonce_odr dso_local void @_ZNSaISt13_Rb_tree_nodeISt4pairIKllEEEC2Ev(%"class.std::ios_base::Init"* nonnull align 1 dereferenceable(1) %0) unnamed_addr #5 comdat align 2 {
  %2 = alloca %"class.std::ios_base::Init"*, align 8, !llfi_index !1488
  store %"class.std::ios_base::Init"* %0, %"class.std::ios_base::Init"** %2, align 8, !llfi_index !1489
  %3 = load %"class.std::ios_base::Init"*, %"class.std::ios_base::Init"** %2, align 8, !llfi_index !1490
  %4 = bitcast %"class.std::ios_base::Init"* %3 to %"class.std::ios_base::Init"*, !llfi_index !1491
  call void @_ZN9__gnu_cxx13new_allocatorISt13_Rb_tree_nodeISt4pairIKllEEEC2Ev(%"class.std::ios_base::Init"* nonnull align 1 dereferenceable(1) %4) #2, !llfi_index !1492
  ret void, !llfi_index !1493
}

; Function Attrs: noinline nounwind uwtable
define linkonce_odr dso_local void @_ZNSt20_Rb_tree_key_compareISt4lessIlEEC2Ev(%"struct.std::_Rb_tree_key_compare"* nonnull align 1 dereferenceable(1) %0) unnamed_addr #5 comdat align 2 {
  %2 = alloca %"struct.std::_Rb_tree_key_compare"*, align 8, !llfi_index !1494
  store %"struct.std::_Rb_tree_key_compare"* %0, %"struct.std::_Rb_tree_key_compare"** %2, align 8, !llfi_index !1495
  %3 = load %"struct.std::_Rb_tree_key_compare"*, %"struct.std::_Rb_tree_key_compare"** %2, align 8, !llfi_index !1496
  %4 = getelementptr inbounds %"struct.std::_Rb_tree_key_compare", %"struct.std::_Rb_tree_key_compare"* %3, i32 0, i32 0, !llfi_index !1497
  ret void, !llfi_index !1498
}

; Function Attrs: noinline nounwind uwtable
define linkonce_odr dso_local void @_ZNSt15_Rb_tree_headerC2Ev(%"struct.std::_Rb_tree_header"* nonnull align 8 dereferenceable(40) %0) unnamed_addr #5 comdat align 2 personality i8* bitcast (i32 (...)* @__gxx_personality_v0 to i8*) {
  %2 = alloca %"struct.std::_Rb_tree_header"*, align 8, !llfi_index !1499
  store %"struct.std::_Rb_tree_header"* %0, %"struct.std::_Rb_tree_header"** %2, align 8, !llfi_index !1500
  %3 = load %"struct.std::_Rb_tree_header"*, %"struct.std::_Rb_tree_header"** %2, align 8, !llfi_index !1501
  %4 = getelementptr inbounds %"struct.std::_Rb_tree_header", %"struct.std::_Rb_tree_header"* %3, i32 0, i32 0, !llfi_index !1502
  %5 = getelementptr inbounds %"struct.std::_Rb_tree_header", %"struct.std::_Rb_tree_header"* %3, i32 0, i32 0, !llfi_index !1503
  %6 = getelementptr inbounds %"struct.std::_Rb_tree_node_base", %"struct.std::_Rb_tree_node_base"* %5, i32 0, i32 0, !llfi_index !1504
  store i32 0, i32* %6, align 8, !llfi_index !1505
  invoke void @_ZNSt15_Rb_tree_header8_M_resetEv(%"struct.std::_Rb_tree_header"* nonnull align 8 dereferenceable(40) %3)
          to label %7 unwind label %8, !llfi_index !1506

7:                                                ; preds = %1
  ret void, !llfi_index !1507

8:                                                ; preds = %1
  %9 = landingpad { i8*, i32 }
          catch i8* null, !llfi_index !1508
  %10 = extractvalue { i8*, i32 } %9, 0, !llfi_index !1509
  call void @__clang_call_terminate(i8* %10) #16, !llfi_index !1510
  unreachable, !llfi_index !1511
}

; Function Attrs: mustprogress noinline nounwind uwtable
define linkonce_odr dso_local void @_ZNSt15_Rb_tree_header8_M_resetEv(%"struct.std::_Rb_tree_header"* nonnull align 8 dereferenceable(40) %0) #7 comdat align 2 {
  %2 = alloca %"struct.std::_Rb_tree_header"*, align 8, !llfi_index !1512
  store %"struct.std::_Rb_tree_header"* %0, %"struct.std::_Rb_tree_header"** %2, align 8, !llfi_index !1513
  %3 = load %"struct.std::_Rb_tree_header"*, %"struct.std::_Rb_tree_header"** %2, align 8, !llfi_index !1514
  %4 = getelementptr inbounds %"struct.std::_Rb_tree_header", %"struct.std::_Rb_tree_header"* %3, i32 0, i32 0, !llfi_index !1515
  %5 = getelementptr inbounds %"struct.std::_Rb_tree_node_base", %"struct.std::_Rb_tree_node_base"* %4, i32 0, i32 1, !llfi_index !1516
  store %"struct.std::_Rb_tree_node_base"* null, %"struct.std::_Rb_tree_node_base"** %5, align 8, !llfi_index !1517
  %6 = getelementptr inbounds %"struct.std::_Rb_tree_header", %"struct.std::_Rb_tree_header"* %3, i32 0, i32 0, !llfi_index !1518
  %7 = getelementptr inbounds %"struct.std::_Rb_tree_header", %"struct.std::_Rb_tree_header"* %3, i32 0, i32 0, !llfi_index !1519
  %8 = getelementptr inbounds %"struct.std::_Rb_tree_node_base", %"struct.std::_Rb_tree_node_base"* %7, i32 0, i32 2, !llfi_index !1520
  store %"struct.std::_Rb_tree_node_base"* %6, %"struct.std::_Rb_tree_node_base"** %8, align 8, !llfi_index !1521
  %9 = getelementptr inbounds %"struct.std::_Rb_tree_header", %"struct.std::_Rb_tree_header"* %3, i32 0, i32 0, !llfi_index !1522
  %10 = getelementptr inbounds %"struct.std::_Rb_tree_header", %"struct.std::_Rb_tree_header"* %3, i32 0, i32 0, !llfi_index !1523
  %11 = getelementptr inbounds %"struct.std::_Rb_tree_node_base", %"struct.std::_Rb_tree_node_base"* %10, i32 0, i32 3, !llfi_index !1524
  store %"struct.std::_Rb_tree_node_base"* %9, %"struct.std::_Rb_tree_node_base"** %11, align 8, !llfi_index !1525
  %12 = getelementptr inbounds %"struct.std::_Rb_tree_header", %"struct.std::_Rb_tree_header"* %3, i32 0, i32 1, !llfi_index !1526
  store i64 0, i64* %12, align 8, !llfi_index !1527
  ret void, !llfi_index !1528
}

; Function Attrs: noinline nounwind uwtable
define linkonce_odr dso_local void @_ZN9__gnu_cxx13new_allocatorISt13_Rb_tree_nodeISt4pairIKllEEEC2Ev(%"class.std::ios_base::Init"* nonnull align 1 dereferenceable(1) %0) unnamed_addr #5 comdat align 2 {
  %2 = alloca %"class.std::ios_base::Init"*, align 8, !llfi_index !1529
  store %"class.std::ios_base::Init"* %0, %"class.std::ios_base::Init"** %2, align 8, !llfi_index !1530
  %3 = load %"class.std::ios_base::Init"*, %"class.std::ios_base::Init"** %2, align 8, !llfi_index !1531
  ret void, !llfi_index !1532
}

attributes #0 = { noinline uwtable "frame-pointer"="all" "min-legal-vector-width"="0" "no-trapping-math"="true" "stack-protector-buffer-size"="8" "target-cpu"="x86-64" "target-features"="+cx8,+fxsr,+mmx,+sse,+sse2,+x87" "tune-cpu"="generic" }
attributes #1 = { "frame-pointer"="all" "no-trapping-math"="true" "stack-protector-buffer-size"="8" "target-cpu"="x86-64" "target-features"="+cx8,+fxsr,+mmx,+sse,+sse2,+x87" "tune-cpu"="generic" }
attributes #2 = { nounwind }
attributes #3 = { nounwind "frame-pointer"="all" "no-trapping-math"="true" "stack-protector-buffer-size"="8" "target-cpu"="x86-64" "target-features"="+cx8,+fxsr,+mmx,+sse,+sse2,+x87" "tune-cpu"="generic" }
attributes #4 = { mustprogress noinline norecurse uwtable "frame-pointer"="all" "min-legal-vector-width"="0" "no-trapping-math"="true" "stack-protector-buffer-size"="8" "target-cpu"="x86-64" "target-features"="+cx8,+fxsr,+mmx,+sse,+sse2,+x87" "tune-cpu"="generic" }
attributes #5 = { noinline nounwind uwtable "frame-pointer"="all" "min-legal-vector-width"="0" "no-trapping-math"="true" "stack-protector-buffer-size"="8" "target-cpu"="x86-64" "target-features"="+cx8,+fxsr,+mmx,+sse,+sse2,+x87" "tune-cpu"="generic" }
attributes #6 = { mustprogress noinline uwtable "frame-pointer"="all" "min-legal-vector-width"="0" "no-trapping-math"="true" "stack-protector-buffer-size"="8" "target-cpu"="x86-64" "target-features"="+cx8,+fxsr,+mmx,+sse,+sse2,+x87" "tune-cpu"="generic" }
attributes #7 = { mustprogress noinline nounwind uwtable "frame-pointer"="all" "min-legal-vector-width"="0" "no-trapping-math"="true" "stack-protector-buffer-size"="8" "target-cpu"="x86-64" "target-features"="+cx8,+fxsr,+mmx,+sse,+sse2,+x87" "tune-cpu"="generic" }
attributes #8 = { argmemonly nofree nounwind willreturn }
attributes #9 = { nounwind readonly willreturn "frame-pointer"="all" "no-trapping-math"="true" "stack-protector-buffer-size"="8" "target-cpu"="x86-64" "target-features"="+cx8,+fxsr,+mmx,+sse,+sse2,+x87" "tune-cpu"="generic" }
attributes #10 = { noinline noreturn nounwind }
attributes #11 = { nobuiltin nounwind "frame-pointer"="all" "no-trapping-math"="true" "stack-protector-buffer-size"="8" "target-cpu"="x86-64" "target-features"="+cx8,+fxsr,+mmx,+sse,+sse2,+x87" "tune-cpu"="generic" }
attributes #12 = { cold noreturn nounwind }
attributes #13 = { noreturn "frame-pointer"="all" "no-trapping-math"="true" "stack-protector-buffer-size"="8" "target-cpu"="x86-64" "target-features"="+cx8,+fxsr,+mmx,+sse,+sse2,+x87" "tune-cpu"="generic" }
attributes #14 = { nobuiltin allocsize(0) "frame-pointer"="all" "no-trapping-math"="true" "stack-protector-buffer-size"="8" "target-cpu"="x86-64" "target-features"="+cx8,+fxsr,+mmx,+sse,+sse2,+x87" "tune-cpu"="generic" }
attributes #15 = { nounwind readonly willreturn }
attributes #16 = { noreturn nounwind }
attributes #17 = { noreturn }
attributes #18 = { allocsize(0) }

!llvm.ident = !{!0}
!llvm.module.flags = !{!1, !2, !3}

!0 = !{!"clang version 13.0.0 (https://github.com/llvm/llvm-project.git d7b669b3a30345cfcdb2fde2af6f48aa4b94845d)"}
!1 = !{i32 1, !"wchar_size", i32 4}
!2 = !{i32 7, !"uwtable", i32 1}
!3 = !{i32 7, !"frame-pointer", i32 2}
!4 = !{i64 1}
!5 = !{i64 2}
!6 = !{i64 3}
!7 = !{i64 4}
!8 = !{i64 5}
!9 = !{i64 6}
!10 = !{i64 7}
!11 = !{i64 8}
!12 = !{i64 9}
!13 = !{i64 10}
!14 = !{i64 11}
!15 = !{i64 12}
!16 = !{i64 13}
!17 = !{i64 14}
!18 = !{i64 15}
!19 = !{i64 16}
!20 = !{i64 17}
!21 = !{i64 18}
!22 = !{i64 19}
!23 = !{i64 20}
!24 = !{i64 21}
!25 = !{i64 22}
!26 = !{i64 23}
!27 = !{i64 24}
!28 = !{i64 25}
!29 = !{i64 26}
!30 = !{i64 27}
!31 = !{i64 28}
!32 = !{i64 29}
!33 = !{i64 30}
!34 = !{i64 31}
!35 = !{i64 32}
!36 = !{i64 33}
!37 = !{i64 34}
!38 = !{i64 35}
!39 = !{i64 36}
!40 = !{i64 37}
!41 = !{i64 38}
!42 = !{i64 39}
!43 = !{i64 40}
!44 = !{i64 41}
!45 = !{i64 42}
!46 = !{i64 43}
!47 = !{i64 44}
!48 = !{i64 45}
!49 = !{i64 46}
!50 = !{i64 47}
!51 = !{i64 48}
!52 = !{i64 49}
!53 = !{i64 50}
!54 = !{i64 51}
!55 = !{i64 52}
!56 = !{i64 53}
!57 = !{i64 54}
!58 = !{i64 55}
!59 = !{i64 56}
!60 = !{i64 57}
!61 = distinct !{!61, !62}
!62 = !{!"llvm.loop.mustprogress"}
!63 = !{i64 58}
!64 = !{i64 59}
!65 = !{i64 60}
!66 = !{i64 61}
!67 = !{i64 62}
!68 = !{i64 63}
!69 = !{i64 64}
!70 = !{i64 65}
!71 = !{i64 66}
!72 = !{i64 67}
!73 = !{i64 68}
!74 = !{i64 69}
!75 = !{i64 70}
!76 = !{i64 71}
!77 = !{i64 72}
!78 = !{i64 73}
!79 = !{i64 74}
!80 = !{i64 75}
!81 = !{i64 76}
!82 = !{i64 77}
!83 = !{i64 78}
!84 = !{i64 79}
!85 = !{i64 80}
!86 = !{i64 81}
!87 = !{i64 82}
!88 = !{i64 83}
!89 = !{i64 84}
!90 = !{i64 85}
!91 = !{i64 86}
!92 = !{i64 87}
!93 = !{i64 88}
!94 = !{i64 89}
!95 = !{i64 90}
!96 = !{i64 91}
!97 = !{i64 92}
!98 = !{i64 93}
!99 = !{i64 94}
!100 = !{i64 95}
!101 = !{i64 96}
!102 = !{i64 97}
!103 = !{i64 98}
!104 = !{i64 99}
!105 = !{i64 100}
!106 = !{i64 101}
!107 = distinct !{!107, !62}
!108 = !{i64 102}
!109 = !{i64 103}
!110 = !{i64 104}
!111 = !{i64 105}
!112 = !{i64 106}
!113 = distinct !{!113, !62}
!114 = !{i64 107}
!115 = !{i64 108}
!116 = !{i64 109}
!117 = !{i64 110}
!118 = !{i64 111}
!119 = !{i64 112}
!120 = !{i64 113}
!121 = !{i64 114}
!122 = !{i64 115}
!123 = !{i64 116}
!124 = !{i64 117}
!125 = !{i64 118}
!126 = !{i64 119}
!127 = !{i64 120}
!128 = !{i64 121}
!129 = !{i64 122}
!130 = !{i64 123}
!131 = !{i64 124}
!132 = !{i64 125}
!133 = !{i64 126}
!134 = !{i64 127}
!135 = !{i64 128}
!136 = !{i64 129}
!137 = !{i64 130}
!138 = !{i64 131}
!139 = !{i64 132}
!140 = !{i64 133}
!141 = !{i64 134}
!142 = !{i64 135}
!143 = !{i64 136}
!144 = !{i64 137}
!145 = !{i64 138}
!146 = !{i64 139}
!147 = !{i64 140}
!148 = !{i64 141}
!149 = !{i64 142}
!150 = !{i64 143}
!151 = !{i64 144}
!152 = !{i64 145}
!153 = !{i64 146}
!154 = !{i64 147}
!155 = !{i64 148}
!156 = !{i64 149}
!157 = !{i64 150}
!158 = !{i64 151}
!159 = !{i64 152}
!160 = !{i64 153}
!161 = !{i64 154}
!162 = !{i64 155}
!163 = !{i64 156}
!164 = !{i64 157}
!165 = !{i64 158}
!166 = !{i64 159}
!167 = !{i64 160}
!168 = !{i64 161}
!169 = !{i64 162}
!170 = !{i64 163}
!171 = !{i64 164}
!172 = !{i64 165}
!173 = !{i64 166}
!174 = !{i64 167}
!175 = !{i64 168}
!176 = !{i64 169}
!177 = !{i64 170}
!178 = !{i64 171}
!179 = !{i64 172}
!180 = !{i64 173}
!181 = !{i64 174}
!182 = !{i64 175}
!183 = !{i64 176}
!184 = !{i64 177}
!185 = !{i64 178}
!186 = !{i64 179}
!187 = !{i64 180}
!188 = !{i64 181}
!189 = !{i64 182}
!190 = !{i64 183}
!191 = !{i64 184}
!192 = !{i64 185}
!193 = !{i64 186}
!194 = !{i64 187}
!195 = !{i64 188}
!196 = !{i64 189}
!197 = !{i64 190}
!198 = !{i64 191}
!199 = !{i64 192}
!200 = !{i64 193}
!201 = !{i64 194}
!202 = !{i64 195}
!203 = !{i64 196}
!204 = !{i64 197}
!205 = !{i64 198}
!206 = !{i64 199}
!207 = !{i64 200}
!208 = !{i64 201}
!209 = !{i64 202}
!210 = !{i64 203}
!211 = !{i64 204}
!212 = !{i64 205}
!213 = !{i64 206}
!214 = !{i64 207}
!215 = !{i64 208}
!216 = !{i64 209}
!217 = !{i64 210}
!218 = !{i64 211}
!219 = !{i64 212}
!220 = !{i64 213}
!221 = !{i64 214}
!222 = !{i64 215}
!223 = !{i64 216}
!224 = !{i64 217}
!225 = !{i64 218}
!226 = !{i64 219}
!227 = !{i64 220}
!228 = !{i64 221}
!229 = !{i64 222}
!230 = !{i64 223}
!231 = !{i64 224}
!232 = !{i64 225}
!233 = !{i64 226}
!234 = !{i64 227}
!235 = !{i64 228}
!236 = !{i64 229}
!237 = !{i64 230}
!238 = !{i64 231}
!239 = !{i64 232}
!240 = !{i64 233}
!241 = !{i64 234}
!242 = !{i64 235}
!243 = !{i64 236}
!244 = !{i64 237}
!245 = !{i64 238}
!246 = !{i64 239}
!247 = !{i64 240}
!248 = !{i64 241}
!249 = !{i64 242}
!250 = !{i64 243}
!251 = !{i64 244}
!252 = !{i64 245}
!253 = !{i64 246}
!254 = !{i64 247}
!255 = !{i64 248}
!256 = !{i64 249}
!257 = !{i64 250}
!258 = !{i64 251}
!259 = !{i64 252}
!260 = !{i64 253}
!261 = !{i64 254}
!262 = !{i64 255}
!263 = !{i64 256}
!264 = !{i64 257}
!265 = !{i64 258}
!266 = !{i64 259}
!267 = !{i64 260}
!268 = !{i64 261}
!269 = !{i64 262}
!270 = !{i64 263}
!271 = !{i64 264}
!272 = !{i64 265}
!273 = !{i64 266}
!274 = !{i64 267}
!275 = !{i64 268}
!276 = !{i64 269}
!277 = !{i64 270}
!278 = !{i64 271}
!279 = !{i64 272}
!280 = !{i64 273}
!281 = !{i64 274}
!282 = !{i64 275}
!283 = !{i64 276}
!284 = !{i64 277}
!285 = !{i64 278}
!286 = !{i64 279}
!287 = !{i64 280}
!288 = !{i64 281}
!289 = !{i64 282}
!290 = !{i64 283}
!291 = !{i64 284}
!292 = !{i64 285}
!293 = !{i64 286}
!294 = !{i64 287}
!295 = !{i64 288}
!296 = !{i64 289}
!297 = !{i64 290}
!298 = !{i64 291}
!299 = !{i64 292}
!300 = !{i64 293}
!301 = !{i64 294}
!302 = !{i64 295}
!303 = !{i64 296}
!304 = !{i64 297}
!305 = !{i64 298}
!306 = !{i64 299}
!307 = !{i64 300}
!308 = !{i64 301}
!309 = !{i64 302}
!310 = !{i64 303}
!311 = !{i64 304}
!312 = !{i64 305}
!313 = !{i64 306}
!314 = !{i64 307}
!315 = !{i64 308}
!316 = !{i64 309}
!317 = !{i64 310}
!318 = !{i64 311}
!319 = !{i64 312}
!320 = !{i64 313}
!321 = !{i64 314}
!322 = !{i64 315}
!323 = !{i64 316}
!324 = !{i64 317}
!325 = !{i64 318}
!326 = !{i64 319}
!327 = !{i64 320}
!328 = !{i64 321}
!329 = !{i64 322}
!330 = !{i64 323}
!331 = !{i64 324}
!332 = !{i64 325}
!333 = !{i64 326}
!334 = !{i64 327}
!335 = !{i64 328}
!336 = !{i64 329}
!337 = !{i64 330}
!338 = !{i64 331}
!339 = !{i64 332}
!340 = !{i64 333}
!341 = !{i64 334}
!342 = !{i64 335}
!343 = !{i64 336}
!344 = !{i64 337}
!345 = !{i64 338}
!346 = !{i64 339}
!347 = !{i64 340}
!348 = !{i64 341}
!349 = !{i64 342}
!350 = !{i64 343}
!351 = !{i64 344}
!352 = !{i64 345}
!353 = !{i64 346}
!354 = !{i64 347}
!355 = !{i64 348}
!356 = !{i64 349}
!357 = !{i64 350}
!358 = !{i64 351}
!359 = !{i64 352}
!360 = !{i64 353}
!361 = !{i64 354}
!362 = !{i64 355}
!363 = !{i64 356}
!364 = !{i64 357}
!365 = distinct !{!365, !62}
!366 = !{i64 358}
!367 = !{i64 359}
!368 = !{i64 360}
!369 = !{i64 361}
!370 = !{i64 362}
!371 = !{i64 363}
!372 = !{i64 364}
!373 = !{i64 365}
!374 = !{i64 366}
!375 = !{i64 367}
!376 = !{i64 368}
!377 = !{i64 369}
!378 = !{i64 370}
!379 = !{i64 371}
!380 = !{i64 372}
!381 = !{i64 373}
!382 = !{i64 374}
!383 = !{i64 375}
!384 = !{i64 376}
!385 = !{i64 377}
!386 = !{i64 378}
!387 = !{i64 379}
!388 = !{i64 380}
!389 = !{i64 381}
!390 = !{i64 382}
!391 = !{i64 383}
!392 = !{i64 384}
!393 = !{i64 385}
!394 = !{i64 386}
!395 = !{i64 387}
!396 = !{i64 388}
!397 = !{i64 389}
!398 = !{i64 390}
!399 = !{i64 391}
!400 = !{i64 392}
!401 = !{i64 393}
!402 = !{i64 394}
!403 = !{i64 395}
!404 = !{i64 396}
!405 = !{i64 397}
!406 = !{i64 398}
!407 = !{i64 399}
!408 = !{i64 400}
!409 = !{i64 401}
!410 = !{i64 402}
!411 = !{i64 403}
!412 = !{i64 404}
!413 = !{i64 405}
!414 = !{i64 406}
!415 = !{i64 407}
!416 = !{i64 408}
!417 = !{i64 409}
!418 = !{i64 410}
!419 = !{i64 411}
!420 = !{i64 412}
!421 = !{i64 413}
!422 = !{i64 414}
!423 = !{i64 415}
!424 = !{i64 416}
!425 = !{i64 417}
!426 = !{i64 418}
!427 = !{i64 419}
!428 = !{i64 420}
!429 = !{i64 421}
!430 = !{i64 422}
!431 = !{i64 423}
!432 = !{i64 424}
!433 = !{i64 425}
!434 = !{i64 426}
!435 = !{i64 427}
!436 = !{i64 428}
!437 = !{i64 429}
!438 = !{i64 430}
!439 = !{i64 431}
!440 = !{i64 432}
!441 = !{i64 433}
!442 = !{i64 434}
!443 = !{i64 435}
!444 = !{i64 436}
!445 = !{i64 437}
!446 = !{i64 438}
!447 = !{i64 439}
!448 = !{i64 440}
!449 = !{i64 441}
!450 = !{i64 442}
!451 = !{i64 443}
!452 = !{i64 444}
!453 = !{i64 445}
!454 = !{i64 446}
!455 = !{i64 447}
!456 = !{i64 448}
!457 = !{i64 449}
!458 = !{i64 450}
!459 = !{i64 451}
!460 = !{i64 452}
!461 = !{i64 453}
!462 = !{i64 454}
!463 = !{i64 455}
!464 = !{i64 456}
!465 = !{i64 457}
!466 = !{i64 458}
!467 = !{i64 459}
!468 = !{i64 460}
!469 = !{i64 461}
!470 = !{i64 462}
!471 = !{i64 463}
!472 = !{i64 464}
!473 = !{i64 465}
!474 = !{i64 466}
!475 = !{i64 467}
!476 = !{i64 468}
!477 = !{i64 469}
!478 = !{i64 470}
!479 = !{i64 471}
!480 = !{i64 472}
!481 = !{i64 473}
!482 = !{i64 474}
!483 = !{i64 475}
!484 = !{i64 476}
!485 = !{i64 477}
!486 = !{i64 478}
!487 = !{i64 479}
!488 = !{i64 480}
!489 = !{i64 481}
!490 = !{i64 482}
!491 = !{i64 483}
!492 = !{i64 484}
!493 = !{i64 485}
!494 = !{i64 486}
!495 = !{i64 487}
!496 = !{i64 488}
!497 = !{i64 489}
!498 = !{i64 490}
!499 = !{i64 491}
!500 = !{i64 492}
!501 = !{i64 493}
!502 = !{i64 494}
!503 = !{i64 495}
!504 = !{i64 496}
!505 = !{i64 497}
!506 = !{i64 498}
!507 = !{i64 499}
!508 = !{i64 500}
!509 = !{i64 501}
!510 = !{i64 502}
!511 = !{i64 503}
!512 = !{i64 504}
!513 = !{i64 505}
!514 = !{i64 506}
!515 = !{i64 507}
!516 = !{i64 508}
!517 = !{i64 509}
!518 = !{i64 510}
!519 = !{i64 511}
!520 = !{i64 512}
!521 = !{i64 513}
!522 = !{i64 514}
!523 = !{i64 515}
!524 = !{i64 516}
!525 = !{i64 517}
!526 = !{i64 518}
!527 = !{i64 519}
!528 = !{i64 520}
!529 = !{i64 521}
!530 = !{i64 522}
!531 = !{i64 523}
!532 = !{i64 524}
!533 = !{i64 525}
!534 = !{i64 526}
!535 = !{i64 527}
!536 = !{i64 528}
!537 = !{i64 529}
!538 = !{i64 530}
!539 = !{i64 531}
!540 = !{i64 532}
!541 = !{i64 533}
!542 = !{i64 534}
!543 = !{i64 535}
!544 = !{i64 536}
!545 = !{i64 537}
!546 = !{i64 538}
!547 = !{i64 539}
!548 = !{i64 540}
!549 = !{i64 541}
!550 = !{i64 542}
!551 = !{i64 543}
!552 = !{i64 544}
!553 = !{i64 545}
!554 = !{i64 546}
!555 = !{i64 547}
!556 = !{i64 548}
!557 = !{i64 549}
!558 = !{i64 550}
!559 = !{i64 551}
!560 = !{i64 552}
!561 = !{i64 553}
!562 = !{i64 554}
!563 = !{i64 555}
!564 = !{i64 556}
!565 = !{i64 557}
!566 = !{i64 558}
!567 = !{i64 559}
!568 = !{i64 560}
!569 = !{i64 561}
!570 = !{i64 562}
!571 = !{i64 563}
!572 = !{i64 564}
!573 = !{i64 565}
!574 = !{i64 566}
!575 = !{i64 567}
!576 = !{i64 568}
!577 = !{i64 569}
!578 = !{i64 570}
!579 = !{i64 571}
!580 = !{i64 572}
!581 = !{i64 573}
!582 = !{i64 574}
!583 = !{i64 575}
!584 = !{i64 576}
!585 = !{i64 577}
!586 = !{i64 578}
!587 = !{i64 579}
!588 = !{i64 580}
!589 = !{i64 581}
!590 = !{i64 582}
!591 = !{i64 583}
!592 = !{i64 584}
!593 = !{i64 585}
!594 = !{i64 586}
!595 = !{i64 587}
!596 = !{i64 588}
!597 = !{i64 589}
!598 = !{i64 590}
!599 = !{i64 591}
!600 = !{i64 592}
!601 = !{i64 593}
!602 = !{i64 594}
!603 = !{i64 595}
!604 = !{i64 596}
!605 = !{i64 597}
!606 = !{i64 598}
!607 = !{i64 599}
!608 = !{i64 600}
!609 = !{i64 601}
!610 = !{i64 602}
!611 = !{i64 603}
!612 = !{i64 604}
!613 = !{i64 605}
!614 = !{i64 606}
!615 = !{i64 607}
!616 = !{i64 608}
!617 = !{i64 609}
!618 = !{i64 610}
!619 = !{i64 611}
!620 = !{i64 612}
!621 = !{i64 613}
!622 = !{i64 614}
!623 = !{i64 615}
!624 = !{i64 616}
!625 = !{i64 617}
!626 = !{i64 618}
!627 = !{i64 619}
!628 = !{i64 620}
!629 = !{i64 621}
!630 = !{i64 622}
!631 = !{i64 623}
!632 = !{i64 624}
!633 = !{i64 625}
!634 = !{i64 626}
!635 = !{i64 627}
!636 = !{i64 628}
!637 = !{i64 629}
!638 = !{i64 630}
!639 = !{i64 631}
!640 = !{i64 632}
!641 = !{i64 633}
!642 = !{i64 634}
!643 = !{i64 635}
!644 = !{i64 636}
!645 = !{i64 637}
!646 = !{i64 638}
!647 = !{i64 639}
!648 = !{i64 640}
!649 = !{i64 641}
!650 = !{i64 642}
!651 = !{i64 643}
!652 = !{i64 644}
!653 = !{i64 645}
!654 = !{i64 646}
!655 = !{i64 647}
!656 = !{i64 648}
!657 = !{i64 649}
!658 = !{i64 650}
!659 = !{i64 651}
!660 = !{i64 652}
!661 = !{i64 653}
!662 = !{i64 654}
!663 = !{i64 655}
!664 = !{i64 656}
!665 = !{i64 657}
!666 = !{i64 658}
!667 = !{i64 659}
!668 = !{i64 660}
!669 = !{i64 661}
!670 = !{i64 662}
!671 = !{i64 663}
!672 = !{i64 664}
!673 = !{i64 665}
!674 = !{i64 666}
!675 = !{i64 667}
!676 = !{i64 668}
!677 = !{i64 669}
!678 = !{i64 670}
!679 = !{i64 671}
!680 = !{i64 672}
!681 = !{i64 673}
!682 = !{i64 674}
!683 = !{i64 675}
!684 = !{i64 676}
!685 = !{i64 677}
!686 = !{i64 678}
!687 = !{i64 679}
!688 = !{i64 680}
!689 = !{i64 681}
!690 = !{i64 682}
!691 = !{i64 683}
!692 = !{i64 684}
!693 = !{i64 685}
!694 = !{i64 686}
!695 = !{i64 687}
!696 = !{i64 688}
!697 = !{i64 689}
!698 = !{i64 690}
!699 = !{i64 691}
!700 = !{i64 692}
!701 = !{i64 693}
!702 = !{i64 694}
!703 = !{i64 695}
!704 = !{i64 696}
!705 = !{i64 697}
!706 = !{i64 698}
!707 = !{i64 699}
!708 = !{i64 700}
!709 = !{i64 701}
!710 = !{i64 702}
!711 = !{i64 703}
!712 = !{i64 704}
!713 = !{i64 705}
!714 = !{i64 706}
!715 = !{i64 707}
!716 = !{i64 708}
!717 = !{i64 709}
!718 = !{i64 710}
!719 = !{i64 711}
!720 = !{i64 712}
!721 = !{i64 713}
!722 = !{i64 714}
!723 = !{i64 715}
!724 = !{i64 716}
!725 = !{i64 717}
!726 = !{i64 718}
!727 = !{i64 719}
!728 = !{i64 720}
!729 = !{i64 721}
!730 = !{i64 722}
!731 = !{i64 723}
!732 = !{i64 724}
!733 = !{i64 725}
!734 = !{i64 726}
!735 = !{i64 727}
!736 = !{i64 728}
!737 = !{i64 729}
!738 = !{i64 730}
!739 = !{i64 731}
!740 = !{i64 732}
!741 = !{i64 733}
!742 = !{i64 734}
!743 = !{i64 735}
!744 = !{i64 736}
!745 = !{i64 737}
!746 = !{i64 738}
!747 = !{i64 739}
!748 = !{i64 740}
!749 = !{i64 741}
!750 = !{i64 742}
!751 = !{i64 743}
!752 = !{i64 744}
!753 = !{i64 745}
!754 = !{i64 746}
!755 = !{i64 747}
!756 = !{i64 748}
!757 = !{i64 749}
!758 = !{i64 750}
!759 = !{i64 751}
!760 = !{i64 752}
!761 = !{i64 753}
!762 = !{i64 754}
!763 = !{i64 755}
!764 = !{i64 756}
!765 = !{i64 757}
!766 = !{i64 758}
!767 = !{i64 759}
!768 = !{i64 760}
!769 = !{i64 761}
!770 = !{i64 762}
!771 = !{i64 763}
!772 = !{i64 764}
!773 = !{i64 765}
!774 = !{i64 766}
!775 = !{i64 767}
!776 = !{i64 768}
!777 = !{i64 769}
!778 = !{i64 770}
!779 = !{i64 771}
!780 = !{i64 772}
!781 = !{i64 773}
!782 = !{i64 774}
!783 = !{i64 775}
!784 = !{i64 776}
!785 = !{i64 777}
!786 = !{i64 778}
!787 = !{i64 779}
!788 = !{i64 780}
!789 = !{i64 781}
!790 = !{i64 782}
!791 = !{i64 783}
!792 = !{i64 784}
!793 = !{i64 785}
!794 = !{i64 786}
!795 = !{i64 787}
!796 = !{i64 788}
!797 = !{i64 789}
!798 = !{i64 790}
!799 = !{i64 791}
!800 = !{i64 792}
!801 = !{i64 793}
!802 = !{i64 794}
!803 = !{i64 795}
!804 = !{i64 796}
!805 = !{i64 797}
!806 = !{i64 798}
!807 = !{i64 799}
!808 = !{i64 800}
!809 = !{i64 801}
!810 = !{i64 802}
!811 = !{i64 803}
!812 = !{i64 804}
!813 = !{i64 805}
!814 = !{i64 806}
!815 = !{i64 807}
!816 = !{i64 808}
!817 = !{i64 809}
!818 = !{i64 810}
!819 = !{i64 811}
!820 = !{i64 812}
!821 = !{i64 813}
!822 = !{i64 814}
!823 = !{i64 815}
!824 = !{i64 816}
!825 = !{i64 817}
!826 = !{i64 818}
!827 = !{i64 819}
!828 = !{i64 820}
!829 = !{i64 821}
!830 = !{i64 822}
!831 = !{i64 823}
!832 = !{i64 824}
!833 = !{i64 825}
!834 = !{i64 826}
!835 = !{i64 827}
!836 = !{i64 828}
!837 = !{i64 829}
!838 = !{i64 830}
!839 = !{i64 831}
!840 = !{i64 832}
!841 = !{i64 833}
!842 = !{i64 834}
!843 = !{i64 835}
!844 = !{i64 836}
!845 = !{i64 837}
!846 = !{i64 838}
!847 = !{i64 839}
!848 = !{i64 840}
!849 = !{i64 841}
!850 = !{i64 842}
!851 = !{i64 843}
!852 = !{i64 844}
!853 = !{i64 845}
!854 = !{i64 846}
!855 = !{i64 847}
!856 = !{i64 848}
!857 = !{i64 849}
!858 = !{i64 850}
!859 = !{i64 851}
!860 = !{i64 852}
!861 = !{i64 853}
!862 = !{i64 854}
!863 = !{i64 855}
!864 = !{i64 856}
!865 = !{i64 857}
!866 = !{i64 858}
!867 = !{i64 859}
!868 = !{i64 860}
!869 = !{i64 861}
!870 = !{i64 862}
!871 = !{i64 863}
!872 = !{i64 864}
!873 = !{i64 865}
!874 = !{i64 866}
!875 = !{i64 867}
!876 = !{i64 868}
!877 = !{i64 869}
!878 = !{i64 870}
!879 = !{i64 871}
!880 = !{i64 872}
!881 = !{i64 873}
!882 = !{i64 874}
!883 = !{i64 875}
!884 = !{i64 876}
!885 = !{i64 877}
!886 = !{i64 878}
!887 = !{i64 879}
!888 = !{i64 880}
!889 = !{i64 881}
!890 = !{i64 882}
!891 = !{i64 883}
!892 = !{i64 884}
!893 = !{i64 885}
!894 = !{i64 886}
!895 = !{i64 887}
!896 = !{i64 888}
!897 = !{i64 889}
!898 = !{i64 890}
!899 = !{i64 891}
!900 = !{i64 892}
!901 = !{i64 893}
!902 = !{i64 894}
!903 = !{i64 895}
!904 = !{i64 896}
!905 = !{i64 897}
!906 = !{i64 898}
!907 = !{i64 899}
!908 = !{i64 900}
!909 = !{i64 901}
!910 = !{i64 902}
!911 = !{i64 903}
!912 = !{i64 904}
!913 = !{i64 905}
!914 = !{i64 906}
!915 = !{i64 907}
!916 = !{i64 908}
!917 = !{i64 909}
!918 = !{i64 910}
!919 = !{i64 911}
!920 = !{i64 912}
!921 = !{i64 913}
!922 = !{i64 914}
!923 = !{i64 915}
!924 = !{i64 916}
!925 = !{i64 917}
!926 = !{i64 918}
!927 = !{i64 919}
!928 = !{i64 920}
!929 = !{i64 921}
!930 = !{i64 922}
!931 = !{i64 923}
!932 = !{i64 924}
!933 = !{i64 925}
!934 = !{i64 926}
!935 = !{i64 927}
!936 = !{i64 928}
!937 = !{i64 929}
!938 = !{i64 930}
!939 = !{i64 931}
!940 = !{i64 932}
!941 = !{i64 933}
!942 = !{i64 934}
!943 = !{i64 935}
!944 = !{i64 936}
!945 = !{i64 937}
!946 = !{i64 938}
!947 = !{i64 939}
!948 = !{i64 940}
!949 = !{i64 941}
!950 = !{i64 942}
!951 = !{i64 943}
!952 = !{i64 944}
!953 = !{i64 945}
!954 = !{i64 946}
!955 = !{i64 947}
!956 = !{i64 948}
!957 = !{i64 949}
!958 = !{i64 950}
!959 = !{i64 951}
!960 = !{i64 952}
!961 = !{i64 953}
!962 = !{i64 954}
!963 = !{i64 955}
!964 = !{i64 956}
!965 = !{i64 957}
!966 = !{i64 958}
!967 = !{i64 959}
!968 = !{i64 960}
!969 = !{i64 961}
!970 = !{i64 962}
!971 = !{i64 963}
!972 = !{i64 964}
!973 = !{i64 965}
!974 = !{i64 966}
!975 = !{i64 967}
!976 = !{i64 968}
!977 = !{i64 969}
!978 = !{i64 970}
!979 = !{i64 971}
!980 = !{i64 972}
!981 = !{i64 973}
!982 = !{i64 974}
!983 = !{i64 975}
!984 = !{i64 976}
!985 = !{i64 977}
!986 = !{i64 978}
!987 = !{i64 979}
!988 = !{i64 980}
!989 = !{i64 981}
!990 = !{i64 982}
!991 = !{i64 983}
!992 = !{i64 984}
!993 = !{i64 985}
!994 = !{i64 986}
!995 = !{i64 987}
!996 = !{i64 988}
!997 = !{i64 989}
!998 = !{i64 990}
!999 = !{i64 991}
!1000 = !{i64 992}
!1001 = !{i64 993}
!1002 = !{i64 994}
!1003 = !{i64 995}
!1004 = !{i64 996}
!1005 = !{i64 997}
!1006 = !{i64 998}
!1007 = !{i64 999}
!1008 = !{i64 1000}
!1009 = !{i64 1001}
!1010 = !{i64 1002}
!1011 = !{i64 1003}
!1012 = !{i64 1004}
!1013 = !{i64 1005}
!1014 = !{i64 1006}
!1015 = !{i64 1007}
!1016 = !{i64 1008}
!1017 = !{i64 1009}
!1018 = !{i64 1010}
!1019 = !{i64 1011}
!1020 = !{i64 1012}
!1021 = !{i64 1013}
!1022 = !{i64 1014}
!1023 = !{i64 1015}
!1024 = !{i64 1016}
!1025 = !{i64 1017}
!1026 = !{i64 1018}
!1027 = !{i64 1019}
!1028 = !{i64 1020}
!1029 = !{i64 1021}
!1030 = !{i64 1022}
!1031 = distinct !{!1031, !62}
!1032 = !{i64 1023}
!1033 = !{i64 1024}
!1034 = !{i64 1025}
!1035 = !{i64 1026}
!1036 = !{i64 1027}
!1037 = !{i64 1028}
!1038 = !{i64 1029}
!1039 = !{i64 1030}
!1040 = !{i64 1031}
!1041 = !{i64 1032}
!1042 = !{i64 1033}
!1043 = !{i64 1034}
!1044 = !{i64 1035}
!1045 = !{i64 1036}
!1046 = !{i64 1037}
!1047 = !{i64 1038}
!1048 = !{i64 1039}
!1049 = !{i64 1040}
!1050 = !{i64 1041}
!1051 = !{i64 1042}
!1052 = !{i64 1043}
!1053 = !{i64 1044}
!1054 = !{i64 1045}
!1055 = !{i64 1046}
!1056 = !{i64 1047}
!1057 = !{i64 1048}
!1058 = !{i64 1049}
!1059 = !{i64 1050}
!1060 = !{i64 1051}
!1061 = !{i64 1052}
!1062 = !{i64 1053}
!1063 = !{i64 1054}
!1064 = !{i64 1055}
!1065 = !{i64 1056}
!1066 = !{i64 1057}
!1067 = !{i64 1058}
!1068 = !{i64 1059}
!1069 = !{i64 1060}
!1070 = !{i64 1061}
!1071 = !{i64 1062}
!1072 = !{i64 1063}
!1073 = !{i64 1064}
!1074 = !{i64 1065}
!1075 = !{i64 1066}
!1076 = !{i64 1067}
!1077 = !{i64 1068}
!1078 = !{i64 1069}
!1079 = !{i64 1070}
!1080 = !{i64 1071}
!1081 = !{i64 1072}
!1082 = !{i64 1073}
!1083 = !{i64 1074}
!1084 = !{i64 1075}
!1085 = !{i64 1076}
!1086 = !{i64 1077}
!1087 = !{i64 1078}
!1088 = !{i64 1079}
!1089 = !{i64 1080}
!1090 = !{i64 1081}
!1091 = !{i64 1082}
!1092 = !{i64 1083}
!1093 = !{i64 1084}
!1094 = !{i64 1085}
!1095 = !{i64 1086}
!1096 = !{i64 1087}
!1097 = !{i64 1088}
!1098 = !{i64 1089}
!1099 = !{i64 1090}
!1100 = !{i64 1091}
!1101 = !{i64 1092}
!1102 = !{i64 1093}
!1103 = !{i64 1094}
!1104 = !{i64 1095}
!1105 = !{i64 1096}
!1106 = !{i64 1097}
!1107 = !{i64 1098}
!1108 = !{i64 1099}
!1109 = !{i64 1100}
!1110 = !{i64 1101}
!1111 = !{i64 1102}
!1112 = !{i64 1103}
!1113 = !{i64 1104}
!1114 = !{i64 1105}
!1115 = !{i64 1106}
!1116 = !{i64 1107}
!1117 = !{i64 1108}
!1118 = !{i64 1109}
!1119 = !{i64 1110}
!1120 = !{i64 1111}
!1121 = !{i64 1112}
!1122 = !{i64 1113}
!1123 = !{i64 1114}
!1124 = !{i64 1115}
!1125 = !{i64 1116}
!1126 = !{i64 1117}
!1127 = !{i64 1118}
!1128 = !{i64 1119}
!1129 = !{i64 1120}
!1130 = !{i64 1121}
!1131 = !{i64 1122}
!1132 = !{i64 1123}
!1133 = !{i64 1124}
!1134 = !{i64 1125}
!1135 = !{i64 1126}
!1136 = !{i64 1127}
!1137 = !{i64 1128}
!1138 = !{i64 1129}
!1139 = !{i64 1130}
!1140 = !{i64 1131}
!1141 = !{i64 1132}
!1142 = !{i64 1133}
!1143 = !{i64 1134}
!1144 = !{i64 1135}
!1145 = !{i64 1136}
!1146 = !{i64 1137}
!1147 = !{i64 1138}
!1148 = !{i64 1139}
!1149 = !{i64 1140}
!1150 = !{i64 1141}
!1151 = !{i64 1142}
!1152 = !{i64 1143}
!1153 = !{i64 1144}
!1154 = !{i64 1145}
!1155 = !{i64 1146}
!1156 = !{i64 1147}
!1157 = !{i64 1148}
!1158 = !{i64 1149}
!1159 = !{i64 1150}
!1160 = !{i64 1151}
!1161 = !{i64 1152}
!1162 = !{i64 1153}
!1163 = !{i64 1154}
!1164 = !{i64 1155}
!1165 = !{i64 1156}
!1166 = !{i64 1157}
!1167 = !{i64 1158}
!1168 = !{i64 1159}
!1169 = !{i64 1160}
!1170 = !{i64 1161}
!1171 = !{i64 1162}
!1172 = !{i64 1163}
!1173 = !{i64 1164}
!1174 = !{i64 1165}
!1175 = !{i64 1166}
!1176 = !{i64 1167}
!1177 = !{i64 1168}
!1178 = !{i64 1169}
!1179 = !{i64 1170}
!1180 = !{i64 1171}
!1181 = !{i64 1172}
!1182 = !{i64 1173}
!1183 = !{i64 1174}
!1184 = !{i64 1175}
!1185 = !{i64 1176}
!1186 = !{i64 1177}
!1187 = !{i64 1178}
!1188 = !{i64 1179}
!1189 = !{i64 1180}
!1190 = !{i64 1181}
!1191 = !{i64 1182}
!1192 = !{i64 1183}
!1193 = !{i64 1184}
!1194 = !{i64 1185}
!1195 = !{i64 1186}
!1196 = !{i64 1187}
!1197 = !{i64 1188}
!1198 = !{i64 1189}
!1199 = !{i64 1190}
!1200 = !{i64 1191}
!1201 = !{i64 1192}
!1202 = !{i64 1193}
!1203 = !{i64 1194}
!1204 = !{i64 1195}
!1205 = !{i64 1196}
!1206 = !{i64 1197}
!1207 = !{i64 1198}
!1208 = !{i64 1199}
!1209 = !{i64 1200}
!1210 = !{i64 1201}
!1211 = !{i64 1202}
!1212 = !{i64 1203}
!1213 = !{i64 1204}
!1214 = !{i64 1205}
!1215 = !{i64 1206}
!1216 = !{i64 1207}
!1217 = !{i64 1208}
!1218 = !{i64 1209}
!1219 = !{i64 1210}
!1220 = !{i64 1211}
!1221 = !{i64 1212}
!1222 = !{i64 1213}
!1223 = !{i64 1214}
!1224 = !{i64 1215}
!1225 = !{i64 1216}
!1226 = !{i64 1217}
!1227 = !{i64 1218}
!1228 = !{i64 1219}
!1229 = !{i64 1220}
!1230 = !{i64 1221}
!1231 = !{i64 1222}
!1232 = !{i64 1223}
!1233 = !{i64 1224}
!1234 = !{i64 1225}
!1235 = !{i64 1226}
!1236 = !{i64 1227}
!1237 = !{i64 1228}
!1238 = !{i64 1229}
!1239 = !{i64 1230}
!1240 = !{i64 1231}
!1241 = !{i64 1232}
!1242 = !{i64 1233}
!1243 = !{i64 1234}
!1244 = !{i64 1235}
!1245 = !{i64 1236}
!1246 = !{i64 1237}
!1247 = !{i64 1238}
!1248 = !{i64 1239}
!1249 = !{i64 1240}
!1250 = !{i64 1241}
!1251 = !{i64 1242}
!1252 = !{i64 1243}
!1253 = !{i64 1244}
!1254 = !{i64 1245}
!1255 = !{i64 1246}
!1256 = !{i64 1247}
!1257 = !{i64 1248}
!1258 = !{i64 1249}
!1259 = !{i64 1250}
!1260 = !{i64 1251}
!1261 = !{i64 1252}
!1262 = !{i64 1253}
!1263 = !{i64 1254}
!1264 = !{i64 1255}
!1265 = !{i64 1256}
!1266 = !{i64 1257}
!1267 = !{i64 1258}
!1268 = !{i64 1259}
!1269 = !{i64 1260}
!1270 = !{i64 1261}
!1271 = !{i64 1262}
!1272 = !{i64 1263}
!1273 = !{i64 1264}
!1274 = !{i64 1265}
!1275 = !{i64 1266}
!1276 = !{i64 1267}
!1277 = !{i64 1268}
!1278 = !{i64 1269}
!1279 = !{i64 1270}
!1280 = !{i64 1271}
!1281 = !{i64 1272}
!1282 = !{i64 1273}
!1283 = !{i64 1274}
!1284 = !{i64 1275}
!1285 = !{i64 1276}
!1286 = !{i64 1277}
!1287 = !{i64 1278}
!1288 = !{i64 1279}
!1289 = !{i64 1280}
!1290 = !{i64 1281}
!1291 = !{i64 1282}
!1292 = !{i64 1283}
!1293 = !{i64 1284}
!1294 = !{i64 1285}
!1295 = !{i64 1286}
!1296 = !{i64 1287}
!1297 = !{i64 1288}
!1298 = !{i64 1289}
!1299 = !{i64 1290}
!1300 = !{i64 1291}
!1301 = !{i64 1292}
!1302 = !{i64 1293}
!1303 = !{i64 1294}
!1304 = !{i64 1295}
!1305 = !{i64 1296}
!1306 = !{i64 1297}
!1307 = !{i64 1298}
!1308 = !{i64 1299}
!1309 = !{i64 1300}
!1310 = !{i64 1301}
!1311 = !{i64 1302}
!1312 = !{i64 1303}
!1313 = !{i64 1304}
!1314 = !{i64 1305}
!1315 = !{i64 1306}
!1316 = !{i64 1307}
!1317 = !{i64 1308}
!1318 = !{i64 1309}
!1319 = !{i64 1310}
!1320 = !{i64 1311}
!1321 = !{i64 1312}
!1322 = !{i64 1313}
!1323 = !{i64 1314}
!1324 = !{i64 1315}
!1325 = !{i64 1316}
!1326 = !{i64 1317}
!1327 = !{i64 1318}
!1328 = !{i64 1319}
!1329 = !{i64 1320}
!1330 = !{i64 1321}
!1331 = !{i64 1322}
!1332 = !{i64 1323}
!1333 = !{i64 1324}
!1334 = !{i64 1325}
!1335 = !{i64 1326}
!1336 = !{i64 1327}
!1337 = !{i64 1328}
!1338 = !{i64 1329}
!1339 = !{i64 1330}
!1340 = !{i64 1331}
!1341 = !{i64 1332}
!1342 = !{i64 1333}
!1343 = !{i64 1334}
!1344 = !{i64 1335}
!1345 = !{i64 1336}
!1346 = !{i64 1337}
!1347 = !{i64 1338}
!1348 = !{i64 1339}
!1349 = !{i64 1340}
!1350 = !{i64 1341}
!1351 = !{i64 1342}
!1352 = !{i64 1343}
!1353 = !{i64 1344}
!1354 = !{i64 1345}
!1355 = !{i64 1346}
!1356 = !{i64 1347}
!1357 = !{i64 1348}
!1358 = !{i64 1349}
!1359 = !{i64 1350}
!1360 = !{i64 1351}
!1361 = !{i64 1352}
!1362 = !{i64 1353}
!1363 = !{i64 1354}
!1364 = !{i64 1355}
!1365 = !{i64 1356}
!1366 = !{i64 1357}
!1367 = !{i64 1358}
!1368 = !{i64 1359}
!1369 = !{i64 1360}
!1370 = !{i64 1361}
!1371 = !{i64 1362}
!1372 = !{i64 1363}
!1373 = !{i64 1364}
!1374 = !{i64 1365}
!1375 = !{i64 1366}
!1376 = !{i64 1367}
!1377 = !{i64 1368}
!1378 = !{i64 1369}
!1379 = !{i64 1370}
!1380 = !{i64 1371}
!1381 = !{i64 1372}
!1382 = !{i64 1373}
!1383 = !{i64 1374}
!1384 = !{i64 1375}
!1385 = !{i64 1376}
!1386 = !{i64 1377}
!1387 = !{i64 1378}
!1388 = !{i64 1379}
!1389 = !{i64 1380}
!1390 = !{i64 1381}
!1391 = !{i64 1382}
!1392 = !{i64 1383}
!1393 = !{i64 1384}
!1394 = !{i64 1385}
!1395 = !{i64 1386}
!1396 = !{i64 1387}
!1397 = !{i64 1388}
!1398 = !{i64 1389}
!1399 = !{i64 1390}
!1400 = !{i64 1391}
!1401 = !{i64 1392}
!1402 = !{i64 1393}
!1403 = !{i64 1394}
!1404 = !{i64 1395}
!1405 = !{i64 1396}
!1406 = !{i64 1397}
!1407 = !{i64 1398}
!1408 = !{i64 1399}
!1409 = !{i64 1400}
!1410 = !{i64 1401}
!1411 = !{i64 1402}
!1412 = !{i64 1403}
!1413 = !{i64 1404}
!1414 = !{i64 1405}
!1415 = !{i64 1406}
!1416 = !{i64 1407}
!1417 = !{i64 1408}
!1418 = !{i64 1409}
!1419 = !{i64 1410}
!1420 = !{i64 1411}
!1421 = !{i64 1412}
!1422 = !{i64 1413}
!1423 = !{i64 1414}
!1424 = !{i64 1415}
!1425 = !{i64 1416}
!1426 = !{i64 1417}
!1427 = !{i64 1418}
!1428 = !{i64 1419}
!1429 = !{i64 1420}
!1430 = !{i64 1421}
!1431 = !{i64 1422}
!1432 = !{i64 1423}
!1433 = !{i64 1424}
!1434 = !{i64 1425}
!1435 = !{i64 1426}
!1436 = !{i64 1427}
!1437 = !{i64 1428}
!1438 = !{i64 1429}
!1439 = !{i64 1430}
!1440 = !{i64 1431}
!1441 = !{i64 1432}
!1442 = !{i64 1433}
!1443 = !{i64 1434}
!1444 = !{i64 1435}
!1445 = !{i64 1436}
!1446 = !{i64 1437}
!1447 = !{i64 1438}
!1448 = !{i64 1439}
!1449 = !{i64 1440}
!1450 = !{i64 1441}
!1451 = !{i64 1442}
!1452 = !{i64 1443}
!1453 = !{i64 1444}
!1454 = !{i64 1445}
!1455 = !{i64 1446}
!1456 = !{i64 1447}
!1457 = !{i64 1448}
!1458 = !{i64 1449}
!1459 = !{i64 1450}
!1460 = !{i64 1451}
!1461 = !{i64 1452}
!1462 = !{i64 1453}
!1463 = distinct !{!1463, !62}
!1464 = !{i64 1454}
!1465 = !{i64 1455}
!1466 = !{i64 1456}
!1467 = !{i64 1457}
!1468 = !{i64 1458}
!1469 = !{i64 1459}
!1470 = !{i64 1460}
!1471 = !{i64 1461}
!1472 = !{i64 1462}
!1473 = !{i64 1463}
!1474 = !{i64 1464}
!1475 = !{i64 1465}
!1476 = !{i64 1466}
!1477 = !{i64 1467}
!1478 = !{i64 1468}
!1479 = !{i64 1469}
!1480 = !{i64 1470}
!1481 = !{i64 1471}
!1482 = !{i64 1472}
!1483 = !{i64 1473}
!1484 = !{i64 1474}
!1485 = !{i64 1475}
!1486 = !{i64 1476}
!1487 = !{i64 1477}
!1488 = !{i64 1478}
!1489 = !{i64 1479}
!1490 = !{i64 1480}
!1491 = !{i64 1481}
!1492 = !{i64 1482}
!1493 = !{i64 1483}
!1494 = !{i64 1484}
!1495 = !{i64 1485}
!1496 = !{i64 1486}
!1497 = !{i64 1487}
!1498 = !{i64 1488}
!1499 = !{i64 1489}
!1500 = !{i64 1490}
!1501 = !{i64 1491}
!1502 = !{i64 1492}
!1503 = !{i64 1493}
!1504 = !{i64 1494}
!1505 = !{i64 1495}
!1506 = !{i64 1496}
!1507 = !{i64 1497}
!1508 = !{i64 1498}
!1509 = !{i64 1499}
!1510 = !{i64 1500}
!1511 = !{i64 1501}
!1512 = !{i64 1502}
!1513 = !{i64 1503}
!1514 = !{i64 1504}
!1515 = !{i64 1505}
!1516 = !{i64 1506}
!1517 = !{i64 1507}
!1518 = !{i64 1508}
!1519 = !{i64 1509}
!1520 = !{i64 1510}
!1521 = !{i64 1511}
!1522 = !{i64 1512}
!1523 = !{i64 1513}
!1524 = !{i64 1514}
!1525 = !{i64 1515}
!1526 = !{i64 1516}
!1527 = !{i64 1517}
!1528 = !{i64 1518}
!1529 = !{i64 1519}
!1530 = !{i64 1520}
!1531 = !{i64 1521}
!1532 = !{i64 1522}
