; ModuleID = '/home/hjiang/Computation-Kernel-Dataset/experiments/Fault_injection_0308_parall/O0/SimpleTreeCounting/SimpleTreeCounting.ll'
source_filename = "llvm-link"
target datalayout = "e-m:e-p270:32:32-p271:32:32-p272:64:64-i64:64-f80:128-n8:16:32:64-S128"
target triple = "x86_64-unknown-linux-gnu"

%"struct.std::less" = type { i8 }
%struct.T = type { i8, [2 x %struct.T*], %struct.T*, %struct.T*, i32, i32 }
%"class.std::map" = type { %"class.std::_Rb_tree" }
%"class.std::_Rb_tree" = type { %"struct.std::_Rb_tree<std::pair<int, int>, std::pair<const std::pair<int, int>, T *>, std::_Select1st<std::pair<const std::pair<int, int>, T *>>, std::less<std::pair<int, int>>>::_Rb_tree_impl" }
%"struct.std::_Rb_tree<std::pair<int, int>, std::pair<const std::pair<int, int>, T *>, std::_Select1st<std::pair<const std::pair<int, int>, T *>>, std::less<std::pair<int, int>>>::_Rb_tree_impl" = type { %"struct.std::_Rb_tree_key_compare", %"struct.std::_Rb_tree_header" }
%"struct.std::_Rb_tree_key_compare" = type { %"struct.std::less" }
%"struct.std::_Rb_tree_header" = type { %"struct.std::_Rb_tree_node_base", i64 }
%"struct.std::_Rb_tree_node_base" = type { i32, %"struct.std::_Rb_tree_node_base"*, %"struct.std::_Rb_tree_node_base"*, %"struct.std::_Rb_tree_node_base"* }
%struct._IO_FILE = type { i32, i8*, i8*, i8*, i8*, i8*, i8*, i8*, i8*, i8*, i8*, i8*, %struct._IO_marker*, %struct._IO_FILE*, i32, i32, i64, i16, i8, [1 x i8], i8*, i64, %struct._IO_codecvt*, %struct._IO_wide_data*, %struct._IO_FILE*, i8*, i64, i32, [20 x i8] }
%struct._IO_marker = type opaque
%struct._IO_codecvt = type opaque
%struct._IO_wide_data = type opaque
%"struct.std::_Rb_tree_node" = type { %"struct.std::_Rb_tree_node_base", %"struct.__gnu_cxx::__aligned_membuf" }
%"struct.__gnu_cxx::__aligned_membuf" = type { [16 x i8] }
%"struct.std::pair.0" = type { %"struct.std::pair", %struct.T* }
%"struct.std::pair" = type { i32, i32 }
%"struct.std::_Rb_tree_iterator" = type { %"struct.std::_Rb_tree_node_base"* }
%"class.std::tuple" = type { %"struct.std::_Tuple_impl" }
%"struct.std::_Tuple_impl" = type { %"struct.std::_Head_base" }
%"struct.std::_Head_base" = type { %"struct.std::pair"* }
%"struct.std::pair.4" = type { %"struct.std::_Rb_tree_node_base"*, %"struct.std::_Rb_tree_node_base"* }

$_ZNSt3mapISt4pairIiiEP1TSt4lessIS1_ESaIS0_IKS1_S3_EEEC2Ev = comdat any

$_ZNSt3mapISt4pairIiiEP1TSt4lessIS1_ESaIS0_IKS1_S3_EEED2Ev = comdat any

$_ZNSt8_Rb_treeISt4pairIiiES0_IKS1_P1TESt10_Select1stIS5_ESt4lessIS1_ESaIS5_EED2Ev = comdat any

$_ZNSt8_Rb_treeISt4pairIiiES0_IKS1_P1TESt10_Select1stIS5_ESt4lessIS1_ESaIS5_EE8_M_beginEv = comdat any

$_ZNSt8_Rb_treeISt4pairIiiES0_IKS1_P1TESt10_Select1stIS5_ESt4lessIS1_ESaIS5_EE8_M_eraseEPSt13_Rb_tree_nodeIS5_E = comdat any

$_ZNSt8_Rb_treeISt4pairIiiES0_IKS1_P1TESt10_Select1stIS5_ESt4lessIS1_ESaIS5_EE13_Rb_tree_implIS9_Lb1EED2Ev = comdat any

$__clang_call_terminate = comdat any

$_ZNSaISt13_Rb_tree_nodeISt4pairIKS0_IiiEP1TEEED2Ev = comdat any

$_ZN9__gnu_cxx13new_allocatorISt13_Rb_tree_nodeISt4pairIKS2_IiiEP1TEEED2Ev = comdat any

$_ZNSt8_Rb_treeISt4pairIiiES0_IKS1_P1TESt10_Select1stIS5_ESt4lessIS1_ESaIS5_EE8_S_rightEPSt18_Rb_tree_node_base = comdat any

$_ZNSt8_Rb_treeISt4pairIiiES0_IKS1_P1TESt10_Select1stIS5_ESt4lessIS1_ESaIS5_EE7_S_leftEPSt18_Rb_tree_node_base = comdat any

$_ZNSt8_Rb_treeISt4pairIiiES0_IKS1_P1TESt10_Select1stIS5_ESt4lessIS1_ESaIS5_EE12_M_drop_nodeEPSt13_Rb_tree_nodeIS5_E = comdat any

$_ZNSt8_Rb_treeISt4pairIiiES0_IKS1_P1TESt10_Select1stIS5_ESt4lessIS1_ESaIS5_EE15_M_destroy_nodeEPSt13_Rb_tree_nodeIS5_E = comdat any

$_ZNSt8_Rb_treeISt4pairIiiES0_IKS1_P1TESt10_Select1stIS5_ESt4lessIS1_ESaIS5_EE11_M_put_nodeEPSt13_Rb_tree_nodeIS5_E = comdat any

$_ZNSt8_Rb_treeISt4pairIiiES0_IKS1_P1TESt10_Select1stIS5_ESt4lessIS1_ESaIS5_EE21_M_get_Node_allocatorEv = comdat any

$_ZNSt16allocator_traitsISaISt13_Rb_tree_nodeISt4pairIKS1_IiiEP1TEEEE10deallocateERS8_PS7_m = comdat any

$_ZN9__gnu_cxx13new_allocatorISt13_Rb_tree_nodeISt4pairIKS2_IiiEP1TEEE10deallocateEPS8_m = comdat any

$_ZNSt13_Rb_tree_nodeISt4pairIKS0_IiiEP1TEE9_M_valptrEv = comdat any

$_ZNSt16allocator_traitsISaISt13_Rb_tree_nodeISt4pairIKS1_IiiEP1TEEEE7destroyIS6_EEvRS8_PT_ = comdat any

$_ZN9__gnu_cxx13new_allocatorISt13_Rb_tree_nodeISt4pairIKS2_IiiEP1TEEE7destroyIS7_EEvPT_ = comdat any

$_ZN9__gnu_cxx16__aligned_membufISt4pairIKS1_IiiEP1TEE6_M_ptrEv = comdat any

$_ZN9__gnu_cxx16__aligned_membufISt4pairIKS1_IiiEP1TEE7_M_addrEv = comdat any

$_ZNSt8_Rb_treeISt4pairIiiES0_IKS1_P1TESt10_Select1stIS5_ESt4lessIS1_ESaIS5_EEC2Ev = comdat any

$_ZNSt8_Rb_treeISt4pairIiiES0_IKS1_P1TESt10_Select1stIS5_ESt4lessIS1_ESaIS5_EE13_Rb_tree_implIS9_Lb1EEC2Ev = comdat any

$_ZNSaISt13_Rb_tree_nodeISt4pairIKS0_IiiEP1TEEEC2Ev = comdat any

$_ZNSt20_Rb_tree_key_compareISt4lessISt4pairIiiEEEC2Ev = comdat any

$_ZNSt15_Rb_tree_headerC2Ev = comdat any

$_ZNSt15_Rb_tree_header8_M_resetEv = comdat any

$_ZN9__gnu_cxx13new_allocatorISt13_Rb_tree_nodeISt4pairIKS2_IiiEP1TEEEC2Ev = comdat any

$_ZSt9make_pairIRiS0_ESt4pairINSt17__decay_and_stripIT_E6__typeENS2_IT0_E6__typeEEOS3_OS6_ = comdat any

$_ZNKSt3mapISt4pairIiiEP1TSt4lessIS1_ESaIS0_IKS1_S3_EEE5countERS6_ = comdat any

$_ZNSt3mapISt4pairIiiEP1TSt4lessIS1_ESaIS0_IKS1_S3_EEEixEOS1_ = comdat any

$_ZNSt3mapISt4pairIiiEP1TSt4lessIS1_ESaIS0_IKS1_S3_EEE11lower_boundERS6_ = comdat any

$_ZNSt3mapISt4pairIiiEP1TSt4lessIS1_ESaIS0_IKS1_S3_EEE3endEv = comdat any

$_ZSteqRKSt17_Rb_tree_iteratorISt4pairIKS0_IiiEP1TEES8_ = comdat any

$_ZNKSt3mapISt4pairIiiEP1TSt4lessIS1_ESaIS0_IKS1_S3_EEE8key_compEv = comdat any

$_ZNKSt17_Rb_tree_iteratorISt4pairIKS0_IiiEP1TEEdeEv = comdat any

$_ZNKSt4lessISt4pairIiiEEclERKS1_S4_ = comdat any

$_ZNSt23_Rb_tree_const_iteratorISt4pairIKS0_IiiEP1TEEC2ERKSt17_Rb_tree_iteratorIS5_E = comdat any

$_ZSt4moveIRSt4pairIiiEEONSt16remove_referenceIT_E4typeEOS4_ = comdat any

$_ZSt16forward_as_tupleIJSt4pairIiiEEESt5tupleIJDpOT_EES5_ = comdat any

$_ZNSt8_Rb_treeISt4pairIiiES0_IKS1_P1TESt10_Select1stIS5_ESt4lessIS1_ESaIS5_EE22_M_emplace_hint_uniqueIJRKSt21piecewise_construct_tSt5tupleIJOS1_EESG_IJEEEEESt17_Rb_tree_iteratorIS5_ESt23_Rb_tree_const_iteratorIS5_EDpOT_ = comdat any

$_ZSt7forwardIRKSt21piecewise_construct_tEOT_RNSt16remove_referenceIS3_E4typeE = comdat any

$_ZSt7forwardISt5tupleIJOSt4pairIiiEEEEOT_RNSt16remove_referenceIS5_E4typeE = comdat any

$_ZSt7forwardISt5tupleIJEEEOT_RNSt16remove_referenceIS2_E4typeE = comdat any

$_ZNSt8_Rb_treeISt4pairIiiES0_IKS1_P1TESt10_Select1stIS5_ESt4lessIS1_ESaIS5_EE14_M_create_nodeIJRKSt21piecewise_construct_tSt5tupleIJOS1_EESG_IJEEEEEPSt13_Rb_tree_nodeIS5_EDpOT_ = comdat any

$_ZNSt8_Rb_treeISt4pairIiiES0_IKS1_P1TESt10_Select1stIS5_ESt4lessIS1_ESaIS5_EE6_S_keyEPKSt13_Rb_tree_nodeIS5_E = comdat any

$_ZNSt8_Rb_treeISt4pairIiiES0_IKS1_P1TESt10_Select1stIS5_ESt4lessIS1_ESaIS5_EE29_M_get_insert_hint_unique_posESt23_Rb_tree_const_iteratorIS5_ERS2_ = comdat any

$_ZNSt8_Rb_treeISt4pairIiiES0_IKS1_P1TESt10_Select1stIS5_ESt4lessIS1_ESaIS5_EE14_M_insert_nodeEPSt18_Rb_tree_node_baseSD_PSt13_Rb_tree_nodeIS5_E = comdat any

$_ZNSt17_Rb_tree_iteratorISt4pairIKS0_IiiEP1TEEC2EPSt18_Rb_tree_node_base = comdat any

$_ZNSt8_Rb_treeISt4pairIiiES0_IKS1_P1TESt10_Select1stIS5_ESt4lessIS1_ESaIS5_EE6_M_endEv = comdat any

$_ZNSt8_Rb_treeISt4pairIiiES0_IKS1_P1TESt10_Select1stIS5_ESt4lessIS1_ESaIS5_EE6_S_keyEPKSt18_Rb_tree_node_base = comdat any

$_ZNKSt23_Rb_tree_const_iteratorISt4pairIKS0_IiiEP1TEE13_M_const_castEv = comdat any

$_ZNKSt8_Rb_treeISt4pairIiiES0_IKS1_P1TESt10_Select1stIS5_ESt4lessIS1_ESaIS5_EE4sizeEv = comdat any

$_ZNSt8_Rb_treeISt4pairIiiES0_IKS1_P1TESt10_Select1stIS5_ESt4lessIS1_ESaIS5_EE12_M_rightmostEv = comdat any

$_ZNSt4pairIPSt18_Rb_tree_node_baseS1_EC2IRS1_Lb1EEERKS1_OT_ = comdat any

$_ZNSt8_Rb_treeISt4pairIiiES0_IKS1_P1TESt10_Select1stIS5_ESt4lessIS1_ESaIS5_EE24_M_get_insert_unique_posERS2_ = comdat any

$_ZNSt8_Rb_treeISt4pairIiiES0_IKS1_P1TESt10_Select1stIS5_ESt4lessIS1_ESaIS5_EE11_M_leftmostEv = comdat any

$_ZNSt4pairIPSt18_Rb_tree_node_baseS1_EC2IRS1_S4_Lb1EEEOT_OT0_ = comdat any

$_ZNSt17_Rb_tree_iteratorISt4pairIKS0_IiiEP1TEEmmEv = comdat any

$_ZNSt17_Rb_tree_iteratorISt4pairIKS0_IiiEP1TEEppEv = comdat any

$_ZNSt4pairIPSt18_Rb_tree_node_baseS1_EC2IRS1_Lb1EEEOT_RKS1_ = comdat any

$_ZSt7forwardIRPSt18_Rb_tree_node_baseEOT_RNSt16remove_referenceIS3_E4typeE = comdat any

$_ZNSt8_Rb_treeISt4pairIiiES0_IKS1_P1TESt10_Select1stIS5_ESt4lessIS1_ESaIS5_EE5beginEv = comdat any

$_ZNSt4pairIPSt18_Rb_tree_node_baseS1_EC2IRPSt13_Rb_tree_nodeIS_IKS_IiiEP1TEERS1_Lb1EEEOT_OT0_ = comdat any

$_ZSt7forwardIRPSt13_Rb_tree_nodeISt4pairIKS1_IiiEP1TEEEOT_RNSt16remove_referenceISA_E4typeE = comdat any

$_ZNKSt13_Rb_tree_nodeISt4pairIKS0_IiiEP1TEE9_M_valptrEv = comdat any

$_ZNKSt10_Select1stISt4pairIKS0_IiiEP1TEEclERKS5_ = comdat any

$_ZNK9__gnu_cxx16__aligned_membufISt4pairIKS1_IiiEP1TEE6_M_ptrEv = comdat any

$_ZNK9__gnu_cxx16__aligned_membufISt4pairIKS1_IiiEP1TEE7_M_addrEv = comdat any

$_ZNSt8_Rb_treeISt4pairIiiES0_IKS1_P1TESt10_Select1stIS5_ESt4lessIS1_ESaIS5_EE11_M_get_nodeEv = comdat any

$_ZNSt8_Rb_treeISt4pairIiiES0_IKS1_P1TESt10_Select1stIS5_ESt4lessIS1_ESaIS5_EE17_M_construct_nodeIJRKSt21piecewise_construct_tSt5tupleIJOS1_EESG_IJEEEEEvPSt13_Rb_tree_nodeIS5_EDpOT_ = comdat any

$_ZNSt16allocator_traitsISaISt13_Rb_tree_nodeISt4pairIKS1_IiiEP1TEEEE9constructIS6_JRKSt21piecewise_construct_tSt5tupleIJOS2_EESE_IJEEEEEvRS8_PT_DpOT0_ = comdat any

$_ZN9__gnu_cxx13new_allocatorISt13_Rb_tree_nodeISt4pairIKS2_IiiEP1TEEE9constructIS7_JRKSt21piecewise_construct_tSt5tupleIJOS3_EESE_IJEEEEEvPT_DpOT0_ = comdat any

$_ZNSt5tupleIJOSt4pairIiiEEEC2EOS3_ = comdat any

$_ZNSt4pairIKS_IiiEP1TEC2IJOS0_EJEEESt21piecewise_construct_tSt5tupleIJDpT_EES8_IJDpT0_EE = comdat any

$_ZNSt4pairIKS_IiiEP1TEC2IJOS0_EJLm0EEJEJEEERSt5tupleIJDpT_EERS7_IJDpT1_EESt12_Index_tupleIJXspT0_EEESG_IJXspT2_EEE = comdat any

$_ZSt3getILm0EJOSt4pairIiiEEERNSt13tuple_elementIXT_ESt5tupleIJDpT0_EEE4typeERS7_ = comdat any

$_ZSt7forwardIOSt4pairIiiEEOT_RNSt16remove_referenceIS3_E4typeE = comdat any

$_ZSt12__get_helperILm0EOSt4pairIiiEJEERT0_RSt11_Tuple_implIXT_EJS3_DpT1_EE = comdat any

$_ZNSt11_Tuple_implILm0EJOSt4pairIiiEEE7_M_headERS3_ = comdat any

$_ZNSt10_Head_baseILm0EOSt4pairIiiELb0EE7_M_headERS3_ = comdat any

$_ZNSt11_Tuple_implILm0EJOSt4pairIiiEEEC2EOS3_ = comdat any

$_ZNSt10_Head_baseILm0EOSt4pairIiiELb0EEC2IS1_EEOT_ = comdat any

$_ZSt7forwardISt4pairIiiEEOT_RNSt16remove_referenceIS2_E4typeE = comdat any

$_ZNSt16allocator_traitsISaISt13_Rb_tree_nodeISt4pairIKS1_IiiEP1TEEEE8allocateERS8_m = comdat any

$_ZN9__gnu_cxx13new_allocatorISt13_Rb_tree_nodeISt4pairIKS2_IiiEP1TEEE8allocateEmPKv = comdat any

$_ZNK9__gnu_cxx13new_allocatorISt13_Rb_tree_nodeISt4pairIKS2_IiiEP1TEEE8max_sizeEv = comdat any

$_ZNSt5tupleIJOSt4pairIiiEEEC2IJS1_ELb1EEEDpOT_ = comdat any

$_ZNSt11_Tuple_implILm0EJOSt4pairIiiEEEC2IS1_EEOT_ = comdat any

$_ZStltIiiEbRKSt4pairIT_T0_ES5_ = comdat any

$_ZNKSt8_Rb_treeISt4pairIiiES0_IKS1_P1TESt10_Select1stIS5_ESt4lessIS1_ESaIS5_EE8key_compEv = comdat any

$_ZNSt8_Rb_treeISt4pairIiiES0_IKS1_P1TESt10_Select1stIS5_ESt4lessIS1_ESaIS5_EE3endEv = comdat any

$_ZNSt8_Rb_treeISt4pairIiiES0_IKS1_P1TESt10_Select1stIS5_ESt4lessIS1_ESaIS5_EE11lower_boundERS2_ = comdat any

$_ZNSt8_Rb_treeISt4pairIiiES0_IKS1_P1TESt10_Select1stIS5_ESt4lessIS1_ESaIS5_EE14_M_lower_boundEPSt13_Rb_tree_nodeIS5_EPSt18_Rb_tree_node_baseRS2_ = comdat any

$_ZNKSt8_Rb_treeISt4pairIiiES0_IKS1_P1TESt10_Select1stIS5_ESt4lessIS1_ESaIS5_EE4findERS2_ = comdat any

$_ZNKSt8_Rb_treeISt4pairIiiES0_IKS1_P1TESt10_Select1stIS5_ESt4lessIS1_ESaIS5_EE3endEv = comdat any

$_ZSteqRKSt23_Rb_tree_const_iteratorISt4pairIKS0_IiiEP1TEES8_ = comdat any

$_ZNSt23_Rb_tree_const_iteratorISt4pairIKS0_IiiEP1TEEC2EPKSt18_Rb_tree_node_base = comdat any

$_ZNKSt8_Rb_treeISt4pairIiiES0_IKS1_P1TESt10_Select1stIS5_ESt4lessIS1_ESaIS5_EE8_M_beginEv = comdat any

$_ZNKSt8_Rb_treeISt4pairIiiES0_IKS1_P1TESt10_Select1stIS5_ESt4lessIS1_ESaIS5_EE6_M_endEv = comdat any

$_ZNKSt8_Rb_treeISt4pairIiiES0_IKS1_P1TESt10_Select1stIS5_ESt4lessIS1_ESaIS5_EE14_M_lower_boundEPKSt13_Rb_tree_nodeIS5_EPKSt18_Rb_tree_node_baseRS2_ = comdat any

$_ZNSt8_Rb_treeISt4pairIiiES0_IKS1_P1TESt10_Select1stIS5_ESt4lessIS1_ESaIS5_EE7_S_leftEPKSt18_Rb_tree_node_base = comdat any

$_ZNSt8_Rb_treeISt4pairIiiES0_IKS1_P1TESt10_Select1stIS5_ESt4lessIS1_ESaIS5_EE8_S_rightEPKSt18_Rb_tree_node_base = comdat any

$_ZSt7forwardIRiEOT_RNSt16remove_referenceIS1_E4typeE = comdat any

$_ZNSt4pairIiiEC2IRiS2_Lb1EEEOT_OT0_ = comdat any

$_ZSt4swapIP1TENSt9enable_ifIXsr6__and_ISt6__not_ISt15__is_tuple_likeIT_EESt21is_move_constructibleIS5_ESt18is_move_assignableIS5_EEE5valueEvE4typeERS5_SE_ = comdat any

$_ZSt4moveIRP1TEONSt16remove_referenceIT_E4typeEOS4_ = comdat any

@llvm.global_ctors = appending global [1 x { i32, void ()*, i8* }] [{ i32, void ()*, i8* } { i32 65535, void ()* @_GLOBAL__sub_I_SimpleTreeCounting.cpp, i8* null }]
@_ZStL8__ioinit = internal global %"struct.std::less" zeroinitializer, align 1
@f1 = dso_local global [800000 x %struct.T] zeroinitializer, align 16
@ff = dso_local global %struct.T* getelementptr inbounds ([800000 x %struct.T], [800000 x %struct.T]* @f1, i32 0, i32 0), align 8
@f = dso_local global [800000 x %struct.T*] zeroinitializer, align 16
@null = dso_local global %struct.T* null, align 8
@n = dso_local global i32 0, align 4
@q = dso_local global i32 0, align 4
@a = dso_local global [800000 x i32] zeroinitializer, align 16
@b = dso_local global [800000 x i32] zeroinitializer, align 16
@c = dso_local global [800000 x i32] zeroinitializer, align 16
@Map = dso_local global %"class.std::map" zeroinitializer, align 8
@B = dso_local global [1100000 x i64] zeroinitializer, align 16
@.str = private unnamed_addr constant [34 x i8] c"../input_files/SimpleTreeCounting\00", align 1
@.str.2 = private unnamed_addr constant [2 x i8] c"r\00", align 1
@stdin = external dso_local global %struct._IO_FILE*, align 8
@.str.3 = private unnamed_addr constant [3 x i8] c"%d\00", align 1
@.str.4 = private unnamed_addr constant [7 x i8] c"%d%d%d\00", align 1
@.str.5 = private unnamed_addr constant [5 x i8] c"%d%d\00", align 1
@.str.6 = private unnamed_addr constant [6 x i8] c"%lld\0A\00", align 1
@_ZStL19piecewise_construct = internal constant %"struct.std::less" undef, align 1

; Function Attrs: noinline uwtable
define internal void @_GLOBAL__sub_I_SimpleTreeCounting.cpp() #0 section ".text.startup" {
  call void @__cxx_global_var_init(), !llfi_index !4
  call void @__cxx_global_var_init.1(), !llfi_index !5
  ret void, !llfi_index !6
}

; Function Attrs: noinline uwtable
define internal void @__cxx_global_var_init() #0 section ".text.startup" {
  call void @_ZNSt8ios_base4InitC1Ev(%"struct.std::less"* nonnull align 1 dereferenceable(1) @_ZStL8__ioinit), !llfi_index !7
  %1 = call i32 @atexit(void ()* @__dtor__ZStL8__ioinit) #2, !llfi_index !8
  ret void, !llfi_index !9
}

; Function Attrs: noinline uwtable
define internal void @__cxx_global_var_init.1() #0 section ".text.startup" {
  call void @_ZNSt3mapISt4pairIiiEP1TSt4lessIS1_ESaIS0_IKS1_S3_EEEC2Ev(%"class.std::map"* nonnull align 8 dereferenceable(48) @Map) #2, !llfi_index !10
  %1 = call i32 @atexit(void ()* @__dtor_Map) #2, !llfi_index !11
  ret void, !llfi_index !12
}

; Function Attrs: noinline nounwind uwtable
define linkonce_odr dso_local void @_ZNSt3mapISt4pairIiiEP1TSt4lessIS1_ESaIS0_IKS1_S3_EEEC2Ev(%"class.std::map"* nonnull align 8 dereferenceable(48) %0) unnamed_addr #1 comdat align 2 {
  %2 = alloca %"class.std::map"*, align 8, !llfi_index !13
  store %"class.std::map"* %0, %"class.std::map"** %2, align 8, !llfi_index !14
  %3 = load %"class.std::map"*, %"class.std::map"** %2, align 8, !llfi_index !15
  %4 = getelementptr inbounds %"class.std::map", %"class.std::map"* %3, i32 0, i32 0, !llfi_index !16
  call void @_ZNSt8_Rb_treeISt4pairIiiES0_IKS1_P1TESt10_Select1stIS5_ESt4lessIS1_ESaIS5_EEC2Ev(%"class.std::_Rb_tree"* nonnull align 8 dereferenceable(48) %4) #2, !llfi_index !17
  ret void, !llfi_index !18
}

; Function Attrs: noinline uwtable
define internal void @__dtor_Map() #0 section ".text.startup" {
  call void @_ZNSt3mapISt4pairIiiEP1TSt4lessIS1_ESaIS0_IKS1_S3_EEED2Ev(%"class.std::map"* @Map), !llfi_index !19
  ret void, !llfi_index !20
}

; Function Attrs: nounwind
declare dso_local i32 @atexit(void ()*) #2

; Function Attrs: noinline nounwind uwtable
define linkonce_odr dso_local void @_ZNSt3mapISt4pairIiiEP1TSt4lessIS1_ESaIS0_IKS1_S3_EEED2Ev(%"class.std::map"* nonnull align 8 dereferenceable(48) %0) unnamed_addr #1 comdat align 2 {
  %2 = alloca %"class.std::map"*, align 8, !llfi_index !21
  store %"class.std::map"* %0, %"class.std::map"** %2, align 8, !llfi_index !22
  %3 = load %"class.std::map"*, %"class.std::map"** %2, align 8, !llfi_index !23
  %4 = getelementptr inbounds %"class.std::map", %"class.std::map"* %3, i32 0, i32 0, !llfi_index !24
  call void @_ZNSt8_Rb_treeISt4pairIiiES0_IKS1_P1TESt10_Select1stIS5_ESt4lessIS1_ESaIS5_EED2Ev(%"class.std::_Rb_tree"* nonnull align 8 dereferenceable(48) %4) #2, !llfi_index !25
  ret void, !llfi_index !26
}

; Function Attrs: noinline nounwind uwtable
define linkonce_odr dso_local void @_ZNSt8_Rb_treeISt4pairIiiES0_IKS1_P1TESt10_Select1stIS5_ESt4lessIS1_ESaIS5_EED2Ev(%"class.std::_Rb_tree"* nonnull align 8 dereferenceable(48) %0) unnamed_addr #1 comdat align 2 personality i8* bitcast (i32 (...)* @__gxx_personality_v0 to i8*) {
  %2 = alloca %"class.std::_Rb_tree"*, align 8, !llfi_index !27
  %3 = alloca i8*, align 8, !llfi_index !28
  %4 = alloca i32, align 4, !llfi_index !29
  store %"class.std::_Rb_tree"* %0, %"class.std::_Rb_tree"** %2, align 8, !llfi_index !30
  %5 = load %"class.std::_Rb_tree"*, %"class.std::_Rb_tree"** %2, align 8, !llfi_index !31
  %6 = call %"struct.std::_Rb_tree_node"* @_ZNSt8_Rb_treeISt4pairIiiES0_IKS1_P1TESt10_Select1stIS5_ESt4lessIS1_ESaIS5_EE8_M_beginEv(%"class.std::_Rb_tree"* nonnull align 8 dereferenceable(48) %5) #2, !llfi_index !32
  invoke void @_ZNSt8_Rb_treeISt4pairIiiES0_IKS1_P1TESt10_Select1stIS5_ESt4lessIS1_ESaIS5_EE8_M_eraseEPSt13_Rb_tree_nodeIS5_E(%"class.std::_Rb_tree"* nonnull align 8 dereferenceable(48) %5, %"struct.std::_Rb_tree_node"* %6)
          to label %7 unwind label %9, !llfi_index !33

7:                                                ; preds = %1
  %8 = getelementptr inbounds %"class.std::_Rb_tree", %"class.std::_Rb_tree"* %5, i32 0, i32 0, !llfi_index !34
  call void @_ZNSt8_Rb_treeISt4pairIiiES0_IKS1_P1TESt10_Select1stIS5_ESt4lessIS1_ESaIS5_EE13_Rb_tree_implIS9_Lb1EED2Ev(%"struct.std::_Rb_tree<std::pair<int, int>, std::pair<const std::pair<int, int>, T *>, std::_Select1st<std::pair<const std::pair<int, int>, T *>>, std::less<std::pair<int, int>>>::_Rb_tree_impl"* nonnull align 8 dereferenceable(48) %8) #2, !llfi_index !35
  ret void, !llfi_index !36

9:                                                ; preds = %1
  %10 = landingpad { i8*, i32 }
          catch i8* null, !llfi_index !37
  %11 = extractvalue { i8*, i32 } %10, 0, !llfi_index !38
  store i8* %11, i8** %3, align 8, !llfi_index !39
  %12 = extractvalue { i8*, i32 } %10, 1, !llfi_index !40
  store i32 %12, i32* %4, align 4, !llfi_index !41
  %13 = getelementptr inbounds %"class.std::_Rb_tree", %"class.std::_Rb_tree"* %5, i32 0, i32 0, !llfi_index !42
  call void @_ZNSt8_Rb_treeISt4pairIiiES0_IKS1_P1TESt10_Select1stIS5_ESt4lessIS1_ESaIS5_EE13_Rb_tree_implIS9_Lb1EED2Ev(%"struct.std::_Rb_tree<std::pair<int, int>, std::pair<const std::pair<int, int>, T *>, std::_Select1st<std::pair<const std::pair<int, int>, T *>>, std::less<std::pair<int, int>>>::_Rb_tree_impl"* nonnull align 8 dereferenceable(48) %13) #2, !llfi_index !43
  br label %14, !llfi_index !44

14:                                               ; preds = %9
  %15 = load i8*, i8** %3, align 8, !llfi_index !45
  call void @__clang_call_terminate(i8* %15) #15, !llfi_index !46
  unreachable, !llfi_index !47
}

declare dso_local i32 @__gxx_personality_v0(...)

; Function Attrs: mustprogress noinline nounwind uwtable
define linkonce_odr dso_local %"struct.std::_Rb_tree_node"* @_ZNSt8_Rb_treeISt4pairIiiES0_IKS1_P1TESt10_Select1stIS5_ESt4lessIS1_ESaIS5_EE8_M_beginEv(%"class.std::_Rb_tree"* nonnull align 8 dereferenceable(48) %0) #3 comdat align 2 {
  %2 = alloca %"class.std::_Rb_tree"*, align 8, !llfi_index !48
  store %"class.std::_Rb_tree"* %0, %"class.std::_Rb_tree"** %2, align 8, !llfi_index !49
  %3 = load %"class.std::_Rb_tree"*, %"class.std::_Rb_tree"** %2, align 8, !llfi_index !50
  %4 = getelementptr inbounds %"class.std::_Rb_tree", %"class.std::_Rb_tree"* %3, i32 0, i32 0, !llfi_index !51
  %5 = bitcast %"struct.std::_Rb_tree<std::pair<int, int>, std::pair<const std::pair<int, int>, T *>, std::_Select1st<std::pair<const std::pair<int, int>, T *>>, std::less<std::pair<int, int>>>::_Rb_tree_impl"* %4 to i8*, !llfi_index !52
  %6 = getelementptr inbounds i8, i8* %5, i64 8, !llfi_index !53
  %7 = bitcast i8* %6 to %"struct.std::_Rb_tree_header"*, !llfi_index !54
  %8 = getelementptr inbounds %"struct.std::_Rb_tree_header", %"struct.std::_Rb_tree_header"* %7, i32 0, i32 0, !llfi_index !55
  %9 = getelementptr inbounds %"struct.std::_Rb_tree_node_base", %"struct.std::_Rb_tree_node_base"* %8, i32 0, i32 1, !llfi_index !56
  %10 = load %"struct.std::_Rb_tree_node_base"*, %"struct.std::_Rb_tree_node_base"** %9, align 8, !llfi_index !57
  %11 = bitcast %"struct.std::_Rb_tree_node_base"* %10 to %"struct.std::_Rb_tree_node"*, !llfi_index !58
  ret %"struct.std::_Rb_tree_node"* %11, !llfi_index !59
}

; Function Attrs: mustprogress noinline uwtable
define linkonce_odr dso_local void @_ZNSt8_Rb_treeISt4pairIiiES0_IKS1_P1TESt10_Select1stIS5_ESt4lessIS1_ESaIS5_EE8_M_eraseEPSt13_Rb_tree_nodeIS5_E(%"class.std::_Rb_tree"* nonnull align 8 dereferenceable(48) %0, %"struct.std::_Rb_tree_node"* %1) #4 comdat align 2 {
  %3 = alloca %"class.std::_Rb_tree"*, align 8, !llfi_index !60
  %4 = alloca %"struct.std::_Rb_tree_node"*, align 8, !llfi_index !61
  %5 = alloca %"struct.std::_Rb_tree_node"*, align 8, !llfi_index !62
  store %"class.std::_Rb_tree"* %0, %"class.std::_Rb_tree"** %3, align 8, !llfi_index !63
  store %"struct.std::_Rb_tree_node"* %1, %"struct.std::_Rb_tree_node"** %4, align 8, !llfi_index !64
  %6 = load %"class.std::_Rb_tree"*, %"class.std::_Rb_tree"** %3, align 8, !llfi_index !65
  br label %7, !llfi_index !66

7:                                                ; preds = %10, %2
  %8 = load %"struct.std::_Rb_tree_node"*, %"struct.std::_Rb_tree_node"** %4, align 8, !llfi_index !67
  %9 = icmp ne %"struct.std::_Rb_tree_node"* %8, null, !llfi_index !68
  br i1 %9, label %10, label %19, !llfi_index !69

10:                                               ; preds = %7
  %11 = load %"struct.std::_Rb_tree_node"*, %"struct.std::_Rb_tree_node"** %4, align 8, !llfi_index !70
  %12 = bitcast %"struct.std::_Rb_tree_node"* %11 to %"struct.std::_Rb_tree_node_base"*, !llfi_index !71
  %13 = call %"struct.std::_Rb_tree_node"* @_ZNSt8_Rb_treeISt4pairIiiES0_IKS1_P1TESt10_Select1stIS5_ESt4lessIS1_ESaIS5_EE8_S_rightEPSt18_Rb_tree_node_base(%"struct.std::_Rb_tree_node_base"* %12) #2, !llfi_index !72
  call void @_ZNSt8_Rb_treeISt4pairIiiES0_IKS1_P1TESt10_Select1stIS5_ESt4lessIS1_ESaIS5_EE8_M_eraseEPSt13_Rb_tree_nodeIS5_E(%"class.std::_Rb_tree"* nonnull align 8 dereferenceable(48) %6, %"struct.std::_Rb_tree_node"* %13), !llfi_index !73
  %14 = load %"struct.std::_Rb_tree_node"*, %"struct.std::_Rb_tree_node"** %4, align 8, !llfi_index !74
  %15 = bitcast %"struct.std::_Rb_tree_node"* %14 to %"struct.std::_Rb_tree_node_base"*, !llfi_index !75
  %16 = call %"struct.std::_Rb_tree_node"* @_ZNSt8_Rb_treeISt4pairIiiES0_IKS1_P1TESt10_Select1stIS5_ESt4lessIS1_ESaIS5_EE7_S_leftEPSt18_Rb_tree_node_base(%"struct.std::_Rb_tree_node_base"* %15) #2, !llfi_index !76
  store %"struct.std::_Rb_tree_node"* %16, %"struct.std::_Rb_tree_node"** %5, align 8, !llfi_index !77
  %17 = load %"struct.std::_Rb_tree_node"*, %"struct.std::_Rb_tree_node"** %4, align 8, !llfi_index !78
  call void @_ZNSt8_Rb_treeISt4pairIiiES0_IKS1_P1TESt10_Select1stIS5_ESt4lessIS1_ESaIS5_EE12_M_drop_nodeEPSt13_Rb_tree_nodeIS5_E(%"class.std::_Rb_tree"* nonnull align 8 dereferenceable(48) %6, %"struct.std::_Rb_tree_node"* %17) #2, !llfi_index !79
  %18 = load %"struct.std::_Rb_tree_node"*, %"struct.std::_Rb_tree_node"** %5, align 8, !llfi_index !80
  store %"struct.std::_Rb_tree_node"* %18, %"struct.std::_Rb_tree_node"** %4, align 8, !llfi_index !81
  br label %7, !llvm.loop !82, !llfi_index !84

19:                                               ; preds = %7
  ret void, !llfi_index !85
}

; Function Attrs: noinline nounwind uwtable
define linkonce_odr dso_local void @_ZNSt8_Rb_treeISt4pairIiiES0_IKS1_P1TESt10_Select1stIS5_ESt4lessIS1_ESaIS5_EE13_Rb_tree_implIS9_Lb1EED2Ev(%"struct.std::_Rb_tree<std::pair<int, int>, std::pair<const std::pair<int, int>, T *>, std::_Select1st<std::pair<const std::pair<int, int>, T *>>, std::less<std::pair<int, int>>>::_Rb_tree_impl"* nonnull align 8 dereferenceable(48) %0) unnamed_addr #1 comdat align 2 {
  %2 = alloca %"struct.std::_Rb_tree<std::pair<int, int>, std::pair<const std::pair<int, int>, T *>, std::_Select1st<std::pair<const std::pair<int, int>, T *>>, std::less<std::pair<int, int>>>::_Rb_tree_impl"*, align 8, !llfi_index !86
  store %"struct.std::_Rb_tree<std::pair<int, int>, std::pair<const std::pair<int, int>, T *>, std::_Select1st<std::pair<const std::pair<int, int>, T *>>, std::less<std::pair<int, int>>>::_Rb_tree_impl"* %0, %"struct.std::_Rb_tree<std::pair<int, int>, std::pair<const std::pair<int, int>, T *>, std::_Select1st<std::pair<const std::pair<int, int>, T *>>, std::less<std::pair<int, int>>>::_Rb_tree_impl"** %2, align 8, !llfi_index !87
  %3 = load %"struct.std::_Rb_tree<std::pair<int, int>, std::pair<const std::pair<int, int>, T *>, std::_Select1st<std::pair<const std::pair<int, int>, T *>>, std::less<std::pair<int, int>>>::_Rb_tree_impl"*, %"struct.std::_Rb_tree<std::pair<int, int>, std::pair<const std::pair<int, int>, T *>, std::_Select1st<std::pair<const std::pair<int, int>, T *>>, std::less<std::pair<int, int>>>::_Rb_tree_impl"** %2, align 8, !llfi_index !88
  %4 = bitcast %"struct.std::_Rb_tree<std::pair<int, int>, std::pair<const std::pair<int, int>, T *>, std::_Select1st<std::pair<const std::pair<int, int>, T *>>, std::less<std::pair<int, int>>>::_Rb_tree_impl"* %3 to %"struct.std::less"*, !llfi_index !89
  call void @_ZNSaISt13_Rb_tree_nodeISt4pairIKS0_IiiEP1TEEED2Ev(%"struct.std::less"* nonnull align 1 dereferenceable(1) %4) #2, !llfi_index !90
  ret void, !llfi_index !91
}

; Function Attrs: noinline noreturn nounwind
define linkonce_odr hidden void @__clang_call_terminate(i8* %0) #5 comdat {
  %2 = call i8* @__cxa_begin_catch(i8* %0) #2, !llfi_index !92
  call void @_ZSt9terminatev() #15, !llfi_index !93
  unreachable, !llfi_index !94
}

declare dso_local i8* @__cxa_begin_catch(i8*)

declare dso_local void @_ZSt9terminatev()

; Function Attrs: noinline nounwind uwtable
define linkonce_odr dso_local void @_ZNSaISt13_Rb_tree_nodeISt4pairIKS0_IiiEP1TEEED2Ev(%"struct.std::less"* nonnull align 1 dereferenceable(1) %0) unnamed_addr #1 comdat align 2 {
  %2 = alloca %"struct.std::less"*, align 8, !llfi_index !95
  store %"struct.std::less"* %0, %"struct.std::less"** %2, align 8, !llfi_index !96
  %3 = load %"struct.std::less"*, %"struct.std::less"** %2, align 8, !llfi_index !97
  %4 = bitcast %"struct.std::less"* %3 to %"struct.std::less"*, !llfi_index !98
  call void @_ZN9__gnu_cxx13new_allocatorISt13_Rb_tree_nodeISt4pairIKS2_IiiEP1TEEED2Ev(%"struct.std::less"* nonnull align 1 dereferenceable(1) %4) #2, !llfi_index !99
  ret void, !llfi_index !100
}

; Function Attrs: noinline nounwind uwtable
define linkonce_odr dso_local void @_ZN9__gnu_cxx13new_allocatorISt13_Rb_tree_nodeISt4pairIKS2_IiiEP1TEEED2Ev(%"struct.std::less"* nonnull align 1 dereferenceable(1) %0) unnamed_addr #1 comdat align 2 {
  %2 = alloca %"struct.std::less"*, align 8, !llfi_index !101
  store %"struct.std::less"* %0, %"struct.std::less"** %2, align 8, !llfi_index !102
  %3 = load %"struct.std::less"*, %"struct.std::less"** %2, align 8, !llfi_index !103
  ret void, !llfi_index !104
}

; Function Attrs: mustprogress noinline nounwind uwtable
define linkonce_odr dso_local %"struct.std::_Rb_tree_node"* @_ZNSt8_Rb_treeISt4pairIiiES0_IKS1_P1TESt10_Select1stIS5_ESt4lessIS1_ESaIS5_EE8_S_rightEPSt18_Rb_tree_node_base(%"struct.std::_Rb_tree_node_base"* %0) #3 comdat align 2 {
  %2 = alloca %"struct.std::_Rb_tree_node_base"*, align 8, !llfi_index !105
  store %"struct.std::_Rb_tree_node_base"* %0, %"struct.std::_Rb_tree_node_base"** %2, align 8, !llfi_index !106
  %3 = load %"struct.std::_Rb_tree_node_base"*, %"struct.std::_Rb_tree_node_base"** %2, align 8, !llfi_index !107
  %4 = getelementptr inbounds %"struct.std::_Rb_tree_node_base", %"struct.std::_Rb_tree_node_base"* %3, i32 0, i32 3, !llfi_index !108
  %5 = load %"struct.std::_Rb_tree_node_base"*, %"struct.std::_Rb_tree_node_base"** %4, align 8, !llfi_index !109
  %6 = bitcast %"struct.std::_Rb_tree_node_base"* %5 to %"struct.std::_Rb_tree_node"*, !llfi_index !110
  ret %"struct.std::_Rb_tree_node"* %6, !llfi_index !111
}

; Function Attrs: mustprogress noinline nounwind uwtable
define linkonce_odr dso_local %"struct.std::_Rb_tree_node"* @_ZNSt8_Rb_treeISt4pairIiiES0_IKS1_P1TESt10_Select1stIS5_ESt4lessIS1_ESaIS5_EE7_S_leftEPSt18_Rb_tree_node_base(%"struct.std::_Rb_tree_node_base"* %0) #3 comdat align 2 {
  %2 = alloca %"struct.std::_Rb_tree_node_base"*, align 8, !llfi_index !112
  store %"struct.std::_Rb_tree_node_base"* %0, %"struct.std::_Rb_tree_node_base"** %2, align 8, !llfi_index !113
  %3 = load %"struct.std::_Rb_tree_node_base"*, %"struct.std::_Rb_tree_node_base"** %2, align 8, !llfi_index !114
  %4 = getelementptr inbounds %"struct.std::_Rb_tree_node_base", %"struct.std::_Rb_tree_node_base"* %3, i32 0, i32 2, !llfi_index !115
  %5 = load %"struct.std::_Rb_tree_node_base"*, %"struct.std::_Rb_tree_node_base"** %4, align 8, !llfi_index !116
  %6 = bitcast %"struct.std::_Rb_tree_node_base"* %5 to %"struct.std::_Rb_tree_node"*, !llfi_index !117
  ret %"struct.std::_Rb_tree_node"* %6, !llfi_index !118
}

; Function Attrs: mustprogress noinline nounwind uwtable
define linkonce_odr dso_local void @_ZNSt8_Rb_treeISt4pairIiiES0_IKS1_P1TESt10_Select1stIS5_ESt4lessIS1_ESaIS5_EE12_M_drop_nodeEPSt13_Rb_tree_nodeIS5_E(%"class.std::_Rb_tree"* nonnull align 8 dereferenceable(48) %0, %"struct.std::_Rb_tree_node"* %1) #3 comdat align 2 {
  %3 = alloca %"class.std::_Rb_tree"*, align 8, !llfi_index !119
  %4 = alloca %"struct.std::_Rb_tree_node"*, align 8, !llfi_index !120
  store %"class.std::_Rb_tree"* %0, %"class.std::_Rb_tree"** %3, align 8, !llfi_index !121
  store %"struct.std::_Rb_tree_node"* %1, %"struct.std::_Rb_tree_node"** %4, align 8, !llfi_index !122
  %5 = load %"class.std::_Rb_tree"*, %"class.std::_Rb_tree"** %3, align 8, !llfi_index !123
  %6 = load %"struct.std::_Rb_tree_node"*, %"struct.std::_Rb_tree_node"** %4, align 8, !llfi_index !124
  call void @_ZNSt8_Rb_treeISt4pairIiiES0_IKS1_P1TESt10_Select1stIS5_ESt4lessIS1_ESaIS5_EE15_M_destroy_nodeEPSt13_Rb_tree_nodeIS5_E(%"class.std::_Rb_tree"* nonnull align 8 dereferenceable(48) %5, %"struct.std::_Rb_tree_node"* %6) #2, !llfi_index !125
  %7 = load %"struct.std::_Rb_tree_node"*, %"struct.std::_Rb_tree_node"** %4, align 8, !llfi_index !126
  call void @_ZNSt8_Rb_treeISt4pairIiiES0_IKS1_P1TESt10_Select1stIS5_ESt4lessIS1_ESaIS5_EE11_M_put_nodeEPSt13_Rb_tree_nodeIS5_E(%"class.std::_Rb_tree"* nonnull align 8 dereferenceable(48) %5, %"struct.std::_Rb_tree_node"* %7) #2, !llfi_index !127
  ret void, !llfi_index !128
}

; Function Attrs: mustprogress noinline nounwind uwtable
define linkonce_odr dso_local void @_ZNSt8_Rb_treeISt4pairIiiES0_IKS1_P1TESt10_Select1stIS5_ESt4lessIS1_ESaIS5_EE15_M_destroy_nodeEPSt13_Rb_tree_nodeIS5_E(%"class.std::_Rb_tree"* nonnull align 8 dereferenceable(48) %0, %"struct.std::_Rb_tree_node"* %1) #3 comdat align 2 personality i8* bitcast (i32 (...)* @__gxx_personality_v0 to i8*) {
  %3 = alloca %"class.std::_Rb_tree"*, align 8, !llfi_index !129
  %4 = alloca %"struct.std::_Rb_tree_node"*, align 8, !llfi_index !130
  store %"class.std::_Rb_tree"* %0, %"class.std::_Rb_tree"** %3, align 8, !llfi_index !131
  store %"struct.std::_Rb_tree_node"* %1, %"struct.std::_Rb_tree_node"** %4, align 8, !llfi_index !132
  %5 = load %"class.std::_Rb_tree"*, %"class.std::_Rb_tree"** %3, align 8, !llfi_index !133
  %6 = call nonnull align 1 dereferenceable(1) %"struct.std::less"* @_ZNSt8_Rb_treeISt4pairIiiES0_IKS1_P1TESt10_Select1stIS5_ESt4lessIS1_ESaIS5_EE21_M_get_Node_allocatorEv(%"class.std::_Rb_tree"* nonnull align 8 dereferenceable(48) %5) #2, !llfi_index !134
  %7 = load %"struct.std::_Rb_tree_node"*, %"struct.std::_Rb_tree_node"** %4, align 8, !llfi_index !135
  %8 = invoke %"struct.std::pair.0"* @_ZNSt13_Rb_tree_nodeISt4pairIKS0_IiiEP1TEE9_M_valptrEv(%"struct.std::_Rb_tree_node"* nonnull align 8 dereferenceable(48) %7)
          to label %9 unwind label %11, !llfi_index !136

9:                                                ; preds = %2
  call void @_ZNSt16allocator_traitsISaISt13_Rb_tree_nodeISt4pairIKS1_IiiEP1TEEEE7destroyIS6_EEvRS8_PT_(%"struct.std::less"* nonnull align 1 dereferenceable(1) %6, %"struct.std::pair.0"* %8) #2, !llfi_index !137
  %10 = load %"struct.std::_Rb_tree_node"*, %"struct.std::_Rb_tree_node"** %4, align 8, !llfi_index !138
  ret void, !llfi_index !139

11:                                               ; preds = %2
  %12 = landingpad { i8*, i32 }
          catch i8* null, !llfi_index !140
  %13 = extractvalue { i8*, i32 } %12, 0, !llfi_index !141
  call void @__clang_call_terminate(i8* %13) #15, !llfi_index !142
  unreachable, !llfi_index !143
}

; Function Attrs: mustprogress noinline nounwind uwtable
define linkonce_odr dso_local void @_ZNSt8_Rb_treeISt4pairIiiES0_IKS1_P1TESt10_Select1stIS5_ESt4lessIS1_ESaIS5_EE11_M_put_nodeEPSt13_Rb_tree_nodeIS5_E(%"class.std::_Rb_tree"* nonnull align 8 dereferenceable(48) %0, %"struct.std::_Rb_tree_node"* %1) #3 comdat align 2 personality i8* bitcast (i32 (...)* @__gxx_personality_v0 to i8*) {
  %3 = alloca %"class.std::_Rb_tree"*, align 8, !llfi_index !144
  %4 = alloca %"struct.std::_Rb_tree_node"*, align 8, !llfi_index !145
  store %"class.std::_Rb_tree"* %0, %"class.std::_Rb_tree"** %3, align 8, !llfi_index !146
  store %"struct.std::_Rb_tree_node"* %1, %"struct.std::_Rb_tree_node"** %4, align 8, !llfi_index !147
  %5 = load %"class.std::_Rb_tree"*, %"class.std::_Rb_tree"** %3, align 8, !llfi_index !148
  %6 = call nonnull align 1 dereferenceable(1) %"struct.std::less"* @_ZNSt8_Rb_treeISt4pairIiiES0_IKS1_P1TESt10_Select1stIS5_ESt4lessIS1_ESaIS5_EE21_M_get_Node_allocatorEv(%"class.std::_Rb_tree"* nonnull align 8 dereferenceable(48) %5) #2, !llfi_index !149
  %7 = load %"struct.std::_Rb_tree_node"*, %"struct.std::_Rb_tree_node"** %4, align 8, !llfi_index !150
  invoke void @_ZNSt16allocator_traitsISaISt13_Rb_tree_nodeISt4pairIKS1_IiiEP1TEEEE10deallocateERS8_PS7_m(%"struct.std::less"* nonnull align 1 dereferenceable(1) %6, %"struct.std::_Rb_tree_node"* %7, i64 1)
          to label %8 unwind label %9, !llfi_index !151

8:                                                ; preds = %2
  ret void, !llfi_index !152

9:                                                ; preds = %2
  %10 = landingpad { i8*, i32 }
          catch i8* null, !llfi_index !153
  %11 = extractvalue { i8*, i32 } %10, 0, !llfi_index !154
  call void @__clang_call_terminate(i8* %11) #15, !llfi_index !155
  unreachable, !llfi_index !156
}

; Function Attrs: mustprogress noinline nounwind uwtable
define linkonce_odr dso_local nonnull align 1 dereferenceable(1) %"struct.std::less"* @_ZNSt8_Rb_treeISt4pairIiiES0_IKS1_P1TESt10_Select1stIS5_ESt4lessIS1_ESaIS5_EE21_M_get_Node_allocatorEv(%"class.std::_Rb_tree"* nonnull align 8 dereferenceable(48) %0) #3 comdat align 2 {
  %2 = alloca %"class.std::_Rb_tree"*, align 8, !llfi_index !157
  store %"class.std::_Rb_tree"* %0, %"class.std::_Rb_tree"** %2, align 8, !llfi_index !158
  %3 = load %"class.std::_Rb_tree"*, %"class.std::_Rb_tree"** %2, align 8, !llfi_index !159
  %4 = getelementptr inbounds %"class.std::_Rb_tree", %"class.std::_Rb_tree"* %3, i32 0, i32 0, !llfi_index !160
  %5 = bitcast %"struct.std::_Rb_tree<std::pair<int, int>, std::pair<const std::pair<int, int>, T *>, std::_Select1st<std::pair<const std::pair<int, int>, T *>>, std::less<std::pair<int, int>>>::_Rb_tree_impl"* %4 to %"struct.std::less"*, !llfi_index !161
  ret %"struct.std::less"* %5, !llfi_index !162
}

; Function Attrs: mustprogress noinline uwtable
define linkonce_odr dso_local void @_ZNSt16allocator_traitsISaISt13_Rb_tree_nodeISt4pairIKS1_IiiEP1TEEEE10deallocateERS8_PS7_m(%"struct.std::less"* nonnull align 1 dereferenceable(1) %0, %"struct.std::_Rb_tree_node"* %1, i64 %2) #4 comdat align 2 {
  %4 = alloca %"struct.std::less"*, align 8, !llfi_index !163
  %5 = alloca %"struct.std::_Rb_tree_node"*, align 8, !llfi_index !164
  %6 = alloca i64, align 8, !llfi_index !165
  store %"struct.std::less"* %0, %"struct.std::less"** %4, align 8, !llfi_index !166
  store %"struct.std::_Rb_tree_node"* %1, %"struct.std::_Rb_tree_node"** %5, align 8, !llfi_index !167
  store i64 %2, i64* %6, align 8, !llfi_index !168
  %7 = load %"struct.std::less"*, %"struct.std::less"** %4, align 8, !llfi_index !169
  %8 = bitcast %"struct.std::less"* %7 to %"struct.std::less"*, !llfi_index !170
  %9 = load %"struct.std::_Rb_tree_node"*, %"struct.std::_Rb_tree_node"** %5, align 8, !llfi_index !171
  %10 = load i64, i64* %6, align 8, !llfi_index !172
  call void @_ZN9__gnu_cxx13new_allocatorISt13_Rb_tree_nodeISt4pairIKS2_IiiEP1TEEE10deallocateEPS8_m(%"struct.std::less"* nonnull align 1 dereferenceable(1) %8, %"struct.std::_Rb_tree_node"* %9, i64 %10), !llfi_index !173
  ret void, !llfi_index !174
}

; Function Attrs: mustprogress noinline nounwind uwtable
define linkonce_odr dso_local void @_ZN9__gnu_cxx13new_allocatorISt13_Rb_tree_nodeISt4pairIKS2_IiiEP1TEEE10deallocateEPS8_m(%"struct.std::less"* nonnull align 1 dereferenceable(1) %0, %"struct.std::_Rb_tree_node"* %1, i64 %2) #3 comdat align 2 {
  %4 = alloca %"struct.std::less"*, align 8, !llfi_index !175
  %5 = alloca %"struct.std::_Rb_tree_node"*, align 8, !llfi_index !176
  %6 = alloca i64, align 8, !llfi_index !177
  store %"struct.std::less"* %0, %"struct.std::less"** %4, align 8, !llfi_index !178
  store %"struct.std::_Rb_tree_node"* %1, %"struct.std::_Rb_tree_node"** %5, align 8, !llfi_index !179
  store i64 %2, i64* %6, align 8, !llfi_index !180
  %7 = load %"struct.std::less"*, %"struct.std::less"** %4, align 8, !llfi_index !181
  %8 = load %"struct.std::_Rb_tree_node"*, %"struct.std::_Rb_tree_node"** %5, align 8, !llfi_index !182
  %9 = bitcast %"struct.std::_Rb_tree_node"* %8 to i8*, !llfi_index !183
  call void @_ZdlPv(i8* %9) #2, !llfi_index !184
  ret void, !llfi_index !185
}

; Function Attrs: nobuiltin nounwind
declare dso_local void @_ZdlPv(i8*) #6

; Function Attrs: mustprogress noinline nounwind uwtable
define linkonce_odr dso_local %"struct.std::pair.0"* @_ZNSt13_Rb_tree_nodeISt4pairIKS0_IiiEP1TEE9_M_valptrEv(%"struct.std::_Rb_tree_node"* nonnull align 8 dereferenceable(48) %0) #3 comdat align 2 {
  %2 = alloca %"struct.std::_Rb_tree_node"*, align 8, !llfi_index !186
  store %"struct.std::_Rb_tree_node"* %0, %"struct.std::_Rb_tree_node"** %2, align 8, !llfi_index !187
  %3 = load %"struct.std::_Rb_tree_node"*, %"struct.std::_Rb_tree_node"** %2, align 8, !llfi_index !188
  %4 = getelementptr inbounds %"struct.std::_Rb_tree_node", %"struct.std::_Rb_tree_node"* %3, i32 0, i32 1, !llfi_index !189
  %5 = call %"struct.std::pair.0"* @_ZN9__gnu_cxx16__aligned_membufISt4pairIKS1_IiiEP1TEE6_M_ptrEv(%"struct.__gnu_cxx::__aligned_membuf"* nonnull align 8 dereferenceable(16) %4) #2, !llfi_index !190
  ret %"struct.std::pair.0"* %5, !llfi_index !191
}

; Function Attrs: mustprogress noinline nounwind uwtable
define linkonce_odr dso_local void @_ZNSt16allocator_traitsISaISt13_Rb_tree_nodeISt4pairIKS1_IiiEP1TEEEE7destroyIS6_EEvRS8_PT_(%"struct.std::less"* nonnull align 1 dereferenceable(1) %0, %"struct.std::pair.0"* %1) #3 comdat align 2 {
  %3 = alloca %"struct.std::less"*, align 8, !llfi_index !192
  %4 = alloca %"struct.std::pair.0"*, align 8, !llfi_index !193
  store %"struct.std::less"* %0, %"struct.std::less"** %3, align 8, !llfi_index !194
  store %"struct.std::pair.0"* %1, %"struct.std::pair.0"** %4, align 8, !llfi_index !195
  %5 = load %"struct.std::less"*, %"struct.std::less"** %3, align 8, !llfi_index !196
  %6 = bitcast %"struct.std::less"* %5 to %"struct.std::less"*, !llfi_index !197
  %7 = load %"struct.std::pair.0"*, %"struct.std::pair.0"** %4, align 8, !llfi_index !198
  call void @_ZN9__gnu_cxx13new_allocatorISt13_Rb_tree_nodeISt4pairIKS2_IiiEP1TEEE7destroyIS7_EEvPT_(%"struct.std::less"* nonnull align 1 dereferenceable(1) %6, %"struct.std::pair.0"* %7) #2, !llfi_index !199
  ret void, !llfi_index !200
}

; Function Attrs: mustprogress noinline nounwind uwtable
define linkonce_odr dso_local void @_ZN9__gnu_cxx13new_allocatorISt13_Rb_tree_nodeISt4pairIKS2_IiiEP1TEEE7destroyIS7_EEvPT_(%"struct.std::less"* nonnull align 1 dereferenceable(1) %0, %"struct.std::pair.0"* %1) #3 comdat align 2 {
  %3 = alloca %"struct.std::less"*, align 8, !llfi_index !201
  %4 = alloca %"struct.std::pair.0"*, align 8, !llfi_index !202
  store %"struct.std::less"* %0, %"struct.std::less"** %3, align 8, !llfi_index !203
  store %"struct.std::pair.0"* %1, %"struct.std::pair.0"** %4, align 8, !llfi_index !204
  %5 = load %"struct.std::less"*, %"struct.std::less"** %3, align 8, !llfi_index !205
  %6 = load %"struct.std::pair.0"*, %"struct.std::pair.0"** %4, align 8, !llfi_index !206
  ret void, !llfi_index !207
}

; Function Attrs: mustprogress noinline nounwind uwtable
define linkonce_odr dso_local %"struct.std::pair.0"* @_ZN9__gnu_cxx16__aligned_membufISt4pairIKS1_IiiEP1TEE6_M_ptrEv(%"struct.__gnu_cxx::__aligned_membuf"* nonnull align 8 dereferenceable(16) %0) #3 comdat align 2 {
  %2 = alloca %"struct.__gnu_cxx::__aligned_membuf"*, align 8, !llfi_index !208
  store %"struct.__gnu_cxx::__aligned_membuf"* %0, %"struct.__gnu_cxx::__aligned_membuf"** %2, align 8, !llfi_index !209
  %3 = load %"struct.__gnu_cxx::__aligned_membuf"*, %"struct.__gnu_cxx::__aligned_membuf"** %2, align 8, !llfi_index !210
  %4 = call i8* @_ZN9__gnu_cxx16__aligned_membufISt4pairIKS1_IiiEP1TEE7_M_addrEv(%"struct.__gnu_cxx::__aligned_membuf"* nonnull align 8 dereferenceable(16) %3) #2, !llfi_index !211
  %5 = bitcast i8* %4 to %"struct.std::pair.0"*, !llfi_index !212
  ret %"struct.std::pair.0"* %5, !llfi_index !213
}

; Function Attrs: mustprogress noinline nounwind uwtable
define linkonce_odr dso_local i8* @_ZN9__gnu_cxx16__aligned_membufISt4pairIKS1_IiiEP1TEE7_M_addrEv(%"struct.__gnu_cxx::__aligned_membuf"* nonnull align 8 dereferenceable(16) %0) #3 comdat align 2 {
  %2 = alloca %"struct.__gnu_cxx::__aligned_membuf"*, align 8, !llfi_index !214
  store %"struct.__gnu_cxx::__aligned_membuf"* %0, %"struct.__gnu_cxx::__aligned_membuf"** %2, align 8, !llfi_index !215
  %3 = load %"struct.__gnu_cxx::__aligned_membuf"*, %"struct.__gnu_cxx::__aligned_membuf"** %2, align 8, !llfi_index !216
  %4 = getelementptr inbounds %"struct.__gnu_cxx::__aligned_membuf", %"struct.__gnu_cxx::__aligned_membuf"* %3, i32 0, i32 0, !llfi_index !217
  %5 = bitcast [16 x i8]* %4 to i8*, !llfi_index !218
  ret i8* %5, !llfi_index !219
}

; Function Attrs: noinline nounwind uwtable
define linkonce_odr dso_local void @_ZNSt8_Rb_treeISt4pairIiiES0_IKS1_P1TESt10_Select1stIS5_ESt4lessIS1_ESaIS5_EEC2Ev(%"class.std::_Rb_tree"* nonnull align 8 dereferenceable(48) %0) unnamed_addr #1 comdat align 2 {
  %2 = alloca %"class.std::_Rb_tree"*, align 8, !llfi_index !220
  store %"class.std::_Rb_tree"* %0, %"class.std::_Rb_tree"** %2, align 8, !llfi_index !221
  %3 = load %"class.std::_Rb_tree"*, %"class.std::_Rb_tree"** %2, align 8, !llfi_index !222
  %4 = getelementptr inbounds %"class.std::_Rb_tree", %"class.std::_Rb_tree"* %3, i32 0, i32 0, !llfi_index !223
  call void @_ZNSt8_Rb_treeISt4pairIiiES0_IKS1_P1TESt10_Select1stIS5_ESt4lessIS1_ESaIS5_EE13_Rb_tree_implIS9_Lb1EEC2Ev(%"struct.std::_Rb_tree<std::pair<int, int>, std::pair<const std::pair<int, int>, T *>, std::_Select1st<std::pair<const std::pair<int, int>, T *>>, std::less<std::pair<int, int>>>::_Rb_tree_impl"* nonnull align 8 dereferenceable(48) %4) #2, !llfi_index !224
  ret void, !llfi_index !225
}

; Function Attrs: noinline nounwind uwtable
define linkonce_odr dso_local void @_ZNSt8_Rb_treeISt4pairIiiES0_IKS1_P1TESt10_Select1stIS5_ESt4lessIS1_ESaIS5_EE13_Rb_tree_implIS9_Lb1EEC2Ev(%"struct.std::_Rb_tree<std::pair<int, int>, std::pair<const std::pair<int, int>, T *>, std::_Select1st<std::pair<const std::pair<int, int>, T *>>, std::less<std::pair<int, int>>>::_Rb_tree_impl"* nonnull align 8 dereferenceable(48) %0) unnamed_addr #1 comdat align 2 {
  %2 = alloca %"struct.std::_Rb_tree<std::pair<int, int>, std::pair<const std::pair<int, int>, T *>, std::_Select1st<std::pair<const std::pair<int, int>, T *>>, std::less<std::pair<int, int>>>::_Rb_tree_impl"*, align 8, !llfi_index !226
  store %"struct.std::_Rb_tree<std::pair<int, int>, std::pair<const std::pair<int, int>, T *>, std::_Select1st<std::pair<const std::pair<int, int>, T *>>, std::less<std::pair<int, int>>>::_Rb_tree_impl"* %0, %"struct.std::_Rb_tree<std::pair<int, int>, std::pair<const std::pair<int, int>, T *>, std::_Select1st<std::pair<const std::pair<int, int>, T *>>, std::less<std::pair<int, int>>>::_Rb_tree_impl"** %2, align 8, !llfi_index !227
  %3 = load %"struct.std::_Rb_tree<std::pair<int, int>, std::pair<const std::pair<int, int>, T *>, std::_Select1st<std::pair<const std::pair<int, int>, T *>>, std::less<std::pair<int, int>>>::_Rb_tree_impl"*, %"struct.std::_Rb_tree<std::pair<int, int>, std::pair<const std::pair<int, int>, T *>, std::_Select1st<std::pair<const std::pair<int, int>, T *>>, std::less<std::pair<int, int>>>::_Rb_tree_impl"** %2, align 8, !llfi_index !228
  %4 = bitcast %"struct.std::_Rb_tree<std::pair<int, int>, std::pair<const std::pair<int, int>, T *>, std::_Select1st<std::pair<const std::pair<int, int>, T *>>, std::less<std::pair<int, int>>>::_Rb_tree_impl"* %3 to %"struct.std::less"*, !llfi_index !229
  call void @_ZNSaISt13_Rb_tree_nodeISt4pairIKS0_IiiEP1TEEEC2Ev(%"struct.std::less"* nonnull align 1 dereferenceable(1) %4) #2, !llfi_index !230
  %5 = bitcast %"struct.std::_Rb_tree<std::pair<int, int>, std::pair<const std::pair<int, int>, T *>, std::_Select1st<std::pair<const std::pair<int, int>, T *>>, std::less<std::pair<int, int>>>::_Rb_tree_impl"* %3 to %"struct.std::_Rb_tree_key_compare"*, !llfi_index !231
  call void @_ZNSt20_Rb_tree_key_compareISt4lessISt4pairIiiEEEC2Ev(%"struct.std::_Rb_tree_key_compare"* nonnull align 1 dereferenceable(1) %5) #2, !llfi_index !232
  %6 = bitcast %"struct.std::_Rb_tree<std::pair<int, int>, std::pair<const std::pair<int, int>, T *>, std::_Select1st<std::pair<const std::pair<int, int>, T *>>, std::less<std::pair<int, int>>>::_Rb_tree_impl"* %3 to i8*, !llfi_index !233
  %7 = getelementptr inbounds i8, i8* %6, i64 8, !llfi_index !234
  %8 = bitcast i8* %7 to %"struct.std::_Rb_tree_header"*, !llfi_index !235
  call void @_ZNSt15_Rb_tree_headerC2Ev(%"struct.std::_Rb_tree_header"* nonnull align 8 dereferenceable(40) %8) #2, !llfi_index !236
  ret void, !llfi_index !237
}

; Function Attrs: noinline nounwind uwtable
define linkonce_odr dso_local void @_ZNSaISt13_Rb_tree_nodeISt4pairIKS0_IiiEP1TEEEC2Ev(%"struct.std::less"* nonnull align 1 dereferenceable(1) %0) unnamed_addr #1 comdat align 2 {
  %2 = alloca %"struct.std::less"*, align 8, !llfi_index !238
  store %"struct.std::less"* %0, %"struct.std::less"** %2, align 8, !llfi_index !239
  %3 = load %"struct.std::less"*, %"struct.std::less"** %2, align 8, !llfi_index !240
  %4 = bitcast %"struct.std::less"* %3 to %"struct.std::less"*, !llfi_index !241
  call void @_ZN9__gnu_cxx13new_allocatorISt13_Rb_tree_nodeISt4pairIKS2_IiiEP1TEEEC2Ev(%"struct.std::less"* nonnull align 1 dereferenceable(1) %4) #2, !llfi_index !242
  ret void, !llfi_index !243
}

; Function Attrs: noinline nounwind uwtable
define linkonce_odr dso_local void @_ZNSt20_Rb_tree_key_compareISt4lessISt4pairIiiEEEC2Ev(%"struct.std::_Rb_tree_key_compare"* nonnull align 1 dereferenceable(1) %0) unnamed_addr #1 comdat align 2 {
  %2 = alloca %"struct.std::_Rb_tree_key_compare"*, align 8, !llfi_index !244
  store %"struct.std::_Rb_tree_key_compare"* %0, %"struct.std::_Rb_tree_key_compare"** %2, align 8, !llfi_index !245
  %3 = load %"struct.std::_Rb_tree_key_compare"*, %"struct.std::_Rb_tree_key_compare"** %2, align 8, !llfi_index !246
  %4 = getelementptr inbounds %"struct.std::_Rb_tree_key_compare", %"struct.std::_Rb_tree_key_compare"* %3, i32 0, i32 0, !llfi_index !247
  ret void, !llfi_index !248
}

; Function Attrs: noinline nounwind uwtable
define linkonce_odr dso_local void @_ZNSt15_Rb_tree_headerC2Ev(%"struct.std::_Rb_tree_header"* nonnull align 8 dereferenceable(40) %0) unnamed_addr #1 comdat align 2 personality i8* bitcast (i32 (...)* @__gxx_personality_v0 to i8*) {
  %2 = alloca %"struct.std::_Rb_tree_header"*, align 8, !llfi_index !249
  store %"struct.std::_Rb_tree_header"* %0, %"struct.std::_Rb_tree_header"** %2, align 8, !llfi_index !250
  %3 = load %"struct.std::_Rb_tree_header"*, %"struct.std::_Rb_tree_header"** %2, align 8, !llfi_index !251
  %4 = getelementptr inbounds %"struct.std::_Rb_tree_header", %"struct.std::_Rb_tree_header"* %3, i32 0, i32 0, !llfi_index !252
  %5 = getelementptr inbounds %"struct.std::_Rb_tree_header", %"struct.std::_Rb_tree_header"* %3, i32 0, i32 0, !llfi_index !253
  %6 = getelementptr inbounds %"struct.std::_Rb_tree_node_base", %"struct.std::_Rb_tree_node_base"* %5, i32 0, i32 0, !llfi_index !254
  store i32 0, i32* %6, align 8, !llfi_index !255
  invoke void @_ZNSt15_Rb_tree_header8_M_resetEv(%"struct.std::_Rb_tree_header"* nonnull align 8 dereferenceable(40) %3)
          to label %7 unwind label %8, !llfi_index !256

7:                                                ; preds = %1
  ret void, !llfi_index !257

8:                                                ; preds = %1
  %9 = landingpad { i8*, i32 }
          catch i8* null, !llfi_index !258
  %10 = extractvalue { i8*, i32 } %9, 0, !llfi_index !259
  call void @__clang_call_terminate(i8* %10) #15, !llfi_index !260
  unreachable, !llfi_index !261
}

; Function Attrs: mustprogress noinline nounwind uwtable
define linkonce_odr dso_local void @_ZNSt15_Rb_tree_header8_M_resetEv(%"struct.std::_Rb_tree_header"* nonnull align 8 dereferenceable(40) %0) #3 comdat align 2 {
  %2 = alloca %"struct.std::_Rb_tree_header"*, align 8, !llfi_index !262
  store %"struct.std::_Rb_tree_header"* %0, %"struct.std::_Rb_tree_header"** %2, align 8, !llfi_index !263
  %3 = load %"struct.std::_Rb_tree_header"*, %"struct.std::_Rb_tree_header"** %2, align 8, !llfi_index !264
  %4 = getelementptr inbounds %"struct.std::_Rb_tree_header", %"struct.std::_Rb_tree_header"* %3, i32 0, i32 0, !llfi_index !265
  %5 = getelementptr inbounds %"struct.std::_Rb_tree_node_base", %"struct.std::_Rb_tree_node_base"* %4, i32 0, i32 1, !llfi_index !266
  store %"struct.std::_Rb_tree_node_base"* null, %"struct.std::_Rb_tree_node_base"** %5, align 8, !llfi_index !267
  %6 = getelementptr inbounds %"struct.std::_Rb_tree_header", %"struct.std::_Rb_tree_header"* %3, i32 0, i32 0, !llfi_index !268
  %7 = getelementptr inbounds %"struct.std::_Rb_tree_header", %"struct.std::_Rb_tree_header"* %3, i32 0, i32 0, !llfi_index !269
  %8 = getelementptr inbounds %"struct.std::_Rb_tree_node_base", %"struct.std::_Rb_tree_node_base"* %7, i32 0, i32 2, !llfi_index !270
  store %"struct.std::_Rb_tree_node_base"* %6, %"struct.std::_Rb_tree_node_base"** %8, align 8, !llfi_index !271
  %9 = getelementptr inbounds %"struct.std::_Rb_tree_header", %"struct.std::_Rb_tree_header"* %3, i32 0, i32 0, !llfi_index !272
  %10 = getelementptr inbounds %"struct.std::_Rb_tree_header", %"struct.std::_Rb_tree_header"* %3, i32 0, i32 0, !llfi_index !273
  %11 = getelementptr inbounds %"struct.std::_Rb_tree_node_base", %"struct.std::_Rb_tree_node_base"* %10, i32 0, i32 3, !llfi_index !274
  store %"struct.std::_Rb_tree_node_base"* %9, %"struct.std::_Rb_tree_node_base"** %11, align 8, !llfi_index !275
  %12 = getelementptr inbounds %"struct.std::_Rb_tree_header", %"struct.std::_Rb_tree_header"* %3, i32 0, i32 1, !llfi_index !276
  store i64 0, i64* %12, align 8, !llfi_index !277
  ret void, !llfi_index !278
}

; Function Attrs: noinline nounwind uwtable
define linkonce_odr dso_local void @_ZN9__gnu_cxx13new_allocatorISt13_Rb_tree_nodeISt4pairIKS2_IiiEP1TEEEC2Ev(%"struct.std::less"* nonnull align 1 dereferenceable(1) %0) unnamed_addr #1 comdat align 2 {
  %2 = alloca %"struct.std::less"*, align 8, !llfi_index !279
  store %"struct.std::less"* %0, %"struct.std::less"** %2, align 8, !llfi_index !280
  %3 = load %"struct.std::less"*, %"struct.std::less"** %2, align 8, !llfi_index !281
  ret void, !llfi_index !282
}

declare dso_local void @_ZNSt8ios_base4InitC1Ev(%"struct.std::less"* nonnull align 1 dereferenceable(1)) unnamed_addr #7

; Function Attrs: noinline uwtable
define internal void @__dtor__ZStL8__ioinit() #0 section ".text.startup" {
  call void @_ZNSt8ios_base4InitD1Ev(%"struct.std::less"* @_ZStL8__ioinit), !llfi_index !283
  ret void, !llfi_index !284
}

; Function Attrs: nounwind
declare dso_local void @_ZNSt8ios_base4InitD1Ev(%"struct.std::less"* nonnull align 1 dereferenceable(1)) unnamed_addr #8

; Function Attrs: mustprogress noinline nounwind uwtable
define dso_local void @_Z3addix(i32 %0, i64 %1) #3 {
  %3 = alloca i32, align 4, !llfi_index !285
  %4 = alloca i64, align 8, !llfi_index !286
  store i32 %0, i32* %3, align 4, !llfi_index !287
  store i64 %1, i64* %4, align 8, !llfi_index !288
  br label %5, !llfi_index !289

5:                                                ; preds = %15, %2
  %6 = load i32, i32* %3, align 4, !llfi_index !290
  %7 = icmp sle i32 %6, 1000000, !llfi_index !291
  br i1 %7, label %8, label %22, !llfi_index !292

8:                                                ; preds = %5
  %9 = load i64, i64* %4, align 8, !llfi_index !293
  %10 = load i32, i32* %3, align 4, !llfi_index !294
  %11 = sext i32 %10 to i64, !llfi_index !295
  %12 = getelementptr inbounds [1100000 x i64], [1100000 x i64]* @B, i64 0, i64 %11, !llfi_index !296
  %13 = load i64, i64* %12, align 8, !llfi_index !297
  %14 = add nsw i64 %13, %9, !llfi_index !298
  store i64 %14, i64* %12, align 8, !llfi_index !299
  br label %15, !llfi_index !300

15:                                               ; preds = %8
  %16 = load i32, i32* %3, align 4, !llfi_index !301
  %17 = load i32, i32* %3, align 4, !llfi_index !302
  %18 = sub nsw i32 0, %17, !llfi_index !303
  %19 = and i32 %16, %18, !llfi_index !304
  %20 = load i32, i32* %3, align 4, !llfi_index !305
  %21 = add nsw i32 %20, %19, !llfi_index !306
  store i32 %21, i32* %3, align 4, !llfi_index !307
  br label %5, !llvm.loop !308, !llfi_index !309

22:                                               ; preds = %5
  ret void, !llfi_index !310
}

; Function Attrs: mustprogress noinline nounwind uwtable
define dso_local i64 @_Z5queryi(i32 %0) #3 {
  %2 = alloca i32, align 4, !llfi_index !311
  %3 = alloca i64, align 8, !llfi_index !312
  store i32 %0, i32* %2, align 4, !llfi_index !313
  store i64 0, i64* %3, align 8, !llfi_index !314
  br label %4, !llfi_index !315

4:                                                ; preds = %14, %1
  %5 = load i32, i32* %2, align 4, !llfi_index !316
  %6 = icmp ne i32 %5, 0, !llfi_index !317
  br i1 %6, label %7, label %21, !llfi_index !318

7:                                                ; preds = %4
  %8 = load i32, i32* %2, align 4, !llfi_index !319
  %9 = sext i32 %8 to i64, !llfi_index !320
  %10 = getelementptr inbounds [1100000 x i64], [1100000 x i64]* @B, i64 0, i64 %9, !llfi_index !321
  %11 = load i64, i64* %10, align 8, !llfi_index !322
  %12 = load i64, i64* %3, align 8, !llfi_index !323
  %13 = add nsw i64 %12, %11, !llfi_index !324
  store i64 %13, i64* %3, align 8, !llfi_index !325
  br label %14, !llfi_index !326

14:                                               ; preds = %7
  %15 = load i32, i32* %2, align 4, !llfi_index !327
  %16 = load i32, i32* %2, align 4, !llfi_index !328
  %17 = sub nsw i32 0, %16, !llfi_index !329
  %18 = and i32 %15, %17, !llfi_index !330
  %19 = load i32, i32* %2, align 4, !llfi_index !331
  %20 = sub nsw i32 %19, %18, !llfi_index !332
  store i32 %20, i32* %2, align 4, !llfi_index !333
  br label %4, !llvm.loop !334, !llfi_index !335

21:                                               ; preds = %4
  %22 = load i64, i64* %3, align 8, !llfi_index !336
  ret i64 %22, !llfi_index !337
}

; Function Attrs: mustprogress noinline uwtable
define dso_local %struct.T* @_Z3getii(i32 %0, i32 %1) #4 {
  %3 = alloca %struct.T*, align 8, !llfi_index !338
  %4 = alloca i32, align 4, !llfi_index !339
  %5 = alloca i32, align 4, !llfi_index !340
  %6 = alloca %"struct.std::pair", align 4, !llfi_index !341
  %7 = alloca %"struct.std::pair", align 4, !llfi_index !342
  %8 = alloca %"struct.std::pair", align 4, !llfi_index !343
  store i32 %0, i32* %4, align 4, !llfi_index !344
  store i32 %1, i32* %5, align 4, !llfi_index !345
  %9 = call i64 @_ZSt9make_pairIRiS0_ESt4pairINSt17__decay_and_stripIT_E6__typeENS2_IT0_E6__typeEEOS3_OS6_(i32* nonnull align 4 dereferenceable(4) %4, i32* nonnull align 4 dereferenceable(4) %5), !llfi_index !346
  %10 = bitcast %"struct.std::pair"* %6 to i64*, !llfi_index !347
  store i64 %9, i64* %10, align 4, !llfi_index !348
  %11 = call i64 @_ZNKSt3mapISt4pairIiiEP1TSt4lessIS1_ESaIS0_IKS1_S3_EEE5countERS6_(%"class.std::map"* nonnull align 8 dereferenceable(48) @Map, %"struct.std::pair"* nonnull align 4 dereferenceable(8) %6), !llfi_index !349
  %12 = icmp ne i64 %11, 0, !llfi_index !350
  br i1 %12, label %13, label %18, !llfi_index !351

13:                                               ; preds = %2
  %14 = call i64 @_ZSt9make_pairIRiS0_ESt4pairINSt17__decay_and_stripIT_E6__typeENS2_IT0_E6__typeEEOS3_OS6_(i32* nonnull align 4 dereferenceable(4) %4, i32* nonnull align 4 dereferenceable(4) %5), !llfi_index !352
  %15 = bitcast %"struct.std::pair"* %7 to i64*, !llfi_index !353
  store i64 %14, i64* %15, align 4, !llfi_index !354
  %16 = call nonnull align 8 dereferenceable(8) %struct.T** @_ZNSt3mapISt4pairIiiEP1TSt4lessIS1_ESaIS0_IKS1_S3_EEEixEOS1_(%"class.std::map"* nonnull align 8 dereferenceable(48) @Map, %"struct.std::pair"* nonnull align 4 dereferenceable(8) %7), !llfi_index !355
  %17 = load %struct.T*, %struct.T** %16, align 8, !llfi_index !356
  store %struct.T* %17, %struct.T** %3, align 8, !llfi_index !357
  br label %42, !llfi_index !358

18:                                               ; preds = %2
  %19 = load %struct.T*, %struct.T** @ff, align 8, !llfi_index !359
  %20 = getelementptr inbounds %struct.T, %struct.T* %19, i32 1, !llfi_index !360
  store %struct.T* %20, %struct.T** @ff, align 8, !llfi_index !361
  %21 = call i64 @_ZSt9make_pairIRiS0_ESt4pairINSt17__decay_and_stripIT_E6__typeENS2_IT0_E6__typeEEOS3_OS6_(i32* nonnull align 4 dereferenceable(4) %4, i32* nonnull align 4 dereferenceable(4) %5), !llfi_index !362
  %22 = bitcast %"struct.std::pair"* %8 to i64*, !llfi_index !363
  store i64 %21, i64* %22, align 4, !llfi_index !364
  %23 = call nonnull align 8 dereferenceable(8) %struct.T** @_ZNSt3mapISt4pairIiiEP1TSt4lessIS1_ESaIS0_IKS1_S3_EEEixEOS1_(%"class.std::map"* nonnull align 8 dereferenceable(48) @Map, %"struct.std::pair"* nonnull align 4 dereferenceable(8) %8), !llfi_index !365
  store %struct.T* %20, %struct.T** %23, align 8, !llfi_index !366
  %24 = load %struct.T*, %struct.T** @null, align 8, !llfi_index !367
  %25 = load %struct.T*, %struct.T** @ff, align 8, !llfi_index !368
  %26 = getelementptr inbounds %struct.T, %struct.T* %25, i32 0, i32 2, !llfi_index !369
  store %struct.T* %24, %struct.T** %26, align 8, !llfi_index !370
  %27 = load %struct.T*, %struct.T** @ff, align 8, !llfi_index !371
  %28 = getelementptr inbounds %struct.T, %struct.T* %27, i32 0, i32 3, !llfi_index !372
  store %struct.T* %24, %struct.T** %28, align 8, !llfi_index !373
  %29 = load %struct.T*, %struct.T** @ff, align 8, !llfi_index !374
  %30 = getelementptr inbounds %struct.T, %struct.T* %29, i32 0, i32 1, !llfi_index !375
  %31 = getelementptr inbounds [2 x %struct.T*], [2 x %struct.T*]* %30, i64 0, i64 1, !llfi_index !376
  store %struct.T* %24, %struct.T** %31, align 8, !llfi_index !377
  %32 = load %struct.T*, %struct.T** @ff, align 8, !llfi_index !378
  %33 = getelementptr inbounds %struct.T, %struct.T* %32, i32 0, i32 1, !llfi_index !379
  %34 = getelementptr inbounds [2 x %struct.T*], [2 x %struct.T*]* %33, i64 0, i64 0, !llfi_index !380
  store %struct.T* %24, %struct.T** %34, align 8, !llfi_index !381
  %35 = load %struct.T*, %struct.T** @ff, align 8, !llfi_index !382
  %36 = getelementptr inbounds %struct.T, %struct.T* %35, i32 0, i32 0, !llfi_index !383
  store i8 0, i8* %36, align 8, !llfi_index !384
  %37 = load %struct.T*, %struct.T** @ff, align 8, !llfi_index !385
  %38 = getelementptr inbounds %struct.T, %struct.T* %37, i32 0, i32 5, !llfi_index !386
  store i32 0, i32* %38, align 4, !llfi_index !387
  %39 = load %struct.T*, %struct.T** @ff, align 8, !llfi_index !388
  %40 = getelementptr inbounds %struct.T, %struct.T* %39, i32 0, i32 4, !llfi_index !389
  store i32 1, i32* %40, align 8, !llfi_index !390
  %41 = load %struct.T*, %struct.T** @ff, align 8, !llfi_index !391
  store %struct.T* %41, %struct.T** %3, align 8, !llfi_index !392
  br label %42, !llfi_index !393

42:                                               ; preds = %18, %13
  %43 = load %struct.T*, %struct.T** %3, align 8, !llfi_index !394
  ret %struct.T* %43, !llfi_index !395
}

; Function Attrs: mustprogress noinline uwtable
define linkonce_odr dso_local i64 @_ZSt9make_pairIRiS0_ESt4pairINSt17__decay_and_stripIT_E6__typeENS2_IT0_E6__typeEEOS3_OS6_(i32* nonnull align 4 dereferenceable(4) %0, i32* nonnull align 4 dereferenceable(4) %1) #4 comdat {
  %3 = alloca %"struct.std::pair", align 4, !llfi_index !396
  %4 = alloca i32*, align 8, !llfi_index !397
  %5 = alloca i32*, align 8, !llfi_index !398
  store i32* %0, i32** %4, align 8, !llfi_index !399
  store i32* %1, i32** %5, align 8, !llfi_index !400
  %6 = load i32*, i32** %4, align 8, !llfi_index !401
  %7 = call nonnull align 4 dereferenceable(4) i32* @_ZSt7forwardIRiEOT_RNSt16remove_referenceIS1_E4typeE(i32* nonnull align 4 dereferenceable(4) %6) #2, !llfi_index !402
  %8 = load i32*, i32** %5, align 8, !llfi_index !403
  %9 = call nonnull align 4 dereferenceable(4) i32* @_ZSt7forwardIRiEOT_RNSt16remove_referenceIS1_E4typeE(i32* nonnull align 4 dereferenceable(4) %8) #2, !llfi_index !404
  call void @_ZNSt4pairIiiEC2IRiS2_Lb1EEEOT_OT0_(%"struct.std::pair"* nonnull align 4 dereferenceable(8) %3, i32* nonnull align 4 dereferenceable(4) %7, i32* nonnull align 4 dereferenceable(4) %9), !llfi_index !405
  %10 = bitcast %"struct.std::pair"* %3 to i64*, !llfi_index !406
  %11 = load i64, i64* %10, align 4, !llfi_index !407
  ret i64 %11, !llfi_index !408
}

; Function Attrs: mustprogress noinline uwtable
define linkonce_odr dso_local i64 @_ZNKSt3mapISt4pairIiiEP1TSt4lessIS1_ESaIS0_IKS1_S3_EEE5countERS6_(%"class.std::map"* nonnull align 8 dereferenceable(48) %0, %"struct.std::pair"* nonnull align 4 dereferenceable(8) %1) #4 comdat align 2 {
  %3 = alloca %"class.std::map"*, align 8, !llfi_index !409
  %4 = alloca %"struct.std::pair"*, align 8, !llfi_index !410
  %5 = alloca %"struct.std::_Rb_tree_iterator", align 8, !llfi_index !411
  %6 = alloca %"struct.std::_Rb_tree_iterator", align 8, !llfi_index !412
  store %"class.std::map"* %0, %"class.std::map"** %3, align 8, !llfi_index !413
  store %"struct.std::pair"* %1, %"struct.std::pair"** %4, align 8, !llfi_index !414
  %7 = load %"class.std::map"*, %"class.std::map"** %3, align 8, !llfi_index !415
  %8 = getelementptr inbounds %"class.std::map", %"class.std::map"* %7, i32 0, i32 0, !llfi_index !416
  %9 = load %"struct.std::pair"*, %"struct.std::pair"** %4, align 8, !llfi_index !417
  %10 = call %"struct.std::_Rb_tree_node_base"* @_ZNKSt8_Rb_treeISt4pairIiiES0_IKS1_P1TESt10_Select1stIS5_ESt4lessIS1_ESaIS5_EE4findERS2_(%"class.std::_Rb_tree"* nonnull align 8 dereferenceable(48) %8, %"struct.std::pair"* nonnull align 4 dereferenceable(8) %9), !llfi_index !418
  %11 = getelementptr inbounds %"struct.std::_Rb_tree_iterator", %"struct.std::_Rb_tree_iterator"* %5, i32 0, i32 0, !llfi_index !419
  store %"struct.std::_Rb_tree_node_base"* %10, %"struct.std::_Rb_tree_node_base"** %11, align 8, !llfi_index !420
  %12 = getelementptr inbounds %"class.std::map", %"class.std::map"* %7, i32 0, i32 0, !llfi_index !421
  %13 = call %"struct.std::_Rb_tree_node_base"* @_ZNKSt8_Rb_treeISt4pairIiiES0_IKS1_P1TESt10_Select1stIS5_ESt4lessIS1_ESaIS5_EE3endEv(%"class.std::_Rb_tree"* nonnull align 8 dereferenceable(48) %12) #2, !llfi_index !422
  %14 = getelementptr inbounds %"struct.std::_Rb_tree_iterator", %"struct.std::_Rb_tree_iterator"* %6, i32 0, i32 0, !llfi_index !423
  store %"struct.std::_Rb_tree_node_base"* %13, %"struct.std::_Rb_tree_node_base"** %14, align 8, !llfi_index !424
  %15 = call zeroext i1 @_ZSteqRKSt23_Rb_tree_const_iteratorISt4pairIKS0_IiiEP1TEES8_(%"struct.std::_Rb_tree_iterator"* nonnull align 8 dereferenceable(8) %5, %"struct.std::_Rb_tree_iterator"* nonnull align 8 dereferenceable(8) %6) #2, !llfi_index !425
  %16 = zext i1 %15 to i64, !llfi_index !426
  %17 = select i1 %15, i32 0, i32 1, !llfi_index !427
  %18 = sext i32 %17 to i64, !llfi_index !428
  ret i64 %18, !llfi_index !429
}

; Function Attrs: mustprogress noinline uwtable
define linkonce_odr dso_local nonnull align 8 dereferenceable(8) %struct.T** @_ZNSt3mapISt4pairIiiEP1TSt4lessIS1_ESaIS0_IKS1_S3_EEEixEOS1_(%"class.std::map"* nonnull align 8 dereferenceable(48) %0, %"struct.std::pair"* nonnull align 4 dereferenceable(8) %1) #4 comdat align 2 {
  %3 = alloca %"class.std::map"*, align 8, !llfi_index !430
  %4 = alloca %"struct.std::pair"*, align 8, !llfi_index !431
  %5 = alloca %"struct.std::_Rb_tree_iterator", align 8, !llfi_index !432
  %6 = alloca %"struct.std::_Rb_tree_iterator", align 8, !llfi_index !433
  %7 = alloca %"struct.std::less", align 1, !llfi_index !434
  %8 = alloca %"struct.std::less", align 1, !llfi_index !435
  %9 = alloca %"struct.std::_Rb_tree_iterator", align 8, !llfi_index !436
  %10 = alloca %"struct.std::_Rb_tree_iterator", align 8, !llfi_index !437
  %11 = alloca %"class.std::tuple", align 8, !llfi_index !438
  %12 = alloca %"struct.std::less", align 1, !llfi_index !439
  store %"class.std::map"* %0, %"class.std::map"** %3, align 8, !llfi_index !440
  store %"struct.std::pair"* %1, %"struct.std::pair"** %4, align 8, !llfi_index !441
  %13 = load %"class.std::map"*, %"class.std::map"** %3, align 8, !llfi_index !442
  %14 = load %"struct.std::pair"*, %"struct.std::pair"** %4, align 8, !llfi_index !443
  %15 = call %"struct.std::_Rb_tree_node_base"* @_ZNSt3mapISt4pairIiiEP1TSt4lessIS1_ESaIS0_IKS1_S3_EEE11lower_boundERS6_(%"class.std::map"* nonnull align 8 dereferenceable(48) %13, %"struct.std::pair"* nonnull align 4 dereferenceable(8) %14), !llfi_index !444
  %16 = getelementptr inbounds %"struct.std::_Rb_tree_iterator", %"struct.std::_Rb_tree_iterator"* %5, i32 0, i32 0, !llfi_index !445
  store %"struct.std::_Rb_tree_node_base"* %15, %"struct.std::_Rb_tree_node_base"** %16, align 8, !llfi_index !446
  %17 = call %"struct.std::_Rb_tree_node_base"* @_ZNSt3mapISt4pairIiiEP1TSt4lessIS1_ESaIS0_IKS1_S3_EEE3endEv(%"class.std::map"* nonnull align 8 dereferenceable(48) %13) #2, !llfi_index !447
  %18 = getelementptr inbounds %"struct.std::_Rb_tree_iterator", %"struct.std::_Rb_tree_iterator"* %6, i32 0, i32 0, !llfi_index !448
  store %"struct.std::_Rb_tree_node_base"* %17, %"struct.std::_Rb_tree_node_base"** %18, align 8, !llfi_index !449
  %19 = call zeroext i1 @_ZSteqRKSt17_Rb_tree_iteratorISt4pairIKS0_IiiEP1TEES8_(%"struct.std::_Rb_tree_iterator"* nonnull align 8 dereferenceable(8) %5, %"struct.std::_Rb_tree_iterator"* nonnull align 8 dereferenceable(8) %6) #2, !llfi_index !450
  br i1 %19, label %25, label %20, !llfi_index !451

20:                                               ; preds = %2
  call void @_ZNKSt3mapISt4pairIiiEP1TSt4lessIS1_ESaIS0_IKS1_S3_EEE8key_compEv(%"class.std::map"* nonnull align 8 dereferenceable(48) %13), !llfi_index !452
  %21 = load %"struct.std::pair"*, %"struct.std::pair"** %4, align 8, !llfi_index !453
  %22 = call nonnull align 8 dereferenceable(16) %"struct.std::pair.0"* @_ZNKSt17_Rb_tree_iteratorISt4pairIKS0_IiiEP1TEEdeEv(%"struct.std::_Rb_tree_iterator"* nonnull align 8 dereferenceable(8) %5) #2, !llfi_index !454
  %23 = getelementptr inbounds %"struct.std::pair.0", %"struct.std::pair.0"* %22, i32 0, i32 0, !llfi_index !455
  %24 = call zeroext i1 @_ZNKSt4lessISt4pairIiiEEclERKS1_S4_(%"struct.std::less"* nonnull align 1 dereferenceable(1) %7, %"struct.std::pair"* nonnull align 4 dereferenceable(8) %21, %"struct.std::pair"* nonnull align 4 dereferenceable(8) %23), !llfi_index !456
  br label %25, !llfi_index !457

25:                                               ; preds = %20, %2
  %26 = phi i1 [ true, %2 ], [ %24, %20 ], !llfi_index !458
  br i1 %26, label %27, label %37, !llfi_index !459

27:                                               ; preds = %25
  %28 = getelementptr inbounds %"class.std::map", %"class.std::map"* %13, i32 0, i32 0, !llfi_index !460
  call void @_ZNSt23_Rb_tree_const_iteratorISt4pairIKS0_IiiEP1TEEC2ERKSt17_Rb_tree_iteratorIS5_E(%"struct.std::_Rb_tree_iterator"* nonnull align 8 dereferenceable(8) %10, %"struct.std::_Rb_tree_iterator"* nonnull align 8 dereferenceable(8) %5) #2, !llfi_index !461
  %29 = load %"struct.std::pair"*, %"struct.std::pair"** %4, align 8, !llfi_index !462
  %30 = call nonnull align 4 dereferenceable(8) %"struct.std::pair"* @_ZSt4moveIRSt4pairIiiEEONSt16remove_referenceIT_E4typeEOS4_(%"struct.std::pair"* nonnull align 4 dereferenceable(8) %29) #2, !llfi_index !463
  call void @_ZSt16forward_as_tupleIJSt4pairIiiEEESt5tupleIJDpOT_EES5_(%"class.std::tuple"* sret(%"class.std::tuple") align 8 %11, %"struct.std::pair"* nonnull align 4 dereferenceable(8) %30) #2, !llfi_index !464
  %31 = getelementptr inbounds %"struct.std::_Rb_tree_iterator", %"struct.std::_Rb_tree_iterator"* %10, i32 0, i32 0, !llfi_index !465
  %32 = load %"struct.std::_Rb_tree_node_base"*, %"struct.std::_Rb_tree_node_base"** %31, align 8, !llfi_index !466
  %33 = call %"struct.std::_Rb_tree_node_base"* @_ZNSt8_Rb_treeISt4pairIiiES0_IKS1_P1TESt10_Select1stIS5_ESt4lessIS1_ESaIS5_EE22_M_emplace_hint_uniqueIJRKSt21piecewise_construct_tSt5tupleIJOS1_EESG_IJEEEEESt17_Rb_tree_iteratorIS5_ESt23_Rb_tree_const_iteratorIS5_EDpOT_(%"class.std::_Rb_tree"* nonnull align 8 dereferenceable(48) %28, %"struct.std::_Rb_tree_node_base"* %32, %"struct.std::less"* nonnull align 1 dereferenceable(1) @_ZStL19piecewise_construct, %"class.std::tuple"* nonnull align 8 dereferenceable(8) %11, %"struct.std::less"* nonnull align 1 dereferenceable(1) %12), !llfi_index !467
  %34 = getelementptr inbounds %"struct.std::_Rb_tree_iterator", %"struct.std::_Rb_tree_iterator"* %9, i32 0, i32 0, !llfi_index !468
  store %"struct.std::_Rb_tree_node_base"* %33, %"struct.std::_Rb_tree_node_base"** %34, align 8, !llfi_index !469
  %35 = bitcast %"struct.std::_Rb_tree_iterator"* %5 to i8*, !llfi_index !470
  %36 = bitcast %"struct.std::_Rb_tree_iterator"* %9 to i8*, !llfi_index !471
  call void @llvm.memcpy.p0i8.p0i8.i64(i8* align 8 %35, i8* align 8 %36, i64 8, i1 false), !llfi_index !472
  br label %37, !llfi_index !473

37:                                               ; preds = %27, %25
  %38 = call nonnull align 8 dereferenceable(16) %"struct.std::pair.0"* @_ZNKSt17_Rb_tree_iteratorISt4pairIKS0_IiiEP1TEEdeEv(%"struct.std::_Rb_tree_iterator"* nonnull align 8 dereferenceable(8) %5) #2, !llfi_index !474
  %39 = getelementptr inbounds %"struct.std::pair.0", %"struct.std::pair.0"* %38, i32 0, i32 1, !llfi_index !475
  ret %struct.T** %39, !llfi_index !476
}

; Function Attrs: mustprogress noinline uwtable
define linkonce_odr dso_local %"struct.std::_Rb_tree_node_base"* @_ZNSt3mapISt4pairIiiEP1TSt4lessIS1_ESaIS0_IKS1_S3_EEE11lower_boundERS6_(%"class.std::map"* nonnull align 8 dereferenceable(48) %0, %"struct.std::pair"* nonnull align 4 dereferenceable(8) %1) #4 comdat align 2 {
  %3 = alloca %"struct.std::_Rb_tree_iterator", align 8, !llfi_index !477
  %4 = alloca %"class.std::map"*, align 8, !llfi_index !478
  %5 = alloca %"struct.std::pair"*, align 8, !llfi_index !479
  store %"class.std::map"* %0, %"class.std::map"** %4, align 8, !llfi_index !480
  store %"struct.std::pair"* %1, %"struct.std::pair"** %5, align 8, !llfi_index !481
  %6 = load %"class.std::map"*, %"class.std::map"** %4, align 8, !llfi_index !482
  %7 = getelementptr inbounds %"class.std::map", %"class.std::map"* %6, i32 0, i32 0, !llfi_index !483
  %8 = load %"struct.std::pair"*, %"struct.std::pair"** %5, align 8, !llfi_index !484
  %9 = call %"struct.std::_Rb_tree_node_base"* @_ZNSt8_Rb_treeISt4pairIiiES0_IKS1_P1TESt10_Select1stIS5_ESt4lessIS1_ESaIS5_EE11lower_boundERS2_(%"class.std::_Rb_tree"* nonnull align 8 dereferenceable(48) %7, %"struct.std::pair"* nonnull align 4 dereferenceable(8) %8), !llfi_index !485
  %10 = getelementptr inbounds %"struct.std::_Rb_tree_iterator", %"struct.std::_Rb_tree_iterator"* %3, i32 0, i32 0, !llfi_index !486
  store %"struct.std::_Rb_tree_node_base"* %9, %"struct.std::_Rb_tree_node_base"** %10, align 8, !llfi_index !487
  %11 = getelementptr inbounds %"struct.std::_Rb_tree_iterator", %"struct.std::_Rb_tree_iterator"* %3, i32 0, i32 0, !llfi_index !488
  %12 = load %"struct.std::_Rb_tree_node_base"*, %"struct.std::_Rb_tree_node_base"** %11, align 8, !llfi_index !489
  ret %"struct.std::_Rb_tree_node_base"* %12, !llfi_index !490
}

; Function Attrs: mustprogress noinline nounwind uwtable
define linkonce_odr dso_local %"struct.std::_Rb_tree_node_base"* @_ZNSt3mapISt4pairIiiEP1TSt4lessIS1_ESaIS0_IKS1_S3_EEE3endEv(%"class.std::map"* nonnull align 8 dereferenceable(48) %0) #3 comdat align 2 {
  %2 = alloca %"struct.std::_Rb_tree_iterator", align 8, !llfi_index !491
  %3 = alloca %"class.std::map"*, align 8, !llfi_index !492
  store %"class.std::map"* %0, %"class.std::map"** %3, align 8, !llfi_index !493
  %4 = load %"class.std::map"*, %"class.std::map"** %3, align 8, !llfi_index !494
  %5 = getelementptr inbounds %"class.std::map", %"class.std::map"* %4, i32 0, i32 0, !llfi_index !495
  %6 = call %"struct.std::_Rb_tree_node_base"* @_ZNSt8_Rb_treeISt4pairIiiES0_IKS1_P1TESt10_Select1stIS5_ESt4lessIS1_ESaIS5_EE3endEv(%"class.std::_Rb_tree"* nonnull align 8 dereferenceable(48) %5) #2, !llfi_index !496
  %7 = getelementptr inbounds %"struct.std::_Rb_tree_iterator", %"struct.std::_Rb_tree_iterator"* %2, i32 0, i32 0, !llfi_index !497
  store %"struct.std::_Rb_tree_node_base"* %6, %"struct.std::_Rb_tree_node_base"** %7, align 8, !llfi_index !498
  %8 = getelementptr inbounds %"struct.std::_Rb_tree_iterator", %"struct.std::_Rb_tree_iterator"* %2, i32 0, i32 0, !llfi_index !499
  %9 = load %"struct.std::_Rb_tree_node_base"*, %"struct.std::_Rb_tree_node_base"** %8, align 8, !llfi_index !500
  ret %"struct.std::_Rb_tree_node_base"* %9, !llfi_index !501
}

; Function Attrs: mustprogress noinline nounwind uwtable
define linkonce_odr dso_local zeroext i1 @_ZSteqRKSt17_Rb_tree_iteratorISt4pairIKS0_IiiEP1TEES8_(%"struct.std::_Rb_tree_iterator"* nonnull align 8 dereferenceable(8) %0, %"struct.std::_Rb_tree_iterator"* nonnull align 8 dereferenceable(8) %1) #3 comdat {
  %3 = alloca %"struct.std::_Rb_tree_iterator"*, align 8, !llfi_index !502
  %4 = alloca %"struct.std::_Rb_tree_iterator"*, align 8, !llfi_index !503
  store %"struct.std::_Rb_tree_iterator"* %0, %"struct.std::_Rb_tree_iterator"** %3, align 8, !llfi_index !504
  store %"struct.std::_Rb_tree_iterator"* %1, %"struct.std::_Rb_tree_iterator"** %4, align 8, !llfi_index !505
  %5 = load %"struct.std::_Rb_tree_iterator"*, %"struct.std::_Rb_tree_iterator"** %3, align 8, !llfi_index !506
  %6 = getelementptr inbounds %"struct.std::_Rb_tree_iterator", %"struct.std::_Rb_tree_iterator"* %5, i32 0, i32 0, !llfi_index !507
  %7 = load %"struct.std::_Rb_tree_node_base"*, %"struct.std::_Rb_tree_node_base"** %6, align 8, !llfi_index !508
  %8 = load %"struct.std::_Rb_tree_iterator"*, %"struct.std::_Rb_tree_iterator"** %4, align 8, !llfi_index !509
  %9 = getelementptr inbounds %"struct.std::_Rb_tree_iterator", %"struct.std::_Rb_tree_iterator"* %8, i32 0, i32 0, !llfi_index !510
  %10 = load %"struct.std::_Rb_tree_node_base"*, %"struct.std::_Rb_tree_node_base"** %9, align 8, !llfi_index !511
  %11 = icmp eq %"struct.std::_Rb_tree_node_base"* %7, %10, !llfi_index !512
  ret i1 %11, !llfi_index !513
}

; Function Attrs: mustprogress noinline uwtable
define linkonce_odr dso_local void @_ZNKSt3mapISt4pairIiiEP1TSt4lessIS1_ESaIS0_IKS1_S3_EEE8key_compEv(%"class.std::map"* nonnull align 8 dereferenceable(48) %0) #4 comdat align 2 {
  %2 = alloca %"class.std::map"*, align 8, !llfi_index !514
  %3 = alloca %"struct.std::less", align 1, !llfi_index !515
  store %"class.std::map"* %0, %"class.std::map"** %2, align 8, !llfi_index !516
  %4 = load %"class.std::map"*, %"class.std::map"** %2, align 8, !llfi_index !517
  %5 = getelementptr inbounds %"class.std::map", %"class.std::map"* %4, i32 0, i32 0, !llfi_index !518
  call void @_ZNKSt8_Rb_treeISt4pairIiiES0_IKS1_P1TESt10_Select1stIS5_ESt4lessIS1_ESaIS5_EE8key_compEv(%"class.std::_Rb_tree"* nonnull align 8 dereferenceable(48) %5), !llfi_index !519
  ret void, !llfi_index !520
}

; Function Attrs: mustprogress noinline nounwind uwtable
define linkonce_odr dso_local nonnull align 8 dereferenceable(16) %"struct.std::pair.0"* @_ZNKSt17_Rb_tree_iteratorISt4pairIKS0_IiiEP1TEEdeEv(%"struct.std::_Rb_tree_iterator"* nonnull align 8 dereferenceable(8) %0) #3 comdat align 2 {
  %2 = alloca %"struct.std::_Rb_tree_iterator"*, align 8, !llfi_index !521
  store %"struct.std::_Rb_tree_iterator"* %0, %"struct.std::_Rb_tree_iterator"** %2, align 8, !llfi_index !522
  %3 = load %"struct.std::_Rb_tree_iterator"*, %"struct.std::_Rb_tree_iterator"** %2, align 8, !llfi_index !523
  %4 = getelementptr inbounds %"struct.std::_Rb_tree_iterator", %"struct.std::_Rb_tree_iterator"* %3, i32 0, i32 0, !llfi_index !524
  %5 = load %"struct.std::_Rb_tree_node_base"*, %"struct.std::_Rb_tree_node_base"** %4, align 8, !llfi_index !525
  %6 = bitcast %"struct.std::_Rb_tree_node_base"* %5 to %"struct.std::_Rb_tree_node"*, !llfi_index !526
  %7 = call %"struct.std::pair.0"* @_ZNSt13_Rb_tree_nodeISt4pairIKS0_IiiEP1TEE9_M_valptrEv(%"struct.std::_Rb_tree_node"* nonnull align 8 dereferenceable(48) %6), !llfi_index !527
  ret %"struct.std::pair.0"* %7, !llfi_index !528
}

; Function Attrs: mustprogress noinline uwtable
define linkonce_odr dso_local zeroext i1 @_ZNKSt4lessISt4pairIiiEEclERKS1_S4_(%"struct.std::less"* nonnull align 1 dereferenceable(1) %0, %"struct.std::pair"* nonnull align 4 dereferenceable(8) %1, %"struct.std::pair"* nonnull align 4 dereferenceable(8) %2) #4 comdat align 2 {
  %4 = alloca %"struct.std::less"*, align 8, !llfi_index !529
  %5 = alloca %"struct.std::pair"*, align 8, !llfi_index !530
  %6 = alloca %"struct.std::pair"*, align 8, !llfi_index !531
  store %"struct.std::less"* %0, %"struct.std::less"** %4, align 8, !llfi_index !532
  store %"struct.std::pair"* %1, %"struct.std::pair"** %5, align 8, !llfi_index !533
  store %"struct.std::pair"* %2, %"struct.std::pair"** %6, align 8, !llfi_index !534
  %7 = load %"struct.std::less"*, %"struct.std::less"** %4, align 8, !llfi_index !535
  %8 = load %"struct.std::pair"*, %"struct.std::pair"** %5, align 8, !llfi_index !536
  %9 = load %"struct.std::pair"*, %"struct.std::pair"** %6, align 8, !llfi_index !537
  %10 = call zeroext i1 @_ZStltIiiEbRKSt4pairIT_T0_ES5_(%"struct.std::pair"* nonnull align 4 dereferenceable(8) %8, %"struct.std::pair"* nonnull align 4 dereferenceable(8) %9), !llfi_index !538
  ret i1 %10, !llfi_index !539
}

; Function Attrs: noinline nounwind uwtable
define linkonce_odr dso_local void @_ZNSt23_Rb_tree_const_iteratorISt4pairIKS0_IiiEP1TEEC2ERKSt17_Rb_tree_iteratorIS5_E(%"struct.std::_Rb_tree_iterator"* nonnull align 8 dereferenceable(8) %0, %"struct.std::_Rb_tree_iterator"* nonnull align 8 dereferenceable(8) %1) unnamed_addr #1 comdat align 2 {
  %3 = alloca %"struct.std::_Rb_tree_iterator"*, align 8, !llfi_index !540
  %4 = alloca %"struct.std::_Rb_tree_iterator"*, align 8, !llfi_index !541
  store %"struct.std::_Rb_tree_iterator"* %0, %"struct.std::_Rb_tree_iterator"** %3, align 8, !llfi_index !542
  store %"struct.std::_Rb_tree_iterator"* %1, %"struct.std::_Rb_tree_iterator"** %4, align 8, !llfi_index !543
  %5 = load %"struct.std::_Rb_tree_iterator"*, %"struct.std::_Rb_tree_iterator"** %3, align 8, !llfi_index !544
  %6 = getelementptr inbounds %"struct.std::_Rb_tree_iterator", %"struct.std::_Rb_tree_iterator"* %5, i32 0, i32 0, !llfi_index !545
  %7 = load %"struct.std::_Rb_tree_iterator"*, %"struct.std::_Rb_tree_iterator"** %4, align 8, !llfi_index !546
  %8 = getelementptr inbounds %"struct.std::_Rb_tree_iterator", %"struct.std::_Rb_tree_iterator"* %7, i32 0, i32 0, !llfi_index !547
  %9 = load %"struct.std::_Rb_tree_node_base"*, %"struct.std::_Rb_tree_node_base"** %8, align 8, !llfi_index !548
  store %"struct.std::_Rb_tree_node_base"* %9, %"struct.std::_Rb_tree_node_base"** %6, align 8, !llfi_index !549
  ret void, !llfi_index !550
}

; Function Attrs: mustprogress noinline nounwind uwtable
define linkonce_odr dso_local nonnull align 4 dereferenceable(8) %"struct.std::pair"* @_ZSt4moveIRSt4pairIiiEEONSt16remove_referenceIT_E4typeEOS4_(%"struct.std::pair"* nonnull align 4 dereferenceable(8) %0) #3 comdat {
  %2 = alloca %"struct.std::pair"*, align 8, !llfi_index !551
  store %"struct.std::pair"* %0, %"struct.std::pair"** %2, align 8, !llfi_index !552
  %3 = load %"struct.std::pair"*, %"struct.std::pair"** %2, align 8, !llfi_index !553
  ret %"struct.std::pair"* %3, !llfi_index !554
}

; Function Attrs: mustprogress noinline nounwind uwtable
define linkonce_odr dso_local void @_ZSt16forward_as_tupleIJSt4pairIiiEEESt5tupleIJDpOT_EES5_(%"class.std::tuple"* noalias sret(%"class.std::tuple") align 8 %0, %"struct.std::pair"* nonnull align 4 dereferenceable(8) %1) #3 comdat personality i8* bitcast (i32 (...)* @__gxx_personality_v0 to i8*) {
  %3 = alloca i8*, align 8, !llfi_index !555
  %4 = alloca %"struct.std::pair"*, align 8, !llfi_index !556
  %5 = bitcast %"class.std::tuple"* %0 to i8*, !llfi_index !557
  store i8* %5, i8** %3, align 8, !llfi_index !558
  store %"struct.std::pair"* %1, %"struct.std::pair"** %4, align 8, !llfi_index !559
  %6 = load %"struct.std::pair"*, %"struct.std::pair"** %4, align 8, !llfi_index !560
  %7 = call nonnull align 4 dereferenceable(8) %"struct.std::pair"* @_ZSt7forwardISt4pairIiiEEOT_RNSt16remove_referenceIS2_E4typeE(%"struct.std::pair"* nonnull align 4 dereferenceable(8) %6) #2, !llfi_index !561
  invoke void @_ZNSt5tupleIJOSt4pairIiiEEEC2IJS1_ELb1EEEDpOT_(%"class.std::tuple"* nonnull align 8 dereferenceable(8) %0, %"struct.std::pair"* nonnull align 4 dereferenceable(8) %7)
          to label %8 unwind label %9, !llfi_index !562

8:                                                ; preds = %2
  ret void, !llfi_index !563

9:                                                ; preds = %2
  %10 = landingpad { i8*, i32 }
          catch i8* null, !llfi_index !564
  %11 = extractvalue { i8*, i32 } %10, 0, !llfi_index !565
  call void @__clang_call_terminate(i8* %11) #15, !llfi_index !566
  unreachable, !llfi_index !567
}

; Function Attrs: mustprogress noinline uwtable
define linkonce_odr dso_local %"struct.std::_Rb_tree_node_base"* @_ZNSt8_Rb_treeISt4pairIiiES0_IKS1_P1TESt10_Select1stIS5_ESt4lessIS1_ESaIS5_EE22_M_emplace_hint_uniqueIJRKSt21piecewise_construct_tSt5tupleIJOS1_EESG_IJEEEEESt17_Rb_tree_iteratorIS5_ESt23_Rb_tree_const_iteratorIS5_EDpOT_(%"class.std::_Rb_tree"* nonnull align 8 dereferenceable(48) %0, %"struct.std::_Rb_tree_node_base"* %1, %"struct.std::less"* nonnull align 1 dereferenceable(1) %2, %"class.std::tuple"* nonnull align 8 dereferenceable(8) %3, %"struct.std::less"* nonnull align 1 dereferenceable(1) %4) #4 comdat align 2 personality i8* bitcast (i32 (...)* @__gxx_personality_v0 to i8*) {
  %6 = alloca %"struct.std::_Rb_tree_iterator", align 8, !llfi_index !568
  %7 = alloca %"struct.std::_Rb_tree_iterator", align 8, !llfi_index !569
  %8 = alloca %"class.std::_Rb_tree"*, align 8, !llfi_index !570
  %9 = alloca %"struct.std::less"*, align 8, !llfi_index !571
  %10 = alloca %"class.std::tuple"*, align 8, !llfi_index !572
  %11 = alloca %"struct.std::less"*, align 8, !llfi_index !573
  %12 = alloca %"struct.std::_Rb_tree_node"*, align 8, !llfi_index !574
  %13 = alloca %"struct.std::pair.4", align 8, !llfi_index !575
  %14 = alloca %"struct.std::_Rb_tree_iterator", align 8, !llfi_index !576
  %15 = alloca i8*, align 8, !llfi_index !577
  %16 = alloca i32, align 4, !llfi_index !578
  %17 = getelementptr inbounds %"struct.std::_Rb_tree_iterator", %"struct.std::_Rb_tree_iterator"* %7, i32 0, i32 0, !llfi_index !579
  store %"struct.std::_Rb_tree_node_base"* %1, %"struct.std::_Rb_tree_node_base"** %17, align 8, !llfi_index !580
  store %"class.std::_Rb_tree"* %0, %"class.std::_Rb_tree"** %8, align 8, !llfi_index !581
  store %"struct.std::less"* %2, %"struct.std::less"** %9, align 8, !llfi_index !582
  store %"class.std::tuple"* %3, %"class.std::tuple"** %10, align 8, !llfi_index !583
  store %"struct.std::less"* %4, %"struct.std::less"** %11, align 8, !llfi_index !584
  %18 = load %"class.std::_Rb_tree"*, %"class.std::_Rb_tree"** %8, align 8, !llfi_index !585
  %19 = load %"struct.std::less"*, %"struct.std::less"** %9, align 8, !llfi_index !586
  %20 = call nonnull align 1 dereferenceable(1) %"struct.std::less"* @_ZSt7forwardIRKSt21piecewise_construct_tEOT_RNSt16remove_referenceIS3_E4typeE(%"struct.std::less"* nonnull align 1 dereferenceable(1) %19) #2, !llfi_index !587
  %21 = load %"class.std::tuple"*, %"class.std::tuple"** %10, align 8, !llfi_index !588
  %22 = call nonnull align 8 dereferenceable(8) %"class.std::tuple"* @_ZSt7forwardISt5tupleIJOSt4pairIiiEEEEOT_RNSt16remove_referenceIS5_E4typeE(%"class.std::tuple"* nonnull align 8 dereferenceable(8) %21) #2, !llfi_index !589
  %23 = load %"struct.std::less"*, %"struct.std::less"** %11, align 8, !llfi_index !590
  %24 = call nonnull align 1 dereferenceable(1) %"struct.std::less"* @_ZSt7forwardISt5tupleIJEEEOT_RNSt16remove_referenceIS2_E4typeE(%"struct.std::less"* nonnull align 1 dereferenceable(1) %23) #2, !llfi_index !591
  %25 = call %"struct.std::_Rb_tree_node"* @_ZNSt8_Rb_treeISt4pairIiiES0_IKS1_P1TESt10_Select1stIS5_ESt4lessIS1_ESaIS5_EE14_M_create_nodeIJRKSt21piecewise_construct_tSt5tupleIJOS1_EESG_IJEEEEEPSt13_Rb_tree_nodeIS5_EDpOT_(%"class.std::_Rb_tree"* nonnull align 8 dereferenceable(48) %18, %"struct.std::less"* nonnull align 1 dereferenceable(1) %20, %"class.std::tuple"* nonnull align 8 dereferenceable(8) %22, %"struct.std::less"* nonnull align 1 dereferenceable(1) %24), !llfi_index !592
  store %"struct.std::_Rb_tree_node"* %25, %"struct.std::_Rb_tree_node"** %12, align 8, !llfi_index !593
  %26 = bitcast %"struct.std::_Rb_tree_iterator"* %14 to i8*, !llfi_index !594
  %27 = bitcast %"struct.std::_Rb_tree_iterator"* %7 to i8*, !llfi_index !595
  call void @llvm.memcpy.p0i8.p0i8.i64(i8* align 8 %26, i8* align 8 %27, i64 8, i1 false), !llfi_index !596
  %28 = load %"struct.std::_Rb_tree_node"*, %"struct.std::_Rb_tree_node"** %12, align 8, !llfi_index !597
  %29 = invoke nonnull align 4 dereferenceable(8) %"struct.std::pair"* @_ZNSt8_Rb_treeISt4pairIiiES0_IKS1_P1TESt10_Select1stIS5_ESt4lessIS1_ESaIS5_EE6_S_keyEPKSt13_Rb_tree_nodeIS5_E(%"struct.std::_Rb_tree_node"* %28)
          to label %30 unwind label %52, !llfi_index !598

30:                                               ; preds = %5
  %31 = getelementptr inbounds %"struct.std::_Rb_tree_iterator", %"struct.std::_Rb_tree_iterator"* %14, i32 0, i32 0, !llfi_index !599
  %32 = load %"struct.std::_Rb_tree_node_base"*, %"struct.std::_Rb_tree_node_base"** %31, align 8, !llfi_index !600
  %33 = invoke { %"struct.std::_Rb_tree_node_base"*, %"struct.std::_Rb_tree_node_base"* } @_ZNSt8_Rb_treeISt4pairIiiES0_IKS1_P1TESt10_Select1stIS5_ESt4lessIS1_ESaIS5_EE29_M_get_insert_hint_unique_posESt23_Rb_tree_const_iteratorIS5_ERS2_(%"class.std::_Rb_tree"* nonnull align 8 dereferenceable(48) %18, %"struct.std::_Rb_tree_node_base"* %32, %"struct.std::pair"* nonnull align 4 dereferenceable(8) %29)
          to label %34 unwind label %52, !llfi_index !601

34:                                               ; preds = %30
  %35 = bitcast %"struct.std::pair.4"* %13 to { %"struct.std::_Rb_tree_node_base"*, %"struct.std::_Rb_tree_node_base"* }*, !llfi_index !602
  %36 = getelementptr inbounds { %"struct.std::_Rb_tree_node_base"*, %"struct.std::_Rb_tree_node_base"* }, { %"struct.std::_Rb_tree_node_base"*, %"struct.std::_Rb_tree_node_base"* }* %35, i32 0, i32 0, !llfi_index !603
  %37 = extractvalue { %"struct.std::_Rb_tree_node_base"*, %"struct.std::_Rb_tree_node_base"* } %33, 0, !llfi_index !604
  store %"struct.std::_Rb_tree_node_base"* %37, %"struct.std::_Rb_tree_node_base"** %36, align 8, !llfi_index !605
  %38 = getelementptr inbounds { %"struct.std::_Rb_tree_node_base"*, %"struct.std::_Rb_tree_node_base"* }, { %"struct.std::_Rb_tree_node_base"*, %"struct.std::_Rb_tree_node_base"* }* %35, i32 0, i32 1, !llfi_index !606
  %39 = extractvalue { %"struct.std::_Rb_tree_node_base"*, %"struct.std::_Rb_tree_node_base"* } %33, 1, !llfi_index !607
  store %"struct.std::_Rb_tree_node_base"* %39, %"struct.std::_Rb_tree_node_base"** %38, align 8, !llfi_index !608
  %40 = getelementptr inbounds %"struct.std::pair.4", %"struct.std::pair.4"* %13, i32 0, i32 1, !llfi_index !609
  %41 = load %"struct.std::_Rb_tree_node_base"*, %"struct.std::_Rb_tree_node_base"** %40, align 8, !llfi_index !610
  %42 = icmp ne %"struct.std::_Rb_tree_node_base"* %41, null, !llfi_index !611
  br i1 %42, label %43, label %60, !llfi_index !612

43:                                               ; preds = %34
  %44 = getelementptr inbounds %"struct.std::pair.4", %"struct.std::pair.4"* %13, i32 0, i32 0, !llfi_index !613
  %45 = load %"struct.std::_Rb_tree_node_base"*, %"struct.std::_Rb_tree_node_base"** %44, align 8, !llfi_index !614
  %46 = getelementptr inbounds %"struct.std::pair.4", %"struct.std::pair.4"* %13, i32 0, i32 1, !llfi_index !615
  %47 = load %"struct.std::_Rb_tree_node_base"*, %"struct.std::_Rb_tree_node_base"** %46, align 8, !llfi_index !616
  %48 = load %"struct.std::_Rb_tree_node"*, %"struct.std::_Rb_tree_node"** %12, align 8, !llfi_index !617
  %49 = invoke %"struct.std::_Rb_tree_node_base"* @_ZNSt8_Rb_treeISt4pairIiiES0_IKS1_P1TESt10_Select1stIS5_ESt4lessIS1_ESaIS5_EE14_M_insert_nodeEPSt18_Rb_tree_node_baseSD_PSt13_Rb_tree_nodeIS5_E(%"class.std::_Rb_tree"* nonnull align 8 dereferenceable(48) %18, %"struct.std::_Rb_tree_node_base"* %45, %"struct.std::_Rb_tree_node_base"* %47, %"struct.std::_Rb_tree_node"* %48)
          to label %50 unwind label %52, !llfi_index !618

50:                                               ; preds = %43
  %51 = getelementptr inbounds %"struct.std::_Rb_tree_iterator", %"struct.std::_Rb_tree_iterator"* %6, i32 0, i32 0, !llfi_index !619
  store %"struct.std::_Rb_tree_node_base"* %49, %"struct.std::_Rb_tree_node_base"** %51, align 8, !llfi_index !620
  br label %70, !llfi_index !621

52:                                               ; preds = %43, %30, %5
  %53 = landingpad { i8*, i32 }
          catch i8* null, !llfi_index !622
  %54 = extractvalue { i8*, i32 } %53, 0, !llfi_index !623
  store i8* %54, i8** %15, align 8, !llfi_index !624
  %55 = extractvalue { i8*, i32 } %53, 1, !llfi_index !625
  store i32 %55, i32* %16, align 4, !llfi_index !626
  br label %56, !llfi_index !627

56:                                               ; preds = %52
  %57 = load i8*, i8** %15, align 8, !llfi_index !628
  %58 = call i8* @__cxa_begin_catch(i8* %57) #2, !llfi_index !629
  %59 = load %"struct.std::_Rb_tree_node"*, %"struct.std::_Rb_tree_node"** %12, align 8, !llfi_index !630
  call void @_ZNSt8_Rb_treeISt4pairIiiES0_IKS1_P1TESt10_Select1stIS5_ESt4lessIS1_ESaIS5_EE12_M_drop_nodeEPSt13_Rb_tree_nodeIS5_E(%"class.std::_Rb_tree"* nonnull align 8 dereferenceable(48) %18, %"struct.std::_Rb_tree_node"* %59) #2, !llfi_index !631
  invoke void @__cxa_rethrow() #16
          to label %81 unwind label %64, !llfi_index !632

60:                                               ; preds = %34
  %61 = load %"struct.std::_Rb_tree_node"*, %"struct.std::_Rb_tree_node"** %12, align 8, !llfi_index !633
  call void @_ZNSt8_Rb_treeISt4pairIiiES0_IKS1_P1TESt10_Select1stIS5_ESt4lessIS1_ESaIS5_EE12_M_drop_nodeEPSt13_Rb_tree_nodeIS5_E(%"class.std::_Rb_tree"* nonnull align 8 dereferenceable(48) %18, %"struct.std::_Rb_tree_node"* %61) #2, !llfi_index !634
  %62 = getelementptr inbounds %"struct.std::pair.4", %"struct.std::pair.4"* %13, i32 0, i32 0, !llfi_index !635
  %63 = load %"struct.std::_Rb_tree_node_base"*, %"struct.std::_Rb_tree_node_base"** %62, align 8, !llfi_index !636
  call void @_ZNSt17_Rb_tree_iteratorISt4pairIKS0_IiiEP1TEEC2EPSt18_Rb_tree_node_base(%"struct.std::_Rb_tree_iterator"* nonnull align 8 dereferenceable(8) %6, %"struct.std::_Rb_tree_node_base"* %63) #2, !llfi_index !637
  br label %70, !llfi_index !638

64:                                               ; preds = %56
  %65 = landingpad { i8*, i32 }
          cleanup, !llfi_index !639
  %66 = extractvalue { i8*, i32 } %65, 0, !llfi_index !640
  store i8* %66, i8** %15, align 8, !llfi_index !641
  %67 = extractvalue { i8*, i32 } %65, 1, !llfi_index !642
  store i32 %67, i32* %16, align 4, !llfi_index !643
  invoke void @__cxa_end_catch()
          to label %68 unwind label %78, !llfi_index !644

68:                                               ; preds = %64
  br label %73, !llfi_index !645

69:                                               ; No predecessors!
  call void @llvm.trap(), !llfi_index !646
  unreachable, !llfi_index !647

70:                                               ; preds = %60, %50
  %71 = getelementptr inbounds %"struct.std::_Rb_tree_iterator", %"struct.std::_Rb_tree_iterator"* %6, i32 0, i32 0, !llfi_index !648
  %72 = load %"struct.std::_Rb_tree_node_base"*, %"struct.std::_Rb_tree_node_base"** %71, align 8, !llfi_index !649
  ret %"struct.std::_Rb_tree_node_base"* %72, !llfi_index !650

73:                                               ; preds = %68
  %74 = load i8*, i8** %15, align 8, !llfi_index !651
  %75 = load i32, i32* %16, align 4, !llfi_index !652
  %76 = insertvalue { i8*, i32 } undef, i8* %74, 0, !llfi_index !653
  %77 = insertvalue { i8*, i32 } %76, i32 %75, 1, !llfi_index !654
  resume { i8*, i32 } %77, !llfi_index !655

78:                                               ; preds = %64
  %79 = landingpad { i8*, i32 }
          catch i8* null, !llfi_index !656
  %80 = extractvalue { i8*, i32 } %79, 0, !llfi_index !657
  call void @__clang_call_terminate(i8* %80) #15, !llfi_index !658
  unreachable, !llfi_index !659

81:                                               ; preds = %56
  unreachable, !llfi_index !660
}

; Function Attrs: argmemonly nofree nounwind willreturn
declare void @llvm.memcpy.p0i8.p0i8.i64(i8* noalias nocapture writeonly, i8* noalias nocapture readonly, i64, i1 immarg) #9

; Function Attrs: mustprogress noinline nounwind uwtable
define linkonce_odr dso_local nonnull align 1 dereferenceable(1) %"struct.std::less"* @_ZSt7forwardIRKSt21piecewise_construct_tEOT_RNSt16remove_referenceIS3_E4typeE(%"struct.std::less"* nonnull align 1 dereferenceable(1) %0) #3 comdat {
  %2 = alloca %"struct.std::less"*, align 8, !llfi_index !661
  store %"struct.std::less"* %0, %"struct.std::less"** %2, align 8, !llfi_index !662
  %3 = load %"struct.std::less"*, %"struct.std::less"** %2, align 8, !llfi_index !663
  ret %"struct.std::less"* %3, !llfi_index !664
}

; Function Attrs: mustprogress noinline nounwind uwtable
define linkonce_odr dso_local nonnull align 8 dereferenceable(8) %"class.std::tuple"* @_ZSt7forwardISt5tupleIJOSt4pairIiiEEEEOT_RNSt16remove_referenceIS5_E4typeE(%"class.std::tuple"* nonnull align 8 dereferenceable(8) %0) #3 comdat {
  %2 = alloca %"class.std::tuple"*, align 8, !llfi_index !665
  store %"class.std::tuple"* %0, %"class.std::tuple"** %2, align 8, !llfi_index !666
  %3 = load %"class.std::tuple"*, %"class.std::tuple"** %2, align 8, !llfi_index !667
  ret %"class.std::tuple"* %3, !llfi_index !668
}

; Function Attrs: mustprogress noinline nounwind uwtable
define linkonce_odr dso_local nonnull align 1 dereferenceable(1) %"struct.std::less"* @_ZSt7forwardISt5tupleIJEEEOT_RNSt16remove_referenceIS2_E4typeE(%"struct.std::less"* nonnull align 1 dereferenceable(1) %0) #3 comdat {
  %2 = alloca %"struct.std::less"*, align 8, !llfi_index !669
  store %"struct.std::less"* %0, %"struct.std::less"** %2, align 8, !llfi_index !670
  %3 = load %"struct.std::less"*, %"struct.std::less"** %2, align 8, !llfi_index !671
  ret %"struct.std::less"* %3, !llfi_index !672
}

; Function Attrs: mustprogress noinline uwtable
define linkonce_odr dso_local %"struct.std::_Rb_tree_node"* @_ZNSt8_Rb_treeISt4pairIiiES0_IKS1_P1TESt10_Select1stIS5_ESt4lessIS1_ESaIS5_EE14_M_create_nodeIJRKSt21piecewise_construct_tSt5tupleIJOS1_EESG_IJEEEEEPSt13_Rb_tree_nodeIS5_EDpOT_(%"class.std::_Rb_tree"* nonnull align 8 dereferenceable(48) %0, %"struct.std::less"* nonnull align 1 dereferenceable(1) %1, %"class.std::tuple"* nonnull align 8 dereferenceable(8) %2, %"struct.std::less"* nonnull align 1 dereferenceable(1) %3) #4 comdat align 2 {
  %5 = alloca %"class.std::_Rb_tree"*, align 8, !llfi_index !673
  %6 = alloca %"struct.std::less"*, align 8, !llfi_index !674
  %7 = alloca %"class.std::tuple"*, align 8, !llfi_index !675
  %8 = alloca %"struct.std::less"*, align 8, !llfi_index !676
  %9 = alloca %"struct.std::_Rb_tree_node"*, align 8, !llfi_index !677
  store %"class.std::_Rb_tree"* %0, %"class.std::_Rb_tree"** %5, align 8, !llfi_index !678
  store %"struct.std::less"* %1, %"struct.std::less"** %6, align 8, !llfi_index !679
  store %"class.std::tuple"* %2, %"class.std::tuple"** %7, align 8, !llfi_index !680
  store %"struct.std::less"* %3, %"struct.std::less"** %8, align 8, !llfi_index !681
  %10 = load %"class.std::_Rb_tree"*, %"class.std::_Rb_tree"** %5, align 8, !llfi_index !682
  %11 = call %"struct.std::_Rb_tree_node"* @_ZNSt8_Rb_treeISt4pairIiiES0_IKS1_P1TESt10_Select1stIS5_ESt4lessIS1_ESaIS5_EE11_M_get_nodeEv(%"class.std::_Rb_tree"* nonnull align 8 dereferenceable(48) %10), !llfi_index !683
  store %"struct.std::_Rb_tree_node"* %11, %"struct.std::_Rb_tree_node"** %9, align 8, !llfi_index !684
  %12 = load %"struct.std::_Rb_tree_node"*, %"struct.std::_Rb_tree_node"** %9, align 8, !llfi_index !685
  %13 = load %"struct.std::less"*, %"struct.std::less"** %6, align 8, !llfi_index !686
  %14 = call nonnull align 1 dereferenceable(1) %"struct.std::less"* @_ZSt7forwardIRKSt21piecewise_construct_tEOT_RNSt16remove_referenceIS3_E4typeE(%"struct.std::less"* nonnull align 1 dereferenceable(1) %13) #2, !llfi_index !687
  %15 = load %"class.std::tuple"*, %"class.std::tuple"** %7, align 8, !llfi_index !688
  %16 = call nonnull align 8 dereferenceable(8) %"class.std::tuple"* @_ZSt7forwardISt5tupleIJOSt4pairIiiEEEEOT_RNSt16remove_referenceIS5_E4typeE(%"class.std::tuple"* nonnull align 8 dereferenceable(8) %15) #2, !llfi_index !689
  %17 = load %"struct.std::less"*, %"struct.std::less"** %8, align 8, !llfi_index !690
  %18 = call nonnull align 1 dereferenceable(1) %"struct.std::less"* @_ZSt7forwardISt5tupleIJEEEOT_RNSt16remove_referenceIS2_E4typeE(%"struct.std::less"* nonnull align 1 dereferenceable(1) %17) #2, !llfi_index !691
  call void @_ZNSt8_Rb_treeISt4pairIiiES0_IKS1_P1TESt10_Select1stIS5_ESt4lessIS1_ESaIS5_EE17_M_construct_nodeIJRKSt21piecewise_construct_tSt5tupleIJOS1_EESG_IJEEEEEvPSt13_Rb_tree_nodeIS5_EDpOT_(%"class.std::_Rb_tree"* nonnull align 8 dereferenceable(48) %10, %"struct.std::_Rb_tree_node"* %12, %"struct.std::less"* nonnull align 1 dereferenceable(1) %14, %"class.std::tuple"* nonnull align 8 dereferenceable(8) %16, %"struct.std::less"* nonnull align 1 dereferenceable(1) %18), !llfi_index !692
  %19 = load %"struct.std::_Rb_tree_node"*, %"struct.std::_Rb_tree_node"** %9, align 8, !llfi_index !693
  ret %"struct.std::_Rb_tree_node"* %19, !llfi_index !694
}

; Function Attrs: mustprogress noinline uwtable
define linkonce_odr dso_local nonnull align 4 dereferenceable(8) %"struct.std::pair"* @_ZNSt8_Rb_treeISt4pairIiiES0_IKS1_P1TESt10_Select1stIS5_ESt4lessIS1_ESaIS5_EE6_S_keyEPKSt13_Rb_tree_nodeIS5_E(%"struct.std::_Rb_tree_node"* %0) #4 comdat align 2 {
  %2 = alloca %"struct.std::_Rb_tree_node"*, align 8, !llfi_index !695
  %3 = alloca %"struct.std::less", align 1, !llfi_index !696
  store %"struct.std::_Rb_tree_node"* %0, %"struct.std::_Rb_tree_node"** %2, align 8, !llfi_index !697
  %4 = load %"struct.std::_Rb_tree_node"*, %"struct.std::_Rb_tree_node"** %2, align 8, !llfi_index !698
  %5 = call %"struct.std::pair.0"* @_ZNKSt13_Rb_tree_nodeISt4pairIKS0_IiiEP1TEE9_M_valptrEv(%"struct.std::_Rb_tree_node"* nonnull align 8 dereferenceable(48) %4), !llfi_index !699
  %6 = call nonnull align 4 dereferenceable(8) %"struct.std::pair"* @_ZNKSt10_Select1stISt4pairIKS0_IiiEP1TEEclERKS5_(%"struct.std::less"* nonnull align 1 dereferenceable(1) %3, %"struct.std::pair.0"* nonnull align 8 dereferenceable(16) %5), !llfi_index !700
  ret %"struct.std::pair"* %6, !llfi_index !701
}

; Function Attrs: mustprogress noinline uwtable
define linkonce_odr dso_local { %"struct.std::_Rb_tree_node_base"*, %"struct.std::_Rb_tree_node_base"* } @_ZNSt8_Rb_treeISt4pairIiiES0_IKS1_P1TESt10_Select1stIS5_ESt4lessIS1_ESaIS5_EE29_M_get_insert_hint_unique_posESt23_Rb_tree_const_iteratorIS5_ERS2_(%"class.std::_Rb_tree"* nonnull align 8 dereferenceable(48) %0, %"struct.std::_Rb_tree_node_base"* %1, %"struct.std::pair"* nonnull align 4 dereferenceable(8) %2) #4 comdat align 2 {
  %4 = alloca %"struct.std::pair.4", align 8, !llfi_index !702
  %5 = alloca %"struct.std::_Rb_tree_iterator", align 8, !llfi_index !703
  %6 = alloca %"class.std::_Rb_tree"*, align 8, !llfi_index !704
  %7 = alloca %"struct.std::pair"*, align 8, !llfi_index !705
  %8 = alloca %"struct.std::_Rb_tree_iterator", align 8, !llfi_index !706
  %9 = alloca %"struct.std::_Rb_tree_node_base"*, align 8, !llfi_index !707
  %10 = alloca %"struct.std::_Rb_tree_iterator", align 8, !llfi_index !708
  %11 = alloca %"struct.std::_Rb_tree_node_base"*, align 8, !llfi_index !709
  %12 = alloca %"struct.std::_Rb_tree_iterator", align 8, !llfi_index !710
  %13 = alloca %"struct.std::_Rb_tree_node_base"*, align 8, !llfi_index !711
  %14 = alloca %"struct.std::_Rb_tree_node_base"*, align 8, !llfi_index !712
  %15 = alloca %"struct.std::_Rb_tree_node_base"*, align 8, !llfi_index !713
  %16 = getelementptr inbounds %"struct.std::_Rb_tree_iterator", %"struct.std::_Rb_tree_iterator"* %5, i32 0, i32 0, !llfi_index !714
  store %"struct.std::_Rb_tree_node_base"* %1, %"struct.std::_Rb_tree_node_base"** %16, align 8, !llfi_index !715
  store %"class.std::_Rb_tree"* %0, %"class.std::_Rb_tree"** %6, align 8, !llfi_index !716
  store %"struct.std::pair"* %2, %"struct.std::pair"** %7, align 8, !llfi_index !717
  %17 = load %"class.std::_Rb_tree"*, %"class.std::_Rb_tree"** %6, align 8, !llfi_index !718
  %18 = call %"struct.std::_Rb_tree_node_base"* @_ZNKSt23_Rb_tree_const_iteratorISt4pairIKS0_IiiEP1TEE13_M_const_castEv(%"struct.std::_Rb_tree_iterator"* nonnull align 8 dereferenceable(8) %5) #2, !llfi_index !719
  %19 = getelementptr inbounds %"struct.std::_Rb_tree_iterator", %"struct.std::_Rb_tree_iterator"* %8, i32 0, i32 0, !llfi_index !720
  store %"struct.std::_Rb_tree_node_base"* %18, %"struct.std::_Rb_tree_node_base"** %19, align 8, !llfi_index !721
  %20 = getelementptr inbounds %"struct.std::_Rb_tree_iterator", %"struct.std::_Rb_tree_iterator"* %8, i32 0, i32 0, !llfi_index !722
  %21 = load %"struct.std::_Rb_tree_node_base"*, %"struct.std::_Rb_tree_node_base"** %20, align 8, !llfi_index !723
  %22 = call %"struct.std::_Rb_tree_node_base"* @_ZNSt8_Rb_treeISt4pairIiiES0_IKS1_P1TESt10_Select1stIS5_ESt4lessIS1_ESaIS5_EE6_M_endEv(%"class.std::_Rb_tree"* nonnull align 8 dereferenceable(48) %17) #2, !llfi_index !724
  %23 = icmp eq %"struct.std::_Rb_tree_node_base"* %21, %22, !llfi_index !725
  br i1 %23, label %24, label %46, !llfi_index !726

24:                                               ; preds = %3
  %25 = call i64 @_ZNKSt8_Rb_treeISt4pairIiiES0_IKS1_P1TESt10_Select1stIS5_ESt4lessIS1_ESaIS5_EE4sizeEv(%"class.std::_Rb_tree"* nonnull align 8 dereferenceable(48) %17) #2, !llfi_index !727
  %26 = icmp ugt i64 %25, 0, !llfi_index !728
  br i1 %26, label %27, label %38, !llfi_index !729

27:                                               ; preds = %24
  %28 = getelementptr inbounds %"class.std::_Rb_tree", %"class.std::_Rb_tree"* %17, i32 0, i32 0, !llfi_index !730
  %29 = bitcast %"struct.std::_Rb_tree<std::pair<int, int>, std::pair<const std::pair<int, int>, T *>, std::_Select1st<std::pair<const std::pair<int, int>, T *>>, std::less<std::pair<int, int>>>::_Rb_tree_impl"* %28 to %"struct.std::_Rb_tree_key_compare"*, !llfi_index !731
  %30 = getelementptr inbounds %"struct.std::_Rb_tree_key_compare", %"struct.std::_Rb_tree_key_compare"* %29, i32 0, i32 0, !llfi_index !732
  %31 = call nonnull align 8 dereferenceable(8) %"struct.std::_Rb_tree_node_base"** @_ZNSt8_Rb_treeISt4pairIiiES0_IKS1_P1TESt10_Select1stIS5_ESt4lessIS1_ESaIS5_EE12_M_rightmostEv(%"class.std::_Rb_tree"* nonnull align 8 dereferenceable(48) %17) #2, !llfi_index !733
  %32 = load %"struct.std::_Rb_tree_node_base"*, %"struct.std::_Rb_tree_node_base"** %31, align 8, !llfi_index !734
  %33 = call nonnull align 4 dereferenceable(8) %"struct.std::pair"* @_ZNSt8_Rb_treeISt4pairIiiES0_IKS1_P1TESt10_Select1stIS5_ESt4lessIS1_ESaIS5_EE6_S_keyEPKSt18_Rb_tree_node_base(%"struct.std::_Rb_tree_node_base"* %32), !llfi_index !735
  %34 = load %"struct.std::pair"*, %"struct.std::pair"** %7, align 8, !llfi_index !736
  %35 = call zeroext i1 @_ZNKSt4lessISt4pairIiiEEclERKS1_S4_(%"struct.std::less"* nonnull align 1 dereferenceable(1) %30, %"struct.std::pair"* nonnull align 4 dereferenceable(8) %33, %"struct.std::pair"* nonnull align 4 dereferenceable(8) %34), !llfi_index !737
  br i1 %35, label %36, label %38, !llfi_index !738

36:                                               ; preds = %27
  store %"struct.std::_Rb_tree_node_base"* null, %"struct.std::_Rb_tree_node_base"** %9, align 8, !llfi_index !739
  %37 = call nonnull align 8 dereferenceable(8) %"struct.std::_Rb_tree_node_base"** @_ZNSt8_Rb_treeISt4pairIiiES0_IKS1_P1TESt10_Select1stIS5_ESt4lessIS1_ESaIS5_EE12_M_rightmostEv(%"class.std::_Rb_tree"* nonnull align 8 dereferenceable(48) %17) #2, !llfi_index !740
  call void @_ZNSt4pairIPSt18_Rb_tree_node_baseS1_EC2IRS1_Lb1EEERKS1_OT_(%"struct.std::pair.4"* nonnull align 8 dereferenceable(16) %4, %"struct.std::_Rb_tree_node_base"** nonnull align 8 dereferenceable(8) %9, %"struct.std::_Rb_tree_node_base"** nonnull align 8 dereferenceable(8) %37), !llfi_index !741
  br label %143, !llfi_index !742

38:                                               ; preds = %27, %24
  %39 = load %"struct.std::pair"*, %"struct.std::pair"** %7, align 8, !llfi_index !743
  %40 = call { %"struct.std::_Rb_tree_node_base"*, %"struct.std::_Rb_tree_node_base"* } @_ZNSt8_Rb_treeISt4pairIiiES0_IKS1_P1TESt10_Select1stIS5_ESt4lessIS1_ESaIS5_EE24_M_get_insert_unique_posERS2_(%"class.std::_Rb_tree"* nonnull align 8 dereferenceable(48) %17, %"struct.std::pair"* nonnull align 4 dereferenceable(8) %39), !llfi_index !744
  %41 = bitcast %"struct.std::pair.4"* %4 to { %"struct.std::_Rb_tree_node_base"*, %"struct.std::_Rb_tree_node_base"* }*, !llfi_index !745
  %42 = getelementptr inbounds { %"struct.std::_Rb_tree_node_base"*, %"struct.std::_Rb_tree_node_base"* }, { %"struct.std::_Rb_tree_node_base"*, %"struct.std::_Rb_tree_node_base"* }* %41, i32 0, i32 0, !llfi_index !746
  %43 = extractvalue { %"struct.std::_Rb_tree_node_base"*, %"struct.std::_Rb_tree_node_base"* } %40, 0, !llfi_index !747
  store %"struct.std::_Rb_tree_node_base"* %43, %"struct.std::_Rb_tree_node_base"** %42, align 8, !llfi_index !748
  %44 = getelementptr inbounds { %"struct.std::_Rb_tree_node_base"*, %"struct.std::_Rb_tree_node_base"* }, { %"struct.std::_Rb_tree_node_base"*, %"struct.std::_Rb_tree_node_base"* }* %41, i32 0, i32 1, !llfi_index !749
  %45 = extractvalue { %"struct.std::_Rb_tree_node_base"*, %"struct.std::_Rb_tree_node_base"* } %40, 1, !llfi_index !750
  store %"struct.std::_Rb_tree_node_base"* %45, %"struct.std::_Rb_tree_node_base"** %44, align 8, !llfi_index !751
  br label %143, !llfi_index !752

46:                                               ; preds = %3
  %47 = getelementptr inbounds %"class.std::_Rb_tree", %"class.std::_Rb_tree"* %17, i32 0, i32 0, !llfi_index !753
  %48 = bitcast %"struct.std::_Rb_tree<std::pair<int, int>, std::pair<const std::pair<int, int>, T *>, std::_Select1st<std::pair<const std::pair<int, int>, T *>>, std::less<std::pair<int, int>>>::_Rb_tree_impl"* %47 to %"struct.std::_Rb_tree_key_compare"*, !llfi_index !754
  %49 = getelementptr inbounds %"struct.std::_Rb_tree_key_compare", %"struct.std::_Rb_tree_key_compare"* %48, i32 0, i32 0, !llfi_index !755
  %50 = load %"struct.std::pair"*, %"struct.std::pair"** %7, align 8, !llfi_index !756
  %51 = getelementptr inbounds %"struct.std::_Rb_tree_iterator", %"struct.std::_Rb_tree_iterator"* %8, i32 0, i32 0, !llfi_index !757
  %52 = load %"struct.std::_Rb_tree_node_base"*, %"struct.std::_Rb_tree_node_base"** %51, align 8, !llfi_index !758
  %53 = call nonnull align 4 dereferenceable(8) %"struct.std::pair"* @_ZNSt8_Rb_treeISt4pairIiiES0_IKS1_P1TESt10_Select1stIS5_ESt4lessIS1_ESaIS5_EE6_S_keyEPKSt18_Rb_tree_node_base(%"struct.std::_Rb_tree_node_base"* %52), !llfi_index !759
  %54 = call zeroext i1 @_ZNKSt4lessISt4pairIiiEEclERKS1_S4_(%"struct.std::less"* nonnull align 1 dereferenceable(1) %49, %"struct.std::pair"* nonnull align 4 dereferenceable(8) %50, %"struct.std::pair"* nonnull align 4 dereferenceable(8) %53), !llfi_index !760
  br i1 %54, label %55, label %94, !llfi_index !761

55:                                               ; preds = %46
  %56 = bitcast %"struct.std::_Rb_tree_iterator"* %10 to i8*, !llfi_index !762
  %57 = bitcast %"struct.std::_Rb_tree_iterator"* %8 to i8*, !llfi_index !763
  call void @llvm.memcpy.p0i8.p0i8.i64(i8* align 8 %56, i8* align 8 %57, i64 8, i1 false), !llfi_index !764
  %58 = getelementptr inbounds %"struct.std::_Rb_tree_iterator", %"struct.std::_Rb_tree_iterator"* %8, i32 0, i32 0, !llfi_index !765
  %59 = load %"struct.std::_Rb_tree_node_base"*, %"struct.std::_Rb_tree_node_base"** %58, align 8, !llfi_index !766
  %60 = call nonnull align 8 dereferenceable(8) %"struct.std::_Rb_tree_node_base"** @_ZNSt8_Rb_treeISt4pairIiiES0_IKS1_P1TESt10_Select1stIS5_ESt4lessIS1_ESaIS5_EE11_M_leftmostEv(%"class.std::_Rb_tree"* nonnull align 8 dereferenceable(48) %17) #2, !llfi_index !767
  %61 = load %"struct.std::_Rb_tree_node_base"*, %"struct.std::_Rb_tree_node_base"** %60, align 8, !llfi_index !768
  %62 = icmp eq %"struct.std::_Rb_tree_node_base"* %59, %61, !llfi_index !769
  br i1 %62, label %63, label %66, !llfi_index !770

63:                                               ; preds = %55
  %64 = call nonnull align 8 dereferenceable(8) %"struct.std::_Rb_tree_node_base"** @_ZNSt8_Rb_treeISt4pairIiiES0_IKS1_P1TESt10_Select1stIS5_ESt4lessIS1_ESaIS5_EE11_M_leftmostEv(%"class.std::_Rb_tree"* nonnull align 8 dereferenceable(48) %17) #2, !llfi_index !771
  %65 = call nonnull align 8 dereferenceable(8) %"struct.std::_Rb_tree_node_base"** @_ZNSt8_Rb_treeISt4pairIiiES0_IKS1_P1TESt10_Select1stIS5_ESt4lessIS1_ESaIS5_EE11_M_leftmostEv(%"class.std::_Rb_tree"* nonnull align 8 dereferenceable(48) %17) #2, !llfi_index !772
  call void @_ZNSt4pairIPSt18_Rb_tree_node_baseS1_EC2IRS1_S4_Lb1EEEOT_OT0_(%"struct.std::pair.4"* nonnull align 8 dereferenceable(16) %4, %"struct.std::_Rb_tree_node_base"** nonnull align 8 dereferenceable(8) %64, %"struct.std::_Rb_tree_node_base"** nonnull align 8 dereferenceable(8) %65), !llfi_index !773
  br label %143, !llfi_index !774

66:                                               ; preds = %55
  %67 = getelementptr inbounds %"class.std::_Rb_tree", %"class.std::_Rb_tree"* %17, i32 0, i32 0, !llfi_index !775
  %68 = bitcast %"struct.std::_Rb_tree<std::pair<int, int>, std::pair<const std::pair<int, int>, T *>, std::_Select1st<std::pair<const std::pair<int, int>, T *>>, std::less<std::pair<int, int>>>::_Rb_tree_impl"* %67 to %"struct.std::_Rb_tree_key_compare"*, !llfi_index !776
  %69 = getelementptr inbounds %"struct.std::_Rb_tree_key_compare", %"struct.std::_Rb_tree_key_compare"* %68, i32 0, i32 0, !llfi_index !777
  %70 = call nonnull align 8 dereferenceable(8) %"struct.std::_Rb_tree_iterator"* @_ZNSt17_Rb_tree_iteratorISt4pairIKS0_IiiEP1TEEmmEv(%"struct.std::_Rb_tree_iterator"* nonnull align 8 dereferenceable(8) %10) #2, !llfi_index !778
  %71 = getelementptr inbounds %"struct.std::_Rb_tree_iterator", %"struct.std::_Rb_tree_iterator"* %70, i32 0, i32 0, !llfi_index !779
  %72 = load %"struct.std::_Rb_tree_node_base"*, %"struct.std::_Rb_tree_node_base"** %71, align 8, !llfi_index !780
  %73 = call nonnull align 4 dereferenceable(8) %"struct.std::pair"* @_ZNSt8_Rb_treeISt4pairIiiES0_IKS1_P1TESt10_Select1stIS5_ESt4lessIS1_ESaIS5_EE6_S_keyEPKSt18_Rb_tree_node_base(%"struct.std::_Rb_tree_node_base"* %72), !llfi_index !781
  %74 = load %"struct.std::pair"*, %"struct.std::pair"** %7, align 8, !llfi_index !782
  %75 = call zeroext i1 @_ZNKSt4lessISt4pairIiiEEclERKS1_S4_(%"struct.std::less"* nonnull align 1 dereferenceable(1) %69, %"struct.std::pair"* nonnull align 4 dereferenceable(8) %73, %"struct.std::pair"* nonnull align 4 dereferenceable(8) %74), !llfi_index !783
  br i1 %75, label %76, label %86, !llfi_index !784

76:                                               ; preds = %66
  %77 = getelementptr inbounds %"struct.std::_Rb_tree_iterator", %"struct.std::_Rb_tree_iterator"* %10, i32 0, i32 0, !llfi_index !785
  %78 = load %"struct.std::_Rb_tree_node_base"*, %"struct.std::_Rb_tree_node_base"** %77, align 8, !llfi_index !786
  %79 = call %"struct.std::_Rb_tree_node"* @_ZNSt8_Rb_treeISt4pairIiiES0_IKS1_P1TESt10_Select1stIS5_ESt4lessIS1_ESaIS5_EE8_S_rightEPSt18_Rb_tree_node_base(%"struct.std::_Rb_tree_node_base"* %78) #2, !llfi_index !787
  %80 = icmp eq %"struct.std::_Rb_tree_node"* %79, null, !llfi_index !788
  br i1 %80, label %81, label %83, !llfi_index !789

81:                                               ; preds = %76
  store %"struct.std::_Rb_tree_node_base"* null, %"struct.std::_Rb_tree_node_base"** %11, align 8, !llfi_index !790
  %82 = getelementptr inbounds %"struct.std::_Rb_tree_iterator", %"struct.std::_Rb_tree_iterator"* %10, i32 0, i32 0, !llfi_index !791
  call void @_ZNSt4pairIPSt18_Rb_tree_node_baseS1_EC2IRS1_Lb1EEERKS1_OT_(%"struct.std::pair.4"* nonnull align 8 dereferenceable(16) %4, %"struct.std::_Rb_tree_node_base"** nonnull align 8 dereferenceable(8) %11, %"struct.std::_Rb_tree_node_base"** nonnull align 8 dereferenceable(8) %82), !llfi_index !792
  br label %143, !llfi_index !793

83:                                               ; preds = %76
  %84 = getelementptr inbounds %"struct.std::_Rb_tree_iterator", %"struct.std::_Rb_tree_iterator"* %8, i32 0, i32 0, !llfi_index !794
  %85 = getelementptr inbounds %"struct.std::_Rb_tree_iterator", %"struct.std::_Rb_tree_iterator"* %8, i32 0, i32 0, !llfi_index !795
  call void @_ZNSt4pairIPSt18_Rb_tree_node_baseS1_EC2IRS1_S4_Lb1EEEOT_OT0_(%"struct.std::pair.4"* nonnull align 8 dereferenceable(16) %4, %"struct.std::_Rb_tree_node_base"** nonnull align 8 dereferenceable(8) %84, %"struct.std::_Rb_tree_node_base"** nonnull align 8 dereferenceable(8) %85), !llfi_index !796
  br label %143, !llfi_index !797

86:                                               ; preds = %66
  %87 = load %"struct.std::pair"*, %"struct.std::pair"** %7, align 8, !llfi_index !798
  %88 = call { %"struct.std::_Rb_tree_node_base"*, %"struct.std::_Rb_tree_node_base"* } @_ZNSt8_Rb_treeISt4pairIiiES0_IKS1_P1TESt10_Select1stIS5_ESt4lessIS1_ESaIS5_EE24_M_get_insert_unique_posERS2_(%"class.std::_Rb_tree"* nonnull align 8 dereferenceable(48) %17, %"struct.std::pair"* nonnull align 4 dereferenceable(8) %87), !llfi_index !799
  %89 = bitcast %"struct.std::pair.4"* %4 to { %"struct.std::_Rb_tree_node_base"*, %"struct.std::_Rb_tree_node_base"* }*, !llfi_index !800
  %90 = getelementptr inbounds { %"struct.std::_Rb_tree_node_base"*, %"struct.std::_Rb_tree_node_base"* }, { %"struct.std::_Rb_tree_node_base"*, %"struct.std::_Rb_tree_node_base"* }* %89, i32 0, i32 0, !llfi_index !801
  %91 = extractvalue { %"struct.std::_Rb_tree_node_base"*, %"struct.std::_Rb_tree_node_base"* } %88, 0, !llfi_index !802
  store %"struct.std::_Rb_tree_node_base"* %91, %"struct.std::_Rb_tree_node_base"** %90, align 8, !llfi_index !803
  %92 = getelementptr inbounds { %"struct.std::_Rb_tree_node_base"*, %"struct.std::_Rb_tree_node_base"* }, { %"struct.std::_Rb_tree_node_base"*, %"struct.std::_Rb_tree_node_base"* }* %89, i32 0, i32 1, !llfi_index !804
  %93 = extractvalue { %"struct.std::_Rb_tree_node_base"*, %"struct.std::_Rb_tree_node_base"* } %88, 1, !llfi_index !805
  store %"struct.std::_Rb_tree_node_base"* %93, %"struct.std::_Rb_tree_node_base"** %92, align 8, !llfi_index !806
  br label %143, !llfi_index !807

94:                                               ; preds = %46
  %95 = getelementptr inbounds %"class.std::_Rb_tree", %"class.std::_Rb_tree"* %17, i32 0, i32 0, !llfi_index !808
  %96 = bitcast %"struct.std::_Rb_tree<std::pair<int, int>, std::pair<const std::pair<int, int>, T *>, std::_Select1st<std::pair<const std::pair<int, int>, T *>>, std::less<std::pair<int, int>>>::_Rb_tree_impl"* %95 to %"struct.std::_Rb_tree_key_compare"*, !llfi_index !809
  %97 = getelementptr inbounds %"struct.std::_Rb_tree_key_compare", %"struct.std::_Rb_tree_key_compare"* %96, i32 0, i32 0, !llfi_index !810
  %98 = getelementptr inbounds %"struct.std::_Rb_tree_iterator", %"struct.std::_Rb_tree_iterator"* %8, i32 0, i32 0, !llfi_index !811
  %99 = load %"struct.std::_Rb_tree_node_base"*, %"struct.std::_Rb_tree_node_base"** %98, align 8, !llfi_index !812
  %100 = call nonnull align 4 dereferenceable(8) %"struct.std::pair"* @_ZNSt8_Rb_treeISt4pairIiiES0_IKS1_P1TESt10_Select1stIS5_ESt4lessIS1_ESaIS5_EE6_S_keyEPKSt18_Rb_tree_node_base(%"struct.std::_Rb_tree_node_base"* %99), !llfi_index !813
  %101 = load %"struct.std::pair"*, %"struct.std::pair"** %7, align 8, !llfi_index !814
  %102 = call zeroext i1 @_ZNKSt4lessISt4pairIiiEEclERKS1_S4_(%"struct.std::less"* nonnull align 1 dereferenceable(1) %97, %"struct.std::pair"* nonnull align 4 dereferenceable(8) %100, %"struct.std::pair"* nonnull align 4 dereferenceable(8) %101), !llfi_index !815
  br i1 %102, label %103, label %141, !llfi_index !816

103:                                              ; preds = %94
  %104 = bitcast %"struct.std::_Rb_tree_iterator"* %12 to i8*, !llfi_index !817
  %105 = bitcast %"struct.std::_Rb_tree_iterator"* %8 to i8*, !llfi_index !818
  call void @llvm.memcpy.p0i8.p0i8.i64(i8* align 8 %104, i8* align 8 %105, i64 8, i1 false), !llfi_index !819
  %106 = getelementptr inbounds %"struct.std::_Rb_tree_iterator", %"struct.std::_Rb_tree_iterator"* %8, i32 0, i32 0, !llfi_index !820
  %107 = load %"struct.std::_Rb_tree_node_base"*, %"struct.std::_Rb_tree_node_base"** %106, align 8, !llfi_index !821
  %108 = call nonnull align 8 dereferenceable(8) %"struct.std::_Rb_tree_node_base"** @_ZNSt8_Rb_treeISt4pairIiiES0_IKS1_P1TESt10_Select1stIS5_ESt4lessIS1_ESaIS5_EE12_M_rightmostEv(%"class.std::_Rb_tree"* nonnull align 8 dereferenceable(48) %17) #2, !llfi_index !822
  %109 = load %"struct.std::_Rb_tree_node_base"*, %"struct.std::_Rb_tree_node_base"** %108, align 8, !llfi_index !823
  %110 = icmp eq %"struct.std::_Rb_tree_node_base"* %107, %109, !llfi_index !824
  br i1 %110, label %111, label %113, !llfi_index !825

111:                                              ; preds = %103
  store %"struct.std::_Rb_tree_node_base"* null, %"struct.std::_Rb_tree_node_base"** %13, align 8, !llfi_index !826
  %112 = call nonnull align 8 dereferenceable(8) %"struct.std::_Rb_tree_node_base"** @_ZNSt8_Rb_treeISt4pairIiiES0_IKS1_P1TESt10_Select1stIS5_ESt4lessIS1_ESaIS5_EE12_M_rightmostEv(%"class.std::_Rb_tree"* nonnull align 8 dereferenceable(48) %17) #2, !llfi_index !827
  call void @_ZNSt4pairIPSt18_Rb_tree_node_baseS1_EC2IRS1_Lb1EEERKS1_OT_(%"struct.std::pair.4"* nonnull align 8 dereferenceable(16) %4, %"struct.std::_Rb_tree_node_base"** nonnull align 8 dereferenceable(8) %13, %"struct.std::_Rb_tree_node_base"** nonnull align 8 dereferenceable(8) %112), !llfi_index !828
  br label %143, !llfi_index !829

113:                                              ; preds = %103
  %114 = getelementptr inbounds %"class.std::_Rb_tree", %"class.std::_Rb_tree"* %17, i32 0, i32 0, !llfi_index !830
  %115 = bitcast %"struct.std::_Rb_tree<std::pair<int, int>, std::pair<const std::pair<int, int>, T *>, std::_Select1st<std::pair<const std::pair<int, int>, T *>>, std::less<std::pair<int, int>>>::_Rb_tree_impl"* %114 to %"struct.std::_Rb_tree_key_compare"*, !llfi_index !831
  %116 = getelementptr inbounds %"struct.std::_Rb_tree_key_compare", %"struct.std::_Rb_tree_key_compare"* %115, i32 0, i32 0, !llfi_index !832
  %117 = load %"struct.std::pair"*, %"struct.std::pair"** %7, align 8, !llfi_index !833
  %118 = call nonnull align 8 dereferenceable(8) %"struct.std::_Rb_tree_iterator"* @_ZNSt17_Rb_tree_iteratorISt4pairIKS0_IiiEP1TEEppEv(%"struct.std::_Rb_tree_iterator"* nonnull align 8 dereferenceable(8) %12) #2, !llfi_index !834
  %119 = getelementptr inbounds %"struct.std::_Rb_tree_iterator", %"struct.std::_Rb_tree_iterator"* %118, i32 0, i32 0, !llfi_index !835
  %120 = load %"struct.std::_Rb_tree_node_base"*, %"struct.std::_Rb_tree_node_base"** %119, align 8, !llfi_index !836
  %121 = call nonnull align 4 dereferenceable(8) %"struct.std::pair"* @_ZNSt8_Rb_treeISt4pairIiiES0_IKS1_P1TESt10_Select1stIS5_ESt4lessIS1_ESaIS5_EE6_S_keyEPKSt18_Rb_tree_node_base(%"struct.std::_Rb_tree_node_base"* %120), !llfi_index !837
  %122 = call zeroext i1 @_ZNKSt4lessISt4pairIiiEEclERKS1_S4_(%"struct.std::less"* nonnull align 1 dereferenceable(1) %116, %"struct.std::pair"* nonnull align 4 dereferenceable(8) %117, %"struct.std::pair"* nonnull align 4 dereferenceable(8) %121), !llfi_index !838
  br i1 %122, label %123, label %133, !llfi_index !839

123:                                              ; preds = %113
  %124 = getelementptr inbounds %"struct.std::_Rb_tree_iterator", %"struct.std::_Rb_tree_iterator"* %8, i32 0, i32 0, !llfi_index !840
  %125 = load %"struct.std::_Rb_tree_node_base"*, %"struct.std::_Rb_tree_node_base"** %124, align 8, !llfi_index !841
  %126 = call %"struct.std::_Rb_tree_node"* @_ZNSt8_Rb_treeISt4pairIiiES0_IKS1_P1TESt10_Select1stIS5_ESt4lessIS1_ESaIS5_EE8_S_rightEPSt18_Rb_tree_node_base(%"struct.std::_Rb_tree_node_base"* %125) #2, !llfi_index !842
  %127 = icmp eq %"struct.std::_Rb_tree_node"* %126, null, !llfi_index !843
  br i1 %127, label %128, label %130, !llfi_index !844

128:                                              ; preds = %123
  store %"struct.std::_Rb_tree_node_base"* null, %"struct.std::_Rb_tree_node_base"** %14, align 8, !llfi_index !845
  %129 = getelementptr inbounds %"struct.std::_Rb_tree_iterator", %"struct.std::_Rb_tree_iterator"* %8, i32 0, i32 0, !llfi_index !846
  call void @_ZNSt4pairIPSt18_Rb_tree_node_baseS1_EC2IRS1_Lb1EEERKS1_OT_(%"struct.std::pair.4"* nonnull align 8 dereferenceable(16) %4, %"struct.std::_Rb_tree_node_base"** nonnull align 8 dereferenceable(8) %14, %"struct.std::_Rb_tree_node_base"** nonnull align 8 dereferenceable(8) %129), !llfi_index !847
  br label %143, !llfi_index !848

130:                                              ; preds = %123
  %131 = getelementptr inbounds %"struct.std::_Rb_tree_iterator", %"struct.std::_Rb_tree_iterator"* %12, i32 0, i32 0, !llfi_index !849
  %132 = getelementptr inbounds %"struct.std::_Rb_tree_iterator", %"struct.std::_Rb_tree_iterator"* %12, i32 0, i32 0, !llfi_index !850
  call void @_ZNSt4pairIPSt18_Rb_tree_node_baseS1_EC2IRS1_S4_Lb1EEEOT_OT0_(%"struct.std::pair.4"* nonnull align 8 dereferenceable(16) %4, %"struct.std::_Rb_tree_node_base"** nonnull align 8 dereferenceable(8) %131, %"struct.std::_Rb_tree_node_base"** nonnull align 8 dereferenceable(8) %132), !llfi_index !851
  br label %143, !llfi_index !852

133:                                              ; preds = %113
  %134 = load %"struct.std::pair"*, %"struct.std::pair"** %7, align 8, !llfi_index !853
  %135 = call { %"struct.std::_Rb_tree_node_base"*, %"struct.std::_Rb_tree_node_base"* } @_ZNSt8_Rb_treeISt4pairIiiES0_IKS1_P1TESt10_Select1stIS5_ESt4lessIS1_ESaIS5_EE24_M_get_insert_unique_posERS2_(%"class.std::_Rb_tree"* nonnull align 8 dereferenceable(48) %17, %"struct.std::pair"* nonnull align 4 dereferenceable(8) %134), !llfi_index !854
  %136 = bitcast %"struct.std::pair.4"* %4 to { %"struct.std::_Rb_tree_node_base"*, %"struct.std::_Rb_tree_node_base"* }*, !llfi_index !855
  %137 = getelementptr inbounds { %"struct.std::_Rb_tree_node_base"*, %"struct.std::_Rb_tree_node_base"* }, { %"struct.std::_Rb_tree_node_base"*, %"struct.std::_Rb_tree_node_base"* }* %136, i32 0, i32 0, !llfi_index !856
  %138 = extractvalue { %"struct.std::_Rb_tree_node_base"*, %"struct.std::_Rb_tree_node_base"* } %135, 0, !llfi_index !857
  store %"struct.std::_Rb_tree_node_base"* %138, %"struct.std::_Rb_tree_node_base"** %137, align 8, !llfi_index !858
  %139 = getelementptr inbounds { %"struct.std::_Rb_tree_node_base"*, %"struct.std::_Rb_tree_node_base"* }, { %"struct.std::_Rb_tree_node_base"*, %"struct.std::_Rb_tree_node_base"* }* %136, i32 0, i32 1, !llfi_index !859
  %140 = extractvalue { %"struct.std::_Rb_tree_node_base"*, %"struct.std::_Rb_tree_node_base"* } %135, 1, !llfi_index !860
  store %"struct.std::_Rb_tree_node_base"* %140, %"struct.std::_Rb_tree_node_base"** %139, align 8, !llfi_index !861
  br label %143, !llfi_index !862

141:                                              ; preds = %94
  %142 = getelementptr inbounds %"struct.std::_Rb_tree_iterator", %"struct.std::_Rb_tree_iterator"* %8, i32 0, i32 0, !llfi_index !863
  store %"struct.std::_Rb_tree_node_base"* null, %"struct.std::_Rb_tree_node_base"** %15, align 8, !llfi_index !864
  call void @_ZNSt4pairIPSt18_Rb_tree_node_baseS1_EC2IRS1_Lb1EEEOT_RKS1_(%"struct.std::pair.4"* nonnull align 8 dereferenceable(16) %4, %"struct.std::_Rb_tree_node_base"** nonnull align 8 dereferenceable(8) %142, %"struct.std::_Rb_tree_node_base"** nonnull align 8 dereferenceable(8) %15), !llfi_index !865
  br label %143, !llfi_index !866

143:                                              ; preds = %141, %133, %130, %128, %111, %86, %83, %81, %63, %38, %36
  %144 = bitcast %"struct.std::pair.4"* %4 to { %"struct.std::_Rb_tree_node_base"*, %"struct.std::_Rb_tree_node_base"* }*, !llfi_index !867
  %145 = load { %"struct.std::_Rb_tree_node_base"*, %"struct.std::_Rb_tree_node_base"* }, { %"struct.std::_Rb_tree_node_base"*, %"struct.std::_Rb_tree_node_base"* }* %144, align 8, !llfi_index !868
  ret { %"struct.std::_Rb_tree_node_base"*, %"struct.std::_Rb_tree_node_base"* } %145, !llfi_index !869
}

; Function Attrs: mustprogress noinline uwtable
define linkonce_odr dso_local %"struct.std::_Rb_tree_node_base"* @_ZNSt8_Rb_treeISt4pairIiiES0_IKS1_P1TESt10_Select1stIS5_ESt4lessIS1_ESaIS5_EE14_M_insert_nodeEPSt18_Rb_tree_node_baseSD_PSt13_Rb_tree_nodeIS5_E(%"class.std::_Rb_tree"* nonnull align 8 dereferenceable(48) %0, %"struct.std::_Rb_tree_node_base"* %1, %"struct.std::_Rb_tree_node_base"* %2, %"struct.std::_Rb_tree_node"* %3) #4 comdat align 2 {
  %5 = alloca %"struct.std::_Rb_tree_iterator", align 8, !llfi_index !870
  %6 = alloca %"class.std::_Rb_tree"*, align 8, !llfi_index !871
  %7 = alloca %"struct.std::_Rb_tree_node_base"*, align 8, !llfi_index !872
  %8 = alloca %"struct.std::_Rb_tree_node_base"*, align 8, !llfi_index !873
  %9 = alloca %"struct.std::_Rb_tree_node"*, align 8, !llfi_index !874
  %10 = alloca i8, align 1, !llfi_index !875
  store %"class.std::_Rb_tree"* %0, %"class.std::_Rb_tree"** %6, align 8, !llfi_index !876
  store %"struct.std::_Rb_tree_node_base"* %1, %"struct.std::_Rb_tree_node_base"** %7, align 8, !llfi_index !877
  store %"struct.std::_Rb_tree_node_base"* %2, %"struct.std::_Rb_tree_node_base"** %8, align 8, !llfi_index !878
  store %"struct.std::_Rb_tree_node"* %3, %"struct.std::_Rb_tree_node"** %9, align 8, !llfi_index !879
  %11 = load %"class.std::_Rb_tree"*, %"class.std::_Rb_tree"** %6, align 8, !llfi_index !880
  %12 = load %"struct.std::_Rb_tree_node_base"*, %"struct.std::_Rb_tree_node_base"** %7, align 8, !llfi_index !881
  %13 = icmp ne %"struct.std::_Rb_tree_node_base"* %12, null, !llfi_index !882
  br i1 %13, label %27, label %14, !llfi_index !883

14:                                               ; preds = %4
  %15 = load %"struct.std::_Rb_tree_node_base"*, %"struct.std::_Rb_tree_node_base"** %8, align 8, !llfi_index !884
  %16 = call %"struct.std::_Rb_tree_node_base"* @_ZNSt8_Rb_treeISt4pairIiiES0_IKS1_P1TESt10_Select1stIS5_ESt4lessIS1_ESaIS5_EE6_M_endEv(%"class.std::_Rb_tree"* nonnull align 8 dereferenceable(48) %11) #2, !llfi_index !885
  %17 = icmp eq %"struct.std::_Rb_tree_node_base"* %15, %16, !llfi_index !886
  br i1 %17, label %27, label %18, !llfi_index !887

18:                                               ; preds = %14
  %19 = getelementptr inbounds %"class.std::_Rb_tree", %"class.std::_Rb_tree"* %11, i32 0, i32 0, !llfi_index !888
  %20 = bitcast %"struct.std::_Rb_tree<std::pair<int, int>, std::pair<const std::pair<int, int>, T *>, std::_Select1st<std::pair<const std::pair<int, int>, T *>>, std::less<std::pair<int, int>>>::_Rb_tree_impl"* %19 to %"struct.std::_Rb_tree_key_compare"*, !llfi_index !889
  %21 = getelementptr inbounds %"struct.std::_Rb_tree_key_compare", %"struct.std::_Rb_tree_key_compare"* %20, i32 0, i32 0, !llfi_index !890
  %22 = load %"struct.std::_Rb_tree_node"*, %"struct.std::_Rb_tree_node"** %9, align 8, !llfi_index !891
  %23 = call nonnull align 4 dereferenceable(8) %"struct.std::pair"* @_ZNSt8_Rb_treeISt4pairIiiES0_IKS1_P1TESt10_Select1stIS5_ESt4lessIS1_ESaIS5_EE6_S_keyEPKSt13_Rb_tree_nodeIS5_E(%"struct.std::_Rb_tree_node"* %22), !llfi_index !892
  %24 = load %"struct.std::_Rb_tree_node_base"*, %"struct.std::_Rb_tree_node_base"** %8, align 8, !llfi_index !893
  %25 = call nonnull align 4 dereferenceable(8) %"struct.std::pair"* @_ZNSt8_Rb_treeISt4pairIiiES0_IKS1_P1TESt10_Select1stIS5_ESt4lessIS1_ESaIS5_EE6_S_keyEPKSt18_Rb_tree_node_base(%"struct.std::_Rb_tree_node_base"* %24), !llfi_index !894
  %26 = call zeroext i1 @_ZNKSt4lessISt4pairIiiEEclERKS1_S4_(%"struct.std::less"* nonnull align 1 dereferenceable(1) %21, %"struct.std::pair"* nonnull align 4 dereferenceable(8) %23, %"struct.std::pair"* nonnull align 4 dereferenceable(8) %25), !llfi_index !895
  br label %27, !llfi_index !896

27:                                               ; preds = %18, %14, %4
  %28 = phi i1 [ true, %14 ], [ true, %4 ], [ %26, %18 ], !llfi_index !897
  %29 = zext i1 %28 to i8, !llfi_index !898
  store i8 %29, i8* %10, align 1, !llfi_index !899
  %30 = load i8, i8* %10, align 1, !llfi_index !900
  %31 = trunc i8 %30 to i1, !llfi_index !901
  %32 = load %"struct.std::_Rb_tree_node"*, %"struct.std::_Rb_tree_node"** %9, align 8, !llfi_index !902
  %33 = bitcast %"struct.std::_Rb_tree_node"* %32 to %"struct.std::_Rb_tree_node_base"*, !llfi_index !903
  %34 = load %"struct.std::_Rb_tree_node_base"*, %"struct.std::_Rb_tree_node_base"** %8, align 8, !llfi_index !904
  %35 = getelementptr inbounds %"class.std::_Rb_tree", %"class.std::_Rb_tree"* %11, i32 0, i32 0, !llfi_index !905
  %36 = bitcast %"struct.std::_Rb_tree<std::pair<int, int>, std::pair<const std::pair<int, int>, T *>, std::_Select1st<std::pair<const std::pair<int, int>, T *>>, std::less<std::pair<int, int>>>::_Rb_tree_impl"* %35 to i8*, !llfi_index !906
  %37 = getelementptr inbounds i8, i8* %36, i64 8, !llfi_index !907
  %38 = bitcast i8* %37 to %"struct.std::_Rb_tree_header"*, !llfi_index !908
  %39 = getelementptr inbounds %"struct.std::_Rb_tree_header", %"struct.std::_Rb_tree_header"* %38, i32 0, i32 0, !llfi_index !909
  call void @_ZSt29_Rb_tree_insert_and_rebalancebPSt18_Rb_tree_node_baseS0_RS_(i1 zeroext %31, %"struct.std::_Rb_tree_node_base"* %33, %"struct.std::_Rb_tree_node_base"* %34, %"struct.std::_Rb_tree_node_base"* nonnull align 8 dereferenceable(32) %39) #2, !llfi_index !910
  %40 = getelementptr inbounds %"class.std::_Rb_tree", %"class.std::_Rb_tree"* %11, i32 0, i32 0, !llfi_index !911
  %41 = bitcast %"struct.std::_Rb_tree<std::pair<int, int>, std::pair<const std::pair<int, int>, T *>, std::_Select1st<std::pair<const std::pair<int, int>, T *>>, std::less<std::pair<int, int>>>::_Rb_tree_impl"* %40 to i8*, !llfi_index !912
  %42 = getelementptr inbounds i8, i8* %41, i64 8, !llfi_index !913
  %43 = bitcast i8* %42 to %"struct.std::_Rb_tree_header"*, !llfi_index !914
  %44 = getelementptr inbounds %"struct.std::_Rb_tree_header", %"struct.std::_Rb_tree_header"* %43, i32 0, i32 1, !llfi_index !915
  %45 = load i64, i64* %44, align 8, !llfi_index !916
  %46 = add i64 %45, 1, !llfi_index !917
  store i64 %46, i64* %44, align 8, !llfi_index !918
  %47 = load %"struct.std::_Rb_tree_node"*, %"struct.std::_Rb_tree_node"** %9, align 8, !llfi_index !919
  %48 = bitcast %"struct.std::_Rb_tree_node"* %47 to %"struct.std::_Rb_tree_node_base"*, !llfi_index !920
  call void @_ZNSt17_Rb_tree_iteratorISt4pairIKS0_IiiEP1TEEC2EPSt18_Rb_tree_node_base(%"struct.std::_Rb_tree_iterator"* nonnull align 8 dereferenceable(8) %5, %"struct.std::_Rb_tree_node_base"* %48) #2, !llfi_index !921
  %49 = getelementptr inbounds %"struct.std::_Rb_tree_iterator", %"struct.std::_Rb_tree_iterator"* %5, i32 0, i32 0, !llfi_index !922
  %50 = load %"struct.std::_Rb_tree_node_base"*, %"struct.std::_Rb_tree_node_base"** %49, align 8, !llfi_index !923
  ret %"struct.std::_Rb_tree_node_base"* %50, !llfi_index !924
}

declare dso_local void @__cxa_rethrow()

; Function Attrs: noinline nounwind uwtable
define linkonce_odr dso_local void @_ZNSt17_Rb_tree_iteratorISt4pairIKS0_IiiEP1TEEC2EPSt18_Rb_tree_node_base(%"struct.std::_Rb_tree_iterator"* nonnull align 8 dereferenceable(8) %0, %"struct.std::_Rb_tree_node_base"* %1) unnamed_addr #1 comdat align 2 {
  %3 = alloca %"struct.std::_Rb_tree_iterator"*, align 8, !llfi_index !925
  %4 = alloca %"struct.std::_Rb_tree_node_base"*, align 8, !llfi_index !926
  store %"struct.std::_Rb_tree_iterator"* %0, %"struct.std::_Rb_tree_iterator"** %3, align 8, !llfi_index !927
  store %"struct.std::_Rb_tree_node_base"* %1, %"struct.std::_Rb_tree_node_base"** %4, align 8, !llfi_index !928
  %5 = load %"struct.std::_Rb_tree_iterator"*, %"struct.std::_Rb_tree_iterator"** %3, align 8, !llfi_index !929
  %6 = getelementptr inbounds %"struct.std::_Rb_tree_iterator", %"struct.std::_Rb_tree_iterator"* %5, i32 0, i32 0, !llfi_index !930
  %7 = load %"struct.std::_Rb_tree_node_base"*, %"struct.std::_Rb_tree_node_base"** %4, align 8, !llfi_index !931
  store %"struct.std::_Rb_tree_node_base"* %7, %"struct.std::_Rb_tree_node_base"** %6, align 8, !llfi_index !932
  ret void, !llfi_index !933
}

declare dso_local void @__cxa_end_catch()

; Function Attrs: cold noreturn nounwind
declare void @llvm.trap() #10

; Function Attrs: mustprogress noinline nounwind uwtable
define linkonce_odr dso_local %"struct.std::_Rb_tree_node_base"* @_ZNSt8_Rb_treeISt4pairIiiES0_IKS1_P1TESt10_Select1stIS5_ESt4lessIS1_ESaIS5_EE6_M_endEv(%"class.std::_Rb_tree"* nonnull align 8 dereferenceable(48) %0) #3 comdat align 2 {
  %2 = alloca %"class.std::_Rb_tree"*, align 8, !llfi_index !934
  store %"class.std::_Rb_tree"* %0, %"class.std::_Rb_tree"** %2, align 8, !llfi_index !935
  %3 = load %"class.std::_Rb_tree"*, %"class.std::_Rb_tree"** %2, align 8, !llfi_index !936
  %4 = getelementptr inbounds %"class.std::_Rb_tree", %"class.std::_Rb_tree"* %3, i32 0, i32 0, !llfi_index !937
  %5 = bitcast %"struct.std::_Rb_tree<std::pair<int, int>, std::pair<const std::pair<int, int>, T *>, std::_Select1st<std::pair<const std::pair<int, int>, T *>>, std::less<std::pair<int, int>>>::_Rb_tree_impl"* %4 to i8*, !llfi_index !938
  %6 = getelementptr inbounds i8, i8* %5, i64 8, !llfi_index !939
  %7 = bitcast i8* %6 to %"struct.std::_Rb_tree_header"*, !llfi_index !940
  %8 = getelementptr inbounds %"struct.std::_Rb_tree_header", %"struct.std::_Rb_tree_header"* %7, i32 0, i32 0, !llfi_index !941
  ret %"struct.std::_Rb_tree_node_base"* %8, !llfi_index !942
}

; Function Attrs: mustprogress noinline uwtable
define linkonce_odr dso_local nonnull align 4 dereferenceable(8) %"struct.std::pair"* @_ZNSt8_Rb_treeISt4pairIiiES0_IKS1_P1TESt10_Select1stIS5_ESt4lessIS1_ESaIS5_EE6_S_keyEPKSt18_Rb_tree_node_base(%"struct.std::_Rb_tree_node_base"* %0) #4 comdat align 2 {
  %2 = alloca %"struct.std::_Rb_tree_node_base"*, align 8, !llfi_index !943
  store %"struct.std::_Rb_tree_node_base"* %0, %"struct.std::_Rb_tree_node_base"** %2, align 8, !llfi_index !944
  %3 = load %"struct.std::_Rb_tree_node_base"*, %"struct.std::_Rb_tree_node_base"** %2, align 8, !llfi_index !945
  %4 = bitcast %"struct.std::_Rb_tree_node_base"* %3 to %"struct.std::_Rb_tree_node"*, !llfi_index !946
  %5 = call nonnull align 4 dereferenceable(8) %"struct.std::pair"* @_ZNSt8_Rb_treeISt4pairIiiES0_IKS1_P1TESt10_Select1stIS5_ESt4lessIS1_ESaIS5_EE6_S_keyEPKSt13_Rb_tree_nodeIS5_E(%"struct.std::_Rb_tree_node"* %4), !llfi_index !947
  ret %"struct.std::pair"* %5, !llfi_index !948
}

; Function Attrs: nounwind
declare dso_local void @_ZSt29_Rb_tree_insert_and_rebalancebPSt18_Rb_tree_node_baseS0_RS_(i1 zeroext, %"struct.std::_Rb_tree_node_base"*, %"struct.std::_Rb_tree_node_base"*, %"struct.std::_Rb_tree_node_base"* nonnull align 8 dereferenceable(32)) #8

; Function Attrs: mustprogress noinline nounwind uwtable
define linkonce_odr dso_local %"struct.std::_Rb_tree_node_base"* @_ZNKSt23_Rb_tree_const_iteratorISt4pairIKS0_IiiEP1TEE13_M_const_castEv(%"struct.std::_Rb_tree_iterator"* nonnull align 8 dereferenceable(8) %0) #3 comdat align 2 {
  %2 = alloca %"struct.std::_Rb_tree_iterator", align 8, !llfi_index !949
  %3 = alloca %"struct.std::_Rb_tree_iterator"*, align 8, !llfi_index !950
  store %"struct.std::_Rb_tree_iterator"* %0, %"struct.std::_Rb_tree_iterator"** %3, align 8, !llfi_index !951
  %4 = load %"struct.std::_Rb_tree_iterator"*, %"struct.std::_Rb_tree_iterator"** %3, align 8, !llfi_index !952
  %5 = getelementptr inbounds %"struct.std::_Rb_tree_iterator", %"struct.std::_Rb_tree_iterator"* %4, i32 0, i32 0, !llfi_index !953
  %6 = load %"struct.std::_Rb_tree_node_base"*, %"struct.std::_Rb_tree_node_base"** %5, align 8, !llfi_index !954
  call void @_ZNSt17_Rb_tree_iteratorISt4pairIKS0_IiiEP1TEEC2EPSt18_Rb_tree_node_base(%"struct.std::_Rb_tree_iterator"* nonnull align 8 dereferenceable(8) %2, %"struct.std::_Rb_tree_node_base"* %6) #2, !llfi_index !955
  %7 = getelementptr inbounds %"struct.std::_Rb_tree_iterator", %"struct.std::_Rb_tree_iterator"* %2, i32 0, i32 0, !llfi_index !956
  %8 = load %"struct.std::_Rb_tree_node_base"*, %"struct.std::_Rb_tree_node_base"** %7, align 8, !llfi_index !957
  ret %"struct.std::_Rb_tree_node_base"* %8, !llfi_index !958
}

; Function Attrs: mustprogress noinline nounwind uwtable
define linkonce_odr dso_local i64 @_ZNKSt8_Rb_treeISt4pairIiiES0_IKS1_P1TESt10_Select1stIS5_ESt4lessIS1_ESaIS5_EE4sizeEv(%"class.std::_Rb_tree"* nonnull align 8 dereferenceable(48) %0) #3 comdat align 2 {
  %2 = alloca %"class.std::_Rb_tree"*, align 8, !llfi_index !959
  store %"class.std::_Rb_tree"* %0, %"class.std::_Rb_tree"** %2, align 8, !llfi_index !960
  %3 = load %"class.std::_Rb_tree"*, %"class.std::_Rb_tree"** %2, align 8, !llfi_index !961
  %4 = getelementptr inbounds %"class.std::_Rb_tree", %"class.std::_Rb_tree"* %3, i32 0, i32 0, !llfi_index !962
  %5 = bitcast %"struct.std::_Rb_tree<std::pair<int, int>, std::pair<const std::pair<int, int>, T *>, std::_Select1st<std::pair<const std::pair<int, int>, T *>>, std::less<std::pair<int, int>>>::_Rb_tree_impl"* %4 to i8*, !llfi_index !963
  %6 = getelementptr inbounds i8, i8* %5, i64 8, !llfi_index !964
  %7 = bitcast i8* %6 to %"struct.std::_Rb_tree_header"*, !llfi_index !965
  %8 = getelementptr inbounds %"struct.std::_Rb_tree_header", %"struct.std::_Rb_tree_header"* %7, i32 0, i32 1, !llfi_index !966
  %9 = load i64, i64* %8, align 8, !llfi_index !967
  ret i64 %9, !llfi_index !968
}

; Function Attrs: mustprogress noinline nounwind uwtable
define linkonce_odr dso_local nonnull align 8 dereferenceable(8) %"struct.std::_Rb_tree_node_base"** @_ZNSt8_Rb_treeISt4pairIiiES0_IKS1_P1TESt10_Select1stIS5_ESt4lessIS1_ESaIS5_EE12_M_rightmostEv(%"class.std::_Rb_tree"* nonnull align 8 dereferenceable(48) %0) #3 comdat align 2 {
  %2 = alloca %"class.std::_Rb_tree"*, align 8, !llfi_index !969
  store %"class.std::_Rb_tree"* %0, %"class.std::_Rb_tree"** %2, align 8, !llfi_index !970
  %3 = load %"class.std::_Rb_tree"*, %"class.std::_Rb_tree"** %2, align 8, !llfi_index !971
  %4 = getelementptr inbounds %"class.std::_Rb_tree", %"class.std::_Rb_tree"* %3, i32 0, i32 0, !llfi_index !972
  %5 = bitcast %"struct.std::_Rb_tree<std::pair<int, int>, std::pair<const std::pair<int, int>, T *>, std::_Select1st<std::pair<const std::pair<int, int>, T *>>, std::less<std::pair<int, int>>>::_Rb_tree_impl"* %4 to i8*, !llfi_index !973
  %6 = getelementptr inbounds i8, i8* %5, i64 8, !llfi_index !974
  %7 = bitcast i8* %6 to %"struct.std::_Rb_tree_header"*, !llfi_index !975
  %8 = getelementptr inbounds %"struct.std::_Rb_tree_header", %"struct.std::_Rb_tree_header"* %7, i32 0, i32 0, !llfi_index !976
  %9 = getelementptr inbounds %"struct.std::_Rb_tree_node_base", %"struct.std::_Rb_tree_node_base"* %8, i32 0, i32 3, !llfi_index !977
  ret %"struct.std::_Rb_tree_node_base"** %9, !llfi_index !978
}

; Function Attrs: noinline nounwind uwtable
define linkonce_odr dso_local void @_ZNSt4pairIPSt18_Rb_tree_node_baseS1_EC2IRS1_Lb1EEERKS1_OT_(%"struct.std::pair.4"* nonnull align 8 dereferenceable(16) %0, %"struct.std::_Rb_tree_node_base"** nonnull align 8 dereferenceable(8) %1, %"struct.std::_Rb_tree_node_base"** nonnull align 8 dereferenceable(8) %2) unnamed_addr #1 comdat align 2 {
  %4 = alloca %"struct.std::pair.4"*, align 8, !llfi_index !979
  %5 = alloca %"struct.std::_Rb_tree_node_base"**, align 8, !llfi_index !980
  %6 = alloca %"struct.std::_Rb_tree_node_base"**, align 8, !llfi_index !981
  store %"struct.std::pair.4"* %0, %"struct.std::pair.4"** %4, align 8, !llfi_index !982
  store %"struct.std::_Rb_tree_node_base"** %1, %"struct.std::_Rb_tree_node_base"*** %5, align 8, !llfi_index !983
  store %"struct.std::_Rb_tree_node_base"** %2, %"struct.std::_Rb_tree_node_base"*** %6, align 8, !llfi_index !984
  %7 = load %"struct.std::pair.4"*, %"struct.std::pair.4"** %4, align 8, !llfi_index !985
  %8 = bitcast %"struct.std::pair.4"* %7 to %"struct.std::less"*, !llfi_index !986
  %9 = getelementptr inbounds %"struct.std::pair.4", %"struct.std::pair.4"* %7, i32 0, i32 0, !llfi_index !987
  %10 = load %"struct.std::_Rb_tree_node_base"**, %"struct.std::_Rb_tree_node_base"*** %5, align 8, !llfi_index !988
  %11 = load %"struct.std::_Rb_tree_node_base"*, %"struct.std::_Rb_tree_node_base"** %10, align 8, !llfi_index !989
  store %"struct.std::_Rb_tree_node_base"* %11, %"struct.std::_Rb_tree_node_base"** %9, align 8, !llfi_index !990
  %12 = getelementptr inbounds %"struct.std::pair.4", %"struct.std::pair.4"* %7, i32 0, i32 1, !llfi_index !991
  %13 = load %"struct.std::_Rb_tree_node_base"**, %"struct.std::_Rb_tree_node_base"*** %6, align 8, !llfi_index !992
  %14 = call nonnull align 8 dereferenceable(8) %"struct.std::_Rb_tree_node_base"** @_ZSt7forwardIRPSt18_Rb_tree_node_baseEOT_RNSt16remove_referenceIS3_E4typeE(%"struct.std::_Rb_tree_node_base"** nonnull align 8 dereferenceable(8) %13) #2, !llfi_index !993
  %15 = load %"struct.std::_Rb_tree_node_base"*, %"struct.std::_Rb_tree_node_base"** %14, align 8, !llfi_index !994
  store %"struct.std::_Rb_tree_node_base"* %15, %"struct.std::_Rb_tree_node_base"** %12, align 8, !llfi_index !995
  ret void, !llfi_index !996
}

; Function Attrs: mustprogress noinline uwtable
define linkonce_odr dso_local { %"struct.std::_Rb_tree_node_base"*, %"struct.std::_Rb_tree_node_base"* } @_ZNSt8_Rb_treeISt4pairIiiES0_IKS1_P1TESt10_Select1stIS5_ESt4lessIS1_ESaIS5_EE24_M_get_insert_unique_posERS2_(%"class.std::_Rb_tree"* nonnull align 8 dereferenceable(48) %0, %"struct.std::pair"* nonnull align 4 dereferenceable(8) %1) #4 comdat align 2 {
  %3 = alloca %"struct.std::pair.4", align 8, !llfi_index !997
  %4 = alloca %"class.std::_Rb_tree"*, align 8, !llfi_index !998
  %5 = alloca %"struct.std::pair"*, align 8, !llfi_index !999
  %6 = alloca %"struct.std::_Rb_tree_node"*, align 8, !llfi_index !1000
  %7 = alloca %"struct.std::_Rb_tree_node_base"*, align 8, !llfi_index !1001
  %8 = alloca i8, align 1, !llfi_index !1002
  %9 = alloca %"struct.std::_Rb_tree_iterator", align 8, !llfi_index !1003
  %10 = alloca %"struct.std::_Rb_tree_iterator", align 8, !llfi_index !1004
  %11 = alloca %"struct.std::_Rb_tree_node_base"*, align 8, !llfi_index !1005
  store %"class.std::_Rb_tree"* %0, %"class.std::_Rb_tree"** %4, align 8, !llfi_index !1006
  store %"struct.std::pair"* %1, %"struct.std::pair"** %5, align 8, !llfi_index !1007
  %12 = load %"class.std::_Rb_tree"*, %"class.std::_Rb_tree"** %4, align 8, !llfi_index !1008
  %13 = call %"struct.std::_Rb_tree_node"* @_ZNSt8_Rb_treeISt4pairIiiES0_IKS1_P1TESt10_Select1stIS5_ESt4lessIS1_ESaIS5_EE8_M_beginEv(%"class.std::_Rb_tree"* nonnull align 8 dereferenceable(48) %12) #2, !llfi_index !1009
  store %"struct.std::_Rb_tree_node"* %13, %"struct.std::_Rb_tree_node"** %6, align 8, !llfi_index !1010
  %14 = call %"struct.std::_Rb_tree_node_base"* @_ZNSt8_Rb_treeISt4pairIiiES0_IKS1_P1TESt10_Select1stIS5_ESt4lessIS1_ESaIS5_EE6_M_endEv(%"class.std::_Rb_tree"* nonnull align 8 dereferenceable(48) %12) #2, !llfi_index !1011
  store %"struct.std::_Rb_tree_node_base"* %14, %"struct.std::_Rb_tree_node_base"** %7, align 8, !llfi_index !1012
  store i8 1, i8* %8, align 1, !llfi_index !1013
  br label %15, !llfi_index !1014

15:                                               ; preds = %39, %2
  %16 = load %"struct.std::_Rb_tree_node"*, %"struct.std::_Rb_tree_node"** %6, align 8, !llfi_index !1015
  %17 = icmp ne %"struct.std::_Rb_tree_node"* %16, null, !llfi_index !1016
  br i1 %17, label %18, label %41, !llfi_index !1017

18:                                               ; preds = %15
  %19 = load %"struct.std::_Rb_tree_node"*, %"struct.std::_Rb_tree_node"** %6, align 8, !llfi_index !1018
  %20 = bitcast %"struct.std::_Rb_tree_node"* %19 to %"struct.std::_Rb_tree_node_base"*, !llfi_index !1019
  store %"struct.std::_Rb_tree_node_base"* %20, %"struct.std::_Rb_tree_node_base"** %7, align 8, !llfi_index !1020
  %21 = getelementptr inbounds %"class.std::_Rb_tree", %"class.std::_Rb_tree"* %12, i32 0, i32 0, !llfi_index !1021
  %22 = bitcast %"struct.std::_Rb_tree<std::pair<int, int>, std::pair<const std::pair<int, int>, T *>, std::_Select1st<std::pair<const std::pair<int, int>, T *>>, std::less<std::pair<int, int>>>::_Rb_tree_impl"* %21 to %"struct.std::_Rb_tree_key_compare"*, !llfi_index !1022
  %23 = getelementptr inbounds %"struct.std::_Rb_tree_key_compare", %"struct.std::_Rb_tree_key_compare"* %22, i32 0, i32 0, !llfi_index !1023
  %24 = load %"struct.std::pair"*, %"struct.std::pair"** %5, align 8, !llfi_index !1024
  %25 = load %"struct.std::_Rb_tree_node"*, %"struct.std::_Rb_tree_node"** %6, align 8, !llfi_index !1025
  %26 = call nonnull align 4 dereferenceable(8) %"struct.std::pair"* @_ZNSt8_Rb_treeISt4pairIiiES0_IKS1_P1TESt10_Select1stIS5_ESt4lessIS1_ESaIS5_EE6_S_keyEPKSt13_Rb_tree_nodeIS5_E(%"struct.std::_Rb_tree_node"* %25), !llfi_index !1026
  %27 = call zeroext i1 @_ZNKSt4lessISt4pairIiiEEclERKS1_S4_(%"struct.std::less"* nonnull align 1 dereferenceable(1) %23, %"struct.std::pair"* nonnull align 4 dereferenceable(8) %24, %"struct.std::pair"* nonnull align 4 dereferenceable(8) %26), !llfi_index !1027
  %28 = zext i1 %27 to i8, !llfi_index !1028
  store i8 %28, i8* %8, align 1, !llfi_index !1029
  %29 = load i8, i8* %8, align 1, !llfi_index !1030
  %30 = trunc i8 %29 to i1, !llfi_index !1031
  br i1 %30, label %31, label %35, !llfi_index !1032

31:                                               ; preds = %18
  %32 = load %"struct.std::_Rb_tree_node"*, %"struct.std::_Rb_tree_node"** %6, align 8, !llfi_index !1033
  %33 = bitcast %"struct.std::_Rb_tree_node"* %32 to %"struct.std::_Rb_tree_node_base"*, !llfi_index !1034
  %34 = call %"struct.std::_Rb_tree_node"* @_ZNSt8_Rb_treeISt4pairIiiES0_IKS1_P1TESt10_Select1stIS5_ESt4lessIS1_ESaIS5_EE7_S_leftEPSt18_Rb_tree_node_base(%"struct.std::_Rb_tree_node_base"* %33) #2, !llfi_index !1035
  br label %39, !llfi_index !1036

35:                                               ; preds = %18
  %36 = load %"struct.std::_Rb_tree_node"*, %"struct.std::_Rb_tree_node"** %6, align 8, !llfi_index !1037
  %37 = bitcast %"struct.std::_Rb_tree_node"* %36 to %"struct.std::_Rb_tree_node_base"*, !llfi_index !1038
  %38 = call %"struct.std::_Rb_tree_node"* @_ZNSt8_Rb_treeISt4pairIiiES0_IKS1_P1TESt10_Select1stIS5_ESt4lessIS1_ESaIS5_EE8_S_rightEPSt18_Rb_tree_node_base(%"struct.std::_Rb_tree_node_base"* %37) #2, !llfi_index !1039
  br label %39, !llfi_index !1040

39:                                               ; preds = %35, %31
  %40 = phi %"struct.std::_Rb_tree_node"* [ %34, %31 ], [ %38, %35 ], !llfi_index !1041
  store %"struct.std::_Rb_tree_node"* %40, %"struct.std::_Rb_tree_node"** %6, align 8, !llfi_index !1042
  br label %15, !llvm.loop !1043, !llfi_index !1044

41:                                               ; preds = %15
  %42 = load %"struct.std::_Rb_tree_node_base"*, %"struct.std::_Rb_tree_node_base"** %7, align 8, !llfi_index !1045
  call void @_ZNSt17_Rb_tree_iteratorISt4pairIKS0_IiiEP1TEEC2EPSt18_Rb_tree_node_base(%"struct.std::_Rb_tree_iterator"* nonnull align 8 dereferenceable(8) %9, %"struct.std::_Rb_tree_node_base"* %42) #2, !llfi_index !1046
  %43 = load i8, i8* %8, align 1, !llfi_index !1047
  %44 = trunc i8 %43 to i1, !llfi_index !1048
  br i1 %44, label %45, label %53, !llfi_index !1049

45:                                               ; preds = %41
  %46 = call %"struct.std::_Rb_tree_node_base"* @_ZNSt8_Rb_treeISt4pairIiiES0_IKS1_P1TESt10_Select1stIS5_ESt4lessIS1_ESaIS5_EE5beginEv(%"class.std::_Rb_tree"* nonnull align 8 dereferenceable(48) %12) #2, !llfi_index !1050
  %47 = getelementptr inbounds %"struct.std::_Rb_tree_iterator", %"struct.std::_Rb_tree_iterator"* %10, i32 0, i32 0, !llfi_index !1051
  store %"struct.std::_Rb_tree_node_base"* %46, %"struct.std::_Rb_tree_node_base"** %47, align 8, !llfi_index !1052
  %48 = call zeroext i1 @_ZSteqRKSt17_Rb_tree_iteratorISt4pairIKS0_IiiEP1TEES8_(%"struct.std::_Rb_tree_iterator"* nonnull align 8 dereferenceable(8) %9, %"struct.std::_Rb_tree_iterator"* nonnull align 8 dereferenceable(8) %10) #2, !llfi_index !1053
  br i1 %48, label %49, label %50, !llfi_index !1054

49:                                               ; preds = %45
  call void @_ZNSt4pairIPSt18_Rb_tree_node_baseS1_EC2IRPSt13_Rb_tree_nodeIS_IKS_IiiEP1TEERS1_Lb1EEEOT_OT0_(%"struct.std::pair.4"* nonnull align 8 dereferenceable(16) %3, %"struct.std::_Rb_tree_node"** nonnull align 8 dereferenceable(8) %6, %"struct.std::_Rb_tree_node_base"** nonnull align 8 dereferenceable(8) %7), !llfi_index !1055
  br label %65, !llfi_index !1056

50:                                               ; preds = %45
  %51 = call nonnull align 8 dereferenceable(8) %"struct.std::_Rb_tree_iterator"* @_ZNSt17_Rb_tree_iteratorISt4pairIKS0_IiiEP1TEEmmEv(%"struct.std::_Rb_tree_iterator"* nonnull align 8 dereferenceable(8) %9) #2, !llfi_index !1057
  br label %52, !llfi_index !1058

52:                                               ; preds = %50
  br label %53, !llfi_index !1059

53:                                               ; preds = %52, %41
  %54 = getelementptr inbounds %"class.std::_Rb_tree", %"class.std::_Rb_tree"* %12, i32 0, i32 0, !llfi_index !1060
  %55 = bitcast %"struct.std::_Rb_tree<std::pair<int, int>, std::pair<const std::pair<int, int>, T *>, std::_Select1st<std::pair<const std::pair<int, int>, T *>>, std::less<std::pair<int, int>>>::_Rb_tree_impl"* %54 to %"struct.std::_Rb_tree_key_compare"*, !llfi_index !1061
  %56 = getelementptr inbounds %"struct.std::_Rb_tree_key_compare", %"struct.std::_Rb_tree_key_compare"* %55, i32 0, i32 0, !llfi_index !1062
  %57 = getelementptr inbounds %"struct.std::_Rb_tree_iterator", %"struct.std::_Rb_tree_iterator"* %9, i32 0, i32 0, !llfi_index !1063
  %58 = load %"struct.std::_Rb_tree_node_base"*, %"struct.std::_Rb_tree_node_base"** %57, align 8, !llfi_index !1064
  %59 = call nonnull align 4 dereferenceable(8) %"struct.std::pair"* @_ZNSt8_Rb_treeISt4pairIiiES0_IKS1_P1TESt10_Select1stIS5_ESt4lessIS1_ESaIS5_EE6_S_keyEPKSt18_Rb_tree_node_base(%"struct.std::_Rb_tree_node_base"* %58), !llfi_index !1065
  %60 = load %"struct.std::pair"*, %"struct.std::pair"** %5, align 8, !llfi_index !1066
  %61 = call zeroext i1 @_ZNKSt4lessISt4pairIiiEEclERKS1_S4_(%"struct.std::less"* nonnull align 1 dereferenceable(1) %56, %"struct.std::pair"* nonnull align 4 dereferenceable(8) %59, %"struct.std::pair"* nonnull align 4 dereferenceable(8) %60), !llfi_index !1067
  br i1 %61, label %62, label %63, !llfi_index !1068

62:                                               ; preds = %53
  call void @_ZNSt4pairIPSt18_Rb_tree_node_baseS1_EC2IRPSt13_Rb_tree_nodeIS_IKS_IiiEP1TEERS1_Lb1EEEOT_OT0_(%"struct.std::pair.4"* nonnull align 8 dereferenceable(16) %3, %"struct.std::_Rb_tree_node"** nonnull align 8 dereferenceable(8) %6, %"struct.std::_Rb_tree_node_base"** nonnull align 8 dereferenceable(8) %7), !llfi_index !1069
  br label %65, !llfi_index !1070

63:                                               ; preds = %53
  %64 = getelementptr inbounds %"struct.std::_Rb_tree_iterator", %"struct.std::_Rb_tree_iterator"* %9, i32 0, i32 0, !llfi_index !1071
  store %"struct.std::_Rb_tree_node_base"* null, %"struct.std::_Rb_tree_node_base"** %11, align 8, !llfi_index !1072
  call void @_ZNSt4pairIPSt18_Rb_tree_node_baseS1_EC2IRS1_Lb1EEEOT_RKS1_(%"struct.std::pair.4"* nonnull align 8 dereferenceable(16) %3, %"struct.std::_Rb_tree_node_base"** nonnull align 8 dereferenceable(8) %64, %"struct.std::_Rb_tree_node_base"** nonnull align 8 dereferenceable(8) %11), !llfi_index !1073
  br label %65, !llfi_index !1074

65:                                               ; preds = %63, %62, %49
  %66 = bitcast %"struct.std::pair.4"* %3 to { %"struct.std::_Rb_tree_node_base"*, %"struct.std::_Rb_tree_node_base"* }*, !llfi_index !1075
  %67 = load { %"struct.std::_Rb_tree_node_base"*, %"struct.std::_Rb_tree_node_base"* }, { %"struct.std::_Rb_tree_node_base"*, %"struct.std::_Rb_tree_node_base"* }* %66, align 8, !llfi_index !1076
  ret { %"struct.std::_Rb_tree_node_base"*, %"struct.std::_Rb_tree_node_base"* } %67, !llfi_index !1077
}

; Function Attrs: mustprogress noinline nounwind uwtable
define linkonce_odr dso_local nonnull align 8 dereferenceable(8) %"struct.std::_Rb_tree_node_base"** @_ZNSt8_Rb_treeISt4pairIiiES0_IKS1_P1TESt10_Select1stIS5_ESt4lessIS1_ESaIS5_EE11_M_leftmostEv(%"class.std::_Rb_tree"* nonnull align 8 dereferenceable(48) %0) #3 comdat align 2 {
  %2 = alloca %"class.std::_Rb_tree"*, align 8, !llfi_index !1078
  store %"class.std::_Rb_tree"* %0, %"class.std::_Rb_tree"** %2, align 8, !llfi_index !1079
  %3 = load %"class.std::_Rb_tree"*, %"class.std::_Rb_tree"** %2, align 8, !llfi_index !1080
  %4 = getelementptr inbounds %"class.std::_Rb_tree", %"class.std::_Rb_tree"* %3, i32 0, i32 0, !llfi_index !1081
  %5 = bitcast %"struct.std::_Rb_tree<std::pair<int, int>, std::pair<const std::pair<int, int>, T *>, std::_Select1st<std::pair<const std::pair<int, int>, T *>>, std::less<std::pair<int, int>>>::_Rb_tree_impl"* %4 to i8*, !llfi_index !1082
  %6 = getelementptr inbounds i8, i8* %5, i64 8, !llfi_index !1083
  %7 = bitcast i8* %6 to %"struct.std::_Rb_tree_header"*, !llfi_index !1084
  %8 = getelementptr inbounds %"struct.std::_Rb_tree_header", %"struct.std::_Rb_tree_header"* %7, i32 0, i32 0, !llfi_index !1085
  %9 = getelementptr inbounds %"struct.std::_Rb_tree_node_base", %"struct.std::_Rb_tree_node_base"* %8, i32 0, i32 2, !llfi_index !1086
  ret %"struct.std::_Rb_tree_node_base"** %9, !llfi_index !1087
}

; Function Attrs: noinline nounwind uwtable
define linkonce_odr dso_local void @_ZNSt4pairIPSt18_Rb_tree_node_baseS1_EC2IRS1_S4_Lb1EEEOT_OT0_(%"struct.std::pair.4"* nonnull align 8 dereferenceable(16) %0, %"struct.std::_Rb_tree_node_base"** nonnull align 8 dereferenceable(8) %1, %"struct.std::_Rb_tree_node_base"** nonnull align 8 dereferenceable(8) %2) unnamed_addr #1 comdat align 2 {
  %4 = alloca %"struct.std::pair.4"*, align 8, !llfi_index !1088
  %5 = alloca %"struct.std::_Rb_tree_node_base"**, align 8, !llfi_index !1089
  %6 = alloca %"struct.std::_Rb_tree_node_base"**, align 8, !llfi_index !1090
  store %"struct.std::pair.4"* %0, %"struct.std::pair.4"** %4, align 8, !llfi_index !1091
  store %"struct.std::_Rb_tree_node_base"** %1, %"struct.std::_Rb_tree_node_base"*** %5, align 8, !llfi_index !1092
  store %"struct.std::_Rb_tree_node_base"** %2, %"struct.std::_Rb_tree_node_base"*** %6, align 8, !llfi_index !1093
  %7 = load %"struct.std::pair.4"*, %"struct.std::pair.4"** %4, align 8, !llfi_index !1094
  %8 = bitcast %"struct.std::pair.4"* %7 to %"struct.std::less"*, !llfi_index !1095
  %9 = getelementptr inbounds %"struct.std::pair.4", %"struct.std::pair.4"* %7, i32 0, i32 0, !llfi_index !1096
  %10 = load %"struct.std::_Rb_tree_node_base"**, %"struct.std::_Rb_tree_node_base"*** %5, align 8, !llfi_index !1097
  %11 = call nonnull align 8 dereferenceable(8) %"struct.std::_Rb_tree_node_base"** @_ZSt7forwardIRPSt18_Rb_tree_node_baseEOT_RNSt16remove_referenceIS3_E4typeE(%"struct.std::_Rb_tree_node_base"** nonnull align 8 dereferenceable(8) %10) #2, !llfi_index !1098
  %12 = load %"struct.std::_Rb_tree_node_base"*, %"struct.std::_Rb_tree_node_base"** %11, align 8, !llfi_index !1099
  store %"struct.std::_Rb_tree_node_base"* %12, %"struct.std::_Rb_tree_node_base"** %9, align 8, !llfi_index !1100
  %13 = getelementptr inbounds %"struct.std::pair.4", %"struct.std::pair.4"* %7, i32 0, i32 1, !llfi_index !1101
  %14 = load %"struct.std::_Rb_tree_node_base"**, %"struct.std::_Rb_tree_node_base"*** %6, align 8, !llfi_index !1102
  %15 = call nonnull align 8 dereferenceable(8) %"struct.std::_Rb_tree_node_base"** @_ZSt7forwardIRPSt18_Rb_tree_node_baseEOT_RNSt16remove_referenceIS3_E4typeE(%"struct.std::_Rb_tree_node_base"** nonnull align 8 dereferenceable(8) %14) #2, !llfi_index !1103
  %16 = load %"struct.std::_Rb_tree_node_base"*, %"struct.std::_Rb_tree_node_base"** %15, align 8, !llfi_index !1104
  store %"struct.std::_Rb_tree_node_base"* %16, %"struct.std::_Rb_tree_node_base"** %13, align 8, !llfi_index !1105
  ret void, !llfi_index !1106
}

; Function Attrs: mustprogress noinline nounwind uwtable
define linkonce_odr dso_local nonnull align 8 dereferenceable(8) %"struct.std::_Rb_tree_iterator"* @_ZNSt17_Rb_tree_iteratorISt4pairIKS0_IiiEP1TEEmmEv(%"struct.std::_Rb_tree_iterator"* nonnull align 8 dereferenceable(8) %0) #3 comdat align 2 {
  %2 = alloca %"struct.std::_Rb_tree_iterator"*, align 8, !llfi_index !1107
  store %"struct.std::_Rb_tree_iterator"* %0, %"struct.std::_Rb_tree_iterator"** %2, align 8, !llfi_index !1108
  %3 = load %"struct.std::_Rb_tree_iterator"*, %"struct.std::_Rb_tree_iterator"** %2, align 8, !llfi_index !1109
  %4 = getelementptr inbounds %"struct.std::_Rb_tree_iterator", %"struct.std::_Rb_tree_iterator"* %3, i32 0, i32 0, !llfi_index !1110
  %5 = load %"struct.std::_Rb_tree_node_base"*, %"struct.std::_Rb_tree_node_base"** %4, align 8, !llfi_index !1111
  %6 = call %"struct.std::_Rb_tree_node_base"* @_ZSt18_Rb_tree_decrementPSt18_Rb_tree_node_base(%"struct.std::_Rb_tree_node_base"* %5) #17, !llfi_index !1112
  %7 = getelementptr inbounds %"struct.std::_Rb_tree_iterator", %"struct.std::_Rb_tree_iterator"* %3, i32 0, i32 0, !llfi_index !1113
  store %"struct.std::_Rb_tree_node_base"* %6, %"struct.std::_Rb_tree_node_base"** %7, align 8, !llfi_index !1114
  ret %"struct.std::_Rb_tree_iterator"* %3, !llfi_index !1115
}

; Function Attrs: mustprogress noinline nounwind uwtable
define linkonce_odr dso_local nonnull align 8 dereferenceable(8) %"struct.std::_Rb_tree_iterator"* @_ZNSt17_Rb_tree_iteratorISt4pairIKS0_IiiEP1TEEppEv(%"struct.std::_Rb_tree_iterator"* nonnull align 8 dereferenceable(8) %0) #3 comdat align 2 {
  %2 = alloca %"struct.std::_Rb_tree_iterator"*, align 8, !llfi_index !1116
  store %"struct.std::_Rb_tree_iterator"* %0, %"struct.std::_Rb_tree_iterator"** %2, align 8, !llfi_index !1117
  %3 = load %"struct.std::_Rb_tree_iterator"*, %"struct.std::_Rb_tree_iterator"** %2, align 8, !llfi_index !1118
  %4 = getelementptr inbounds %"struct.std::_Rb_tree_iterator", %"struct.std::_Rb_tree_iterator"* %3, i32 0, i32 0, !llfi_index !1119
  %5 = load %"struct.std::_Rb_tree_node_base"*, %"struct.std::_Rb_tree_node_base"** %4, align 8, !llfi_index !1120
  %6 = call %"struct.std::_Rb_tree_node_base"* @_ZSt18_Rb_tree_incrementPSt18_Rb_tree_node_base(%"struct.std::_Rb_tree_node_base"* %5) #17, !llfi_index !1121
  %7 = getelementptr inbounds %"struct.std::_Rb_tree_iterator", %"struct.std::_Rb_tree_iterator"* %3, i32 0, i32 0, !llfi_index !1122
  store %"struct.std::_Rb_tree_node_base"* %6, %"struct.std::_Rb_tree_node_base"** %7, align 8, !llfi_index !1123
  ret %"struct.std::_Rb_tree_iterator"* %3, !llfi_index !1124
}

; Function Attrs: noinline nounwind uwtable
define linkonce_odr dso_local void @_ZNSt4pairIPSt18_Rb_tree_node_baseS1_EC2IRS1_Lb1EEEOT_RKS1_(%"struct.std::pair.4"* nonnull align 8 dereferenceable(16) %0, %"struct.std::_Rb_tree_node_base"** nonnull align 8 dereferenceable(8) %1, %"struct.std::_Rb_tree_node_base"** nonnull align 8 dereferenceable(8) %2) unnamed_addr #1 comdat align 2 {
  %4 = alloca %"struct.std::pair.4"*, align 8, !llfi_index !1125
  %5 = alloca %"struct.std::_Rb_tree_node_base"**, align 8, !llfi_index !1126
  %6 = alloca %"struct.std::_Rb_tree_node_base"**, align 8, !llfi_index !1127
  store %"struct.std::pair.4"* %0, %"struct.std::pair.4"** %4, align 8, !llfi_index !1128
  store %"struct.std::_Rb_tree_node_base"** %1, %"struct.std::_Rb_tree_node_base"*** %5, align 8, !llfi_index !1129
  store %"struct.std::_Rb_tree_node_base"** %2, %"struct.std::_Rb_tree_node_base"*** %6, align 8, !llfi_index !1130
  %7 = load %"struct.std::pair.4"*, %"struct.std::pair.4"** %4, align 8, !llfi_index !1131
  %8 = bitcast %"struct.std::pair.4"* %7 to %"struct.std::less"*, !llfi_index !1132
  %9 = getelementptr inbounds %"struct.std::pair.4", %"struct.std::pair.4"* %7, i32 0, i32 0, !llfi_index !1133
  %10 = load %"struct.std::_Rb_tree_node_base"**, %"struct.std::_Rb_tree_node_base"*** %5, align 8, !llfi_index !1134
  %11 = call nonnull align 8 dereferenceable(8) %"struct.std::_Rb_tree_node_base"** @_ZSt7forwardIRPSt18_Rb_tree_node_baseEOT_RNSt16remove_referenceIS3_E4typeE(%"struct.std::_Rb_tree_node_base"** nonnull align 8 dereferenceable(8) %10) #2, !llfi_index !1135
  %12 = load %"struct.std::_Rb_tree_node_base"*, %"struct.std::_Rb_tree_node_base"** %11, align 8, !llfi_index !1136
  store %"struct.std::_Rb_tree_node_base"* %12, %"struct.std::_Rb_tree_node_base"** %9, align 8, !llfi_index !1137
  %13 = getelementptr inbounds %"struct.std::pair.4", %"struct.std::pair.4"* %7, i32 0, i32 1, !llfi_index !1138
  %14 = load %"struct.std::_Rb_tree_node_base"**, %"struct.std::_Rb_tree_node_base"*** %6, align 8, !llfi_index !1139
  %15 = load %"struct.std::_Rb_tree_node_base"*, %"struct.std::_Rb_tree_node_base"** %14, align 8, !llfi_index !1140
  store %"struct.std::_Rb_tree_node_base"* %15, %"struct.std::_Rb_tree_node_base"** %13, align 8, !llfi_index !1141
  ret void, !llfi_index !1142
}

; Function Attrs: mustprogress noinline nounwind uwtable
define linkonce_odr dso_local nonnull align 8 dereferenceable(8) %"struct.std::_Rb_tree_node_base"** @_ZSt7forwardIRPSt18_Rb_tree_node_baseEOT_RNSt16remove_referenceIS3_E4typeE(%"struct.std::_Rb_tree_node_base"** nonnull align 8 dereferenceable(8) %0) #3 comdat {
  %2 = alloca %"struct.std::_Rb_tree_node_base"**, align 8, !llfi_index !1143
  store %"struct.std::_Rb_tree_node_base"** %0, %"struct.std::_Rb_tree_node_base"*** %2, align 8, !llfi_index !1144
  %3 = load %"struct.std::_Rb_tree_node_base"**, %"struct.std::_Rb_tree_node_base"*** %2, align 8, !llfi_index !1145
  ret %"struct.std::_Rb_tree_node_base"** %3, !llfi_index !1146
}

; Function Attrs: nounwind readonly willreturn
declare dso_local %"struct.std::_Rb_tree_node_base"* @_ZSt18_Rb_tree_incrementPSt18_Rb_tree_node_base(%"struct.std::_Rb_tree_node_base"*) #11

; Function Attrs: nounwind readonly willreturn
declare dso_local %"struct.std::_Rb_tree_node_base"* @_ZSt18_Rb_tree_decrementPSt18_Rb_tree_node_base(%"struct.std::_Rb_tree_node_base"*) #11

; Function Attrs: mustprogress noinline nounwind uwtable
define linkonce_odr dso_local %"struct.std::_Rb_tree_node_base"* @_ZNSt8_Rb_treeISt4pairIiiES0_IKS1_P1TESt10_Select1stIS5_ESt4lessIS1_ESaIS5_EE5beginEv(%"class.std::_Rb_tree"* nonnull align 8 dereferenceable(48) %0) #3 comdat align 2 {
  %2 = alloca %"struct.std::_Rb_tree_iterator", align 8, !llfi_index !1147
  %3 = alloca %"class.std::_Rb_tree"*, align 8, !llfi_index !1148
  store %"class.std::_Rb_tree"* %0, %"class.std::_Rb_tree"** %3, align 8, !llfi_index !1149
  %4 = load %"class.std::_Rb_tree"*, %"class.std::_Rb_tree"** %3, align 8, !llfi_index !1150
  %5 = getelementptr inbounds %"class.std::_Rb_tree", %"class.std::_Rb_tree"* %4, i32 0, i32 0, !llfi_index !1151
  %6 = bitcast %"struct.std::_Rb_tree<std::pair<int, int>, std::pair<const std::pair<int, int>, T *>, std::_Select1st<std::pair<const std::pair<int, int>, T *>>, std::less<std::pair<int, int>>>::_Rb_tree_impl"* %5 to i8*, !llfi_index !1152
  %7 = getelementptr inbounds i8, i8* %6, i64 8, !llfi_index !1153
  %8 = bitcast i8* %7 to %"struct.std::_Rb_tree_header"*, !llfi_index !1154
  %9 = getelementptr inbounds %"struct.std::_Rb_tree_header", %"struct.std::_Rb_tree_header"* %8, i32 0, i32 0, !llfi_index !1155
  %10 = getelementptr inbounds %"struct.std::_Rb_tree_node_base", %"struct.std::_Rb_tree_node_base"* %9, i32 0, i32 2, !llfi_index !1156
  %11 = load %"struct.std::_Rb_tree_node_base"*, %"struct.std::_Rb_tree_node_base"** %10, align 8, !llfi_index !1157
  call void @_ZNSt17_Rb_tree_iteratorISt4pairIKS0_IiiEP1TEEC2EPSt18_Rb_tree_node_base(%"struct.std::_Rb_tree_iterator"* nonnull align 8 dereferenceable(8) %2, %"struct.std::_Rb_tree_node_base"* %11) #2, !llfi_index !1158
  %12 = getelementptr inbounds %"struct.std::_Rb_tree_iterator", %"struct.std::_Rb_tree_iterator"* %2, i32 0, i32 0, !llfi_index !1159
  %13 = load %"struct.std::_Rb_tree_node_base"*, %"struct.std::_Rb_tree_node_base"** %12, align 8, !llfi_index !1160
  ret %"struct.std::_Rb_tree_node_base"* %13, !llfi_index !1161
}

; Function Attrs: noinline nounwind uwtable
define linkonce_odr dso_local void @_ZNSt4pairIPSt18_Rb_tree_node_baseS1_EC2IRPSt13_Rb_tree_nodeIS_IKS_IiiEP1TEERS1_Lb1EEEOT_OT0_(%"struct.std::pair.4"* nonnull align 8 dereferenceable(16) %0, %"struct.std::_Rb_tree_node"** nonnull align 8 dereferenceable(8) %1, %"struct.std::_Rb_tree_node_base"** nonnull align 8 dereferenceable(8) %2) unnamed_addr #1 comdat align 2 {
  %4 = alloca %"struct.std::pair.4"*, align 8, !llfi_index !1162
  %5 = alloca %"struct.std::_Rb_tree_node"**, align 8, !llfi_index !1163
  %6 = alloca %"struct.std::_Rb_tree_node_base"**, align 8, !llfi_index !1164
  store %"struct.std::pair.4"* %0, %"struct.std::pair.4"** %4, align 8, !llfi_index !1165
  store %"struct.std::_Rb_tree_node"** %1, %"struct.std::_Rb_tree_node"*** %5, align 8, !llfi_index !1166
  store %"struct.std::_Rb_tree_node_base"** %2, %"struct.std::_Rb_tree_node_base"*** %6, align 8, !llfi_index !1167
  %7 = load %"struct.std::pair.4"*, %"struct.std::pair.4"** %4, align 8, !llfi_index !1168
  %8 = bitcast %"struct.std::pair.4"* %7 to %"struct.std::less"*, !llfi_index !1169
  %9 = getelementptr inbounds %"struct.std::pair.4", %"struct.std::pair.4"* %7, i32 0, i32 0, !llfi_index !1170
  %10 = load %"struct.std::_Rb_tree_node"**, %"struct.std::_Rb_tree_node"*** %5, align 8, !llfi_index !1171
  %11 = call nonnull align 8 dereferenceable(8) %"struct.std::_Rb_tree_node"** @_ZSt7forwardIRPSt13_Rb_tree_nodeISt4pairIKS1_IiiEP1TEEEOT_RNSt16remove_referenceISA_E4typeE(%"struct.std::_Rb_tree_node"** nonnull align 8 dereferenceable(8) %10) #2, !llfi_index !1172
  %12 = load %"struct.std::_Rb_tree_node"*, %"struct.std::_Rb_tree_node"** %11, align 8, !llfi_index !1173
  %13 = bitcast %"struct.std::_Rb_tree_node"* %12 to %"struct.std::_Rb_tree_node_base"*, !llfi_index !1174
  store %"struct.std::_Rb_tree_node_base"* %13, %"struct.std::_Rb_tree_node_base"** %9, align 8, !llfi_index !1175
  %14 = getelementptr inbounds %"struct.std::pair.4", %"struct.std::pair.4"* %7, i32 0, i32 1, !llfi_index !1176
  %15 = load %"struct.std::_Rb_tree_node_base"**, %"struct.std::_Rb_tree_node_base"*** %6, align 8, !llfi_index !1177
  %16 = call nonnull align 8 dereferenceable(8) %"struct.std::_Rb_tree_node_base"** @_ZSt7forwardIRPSt18_Rb_tree_node_baseEOT_RNSt16remove_referenceIS3_E4typeE(%"struct.std::_Rb_tree_node_base"** nonnull align 8 dereferenceable(8) %15) #2, !llfi_index !1178
  %17 = load %"struct.std::_Rb_tree_node_base"*, %"struct.std::_Rb_tree_node_base"** %16, align 8, !llfi_index !1179
  store %"struct.std::_Rb_tree_node_base"* %17, %"struct.std::_Rb_tree_node_base"** %14, align 8, !llfi_index !1180
  ret void, !llfi_index !1181
}

; Function Attrs: mustprogress noinline nounwind uwtable
define linkonce_odr dso_local nonnull align 8 dereferenceable(8) %"struct.std::_Rb_tree_node"** @_ZSt7forwardIRPSt13_Rb_tree_nodeISt4pairIKS1_IiiEP1TEEEOT_RNSt16remove_referenceISA_E4typeE(%"struct.std::_Rb_tree_node"** nonnull align 8 dereferenceable(8) %0) #3 comdat {
  %2 = alloca %"struct.std::_Rb_tree_node"**, align 8, !llfi_index !1182
  store %"struct.std::_Rb_tree_node"** %0, %"struct.std::_Rb_tree_node"*** %2, align 8, !llfi_index !1183
  %3 = load %"struct.std::_Rb_tree_node"**, %"struct.std::_Rb_tree_node"*** %2, align 8, !llfi_index !1184
  ret %"struct.std::_Rb_tree_node"** %3, !llfi_index !1185
}

; Function Attrs: mustprogress noinline nounwind uwtable
define linkonce_odr dso_local %"struct.std::pair.0"* @_ZNKSt13_Rb_tree_nodeISt4pairIKS0_IiiEP1TEE9_M_valptrEv(%"struct.std::_Rb_tree_node"* nonnull align 8 dereferenceable(48) %0) #3 comdat align 2 {
  %2 = alloca %"struct.std::_Rb_tree_node"*, align 8, !llfi_index !1186
  store %"struct.std::_Rb_tree_node"* %0, %"struct.std::_Rb_tree_node"** %2, align 8, !llfi_index !1187
  %3 = load %"struct.std::_Rb_tree_node"*, %"struct.std::_Rb_tree_node"** %2, align 8, !llfi_index !1188
  %4 = getelementptr inbounds %"struct.std::_Rb_tree_node", %"struct.std::_Rb_tree_node"* %3, i32 0, i32 1, !llfi_index !1189
  %5 = call %"struct.std::pair.0"* @_ZNK9__gnu_cxx16__aligned_membufISt4pairIKS1_IiiEP1TEE6_M_ptrEv(%"struct.__gnu_cxx::__aligned_membuf"* nonnull align 8 dereferenceable(16) %4) #2, !llfi_index !1190
  ret %"struct.std::pair.0"* %5, !llfi_index !1191
}

; Function Attrs: mustprogress noinline nounwind uwtable
define linkonce_odr dso_local nonnull align 4 dereferenceable(8) %"struct.std::pair"* @_ZNKSt10_Select1stISt4pairIKS0_IiiEP1TEEclERKS5_(%"struct.std::less"* nonnull align 1 dereferenceable(1) %0, %"struct.std::pair.0"* nonnull align 8 dereferenceable(16) %1) #3 comdat align 2 {
  %3 = alloca %"struct.std::less"*, align 8, !llfi_index !1192
  %4 = alloca %"struct.std::pair.0"*, align 8, !llfi_index !1193
  store %"struct.std::less"* %0, %"struct.std::less"** %3, align 8, !llfi_index !1194
  store %"struct.std::pair.0"* %1, %"struct.std::pair.0"** %4, align 8, !llfi_index !1195
  %5 = load %"struct.std::less"*, %"struct.std::less"** %3, align 8, !llfi_index !1196
  %6 = load %"struct.std::pair.0"*, %"struct.std::pair.0"** %4, align 8, !llfi_index !1197
  %7 = getelementptr inbounds %"struct.std::pair.0", %"struct.std::pair.0"* %6, i32 0, i32 0, !llfi_index !1198
  ret %"struct.std::pair"* %7, !llfi_index !1199
}

; Function Attrs: mustprogress noinline nounwind uwtable
define linkonce_odr dso_local %"struct.std::pair.0"* @_ZNK9__gnu_cxx16__aligned_membufISt4pairIKS1_IiiEP1TEE6_M_ptrEv(%"struct.__gnu_cxx::__aligned_membuf"* nonnull align 8 dereferenceable(16) %0) #3 comdat align 2 {
  %2 = alloca %"struct.__gnu_cxx::__aligned_membuf"*, align 8, !llfi_index !1200
  store %"struct.__gnu_cxx::__aligned_membuf"* %0, %"struct.__gnu_cxx::__aligned_membuf"** %2, align 8, !llfi_index !1201
  %3 = load %"struct.__gnu_cxx::__aligned_membuf"*, %"struct.__gnu_cxx::__aligned_membuf"** %2, align 8, !llfi_index !1202
  %4 = call i8* @_ZNK9__gnu_cxx16__aligned_membufISt4pairIKS1_IiiEP1TEE7_M_addrEv(%"struct.__gnu_cxx::__aligned_membuf"* nonnull align 8 dereferenceable(16) %3) #2, !llfi_index !1203
  %5 = bitcast i8* %4 to %"struct.std::pair.0"*, !llfi_index !1204
  ret %"struct.std::pair.0"* %5, !llfi_index !1205
}

; Function Attrs: mustprogress noinline nounwind uwtable
define linkonce_odr dso_local i8* @_ZNK9__gnu_cxx16__aligned_membufISt4pairIKS1_IiiEP1TEE7_M_addrEv(%"struct.__gnu_cxx::__aligned_membuf"* nonnull align 8 dereferenceable(16) %0) #3 comdat align 2 {
  %2 = alloca %"struct.__gnu_cxx::__aligned_membuf"*, align 8, !llfi_index !1206
  store %"struct.__gnu_cxx::__aligned_membuf"* %0, %"struct.__gnu_cxx::__aligned_membuf"** %2, align 8, !llfi_index !1207
  %3 = load %"struct.__gnu_cxx::__aligned_membuf"*, %"struct.__gnu_cxx::__aligned_membuf"** %2, align 8, !llfi_index !1208
  %4 = getelementptr inbounds %"struct.__gnu_cxx::__aligned_membuf", %"struct.__gnu_cxx::__aligned_membuf"* %3, i32 0, i32 0, !llfi_index !1209
  %5 = bitcast [16 x i8]* %4 to i8*, !llfi_index !1210
  ret i8* %5, !llfi_index !1211
}

; Function Attrs: mustprogress noinline uwtable
define linkonce_odr dso_local %"struct.std::_Rb_tree_node"* @_ZNSt8_Rb_treeISt4pairIiiES0_IKS1_P1TESt10_Select1stIS5_ESt4lessIS1_ESaIS5_EE11_M_get_nodeEv(%"class.std::_Rb_tree"* nonnull align 8 dereferenceable(48) %0) #4 comdat align 2 {
  %2 = alloca %"class.std::_Rb_tree"*, align 8, !llfi_index !1212
  store %"class.std::_Rb_tree"* %0, %"class.std::_Rb_tree"** %2, align 8, !llfi_index !1213
  %3 = load %"class.std::_Rb_tree"*, %"class.std::_Rb_tree"** %2, align 8, !llfi_index !1214
  %4 = call nonnull align 1 dereferenceable(1) %"struct.std::less"* @_ZNSt8_Rb_treeISt4pairIiiES0_IKS1_P1TESt10_Select1stIS5_ESt4lessIS1_ESaIS5_EE21_M_get_Node_allocatorEv(%"class.std::_Rb_tree"* nonnull align 8 dereferenceable(48) %3) #2, !llfi_index !1215
  %5 = call %"struct.std::_Rb_tree_node"* @_ZNSt16allocator_traitsISaISt13_Rb_tree_nodeISt4pairIKS1_IiiEP1TEEEE8allocateERS8_m(%"struct.std::less"* nonnull align 1 dereferenceable(1) %4, i64 1), !llfi_index !1216
  ret %"struct.std::_Rb_tree_node"* %5, !llfi_index !1217
}

; Function Attrs: mustprogress noinline uwtable
define linkonce_odr dso_local void @_ZNSt8_Rb_treeISt4pairIiiES0_IKS1_P1TESt10_Select1stIS5_ESt4lessIS1_ESaIS5_EE17_M_construct_nodeIJRKSt21piecewise_construct_tSt5tupleIJOS1_EESG_IJEEEEEvPSt13_Rb_tree_nodeIS5_EDpOT_(%"class.std::_Rb_tree"* nonnull align 8 dereferenceable(48) %0, %"struct.std::_Rb_tree_node"* %1, %"struct.std::less"* nonnull align 1 dereferenceable(1) %2, %"class.std::tuple"* nonnull align 8 dereferenceable(8) %3, %"struct.std::less"* nonnull align 1 dereferenceable(1) %4) #4 comdat align 2 personality i8* bitcast (i32 (...)* @__gxx_personality_v0 to i8*) {
  %6 = alloca %"class.std::_Rb_tree"*, align 8, !llfi_index !1218
  %7 = alloca %"struct.std::_Rb_tree_node"*, align 8, !llfi_index !1219
  %8 = alloca %"struct.std::less"*, align 8, !llfi_index !1220
  %9 = alloca %"class.std::tuple"*, align 8, !llfi_index !1221
  %10 = alloca %"struct.std::less"*, align 8, !llfi_index !1222
  %11 = alloca i8*, align 8, !llfi_index !1223
  %12 = alloca i32, align 4, !llfi_index !1224
  store %"class.std::_Rb_tree"* %0, %"class.std::_Rb_tree"** %6, align 8, !llfi_index !1225
  store %"struct.std::_Rb_tree_node"* %1, %"struct.std::_Rb_tree_node"** %7, align 8, !llfi_index !1226
  store %"struct.std::less"* %2, %"struct.std::less"** %8, align 8, !llfi_index !1227
  store %"class.std::tuple"* %3, %"class.std::tuple"** %9, align 8, !llfi_index !1228
  store %"struct.std::less"* %4, %"struct.std::less"** %10, align 8, !llfi_index !1229
  %13 = load %"class.std::_Rb_tree"*, %"class.std::_Rb_tree"** %6, align 8, !llfi_index !1230
  %14 = load %"struct.std::_Rb_tree_node"*, %"struct.std::_Rb_tree_node"** %7, align 8, !llfi_index !1231
  %15 = bitcast %"struct.std::_Rb_tree_node"* %14 to i8*, !llfi_index !1232
  %16 = bitcast i8* %15 to %"struct.std::_Rb_tree_node"*, !llfi_index !1233
  %17 = call nonnull align 1 dereferenceable(1) %"struct.std::less"* @_ZNSt8_Rb_treeISt4pairIiiES0_IKS1_P1TESt10_Select1stIS5_ESt4lessIS1_ESaIS5_EE21_M_get_Node_allocatorEv(%"class.std::_Rb_tree"* nonnull align 8 dereferenceable(48) %13) #2, !llfi_index !1234
  %18 = load %"struct.std::_Rb_tree_node"*, %"struct.std::_Rb_tree_node"** %7, align 8, !llfi_index !1235
  %19 = call %"struct.std::pair.0"* @_ZNSt13_Rb_tree_nodeISt4pairIKS0_IiiEP1TEE9_M_valptrEv(%"struct.std::_Rb_tree_node"* nonnull align 8 dereferenceable(48) %18), !llfi_index !1236
  %20 = load %"struct.std::less"*, %"struct.std::less"** %8, align 8, !llfi_index !1237
  %21 = call nonnull align 1 dereferenceable(1) %"struct.std::less"* @_ZSt7forwardIRKSt21piecewise_construct_tEOT_RNSt16remove_referenceIS3_E4typeE(%"struct.std::less"* nonnull align 1 dereferenceable(1) %20) #2, !llfi_index !1238
  %22 = load %"class.std::tuple"*, %"class.std::tuple"** %9, align 8, !llfi_index !1239
  %23 = call nonnull align 8 dereferenceable(8) %"class.std::tuple"* @_ZSt7forwardISt5tupleIJOSt4pairIiiEEEEOT_RNSt16remove_referenceIS5_E4typeE(%"class.std::tuple"* nonnull align 8 dereferenceable(8) %22) #2, !llfi_index !1240
  %24 = load %"struct.std::less"*, %"struct.std::less"** %10, align 8, !llfi_index !1241
  %25 = call nonnull align 1 dereferenceable(1) %"struct.std::less"* @_ZSt7forwardISt5tupleIJEEEOT_RNSt16remove_referenceIS2_E4typeE(%"struct.std::less"* nonnull align 1 dereferenceable(1) %24) #2, !llfi_index !1242
  invoke void @_ZNSt16allocator_traitsISaISt13_Rb_tree_nodeISt4pairIKS1_IiiEP1TEEEE9constructIS6_JRKSt21piecewise_construct_tSt5tupleIJOS2_EESE_IJEEEEEvRS8_PT_DpOT0_(%"struct.std::less"* nonnull align 1 dereferenceable(1) %17, %"struct.std::pair.0"* %19, %"struct.std::less"* nonnull align 1 dereferenceable(1) %21, %"class.std::tuple"* nonnull align 8 dereferenceable(8) %23, %"struct.std::less"* nonnull align 1 dereferenceable(1) %25)
          to label %26 unwind label %27, !llfi_index !1243

26:                                               ; preds = %5
  br label %41, !llfi_index !1244

27:                                               ; preds = %5
  %28 = landingpad { i8*, i32 }
          catch i8* null, !llfi_index !1245
  %29 = extractvalue { i8*, i32 } %28, 0, !llfi_index !1246
  store i8* %29, i8** %11, align 8, !llfi_index !1247
  %30 = extractvalue { i8*, i32 } %28, 1, !llfi_index !1248
  store i32 %30, i32* %12, align 4, !llfi_index !1249
  br label %31, !llfi_index !1250

31:                                               ; preds = %27
  %32 = load i8*, i8** %11, align 8, !llfi_index !1251
  %33 = call i8* @__cxa_begin_catch(i8* %32) #2, !llfi_index !1252
  %34 = load %"struct.std::_Rb_tree_node"*, %"struct.std::_Rb_tree_node"** %7, align 8, !llfi_index !1253
  %35 = load %"struct.std::_Rb_tree_node"*, %"struct.std::_Rb_tree_node"** %7, align 8, !llfi_index !1254
  call void @_ZNSt8_Rb_treeISt4pairIiiES0_IKS1_P1TESt10_Select1stIS5_ESt4lessIS1_ESaIS5_EE11_M_put_nodeEPSt13_Rb_tree_nodeIS5_E(%"class.std::_Rb_tree"* nonnull align 8 dereferenceable(48) %13, %"struct.std::_Rb_tree_node"* %35) #2, !llfi_index !1255
  invoke void @__cxa_rethrow() #16
          to label %50 unwind label %36, !llfi_index !1256

36:                                               ; preds = %31
  %37 = landingpad { i8*, i32 }
          cleanup, !llfi_index !1257
  %38 = extractvalue { i8*, i32 } %37, 0, !llfi_index !1258
  store i8* %38, i8** %11, align 8, !llfi_index !1259
  %39 = extractvalue { i8*, i32 } %37, 1, !llfi_index !1260
  store i32 %39, i32* %12, align 4, !llfi_index !1261
  invoke void @__cxa_end_catch()
          to label %40 unwind label %47, !llfi_index !1262

40:                                               ; preds = %36
  br label %42, !llfi_index !1263

41:                                               ; preds = %26
  ret void, !llfi_index !1264

42:                                               ; preds = %40
  %43 = load i8*, i8** %11, align 8, !llfi_index !1265
  %44 = load i32, i32* %12, align 4, !llfi_index !1266
  %45 = insertvalue { i8*, i32 } undef, i8* %43, 0, !llfi_index !1267
  %46 = insertvalue { i8*, i32 } %45, i32 %44, 1, !llfi_index !1268
  resume { i8*, i32 } %46, !llfi_index !1269

47:                                               ; preds = %36
  %48 = landingpad { i8*, i32 }
          catch i8* null, !llfi_index !1270
  %49 = extractvalue { i8*, i32 } %48, 0, !llfi_index !1271
  call void @__clang_call_terminate(i8* %49) #15, !llfi_index !1272
  unreachable, !llfi_index !1273

50:                                               ; preds = %31
  unreachable, !llfi_index !1274
}

; Function Attrs: mustprogress noinline uwtable
define linkonce_odr dso_local void @_ZNSt16allocator_traitsISaISt13_Rb_tree_nodeISt4pairIKS1_IiiEP1TEEEE9constructIS6_JRKSt21piecewise_construct_tSt5tupleIJOS2_EESE_IJEEEEEvRS8_PT_DpOT0_(%"struct.std::less"* nonnull align 1 dereferenceable(1) %0, %"struct.std::pair.0"* %1, %"struct.std::less"* nonnull align 1 dereferenceable(1) %2, %"class.std::tuple"* nonnull align 8 dereferenceable(8) %3, %"struct.std::less"* nonnull align 1 dereferenceable(1) %4) #4 comdat align 2 {
  %6 = alloca %"struct.std::less"*, align 8, !llfi_index !1275
  %7 = alloca %"struct.std::pair.0"*, align 8, !llfi_index !1276
  %8 = alloca %"struct.std::less"*, align 8, !llfi_index !1277
  %9 = alloca %"class.std::tuple"*, align 8, !llfi_index !1278
  %10 = alloca %"struct.std::less"*, align 8, !llfi_index !1279
  store %"struct.std::less"* %0, %"struct.std::less"** %6, align 8, !llfi_index !1280
  store %"struct.std::pair.0"* %1, %"struct.std::pair.0"** %7, align 8, !llfi_index !1281
  store %"struct.std::less"* %2, %"struct.std::less"** %8, align 8, !llfi_index !1282
  store %"class.std::tuple"* %3, %"class.std::tuple"** %9, align 8, !llfi_index !1283
  store %"struct.std::less"* %4, %"struct.std::less"** %10, align 8, !llfi_index !1284
  %11 = load %"struct.std::less"*, %"struct.std::less"** %6, align 8, !llfi_index !1285
  %12 = bitcast %"struct.std::less"* %11 to %"struct.std::less"*, !llfi_index !1286
  %13 = load %"struct.std::pair.0"*, %"struct.std::pair.0"** %7, align 8, !llfi_index !1287
  %14 = load %"struct.std::less"*, %"struct.std::less"** %8, align 8, !llfi_index !1288
  %15 = call nonnull align 1 dereferenceable(1) %"struct.std::less"* @_ZSt7forwardIRKSt21piecewise_construct_tEOT_RNSt16remove_referenceIS3_E4typeE(%"struct.std::less"* nonnull align 1 dereferenceable(1) %14) #2, !llfi_index !1289
  %16 = load %"class.std::tuple"*, %"class.std::tuple"** %9, align 8, !llfi_index !1290
  %17 = call nonnull align 8 dereferenceable(8) %"class.std::tuple"* @_ZSt7forwardISt5tupleIJOSt4pairIiiEEEEOT_RNSt16remove_referenceIS5_E4typeE(%"class.std::tuple"* nonnull align 8 dereferenceable(8) %16) #2, !llfi_index !1291
  %18 = load %"struct.std::less"*, %"struct.std::less"** %10, align 8, !llfi_index !1292
  %19 = call nonnull align 1 dereferenceable(1) %"struct.std::less"* @_ZSt7forwardISt5tupleIJEEEOT_RNSt16remove_referenceIS2_E4typeE(%"struct.std::less"* nonnull align 1 dereferenceable(1) %18) #2, !llfi_index !1293
  call void @_ZN9__gnu_cxx13new_allocatorISt13_Rb_tree_nodeISt4pairIKS2_IiiEP1TEEE9constructIS7_JRKSt21piecewise_construct_tSt5tupleIJOS3_EESE_IJEEEEEvPT_DpOT0_(%"struct.std::less"* nonnull align 1 dereferenceable(1) %12, %"struct.std::pair.0"* %13, %"struct.std::less"* nonnull align 1 dereferenceable(1) %15, %"class.std::tuple"* nonnull align 8 dereferenceable(8) %17, %"struct.std::less"* nonnull align 1 dereferenceable(1) %19), !llfi_index !1294
  ret void, !llfi_index !1295
}

; Function Attrs: mustprogress noinline uwtable
define linkonce_odr dso_local void @_ZN9__gnu_cxx13new_allocatorISt13_Rb_tree_nodeISt4pairIKS2_IiiEP1TEEE9constructIS7_JRKSt21piecewise_construct_tSt5tupleIJOS3_EESE_IJEEEEEvPT_DpOT0_(%"struct.std::less"* nonnull align 1 dereferenceable(1) %0, %"struct.std::pair.0"* %1, %"struct.std::less"* nonnull align 1 dereferenceable(1) %2, %"class.std::tuple"* nonnull align 8 dereferenceable(8) %3, %"struct.std::less"* nonnull align 1 dereferenceable(1) %4) #4 comdat align 2 {
  %6 = alloca %"struct.std::less"*, align 8, !llfi_index !1296
  %7 = alloca %"struct.std::pair.0"*, align 8, !llfi_index !1297
  %8 = alloca %"struct.std::less"*, align 8, !llfi_index !1298
  %9 = alloca %"class.std::tuple"*, align 8, !llfi_index !1299
  %10 = alloca %"struct.std::less"*, align 8, !llfi_index !1300
  %11 = alloca %"struct.std::less", align 1, !llfi_index !1301
  %12 = alloca %"class.std::tuple", align 8, !llfi_index !1302
  %13 = alloca %"struct.std::less", align 1, !llfi_index !1303
  store %"struct.std::less"* %0, %"struct.std::less"** %6, align 8, !llfi_index !1304
  store %"struct.std::pair.0"* %1, %"struct.std::pair.0"** %7, align 8, !llfi_index !1305
  store %"struct.std::less"* %2, %"struct.std::less"** %8, align 8, !llfi_index !1306
  store %"class.std::tuple"* %3, %"class.std::tuple"** %9, align 8, !llfi_index !1307
  store %"struct.std::less"* %4, %"struct.std::less"** %10, align 8, !llfi_index !1308
  %14 = load %"struct.std::less"*, %"struct.std::less"** %6, align 8, !llfi_index !1309
  %15 = load %"struct.std::pair.0"*, %"struct.std::pair.0"** %7, align 8, !llfi_index !1310
  %16 = bitcast %"struct.std::pair.0"* %15 to i8*, !llfi_index !1311
  %17 = bitcast i8* %16 to %"struct.std::pair.0"*, !llfi_index !1312
  %18 = load %"struct.std::less"*, %"struct.std::less"** %8, align 8, !llfi_index !1313
  %19 = call nonnull align 1 dereferenceable(1) %"struct.std::less"* @_ZSt7forwardIRKSt21piecewise_construct_tEOT_RNSt16remove_referenceIS3_E4typeE(%"struct.std::less"* nonnull align 1 dereferenceable(1) %18) #2, !llfi_index !1314
  %20 = load %"class.std::tuple"*, %"class.std::tuple"** %9, align 8, !llfi_index !1315
  %21 = call nonnull align 8 dereferenceable(8) %"class.std::tuple"* @_ZSt7forwardISt5tupleIJOSt4pairIiiEEEEOT_RNSt16remove_referenceIS5_E4typeE(%"class.std::tuple"* nonnull align 8 dereferenceable(8) %20) #2, !llfi_index !1316
  call void @_ZNSt5tupleIJOSt4pairIiiEEEC2EOS3_(%"class.std::tuple"* nonnull align 8 dereferenceable(8) %12, %"class.std::tuple"* nonnull align 8 dereferenceable(8) %21) #2, !llfi_index !1317
  %22 = load %"struct.std::less"*, %"struct.std::less"** %10, align 8, !llfi_index !1318
  %23 = call nonnull align 1 dereferenceable(1) %"struct.std::less"* @_ZSt7forwardISt5tupleIJEEEOT_RNSt16remove_referenceIS2_E4typeE(%"struct.std::less"* nonnull align 1 dereferenceable(1) %22) #2, !llfi_index !1319
  call void @_ZNSt4pairIKS_IiiEP1TEC2IJOS0_EJEEESt21piecewise_construct_tSt5tupleIJDpT_EES8_IJDpT0_EE(%"struct.std::pair.0"* nonnull align 8 dereferenceable(16) %17, %"class.std::tuple"* %12), !llfi_index !1320
  ret void, !llfi_index !1321
}

; Function Attrs: noinline nounwind uwtable
define linkonce_odr dso_local void @_ZNSt5tupleIJOSt4pairIiiEEEC2EOS3_(%"class.std::tuple"* nonnull align 8 dereferenceable(8) %0, %"class.std::tuple"* nonnull align 8 dereferenceable(8) %1) unnamed_addr #1 comdat align 2 {
  %3 = alloca %"class.std::tuple"*, align 8, !llfi_index !1322
  %4 = alloca %"class.std::tuple"*, align 8, !llfi_index !1323
  store %"class.std::tuple"* %0, %"class.std::tuple"** %3, align 8, !llfi_index !1324
  store %"class.std::tuple"* %1, %"class.std::tuple"** %4, align 8, !llfi_index !1325
  %5 = load %"class.std::tuple"*, %"class.std::tuple"** %3, align 8, !llfi_index !1326
  %6 = bitcast %"class.std::tuple"* %5 to %"struct.std::_Tuple_impl"*, !llfi_index !1327
  %7 = load %"class.std::tuple"*, %"class.std::tuple"** %4, align 8, !llfi_index !1328
  %8 = bitcast %"class.std::tuple"* %7 to %"struct.std::_Tuple_impl"*, !llfi_index !1329
  call void @_ZNSt11_Tuple_implILm0EJOSt4pairIiiEEEC2EOS3_(%"struct.std::_Tuple_impl"* nonnull align 8 dereferenceable(8) %6, %"struct.std::_Tuple_impl"* nonnull align 8 dereferenceable(8) %8) #2, !llfi_index !1330
  ret void, !llfi_index !1331
}

; Function Attrs: noinline uwtable
define linkonce_odr dso_local void @_ZNSt4pairIKS_IiiEP1TEC2IJOS0_EJEEESt21piecewise_construct_tSt5tupleIJDpT_EES8_IJDpT0_EE(%"struct.std::pair.0"* nonnull align 8 dereferenceable(16) %0, %"class.std::tuple"* %1) unnamed_addr #0 comdat align 2 {
  %3 = alloca %"struct.std::less", align 1, !llfi_index !1332
  %4 = alloca %"struct.std::less", align 1, !llfi_index !1333
  %5 = alloca %"struct.std::pair.0"*, align 8, !llfi_index !1334
  %6 = alloca %"struct.std::less", align 1, !llfi_index !1335
  %7 = alloca %"struct.std::less", align 1, !llfi_index !1336
  store %"struct.std::pair.0"* %0, %"struct.std::pair.0"** %5, align 8, !llfi_index !1337
  %8 = load %"struct.std::pair.0"*, %"struct.std::pair.0"** %5, align 8, !llfi_index !1338
  call void @_ZNSt4pairIKS_IiiEP1TEC2IJOS0_EJLm0EEJEJEEERSt5tupleIJDpT_EERS7_IJDpT1_EESt12_Index_tupleIJXspT0_EEESG_IJXspT2_EEE(%"struct.std::pair.0"* nonnull align 8 dereferenceable(16) %8, %"class.std::tuple"* nonnull align 8 dereferenceable(8) %1, %"struct.std::less"* nonnull align 1 dereferenceable(1) %4), !llfi_index !1339
  ret void, !llfi_index !1340
}

; Function Attrs: noinline nounwind uwtable
define linkonce_odr dso_local void @_ZNSt4pairIKS_IiiEP1TEC2IJOS0_EJLm0EEJEJEEERSt5tupleIJDpT_EERS7_IJDpT1_EESt12_Index_tupleIJXspT0_EEESG_IJXspT2_EEE(%"struct.std::pair.0"* nonnull align 8 dereferenceable(16) %0, %"class.std::tuple"* nonnull align 8 dereferenceable(8) %1, %"struct.std::less"* nonnull align 1 dereferenceable(1) %2) unnamed_addr #1 comdat align 2 {
  %4 = alloca %"struct.std::less", align 1, !llfi_index !1341
  %5 = alloca %"struct.std::less", align 1, !llfi_index !1342
  %6 = alloca %"struct.std::pair.0"*, align 8, !llfi_index !1343
  %7 = alloca %"class.std::tuple"*, align 8, !llfi_index !1344
  %8 = alloca %"struct.std::less"*, align 8, !llfi_index !1345
  store %"struct.std::pair.0"* %0, %"struct.std::pair.0"** %6, align 8, !llfi_index !1346
  store %"class.std::tuple"* %1, %"class.std::tuple"** %7, align 8, !llfi_index !1347
  store %"struct.std::less"* %2, %"struct.std::less"** %8, align 8, !llfi_index !1348
  %9 = load %"struct.std::pair.0"*, %"struct.std::pair.0"** %6, align 8, !llfi_index !1349
  %10 = bitcast %"struct.std::pair.0"* %9 to %"struct.std::less"*, !llfi_index !1350
  %11 = getelementptr inbounds %"struct.std::pair.0", %"struct.std::pair.0"* %9, i32 0, i32 0, !llfi_index !1351
  %12 = load %"class.std::tuple"*, %"class.std::tuple"** %7, align 8, !llfi_index !1352
  %13 = call nonnull align 4 dereferenceable(8) %"struct.std::pair"* @_ZSt3getILm0EJOSt4pairIiiEEERNSt13tuple_elementIXT_ESt5tupleIJDpT0_EEE4typeERS7_(%"class.std::tuple"* nonnull align 8 dereferenceable(8) %12) #2, !llfi_index !1353
  %14 = call nonnull align 4 dereferenceable(8) %"struct.std::pair"* @_ZSt7forwardIOSt4pairIiiEEOT_RNSt16remove_referenceIS3_E4typeE(%"struct.std::pair"* nonnull align 4 dereferenceable(8) %13) #2, !llfi_index !1354
  %15 = bitcast %"struct.std::pair"* %11 to i8*, !llfi_index !1355
  %16 = bitcast %"struct.std::pair"* %14 to i8*, !llfi_index !1356
  call void @llvm.memcpy.p0i8.p0i8.i64(i8* align 8 %15, i8* align 4 %16, i64 8, i1 false), !llfi_index !1357
  %17 = getelementptr inbounds %"struct.std::pair.0", %"struct.std::pair.0"* %9, i32 0, i32 1, !llfi_index !1358
  store %struct.T* null, %struct.T** %17, align 8, !llfi_index !1359
  ret void, !llfi_index !1360
}

; Function Attrs: mustprogress noinline nounwind uwtable
define linkonce_odr dso_local nonnull align 4 dereferenceable(8) %"struct.std::pair"* @_ZSt3getILm0EJOSt4pairIiiEEERNSt13tuple_elementIXT_ESt5tupleIJDpT0_EEE4typeERS7_(%"class.std::tuple"* nonnull align 8 dereferenceable(8) %0) #3 comdat {
  %2 = alloca %"class.std::tuple"*, align 8, !llfi_index !1361
  store %"class.std::tuple"* %0, %"class.std::tuple"** %2, align 8, !llfi_index !1362
  %3 = load %"class.std::tuple"*, %"class.std::tuple"** %2, align 8, !llfi_index !1363
  %4 = bitcast %"class.std::tuple"* %3 to %"struct.std::_Tuple_impl"*, !llfi_index !1364
  %5 = call nonnull align 4 dereferenceable(8) %"struct.std::pair"* @_ZSt12__get_helperILm0EOSt4pairIiiEJEERT0_RSt11_Tuple_implIXT_EJS3_DpT1_EE(%"struct.std::_Tuple_impl"* nonnull align 8 dereferenceable(8) %4) #2, !llfi_index !1365
  ret %"struct.std::pair"* %5, !llfi_index !1366
}

; Function Attrs: mustprogress noinline nounwind uwtable
define linkonce_odr dso_local nonnull align 4 dereferenceable(8) %"struct.std::pair"* @_ZSt7forwardIOSt4pairIiiEEOT_RNSt16remove_referenceIS3_E4typeE(%"struct.std::pair"* nonnull align 4 dereferenceable(8) %0) #3 comdat {
  %2 = alloca %"struct.std::pair"*, align 8, !llfi_index !1367
  store %"struct.std::pair"* %0, %"struct.std::pair"** %2, align 8, !llfi_index !1368
  %3 = load %"struct.std::pair"*, %"struct.std::pair"** %2, align 8, !llfi_index !1369
  ret %"struct.std::pair"* %3, !llfi_index !1370
}

; Function Attrs: mustprogress noinline nounwind uwtable
define linkonce_odr dso_local nonnull align 4 dereferenceable(8) %"struct.std::pair"* @_ZSt12__get_helperILm0EOSt4pairIiiEJEERT0_RSt11_Tuple_implIXT_EJS3_DpT1_EE(%"struct.std::_Tuple_impl"* nonnull align 8 dereferenceable(8) %0) #3 comdat {
  %2 = alloca %"struct.std::_Tuple_impl"*, align 8, !llfi_index !1371
  store %"struct.std::_Tuple_impl"* %0, %"struct.std::_Tuple_impl"** %2, align 8, !llfi_index !1372
  %3 = load %"struct.std::_Tuple_impl"*, %"struct.std::_Tuple_impl"** %2, align 8, !llfi_index !1373
  %4 = call nonnull align 4 dereferenceable(8) %"struct.std::pair"* @_ZNSt11_Tuple_implILm0EJOSt4pairIiiEEE7_M_headERS3_(%"struct.std::_Tuple_impl"* nonnull align 8 dereferenceable(8) %3) #2, !llfi_index !1374
  ret %"struct.std::pair"* %4, !llfi_index !1375
}

; Function Attrs: mustprogress noinline nounwind uwtable
define linkonce_odr dso_local nonnull align 4 dereferenceable(8) %"struct.std::pair"* @_ZNSt11_Tuple_implILm0EJOSt4pairIiiEEE7_M_headERS3_(%"struct.std::_Tuple_impl"* nonnull align 8 dereferenceable(8) %0) #3 comdat align 2 {
  %2 = alloca %"struct.std::_Tuple_impl"*, align 8, !llfi_index !1376
  store %"struct.std::_Tuple_impl"* %0, %"struct.std::_Tuple_impl"** %2, align 8, !llfi_index !1377
  %3 = load %"struct.std::_Tuple_impl"*, %"struct.std::_Tuple_impl"** %2, align 8, !llfi_index !1378
  %4 = bitcast %"struct.std::_Tuple_impl"* %3 to %"struct.std::_Head_base"*, !llfi_index !1379
  %5 = call nonnull align 4 dereferenceable(8) %"struct.std::pair"* @_ZNSt10_Head_baseILm0EOSt4pairIiiELb0EE7_M_headERS3_(%"struct.std::_Head_base"* nonnull align 8 dereferenceable(8) %4) #2, !llfi_index !1380
  ret %"struct.std::pair"* %5, !llfi_index !1381
}

; Function Attrs: mustprogress noinline nounwind uwtable
define linkonce_odr dso_local nonnull align 4 dereferenceable(8) %"struct.std::pair"* @_ZNSt10_Head_baseILm0EOSt4pairIiiELb0EE7_M_headERS3_(%"struct.std::_Head_base"* nonnull align 8 dereferenceable(8) %0) #3 comdat align 2 {
  %2 = alloca %"struct.std::_Head_base"*, align 8, !llfi_index !1382
  store %"struct.std::_Head_base"* %0, %"struct.std::_Head_base"** %2, align 8, !llfi_index !1383
  %3 = load %"struct.std::_Head_base"*, %"struct.std::_Head_base"** %2, align 8, !llfi_index !1384
  %4 = getelementptr inbounds %"struct.std::_Head_base", %"struct.std::_Head_base"* %3, i32 0, i32 0, !llfi_index !1385
  %5 = load %"struct.std::pair"*, %"struct.std::pair"** %4, align 8, !llfi_index !1386
  ret %"struct.std::pair"* %5, !llfi_index !1387
}

; Function Attrs: noinline nounwind uwtable
define linkonce_odr dso_local void @_ZNSt11_Tuple_implILm0EJOSt4pairIiiEEEC2EOS3_(%"struct.std::_Tuple_impl"* nonnull align 8 dereferenceable(8) %0, %"struct.std::_Tuple_impl"* nonnull align 8 dereferenceable(8) %1) unnamed_addr #1 comdat align 2 personality i8* bitcast (i32 (...)* @__gxx_personality_v0 to i8*) {
  %3 = alloca %"struct.std::_Tuple_impl"*, align 8, !llfi_index !1388
  %4 = alloca %"struct.std::_Tuple_impl"*, align 8, !llfi_index !1389
  store %"struct.std::_Tuple_impl"* %0, %"struct.std::_Tuple_impl"** %3, align 8, !llfi_index !1390
  store %"struct.std::_Tuple_impl"* %1, %"struct.std::_Tuple_impl"** %4, align 8, !llfi_index !1391
  %5 = load %"struct.std::_Tuple_impl"*, %"struct.std::_Tuple_impl"** %3, align 8, !llfi_index !1392
  %6 = bitcast %"struct.std::_Tuple_impl"* %5 to %"struct.std::_Head_base"*, !llfi_index !1393
  %7 = load %"struct.std::_Tuple_impl"*, %"struct.std::_Tuple_impl"** %4, align 8, !llfi_index !1394
  %8 = call nonnull align 4 dereferenceable(8) %"struct.std::pair"* @_ZNSt11_Tuple_implILm0EJOSt4pairIiiEEE7_M_headERS3_(%"struct.std::_Tuple_impl"* nonnull align 8 dereferenceable(8) %7) #2, !llfi_index !1395
  %9 = call nonnull align 4 dereferenceable(8) %"struct.std::pair"* @_ZSt7forwardIOSt4pairIiiEEOT_RNSt16remove_referenceIS3_E4typeE(%"struct.std::pair"* nonnull align 4 dereferenceable(8) %8) #2, !llfi_index !1396
  invoke void @_ZNSt10_Head_baseILm0EOSt4pairIiiELb0EEC2IS1_EEOT_(%"struct.std::_Head_base"* nonnull align 8 dereferenceable(8) %6, %"struct.std::pair"* nonnull align 4 dereferenceable(8) %9)
          to label %10 unwind label %11, !llfi_index !1397

10:                                               ; preds = %2
  ret void, !llfi_index !1398

11:                                               ; preds = %2
  %12 = landingpad { i8*, i32 }
          catch i8* null, !llfi_index !1399
  %13 = extractvalue { i8*, i32 } %12, 0, !llfi_index !1400
  call void @__clang_call_terminate(i8* %13) #15, !llfi_index !1401
  unreachable, !llfi_index !1402
}

; Function Attrs: noinline nounwind uwtable
define linkonce_odr dso_local void @_ZNSt10_Head_baseILm0EOSt4pairIiiELb0EEC2IS1_EEOT_(%"struct.std::_Head_base"* nonnull align 8 dereferenceable(8) %0, %"struct.std::pair"* nonnull align 4 dereferenceable(8) %1) unnamed_addr #1 comdat align 2 {
  %3 = alloca %"struct.std::_Head_base"*, align 8, !llfi_index !1403
  %4 = alloca %"struct.std::pair"*, align 8, !llfi_index !1404
  store %"struct.std::_Head_base"* %0, %"struct.std::_Head_base"** %3, align 8, !llfi_index !1405
  store %"struct.std::pair"* %1, %"struct.std::pair"** %4, align 8, !llfi_index !1406
  %5 = load %"struct.std::_Head_base"*, %"struct.std::_Head_base"** %3, align 8, !llfi_index !1407
  %6 = getelementptr inbounds %"struct.std::_Head_base", %"struct.std::_Head_base"* %5, i32 0, i32 0, !llfi_index !1408
  %7 = load %"struct.std::pair"*, %"struct.std::pair"** %4, align 8, !llfi_index !1409
  %8 = call nonnull align 4 dereferenceable(8) %"struct.std::pair"* @_ZSt7forwardISt4pairIiiEEOT_RNSt16remove_referenceIS2_E4typeE(%"struct.std::pair"* nonnull align 4 dereferenceable(8) %7) #2, !llfi_index !1410
  store %"struct.std::pair"* %8, %"struct.std::pair"** %6, align 8, !llfi_index !1411
  ret void, !llfi_index !1412
}

; Function Attrs: mustprogress noinline nounwind uwtable
define linkonce_odr dso_local nonnull align 4 dereferenceable(8) %"struct.std::pair"* @_ZSt7forwardISt4pairIiiEEOT_RNSt16remove_referenceIS2_E4typeE(%"struct.std::pair"* nonnull align 4 dereferenceable(8) %0) #3 comdat {
  %2 = alloca %"struct.std::pair"*, align 8, !llfi_index !1413
  store %"struct.std::pair"* %0, %"struct.std::pair"** %2, align 8, !llfi_index !1414
  %3 = load %"struct.std::pair"*, %"struct.std::pair"** %2, align 8, !llfi_index !1415
  ret %"struct.std::pair"* %3, !llfi_index !1416
}

; Function Attrs: mustprogress noinline uwtable
define linkonce_odr dso_local %"struct.std::_Rb_tree_node"* @_ZNSt16allocator_traitsISaISt13_Rb_tree_nodeISt4pairIKS1_IiiEP1TEEEE8allocateERS8_m(%"struct.std::less"* nonnull align 1 dereferenceable(1) %0, i64 %1) #4 comdat align 2 {
  %3 = alloca %"struct.std::less"*, align 8, !llfi_index !1417
  %4 = alloca i64, align 8, !llfi_index !1418
  store %"struct.std::less"* %0, %"struct.std::less"** %3, align 8, !llfi_index !1419
  store i64 %1, i64* %4, align 8, !llfi_index !1420
  %5 = load %"struct.std::less"*, %"struct.std::less"** %3, align 8, !llfi_index !1421
  %6 = bitcast %"struct.std::less"* %5 to %"struct.std::less"*, !llfi_index !1422
  %7 = load i64, i64* %4, align 8, !llfi_index !1423
  %8 = call %"struct.std::_Rb_tree_node"* @_ZN9__gnu_cxx13new_allocatorISt13_Rb_tree_nodeISt4pairIKS2_IiiEP1TEEE8allocateEmPKv(%"struct.std::less"* nonnull align 1 dereferenceable(1) %6, i64 %7, i8* null), !llfi_index !1424
  ret %"struct.std::_Rb_tree_node"* %8, !llfi_index !1425
}

; Function Attrs: mustprogress noinline uwtable
define linkonce_odr dso_local %"struct.std::_Rb_tree_node"* @_ZN9__gnu_cxx13new_allocatorISt13_Rb_tree_nodeISt4pairIKS2_IiiEP1TEEE8allocateEmPKv(%"struct.std::less"* nonnull align 1 dereferenceable(1) %0, i64 %1, i8* %2) #4 comdat align 2 {
  %4 = alloca %"struct.std::less"*, align 8, !llfi_index !1426
  %5 = alloca i64, align 8, !llfi_index !1427
  %6 = alloca i8*, align 8, !llfi_index !1428
  store %"struct.std::less"* %0, %"struct.std::less"** %4, align 8, !llfi_index !1429
  store i64 %1, i64* %5, align 8, !llfi_index !1430
  store i8* %2, i8** %6, align 8, !llfi_index !1431
  %7 = load %"struct.std::less"*, %"struct.std::less"** %4, align 8, !llfi_index !1432
  %8 = load i64, i64* %5, align 8, !llfi_index !1433
  %9 = call i64 @_ZNK9__gnu_cxx13new_allocatorISt13_Rb_tree_nodeISt4pairIKS2_IiiEP1TEEE8max_sizeEv(%"struct.std::less"* nonnull align 1 dereferenceable(1) %7) #2, !llfi_index !1434
  %10 = icmp ugt i64 %8, %9, !llfi_index !1435
  br i1 %10, label %11, label %12, !llfi_index !1436

11:                                               ; preds = %3
  call void @_ZSt17__throw_bad_allocv() #16, !llfi_index !1437
  unreachable, !llfi_index !1438

12:                                               ; preds = %3
  %13 = load i64, i64* %5, align 8, !llfi_index !1439
  %14 = mul i64 %13, 48, !llfi_index !1440
  %15 = call noalias nonnull i8* @_Znwm(i64 %14) #18, !llfi_index !1441
  %16 = bitcast i8* %15 to %"struct.std::_Rb_tree_node"*, !llfi_index !1442
  ret %"struct.std::_Rb_tree_node"* %16, !llfi_index !1443
}

; Function Attrs: mustprogress noinline nounwind uwtable
define linkonce_odr dso_local i64 @_ZNK9__gnu_cxx13new_allocatorISt13_Rb_tree_nodeISt4pairIKS2_IiiEP1TEEE8max_sizeEv(%"struct.std::less"* nonnull align 1 dereferenceable(1) %0) #3 comdat align 2 {
  %2 = alloca %"struct.std::less"*, align 8, !llfi_index !1444
  store %"struct.std::less"* %0, %"struct.std::less"** %2, align 8, !llfi_index !1445
  %3 = load %"struct.std::less"*, %"struct.std::less"** %2, align 8, !llfi_index !1446
  ret i64 192153584101141162, !llfi_index !1447
}

; Function Attrs: noreturn
declare dso_local void @_ZSt17__throw_bad_allocv() #12

; Function Attrs: nobuiltin allocsize(0)
declare dso_local nonnull i8* @_Znwm(i64) #13

; Function Attrs: noinline uwtable
define linkonce_odr dso_local void @_ZNSt5tupleIJOSt4pairIiiEEEC2IJS1_ELb1EEEDpOT_(%"class.std::tuple"* nonnull align 8 dereferenceable(8) %0, %"struct.std::pair"* nonnull align 4 dereferenceable(8) %1) unnamed_addr #0 comdat align 2 {
  %3 = alloca %"class.std::tuple"*, align 8, !llfi_index !1448
  %4 = alloca %"struct.std::pair"*, align 8, !llfi_index !1449
  store %"class.std::tuple"* %0, %"class.std::tuple"** %3, align 8, !llfi_index !1450
  store %"struct.std::pair"* %1, %"struct.std::pair"** %4, align 8, !llfi_index !1451
  %5 = load %"class.std::tuple"*, %"class.std::tuple"** %3, align 8, !llfi_index !1452
  %6 = bitcast %"class.std::tuple"* %5 to %"struct.std::_Tuple_impl"*, !llfi_index !1453
  %7 = load %"struct.std::pair"*, %"struct.std::pair"** %4, align 8, !llfi_index !1454
  %8 = call nonnull align 4 dereferenceable(8) %"struct.std::pair"* @_ZSt7forwardISt4pairIiiEEOT_RNSt16remove_referenceIS2_E4typeE(%"struct.std::pair"* nonnull align 4 dereferenceable(8) %7) #2, !llfi_index !1455
  call void @_ZNSt11_Tuple_implILm0EJOSt4pairIiiEEEC2IS1_EEOT_(%"struct.std::_Tuple_impl"* nonnull align 8 dereferenceable(8) %6, %"struct.std::pair"* nonnull align 4 dereferenceable(8) %8), !llfi_index !1456
  ret void, !llfi_index !1457
}

; Function Attrs: noinline nounwind uwtable
define linkonce_odr dso_local void @_ZNSt11_Tuple_implILm0EJOSt4pairIiiEEEC2IS1_EEOT_(%"struct.std::_Tuple_impl"* nonnull align 8 dereferenceable(8) %0, %"struct.std::pair"* nonnull align 4 dereferenceable(8) %1) unnamed_addr #1 comdat align 2 {
  %3 = alloca %"struct.std::_Tuple_impl"*, align 8, !llfi_index !1458
  %4 = alloca %"struct.std::pair"*, align 8, !llfi_index !1459
  store %"struct.std::_Tuple_impl"* %0, %"struct.std::_Tuple_impl"** %3, align 8, !llfi_index !1460
  store %"struct.std::pair"* %1, %"struct.std::pair"** %4, align 8, !llfi_index !1461
  %5 = load %"struct.std::_Tuple_impl"*, %"struct.std::_Tuple_impl"** %3, align 8, !llfi_index !1462
  %6 = bitcast %"struct.std::_Tuple_impl"* %5 to %"struct.std::_Head_base"*, !llfi_index !1463
  %7 = load %"struct.std::pair"*, %"struct.std::pair"** %4, align 8, !llfi_index !1464
  %8 = call nonnull align 4 dereferenceable(8) %"struct.std::pair"* @_ZSt7forwardISt4pairIiiEEOT_RNSt16remove_referenceIS2_E4typeE(%"struct.std::pair"* nonnull align 4 dereferenceable(8) %7) #2, !llfi_index !1465
  call void @_ZNSt10_Head_baseILm0EOSt4pairIiiELb0EEC2IS1_EEOT_(%"struct.std::_Head_base"* nonnull align 8 dereferenceable(8) %6, %"struct.std::pair"* nonnull align 4 dereferenceable(8) %8), !llfi_index !1466
  ret void, !llfi_index !1467
}

; Function Attrs: mustprogress noinline nounwind uwtable
define linkonce_odr dso_local zeroext i1 @_ZStltIiiEbRKSt4pairIT_T0_ES5_(%"struct.std::pair"* nonnull align 4 dereferenceable(8) %0, %"struct.std::pair"* nonnull align 4 dereferenceable(8) %1) #3 comdat {
  %3 = alloca %"struct.std::pair"*, align 8, !llfi_index !1468
  %4 = alloca %"struct.std::pair"*, align 8, !llfi_index !1469
  store %"struct.std::pair"* %0, %"struct.std::pair"** %3, align 8, !llfi_index !1470
  store %"struct.std::pair"* %1, %"struct.std::pair"** %4, align 8, !llfi_index !1471
  %5 = load %"struct.std::pair"*, %"struct.std::pair"** %3, align 8, !llfi_index !1472
  %6 = getelementptr inbounds %"struct.std::pair", %"struct.std::pair"* %5, i32 0, i32 0, !llfi_index !1473
  %7 = load i32, i32* %6, align 4, !llfi_index !1474
  %8 = load %"struct.std::pair"*, %"struct.std::pair"** %4, align 8, !llfi_index !1475
  %9 = getelementptr inbounds %"struct.std::pair", %"struct.std::pair"* %8, i32 0, i32 0, !llfi_index !1476
  %10 = load i32, i32* %9, align 4, !llfi_index !1477
  %11 = icmp slt i32 %7, %10, !llfi_index !1478
  br i1 %11, label %30, label %12, !llfi_index !1479

12:                                               ; preds = %2
  %13 = load %"struct.std::pair"*, %"struct.std::pair"** %4, align 8, !llfi_index !1480
  %14 = getelementptr inbounds %"struct.std::pair", %"struct.std::pair"* %13, i32 0, i32 0, !llfi_index !1481
  %15 = load i32, i32* %14, align 4, !llfi_index !1482
  %16 = load %"struct.std::pair"*, %"struct.std::pair"** %3, align 8, !llfi_index !1483
  %17 = getelementptr inbounds %"struct.std::pair", %"struct.std::pair"* %16, i32 0, i32 0, !llfi_index !1484
  %18 = load i32, i32* %17, align 4, !llfi_index !1485
  %19 = icmp slt i32 %15, %18, !llfi_index !1486
  br i1 %19, label %28, label %20, !llfi_index !1487

20:                                               ; preds = %12
  %21 = load %"struct.std::pair"*, %"struct.std::pair"** %3, align 8, !llfi_index !1488
  %22 = getelementptr inbounds %"struct.std::pair", %"struct.std::pair"* %21, i32 0, i32 1, !llfi_index !1489
  %23 = load i32, i32* %22, align 4, !llfi_index !1490
  %24 = load %"struct.std::pair"*, %"struct.std::pair"** %4, align 8, !llfi_index !1491
  %25 = getelementptr inbounds %"struct.std::pair", %"struct.std::pair"* %24, i32 0, i32 1, !llfi_index !1492
  %26 = load i32, i32* %25, align 4, !llfi_index !1493
  %27 = icmp slt i32 %23, %26, !llfi_index !1494
  br label %28, !llfi_index !1495

28:                                               ; preds = %20, %12
  %29 = phi i1 [ false, %12 ], [ %27, %20 ], !llfi_index !1496
  br label %30, !llfi_index !1497

30:                                               ; preds = %28, %2
  %31 = phi i1 [ true, %2 ], [ %29, %28 ], !llfi_index !1498
  ret i1 %31, !llfi_index !1499
}

; Function Attrs: mustprogress noinline nounwind uwtable
define linkonce_odr dso_local void @_ZNKSt8_Rb_treeISt4pairIiiES0_IKS1_P1TESt10_Select1stIS5_ESt4lessIS1_ESaIS5_EE8key_compEv(%"class.std::_Rb_tree"* nonnull align 8 dereferenceable(48) %0) #3 comdat align 2 {
  %2 = alloca %"class.std::_Rb_tree"*, align 8, !llfi_index !1500
  store %"class.std::_Rb_tree"* %0, %"class.std::_Rb_tree"** %2, align 8, !llfi_index !1501
  %3 = load %"class.std::_Rb_tree"*, %"class.std::_Rb_tree"** %2, align 8, !llfi_index !1502
  %4 = getelementptr inbounds %"class.std::_Rb_tree", %"class.std::_Rb_tree"* %3, i32 0, i32 0, !llfi_index !1503
  %5 = bitcast %"struct.std::_Rb_tree<std::pair<int, int>, std::pair<const std::pair<int, int>, T *>, std::_Select1st<std::pair<const std::pair<int, int>, T *>>, std::less<std::pair<int, int>>>::_Rb_tree_impl"* %4 to %"struct.std::_Rb_tree_key_compare"*, !llfi_index !1504
  %6 = getelementptr inbounds %"struct.std::_Rb_tree_key_compare", %"struct.std::_Rb_tree_key_compare"* %5, i32 0, i32 0, !llfi_index !1505
  ret void, !llfi_index !1506
}

; Function Attrs: mustprogress noinline nounwind uwtable
define linkonce_odr dso_local %"struct.std::_Rb_tree_node_base"* @_ZNSt8_Rb_treeISt4pairIiiES0_IKS1_P1TESt10_Select1stIS5_ESt4lessIS1_ESaIS5_EE3endEv(%"class.std::_Rb_tree"* nonnull align 8 dereferenceable(48) %0) #3 comdat align 2 {
  %2 = alloca %"struct.std::_Rb_tree_iterator", align 8, !llfi_index !1507
  %3 = alloca %"class.std::_Rb_tree"*, align 8, !llfi_index !1508
  store %"class.std::_Rb_tree"* %0, %"class.std::_Rb_tree"** %3, align 8, !llfi_index !1509
  %4 = load %"class.std::_Rb_tree"*, %"class.std::_Rb_tree"** %3, align 8, !llfi_index !1510
  %5 = getelementptr inbounds %"class.std::_Rb_tree", %"class.std::_Rb_tree"* %4, i32 0, i32 0, !llfi_index !1511
  %6 = bitcast %"struct.std::_Rb_tree<std::pair<int, int>, std::pair<const std::pair<int, int>, T *>, std::_Select1st<std::pair<const std::pair<int, int>, T *>>, std::less<std::pair<int, int>>>::_Rb_tree_impl"* %5 to i8*, !llfi_index !1512
  %7 = getelementptr inbounds i8, i8* %6, i64 8, !llfi_index !1513
  %8 = bitcast i8* %7 to %"struct.std::_Rb_tree_header"*, !llfi_index !1514
  %9 = getelementptr inbounds %"struct.std::_Rb_tree_header", %"struct.std::_Rb_tree_header"* %8, i32 0, i32 0, !llfi_index !1515
  call void @_ZNSt17_Rb_tree_iteratorISt4pairIKS0_IiiEP1TEEC2EPSt18_Rb_tree_node_base(%"struct.std::_Rb_tree_iterator"* nonnull align 8 dereferenceable(8) %2, %"struct.std::_Rb_tree_node_base"* %9) #2, !llfi_index !1516
  %10 = getelementptr inbounds %"struct.std::_Rb_tree_iterator", %"struct.std::_Rb_tree_iterator"* %2, i32 0, i32 0, !llfi_index !1517
  %11 = load %"struct.std::_Rb_tree_node_base"*, %"struct.std::_Rb_tree_node_base"** %10, align 8, !llfi_index !1518
  ret %"struct.std::_Rb_tree_node_base"* %11, !llfi_index !1519
}

; Function Attrs: mustprogress noinline uwtable
define linkonce_odr dso_local %"struct.std::_Rb_tree_node_base"* @_ZNSt8_Rb_treeISt4pairIiiES0_IKS1_P1TESt10_Select1stIS5_ESt4lessIS1_ESaIS5_EE11lower_boundERS2_(%"class.std::_Rb_tree"* nonnull align 8 dereferenceable(48) %0, %"struct.std::pair"* nonnull align 4 dereferenceable(8) %1) #4 comdat align 2 {
  %3 = alloca %"struct.std::_Rb_tree_iterator", align 8, !llfi_index !1520
  %4 = alloca %"class.std::_Rb_tree"*, align 8, !llfi_index !1521
  %5 = alloca %"struct.std::pair"*, align 8, !llfi_index !1522
  store %"class.std::_Rb_tree"* %0, %"class.std::_Rb_tree"** %4, align 8, !llfi_index !1523
  store %"struct.std::pair"* %1, %"struct.std::pair"** %5, align 8, !llfi_index !1524
  %6 = load %"class.std::_Rb_tree"*, %"class.std::_Rb_tree"** %4, align 8, !llfi_index !1525
  %7 = call %"struct.std::_Rb_tree_node"* @_ZNSt8_Rb_treeISt4pairIiiES0_IKS1_P1TESt10_Select1stIS5_ESt4lessIS1_ESaIS5_EE8_M_beginEv(%"class.std::_Rb_tree"* nonnull align 8 dereferenceable(48) %6) #2, !llfi_index !1526
  %8 = call %"struct.std::_Rb_tree_node_base"* @_ZNSt8_Rb_treeISt4pairIiiES0_IKS1_P1TESt10_Select1stIS5_ESt4lessIS1_ESaIS5_EE6_M_endEv(%"class.std::_Rb_tree"* nonnull align 8 dereferenceable(48) %6) #2, !llfi_index !1527
  %9 = load %"struct.std::pair"*, %"struct.std::pair"** %5, align 8, !llfi_index !1528
  %10 = call %"struct.std::_Rb_tree_node_base"* @_ZNSt8_Rb_treeISt4pairIiiES0_IKS1_P1TESt10_Select1stIS5_ESt4lessIS1_ESaIS5_EE14_M_lower_boundEPSt13_Rb_tree_nodeIS5_EPSt18_Rb_tree_node_baseRS2_(%"class.std::_Rb_tree"* nonnull align 8 dereferenceable(48) %6, %"struct.std::_Rb_tree_node"* %7, %"struct.std::_Rb_tree_node_base"* %8, %"struct.std::pair"* nonnull align 4 dereferenceable(8) %9), !llfi_index !1529
  %11 = getelementptr inbounds %"struct.std::_Rb_tree_iterator", %"struct.std::_Rb_tree_iterator"* %3, i32 0, i32 0, !llfi_index !1530
  store %"struct.std::_Rb_tree_node_base"* %10, %"struct.std::_Rb_tree_node_base"** %11, align 8, !llfi_index !1531
  %12 = getelementptr inbounds %"struct.std::_Rb_tree_iterator", %"struct.std::_Rb_tree_iterator"* %3, i32 0, i32 0, !llfi_index !1532
  %13 = load %"struct.std::_Rb_tree_node_base"*, %"struct.std::_Rb_tree_node_base"** %12, align 8, !llfi_index !1533
  ret %"struct.std::_Rb_tree_node_base"* %13, !llfi_index !1534
}

; Function Attrs: mustprogress noinline uwtable
define linkonce_odr dso_local %"struct.std::_Rb_tree_node_base"* @_ZNSt8_Rb_treeISt4pairIiiES0_IKS1_P1TESt10_Select1stIS5_ESt4lessIS1_ESaIS5_EE14_M_lower_boundEPSt13_Rb_tree_nodeIS5_EPSt18_Rb_tree_node_baseRS2_(%"class.std::_Rb_tree"* nonnull align 8 dereferenceable(48) %0, %"struct.std::_Rb_tree_node"* %1, %"struct.std::_Rb_tree_node_base"* %2, %"struct.std::pair"* nonnull align 4 dereferenceable(8) %3) #4 comdat align 2 {
  %5 = alloca %"struct.std::_Rb_tree_iterator", align 8, !llfi_index !1535
  %6 = alloca %"class.std::_Rb_tree"*, align 8, !llfi_index !1536
  %7 = alloca %"struct.std::_Rb_tree_node"*, align 8, !llfi_index !1537
  %8 = alloca %"struct.std::_Rb_tree_node_base"*, align 8, !llfi_index !1538
  %9 = alloca %"struct.std::pair"*, align 8, !llfi_index !1539
  store %"class.std::_Rb_tree"* %0, %"class.std::_Rb_tree"** %6, align 8, !llfi_index !1540
  store %"struct.std::_Rb_tree_node"* %1, %"struct.std::_Rb_tree_node"** %7, align 8, !llfi_index !1541
  store %"struct.std::_Rb_tree_node_base"* %2, %"struct.std::_Rb_tree_node_base"** %8, align 8, !llfi_index !1542
  store %"struct.std::pair"* %3, %"struct.std::pair"** %9, align 8, !llfi_index !1543
  %10 = load %"class.std::_Rb_tree"*, %"class.std::_Rb_tree"** %6, align 8, !llfi_index !1544
  br label %11, !llfi_index !1545

11:                                               ; preds = %32, %4
  %12 = load %"struct.std::_Rb_tree_node"*, %"struct.std::_Rb_tree_node"** %7, align 8, !llfi_index !1546
  %13 = icmp ne %"struct.std::_Rb_tree_node"* %12, null, !llfi_index !1547
  br i1 %13, label %14, label %33, !llfi_index !1548

14:                                               ; preds = %11
  %15 = getelementptr inbounds %"class.std::_Rb_tree", %"class.std::_Rb_tree"* %10, i32 0, i32 0, !llfi_index !1549
  %16 = bitcast %"struct.std::_Rb_tree<std::pair<int, int>, std::pair<const std::pair<int, int>, T *>, std::_Select1st<std::pair<const std::pair<int, int>, T *>>, std::less<std::pair<int, int>>>::_Rb_tree_impl"* %15 to %"struct.std::_Rb_tree_key_compare"*, !llfi_index !1550
  %17 = getelementptr inbounds %"struct.std::_Rb_tree_key_compare", %"struct.std::_Rb_tree_key_compare"* %16, i32 0, i32 0, !llfi_index !1551
  %18 = load %"struct.std::_Rb_tree_node"*, %"struct.std::_Rb_tree_node"** %7, align 8, !llfi_index !1552
  %19 = call nonnull align 4 dereferenceable(8) %"struct.std::pair"* @_ZNSt8_Rb_treeISt4pairIiiES0_IKS1_P1TESt10_Select1stIS5_ESt4lessIS1_ESaIS5_EE6_S_keyEPKSt13_Rb_tree_nodeIS5_E(%"struct.std::_Rb_tree_node"* %18), !llfi_index !1553
  %20 = load %"struct.std::pair"*, %"struct.std::pair"** %9, align 8, !llfi_index !1554
  %21 = call zeroext i1 @_ZNKSt4lessISt4pairIiiEEclERKS1_S4_(%"struct.std::less"* nonnull align 1 dereferenceable(1) %17, %"struct.std::pair"* nonnull align 4 dereferenceable(8) %19, %"struct.std::pair"* nonnull align 4 dereferenceable(8) %20), !llfi_index !1555
  br i1 %21, label %28, label %22, !llfi_index !1556

22:                                               ; preds = %14
  %23 = load %"struct.std::_Rb_tree_node"*, %"struct.std::_Rb_tree_node"** %7, align 8, !llfi_index !1557
  %24 = bitcast %"struct.std::_Rb_tree_node"* %23 to %"struct.std::_Rb_tree_node_base"*, !llfi_index !1558
  store %"struct.std::_Rb_tree_node_base"* %24, %"struct.std::_Rb_tree_node_base"** %8, align 8, !llfi_index !1559
  %25 = load %"struct.std::_Rb_tree_node"*, %"struct.std::_Rb_tree_node"** %7, align 8, !llfi_index !1560
  %26 = bitcast %"struct.std::_Rb_tree_node"* %25 to %"struct.std::_Rb_tree_node_base"*, !llfi_index !1561
  %27 = call %"struct.std::_Rb_tree_node"* @_ZNSt8_Rb_treeISt4pairIiiES0_IKS1_P1TESt10_Select1stIS5_ESt4lessIS1_ESaIS5_EE7_S_leftEPSt18_Rb_tree_node_base(%"struct.std::_Rb_tree_node_base"* %26) #2, !llfi_index !1562
  store %"struct.std::_Rb_tree_node"* %27, %"struct.std::_Rb_tree_node"** %7, align 8, !llfi_index !1563
  br label %32, !llfi_index !1564

28:                                               ; preds = %14
  %29 = load %"struct.std::_Rb_tree_node"*, %"struct.std::_Rb_tree_node"** %7, align 8, !llfi_index !1565
  %30 = bitcast %"struct.std::_Rb_tree_node"* %29 to %"struct.std::_Rb_tree_node_base"*, !llfi_index !1566
  %31 = call %"struct.std::_Rb_tree_node"* @_ZNSt8_Rb_treeISt4pairIiiES0_IKS1_P1TESt10_Select1stIS5_ESt4lessIS1_ESaIS5_EE8_S_rightEPSt18_Rb_tree_node_base(%"struct.std::_Rb_tree_node_base"* %30) #2, !llfi_index !1567
  store %"struct.std::_Rb_tree_node"* %31, %"struct.std::_Rb_tree_node"** %7, align 8, !llfi_index !1568
  br label %32, !llfi_index !1569

32:                                               ; preds = %28, %22
  br label %11, !llvm.loop !1570, !llfi_index !1571

33:                                               ; preds = %11
  %34 = load %"struct.std::_Rb_tree_node_base"*, %"struct.std::_Rb_tree_node_base"** %8, align 8, !llfi_index !1572
  call void @_ZNSt17_Rb_tree_iteratorISt4pairIKS0_IiiEP1TEEC2EPSt18_Rb_tree_node_base(%"struct.std::_Rb_tree_iterator"* nonnull align 8 dereferenceable(8) %5, %"struct.std::_Rb_tree_node_base"* %34) #2, !llfi_index !1573
  %35 = getelementptr inbounds %"struct.std::_Rb_tree_iterator", %"struct.std::_Rb_tree_iterator"* %5, i32 0, i32 0, !llfi_index !1574
  %36 = load %"struct.std::_Rb_tree_node_base"*, %"struct.std::_Rb_tree_node_base"** %35, align 8, !llfi_index !1575
  ret %"struct.std::_Rb_tree_node_base"* %36, !llfi_index !1576
}

; Function Attrs: mustprogress noinline uwtable
define linkonce_odr dso_local %"struct.std::_Rb_tree_node_base"* @_ZNKSt8_Rb_treeISt4pairIiiES0_IKS1_P1TESt10_Select1stIS5_ESt4lessIS1_ESaIS5_EE4findERS2_(%"class.std::_Rb_tree"* nonnull align 8 dereferenceable(48) %0, %"struct.std::pair"* nonnull align 4 dereferenceable(8) %1) #4 comdat align 2 {
  %3 = alloca %"struct.std::_Rb_tree_iterator", align 8, !llfi_index !1577
  %4 = alloca %"class.std::_Rb_tree"*, align 8, !llfi_index !1578
  %5 = alloca %"struct.std::pair"*, align 8, !llfi_index !1579
  %6 = alloca %"struct.std::_Rb_tree_iterator", align 8, !llfi_index !1580
  %7 = alloca %"struct.std::_Rb_tree_iterator", align 8, !llfi_index !1581
  store %"class.std::_Rb_tree"* %0, %"class.std::_Rb_tree"** %4, align 8, !llfi_index !1582
  store %"struct.std::pair"* %1, %"struct.std::pair"** %5, align 8, !llfi_index !1583
  %8 = load %"class.std::_Rb_tree"*, %"class.std::_Rb_tree"** %4, align 8, !llfi_index !1584
  %9 = call %"struct.std::_Rb_tree_node"* @_ZNKSt8_Rb_treeISt4pairIiiES0_IKS1_P1TESt10_Select1stIS5_ESt4lessIS1_ESaIS5_EE8_M_beginEv(%"class.std::_Rb_tree"* nonnull align 8 dereferenceable(48) %8) #2, !llfi_index !1585
  %10 = call %"struct.std::_Rb_tree_node_base"* @_ZNKSt8_Rb_treeISt4pairIiiES0_IKS1_P1TESt10_Select1stIS5_ESt4lessIS1_ESaIS5_EE6_M_endEv(%"class.std::_Rb_tree"* nonnull align 8 dereferenceable(48) %8) #2, !llfi_index !1586
  %11 = load %"struct.std::pair"*, %"struct.std::pair"** %5, align 8, !llfi_index !1587
  %12 = call %"struct.std::_Rb_tree_node_base"* @_ZNKSt8_Rb_treeISt4pairIiiES0_IKS1_P1TESt10_Select1stIS5_ESt4lessIS1_ESaIS5_EE14_M_lower_boundEPKSt13_Rb_tree_nodeIS5_EPKSt18_Rb_tree_node_baseRS2_(%"class.std::_Rb_tree"* nonnull align 8 dereferenceable(48) %8, %"struct.std::_Rb_tree_node"* %9, %"struct.std::_Rb_tree_node_base"* %10, %"struct.std::pair"* nonnull align 4 dereferenceable(8) %11), !llfi_index !1588
  %13 = getelementptr inbounds %"struct.std::_Rb_tree_iterator", %"struct.std::_Rb_tree_iterator"* %6, i32 0, i32 0, !llfi_index !1589
  store %"struct.std::_Rb_tree_node_base"* %12, %"struct.std::_Rb_tree_node_base"** %13, align 8, !llfi_index !1590
  %14 = call %"struct.std::_Rb_tree_node_base"* @_ZNKSt8_Rb_treeISt4pairIiiES0_IKS1_P1TESt10_Select1stIS5_ESt4lessIS1_ESaIS5_EE3endEv(%"class.std::_Rb_tree"* nonnull align 8 dereferenceable(48) %8) #2, !llfi_index !1591
  %15 = getelementptr inbounds %"struct.std::_Rb_tree_iterator", %"struct.std::_Rb_tree_iterator"* %7, i32 0, i32 0, !llfi_index !1592
  store %"struct.std::_Rb_tree_node_base"* %14, %"struct.std::_Rb_tree_node_base"** %15, align 8, !llfi_index !1593
  %16 = call zeroext i1 @_ZSteqRKSt23_Rb_tree_const_iteratorISt4pairIKS0_IiiEP1TEES8_(%"struct.std::_Rb_tree_iterator"* nonnull align 8 dereferenceable(8) %6, %"struct.std::_Rb_tree_iterator"* nonnull align 8 dereferenceable(8) %7) #2, !llfi_index !1594
  br i1 %16, label %26, label %17, !llfi_index !1595

17:                                               ; preds = %2
  %18 = getelementptr inbounds %"class.std::_Rb_tree", %"class.std::_Rb_tree"* %8, i32 0, i32 0, !llfi_index !1596
  %19 = bitcast %"struct.std::_Rb_tree<std::pair<int, int>, std::pair<const std::pair<int, int>, T *>, std::_Select1st<std::pair<const std::pair<int, int>, T *>>, std::less<std::pair<int, int>>>::_Rb_tree_impl"* %18 to %"struct.std::_Rb_tree_key_compare"*, !llfi_index !1597
  %20 = getelementptr inbounds %"struct.std::_Rb_tree_key_compare", %"struct.std::_Rb_tree_key_compare"* %19, i32 0, i32 0, !llfi_index !1598
  %21 = load %"struct.std::pair"*, %"struct.std::pair"** %5, align 8, !llfi_index !1599
  %22 = getelementptr inbounds %"struct.std::_Rb_tree_iterator", %"struct.std::_Rb_tree_iterator"* %6, i32 0, i32 0, !llfi_index !1600
  %23 = load %"struct.std::_Rb_tree_node_base"*, %"struct.std::_Rb_tree_node_base"** %22, align 8, !llfi_index !1601
  %24 = call nonnull align 4 dereferenceable(8) %"struct.std::pair"* @_ZNSt8_Rb_treeISt4pairIiiES0_IKS1_P1TESt10_Select1stIS5_ESt4lessIS1_ESaIS5_EE6_S_keyEPKSt18_Rb_tree_node_base(%"struct.std::_Rb_tree_node_base"* %23), !llfi_index !1602
  %25 = call zeroext i1 @_ZNKSt4lessISt4pairIiiEEclERKS1_S4_(%"struct.std::less"* nonnull align 1 dereferenceable(1) %20, %"struct.std::pair"* nonnull align 4 dereferenceable(8) %21, %"struct.std::pair"* nonnull align 4 dereferenceable(8) %24), !llfi_index !1603
  br i1 %25, label %26, label %29, !llfi_index !1604

26:                                               ; preds = %17, %2
  %27 = call %"struct.std::_Rb_tree_node_base"* @_ZNKSt8_Rb_treeISt4pairIiiES0_IKS1_P1TESt10_Select1stIS5_ESt4lessIS1_ESaIS5_EE3endEv(%"class.std::_Rb_tree"* nonnull align 8 dereferenceable(48) %8) #2, !llfi_index !1605
  %28 = getelementptr inbounds %"struct.std::_Rb_tree_iterator", %"struct.std::_Rb_tree_iterator"* %3, i32 0, i32 0, !llfi_index !1606
  store %"struct.std::_Rb_tree_node_base"* %27, %"struct.std::_Rb_tree_node_base"** %28, align 8, !llfi_index !1607
  br label %32, !llfi_index !1608

29:                                               ; preds = %17
  %30 = bitcast %"struct.std::_Rb_tree_iterator"* %3 to i8*, !llfi_index !1609
  %31 = bitcast %"struct.std::_Rb_tree_iterator"* %6 to i8*, !llfi_index !1610
  call void @llvm.memcpy.p0i8.p0i8.i64(i8* align 8 %30, i8* align 8 %31, i64 8, i1 false), !llfi_index !1611
  br label %32, !llfi_index !1612

32:                                               ; preds = %29, %26
  %33 = getelementptr inbounds %"struct.std::_Rb_tree_iterator", %"struct.std::_Rb_tree_iterator"* %3, i32 0, i32 0, !llfi_index !1613
  %34 = load %"struct.std::_Rb_tree_node_base"*, %"struct.std::_Rb_tree_node_base"** %33, align 8, !llfi_index !1614
  ret %"struct.std::_Rb_tree_node_base"* %34, !llfi_index !1615
}

; Function Attrs: mustprogress noinline nounwind uwtable
define linkonce_odr dso_local %"struct.std::_Rb_tree_node_base"* @_ZNKSt8_Rb_treeISt4pairIiiES0_IKS1_P1TESt10_Select1stIS5_ESt4lessIS1_ESaIS5_EE3endEv(%"class.std::_Rb_tree"* nonnull align 8 dereferenceable(48) %0) #3 comdat align 2 {
  %2 = alloca %"struct.std::_Rb_tree_iterator", align 8, !llfi_index !1616
  %3 = alloca %"class.std::_Rb_tree"*, align 8, !llfi_index !1617
  store %"class.std::_Rb_tree"* %0, %"class.std::_Rb_tree"** %3, align 8, !llfi_index !1618
  %4 = load %"class.std::_Rb_tree"*, %"class.std::_Rb_tree"** %3, align 8, !llfi_index !1619
  %5 = getelementptr inbounds %"class.std::_Rb_tree", %"class.std::_Rb_tree"* %4, i32 0, i32 0, !llfi_index !1620
  %6 = bitcast %"struct.std::_Rb_tree<std::pair<int, int>, std::pair<const std::pair<int, int>, T *>, std::_Select1st<std::pair<const std::pair<int, int>, T *>>, std::less<std::pair<int, int>>>::_Rb_tree_impl"* %5 to i8*, !llfi_index !1621
  %7 = getelementptr inbounds i8, i8* %6, i64 8, !llfi_index !1622
  %8 = bitcast i8* %7 to %"struct.std::_Rb_tree_header"*, !llfi_index !1623
  %9 = getelementptr inbounds %"struct.std::_Rb_tree_header", %"struct.std::_Rb_tree_header"* %8, i32 0, i32 0, !llfi_index !1624
  call void @_ZNSt23_Rb_tree_const_iteratorISt4pairIKS0_IiiEP1TEEC2EPKSt18_Rb_tree_node_base(%"struct.std::_Rb_tree_iterator"* nonnull align 8 dereferenceable(8) %2, %"struct.std::_Rb_tree_node_base"* %9) #2, !llfi_index !1625
  %10 = getelementptr inbounds %"struct.std::_Rb_tree_iterator", %"struct.std::_Rb_tree_iterator"* %2, i32 0, i32 0, !llfi_index !1626
  %11 = load %"struct.std::_Rb_tree_node_base"*, %"struct.std::_Rb_tree_node_base"** %10, align 8, !llfi_index !1627
  ret %"struct.std::_Rb_tree_node_base"* %11, !llfi_index !1628
}

; Function Attrs: mustprogress noinline nounwind uwtable
define linkonce_odr dso_local zeroext i1 @_ZSteqRKSt23_Rb_tree_const_iteratorISt4pairIKS0_IiiEP1TEES8_(%"struct.std::_Rb_tree_iterator"* nonnull align 8 dereferenceable(8) %0, %"struct.std::_Rb_tree_iterator"* nonnull align 8 dereferenceable(8) %1) #3 comdat {
  %3 = alloca %"struct.std::_Rb_tree_iterator"*, align 8, !llfi_index !1629
  %4 = alloca %"struct.std::_Rb_tree_iterator"*, align 8, !llfi_index !1630
  store %"struct.std::_Rb_tree_iterator"* %0, %"struct.std::_Rb_tree_iterator"** %3, align 8, !llfi_index !1631
  store %"struct.std::_Rb_tree_iterator"* %1, %"struct.std::_Rb_tree_iterator"** %4, align 8, !llfi_index !1632
  %5 = load %"struct.std::_Rb_tree_iterator"*, %"struct.std::_Rb_tree_iterator"** %3, align 8, !llfi_index !1633
  %6 = getelementptr inbounds %"struct.std::_Rb_tree_iterator", %"struct.std::_Rb_tree_iterator"* %5, i32 0, i32 0, !llfi_index !1634
  %7 = load %"struct.std::_Rb_tree_node_base"*, %"struct.std::_Rb_tree_node_base"** %6, align 8, !llfi_index !1635
  %8 = load %"struct.std::_Rb_tree_iterator"*, %"struct.std::_Rb_tree_iterator"** %4, align 8, !llfi_index !1636
  %9 = getelementptr inbounds %"struct.std::_Rb_tree_iterator", %"struct.std::_Rb_tree_iterator"* %8, i32 0, i32 0, !llfi_index !1637
  %10 = load %"struct.std::_Rb_tree_node_base"*, %"struct.std::_Rb_tree_node_base"** %9, align 8, !llfi_index !1638
  %11 = icmp eq %"struct.std::_Rb_tree_node_base"* %7, %10, !llfi_index !1639
  ret i1 %11, !llfi_index !1640
}

; Function Attrs: noinline nounwind uwtable
define linkonce_odr dso_local void @_ZNSt23_Rb_tree_const_iteratorISt4pairIKS0_IiiEP1TEEC2EPKSt18_Rb_tree_node_base(%"struct.std::_Rb_tree_iterator"* nonnull align 8 dereferenceable(8) %0, %"struct.std::_Rb_tree_node_base"* %1) unnamed_addr #1 comdat align 2 {
  %3 = alloca %"struct.std::_Rb_tree_iterator"*, align 8, !llfi_index !1641
  %4 = alloca %"struct.std::_Rb_tree_node_base"*, align 8, !llfi_index !1642
  store %"struct.std::_Rb_tree_iterator"* %0, %"struct.std::_Rb_tree_iterator"** %3, align 8, !llfi_index !1643
  store %"struct.std::_Rb_tree_node_base"* %1, %"struct.std::_Rb_tree_node_base"** %4, align 8, !llfi_index !1644
  %5 = load %"struct.std::_Rb_tree_iterator"*, %"struct.std::_Rb_tree_iterator"** %3, align 8, !llfi_index !1645
  %6 = getelementptr inbounds %"struct.std::_Rb_tree_iterator", %"struct.std::_Rb_tree_iterator"* %5, i32 0, i32 0, !llfi_index !1646
  %7 = load %"struct.std::_Rb_tree_node_base"*, %"struct.std::_Rb_tree_node_base"** %4, align 8, !llfi_index !1647
  store %"struct.std::_Rb_tree_node_base"* %7, %"struct.std::_Rb_tree_node_base"** %6, align 8, !llfi_index !1648
  ret void, !llfi_index !1649
}

; Function Attrs: mustprogress noinline nounwind uwtable
define linkonce_odr dso_local %"struct.std::_Rb_tree_node"* @_ZNKSt8_Rb_treeISt4pairIiiES0_IKS1_P1TESt10_Select1stIS5_ESt4lessIS1_ESaIS5_EE8_M_beginEv(%"class.std::_Rb_tree"* nonnull align 8 dereferenceable(48) %0) #3 comdat align 2 {
  %2 = alloca %"class.std::_Rb_tree"*, align 8, !llfi_index !1650
  store %"class.std::_Rb_tree"* %0, %"class.std::_Rb_tree"** %2, align 8, !llfi_index !1651
  %3 = load %"class.std::_Rb_tree"*, %"class.std::_Rb_tree"** %2, align 8, !llfi_index !1652
  %4 = getelementptr inbounds %"class.std::_Rb_tree", %"class.std::_Rb_tree"* %3, i32 0, i32 0, !llfi_index !1653
  %5 = bitcast %"struct.std::_Rb_tree<std::pair<int, int>, std::pair<const std::pair<int, int>, T *>, std::_Select1st<std::pair<const std::pair<int, int>, T *>>, std::less<std::pair<int, int>>>::_Rb_tree_impl"* %4 to i8*, !llfi_index !1654
  %6 = getelementptr inbounds i8, i8* %5, i64 8, !llfi_index !1655
  %7 = bitcast i8* %6 to %"struct.std::_Rb_tree_header"*, !llfi_index !1656
  %8 = getelementptr inbounds %"struct.std::_Rb_tree_header", %"struct.std::_Rb_tree_header"* %7, i32 0, i32 0, !llfi_index !1657
  %9 = getelementptr inbounds %"struct.std::_Rb_tree_node_base", %"struct.std::_Rb_tree_node_base"* %8, i32 0, i32 1, !llfi_index !1658
  %10 = load %"struct.std::_Rb_tree_node_base"*, %"struct.std::_Rb_tree_node_base"** %9, align 8, !llfi_index !1659
  %11 = bitcast %"struct.std::_Rb_tree_node_base"* %10 to %"struct.std::_Rb_tree_node"*, !llfi_index !1660
  ret %"struct.std::_Rb_tree_node"* %11, !llfi_index !1661
}

; Function Attrs: mustprogress noinline nounwind uwtable
define linkonce_odr dso_local %"struct.std::_Rb_tree_node_base"* @_ZNKSt8_Rb_treeISt4pairIiiES0_IKS1_P1TESt10_Select1stIS5_ESt4lessIS1_ESaIS5_EE6_M_endEv(%"class.std::_Rb_tree"* nonnull align 8 dereferenceable(48) %0) #3 comdat align 2 {
  %2 = alloca %"class.std::_Rb_tree"*, align 8, !llfi_index !1662
  store %"class.std::_Rb_tree"* %0, %"class.std::_Rb_tree"** %2, align 8, !llfi_index !1663
  %3 = load %"class.std::_Rb_tree"*, %"class.std::_Rb_tree"** %2, align 8, !llfi_index !1664
  %4 = getelementptr inbounds %"class.std::_Rb_tree", %"class.std::_Rb_tree"* %3, i32 0, i32 0, !llfi_index !1665
  %5 = bitcast %"struct.std::_Rb_tree<std::pair<int, int>, std::pair<const std::pair<int, int>, T *>, std::_Select1st<std::pair<const std::pair<int, int>, T *>>, std::less<std::pair<int, int>>>::_Rb_tree_impl"* %4 to i8*, !llfi_index !1666
  %6 = getelementptr inbounds i8, i8* %5, i64 8, !llfi_index !1667
  %7 = bitcast i8* %6 to %"struct.std::_Rb_tree_header"*, !llfi_index !1668
  %8 = getelementptr inbounds %"struct.std::_Rb_tree_header", %"struct.std::_Rb_tree_header"* %7, i32 0, i32 0, !llfi_index !1669
  ret %"struct.std::_Rb_tree_node_base"* %8, !llfi_index !1670
}

; Function Attrs: mustprogress noinline uwtable
define linkonce_odr dso_local %"struct.std::_Rb_tree_node_base"* @_ZNKSt8_Rb_treeISt4pairIiiES0_IKS1_P1TESt10_Select1stIS5_ESt4lessIS1_ESaIS5_EE14_M_lower_boundEPKSt13_Rb_tree_nodeIS5_EPKSt18_Rb_tree_node_baseRS2_(%"class.std::_Rb_tree"* nonnull align 8 dereferenceable(48) %0, %"struct.std::_Rb_tree_node"* %1, %"struct.std::_Rb_tree_node_base"* %2, %"struct.std::pair"* nonnull align 4 dereferenceable(8) %3) #4 comdat align 2 {
  %5 = alloca %"struct.std::_Rb_tree_iterator", align 8, !llfi_index !1671
  %6 = alloca %"class.std::_Rb_tree"*, align 8, !llfi_index !1672
  %7 = alloca %"struct.std::_Rb_tree_node"*, align 8, !llfi_index !1673
  %8 = alloca %"struct.std::_Rb_tree_node_base"*, align 8, !llfi_index !1674
  %9 = alloca %"struct.std::pair"*, align 8, !llfi_index !1675
  store %"class.std::_Rb_tree"* %0, %"class.std::_Rb_tree"** %6, align 8, !llfi_index !1676
  store %"struct.std::_Rb_tree_node"* %1, %"struct.std::_Rb_tree_node"** %7, align 8, !llfi_index !1677
  store %"struct.std::_Rb_tree_node_base"* %2, %"struct.std::_Rb_tree_node_base"** %8, align 8, !llfi_index !1678
  store %"struct.std::pair"* %3, %"struct.std::pair"** %9, align 8, !llfi_index !1679
  %10 = load %"class.std::_Rb_tree"*, %"class.std::_Rb_tree"** %6, align 8, !llfi_index !1680
  br label %11, !llfi_index !1681

11:                                               ; preds = %32, %4
  %12 = load %"struct.std::_Rb_tree_node"*, %"struct.std::_Rb_tree_node"** %7, align 8, !llfi_index !1682
  %13 = icmp ne %"struct.std::_Rb_tree_node"* %12, null, !llfi_index !1683
  br i1 %13, label %14, label %33, !llfi_index !1684

14:                                               ; preds = %11
  %15 = getelementptr inbounds %"class.std::_Rb_tree", %"class.std::_Rb_tree"* %10, i32 0, i32 0, !llfi_index !1685
  %16 = bitcast %"struct.std::_Rb_tree<std::pair<int, int>, std::pair<const std::pair<int, int>, T *>, std::_Select1st<std::pair<const std::pair<int, int>, T *>>, std::less<std::pair<int, int>>>::_Rb_tree_impl"* %15 to %"struct.std::_Rb_tree_key_compare"*, !llfi_index !1686
  %17 = getelementptr inbounds %"struct.std::_Rb_tree_key_compare", %"struct.std::_Rb_tree_key_compare"* %16, i32 0, i32 0, !llfi_index !1687
  %18 = load %"struct.std::_Rb_tree_node"*, %"struct.std::_Rb_tree_node"** %7, align 8, !llfi_index !1688
  %19 = call nonnull align 4 dereferenceable(8) %"struct.std::pair"* @_ZNSt8_Rb_treeISt4pairIiiES0_IKS1_P1TESt10_Select1stIS5_ESt4lessIS1_ESaIS5_EE6_S_keyEPKSt13_Rb_tree_nodeIS5_E(%"struct.std::_Rb_tree_node"* %18), !llfi_index !1689
  %20 = load %"struct.std::pair"*, %"struct.std::pair"** %9, align 8, !llfi_index !1690
  %21 = call zeroext i1 @_ZNKSt4lessISt4pairIiiEEclERKS1_S4_(%"struct.std::less"* nonnull align 1 dereferenceable(1) %17, %"struct.std::pair"* nonnull align 4 dereferenceable(8) %19, %"struct.std::pair"* nonnull align 4 dereferenceable(8) %20), !llfi_index !1691
  br i1 %21, label %28, label %22, !llfi_index !1692

22:                                               ; preds = %14
  %23 = load %"struct.std::_Rb_tree_node"*, %"struct.std::_Rb_tree_node"** %7, align 8, !llfi_index !1693
  %24 = bitcast %"struct.std::_Rb_tree_node"* %23 to %"struct.std::_Rb_tree_node_base"*, !llfi_index !1694
  store %"struct.std::_Rb_tree_node_base"* %24, %"struct.std::_Rb_tree_node_base"** %8, align 8, !llfi_index !1695
  %25 = load %"struct.std::_Rb_tree_node"*, %"struct.std::_Rb_tree_node"** %7, align 8, !llfi_index !1696
  %26 = bitcast %"struct.std::_Rb_tree_node"* %25 to %"struct.std::_Rb_tree_node_base"*, !llfi_index !1697
  %27 = call %"struct.std::_Rb_tree_node"* @_ZNSt8_Rb_treeISt4pairIiiES0_IKS1_P1TESt10_Select1stIS5_ESt4lessIS1_ESaIS5_EE7_S_leftEPKSt18_Rb_tree_node_base(%"struct.std::_Rb_tree_node_base"* %26) #2, !llfi_index !1698
  store %"struct.std::_Rb_tree_node"* %27, %"struct.std::_Rb_tree_node"** %7, align 8, !llfi_index !1699
  br label %32, !llfi_index !1700

28:                                               ; preds = %14
  %29 = load %"struct.std::_Rb_tree_node"*, %"struct.std::_Rb_tree_node"** %7, align 8, !llfi_index !1701
  %30 = bitcast %"struct.std::_Rb_tree_node"* %29 to %"struct.std::_Rb_tree_node_base"*, !llfi_index !1702
  %31 = call %"struct.std::_Rb_tree_node"* @_ZNSt8_Rb_treeISt4pairIiiES0_IKS1_P1TESt10_Select1stIS5_ESt4lessIS1_ESaIS5_EE8_S_rightEPKSt18_Rb_tree_node_base(%"struct.std::_Rb_tree_node_base"* %30) #2, !llfi_index !1703
  store %"struct.std::_Rb_tree_node"* %31, %"struct.std::_Rb_tree_node"** %7, align 8, !llfi_index !1704
  br label %32, !llfi_index !1705

32:                                               ; preds = %28, %22
  br label %11, !llvm.loop !1706, !llfi_index !1707

33:                                               ; preds = %11
  %34 = load %"struct.std::_Rb_tree_node_base"*, %"struct.std::_Rb_tree_node_base"** %8, align 8, !llfi_index !1708
  call void @_ZNSt23_Rb_tree_const_iteratorISt4pairIKS0_IiiEP1TEEC2EPKSt18_Rb_tree_node_base(%"struct.std::_Rb_tree_iterator"* nonnull align 8 dereferenceable(8) %5, %"struct.std::_Rb_tree_node_base"* %34) #2, !llfi_index !1709
  %35 = getelementptr inbounds %"struct.std::_Rb_tree_iterator", %"struct.std::_Rb_tree_iterator"* %5, i32 0, i32 0, !llfi_index !1710
  %36 = load %"struct.std::_Rb_tree_node_base"*, %"struct.std::_Rb_tree_node_base"** %35, align 8, !llfi_index !1711
  ret %"struct.std::_Rb_tree_node_base"* %36, !llfi_index !1712
}

; Function Attrs: mustprogress noinline nounwind uwtable
define linkonce_odr dso_local %"struct.std::_Rb_tree_node"* @_ZNSt8_Rb_treeISt4pairIiiES0_IKS1_P1TESt10_Select1stIS5_ESt4lessIS1_ESaIS5_EE7_S_leftEPKSt18_Rb_tree_node_base(%"struct.std::_Rb_tree_node_base"* %0) #3 comdat align 2 {
  %2 = alloca %"struct.std::_Rb_tree_node_base"*, align 8, !llfi_index !1713
  store %"struct.std::_Rb_tree_node_base"* %0, %"struct.std::_Rb_tree_node_base"** %2, align 8, !llfi_index !1714
  %3 = load %"struct.std::_Rb_tree_node_base"*, %"struct.std::_Rb_tree_node_base"** %2, align 8, !llfi_index !1715
  %4 = getelementptr inbounds %"struct.std::_Rb_tree_node_base", %"struct.std::_Rb_tree_node_base"* %3, i32 0, i32 2, !llfi_index !1716
  %5 = load %"struct.std::_Rb_tree_node_base"*, %"struct.std::_Rb_tree_node_base"** %4, align 8, !llfi_index !1717
  %6 = bitcast %"struct.std::_Rb_tree_node_base"* %5 to %"struct.std::_Rb_tree_node"*, !llfi_index !1718
  ret %"struct.std::_Rb_tree_node"* %6, !llfi_index !1719
}

; Function Attrs: mustprogress noinline nounwind uwtable
define linkonce_odr dso_local %"struct.std::_Rb_tree_node"* @_ZNSt8_Rb_treeISt4pairIiiES0_IKS1_P1TESt10_Select1stIS5_ESt4lessIS1_ESaIS5_EE8_S_rightEPKSt18_Rb_tree_node_base(%"struct.std::_Rb_tree_node_base"* %0) #3 comdat align 2 {
  %2 = alloca %"struct.std::_Rb_tree_node_base"*, align 8, !llfi_index !1720
  store %"struct.std::_Rb_tree_node_base"* %0, %"struct.std::_Rb_tree_node_base"** %2, align 8, !llfi_index !1721
  %3 = load %"struct.std::_Rb_tree_node_base"*, %"struct.std::_Rb_tree_node_base"** %2, align 8, !llfi_index !1722
  %4 = getelementptr inbounds %"struct.std::_Rb_tree_node_base", %"struct.std::_Rb_tree_node_base"* %3, i32 0, i32 3, !llfi_index !1723
  %5 = load %"struct.std::_Rb_tree_node_base"*, %"struct.std::_Rb_tree_node_base"** %4, align 8, !llfi_index !1724
  %6 = bitcast %"struct.std::_Rb_tree_node_base"* %5 to %"struct.std::_Rb_tree_node"*, !llfi_index !1725
  ret %"struct.std::_Rb_tree_node"* %6, !llfi_index !1726
}

; Function Attrs: mustprogress noinline nounwind uwtable
define linkonce_odr dso_local nonnull align 4 dereferenceable(4) i32* @_ZSt7forwardIRiEOT_RNSt16remove_referenceIS1_E4typeE(i32* nonnull align 4 dereferenceable(4) %0) #3 comdat {
  %2 = alloca i32*, align 8, !llfi_index !1727
  store i32* %0, i32** %2, align 8, !llfi_index !1728
  %3 = load i32*, i32** %2, align 8, !llfi_index !1729
  ret i32* %3, !llfi_index !1730
}

; Function Attrs: noinline nounwind uwtable
define linkonce_odr dso_local void @_ZNSt4pairIiiEC2IRiS2_Lb1EEEOT_OT0_(%"struct.std::pair"* nonnull align 4 dereferenceable(8) %0, i32* nonnull align 4 dereferenceable(4) %1, i32* nonnull align 4 dereferenceable(4) %2) unnamed_addr #1 comdat align 2 {
  %4 = alloca %"struct.std::pair"*, align 8, !llfi_index !1731
  %5 = alloca i32*, align 8, !llfi_index !1732
  %6 = alloca i32*, align 8, !llfi_index !1733
  store %"struct.std::pair"* %0, %"struct.std::pair"** %4, align 8, !llfi_index !1734
  store i32* %1, i32** %5, align 8, !llfi_index !1735
  store i32* %2, i32** %6, align 8, !llfi_index !1736
  %7 = load %"struct.std::pair"*, %"struct.std::pair"** %4, align 8, !llfi_index !1737
  %8 = bitcast %"struct.std::pair"* %7 to %"struct.std::less"*, !llfi_index !1738
  %9 = getelementptr inbounds %"struct.std::pair", %"struct.std::pair"* %7, i32 0, i32 0, !llfi_index !1739
  %10 = load i32*, i32** %5, align 8, !llfi_index !1740
  %11 = call nonnull align 4 dereferenceable(4) i32* @_ZSt7forwardIRiEOT_RNSt16remove_referenceIS1_E4typeE(i32* nonnull align 4 dereferenceable(4) %10) #2, !llfi_index !1741
  %12 = load i32, i32* %11, align 4, !llfi_index !1742
  store i32 %12, i32* %9, align 4, !llfi_index !1743
  %13 = getelementptr inbounds %"struct.std::pair", %"struct.std::pair"* %7, i32 0, i32 1, !llfi_index !1744
  %14 = load i32*, i32** %6, align 8, !llfi_index !1745
  %15 = call nonnull align 4 dereferenceable(4) i32* @_ZSt7forwardIRiEOT_RNSt16remove_referenceIS1_E4typeE(i32* nonnull align 4 dereferenceable(4) %14) #2, !llfi_index !1746
  %16 = load i32, i32* %15, align 4, !llfi_index !1747
  store i32 %16, i32* %13, align 4, !llfi_index !1748
  ret void, !llfi_index !1749
}

; Function Attrs: mustprogress noinline nounwind uwtable
define dso_local void @_Z8downdateP1T(%struct.T* %0) #3 {
  %2 = alloca %struct.T*, align 8, !llfi_index !1750
  store %struct.T* %0, %struct.T** %2, align 8, !llfi_index !1751
  %3 = load %struct.T*, %struct.T** %2, align 8, !llfi_index !1752
  %4 = getelementptr inbounds %struct.T, %struct.T* %3, i32 0, i32 0, !llfi_index !1753
  %5 = load i8, i8* %4, align 8, !llfi_index !1754
  %6 = trunc i8 %5 to i1, !llfi_index !1755
  br i1 %6, label %7, label %44, !llfi_index !1756

7:                                                ; preds = %1
  %8 = load %struct.T*, %struct.T** %2, align 8, !llfi_index !1757
  %9 = getelementptr inbounds %struct.T, %struct.T* %8, i32 0, i32 1, !llfi_index !1758
  %10 = getelementptr inbounds [2 x %struct.T*], [2 x %struct.T*]* %9, i64 0, i64 0, !llfi_index !1759
  %11 = load %struct.T*, %struct.T** %10, align 8, !llfi_index !1760
  %12 = getelementptr inbounds %struct.T, %struct.T* %11, i32 0, i32 0, !llfi_index !1761
  %13 = load i8, i8* %12, align 8, !llfi_index !1762
  %14 = trunc i8 %13 to i1, !llfi_index !1763
  %15 = xor i1 %14, true, !llfi_index !1764
  %16 = load %struct.T*, %struct.T** %2, align 8, !llfi_index !1765
  %17 = getelementptr inbounds %struct.T, %struct.T* %16, i32 0, i32 1, !llfi_index !1766
  %18 = getelementptr inbounds [2 x %struct.T*], [2 x %struct.T*]* %17, i64 0, i64 0, !llfi_index !1767
  %19 = load %struct.T*, %struct.T** %18, align 8, !llfi_index !1768
  %20 = getelementptr inbounds %struct.T, %struct.T* %19, i32 0, i32 0, !llfi_index !1769
  %21 = zext i1 %15 to i8, !llfi_index !1770
  store i8 %21, i8* %20, align 8, !llfi_index !1771
  %22 = load %struct.T*, %struct.T** %2, align 8, !llfi_index !1772
  %23 = getelementptr inbounds %struct.T, %struct.T* %22, i32 0, i32 1, !llfi_index !1773
  %24 = getelementptr inbounds [2 x %struct.T*], [2 x %struct.T*]* %23, i64 0, i64 1, !llfi_index !1774
  %25 = load %struct.T*, %struct.T** %24, align 8, !llfi_index !1775
  %26 = getelementptr inbounds %struct.T, %struct.T* %25, i32 0, i32 0, !llfi_index !1776
  %27 = load i8, i8* %26, align 8, !llfi_index !1777
  %28 = trunc i8 %27 to i1, !llfi_index !1778
  %29 = xor i1 %28, true, !llfi_index !1779
  %30 = load %struct.T*, %struct.T** %2, align 8, !llfi_index !1780
  %31 = getelementptr inbounds %struct.T, %struct.T* %30, i32 0, i32 1, !llfi_index !1781
  %32 = getelementptr inbounds [2 x %struct.T*], [2 x %struct.T*]* %31, i64 0, i64 1, !llfi_index !1782
  %33 = load %struct.T*, %struct.T** %32, align 8, !llfi_index !1783
  %34 = getelementptr inbounds %struct.T, %struct.T* %33, i32 0, i32 0, !llfi_index !1784
  %35 = zext i1 %29 to i8, !llfi_index !1785
  store i8 %35, i8* %34, align 8, !llfi_index !1786
  %36 = load %struct.T*, %struct.T** %2, align 8, !llfi_index !1787
  %37 = getelementptr inbounds %struct.T, %struct.T* %36, i32 0, i32 1, !llfi_index !1788
  %38 = getelementptr inbounds [2 x %struct.T*], [2 x %struct.T*]* %37, i64 0, i64 0, !llfi_index !1789
  %39 = load %struct.T*, %struct.T** %2, align 8, !llfi_index !1790
  %40 = getelementptr inbounds %struct.T, %struct.T* %39, i32 0, i32 1, !llfi_index !1791
  %41 = getelementptr inbounds [2 x %struct.T*], [2 x %struct.T*]* %40, i64 0, i64 1, !llfi_index !1792
  call void @_ZSt4swapIP1TENSt9enable_ifIXsr6__and_ISt6__not_ISt15__is_tuple_likeIT_EESt21is_move_constructibleIS5_ESt18is_move_assignableIS5_EEE5valueEvE4typeERS5_SE_(%struct.T** nonnull align 8 dereferenceable(8) %38, %struct.T** nonnull align 8 dereferenceable(8) %41) #2, !llfi_index !1793
  %42 = load %struct.T*, %struct.T** %2, align 8, !llfi_index !1794
  %43 = getelementptr inbounds %struct.T, %struct.T* %42, i32 0, i32 0, !llfi_index !1795
  store i8 0, i8* %43, align 8, !llfi_index !1796
  br label %44, !llfi_index !1797

44:                                               ; preds = %7, %1
  ret void, !llfi_index !1798
}

; Function Attrs: mustprogress noinline nounwind uwtable
define linkonce_odr dso_local void @_ZSt4swapIP1TENSt9enable_ifIXsr6__and_ISt6__not_ISt15__is_tuple_likeIT_EESt21is_move_constructibleIS5_ESt18is_move_assignableIS5_EEE5valueEvE4typeERS5_SE_(%struct.T** nonnull align 8 dereferenceable(8) %0, %struct.T** nonnull align 8 dereferenceable(8) %1) #3 comdat {
  %3 = alloca %struct.T**, align 8, !llfi_index !1799
  %4 = alloca %struct.T**, align 8, !llfi_index !1800
  %5 = alloca %struct.T*, align 8, !llfi_index !1801
  store %struct.T** %0, %struct.T*** %3, align 8, !llfi_index !1802
  store %struct.T** %1, %struct.T*** %4, align 8, !llfi_index !1803
  %6 = load %struct.T**, %struct.T*** %3, align 8, !llfi_index !1804
  %7 = call nonnull align 8 dereferenceable(8) %struct.T** @_ZSt4moveIRP1TEONSt16remove_referenceIT_E4typeEOS4_(%struct.T** nonnull align 8 dereferenceable(8) %6) #2, !llfi_index !1805
  %8 = load %struct.T*, %struct.T** %7, align 8, !llfi_index !1806
  store %struct.T* %8, %struct.T** %5, align 8, !llfi_index !1807
  %9 = load %struct.T**, %struct.T*** %4, align 8, !llfi_index !1808
  %10 = call nonnull align 8 dereferenceable(8) %struct.T** @_ZSt4moveIRP1TEONSt16remove_referenceIT_E4typeEOS4_(%struct.T** nonnull align 8 dereferenceable(8) %9) #2, !llfi_index !1809
  %11 = load %struct.T*, %struct.T** %10, align 8, !llfi_index !1810
  %12 = load %struct.T**, %struct.T*** %3, align 8, !llfi_index !1811
  store %struct.T* %11, %struct.T** %12, align 8, !llfi_index !1812
  %13 = call nonnull align 8 dereferenceable(8) %struct.T** @_ZSt4moveIRP1TEONSt16remove_referenceIT_E4typeEOS4_(%struct.T** nonnull align 8 dereferenceable(8) %5) #2, !llfi_index !1813
  %14 = load %struct.T*, %struct.T** %13, align 8, !llfi_index !1814
  %15 = load %struct.T**, %struct.T*** %4, align 8, !llfi_index !1815
  store %struct.T* %14, %struct.T** %15, align 8, !llfi_index !1816
  ret void, !llfi_index !1817
}

; Function Attrs: mustprogress noinline nounwind uwtable
define linkonce_odr dso_local nonnull align 8 dereferenceable(8) %struct.T** @_ZSt4moveIRP1TEONSt16remove_referenceIT_E4typeEOS4_(%struct.T** nonnull align 8 dereferenceable(8) %0) #3 comdat {
  %2 = alloca %struct.T**, align 8, !llfi_index !1818
  store %struct.T** %0, %struct.T*** %2, align 8, !llfi_index !1819
  %3 = load %struct.T**, %struct.T*** %2, align 8, !llfi_index !1820
  ret %struct.T** %3, !llfi_index !1821
}

; Function Attrs: mustprogress noinline nounwind uwtable
