; ModuleID = '/home/hjiang/Computation-Kernel-Dataset/experiments/Fault_injection_0308_parall/O0/SolvetheQueries/SolvetheQueries.ll'
source_filename = "llvm-link"
target datalayout = "e-m:e-p270:32:32-p271:32:32-p272:64:64-i64:64-f80:128-n8:16:32:64-S128"
target triple = "x86_64-unknown-linux-gnu"

%"class.std::ios_base::Init" = type { i8 }
%struct._IO_FILE = type { i32, i8*, i8*, i8*, i8*, i8*, i8*, i8*, i8*, i8*, i8*, i8*, %struct._IO_marker*, %struct._IO_FILE*, i32, i32, i64, i16, i8, [1 x i8], i8*, i64, %struct._IO_codecvt*, %struct._IO_wide_data*, %struct._IO_FILE*, i8*, i64, i32, [20 x i8] }
%struct._IO_marker = type opaque
%struct._IO_codecvt = type opaque
%struct._IO_wide_data = type opaque
%"class.std::basic_istream" = type { i32 (...)**, i64, %"class.std::basic_ios" }
%"class.std::basic_ios" = type { %"class.std::ios_base", %"class.std::basic_ostream"*, i8, i8, %"class.std::basic_streambuf"*, %"class.std::ctype"*, %"class.std::num_put"*, %"class.std::num_put"* }
%"class.std::ios_base" = type { i32 (...)**, i64, i64, i32, i32, i32, %"struct.std::ios_base::_Callback_list"*, %"struct.std::ios_base::_Words", [8 x %"struct.std::ios_base::_Words"], i32, %"struct.std::ios_base::_Words"*, %"class.std::locale" }
%"struct.std::ios_base::_Callback_list" = type { %"struct.std::ios_base::_Callback_list"*, void (i32, %"class.std::ios_base"*, i32)*, i32, i32 }
%"struct.std::ios_base::_Words" = type { i8*, i64 }
%"class.std::locale" = type { %"class.std::locale::_Impl"* }
%"class.std::locale::_Impl" = type { i32, %"class.std::locale::facet"**, i64, %"class.std::locale::facet"**, i8** }
%"class.std::locale::facet" = type <{ i32 (...)**, i32, [4 x i8] }>
%"class.std::basic_ostream" = type { i32 (...)**, %"class.std::basic_ios" }
%"class.std::basic_streambuf" = type { i32 (...)**, i8*, i8*, i8*, i8*, i8*, i8*, %"class.std::locale" }
%"class.std::ctype" = type <{ %"class.std::locale::facet.base", [4 x i8], %struct.__locale_struct*, i8, [7 x i8], i32*, i32*, i16*, i8, [256 x i8], [256 x i8], i8, [6 x i8] }>
%"class.std::locale::facet.base" = type <{ i32 (...)**, i32 }>
%struct.__locale_struct = type { [13 x %struct.__locale_data*], i16*, i32*, i32*, [13 x i8*] }
%struct.__locale_data = type opaque
%"class.std::num_put" = type { %"class.std::locale::facet.base", [4 x i8] }

$_ZSt3minIiERKT_S2_S2_ = comdat any

$_ZSt3maxIiERKT_S2_S2_ = comdat any

@llvm.global_ctors = appending global [1 x { i32, void ()*, i8* }] [{ i32, void ()*, i8* } { i32 65535, void ()* @_GLOBAL__sub_I_SolvetheQueries.cpp, i8* null }]
@_ZStL8__ioinit = internal global %"class.std::ios_base::Init" zeroinitializer, align 1
@composite = dso_local global [101 x i8] zeroinitializer, align 16
@primes = dso_local global [101 x i32] zeroinitializer, align 16
@nprimes = dso_local global i32 0, align 4
@arr = dso_local global [50001 x i32] zeroinitializer, align 16
@segt = dso_local global [200000 x [25 x i32]] zeroinitializer, align 16
@setv = dso_local global [200000 x [25 x i32]] zeroinitializer, align 16
@nsetv = dso_local global [200000 x i8] zeroinitializer, align 16
@converted = dso_local global [25 x i32] zeroinitializer, align 16
@.str = private unnamed_addr constant [31 x i8] c"../input_files/SolvetheQueries\00", align 1
@.str.1 = private unnamed_addr constant [2 x i8] c"r\00", align 1
@stdin = external dso_local global %struct._IO_FILE*, align 8
@_ZSt3cin = external dso_local global %"class.std::basic_istream", align 8
@_ZSt4cout = external dso_local global %"class.std::basic_ostream", align 8

; Function Attrs: noinline uwtable
define internal void @_GLOBAL__sub_I_SolvetheQueries.cpp() #0 section ".text.startup" {
  call void @__cxx_global_var_init(), !llfi_index !4
  ret void, !llfi_index !5
}

; Function Attrs: noinline uwtable
define internal void @__cxx_global_var_init() #0 section ".text.startup" {
  call void @_ZNSt8ios_base4InitC1Ev(%"class.std::ios_base::Init"* nonnull align 1 dereferenceable(1) @_ZStL8__ioinit), !llfi_index !6
  %1 = call i32 @atexit(void ()* @__dtor__ZStL8__ioinit) #2, !llfi_index !7
  ret void, !llfi_index !8
}

declare dso_local void @_ZNSt8ios_base4InitC1Ev(%"class.std::ios_base::Init"* nonnull align 1 dereferenceable(1)) unnamed_addr #1

; Function Attrs: noinline uwtable
define internal void @__dtor__ZStL8__ioinit() #0 section ".text.startup" {
  call void @_ZNSt8ios_base4InitD1Ev(%"class.std::ios_base::Init"* @_ZStL8__ioinit), !llfi_index !9
  ret void, !llfi_index !10
}

; Function Attrs: nounwind
declare dso_local i32 @atexit(void ()*) #2

; Function Attrs: nounwind
declare dso_local void @_ZNSt8ios_base4InitD1Ev(%"class.std::ios_base::Init"* nonnull align 1 dereferenceable(1)) unnamed_addr #3

; Function Attrs: mustprogress noinline nounwind uwtable
define dso_local void @_Z7convertiPi(i32 %0, i32* %1) #4 {
  %3 = alloca i32, align 4, !llfi_index !11
  %4 = alloca i32*, align 8, !llfi_index !12
  %5 = alloca i32, align 4, !llfi_index !13
  store i32 %0, i32* %3, align 4, !llfi_index !14
  store i32* %1, i32** %4, align 8, !llfi_index !15
  store i32 0, i32* %5, align 4, !llfi_index !16
  br label %6, !llfi_index !17

6:                                                ; preds = %37, %2
  %7 = load i32, i32* %5, align 4, !llfi_index !18
  %8 = load i32, i32* @nprimes, align 4, !llfi_index !19
  %9 = icmp slt i32 %7, %8, !llfi_index !20
  br i1 %9, label %10, label %40, !llfi_index !21

10:                                               ; preds = %6
  %11 = load i32*, i32** %4, align 8, !llfi_index !22
  %12 = load i32, i32* %5, align 4, !llfi_index !23
  %13 = sext i32 %12 to i64, !llfi_index !24
  %14 = getelementptr inbounds i32, i32* %11, i64 %13, !llfi_index !25
  store i32 0, i32* %14, align 4, !llfi_index !26
  br label %15, !llfi_index !27

15:                                               ; preds = %23, %10
  %16 = load i32, i32* %3, align 4, !llfi_index !28
  %17 = load i32, i32* %5, align 4, !llfi_index !29
  %18 = sext i32 %17 to i64, !llfi_index !30
  %19 = getelementptr inbounds [101 x i32], [101 x i32]* @primes, i64 0, i64 %18, !llfi_index !31
  %20 = load i32, i32* %19, align 4, !llfi_index !32
  %21 = srem i32 %16, %20, !llfi_index !33
  %22 = icmp eq i32 %21, 0, !llfi_index !34
  br i1 %22, label %23, label %36, !llfi_index !35

23:                                               ; preds = %15
  %24 = load i32, i32* %5, align 4, !llfi_index !36
  %25 = sext i32 %24 to i64, !llfi_index !37
  %26 = getelementptr inbounds [101 x i32], [101 x i32]* @primes, i64 0, i64 %25, !llfi_index !38
  %27 = load i32, i32* %26, align 4, !llfi_index !39
  %28 = load i32, i32* %3, align 4, !llfi_index !40
  %29 = sdiv i32 %28, %27, !llfi_index !41
  store i32 %29, i32* %3, align 4, !llfi_index !42
  %30 = load i32*, i32** %4, align 8, !llfi_index !43
  %31 = load i32, i32* %5, align 4, !llfi_index !44
  %32 = sext i32 %31 to i64, !llfi_index !45
  %33 = getelementptr inbounds i32, i32* %30, i64 %32, !llfi_index !46
  %34 = load i32, i32* %33, align 4, !llfi_index !47
  %35 = add nsw i32 %34, 1, !llfi_index !48
  store i32 %35, i32* %33, align 4, !llfi_index !49
  br label %15, !llvm.loop !50, !llfi_index !52

36:                                               ; preds = %15
  br label %37, !llfi_index !53

37:                                               ; preds = %36
  %38 = load i32, i32* %5, align 4, !llfi_index !54
  %39 = add nsw i32 %38, 1, !llfi_index !55
  store i32 %39, i32* %5, align 4, !llfi_index !56
  br label %6, !llvm.loop !57, !llfi_index !58

40:                                               ; preds = %6
  ret void, !llfi_index !59
}

; Function Attrs: mustprogress noinline uwtable
define dso_local void @_Z5buildiii(i32 %0, i32 %1, i32 %2) #5 {
  %4 = alloca i32, align 4, !llfi_index !60
  %5 = alloca i32, align 4, !llfi_index !61
  %6 = alloca i32, align 4, !llfi_index !62
  %7 = alloca i32, align 4, !llfi_index !63
  %8 = alloca i32, align 4, !llfi_index !64
  store i32 %0, i32* %4, align 4, !llfi_index !65
  store i32 %1, i32* %5, align 4, !llfi_index !66
  store i32 %2, i32* %6, align 4, !llfi_index !67
  %9 = load i32, i32* %5, align 4, !llfi_index !68
  %10 = load i32, i32* %6, align 4, !llfi_index !69
  %11 = icmp eq i32 %9, %10, !llfi_index !70
  br i1 %11, label %12, label %21, !llfi_index !71

12:                                               ; preds = %3
  %13 = load i32, i32* %5, align 4, !llfi_index !72
  %14 = sext i32 %13 to i64, !llfi_index !73
  %15 = getelementptr inbounds [50001 x i32], [50001 x i32]* @arr, i64 0, i64 %14, !llfi_index !74
  %16 = load i32, i32* %15, align 4, !llfi_index !75
  %17 = load i32, i32* %4, align 4, !llfi_index !76
  %18 = sext i32 %17 to i64, !llfi_index !77
  %19 = getelementptr inbounds [200000 x [25 x i32]], [200000 x [25 x i32]]* @segt, i64 0, i64 %18, !llfi_index !78
  %20 = getelementptr inbounds [25 x i32], [25 x i32]* %19, i64 0, i64 0, !llfi_index !79
  call void @_Z7convertiPi(i32 %16, i32* %20), !llfi_index !80
  br label %68, !llfi_index !81

21:                                               ; preds = %3
  %22 = load i32, i32* %5, align 4, !llfi_index !82
  %23 = load i32, i32* %6, align 4, !llfi_index !83
  %24 = add nsw i32 %22, %23, !llfi_index !84
  %25 = ashr i32 %24, 1, !llfi_index !85
  store i32 %25, i32* %7, align 4, !llfi_index !86
  %26 = load i32, i32* %4, align 4, !llfi_index !87
  %27 = mul nsw i32 2, %26, !llfi_index !88
  %28 = load i32, i32* %5, align 4, !llfi_index !89
  %29 = load i32, i32* %7, align 4, !llfi_index !90
  call void @_Z5buildiii(i32 %27, i32 %28, i32 %29), !llfi_index !91
  %30 = load i32, i32* %4, align 4, !llfi_index !92
  %31 = mul nsw i32 2, %30, !llfi_index !93
  %32 = add nsw i32 %31, 1, !llfi_index !94
  %33 = load i32, i32* %7, align 4, !llfi_index !95
  %34 = add nsw i32 %33, 1, !llfi_index !96
  %35 = load i32, i32* %6, align 4, !llfi_index !97
  call void @_Z5buildiii(i32 %32, i32 %34, i32 %35), !llfi_index !98
  store i32 0, i32* %8, align 4, !llfi_index !99
  br label %36, !llfi_index !100

36:                                               ; preds = %65, %21
  %37 = load i32, i32* %8, align 4, !llfi_index !101
  %38 = load i32, i32* @nprimes, align 4, !llfi_index !102
  %39 = icmp slt i32 %37, %38, !llfi_index !103
  br i1 %39, label %40, label %68, !llfi_index !104

40:                                               ; preds = %36
  %41 = load i32, i32* %4, align 4, !llfi_index !105
  %42 = mul nsw i32 2, %41, !llfi_index !106
  %43 = sext i32 %42 to i64, !llfi_index !107
  %44 = getelementptr inbounds [200000 x [25 x i32]], [200000 x [25 x i32]]* @segt, i64 0, i64 %43, !llfi_index !108
  %45 = load i32, i32* %8, align 4, !llfi_index !109
  %46 = sext i32 %45 to i64, !llfi_index !110
  %47 = getelementptr inbounds [25 x i32], [25 x i32]* %44, i64 0, i64 %46, !llfi_index !111
  %48 = load i32, i32* %47, align 4, !llfi_index !112
  %49 = load i32, i32* %4, align 4, !llfi_index !113
  %50 = mul nsw i32 2, %49, !llfi_index !114
  %51 = add nsw i32 %50, 1, !llfi_index !115
  %52 = sext i32 %51 to i64, !llfi_index !116
  %53 = getelementptr inbounds [200000 x [25 x i32]], [200000 x [25 x i32]]* @segt, i64 0, i64 %52, !llfi_index !117
  %54 = load i32, i32* %8, align 4, !llfi_index !118
  %55 = sext i32 %54 to i64, !llfi_index !119
  %56 = getelementptr inbounds [25 x i32], [25 x i32]* %53, i64 0, i64 %55, !llfi_index !120
  %57 = load i32, i32* %56, align 4, !llfi_index !121
  %58 = add nsw i32 %48, %57, !llfi_index !122
  %59 = load i32, i32* %4, align 4, !llfi_index !123
  %60 = sext i32 %59 to i64, !llfi_index !124
  %61 = getelementptr inbounds [200000 x [25 x i32]], [200000 x [25 x i32]]* @segt, i64 0, i64 %60, !llfi_index !125
  %62 = load i32, i32* %8, align 4, !llfi_index !126
  %63 = sext i32 %62 to i64, !llfi_index !127
  %64 = getelementptr inbounds [25 x i32], [25 x i32]* %61, i64 0, i64 %63, !llfi_index !128
  store i32 %58, i32* %64, align 4, !llfi_index !129
  br label %65, !llfi_index !130

65:                                               ; preds = %40
  %66 = load i32, i32* %8, align 4, !llfi_index !131
  %67 = add nsw i32 %66, 1, !llfi_index !132
  store i32 %67, i32* %8, align 4, !llfi_index !133
  br label %36, !llvm.loop !134, !llfi_index !135

68:                                               ; preds = %36, %12
  ret void, !llfi_index !136
}

; Function Attrs: mustprogress noinline nounwind uwtable
define dso_local void @_Z4pushiii(i32 %0, i32 %1, i32 %2) #4 {
  %4 = alloca i32, align 4, !llfi_index !137
  %5 = alloca i32, align 4, !llfi_index !138
  %6 = alloca i32, align 4, !llfi_index !139
  %7 = alloca i32, align 4, !llfi_index !140
  %8 = alloca i32, align 4, !llfi_index !141
  store i32 %0, i32* %4, align 4, !llfi_index !142
  store i32 %1, i32* %5, align 4, !llfi_index !143
  store i32 %2, i32* %6, align 4, !llfi_index !144
  %9 = load i32, i32* %4, align 4, !llfi_index !145
  %10 = sext i32 %9 to i64, !llfi_index !146
  %11 = getelementptr inbounds [200000 x i8], [200000 x i8]* @nsetv, i64 0, i64 %10, !llfi_index !147
  %12 = load i8, i8* %11, align 1, !llfi_index !148
  %13 = trunc i8 %12 to i1, !llfi_index !149
  br i1 %13, label %15, label %14, !llfi_index !150

14:                                               ; preds = %3
  br label %90, !llfi_index !151

15:                                               ; preds = %3
  store i32 0, i32* %7, align 4, !llfi_index !152
  br label %16, !llfi_index !153

16:                                               ; preds = %39, %15
  %17 = load i32, i32* %7, align 4, !llfi_index !154
  %18 = load i32, i32* @nprimes, align 4, !llfi_index !155
  %19 = icmp slt i32 %17, %18, !llfi_index !156
  br i1 %19, label %20, label %42, !llfi_index !157

20:                                               ; preds = %16
  %21 = load i32, i32* %4, align 4, !llfi_index !158
  %22 = sext i32 %21 to i64, !llfi_index !159
  %23 = getelementptr inbounds [200000 x [25 x i32]], [200000 x [25 x i32]]* @setv, i64 0, i64 %22, !llfi_index !160
  %24 = load i32, i32* %7, align 4, !llfi_index !161
  %25 = sext i32 %24 to i64, !llfi_index !162
  %26 = getelementptr inbounds [25 x i32], [25 x i32]* %23, i64 0, i64 %25, !llfi_index !163
  %27 = load i32, i32* %26, align 4, !llfi_index !164
  %28 = load i32, i32* %6, align 4, !llfi_index !165
  %29 = load i32, i32* %5, align 4, !llfi_index !166
  %30 = sub nsw i32 %28, %29, !llfi_index !167
  %31 = add nsw i32 %30, 1, !llfi_index !168
  %32 = mul nsw i32 %27, %31, !llfi_index !169
  %33 = load i32, i32* %4, align 4, !llfi_index !170
  %34 = sext i32 %33 to i64, !llfi_index !171
  %35 = getelementptr inbounds [200000 x [25 x i32]], [200000 x [25 x i32]]* @segt, i64 0, i64 %34, !llfi_index !172
  %36 = load i32, i32* %7, align 4, !llfi_index !173
  %37 = sext i32 %36 to i64, !llfi_index !174
  %38 = getelementptr inbounds [25 x i32], [25 x i32]* %35, i64 0, i64 %37, !llfi_index !175
  store i32 %32, i32* %38, align 4, !llfi_index !176
  br label %39, !llfi_index !177

39:                                               ; preds = %20
  %40 = load i32, i32* %7, align 4, !llfi_index !178
  %41 = add nsw i32 %40, 1, !llfi_index !179
  store i32 %41, i32* %7, align 4, !llfi_index !180
  br label %16, !llvm.loop !181, !llfi_index !182

42:                                               ; preds = %16
  %43 = load i32, i32* %5, align 4, !llfi_index !183
  %44 = load i32, i32* %6, align 4, !llfi_index !184
  %45 = icmp eq i32 %43, %44, !llfi_index !185
  br i1 %45, label %46, label %47, !llfi_index !186

46:                                               ; preds = %42
  br label %90, !llfi_index !187

47:                                               ; preds = %42
  %48 = load i32, i32* %4, align 4, !llfi_index !188
  %49 = mul nsw i32 2, %48, !llfi_index !189
  %50 = add nsw i32 %49, 1, !llfi_index !190
  %51 = sext i32 %50 to i64, !llfi_index !191
  %52 = getelementptr inbounds [200000 x i8], [200000 x i8]* @nsetv, i64 0, i64 %51, !llfi_index !192
  store i8 1, i8* %52, align 1, !llfi_index !193
  %53 = load i32, i32* %4, align 4, !llfi_index !194
  %54 = mul nsw i32 2, %53, !llfi_index !195
  %55 = sext i32 %54 to i64, !llfi_index !196
  %56 = getelementptr inbounds [200000 x i8], [200000 x i8]* @nsetv, i64 0, i64 %55, !llfi_index !197
  store i8 1, i8* %56, align 1, !llfi_index !198
  %57 = load i32, i32* %4, align 4, !llfi_index !199
  %58 = sext i32 %57 to i64, !llfi_index !200
  %59 = getelementptr inbounds [200000 x i8], [200000 x i8]* @nsetv, i64 0, i64 %58, !llfi_index !201
  store i8 0, i8* %59, align 1, !llfi_index !202
  store i32 0, i32* %8, align 4, !llfi_index !203
  br label %60, !llfi_index !204

60:                                               ; preds = %87, %47
  %61 = load i32, i32* %8, align 4, !llfi_index !205
  %62 = load i32, i32* @nprimes, align 4, !llfi_index !206
  %63 = icmp slt i32 %61, %62, !llfi_index !207
  br i1 %63, label %64, label %90, !llfi_index !208

64:                                               ; preds = %60
  %65 = load i32, i32* %4, align 4, !llfi_index !209
  %66 = sext i32 %65 to i64, !llfi_index !210
  %67 = getelementptr inbounds [200000 x [25 x i32]], [200000 x [25 x i32]]* @setv, i64 0, i64 %66, !llfi_index !211
  %68 = load i32, i32* %8, align 4, !llfi_index !212
  %69 = sext i32 %68 to i64, !llfi_index !213
  %70 = getelementptr inbounds [25 x i32], [25 x i32]* %67, i64 0, i64 %69, !llfi_index !214
  %71 = load i32, i32* %70, align 4, !llfi_index !215
  %72 = load i32, i32* %4, align 4, !llfi_index !216
  %73 = mul nsw i32 2, %72, !llfi_index !217
  %74 = add nsw i32 %73, 1, !llfi_index !218
  %75 = sext i32 %74 to i64, !llfi_index !219
  %76 = getelementptr inbounds [200000 x [25 x i32]], [200000 x [25 x i32]]* @setv, i64 0, i64 %75, !llfi_index !220
  %77 = load i32, i32* %8, align 4, !llfi_index !221
  %78 = sext i32 %77 to i64, !llfi_index !222
  %79 = getelementptr inbounds [25 x i32], [25 x i32]* %76, i64 0, i64 %78, !llfi_index !223
  store i32 %71, i32* %79, align 4, !llfi_index !224
  %80 = load i32, i32* %4, align 4, !llfi_index !225
  %81 = mul nsw i32 2, %80, !llfi_index !226
  %82 = sext i32 %81 to i64, !llfi_index !227
  %83 = getelementptr inbounds [200000 x [25 x i32]], [200000 x [25 x i32]]* @setv, i64 0, i64 %82, !llfi_index !228
  %84 = load i32, i32* %8, align 4, !llfi_index !229
  %85 = sext i32 %84 to i64, !llfi_index !230
  %86 = getelementptr inbounds [25 x i32], [25 x i32]* %83, i64 0, i64 %85, !llfi_index !231
  store i32 %71, i32* %86, align 4, !llfi_index !232
  br label %87, !llfi_index !233

87:                                               ; preds = %64
  %88 = load i32, i32* %8, align 4, !llfi_index !234
  %89 = add nsw i32 %88, 1, !llfi_index !235
  store i32 %89, i32* %8, align 4, !llfi_index !236
  br label %60, !llvm.loop !237, !llfi_index !238

90:                                               ; preds = %60, %46, %14
  ret void, !llfi_index !239
}

; Function Attrs: mustprogress noinline uwtable
define dso_local void @_Z5queryiiiiiPi(i32 %0, i32 %1, i32 %2, i32 %3, i32 %4, i32* %5) #5 {
  %7 = alloca i32, align 4, !llfi_index !240
  %8 = alloca i32, align 4, !llfi_index !241
  %9 = alloca i32, align 4, !llfi_index !242
  %10 = alloca i32, align 4, !llfi_index !243
  %11 = alloca i32, align 4, !llfi_index !244
  %12 = alloca i32*, align 8, !llfi_index !245
  %13 = alloca i32, align 4, !llfi_index !246
  %14 = alloca i32, align 4, !llfi_index !247
  %15 = alloca i32, align 4, !llfi_index !248
  store i32 %0, i32* %7, align 4, !llfi_index !249
  store i32 %1, i32* %8, align 4, !llfi_index !250
  store i32 %2, i32* %9, align 4, !llfi_index !251
  store i32 %3, i32* %10, align 4, !llfi_index !252
  store i32 %4, i32* %11, align 4, !llfi_index !253
  store i32* %5, i32** %12, align 8, !llfi_index !254
  %16 = load i32, i32* %10, align 4, !llfi_index !255
  %17 = load i32, i32* %11, align 4, !llfi_index !256
  %18 = icmp sgt i32 %16, %17, !llfi_index !257
  br i1 %18, label %19, label %20, !llfi_index !258

19:                                               ; preds = %6
  br label %79, !llfi_index !259

20:                                               ; preds = %6
  %21 = load i32, i32* %7, align 4, !llfi_index !260
  %22 = load i32, i32* %8, align 4, !llfi_index !261
  %23 = load i32, i32* %9, align 4, !llfi_index !262
  call void @_Z4pushiii(i32 %21, i32 %22, i32 %23), !llfi_index !263
  %24 = load i32, i32* %8, align 4, !llfi_index !264
  %25 = load i32, i32* %10, align 4, !llfi_index !265
  %26 = icmp eq i32 %24, %25, !llfi_index !266
  br i1 %26, label %27, label %54, !llfi_index !267

27:                                               ; preds = %20
  %28 = load i32, i32* %9, align 4, !llfi_index !268
  %29 = load i32, i32* %11, align 4, !llfi_index !269
  %30 = icmp eq i32 %28, %29, !llfi_index !270
  br i1 %30, label %31, label %54, !llfi_index !271

31:                                               ; preds = %27
  store i32 0, i32* %13, align 4, !llfi_index !272
  br label %32, !llfi_index !273

32:                                               ; preds = %50, %31
  %33 = load i32, i32* %13, align 4, !llfi_index !274
  %34 = load i32, i32* @nprimes, align 4, !llfi_index !275
  %35 = icmp slt i32 %33, %34, !llfi_index !276
  br i1 %35, label %36, label %53, !llfi_index !277

36:                                               ; preds = %32
  %37 = load i32, i32* %7, align 4, !llfi_index !278
  %38 = sext i32 %37 to i64, !llfi_index !279
  %39 = getelementptr inbounds [200000 x [25 x i32]], [200000 x [25 x i32]]* @segt, i64 0, i64 %38, !llfi_index !280
  %40 = load i32, i32* %13, align 4, !llfi_index !281
  %41 = sext i32 %40 to i64, !llfi_index !282
  %42 = getelementptr inbounds [25 x i32], [25 x i32]* %39, i64 0, i64 %41, !llfi_index !283
  %43 = load i32, i32* %42, align 4, !llfi_index !284
  %44 = load i32*, i32** %12, align 8, !llfi_index !285
  %45 = load i32, i32* %13, align 4, !llfi_index !286
  %46 = sext i32 %45 to i64, !llfi_index !287
  %47 = getelementptr inbounds i32, i32* %44, i64 %46, !llfi_index !288
  %48 = load i32, i32* %47, align 4, !llfi_index !289
  %49 = add nsw i32 %48, %43, !llfi_index !290
  store i32 %49, i32* %47, align 4, !llfi_index !291
  br label %50, !llfi_index !292

50:                                               ; preds = %36
  %51 = load i32, i32* %13, align 4, !llfi_index !293
  %52 = add nsw i32 %51, 1, !llfi_index !294
  store i32 %52, i32* %13, align 4, !llfi_index !295
  br label %32, !llvm.loop !296, !llfi_index !297

53:                                               ; preds = %32
  br label %79, !llfi_index !298

54:                                               ; preds = %27, %20
  %55 = load i32, i32* %8, align 4, !llfi_index !299
  %56 = load i32, i32* %9, align 4, !llfi_index !300
  %57 = add nsw i32 %55, %56, !llfi_index !301
  %58 = ashr i32 %57, 1, !llfi_index !302
  store i32 %58, i32* %14, align 4, !llfi_index !303
  %59 = load i32, i32* %7, align 4, !llfi_index !304
  %60 = mul nsw i32 2, %59, !llfi_index !305
  %61 = load i32, i32* %8, align 4, !llfi_index !306
  %62 = load i32, i32* %14, align 4, !llfi_index !307
  %63 = load i32, i32* %10, align 4, !llfi_index !308
  %64 = call nonnull align 4 dereferenceable(4) i32* @_ZSt3minIiERKT_S2_S2_(i32* nonnull align 4 dereferenceable(4) %11, i32* nonnull align 4 dereferenceable(4) %14), !llfi_index !309
  %65 = load i32, i32* %64, align 4, !llfi_index !310
  %66 = load i32*, i32** %12, align 8, !llfi_index !311
  call void @_Z5queryiiiiiPi(i32 %60, i32 %61, i32 %62, i32 %63, i32 %65, i32* %66), !llfi_index !312
  %67 = load i32, i32* %7, align 4, !llfi_index !313
  %68 = mul nsw i32 2, %67, !llfi_index !314
  %69 = add nsw i32 %68, 1, !llfi_index !315
  %70 = load i32, i32* %14, align 4, !llfi_index !316
  %71 = add nsw i32 %70, 1, !llfi_index !317
  %72 = load i32, i32* %9, align 4, !llfi_index !318
  %73 = load i32, i32* %14, align 4, !llfi_index !319
  %74 = add nsw i32 %73, 1, !llfi_index !320
  store i32 %74, i32* %15, align 4, !llfi_index !321
  %75 = call nonnull align 4 dereferenceable(4) i32* @_ZSt3maxIiERKT_S2_S2_(i32* nonnull align 4 dereferenceable(4) %10, i32* nonnull align 4 dereferenceable(4) %15), !llfi_index !322
  %76 = load i32, i32* %75, align 4, !llfi_index !323
  %77 = load i32, i32* %11, align 4, !llfi_index !324
  %78 = load i32*, i32** %12, align 8, !llfi_index !325
  call void @_Z5queryiiiiiPi(i32 %69, i32 %71, i32 %72, i32 %76, i32 %77, i32* %78), !llfi_index !326
  br label %79, !llfi_index !327

79:                                               ; preds = %54, %53, %19
  ret void, !llfi_index !328
}

; Function Attrs: mustprogress noinline nounwind uwtable
define linkonce_odr dso_local nonnull align 4 dereferenceable(4) i32* @_ZSt3minIiERKT_S2_S2_(i32* nonnull align 4 dereferenceable(4) %0, i32* nonnull align 4 dereferenceable(4) %1) #4 comdat {
  %3 = alloca i32*, align 8, !llfi_index !329
  %4 = alloca i32*, align 8, !llfi_index !330
  %5 = alloca i32*, align 8, !llfi_index !331
  store i32* %0, i32** %4, align 8, !llfi_index !332
  store i32* %1, i32** %5, align 8, !llfi_index !333
  %6 = load i32*, i32** %5, align 8, !llfi_index !334
  %7 = load i32, i32* %6, align 4, !llfi_index !335
  %8 = load i32*, i32** %4, align 8, !llfi_index !336
  %9 = load i32, i32* %8, align 4, !llfi_index !337
  %10 = icmp slt i32 %7, %9, !llfi_index !338
  br i1 %10, label %11, label %13, !llfi_index !339

11:                                               ; preds = %2
  %12 = load i32*, i32** %5, align 8, !llfi_index !340
  store i32* %12, i32** %3, align 8, !llfi_index !341
  br label %15, !llfi_index !342

13:                                               ; preds = %2
  %14 = load i32*, i32** %4, align 8, !llfi_index !343
  store i32* %14, i32** %3, align 8, !llfi_index !344
  br label %15, !llfi_index !345

15:                                               ; preds = %13, %11
  %16 = load i32*, i32** %3, align 8, !llfi_index !346
  ret i32* %16, !llfi_index !347
}

; Function Attrs: mustprogress noinline nounwind uwtable
define linkonce_odr dso_local nonnull align 4 dereferenceable(4) i32* @_ZSt3maxIiERKT_S2_S2_(i32* nonnull align 4 dereferenceable(4) %0, i32* nonnull align 4 dereferenceable(4) %1) #4 comdat {
  %3 = alloca i32*, align 8, !llfi_index !348
  %4 = alloca i32*, align 8, !llfi_index !349
  %5 = alloca i32*, align 8, !llfi_index !350
  store i32* %0, i32** %4, align 8, !llfi_index !351
  store i32* %1, i32** %5, align 8, !llfi_index !352
  %6 = load i32*, i32** %4, align 8, !llfi_index !353
  %7 = load i32, i32* %6, align 4, !llfi_index !354
  %8 = load i32*, i32** %5, align 8, !llfi_index !355
  %9 = load i32, i32* %8, align 4, !llfi_index !356
  %10 = icmp slt i32 %7, %9, !llfi_index !357
  br i1 %10, label %11, label %13, !llfi_index !358

11:                                               ; preds = %2
  %12 = load i32*, i32** %5, align 8, !llfi_index !359
  store i32* %12, i32** %3, align 8, !llfi_index !360
  br label %15, !llfi_index !361

13:                                               ; preds = %2
  %14 = load i32*, i32** %4, align 8, !llfi_index !362
  store i32* %14, i32** %3, align 8, !llfi_index !363
  br label %15, !llfi_index !364

15:                                               ; preds = %13, %11
  %16 = load i32*, i32** %3, align 8, !llfi_index !365
  ret i32* %16, !llfi_index !366
}

; Function Attrs: mustprogress noinline uwtable
define dso_local void @_Z6modifyiiiiiPi(i32 %0, i32 %1, i32 %2, i32 %3, i32 %4, i32* %5) #5 {
  %7 = alloca i32, align 4, !llfi_index !367
  %8 = alloca i32, align 4, !llfi_index !368
  %9 = alloca i32, align 4, !llfi_index !369
  %10 = alloca i32, align 4, !llfi_index !370
  %11 = alloca i32, align 4, !llfi_index !371
  %12 = alloca i32*, align 8, !llfi_index !372
  %13 = alloca i32, align 4, !llfi_index !373
  %14 = alloca i32, align 4, !llfi_index !374
  %15 = alloca i32, align 4, !llfi_index !375
  %16 = alloca i32, align 4, !llfi_index !376
  store i32 %0, i32* %7, align 4, !llfi_index !377
  store i32 %1, i32* %8, align 4, !llfi_index !378
  store i32 %2, i32* %9, align 4, !llfi_index !379
  store i32 %3, i32* %10, align 4, !llfi_index !380
  store i32 %4, i32* %11, align 4, !llfi_index !381
  store i32* %5, i32** %12, align 8, !llfi_index !382
  %17 = load i32, i32* %10, align 4, !llfi_index !383
  %18 = load i32, i32* %11, align 4, !llfi_index !384
  %19 = icmp sgt i32 %17, %18, !llfi_index !385
  br i1 %19, label %20, label %21, !llfi_index !386

20:                                               ; preds = %6
  br label %123, !llfi_index !387

21:                                               ; preds = %6
  %22 = load i32, i32* %7, align 4, !llfi_index !388
  %23 = load i32, i32* %8, align 4, !llfi_index !389
  %24 = load i32, i32* %9, align 4, !llfi_index !390
  call void @_Z4pushiii(i32 %22, i32 %23, i32 %24), !llfi_index !391
  %25 = load i32, i32* %8, align 4, !llfi_index !392
  %26 = load i32, i32* %10, align 4, !llfi_index !393
  %27 = icmp eq i32 %25, %26, !llfi_index !394
  br i1 %27, label %28, label %56, !llfi_index !395

28:                                               ; preds = %21
  %29 = load i32, i32* %9, align 4, !llfi_index !396
  %30 = load i32, i32* %11, align 4, !llfi_index !397
  %31 = icmp eq i32 %29, %30, !llfi_index !398
  br i1 %31, label %32, label %56, !llfi_index !399

32:                                               ; preds = %28
  store i32 0, i32* %13, align 4, !llfi_index !400
  br label %33, !llfi_index !401

33:                                               ; preds = %49, %32
  %34 = load i32, i32* %13, align 4, !llfi_index !402
  %35 = load i32, i32* @nprimes, align 4, !llfi_index !403
  %36 = icmp slt i32 %34, %35, !llfi_index !404
  br i1 %36, label %37, label %52, !llfi_index !405

37:                                               ; preds = %33
  %38 = load i32*, i32** %12, align 8, !llfi_index !406
  %39 = load i32, i32* %13, align 4, !llfi_index !407
  %40 = sext i32 %39 to i64, !llfi_index !408
  %41 = getelementptr inbounds i32, i32* %38, i64 %40, !llfi_index !409
  %42 = load i32, i32* %41, align 4, !llfi_index !410
  %43 = load i32, i32* %7, align 4, !llfi_index !411
  %44 = sext i32 %43 to i64, !llfi_index !412
  %45 = getelementptr inbounds [200000 x [25 x i32]], [200000 x [25 x i32]]* @setv, i64 0, i64 %44, !llfi_index !413
  %46 = load i32, i32* %13, align 4, !llfi_index !414
  %47 = sext i32 %46 to i64, !llfi_index !415
  %48 = getelementptr inbounds [25 x i32], [25 x i32]* %45, i64 0, i64 %47, !llfi_index !416
  store i32 %42, i32* %48, align 4, !llfi_index !417
  br label %49, !llfi_index !418

49:                                               ; preds = %37
  %50 = load i32, i32* %13, align 4, !llfi_index !419
  %51 = add nsw i32 %50, 1, !llfi_index !420
  store i32 %51, i32* %13, align 4, !llfi_index !421
  br label %33, !llvm.loop !422, !llfi_index !423

52:                                               ; preds = %33
  %53 = load i32, i32* %7, align 4, !llfi_index !424
  %54 = sext i32 %53 to i64, !llfi_index !425
  %55 = getelementptr inbounds [200000 x i8], [200000 x i8]* @nsetv, i64 0, i64 %54, !llfi_index !426
  store i8 1, i8* %55, align 1, !llfi_index !427
  br label %123, !llfi_index !428

56:                                               ; preds = %28, %21
  %57 = load i32, i32* %8, align 4, !llfi_index !429
  %58 = load i32, i32* %9, align 4, !llfi_index !430
  %59 = add nsw i32 %57, %58, !llfi_index !431
  %60 = ashr i32 %59, 1, !llfi_index !432
  store i32 %60, i32* %14, align 4, !llfi_index !433
  %61 = load i32, i32* %7, align 4, !llfi_index !434
  %62 = mul nsw i32 2, %61, !llfi_index !435
  %63 = load i32, i32* %8, align 4, !llfi_index !436
  %64 = load i32, i32* %14, align 4, !llfi_index !437
  %65 = load i32, i32* %10, align 4, !llfi_index !438
  %66 = call nonnull align 4 dereferenceable(4) i32* @_ZSt3minIiERKT_S2_S2_(i32* nonnull align 4 dereferenceable(4) %11, i32* nonnull align 4 dereferenceable(4) %14), !llfi_index !439
  %67 = load i32, i32* %66, align 4, !llfi_index !440
  %68 = load i32*, i32** %12, align 8, !llfi_index !441
  call void @_Z6modifyiiiiiPi(i32 %62, i32 %63, i32 %64, i32 %65, i32 %67, i32* %68), !llfi_index !442
  %69 = load i32, i32* %7, align 4, !llfi_index !443
  %70 = mul nsw i32 2, %69, !llfi_index !444
  %71 = add nsw i32 %70, 1, !llfi_index !445
  %72 = load i32, i32* %14, align 4, !llfi_index !446
  %73 = add nsw i32 %72, 1, !llfi_index !447
  %74 = load i32, i32* %9, align 4, !llfi_index !448
  %75 = load i32, i32* %14, align 4, !llfi_index !449
  %76 = add nsw i32 %75, 1, !llfi_index !450
  store i32 %76, i32* %15, align 4, !llfi_index !451
  %77 = call nonnull align 4 dereferenceable(4) i32* @_ZSt3maxIiERKT_S2_S2_(i32* nonnull align 4 dereferenceable(4) %10, i32* nonnull align 4 dereferenceable(4) %15), !llfi_index !452
  %78 = load i32, i32* %77, align 4, !llfi_index !453
  %79 = load i32, i32* %11, align 4, !llfi_index !454
  %80 = load i32*, i32** %12, align 8, !llfi_index !455
  call void @_Z6modifyiiiiiPi(i32 %71, i32 %73, i32 %74, i32 %78, i32 %79, i32* %80), !llfi_index !456
  %81 = load i32, i32* %7, align 4, !llfi_index !457
  %82 = mul nsw i32 2, %81, !llfi_index !458
  %83 = load i32, i32* %8, align 4, !llfi_index !459
  %84 = load i32, i32* %14, align 4, !llfi_index !460
  call void @_Z4pushiii(i32 %82, i32 %83, i32 %84), !llfi_index !461
  %85 = load i32, i32* %7, align 4, !llfi_index !462
  %86 = mul nsw i32 2, %85, !llfi_index !463
  %87 = add nsw i32 %86, 1, !llfi_index !464
  %88 = load i32, i32* %14, align 4, !llfi_index !465
  %89 = add nsw i32 %88, 1, !llfi_index !466
  %90 = load i32, i32* %9, align 4, !llfi_index !467
  call void @_Z4pushiii(i32 %87, i32 %89, i32 %90), !llfi_index !468
  store i32 0, i32* %16, align 4, !llfi_index !469
  br label %91, !llfi_index !470

91:                                               ; preds = %120, %56
  %92 = load i32, i32* %16, align 4, !llfi_index !471
  %93 = load i32, i32* @nprimes, align 4, !llfi_index !472
  %94 = icmp slt i32 %92, %93, !llfi_index !473
  br i1 %94, label %95, label %123, !llfi_index !474

95:                                               ; preds = %91
  %96 = load i32, i32* %7, align 4, !llfi_index !475
  %97 = mul nsw i32 2, %96, !llfi_index !476
  %98 = sext i32 %97 to i64, !llfi_index !477
  %99 = getelementptr inbounds [200000 x [25 x i32]], [200000 x [25 x i32]]* @segt, i64 0, i64 %98, !llfi_index !478
  %100 = load i32, i32* %16, align 4, !llfi_index !479
  %101 = sext i32 %100 to i64, !llfi_index !480
  %102 = getelementptr inbounds [25 x i32], [25 x i32]* %99, i64 0, i64 %101, !llfi_index !481
  %103 = load i32, i32* %102, align 4, !llfi_index !482
  %104 = load i32, i32* %7, align 4, !llfi_index !483
  %105 = mul nsw i32 2, %104, !llfi_index !484
  %106 = add nsw i32 %105, 1, !llfi_index !485
  %107 = sext i32 %106 to i64, !llfi_index !486
  %108 = getelementptr inbounds [200000 x [25 x i32]], [200000 x [25 x i32]]* @segt, i64 0, i64 %107, !llfi_index !487
  %109 = load i32, i32* %16, align 4, !llfi_index !488
  %110 = sext i32 %109 to i64, !llfi_index !489
  %111 = getelementptr inbounds [25 x i32], [25 x i32]* %108, i64 0, i64 %110, !llfi_index !490
  %112 = load i32, i32* %111, align 4, !llfi_index !491
  %113 = add nsw i32 %103, %112, !llfi_index !492
  %114 = load i32, i32* %7, align 4, !llfi_index !493
  %115 = sext i32 %114 to i64, !llfi_index !494
  %116 = getelementptr inbounds [200000 x [25 x i32]], [200000 x [25 x i32]]* @segt, i64 0, i64 %115, !llfi_index !495
  %117 = load i32, i32* %16, align 4, !llfi_index !496
  %118 = sext i32 %117 to i64, !llfi_index !497
  %119 = getelementptr inbounds [25 x i32], [25 x i32]* %116, i64 0, i64 %118, !llfi_index !498
  store i32 %113, i32* %119, align 4, !llfi_index !499
  br label %120, !llfi_index !500

120:                                              ; preds = %95
  %121 = load i32, i32* %16, align 4, !llfi_index !501
  %122 = add nsw i32 %121, 1, !llfi_index !502
  store i32 %122, i32* %16, align 4, !llfi_index !503
  br label %91, !llvm.loop !504, !llfi_index !505

123:                                              ; preds = %91, %52, %20
  ret void, !llfi_index !506
}

; Function Attrs: mustprogress noinline nounwind uwtable
define dso_local i32 @_Z7fastpowiii(i32 %0, i32 %1, i32 %2) #4 {
  %4 = alloca i32, align 4, !llfi_index !507
  %5 = alloca i32, align 4, !llfi_index !508
  %6 = alloca i32, align 4, !llfi_index !509
  %7 = alloca i64, align 8, !llfi_index !510
  %8 = alloca i64, align 8, !llfi_index !511
  store i32 %0, i32* %4, align 4, !llfi_index !512
  store i32 %1, i32* %5, align 4, !llfi_index !513
  store i32 %2, i32* %6, align 4, !llfi_index !514
  %9 = load i32, i32* %4, align 4, !llfi_index !515
  %10 = sext i32 %9 to i64, !llfi_index !516
  store i64 %10, i64* %7, align 8, !llfi_index !517
  store i64 1, i64* %8, align 8, !llfi_index !518
  br label %11, !llfi_index !519

11:                                               ; preds = %25, %3
  %12 = load i32, i32* %5, align 4, !llfi_index !520
  %13 = icmp ne i32 %12, 0, !llfi_index !521
  br i1 %13, label %14, label %34, !llfi_index !522

14:                                               ; preds = %11
  %15 = load i32, i32* %5, align 4, !llfi_index !523
  %16 = and i32 %15, 1, !llfi_index !524
  %17 = icmp ne i32 %16, 0, !llfi_index !525
  br i1 %17, label %18, label %25, !llfi_index !526

18:                                               ; preds = %14
  %19 = load i64, i64* %8, align 8, !llfi_index !527
  %20 = load i64, i64* %7, align 8, !llfi_index !528
  %21 = mul nsw i64 %19, %20, !llfi_index !529
  %22 = load i32, i32* %6, align 4, !llfi_index !530
  %23 = sext i32 %22 to i64, !llfi_index !531
  %24 = srem i64 %21, %23, !llfi_index !532
  store i64 %24, i64* %8, align 8, !llfi_index !533
  br label %25, !llfi_index !534

25:                                               ; preds = %18, %14
  %26 = load i64, i64* %7, align 8, !llfi_index !535
  %27 = load i64, i64* %7, align 8, !llfi_index !536
  %28 = mul nsw i64 %26, %27, !llfi_index !537
  %29 = load i32, i32* %6, align 4, !llfi_index !538
  %30 = sext i32 %29 to i64, !llfi_index !539
  %31 = srem i64 %28, %30, !llfi_index !540
  store i64 %31, i64* %7, align 8, !llfi_index !541
  %32 = load i32, i32* %5, align 4, !llfi_index !542
  %33 = ashr i32 %32, 1, !llfi_index !543
  store i32 %33, i32* %5, align 4, !llfi_index !544
  br label %11, !llvm.loop !545, !llfi_index !546

34:                                               ; preds = %11
  %35 = load i64, i64* %8, align 8, !llfi_index !547
  %36 = trunc i64 %35 to i32, !llfi_index !548
  ret i32 %36, !llfi_index !549
}

; Function Attrs: mustprogress noinline norecurse uwtable
define dso_local i32 @main() #6 {
  %1 = alloca i32, align 4, !llfi_index !550
  %2 = alloca i32, align 4, !llfi_index !551
  %3 = alloca i32, align 4, !llfi_index !552
  %4 = alloca i32, align 4, !llfi_index !553
  %5 = alloca i32, align 4, !llfi_index !554
  %6 = alloca i32, align 4, !llfi_index !555
  %7 = alloca i32, align 4, !llfi_index !556
  %8 = alloca i32, align 4, !llfi_index !557
  %9 = alloca i32, align 4, !llfi_index !558
  %10 = alloca i32, align 4, !llfi_index !559
  %11 = alloca i32, align 4, !llfi_index !560
  %12 = alloca i32, align 4, !llfi_index !561
  %13 = alloca i32, align 4, !llfi_index !562
  %14 = alloca i32, align 4, !llfi_index !563
  %15 = alloca i32, align 4, !llfi_index !564
  %16 = alloca i32, align 4, !llfi_index !565
  %17 = alloca i32, align 4, !llfi_index !566
  %18 = alloca i32, align 4, !llfi_index !567
  %19 = alloca i8, align 1, !llfi_index !568
  %20 = alloca i32, align 4, !llfi_index !569
  %21 = alloca i64, align 8, !llfi_index !570
  %22 = alloca i32, align 4, !llfi_index !571
  store i32 0, i32* %1, align 4, !llfi_index !572
  %23 = load %struct._IO_FILE*, %struct._IO_FILE** @stdin, align 8, !llfi_index !573
  %24 = call %struct._IO_FILE* @freopen(i8* getelementptr inbounds ([31 x i8], [31 x i8]* @.str, i64 0, i64 0), i8* getelementptr inbounds ([2 x i8], [2 x i8]* @.str.1, i64 0, i64 0), %struct._IO_FILE* %23), !llfi_index !574
  %25 = call zeroext i1 @_ZNSt8ios_base15sync_with_stdioEb(i1 zeroext false), !llfi_index !575
  %26 = load i8*, i8** bitcast (%"class.std::basic_istream"* @_ZSt3cin to i8**), align 8, !llfi_index !576
  %27 = getelementptr i8, i8* %26, i64 -24, !llfi_index !577
  %28 = bitcast i8* %27 to i64*, !llfi_index !578
  %29 = load i64, i64* %28, align 8, !llfi_index !579
  %30 = getelementptr inbounds i8, i8* bitcast (%"class.std::basic_istream"* @_ZSt3cin to i8*), i64 %29, !llfi_index !580
  %31 = bitcast i8* %30 to %"class.std::basic_ios"*, !llfi_index !581
  %32 = call %"class.std::basic_ostream"* @_ZNSt9basic_iosIcSt11char_traitsIcEE3tieEPSo(%"class.std::basic_ios"* nonnull align 8 dereferenceable(264) %31, %"class.std::basic_ostream"* null), !llfi_index !582
  store i32 89, i32* %2, align 4, !llfi_index !583
  store i32 2, i32* %3, align 4, !llfi_index !584
  br label %33, !llfi_index !585

33:                                               ; preds = %64, %0
  %34 = load i32, i32* %3, align 4, !llfi_index !586
  %35 = icmp slt i32 %34, 101, !llfi_index !587
  br i1 %35, label %36, label %67, !llfi_index !588

36:                                               ; preds = %33
  %37 = load i32, i32* %3, align 4, !llfi_index !589
  %38 = sext i32 %37 to i64, !llfi_index !590
  %39 = getelementptr inbounds [101 x i8], [101 x i8]* @composite, i64 0, i64 %38, !llfi_index !591
  %40 = load i8, i8* %39, align 1, !llfi_index !592
  %41 = trunc i8 %40 to i1, !llfi_index !593
  br i1 %41, label %42, label %43, !llfi_index !594

42:                                               ; preds = %36
  br label %64, !llfi_index !595

43:                                               ; preds = %36
  %44 = load i32, i32* %3, align 4, !llfi_index !596
  %45 = load i32, i32* @nprimes, align 4, !llfi_index !597
  %46 = add nsw i32 %45, 1, !llfi_index !598
  store i32 %46, i32* @nprimes, align 4, !llfi_index !599
  %47 = sext i32 %45 to i64, !llfi_index !600
  %48 = getelementptr inbounds [101 x i32], [101 x i32]* @primes, i64 0, i64 %47, !llfi_index !601
  store i32 %44, i32* %48, align 4, !llfi_index !602
  store i32 89, i32* %2, align 4, !llfi_index !603
  %49 = load i32, i32* %3, align 4, !llfi_index !604
  %50 = load i32, i32* %3, align 4, !llfi_index !605
  %51 = mul nsw i32 %49, %50, !llfi_index !606
  store i32 %51, i32* %4, align 4, !llfi_index !607
  br label %52, !llfi_index !608

52:                                               ; preds = %59, %43
  %53 = load i32, i32* %4, align 4, !llfi_index !609
  %54 = icmp slt i32 %53, 101, !llfi_index !610
  br i1 %54, label %55, label %63, !llfi_index !611

55:                                               ; preds = %52
  %56 = load i32, i32* %4, align 4, !llfi_index !612
  %57 = sext i32 %56 to i64, !llfi_index !613
  %58 = getelementptr inbounds [101 x i8], [101 x i8]* @composite, i64 0, i64 %57, !llfi_index !614
  store i8 1, i8* %58, align 1, !llfi_index !615
  br label %59, !llfi_index !616

59:                                               ; preds = %55
  %60 = load i32, i32* %3, align 4, !llfi_index !617
  %61 = load i32, i32* %4, align 4, !llfi_index !618
  %62 = add nsw i32 %61, %60, !llfi_index !619
  store i32 %62, i32* %4, align 4, !llfi_index !620
  br label %52, !llvm.loop !621, !llfi_index !622

63:                                               ; preds = %52
  br label %64, !llfi_index !623

64:                                               ; preds = %63, %42
  %65 = load i32, i32* %3, align 4, !llfi_index !624
  %66 = add nsw i32 %65, 1, !llfi_index !625
  store i32 %66, i32* %3, align 4, !llfi_index !626
  br label %33, !llvm.loop !627, !llfi_index !628

67:                                               ; preds = %33
  %68 = call nonnull align 8 dereferenceable(16) %"class.std::basic_istream"* @_ZNSirsERi(%"class.std::basic_istream"* nonnull align 8 dereferenceable(16) @_ZSt3cin, i32* nonnull align 4 dereferenceable(4) %5), !llfi_index !629
  store i32 89, i32* %2, align 4, !llfi_index !630
  store i32 0, i32* %6, align 4, !llfi_index !631
  br label %69, !llfi_index !632

69:                                               ; preds = %78, %67
  %70 = load i32, i32* %6, align 4, !llfi_index !633
  %71 = load i32, i32* %5, align 4, !llfi_index !634
  %72 = icmp slt i32 %70, %71, !llfi_index !635
  br i1 %72, label %73, label %81, !llfi_index !636

73:                                               ; preds = %69
  %74 = load i32, i32* %6, align 4, !llfi_index !637
  %75 = sext i32 %74 to i64, !llfi_index !638
  %76 = getelementptr inbounds [50001 x i32], [50001 x i32]* @arr, i64 0, i64 %75, !llfi_index !639
  %77 = call nonnull align 8 dereferenceable(16) %"class.std::basic_istream"* @_ZNSirsERi(%"class.std::basic_istream"* nonnull align 8 dereferenceable(16) @_ZSt3cin, i32* nonnull align 4 dereferenceable(4) %76), !llfi_index !640
  br label %78, !llfi_index !641

78:                                               ; preds = %73
  %79 = load i32, i32* %6, align 4, !llfi_index !642
  %80 = add nsw i32 %79, 1, !llfi_index !643
  store i32 %80, i32* %6, align 4, !llfi_index !644
  br label %69, !llvm.loop !645, !llfi_index !646

81:                                               ; preds = %69
  %82 = load i32, i32* %5, align 4, !llfi_index !647
  %83 = sub nsw i32 %82, 1, !llfi_index !648
  call void @_Z5buildiii(i32 1, i32 0, i32 %83), !llfi_index !649
  %84 = call nonnull align 8 dereferenceable(16) %"class.std::basic_istream"* @_ZNSirsERi(%"class.std::basic_istream"* nonnull align 8 dereferenceable(16) @_ZSt3cin, i32* nonnull align 4 dereferenceable(4) %7), !llfi_index !650
  store i32 89, i32* %2, align 4, !llfi_index !651
  store i32 0, i32* %8, align 4, !llfi_index !652
  br label %85, !llfi_index !653

85:                                               ; preds = %196, %81
  %86 = load i32, i32* %8, align 4, !llfi_index !654
  %87 = load i32, i32* %7, align 4, !llfi_index !655
  %88 = icmp slt i32 %86, %87, !llfi_index !656
  br i1 %88, label %89, label %199, !llfi_index !657

89:                                               ; preds = %85
  %90 = call nonnull align 8 dereferenceable(16) %"class.std::basic_istream"* @_ZNSirsERi(%"class.std::basic_istream"* nonnull align 8 dereferenceable(16) @_ZSt3cin, i32* nonnull align 4 dereferenceable(4) %9), !llfi_index !658
  %91 = load i32, i32* %9, align 4, !llfi_index !659
  %92 = icmp eq i32 %91, 1, !llfi_index !660
  br i1 %92, label %93, label %106, !llfi_index !661

93:                                               ; preds = %89
  %94 = call nonnull align 8 dereferenceable(16) %"class.std::basic_istream"* @_ZNSirsERi(%"class.std::basic_istream"* nonnull align 8 dereferenceable(16) @_ZSt3cin, i32* nonnull align 4 dereferenceable(4) %10), !llfi_index !662
  %95 = call nonnull align 8 dereferenceable(16) %"class.std::basic_istream"* @_ZNSirsERi(%"class.std::basic_istream"* nonnull align 8 dereferenceable(16) %94, i32* nonnull align 4 dereferenceable(4) %11), !llfi_index !663
  %96 = call nonnull align 8 dereferenceable(16) %"class.std::basic_istream"* @_ZNSirsERi(%"class.std::basic_istream"* nonnull align 8 dereferenceable(16) %95, i32* nonnull align 4 dereferenceable(4) %12), !llfi_index !664
  %97 = load i32, i32* %10, align 4, !llfi_index !665
  %98 = add nsw i32 %97, -1, !llfi_index !666
  store i32 %98, i32* %10, align 4, !llfi_index !667
  %99 = load i32, i32* %11, align 4, !llfi_index !668
  %100 = add nsw i32 %99, -1, !llfi_index !669
  store i32 %100, i32* %11, align 4, !llfi_index !670
  %101 = load i32, i32* %12, align 4, !llfi_index !671
  call void @_Z7convertiPi(i32 %101, i32* getelementptr inbounds ([25 x i32], [25 x i32]* @converted, i64 0, i64 0)), !llfi_index !672
  %102 = load i32, i32* %5, align 4, !llfi_index !673
  %103 = sub nsw i32 %102, 1, !llfi_index !674
  %104 = load i32, i32* %10, align 4, !llfi_index !675
  %105 = load i32, i32* %11, align 4, !llfi_index !676
  call void @_Z6modifyiiiiiPi(i32 1, i32 0, i32 %103, i32 %104, i32 %105, i32* getelementptr inbounds ([25 x i32], [25 x i32]* @converted, i64 0, i64 0)), !llfi_index !677
  br label %195, !llfi_index !678

106:                                              ; preds = %89
  store i32 89, i32* %2, align 4, !llfi_index !679
  %107 = call nonnull align 8 dereferenceable(16) %"class.std::basic_istream"* @_ZNSirsERi(%"class.std::basic_istream"* nonnull align 8 dereferenceable(16) @_ZSt3cin, i32* nonnull align 4 dereferenceable(4) %13), !llfi_index !680
  %108 = call nonnull align 8 dereferenceable(16) %"class.std::basic_istream"* @_ZNSirsERi(%"class.std::basic_istream"* nonnull align 8 dereferenceable(16) %107, i32* nonnull align 4 dereferenceable(4) %14), !llfi_index !681
  %109 = call nonnull align 8 dereferenceable(16) %"class.std::basic_istream"* @_ZNSirsERi(%"class.std::basic_istream"* nonnull align 8 dereferenceable(16) %108, i32* nonnull align 4 dereferenceable(4) %15), !llfi_index !682
  %110 = call nonnull align 8 dereferenceable(16) %"class.std::basic_istream"* @_ZNSirsERi(%"class.std::basic_istream"* nonnull align 8 dereferenceable(16) %109, i32* nonnull align 4 dereferenceable(4) %16), !llfi_index !683
  %111 = call nonnull align 8 dereferenceable(16) %"class.std::basic_istream"* @_ZNSirsERi(%"class.std::basic_istream"* nonnull align 8 dereferenceable(16) %110, i32* nonnull align 4 dereferenceable(4) %17), !llfi_index !684
  %112 = load i32, i32* %13, align 4, !llfi_index !685
  %113 = add nsw i32 %112, -1, !llfi_index !686
  store i32 %113, i32* %13, align 4, !llfi_index !687
  %114 = load i32, i32* %14, align 4, !llfi_index !688
  %115 = add nsw i32 %114, -1, !llfi_index !689
  store i32 %115, i32* %14, align 4, !llfi_index !690
  %116 = load i32, i32* %15, align 4, !llfi_index !691
  %117 = add nsw i32 %116, -1, !llfi_index !692
  store i32 %117, i32* %15, align 4, !llfi_index !693
  %118 = load i32, i32* %16, align 4, !llfi_index !694
  %119 = add nsw i32 %118, -1, !llfi_index !695
  store i32 %119, i32* %16, align 4, !llfi_index !696
  call void @llvm.memset.p0i8.i64(i8* align 16 bitcast ([25 x i32]* @converted to i8*), i8 0, i64 100, i1 false), !llfi_index !697
  %120 = load i32, i32* %5, align 4, !llfi_index !698
  %121 = sub nsw i32 %120, 1, !llfi_index !699
  %122 = load i32, i32* %15, align 4, !llfi_index !700
  %123 = load i32, i32* %16, align 4, !llfi_index !701
  call void @_Z5queryiiiiiPi(i32 1, i32 0, i32 %121, i32 %122, i32 %123, i32* getelementptr inbounds ([25 x i32], [25 x i32]* @converted, i64 0, i64 0)), !llfi_index !702
  store i32 0, i32* %18, align 4, !llfi_index !703
  br label %124, !llfi_index !704

124:                                              ; preds = %137, %106
  %125 = load i32, i32* %18, align 4, !llfi_index !705
  %126 = load i32, i32* @nprimes, align 4, !llfi_index !706
  %127 = icmp slt i32 %125, %126, !llfi_index !707
  br i1 %127, label %128, label %140, !llfi_index !708

128:                                              ; preds = %124
  %129 = load i32, i32* %18, align 4, !llfi_index !709
  %130 = sext i32 %129 to i64, !llfi_index !710
  %131 = getelementptr inbounds [25 x i32], [25 x i32]* @converted, i64 0, i64 %130, !llfi_index !711
  %132 = load i32, i32* %131, align 4, !llfi_index !712
  %133 = sub nsw i32 0, %132, !llfi_index !713
  %134 = load i32, i32* %18, align 4, !llfi_index !714
  %135 = sext i32 %134 to i64, !llfi_index !715
  %136 = getelementptr inbounds [25 x i32], [25 x i32]* @converted, i64 0, i64 %135, !llfi_index !716
  store i32 %133, i32* %136, align 4, !llfi_index !717
  br label %137, !llfi_index !718

137:                                              ; preds = %128
  %138 = load i32, i32* %18, align 4, !llfi_index !719
  %139 = add nsw i32 %138, 1, !llfi_index !720
  store i32 %139, i32* %18, align 4, !llfi_index !721
  br label %124, !llvm.loop !722, !llfi_index !723

140:                                              ; preds = %124
  %141 = load i32, i32* %5, align 4, !llfi_index !724
  %142 = sub nsw i32 %141, 1, !llfi_index !725
  %143 = load i32, i32* %13, align 4, !llfi_index !726
  %144 = load i32, i32* %14, align 4, !llfi_index !727
  call void @_Z5queryiiiiiPi(i32 1, i32 0, i32 %142, i32 %143, i32 %144, i32* getelementptr inbounds ([25 x i32], [25 x i32]* @converted, i64 0, i64 0)), !llfi_index !728
  store i8 1, i8* %19, align 1, !llfi_index !729
  store i32 0, i32* %20, align 4, !llfi_index !730
  br label %145, !llfi_index !731

145:                                              ; preds = %157, %140
  %146 = load i32, i32* %20, align 4, !llfi_index !732
  %147 = load i32, i32* @nprimes, align 4, !llfi_index !733
  %148 = icmp slt i32 %146, %147, !llfi_index !734
  br i1 %148, label %149, label %160, !llfi_index !735

149:                                              ; preds = %145
  %150 = load i32, i32* %20, align 4, !llfi_index !736
  %151 = sext i32 %150 to i64, !llfi_index !737
  %152 = getelementptr inbounds [25 x i32], [25 x i32]* @converted, i64 0, i64 %151, !llfi_index !738
  %153 = load i32, i32* %152, align 4, !llfi_index !739
  %154 = icmp slt i32 %153, 0, !llfi_index !740
  br i1 %154, label %155, label %156, !llfi_index !741

155:                                              ; preds = %149
  store i8 0, i8* %19, align 1, !llfi_index !742
  br label %160, !llfi_index !743

156:                                              ; preds = %149
  br label %157, !llfi_index !744

157:                                              ; preds = %156
  %158 = load i32, i32* %20, align 4, !llfi_index !745
  %159 = add nsw i32 %158, 1, !llfi_index !746
  store i32 %159, i32* %20, align 4, !llfi_index !747
  br label %145, !llvm.loop !748, !llfi_index !749

160:                                              ; preds = %155, %145
  %161 = load i8, i8* %19, align 1, !llfi_index !750
  %162 = trunc i8 %161 to i1, !llfi_index !751
  br i1 %162, label %166, label %163, !llfi_index !752

163:                                              ; preds = %160
  %164 = call nonnull align 8 dereferenceable(8) %"class.std::basic_ostream"* @_ZNSolsEi(%"class.std::basic_ostream"* nonnull align 8 dereferenceable(8) @_ZSt4cout, i32 -1), !llfi_index !753
  %165 = call nonnull align 8 dereferenceable(8) %"class.std::basic_ostream"* @_ZNSolsEPFRSoS_E(%"class.std::basic_ostream"* nonnull align 8 dereferenceable(8) %164, %"class.std::basic_ostream"* (%"class.std::basic_ostream"*)* @_ZSt4endlIcSt11char_traitsIcEERSt13basic_ostreamIT_T0_ES6_), !llfi_index !754
  br label %196, !llfi_index !755

166:                                              ; preds = %160
  store i64 1, i64* %21, align 8, !llfi_index !756
  store i32 0, i32* %22, align 4, !llfi_index !757
  br label %167, !llfi_index !758

167:                                              ; preds = %188, %166
  %168 = load i32, i32* %22, align 4, !llfi_index !759
  %169 = load i32, i32* @nprimes, align 4, !llfi_index !760
  %170 = icmp slt i32 %168, %169, !llfi_index !761
  br i1 %170, label %171, label %191, !llfi_index !762

171:                                              ; preds = %167
  %172 = load i64, i64* %21, align 8, !llfi_index !763
  %173 = load i32, i32* %22, align 4, !llfi_index !764
  %174 = sext i32 %173 to i64, !llfi_index !765
  %175 = getelementptr inbounds [101 x i32], [101 x i32]* @primes, i64 0, i64 %174, !llfi_index !766
  %176 = load i32, i32* %175, align 4, !llfi_index !767
  %177 = load i32, i32* %22, align 4, !llfi_index !768
  %178 = sext i32 %177 to i64, !llfi_index !769
  %179 = getelementptr inbounds [25 x i32], [25 x i32]* @converted, i64 0, i64 %178, !llfi_index !770
  %180 = load i32, i32* %179, align 4, !llfi_index !771
  %181 = load i32, i32* %17, align 4, !llfi_index !772
  %182 = call i32 @_Z7fastpowiii(i32 %176, i32 %180, i32 %181), !llfi_index !773
  %183 = sext i32 %182 to i64, !llfi_index !774
  %184 = mul nsw i64 %172, %183, !llfi_index !775
  %185 = load i32, i32* %17, align 4, !llfi_index !776
  %186 = sext i32 %185 to i64, !llfi_index !777
  %187 = srem i64 %184, %186, !llfi_index !778
  store i64 %187, i64* %21, align 8, !llfi_index !779
  br label %188, !llfi_index !780

188:                                              ; preds = %171
  %189 = load i32, i32* %22, align 4, !llfi_index !781
  %190 = add nsw i32 %189, 1, !llfi_index !782
  store i32 %190, i32* %22, align 4, !llfi_index !783
  br label %167, !llvm.loop !784, !llfi_index !785

191:                                              ; preds = %167
  %192 = load i64, i64* %21, align 8, !llfi_index !786
  %193 = call nonnull align 8 dereferenceable(8) %"class.std::basic_ostream"* @_ZNSolsEx(%"class.std::basic_ostream"* nonnull align 8 dereferenceable(8) @_ZSt4cout, i64 %192), !llfi_index !787
  %194 = call nonnull align 8 dereferenceable(8) %"class.std::basic_ostream"* @_ZNSolsEPFRSoS_E(%"class.std::basic_ostream"* nonnull align 8 dereferenceable(8) %193, %"class.std::basic_ostream"* (%"class.std::basic_ostream"*)* @_ZSt4endlIcSt11char_traitsIcEERSt13basic_ostreamIT_T0_ES6_), !llfi_index !788
  br label %195, !llfi_index !789

195:                                              ; preds = %191, %93
  br label %196, !llfi_index !790

196:                                              ; preds = %195, %163
  %197 = load i32, i32* %8, align 4, !llfi_index !791
  %198 = add nsw i32 %197, 1, !llfi_index !792
  store i32 %198, i32* %8, align 4, !llfi_index !793
  br label %85, !llvm.loop !794, !llfi_index !795

199:                                              ; preds = %85
  ret i32 0, !llfi_index !796
}

declare dso_local %struct._IO_FILE* @freopen(i8*, i8*, %struct._IO_FILE*) #1

declare dso_local zeroext i1 @_ZNSt8ios_base15sync_with_stdioEb(i1 zeroext) #1

declare dso_local %"class.std::basic_ostream"* @_ZNSt9basic_iosIcSt11char_traitsIcEE3tieEPSo(%"class.std::basic_ios"* nonnull align 8 dereferenceable(264), %"class.std::basic_ostream"*) #1

declare dso_local nonnull align 8 dereferenceable(16) %"class.std::basic_istream"* @_ZNSirsERi(%"class.std::basic_istream"* nonnull align 8 dereferenceable(16), i32* nonnull align 4 dereferenceable(4)) #1

; Function Attrs: argmemonly nofree nounwind willreturn writeonly
declare void @llvm.memset.p0i8.i64(i8* nocapture writeonly, i8, i64, i1 immarg) #7

declare dso_local nonnull align 8 dereferenceable(8) %"class.std::basic_ostream"* @_ZNSolsEi(%"class.std::basic_ostream"* nonnull align 8 dereferenceable(8), i32) #1

declare dso_local nonnull align 8 dereferenceable(8) %"class.std::basic_ostream"* @_ZSt4endlIcSt11char_traitsIcEERSt13basic_ostreamIT_T0_ES6_(%"class.std::basic_ostream"* nonnull align 8 dereferenceable(8)) #1

declare dso_local nonnull align 8 dereferenceable(8) %"class.std::basic_ostream"* @_ZNSolsEPFRSoS_E(%"class.std::basic_ostream"* nonnull align 8 dereferenceable(8), %"class.std::basic_ostream"* (%"class.std::basic_ostream"*)*) #1

declare dso_local nonnull align 8 dereferenceable(8) %"class.std::basic_ostream"* @_ZNSolsEx(%"class.std::basic_ostream"* nonnull align 8 dereferenceable(8), i64) #1

attributes #0 = { noinline uwtable "frame-pointer"="all" "min-legal-vector-width"="0" "no-trapping-math"="true" "stack-protector-buffer-size"="8" "target-cpu"="x86-64" "target-features"="+cx8,+fxsr,+mmx,+sse,+sse2,+x87" "tune-cpu"="generic" }
attributes #1 = { "frame-pointer"="all" "no-trapping-math"="true" "stack-protector-buffer-size"="8" "target-cpu"="x86-64" "target-features"="+cx8,+fxsr,+mmx,+sse,+sse2,+x87" "tune-cpu"="generic" }
attributes #2 = { nounwind }
attributes #3 = { nounwind "frame-pointer"="all" "no-trapping-math"="true" "stack-protector-buffer-size"="8" "target-cpu"="x86-64" "target-features"="+cx8,+fxsr,+mmx,+sse,+sse2,+x87" "tune-cpu"="generic" }
attributes #4 = { mustprogress noinline nounwind uwtable "frame-pointer"="all" "min-legal-vector-width"="0" "no-trapping-math"="true" "stack-protector-buffer-size"="8" "target-cpu"="x86-64" "target-features"="+cx8,+fxsr,+mmx,+sse,+sse2,+x87" "tune-cpu"="generic" }
attributes #5 = { mustprogress noinline uwtable "frame-pointer"="all" "min-legal-vector-width"="0" "no-trapping-math"="true" "stack-protector-buffer-size"="8" "target-cpu"="x86-64" "target-features"="+cx8,+fxsr,+mmx,+sse,+sse2,+x87" "tune-cpu"="generic" }
attributes #6 = { mustprogress noinline norecurse uwtable "frame-pointer"="all" "min-legal-vector-width"="0" "no-trapping-math"="true" "stack-protector-buffer-size"="8" "target-cpu"="x86-64" "target-features"="+cx8,+fxsr,+mmx,+sse,+sse2,+x87" "tune-cpu"="generic" }
attributes #7 = { argmemonly nofree nounwind willreturn writeonly }

!llvm.ident = !{!0}
!llvm.module.flags = !{!1, !2, !3}

!0 = !{!"clang version 13.0.0 (https://github.com/llvm/llvm-project.git d7b669b3a30345cfcdb2fde2af6f48aa4b94845d)"}
!1 = !{i32 1, !"wchar_size", i32 4}
!2 = !{i32 7, !"uwtable", i32 1}
!3 = !{i32 7, !"frame-pointer", i32 2}
!4 = !{i64 1}
!5 = !{i64 2}
!6 = !{i64 3}
!7 = !{i64 4}
!8 = !{i64 5}
!9 = !{i64 6}
!10 = !{i64 7}
!11 = !{i64 8}
!12 = !{i64 9}
!13 = !{i64 10}
!14 = !{i64 11}
!15 = !{i64 12}
!16 = !{i64 13}
!17 = !{i64 14}
!18 = !{i64 15}
!19 = !{i64 16}
!20 = !{i64 17}
!21 = !{i64 18}
!22 = !{i64 19}
!23 = !{i64 20}
!24 = !{i64 21}
!25 = !{i64 22}
!26 = !{i64 23}
!27 = !{i64 24}
!28 = !{i64 25}
!29 = !{i64 26}
!30 = !{i64 27}
!31 = !{i64 28}
!32 = !{i64 29}
!33 = !{i64 30}
!34 = !{i64 31}
!35 = !{i64 32}
!36 = !{i64 33}
!37 = !{i64 34}
!38 = !{i64 35}
!39 = !{i64 36}
!40 = !{i64 37}
!41 = !{i64 38}
!42 = !{i64 39}
!43 = !{i64 40}
!44 = !{i64 41}
!45 = !{i64 42}
!46 = !{i64 43}
!47 = !{i64 44}
!48 = !{i64 45}
!49 = !{i64 46}
!50 = distinct !{!50, !51}
!51 = !{!"llvm.loop.mustprogress"}
!52 = !{i64 47}
!53 = !{i64 48}
!54 = !{i64 49}
!55 = !{i64 50}
!56 = !{i64 51}
!57 = distinct !{!57, !51}
!58 = !{i64 52}
!59 = !{i64 53}
!60 = !{i64 54}
!61 = !{i64 55}
!62 = !{i64 56}
!63 = !{i64 57}
!64 = !{i64 58}
!65 = !{i64 59}
!66 = !{i64 60}
!67 = !{i64 61}
!68 = !{i64 62}
!69 = !{i64 63}
!70 = !{i64 64}
!71 = !{i64 65}
!72 = !{i64 66}
!73 = !{i64 67}
!74 = !{i64 68}
!75 = !{i64 69}
!76 = !{i64 70}
!77 = !{i64 71}
!78 = !{i64 72}
!79 = !{i64 73}
!80 = !{i64 74}
!81 = !{i64 75}
!82 = !{i64 76}
!83 = !{i64 77}
!84 = !{i64 78}
!85 = !{i64 79}
!86 = !{i64 80}
!87 = !{i64 81}
!88 = !{i64 82}
!89 = !{i64 83}
!90 = !{i64 84}
!91 = !{i64 85}
!92 = !{i64 86}
!93 = !{i64 87}
!94 = !{i64 88}
!95 = !{i64 89}
!96 = !{i64 90}
!97 = !{i64 91}
!98 = !{i64 92}
!99 = !{i64 93}
!100 = !{i64 94}
!101 = !{i64 95}
!102 = !{i64 96}
!103 = !{i64 97}
!104 = !{i64 98}
!105 = !{i64 99}
!106 = !{i64 100}
!107 = !{i64 101}
!108 = !{i64 102}
!109 = !{i64 103}
!110 = !{i64 104}
!111 = !{i64 105}
!112 = !{i64 106}
!113 = !{i64 107}
!114 = !{i64 108}
!115 = !{i64 109}
!116 = !{i64 110}
!117 = !{i64 111}
!118 = !{i64 112}
!119 = !{i64 113}
!120 = !{i64 114}
!121 = !{i64 115}
!122 = !{i64 116}
!123 = !{i64 117}
!124 = !{i64 118}
!125 = !{i64 119}
!126 = !{i64 120}
!127 = !{i64 121}
!128 = !{i64 122}
!129 = !{i64 123}
!130 = !{i64 124}
!131 = !{i64 125}
!132 = !{i64 126}
!133 = !{i64 127}
!134 = distinct !{!134, !51}
!135 = !{i64 128}
!136 = !{i64 129}
!137 = !{i64 130}
!138 = !{i64 131}
!139 = !{i64 132}
!140 = !{i64 133}
!141 = !{i64 134}
!142 = !{i64 135}
!143 = !{i64 136}
!144 = !{i64 137}
!145 = !{i64 138}
!146 = !{i64 139}
!147 = !{i64 140}
!148 = !{i64 141}
!149 = !{i64 142}
!150 = !{i64 143}
!151 = !{i64 144}
!152 = !{i64 145}
!153 = !{i64 146}
!154 = !{i64 147}
!155 = !{i64 148}
!156 = !{i64 149}
!157 = !{i64 150}
!158 = !{i64 151}
!159 = !{i64 152}
!160 = !{i64 153}
!161 = !{i64 154}
!162 = !{i64 155}
!163 = !{i64 156}
!164 = !{i64 157}
!165 = !{i64 158}
!166 = !{i64 159}
!167 = !{i64 160}
!168 = !{i64 161}
!169 = !{i64 162}
!170 = !{i64 163}
!171 = !{i64 164}
!172 = !{i64 165}
!173 = !{i64 166}
!174 = !{i64 167}
!175 = !{i64 168}
!176 = !{i64 169}
!177 = !{i64 170}
!178 = !{i64 171}
!179 = !{i64 172}
!180 = !{i64 173}
!181 = distinct !{!181, !51}
!182 = !{i64 174}
!183 = !{i64 175}
!184 = !{i64 176}
!185 = !{i64 177}
!186 = !{i64 178}
!187 = !{i64 179}
!188 = !{i64 180}
!189 = !{i64 181}
!190 = !{i64 182}
!191 = !{i64 183}
!192 = !{i64 184}
!193 = !{i64 185}
!194 = !{i64 186}
!195 = !{i64 187}
!196 = !{i64 188}
!197 = !{i64 189}
!198 = !{i64 190}
!199 = !{i64 191}
!200 = !{i64 192}
!201 = !{i64 193}
!202 = !{i64 194}
!203 = !{i64 195}
!204 = !{i64 196}
!205 = !{i64 197}
!206 = !{i64 198}
!207 = !{i64 199}
!208 = !{i64 200}
!209 = !{i64 201}
!210 = !{i64 202}
!211 = !{i64 203}
!212 = !{i64 204}
!213 = !{i64 205}
!214 = !{i64 206}
!215 = !{i64 207}
!216 = !{i64 208}
!217 = !{i64 209}
!218 = !{i64 210}
!219 = !{i64 211}
!220 = !{i64 212}
!221 = !{i64 213}
!222 = !{i64 214}
!223 = !{i64 215}
!224 = !{i64 216}
!225 = !{i64 217}
!226 = !{i64 218}
!227 = !{i64 219}
!228 = !{i64 220}
!229 = !{i64 221}
!230 = !{i64 222}
!231 = !{i64 223}
!232 = !{i64 224}
!233 = !{i64 225}
!234 = !{i64 226}
!235 = !{i64 227}
!236 = !{i64 228}
!237 = distinct !{!237, !51}
!238 = !{i64 229}
!239 = !{i64 230}
!240 = !{i64 231}
!241 = !{i64 232}
!242 = !{i64 233}
!243 = !{i64 234}
!244 = !{i64 235}
!245 = !{i64 236}
!246 = !{i64 237}
!247 = !{i64 238}
!248 = !{i64 239}
!249 = !{i64 240}
!250 = !{i64 241}
!251 = !{i64 242}
!252 = !{i64 243}
!253 = !{i64 244}
!254 = !{i64 245}
!255 = !{i64 246}
!256 = !{i64 247}
!257 = !{i64 248}
!258 = !{i64 249}
!259 = !{i64 250}
!260 = !{i64 251}
!261 = !{i64 252}
!262 = !{i64 253}
!263 = !{i64 254}
!264 = !{i64 255}
!265 = !{i64 256}
!266 = !{i64 257}
!267 = !{i64 258}
!268 = !{i64 259}
!269 = !{i64 260}
!270 = !{i64 261}
!271 = !{i64 262}
!272 = !{i64 263}
!273 = !{i64 264}
!274 = !{i64 265}
!275 = !{i64 266}
!276 = !{i64 267}
!277 = !{i64 268}
!278 = !{i64 269}
!279 = !{i64 270}
!280 = !{i64 271}
!281 = !{i64 272}
!282 = !{i64 273}
!283 = !{i64 274}
!284 = !{i64 275}
!285 = !{i64 276}
!286 = !{i64 277}
!287 = !{i64 278}
!288 = !{i64 279}
!289 = !{i64 280}
!290 = !{i64 281}
!291 = !{i64 282}
!292 = !{i64 283}
!293 = !{i64 284}
!294 = !{i64 285}
!295 = !{i64 286}
!296 = distinct !{!296, !51}
!297 = !{i64 287}
!298 = !{i64 288}
!299 = !{i64 289}
!300 = !{i64 290}
!301 = !{i64 291}
!302 = !{i64 292}
!303 = !{i64 293}
!304 = !{i64 294}
!305 = !{i64 295}
!306 = !{i64 296}
!307 = !{i64 297}
!308 = !{i64 298}
!309 = !{i64 299}
!310 = !{i64 300}
!311 = !{i64 301}
!312 = !{i64 302}
!313 = !{i64 303}
!314 = !{i64 304}
!315 = !{i64 305}
!316 = !{i64 306}
!317 = !{i64 307}
!318 = !{i64 308}
!319 = !{i64 309}
!320 = !{i64 310}
!321 = !{i64 311}
!322 = !{i64 312}
!323 = !{i64 313}
!324 = !{i64 314}
!325 = !{i64 315}
!326 = !{i64 316}
!327 = !{i64 317}
!328 = !{i64 318}
!329 = !{i64 319}
!330 = !{i64 320}
!331 = !{i64 321}
!332 = !{i64 322}
!333 = !{i64 323}
!334 = !{i64 324}
!335 = !{i64 325}
!336 = !{i64 326}
!337 = !{i64 327}
!338 = !{i64 328}
!339 = !{i64 329}
!340 = !{i64 330}
!341 = !{i64 331}
!342 = !{i64 332}
!343 = !{i64 333}
!344 = !{i64 334}
!345 = !{i64 335}
!346 = !{i64 336}
!347 = !{i64 337}
!348 = !{i64 338}
!349 = !{i64 339}
!350 = !{i64 340}
!351 = !{i64 341}
!352 = !{i64 342}
!353 = !{i64 343}
!354 = !{i64 344}
!355 = !{i64 345}
!356 = !{i64 346}
!357 = !{i64 347}
!358 = !{i64 348}
!359 = !{i64 349}
!360 = !{i64 350}
!361 = !{i64 351}
!362 = !{i64 352}
!363 = !{i64 353}
!364 = !{i64 354}
!365 = !{i64 355}
!366 = !{i64 356}
!367 = !{i64 357}
!368 = !{i64 358}
!369 = !{i64 359}
!370 = !{i64 360}
!371 = !{i64 361}
!372 = !{i64 362}
!373 = !{i64 363}
!374 = !{i64 364}
!375 = !{i64 365}
!376 = !{i64 366}
!377 = !{i64 367}
!378 = !{i64 368}
!379 = !{i64 369}
!380 = !{i64 370}
!381 = !{i64 371}
!382 = !{i64 372}
!383 = !{i64 373}
!384 = !{i64 374}
!385 = !{i64 375}
!386 = !{i64 376}
!387 = !{i64 377}
!388 = !{i64 378}
!389 = !{i64 379}
!390 = !{i64 380}
!391 = !{i64 381}
!392 = !{i64 382}
!393 = !{i64 383}
!394 = !{i64 384}
!395 = !{i64 385}
!396 = !{i64 386}
!397 = !{i64 387}
!398 = !{i64 388}
!399 = !{i64 389}
!400 = !{i64 390}
!401 = !{i64 391}
!402 = !{i64 392}
!403 = !{i64 393}
!404 = !{i64 394}
!405 = !{i64 395}
!406 = !{i64 396}
!407 = !{i64 397}
!408 = !{i64 398}
!409 = !{i64 399}
!410 = !{i64 400}
!411 = !{i64 401}
!412 = !{i64 402}
!413 = !{i64 403}
!414 = !{i64 404}
!415 = !{i64 405}
!416 = !{i64 406}
!417 = !{i64 407}
!418 = !{i64 408}
!419 = !{i64 409}
!420 = !{i64 410}
!421 = !{i64 411}
!422 = distinct !{!422, !51}
!423 = !{i64 412}
!424 = !{i64 413}
!425 = !{i64 414}
!426 = !{i64 415}
!427 = !{i64 416}
!428 = !{i64 417}
!429 = !{i64 418}
!430 = !{i64 419}
!431 = !{i64 420}
!432 = !{i64 421}
!433 = !{i64 422}
!434 = !{i64 423}
!435 = !{i64 424}
!436 = !{i64 425}
!437 = !{i64 426}
!438 = !{i64 427}
!439 = !{i64 428}
!440 = !{i64 429}
!441 = !{i64 430}
!442 = !{i64 431}
!443 = !{i64 432}
!444 = !{i64 433}
!445 = !{i64 434}
!446 = !{i64 435}
!447 = !{i64 436}
!448 = !{i64 437}
!449 = !{i64 438}
!450 = !{i64 439}
!451 = !{i64 440}
!452 = !{i64 441}
!453 = !{i64 442}
!454 = !{i64 443}
!455 = !{i64 444}
!456 = !{i64 445}
!457 = !{i64 446}
!458 = !{i64 447}
!459 = !{i64 448}
!460 = !{i64 449}
!461 = !{i64 450}
!462 = !{i64 451}
!463 = !{i64 452}
!464 = !{i64 453}
!465 = !{i64 454}
!466 = !{i64 455}
!467 = !{i64 456}
!468 = !{i64 457}
!469 = !{i64 458}
!470 = !{i64 459}
!471 = !{i64 460}
!472 = !{i64 461}
!473 = !{i64 462}
!474 = !{i64 463}
!475 = !{i64 464}
!476 = !{i64 465}
!477 = !{i64 466}
!478 = !{i64 467}
!479 = !{i64 468}
!480 = !{i64 469}
!481 = !{i64 470}
!482 = !{i64 471}
!483 = !{i64 472}
!484 = !{i64 473}
!485 = !{i64 474}
!486 = !{i64 475}
!487 = !{i64 476}
!488 = !{i64 477}
!489 = !{i64 478}
!490 = !{i64 479}
!491 = !{i64 480}
!492 = !{i64 481}
!493 = !{i64 482}
!494 = !{i64 483}
!495 = !{i64 484}
!496 = !{i64 485}
!497 = !{i64 486}
!498 = !{i64 487}
!499 = !{i64 488}
!500 = !{i64 489}
!501 = !{i64 490}
!502 = !{i64 491}
!503 = !{i64 492}
!504 = distinct !{!504, !51}
!505 = !{i64 493}
!506 = !{i64 494}
!507 = !{i64 495}
!508 = !{i64 496}
!509 = !{i64 497}
!510 = !{i64 498}
!511 = !{i64 499}
!512 = !{i64 500}
!513 = !{i64 501}
!514 = !{i64 502}
!515 = !{i64 503}
!516 = !{i64 504}
!517 = !{i64 505}
!518 = !{i64 506}
!519 = !{i64 507}
!520 = !{i64 508}
!521 = !{i64 509}
!522 = !{i64 510}
!523 = !{i64 511}
!524 = !{i64 512}
!525 = !{i64 513}
!526 = !{i64 514}
!527 = !{i64 515}
!528 = !{i64 516}
!529 = !{i64 517}
!530 = !{i64 518}
!531 = !{i64 519}
!532 = !{i64 520}
!533 = !{i64 521}
!534 = !{i64 522}
!535 = !{i64 523}
!536 = !{i64 524}
!537 = !{i64 525}
!538 = !{i64 526}
!539 = !{i64 527}
!540 = !{i64 528}
!541 = !{i64 529}
!542 = !{i64 530}
!543 = !{i64 531}
!544 = !{i64 532}
!545 = distinct !{!545, !51}
!546 = !{i64 533}
!547 = !{i64 534}
!548 = !{i64 535}
!549 = !{i64 536}
!550 = !{i64 537}
!551 = !{i64 538}
!552 = !{i64 539}
!553 = !{i64 540}
!554 = !{i64 541}
!555 = !{i64 542}
!556 = !{i64 543}
!557 = !{i64 544}
!558 = !{i64 545}
!559 = !{i64 546}
!560 = !{i64 547}
!561 = !{i64 548}
!562 = !{i64 549}
!563 = !{i64 550}
!564 = !{i64 551}
!565 = !{i64 552}
!566 = !{i64 553}
!567 = !{i64 554}
!568 = !{i64 555}
!569 = !{i64 556}
!570 = !{i64 557}
!571 = !{i64 558}
!572 = !{i64 559}
!573 = !{i64 560}
!574 = !{i64 561}
!575 = !{i64 562}
!576 = !{i64 563}
!577 = !{i64 564}
!578 = !{i64 565}
!579 = !{i64 566}
!580 = !{i64 567}
!581 = !{i64 568}
!582 = !{i64 569}
!583 = !{i64 570}
!584 = !{i64 571}
!585 = !{i64 572}
!586 = !{i64 573}
!587 = !{i64 574}
!588 = !{i64 575}
!589 = !{i64 576}
!590 = !{i64 577}
!591 = !{i64 578}
!592 = !{i64 579}
!593 = !{i64 580}
!594 = !{i64 581}
!595 = !{i64 582}
!596 = !{i64 583}
!597 = !{i64 584}
!598 = !{i64 585}
!599 = !{i64 586}
!600 = !{i64 587}
!601 = !{i64 588}
!602 = !{i64 589}
!603 = !{i64 590}
!604 = !{i64 591}
!605 = !{i64 592}
!606 = !{i64 593}
!607 = !{i64 594}
!608 = !{i64 595}
!609 = !{i64 596}
!610 = !{i64 597}
!611 = !{i64 598}
!612 = !{i64 599}
!613 = !{i64 600}
!614 = !{i64 601}
!615 = !{i64 602}
!616 = !{i64 603}
!617 = !{i64 604}
!618 = !{i64 605}
!619 = !{i64 606}
!620 = !{i64 607}
!621 = distinct !{!621, !51}
!622 = !{i64 608}
!623 = !{i64 609}
!624 = !{i64 610}
!625 = !{i64 611}
!626 = !{i64 612}
!627 = distinct !{!627, !51}
!628 = !{i64 613}
!629 = !{i64 614}
!630 = !{i64 615}
!631 = !{i64 616}
!632 = !{i64 617}
!633 = !{i64 618}
!634 = !{i64 619}
!635 = !{i64 620}
!636 = !{i64 621}
!637 = !{i64 622}
!638 = !{i64 623}
!639 = !{i64 624}
!640 = !{i64 625}
!641 = !{i64 626}
!642 = !{i64 627}
!643 = !{i64 628}
!644 = !{i64 629}
!645 = distinct !{!645, !51}
!646 = !{i64 630}
!647 = !{i64 631}
!648 = !{i64 632}
!649 = !{i64 633}
!650 = !{i64 634}
!651 = !{i64 635}
!652 = !{i64 636}
!653 = !{i64 637}
!654 = !{i64 638}
!655 = !{i64 639}
!656 = !{i64 640}
!657 = !{i64 641}
!658 = !{i64 642}
!659 = !{i64 643}
!660 = !{i64 644}
!661 = !{i64 645}
!662 = !{i64 646}
!663 = !{i64 647}
!664 = !{i64 648}
!665 = !{i64 649}
!666 = !{i64 650}
!667 = !{i64 651}
!668 = !{i64 652}
!669 = !{i64 653}
!670 = !{i64 654}
!671 = !{i64 655}
!672 = !{i64 656}
!673 = !{i64 657}
!674 = !{i64 658}
!675 = !{i64 659}
!676 = !{i64 660}
!677 = !{i64 661}
!678 = !{i64 662}
!679 = !{i64 663}
!680 = !{i64 664}
!681 = !{i64 665}
!682 = !{i64 666}
!683 = !{i64 667}
!684 = !{i64 668}
!685 = !{i64 669}
!686 = !{i64 670}
!687 = !{i64 671}
!688 = !{i64 672}
!689 = !{i64 673}
!690 = !{i64 674}
!691 = !{i64 675}
!692 = !{i64 676}
!693 = !{i64 677}
!694 = !{i64 678}
!695 = !{i64 679}
!696 = !{i64 680}
!697 = !{i64 681}
!698 = !{i64 682}
!699 = !{i64 683}
!700 = !{i64 684}
!701 = !{i64 685}
!702 = !{i64 686}
!703 = !{i64 687}
!704 = !{i64 688}
!705 = !{i64 689}
!706 = !{i64 690}
!707 = !{i64 691}
!708 = !{i64 692}
!709 = !{i64 693}
!710 = !{i64 694}
!711 = !{i64 695}
!712 = !{i64 696}
!713 = !{i64 697}
!714 = !{i64 698}
!715 = !{i64 699}
!716 = !{i64 700}
!717 = !{i64 701}
!718 = !{i64 702}
!719 = !{i64 703}
!720 = !{i64 704}
!721 = !{i64 705}
!722 = distinct !{!722, !51}
!723 = !{i64 706}
!724 = !{i64 707}
!725 = !{i64 708}
!726 = !{i64 709}
!727 = !{i64 710}
!728 = !{i64 711}
!729 = !{i64 712}
!730 = !{i64 713}
!731 = !{i64 714}
!732 = !{i64 715}
!733 = !{i64 716}
!734 = !{i64 717}
!735 = !{i64 718}
!736 = !{i64 719}
!737 = !{i64 720}
!738 = !{i64 721}
!739 = !{i64 722}
!740 = !{i64 723}
!741 = !{i64 724}
!742 = !{i64 725}
!743 = !{i64 726}
!744 = !{i64 727}
!745 = !{i64 728}
!746 = !{i64 729}
!747 = !{i64 730}
!748 = distinct !{!748, !51}
!749 = !{i64 731}
!750 = !{i64 732}
!751 = !{i64 733}
!752 = !{i64 734}
!753 = !{i64 735}
!754 = !{i64 736}
!755 = !{i64 737}
!756 = !{i64 738}
!757 = !{i64 739}
!758 = !{i64 740}
!759 = !{i64 741}
!760 = !{i64 742}
!761 = !{i64 743}
!762 = !{i64 744}
!763 = !{i64 745}
!764 = !{i64 746}
!765 = !{i64 747}
!766 = !{i64 748}
!767 = !{i64 749}
!768 = !{i64 750}
!769 = !{i64 751}
!770 = !{i64 752}
!771 = !{i64 753}
!772 = !{i64 754}
!773 = !{i64 755}
!774 = !{i64 756}
!775 = !{i64 757}
!776 = !{i64 758}
!777 = !{i64 759}
!778 = !{i64 760}
!779 = !{i64 761}
!780 = !{i64 762}
!781 = !{i64 763}
!782 = !{i64 764}
!783 = !{i64 765}
!784 = distinct !{!784, !51}
!785 = !{i64 766}
!786 = !{i64 767}
!787 = !{i64 768}
!788 = !{i64 769}
!789 = !{i64 770}
!790 = !{i64 771}
!791 = !{i64 772}
!792 = !{i64 773}
!793 = !{i64 774}
!794 = distinct !{!794, !51}
!795 = !{i64 775}
!796 = !{i64 776}
