; ModuleID = '/home/hjiang/Computation-Kernel-Dataset/experiments/Fault_injection_0308_parall/O0/StockPortfolio/StockPortfolio.ll'
source_filename = "llvm-link"
target datalayout = "e-m:e-p270:32:32-p271:32:32-p272:64:64-i64:64-f80:128-n8:16:32:64-S128"
target triple = "x86_64-unknown-linux-gnu"

%"class.std::ios_base::Init" = type { i8 }
%struct._IO_FILE = type { i32, i8*, i8*, i8*, i8*, i8*, i8*, i8*, i8*, i8*, i8*, i8*, %struct._IO_marker*, %struct._IO_FILE*, i32, i32, i64, i16, i8, [1 x i8], i8*, i64, %struct._IO_codecvt*, %struct._IO_wide_data*, %struct._IO_FILE*, i8*, i64, i32, [20 x i8] }
%struct._IO_marker = type opaque
%struct._IO_codecvt = type opaque
%struct._IO_wide_data = type opaque
%"class.std::set" = type { %"class.std::_Rb_tree" }
%"class.std::_Rb_tree" = type { %"struct.std::_Rb_tree<std::pair<std::pair<long long, long long>, long long>, std::pair<std::pair<long long, long long>, long long>, std::_Identity<std::pair<std::pair<long long, long long>, long long>>, std::less<std::pair<std::pair<long long, long long>, long long>>>::_Rb_tree_impl" }
%"struct.std::_Rb_tree<std::pair<std::pair<long long, long long>, long long>, std::pair<std::pair<long long, long long>, long long>, std::_Identity<std::pair<std::pair<long long, long long>, long long>>, std::less<std::pair<std::pair<long long, long long>, long long>>>::_Rb_tree_impl" = type { %"struct.std::_Rb_tree_key_compare", %"struct.std::_Rb_tree_header" }
%"struct.std::_Rb_tree_key_compare" = type { %"class.std::ios_base::Init" }
%"struct.std::_Rb_tree_header" = type { %"struct.std::_Rb_tree_node_base", i64 }
%"struct.std::_Rb_tree_node_base" = type { i32, %"struct.std::_Rb_tree_node_base"*, %"struct.std::_Rb_tree_node_base"*, %"struct.std::_Rb_tree_node_base"* }
%"struct.std::pair" = type { %"struct.std::pair.0", i64 }
%"struct.std::pair.0" = type { i64, i64 }
%"struct.std::_Rb_tree_const_iterator" = type { %"struct.std::_Rb_tree_node_base"* }
%"struct.std::pair.3" = type <{ %"struct.std::_Rb_tree_const_iterator", i8, [7 x i8] }>
%"struct.std::_Rb_tree_node" = type { %"struct.std::_Rb_tree_node_base", %"struct.__gnu_cxx::__aligned_membuf" }
%"struct.__gnu_cxx::__aligned_membuf" = type { [24 x i8] }
%"struct.std::pair.10" = type { %"struct.std::_Rb_tree_node_base"*, %"struct.std::_Rb_tree_node_base"* }
%"struct.std::_Rb_tree<std::pair<std::pair<long long, long long>, long long>, std::pair<std::pair<long long, long long>, long long>, std::_Identity<std::pair<std::pair<long long, long long>, long long>>, std::less<std::pair<std::pair<long long, long long>, long long>>>::_Alloc_node" = type { %"class.std::_Rb_tree"* }

$_ZSt3maxIxERKT_S2_S2_ = comdat any

$_ZNSt3setISt4pairIS0_IxxExESt4lessIS2_ESaIS2_EEC2Ev = comdat any

$_ZNKSt3setISt4pairIS0_IxxExESt4lessIS2_ESaIS2_EE5emptyEv = comdat any

$_ZNKSt3setISt4pairIS0_IxxExESt4lessIS2_ESaIS2_EE5beginEv = comdat any

$_ZNKSt23_Rb_tree_const_iteratorISt4pairIS0_IxxExEEdeEv = comdat any

$_ZNSt3setISt4pairIS0_IxxExESt4lessIS2_ESaIS2_EE5eraseB5cxx11ESt23_Rb_tree_const_iteratorIS2_E = comdat any

$_ZNSt3setISt4pairIS0_IxxExESt4lessIS2_ESaIS2_EED2Ev = comdat any

$_ZSt9make_pairIxRxESt4pairINSt17__decay_and_stripIT_E6__typeENS2_IT0_E6__typeEEOS3_OS6_ = comdat any

$_ZSt9make_pairISt4pairIxxERxES0_INSt17__decay_and_stripIT_E6__typeENS3_IT0_E6__typeEEOS4_OS7_ = comdat any

$_ZNSt3setISt4pairIS0_IxxExESt4lessIS2_ESaIS2_EE6insertEOS2_ = comdat any

$_ZSt4moveIRSt4pairIS0_IxxExEEONSt16remove_referenceIT_E4typeEOS5_ = comdat any

$_ZNSt8_Rb_treeISt4pairIS0_IxxExES2_St9_IdentityIS2_ESt4lessIS2_ESaIS2_EE16_M_insert_uniqueIS2_EES0_ISt17_Rb_tree_iteratorIS2_EbEOT_ = comdat any

$_ZNSt4pairISt23_Rb_tree_const_iteratorIS_IS_IxxExEEbEC2IRSt17_Rb_tree_iteratorIS2_ERbLb1EEEOT_OT0_ = comdat any

$_ZSt7forwardIRSt17_Rb_tree_iteratorISt4pairIS1_IxxExEEEOT_RNSt16remove_referenceIS6_E4typeE = comdat any

$_ZNSt23_Rb_tree_const_iteratorISt4pairIS0_IxxExEEC2ERKSt17_Rb_tree_iteratorIS2_E = comdat any

$_ZSt7forwardIRbEOT_RNSt16remove_referenceIS1_E4typeE = comdat any

$_ZNKSt9_IdentityISt4pairIS0_IxxExEEclERS2_ = comdat any

$_ZNSt8_Rb_treeISt4pairIS0_IxxExES2_St9_IdentityIS2_ESt4lessIS2_ESaIS2_EE24_M_get_insert_unique_posERKS2_ = comdat any

$_ZNSt8_Rb_treeISt4pairIS0_IxxExES2_St9_IdentityIS2_ESt4lessIS2_ESaIS2_EE11_Alloc_nodeC2ERS8_ = comdat any

$_ZSt7forwardISt4pairIS0_IxxExEEOT_RNSt16remove_referenceIS3_E4typeE = comdat any

$_ZNSt8_Rb_treeISt4pairIS0_IxxExES2_St9_IdentityIS2_ESt4lessIS2_ESaIS2_EE10_M_insert_IS2_NS8_11_Alloc_nodeEEESt17_Rb_tree_iteratorIS2_EPSt18_Rb_tree_node_baseSE_OT_RT0_ = comdat any

$_ZNSt4pairISt17_Rb_tree_iteratorIS_IS_IxxExEEbEC2IS3_bLb1EEEOT_OT0_ = comdat any

$_ZNSt17_Rb_tree_iteratorISt4pairIS0_IxxExEEC2EPSt18_Rb_tree_node_base = comdat any

$_ZSt7forwardISt17_Rb_tree_iteratorISt4pairIS1_IxxExEEEOT_RNSt16remove_referenceIS5_E4typeE = comdat any

$_ZSt7forwardIbEOT_RNSt16remove_referenceIS0_E4typeE = comdat any

$_ZNSt8_Rb_treeISt4pairIS0_IxxExES2_St9_IdentityIS2_ESt4lessIS2_ESaIS2_EE6_M_endEv = comdat any

$_ZNSt8_Rb_treeISt4pairIS0_IxxExES2_St9_IdentityIS2_ESt4lessIS2_ESaIS2_EE6_S_keyEPKSt18_Rb_tree_node_base = comdat any

$_ZNKSt4lessISt4pairIS0_IxxExEEclERKS2_S5_ = comdat any

$_ZNKSt8_Rb_treeISt4pairIS0_IxxExES2_St9_IdentityIS2_ESt4lessIS2_ESaIS2_EE11_Alloc_nodeclIS2_EEPSt13_Rb_tree_nodeIS2_EOT_ = comdat any

$_ZNSt8_Rb_treeISt4pairIS0_IxxExES2_St9_IdentityIS2_ESt4lessIS2_ESaIS2_EE14_M_create_nodeIJS2_EEEPSt13_Rb_tree_nodeIS2_EDpOT_ = comdat any

$_ZNSt8_Rb_treeISt4pairIS0_IxxExES2_St9_IdentityIS2_ESt4lessIS2_ESaIS2_EE11_M_get_nodeEv = comdat any

$_ZNSt8_Rb_treeISt4pairIS0_IxxExES2_St9_IdentityIS2_ESt4lessIS2_ESaIS2_EE17_M_construct_nodeIJS2_EEEvPSt13_Rb_tree_nodeIS2_EDpOT_ = comdat any

$_ZNSt8_Rb_treeISt4pairIS0_IxxExES2_St9_IdentityIS2_ESt4lessIS2_ESaIS2_EE21_M_get_Node_allocatorEv = comdat any

$_ZNSt13_Rb_tree_nodeISt4pairIS0_IxxExEE9_M_valptrEv = comdat any

$_ZNSt16allocator_traitsISaISt13_Rb_tree_nodeISt4pairIS1_IxxExEEEE9constructIS3_JS3_EEEvRS5_PT_DpOT0_ = comdat any

$_ZN9__gnu_cxx13new_allocatorISt13_Rb_tree_nodeISt4pairIS2_IxxExEEE9constructIS4_JS4_EEEvPT_DpOT0_ = comdat any

$_ZN9__gnu_cxx16__aligned_membufISt4pairIS1_IxxExEE6_M_ptrEv = comdat any

$_ZN9__gnu_cxx16__aligned_membufISt4pairIS1_IxxExEE7_M_addrEv = comdat any

$_ZNSt16allocator_traitsISaISt13_Rb_tree_nodeISt4pairIS1_IxxExEEEE8allocateERS5_m = comdat any

$_ZN9__gnu_cxx13new_allocatorISt13_Rb_tree_nodeISt4pairIS2_IxxExEEE8allocateEmPKv = comdat any

$_ZNK9__gnu_cxx13new_allocatorISt13_Rb_tree_nodeISt4pairIS2_IxxExEEE8max_sizeEv = comdat any

$_ZStltISt4pairIxxExEbRKS0_IT_T0_ES6_ = comdat any

$_ZStltIxxEbRKSt4pairIT_T0_ES5_ = comdat any

$_ZNSt8_Rb_treeISt4pairIS0_IxxExES2_St9_IdentityIS2_ESt4lessIS2_ESaIS2_EE6_S_keyEPKSt13_Rb_tree_nodeIS2_E = comdat any

$_ZNKSt13_Rb_tree_nodeISt4pairIS0_IxxExEE9_M_valptrEv = comdat any

$_ZNKSt9_IdentityISt4pairIS0_IxxExEEclERKS2_ = comdat any

$_ZNK9__gnu_cxx16__aligned_membufISt4pairIS1_IxxExEE6_M_ptrEv = comdat any

$_ZNK9__gnu_cxx16__aligned_membufISt4pairIS1_IxxExEE7_M_addrEv = comdat any

$_ZNSt8_Rb_treeISt4pairIS0_IxxExES2_St9_IdentityIS2_ESt4lessIS2_ESaIS2_EE8_M_beginEv = comdat any

$_ZNSt8_Rb_treeISt4pairIS0_IxxExES2_St9_IdentityIS2_ESt4lessIS2_ESaIS2_EE7_S_leftEPSt18_Rb_tree_node_base = comdat any

$_ZNSt8_Rb_treeISt4pairIS0_IxxExES2_St9_IdentityIS2_ESt4lessIS2_ESaIS2_EE8_S_rightEPSt18_Rb_tree_node_base = comdat any

$_ZNSt8_Rb_treeISt4pairIS0_IxxExES2_St9_IdentityIS2_ESt4lessIS2_ESaIS2_EE5beginEv = comdat any

$_ZSteqRKSt17_Rb_tree_iteratorISt4pairIS0_IxxExEES5_ = comdat any

$_ZNSt4pairIPSt18_Rb_tree_node_baseS1_EC2IRPSt13_Rb_tree_nodeIS_IS_IxxExEERS1_Lb1EEEOT_OT0_ = comdat any

$_ZNSt17_Rb_tree_iteratorISt4pairIS0_IxxExEEmmEv = comdat any

$_ZNSt4pairIPSt18_Rb_tree_node_baseS1_EC2IRS1_Lb1EEEOT_RKS1_ = comdat any

$_ZSt7forwardIRPSt18_Rb_tree_node_baseEOT_RNSt16remove_referenceIS3_E4typeE = comdat any

$_ZSt7forwardIRPSt13_Rb_tree_nodeISt4pairIS1_IxxExEEEOT_RNSt16remove_referenceIS7_E4typeE = comdat any

$_ZSt7forwardISt4pairIxxEEOT_RNSt16remove_referenceIS2_E4typeE = comdat any

$_ZSt7forwardIRxEOT_RNSt16remove_referenceIS1_E4typeE = comdat any

$_ZNSt4pairIS_IxxExEC2IS0_RxLb1EEEOT_OT0_ = comdat any

$_ZSt7forwardIxEOT_RNSt16remove_referenceIS0_E4typeE = comdat any

$_ZNSt4pairIxxEC2IxRxLb1EEEOT_OT0_ = comdat any

$_ZNSt8_Rb_treeISt4pairIS0_IxxExES2_St9_IdentityIS2_ESt4lessIS2_ESaIS2_EED2Ev = comdat any

$_ZNSt8_Rb_treeISt4pairIS0_IxxExES2_St9_IdentityIS2_ESt4lessIS2_ESaIS2_EE8_M_eraseEPSt13_Rb_tree_nodeIS2_E = comdat any

$_ZNSt8_Rb_treeISt4pairIS0_IxxExES2_St9_IdentityIS2_ESt4lessIS2_ESaIS2_EE13_Rb_tree_implIS6_Lb1EED2Ev = comdat any

$__clang_call_terminate = comdat any

$_ZNSaISt13_Rb_tree_nodeISt4pairIS0_IxxExEEED2Ev = comdat any

$_ZN9__gnu_cxx13new_allocatorISt13_Rb_tree_nodeISt4pairIS2_IxxExEEED2Ev = comdat any

$_ZNSt8_Rb_treeISt4pairIS0_IxxExES2_St9_IdentityIS2_ESt4lessIS2_ESaIS2_EE12_M_drop_nodeEPSt13_Rb_tree_nodeIS2_E = comdat any

$_ZNSt8_Rb_treeISt4pairIS0_IxxExES2_St9_IdentityIS2_ESt4lessIS2_ESaIS2_EE15_M_destroy_nodeEPSt13_Rb_tree_nodeIS2_E = comdat any

$_ZNSt8_Rb_treeISt4pairIS0_IxxExES2_St9_IdentityIS2_ESt4lessIS2_ESaIS2_EE11_M_put_nodeEPSt13_Rb_tree_nodeIS2_E = comdat any

$_ZNSt16allocator_traitsISaISt13_Rb_tree_nodeISt4pairIS1_IxxExEEEE10deallocateERS5_PS4_m = comdat any

$_ZN9__gnu_cxx13new_allocatorISt13_Rb_tree_nodeISt4pairIS2_IxxExEEE10deallocateEPS5_m = comdat any

$_ZNSt16allocator_traitsISaISt13_Rb_tree_nodeISt4pairIS1_IxxExEEEE7destroyIS3_EEvRS5_PT_ = comdat any

$_ZN9__gnu_cxx13new_allocatorISt13_Rb_tree_nodeISt4pairIS2_IxxExEEE7destroyIS4_EEvPT_ = comdat any

$_ZNSt8_Rb_treeISt4pairIS0_IxxExES2_St9_IdentityIS2_ESt4lessIS2_ESaIS2_EE5eraseB5cxx11ESt23_Rb_tree_const_iteratorIS2_E = comdat any

$_ZNSt23_Rb_tree_const_iteratorISt4pairIS0_IxxExEEppEv = comdat any

$_ZNSt8_Rb_treeISt4pairIS0_IxxExES2_St9_IdentityIS2_ESt4lessIS2_ESaIS2_EE12_M_erase_auxESt23_Rb_tree_const_iteratorIS2_E = comdat any

$_ZNKSt23_Rb_tree_const_iteratorISt4pairIS0_IxxExEE13_M_const_castEv = comdat any

$_ZNKSt8_Rb_treeISt4pairIS0_IxxExES2_St9_IdentityIS2_ESt4lessIS2_ESaIS2_EE5beginEv = comdat any

$_ZNSt23_Rb_tree_const_iteratorISt4pairIS0_IxxExEEC2EPKSt18_Rb_tree_node_base = comdat any

$_ZNKSt8_Rb_treeISt4pairIS0_IxxExES2_St9_IdentityIS2_ESt4lessIS2_ESaIS2_EE5emptyEv = comdat any

$_ZNSt8_Rb_treeISt4pairIS0_IxxExES2_St9_IdentityIS2_ESt4lessIS2_ESaIS2_EEC2Ev = comdat any

$_ZNSt8_Rb_treeISt4pairIS0_IxxExES2_St9_IdentityIS2_ESt4lessIS2_ESaIS2_EE13_Rb_tree_implIS6_Lb1EEC2Ev = comdat any

$_ZNSaISt13_Rb_tree_nodeISt4pairIS0_IxxExEEEC2Ev = comdat any

$_ZNSt20_Rb_tree_key_compareISt4lessISt4pairIS1_IxxExEEEC2Ev = comdat any

$_ZNSt15_Rb_tree_headerC2Ev = comdat any

$_ZNSt15_Rb_tree_header8_M_resetEv = comdat any

$_ZN9__gnu_cxx13new_allocatorISt13_Rb_tree_nodeISt4pairIS2_IxxExEEEC2Ev = comdat any

@llvm.global_ctors = appending global [1 x { i32, void ()*, i8* }] [{ i32, void ()*, i8* } { i32 65535, void ()* @_GLOBAL__sub_I_StockPortfolio.cpp, i8* null }]
@_ZStL8__ioinit = internal global %"class.std::ios_base::Init" zeroinitializer, align 1
@strength = dso_local global [200005 x i64] zeroinitializer, align 16
@tree = dso_local global [600005 x i64] zeroinitializer, align 16
@lef = dso_local global [200005 x i64] zeroinitializer, align 16
@righ = dso_local global [200005 x i64] zeroinitializer, align 16
@dp = dso_local global [200005 x i64] zeroinitializer, align 16
@.str = private unnamed_addr constant [30 x i8] c"../input_files/StockPortfolio\00", align 1
@.str.1 = private unnamed_addr constant [2 x i8] c"r\00", align 1
@stdin = external dso_local global %struct._IO_FILE*, align 8
@.str.2 = private unnamed_addr constant [5 x i8] c"%lld\00", align 1
@.str.3 = private unnamed_addr constant [6 x i8] c"%lld\0A\00", align 1

; Function Attrs: noinline uwtable
define internal void @_GLOBAL__sub_I_StockPortfolio.cpp() #0 section ".text.startup" {
  call void @__cxx_global_var_init(), !llfi_index !4
  ret void, !llfi_index !5
}

; Function Attrs: noinline uwtable
define internal void @__cxx_global_var_init() #0 section ".text.startup" {
  call void @_ZNSt8ios_base4InitC1Ev(%"class.std::ios_base::Init"* nonnull align 1 dereferenceable(1) @_ZStL8__ioinit), !llfi_index !6
  %1 = call i32 @atexit(void ()* @__dtor__ZStL8__ioinit) #2, !llfi_index !7
  ret void, !llfi_index !8
}

declare dso_local void @_ZNSt8ios_base4InitC1Ev(%"class.std::ios_base::Init"* nonnull align 1 dereferenceable(1)) unnamed_addr #1

; Function Attrs: noinline uwtable
define internal void @__dtor__ZStL8__ioinit() #0 section ".text.startup" {
  call void @_ZNSt8ios_base4InitD1Ev(%"class.std::ios_base::Init"* @_ZStL8__ioinit), !llfi_index !9
  ret void, !llfi_index !10
}

; Function Attrs: nounwind
declare dso_local i32 @atexit(void ()*) #2

; Function Attrs: nounwind
declare dso_local void @_ZNSt8ios_base4InitD1Ev(%"class.std::ios_base::Init"* nonnull align 1 dereferenceable(1)) unnamed_addr #3

; Function Attrs: mustprogress noinline uwtable
define dso_local void @_Z6updatexxxxxx(i64 %0, i64 %1, i64 %2, i64 %3, i64 %4, i64 %5) #4 {
  %7 = alloca i64, align 8, !llfi_index !11
  %8 = alloca i64, align 8, !llfi_index !12
  %9 = alloca i64, align 8, !llfi_index !13
  %10 = alloca i64, align 8, !llfi_index !14
  %11 = alloca i64, align 8, !llfi_index !15
  %12 = alloca i64, align 8, !llfi_index !16
  store i64 %0, i64* %7, align 8, !llfi_index !17
  store i64 %1, i64* %8, align 8, !llfi_index !18
  store i64 %2, i64* %9, align 8, !llfi_index !19
  store i64 %3, i64* %10, align 8, !llfi_index !20
  store i64 %4, i64* %11, align 8, !llfi_index !21
  store i64 %5, i64* %12, align 8, !llfi_index !22
  %13 = load i64, i64* %10, align 8, !llfi_index !23
  %14 = load i64, i64* %9, align 8, !llfi_index !24
  %15 = icmp sgt i64 %13, %14, !llfi_index !25
  br i1 %15, label %20, label %16, !llfi_index !26

16:                                               ; preds = %6
  %17 = load i64, i64* %8, align 8, !llfi_index !27
  %18 = load i64, i64* %11, align 8, !llfi_index !28
  %19 = icmp sgt i64 %17, %18, !llfi_index !29
  br i1 %19, label %20, label %21, !llfi_index !30

20:                                               ; preds = %16, %6
  br label %67, !llfi_index !31

21:                                               ; preds = %16
  %22 = load i64, i64* %8, align 8, !llfi_index !32
  %23 = load i64, i64* %10, align 8, !llfi_index !33
  %24 = icmp sge i64 %22, %23, !llfi_index !34
  br i1 %24, label %25, label %33, !llfi_index !35

25:                                               ; preds = %21
  %26 = load i64, i64* %9, align 8, !llfi_index !36
  %27 = load i64, i64* %11, align 8, !llfi_index !37
  %28 = icmp sle i64 %26, %27, !llfi_index !38
  br i1 %28, label %29, label %33, !llfi_index !39

29:                                               ; preds = %25
  %30 = load i64, i64* %12, align 8, !llfi_index !40
  %31 = load i64, i64* %7, align 8, !llfi_index !41
  %32 = getelementptr inbounds [600005 x i64], [600005 x i64]* @tree, i64 0, i64 %31, !llfi_index !42
  store i64 %30, i64* %32, align 8, !llfi_index !43
  br label %67, !llfi_index !44

33:                                               ; preds = %25, %21
  %34 = load i64, i64* %7, align 8, !llfi_index !45
  %35 = mul nsw i64 %34, 2, !llfi_index !46
  %36 = load i64, i64* %8, align 8, !llfi_index !47
  %37 = load i64, i64* %8, align 8, !llfi_index !48
  %38 = load i64, i64* %9, align 8, !llfi_index !49
  %39 = add nsw i64 %37, %38, !llfi_index !50
  %40 = sdiv i64 %39, 2, !llfi_index !51
  %41 = load i64, i64* %10, align 8, !llfi_index !52
  %42 = load i64, i64* %11, align 8, !llfi_index !53
  %43 = load i64, i64* %12, align 8, !llfi_index !54
  call void @_Z6updatexxxxxx(i64 %35, i64 %36, i64 %40, i64 %41, i64 %42, i64 %43), !llfi_index !55
  %44 = load i64, i64* %7, align 8, !llfi_index !56
  %45 = mul nsw i64 %44, 2, !llfi_index !57
  %46 = add nsw i64 %45, 1, !llfi_index !58
  %47 = load i64, i64* %8, align 8, !llfi_index !59
  %48 = load i64, i64* %9, align 8, !llfi_index !60
  %49 = add nsw i64 %47, %48, !llfi_index !61
  %50 = sdiv i64 %49, 2, !llfi_index !62
  %51 = add nsw i64 %50, 1, !llfi_index !63
  %52 = load i64, i64* %9, align 8, !llfi_index !64
  %53 = load i64, i64* %10, align 8, !llfi_index !65
  %54 = load i64, i64* %11, align 8, !llfi_index !66
  %55 = load i64, i64* %12, align 8, !llfi_index !67
  call void @_Z6updatexxxxxx(i64 %46, i64 %51, i64 %52, i64 %53, i64 %54, i64 %55), !llfi_index !68
  %56 = load i64, i64* %7, align 8, !llfi_index !69
  %57 = mul nsw i64 %56, 2, !llfi_index !70
  %58 = getelementptr inbounds [600005 x i64], [600005 x i64]* @tree, i64 0, i64 %57, !llfi_index !71
  %59 = load i64, i64* %7, align 8, !llfi_index !72
  %60 = mul nsw i64 %59, 2, !llfi_index !73
  %61 = add nsw i64 %60, 1, !llfi_index !74
  %62 = getelementptr inbounds [600005 x i64], [600005 x i64]* @tree, i64 0, i64 %61, !llfi_index !75
  %63 = call nonnull align 8 dereferenceable(8) i64* @_ZSt3maxIxERKT_S2_S2_(i64* nonnull align 8 dereferenceable(8) %58, i64* nonnull align 8 dereferenceable(8) %62), !llfi_index !76
  %64 = load i64, i64* %63, align 8, !llfi_index !77
  %65 = load i64, i64* %7, align 8, !llfi_index !78
  %66 = getelementptr inbounds [600005 x i64], [600005 x i64]* @tree, i64 0, i64 %65, !llfi_index !79
  store i64 %64, i64* %66, align 8, !llfi_index !80
  br label %67, !llfi_index !81

67:                                               ; preds = %33, %29, %20
  ret void, !llfi_index !82
}

; Function Attrs: mustprogress noinline nounwind uwtable
define linkonce_odr dso_local nonnull align 8 dereferenceable(8) i64* @_ZSt3maxIxERKT_S2_S2_(i64* nonnull align 8 dereferenceable(8) %0, i64* nonnull align 8 dereferenceable(8) %1) #5 comdat {
  %3 = alloca i64*, align 8, !llfi_index !83
  %4 = alloca i64*, align 8, !llfi_index !84
  %5 = alloca i64*, align 8, !llfi_index !85
  store i64* %0, i64** %4, align 8, !llfi_index !86
  store i64* %1, i64** %5, align 8, !llfi_index !87
  %6 = load i64*, i64** %4, align 8, !llfi_index !88
  %7 = load i64, i64* %6, align 8, !llfi_index !89
  %8 = load i64*, i64** %5, align 8, !llfi_index !90
  %9 = load i64, i64* %8, align 8, !llfi_index !91
  %10 = icmp slt i64 %7, %9, !llfi_index !92
  br i1 %10, label %11, label %13, !llfi_index !93

11:                                               ; preds = %2
  %12 = load i64*, i64** %5, align 8, !llfi_index !94
  store i64* %12, i64** %3, align 8, !llfi_index !95
  br label %15, !llfi_index !96

13:                                               ; preds = %2
  %14 = load i64*, i64** %4, align 8, !llfi_index !97
  store i64* %14, i64** %3, align 8, !llfi_index !98
  br label %15, !llfi_index !99

15:                                               ; preds = %13, %11
  %16 = load i64*, i64** %3, align 8, !llfi_index !100
  ret i64* %16, !llfi_index !101
}

; Function Attrs: mustprogress noinline uwtable
define dso_local i64 @_Z5queryxxxxx(i64 %0, i64 %1, i64 %2, i64 %3, i64 %4) #4 {
  %6 = alloca i64, align 8, !llfi_index !102
  %7 = alloca i64, align 8, !llfi_index !103
  %8 = alloca i64, align 8, !llfi_index !104
  %9 = alloca i64, align 8, !llfi_index !105
  %10 = alloca i64, align 8, !llfi_index !106
  %11 = alloca i64, align 8, !llfi_index !107
  %12 = alloca i64, align 8, !llfi_index !108
  %13 = alloca i64, align 8, !llfi_index !109
  store i64 %0, i64* %7, align 8, !llfi_index !110
  store i64 %1, i64* %8, align 8, !llfi_index !111
  store i64 %2, i64* %9, align 8, !llfi_index !112
  store i64 %3, i64* %10, align 8, !llfi_index !113
  store i64 %4, i64* %11, align 8, !llfi_index !114
  %14 = load i64, i64* %10, align 8, !llfi_index !115
  %15 = load i64, i64* %9, align 8, !llfi_index !116
  %16 = icmp sgt i64 %14, %15, !llfi_index !117
  br i1 %16, label %21, label %17, !llfi_index !118

17:                                               ; preds = %5
  %18 = load i64, i64* %8, align 8, !llfi_index !119
  %19 = load i64, i64* %11, align 8, !llfi_index !120
  %20 = icmp sgt i64 %18, %19, !llfi_index !121
  br i1 %20, label %21, label %22, !llfi_index !122

21:                                               ; preds = %17, %5
  store i64 0, i64* %6, align 8, !llfi_index !123
  br label %59, !llfi_index !124

22:                                               ; preds = %17
  %23 = load i64, i64* %8, align 8, !llfi_index !125
  %24 = load i64, i64* %10, align 8, !llfi_index !126
  %25 = icmp sge i64 %23, %24, !llfi_index !127
  br i1 %25, label %26, label %34, !llfi_index !128

26:                                               ; preds = %22
  %27 = load i64, i64* %9, align 8, !llfi_index !129
  %28 = load i64, i64* %11, align 8, !llfi_index !130
  %29 = icmp sle i64 %27, %28, !llfi_index !131
  br i1 %29, label %30, label %34, !llfi_index !132

30:                                               ; preds = %26
  %31 = load i64, i64* %7, align 8, !llfi_index !133
  %32 = getelementptr inbounds [600005 x i64], [600005 x i64]* @tree, i64 0, i64 %31, !llfi_index !134
  %33 = load i64, i64* %32, align 8, !llfi_index !135
  store i64 %33, i64* %6, align 8, !llfi_index !136
  br label %59, !llfi_index !137

34:                                               ; preds = %26, %22
  %35 = load i64, i64* %7, align 8, !llfi_index !138
  %36 = mul nsw i64 %35, 2, !llfi_index !139
  %37 = load i64, i64* %8, align 8, !llfi_index !140
  %38 = load i64, i64* %8, align 8, !llfi_index !141
  %39 = load i64, i64* %9, align 8, !llfi_index !142
  %40 = add nsw i64 %38, %39, !llfi_index !143
  %41 = sdiv i64 %40, 2, !llfi_index !144
  %42 = load i64, i64* %10, align 8, !llfi_index !145
  %43 = load i64, i64* %11, align 8, !llfi_index !146
  %44 = call i64 @_Z5queryxxxxx(i64 %36, i64 %37, i64 %41, i64 %42, i64 %43), !llfi_index !147
  store i64 %44, i64* %12, align 8, !llfi_index !148
  %45 = load i64, i64* %7, align 8, !llfi_index !149
  %46 = mul nsw i64 %45, 2, !llfi_index !150
  %47 = add nsw i64 %46, 1, !llfi_index !151
  %48 = load i64, i64* %8, align 8, !llfi_index !152
  %49 = load i64, i64* %9, align 8, !llfi_index !153
  %50 = add nsw i64 %48, %49, !llfi_index !154
  %51 = sdiv i64 %50, 2, !llfi_index !155
  %52 = add nsw i64 %51, 1, !llfi_index !156
  %53 = load i64, i64* %9, align 8, !llfi_index !157
  %54 = load i64, i64* %10, align 8, !llfi_index !158
  %55 = load i64, i64* %11, align 8, !llfi_index !159
  %56 = call i64 @_Z5queryxxxxx(i64 %47, i64 %52, i64 %53, i64 %54, i64 %55), !llfi_index !160
  store i64 %56, i64* %13, align 8, !llfi_index !161
  %57 = call nonnull align 8 dereferenceable(8) i64* @_ZSt3maxIxERKT_S2_S2_(i64* nonnull align 8 dereferenceable(8) %12, i64* nonnull align 8 dereferenceable(8) %13), !llfi_index !162
  %58 = load i64, i64* %57, align 8, !llfi_index !163
  store i64 %58, i64* %6, align 8, !llfi_index !164
  br label %59, !llfi_index !165

59:                                               ; preds = %34, %30, %21
  %60 = load i64, i64* %6, align 8, !llfi_index !166
  ret i64 %60, !llfi_index !167
}

; Function Attrs: mustprogress noinline norecurse uwtable
define dso_local i32 @main() #6 personality i8* bitcast (i32 (...)* @__gxx_personality_v0 to i8*) {
  %1 = alloca i32, align 4, !llfi_index !168
  %2 = alloca i64, align 8, !llfi_index !169
  %3 = alloca i64, align 8, !llfi_index !170
  %4 = alloca i64, align 8, !llfi_index !171
  %5 = alloca i64, align 8, !llfi_index !172
  %6 = alloca i64, align 8, !llfi_index !173
  %7 = alloca i32, align 4, !llfi_index !174
  %8 = alloca %"class.std::set", align 8, !llfi_index !175
  %9 = alloca %"struct.std::pair", align 8, !llfi_index !176
  %10 = alloca %"struct.std::_Rb_tree_const_iterator", align 8, !llfi_index !177
  %11 = alloca i8*, align 8, !llfi_index !178
  %12 = alloca i32, align 4, !llfi_index !179
  %13 = alloca %"struct.std::_Rb_tree_const_iterator", align 8, !llfi_index !180
  %14 = alloca %"struct.std::_Rb_tree_const_iterator", align 8, !llfi_index !181
  %15 = alloca i64, align 8, !llfi_index !182
  %16 = alloca %"struct.std::pair", align 8, !llfi_index !183
  %17 = alloca %"struct.std::pair.0", align 8, !llfi_index !184
  %18 = alloca i64, align 8, !llfi_index !185
  %19 = alloca %"struct.std::pair.3", align 8, !llfi_index !186
  %20 = alloca i64, align 8, !llfi_index !187
  store i32 0, i32* %1, align 4, !llfi_index !188
  %21 = load %struct._IO_FILE*, %struct._IO_FILE** @stdin, align 8, !llfi_index !189
  %22 = call %struct._IO_FILE* @freopen(i8* getelementptr inbounds ([30 x i8], [30 x i8]* @.str, i64 0, i64 0), i8* getelementptr inbounds ([2 x i8], [2 x i8]* @.str.1, i64 0, i64 0), %struct._IO_FILE* %21), !llfi_index !190
  %23 = call i32 (i8*, ...) @__isoc99_scanf(i8* getelementptr inbounds ([5 x i8], [5 x i8]* @.str.2, i64 0, i64 0), i64* %5), !llfi_index !191
  store i32 89, i32* %7, align 4, !llfi_index !192
  store i64 1, i64* %2, align 8, !llfi_index !193
  br label %24, !llfi_index !194

24:                                               ; preds = %32, %0
  %25 = load i64, i64* %2, align 8, !llfi_index !195
  %26 = load i64, i64* %5, align 8, !llfi_index !196
  %27 = icmp sle i64 %25, %26, !llfi_index !197
  br i1 %27, label %28, label %35, !llfi_index !198

28:                                               ; preds = %24
  %29 = load i64, i64* %2, align 8, !llfi_index !199
  %30 = getelementptr inbounds [200005 x i64], [200005 x i64]* @strength, i64 0, i64 %29, !llfi_index !200
  %31 = call i32 (i8*, ...) @__isoc99_scanf(i8* getelementptr inbounds ([5 x i8], [5 x i8]* @.str.2, i64 0, i64 0), i64* %30), !llfi_index !201
  br label %32, !llfi_index !202

32:                                               ; preds = %28
  %33 = load i64, i64* %2, align 8, !llfi_index !203
  %34 = add nsw i64 %33, 1, !llfi_index !204
  store i64 %34, i64* %2, align 8, !llfi_index !205
  br label %24, !llvm.loop !206, !llfi_index !208

35:                                               ; preds = %24
  store i32 89, i32* %7, align 4, !llfi_index !209
  store i64 1, i64* %2, align 8, !llfi_index !210
  br label %36, !llfi_index !211

36:                                               ; preds = %44, %35
  %37 = load i64, i64* %2, align 8, !llfi_index !212
  %38 = load i64, i64* %5, align 8, !llfi_index !213
  %39 = icmp sle i64 %37, %38, !llfi_index !214
  br i1 %39, label %40, label %47, !llfi_index !215

40:                                               ; preds = %36
  %41 = load i64, i64* %2, align 8, !llfi_index !216
  %42 = getelementptr inbounds [200005 x i64], [200005 x i64]* @lef, i64 0, i64 %41, !llfi_index !217
  %43 = call i32 (i8*, ...) @__isoc99_scanf(i8* getelementptr inbounds ([5 x i8], [5 x i8]* @.str.2, i64 0, i64 0), i64* %42), !llfi_index !218
  br label %44, !llfi_index !219

44:                                               ; preds = %40
  %45 = load i64, i64* %2, align 8, !llfi_index !220
  %46 = add nsw i64 %45, 1, !llfi_index !221
  store i64 %46, i64* %2, align 8, !llfi_index !222
  br label %36, !llvm.loop !223, !llfi_index !224

47:                                               ; preds = %36
  store i32 89, i32* %7, align 4, !llfi_index !225
  store i64 1, i64* %2, align 8, !llfi_index !226
  br label %48, !llfi_index !227

48:                                               ; preds = %56, %47
  %49 = load i64, i64* %2, align 8, !llfi_index !228
  %50 = load i64, i64* %5, align 8, !llfi_index !229
  %51 = icmp sle i64 %49, %50, !llfi_index !230
  br i1 %51, label %52, label %59, !llfi_index !231

52:                                               ; preds = %48
  %53 = load i64, i64* %2, align 8, !llfi_index !232
  %54 = getelementptr inbounds [200005 x i64], [200005 x i64]* @righ, i64 0, i64 %53, !llfi_index !233
  %55 = call i32 (i8*, ...) @__isoc99_scanf(i8* getelementptr inbounds ([5 x i8], [5 x i8]* @.str.2, i64 0, i64 0), i64* %54), !llfi_index !234
  br label %56, !llfi_index !235

56:                                               ; preds = %52
  %57 = load i64, i64* %2, align 8, !llfi_index !236
  %58 = add nsw i64 %57, 1, !llfi_index !237
  store i64 %58, i64* %2, align 8, !llfi_index !238
  br label %48, !llvm.loop !239, !llfi_index !240

59:                                               ; preds = %48
  call void @_ZNSt3setISt4pairIS0_IxxExESt4lessIS2_ESaIS2_EEC2Ev(%"class.std::set"* nonnull align 8 dereferenceable(48) %8) #2, !llfi_index !241
  store i32 89, i32* %7, align 4, !llfi_index !242
  store i64 1, i64* %2, align 8, !llfi_index !243
  br label %60, !llfi_index !244

60:                                               ; preds = %152, %59
  %61 = load i64, i64* %2, align 8, !llfi_index !245
  %62 = load i64, i64* %5, align 8, !llfi_index !246
  %63 = icmp sle i64 %61, %62, !llfi_index !247
  br i1 %63, label %64, label %155, !llfi_index !248

64:                                               ; preds = %60
  store i32 89, i32* %7, align 4, !llfi_index !249
  br label %65, !llfi_index !250

65:                                               ; preds = %101, %64
  %66 = call zeroext i1 @_ZNKSt3setISt4pairIS0_IxxExESt4lessIS2_ESaIS2_EE5emptyEv(%"class.std::set"* nonnull align 8 dereferenceable(48) %8) #2, !llfi_index !251
  %67 = xor i1 %66, true, !llfi_index !252
  br i1 %67, label %68, label %102, !llfi_index !253

68:                                               ; preds = %65
  %69 = call %"struct.std::_Rb_tree_node_base"* @_ZNKSt3setISt4pairIS0_IxxExESt4lessIS2_ESaIS2_EE5beginEv(%"class.std::set"* nonnull align 8 dereferenceable(48) %8) #2, !llfi_index !254
  %70 = getelementptr inbounds %"struct.std::_Rb_tree_const_iterator", %"struct.std::_Rb_tree_const_iterator"* %10, i32 0, i32 0, !llfi_index !255
  store %"struct.std::_Rb_tree_node_base"* %69, %"struct.std::_Rb_tree_node_base"** %70, align 8, !llfi_index !256
  %71 = call nonnull align 8 dereferenceable(24) %"struct.std::pair"* @_ZNKSt23_Rb_tree_const_iteratorISt4pairIS0_IxxExEEdeEv(%"struct.std::_Rb_tree_const_iterator"* nonnull align 8 dereferenceable(8) %10) #2, !llfi_index !257
  %72 = bitcast %"struct.std::pair"* %9 to i8*, !llfi_index !258
  %73 = bitcast %"struct.std::pair"* %71 to i8*, !llfi_index !259
  call void @llvm.memcpy.p0i8.p0i8.i64(i8* align 8 %72, i8* align 8 %73, i64 24, i1 false), !llfi_index !260
  %74 = getelementptr inbounds %"struct.std::pair", %"struct.std::pair"* %9, i32 0, i32 0, !llfi_index !261
  %75 = getelementptr inbounds %"struct.std::pair.0", %"struct.std::pair.0"* %74, i32 0, i32 0, !llfi_index !262
  %76 = load i64, i64* %75, align 8, !llfi_index !263
  %77 = load i64, i64* %2, align 8, !llfi_index !264
  %78 = icmp eq i64 %76, %77, !llfi_index !265
  br i1 %78, label %79, label %100, !llfi_index !266

79:                                               ; preds = %68
  %80 = load i64, i64* %5, align 8, !llfi_index !267
  %81 = getelementptr inbounds %"struct.std::pair", %"struct.std::pair"* %9, i32 0, i32 1, !llfi_index !268
  %82 = load i64, i64* %81, align 8, !llfi_index !269
  %83 = getelementptr inbounds %"struct.std::pair", %"struct.std::pair"* %9, i32 0, i32 1, !llfi_index !270
  %84 = load i64, i64* %83, align 8, !llfi_index !271
  %85 = getelementptr inbounds %"struct.std::pair", %"struct.std::pair"* %9, i32 0, i32 0, !llfi_index !272
  %86 = getelementptr inbounds %"struct.std::pair.0", %"struct.std::pair.0"* %85, i32 0, i32 1, !llfi_index !273
  %87 = load i64, i64* %86, align 8, !llfi_index !274
  invoke void @_Z6updatexxxxxx(i64 1, i64 1, i64 %80, i64 %82, i64 %84, i64 %87)
          to label %88 unwind label %96, !llfi_index !275

88:                                               ; preds = %79
  %89 = call %"struct.std::_Rb_tree_node_base"* @_ZNKSt3setISt4pairIS0_IxxExESt4lessIS2_ESaIS2_EE5beginEv(%"class.std::set"* nonnull align 8 dereferenceable(48) %8) #2, !llfi_index !276
  %90 = getelementptr inbounds %"struct.std::_Rb_tree_const_iterator", %"struct.std::_Rb_tree_const_iterator"* %13, i32 0, i32 0, !llfi_index !277
  store %"struct.std::_Rb_tree_node_base"* %89, %"struct.std::_Rb_tree_node_base"** %90, align 8, !llfi_index !278
  %91 = getelementptr inbounds %"struct.std::_Rb_tree_const_iterator", %"struct.std::_Rb_tree_const_iterator"* %13, i32 0, i32 0, !llfi_index !279
  %92 = load %"struct.std::_Rb_tree_node_base"*, %"struct.std::_Rb_tree_node_base"** %91, align 8, !llfi_index !280
  %93 = invoke %"struct.std::_Rb_tree_node_base"* @_ZNSt3setISt4pairIS0_IxxExESt4lessIS2_ESaIS2_EE5eraseB5cxx11ESt23_Rb_tree_const_iteratorIS2_E(%"class.std::set"* nonnull align 8 dereferenceable(48) %8, %"struct.std::_Rb_tree_node_base"* %92)
          to label %94 unwind label %96, !llfi_index !281

94:                                               ; preds = %88
  %95 = getelementptr inbounds %"struct.std::_Rb_tree_const_iterator", %"struct.std::_Rb_tree_const_iterator"* %14, i32 0, i32 0, !llfi_index !282
  store %"struct.std::_Rb_tree_node_base"* %93, %"struct.std::_Rb_tree_node_base"** %95, align 8, !llfi_index !283
  br label %101, !llfi_index !284

96:                                               ; preds = %169, %160, %144, %138, %128, %111, %88, %79
  %97 = landingpad { i8*, i32 }
          cleanup, !llfi_index !285
  %98 = extractvalue { i8*, i32 } %97, 0, !llfi_index !286
  store i8* %98, i8** %11, align 8, !llfi_index !287
  %99 = extractvalue { i8*, i32 } %97, 1, !llfi_index !288
  store i32 %99, i32* %12, align 4, !llfi_index !289
  call void @_ZNSt3setISt4pairIS0_IxxExESt4lessIS2_ESaIS2_EED2Ev(%"class.std::set"* nonnull align 8 dereferenceable(48) %8) #2, !llfi_index !290
  br label %174, !llfi_index !291

100:                                              ; preds = %68
  br label %102, !llfi_index !292

101:                                              ; preds = %94
  br label %65, !llvm.loop !293, !llfi_index !294

102:                                              ; preds = %100, %65
  %103 = load i64, i64* %2, align 8, !llfi_index !295
  %104 = load i64, i64* %2, align 8, !llfi_index !296
  %105 = getelementptr inbounds [200005 x i64], [200005 x i64]* @lef, i64 0, i64 %104, !llfi_index !297
  %106 = load i64, i64* %105, align 8, !llfi_index !298
  %107 = sub nsw i64 %103, %106, !llfi_index !299
  %108 = sub nsw i64 %107, 1, !llfi_index !300
  store i64 %108, i64* %15, align 8, !llfi_index !301
  %109 = load i64, i64* %15, align 8, !llfi_index !302
  %110 = icmp sgt i64 %109, 0, !llfi_index !303
  br i1 %110, label %111, label %122, !llfi_index !304

111:                                              ; preds = %102
  %112 = load i64, i64* %5, align 8, !llfi_index !305
  %113 = load i64, i64* %15, align 8, !llfi_index !306
  %114 = invoke i64 @_Z5queryxxxxx(i64 1, i64 1, i64 %112, i64 1, i64 %113)
          to label %115 unwind label %96, !llfi_index !307

115:                                              ; preds = %111
  %116 = load i64, i64* %2, align 8, !llfi_index !308
  %117 = getelementptr inbounds [200005 x i64], [200005 x i64]* @strength, i64 0, i64 %116, !llfi_index !309
  %118 = load i64, i64* %117, align 8, !llfi_index !310
  %119 = add nsw i64 %114, %118, !llfi_index !311
  %120 = load i64, i64* %2, align 8, !llfi_index !312
  %121 = getelementptr inbounds [200005 x i64], [200005 x i64]* @dp, i64 0, i64 %120, !llfi_index !313
  store i64 %119, i64* %121, align 8, !llfi_index !314
  br label %128, !llfi_index !315

122:                                              ; preds = %102
  %123 = load i64, i64* %2, align 8, !llfi_index !316
  %124 = getelementptr inbounds [200005 x i64], [200005 x i64]* @strength, i64 0, i64 %123, !llfi_index !317
  %125 = load i64, i64* %124, align 8, !llfi_index !318
  %126 = load i64, i64* %2, align 8, !llfi_index !319
  %127 = getelementptr inbounds [200005 x i64], [200005 x i64]* @dp, i64 0, i64 %126, !llfi_index !320
  store i64 %125, i64* %127, align 8, !llfi_index !321
  br label %128, !llfi_index !322

128:                                              ; preds = %122, %115
  %129 = load i64, i64* %2, align 8, !llfi_index !323
  %130 = load i64, i64* %2, align 8, !llfi_index !324
  %131 = getelementptr inbounds [200005 x i64], [200005 x i64]* @righ, i64 0, i64 %130, !llfi_index !325
  %132 = load i64, i64* %131, align 8, !llfi_index !326
  %133 = add nsw i64 %129, %132, !llfi_index !327
  %134 = add nsw i64 %133, 1, !llfi_index !328
  store i64 %134, i64* %18, align 8, !llfi_index !329
  %135 = load i64, i64* %2, align 8, !llfi_index !330
  %136 = getelementptr inbounds [200005 x i64], [200005 x i64]* @dp, i64 0, i64 %135, !llfi_index !331
  %137 = invoke { i64, i64 } @_ZSt9make_pairIxRxESt4pairINSt17__decay_and_stripIT_E6__typeENS2_IT0_E6__typeEEOS3_OS6_(i64* nonnull align 8 dereferenceable(8) %18, i64* nonnull align 8 dereferenceable(8) %136)
          to label %138 unwind label %96, !llfi_index !332

138:                                              ; preds = %128
  %139 = bitcast %"struct.std::pair.0"* %17 to { i64, i64 }*, !llfi_index !333
  %140 = getelementptr inbounds { i64, i64 }, { i64, i64 }* %139, i32 0, i32 0, !llfi_index !334
  %141 = extractvalue { i64, i64 } %137, 0, !llfi_index !335
  store i64 %141, i64* %140, align 8, !llfi_index !336
  %142 = getelementptr inbounds { i64, i64 }, { i64, i64 }* %139, i32 0, i32 1, !llfi_index !337
  %143 = extractvalue { i64, i64 } %137, 1, !llfi_index !338
  store i64 %143, i64* %142, align 8, !llfi_index !339
  invoke void @_ZSt9make_pairISt4pairIxxERxES0_INSt17__decay_and_stripIT_E6__typeENS3_IT0_E6__typeEEOS4_OS7_(%"struct.std::pair"* sret(%"struct.std::pair") align 8 %16, %"struct.std::pair.0"* nonnull align 8 dereferenceable(16) %17, i64* nonnull align 8 dereferenceable(8) %2)
          to label %144 unwind label %96, !llfi_index !340

144:                                              ; preds = %138
  %145 = invoke { %"struct.std::_Rb_tree_node_base"*, i8 } @_ZNSt3setISt4pairIS0_IxxExESt4lessIS2_ESaIS2_EE6insertEOS2_(%"class.std::set"* nonnull align 8 dereferenceable(48) %8, %"struct.std::pair"* nonnull align 8 dereferenceable(24) %16)
          to label %146 unwind label %96, !llfi_index !341

146:                                              ; preds = %144
  %147 = bitcast %"struct.std::pair.3"* %19 to { %"struct.std::_Rb_tree_node_base"*, i8 }*, !llfi_index !342
  %148 = getelementptr inbounds { %"struct.std::_Rb_tree_node_base"*, i8 }, { %"struct.std::_Rb_tree_node_base"*, i8 }* %147, i32 0, i32 0, !llfi_index !343
  %149 = extractvalue { %"struct.std::_Rb_tree_node_base"*, i8 } %145, 0, !llfi_index !344
  store %"struct.std::_Rb_tree_node_base"* %149, %"struct.std::_Rb_tree_node_base"** %148, align 8, !llfi_index !345
  %150 = getelementptr inbounds { %"struct.std::_Rb_tree_node_base"*, i8 }, { %"struct.std::_Rb_tree_node_base"*, i8 }* %147, i32 0, i32 1, !llfi_index !346
  %151 = extractvalue { %"struct.std::_Rb_tree_node_base"*, i8 } %145, 1, !llfi_index !347
  store i8 %151, i8* %150, align 8, !llfi_index !348
  br label %152, !llfi_index !349

152:                                              ; preds = %146
  %153 = load i64, i64* %2, align 8, !llfi_index !350
  %154 = add nsw i64 %153, 1, !llfi_index !351
  store i64 %154, i64* %2, align 8, !llfi_index !352
  br label %60, !llvm.loop !353, !llfi_index !354

155:                                              ; preds = %60
  store i64 0, i64* %20, align 8, !llfi_index !355
  store i32 89, i32* %7, align 4, !llfi_index !356
  store i64 1, i64* %2, align 8, !llfi_index !357
  br label %156, !llfi_index !358

156:                                              ; preds = %166, %155
  %157 = load i64, i64* %2, align 8, !llfi_index !359
  %158 = load i64, i64* %5, align 8, !llfi_index !360
  %159 = icmp sle i64 %157, %158, !llfi_index !361
  br i1 %159, label %160, label %169, !llfi_index !362

160:                                              ; preds = %156
  %161 = load i64, i64* %2, align 8, !llfi_index !363
  %162 = getelementptr inbounds [200005 x i64], [200005 x i64]* @dp, i64 0, i64 %161, !llfi_index !364
  %163 = invoke nonnull align 8 dereferenceable(8) i64* @_ZSt3maxIxERKT_S2_S2_(i64* nonnull align 8 dereferenceable(8) %20, i64* nonnull align 8 dereferenceable(8) %162)
          to label %164 unwind label %96, !llfi_index !365

164:                                              ; preds = %160
  %165 = load i64, i64* %163, align 8, !llfi_index !366
  store i64 %165, i64* %20, align 8, !llfi_index !367
  br label %166, !llfi_index !368

166:                                              ; preds = %164
  %167 = load i64, i64* %2, align 8, !llfi_index !369
  %168 = add nsw i64 %167, 1, !llfi_index !370
  store i64 %168, i64* %2, align 8, !llfi_index !371
  br label %156, !llvm.loop !372, !llfi_index !373

169:                                              ; preds = %156
  %170 = load i64, i64* %20, align 8, !llfi_index !374
  %171 = invoke i32 (i8*, ...) @printf(i8* getelementptr inbounds ([6 x i8], [6 x i8]* @.str.3, i64 0, i64 0), i64 %170)
          to label %172 unwind label %96, !llfi_index !375

172:                                              ; preds = %169
  store i32 0, i32* %1, align 4, !llfi_index !376
  call void @_ZNSt3setISt4pairIS0_IxxExESt4lessIS2_ESaIS2_EED2Ev(%"class.std::set"* nonnull align 8 dereferenceable(48) %8) #2, !llfi_index !377
  %173 = load i32, i32* %1, align 4, !llfi_index !378
  ret i32 %173, !llfi_index !379

174:                                              ; preds = %96
  %175 = load i8*, i8** %11, align 8, !llfi_index !380
  %176 = load i32, i32* %12, align 4, !llfi_index !381
  %177 = insertvalue { i8*, i32 } undef, i8* %175, 0, !llfi_index !382
  %178 = insertvalue { i8*, i32 } %177, i32 %176, 1, !llfi_index !383
  resume { i8*, i32 } %178, !llfi_index !384
}

declare dso_local i32 @__gxx_personality_v0(...)

declare dso_local %struct._IO_FILE* @freopen(i8*, i8*, %struct._IO_FILE*) #1

declare dso_local i32 @__isoc99_scanf(i8*, ...) #1

; Function Attrs: noinline nounwind uwtable
define linkonce_odr dso_local void @_ZNSt3setISt4pairIS0_IxxExESt4lessIS2_ESaIS2_EEC2Ev(%"class.std::set"* nonnull align 8 dereferenceable(48) %0) unnamed_addr #7 comdat align 2 {
  %2 = alloca %"class.std::set"*, align 8, !llfi_index !385
  store %"class.std::set"* %0, %"class.std::set"** %2, align 8, !llfi_index !386
  %3 = load %"class.std::set"*, %"class.std::set"** %2, align 8, !llfi_index !387
  %4 = getelementptr inbounds %"class.std::set", %"class.std::set"* %3, i32 0, i32 0, !llfi_index !388
  call void @_ZNSt8_Rb_treeISt4pairIS0_IxxExES2_St9_IdentityIS2_ESt4lessIS2_ESaIS2_EEC2Ev(%"class.std::_Rb_tree"* nonnull align 8 dereferenceable(48) %4) #2, !llfi_index !389
  ret void, !llfi_index !390
}

; Function Attrs: mustprogress noinline nounwind uwtable
define linkonce_odr dso_local zeroext i1 @_ZNKSt3setISt4pairIS0_IxxExESt4lessIS2_ESaIS2_EE5emptyEv(%"class.std::set"* nonnull align 8 dereferenceable(48) %0) #5 comdat align 2 {
  %2 = alloca %"class.std::set"*, align 8, !llfi_index !391
  store %"class.std::set"* %0, %"class.std::set"** %2, align 8, !llfi_index !392
  %3 = load %"class.std::set"*, %"class.std::set"** %2, align 8, !llfi_index !393
  %4 = getelementptr inbounds %"class.std::set", %"class.std::set"* %3, i32 0, i32 0, !llfi_index !394
  %5 = call zeroext i1 @_ZNKSt8_Rb_treeISt4pairIS0_IxxExES2_St9_IdentityIS2_ESt4lessIS2_ESaIS2_EE5emptyEv(%"class.std::_Rb_tree"* nonnull align 8 dereferenceable(48) %4) #2, !llfi_index !395
  ret i1 %5, !llfi_index !396
}

; Function Attrs: mustprogress noinline nounwind uwtable
define linkonce_odr dso_local %"struct.std::_Rb_tree_node_base"* @_ZNKSt3setISt4pairIS0_IxxExESt4lessIS2_ESaIS2_EE5beginEv(%"class.std::set"* nonnull align 8 dereferenceable(48) %0) #5 comdat align 2 {
  %2 = alloca %"struct.std::_Rb_tree_const_iterator", align 8, !llfi_index !397
  %3 = alloca %"class.std::set"*, align 8, !llfi_index !398
  store %"class.std::set"* %0, %"class.std::set"** %3, align 8, !llfi_index !399
  %4 = load %"class.std::set"*, %"class.std::set"** %3, align 8, !llfi_index !400
  %5 = getelementptr inbounds %"class.std::set", %"class.std::set"* %4, i32 0, i32 0, !llfi_index !401
  %6 = call %"struct.std::_Rb_tree_node_base"* @_ZNKSt8_Rb_treeISt4pairIS0_IxxExES2_St9_IdentityIS2_ESt4lessIS2_ESaIS2_EE5beginEv(%"class.std::_Rb_tree"* nonnull align 8 dereferenceable(48) %5) #2, !llfi_index !402
  %7 = getelementptr inbounds %"struct.std::_Rb_tree_const_iterator", %"struct.std::_Rb_tree_const_iterator"* %2, i32 0, i32 0, !llfi_index !403
  store %"struct.std::_Rb_tree_node_base"* %6, %"struct.std::_Rb_tree_node_base"** %7, align 8, !llfi_index !404
  %8 = getelementptr inbounds %"struct.std::_Rb_tree_const_iterator", %"struct.std::_Rb_tree_const_iterator"* %2, i32 0, i32 0, !llfi_index !405
  %9 = load %"struct.std::_Rb_tree_node_base"*, %"struct.std::_Rb_tree_node_base"** %8, align 8, !llfi_index !406
  ret %"struct.std::_Rb_tree_node_base"* %9, !llfi_index !407
}

; Function Attrs: mustprogress noinline nounwind uwtable
define linkonce_odr dso_local nonnull align 8 dereferenceable(24) %"struct.std::pair"* @_ZNKSt23_Rb_tree_const_iteratorISt4pairIS0_IxxExEEdeEv(%"struct.std::_Rb_tree_const_iterator"* nonnull align 8 dereferenceable(8) %0) #5 comdat align 2 personality i8* bitcast (i32 (...)* @__gxx_personality_v0 to i8*) {
  %2 = alloca %"struct.std::_Rb_tree_const_iterator"*, align 8, !llfi_index !408
  store %"struct.std::_Rb_tree_const_iterator"* %0, %"struct.std::_Rb_tree_const_iterator"** %2, align 8, !llfi_index !409
  %3 = load %"struct.std::_Rb_tree_const_iterator"*, %"struct.std::_Rb_tree_const_iterator"** %2, align 8, !llfi_index !410
  %4 = getelementptr inbounds %"struct.std::_Rb_tree_const_iterator", %"struct.std::_Rb_tree_const_iterator"* %3, i32 0, i32 0, !llfi_index !411
  %5 = load %"struct.std::_Rb_tree_node_base"*, %"struct.std::_Rb_tree_node_base"** %4, align 8, !llfi_index !412
  %6 = bitcast %"struct.std::_Rb_tree_node_base"* %5 to %"struct.std::_Rb_tree_node"*, !llfi_index !413
  %7 = invoke %"struct.std::pair"* @_ZNKSt13_Rb_tree_nodeISt4pairIS0_IxxExEE9_M_valptrEv(%"struct.std::_Rb_tree_node"* nonnull align 8 dereferenceable(56) %6)
          to label %8 unwind label %9, !llfi_index !414

8:                                                ; preds = %1
  ret %"struct.std::pair"* %7, !llfi_index !415

9:                                                ; preds = %1
  %10 = landingpad { i8*, i32 }
          catch i8* null, !llfi_index !416
  %11 = extractvalue { i8*, i32 } %10, 0, !llfi_index !417
  call void @__clang_call_terminate(i8* %11) #14, !llfi_index !418
  unreachable, !llfi_index !419
}

; Function Attrs: argmemonly nofree nounwind willreturn
declare void @llvm.memcpy.p0i8.p0i8.i64(i8* noalias nocapture writeonly, i8* noalias nocapture readonly, i64, i1 immarg) #8

; Function Attrs: mustprogress noinline uwtable
define linkonce_odr dso_local %"struct.std::_Rb_tree_node_base"* @_ZNSt3setISt4pairIS0_IxxExESt4lessIS2_ESaIS2_EE5eraseB5cxx11ESt23_Rb_tree_const_iteratorIS2_E(%"class.std::set"* nonnull align 8 dereferenceable(48) %0, %"struct.std::_Rb_tree_node_base"* %1) #4 comdat align 2 {
  %3 = alloca %"struct.std::_Rb_tree_const_iterator", align 8, !llfi_index !420
  %4 = alloca %"struct.std::_Rb_tree_const_iterator", align 8, !llfi_index !421
  %5 = alloca %"class.std::set"*, align 8, !llfi_index !422
  %6 = alloca %"struct.std::_Rb_tree_const_iterator", align 8, !llfi_index !423
  %7 = alloca %"struct.std::_Rb_tree_const_iterator", align 8, !llfi_index !424
  %8 = getelementptr inbounds %"struct.std::_Rb_tree_const_iterator", %"struct.std::_Rb_tree_const_iterator"* %4, i32 0, i32 0, !llfi_index !425
  store %"struct.std::_Rb_tree_node_base"* %1, %"struct.std::_Rb_tree_node_base"** %8, align 8, !llfi_index !426
  store %"class.std::set"* %0, %"class.std::set"** %5, align 8, !llfi_index !427
  %9 = load %"class.std::set"*, %"class.std::set"** %5, align 8, !llfi_index !428
  %10 = getelementptr inbounds %"class.std::set", %"class.std::set"* %9, i32 0, i32 0, !llfi_index !429
  %11 = bitcast %"struct.std::_Rb_tree_const_iterator"* %7 to i8*, !llfi_index !430
  %12 = bitcast %"struct.std::_Rb_tree_const_iterator"* %4 to i8*, !llfi_index !431
  call void @llvm.memcpy.p0i8.p0i8.i64(i8* align 8 %11, i8* align 8 %12, i64 8, i1 false), !llfi_index !432
  %13 = getelementptr inbounds %"struct.std::_Rb_tree_const_iterator", %"struct.std::_Rb_tree_const_iterator"* %7, i32 0, i32 0, !llfi_index !433
  %14 = load %"struct.std::_Rb_tree_node_base"*, %"struct.std::_Rb_tree_node_base"** %13, align 8, !llfi_index !434
  %15 = call %"struct.std::_Rb_tree_node_base"* @_ZNSt8_Rb_treeISt4pairIS0_IxxExES2_St9_IdentityIS2_ESt4lessIS2_ESaIS2_EE5eraseB5cxx11ESt23_Rb_tree_const_iteratorIS2_E(%"class.std::_Rb_tree"* nonnull align 8 dereferenceable(48) %10, %"struct.std::_Rb_tree_node_base"* %14), !llfi_index !435
  %16 = getelementptr inbounds %"struct.std::_Rb_tree_const_iterator", %"struct.std::_Rb_tree_const_iterator"* %6, i32 0, i32 0, !llfi_index !436
  store %"struct.std::_Rb_tree_node_base"* %15, %"struct.std::_Rb_tree_node_base"** %16, align 8, !llfi_index !437
  call void @_ZNSt23_Rb_tree_const_iteratorISt4pairIS0_IxxExEEC2ERKSt17_Rb_tree_iteratorIS2_E(%"struct.std::_Rb_tree_const_iterator"* nonnull align 8 dereferenceable(8) %3, %"struct.std::_Rb_tree_const_iterator"* nonnull align 8 dereferenceable(8) %6) #2, !llfi_index !438
  %17 = getelementptr inbounds %"struct.std::_Rb_tree_const_iterator", %"struct.std::_Rb_tree_const_iterator"* %3, i32 0, i32 0, !llfi_index !439
  %18 = load %"struct.std::_Rb_tree_node_base"*, %"struct.std::_Rb_tree_node_base"** %17, align 8, !llfi_index !440
  ret %"struct.std::_Rb_tree_node_base"* %18, !llfi_index !441
}

; Function Attrs: noinline nounwind uwtable
define linkonce_odr dso_local void @_ZNSt3setISt4pairIS0_IxxExESt4lessIS2_ESaIS2_EED2Ev(%"class.std::set"* nonnull align 8 dereferenceable(48) %0) unnamed_addr #7 comdat align 2 {
  %2 = alloca %"class.std::set"*, align 8, !llfi_index !442
  store %"class.std::set"* %0, %"class.std::set"** %2, align 8, !llfi_index !443
  %3 = load %"class.std::set"*, %"class.std::set"** %2, align 8, !llfi_index !444
  %4 = getelementptr inbounds %"class.std::set", %"class.std::set"* %3, i32 0, i32 0, !llfi_index !445
  call void @_ZNSt8_Rb_treeISt4pairIS0_IxxExES2_St9_IdentityIS2_ESt4lessIS2_ESaIS2_EED2Ev(%"class.std::_Rb_tree"* nonnull align 8 dereferenceable(48) %4) #2, !llfi_index !446
  ret void, !llfi_index !447
}

; Function Attrs: mustprogress noinline uwtable
define linkonce_odr dso_local { i64, i64 } @_ZSt9make_pairIxRxESt4pairINSt17__decay_and_stripIT_E6__typeENS2_IT0_E6__typeEEOS3_OS6_(i64* nonnull align 8 dereferenceable(8) %0, i64* nonnull align 8 dereferenceable(8) %1) #4 comdat {
  %3 = alloca %"struct.std::pair.0", align 8, !llfi_index !448
  %4 = alloca i64*, align 8, !llfi_index !449
  %5 = alloca i64*, align 8, !llfi_index !450
  store i64* %0, i64** %4, align 8, !llfi_index !451
  store i64* %1, i64** %5, align 8, !llfi_index !452
  %6 = load i64*, i64** %4, align 8, !llfi_index !453
  %7 = call nonnull align 8 dereferenceable(8) i64* @_ZSt7forwardIxEOT_RNSt16remove_referenceIS0_E4typeE(i64* nonnull align 8 dereferenceable(8) %6) #2, !llfi_index !454
  %8 = load i64*, i64** %5, align 8, !llfi_index !455
  %9 = call nonnull align 8 dereferenceable(8) i64* @_ZSt7forwardIRxEOT_RNSt16remove_referenceIS1_E4typeE(i64* nonnull align 8 dereferenceable(8) %8) #2, !llfi_index !456
  call void @_ZNSt4pairIxxEC2IxRxLb1EEEOT_OT0_(%"struct.std::pair.0"* nonnull align 8 dereferenceable(16) %3, i64* nonnull align 8 dereferenceable(8) %7, i64* nonnull align 8 dereferenceable(8) %9), !llfi_index !457
  %10 = bitcast %"struct.std::pair.0"* %3 to { i64, i64 }*, !llfi_index !458
  %11 = load { i64, i64 }, { i64, i64 }* %10, align 8, !llfi_index !459
  ret { i64, i64 } %11, !llfi_index !460
}

; Function Attrs: mustprogress noinline uwtable
define linkonce_odr dso_local void @_ZSt9make_pairISt4pairIxxERxES0_INSt17__decay_and_stripIT_E6__typeENS3_IT0_E6__typeEEOS4_OS7_(%"struct.std::pair"* noalias sret(%"struct.std::pair") align 8 %0, %"struct.std::pair.0"* nonnull align 8 dereferenceable(16) %1, i64* nonnull align 8 dereferenceable(8) %2) #4 comdat {
  %4 = alloca %"struct.std::pair.0"*, align 8, !llfi_index !461
  %5 = alloca i64*, align 8, !llfi_index !462
  store %"struct.std::pair.0"* %1, %"struct.std::pair.0"** %4, align 8, !llfi_index !463
  store i64* %2, i64** %5, align 8, !llfi_index !464
  %6 = load %"struct.std::pair.0"*, %"struct.std::pair.0"** %4, align 8, !llfi_index !465
  %7 = call nonnull align 8 dereferenceable(16) %"struct.std::pair.0"* @_ZSt7forwardISt4pairIxxEEOT_RNSt16remove_referenceIS2_E4typeE(%"struct.std::pair.0"* nonnull align 8 dereferenceable(16) %6) #2, !llfi_index !466
  %8 = load i64*, i64** %5, align 8, !llfi_index !467
  %9 = call nonnull align 8 dereferenceable(8) i64* @_ZSt7forwardIRxEOT_RNSt16remove_referenceIS1_E4typeE(i64* nonnull align 8 dereferenceable(8) %8) #2, !llfi_index !468
  call void @_ZNSt4pairIS_IxxExEC2IS0_RxLb1EEEOT_OT0_(%"struct.std::pair"* nonnull align 8 dereferenceable(24) %0, %"struct.std::pair.0"* nonnull align 8 dereferenceable(16) %7, i64* nonnull align 8 dereferenceable(8) %9), !llfi_index !469
  ret void, !llfi_index !470
}

; Function Attrs: mustprogress noinline uwtable
define linkonce_odr dso_local { %"struct.std::_Rb_tree_node_base"*, i8 } @_ZNSt3setISt4pairIS0_IxxExESt4lessIS2_ESaIS2_EE6insertEOS2_(%"class.std::set"* nonnull align 8 dereferenceable(48) %0, %"struct.std::pair"* nonnull align 8 dereferenceable(24) %1) #4 comdat align 2 {
  %3 = alloca %"struct.std::pair.3", align 8, !llfi_index !471
  %4 = alloca %"class.std::set"*, align 8, !llfi_index !472
  %5 = alloca %"struct.std::pair"*, align 8, !llfi_index !473
  %6 = alloca %"struct.std::pair.3", align 8, !llfi_index !474
  store %"class.std::set"* %0, %"class.std::set"** %4, align 8, !llfi_index !475
  store %"struct.std::pair"* %1, %"struct.std::pair"** %5, align 8, !llfi_index !476
  %7 = load %"class.std::set"*, %"class.std::set"** %4, align 8, !llfi_index !477
  %8 = getelementptr inbounds %"class.std::set", %"class.std::set"* %7, i32 0, i32 0, !llfi_index !478
  %9 = load %"struct.std::pair"*, %"struct.std::pair"** %5, align 8, !llfi_index !479
  %10 = call nonnull align 8 dereferenceable(24) %"struct.std::pair"* @_ZSt4moveIRSt4pairIS0_IxxExEEONSt16remove_referenceIT_E4typeEOS5_(%"struct.std::pair"* nonnull align 8 dereferenceable(24) %9) #2, !llfi_index !480
  %11 = call { %"struct.std::_Rb_tree_node_base"*, i8 } @_ZNSt8_Rb_treeISt4pairIS0_IxxExES2_St9_IdentityIS2_ESt4lessIS2_ESaIS2_EE16_M_insert_uniqueIS2_EES0_ISt17_Rb_tree_iteratorIS2_EbEOT_(%"class.std::_Rb_tree"* nonnull align 8 dereferenceable(48) %8, %"struct.std::pair"* nonnull align 8 dereferenceable(24) %10), !llfi_index !481
  %12 = bitcast %"struct.std::pair.3"* %6 to { %"struct.std::_Rb_tree_node_base"*, i8 }*, !llfi_index !482
  %13 = getelementptr inbounds { %"struct.std::_Rb_tree_node_base"*, i8 }, { %"struct.std::_Rb_tree_node_base"*, i8 }* %12, i32 0, i32 0, !llfi_index !483
  %14 = extractvalue { %"struct.std::_Rb_tree_node_base"*, i8 } %11, 0, !llfi_index !484
  store %"struct.std::_Rb_tree_node_base"* %14, %"struct.std::_Rb_tree_node_base"** %13, align 8, !llfi_index !485
  %15 = getelementptr inbounds { %"struct.std::_Rb_tree_node_base"*, i8 }, { %"struct.std::_Rb_tree_node_base"*, i8 }* %12, i32 0, i32 1, !llfi_index !486
  %16 = extractvalue { %"struct.std::_Rb_tree_node_base"*, i8 } %11, 1, !llfi_index !487
  store i8 %16, i8* %15, align 8, !llfi_index !488
  %17 = getelementptr inbounds %"struct.std::pair.3", %"struct.std::pair.3"* %6, i32 0, i32 0, !llfi_index !489
  %18 = getelementptr inbounds %"struct.std::pair.3", %"struct.std::pair.3"* %6, i32 0, i32 1, !llfi_index !490
  call void @_ZNSt4pairISt23_Rb_tree_const_iteratorIS_IS_IxxExEEbEC2IRSt17_Rb_tree_iteratorIS2_ERbLb1EEEOT_OT0_(%"struct.std::pair.3"* nonnull align 8 dereferenceable(9) %3, %"struct.std::_Rb_tree_const_iterator"* nonnull align 8 dereferenceable(8) %17, i8* nonnull align 1 dereferenceable(1) %18), !llfi_index !491
  %19 = bitcast %"struct.std::pair.3"* %3 to { %"struct.std::_Rb_tree_node_base"*, i8 }*, !llfi_index !492
  %20 = load { %"struct.std::_Rb_tree_node_base"*, i8 }, { %"struct.std::_Rb_tree_node_base"*, i8 }* %19, align 8, !llfi_index !493
  ret { %"struct.std::_Rb_tree_node_base"*, i8 } %20, !llfi_index !494
}

declare dso_local i32 @printf(i8*, ...) #1

; Function Attrs: mustprogress noinline nounwind uwtable
define linkonce_odr dso_local nonnull align 8 dereferenceable(24) %"struct.std::pair"* @_ZSt4moveIRSt4pairIS0_IxxExEEONSt16remove_referenceIT_E4typeEOS5_(%"struct.std::pair"* nonnull align 8 dereferenceable(24) %0) #5 comdat {
  %2 = alloca %"struct.std::pair"*, align 8, !llfi_index !495
  store %"struct.std::pair"* %0, %"struct.std::pair"** %2, align 8, !llfi_index !496
  %3 = load %"struct.std::pair"*, %"struct.std::pair"** %2, align 8, !llfi_index !497
  ret %"struct.std::pair"* %3, !llfi_index !498
}

; Function Attrs: mustprogress noinline uwtable
define linkonce_odr dso_local { %"struct.std::_Rb_tree_node_base"*, i8 } @_ZNSt8_Rb_treeISt4pairIS0_IxxExES2_St9_IdentityIS2_ESt4lessIS2_ESaIS2_EE16_M_insert_uniqueIS2_EES0_ISt17_Rb_tree_iteratorIS2_EbEOT_(%"class.std::_Rb_tree"* nonnull align 8 dereferenceable(48) %0, %"struct.std::pair"* nonnull align 8 dereferenceable(24) %1) #4 comdat align 2 {
  %3 = alloca %"struct.std::pair.3", align 8, !llfi_index !499
  %4 = alloca %"class.std::_Rb_tree"*, align 8, !llfi_index !500
  %5 = alloca %"struct.std::pair"*, align 8, !llfi_index !501
  %6 = alloca %"struct.std::pair.10", align 8, !llfi_index !502
  %7 = alloca %"class.std::ios_base::Init", align 1, !llfi_index !503
  %8 = alloca %"struct.std::_Rb_tree<std::pair<std::pair<long long, long long>, long long>, std::pair<std::pair<long long, long long>, long long>, std::_Identity<std::pair<std::pair<long long, long long>, long long>>, std::less<std::pair<std::pair<long long, long long>, long long>>>::_Alloc_node", align 8, !llfi_index !504
  %9 = alloca %"struct.std::_Rb_tree_const_iterator", align 8, !llfi_index !505
  %10 = alloca i8, align 1, !llfi_index !506
  %11 = alloca %"struct.std::_Rb_tree_const_iterator", align 8, !llfi_index !507
  %12 = alloca i8, align 1, !llfi_index !508
  store %"class.std::_Rb_tree"* %0, %"class.std::_Rb_tree"** %4, align 8, !llfi_index !509
  store %"struct.std::pair"* %1, %"struct.std::pair"** %5, align 8, !llfi_index !510
  %13 = load %"class.std::_Rb_tree"*, %"class.std::_Rb_tree"** %4, align 8, !llfi_index !511
  %14 = load %"struct.std::pair"*, %"struct.std::pair"** %5, align 8, !llfi_index !512
  %15 = call nonnull align 8 dereferenceable(24) %"struct.std::pair"* @_ZNKSt9_IdentityISt4pairIS0_IxxExEEclERS2_(%"class.std::ios_base::Init"* nonnull align 1 dereferenceable(1) %7, %"struct.std::pair"* nonnull align 8 dereferenceable(24) %14), !llfi_index !513
  %16 = call { %"struct.std::_Rb_tree_node_base"*, %"struct.std::_Rb_tree_node_base"* } @_ZNSt8_Rb_treeISt4pairIS0_IxxExES2_St9_IdentityIS2_ESt4lessIS2_ESaIS2_EE24_M_get_insert_unique_posERKS2_(%"class.std::_Rb_tree"* nonnull align 8 dereferenceable(48) %13, %"struct.std::pair"* nonnull align 8 dereferenceable(24) %15), !llfi_index !514
  %17 = bitcast %"struct.std::pair.10"* %6 to { %"struct.std::_Rb_tree_node_base"*, %"struct.std::_Rb_tree_node_base"* }*, !llfi_index !515
  %18 = getelementptr inbounds { %"struct.std::_Rb_tree_node_base"*, %"struct.std::_Rb_tree_node_base"* }, { %"struct.std::_Rb_tree_node_base"*, %"struct.std::_Rb_tree_node_base"* }* %17, i32 0, i32 0, !llfi_index !516
  %19 = extractvalue { %"struct.std::_Rb_tree_node_base"*, %"struct.std::_Rb_tree_node_base"* } %16, 0, !llfi_index !517
  store %"struct.std::_Rb_tree_node_base"* %19, %"struct.std::_Rb_tree_node_base"** %18, align 8, !llfi_index !518
  %20 = getelementptr inbounds { %"struct.std::_Rb_tree_node_base"*, %"struct.std::_Rb_tree_node_base"* }, { %"struct.std::_Rb_tree_node_base"*, %"struct.std::_Rb_tree_node_base"* }* %17, i32 0, i32 1, !llfi_index !519
  %21 = extractvalue { %"struct.std::_Rb_tree_node_base"*, %"struct.std::_Rb_tree_node_base"* } %16, 1, !llfi_index !520
  store %"struct.std::_Rb_tree_node_base"* %21, %"struct.std::_Rb_tree_node_base"** %20, align 8, !llfi_index !521
  %22 = getelementptr inbounds %"struct.std::pair.10", %"struct.std::pair.10"* %6, i32 0, i32 1, !llfi_index !522
  %23 = load %"struct.std::_Rb_tree_node_base"*, %"struct.std::_Rb_tree_node_base"** %22, align 8, !llfi_index !523
  %24 = icmp ne %"struct.std::_Rb_tree_node_base"* %23, null, !llfi_index !524
  br i1 %24, label %25, label %34, !llfi_index !525

25:                                               ; preds = %2
  call void @_ZNSt8_Rb_treeISt4pairIS0_IxxExES2_St9_IdentityIS2_ESt4lessIS2_ESaIS2_EE11_Alloc_nodeC2ERS8_(%"struct.std::_Rb_tree<std::pair<std::pair<long long, long long>, long long>, std::pair<std::pair<long long, long long>, long long>, std::_Identity<std::pair<std::pair<long long, long long>, long long>>, std::less<std::pair<std::pair<long long, long long>, long long>>>::_Alloc_node"* nonnull align 8 dereferenceable(8) %8, %"class.std::_Rb_tree"* nonnull align 8 dereferenceable(48) %13), !llfi_index !526
  %26 = getelementptr inbounds %"struct.std::pair.10", %"struct.std::pair.10"* %6, i32 0, i32 0, !llfi_index !527
  %27 = load %"struct.std::_Rb_tree_node_base"*, %"struct.std::_Rb_tree_node_base"** %26, align 8, !llfi_index !528
  %28 = getelementptr inbounds %"struct.std::pair.10", %"struct.std::pair.10"* %6, i32 0, i32 1, !llfi_index !529
  %29 = load %"struct.std::_Rb_tree_node_base"*, %"struct.std::_Rb_tree_node_base"** %28, align 8, !llfi_index !530
  %30 = load %"struct.std::pair"*, %"struct.std::pair"** %5, align 8, !llfi_index !531
  %31 = call nonnull align 8 dereferenceable(24) %"struct.std::pair"* @_ZSt7forwardISt4pairIS0_IxxExEEOT_RNSt16remove_referenceIS3_E4typeE(%"struct.std::pair"* nonnull align 8 dereferenceable(24) %30) #2, !llfi_index !532
  %32 = call %"struct.std::_Rb_tree_node_base"* @_ZNSt8_Rb_treeISt4pairIS0_IxxExES2_St9_IdentityIS2_ESt4lessIS2_ESaIS2_EE10_M_insert_IS2_NS8_11_Alloc_nodeEEESt17_Rb_tree_iteratorIS2_EPSt18_Rb_tree_node_baseSE_OT_RT0_(%"class.std::_Rb_tree"* nonnull align 8 dereferenceable(48) %13, %"struct.std::_Rb_tree_node_base"* %27, %"struct.std::_Rb_tree_node_base"* %29, %"struct.std::pair"* nonnull align 8 dereferenceable(24) %31, %"struct.std::_Rb_tree<std::pair<std::pair<long long, long long>, long long>, std::pair<std::pair<long long, long long>, long long>, std::_Identity<std::pair<std::pair<long long, long long>, long long>>, std::less<std::pair<std::pair<long long, long long>, long long>>>::_Alloc_node"* nonnull align 8 dereferenceable(8) %8), !llfi_index !533
  %33 = getelementptr inbounds %"struct.std::_Rb_tree_const_iterator", %"struct.std::_Rb_tree_const_iterator"* %9, i32 0, i32 0, !llfi_index !534
  store %"struct.std::_Rb_tree_node_base"* %32, %"struct.std::_Rb_tree_node_base"** %33, align 8, !llfi_index !535
  store i8 1, i8* %10, align 1, !llfi_index !536
  call void @_ZNSt4pairISt17_Rb_tree_iteratorIS_IS_IxxExEEbEC2IS3_bLb1EEEOT_OT0_(%"struct.std::pair.3"* nonnull align 8 dereferenceable(9) %3, %"struct.std::_Rb_tree_const_iterator"* nonnull align 8 dereferenceable(8) %9, i8* nonnull align 1 dereferenceable(1) %10), !llfi_index !537
  br label %37, !llfi_index !538

34:                                               ; preds = %2
  %35 = getelementptr inbounds %"struct.std::pair.10", %"struct.std::pair.10"* %6, i32 0, i32 0, !llfi_index !539
  %36 = load %"struct.std::_Rb_tree_node_base"*, %"struct.std::_Rb_tree_node_base"** %35, align 8, !llfi_index !540
  call void @_ZNSt17_Rb_tree_iteratorISt4pairIS0_IxxExEEC2EPSt18_Rb_tree_node_base(%"struct.std::_Rb_tree_const_iterator"* nonnull align 8 dereferenceable(8) %11, %"struct.std::_Rb_tree_node_base"* %36) #2, !llfi_index !541
  store i8 0, i8* %12, align 1, !llfi_index !542
  call void @_ZNSt4pairISt17_Rb_tree_iteratorIS_IS_IxxExEEbEC2IS3_bLb1EEEOT_OT0_(%"struct.std::pair.3"* nonnull align 8 dereferenceable(9) %3, %"struct.std::_Rb_tree_const_iterator"* nonnull align 8 dereferenceable(8) %11, i8* nonnull align 1 dereferenceable(1) %12), !llfi_index !543
  br label %37, !llfi_index !544

37:                                               ; preds = %34, %25
  %38 = bitcast %"struct.std::pair.3"* %3 to { %"struct.std::_Rb_tree_node_base"*, i8 }*, !llfi_index !545
  %39 = load { %"struct.std::_Rb_tree_node_base"*, i8 }, { %"struct.std::_Rb_tree_node_base"*, i8 }* %38, align 8, !llfi_index !546
  ret { %"struct.std::_Rb_tree_node_base"*, i8 } %39, !llfi_index !547
}

; Function Attrs: noinline nounwind uwtable
define linkonce_odr dso_local void @_ZNSt4pairISt23_Rb_tree_const_iteratorIS_IS_IxxExEEbEC2IRSt17_Rb_tree_iteratorIS2_ERbLb1EEEOT_OT0_(%"struct.std::pair.3"* nonnull align 8 dereferenceable(9) %0, %"struct.std::_Rb_tree_const_iterator"* nonnull align 8 dereferenceable(8) %1, i8* nonnull align 1 dereferenceable(1) %2) unnamed_addr #7 comdat align 2 {
  %4 = alloca %"struct.std::pair.3"*, align 8, !llfi_index !548
  %5 = alloca %"struct.std::_Rb_tree_const_iterator"*, align 8, !llfi_index !549
  %6 = alloca i8*, align 8, !llfi_index !550
  store %"struct.std::pair.3"* %0, %"struct.std::pair.3"** %4, align 8, !llfi_index !551
  store %"struct.std::_Rb_tree_const_iterator"* %1, %"struct.std::_Rb_tree_const_iterator"** %5, align 8, !llfi_index !552
  store i8* %2, i8** %6, align 8, !llfi_index !553
  %7 = load %"struct.std::pair.3"*, %"struct.std::pair.3"** %4, align 8, !llfi_index !554
  %8 = bitcast %"struct.std::pair.3"* %7 to %"class.std::ios_base::Init"*, !llfi_index !555
  %9 = getelementptr inbounds %"struct.std::pair.3", %"struct.std::pair.3"* %7, i32 0, i32 0, !llfi_index !556
  %10 = load %"struct.std::_Rb_tree_const_iterator"*, %"struct.std::_Rb_tree_const_iterator"** %5, align 8, !llfi_index !557
  %11 = call nonnull align 8 dereferenceable(8) %"struct.std::_Rb_tree_const_iterator"* @_ZSt7forwardIRSt17_Rb_tree_iteratorISt4pairIS1_IxxExEEEOT_RNSt16remove_referenceIS6_E4typeE(%"struct.std::_Rb_tree_const_iterator"* nonnull align 8 dereferenceable(8) %10) #2, !llfi_index !558
  call void @_ZNSt23_Rb_tree_const_iteratorISt4pairIS0_IxxExEEC2ERKSt17_Rb_tree_iteratorIS2_E(%"struct.std::_Rb_tree_const_iterator"* nonnull align 8 dereferenceable(8) %9, %"struct.std::_Rb_tree_const_iterator"* nonnull align 8 dereferenceable(8) %11) #2, !llfi_index !559
  %12 = getelementptr inbounds %"struct.std::pair.3", %"struct.std::pair.3"* %7, i32 0, i32 1, !llfi_index !560
  %13 = load i8*, i8** %6, align 8, !llfi_index !561
  %14 = call nonnull align 1 dereferenceable(1) i8* @_ZSt7forwardIRbEOT_RNSt16remove_referenceIS1_E4typeE(i8* nonnull align 1 dereferenceable(1) %13) #2, !llfi_index !562
  %15 = load i8, i8* %14, align 1, !llfi_index !563
  %16 = trunc i8 %15 to i1, !llfi_index !564
  %17 = zext i1 %16 to i8, !llfi_index !565
  store i8 %17, i8* %12, align 8, !llfi_index !566
  ret void, !llfi_index !567
}

; Function Attrs: mustprogress noinline nounwind uwtable
define linkonce_odr dso_local nonnull align 8 dereferenceable(8) %"struct.std::_Rb_tree_const_iterator"* @_ZSt7forwardIRSt17_Rb_tree_iteratorISt4pairIS1_IxxExEEEOT_RNSt16remove_referenceIS6_E4typeE(%"struct.std::_Rb_tree_const_iterator"* nonnull align 8 dereferenceable(8) %0) #5 comdat {
  %2 = alloca %"struct.std::_Rb_tree_const_iterator"*, align 8, !llfi_index !568
  store %"struct.std::_Rb_tree_const_iterator"* %0, %"struct.std::_Rb_tree_const_iterator"** %2, align 8, !llfi_index !569
  %3 = load %"struct.std::_Rb_tree_const_iterator"*, %"struct.std::_Rb_tree_const_iterator"** %2, align 8, !llfi_index !570
  ret %"struct.std::_Rb_tree_const_iterator"* %3, !llfi_index !571
}

; Function Attrs: noinline nounwind uwtable
define linkonce_odr dso_local void @_ZNSt23_Rb_tree_const_iteratorISt4pairIS0_IxxExEEC2ERKSt17_Rb_tree_iteratorIS2_E(%"struct.std::_Rb_tree_const_iterator"* nonnull align 8 dereferenceable(8) %0, %"struct.std::_Rb_tree_const_iterator"* nonnull align 8 dereferenceable(8) %1) unnamed_addr #7 comdat align 2 {
  %3 = alloca %"struct.std::_Rb_tree_const_iterator"*, align 8, !llfi_index !572
  %4 = alloca %"struct.std::_Rb_tree_const_iterator"*, align 8, !llfi_index !573
  store %"struct.std::_Rb_tree_const_iterator"* %0, %"struct.std::_Rb_tree_const_iterator"** %3, align 8, !llfi_index !574
  store %"struct.std::_Rb_tree_const_iterator"* %1, %"struct.std::_Rb_tree_const_iterator"** %4, align 8, !llfi_index !575
  %5 = load %"struct.std::_Rb_tree_const_iterator"*, %"struct.std::_Rb_tree_const_iterator"** %3, align 8, !llfi_index !576
  %6 = getelementptr inbounds %"struct.std::_Rb_tree_const_iterator", %"struct.std::_Rb_tree_const_iterator"* %5, i32 0, i32 0, !llfi_index !577
  %7 = load %"struct.std::_Rb_tree_const_iterator"*, %"struct.std::_Rb_tree_const_iterator"** %4, align 8, !llfi_index !578
  %8 = getelementptr inbounds %"struct.std::_Rb_tree_const_iterator", %"struct.std::_Rb_tree_const_iterator"* %7, i32 0, i32 0, !llfi_index !579
  %9 = load %"struct.std::_Rb_tree_node_base"*, %"struct.std::_Rb_tree_node_base"** %8, align 8, !llfi_index !580
  store %"struct.std::_Rb_tree_node_base"* %9, %"struct.std::_Rb_tree_node_base"** %6, align 8, !llfi_index !581
  ret void, !llfi_index !582
}

; Function Attrs: mustprogress noinline nounwind uwtable
define linkonce_odr dso_local nonnull align 1 dereferenceable(1) i8* @_ZSt7forwardIRbEOT_RNSt16remove_referenceIS1_E4typeE(i8* nonnull align 1 dereferenceable(1) %0) #5 comdat {
  %2 = alloca i8*, align 8, !llfi_index !583
  store i8* %0, i8** %2, align 8, !llfi_index !584
  %3 = load i8*, i8** %2, align 8, !llfi_index !585
  ret i8* %3, !llfi_index !586
}

; Function Attrs: mustprogress noinline nounwind uwtable
define linkonce_odr dso_local nonnull align 8 dereferenceable(24) %"struct.std::pair"* @_ZNKSt9_IdentityISt4pairIS0_IxxExEEclERS2_(%"class.std::ios_base::Init"* nonnull align 1 dereferenceable(1) %0, %"struct.std::pair"* nonnull align 8 dereferenceable(24) %1) #5 comdat align 2 {
  %3 = alloca %"class.std::ios_base::Init"*, align 8, !llfi_index !587
  %4 = alloca %"struct.std::pair"*, align 8, !llfi_index !588
  store %"class.std::ios_base::Init"* %0, %"class.std::ios_base::Init"** %3, align 8, !llfi_index !589
  store %"struct.std::pair"* %1, %"struct.std::pair"** %4, align 8, !llfi_index !590
  %5 = load %"class.std::ios_base::Init"*, %"class.std::ios_base::Init"** %3, align 8, !llfi_index !591
  %6 = load %"struct.std::pair"*, %"struct.std::pair"** %4, align 8, !llfi_index !592
  ret %"struct.std::pair"* %6, !llfi_index !593
}

; Function Attrs: mustprogress noinline uwtable
define linkonce_odr dso_local { %"struct.std::_Rb_tree_node_base"*, %"struct.std::_Rb_tree_node_base"* } @_ZNSt8_Rb_treeISt4pairIS0_IxxExES2_St9_IdentityIS2_ESt4lessIS2_ESaIS2_EE24_M_get_insert_unique_posERKS2_(%"class.std::_Rb_tree"* nonnull align 8 dereferenceable(48) %0, %"struct.std::pair"* nonnull align 8 dereferenceable(24) %1) #4 comdat align 2 {
  %3 = alloca %"struct.std::pair.10", align 8, !llfi_index !594
  %4 = alloca %"class.std::_Rb_tree"*, align 8, !llfi_index !595
  %5 = alloca %"struct.std::pair"*, align 8, !llfi_index !596
  %6 = alloca %"struct.std::_Rb_tree_node"*, align 8, !llfi_index !597
  %7 = alloca %"struct.std::_Rb_tree_node_base"*, align 8, !llfi_index !598
  %8 = alloca i8, align 1, !llfi_index !599
  %9 = alloca %"struct.std::_Rb_tree_const_iterator", align 8, !llfi_index !600
  %10 = alloca %"struct.std::_Rb_tree_const_iterator", align 8, !llfi_index !601
  %11 = alloca %"struct.std::_Rb_tree_node_base"*, align 8, !llfi_index !602
  store %"class.std::_Rb_tree"* %0, %"class.std::_Rb_tree"** %4, align 8, !llfi_index !603
  store %"struct.std::pair"* %1, %"struct.std::pair"** %5, align 8, !llfi_index !604
  %12 = load %"class.std::_Rb_tree"*, %"class.std::_Rb_tree"** %4, align 8, !llfi_index !605
  %13 = call %"struct.std::_Rb_tree_node"* @_ZNSt8_Rb_treeISt4pairIS0_IxxExES2_St9_IdentityIS2_ESt4lessIS2_ESaIS2_EE8_M_beginEv(%"class.std::_Rb_tree"* nonnull align 8 dereferenceable(48) %12) #2, !llfi_index !606
  store %"struct.std::_Rb_tree_node"* %13, %"struct.std::_Rb_tree_node"** %6, align 8, !llfi_index !607
  %14 = call %"struct.std::_Rb_tree_node_base"* @_ZNSt8_Rb_treeISt4pairIS0_IxxExES2_St9_IdentityIS2_ESt4lessIS2_ESaIS2_EE6_M_endEv(%"class.std::_Rb_tree"* nonnull align 8 dereferenceable(48) %12) #2, !llfi_index !608
  store %"struct.std::_Rb_tree_node_base"* %14, %"struct.std::_Rb_tree_node_base"** %7, align 8, !llfi_index !609
  store i8 1, i8* %8, align 1, !llfi_index !610
  br label %15, !llfi_index !611

15:                                               ; preds = %39, %2
  %16 = load %"struct.std::_Rb_tree_node"*, %"struct.std::_Rb_tree_node"** %6, align 8, !llfi_index !612
  %17 = icmp ne %"struct.std::_Rb_tree_node"* %16, null, !llfi_index !613
  br i1 %17, label %18, label %41, !llfi_index !614

18:                                               ; preds = %15
  %19 = load %"struct.std::_Rb_tree_node"*, %"struct.std::_Rb_tree_node"** %6, align 8, !llfi_index !615
  %20 = bitcast %"struct.std::_Rb_tree_node"* %19 to %"struct.std::_Rb_tree_node_base"*, !llfi_index !616
  store %"struct.std::_Rb_tree_node_base"* %20, %"struct.std::_Rb_tree_node_base"** %7, align 8, !llfi_index !617
  %21 = getelementptr inbounds %"class.std::_Rb_tree", %"class.std::_Rb_tree"* %12, i32 0, i32 0, !llfi_index !618
  %22 = bitcast %"struct.std::_Rb_tree<std::pair<std::pair<long long, long long>, long long>, std::pair<std::pair<long long, long long>, long long>, std::_Identity<std::pair<std::pair<long long, long long>, long long>>, std::less<std::pair<std::pair<long long, long long>, long long>>>::_Rb_tree_impl"* %21 to %"struct.std::_Rb_tree_key_compare"*, !llfi_index !619
  %23 = getelementptr inbounds %"struct.std::_Rb_tree_key_compare", %"struct.std::_Rb_tree_key_compare"* %22, i32 0, i32 0, !llfi_index !620
  %24 = load %"struct.std::pair"*, %"struct.std::pair"** %5, align 8, !llfi_index !621
  %25 = load %"struct.std::_Rb_tree_node"*, %"struct.std::_Rb_tree_node"** %6, align 8, !llfi_index !622
  %26 = call nonnull align 8 dereferenceable(24) %"struct.std::pair"* @_ZNSt8_Rb_treeISt4pairIS0_IxxExES2_St9_IdentityIS2_ESt4lessIS2_ESaIS2_EE6_S_keyEPKSt13_Rb_tree_nodeIS2_E(%"struct.std::_Rb_tree_node"* %25), !llfi_index !623
  %27 = call zeroext i1 @_ZNKSt4lessISt4pairIS0_IxxExEEclERKS2_S5_(%"class.std::ios_base::Init"* nonnull align 1 dereferenceable(1) %23, %"struct.std::pair"* nonnull align 8 dereferenceable(24) %24, %"struct.std::pair"* nonnull align 8 dereferenceable(24) %26), !llfi_index !624
  %28 = zext i1 %27 to i8, !llfi_index !625
  store i8 %28, i8* %8, align 1, !llfi_index !626
  %29 = load i8, i8* %8, align 1, !llfi_index !627
  %30 = trunc i8 %29 to i1, !llfi_index !628
  br i1 %30, label %31, label %35, !llfi_index !629

31:                                               ; preds = %18
  %32 = load %"struct.std::_Rb_tree_node"*, %"struct.std::_Rb_tree_node"** %6, align 8, !llfi_index !630
  %33 = bitcast %"struct.std::_Rb_tree_node"* %32 to %"struct.std::_Rb_tree_node_base"*, !llfi_index !631
  %34 = call %"struct.std::_Rb_tree_node"* @_ZNSt8_Rb_treeISt4pairIS0_IxxExES2_St9_IdentityIS2_ESt4lessIS2_ESaIS2_EE7_S_leftEPSt18_Rb_tree_node_base(%"struct.std::_Rb_tree_node_base"* %33) #2, !llfi_index !632
  br label %39, !llfi_index !633

35:                                               ; preds = %18
  %36 = load %"struct.std::_Rb_tree_node"*, %"struct.std::_Rb_tree_node"** %6, align 8, !llfi_index !634
  %37 = bitcast %"struct.std::_Rb_tree_node"* %36 to %"struct.std::_Rb_tree_node_base"*, !llfi_index !635
  %38 = call %"struct.std::_Rb_tree_node"* @_ZNSt8_Rb_treeISt4pairIS0_IxxExES2_St9_IdentityIS2_ESt4lessIS2_ESaIS2_EE8_S_rightEPSt18_Rb_tree_node_base(%"struct.std::_Rb_tree_node_base"* %37) #2, !llfi_index !636
  br label %39, !llfi_index !637

39:                                               ; preds = %35, %31
  %40 = phi %"struct.std::_Rb_tree_node"* [ %34, %31 ], [ %38, %35 ], !llfi_index !638
  store %"struct.std::_Rb_tree_node"* %40, %"struct.std::_Rb_tree_node"** %6, align 8, !llfi_index !639
  br label %15, !llvm.loop !640, !llfi_index !641

41:                                               ; preds = %15
  %42 = load %"struct.std::_Rb_tree_node_base"*, %"struct.std::_Rb_tree_node_base"** %7, align 8, !llfi_index !642
  call void @_ZNSt17_Rb_tree_iteratorISt4pairIS0_IxxExEEC2EPSt18_Rb_tree_node_base(%"struct.std::_Rb_tree_const_iterator"* nonnull align 8 dereferenceable(8) %9, %"struct.std::_Rb_tree_node_base"* %42) #2, !llfi_index !643
  %43 = load i8, i8* %8, align 1, !llfi_index !644
  %44 = trunc i8 %43 to i1, !llfi_index !645
  br i1 %44, label %45, label %53, !llfi_index !646

45:                                               ; preds = %41
  %46 = call %"struct.std::_Rb_tree_node_base"* @_ZNSt8_Rb_treeISt4pairIS0_IxxExES2_St9_IdentityIS2_ESt4lessIS2_ESaIS2_EE5beginEv(%"class.std::_Rb_tree"* nonnull align 8 dereferenceable(48) %12) #2, !llfi_index !647
  %47 = getelementptr inbounds %"struct.std::_Rb_tree_const_iterator", %"struct.std::_Rb_tree_const_iterator"* %10, i32 0, i32 0, !llfi_index !648
  store %"struct.std::_Rb_tree_node_base"* %46, %"struct.std::_Rb_tree_node_base"** %47, align 8, !llfi_index !649
  %48 = call zeroext i1 @_ZSteqRKSt17_Rb_tree_iteratorISt4pairIS0_IxxExEES5_(%"struct.std::_Rb_tree_const_iterator"* nonnull align 8 dereferenceable(8) %9, %"struct.std::_Rb_tree_const_iterator"* nonnull align 8 dereferenceable(8) %10) #2, !llfi_index !650
  br i1 %48, label %49, label %50, !llfi_index !651

49:                                               ; preds = %45
  call void @_ZNSt4pairIPSt18_Rb_tree_node_baseS1_EC2IRPSt13_Rb_tree_nodeIS_IS_IxxExEERS1_Lb1EEEOT_OT0_(%"struct.std::pair.10"* nonnull align 8 dereferenceable(16) %3, %"struct.std::_Rb_tree_node"** nonnull align 8 dereferenceable(8) %6, %"struct.std::_Rb_tree_node_base"** nonnull align 8 dereferenceable(8) %7), !llfi_index !652
  br label %65, !llfi_index !653

50:                                               ; preds = %45
  %51 = call nonnull align 8 dereferenceable(8) %"struct.std::_Rb_tree_const_iterator"* @_ZNSt17_Rb_tree_iteratorISt4pairIS0_IxxExEEmmEv(%"struct.std::_Rb_tree_const_iterator"* nonnull align 8 dereferenceable(8) %9) #2, !llfi_index !654
  br label %52, !llfi_index !655

52:                                               ; preds = %50
  br label %53, !llfi_index !656

53:                                               ; preds = %52, %41
  %54 = getelementptr inbounds %"class.std::_Rb_tree", %"class.std::_Rb_tree"* %12, i32 0, i32 0, !llfi_index !657
  %55 = bitcast %"struct.std::_Rb_tree<std::pair<std::pair<long long, long long>, long long>, std::pair<std::pair<long long, long long>, long long>, std::_Identity<std::pair<std::pair<long long, long long>, long long>>, std::less<std::pair<std::pair<long long, long long>, long long>>>::_Rb_tree_impl"* %54 to %"struct.std::_Rb_tree_key_compare"*, !llfi_index !658
  %56 = getelementptr inbounds %"struct.std::_Rb_tree_key_compare", %"struct.std::_Rb_tree_key_compare"* %55, i32 0, i32 0, !llfi_index !659
  %57 = getelementptr inbounds %"struct.std::_Rb_tree_const_iterator", %"struct.std::_Rb_tree_const_iterator"* %9, i32 0, i32 0, !llfi_index !660
  %58 = load %"struct.std::_Rb_tree_node_base"*, %"struct.std::_Rb_tree_node_base"** %57, align 8, !llfi_index !661
  %59 = call nonnull align 8 dereferenceable(24) %"struct.std::pair"* @_ZNSt8_Rb_treeISt4pairIS0_IxxExES2_St9_IdentityIS2_ESt4lessIS2_ESaIS2_EE6_S_keyEPKSt18_Rb_tree_node_base(%"struct.std::_Rb_tree_node_base"* %58), !llfi_index !662
  %60 = load %"struct.std::pair"*, %"struct.std::pair"** %5, align 8, !llfi_index !663
  %61 = call zeroext i1 @_ZNKSt4lessISt4pairIS0_IxxExEEclERKS2_S5_(%"class.std::ios_base::Init"* nonnull align 1 dereferenceable(1) %56, %"struct.std::pair"* nonnull align 8 dereferenceable(24) %59, %"struct.std::pair"* nonnull align 8 dereferenceable(24) %60), !llfi_index !664
  br i1 %61, label %62, label %63, !llfi_index !665

62:                                               ; preds = %53
  call void @_ZNSt4pairIPSt18_Rb_tree_node_baseS1_EC2IRPSt13_Rb_tree_nodeIS_IS_IxxExEERS1_Lb1EEEOT_OT0_(%"struct.std::pair.10"* nonnull align 8 dereferenceable(16) %3, %"struct.std::_Rb_tree_node"** nonnull align 8 dereferenceable(8) %6, %"struct.std::_Rb_tree_node_base"** nonnull align 8 dereferenceable(8) %7), !llfi_index !666
  br label %65, !llfi_index !667

63:                                               ; preds = %53
  %64 = getelementptr inbounds %"struct.std::_Rb_tree_const_iterator", %"struct.std::_Rb_tree_const_iterator"* %9, i32 0, i32 0, !llfi_index !668
  store %"struct.std::_Rb_tree_node_base"* null, %"struct.std::_Rb_tree_node_base"** %11, align 8, !llfi_index !669
  call void @_ZNSt4pairIPSt18_Rb_tree_node_baseS1_EC2IRS1_Lb1EEEOT_RKS1_(%"struct.std::pair.10"* nonnull align 8 dereferenceable(16) %3, %"struct.std::_Rb_tree_node_base"** nonnull align 8 dereferenceable(8) %64, %"struct.std::_Rb_tree_node_base"** nonnull align 8 dereferenceable(8) %11), !llfi_index !670
  br label %65, !llfi_index !671

65:                                               ; preds = %63, %62, %49
  %66 = bitcast %"struct.std::pair.10"* %3 to { %"struct.std::_Rb_tree_node_base"*, %"struct.std::_Rb_tree_node_base"* }*, !llfi_index !672
  %67 = load { %"struct.std::_Rb_tree_node_base"*, %"struct.std::_Rb_tree_node_base"* }, { %"struct.std::_Rb_tree_node_base"*, %"struct.std::_Rb_tree_node_base"* }* %66, align 8, !llfi_index !673
  ret { %"struct.std::_Rb_tree_node_base"*, %"struct.std::_Rb_tree_node_base"* } %67, !llfi_index !674
}

; Function Attrs: noinline nounwind uwtable
define linkonce_odr dso_local void @_ZNSt8_Rb_treeISt4pairIS0_IxxExES2_St9_IdentityIS2_ESt4lessIS2_ESaIS2_EE11_Alloc_nodeC2ERS8_(%"struct.std::_Rb_tree<std::pair<std::pair<long long, long long>, long long>, std::pair<std::pair<long long, long long>, long long>, std::_Identity<std::pair<std::pair<long long, long long>, long long>>, std::less<std::pair<std::pair<long long, long long>, long long>>>::_Alloc_node"* nonnull align 8 dereferenceable(8) %0, %"class.std::_Rb_tree"* nonnull align 8 dereferenceable(48) %1) unnamed_addr #7 comdat align 2 {
  %3 = alloca %"struct.std::_Rb_tree<std::pair<std::pair<long long, long long>, long long>, std::pair<std::pair<long long, long long>, long long>, std::_Identity<std::pair<std::pair<long long, long long>, long long>>, std::less<std::pair<std::pair<long long, long long>, long long>>>::_Alloc_node"*, align 8, !llfi_index !675
  %4 = alloca %"class.std::_Rb_tree"*, align 8, !llfi_index !676
  store %"struct.std::_Rb_tree<std::pair<std::pair<long long, long long>, long long>, std::pair<std::pair<long long, long long>, long long>, std::_Identity<std::pair<std::pair<long long, long long>, long long>>, std::less<std::pair<std::pair<long long, long long>, long long>>>::_Alloc_node"* %0, %"struct.std::_Rb_tree<std::pair<std::pair<long long, long long>, long long>, std::pair<std::pair<long long, long long>, long long>, std::_Identity<std::pair<std::pair<long long, long long>, long long>>, std::less<std::pair<std::pair<long long, long long>, long long>>>::_Alloc_node"** %3, align 8, !llfi_index !677
  store %"class.std::_Rb_tree"* %1, %"class.std::_Rb_tree"** %4, align 8, !llfi_index !678
  %5 = load %"struct.std::_Rb_tree<std::pair<std::pair<long long, long long>, long long>, std::pair<std::pair<long long, long long>, long long>, std::_Identity<std::pair<std::pair<long long, long long>, long long>>, std::less<std::pair<std::pair<long long, long long>, long long>>>::_Alloc_node"*, %"struct.std::_Rb_tree<std::pair<std::pair<long long, long long>, long long>, std::pair<std::pair<long long, long long>, long long>, std::_Identity<std::pair<std::pair<long long, long long>, long long>>, std::less<std::pair<std::pair<long long, long long>, long long>>>::_Alloc_node"** %3, align 8, !llfi_index !679
  %6 = getelementptr inbounds %"struct.std::_Rb_tree<std::pair<std::pair<long long, long long>, long long>, std::pair<std::pair<long long, long long>, long long>, std::_Identity<std::pair<std::pair<long long, long long>, long long>>, std::less<std::pair<std::pair<long long, long long>, long long>>>::_Alloc_node", %"struct.std::_Rb_tree<std::pair<std::pair<long long, long long>, long long>, std::pair<std::pair<long long, long long>, long long>, std::_Identity<std::pair<std::pair<long long, long long>, long long>>, std::less<std::pair<std::pair<long long, long long>, long long>>>::_Alloc_node"* %5, i32 0, i32 0, !llfi_index !680
  %7 = load %"class.std::_Rb_tree"*, %"class.std::_Rb_tree"** %4, align 8, !llfi_index !681
  store %"class.std::_Rb_tree"* %7, %"class.std::_Rb_tree"** %6, align 8, !llfi_index !682
  ret void, !llfi_index !683
}

; Function Attrs: mustprogress noinline nounwind uwtable
define linkonce_odr dso_local nonnull align 8 dereferenceable(24) %"struct.std::pair"* @_ZSt7forwardISt4pairIS0_IxxExEEOT_RNSt16remove_referenceIS3_E4typeE(%"struct.std::pair"* nonnull align 8 dereferenceable(24) %0) #5 comdat {
  %2 = alloca %"struct.std::pair"*, align 8, !llfi_index !684
  store %"struct.std::pair"* %0, %"struct.std::pair"** %2, align 8, !llfi_index !685
  %3 = load %"struct.std::pair"*, %"struct.std::pair"** %2, align 8, !llfi_index !686
  ret %"struct.std::pair"* %3, !llfi_index !687
}

; Function Attrs: mustprogress noinline uwtable
define linkonce_odr dso_local %"struct.std::_Rb_tree_node_base"* @_ZNSt8_Rb_treeISt4pairIS0_IxxExES2_St9_IdentityIS2_ESt4lessIS2_ESaIS2_EE10_M_insert_IS2_NS8_11_Alloc_nodeEEESt17_Rb_tree_iteratorIS2_EPSt18_Rb_tree_node_baseSE_OT_RT0_(%"class.std::_Rb_tree"* nonnull align 8 dereferenceable(48) %0, %"struct.std::_Rb_tree_node_base"* %1, %"struct.std::_Rb_tree_node_base"* %2, %"struct.std::pair"* nonnull align 8 dereferenceable(24) %3, %"struct.std::_Rb_tree<std::pair<std::pair<long long, long long>, long long>, std::pair<std::pair<long long, long long>, long long>, std::_Identity<std::pair<std::pair<long long, long long>, long long>>, std::less<std::pair<std::pair<long long, long long>, long long>>>::_Alloc_node"* nonnull align 8 dereferenceable(8) %4) #4 comdat align 2 {
  %6 = alloca %"struct.std::_Rb_tree_const_iterator", align 8, !llfi_index !688
  %7 = alloca %"class.std::_Rb_tree"*, align 8, !llfi_index !689
  %8 = alloca %"struct.std::_Rb_tree_node_base"*, align 8, !llfi_index !690
  %9 = alloca %"struct.std::_Rb_tree_node_base"*, align 8, !llfi_index !691
  %10 = alloca %"struct.std::pair"*, align 8, !llfi_index !692
  %11 = alloca %"struct.std::_Rb_tree<std::pair<std::pair<long long, long long>, long long>, std::pair<std::pair<long long, long long>, long long>, std::_Identity<std::pair<std::pair<long long, long long>, long long>>, std::less<std::pair<std::pair<long long, long long>, long long>>>::_Alloc_node"*, align 8, !llfi_index !693
  %12 = alloca i8, align 1, !llfi_index !694
  %13 = alloca %"class.std::ios_base::Init", align 1, !llfi_index !695
  %14 = alloca %"struct.std::_Rb_tree_node"*, align 8, !llfi_index !696
  store %"class.std::_Rb_tree"* %0, %"class.std::_Rb_tree"** %7, align 8, !llfi_index !697
  store %"struct.std::_Rb_tree_node_base"* %1, %"struct.std::_Rb_tree_node_base"** %8, align 8, !llfi_index !698
  store %"struct.std::_Rb_tree_node_base"* %2, %"struct.std::_Rb_tree_node_base"** %9, align 8, !llfi_index !699
  store %"struct.std::pair"* %3, %"struct.std::pair"** %10, align 8, !llfi_index !700
  store %"struct.std::_Rb_tree<std::pair<std::pair<long long, long long>, long long>, std::pair<std::pair<long long, long long>, long long>, std::_Identity<std::pair<std::pair<long long, long long>, long long>>, std::less<std::pair<std::pair<long long, long long>, long long>>>::_Alloc_node"* %4, %"struct.std::_Rb_tree<std::pair<std::pair<long long, long long>, long long>, std::pair<std::pair<long long, long long>, long long>, std::_Identity<std::pair<std::pair<long long, long long>, long long>>, std::less<std::pair<std::pair<long long, long long>, long long>>>::_Alloc_node"** %11, align 8, !llfi_index !701
  %15 = load %"class.std::_Rb_tree"*, %"class.std::_Rb_tree"** %7, align 8, !llfi_index !702
  %16 = load %"struct.std::_Rb_tree_node_base"*, %"struct.std::_Rb_tree_node_base"** %8, align 8, !llfi_index !703
  %17 = icmp ne %"struct.std::_Rb_tree_node_base"* %16, null, !llfi_index !704
  br i1 %17, label %31, label %18, !llfi_index !705

18:                                               ; preds = %5
  %19 = load %"struct.std::_Rb_tree_node_base"*, %"struct.std::_Rb_tree_node_base"** %9, align 8, !llfi_index !706
  %20 = call %"struct.std::_Rb_tree_node_base"* @_ZNSt8_Rb_treeISt4pairIS0_IxxExES2_St9_IdentityIS2_ESt4lessIS2_ESaIS2_EE6_M_endEv(%"class.std::_Rb_tree"* nonnull align 8 dereferenceable(48) %15) #2, !llfi_index !707
  %21 = icmp eq %"struct.std::_Rb_tree_node_base"* %19, %20, !llfi_index !708
  br i1 %21, label %31, label %22, !llfi_index !709

22:                                               ; preds = %18
  %23 = getelementptr inbounds %"class.std::_Rb_tree", %"class.std::_Rb_tree"* %15, i32 0, i32 0, !llfi_index !710
  %24 = bitcast %"struct.std::_Rb_tree<std::pair<std::pair<long long, long long>, long long>, std::pair<std::pair<long long, long long>, long long>, std::_Identity<std::pair<std::pair<long long, long long>, long long>>, std::less<std::pair<std::pair<long long, long long>, long long>>>::_Rb_tree_impl"* %23 to %"struct.std::_Rb_tree_key_compare"*, !llfi_index !711
  %25 = getelementptr inbounds %"struct.std::_Rb_tree_key_compare", %"struct.std::_Rb_tree_key_compare"* %24, i32 0, i32 0, !llfi_index !712
  %26 = load %"struct.std::pair"*, %"struct.std::pair"** %10, align 8, !llfi_index !713
  %27 = call nonnull align 8 dereferenceable(24) %"struct.std::pair"* @_ZNKSt9_IdentityISt4pairIS0_IxxExEEclERS2_(%"class.std::ios_base::Init"* nonnull align 1 dereferenceable(1) %13, %"struct.std::pair"* nonnull align 8 dereferenceable(24) %26), !llfi_index !714
  %28 = load %"struct.std::_Rb_tree_node_base"*, %"struct.std::_Rb_tree_node_base"** %9, align 8, !llfi_index !715
  %29 = call nonnull align 8 dereferenceable(24) %"struct.std::pair"* @_ZNSt8_Rb_treeISt4pairIS0_IxxExES2_St9_IdentityIS2_ESt4lessIS2_ESaIS2_EE6_S_keyEPKSt18_Rb_tree_node_base(%"struct.std::_Rb_tree_node_base"* %28), !llfi_index !716
  %30 = call zeroext i1 @_ZNKSt4lessISt4pairIS0_IxxExEEclERKS2_S5_(%"class.std::ios_base::Init"* nonnull align 1 dereferenceable(1) %25, %"struct.std::pair"* nonnull align 8 dereferenceable(24) %27, %"struct.std::pair"* nonnull align 8 dereferenceable(24) %29), !llfi_index !717
  br label %31, !llfi_index !718

31:                                               ; preds = %22, %18, %5
  %32 = phi i1 [ true, %18 ], [ true, %5 ], [ %30, %22 ], !llfi_index !719
  %33 = zext i1 %32 to i8, !llfi_index !720
  store i8 %33, i8* %12, align 1, !llfi_index !721
  %34 = load %"struct.std::_Rb_tree<std::pair<std::pair<long long, long long>, long long>, std::pair<std::pair<long long, long long>, long long>, std::_Identity<std::pair<std::pair<long long, long long>, long long>>, std::less<std::pair<std::pair<long long, long long>, long long>>>::_Alloc_node"*, %"struct.std::_Rb_tree<std::pair<std::pair<long long, long long>, long long>, std::pair<std::pair<long long, long long>, long long>, std::_Identity<std::pair<std::pair<long long, long long>, long long>>, std::less<std::pair<std::pair<long long, long long>, long long>>>::_Alloc_node"** %11, align 8, !llfi_index !722
  %35 = load %"struct.std::pair"*, %"struct.std::pair"** %10, align 8, !llfi_index !723
  %36 = call nonnull align 8 dereferenceable(24) %"struct.std::pair"* @_ZSt7forwardISt4pairIS0_IxxExEEOT_RNSt16remove_referenceIS3_E4typeE(%"struct.std::pair"* nonnull align 8 dereferenceable(24) %35) #2, !llfi_index !724
  %37 = call %"struct.std::_Rb_tree_node"* @_ZNKSt8_Rb_treeISt4pairIS0_IxxExES2_St9_IdentityIS2_ESt4lessIS2_ESaIS2_EE11_Alloc_nodeclIS2_EEPSt13_Rb_tree_nodeIS2_EOT_(%"struct.std::_Rb_tree<std::pair<std::pair<long long, long long>, long long>, std::pair<std::pair<long long, long long>, long long>, std::_Identity<std::pair<std::pair<long long, long long>, long long>>, std::less<std::pair<std::pair<long long, long long>, long long>>>::_Alloc_node"* nonnull align 8 dereferenceable(8) %34, %"struct.std::pair"* nonnull align 8 dereferenceable(24) %36), !llfi_index !725
  store %"struct.std::_Rb_tree_node"* %37, %"struct.std::_Rb_tree_node"** %14, align 8, !llfi_index !726
  %38 = load i8, i8* %12, align 1, !llfi_index !727
  %39 = trunc i8 %38 to i1, !llfi_index !728
  %40 = load %"struct.std::_Rb_tree_node"*, %"struct.std::_Rb_tree_node"** %14, align 8, !llfi_index !729
  %41 = bitcast %"struct.std::_Rb_tree_node"* %40 to %"struct.std::_Rb_tree_node_base"*, !llfi_index !730
  %42 = load %"struct.std::_Rb_tree_node_base"*, %"struct.std::_Rb_tree_node_base"** %9, align 8, !llfi_index !731
  %43 = getelementptr inbounds %"class.std::_Rb_tree", %"class.std::_Rb_tree"* %15, i32 0, i32 0, !llfi_index !732
  %44 = bitcast %"struct.std::_Rb_tree<std::pair<std::pair<long long, long long>, long long>, std::pair<std::pair<long long, long long>, long long>, std::_Identity<std::pair<std::pair<long long, long long>, long long>>, std::less<std::pair<std::pair<long long, long long>, long long>>>::_Rb_tree_impl"* %43 to i8*, !llfi_index !733
  %45 = getelementptr inbounds i8, i8* %44, i64 8, !llfi_index !734
  %46 = bitcast i8* %45 to %"struct.std::_Rb_tree_header"*, !llfi_index !735
  %47 = getelementptr inbounds %"struct.std::_Rb_tree_header", %"struct.std::_Rb_tree_header"* %46, i32 0, i32 0, !llfi_index !736
  call void @_ZSt29_Rb_tree_insert_and_rebalancebPSt18_Rb_tree_node_baseS0_RS_(i1 zeroext %39, %"struct.std::_Rb_tree_node_base"* %41, %"struct.std::_Rb_tree_node_base"* %42, %"struct.std::_Rb_tree_node_base"* nonnull align 8 dereferenceable(32) %47) #2, !llfi_index !737
  %48 = getelementptr inbounds %"class.std::_Rb_tree", %"class.std::_Rb_tree"* %15, i32 0, i32 0, !llfi_index !738
  %49 = bitcast %"struct.std::_Rb_tree<std::pair<std::pair<long long, long long>, long long>, std::pair<std::pair<long long, long long>, long long>, std::_Identity<std::pair<std::pair<long long, long long>, long long>>, std::less<std::pair<std::pair<long long, long long>, long long>>>::_Rb_tree_impl"* %48 to i8*, !llfi_index !739
  %50 = getelementptr inbounds i8, i8* %49, i64 8, !llfi_index !740
  %51 = bitcast i8* %50 to %"struct.std::_Rb_tree_header"*, !llfi_index !741
  %52 = getelementptr inbounds %"struct.std::_Rb_tree_header", %"struct.std::_Rb_tree_header"* %51, i32 0, i32 1, !llfi_index !742
  %53 = load i64, i64* %52, align 8, !llfi_index !743
  %54 = add i64 %53, 1, !llfi_index !744
  store i64 %54, i64* %52, align 8, !llfi_index !745
  %55 = load %"struct.std::_Rb_tree_node"*, %"struct.std::_Rb_tree_node"** %14, align 8, !llfi_index !746
  %56 = bitcast %"struct.std::_Rb_tree_node"* %55 to %"struct.std::_Rb_tree_node_base"*, !llfi_index !747
  call void @_ZNSt17_Rb_tree_iteratorISt4pairIS0_IxxExEEC2EPSt18_Rb_tree_node_base(%"struct.std::_Rb_tree_const_iterator"* nonnull align 8 dereferenceable(8) %6, %"struct.std::_Rb_tree_node_base"* %56) #2, !llfi_index !748
  %57 = getelementptr inbounds %"struct.std::_Rb_tree_const_iterator", %"struct.std::_Rb_tree_const_iterator"* %6, i32 0, i32 0, !llfi_index !749
  %58 = load %"struct.std::_Rb_tree_node_base"*, %"struct.std::_Rb_tree_node_base"** %57, align 8, !llfi_index !750
  ret %"struct.std::_Rb_tree_node_base"* %58, !llfi_index !751
}

; Function Attrs: noinline nounwind uwtable
define linkonce_odr dso_local void @_ZNSt4pairISt17_Rb_tree_iteratorIS_IS_IxxExEEbEC2IS3_bLb1EEEOT_OT0_(%"struct.std::pair.3"* nonnull align 8 dereferenceable(9) %0, %"struct.std::_Rb_tree_const_iterator"* nonnull align 8 dereferenceable(8) %1, i8* nonnull align 1 dereferenceable(1) %2) unnamed_addr #7 comdat align 2 {
  %4 = alloca %"struct.std::pair.3"*, align 8, !llfi_index !752
  %5 = alloca %"struct.std::_Rb_tree_const_iterator"*, align 8, !llfi_index !753
  %6 = alloca i8*, align 8, !llfi_index !754
  store %"struct.std::pair.3"* %0, %"struct.std::pair.3"** %4, align 8, !llfi_index !755
  store %"struct.std::_Rb_tree_const_iterator"* %1, %"struct.std::_Rb_tree_const_iterator"** %5, align 8, !llfi_index !756
  store i8* %2, i8** %6, align 8, !llfi_index !757
  %7 = load %"struct.std::pair.3"*, %"struct.std::pair.3"** %4, align 8, !llfi_index !758
  %8 = bitcast %"struct.std::pair.3"* %7 to %"class.std::ios_base::Init"*, !llfi_index !759
  %9 = getelementptr inbounds %"struct.std::pair.3", %"struct.std::pair.3"* %7, i32 0, i32 0, !llfi_index !760
  %10 = load %"struct.std::_Rb_tree_const_iterator"*, %"struct.std::_Rb_tree_const_iterator"** %5, align 8, !llfi_index !761
  %11 = call nonnull align 8 dereferenceable(8) %"struct.std::_Rb_tree_const_iterator"* @_ZSt7forwardISt17_Rb_tree_iteratorISt4pairIS1_IxxExEEEOT_RNSt16remove_referenceIS5_E4typeE(%"struct.std::_Rb_tree_const_iterator"* nonnull align 8 dereferenceable(8) %10) #2, !llfi_index !762
  %12 = bitcast %"struct.std::_Rb_tree_const_iterator"* %9 to i8*, !llfi_index !763
  %13 = bitcast %"struct.std::_Rb_tree_const_iterator"* %11 to i8*, !llfi_index !764
  call void @llvm.memcpy.p0i8.p0i8.i64(i8* align 8 %12, i8* align 8 %13, i64 8, i1 false), !llfi_index !765
  %14 = getelementptr inbounds %"struct.std::pair.3", %"struct.std::pair.3"* %7, i32 0, i32 1, !llfi_index !766
  %15 = load i8*, i8** %6, align 8, !llfi_index !767
  %16 = call nonnull align 1 dereferenceable(1) i8* @_ZSt7forwardIbEOT_RNSt16remove_referenceIS0_E4typeE(i8* nonnull align 1 dereferenceable(1) %15) #2, !llfi_index !768
  %17 = load i8, i8* %16, align 1, !llfi_index !769
  %18 = trunc i8 %17 to i1, !llfi_index !770
  %19 = zext i1 %18 to i8, !llfi_index !771
  store i8 %19, i8* %14, align 8, !llfi_index !772
  ret void, !llfi_index !773
}

; Function Attrs: noinline nounwind uwtable
define linkonce_odr dso_local void @_ZNSt17_Rb_tree_iteratorISt4pairIS0_IxxExEEC2EPSt18_Rb_tree_node_base(%"struct.std::_Rb_tree_const_iterator"* nonnull align 8 dereferenceable(8) %0, %"struct.std::_Rb_tree_node_base"* %1) unnamed_addr #7 comdat align 2 {
  %3 = alloca %"struct.std::_Rb_tree_const_iterator"*, align 8, !llfi_index !774
  %4 = alloca %"struct.std::_Rb_tree_node_base"*, align 8, !llfi_index !775
  store %"struct.std::_Rb_tree_const_iterator"* %0, %"struct.std::_Rb_tree_const_iterator"** %3, align 8, !llfi_index !776
  store %"struct.std::_Rb_tree_node_base"* %1, %"struct.std::_Rb_tree_node_base"** %4, align 8, !llfi_index !777
  %5 = load %"struct.std::_Rb_tree_const_iterator"*, %"struct.std::_Rb_tree_const_iterator"** %3, align 8, !llfi_index !778
  %6 = getelementptr inbounds %"struct.std::_Rb_tree_const_iterator", %"struct.std::_Rb_tree_const_iterator"* %5, i32 0, i32 0, !llfi_index !779
  %7 = load %"struct.std::_Rb_tree_node_base"*, %"struct.std::_Rb_tree_node_base"** %4, align 8, !llfi_index !780
  store %"struct.std::_Rb_tree_node_base"* %7, %"struct.std::_Rb_tree_node_base"** %6, align 8, !llfi_index !781
  ret void, !llfi_index !782
}

; Function Attrs: mustprogress noinline nounwind uwtable
define linkonce_odr dso_local nonnull align 8 dereferenceable(8) %"struct.std::_Rb_tree_const_iterator"* @_ZSt7forwardISt17_Rb_tree_iteratorISt4pairIS1_IxxExEEEOT_RNSt16remove_referenceIS5_E4typeE(%"struct.std::_Rb_tree_const_iterator"* nonnull align 8 dereferenceable(8) %0) #5 comdat {
  %2 = alloca %"struct.std::_Rb_tree_const_iterator"*, align 8, !llfi_index !783
  store %"struct.std::_Rb_tree_const_iterator"* %0, %"struct.std::_Rb_tree_const_iterator"** %2, align 8, !llfi_index !784
  %3 = load %"struct.std::_Rb_tree_const_iterator"*, %"struct.std::_Rb_tree_const_iterator"** %2, align 8, !llfi_index !785
  ret %"struct.std::_Rb_tree_const_iterator"* %3, !llfi_index !786
}

; Function Attrs: mustprogress noinline nounwind uwtable
define linkonce_odr dso_local nonnull align 1 dereferenceable(1) i8* @_ZSt7forwardIbEOT_RNSt16remove_referenceIS0_E4typeE(i8* nonnull align 1 dereferenceable(1) %0) #5 comdat {
  %2 = alloca i8*, align 8, !llfi_index !787
  store i8* %0, i8** %2, align 8, !llfi_index !788
  %3 = load i8*, i8** %2, align 8, !llfi_index !789
  ret i8* %3, !llfi_index !790
}

; Function Attrs: mustprogress noinline nounwind uwtable
define linkonce_odr dso_local %"struct.std::_Rb_tree_node_base"* @_ZNSt8_Rb_treeISt4pairIS0_IxxExES2_St9_IdentityIS2_ESt4lessIS2_ESaIS2_EE6_M_endEv(%"class.std::_Rb_tree"* nonnull align 8 dereferenceable(48) %0) #5 comdat align 2 {
  %2 = alloca %"class.std::_Rb_tree"*, align 8, !llfi_index !791
  store %"class.std::_Rb_tree"* %0, %"class.std::_Rb_tree"** %2, align 8, !llfi_index !792
  %3 = load %"class.std::_Rb_tree"*, %"class.std::_Rb_tree"** %2, align 8, !llfi_index !793
  %4 = getelementptr inbounds %"class.std::_Rb_tree", %"class.std::_Rb_tree"* %3, i32 0, i32 0, !llfi_index !794
  %5 = bitcast %"struct.std::_Rb_tree<std::pair<std::pair<long long, long long>, long long>, std::pair<std::pair<long long, long long>, long long>, std::_Identity<std::pair<std::pair<long long, long long>, long long>>, std::less<std::pair<std::pair<long long, long long>, long long>>>::_Rb_tree_impl"* %4 to i8*, !llfi_index !795
  %6 = getelementptr inbounds i8, i8* %5, i64 8, !llfi_index !796
  %7 = bitcast i8* %6 to %"struct.std::_Rb_tree_header"*, !llfi_index !797
  %8 = getelementptr inbounds %"struct.std::_Rb_tree_header", %"struct.std::_Rb_tree_header"* %7, i32 0, i32 0, !llfi_index !798
  ret %"struct.std::_Rb_tree_node_base"* %8, !llfi_index !799
}

; Function Attrs: mustprogress noinline uwtable
define linkonce_odr dso_local nonnull align 8 dereferenceable(24) %"struct.std::pair"* @_ZNSt8_Rb_treeISt4pairIS0_IxxExES2_St9_IdentityIS2_ESt4lessIS2_ESaIS2_EE6_S_keyEPKSt18_Rb_tree_node_base(%"struct.std::_Rb_tree_node_base"* %0) #4 comdat align 2 {
  %2 = alloca %"struct.std::_Rb_tree_node_base"*, align 8, !llfi_index !800
  store %"struct.std::_Rb_tree_node_base"* %0, %"struct.std::_Rb_tree_node_base"** %2, align 8, !llfi_index !801
  %3 = load %"struct.std::_Rb_tree_node_base"*, %"struct.std::_Rb_tree_node_base"** %2, align 8, !llfi_index !802
  %4 = bitcast %"struct.std::_Rb_tree_node_base"* %3 to %"struct.std::_Rb_tree_node"*, !llfi_index !803
  %5 = call nonnull align 8 dereferenceable(24) %"struct.std::pair"* @_ZNSt8_Rb_treeISt4pairIS0_IxxExES2_St9_IdentityIS2_ESt4lessIS2_ESaIS2_EE6_S_keyEPKSt13_Rb_tree_nodeIS2_E(%"struct.std::_Rb_tree_node"* %4), !llfi_index !804
  ret %"struct.std::pair"* %5, !llfi_index !805
}

; Function Attrs: mustprogress noinline uwtable
define linkonce_odr dso_local zeroext i1 @_ZNKSt4lessISt4pairIS0_IxxExEEclERKS2_S5_(%"class.std::ios_base::Init"* nonnull align 1 dereferenceable(1) %0, %"struct.std::pair"* nonnull align 8 dereferenceable(24) %1, %"struct.std::pair"* nonnull align 8 dereferenceable(24) %2) #4 comdat align 2 {
  %4 = alloca %"class.std::ios_base::Init"*, align 8, !llfi_index !806
  %5 = alloca %"struct.std::pair"*, align 8, !llfi_index !807
  %6 = alloca %"struct.std::pair"*, align 8, !llfi_index !808
  store %"class.std::ios_base::Init"* %0, %"class.std::ios_base::Init"** %4, align 8, !llfi_index !809
  store %"struct.std::pair"* %1, %"struct.std::pair"** %5, align 8, !llfi_index !810
  store %"struct.std::pair"* %2, %"struct.std::pair"** %6, align 8, !llfi_index !811
  %7 = load %"class.std::ios_base::Init"*, %"class.std::ios_base::Init"** %4, align 8, !llfi_index !812
  %8 = load %"struct.std::pair"*, %"struct.std::pair"** %5, align 8, !llfi_index !813
  %9 = load %"struct.std::pair"*, %"struct.std::pair"** %6, align 8, !llfi_index !814
  %10 = call zeroext i1 @_ZStltISt4pairIxxExEbRKS0_IT_T0_ES6_(%"struct.std::pair"* nonnull align 8 dereferenceable(24) %8, %"struct.std::pair"* nonnull align 8 dereferenceable(24) %9), !llfi_index !815
  ret i1 %10, !llfi_index !816
}

; Function Attrs: mustprogress noinline uwtable
define linkonce_odr dso_local %"struct.std::_Rb_tree_node"* @_ZNKSt8_Rb_treeISt4pairIS0_IxxExES2_St9_IdentityIS2_ESt4lessIS2_ESaIS2_EE11_Alloc_nodeclIS2_EEPSt13_Rb_tree_nodeIS2_EOT_(%"struct.std::_Rb_tree<std::pair<std::pair<long long, long long>, long long>, std::pair<std::pair<long long, long long>, long long>, std::_Identity<std::pair<std::pair<long long, long long>, long long>>, std::less<std::pair<std::pair<long long, long long>, long long>>>::_Alloc_node"* nonnull align 8 dereferenceable(8) %0, %"struct.std::pair"* nonnull align 8 dereferenceable(24) %1) #4 comdat align 2 {
  %3 = alloca %"struct.std::_Rb_tree<std::pair<std::pair<long long, long long>, long long>, std::pair<std::pair<long long, long long>, long long>, std::_Identity<std::pair<std::pair<long long, long long>, long long>>, std::less<std::pair<std::pair<long long, long long>, long long>>>::_Alloc_node"*, align 8, !llfi_index !817
  %4 = alloca %"struct.std::pair"*, align 8, !llfi_index !818
  store %"struct.std::_Rb_tree<std::pair<std::pair<long long, long long>, long long>, std::pair<std::pair<long long, long long>, long long>, std::_Identity<std::pair<std::pair<long long, long long>, long long>>, std::less<std::pair<std::pair<long long, long long>, long long>>>::_Alloc_node"* %0, %"struct.std::_Rb_tree<std::pair<std::pair<long long, long long>, long long>, std::pair<std::pair<long long, long long>, long long>, std::_Identity<std::pair<std::pair<long long, long long>, long long>>, std::less<std::pair<std::pair<long long, long long>, long long>>>::_Alloc_node"** %3, align 8, !llfi_index !819
  store %"struct.std::pair"* %1, %"struct.std::pair"** %4, align 8, !llfi_index !820
  %5 = load %"struct.std::_Rb_tree<std::pair<std::pair<long long, long long>, long long>, std::pair<std::pair<long long, long long>, long long>, std::_Identity<std::pair<std::pair<long long, long long>, long long>>, std::less<std::pair<std::pair<long long, long long>, long long>>>::_Alloc_node"*, %"struct.std::_Rb_tree<std::pair<std::pair<long long, long long>, long long>, std::pair<std::pair<long long, long long>, long long>, std::_Identity<std::pair<std::pair<long long, long long>, long long>>, std::less<std::pair<std::pair<long long, long long>, long long>>>::_Alloc_node"** %3, align 8, !llfi_index !821
  %6 = getelementptr inbounds %"struct.std::_Rb_tree<std::pair<std::pair<long long, long long>, long long>, std::pair<std::pair<long long, long long>, long long>, std::_Identity<std::pair<std::pair<long long, long long>, long long>>, std::less<std::pair<std::pair<long long, long long>, long long>>>::_Alloc_node", %"struct.std::_Rb_tree<std::pair<std::pair<long long, long long>, long long>, std::pair<std::pair<long long, long long>, long long>, std::_Identity<std::pair<std::pair<long long, long long>, long long>>, std::less<std::pair<std::pair<long long, long long>, long long>>>::_Alloc_node"* %5, i32 0, i32 0, !llfi_index !822
  %7 = load %"class.std::_Rb_tree"*, %"class.std::_Rb_tree"** %6, align 8, !llfi_index !823
  %8 = load %"struct.std::pair"*, %"struct.std::pair"** %4, align 8, !llfi_index !824
  %9 = call nonnull align 8 dereferenceable(24) %"struct.std::pair"* @_ZSt7forwardISt4pairIS0_IxxExEEOT_RNSt16remove_referenceIS3_E4typeE(%"struct.std::pair"* nonnull align 8 dereferenceable(24) %8) #2, !llfi_index !825
  %10 = call %"struct.std::_Rb_tree_node"* @_ZNSt8_Rb_treeISt4pairIS0_IxxExES2_St9_IdentityIS2_ESt4lessIS2_ESaIS2_EE14_M_create_nodeIJS2_EEEPSt13_Rb_tree_nodeIS2_EDpOT_(%"class.std::_Rb_tree"* nonnull align 8 dereferenceable(48) %7, %"struct.std::pair"* nonnull align 8 dereferenceable(24) %9), !llfi_index !826
  ret %"struct.std::_Rb_tree_node"* %10, !llfi_index !827
}

; Function Attrs: nounwind
declare dso_local void @_ZSt29_Rb_tree_insert_and_rebalancebPSt18_Rb_tree_node_baseS0_RS_(i1 zeroext, %"struct.std::_Rb_tree_node_base"*, %"struct.std::_Rb_tree_node_base"*, %"struct.std::_Rb_tree_node_base"* nonnull align 8 dereferenceable(32)) #3

; Function Attrs: mustprogress noinline uwtable
define linkonce_odr dso_local %"struct.std::_Rb_tree_node"* @_ZNSt8_Rb_treeISt4pairIS0_IxxExES2_St9_IdentityIS2_ESt4lessIS2_ESaIS2_EE14_M_create_nodeIJS2_EEEPSt13_Rb_tree_nodeIS2_EDpOT_(%"class.std::_Rb_tree"* nonnull align 8 dereferenceable(48) %0, %"struct.std::pair"* nonnull align 8 dereferenceable(24) %1) #4 comdat align 2 {
  %3 = alloca %"class.std::_Rb_tree"*, align 8, !llfi_index !828
  %4 = alloca %"struct.std::pair"*, align 8, !llfi_index !829
  %5 = alloca %"struct.std::_Rb_tree_node"*, align 8, !llfi_index !830
  store %"class.std::_Rb_tree"* %0, %"class.std::_Rb_tree"** %3, align 8, !llfi_index !831
  store %"struct.std::pair"* %1, %"struct.std::pair"** %4, align 8, !llfi_index !832
  %6 = load %"class.std::_Rb_tree"*, %"class.std::_Rb_tree"** %3, align 8, !llfi_index !833
  %7 = call %"struct.std::_Rb_tree_node"* @_ZNSt8_Rb_treeISt4pairIS0_IxxExES2_St9_IdentityIS2_ESt4lessIS2_ESaIS2_EE11_M_get_nodeEv(%"class.std::_Rb_tree"* nonnull align 8 dereferenceable(48) %6), !llfi_index !834
  store %"struct.std::_Rb_tree_node"* %7, %"struct.std::_Rb_tree_node"** %5, align 8, !llfi_index !835
  %8 = load %"struct.std::_Rb_tree_node"*, %"struct.std::_Rb_tree_node"** %5, align 8, !llfi_index !836
  %9 = load %"struct.std::pair"*, %"struct.std::pair"** %4, align 8, !llfi_index !837
  %10 = call nonnull align 8 dereferenceable(24) %"struct.std::pair"* @_ZSt7forwardISt4pairIS0_IxxExEEOT_RNSt16remove_referenceIS3_E4typeE(%"struct.std::pair"* nonnull align 8 dereferenceable(24) %9) #2, !llfi_index !838
  call void @_ZNSt8_Rb_treeISt4pairIS0_IxxExES2_St9_IdentityIS2_ESt4lessIS2_ESaIS2_EE17_M_construct_nodeIJS2_EEEvPSt13_Rb_tree_nodeIS2_EDpOT_(%"class.std::_Rb_tree"* nonnull align 8 dereferenceable(48) %6, %"struct.std::_Rb_tree_node"* %8, %"struct.std::pair"* nonnull align 8 dereferenceable(24) %10), !llfi_index !839
  %11 = load %"struct.std::_Rb_tree_node"*, %"struct.std::_Rb_tree_node"** %5, align 8, !llfi_index !840
  ret %"struct.std::_Rb_tree_node"* %11, !llfi_index !841
}

; Function Attrs: mustprogress noinline uwtable
define linkonce_odr dso_local %"struct.std::_Rb_tree_node"* @_ZNSt8_Rb_treeISt4pairIS0_IxxExES2_St9_IdentityIS2_ESt4lessIS2_ESaIS2_EE11_M_get_nodeEv(%"class.std::_Rb_tree"* nonnull align 8 dereferenceable(48) %0) #4 comdat align 2 {
  %2 = alloca %"class.std::_Rb_tree"*, align 8, !llfi_index !842
  store %"class.std::_Rb_tree"* %0, %"class.std::_Rb_tree"** %2, align 8, !llfi_index !843
  %3 = load %"class.std::_Rb_tree"*, %"class.std::_Rb_tree"** %2, align 8, !llfi_index !844
  %4 = call nonnull align 1 dereferenceable(1) %"class.std::ios_base::Init"* @_ZNSt8_Rb_treeISt4pairIS0_IxxExES2_St9_IdentityIS2_ESt4lessIS2_ESaIS2_EE21_M_get_Node_allocatorEv(%"class.std::_Rb_tree"* nonnull align 8 dereferenceable(48) %3) #2, !llfi_index !845
  %5 = call %"struct.std::_Rb_tree_node"* @_ZNSt16allocator_traitsISaISt13_Rb_tree_nodeISt4pairIS1_IxxExEEEE8allocateERS5_m(%"class.std::ios_base::Init"* nonnull align 1 dereferenceable(1) %4, i64 1), !llfi_index !846
  ret %"struct.std::_Rb_tree_node"* %5, !llfi_index !847
}

; Function Attrs: mustprogress noinline nounwind uwtable
define linkonce_odr dso_local void @_ZNSt8_Rb_treeISt4pairIS0_IxxExES2_St9_IdentityIS2_ESt4lessIS2_ESaIS2_EE17_M_construct_nodeIJS2_EEEvPSt13_Rb_tree_nodeIS2_EDpOT_(%"class.std::_Rb_tree"* nonnull align 8 dereferenceable(48) %0, %"struct.std::_Rb_tree_node"* %1, %"struct.std::pair"* nonnull align 8 dereferenceable(24) %2) #5 comdat align 2 {
  %4 = alloca %"class.std::_Rb_tree"*, align 8, !llfi_index !848
  %5 = alloca %"struct.std::_Rb_tree_node"*, align 8, !llfi_index !849
  %6 = alloca %"struct.std::pair"*, align 8, !llfi_index !850
  store %"class.std::_Rb_tree"* %0, %"class.std::_Rb_tree"** %4, align 8, !llfi_index !851
  store %"struct.std::_Rb_tree_node"* %1, %"struct.std::_Rb_tree_node"** %5, align 8, !llfi_index !852
  store %"struct.std::pair"* %2, %"struct.std::pair"** %6, align 8, !llfi_index !853
  %7 = load %"class.std::_Rb_tree"*, %"class.std::_Rb_tree"** %4, align 8, !llfi_index !854
  %8 = load %"struct.std::_Rb_tree_node"*, %"struct.std::_Rb_tree_node"** %5, align 8, !llfi_index !855
  %9 = bitcast %"struct.std::_Rb_tree_node"* %8 to i8*, !llfi_index !856
  %10 = bitcast i8* %9 to %"struct.std::_Rb_tree_node"*, !llfi_index !857
  %11 = call nonnull align 1 dereferenceable(1) %"class.std::ios_base::Init"* @_ZNSt8_Rb_treeISt4pairIS0_IxxExES2_St9_IdentityIS2_ESt4lessIS2_ESaIS2_EE21_M_get_Node_allocatorEv(%"class.std::_Rb_tree"* nonnull align 8 dereferenceable(48) %7) #2, !llfi_index !858
  %12 = load %"struct.std::_Rb_tree_node"*, %"struct.std::_Rb_tree_node"** %5, align 8, !llfi_index !859
  %13 = call %"struct.std::pair"* @_ZNSt13_Rb_tree_nodeISt4pairIS0_IxxExEE9_M_valptrEv(%"struct.std::_Rb_tree_node"* nonnull align 8 dereferenceable(56) %12), !llfi_index !860
  %14 = load %"struct.std::pair"*, %"struct.std::pair"** %6, align 8, !llfi_index !861
  %15 = call nonnull align 8 dereferenceable(24) %"struct.std::pair"* @_ZSt7forwardISt4pairIS0_IxxExEEOT_RNSt16remove_referenceIS3_E4typeE(%"struct.std::pair"* nonnull align 8 dereferenceable(24) %14) #2, !llfi_index !862
  call void @_ZNSt16allocator_traitsISaISt13_Rb_tree_nodeISt4pairIS1_IxxExEEEE9constructIS3_JS3_EEEvRS5_PT_DpOT0_(%"class.std::ios_base::Init"* nonnull align 1 dereferenceable(1) %11, %"struct.std::pair"* %13, %"struct.std::pair"* nonnull align 8 dereferenceable(24) %15) #2, !llfi_index !863
  ret void, !llfi_index !864
}

; Function Attrs: mustprogress noinline nounwind uwtable
define linkonce_odr dso_local nonnull align 1 dereferenceable(1) %"class.std::ios_base::Init"* @_ZNSt8_Rb_treeISt4pairIS0_IxxExES2_St9_IdentityIS2_ESt4lessIS2_ESaIS2_EE21_M_get_Node_allocatorEv(%"class.std::_Rb_tree"* nonnull align 8 dereferenceable(48) %0) #5 comdat align 2 {
  %2 = alloca %"class.std::_Rb_tree"*, align 8, !llfi_index !865
  store %"class.std::_Rb_tree"* %0, %"class.std::_Rb_tree"** %2, align 8, !llfi_index !866
  %3 = load %"class.std::_Rb_tree"*, %"class.std::_Rb_tree"** %2, align 8, !llfi_index !867
  %4 = getelementptr inbounds %"class.std::_Rb_tree", %"class.std::_Rb_tree"* %3, i32 0, i32 0, !llfi_index !868
  %5 = bitcast %"struct.std::_Rb_tree<std::pair<std::pair<long long, long long>, long long>, std::pair<std::pair<long long, long long>, long long>, std::_Identity<std::pair<std::pair<long long, long long>, long long>>, std::less<std::pair<std::pair<long long, long long>, long long>>>::_Rb_tree_impl"* %4 to %"class.std::ios_base::Init"*, !llfi_index !869
  ret %"class.std::ios_base::Init"* %5, !llfi_index !870
}

; Function Attrs: mustprogress noinline nounwind uwtable
define linkonce_odr dso_local %"struct.std::pair"* @_ZNSt13_Rb_tree_nodeISt4pairIS0_IxxExEE9_M_valptrEv(%"struct.std::_Rb_tree_node"* nonnull align 8 dereferenceable(56) %0) #5 comdat align 2 {
  %2 = alloca %"struct.std::_Rb_tree_node"*, align 8, !llfi_index !871
  store %"struct.std::_Rb_tree_node"* %0, %"struct.std::_Rb_tree_node"** %2, align 8, !llfi_index !872
  %3 = load %"struct.std::_Rb_tree_node"*, %"struct.std::_Rb_tree_node"** %2, align 8, !llfi_index !873
  %4 = getelementptr inbounds %"struct.std::_Rb_tree_node", %"struct.std::_Rb_tree_node"* %3, i32 0, i32 1, !llfi_index !874
  %5 = call %"struct.std::pair"* @_ZN9__gnu_cxx16__aligned_membufISt4pairIS1_IxxExEE6_M_ptrEv(%"struct.__gnu_cxx::__aligned_membuf"* nonnull align 8 dereferenceable(24) %4) #2, !llfi_index !875
  ret %"struct.std::pair"* %5, !llfi_index !876
}

; Function Attrs: mustprogress noinline nounwind uwtable
define linkonce_odr dso_local void @_ZNSt16allocator_traitsISaISt13_Rb_tree_nodeISt4pairIS1_IxxExEEEE9constructIS3_JS3_EEEvRS5_PT_DpOT0_(%"class.std::ios_base::Init"* nonnull align 1 dereferenceable(1) %0, %"struct.std::pair"* %1, %"struct.std::pair"* nonnull align 8 dereferenceable(24) %2) #5 comdat align 2 {
  %4 = alloca %"class.std::ios_base::Init"*, align 8, !llfi_index !877
  %5 = alloca %"struct.std::pair"*, align 8, !llfi_index !878
  %6 = alloca %"struct.std::pair"*, align 8, !llfi_index !879
  store %"class.std::ios_base::Init"* %0, %"class.std::ios_base::Init"** %4, align 8, !llfi_index !880
  store %"struct.std::pair"* %1, %"struct.std::pair"** %5, align 8, !llfi_index !881
  store %"struct.std::pair"* %2, %"struct.std::pair"** %6, align 8, !llfi_index !882
  %7 = load %"class.std::ios_base::Init"*, %"class.std::ios_base::Init"** %4, align 8, !llfi_index !883
  %8 = bitcast %"class.std::ios_base::Init"* %7 to %"class.std::ios_base::Init"*, !llfi_index !884
  %9 = load %"struct.std::pair"*, %"struct.std::pair"** %5, align 8, !llfi_index !885
  %10 = load %"struct.std::pair"*, %"struct.std::pair"** %6, align 8, !llfi_index !886
  %11 = call nonnull align 8 dereferenceable(24) %"struct.std::pair"* @_ZSt7forwardISt4pairIS0_IxxExEEOT_RNSt16remove_referenceIS3_E4typeE(%"struct.std::pair"* nonnull align 8 dereferenceable(24) %10) #2, !llfi_index !887
  call void @_ZN9__gnu_cxx13new_allocatorISt13_Rb_tree_nodeISt4pairIS2_IxxExEEE9constructIS4_JS4_EEEvPT_DpOT0_(%"class.std::ios_base::Init"* nonnull align 1 dereferenceable(1) %8, %"struct.std::pair"* %9, %"struct.std::pair"* nonnull align 8 dereferenceable(24) %11) #2, !llfi_index !888
  ret void, !llfi_index !889
}

; Function Attrs: mustprogress noinline nounwind uwtable
define linkonce_odr dso_local void @_ZN9__gnu_cxx13new_allocatorISt13_Rb_tree_nodeISt4pairIS2_IxxExEEE9constructIS4_JS4_EEEvPT_DpOT0_(%"class.std::ios_base::Init"* nonnull align 1 dereferenceable(1) %0, %"struct.std::pair"* %1, %"struct.std::pair"* nonnull align 8 dereferenceable(24) %2) #5 comdat align 2 {
  %4 = alloca %"class.std::ios_base::Init"*, align 8, !llfi_index !890
  %5 = alloca %"struct.std::pair"*, align 8, !llfi_index !891
  %6 = alloca %"struct.std::pair"*, align 8, !llfi_index !892
  store %"class.std::ios_base::Init"* %0, %"class.std::ios_base::Init"** %4, align 8, !llfi_index !893
  store %"struct.std::pair"* %1, %"struct.std::pair"** %5, align 8, !llfi_index !894
  store %"struct.std::pair"* %2, %"struct.std::pair"** %6, align 8, !llfi_index !895
  %7 = load %"class.std::ios_base::Init"*, %"class.std::ios_base::Init"** %4, align 8, !llfi_index !896
  %8 = load %"struct.std::pair"*, %"struct.std::pair"** %5, align 8, !llfi_index !897
  %9 = bitcast %"struct.std::pair"* %8 to i8*, !llfi_index !898
  %10 = bitcast i8* %9 to %"struct.std::pair"*, !llfi_index !899
  %11 = load %"struct.std::pair"*, %"struct.std::pair"** %6, align 8, !llfi_index !900
  %12 = call nonnull align 8 dereferenceable(24) %"struct.std::pair"* @_ZSt7forwardISt4pairIS0_IxxExEEOT_RNSt16remove_referenceIS3_E4typeE(%"struct.std::pair"* nonnull align 8 dereferenceable(24) %11) #2, !llfi_index !901
  %13 = bitcast %"struct.std::pair"* %10 to i8*, !llfi_index !902
  %14 = bitcast %"struct.std::pair"* %12 to i8*, !llfi_index !903
  call void @llvm.memcpy.p0i8.p0i8.i64(i8* align 8 %13, i8* align 8 %14, i64 24, i1 false), !llfi_index !904
  ret void, !llfi_index !905
}

; Function Attrs: mustprogress noinline nounwind uwtable
define linkonce_odr dso_local %"struct.std::pair"* @_ZN9__gnu_cxx16__aligned_membufISt4pairIS1_IxxExEE6_M_ptrEv(%"struct.__gnu_cxx::__aligned_membuf"* nonnull align 8 dereferenceable(24) %0) #5 comdat align 2 {
  %2 = alloca %"struct.__gnu_cxx::__aligned_membuf"*, align 8, !llfi_index !906
  store %"struct.__gnu_cxx::__aligned_membuf"* %0, %"struct.__gnu_cxx::__aligned_membuf"** %2, align 8, !llfi_index !907
  %3 = load %"struct.__gnu_cxx::__aligned_membuf"*, %"struct.__gnu_cxx::__aligned_membuf"** %2, align 8, !llfi_index !908
  %4 = call i8* @_ZN9__gnu_cxx16__aligned_membufISt4pairIS1_IxxExEE7_M_addrEv(%"struct.__gnu_cxx::__aligned_membuf"* nonnull align 8 dereferenceable(24) %3) #2, !llfi_index !909
  %5 = bitcast i8* %4 to %"struct.std::pair"*, !llfi_index !910
  ret %"struct.std::pair"* %5, !llfi_index !911
}

; Function Attrs: mustprogress noinline nounwind uwtable
define linkonce_odr dso_local i8* @_ZN9__gnu_cxx16__aligned_membufISt4pairIS1_IxxExEE7_M_addrEv(%"struct.__gnu_cxx::__aligned_membuf"* nonnull align 8 dereferenceable(24) %0) #5 comdat align 2 {
  %2 = alloca %"struct.__gnu_cxx::__aligned_membuf"*, align 8, !llfi_index !912
  store %"struct.__gnu_cxx::__aligned_membuf"* %0, %"struct.__gnu_cxx::__aligned_membuf"** %2, align 8, !llfi_index !913
  %3 = load %"struct.__gnu_cxx::__aligned_membuf"*, %"struct.__gnu_cxx::__aligned_membuf"** %2, align 8, !llfi_index !914
  %4 = getelementptr inbounds %"struct.__gnu_cxx::__aligned_membuf", %"struct.__gnu_cxx::__aligned_membuf"* %3, i32 0, i32 0, !llfi_index !915
  %5 = bitcast [24 x i8]* %4 to i8*, !llfi_index !916
  ret i8* %5, !llfi_index !917
}

; Function Attrs: mustprogress noinline uwtable
define linkonce_odr dso_local %"struct.std::_Rb_tree_node"* @_ZNSt16allocator_traitsISaISt13_Rb_tree_nodeISt4pairIS1_IxxExEEEE8allocateERS5_m(%"class.std::ios_base::Init"* nonnull align 1 dereferenceable(1) %0, i64 %1) #4 comdat align 2 {
  %3 = alloca %"class.std::ios_base::Init"*, align 8, !llfi_index !918
  %4 = alloca i64, align 8, !llfi_index !919
  store %"class.std::ios_base::Init"* %0, %"class.std::ios_base::Init"** %3, align 8, !llfi_index !920
  store i64 %1, i64* %4, align 8, !llfi_index !921
  %5 = load %"class.std::ios_base::Init"*, %"class.std::ios_base::Init"** %3, align 8, !llfi_index !922
  %6 = bitcast %"class.std::ios_base::Init"* %5 to %"class.std::ios_base::Init"*, !llfi_index !923
  %7 = load i64, i64* %4, align 8, !llfi_index !924
  %8 = call %"struct.std::_Rb_tree_node"* @_ZN9__gnu_cxx13new_allocatorISt13_Rb_tree_nodeISt4pairIS2_IxxExEEE8allocateEmPKv(%"class.std::ios_base::Init"* nonnull align 1 dereferenceable(1) %6, i64 %7, i8* null), !llfi_index !925
  ret %"struct.std::_Rb_tree_node"* %8, !llfi_index !926
}

; Function Attrs: mustprogress noinline uwtable
define linkonce_odr dso_local %"struct.std::_Rb_tree_node"* @_ZN9__gnu_cxx13new_allocatorISt13_Rb_tree_nodeISt4pairIS2_IxxExEEE8allocateEmPKv(%"class.std::ios_base::Init"* nonnull align 1 dereferenceable(1) %0, i64 %1, i8* %2) #4 comdat align 2 {
  %4 = alloca %"class.std::ios_base::Init"*, align 8, !llfi_index !927
  %5 = alloca i64, align 8, !llfi_index !928
  %6 = alloca i8*, align 8, !llfi_index !929
  store %"class.std::ios_base::Init"* %0, %"class.std::ios_base::Init"** %4, align 8, !llfi_index !930
  store i64 %1, i64* %5, align 8, !llfi_index !931
  store i8* %2, i8** %6, align 8, !llfi_index !932
  %7 = load %"class.std::ios_base::Init"*, %"class.std::ios_base::Init"** %4, align 8, !llfi_index !933
  %8 = load i64, i64* %5, align 8, !llfi_index !934
  %9 = call i64 @_ZNK9__gnu_cxx13new_allocatorISt13_Rb_tree_nodeISt4pairIS2_IxxExEEE8max_sizeEv(%"class.std::ios_base::Init"* nonnull align 1 dereferenceable(1) %7) #2, !llfi_index !935
  %10 = icmp ugt i64 %8, %9, !llfi_index !936
  br i1 %10, label %11, label %12, !llfi_index !937

11:                                               ; preds = %3
  call void @_ZSt17__throw_bad_allocv() #15, !llfi_index !938
  unreachable, !llfi_index !939

12:                                               ; preds = %3
  %13 = load i64, i64* %5, align 8, !llfi_index !940
  %14 = mul i64 %13, 56, !llfi_index !941
  %15 = call noalias nonnull i8* @_Znwm(i64 %14) #16, !llfi_index !942
  %16 = bitcast i8* %15 to %"struct.std::_Rb_tree_node"*, !llfi_index !943
  ret %"struct.std::_Rb_tree_node"* %16, !llfi_index !944
}

; Function Attrs: mustprogress noinline nounwind uwtable
define linkonce_odr dso_local i64 @_ZNK9__gnu_cxx13new_allocatorISt13_Rb_tree_nodeISt4pairIS2_IxxExEEE8max_sizeEv(%"class.std::ios_base::Init"* nonnull align 1 dereferenceable(1) %0) #5 comdat align 2 {
  %2 = alloca %"class.std::ios_base::Init"*, align 8, !llfi_index !945
  store %"class.std::ios_base::Init"* %0, %"class.std::ios_base::Init"** %2, align 8, !llfi_index !946
  %3 = load %"class.std::ios_base::Init"*, %"class.std::ios_base::Init"** %2, align 8, !llfi_index !947
  ret i64 164703072086692425, !llfi_index !948
}

; Function Attrs: noreturn
declare dso_local void @_ZSt17__throw_bad_allocv() #9

; Function Attrs: nobuiltin allocsize(0)
declare dso_local nonnull i8* @_Znwm(i64) #10

; Function Attrs: mustprogress noinline uwtable
define linkonce_odr dso_local zeroext i1 @_ZStltISt4pairIxxExEbRKS0_IT_T0_ES6_(%"struct.std::pair"* nonnull align 8 dereferenceable(24) %0, %"struct.std::pair"* nonnull align 8 dereferenceable(24) %1) #4 comdat {
  %3 = alloca %"struct.std::pair"*, align 8, !llfi_index !949
  %4 = alloca %"struct.std::pair"*, align 8, !llfi_index !950
  store %"struct.std::pair"* %0, %"struct.std::pair"** %3, align 8, !llfi_index !951
  store %"struct.std::pair"* %1, %"struct.std::pair"** %4, align 8, !llfi_index !952
  %5 = load %"struct.std::pair"*, %"struct.std::pair"** %3, align 8, !llfi_index !953
  %6 = getelementptr inbounds %"struct.std::pair", %"struct.std::pair"* %5, i32 0, i32 0, !llfi_index !954
  %7 = load %"struct.std::pair"*, %"struct.std::pair"** %4, align 8, !llfi_index !955
  %8 = getelementptr inbounds %"struct.std::pair", %"struct.std::pair"* %7, i32 0, i32 0, !llfi_index !956
  %9 = call zeroext i1 @_ZStltIxxEbRKSt4pairIT_T0_ES5_(%"struct.std::pair.0"* nonnull align 8 dereferenceable(16) %6, %"struct.std::pair.0"* nonnull align 8 dereferenceable(16) %8), !llfi_index !957
  br i1 %9, label %26, label %10, !llfi_index !958

10:                                               ; preds = %2
  %11 = load %"struct.std::pair"*, %"struct.std::pair"** %4, align 8, !llfi_index !959
  %12 = getelementptr inbounds %"struct.std::pair", %"struct.std::pair"* %11, i32 0, i32 0, !llfi_index !960
  %13 = load %"struct.std::pair"*, %"struct.std::pair"** %3, align 8, !llfi_index !961
  %14 = getelementptr inbounds %"struct.std::pair", %"struct.std::pair"* %13, i32 0, i32 0, !llfi_index !962
  %15 = call zeroext i1 @_ZStltIxxEbRKSt4pairIT_T0_ES5_(%"struct.std::pair.0"* nonnull align 8 dereferenceable(16) %12, %"struct.std::pair.0"* nonnull align 8 dereferenceable(16) %14), !llfi_index !963
  br i1 %15, label %24, label %16, !llfi_index !964

16:                                               ; preds = %10
  %17 = load %"struct.std::pair"*, %"struct.std::pair"** %3, align 8, !llfi_index !965
  %18 = getelementptr inbounds %"struct.std::pair", %"struct.std::pair"* %17, i32 0, i32 1, !llfi_index !966
  %19 = load i64, i64* %18, align 8, !llfi_index !967
  %20 = load %"struct.std::pair"*, %"struct.std::pair"** %4, align 8, !llfi_index !968
  %21 = getelementptr inbounds %"struct.std::pair", %"struct.std::pair"* %20, i32 0, i32 1, !llfi_index !969
  %22 = load i64, i64* %21, align 8, !llfi_index !970
  %23 = icmp slt i64 %19, %22, !llfi_index !971
  br label %24, !llfi_index !972

24:                                               ; preds = %16, %10
  %25 = phi i1 [ false, %10 ], [ %23, %16 ], !llfi_index !973
  br label %26, !llfi_index !974

26:                                               ; preds = %24, %2
  %27 = phi i1 [ true, %2 ], [ %25, %24 ], !llfi_index !975
  ret i1 %27, !llfi_index !976
}

; Function Attrs: mustprogress noinline nounwind uwtable
define linkonce_odr dso_local zeroext i1 @_ZStltIxxEbRKSt4pairIT_T0_ES5_(%"struct.std::pair.0"* nonnull align 8 dereferenceable(16) %0, %"struct.std::pair.0"* nonnull align 8 dereferenceable(16) %1) #5 comdat {
  %3 = alloca %"struct.std::pair.0"*, align 8, !llfi_index !977
  %4 = alloca %"struct.std::pair.0"*, align 8, !llfi_index !978
  store %"struct.std::pair.0"* %0, %"struct.std::pair.0"** %3, align 8, !llfi_index !979
  store %"struct.std::pair.0"* %1, %"struct.std::pair.0"** %4, align 8, !llfi_index !980
  %5 = load %"struct.std::pair.0"*, %"struct.std::pair.0"** %3, align 8, !llfi_index !981
  %6 = getelementptr inbounds %"struct.std::pair.0", %"struct.std::pair.0"* %5, i32 0, i32 0, !llfi_index !982
  %7 = load i64, i64* %6, align 8, !llfi_index !983
  %8 = load %"struct.std::pair.0"*, %"struct.std::pair.0"** %4, align 8, !llfi_index !984
  %9 = getelementptr inbounds %"struct.std::pair.0", %"struct.std::pair.0"* %8, i32 0, i32 0, !llfi_index !985
  %10 = load i64, i64* %9, align 8, !llfi_index !986
  %11 = icmp slt i64 %7, %10, !llfi_index !987
  br i1 %11, label %30, label %12, !llfi_index !988

12:                                               ; preds = %2
  %13 = load %"struct.std::pair.0"*, %"struct.std::pair.0"** %4, align 8, !llfi_index !989
  %14 = getelementptr inbounds %"struct.std::pair.0", %"struct.std::pair.0"* %13, i32 0, i32 0, !llfi_index !990
  %15 = load i64, i64* %14, align 8, !llfi_index !991
  %16 = load %"struct.std::pair.0"*, %"struct.std::pair.0"** %3, align 8, !llfi_index !992
  %17 = getelementptr inbounds %"struct.std::pair.0", %"struct.std::pair.0"* %16, i32 0, i32 0, !llfi_index !993
  %18 = load i64, i64* %17, align 8, !llfi_index !994
  %19 = icmp slt i64 %15, %18, !llfi_index !995
  br i1 %19, label %28, label %20, !llfi_index !996

20:                                               ; preds = %12
  %21 = load %"struct.std::pair.0"*, %"struct.std::pair.0"** %3, align 8, !llfi_index !997
  %22 = getelementptr inbounds %"struct.std::pair.0", %"struct.std::pair.0"* %21, i32 0, i32 1, !llfi_index !998
  %23 = load i64, i64* %22, align 8, !llfi_index !999
  %24 = load %"struct.std::pair.0"*, %"struct.std::pair.0"** %4, align 8, !llfi_index !1000
  %25 = getelementptr inbounds %"struct.std::pair.0", %"struct.std::pair.0"* %24, i32 0, i32 1, !llfi_index !1001
  %26 = load i64, i64* %25, align 8, !llfi_index !1002
  %27 = icmp slt i64 %23, %26, !llfi_index !1003
  br label %28, !llfi_index !1004

28:                                               ; preds = %20, %12
  %29 = phi i1 [ false, %12 ], [ %27, %20 ], !llfi_index !1005
  br label %30, !llfi_index !1006

30:                                               ; preds = %28, %2
  %31 = phi i1 [ true, %2 ], [ %29, %28 ], !llfi_index !1007
  ret i1 %31, !llfi_index !1008
}

; Function Attrs: mustprogress noinline uwtable
define linkonce_odr dso_local nonnull align 8 dereferenceable(24) %"struct.std::pair"* @_ZNSt8_Rb_treeISt4pairIS0_IxxExES2_St9_IdentityIS2_ESt4lessIS2_ESaIS2_EE6_S_keyEPKSt13_Rb_tree_nodeIS2_E(%"struct.std::_Rb_tree_node"* %0) #4 comdat align 2 {
  %2 = alloca %"struct.std::_Rb_tree_node"*, align 8, !llfi_index !1009
  %3 = alloca %"class.std::ios_base::Init", align 1, !llfi_index !1010
  store %"struct.std::_Rb_tree_node"* %0, %"struct.std::_Rb_tree_node"** %2, align 8, !llfi_index !1011
  %4 = load %"struct.std::_Rb_tree_node"*, %"struct.std::_Rb_tree_node"** %2, align 8, !llfi_index !1012
  %5 = call %"struct.std::pair"* @_ZNKSt13_Rb_tree_nodeISt4pairIS0_IxxExEE9_M_valptrEv(%"struct.std::_Rb_tree_node"* nonnull align 8 dereferenceable(56) %4), !llfi_index !1013
  %6 = call nonnull align 8 dereferenceable(24) %"struct.std::pair"* @_ZNKSt9_IdentityISt4pairIS0_IxxExEEclERKS2_(%"class.std::ios_base::Init"* nonnull align 1 dereferenceable(1) %3, %"struct.std::pair"* nonnull align 8 dereferenceable(24) %5), !llfi_index !1014
  ret %"struct.std::pair"* %6, !llfi_index !1015
}

; Function Attrs: mustprogress noinline nounwind uwtable
define linkonce_odr dso_local %"struct.std::pair"* @_ZNKSt13_Rb_tree_nodeISt4pairIS0_IxxExEE9_M_valptrEv(%"struct.std::_Rb_tree_node"* nonnull align 8 dereferenceable(56) %0) #5 comdat align 2 {
  %2 = alloca %"struct.std::_Rb_tree_node"*, align 8, !llfi_index !1016
  store %"struct.std::_Rb_tree_node"* %0, %"struct.std::_Rb_tree_node"** %2, align 8, !llfi_index !1017
  %3 = load %"struct.std::_Rb_tree_node"*, %"struct.std::_Rb_tree_node"** %2, align 8, !llfi_index !1018
  %4 = getelementptr inbounds %"struct.std::_Rb_tree_node", %"struct.std::_Rb_tree_node"* %3, i32 0, i32 1, !llfi_index !1019
  %5 = call %"struct.std::pair"* @_ZNK9__gnu_cxx16__aligned_membufISt4pairIS1_IxxExEE6_M_ptrEv(%"struct.__gnu_cxx::__aligned_membuf"* nonnull align 8 dereferenceable(24) %4) #2, !llfi_index !1020
  ret %"struct.std::pair"* %5, !llfi_index !1021
}

; Function Attrs: mustprogress noinline nounwind uwtable
define linkonce_odr dso_local nonnull align 8 dereferenceable(24) %"struct.std::pair"* @_ZNKSt9_IdentityISt4pairIS0_IxxExEEclERKS2_(%"class.std::ios_base::Init"* nonnull align 1 dereferenceable(1) %0, %"struct.std::pair"* nonnull align 8 dereferenceable(24) %1) #5 comdat align 2 {
  %3 = alloca %"class.std::ios_base::Init"*, align 8, !llfi_index !1022
  %4 = alloca %"struct.std::pair"*, align 8, !llfi_index !1023
  store %"class.std::ios_base::Init"* %0, %"class.std::ios_base::Init"** %3, align 8, !llfi_index !1024
  store %"struct.std::pair"* %1, %"struct.std::pair"** %4, align 8, !llfi_index !1025
  %5 = load %"class.std::ios_base::Init"*, %"class.std::ios_base::Init"** %3, align 8, !llfi_index !1026
  %6 = load %"struct.std::pair"*, %"struct.std::pair"** %4, align 8, !llfi_index !1027
  ret %"struct.std::pair"* %6, !llfi_index !1028
}

; Function Attrs: mustprogress noinline nounwind uwtable
define linkonce_odr dso_local %"struct.std::pair"* @_ZNK9__gnu_cxx16__aligned_membufISt4pairIS1_IxxExEE6_M_ptrEv(%"struct.__gnu_cxx::__aligned_membuf"* nonnull align 8 dereferenceable(24) %0) #5 comdat align 2 {
  %2 = alloca %"struct.__gnu_cxx::__aligned_membuf"*, align 8, !llfi_index !1029
  store %"struct.__gnu_cxx::__aligned_membuf"* %0, %"struct.__gnu_cxx::__aligned_membuf"** %2, align 8, !llfi_index !1030
  %3 = load %"struct.__gnu_cxx::__aligned_membuf"*, %"struct.__gnu_cxx::__aligned_membuf"** %2, align 8, !llfi_index !1031
  %4 = call i8* @_ZNK9__gnu_cxx16__aligned_membufISt4pairIS1_IxxExEE7_M_addrEv(%"struct.__gnu_cxx::__aligned_membuf"* nonnull align 8 dereferenceable(24) %3) #2, !llfi_index !1032
  %5 = bitcast i8* %4 to %"struct.std::pair"*, !llfi_index !1033
  ret %"struct.std::pair"* %5, !llfi_index !1034
}

; Function Attrs: mustprogress noinline nounwind uwtable
define linkonce_odr dso_local i8* @_ZNK9__gnu_cxx16__aligned_membufISt4pairIS1_IxxExEE7_M_addrEv(%"struct.__gnu_cxx::__aligned_membuf"* nonnull align 8 dereferenceable(24) %0) #5 comdat align 2 {
  %2 = alloca %"struct.__gnu_cxx::__aligned_membuf"*, align 8, !llfi_index !1035
  store %"struct.__gnu_cxx::__aligned_membuf"* %0, %"struct.__gnu_cxx::__aligned_membuf"** %2, align 8, !llfi_index !1036
  %3 = load %"struct.__gnu_cxx::__aligned_membuf"*, %"struct.__gnu_cxx::__aligned_membuf"** %2, align 8, !llfi_index !1037
  %4 = getelementptr inbounds %"struct.__gnu_cxx::__aligned_membuf", %"struct.__gnu_cxx::__aligned_membuf"* %3, i32 0, i32 0, !llfi_index !1038
  %5 = bitcast [24 x i8]* %4 to i8*, !llfi_index !1039
  ret i8* %5, !llfi_index !1040
}

; Function Attrs: mustprogress noinline nounwind uwtable
define linkonce_odr dso_local %"struct.std::_Rb_tree_node"* @_ZNSt8_Rb_treeISt4pairIS0_IxxExES2_St9_IdentityIS2_ESt4lessIS2_ESaIS2_EE8_M_beginEv(%"class.std::_Rb_tree"* nonnull align 8 dereferenceable(48) %0) #5 comdat align 2 {
  %2 = alloca %"class.std::_Rb_tree"*, align 8, !llfi_index !1041
  store %"class.std::_Rb_tree"* %0, %"class.std::_Rb_tree"** %2, align 8, !llfi_index !1042
  %3 = load %"class.std::_Rb_tree"*, %"class.std::_Rb_tree"** %2, align 8, !llfi_index !1043
  %4 = getelementptr inbounds %"class.std::_Rb_tree", %"class.std::_Rb_tree"* %3, i32 0, i32 0, !llfi_index !1044
  %5 = bitcast %"struct.std::_Rb_tree<std::pair<std::pair<long long, long long>, long long>, std::pair<std::pair<long long, long long>, long long>, std::_Identity<std::pair<std::pair<long long, long long>, long long>>, std::less<std::pair<std::pair<long long, long long>, long long>>>::_Rb_tree_impl"* %4 to i8*, !llfi_index !1045
  %6 = getelementptr inbounds i8, i8* %5, i64 8, !llfi_index !1046
  %7 = bitcast i8* %6 to %"struct.std::_Rb_tree_header"*, !llfi_index !1047
  %8 = getelementptr inbounds %"struct.std::_Rb_tree_header", %"struct.std::_Rb_tree_header"* %7, i32 0, i32 0, !llfi_index !1048
  %9 = getelementptr inbounds %"struct.std::_Rb_tree_node_base", %"struct.std::_Rb_tree_node_base"* %8, i32 0, i32 1, !llfi_index !1049
  %10 = load %"struct.std::_Rb_tree_node_base"*, %"struct.std::_Rb_tree_node_base"** %9, align 8, !llfi_index !1050
  %11 = bitcast %"struct.std::_Rb_tree_node_base"* %10 to %"struct.std::_Rb_tree_node"*, !llfi_index !1051
  ret %"struct.std::_Rb_tree_node"* %11, !llfi_index !1052
}

; Function Attrs: mustprogress noinline nounwind uwtable
define linkonce_odr dso_local %"struct.std::_Rb_tree_node"* @_ZNSt8_Rb_treeISt4pairIS0_IxxExES2_St9_IdentityIS2_ESt4lessIS2_ESaIS2_EE7_S_leftEPSt18_Rb_tree_node_base(%"struct.std::_Rb_tree_node_base"* %0) #5 comdat align 2 {
  %2 = alloca %"struct.std::_Rb_tree_node_base"*, align 8, !llfi_index !1053
  store %"struct.std::_Rb_tree_node_base"* %0, %"struct.std::_Rb_tree_node_base"** %2, align 8, !llfi_index !1054
  %3 = load %"struct.std::_Rb_tree_node_base"*, %"struct.std::_Rb_tree_node_base"** %2, align 8, !llfi_index !1055
  %4 = getelementptr inbounds %"struct.std::_Rb_tree_node_base", %"struct.std::_Rb_tree_node_base"* %3, i32 0, i32 2, !llfi_index !1056
  %5 = load %"struct.std::_Rb_tree_node_base"*, %"struct.std::_Rb_tree_node_base"** %4, align 8, !llfi_index !1057
  %6 = bitcast %"struct.std::_Rb_tree_node_base"* %5 to %"struct.std::_Rb_tree_node"*, !llfi_index !1058
  ret %"struct.std::_Rb_tree_node"* %6, !llfi_index !1059
}

; Function Attrs: mustprogress noinline nounwind uwtable
define linkonce_odr dso_local %"struct.std::_Rb_tree_node"* @_ZNSt8_Rb_treeISt4pairIS0_IxxExES2_St9_IdentityIS2_ESt4lessIS2_ESaIS2_EE8_S_rightEPSt18_Rb_tree_node_base(%"struct.std::_Rb_tree_node_base"* %0) #5 comdat align 2 {
  %2 = alloca %"struct.std::_Rb_tree_node_base"*, align 8, !llfi_index !1060
  store %"struct.std::_Rb_tree_node_base"* %0, %"struct.std::_Rb_tree_node_base"** %2, align 8, !llfi_index !1061
  %3 = load %"struct.std::_Rb_tree_node_base"*, %"struct.std::_Rb_tree_node_base"** %2, align 8, !llfi_index !1062
  %4 = getelementptr inbounds %"struct.std::_Rb_tree_node_base", %"struct.std::_Rb_tree_node_base"* %3, i32 0, i32 3, !llfi_index !1063
  %5 = load %"struct.std::_Rb_tree_node_base"*, %"struct.std::_Rb_tree_node_base"** %4, align 8, !llfi_index !1064
  %6 = bitcast %"struct.std::_Rb_tree_node_base"* %5 to %"struct.std::_Rb_tree_node"*, !llfi_index !1065
  ret %"struct.std::_Rb_tree_node"* %6, !llfi_index !1066
}

; Function Attrs: mustprogress noinline nounwind uwtable
define linkonce_odr dso_local %"struct.std::_Rb_tree_node_base"* @_ZNSt8_Rb_treeISt4pairIS0_IxxExES2_St9_IdentityIS2_ESt4lessIS2_ESaIS2_EE5beginEv(%"class.std::_Rb_tree"* nonnull align 8 dereferenceable(48) %0) #5 comdat align 2 {
  %2 = alloca %"struct.std::_Rb_tree_const_iterator", align 8, !llfi_index !1067
  %3 = alloca %"class.std::_Rb_tree"*, align 8, !llfi_index !1068
  store %"class.std::_Rb_tree"* %0, %"class.std::_Rb_tree"** %3, align 8, !llfi_index !1069
  %4 = load %"class.std::_Rb_tree"*, %"class.std::_Rb_tree"** %3, align 8, !llfi_index !1070
  %5 = getelementptr inbounds %"class.std::_Rb_tree", %"class.std::_Rb_tree"* %4, i32 0, i32 0, !llfi_index !1071
  %6 = bitcast %"struct.std::_Rb_tree<std::pair<std::pair<long long, long long>, long long>, std::pair<std::pair<long long, long long>, long long>, std::_Identity<std::pair<std::pair<long long, long long>, long long>>, std::less<std::pair<std::pair<long long, long long>, long long>>>::_Rb_tree_impl"* %5 to i8*, !llfi_index !1072
  %7 = getelementptr inbounds i8, i8* %6, i64 8, !llfi_index !1073
  %8 = bitcast i8* %7 to %"struct.std::_Rb_tree_header"*, !llfi_index !1074
  %9 = getelementptr inbounds %"struct.std::_Rb_tree_header", %"struct.std::_Rb_tree_header"* %8, i32 0, i32 0, !llfi_index !1075
  %10 = getelementptr inbounds %"struct.std::_Rb_tree_node_base", %"struct.std::_Rb_tree_node_base"* %9, i32 0, i32 2, !llfi_index !1076
  %11 = load %"struct.std::_Rb_tree_node_base"*, %"struct.std::_Rb_tree_node_base"** %10, align 8, !llfi_index !1077
  call void @_ZNSt17_Rb_tree_iteratorISt4pairIS0_IxxExEEC2EPSt18_Rb_tree_node_base(%"struct.std::_Rb_tree_const_iterator"* nonnull align 8 dereferenceable(8) %2, %"struct.std::_Rb_tree_node_base"* %11) #2, !llfi_index !1078
  %12 = getelementptr inbounds %"struct.std::_Rb_tree_const_iterator", %"struct.std::_Rb_tree_const_iterator"* %2, i32 0, i32 0, !llfi_index !1079
  %13 = load %"struct.std::_Rb_tree_node_base"*, %"struct.std::_Rb_tree_node_base"** %12, align 8, !llfi_index !1080
  ret %"struct.std::_Rb_tree_node_base"* %13, !llfi_index !1081
}

; Function Attrs: mustprogress noinline nounwind uwtable
define linkonce_odr dso_local zeroext i1 @_ZSteqRKSt17_Rb_tree_iteratorISt4pairIS0_IxxExEES5_(%"struct.std::_Rb_tree_const_iterator"* nonnull align 8 dereferenceable(8) %0, %"struct.std::_Rb_tree_const_iterator"* nonnull align 8 dereferenceable(8) %1) #5 comdat {
  %3 = alloca %"struct.std::_Rb_tree_const_iterator"*, align 8, !llfi_index !1082
  %4 = alloca %"struct.std::_Rb_tree_const_iterator"*, align 8, !llfi_index !1083
  store %"struct.std::_Rb_tree_const_iterator"* %0, %"struct.std::_Rb_tree_const_iterator"** %3, align 8, !llfi_index !1084
  store %"struct.std::_Rb_tree_const_iterator"* %1, %"struct.std::_Rb_tree_const_iterator"** %4, align 8, !llfi_index !1085
  %5 = load %"struct.std::_Rb_tree_const_iterator"*, %"struct.std::_Rb_tree_const_iterator"** %3, align 8, !llfi_index !1086
  %6 = getelementptr inbounds %"struct.std::_Rb_tree_const_iterator", %"struct.std::_Rb_tree_const_iterator"* %5, i32 0, i32 0, !llfi_index !1087
  %7 = load %"struct.std::_Rb_tree_node_base"*, %"struct.std::_Rb_tree_node_base"** %6, align 8, !llfi_index !1088
  %8 = load %"struct.std::_Rb_tree_const_iterator"*, %"struct.std::_Rb_tree_const_iterator"** %4, align 8, !llfi_index !1089
  %9 = getelementptr inbounds %"struct.std::_Rb_tree_const_iterator", %"struct.std::_Rb_tree_const_iterator"* %8, i32 0, i32 0, !llfi_index !1090
  %10 = load %"struct.std::_Rb_tree_node_base"*, %"struct.std::_Rb_tree_node_base"** %9, align 8, !llfi_index !1091
  %11 = icmp eq %"struct.std::_Rb_tree_node_base"* %7, %10, !llfi_index !1092
  ret i1 %11, !llfi_index !1093
}

; Function Attrs: noinline nounwind uwtable
define linkonce_odr dso_local void @_ZNSt4pairIPSt18_Rb_tree_node_baseS1_EC2IRPSt13_Rb_tree_nodeIS_IS_IxxExEERS1_Lb1EEEOT_OT0_(%"struct.std::pair.10"* nonnull align 8 dereferenceable(16) %0, %"struct.std::_Rb_tree_node"** nonnull align 8 dereferenceable(8) %1, %"struct.std::_Rb_tree_node_base"** nonnull align 8 dereferenceable(8) %2) unnamed_addr #7 comdat align 2 {
  %4 = alloca %"struct.std::pair.10"*, align 8, !llfi_index !1094
  %5 = alloca %"struct.std::_Rb_tree_node"**, align 8, !llfi_index !1095
  %6 = alloca %"struct.std::_Rb_tree_node_base"**, align 8, !llfi_index !1096
  store %"struct.std::pair.10"* %0, %"struct.std::pair.10"** %4, align 8, !llfi_index !1097
  store %"struct.std::_Rb_tree_node"** %1, %"struct.std::_Rb_tree_node"*** %5, align 8, !llfi_index !1098
  store %"struct.std::_Rb_tree_node_base"** %2, %"struct.std::_Rb_tree_node_base"*** %6, align 8, !llfi_index !1099
  %7 = load %"struct.std::pair.10"*, %"struct.std::pair.10"** %4, align 8, !llfi_index !1100
  %8 = bitcast %"struct.std::pair.10"* %7 to %"class.std::ios_base::Init"*, !llfi_index !1101
  %9 = getelementptr inbounds %"struct.std::pair.10", %"struct.std::pair.10"* %7, i32 0, i32 0, !llfi_index !1102
  %10 = load %"struct.std::_Rb_tree_node"**, %"struct.std::_Rb_tree_node"*** %5, align 8, !llfi_index !1103
  %11 = call nonnull align 8 dereferenceable(8) %"struct.std::_Rb_tree_node"** @_ZSt7forwardIRPSt13_Rb_tree_nodeISt4pairIS1_IxxExEEEOT_RNSt16remove_referenceIS7_E4typeE(%"struct.std::_Rb_tree_node"** nonnull align 8 dereferenceable(8) %10) #2, !llfi_index !1104
  %12 = load %"struct.std::_Rb_tree_node"*, %"struct.std::_Rb_tree_node"** %11, align 8, !llfi_index !1105
  %13 = bitcast %"struct.std::_Rb_tree_node"* %12 to %"struct.std::_Rb_tree_node_base"*, !llfi_index !1106
  store %"struct.std::_Rb_tree_node_base"* %13, %"struct.std::_Rb_tree_node_base"** %9, align 8, !llfi_index !1107
  %14 = getelementptr inbounds %"struct.std::pair.10", %"struct.std::pair.10"* %7, i32 0, i32 1, !llfi_index !1108
  %15 = load %"struct.std::_Rb_tree_node_base"**, %"struct.std::_Rb_tree_node_base"*** %6, align 8, !llfi_index !1109
  %16 = call nonnull align 8 dereferenceable(8) %"struct.std::_Rb_tree_node_base"** @_ZSt7forwardIRPSt18_Rb_tree_node_baseEOT_RNSt16remove_referenceIS3_E4typeE(%"struct.std::_Rb_tree_node_base"** nonnull align 8 dereferenceable(8) %15) #2, !llfi_index !1110
  %17 = load %"struct.std::_Rb_tree_node_base"*, %"struct.std::_Rb_tree_node_base"** %16, align 8, !llfi_index !1111
  store %"struct.std::_Rb_tree_node_base"* %17, %"struct.std::_Rb_tree_node_base"** %14, align 8, !llfi_index !1112
  ret void, !llfi_index !1113
}

; Function Attrs: mustprogress noinline nounwind uwtable
define linkonce_odr dso_local nonnull align 8 dereferenceable(8) %"struct.std::_Rb_tree_const_iterator"* @_ZNSt17_Rb_tree_iteratorISt4pairIS0_IxxExEEmmEv(%"struct.std::_Rb_tree_const_iterator"* nonnull align 8 dereferenceable(8) %0) #5 comdat align 2 {
  %2 = alloca %"struct.std::_Rb_tree_const_iterator"*, align 8, !llfi_index !1114
  store %"struct.std::_Rb_tree_const_iterator"* %0, %"struct.std::_Rb_tree_const_iterator"** %2, align 8, !llfi_index !1115
  %3 = load %"struct.std::_Rb_tree_const_iterator"*, %"struct.std::_Rb_tree_const_iterator"** %2, align 8, !llfi_index !1116
  %4 = getelementptr inbounds %"struct.std::_Rb_tree_const_iterator", %"struct.std::_Rb_tree_const_iterator"* %3, i32 0, i32 0, !llfi_index !1117
  %5 = load %"struct.std::_Rb_tree_node_base"*, %"struct.std::_Rb_tree_node_base"** %4, align 8, !llfi_index !1118
  %6 = call %"struct.std::_Rb_tree_node_base"* @_ZSt18_Rb_tree_decrementPSt18_Rb_tree_node_base(%"struct.std::_Rb_tree_node_base"* %5) #17, !llfi_index !1119
  %7 = getelementptr inbounds %"struct.std::_Rb_tree_const_iterator", %"struct.std::_Rb_tree_const_iterator"* %3, i32 0, i32 0, !llfi_index !1120
  store %"struct.std::_Rb_tree_node_base"* %6, %"struct.std::_Rb_tree_node_base"** %7, align 8, !llfi_index !1121
  ret %"struct.std::_Rb_tree_const_iterator"* %3, !llfi_index !1122
}

; Function Attrs: noinline nounwind uwtable
define linkonce_odr dso_local void @_ZNSt4pairIPSt18_Rb_tree_node_baseS1_EC2IRS1_Lb1EEEOT_RKS1_(%"struct.std::pair.10"* nonnull align 8 dereferenceable(16) %0, %"struct.std::_Rb_tree_node_base"** nonnull align 8 dereferenceable(8) %1, %"struct.std::_Rb_tree_node_base"** nonnull align 8 dereferenceable(8) %2) unnamed_addr #7 comdat align 2 {
  %4 = alloca %"struct.std::pair.10"*, align 8, !llfi_index !1123
  %5 = alloca %"struct.std::_Rb_tree_node_base"**, align 8, !llfi_index !1124
  %6 = alloca %"struct.std::_Rb_tree_node_base"**, align 8, !llfi_index !1125
  store %"struct.std::pair.10"* %0, %"struct.std::pair.10"** %4, align 8, !llfi_index !1126
  store %"struct.std::_Rb_tree_node_base"** %1, %"struct.std::_Rb_tree_node_base"*** %5, align 8, !llfi_index !1127
  store %"struct.std::_Rb_tree_node_base"** %2, %"struct.std::_Rb_tree_node_base"*** %6, align 8, !llfi_index !1128
  %7 = load %"struct.std::pair.10"*, %"struct.std::pair.10"** %4, align 8, !llfi_index !1129
  %8 = bitcast %"struct.std::pair.10"* %7 to %"class.std::ios_base::Init"*, !llfi_index !1130
  %9 = getelementptr inbounds %"struct.std::pair.10", %"struct.std::pair.10"* %7, i32 0, i32 0, !llfi_index !1131
  %10 = load %"struct.std::_Rb_tree_node_base"**, %"struct.std::_Rb_tree_node_base"*** %5, align 8, !llfi_index !1132
  %11 = call nonnull align 8 dereferenceable(8) %"struct.std::_Rb_tree_node_base"** @_ZSt7forwardIRPSt18_Rb_tree_node_baseEOT_RNSt16remove_referenceIS3_E4typeE(%"struct.std::_Rb_tree_node_base"** nonnull align 8 dereferenceable(8) %10) #2, !llfi_index !1133
  %12 = load %"struct.std::_Rb_tree_node_base"*, %"struct.std::_Rb_tree_node_base"** %11, align 8, !llfi_index !1134
  store %"struct.std::_Rb_tree_node_base"* %12, %"struct.std::_Rb_tree_node_base"** %9, align 8, !llfi_index !1135
  %13 = getelementptr inbounds %"struct.std::pair.10", %"struct.std::pair.10"* %7, i32 0, i32 1, !llfi_index !1136
  %14 = load %"struct.std::_Rb_tree_node_base"**, %"struct.std::_Rb_tree_node_base"*** %6, align 8, !llfi_index !1137
  %15 = load %"struct.std::_Rb_tree_node_base"*, %"struct.std::_Rb_tree_node_base"** %14, align 8, !llfi_index !1138
  store %"struct.std::_Rb_tree_node_base"* %15, %"struct.std::_Rb_tree_node_base"** %13, align 8, !llfi_index !1139
  ret void, !llfi_index !1140
}

; Function Attrs: mustprogress noinline nounwind uwtable
define linkonce_odr dso_local nonnull align 8 dereferenceable(8) %"struct.std::_Rb_tree_node_base"** @_ZSt7forwardIRPSt18_Rb_tree_node_baseEOT_RNSt16remove_referenceIS3_E4typeE(%"struct.std::_Rb_tree_node_base"** nonnull align 8 dereferenceable(8) %0) #5 comdat {
  %2 = alloca %"struct.std::_Rb_tree_node_base"**, align 8, !llfi_index !1141
  store %"struct.std::_Rb_tree_node_base"** %0, %"struct.std::_Rb_tree_node_base"*** %2, align 8, !llfi_index !1142
  %3 = load %"struct.std::_Rb_tree_node_base"**, %"struct.std::_Rb_tree_node_base"*** %2, align 8, !llfi_index !1143
  ret %"struct.std::_Rb_tree_node_base"** %3, !llfi_index !1144
}

; Function Attrs: nounwind readonly willreturn
declare dso_local %"struct.std::_Rb_tree_node_base"* @_ZSt18_Rb_tree_decrementPSt18_Rb_tree_node_base(%"struct.std::_Rb_tree_node_base"*) #11

; Function Attrs: mustprogress noinline nounwind uwtable
define linkonce_odr dso_local nonnull align 8 dereferenceable(8) %"struct.std::_Rb_tree_node"** @_ZSt7forwardIRPSt13_Rb_tree_nodeISt4pairIS1_IxxExEEEOT_RNSt16remove_referenceIS7_E4typeE(%"struct.std::_Rb_tree_node"** nonnull align 8 dereferenceable(8) %0) #5 comdat {
  %2 = alloca %"struct.std::_Rb_tree_node"**, align 8, !llfi_index !1145
  store %"struct.std::_Rb_tree_node"** %0, %"struct.std::_Rb_tree_node"*** %2, align 8, !llfi_index !1146
  %3 = load %"struct.std::_Rb_tree_node"**, %"struct.std::_Rb_tree_node"*** %2, align 8, !llfi_index !1147
  ret %"struct.std::_Rb_tree_node"** %3, !llfi_index !1148
}

; Function Attrs: mustprogress noinline nounwind uwtable
define linkonce_odr dso_local nonnull align 8 dereferenceable(16) %"struct.std::pair.0"* @_ZSt7forwardISt4pairIxxEEOT_RNSt16remove_referenceIS2_E4typeE(%"struct.std::pair.0"* nonnull align 8 dereferenceable(16) %0) #5 comdat {
  %2 = alloca %"struct.std::pair.0"*, align 8, !llfi_index !1149
  store %"struct.std::pair.0"* %0, %"struct.std::pair.0"** %2, align 8, !llfi_index !1150
  %3 = load %"struct.std::pair.0"*, %"struct.std::pair.0"** %2, align 8, !llfi_index !1151
  ret %"struct.std::pair.0"* %3, !llfi_index !1152
}

; Function Attrs: mustprogress noinline nounwind uwtable
define linkonce_odr dso_local nonnull align 8 dereferenceable(8) i64* @_ZSt7forwardIRxEOT_RNSt16remove_referenceIS1_E4typeE(i64* nonnull align 8 dereferenceable(8) %0) #5 comdat {
  %2 = alloca i64*, align 8, !llfi_index !1153
  store i64* %0, i64** %2, align 8, !llfi_index !1154
  %3 = load i64*, i64** %2, align 8, !llfi_index !1155
  ret i64* %3, !llfi_index !1156
}

; Function Attrs: noinline nounwind uwtable
define linkonce_odr dso_local void @_ZNSt4pairIS_IxxExEC2IS0_RxLb1EEEOT_OT0_(%"struct.std::pair"* nonnull align 8 dereferenceable(24) %0, %"struct.std::pair.0"* nonnull align 8 dereferenceable(16) %1, i64* nonnull align 8 dereferenceable(8) %2) unnamed_addr #7 comdat align 2 {
  %4 = alloca %"struct.std::pair"*, align 8, !llfi_index !1157
  %5 = alloca %"struct.std::pair.0"*, align 8, !llfi_index !1158
  %6 = alloca i64*, align 8, !llfi_index !1159
  store %"struct.std::pair"* %0, %"struct.std::pair"** %4, align 8, !llfi_index !1160
  store %"struct.std::pair.0"* %1, %"struct.std::pair.0"** %5, align 8, !llfi_index !1161
  store i64* %2, i64** %6, align 8, !llfi_index !1162
  %7 = load %"struct.std::pair"*, %"struct.std::pair"** %4, align 8, !llfi_index !1163
  %8 = bitcast %"struct.std::pair"* %7 to %"class.std::ios_base::Init"*, !llfi_index !1164
  %9 = getelementptr inbounds %"struct.std::pair", %"struct.std::pair"* %7, i32 0, i32 0, !llfi_index !1165
  %10 = load %"struct.std::pair.0"*, %"struct.std::pair.0"** %5, align 8, !llfi_index !1166
  %11 = call nonnull align 8 dereferenceable(16) %"struct.std::pair.0"* @_ZSt7forwardISt4pairIxxEEOT_RNSt16remove_referenceIS2_E4typeE(%"struct.std::pair.0"* nonnull align 8 dereferenceable(16) %10) #2, !llfi_index !1167
  %12 = bitcast %"struct.std::pair.0"* %9 to i8*, !llfi_index !1168
  %13 = bitcast %"struct.std::pair.0"* %11 to i8*, !llfi_index !1169
  call void @llvm.memcpy.p0i8.p0i8.i64(i8* align 8 %12, i8* align 8 %13, i64 16, i1 false), !llfi_index !1170
  %14 = getelementptr inbounds %"struct.std::pair", %"struct.std::pair"* %7, i32 0, i32 1, !llfi_index !1171
  %15 = load i64*, i64** %6, align 8, !llfi_index !1172
  %16 = call nonnull align 8 dereferenceable(8) i64* @_ZSt7forwardIRxEOT_RNSt16remove_referenceIS1_E4typeE(i64* nonnull align 8 dereferenceable(8) %15) #2, !llfi_index !1173
  %17 = load i64, i64* %16, align 8, !llfi_index !1174
  store i64 %17, i64* %14, align 8, !llfi_index !1175
  ret void, !llfi_index !1176
}

; Function Attrs: mustprogress noinline nounwind uwtable
define linkonce_odr dso_local nonnull align 8 dereferenceable(8) i64* @_ZSt7forwardIxEOT_RNSt16remove_referenceIS0_E4typeE(i64* nonnull align 8 dereferenceable(8) %0) #5 comdat {
  %2 = alloca i64*, align 8, !llfi_index !1177
  store i64* %0, i64** %2, align 8, !llfi_index !1178
  %3 = load i64*, i64** %2, align 8, !llfi_index !1179
  ret i64* %3, !llfi_index !1180
}

; Function Attrs: noinline nounwind uwtable
define linkonce_odr dso_local void @_ZNSt4pairIxxEC2IxRxLb1EEEOT_OT0_(%"struct.std::pair.0"* nonnull align 8 dereferenceable(16) %0, i64* nonnull align 8 dereferenceable(8) %1, i64* nonnull align 8 dereferenceable(8) %2) unnamed_addr #7 comdat align 2 {
  %4 = alloca %"struct.std::pair.0"*, align 8, !llfi_index !1181
  %5 = alloca i64*, align 8, !llfi_index !1182
  %6 = alloca i64*, align 8, !llfi_index !1183
  store %"struct.std::pair.0"* %0, %"struct.std::pair.0"** %4, align 8, !llfi_index !1184
  store i64* %1, i64** %5, align 8, !llfi_index !1185
  store i64* %2, i64** %6, align 8, !llfi_index !1186
  %7 = load %"struct.std::pair.0"*, %"struct.std::pair.0"** %4, align 8, !llfi_index !1187
  %8 = bitcast %"struct.std::pair.0"* %7 to %"class.std::ios_base::Init"*, !llfi_index !1188
  %9 = getelementptr inbounds %"struct.std::pair.0", %"struct.std::pair.0"* %7, i32 0, i32 0, !llfi_index !1189
  %10 = load i64*, i64** %5, align 8, !llfi_index !1190
  %11 = call nonnull align 8 dereferenceable(8) i64* @_ZSt7forwardIxEOT_RNSt16remove_referenceIS0_E4typeE(i64* nonnull align 8 dereferenceable(8) %10) #2, !llfi_index !1191
  %12 = load i64, i64* %11, align 8, !llfi_index !1192
  store i64 %12, i64* %9, align 8, !llfi_index !1193
  %13 = getelementptr inbounds %"struct.std::pair.0", %"struct.std::pair.0"* %7, i32 0, i32 1, !llfi_index !1194
  %14 = load i64*, i64** %6, align 8, !llfi_index !1195
  %15 = call nonnull align 8 dereferenceable(8) i64* @_ZSt7forwardIRxEOT_RNSt16remove_referenceIS1_E4typeE(i64* nonnull align 8 dereferenceable(8) %14) #2, !llfi_index !1196
  %16 = load i64, i64* %15, align 8, !llfi_index !1197
  store i64 %16, i64* %13, align 8, !llfi_index !1198
  ret void, !llfi_index !1199
}

; Function Attrs: noinline nounwind uwtable
define linkonce_odr dso_local void @_ZNSt8_Rb_treeISt4pairIS0_IxxExES2_St9_IdentityIS2_ESt4lessIS2_ESaIS2_EED2Ev(%"class.std::_Rb_tree"* nonnull align 8 dereferenceable(48) %0) unnamed_addr #7 comdat align 2 personality i8* bitcast (i32 (...)* @__gxx_personality_v0 to i8*) {
  %2 = alloca %"class.std::_Rb_tree"*, align 8, !llfi_index !1200
  %3 = alloca i8*, align 8, !llfi_index !1201
  %4 = alloca i32, align 4, !llfi_index !1202
  store %"class.std::_Rb_tree"* %0, %"class.std::_Rb_tree"** %2, align 8, !llfi_index !1203
  %5 = load %"class.std::_Rb_tree"*, %"class.std::_Rb_tree"** %2, align 8, !llfi_index !1204
  %6 = call %"struct.std::_Rb_tree_node"* @_ZNSt8_Rb_treeISt4pairIS0_IxxExES2_St9_IdentityIS2_ESt4lessIS2_ESaIS2_EE8_M_beginEv(%"class.std::_Rb_tree"* nonnull align 8 dereferenceable(48) %5) #2, !llfi_index !1205
  invoke void @_ZNSt8_Rb_treeISt4pairIS0_IxxExES2_St9_IdentityIS2_ESt4lessIS2_ESaIS2_EE8_M_eraseEPSt13_Rb_tree_nodeIS2_E(%"class.std::_Rb_tree"* nonnull align 8 dereferenceable(48) %5, %"struct.std::_Rb_tree_node"* %6)
          to label %7 unwind label %9, !llfi_index !1206

7:                                                ; preds = %1
  %8 = getelementptr inbounds %"class.std::_Rb_tree", %"class.std::_Rb_tree"* %5, i32 0, i32 0, !llfi_index !1207
  call void @_ZNSt8_Rb_treeISt4pairIS0_IxxExES2_St9_IdentityIS2_ESt4lessIS2_ESaIS2_EE13_Rb_tree_implIS6_Lb1EED2Ev(%"struct.std::_Rb_tree<std::pair<std::pair<long long, long long>, long long>, std::pair<std::pair<long long, long long>, long long>, std::_Identity<std::pair<std::pair<long long, long long>, long long>>, std::less<std::pair<std::pair<long long, long long>, long long>>>::_Rb_tree_impl"* nonnull align 8 dereferenceable(48) %8) #2, !llfi_index !1208
  ret void, !llfi_index !1209

9:                                                ; preds = %1
  %10 = landingpad { i8*, i32 }
          catch i8* null, !llfi_index !1210
  %11 = extractvalue { i8*, i32 } %10, 0, !llfi_index !1211
  store i8* %11, i8** %3, align 8, !llfi_index !1212
  %12 = extractvalue { i8*, i32 } %10, 1, !llfi_index !1213
  store i32 %12, i32* %4, align 4, !llfi_index !1214
  %13 = getelementptr inbounds %"class.std::_Rb_tree", %"class.std::_Rb_tree"* %5, i32 0, i32 0, !llfi_index !1215
  call void @_ZNSt8_Rb_treeISt4pairIS0_IxxExES2_St9_IdentityIS2_ESt4lessIS2_ESaIS2_EE13_Rb_tree_implIS6_Lb1EED2Ev(%"struct.std::_Rb_tree<std::pair<std::pair<long long, long long>, long long>, std::pair<std::pair<long long, long long>, long long>, std::_Identity<std::pair<std::pair<long long, long long>, long long>>, std::less<std::pair<std::pair<long long, long long>, long long>>>::_Rb_tree_impl"* nonnull align 8 dereferenceable(48) %13) #2, !llfi_index !1216
  br label %14, !llfi_index !1217

14:                                               ; preds = %9
  %15 = load i8*, i8** %3, align 8, !llfi_index !1218
  call void @__clang_call_terminate(i8* %15) #14, !llfi_index !1219
  unreachable, !llfi_index !1220
}

; Function Attrs: mustprogress noinline uwtable
define linkonce_odr dso_local void @_ZNSt8_Rb_treeISt4pairIS0_IxxExES2_St9_IdentityIS2_ESt4lessIS2_ESaIS2_EE8_M_eraseEPSt13_Rb_tree_nodeIS2_E(%"class.std::_Rb_tree"* nonnull align 8 dereferenceable(48) %0, %"struct.std::_Rb_tree_node"* %1) #4 comdat align 2 {
  %3 = alloca %"class.std::_Rb_tree"*, align 8, !llfi_index !1221
  %4 = alloca %"struct.std::_Rb_tree_node"*, align 8, !llfi_index !1222
  %5 = alloca %"struct.std::_Rb_tree_node"*, align 8, !llfi_index !1223
  store %"class.std::_Rb_tree"* %0, %"class.std::_Rb_tree"** %3, align 8, !llfi_index !1224
  store %"struct.std::_Rb_tree_node"* %1, %"struct.std::_Rb_tree_node"** %4, align 8, !llfi_index !1225
  %6 = load %"class.std::_Rb_tree"*, %"class.std::_Rb_tree"** %3, align 8, !llfi_index !1226
  br label %7, !llfi_index !1227

7:                                                ; preds = %10, %2
  %8 = load %"struct.std::_Rb_tree_node"*, %"struct.std::_Rb_tree_node"** %4, align 8, !llfi_index !1228
  %9 = icmp ne %"struct.std::_Rb_tree_node"* %8, null, !llfi_index !1229
  br i1 %9, label %10, label %19, !llfi_index !1230

10:                                               ; preds = %7
  %11 = load %"struct.std::_Rb_tree_node"*, %"struct.std::_Rb_tree_node"** %4, align 8, !llfi_index !1231
  %12 = bitcast %"struct.std::_Rb_tree_node"* %11 to %"struct.std::_Rb_tree_node_base"*, !llfi_index !1232
  %13 = call %"struct.std::_Rb_tree_node"* @_ZNSt8_Rb_treeISt4pairIS0_IxxExES2_St9_IdentityIS2_ESt4lessIS2_ESaIS2_EE8_S_rightEPSt18_Rb_tree_node_base(%"struct.std::_Rb_tree_node_base"* %12) #2, !llfi_index !1233
  call void @_ZNSt8_Rb_treeISt4pairIS0_IxxExES2_St9_IdentityIS2_ESt4lessIS2_ESaIS2_EE8_M_eraseEPSt13_Rb_tree_nodeIS2_E(%"class.std::_Rb_tree"* nonnull align 8 dereferenceable(48) %6, %"struct.std::_Rb_tree_node"* %13), !llfi_index !1234
  %14 = load %"struct.std::_Rb_tree_node"*, %"struct.std::_Rb_tree_node"** %4, align 8, !llfi_index !1235
  %15 = bitcast %"struct.std::_Rb_tree_node"* %14 to %"struct.std::_Rb_tree_node_base"*, !llfi_index !1236
  %16 = call %"struct.std::_Rb_tree_node"* @_ZNSt8_Rb_treeISt4pairIS0_IxxExES2_St9_IdentityIS2_ESt4lessIS2_ESaIS2_EE7_S_leftEPSt18_Rb_tree_node_base(%"struct.std::_Rb_tree_node_base"* %15) #2, !llfi_index !1237
  store %"struct.std::_Rb_tree_node"* %16, %"struct.std::_Rb_tree_node"** %5, align 8, !llfi_index !1238
  %17 = load %"struct.std::_Rb_tree_node"*, %"struct.std::_Rb_tree_node"** %4, align 8, !llfi_index !1239
  call void @_ZNSt8_Rb_treeISt4pairIS0_IxxExES2_St9_IdentityIS2_ESt4lessIS2_ESaIS2_EE12_M_drop_nodeEPSt13_Rb_tree_nodeIS2_E(%"class.std::_Rb_tree"* nonnull align 8 dereferenceable(48) %6, %"struct.std::_Rb_tree_node"* %17) #2, !llfi_index !1240
  %18 = load %"struct.std::_Rb_tree_node"*, %"struct.std::_Rb_tree_node"** %5, align 8, !llfi_index !1241
  store %"struct.std::_Rb_tree_node"* %18, %"struct.std::_Rb_tree_node"** %4, align 8, !llfi_index !1242
  br label %7, !llvm.loop !1243, !llfi_index !1244

19:                                               ; preds = %7
  ret void, !llfi_index !1245
}

; Function Attrs: noinline nounwind uwtable
define linkonce_odr dso_local void @_ZNSt8_Rb_treeISt4pairIS0_IxxExES2_St9_IdentityIS2_ESt4lessIS2_ESaIS2_EE13_Rb_tree_implIS6_Lb1EED2Ev(%"struct.std::_Rb_tree<std::pair<std::pair<long long, long long>, long long>, std::pair<std::pair<long long, long long>, long long>, std::_Identity<std::pair<std::pair<long long, long long>, long long>>, std::less<std::pair<std::pair<long long, long long>, long long>>>::_Rb_tree_impl"* nonnull align 8 dereferenceable(48) %0) unnamed_addr #7 comdat align 2 {
  %2 = alloca %"struct.std::_Rb_tree<std::pair<std::pair<long long, long long>, long long>, std::pair<std::pair<long long, long long>, long long>, std::_Identity<std::pair<std::pair<long long, long long>, long long>>, std::less<std::pair<std::pair<long long, long long>, long long>>>::_Rb_tree_impl"*, align 8, !llfi_index !1246
  store %"struct.std::_Rb_tree<std::pair<std::pair<long long, long long>, long long>, std::pair<std::pair<long long, long long>, long long>, std::_Identity<std::pair<std::pair<long long, long long>, long long>>, std::less<std::pair<std::pair<long long, long long>, long long>>>::_Rb_tree_impl"* %0, %"struct.std::_Rb_tree<std::pair<std::pair<long long, long long>, long long>, std::pair<std::pair<long long, long long>, long long>, std::_Identity<std::pair<std::pair<long long, long long>, long long>>, std::less<std::pair<std::pair<long long, long long>, long long>>>::_Rb_tree_impl"** %2, align 8, !llfi_index !1247
  %3 = load %"struct.std::_Rb_tree<std::pair<std::pair<long long, long long>, long long>, std::pair<std::pair<long long, long long>, long long>, std::_Identity<std::pair<std::pair<long long, long long>, long long>>, std::less<std::pair<std::pair<long long, long long>, long long>>>::_Rb_tree_impl"*, %"struct.std::_Rb_tree<std::pair<std::pair<long long, long long>, long long>, std::pair<std::pair<long long, long long>, long long>, std::_Identity<std::pair<std::pair<long long, long long>, long long>>, std::less<std::pair<std::pair<long long, long long>, long long>>>::_Rb_tree_impl"** %2, align 8, !llfi_index !1248
  %4 = bitcast %"struct.std::_Rb_tree<std::pair<std::pair<long long, long long>, long long>, std::pair<std::pair<long long, long long>, long long>, std::_Identity<std::pair<std::pair<long long, long long>, long long>>, std::less<std::pair<std::pair<long long, long long>, long long>>>::_Rb_tree_impl"* %3 to %"class.std::ios_base::Init"*, !llfi_index !1249
  call void @_ZNSaISt13_Rb_tree_nodeISt4pairIS0_IxxExEEED2Ev(%"class.std::ios_base::Init"* nonnull align 1 dereferenceable(1) %4) #2, !llfi_index !1250
  ret void, !llfi_index !1251
}

; Function Attrs: noinline noreturn nounwind
define linkonce_odr hidden void @__clang_call_terminate(i8* %0) #12 comdat {
  %2 = call i8* @__cxa_begin_catch(i8* %0) #2, !llfi_index !1252
  call void @_ZSt9terminatev() #14, !llfi_index !1253
  unreachable, !llfi_index !1254
}

declare dso_local i8* @__cxa_begin_catch(i8*)

declare dso_local void @_ZSt9terminatev()

; Function Attrs: noinline nounwind uwtable
define linkonce_odr dso_local void @_ZNSaISt13_Rb_tree_nodeISt4pairIS0_IxxExEEED2Ev(%"class.std::ios_base::Init"* nonnull align 1 dereferenceable(1) %0) unnamed_addr #7 comdat align 2 {
  %2 = alloca %"class.std::ios_base::Init"*, align 8, !llfi_index !1255
  store %"class.std::ios_base::Init"* %0, %"class.std::ios_base::Init"** %2, align 8, !llfi_index !1256
  %3 = load %"class.std::ios_base::Init"*, %"class.std::ios_base::Init"** %2, align 8, !llfi_index !1257
  %4 = bitcast %"class.std::ios_base::Init"* %3 to %"class.std::ios_base::Init"*, !llfi_index !1258
  call void @_ZN9__gnu_cxx13new_allocatorISt13_Rb_tree_nodeISt4pairIS2_IxxExEEED2Ev(%"class.std::ios_base::Init"* nonnull align 1 dereferenceable(1) %4) #2, !llfi_index !1259
  ret void, !llfi_index !1260
}

; Function Attrs: noinline nounwind uwtable
define linkonce_odr dso_local void @_ZN9__gnu_cxx13new_allocatorISt13_Rb_tree_nodeISt4pairIS2_IxxExEEED2Ev(%"class.std::ios_base::Init"* nonnull align 1 dereferenceable(1) %0) unnamed_addr #7 comdat align 2 {
  %2 = alloca %"class.std::ios_base::Init"*, align 8, !llfi_index !1261
  store %"class.std::ios_base::Init"* %0, %"class.std::ios_base::Init"** %2, align 8, !llfi_index !1262
  %3 = load %"class.std::ios_base::Init"*, %"class.std::ios_base::Init"** %2, align 8, !llfi_index !1263
  ret void, !llfi_index !1264
}

; Function Attrs: mustprogress noinline nounwind uwtable
define linkonce_odr dso_local void @_ZNSt8_Rb_treeISt4pairIS0_IxxExES2_St9_IdentityIS2_ESt4lessIS2_ESaIS2_EE12_M_drop_nodeEPSt13_Rb_tree_nodeIS2_E(%"class.std::_Rb_tree"* nonnull align 8 dereferenceable(48) %0, %"struct.std::_Rb_tree_node"* %1) #5 comdat align 2 {
  %3 = alloca %"class.std::_Rb_tree"*, align 8, !llfi_index !1265
  %4 = alloca %"struct.std::_Rb_tree_node"*, align 8, !llfi_index !1266
  store %"class.std::_Rb_tree"* %0, %"class.std::_Rb_tree"** %3, align 8, !llfi_index !1267
  store %"struct.std::_Rb_tree_node"* %1, %"struct.std::_Rb_tree_node"** %4, align 8, !llfi_index !1268
  %5 = load %"class.std::_Rb_tree"*, %"class.std::_Rb_tree"** %3, align 8, !llfi_index !1269
  %6 = load %"struct.std::_Rb_tree_node"*, %"struct.std::_Rb_tree_node"** %4, align 8, !llfi_index !1270
  call void @_ZNSt8_Rb_treeISt4pairIS0_IxxExES2_St9_IdentityIS2_ESt4lessIS2_ESaIS2_EE15_M_destroy_nodeEPSt13_Rb_tree_nodeIS2_E(%"class.std::_Rb_tree"* nonnull align 8 dereferenceable(48) %5, %"struct.std::_Rb_tree_node"* %6) #2, !llfi_index !1271
  %7 = load %"struct.std::_Rb_tree_node"*, %"struct.std::_Rb_tree_node"** %4, align 8, !llfi_index !1272
  call void @_ZNSt8_Rb_treeISt4pairIS0_IxxExES2_St9_IdentityIS2_ESt4lessIS2_ESaIS2_EE11_M_put_nodeEPSt13_Rb_tree_nodeIS2_E(%"class.std::_Rb_tree"* nonnull align 8 dereferenceable(48) %5, %"struct.std::_Rb_tree_node"* %7) #2, !llfi_index !1273
  ret void, !llfi_index !1274
}

; Function Attrs: mustprogress noinline nounwind uwtable
define linkonce_odr dso_local void @_ZNSt8_Rb_treeISt4pairIS0_IxxExES2_St9_IdentityIS2_ESt4lessIS2_ESaIS2_EE15_M_destroy_nodeEPSt13_Rb_tree_nodeIS2_E(%"class.std::_Rb_tree"* nonnull align 8 dereferenceable(48) %0, %"struct.std::_Rb_tree_node"* %1) #5 comdat align 2 personality i8* bitcast (i32 (...)* @__gxx_personality_v0 to i8*) {
  %3 = alloca %"class.std::_Rb_tree"*, align 8, !llfi_index !1275
  %4 = alloca %"struct.std::_Rb_tree_node"*, align 8, !llfi_index !1276
  store %"class.std::_Rb_tree"* %0, %"class.std::_Rb_tree"** %3, align 8, !llfi_index !1277
  store %"struct.std::_Rb_tree_node"* %1, %"struct.std::_Rb_tree_node"** %4, align 8, !llfi_index !1278
  %5 = load %"class.std::_Rb_tree"*, %"class.std::_Rb_tree"** %3, align 8, !llfi_index !1279
  %6 = call nonnull align 1 dereferenceable(1) %"class.std::ios_base::Init"* @_ZNSt8_Rb_treeISt4pairIS0_IxxExES2_St9_IdentityIS2_ESt4lessIS2_ESaIS2_EE21_M_get_Node_allocatorEv(%"class.std::_Rb_tree"* nonnull align 8 dereferenceable(48) %5) #2, !llfi_index !1280
  %7 = load %"struct.std::_Rb_tree_node"*, %"struct.std::_Rb_tree_node"** %4, align 8, !llfi_index !1281
  %8 = invoke %"struct.std::pair"* @_ZNSt13_Rb_tree_nodeISt4pairIS0_IxxExEE9_M_valptrEv(%"struct.std::_Rb_tree_node"* nonnull align 8 dereferenceable(56) %7)
          to label %9 unwind label %11, !llfi_index !1282

9:                                                ; preds = %2
  call void @_ZNSt16allocator_traitsISaISt13_Rb_tree_nodeISt4pairIS1_IxxExEEEE7destroyIS3_EEvRS5_PT_(%"class.std::ios_base::Init"* nonnull align 1 dereferenceable(1) %6, %"struct.std::pair"* %8) #2, !llfi_index !1283
  %10 = load %"struct.std::_Rb_tree_node"*, %"struct.std::_Rb_tree_node"** %4, align 8, !llfi_index !1284
  ret void, !llfi_index !1285

11:                                               ; preds = %2
  %12 = landingpad { i8*, i32 }
          catch i8* null, !llfi_index !1286
  %13 = extractvalue { i8*, i32 } %12, 0, !llfi_index !1287
  call void @__clang_call_terminate(i8* %13) #14, !llfi_index !1288
  unreachable, !llfi_index !1289
}

; Function Attrs: mustprogress noinline nounwind uwtable
define linkonce_odr dso_local void @_ZNSt8_Rb_treeISt4pairIS0_IxxExES2_St9_IdentityIS2_ESt4lessIS2_ESaIS2_EE11_M_put_nodeEPSt13_Rb_tree_nodeIS2_E(%"class.std::_Rb_tree"* nonnull align 8 dereferenceable(48) %0, %"struct.std::_Rb_tree_node"* %1) #5 comdat align 2 personality i8* bitcast (i32 (...)* @__gxx_personality_v0 to i8*) {
  %3 = alloca %"class.std::_Rb_tree"*, align 8, !llfi_index !1290
  %4 = alloca %"struct.std::_Rb_tree_node"*, align 8, !llfi_index !1291
  store %"class.std::_Rb_tree"* %0, %"class.std::_Rb_tree"** %3, align 8, !llfi_index !1292
  store %"struct.std::_Rb_tree_node"* %1, %"struct.std::_Rb_tree_node"** %4, align 8, !llfi_index !1293
  %5 = load %"class.std::_Rb_tree"*, %"class.std::_Rb_tree"** %3, align 8, !llfi_index !1294
  %6 = call nonnull align 1 dereferenceable(1) %"class.std::ios_base::Init"* @_ZNSt8_Rb_treeISt4pairIS0_IxxExES2_St9_IdentityIS2_ESt4lessIS2_ESaIS2_EE21_M_get_Node_allocatorEv(%"class.std::_Rb_tree"* nonnull align 8 dereferenceable(48) %5) #2, !llfi_index !1295
  %7 = load %"struct.std::_Rb_tree_node"*, %"struct.std::_Rb_tree_node"** %4, align 8, !llfi_index !1296
  invoke void @_ZNSt16allocator_traitsISaISt13_Rb_tree_nodeISt4pairIS1_IxxExEEEE10deallocateERS5_PS4_m(%"class.std::ios_base::Init"* nonnull align 1 dereferenceable(1) %6, %"struct.std::_Rb_tree_node"* %7, i64 1)
          to label %8 unwind label %9, !llfi_index !1297

8:                                                ; preds = %2
  ret void, !llfi_index !1298

9:                                                ; preds = %2
  %10 = landingpad { i8*, i32 }
          catch i8* null, !llfi_index !1299
  %11 = extractvalue { i8*, i32 } %10, 0, !llfi_index !1300
  call void @__clang_call_terminate(i8* %11) #14, !llfi_index !1301
  unreachable, !llfi_index !1302
}

; Function Attrs: mustprogress noinline uwtable
define linkonce_odr dso_local void @_ZNSt16allocator_traitsISaISt13_Rb_tree_nodeISt4pairIS1_IxxExEEEE10deallocateERS5_PS4_m(%"class.std::ios_base::Init"* nonnull align 1 dereferenceable(1) %0, %"struct.std::_Rb_tree_node"* %1, i64 %2) #4 comdat align 2 {
  %4 = alloca %"class.std::ios_base::Init"*, align 8, !llfi_index !1303
  %5 = alloca %"struct.std::_Rb_tree_node"*, align 8, !llfi_index !1304
  %6 = alloca i64, align 8, !llfi_index !1305
  store %"class.std::ios_base::Init"* %0, %"class.std::ios_base::Init"** %4, align 8, !llfi_index !1306
  store %"struct.std::_Rb_tree_node"* %1, %"struct.std::_Rb_tree_node"** %5, align 8, !llfi_index !1307
  store i64 %2, i64* %6, align 8, !llfi_index !1308
  %7 = load %"class.std::ios_base::Init"*, %"class.std::ios_base::Init"** %4, align 8, !llfi_index !1309
  %8 = bitcast %"class.std::ios_base::Init"* %7 to %"class.std::ios_base::Init"*, !llfi_index !1310
  %9 = load %"struct.std::_Rb_tree_node"*, %"struct.std::_Rb_tree_node"** %5, align 8, !llfi_index !1311
  %10 = load i64, i64* %6, align 8, !llfi_index !1312
  call void @_ZN9__gnu_cxx13new_allocatorISt13_Rb_tree_nodeISt4pairIS2_IxxExEEE10deallocateEPS5_m(%"class.std::ios_base::Init"* nonnull align 1 dereferenceable(1) %8, %"struct.std::_Rb_tree_node"* %9, i64 %10), !llfi_index !1313
  ret void, !llfi_index !1314
}

; Function Attrs: mustprogress noinline nounwind uwtable
define linkonce_odr dso_local void @_ZN9__gnu_cxx13new_allocatorISt13_Rb_tree_nodeISt4pairIS2_IxxExEEE10deallocateEPS5_m(%"class.std::ios_base::Init"* nonnull align 1 dereferenceable(1) %0, %"struct.std::_Rb_tree_node"* %1, i64 %2) #5 comdat align 2 {
  %4 = alloca %"class.std::ios_base::Init"*, align 8, !llfi_index !1315
  %5 = alloca %"struct.std::_Rb_tree_node"*, align 8, !llfi_index !1316
  %6 = alloca i64, align 8, !llfi_index !1317
  store %"class.std::ios_base::Init"* %0, %"class.std::ios_base::Init"** %4, align 8, !llfi_index !1318
  store %"struct.std::_Rb_tree_node"* %1, %"struct.std::_Rb_tree_node"** %5, align 8, !llfi_index !1319
  store i64 %2, i64* %6, align 8, !llfi_index !1320
  %7 = load %"class.std::ios_base::Init"*, %"class.std::ios_base::Init"** %4, align 8, !llfi_index !1321
  %8 = load %"struct.std::_Rb_tree_node"*, %"struct.std::_Rb_tree_node"** %5, align 8, !llfi_index !1322
  %9 = bitcast %"struct.std::_Rb_tree_node"* %8 to i8*, !llfi_index !1323
  call void @_ZdlPv(i8* %9) #2, !llfi_index !1324
  ret void, !llfi_index !1325
}

; Function Attrs: nobuiltin nounwind
declare dso_local void @_ZdlPv(i8*) #13

; Function Attrs: mustprogress noinline nounwind uwtable
define linkonce_odr dso_local void @_ZNSt16allocator_traitsISaISt13_Rb_tree_nodeISt4pairIS1_IxxExEEEE7destroyIS3_EEvRS5_PT_(%"class.std::ios_base::Init"* nonnull align 1 dereferenceable(1) %0, %"struct.std::pair"* %1) #5 comdat align 2 {
  %3 = alloca %"class.std::ios_base::Init"*, align 8, !llfi_index !1326
  %4 = alloca %"struct.std::pair"*, align 8, !llfi_index !1327
  store %"class.std::ios_base::Init"* %0, %"class.std::ios_base::Init"** %3, align 8, !llfi_index !1328
  store %"struct.std::pair"* %1, %"struct.std::pair"** %4, align 8, !llfi_index !1329
  %5 = load %"class.std::ios_base::Init"*, %"class.std::ios_base::Init"** %3, align 8, !llfi_index !1330
  %6 = bitcast %"class.std::ios_base::Init"* %5 to %"class.std::ios_base::Init"*, !llfi_index !1331
  %7 = load %"struct.std::pair"*, %"struct.std::pair"** %4, align 8, !llfi_index !1332
  call void @_ZN9__gnu_cxx13new_allocatorISt13_Rb_tree_nodeISt4pairIS2_IxxExEEE7destroyIS4_EEvPT_(%"class.std::ios_base::Init"* nonnull align 1 dereferenceable(1) %6, %"struct.std::pair"* %7) #2, !llfi_index !1333
  ret void, !llfi_index !1334
}

; Function Attrs: mustprogress noinline nounwind uwtable
define linkonce_odr dso_local void @_ZN9__gnu_cxx13new_allocatorISt13_Rb_tree_nodeISt4pairIS2_IxxExEEE7destroyIS4_EEvPT_(%"class.std::ios_base::Init"* nonnull align 1 dereferenceable(1) %0, %"struct.std::pair"* %1) #5 comdat align 2 {
  %3 = alloca %"class.std::ios_base::Init"*, align 8, !llfi_index !1335
  %4 = alloca %"struct.std::pair"*, align 8, !llfi_index !1336
  store %"class.std::ios_base::Init"* %0, %"class.std::ios_base::Init"** %3, align 8, !llfi_index !1337
  store %"struct.std::pair"* %1, %"struct.std::pair"** %4, align 8, !llfi_index !1338
  %5 = load %"class.std::ios_base::Init"*, %"class.std::ios_base::Init"** %3, align 8, !llfi_index !1339
  %6 = load %"struct.std::pair"*, %"struct.std::pair"** %4, align 8, !llfi_index !1340
  ret void, !llfi_index !1341
}

; Function Attrs: mustprogress noinline uwtable
define linkonce_odr dso_local %"struct.std::_Rb_tree_node_base"* @_ZNSt8_Rb_treeISt4pairIS0_IxxExES2_St9_IdentityIS2_ESt4lessIS2_ESaIS2_EE5eraseB5cxx11ESt23_Rb_tree_const_iteratorIS2_E(%"class.std::_Rb_tree"* nonnull align 8 dereferenceable(48) %0, %"struct.std::_Rb_tree_node_base"* %1) #4 comdat align 2 {
  %3 = alloca %"struct.std::_Rb_tree_const_iterator", align 8, !llfi_index !1342
  %4 = alloca %"struct.std::_Rb_tree_const_iterator", align 8, !llfi_index !1343
  %5 = alloca %"class.std::_Rb_tree"*, align 8, !llfi_index !1344
  %6 = alloca %"struct.std::_Rb_tree_const_iterator", align 8, !llfi_index !1345
  %7 = alloca %"struct.std::_Rb_tree_const_iterator", align 8, !llfi_index !1346
  %8 = getelementptr inbounds %"struct.std::_Rb_tree_const_iterator", %"struct.std::_Rb_tree_const_iterator"* %4, i32 0, i32 0, !llfi_index !1347
  store %"struct.std::_Rb_tree_node_base"* %1, %"struct.std::_Rb_tree_node_base"** %8, align 8, !llfi_index !1348
  store %"class.std::_Rb_tree"* %0, %"class.std::_Rb_tree"** %5, align 8, !llfi_index !1349
  %9 = load %"class.std::_Rb_tree"*, %"class.std::_Rb_tree"** %5, align 8, !llfi_index !1350
  %10 = bitcast %"struct.std::_Rb_tree_const_iterator"* %6 to i8*, !llfi_index !1351
  %11 = bitcast %"struct.std::_Rb_tree_const_iterator"* %4 to i8*, !llfi_index !1352
  call void @llvm.memcpy.p0i8.p0i8.i64(i8* align 8 %10, i8* align 8 %11, i64 8, i1 false), !llfi_index !1353
  %12 = call nonnull align 8 dereferenceable(8) %"struct.std::_Rb_tree_const_iterator"* @_ZNSt23_Rb_tree_const_iteratorISt4pairIS0_IxxExEEppEv(%"struct.std::_Rb_tree_const_iterator"* nonnull align 8 dereferenceable(8) %6) #2, !llfi_index !1354
  %13 = bitcast %"struct.std::_Rb_tree_const_iterator"* %7 to i8*, !llfi_index !1355
  %14 = bitcast %"struct.std::_Rb_tree_const_iterator"* %4 to i8*, !llfi_index !1356
  call void @llvm.memcpy.p0i8.p0i8.i64(i8* align 8 %13, i8* align 8 %14, i64 8, i1 false), !llfi_index !1357
  %15 = getelementptr inbounds %"struct.std::_Rb_tree_const_iterator", %"struct.std::_Rb_tree_const_iterator"* %7, i32 0, i32 0, !llfi_index !1358
  %16 = load %"struct.std::_Rb_tree_node_base"*, %"struct.std::_Rb_tree_node_base"** %15, align 8, !llfi_index !1359
  call void @_ZNSt8_Rb_treeISt4pairIS0_IxxExES2_St9_IdentityIS2_ESt4lessIS2_ESaIS2_EE12_M_erase_auxESt23_Rb_tree_const_iteratorIS2_E(%"class.std::_Rb_tree"* nonnull align 8 dereferenceable(48) %9, %"struct.std::_Rb_tree_node_base"* %16), !llfi_index !1360
  %17 = call %"struct.std::_Rb_tree_node_base"* @_ZNKSt23_Rb_tree_const_iteratorISt4pairIS0_IxxExEE13_M_const_castEv(%"struct.std::_Rb_tree_const_iterator"* nonnull align 8 dereferenceable(8) %6) #2, !llfi_index !1361
  %18 = getelementptr inbounds %"struct.std::_Rb_tree_const_iterator", %"struct.std::_Rb_tree_const_iterator"* %3, i32 0, i32 0, !llfi_index !1362
  store %"struct.std::_Rb_tree_node_base"* %17, %"struct.std::_Rb_tree_node_base"** %18, align 8, !llfi_index !1363
  %19 = getelementptr inbounds %"struct.std::_Rb_tree_const_iterator", %"struct.std::_Rb_tree_const_iterator"* %3, i32 0, i32 0, !llfi_index !1364
  %20 = load %"struct.std::_Rb_tree_node_base"*, %"struct.std::_Rb_tree_node_base"** %19, align 8, !llfi_index !1365
  ret %"struct.std::_Rb_tree_node_base"* %20, !llfi_index !1366
}

; Function Attrs: mustprogress noinline nounwind uwtable
define linkonce_odr dso_local nonnull align 8 dereferenceable(8) %"struct.std::_Rb_tree_const_iterator"* @_ZNSt23_Rb_tree_const_iteratorISt4pairIS0_IxxExEEppEv(%"struct.std::_Rb_tree_const_iterator"* nonnull align 8 dereferenceable(8) %0) #5 comdat align 2 {
  %2 = alloca %"struct.std::_Rb_tree_const_iterator"*, align 8, !llfi_index !1367
  store %"struct.std::_Rb_tree_const_iterator"* %0, %"struct.std::_Rb_tree_const_iterator"** %2, align 8, !llfi_index !1368
  %3 = load %"struct.std::_Rb_tree_const_iterator"*, %"struct.std::_Rb_tree_const_iterator"** %2, align 8, !llfi_index !1369
  %4 = getelementptr inbounds %"struct.std::_Rb_tree_const_iterator", %"struct.std::_Rb_tree_const_iterator"* %3, i32 0, i32 0, !llfi_index !1370
  %5 = load %"struct.std::_Rb_tree_node_base"*, %"struct.std::_Rb_tree_node_base"** %4, align 8, !llfi_index !1371
  %6 = call %"struct.std::_Rb_tree_node_base"* @_ZSt18_Rb_tree_incrementPKSt18_Rb_tree_node_base(%"struct.std::_Rb_tree_node_base"* %5) #17, !llfi_index !1372
  %7 = getelementptr inbounds %"struct.std::_Rb_tree_const_iterator", %"struct.std::_Rb_tree_const_iterator"* %3, i32 0, i32 0, !llfi_index !1373
  store %"struct.std::_Rb_tree_node_base"* %6, %"struct.std::_Rb_tree_node_base"** %7, align 8, !llfi_index !1374
  ret %"struct.std::_Rb_tree_const_iterator"* %3, !llfi_index !1375
}

; Function Attrs: mustprogress noinline nounwind uwtable
define linkonce_odr dso_local void @_ZNSt8_Rb_treeISt4pairIS0_IxxExES2_St9_IdentityIS2_ESt4lessIS2_ESaIS2_EE12_M_erase_auxESt23_Rb_tree_const_iteratorIS2_E(%"class.std::_Rb_tree"* nonnull align 8 dereferenceable(48) %0, %"struct.std::_Rb_tree_node_base"* %1) #5 comdat align 2 {
  %3 = alloca %"struct.std::_Rb_tree_const_iterator", align 8, !llfi_index !1376
  %4 = alloca %"class.std::_Rb_tree"*, align 8, !llfi_index !1377
  %5 = alloca %"struct.std::_Rb_tree_node"*, align 8, !llfi_index !1378
  %6 = getelementptr inbounds %"struct.std::_Rb_tree_const_iterator", %"struct.std::_Rb_tree_const_iterator"* %3, i32 0, i32 0, !llfi_index !1379
  store %"struct.std::_Rb_tree_node_base"* %1, %"struct.std::_Rb_tree_node_base"** %6, align 8, !llfi_index !1380
  store %"class.std::_Rb_tree"* %0, %"class.std::_Rb_tree"** %4, align 8, !llfi_index !1381
  %7 = load %"class.std::_Rb_tree"*, %"class.std::_Rb_tree"** %4, align 8, !llfi_index !1382
  %8 = getelementptr inbounds %"struct.std::_Rb_tree_const_iterator", %"struct.std::_Rb_tree_const_iterator"* %3, i32 0, i32 0, !llfi_index !1383
  %9 = load %"struct.std::_Rb_tree_node_base"*, %"struct.std::_Rb_tree_node_base"** %8, align 8, !llfi_index !1384
  %10 = getelementptr inbounds %"class.std::_Rb_tree", %"class.std::_Rb_tree"* %7, i32 0, i32 0, !llfi_index !1385
  %11 = bitcast %"struct.std::_Rb_tree<std::pair<std::pair<long long, long long>, long long>, std::pair<std::pair<long long, long long>, long long>, std::_Identity<std::pair<std::pair<long long, long long>, long long>>, std::less<std::pair<std::pair<long long, long long>, long long>>>::_Rb_tree_impl"* %10 to i8*, !llfi_index !1386
  %12 = getelementptr inbounds i8, i8* %11, i64 8, !llfi_index !1387
  %13 = bitcast i8* %12 to %"struct.std::_Rb_tree_header"*, !llfi_index !1388
  %14 = getelementptr inbounds %"struct.std::_Rb_tree_header", %"struct.std::_Rb_tree_header"* %13, i32 0, i32 0, !llfi_index !1389
  %15 = call %"struct.std::_Rb_tree_node_base"* @_ZSt28_Rb_tree_rebalance_for_erasePSt18_Rb_tree_node_baseRS_(%"struct.std::_Rb_tree_node_base"* %9, %"struct.std::_Rb_tree_node_base"* nonnull align 8 dereferenceable(32) %14) #2, !llfi_index !1390
  %16 = bitcast %"struct.std::_Rb_tree_node_base"* %15 to %"struct.std::_Rb_tree_node"*, !llfi_index !1391
  store %"struct.std::_Rb_tree_node"* %16, %"struct.std::_Rb_tree_node"** %5, align 8, !llfi_index !1392
  %17 = load %"struct.std::_Rb_tree_node"*, %"struct.std::_Rb_tree_node"** %5, align 8, !llfi_index !1393
  call void @_ZNSt8_Rb_treeISt4pairIS0_IxxExES2_St9_IdentityIS2_ESt4lessIS2_ESaIS2_EE12_M_drop_nodeEPSt13_Rb_tree_nodeIS2_E(%"class.std::_Rb_tree"* nonnull align 8 dereferenceable(48) %7, %"struct.std::_Rb_tree_node"* %17) #2, !llfi_index !1394
  %18 = getelementptr inbounds %"class.std::_Rb_tree", %"class.std::_Rb_tree"* %7, i32 0, i32 0, !llfi_index !1395
  %19 = bitcast %"struct.std::_Rb_tree<std::pair<std::pair<long long, long long>, long long>, std::pair<std::pair<long long, long long>, long long>, std::_Identity<std::pair<std::pair<long long, long long>, long long>>, std::less<std::pair<std::pair<long long, long long>, long long>>>::_Rb_tree_impl"* %18 to i8*, !llfi_index !1396
  %20 = getelementptr inbounds i8, i8* %19, i64 8, !llfi_index !1397
  %21 = bitcast i8* %20 to %"struct.std::_Rb_tree_header"*, !llfi_index !1398
  %22 = getelementptr inbounds %"struct.std::_Rb_tree_header", %"struct.std::_Rb_tree_header"* %21, i32 0, i32 1, !llfi_index !1399
  %23 = load i64, i64* %22, align 8, !llfi_index !1400
  %24 = add i64 %23, -1, !llfi_index !1401
  store i64 %24, i64* %22, align 8, !llfi_index !1402
  ret void, !llfi_index !1403
}

; Function Attrs: mustprogress noinline nounwind uwtable
define linkonce_odr dso_local %"struct.std::_Rb_tree_node_base"* @_ZNKSt23_Rb_tree_const_iteratorISt4pairIS0_IxxExEE13_M_const_castEv(%"struct.std::_Rb_tree_const_iterator"* nonnull align 8 dereferenceable(8) %0) #5 comdat align 2 {
  %2 = alloca %"struct.std::_Rb_tree_const_iterator", align 8, !llfi_index !1404
  %3 = alloca %"struct.std::_Rb_tree_const_iterator"*, align 8, !llfi_index !1405
  store %"struct.std::_Rb_tree_const_iterator"* %0, %"struct.std::_Rb_tree_const_iterator"** %3, align 8, !llfi_index !1406
  %4 = load %"struct.std::_Rb_tree_const_iterator"*, %"struct.std::_Rb_tree_const_iterator"** %3, align 8, !llfi_index !1407
  %5 = getelementptr inbounds %"struct.std::_Rb_tree_const_iterator", %"struct.std::_Rb_tree_const_iterator"* %4, i32 0, i32 0, !llfi_index !1408
  %6 = load %"struct.std::_Rb_tree_node_base"*, %"struct.std::_Rb_tree_node_base"** %5, align 8, !llfi_index !1409
  call void @_ZNSt17_Rb_tree_iteratorISt4pairIS0_IxxExEEC2EPSt18_Rb_tree_node_base(%"struct.std::_Rb_tree_const_iterator"* nonnull align 8 dereferenceable(8) %2, %"struct.std::_Rb_tree_node_base"* %6) #2, !llfi_index !1410
  %7 = getelementptr inbounds %"struct.std::_Rb_tree_const_iterator", %"struct.std::_Rb_tree_const_iterator"* %2, i32 0, i32 0, !llfi_index !1411
  %8 = load %"struct.std::_Rb_tree_node_base"*, %"struct.std::_Rb_tree_node_base"** %7, align 8, !llfi_index !1412
  ret %"struct.std::_Rb_tree_node_base"* %8, !llfi_index !1413
}

; Function Attrs: nounwind
declare dso_local %"struct.std::_Rb_tree_node_base"* @_ZSt28_Rb_tree_rebalance_for_erasePSt18_Rb_tree_node_baseRS_(%"struct.std::_Rb_tree_node_base"*, %"struct.std::_Rb_tree_node_base"* nonnull align 8 dereferenceable(32)) #3

; Function Attrs: nounwind readonly willreturn
declare dso_local %"struct.std::_Rb_tree_node_base"* @_ZSt18_Rb_tree_incrementPKSt18_Rb_tree_node_base(%"struct.std::_Rb_tree_node_base"*) #11

; Function Attrs: mustprogress noinline nounwind uwtable
define linkonce_odr dso_local %"struct.std::_Rb_tree_node_base"* @_ZNKSt8_Rb_treeISt4pairIS0_IxxExES2_St9_IdentityIS2_ESt4lessIS2_ESaIS2_EE5beginEv(%"class.std::_Rb_tree"* nonnull align 8 dereferenceable(48) %0) #5 comdat align 2 {
  %2 = alloca %"struct.std::_Rb_tree_const_iterator", align 8, !llfi_index !1414
  %3 = alloca %"class.std::_Rb_tree"*, align 8, !llfi_index !1415
  store %"class.std::_Rb_tree"* %0, %"class.std::_Rb_tree"** %3, align 8, !llfi_index !1416
  %4 = load %"class.std::_Rb_tree"*, %"class.std::_Rb_tree"** %3, align 8, !llfi_index !1417
  %5 = getelementptr inbounds %"class.std::_Rb_tree", %"class.std::_Rb_tree"* %4, i32 0, i32 0, !llfi_index !1418
  %6 = bitcast %"struct.std::_Rb_tree<std::pair<std::pair<long long, long long>, long long>, std::pair<std::pair<long long, long long>, long long>, std::_Identity<std::pair<std::pair<long long, long long>, long long>>, std::less<std::pair<std::pair<long long, long long>, long long>>>::_Rb_tree_impl"* %5 to i8*, !llfi_index !1419
  %7 = getelementptr inbounds i8, i8* %6, i64 8, !llfi_index !1420
  %8 = bitcast i8* %7 to %"struct.std::_Rb_tree_header"*, !llfi_index !1421
  %9 = getelementptr inbounds %"struct.std::_Rb_tree_header", %"struct.std::_Rb_tree_header"* %8, i32 0, i32 0, !llfi_index !1422
  %10 = getelementptr inbounds %"struct.std::_Rb_tree_node_base", %"struct.std::_Rb_tree_node_base"* %9, i32 0, i32 2, !llfi_index !1423
  %11 = load %"struct.std::_Rb_tree_node_base"*, %"struct.std::_Rb_tree_node_base"** %10, align 8, !llfi_index !1424
  call void @_ZNSt23_Rb_tree_const_iteratorISt4pairIS0_IxxExEEC2EPKSt18_Rb_tree_node_base(%"struct.std::_Rb_tree_const_iterator"* nonnull align 8 dereferenceable(8) %2, %"struct.std::_Rb_tree_node_base"* %11) #2, !llfi_index !1425
  %12 = getelementptr inbounds %"struct.std::_Rb_tree_const_iterator", %"struct.std::_Rb_tree_const_iterator"* %2, i32 0, i32 0, !llfi_index !1426
  %13 = load %"struct.std::_Rb_tree_node_base"*, %"struct.std::_Rb_tree_node_base"** %12, align 8, !llfi_index !1427
  ret %"struct.std::_Rb_tree_node_base"* %13, !llfi_index !1428
}

; Function Attrs: noinline nounwind uwtable
define linkonce_odr dso_local void @_ZNSt23_Rb_tree_const_iteratorISt4pairIS0_IxxExEEC2EPKSt18_Rb_tree_node_base(%"struct.std::_Rb_tree_const_iterator"* nonnull align 8 dereferenceable(8) %0, %"struct.std::_Rb_tree_node_base"* %1) unnamed_addr #7 comdat align 2 {
  %3 = alloca %"struct.std::_Rb_tree_const_iterator"*, align 8, !llfi_index !1429
  %4 = alloca %"struct.std::_Rb_tree_node_base"*, align 8, !llfi_index !1430
  store %"struct.std::_Rb_tree_const_iterator"* %0, %"struct.std::_Rb_tree_const_iterator"** %3, align 8, !llfi_index !1431
  store %"struct.std::_Rb_tree_node_base"* %1, %"struct.std::_Rb_tree_node_base"** %4, align 8, !llfi_index !1432
  %5 = load %"struct.std::_Rb_tree_const_iterator"*, %"struct.std::_Rb_tree_const_iterator"** %3, align 8, !llfi_index !1433
  %6 = getelementptr inbounds %"struct.std::_Rb_tree_const_iterator", %"struct.std::_Rb_tree_const_iterator"* %5, i32 0, i32 0, !llfi_index !1434
  %7 = load %"struct.std::_Rb_tree_node_base"*, %"struct.std::_Rb_tree_node_base"** %4, align 8, !llfi_index !1435
  store %"struct.std::_Rb_tree_node_base"* %7, %"struct.std::_Rb_tree_node_base"** %6, align 8, !llfi_index !1436
  ret void, !llfi_index !1437
}

; Function Attrs: mustprogress noinline nounwind uwtable
define linkonce_odr dso_local zeroext i1 @_ZNKSt8_Rb_treeISt4pairIS0_IxxExES2_St9_IdentityIS2_ESt4lessIS2_ESaIS2_EE5emptyEv(%"class.std::_Rb_tree"* nonnull align 8 dereferenceable(48) %0) #5 comdat align 2 {
  %2 = alloca %"class.std::_Rb_tree"*, align 8, !llfi_index !1438
  store %"class.std::_Rb_tree"* %0, %"class.std::_Rb_tree"** %2, align 8, !llfi_index !1439
  %3 = load %"class.std::_Rb_tree"*, %"class.std::_Rb_tree"** %2, align 8, !llfi_index !1440
  %4 = getelementptr inbounds %"class.std::_Rb_tree", %"class.std::_Rb_tree"* %3, i32 0, i32 0, !llfi_index !1441
  %5 = bitcast %"struct.std::_Rb_tree<std::pair<std::pair<long long, long long>, long long>, std::pair<std::pair<long long, long long>, long long>, std::_Identity<std::pair<std::pair<long long, long long>, long long>>, std::less<std::pair<std::pair<long long, long long>, long long>>>::_Rb_tree_impl"* %4 to i8*, !llfi_index !1442
  %6 = getelementptr inbounds i8, i8* %5, i64 8, !llfi_index !1443
  %7 = bitcast i8* %6 to %"struct.std::_Rb_tree_header"*, !llfi_index !1444
  %8 = getelementptr inbounds %"struct.std::_Rb_tree_header", %"struct.std::_Rb_tree_header"* %7, i32 0, i32 1, !llfi_index !1445
  %9 = load i64, i64* %8, align 8, !llfi_index !1446
  %10 = icmp eq i64 %9, 0, !llfi_index !1447
  ret i1 %10, !llfi_index !1448
}

; Function Attrs: noinline nounwind uwtable
define linkonce_odr dso_local void @_ZNSt8_Rb_treeISt4pairIS0_IxxExES2_St9_IdentityIS2_ESt4lessIS2_ESaIS2_EEC2Ev(%"class.std::_Rb_tree"* nonnull align 8 dereferenceable(48) %0) unnamed_addr #7 comdat align 2 {
  %2 = alloca %"class.std::_Rb_tree"*, align 8, !llfi_index !1449
  store %"class.std::_Rb_tree"* %0, %"class.std::_Rb_tree"** %2, align 8, !llfi_index !1450
  %3 = load %"class.std::_Rb_tree"*, %"class.std::_Rb_tree"** %2, align 8, !llfi_index !1451
  %4 = getelementptr inbounds %"class.std::_Rb_tree", %"class.std::_Rb_tree"* %3, i32 0, i32 0, !llfi_index !1452
  call void @_ZNSt8_Rb_treeISt4pairIS0_IxxExES2_St9_IdentityIS2_ESt4lessIS2_ESaIS2_EE13_Rb_tree_implIS6_Lb1EEC2Ev(%"struct.std::_Rb_tree<std::pair<std::pair<long long, long long>, long long>, std::pair<std::pair<long long, long long>, long long>, std::_Identity<std::pair<std::pair<long long, long long>, long long>>, std::less<std::pair<std::pair<long long, long long>, long long>>>::_Rb_tree_impl"* nonnull align 8 dereferenceable(48) %4) #2, !llfi_index !1453
  ret void, !llfi_index !1454
}

; Function Attrs: noinline nounwind uwtable
define linkonce_odr dso_local void @_ZNSt8_Rb_treeISt4pairIS0_IxxExES2_St9_IdentityIS2_ESt4lessIS2_ESaIS2_EE13_Rb_tree_implIS6_Lb1EEC2Ev(%"struct.std::_Rb_tree<std::pair<std::pair<long long, long long>, long long>, std::pair<std::pair<long long, long long>, long long>, std::_Identity<std::pair<std::pair<long long, long long>, long long>>, std::less<std::pair<std::pair<long long, long long>, long long>>>::_Rb_tree_impl"* nonnull align 8 dereferenceable(48) %0) unnamed_addr #7 comdat align 2 {
  %2 = alloca %"struct.std::_Rb_tree<std::pair<std::pair<long long, long long>, long long>, std::pair<std::pair<long long, long long>, long long>, std::_Identity<std::pair<std::pair<long long, long long>, long long>>, std::less<std::pair<std::pair<long long, long long>, long long>>>::_Rb_tree_impl"*, align 8, !llfi_index !1455
  store %"struct.std::_Rb_tree<std::pair<std::pair<long long, long long>, long long>, std::pair<std::pair<long long, long long>, long long>, std::_Identity<std::pair<std::pair<long long, long long>, long long>>, std::less<std::pair<std::pair<long long, long long>, long long>>>::_Rb_tree_impl"* %0, %"struct.std::_Rb_tree<std::pair<std::pair<long long, long long>, long long>, std::pair<std::pair<long long, long long>, long long>, std::_Identity<std::pair<std::pair<long long, long long>, long long>>, std::less<std::pair<std::pair<long long, long long>, long long>>>::_Rb_tree_impl"** %2, align 8, !llfi_index !1456
  %3 = load %"struct.std::_Rb_tree<std::pair<std::pair<long long, long long>, long long>, std::pair<std::pair<long long, long long>, long long>, std::_Identity<std::pair<std::pair<long long, long long>, long long>>, std::less<std::pair<std::pair<long long, long long>, long long>>>::_Rb_tree_impl"*, %"struct.std::_Rb_tree<std::pair<std::pair<long long, long long>, long long>, std::pair<std::pair<long long, long long>, long long>, std::_Identity<std::pair<std::pair<long long, long long>, long long>>, std::less<std::pair<std::pair<long long, long long>, long long>>>::_Rb_tree_impl"** %2, align 8, !llfi_index !1457
  %4 = bitcast %"struct.std::_Rb_tree<std::pair<std::pair<long long, long long>, long long>, std::pair<std::pair<long long, long long>, long long>, std::_Identity<std::pair<std::pair<long long, long long>, long long>>, std::less<std::pair<std::pair<long long, long long>, long long>>>::_Rb_tree_impl"* %3 to %"class.std::ios_base::Init"*, !llfi_index !1458
  call void @_ZNSaISt13_Rb_tree_nodeISt4pairIS0_IxxExEEEC2Ev(%"class.std::ios_base::Init"* nonnull align 1 dereferenceable(1) %4) #2, !llfi_index !1459
  %5 = bitcast %"struct.std::_Rb_tree<std::pair<std::pair<long long, long long>, long long>, std::pair<std::pair<long long, long long>, long long>, std::_Identity<std::pair<std::pair<long long, long long>, long long>>, std::less<std::pair<std::pair<long long, long long>, long long>>>::_Rb_tree_impl"* %3 to %"struct.std::_Rb_tree_key_compare"*, !llfi_index !1460
  call void @_ZNSt20_Rb_tree_key_compareISt4lessISt4pairIS1_IxxExEEEC2Ev(%"struct.std::_Rb_tree_key_compare"* nonnull align 1 dereferenceable(1) %5) #2, !llfi_index !1461
  %6 = bitcast %"struct.std::_Rb_tree<std::pair<std::pair<long long, long long>, long long>, std::pair<std::pair<long long, long long>, long long>, std::_Identity<std::pair<std::pair<long long, long long>, long long>>, std::less<std::pair<std::pair<long long, long long>, long long>>>::_Rb_tree_impl"* %3 to i8*, !llfi_index !1462
  %7 = getelementptr inbounds i8, i8* %6, i64 8, !llfi_index !1463
  %8 = bitcast i8* %7 to %"struct.std::_Rb_tree_header"*, !llfi_index !1464
  call void @_ZNSt15_Rb_tree_headerC2Ev(%"struct.std::_Rb_tree_header"* nonnull align 8 dereferenceable(40) %8) #2, !llfi_index !1465
  ret void, !llfi_index !1466
}

; Function Attrs: noinline nounwind uwtable
define linkonce_odr dso_local void @_ZNSaISt13_Rb_tree_nodeISt4pairIS0_IxxExEEEC2Ev(%"class.std::ios_base::Init"* nonnull align 1 dereferenceable(1) %0) unnamed_addr #7 comdat align 2 {
  %2 = alloca %"class.std::ios_base::Init"*, align 8, !llfi_index !1467
  store %"class.std::ios_base::Init"* %0, %"class.std::ios_base::Init"** %2, align 8, !llfi_index !1468
  %3 = load %"class.std::ios_base::Init"*, %"class.std::ios_base::Init"** %2, align 8, !llfi_index !1469
  %4 = bitcast %"class.std::ios_base::Init"* %3 to %"class.std::ios_base::Init"*, !llfi_index !1470
  call void @_ZN9__gnu_cxx13new_allocatorISt13_Rb_tree_nodeISt4pairIS2_IxxExEEEC2Ev(%"class.std::ios_base::Init"* nonnull align 1 dereferenceable(1) %4) #2, !llfi_index !1471
  ret void, !llfi_index !1472
}

; Function Attrs: noinline nounwind uwtable
define linkonce_odr dso_local void @_ZNSt20_Rb_tree_key_compareISt4lessISt4pairIS1_IxxExEEEC2Ev(%"struct.std::_Rb_tree_key_compare"* nonnull align 1 dereferenceable(1) %0) unnamed_addr #7 comdat align 2 {
  %2 = alloca %"struct.std::_Rb_tree_key_compare"*, align 8, !llfi_index !1473
  store %"struct.std::_Rb_tree_key_compare"* %0, %"struct.std::_Rb_tree_key_compare"** %2, align 8, !llfi_index !1474
  %3 = load %"struct.std::_Rb_tree_key_compare"*, %"struct.std::_Rb_tree_key_compare"** %2, align 8, !llfi_index !1475
  %4 = getelementptr inbounds %"struct.std::_Rb_tree_key_compare", %"struct.std::_Rb_tree_key_compare"* %3, i32 0, i32 0, !llfi_index !1476
  ret void, !llfi_index !1477
}

; Function Attrs: noinline nounwind uwtable
define linkonce_odr dso_local void @_ZNSt15_Rb_tree_headerC2Ev(%"struct.std::_Rb_tree_header"* nonnull align 8 dereferenceable(40) %0) unnamed_addr #7 comdat align 2 personality i8* bitcast (i32 (...)* @__gxx_personality_v0 to i8*) {
  %2 = alloca %"struct.std::_Rb_tree_header"*, align 8, !llfi_index !1478
  store %"struct.std::_Rb_tree_header"* %0, %"struct.std::_Rb_tree_header"** %2, align 8, !llfi_index !1479
  %3 = load %"struct.std::_Rb_tree_header"*, %"struct.std::_Rb_tree_header"** %2, align 8, !llfi_index !1480
  %4 = getelementptr inbounds %"struct.std::_Rb_tree_header", %"struct.std::_Rb_tree_header"* %3, i32 0, i32 0, !llfi_index !1481
  %5 = getelementptr inbounds %"struct.std::_Rb_tree_header", %"struct.std::_Rb_tree_header"* %3, i32 0, i32 0, !llfi_index !1482
  %6 = getelementptr inbounds %"struct.std::_Rb_tree_node_base", %"struct.std::_Rb_tree_node_base"* %5, i32 0, i32 0, !llfi_index !1483
  store i32 0, i32* %6, align 8, !llfi_index !1484
  invoke void @_ZNSt15_Rb_tree_header8_M_resetEv(%"struct.std::_Rb_tree_header"* nonnull align 8 dereferenceable(40) %3)
          to label %7 unwind label %8, !llfi_index !1485

7:                                                ; preds = %1
  ret void, !llfi_index !1486

8:                                                ; preds = %1
  %9 = landingpad { i8*, i32 }
          catch i8* null, !llfi_index !1487
  %10 = extractvalue { i8*, i32 } %9, 0, !llfi_index !1488
  call void @__clang_call_terminate(i8* %10) #14, !llfi_index !1489
  unreachable, !llfi_index !1490
}

; Function Attrs: mustprogress noinline nounwind uwtable
define linkonce_odr dso_local void @_ZNSt15_Rb_tree_header8_M_resetEv(%"struct.std::_Rb_tree_header"* nonnull align 8 dereferenceable(40) %0) #5 comdat align 2 {
  %2 = alloca %"struct.std::_Rb_tree_header"*, align 8, !llfi_index !1491
  store %"struct.std::_Rb_tree_header"* %0, %"struct.std::_Rb_tree_header"** %2, align 8, !llfi_index !1492
  %3 = load %"struct.std::_Rb_tree_header"*, %"struct.std::_Rb_tree_header"** %2, align 8, !llfi_index !1493
  %4 = getelementptr inbounds %"struct.std::_Rb_tree_header", %"struct.std::_Rb_tree_header"* %3, i32 0, i32 0, !llfi_index !1494
  %5 = getelementptr inbounds %"struct.std::_Rb_tree_node_base", %"struct.std::_Rb_tree_node_base"* %4, i32 0, i32 1, !llfi_index !1495
  store %"struct.std::_Rb_tree_node_base"* null, %"struct.std::_Rb_tree_node_base"** %5, align 8, !llfi_index !1496
  %6 = getelementptr inbounds %"struct.std::_Rb_tree_header", %"struct.std::_Rb_tree_header"* %3, i32 0, i32 0, !llfi_index !1497
  %7 = getelementptr inbounds %"struct.std::_Rb_tree_header", %"struct.std::_Rb_tree_header"* %3, i32 0, i32 0, !llfi_index !1498
  %8 = getelementptr inbounds %"struct.std::_Rb_tree_node_base", %"struct.std::_Rb_tree_node_base"* %7, i32 0, i32 2, !llfi_index !1499
  store %"struct.std::_Rb_tree_node_base"* %6, %"struct.std::_Rb_tree_node_base"** %8, align 8, !llfi_index !1500
  %9 = getelementptr inbounds %"struct.std::_Rb_tree_header", %"struct.std::_Rb_tree_header"* %3, i32 0, i32 0, !llfi_index !1501
  %10 = getelementptr inbounds %"struct.std::_Rb_tree_header", %"struct.std::_Rb_tree_header"* %3, i32 0, i32 0, !llfi_index !1502
  %11 = getelementptr inbounds %"struct.std::_Rb_tree_node_base", %"struct.std::_Rb_tree_node_base"* %10, i32 0, i32 3, !llfi_index !1503
  store %"struct.std::_Rb_tree_node_base"* %9, %"struct.std::_Rb_tree_node_base"** %11, align 8, !llfi_index !1504
  %12 = getelementptr inbounds %"struct.std::_Rb_tree_header", %"struct.std::_Rb_tree_header"* %3, i32 0, i32 1, !llfi_index !1505
  store i64 0, i64* %12, align 8, !llfi_index !1506
  ret void, !llfi_index !1507
}

; Function Attrs: noinline nounwind uwtable
define linkonce_odr dso_local void @_ZN9__gnu_cxx13new_allocatorISt13_Rb_tree_nodeISt4pairIS2_IxxExEEEC2Ev(%"class.std::ios_base::Init"* nonnull align 1 dereferenceable(1) %0) unnamed_addr #7 comdat align 2 {
  %2 = alloca %"class.std::ios_base::Init"*, align 8, !llfi_index !1508
  store %"class.std::ios_base::Init"* %0, %"class.std::ios_base::Init"** %2, align 8, !llfi_index !1509
  %3 = load %"class.std::ios_base::Init"*, %"class.std::ios_base::Init"** %2, align 8, !llfi_index !1510
  ret void, !llfi_index !1511
}

attributes #0 = { noinline uwtable "frame-pointer"="all" "min-legal-vector-width"="0" "no-trapping-math"="true" "stack-protector-buffer-size"="8" "target-cpu"="x86-64" "target-features"="+cx8,+fxsr,+mmx,+sse,+sse2,+x87" "tune-cpu"="generic" }
attributes #1 = { "frame-pointer"="all" "no-trapping-math"="true" "stack-protector-buffer-size"="8" "target-cpu"="x86-64" "target-features"="+cx8,+fxsr,+mmx,+sse,+sse2,+x87" "tune-cpu"="generic" }
attributes #2 = { nounwind }
attributes #3 = { nounwind "frame-pointer"="all" "no-trapping-math"="true" "stack-protector-buffer-size"="8" "target-cpu"="x86-64" "target-features"="+cx8,+fxsr,+mmx,+sse,+sse2,+x87" "tune-cpu"="generic" }
attributes #4 = { mustprogress noinline uwtable "frame-pointer"="all" "min-legal-vector-width"="0" "no-trapping-math"="true" "stack-protector-buffer-size"="8" "target-cpu"="x86-64" "target-features"="+cx8,+fxsr,+mmx,+sse,+sse2,+x87" "tune-cpu"="generic" }
attributes #5 = { mustprogress noinline nounwind uwtable "frame-pointer"="all" "min-legal-vector-width"="0" "no-trapping-math"="true" "stack-protector-buffer-size"="8" "target-cpu"="x86-64" "target-features"="+cx8,+fxsr,+mmx,+sse,+sse2,+x87" "tune-cpu"="generic" }
attributes #6 = { mustprogress noinline norecurse uwtable "frame-pointer"="all" "min-legal-vector-width"="0" "no-trapping-math"="true" "stack-protector-buffer-size"="8" "target-cpu"="x86-64" "target-features"="+cx8,+fxsr,+mmx,+sse,+sse2,+x87" "tune-cpu"="generic" }
attributes #7 = { noinline nounwind uwtable "frame-pointer"="all" "min-legal-vector-width"="0" "no-trapping-math"="true" "stack-protector-buffer-size"="8" "target-cpu"="x86-64" "target-features"="+cx8,+fxsr,+mmx,+sse,+sse2,+x87" "tune-cpu"="generic" }
attributes #8 = { argmemonly nofree nounwind willreturn }
attributes #9 = { noreturn "frame-pointer"="all" "no-trapping-math"="true" "stack-protector-buffer-size"="8" "target-cpu"="x86-64" "target-features"="+cx8,+fxsr,+mmx,+sse,+sse2,+x87" "tune-cpu"="generic" }
attributes #10 = { nobuiltin allocsize(0) "frame-pointer"="all" "no-trapping-math"="true" "stack-protector-buffer-size"="8" "target-cpu"="x86-64" "target-features"="+cx8,+fxsr,+mmx,+sse,+sse2,+x87" "tune-cpu"="generic" }
attributes #11 = { nounwind readonly willreturn "frame-pointer"="all" "no-trapping-math"="true" "stack-protector-buffer-size"="8" "target-cpu"="x86-64" "target-features"="+cx8,+fxsr,+mmx,+sse,+sse2,+x87" "tune-cpu"="generic" }
attributes #12 = { noinline noreturn nounwind }
attributes #13 = { nobuiltin nounwind "frame-pointer"="all" "no-trapping-math"="true" "stack-protector-buffer-size"="8" "target-cpu"="x86-64" "target-features"="+cx8,+fxsr,+mmx,+sse,+sse2,+x87" "tune-cpu"="generic" }
attributes #14 = { noreturn nounwind }
attributes #15 = { noreturn }
attributes #16 = { allocsize(0) }
attributes #17 = { nounwind readonly willreturn }

!llvm.ident = !{!0}
!llvm.module.flags = !{!1, !2, !3}

!0 = !{!"clang version 13.0.0 (https://github.com/llvm/llvm-project.git d7b669b3a30345cfcdb2fde2af6f48aa4b94845d)"}
!1 = !{i32 1, !"wchar_size", i32 4}
!2 = !{i32 7, !"uwtable", i32 1}
!3 = !{i32 7, !"frame-pointer", i32 2}
!4 = !{i64 1}
!5 = !{i64 2}
!6 = !{i64 3}
!7 = !{i64 4}
!8 = !{i64 5}
!9 = !{i64 6}
!10 = !{i64 7}
!11 = !{i64 8}
!12 = !{i64 9}
!13 = !{i64 10}
!14 = !{i64 11}
!15 = !{i64 12}
!16 = !{i64 13}
!17 = !{i64 14}
!18 = !{i64 15}
!19 = !{i64 16}
!20 = !{i64 17}
!21 = !{i64 18}
!22 = !{i64 19}
!23 = !{i64 20}
!24 = !{i64 21}
!25 = !{i64 22}
!26 = !{i64 23}
!27 = !{i64 24}
!28 = !{i64 25}
!29 = !{i64 26}
!30 = !{i64 27}
!31 = !{i64 28}
!32 = !{i64 29}
!33 = !{i64 30}
!34 = !{i64 31}
!35 = !{i64 32}
!36 = !{i64 33}
!37 = !{i64 34}
!38 = !{i64 35}
!39 = !{i64 36}
!40 = !{i64 37}
!41 = !{i64 38}
!42 = !{i64 39}
!43 = !{i64 40}
!44 = !{i64 41}
!45 = !{i64 42}
!46 = !{i64 43}
!47 = !{i64 44}
!48 = !{i64 45}
!49 = !{i64 46}
!50 = !{i64 47}
!51 = !{i64 48}
!52 = !{i64 49}
!53 = !{i64 50}
!54 = !{i64 51}
!55 = !{i64 52}
!56 = !{i64 53}
!57 = !{i64 54}
!58 = !{i64 55}
!59 = !{i64 56}
!60 = !{i64 57}
!61 = !{i64 58}
!62 = !{i64 59}
!63 = !{i64 60}
!64 = !{i64 61}
!65 = !{i64 62}
!66 = !{i64 63}
!67 = !{i64 64}
!68 = !{i64 65}
!69 = !{i64 66}
!70 = !{i64 67}
!71 = !{i64 68}
!72 = !{i64 69}
!73 = !{i64 70}
!74 = !{i64 71}
!75 = !{i64 72}
!76 = !{i64 73}
!77 = !{i64 74}
!78 = !{i64 75}
!79 = !{i64 76}
!80 = !{i64 77}
!81 = !{i64 78}
!82 = !{i64 79}
!83 = !{i64 80}
!84 = !{i64 81}
!85 = !{i64 82}
!86 = !{i64 83}
!87 = !{i64 84}
!88 = !{i64 85}
!89 = !{i64 86}
!90 = !{i64 87}
!91 = !{i64 88}
!92 = !{i64 89}
!93 = !{i64 90}
!94 = !{i64 91}
!95 = !{i64 92}
!96 = !{i64 93}
!97 = !{i64 94}
!98 = !{i64 95}
!99 = !{i64 96}
!100 = !{i64 97}
!101 = !{i64 98}
!102 = !{i64 99}
!103 = !{i64 100}
!104 = !{i64 101}
!105 = !{i64 102}
!106 = !{i64 103}
!107 = !{i64 104}
!108 = !{i64 105}
!109 = !{i64 106}
!110 = !{i64 107}
!111 = !{i64 108}
!112 = !{i64 109}
!113 = !{i64 110}
!114 = !{i64 111}
!115 = !{i64 112}
!116 = !{i64 113}
!117 = !{i64 114}
!118 = !{i64 115}
!119 = !{i64 116}
!120 = !{i64 117}
!121 = !{i64 118}
!122 = !{i64 119}
!123 = !{i64 120}
!124 = !{i64 121}
!125 = !{i64 122}
!126 = !{i64 123}
!127 = !{i64 124}
!128 = !{i64 125}
!129 = !{i64 126}
!130 = !{i64 127}
!131 = !{i64 128}
!132 = !{i64 129}
!133 = !{i64 130}
!134 = !{i64 131}
!135 = !{i64 132}
!136 = !{i64 133}
!137 = !{i64 134}
!138 = !{i64 135}
!139 = !{i64 136}
!140 = !{i64 137}
!141 = !{i64 138}
!142 = !{i64 139}
!143 = !{i64 140}
!144 = !{i64 141}
!145 = !{i64 142}
!146 = !{i64 143}
!147 = !{i64 144}
!148 = !{i64 145}
!149 = !{i64 146}
!150 = !{i64 147}
!151 = !{i64 148}
!152 = !{i64 149}
!153 = !{i64 150}
!154 = !{i64 151}
!155 = !{i64 152}
!156 = !{i64 153}
!157 = !{i64 154}
!158 = !{i64 155}
!159 = !{i64 156}
!160 = !{i64 157}
!161 = !{i64 158}
!162 = !{i64 159}
!163 = !{i64 160}
!164 = !{i64 161}
!165 = !{i64 162}
!166 = !{i64 163}
!167 = !{i64 164}
!168 = !{i64 165}
!169 = !{i64 166}
!170 = !{i64 167}
!171 = !{i64 168}
!172 = !{i64 169}
!173 = !{i64 170}
!174 = !{i64 171}
!175 = !{i64 172}
!176 = !{i64 173}
!177 = !{i64 174}
!178 = !{i64 175}
!179 = !{i64 176}
!180 = !{i64 177}
!181 = !{i64 178}
!182 = !{i64 179}
!183 = !{i64 180}
!184 = !{i64 181}
!185 = !{i64 182}
!186 = !{i64 183}
!187 = !{i64 184}
!188 = !{i64 185}
!189 = !{i64 186}
!190 = !{i64 187}
!191 = !{i64 188}
!192 = !{i64 189}
!193 = !{i64 190}
!194 = !{i64 191}
!195 = !{i64 192}
!196 = !{i64 193}
!197 = !{i64 194}
!198 = !{i64 195}
!199 = !{i64 196}
!200 = !{i64 197}
!201 = !{i64 198}
!202 = !{i64 199}
!203 = !{i64 200}
!204 = !{i64 201}
!205 = !{i64 202}
!206 = distinct !{!206, !207}
!207 = !{!"llvm.loop.mustprogress"}
!208 = !{i64 203}
!209 = !{i64 204}
!210 = !{i64 205}
!211 = !{i64 206}
!212 = !{i64 207}
!213 = !{i64 208}
!214 = !{i64 209}
!215 = !{i64 210}
!216 = !{i64 211}
!217 = !{i64 212}
!218 = !{i64 213}
!219 = !{i64 214}
!220 = !{i64 215}
!221 = !{i64 216}
!222 = !{i64 217}
!223 = distinct !{!223, !207}
!224 = !{i64 218}
!225 = !{i64 219}
!226 = !{i64 220}
!227 = !{i64 221}
!228 = !{i64 222}
!229 = !{i64 223}
!230 = !{i64 224}
!231 = !{i64 225}
!232 = !{i64 226}
!233 = !{i64 227}
!234 = !{i64 228}
!235 = !{i64 229}
!236 = !{i64 230}
!237 = !{i64 231}
!238 = !{i64 232}
!239 = distinct !{!239, !207}
!240 = !{i64 233}
!241 = !{i64 234}
!242 = !{i64 235}
!243 = !{i64 236}
!244 = !{i64 237}
!245 = !{i64 238}
!246 = !{i64 239}
!247 = !{i64 240}
!248 = !{i64 241}
!249 = !{i64 242}
!250 = !{i64 243}
!251 = !{i64 244}
!252 = !{i64 245}
!253 = !{i64 246}
!254 = !{i64 247}
!255 = !{i64 248}
!256 = !{i64 249}
!257 = !{i64 250}
!258 = !{i64 251}
!259 = !{i64 252}
!260 = !{i64 253}
!261 = !{i64 254}
!262 = !{i64 255}
!263 = !{i64 256}
!264 = !{i64 257}
!265 = !{i64 258}
!266 = !{i64 259}
!267 = !{i64 260}
!268 = !{i64 261}
!269 = !{i64 262}
!270 = !{i64 263}
!271 = !{i64 264}
!272 = !{i64 265}
!273 = !{i64 266}
!274 = !{i64 267}
!275 = !{i64 268}
!276 = !{i64 269}
!277 = !{i64 270}
!278 = !{i64 271}
!279 = !{i64 272}
!280 = !{i64 273}
!281 = !{i64 274}
!282 = !{i64 275}
!283 = !{i64 276}
!284 = !{i64 277}
!285 = !{i64 278}
!286 = !{i64 279}
!287 = !{i64 280}
!288 = !{i64 281}
!289 = !{i64 282}
!290 = !{i64 283}
!291 = !{i64 284}
!292 = !{i64 285}
!293 = distinct !{!293, !207}
!294 = !{i64 286}
!295 = !{i64 287}
!296 = !{i64 288}
!297 = !{i64 289}
!298 = !{i64 290}
!299 = !{i64 291}
!300 = !{i64 292}
!301 = !{i64 293}
!302 = !{i64 294}
!303 = !{i64 295}
!304 = !{i64 296}
!305 = !{i64 297}
!306 = !{i64 298}
!307 = !{i64 299}
!308 = !{i64 300}
!309 = !{i64 301}
!310 = !{i64 302}
!311 = !{i64 303}
!312 = !{i64 304}
!313 = !{i64 305}
!314 = !{i64 306}
!315 = !{i64 307}
!316 = !{i64 308}
!317 = !{i64 309}
!318 = !{i64 310}
!319 = !{i64 311}
!320 = !{i64 312}
!321 = !{i64 313}
!322 = !{i64 314}
!323 = !{i64 315}
!324 = !{i64 316}
!325 = !{i64 317}
!326 = !{i64 318}
!327 = !{i64 319}
!328 = !{i64 320}
!329 = !{i64 321}
!330 = !{i64 322}
!331 = !{i64 323}
!332 = !{i64 324}
!333 = !{i64 325}
!334 = !{i64 326}
!335 = !{i64 327}
!336 = !{i64 328}
!337 = !{i64 329}
!338 = !{i64 330}
!339 = !{i64 331}
!340 = !{i64 332}
!341 = !{i64 333}
!342 = !{i64 334}
!343 = !{i64 335}
!344 = !{i64 336}
!345 = !{i64 337}
!346 = !{i64 338}
!347 = !{i64 339}
!348 = !{i64 340}
!349 = !{i64 341}
!350 = !{i64 342}
!351 = !{i64 343}
!352 = !{i64 344}
!353 = distinct !{!353, !207}
!354 = !{i64 345}
!355 = !{i64 346}
!356 = !{i64 347}
!357 = !{i64 348}
!358 = !{i64 349}
!359 = !{i64 350}
!360 = !{i64 351}
!361 = !{i64 352}
!362 = !{i64 353}
!363 = !{i64 354}
!364 = !{i64 355}
!365 = !{i64 356}
!366 = !{i64 357}
!367 = !{i64 358}
!368 = !{i64 359}
!369 = !{i64 360}
!370 = !{i64 361}
!371 = !{i64 362}
!372 = distinct !{!372, !207}
!373 = !{i64 363}
!374 = !{i64 364}
!375 = !{i64 365}
!376 = !{i64 366}
!377 = !{i64 367}
!378 = !{i64 368}
!379 = !{i64 369}
!380 = !{i64 370}
!381 = !{i64 371}
!382 = !{i64 372}
!383 = !{i64 373}
!384 = !{i64 374}
!385 = !{i64 375}
!386 = !{i64 376}
!387 = !{i64 377}
!388 = !{i64 378}
!389 = !{i64 379}
!390 = !{i64 380}
!391 = !{i64 381}
!392 = !{i64 382}
!393 = !{i64 383}
!394 = !{i64 384}
!395 = !{i64 385}
!396 = !{i64 386}
!397 = !{i64 387}
!398 = !{i64 388}
!399 = !{i64 389}
!400 = !{i64 390}
!401 = !{i64 391}
!402 = !{i64 392}
!403 = !{i64 393}
!404 = !{i64 394}
!405 = !{i64 395}
!406 = !{i64 396}
!407 = !{i64 397}
!408 = !{i64 398}
!409 = !{i64 399}
!410 = !{i64 400}
!411 = !{i64 401}
!412 = !{i64 402}
!413 = !{i64 403}
!414 = !{i64 404}
!415 = !{i64 405}
!416 = !{i64 406}
!417 = !{i64 407}
!418 = !{i64 408}
!419 = !{i64 409}
!420 = !{i64 410}
!421 = !{i64 411}
!422 = !{i64 412}
!423 = !{i64 413}
!424 = !{i64 414}
!425 = !{i64 415}
!426 = !{i64 416}
!427 = !{i64 417}
!428 = !{i64 418}
!429 = !{i64 419}
!430 = !{i64 420}
!431 = !{i64 421}
!432 = !{i64 422}
!433 = !{i64 423}
!434 = !{i64 424}
!435 = !{i64 425}
!436 = !{i64 426}
!437 = !{i64 427}
!438 = !{i64 428}
!439 = !{i64 429}
!440 = !{i64 430}
!441 = !{i64 431}
!442 = !{i64 432}
!443 = !{i64 433}
!444 = !{i64 434}
!445 = !{i64 435}
!446 = !{i64 436}
!447 = !{i64 437}
!448 = !{i64 438}
!449 = !{i64 439}
!450 = !{i64 440}
!451 = !{i64 441}
!452 = !{i64 442}
!453 = !{i64 443}
!454 = !{i64 444}
!455 = !{i64 445}
!456 = !{i64 446}
!457 = !{i64 447}
!458 = !{i64 448}
!459 = !{i64 449}
!460 = !{i64 450}
!461 = !{i64 451}
!462 = !{i64 452}
!463 = !{i64 453}
!464 = !{i64 454}
!465 = !{i64 455}
!466 = !{i64 456}
!467 = !{i64 457}
!468 = !{i64 458}
!469 = !{i64 459}
!470 = !{i64 460}
!471 = !{i64 461}
!472 = !{i64 462}
!473 = !{i64 463}
!474 = !{i64 464}
!475 = !{i64 465}
!476 = !{i64 466}
!477 = !{i64 467}
!478 = !{i64 468}
!479 = !{i64 469}
!480 = !{i64 470}
!481 = !{i64 471}
!482 = !{i64 472}
!483 = !{i64 473}
!484 = !{i64 474}
!485 = !{i64 475}
!486 = !{i64 476}
!487 = !{i64 477}
!488 = !{i64 478}
!489 = !{i64 479}
!490 = !{i64 480}
!491 = !{i64 481}
!492 = !{i64 482}
!493 = !{i64 483}
!494 = !{i64 484}
!495 = !{i64 485}
!496 = !{i64 486}
!497 = !{i64 487}
!498 = !{i64 488}
!499 = !{i64 489}
!500 = !{i64 490}
!501 = !{i64 491}
!502 = !{i64 492}
!503 = !{i64 493}
!504 = !{i64 494}
!505 = !{i64 495}
!506 = !{i64 496}
!507 = !{i64 497}
!508 = !{i64 498}
!509 = !{i64 499}
!510 = !{i64 500}
!511 = !{i64 501}
!512 = !{i64 502}
!513 = !{i64 503}
!514 = !{i64 504}
!515 = !{i64 505}
!516 = !{i64 506}
!517 = !{i64 507}
!518 = !{i64 508}
!519 = !{i64 509}
!520 = !{i64 510}
!521 = !{i64 511}
!522 = !{i64 512}
!523 = !{i64 513}
!524 = !{i64 514}
!525 = !{i64 515}
!526 = !{i64 516}
!527 = !{i64 517}
!528 = !{i64 518}
!529 = !{i64 519}
!530 = !{i64 520}
!531 = !{i64 521}
!532 = !{i64 522}
!533 = !{i64 523}
!534 = !{i64 524}
!535 = !{i64 525}
!536 = !{i64 526}
!537 = !{i64 527}
!538 = !{i64 528}
!539 = !{i64 529}
!540 = !{i64 530}
!541 = !{i64 531}
!542 = !{i64 532}
!543 = !{i64 533}
!544 = !{i64 534}
!545 = !{i64 535}
!546 = !{i64 536}
!547 = !{i64 537}
!548 = !{i64 538}
!549 = !{i64 539}
!550 = !{i64 540}
!551 = !{i64 541}
!552 = !{i64 542}
!553 = !{i64 543}
!554 = !{i64 544}
!555 = !{i64 545}
!556 = !{i64 546}
!557 = !{i64 547}
!558 = !{i64 548}
!559 = !{i64 549}
!560 = !{i64 550}
!561 = !{i64 551}
!562 = !{i64 552}
!563 = !{i64 553}
!564 = !{i64 554}
!565 = !{i64 555}
!566 = !{i64 556}
!567 = !{i64 557}
!568 = !{i64 558}
!569 = !{i64 559}
!570 = !{i64 560}
!571 = !{i64 561}
!572 = !{i64 562}
!573 = !{i64 563}
!574 = !{i64 564}
!575 = !{i64 565}
!576 = !{i64 566}
!577 = !{i64 567}
!578 = !{i64 568}
!579 = !{i64 569}
!580 = !{i64 570}
!581 = !{i64 571}
!582 = !{i64 572}
!583 = !{i64 573}
!584 = !{i64 574}
!585 = !{i64 575}
!586 = !{i64 576}
!587 = !{i64 577}
!588 = !{i64 578}
!589 = !{i64 579}
!590 = !{i64 580}
!591 = !{i64 581}
!592 = !{i64 582}
!593 = !{i64 583}
!594 = !{i64 584}
!595 = !{i64 585}
!596 = !{i64 586}
!597 = !{i64 587}
!598 = !{i64 588}
!599 = !{i64 589}
!600 = !{i64 590}
!601 = !{i64 591}
!602 = !{i64 592}
!603 = !{i64 593}
!604 = !{i64 594}
!605 = !{i64 595}
!606 = !{i64 596}
!607 = !{i64 597}
!608 = !{i64 598}
!609 = !{i64 599}
!610 = !{i64 600}
!611 = !{i64 601}
!612 = !{i64 602}
!613 = !{i64 603}
!614 = !{i64 604}
!615 = !{i64 605}
!616 = !{i64 606}
!617 = !{i64 607}
!618 = !{i64 608}
!619 = !{i64 609}
!620 = !{i64 610}
!621 = !{i64 611}
!622 = !{i64 612}
!623 = !{i64 613}
!624 = !{i64 614}
!625 = !{i64 615}
!626 = !{i64 616}
!627 = !{i64 617}
!628 = !{i64 618}
!629 = !{i64 619}
!630 = !{i64 620}
!631 = !{i64 621}
!632 = !{i64 622}
!633 = !{i64 623}
!634 = !{i64 624}
!635 = !{i64 625}
!636 = !{i64 626}
!637 = !{i64 627}
!638 = !{i64 628}
!639 = !{i64 629}
!640 = distinct !{!640, !207}
!641 = !{i64 630}
!642 = !{i64 631}
!643 = !{i64 632}
!644 = !{i64 633}
!645 = !{i64 634}
!646 = !{i64 635}
!647 = !{i64 636}
!648 = !{i64 637}
!649 = !{i64 638}
!650 = !{i64 639}
!651 = !{i64 640}
!652 = !{i64 641}
!653 = !{i64 642}
!654 = !{i64 643}
!655 = !{i64 644}
!656 = !{i64 645}
!657 = !{i64 646}
!658 = !{i64 647}
!659 = !{i64 648}
!660 = !{i64 649}
!661 = !{i64 650}
!662 = !{i64 651}
!663 = !{i64 652}
!664 = !{i64 653}
!665 = !{i64 654}
!666 = !{i64 655}
!667 = !{i64 656}
!668 = !{i64 657}
!669 = !{i64 658}
!670 = !{i64 659}
!671 = !{i64 660}
!672 = !{i64 661}
!673 = !{i64 662}
!674 = !{i64 663}
!675 = !{i64 664}
!676 = !{i64 665}
!677 = !{i64 666}
!678 = !{i64 667}
!679 = !{i64 668}
!680 = !{i64 669}
!681 = !{i64 670}
!682 = !{i64 671}
!683 = !{i64 672}
!684 = !{i64 673}
!685 = !{i64 674}
!686 = !{i64 675}
!687 = !{i64 676}
!688 = !{i64 677}
!689 = !{i64 678}
!690 = !{i64 679}
!691 = !{i64 680}
!692 = !{i64 681}
!693 = !{i64 682}
!694 = !{i64 683}
!695 = !{i64 684}
!696 = !{i64 685}
!697 = !{i64 686}
!698 = !{i64 687}
!699 = !{i64 688}
!700 = !{i64 689}
!701 = !{i64 690}
!702 = !{i64 691}
!703 = !{i64 692}
!704 = !{i64 693}
!705 = !{i64 694}
!706 = !{i64 695}
!707 = !{i64 696}
!708 = !{i64 697}
!709 = !{i64 698}
!710 = !{i64 699}
!711 = !{i64 700}
!712 = !{i64 701}
!713 = !{i64 702}
!714 = !{i64 703}
!715 = !{i64 704}
!716 = !{i64 705}
!717 = !{i64 706}
!718 = !{i64 707}
!719 = !{i64 708}
!720 = !{i64 709}
!721 = !{i64 710}
!722 = !{i64 711}
!723 = !{i64 712}
!724 = !{i64 713}
!725 = !{i64 714}
!726 = !{i64 715}
!727 = !{i64 716}
!728 = !{i64 717}
!729 = !{i64 718}
!730 = !{i64 719}
!731 = !{i64 720}
!732 = !{i64 721}
!733 = !{i64 722}
!734 = !{i64 723}
!735 = !{i64 724}
!736 = !{i64 725}
!737 = !{i64 726}
!738 = !{i64 727}
!739 = !{i64 728}
!740 = !{i64 729}
!741 = !{i64 730}
!742 = !{i64 731}
!743 = !{i64 732}
!744 = !{i64 733}
!745 = !{i64 734}
!746 = !{i64 735}
!747 = !{i64 736}
!748 = !{i64 737}
!749 = !{i64 738}
!750 = !{i64 739}
!751 = !{i64 740}
!752 = !{i64 741}
!753 = !{i64 742}
!754 = !{i64 743}
!755 = !{i64 744}
!756 = !{i64 745}
!757 = !{i64 746}
!758 = !{i64 747}
!759 = !{i64 748}
!760 = !{i64 749}
!761 = !{i64 750}
!762 = !{i64 751}
!763 = !{i64 752}
!764 = !{i64 753}
!765 = !{i64 754}
!766 = !{i64 755}
!767 = !{i64 756}
!768 = !{i64 757}
!769 = !{i64 758}
!770 = !{i64 759}
!771 = !{i64 760}
!772 = !{i64 761}
!773 = !{i64 762}
!774 = !{i64 763}
!775 = !{i64 764}
!776 = !{i64 765}
!777 = !{i64 766}
!778 = !{i64 767}
!779 = !{i64 768}
!780 = !{i64 769}
!781 = !{i64 770}
!782 = !{i64 771}
!783 = !{i64 772}
!784 = !{i64 773}
!785 = !{i64 774}
!786 = !{i64 775}
!787 = !{i64 776}
!788 = !{i64 777}
!789 = !{i64 778}
!790 = !{i64 779}
!791 = !{i64 780}
!792 = !{i64 781}
!793 = !{i64 782}
!794 = !{i64 783}
!795 = !{i64 784}
!796 = !{i64 785}
!797 = !{i64 786}
!798 = !{i64 787}
!799 = !{i64 788}
!800 = !{i64 789}
!801 = !{i64 790}
!802 = !{i64 791}
!803 = !{i64 792}
!804 = !{i64 793}
!805 = !{i64 794}
!806 = !{i64 795}
!807 = !{i64 796}
!808 = !{i64 797}
!809 = !{i64 798}
!810 = !{i64 799}
!811 = !{i64 800}
!812 = !{i64 801}
!813 = !{i64 802}
!814 = !{i64 803}
!815 = !{i64 804}
!816 = !{i64 805}
!817 = !{i64 806}
!818 = !{i64 807}
!819 = !{i64 808}
!820 = !{i64 809}
!821 = !{i64 810}
!822 = !{i64 811}
!823 = !{i64 812}
!824 = !{i64 813}
!825 = !{i64 814}
!826 = !{i64 815}
!827 = !{i64 816}
!828 = !{i64 817}
!829 = !{i64 818}
!830 = !{i64 819}
!831 = !{i64 820}
!832 = !{i64 821}
!833 = !{i64 822}
!834 = !{i64 823}
!835 = !{i64 824}
!836 = !{i64 825}
!837 = !{i64 826}
!838 = !{i64 827}
!839 = !{i64 828}
!840 = !{i64 829}
!841 = !{i64 830}
!842 = !{i64 831}
!843 = !{i64 832}
!844 = !{i64 833}
!845 = !{i64 834}
!846 = !{i64 835}
!847 = !{i64 836}
!848 = !{i64 837}
!849 = !{i64 838}
!850 = !{i64 839}
!851 = !{i64 840}
!852 = !{i64 841}
!853 = !{i64 842}
!854 = !{i64 843}
!855 = !{i64 844}
!856 = !{i64 845}
!857 = !{i64 846}
!858 = !{i64 847}
!859 = !{i64 848}
!860 = !{i64 849}
!861 = !{i64 850}
!862 = !{i64 851}
!863 = !{i64 852}
!864 = !{i64 853}
!865 = !{i64 854}
!866 = !{i64 855}
!867 = !{i64 856}
!868 = !{i64 857}
!869 = !{i64 858}
!870 = !{i64 859}
!871 = !{i64 860}
!872 = !{i64 861}
!873 = !{i64 862}
!874 = !{i64 863}
!875 = !{i64 864}
!876 = !{i64 865}
!877 = !{i64 866}
!878 = !{i64 867}
!879 = !{i64 868}
!880 = !{i64 869}
!881 = !{i64 870}
!882 = !{i64 871}
!883 = !{i64 872}
!884 = !{i64 873}
!885 = !{i64 874}
!886 = !{i64 875}
!887 = !{i64 876}
!888 = !{i64 877}
!889 = !{i64 878}
!890 = !{i64 879}
!891 = !{i64 880}
!892 = !{i64 881}
!893 = !{i64 882}
!894 = !{i64 883}
!895 = !{i64 884}
!896 = !{i64 885}
!897 = !{i64 886}
!898 = !{i64 887}
!899 = !{i64 888}
!900 = !{i64 889}
!901 = !{i64 890}
!902 = !{i64 891}
!903 = !{i64 892}
!904 = !{i64 893}
!905 = !{i64 894}
!906 = !{i64 895}
!907 = !{i64 896}
!908 = !{i64 897}
!909 = !{i64 898}
!910 = !{i64 899}
!911 = !{i64 900}
!912 = !{i64 901}
!913 = !{i64 902}
!914 = !{i64 903}
!915 = !{i64 904}
!916 = !{i64 905}
!917 = !{i64 906}
!918 = !{i64 907}
!919 = !{i64 908}
!920 = !{i64 909}
!921 = !{i64 910}
!922 = !{i64 911}
!923 = !{i64 912}
!924 = !{i64 913}
!925 = !{i64 914}
!926 = !{i64 915}
!927 = !{i64 916}
!928 = !{i64 917}
!929 = !{i64 918}
!930 = !{i64 919}
!931 = !{i64 920}
!932 = !{i64 921}
!933 = !{i64 922}
!934 = !{i64 923}
!935 = !{i64 924}
!936 = !{i64 925}
!937 = !{i64 926}
!938 = !{i64 927}
!939 = !{i64 928}
!940 = !{i64 929}
!941 = !{i64 930}
!942 = !{i64 931}
!943 = !{i64 932}
!944 = !{i64 933}
!945 = !{i64 934}
!946 = !{i64 935}
!947 = !{i64 936}
!948 = !{i64 937}
!949 = !{i64 938}
!950 = !{i64 939}
!951 = !{i64 940}
!952 = !{i64 941}
!953 = !{i64 942}
!954 = !{i64 943}
!955 = !{i64 944}
!956 = !{i64 945}
!957 = !{i64 946}
!958 = !{i64 947}
!959 = !{i64 948}
!960 = !{i64 949}
!961 = !{i64 950}
!962 = !{i64 951}
!963 = !{i64 952}
!964 = !{i64 953}
!965 = !{i64 954}
!966 = !{i64 955}
!967 = !{i64 956}
!968 = !{i64 957}
!969 = !{i64 958}
!970 = !{i64 959}
!971 = !{i64 960}
!972 = !{i64 961}
!973 = !{i64 962}
!974 = !{i64 963}
!975 = !{i64 964}
!976 = !{i64 965}
!977 = !{i64 966}
!978 = !{i64 967}
!979 = !{i64 968}
!980 = !{i64 969}
!981 = !{i64 970}
!982 = !{i64 971}
!983 = !{i64 972}
!984 = !{i64 973}
!985 = !{i64 974}
!986 = !{i64 975}
!987 = !{i64 976}
!988 = !{i64 977}
!989 = !{i64 978}
!990 = !{i64 979}
!991 = !{i64 980}
!992 = !{i64 981}
!993 = !{i64 982}
!994 = !{i64 983}
!995 = !{i64 984}
!996 = !{i64 985}
!997 = !{i64 986}
!998 = !{i64 987}
!999 = !{i64 988}
!1000 = !{i64 989}
!1001 = !{i64 990}
!1002 = !{i64 991}
!1003 = !{i64 992}
!1004 = !{i64 993}
!1005 = !{i64 994}
!1006 = !{i64 995}
!1007 = !{i64 996}
!1008 = !{i64 997}
!1009 = !{i64 998}
!1010 = !{i64 999}
!1011 = !{i64 1000}
!1012 = !{i64 1001}
!1013 = !{i64 1002}
!1014 = !{i64 1003}
!1015 = !{i64 1004}
!1016 = !{i64 1005}
!1017 = !{i64 1006}
!1018 = !{i64 1007}
!1019 = !{i64 1008}
!1020 = !{i64 1009}
!1021 = !{i64 1010}
!1022 = !{i64 1011}
!1023 = !{i64 1012}
!1024 = !{i64 1013}
!1025 = !{i64 1014}
!1026 = !{i64 1015}
!1027 = !{i64 1016}
!1028 = !{i64 1017}
!1029 = !{i64 1018}
!1030 = !{i64 1019}
!1031 = !{i64 1020}
!1032 = !{i64 1021}
!1033 = !{i64 1022}
!1034 = !{i64 1023}
!1035 = !{i64 1024}
!1036 = !{i64 1025}
!1037 = !{i64 1026}
!1038 = !{i64 1027}
!1039 = !{i64 1028}
!1040 = !{i64 1029}
!1041 = !{i64 1030}
!1042 = !{i64 1031}
!1043 = !{i64 1032}
!1044 = !{i64 1033}
!1045 = !{i64 1034}
!1046 = !{i64 1035}
!1047 = !{i64 1036}
!1048 = !{i64 1037}
!1049 = !{i64 1038}
!1050 = !{i64 1039}
!1051 = !{i64 1040}
!1052 = !{i64 1041}
!1053 = !{i64 1042}
!1054 = !{i64 1043}
!1055 = !{i64 1044}
!1056 = !{i64 1045}
!1057 = !{i64 1046}
!1058 = !{i64 1047}
!1059 = !{i64 1048}
!1060 = !{i64 1049}
!1061 = !{i64 1050}
!1062 = !{i64 1051}
!1063 = !{i64 1052}
!1064 = !{i64 1053}
!1065 = !{i64 1054}
!1066 = !{i64 1055}
!1067 = !{i64 1056}
!1068 = !{i64 1057}
!1069 = !{i64 1058}
!1070 = !{i64 1059}
!1071 = !{i64 1060}
!1072 = !{i64 1061}
!1073 = !{i64 1062}
!1074 = !{i64 1063}
!1075 = !{i64 1064}
!1076 = !{i64 1065}
!1077 = !{i64 1066}
!1078 = !{i64 1067}
!1079 = !{i64 1068}
!1080 = !{i64 1069}
!1081 = !{i64 1070}
!1082 = !{i64 1071}
!1083 = !{i64 1072}
!1084 = !{i64 1073}
!1085 = !{i64 1074}
!1086 = !{i64 1075}
!1087 = !{i64 1076}
!1088 = !{i64 1077}
!1089 = !{i64 1078}
!1090 = !{i64 1079}
!1091 = !{i64 1080}
!1092 = !{i64 1081}
!1093 = !{i64 1082}
!1094 = !{i64 1083}
!1095 = !{i64 1084}
!1096 = !{i64 1085}
!1097 = !{i64 1086}
!1098 = !{i64 1087}
!1099 = !{i64 1088}
!1100 = !{i64 1089}
!1101 = !{i64 1090}
!1102 = !{i64 1091}
!1103 = !{i64 1092}
!1104 = !{i64 1093}
!1105 = !{i64 1094}
!1106 = !{i64 1095}
!1107 = !{i64 1096}
!1108 = !{i64 1097}
!1109 = !{i64 1098}
!1110 = !{i64 1099}
!1111 = !{i64 1100}
!1112 = !{i64 1101}
!1113 = !{i64 1102}
!1114 = !{i64 1103}
!1115 = !{i64 1104}
!1116 = !{i64 1105}
!1117 = !{i64 1106}
!1118 = !{i64 1107}
!1119 = !{i64 1108}
!1120 = !{i64 1109}
!1121 = !{i64 1110}
!1122 = !{i64 1111}
!1123 = !{i64 1112}
!1124 = !{i64 1113}
!1125 = !{i64 1114}
!1126 = !{i64 1115}
!1127 = !{i64 1116}
!1128 = !{i64 1117}
!1129 = !{i64 1118}
!1130 = !{i64 1119}
!1131 = !{i64 1120}
!1132 = !{i64 1121}
!1133 = !{i64 1122}
!1134 = !{i64 1123}
!1135 = !{i64 1124}
!1136 = !{i64 1125}
!1137 = !{i64 1126}
!1138 = !{i64 1127}
!1139 = !{i64 1128}
!1140 = !{i64 1129}
!1141 = !{i64 1130}
!1142 = !{i64 1131}
!1143 = !{i64 1132}
!1144 = !{i64 1133}
!1145 = !{i64 1134}
!1146 = !{i64 1135}
!1147 = !{i64 1136}
!1148 = !{i64 1137}
!1149 = !{i64 1138}
!1150 = !{i64 1139}
!1151 = !{i64 1140}
!1152 = !{i64 1141}
!1153 = !{i64 1142}
!1154 = !{i64 1143}
!1155 = !{i64 1144}
!1156 = !{i64 1145}
!1157 = !{i64 1146}
!1158 = !{i64 1147}
!1159 = !{i64 1148}
!1160 = !{i64 1149}
!1161 = !{i64 1150}
!1162 = !{i64 1151}
!1163 = !{i64 1152}
!1164 = !{i64 1153}
!1165 = !{i64 1154}
!1166 = !{i64 1155}
!1167 = !{i64 1156}
!1168 = !{i64 1157}
!1169 = !{i64 1158}
!1170 = !{i64 1159}
!1171 = !{i64 1160}
!1172 = !{i64 1161}
!1173 = !{i64 1162}
!1174 = !{i64 1163}
!1175 = !{i64 1164}
!1176 = !{i64 1165}
!1177 = !{i64 1166}
!1178 = !{i64 1167}
!1179 = !{i64 1168}
!1180 = !{i64 1169}
!1181 = !{i64 1170}
!1182 = !{i64 1171}
!1183 = !{i64 1172}
!1184 = !{i64 1173}
!1185 = !{i64 1174}
!1186 = !{i64 1175}
!1187 = !{i64 1176}
!1188 = !{i64 1177}
!1189 = !{i64 1178}
!1190 = !{i64 1179}
!1191 = !{i64 1180}
!1192 = !{i64 1181}
!1193 = !{i64 1182}
!1194 = !{i64 1183}
!1195 = !{i64 1184}
!1196 = !{i64 1185}
!1197 = !{i64 1186}
!1198 = !{i64 1187}
!1199 = !{i64 1188}
!1200 = !{i64 1189}
!1201 = !{i64 1190}
!1202 = !{i64 1191}
!1203 = !{i64 1192}
!1204 = !{i64 1193}
!1205 = !{i64 1194}
!1206 = !{i64 1195}
!1207 = !{i64 1196}
!1208 = !{i64 1197}
!1209 = !{i64 1198}
!1210 = !{i64 1199}
!1211 = !{i64 1200}
!1212 = !{i64 1201}
!1213 = !{i64 1202}
!1214 = !{i64 1203}
!1215 = !{i64 1204}
!1216 = !{i64 1205}
!1217 = !{i64 1206}
!1218 = !{i64 1207}
!1219 = !{i64 1208}
!1220 = !{i64 1209}
!1221 = !{i64 1210}
!1222 = !{i64 1211}
!1223 = !{i64 1212}
!1224 = !{i64 1213}
!1225 = !{i64 1214}
!1226 = !{i64 1215}
!1227 = !{i64 1216}
!1228 = !{i64 1217}
!1229 = !{i64 1218}
!1230 = !{i64 1219}
!1231 = !{i64 1220}
!1232 = !{i64 1221}
!1233 = !{i64 1222}
!1234 = !{i64 1223}
!1235 = !{i64 1224}
!1236 = !{i64 1225}
!1237 = !{i64 1226}
!1238 = !{i64 1227}
!1239 = !{i64 1228}
!1240 = !{i64 1229}
!1241 = !{i64 1230}
!1242 = !{i64 1231}
!1243 = distinct !{!1243, !207}
!1244 = !{i64 1232}
!1245 = !{i64 1233}
!1246 = !{i64 1234}
!1247 = !{i64 1235}
!1248 = !{i64 1236}
!1249 = !{i64 1237}
!1250 = !{i64 1238}
!1251 = !{i64 1239}
!1252 = !{i64 1240}
!1253 = !{i64 1241}
!1254 = !{i64 1242}
!1255 = !{i64 1243}
!1256 = !{i64 1244}
!1257 = !{i64 1245}
!1258 = !{i64 1246}
!1259 = !{i64 1247}
!1260 = !{i64 1248}
!1261 = !{i64 1249}
!1262 = !{i64 1250}
!1263 = !{i64 1251}
!1264 = !{i64 1252}
!1265 = !{i64 1253}
!1266 = !{i64 1254}
!1267 = !{i64 1255}
!1268 = !{i64 1256}
!1269 = !{i64 1257}
!1270 = !{i64 1258}
!1271 = !{i64 1259}
!1272 = !{i64 1260}
!1273 = !{i64 1261}
!1274 = !{i64 1262}
!1275 = !{i64 1263}
!1276 = !{i64 1264}
!1277 = !{i64 1265}
!1278 = !{i64 1266}
!1279 = !{i64 1267}
!1280 = !{i64 1268}
!1281 = !{i64 1269}
!1282 = !{i64 1270}
!1283 = !{i64 1271}
!1284 = !{i64 1272}
!1285 = !{i64 1273}
!1286 = !{i64 1274}
!1287 = !{i64 1275}
!1288 = !{i64 1276}
!1289 = !{i64 1277}
!1290 = !{i64 1278}
!1291 = !{i64 1279}
!1292 = !{i64 1280}
!1293 = !{i64 1281}
!1294 = !{i64 1282}
!1295 = !{i64 1283}
!1296 = !{i64 1284}
!1297 = !{i64 1285}
!1298 = !{i64 1286}
!1299 = !{i64 1287}
!1300 = !{i64 1288}
!1301 = !{i64 1289}
!1302 = !{i64 1290}
!1303 = !{i64 1291}
!1304 = !{i64 1292}
!1305 = !{i64 1293}
!1306 = !{i64 1294}
!1307 = !{i64 1295}
!1308 = !{i64 1296}
!1309 = !{i64 1297}
!1310 = !{i64 1298}
!1311 = !{i64 1299}
!1312 = !{i64 1300}
!1313 = !{i64 1301}
!1314 = !{i64 1302}
!1315 = !{i64 1303}
!1316 = !{i64 1304}
!1317 = !{i64 1305}
!1318 = !{i64 1306}
!1319 = !{i64 1307}
!1320 = !{i64 1308}
!1321 = !{i64 1309}
!1322 = !{i64 1310}
!1323 = !{i64 1311}
!1324 = !{i64 1312}
!1325 = !{i64 1313}
!1326 = !{i64 1314}
!1327 = !{i64 1315}
!1328 = !{i64 1316}
!1329 = !{i64 1317}
!1330 = !{i64 1318}
!1331 = !{i64 1319}
!1332 = !{i64 1320}
!1333 = !{i64 1321}
!1334 = !{i64 1322}
!1335 = !{i64 1323}
!1336 = !{i64 1324}
!1337 = !{i64 1325}
!1338 = !{i64 1326}
!1339 = !{i64 1327}
!1340 = !{i64 1328}
!1341 = !{i64 1329}
!1342 = !{i64 1330}
!1343 = !{i64 1331}
!1344 = !{i64 1332}
!1345 = !{i64 1333}
!1346 = !{i64 1334}
!1347 = !{i64 1335}
!1348 = !{i64 1336}
!1349 = !{i64 1337}
!1350 = !{i64 1338}
!1351 = !{i64 1339}
!1352 = !{i64 1340}
!1353 = !{i64 1341}
!1354 = !{i64 1342}
!1355 = !{i64 1343}
!1356 = !{i64 1344}
!1357 = !{i64 1345}
!1358 = !{i64 1346}
!1359 = !{i64 1347}
!1360 = !{i64 1348}
!1361 = !{i64 1349}
!1362 = !{i64 1350}
!1363 = !{i64 1351}
!1364 = !{i64 1352}
!1365 = !{i64 1353}
!1366 = !{i64 1354}
!1367 = !{i64 1355}
!1368 = !{i64 1356}
!1369 = !{i64 1357}
!1370 = !{i64 1358}
!1371 = !{i64 1359}
!1372 = !{i64 1360}
!1373 = !{i64 1361}
!1374 = !{i64 1362}
!1375 = !{i64 1363}
!1376 = !{i64 1364}
!1377 = !{i64 1365}
!1378 = !{i64 1366}
!1379 = !{i64 1367}
!1380 = !{i64 1368}
!1381 = !{i64 1369}
!1382 = !{i64 1370}
!1383 = !{i64 1371}
!1384 = !{i64 1372}
!1385 = !{i64 1373}
!1386 = !{i64 1374}
!1387 = !{i64 1375}
!1388 = !{i64 1376}
!1389 = !{i64 1377}
!1390 = !{i64 1378}
!1391 = !{i64 1379}
!1392 = !{i64 1380}
!1393 = !{i64 1381}
!1394 = !{i64 1382}
!1395 = !{i64 1383}
!1396 = !{i64 1384}
!1397 = !{i64 1385}
!1398 = !{i64 1386}
!1399 = !{i64 1387}
!1400 = !{i64 1388}
!1401 = !{i64 1389}
!1402 = !{i64 1390}
!1403 = !{i64 1391}
!1404 = !{i64 1392}
!1405 = !{i64 1393}
!1406 = !{i64 1394}
!1407 = !{i64 1395}
!1408 = !{i64 1396}
!1409 = !{i64 1397}
!1410 = !{i64 1398}
!1411 = !{i64 1399}
!1412 = !{i64 1400}
!1413 = !{i64 1401}
!1414 = !{i64 1402}
!1415 = !{i64 1403}
!1416 = !{i64 1404}
!1417 = !{i64 1405}
!1418 = !{i64 1406}
!1419 = !{i64 1407}
!1420 = !{i64 1408}
!1421 = !{i64 1409}
!1422 = !{i64 1410}
!1423 = !{i64 1411}
!1424 = !{i64 1412}
!1425 = !{i64 1413}
!1426 = !{i64 1414}
!1427 = !{i64 1415}
!1428 = !{i64 1416}
!1429 = !{i64 1417}
!1430 = !{i64 1418}
!1431 = !{i64 1419}
!1432 = !{i64 1420}
!1433 = !{i64 1421}
!1434 = !{i64 1422}
!1435 = !{i64 1423}
!1436 = !{i64 1424}
!1437 = !{i64 1425}
!1438 = !{i64 1426}
!1439 = !{i64 1427}
!1440 = !{i64 1428}
!1441 = !{i64 1429}
!1442 = !{i64 1430}
!1443 = !{i64 1431}
!1444 = !{i64 1432}
!1445 = !{i64 1433}
!1446 = !{i64 1434}
!1447 = !{i64 1435}
!1448 = !{i64 1436}
!1449 = !{i64 1437}
!1450 = !{i64 1438}
!1451 = !{i64 1439}
!1452 = !{i64 1440}
!1453 = !{i64 1441}
!1454 = !{i64 1442}
!1455 = !{i64 1443}
!1456 = !{i64 1444}
!1457 = !{i64 1445}
!1458 = !{i64 1446}
!1459 = !{i64 1447}
!1460 = !{i64 1448}
!1461 = !{i64 1449}
!1462 = !{i64 1450}
!1463 = !{i64 1451}
!1464 = !{i64 1452}
!1465 = !{i64 1453}
!1466 = !{i64 1454}
!1467 = !{i64 1455}
!1468 = !{i64 1456}
!1469 = !{i64 1457}
!1470 = !{i64 1458}
!1471 = !{i64 1459}
!1472 = !{i64 1460}
!1473 = !{i64 1461}
!1474 = !{i64 1462}
!1475 = !{i64 1463}
!1476 = !{i64 1464}
!1477 = !{i64 1465}
!1478 = !{i64 1466}
!1479 = !{i64 1467}
!1480 = !{i64 1468}
!1481 = !{i64 1469}
!1482 = !{i64 1470}
!1483 = !{i64 1471}
!1484 = !{i64 1472}
!1485 = !{i64 1473}
!1486 = !{i64 1474}
!1487 = !{i64 1475}
!1488 = !{i64 1476}
!1489 = !{i64 1477}
!1490 = !{i64 1478}
!1491 = !{i64 1479}
!1492 = !{i64 1480}
!1493 = !{i64 1481}
!1494 = !{i64 1482}
!1495 = !{i64 1483}
!1496 = !{i64 1484}
!1497 = !{i64 1485}
!1498 = !{i64 1486}
!1499 = !{i64 1487}
!1500 = !{i64 1488}
!1501 = !{i64 1489}
!1502 = !{i64 1490}
!1503 = !{i64 1491}
!1504 = !{i64 1492}
!1505 = !{i64 1493}
!1506 = !{i64 1494}
!1507 = !{i64 1495}
!1508 = !{i64 1496}
!1509 = !{i64 1497}
!1510 = !{i64 1498}
!1511 = !{i64 1499}
