; ModuleID = '/home/hjiang/Computation-Kernel-Dataset/experiments/Fault_injection_0308_parall/O0/StrangeFunction/StrangeFunction.ll'
source_filename = "llvm-link"
target datalayout = "e-m:e-p270:32:32-p271:32:32-p272:64:64-i64:64-f80:128-n8:16:32:64-S128"
target triple = "x86_64-unknown-linux-gnu"

%"struct.std::less" = type { i8 }
%"class.std::set" = type { %"class.std::_Rb_tree" }
%"class.std::_Rb_tree" = type { %"struct.std::_Rb_tree<int, int, std::_Identity<int>, std::less<int>>::_Rb_tree_impl" }
%"struct.std::_Rb_tree<int, int, std::_Identity<int>, std::less<int>>::_Rb_tree_impl" = type { %"struct.std::_Rb_tree_key_compare", %"struct.std::_Rb_tree_header" }
%"struct.std::_Rb_tree_key_compare" = type { %"struct.std::less" }
%"struct.std::_Rb_tree_header" = type { %"struct.std::_Rb_tree_node_base", i64 }
%"struct.std::_Rb_tree_node_base" = type { i32, %"struct.std::_Rb_tree_node_base"*, %"struct.std::_Rb_tree_node_base"*, %"struct.std::_Rb_tree_node_base"* }
%"class.std::vector" = type { %"struct.std::_Vector_base" }
%"struct.std::_Vector_base" = type { %"struct.std::_Vector_base<std::pair<int, int>, std::allocator<std::pair<int, int>>>::_Vector_impl" }
%"struct.std::_Vector_base<std::pair<int, int>, std::allocator<std::pair<int, int>>>::_Vector_impl" = type { %"struct.std::_Vector_base<std::pair<int, int>, std::allocator<std::pair<int, int>>>::_Vector_impl_data" }
%"struct.std::_Vector_base<std::pair<int, int>, std::allocator<std::pair<int, int>>>::_Vector_impl_data" = type { %"struct.std::pair"*, %"struct.std::pair"*, %"struct.std::pair"* }
%"struct.std::pair" = type { i32, i32 }
%struct._IO_FILE = type { i32, i8*, i8*, i8*, i8*, i8*, i8*, i8*, i8*, i8*, i8*, i8*, %struct._IO_marker*, %struct._IO_FILE*, i32, i32, i64, i16, i8, [1 x i8], i8*, i64, %struct._IO_codecvt*, %struct._IO_wide_data*, %struct._IO_FILE*, i8*, i64, i32, [20 x i8] }
%struct._IO_marker = type opaque
%struct._IO_codecvt = type opaque
%struct._IO_wide_data = type opaque
%"class.std::basic_ostream" = type { i32 (...)**, %"class.std::basic_ios" }
%"class.std::basic_ios" = type { %"class.std::ios_base", %"class.std::basic_ostream"*, i8, i8, %"class.std::basic_streambuf"*, %"class.std::ctype"*, %"class.std::num_put"*, %"class.std::num_put"* }
%"class.std::ios_base" = type { i32 (...)**, i64, i64, i32, i32, i32, %"struct.std::ios_base::_Callback_list"*, %"struct.std::ios_base::_Words", [8 x %"struct.std::ios_base::_Words"], i32, %"struct.std::ios_base::_Words"*, %"class.std::locale" }
%"struct.std::ios_base::_Callback_list" = type { %"struct.std::ios_base::_Callback_list"*, void (i32, %"class.std::ios_base"*, i32)*, i32, i32 }
%"struct.std::ios_base::_Words" = type { i8*, i64 }
%"class.std::locale" = type { %"class.std::locale::_Impl"* }
%"class.std::locale::_Impl" = type { i32, %"class.std::locale::facet"**, i64, %"class.std::locale::facet"**, i8** }
%"class.std::locale::facet" = type <{ i32 (...)**, i32, [4 x i8] }>
%"class.std::basic_streambuf" = type { i32 (...)**, i8*, i8*, i8*, i8*, i8*, i8*, %"class.std::locale" }
%"class.std::ctype" = type <{ %"class.std::locale::facet.base", [4 x i8], %struct.__locale_struct*, i8, [7 x i8], i32*, i32*, i16*, i8, [256 x i8], [256 x i8], i8, [6 x i8] }>
%"class.std::locale::facet.base" = type <{ i32 (...)**, i32 }>
%struct.__locale_struct = type { [13 x %struct.__locale_data*], i16*, i32*, i32*, [13 x i8*] }
%struct.__locale_data = type opaque
%"class.std::num_put" = type { %"class.std::locale::facet.base", [4 x i8] }
%"struct.std::_Rb_tree_node" = type <{ %"struct.std::_Rb_tree_node_base", %"struct.__gnu_cxx::__aligned_membuf", [4 x i8] }>
%"struct.__gnu_cxx::__aligned_membuf" = type { [4 x i8] }
%"class.std::reverse_iterator" = type { %"class.__gnu_cxx::__normal_iterator" }
%"class.__gnu_cxx::__normal_iterator" = type { %"struct.std::pair"* }
%"struct.std::_Rb_tree_const_iterator" = type { %"struct.std::_Rb_tree_node_base"* }
%"struct.std::pair.3" = type <{ %"struct.std::_Rb_tree_const_iterator", i8, [7 x i8] }>
%"struct.std::pair.11" = type { %"struct.std::_Rb_tree_node_base"*, %"struct.std::_Rb_tree_node_base"* }
%"struct.std::_Rb_tree<int, int, std::_Identity<int>, std::less<int>>::_Alloc_node" = type { %"class.std::_Rb_tree"* }

$_ZNSt6vectorISt4pairIiiESaIS1_EEC2Ev = comdat any

$_ZNSt6vectorISt4pairIiiESaIS1_EED2Ev = comdat any

$_ZNSt12_Vector_baseISt4pairIiiESaIS1_EE19_M_get_Tp_allocatorEv = comdat any

$_ZSt8_DestroyIPSt4pairIiiES1_EvT_S3_RSaIT0_E = comdat any

$_ZNSt12_Vector_baseISt4pairIiiESaIS1_EED2Ev = comdat any

$__clang_call_terminate = comdat any

$_ZNSt12_Vector_baseISt4pairIiiESaIS1_EE13_M_deallocateEPS1_m = comdat any

$_ZNSt12_Vector_baseISt4pairIiiESaIS1_EE12_Vector_implD2Ev = comdat any

$_ZNSaISt4pairIiiEED2Ev = comdat any

$_ZN9__gnu_cxx13new_allocatorISt4pairIiiEED2Ev = comdat any

$_ZNSt16allocator_traitsISaISt4pairIiiEEE10deallocateERS2_PS1_m = comdat any

$_ZN9__gnu_cxx13new_allocatorISt4pairIiiEE10deallocateEPS2_m = comdat any

$_ZSt8_DestroyIPSt4pairIiiEEvT_S3_ = comdat any

$_ZNSt12_Destroy_auxILb1EE9__destroyIPSt4pairIiiEEEvT_S5_ = comdat any

$_ZNSt12_Vector_baseISt4pairIiiESaIS1_EEC2Ev = comdat any

$_ZNSt12_Vector_baseISt4pairIiiESaIS1_EE12_Vector_implC2Ev = comdat any

$_ZNSaISt4pairIiiEEC2Ev = comdat any

$_ZNSt12_Vector_baseISt4pairIiiESaIS1_EE17_Vector_impl_dataC2Ev = comdat any

$_ZN9__gnu_cxx13new_allocatorISt4pairIiiEEC2Ev = comdat any

$_ZNSt3setIiSt4lessIiESaIiEEC2Ev = comdat any

$_ZNSt3setIiSt4lessIiESaIiEED2Ev = comdat any

$_ZNSt8_Rb_treeIiiSt9_IdentityIiESt4lessIiESaIiEED2Ev = comdat any

$_ZNSt8_Rb_treeIiiSt9_IdentityIiESt4lessIiESaIiEE8_M_beginEv = comdat any

$_ZNSt8_Rb_treeIiiSt9_IdentityIiESt4lessIiESaIiEE8_M_eraseEPSt13_Rb_tree_nodeIiE = comdat any

$_ZNSt8_Rb_treeIiiSt9_IdentityIiESt4lessIiESaIiEE13_Rb_tree_implIS3_Lb1EED2Ev = comdat any

$_ZNSaISt13_Rb_tree_nodeIiEED2Ev = comdat any

$_ZN9__gnu_cxx13new_allocatorISt13_Rb_tree_nodeIiEED2Ev = comdat any

$_ZNSt8_Rb_treeIiiSt9_IdentityIiESt4lessIiESaIiEE8_S_rightEPSt18_Rb_tree_node_base = comdat any

$_ZNSt8_Rb_treeIiiSt9_IdentityIiESt4lessIiESaIiEE7_S_leftEPSt18_Rb_tree_node_base = comdat any

$_ZNSt8_Rb_treeIiiSt9_IdentityIiESt4lessIiESaIiEE12_M_drop_nodeEPSt13_Rb_tree_nodeIiE = comdat any

$_ZNSt8_Rb_treeIiiSt9_IdentityIiESt4lessIiESaIiEE15_M_destroy_nodeEPSt13_Rb_tree_nodeIiE = comdat any

$_ZNSt8_Rb_treeIiiSt9_IdentityIiESt4lessIiESaIiEE11_M_put_nodeEPSt13_Rb_tree_nodeIiE = comdat any

$_ZNSt8_Rb_treeIiiSt9_IdentityIiESt4lessIiESaIiEE21_M_get_Node_allocatorEv = comdat any

$_ZNSt16allocator_traitsISaISt13_Rb_tree_nodeIiEEE10deallocateERS2_PS1_m = comdat any

$_ZN9__gnu_cxx13new_allocatorISt13_Rb_tree_nodeIiEE10deallocateEPS2_m = comdat any

$_ZNSt13_Rb_tree_nodeIiE9_M_valptrEv = comdat any

$_ZNSt16allocator_traitsISaISt13_Rb_tree_nodeIiEEE7destroyIiEEvRS2_PT_ = comdat any

$_ZN9__gnu_cxx13new_allocatorISt13_Rb_tree_nodeIiEE7destroyIiEEvPT_ = comdat any

$_ZN9__gnu_cxx16__aligned_membufIiE6_M_ptrEv = comdat any

$_ZN9__gnu_cxx16__aligned_membufIiE7_M_addrEv = comdat any

$_ZNSt8_Rb_treeIiiSt9_IdentityIiESt4lessIiESaIiEEC2Ev = comdat any

$_ZNSt8_Rb_treeIiiSt9_IdentityIiESt4lessIiESaIiEE13_Rb_tree_implIS3_Lb1EEC2Ev = comdat any

$_ZNSaISt13_Rb_tree_nodeIiEEC2Ev = comdat any

$_ZNSt20_Rb_tree_key_compareISt4lessIiEEC2Ev = comdat any

$_ZNSt15_Rb_tree_headerC2Ev = comdat any

$_ZNSt15_Rb_tree_header8_M_resetEv = comdat any

$_ZN9__gnu_cxx13new_allocatorISt13_Rb_tree_nodeIiEEC2Ev = comdat any

$_ZSt3minIxERKT_S2_S2_ = comdat any

$_ZSt3maxIxERKT_S2_S2_ = comdat any

$_ZSt3maxIiERKT_S2_S2_ = comdat any

$_ZSt3minIiERKT_S2_S2_ = comdat any

$_ZNSt4pairIiiEC2IRiS2_Lb1EEEOT_OT0_ = comdat any

$_ZNSt6vectorISt4pairIiiESaIS1_EE9push_backEOS1_ = comdat any

$_ZNSt6vectorISt4pairIiiESaIS1_EE6rbeginEv = comdat any

$_ZNSt6vectorISt4pairIiiESaIS1_EE4rendEv = comdat any

$_ZSt4sortISt16reverse_iteratorIN9__gnu_cxx17__normal_iteratorIPSt4pairIiiESt6vectorIS4_SaIS4_EEEEEEvT_SB_ = comdat any

$_ZNKSt6vectorISt4pairIiiESaIS1_EE4sizeEv = comdat any

$_ZNSt6vectorISt4pairIiiESaIS1_EEixEm = comdat any

$_ZNSt3setIiSt4lessIiESaIiEE11lower_boundERKi = comdat any

$_ZNKSt3setIiSt4lessIiESaIiEE3endEv = comdat any

$_ZStneRKSt23_Rb_tree_const_iteratorIiES2_ = comdat any

$_ZNKSt23_Rb_tree_const_iteratorIiEdeEv = comdat any

$_ZNKSt3setIiSt4lessIiESaIiEE5beginEv = comdat any

$_ZNSt23_Rb_tree_const_iteratorIiEmmEi = comdat any

$_ZNSt3setIiSt4lessIiESaIiEE6insertERKi = comdat any

$_ZNSt8_Rb_treeIiiSt9_IdentityIiESt4lessIiESaIiEE16_M_insert_uniqueIRKiEESt4pairISt17_Rb_tree_iteratorIiEbEOT_ = comdat any

$_ZNSt4pairISt23_Rb_tree_const_iteratorIiEbEC2IRSt17_Rb_tree_iteratorIiERbLb1EEEOT_OT0_ = comdat any

$_ZSt7forwardIRSt17_Rb_tree_iteratorIiEEOT_RNSt16remove_referenceIS3_E4typeE = comdat any

$_ZNSt23_Rb_tree_const_iteratorIiEC2ERKSt17_Rb_tree_iteratorIiE = comdat any

$_ZSt7forwardIRbEOT_RNSt16remove_referenceIS1_E4typeE = comdat any

$_ZNKSt9_IdentityIiEclERKi = comdat any

$_ZNSt8_Rb_treeIiiSt9_IdentityIiESt4lessIiESaIiEE24_M_get_insert_unique_posERKi = comdat any

$_ZNSt8_Rb_treeIiiSt9_IdentityIiESt4lessIiESaIiEE11_Alloc_nodeC2ERS5_ = comdat any

$_ZSt7forwardIRKiEOT_RNSt16remove_referenceIS2_E4typeE = comdat any

$_ZNSt8_Rb_treeIiiSt9_IdentityIiESt4lessIiESaIiEE10_M_insert_IRKiNS5_11_Alloc_nodeEEESt17_Rb_tree_iteratorIiEPSt18_Rb_tree_node_baseSD_OT_RT0_ = comdat any

$_ZNSt4pairISt17_Rb_tree_iteratorIiEbEC2IS1_bLb1EEEOT_OT0_ = comdat any

$_ZNSt17_Rb_tree_iteratorIiEC2EPSt18_Rb_tree_node_base = comdat any

$_ZSt7forwardISt17_Rb_tree_iteratorIiEEOT_RNSt16remove_referenceIS2_E4typeE = comdat any

$_ZSt7forwardIbEOT_RNSt16remove_referenceIS0_E4typeE = comdat any

$_ZNSt8_Rb_treeIiiSt9_IdentityIiESt4lessIiESaIiEE6_M_endEv = comdat any

$_ZNSt8_Rb_treeIiiSt9_IdentityIiESt4lessIiESaIiEE6_S_keyEPKSt18_Rb_tree_node_base = comdat any

$_ZNKSt4lessIiEclERKiS2_ = comdat any

$_ZNKSt8_Rb_treeIiiSt9_IdentityIiESt4lessIiESaIiEE11_Alloc_nodeclIRKiEEPSt13_Rb_tree_nodeIiEOT_ = comdat any

$_ZNSt8_Rb_treeIiiSt9_IdentityIiESt4lessIiESaIiEE14_M_create_nodeIJRKiEEEPSt13_Rb_tree_nodeIiEDpOT_ = comdat any

$_ZNSt8_Rb_treeIiiSt9_IdentityIiESt4lessIiESaIiEE11_M_get_nodeEv = comdat any

$_ZNSt8_Rb_treeIiiSt9_IdentityIiESt4lessIiESaIiEE17_M_construct_nodeIJRKiEEEvPSt13_Rb_tree_nodeIiEDpOT_ = comdat any

$_ZNSt16allocator_traitsISaISt13_Rb_tree_nodeIiEEE9constructIiJRKiEEEvRS2_PT_DpOT0_ = comdat any

$_ZN9__gnu_cxx13new_allocatorISt13_Rb_tree_nodeIiEE9constructIiJRKiEEEvPT_DpOT0_ = comdat any

$_ZNSt16allocator_traitsISaISt13_Rb_tree_nodeIiEEE8allocateERS2_m = comdat any

$_ZN9__gnu_cxx13new_allocatorISt13_Rb_tree_nodeIiEE8allocateEmPKv = comdat any

$_ZNK9__gnu_cxx13new_allocatorISt13_Rb_tree_nodeIiEE8max_sizeEv = comdat any

$_ZNSt8_Rb_treeIiiSt9_IdentityIiESt4lessIiESaIiEE6_S_keyEPKSt13_Rb_tree_nodeIiE = comdat any

$_ZNKSt13_Rb_tree_nodeIiE9_M_valptrEv = comdat any

$_ZNK9__gnu_cxx16__aligned_membufIiE6_M_ptrEv = comdat any

$_ZNK9__gnu_cxx16__aligned_membufIiE7_M_addrEv = comdat any

$_ZNSt8_Rb_treeIiiSt9_IdentityIiESt4lessIiESaIiEE5beginEv = comdat any

$_ZSteqRKSt17_Rb_tree_iteratorIiES2_ = comdat any

$_ZNSt4pairIPSt18_Rb_tree_node_baseS1_EC2IRPSt13_Rb_tree_nodeIiERS1_Lb1EEEOT_OT0_ = comdat any

$_ZNSt17_Rb_tree_iteratorIiEmmEv = comdat any

$_ZNSt4pairIPSt18_Rb_tree_node_baseS1_EC2IRS1_Lb1EEEOT_RKS1_ = comdat any

$_ZSt7forwardIRPSt18_Rb_tree_node_baseEOT_RNSt16remove_referenceIS3_E4typeE = comdat any

$_ZSt7forwardIRPSt13_Rb_tree_nodeIiEEOT_RNSt16remove_referenceIS4_E4typeE = comdat any

$_ZNKSt8_Rb_treeIiiSt9_IdentityIiESt4lessIiESaIiEE5beginEv = comdat any

$_ZNSt23_Rb_tree_const_iteratorIiEC2EPKSt18_Rb_tree_node_base = comdat any

$_ZNKSt8_Rb_treeIiiSt9_IdentityIiESt4lessIiESaIiEE3endEv = comdat any

$_ZNSt8_Rb_treeIiiSt9_IdentityIiESt4lessIiESaIiEE11lower_boundERKi = comdat any

$_ZNSt8_Rb_treeIiiSt9_IdentityIiESt4lessIiESaIiEE14_M_lower_boundEPSt13_Rb_tree_nodeIiEPSt18_Rb_tree_node_baseRKi = comdat any

$_ZNSt16reverse_iteratorIN9__gnu_cxx17__normal_iteratorIPSt4pairIiiESt6vectorIS3_SaIS3_EEEEEC2ERKS9_ = comdat any

$_ZN9__gnu_cxx5__ops16__iter_less_iterEv = comdat any

$_ZSt6__sortISt16reverse_iteratorIN9__gnu_cxx17__normal_iteratorIPSt4pairIiiESt6vectorIS4_SaIS4_EEEEENS1_5__ops15_Iter_less_iterEEvT_SD_T0_ = comdat any

$_ZStneIN9__gnu_cxx17__normal_iteratorIPSt4pairIiiESt6vectorIS3_SaIS3_EEEEEbRKSt16reverse_iteratorIT_ESD_ = comdat any

$_ZStmiIN9__gnu_cxx17__normal_iteratorIPSt4pairIiiESt6vectorIS3_SaIS3_EEEES8_EDTmicldtfp0_4baseEcldtfp_4baseEERKSt16reverse_iteratorIT_ERKSA_IT0_E = comdat any

$_ZSt4__lgl = comdat any

$_ZSt16__introsort_loopISt16reverse_iteratorIN9__gnu_cxx17__normal_iteratorIPSt4pairIiiESt6vectorIS4_SaIS4_EEEEElNS1_5__ops15_Iter_less_iterEEvT_SD_T0_T1_ = comdat any

$_ZSt22__final_insertion_sortISt16reverse_iteratorIN9__gnu_cxx17__normal_iteratorIPSt4pairIiiESt6vectorIS4_SaIS4_EEEEENS1_5__ops15_Iter_less_iterEEvT_SD_T0_ = comdat any

$_ZNKSt16reverse_iteratorIN9__gnu_cxx17__normal_iteratorIPSt4pairIiiESt6vectorIS3_SaIS3_EEEEEplEl = comdat any

$_ZSt16__insertion_sortISt16reverse_iteratorIN9__gnu_cxx17__normal_iteratorIPSt4pairIiiESt6vectorIS4_SaIS4_EEEEENS1_5__ops15_Iter_less_iterEEvT_SD_T0_ = comdat any

$_ZSt26__unguarded_insertion_sortISt16reverse_iteratorIN9__gnu_cxx17__normal_iteratorIPSt4pairIiiESt6vectorIS4_SaIS4_EEEEENS1_5__ops15_Iter_less_iterEEvT_SD_T0_ = comdat any

$_ZN9__gnu_cxx5__ops15__val_comp_iterENS0_15_Iter_less_iterE = comdat any

$_ZSt25__unguarded_linear_insertISt16reverse_iteratorIN9__gnu_cxx17__normal_iteratorIPSt4pairIiiESt6vectorIS4_SaIS4_EEEEENS1_5__ops14_Val_less_iterEEvT_T0_ = comdat any

$_ZNSt16reverse_iteratorIN9__gnu_cxx17__normal_iteratorIPSt4pairIiiESt6vectorIS3_SaIS3_EEEEEppEv = comdat any

$_ZN9__gnu_cxx17__normal_iteratorIPSt4pairIiiESt6vectorIS2_SaIS2_EEEmmEv = comdat any

$_ZNKSt16reverse_iteratorIN9__gnu_cxx17__normal_iteratorIPSt4pairIiiESt6vectorIS3_SaIS3_EEEEEdeEv = comdat any

$_ZSt4moveIRSt4pairIiiEEONSt16remove_referenceIT_E4typeEOS4_ = comdat any

$_ZNSt16reverse_iteratorIN9__gnu_cxx17__normal_iteratorIPSt4pairIiiESt6vectorIS3_SaIS3_EEEEEmmEv = comdat any

$_ZNK9__gnu_cxx5__ops14_Val_less_iterclISt4pairIiiESt16reverse_iteratorINS_17__normal_iteratorIPS4_St6vectorIS4_SaIS4_EEEEEEEbRT_T0_ = comdat any

$_ZNSt4pairIiiEaSEOS0_ = comdat any

$_ZSt7forwardIiEOT_RNSt16remove_referenceIS0_E4typeE = comdat any

$_ZStltIiiEbRKSt4pairIT_T0_ES5_ = comdat any

$_ZN9__gnu_cxx17__normal_iteratorIPSt4pairIiiESt6vectorIS2_SaIS2_EEEppEv = comdat any

$_ZNK9__gnu_cxx17__normal_iteratorIPSt4pairIiiESt6vectorIS2_SaIS2_EEEdeEv = comdat any

$_ZSteqIN9__gnu_cxx17__normal_iteratorIPSt4pairIiiESt6vectorIS3_SaIS3_EEEEEbRKSt16reverse_iteratorIT_ESD_ = comdat any

$_ZNK9__gnu_cxx5__ops15_Iter_less_iterclISt16reverse_iteratorINS_17__normal_iteratorIPSt4pairIiiESt6vectorIS6_SaIS6_EEEEESC_EEbT_T0_ = comdat any

$_ZSt13move_backwardISt16reverse_iteratorIN9__gnu_cxx17__normal_iteratorIPSt4pairIiiESt6vectorIS4_SaIS4_EEEEESA_ET0_T_SC_SB_ = comdat any

$_ZSt12__miter_baseIN9__gnu_cxx17__normal_iteratorIPSt4pairIiiESt6vectorIS3_SaIS3_EEEEEDTcl23__make_reverse_iteratorcl12__miter_basecldtfp_4baseEEEESt16reverse_iteratorIT_E = comdat any

$_ZSt23__copy_move_backward_a2ILb1ESt16reverse_iteratorIN9__gnu_cxx17__normal_iteratorIPSt4pairIiiESt6vectorIS4_SaIS4_EEEEESA_ET1_T0_SC_SB_ = comdat any

$_ZSt12__niter_baseIN9__gnu_cxx17__normal_iteratorIPSt4pairIiiESt6vectorIS3_SaIS3_EEEEEDTcl23__make_reverse_iteratorcl12__niter_basecldtfp_4baseEEEESt16reverse_iteratorIT_E = comdat any

$_ZSt22__copy_move_backward_aILb1ESt16reverse_iteratorIPSt4pairIiiEES4_ET1_T0_S6_S5_ = comdat any

$_ZSt12__niter_wrapISt16reverse_iteratorIN9__gnu_cxx17__normal_iteratorIPSt4pairIiiESt6vectorIS4_SaIS4_EEEEES0_IS5_EET_SC_T0_ = comdat any

$_ZStmiIPSt4pairIiiES2_EDTmicldtfp0_4baseEcldtfp_4baseEERKSt16reverse_iteratorIT_ERKS4_IT0_E = comdat any

$_ZNKSt16reverse_iteratorIPSt4pairIiiEE4baseEv = comdat any

$_ZNSt16reverse_iteratorIPSt4pairIiiEEC2ERKS3_ = comdat any

$_ZNSt20__copy_move_backwardILb1ELb0ESt26random_access_iterator_tagE13__copy_move_bISt16reverse_iteratorIPSt4pairIiiEES7_EET0_T_S9_S8_ = comdat any

$_ZNSt16reverse_iteratorIPSt4pairIiiEEmmEv = comdat any

$_ZNKSt16reverse_iteratorIPSt4pairIiiEEdeEv = comdat any

$_ZNKSt16reverse_iteratorIN9__gnu_cxx17__normal_iteratorIPSt4pairIiiESt6vectorIS3_SaIS3_EEEEE4baseEv = comdat any

$_ZSt12__niter_baseIPSt4pairIiiESt6vectorIS1_SaIS1_EEET_N9__gnu_cxx17__normal_iteratorIS6_T0_EE = comdat any

$_ZSt23__make_reverse_iteratorIPSt4pairIiiEESt16reverse_iteratorIT_ES4_ = comdat any

$_ZNSt16reverse_iteratorIPSt4pairIiiEEC2ES2_ = comdat any

$_ZNK9__gnu_cxx17__normal_iteratorIPSt4pairIiiESt6vectorIS2_SaIS2_EEE4baseEv = comdat any

$_ZSt12__miter_baseIN9__gnu_cxx17__normal_iteratorIPSt4pairIiiESt6vectorIS3_SaIS3_EEEEET_S9_ = comdat any

$_ZSt23__make_reverse_iteratorIN9__gnu_cxx17__normal_iteratorIPSt4pairIiiESt6vectorIS3_SaIS3_EEEEESt16reverse_iteratorIT_ESA_ = comdat any

$_ZNSt16reverse_iteratorIN9__gnu_cxx17__normal_iteratorIPSt4pairIiiESt6vectorIS3_SaIS3_EEEEEC2ES8_ = comdat any

$_ZN9__gnu_cxxeqIPSt4pairIiiESt6vectorIS2_SaIS2_EEEEbRKNS_17__normal_iteratorIT_T0_EESC_ = comdat any

$_ZNK9__gnu_cxx17__normal_iteratorIPSt4pairIiiESt6vectorIS2_SaIS2_EEEmiEl = comdat any

$_ZN9__gnu_cxx17__normal_iteratorIPSt4pairIiiESt6vectorIS2_SaIS2_EEEC2ERKS3_ = comdat any

$_ZSt14__partial_sortISt16reverse_iteratorIN9__gnu_cxx17__normal_iteratorIPSt4pairIiiESt6vectorIS4_SaIS4_EEEEENS1_5__ops15_Iter_less_iterEEvT_SD_SD_T0_ = comdat any

$_ZSt27__unguarded_partition_pivotISt16reverse_iteratorIN9__gnu_cxx17__normal_iteratorIPSt4pairIiiESt6vectorIS4_SaIS4_EEEEENS1_5__ops15_Iter_less_iterEET_SD_SD_T0_ = comdat any

$_ZNKSt16reverse_iteratorIN9__gnu_cxx17__normal_iteratorIPSt4pairIiiESt6vectorIS3_SaIS3_EEEEEmiEl = comdat any

$_ZSt22__move_median_to_firstISt16reverse_iteratorIN9__gnu_cxx17__normal_iteratorIPSt4pairIiiESt6vectorIS4_SaIS4_EEEEENS1_5__ops15_Iter_less_iterEEvT_SD_SD_SD_T0_ = comdat any

$_ZSt21__unguarded_partitionISt16reverse_iteratorIN9__gnu_cxx17__normal_iteratorIPSt4pairIiiESt6vectorIS4_SaIS4_EEEEENS1_5__ops15_Iter_less_iterEET_SD_SD_SD_T0_ = comdat any

$_ZStltIN9__gnu_cxx17__normal_iteratorIPSt4pairIiiESt6vectorIS3_SaIS3_EEEEEbRKSt16reverse_iteratorIT_ESD_ = comdat any

$_ZSt9iter_swapISt16reverse_iteratorIN9__gnu_cxx17__normal_iteratorIPSt4pairIiiESt6vectorIS4_SaIS4_EEEEESA_EvT_T0_ = comdat any

$_ZSt4swapIiiENSt9enable_ifIXsr6__and_ISt14__is_swappableIT_ES1_IT0_EEE5valueEvE4typeERSt4pairIS2_S4_ESA_ = comdat any

$_ZNSt4pairIiiE4swapERS0_ = comdat any

$_ZSt4swapIiENSt9enable_ifIXsr6__and_ISt6__not_ISt15__is_tuple_likeIT_EESt21is_move_constructibleIS3_ESt18is_move_assignableIS3_EEE5valueEvE4typeERS3_SC_ = comdat any

$_ZSt4moveIRiEONSt16remove_referenceIT_E4typeEOS2_ = comdat any

$_ZN9__gnu_cxxltIPSt4pairIiiESt6vectorIS2_SaIS2_EEEEbRKNS_17__normal_iteratorIT_T0_EESC_ = comdat any

$_ZNK9__gnu_cxx17__normal_iteratorIPSt4pairIiiESt6vectorIS2_SaIS2_EEEplEl = comdat any

$_ZSt13__heap_selectISt16reverse_iteratorIN9__gnu_cxx17__normal_iteratorIPSt4pairIiiESt6vectorIS4_SaIS4_EEEEENS1_5__ops15_Iter_less_iterEEvT_SD_SD_T0_ = comdat any

$_ZSt11__sort_heapISt16reverse_iteratorIN9__gnu_cxx17__normal_iteratorIPSt4pairIiiESt6vectorIS4_SaIS4_EEEEENS1_5__ops15_Iter_less_iterEEvT_SD_RT0_ = comdat any

$_ZSt10__pop_heapISt16reverse_iteratorIN9__gnu_cxx17__normal_iteratorIPSt4pairIiiESt6vectorIS4_SaIS4_EEEEENS1_5__ops15_Iter_less_iterEEvT_SD_SD_RT0_ = comdat any

$_ZSt13__adjust_heapISt16reverse_iteratorIN9__gnu_cxx17__normal_iteratorIPSt4pairIiiESt6vectorIS4_SaIS4_EEEEElS4_NS1_5__ops15_Iter_less_iterEEvT_T0_SE_T1_T2_ = comdat any

$_ZSt4moveIRN9__gnu_cxx5__ops15_Iter_less_iterEEONSt16remove_referenceIT_E4typeEOS5_ = comdat any

$_ZN9__gnu_cxx5__ops14_Iter_less_valC2ENS0_15_Iter_less_iterE = comdat any

$_ZSt11__push_heapISt16reverse_iteratorIN9__gnu_cxx17__normal_iteratorIPSt4pairIiiESt6vectorIS4_SaIS4_EEEEElS4_NS1_5__ops14_Iter_less_valEEvT_T0_SE_T1_RT2_ = comdat any

$_ZNK9__gnu_cxx5__ops14_Iter_less_valclISt16reverse_iteratorINS_17__normal_iteratorIPSt4pairIiiESt6vectorIS6_SaIS6_EEEEES6_EEbT_RT0_ = comdat any

$_ZSt11__make_heapISt16reverse_iteratorIN9__gnu_cxx17__normal_iteratorIPSt4pairIiiESt6vectorIS4_SaIS4_EEEEENS1_5__ops15_Iter_less_iterEEvT_SD_RT0_ = comdat any

$_ZN9__gnu_cxxmiIPSt4pairIiiESt6vectorIS2_SaIS2_EEEENS_17__normal_iteratorIT_T0_E15difference_typeERKSA_SD_ = comdat any

$_ZNSt6vectorISt4pairIiiESaIS1_EE5beginEv = comdat any

$_ZNSt6vectorISt4pairIiiESaIS1_EE3endEv = comdat any

$_ZNSt6vectorISt4pairIiiESaIS1_EE12emplace_backIJS1_EEEvDpOT_ = comdat any

$_ZSt7forwardISt4pairIiiEEOT_RNSt16remove_referenceIS2_E4typeE = comdat any

$_ZNSt16allocator_traitsISaISt4pairIiiEEE9constructIS1_JS1_EEEvRS2_PT_DpOT0_ = comdat any

$_ZNSt6vectorISt4pairIiiESaIS1_EE17_M_realloc_insertIJS1_EEEvN9__gnu_cxx17__normal_iteratorIPS1_S3_EEDpOT_ = comdat any

$_ZNKSt6vectorISt4pairIiiESaIS1_EE12_M_check_lenEmPKc = comdat any

$_ZNSt12_Vector_baseISt4pairIiiESaIS1_EE11_M_allocateEm = comdat any

$_ZNSt6vectorISt4pairIiiESaIS1_EE11_S_relocateEPS1_S4_S4_RS2_ = comdat any

$_ZNSt6vectorISt4pairIiiESaIS1_EE14_S_do_relocateEPS1_S4_S4_RS2_St17integral_constantIbLb1EE = comdat any

$_ZSt12__relocate_aIPSt4pairIiiES2_SaIS1_EET0_T_S5_S4_RT1_ = comdat any

$_ZSt12__niter_baseIPSt4pairIiiEET_S3_ = comdat any

$_ZSt14__relocate_a_1IPSt4pairIiiES2_SaIS1_EET0_T_S5_S4_RT1_ = comdat any

$_ZSt11__addressofISt4pairIiiEEPT_RS2_ = comdat any

$_ZSt19__relocate_object_aISt4pairIiiES1_SaIS1_EEvPT_PT0_RT1_ = comdat any

$_ZNSt16allocator_traitsISaISt4pairIiiEEE7destroyIS1_EEvRS2_PT_ = comdat any

$_ZN9__gnu_cxx13new_allocatorISt4pairIiiEE7destroyIS2_EEvPT_ = comdat any

$_ZNSt16allocator_traitsISaISt4pairIiiEEE8allocateERS2_m = comdat any

$_ZN9__gnu_cxx13new_allocatorISt4pairIiiEE8allocateEmPKv = comdat any

$_ZNK9__gnu_cxx13new_allocatorISt4pairIiiEE8max_sizeEv = comdat any

$_ZNKSt6vectorISt4pairIiiESaIS1_EE8max_sizeEv = comdat any

$_ZSt3maxImERKT_S2_S2_ = comdat any

$_ZNKSt12_Vector_baseISt4pairIiiESaIS1_EE19_M_get_Tp_allocatorEv = comdat any

$_ZNSt6vectorISt4pairIiiESaIS1_EE11_S_max_sizeERKS2_ = comdat any

$_ZNSt16allocator_traitsISaISt4pairIiiEEE8max_sizeERKS2_ = comdat any

$_ZSt3minImERKT_S2_S2_ = comdat any

$_ZN9__gnu_cxx13new_allocatorISt4pairIiiEE9constructIS2_JS2_EEEvPT_DpOT0_ = comdat any

$_ZSt7forwardIRiEOT_RNSt16remove_referenceIS1_E4typeE = comdat any

@llvm.global_ctors = appending global [1 x { i32, void ()*, i8* }] [{ i32, void ()*, i8* } { i32 65535, void ()* @_GLOBAL__sub_I_StrangeFunction.cpp, i8* null }]
@_ZStL8__ioinit = internal global %"struct.std::less" zeroinitializer, align 1
@n = dso_local global i32 0, align 4
@a = dso_local global [50005 x i32] zeroinitializer, align 16
@lg2 = dso_local global [50005 x i32] zeroinitializer, align 16
@G = dso_local global [50005 x [19 x i32]] zeroinitializer, align 16
@mn = dso_local global [50005 x [19 x i64]] zeroinitializer, align 16
@mx = dso_local global [50005 x [19 x i64]] zeroinitializer, align 16
@S = dso_local global %"class.std::set" zeroinitializer, align 8
@seq = dso_local global %"class.std::vector" zeroinitializer, align 8
@res = dso_local global i64 -9000000000000000000, align 8
@.str = private unnamed_addr constant [31 x i8] c"../input_files/StrangeFunction\00", align 1
@.str.3 = private unnamed_addr constant [2 x i8] c"r\00", align 1
@stdin = external dso_local global %struct._IO_FILE*, align 8
@.str.4 = private unnamed_addr constant [3 x i8] c"%d\00", align 1
@_ZSt4cout = external dso_local global %"class.std::basic_ostream", align 8
@.str.5 = private unnamed_addr constant [26 x i8] c"vector::_M_realloc_insert\00", align 1

; Function Attrs: noinline uwtable
define internal void @_GLOBAL__sub_I_StrangeFunction.cpp() #0 section ".text.startup" {
  call void @__cxx_global_var_init(), !llfi_index !4
  call void @__cxx_global_var_init.1(), !llfi_index !5
  call void @__cxx_global_var_init.2(), !llfi_index !6
  ret void, !llfi_index !7
}

; Function Attrs: noinline uwtable
define internal void @__cxx_global_var_init() #0 section ".text.startup" {
  call void @_ZNSt8ios_base4InitC1Ev(%"struct.std::less"* nonnull align 1 dereferenceable(1) @_ZStL8__ioinit), !llfi_index !8
  %1 = call i32 @atexit(void ()* @__dtor__ZStL8__ioinit) #2, !llfi_index !9
  ret void, !llfi_index !10
}

; Function Attrs: noinline uwtable
define internal void @__cxx_global_var_init.1() #0 section ".text.startup" {
  call void @_ZNSt3setIiSt4lessIiESaIiEEC2Ev(%"class.std::set"* nonnull align 8 dereferenceable(48) @S) #2, !llfi_index !11
  %1 = call i32 @atexit(void ()* @__dtor_S) #2, !llfi_index !12
  ret void, !llfi_index !13
}

; Function Attrs: noinline uwtable
define internal void @__cxx_global_var_init.2() #0 section ".text.startup" {
  call void @_ZNSt6vectorISt4pairIiiESaIS1_EEC2Ev(%"class.std::vector"* nonnull align 8 dereferenceable(24) @seq) #2, !llfi_index !14
  %1 = call i32 @atexit(void ()* @__dtor_seq) #2, !llfi_index !15
  ret void, !llfi_index !16
}

; Function Attrs: noinline nounwind uwtable
define linkonce_odr dso_local void @_ZNSt6vectorISt4pairIiiESaIS1_EEC2Ev(%"class.std::vector"* nonnull align 8 dereferenceable(24) %0) unnamed_addr #1 comdat align 2 {
  %2 = alloca %"class.std::vector"*, align 8, !llfi_index !17
  store %"class.std::vector"* %0, %"class.std::vector"** %2, align 8, !llfi_index !18
  %3 = load %"class.std::vector"*, %"class.std::vector"** %2, align 8, !llfi_index !19
  %4 = bitcast %"class.std::vector"* %3 to %"struct.std::_Vector_base"*, !llfi_index !20
  call void @_ZNSt12_Vector_baseISt4pairIiiESaIS1_EEC2Ev(%"struct.std::_Vector_base"* nonnull align 8 dereferenceable(24) %4) #2, !llfi_index !21
  ret void, !llfi_index !22
}

; Function Attrs: noinline uwtable
define internal void @__dtor_seq() #0 section ".text.startup" {
  call void @_ZNSt6vectorISt4pairIiiESaIS1_EED2Ev(%"class.std::vector"* @seq), !llfi_index !23
  ret void, !llfi_index !24
}

; Function Attrs: nounwind
declare dso_local i32 @atexit(void ()*) #2

; Function Attrs: noinline nounwind uwtable
define linkonce_odr dso_local void @_ZNSt6vectorISt4pairIiiESaIS1_EED2Ev(%"class.std::vector"* nonnull align 8 dereferenceable(24) %0) unnamed_addr #1 comdat align 2 personality i8* bitcast (i32 (...)* @__gxx_personality_v0 to i8*) {
  %2 = alloca %"class.std::vector"*, align 8, !llfi_index !25
  %3 = alloca i8*, align 8, !llfi_index !26
  %4 = alloca i32, align 4, !llfi_index !27
  store %"class.std::vector"* %0, %"class.std::vector"** %2, align 8, !llfi_index !28
  %5 = load %"class.std::vector"*, %"class.std::vector"** %2, align 8, !llfi_index !29
  %6 = bitcast %"class.std::vector"* %5 to %"struct.std::_Vector_base"*, !llfi_index !30
  %7 = getelementptr inbounds %"struct.std::_Vector_base", %"struct.std::_Vector_base"* %6, i32 0, i32 0, !llfi_index !31
  %8 = bitcast %"struct.std::_Vector_base<std::pair<int, int>, std::allocator<std::pair<int, int>>>::_Vector_impl"* %7 to %"struct.std::_Vector_base<std::pair<int, int>, std::allocator<std::pair<int, int>>>::_Vector_impl_data"*, !llfi_index !32
  %9 = getelementptr inbounds %"struct.std::_Vector_base<std::pair<int, int>, std::allocator<std::pair<int, int>>>::_Vector_impl_data", %"struct.std::_Vector_base<std::pair<int, int>, std::allocator<std::pair<int, int>>>::_Vector_impl_data"* %8, i32 0, i32 0, !llfi_index !33
  %10 = load %"struct.std::pair"*, %"struct.std::pair"** %9, align 8, !llfi_index !34
  %11 = bitcast %"class.std::vector"* %5 to %"struct.std::_Vector_base"*, !llfi_index !35
  %12 = getelementptr inbounds %"struct.std::_Vector_base", %"struct.std::_Vector_base"* %11, i32 0, i32 0, !llfi_index !36
  %13 = bitcast %"struct.std::_Vector_base<std::pair<int, int>, std::allocator<std::pair<int, int>>>::_Vector_impl"* %12 to %"struct.std::_Vector_base<std::pair<int, int>, std::allocator<std::pair<int, int>>>::_Vector_impl_data"*, !llfi_index !37
  %14 = getelementptr inbounds %"struct.std::_Vector_base<std::pair<int, int>, std::allocator<std::pair<int, int>>>::_Vector_impl_data", %"struct.std::_Vector_base<std::pair<int, int>, std::allocator<std::pair<int, int>>>::_Vector_impl_data"* %13, i32 0, i32 1, !llfi_index !38
  %15 = load %"struct.std::pair"*, %"struct.std::pair"** %14, align 8, !llfi_index !39
  %16 = bitcast %"class.std::vector"* %5 to %"struct.std::_Vector_base"*, !llfi_index !40
  %17 = call nonnull align 1 dereferenceable(1) %"struct.std::less"* @_ZNSt12_Vector_baseISt4pairIiiESaIS1_EE19_M_get_Tp_allocatorEv(%"struct.std::_Vector_base"* nonnull align 8 dereferenceable(24) %16) #2, !llfi_index !41
  invoke void @_ZSt8_DestroyIPSt4pairIiiES1_EvT_S3_RSaIT0_E(%"struct.std::pair"* %10, %"struct.std::pair"* %15, %"struct.std::less"* nonnull align 1 dereferenceable(1) %17)
          to label %18 unwind label %20, !llfi_index !42

18:                                               ; preds = %1
  %19 = bitcast %"class.std::vector"* %5 to %"struct.std::_Vector_base"*, !llfi_index !43
  call void @_ZNSt12_Vector_baseISt4pairIiiESaIS1_EED2Ev(%"struct.std::_Vector_base"* nonnull align 8 dereferenceable(24) %19) #2, !llfi_index !44
  ret void, !llfi_index !45

20:                                               ; preds = %1
  %21 = landingpad { i8*, i32 }
          catch i8* null, !llfi_index !46
  %22 = extractvalue { i8*, i32 } %21, 0, !llfi_index !47
  store i8* %22, i8** %3, align 8, !llfi_index !48
  %23 = extractvalue { i8*, i32 } %21, 1, !llfi_index !49
  store i32 %23, i32* %4, align 4, !llfi_index !50
  %24 = bitcast %"class.std::vector"* %5 to %"struct.std::_Vector_base"*, !llfi_index !51
  call void @_ZNSt12_Vector_baseISt4pairIiiESaIS1_EED2Ev(%"struct.std::_Vector_base"* nonnull align 8 dereferenceable(24) %24) #2, !llfi_index !52
  br label %25, !llfi_index !53

25:                                               ; preds = %20
  %26 = load i8*, i8** %3, align 8, !llfi_index !54
  call void @__clang_call_terminate(i8* %26) #16, !llfi_index !55
  unreachable, !llfi_index !56
}

declare dso_local i32 @__gxx_personality_v0(...)

; Function Attrs: mustprogress noinline nounwind uwtable
define linkonce_odr dso_local nonnull align 1 dereferenceable(1) %"struct.std::less"* @_ZNSt12_Vector_baseISt4pairIiiESaIS1_EE19_M_get_Tp_allocatorEv(%"struct.std::_Vector_base"* nonnull align 8 dereferenceable(24) %0) #3 comdat align 2 {
  %2 = alloca %"struct.std::_Vector_base"*, align 8, !llfi_index !57
  store %"struct.std::_Vector_base"* %0, %"struct.std::_Vector_base"** %2, align 8, !llfi_index !58
  %3 = load %"struct.std::_Vector_base"*, %"struct.std::_Vector_base"** %2, align 8, !llfi_index !59
  %4 = getelementptr inbounds %"struct.std::_Vector_base", %"struct.std::_Vector_base"* %3, i32 0, i32 0, !llfi_index !60
  %5 = bitcast %"struct.std::_Vector_base<std::pair<int, int>, std::allocator<std::pair<int, int>>>::_Vector_impl"* %4 to %"struct.std::less"*, !llfi_index !61
  ret %"struct.std::less"* %5, !llfi_index !62
}

; Function Attrs: mustprogress noinline uwtable
define linkonce_odr dso_local void @_ZSt8_DestroyIPSt4pairIiiES1_EvT_S3_RSaIT0_E(%"struct.std::pair"* %0, %"struct.std::pair"* %1, %"struct.std::less"* nonnull align 1 dereferenceable(1) %2) #4 comdat {
  %4 = alloca %"struct.std::pair"*, align 8, !llfi_index !63
  %5 = alloca %"struct.std::pair"*, align 8, !llfi_index !64
  %6 = alloca %"struct.std::less"*, align 8, !llfi_index !65
  store %"struct.std::pair"* %0, %"struct.std::pair"** %4, align 8, !llfi_index !66
  store %"struct.std::pair"* %1, %"struct.std::pair"** %5, align 8, !llfi_index !67
  store %"struct.std::less"* %2, %"struct.std::less"** %6, align 8, !llfi_index !68
  %7 = load %"struct.std::pair"*, %"struct.std::pair"** %4, align 8, !llfi_index !69
  %8 = load %"struct.std::pair"*, %"struct.std::pair"** %5, align 8, !llfi_index !70
  call void @_ZSt8_DestroyIPSt4pairIiiEEvT_S3_(%"struct.std::pair"* %7, %"struct.std::pair"* %8), !llfi_index !71
  ret void, !llfi_index !72
}

; Function Attrs: noinline nounwind uwtable
define linkonce_odr dso_local void @_ZNSt12_Vector_baseISt4pairIiiESaIS1_EED2Ev(%"struct.std::_Vector_base"* nonnull align 8 dereferenceable(24) %0) unnamed_addr #1 comdat align 2 personality i8* bitcast (i32 (...)* @__gxx_personality_v0 to i8*) {
  %2 = alloca %"struct.std::_Vector_base"*, align 8, !llfi_index !73
  %3 = alloca i8*, align 8, !llfi_index !74
  %4 = alloca i32, align 4, !llfi_index !75
  store %"struct.std::_Vector_base"* %0, %"struct.std::_Vector_base"** %2, align 8, !llfi_index !76
  %5 = load %"struct.std::_Vector_base"*, %"struct.std::_Vector_base"** %2, align 8, !llfi_index !77
  %6 = getelementptr inbounds %"struct.std::_Vector_base", %"struct.std::_Vector_base"* %5, i32 0, i32 0, !llfi_index !78
  %7 = bitcast %"struct.std::_Vector_base<std::pair<int, int>, std::allocator<std::pair<int, int>>>::_Vector_impl"* %6 to %"struct.std::_Vector_base<std::pair<int, int>, std::allocator<std::pair<int, int>>>::_Vector_impl_data"*, !llfi_index !79
  %8 = getelementptr inbounds %"struct.std::_Vector_base<std::pair<int, int>, std::allocator<std::pair<int, int>>>::_Vector_impl_data", %"struct.std::_Vector_base<std::pair<int, int>, std::allocator<std::pair<int, int>>>::_Vector_impl_data"* %7, i32 0, i32 0, !llfi_index !80
  %9 = load %"struct.std::pair"*, %"struct.std::pair"** %8, align 8, !llfi_index !81
  %10 = getelementptr inbounds %"struct.std::_Vector_base", %"struct.std::_Vector_base"* %5, i32 0, i32 0, !llfi_index !82
  %11 = bitcast %"struct.std::_Vector_base<std::pair<int, int>, std::allocator<std::pair<int, int>>>::_Vector_impl"* %10 to %"struct.std::_Vector_base<std::pair<int, int>, std::allocator<std::pair<int, int>>>::_Vector_impl_data"*, !llfi_index !83
  %12 = getelementptr inbounds %"struct.std::_Vector_base<std::pair<int, int>, std::allocator<std::pair<int, int>>>::_Vector_impl_data", %"struct.std::_Vector_base<std::pair<int, int>, std::allocator<std::pair<int, int>>>::_Vector_impl_data"* %11, i32 0, i32 2, !llfi_index !84
  %13 = load %"struct.std::pair"*, %"struct.std::pair"** %12, align 8, !llfi_index !85
  %14 = getelementptr inbounds %"struct.std::_Vector_base", %"struct.std::_Vector_base"* %5, i32 0, i32 0, !llfi_index !86
  %15 = bitcast %"struct.std::_Vector_base<std::pair<int, int>, std::allocator<std::pair<int, int>>>::_Vector_impl"* %14 to %"struct.std::_Vector_base<std::pair<int, int>, std::allocator<std::pair<int, int>>>::_Vector_impl_data"*, !llfi_index !87
  %16 = getelementptr inbounds %"struct.std::_Vector_base<std::pair<int, int>, std::allocator<std::pair<int, int>>>::_Vector_impl_data", %"struct.std::_Vector_base<std::pair<int, int>, std::allocator<std::pair<int, int>>>::_Vector_impl_data"* %15, i32 0, i32 0, !llfi_index !88
  %17 = load %"struct.std::pair"*, %"struct.std::pair"** %16, align 8, !llfi_index !89
  %18 = ptrtoint %"struct.std::pair"* %13 to i64, !llfi_index !90
  %19 = ptrtoint %"struct.std::pair"* %17 to i64, !llfi_index !91
  %20 = sub i64 %18, %19, !llfi_index !92
  %21 = sdiv exact i64 %20, 8, !llfi_index !93
  invoke void @_ZNSt12_Vector_baseISt4pairIiiESaIS1_EE13_M_deallocateEPS1_m(%"struct.std::_Vector_base"* nonnull align 8 dereferenceable(24) %5, %"struct.std::pair"* %9, i64 %21)
          to label %22 unwind label %24, !llfi_index !94

22:                                               ; preds = %1
  %23 = getelementptr inbounds %"struct.std::_Vector_base", %"struct.std::_Vector_base"* %5, i32 0, i32 0, !llfi_index !95
  call void @_ZNSt12_Vector_baseISt4pairIiiESaIS1_EE12_Vector_implD2Ev(%"struct.std::_Vector_base<std::pair<int, int>, std::allocator<std::pair<int, int>>>::_Vector_impl"* nonnull align 8 dereferenceable(24) %23) #2, !llfi_index !96
  ret void, !llfi_index !97

24:                                               ; preds = %1
  %25 = landingpad { i8*, i32 }
          catch i8* null, !llfi_index !98
  %26 = extractvalue { i8*, i32 } %25, 0, !llfi_index !99
  store i8* %26, i8** %3, align 8, !llfi_index !100
  %27 = extractvalue { i8*, i32 } %25, 1, !llfi_index !101
  store i32 %27, i32* %4, align 4, !llfi_index !102
  %28 = getelementptr inbounds %"struct.std::_Vector_base", %"struct.std::_Vector_base"* %5, i32 0, i32 0, !llfi_index !103
  call void @_ZNSt12_Vector_baseISt4pairIiiESaIS1_EE12_Vector_implD2Ev(%"struct.std::_Vector_base<std::pair<int, int>, std::allocator<std::pair<int, int>>>::_Vector_impl"* nonnull align 8 dereferenceable(24) %28) #2, !llfi_index !104
  br label %29, !llfi_index !105

29:                                               ; preds = %24
  %30 = load i8*, i8** %3, align 8, !llfi_index !106
  call void @__clang_call_terminate(i8* %30) #16, !llfi_index !107
  unreachable, !llfi_index !108
}

; Function Attrs: noinline noreturn nounwind
define linkonce_odr hidden void @__clang_call_terminate(i8* %0) #5 comdat {
  %2 = call i8* @__cxa_begin_catch(i8* %0) #2, !llfi_index !109
  call void @_ZSt9terminatev() #16, !llfi_index !110
  unreachable, !llfi_index !111
}

declare dso_local i8* @__cxa_begin_catch(i8*)

declare dso_local void @_ZSt9terminatev()

; Function Attrs: mustprogress noinline uwtable
define linkonce_odr dso_local void @_ZNSt12_Vector_baseISt4pairIiiESaIS1_EE13_M_deallocateEPS1_m(%"struct.std::_Vector_base"* nonnull align 8 dereferenceable(24) %0, %"struct.std::pair"* %1, i64 %2) #4 comdat align 2 {
  %4 = alloca %"struct.std::_Vector_base"*, align 8, !llfi_index !112
  %5 = alloca %"struct.std::pair"*, align 8, !llfi_index !113
  %6 = alloca i64, align 8, !llfi_index !114
  store %"struct.std::_Vector_base"* %0, %"struct.std::_Vector_base"** %4, align 8, !llfi_index !115
  store %"struct.std::pair"* %1, %"struct.std::pair"** %5, align 8, !llfi_index !116
  store i64 %2, i64* %6, align 8, !llfi_index !117
  %7 = load %"struct.std::_Vector_base"*, %"struct.std::_Vector_base"** %4, align 8, !llfi_index !118
  %8 = load %"struct.std::pair"*, %"struct.std::pair"** %5, align 8, !llfi_index !119
  %9 = icmp ne %"struct.std::pair"* %8, null, !llfi_index !120
  br i1 %9, label %10, label %15, !llfi_index !121

10:                                               ; preds = %3
  %11 = getelementptr inbounds %"struct.std::_Vector_base", %"struct.std::_Vector_base"* %7, i32 0, i32 0, !llfi_index !122
  %12 = bitcast %"struct.std::_Vector_base<std::pair<int, int>, std::allocator<std::pair<int, int>>>::_Vector_impl"* %11 to %"struct.std::less"*, !llfi_index !123
  %13 = load %"struct.std::pair"*, %"struct.std::pair"** %5, align 8, !llfi_index !124
  %14 = load i64, i64* %6, align 8, !llfi_index !125
  call void @_ZNSt16allocator_traitsISaISt4pairIiiEEE10deallocateERS2_PS1_m(%"struct.std::less"* nonnull align 1 dereferenceable(1) %12, %"struct.std::pair"* %13, i64 %14), !llfi_index !126
  br label %15, !llfi_index !127

15:                                               ; preds = %10, %3
  ret void, !llfi_index !128
}

; Function Attrs: noinline nounwind uwtable
define linkonce_odr dso_local void @_ZNSt12_Vector_baseISt4pairIiiESaIS1_EE12_Vector_implD2Ev(%"struct.std::_Vector_base<std::pair<int, int>, std::allocator<std::pair<int, int>>>::_Vector_impl"* nonnull align 8 dereferenceable(24) %0) unnamed_addr #1 comdat align 2 {
  %2 = alloca %"struct.std::_Vector_base<std::pair<int, int>, std::allocator<std::pair<int, int>>>::_Vector_impl"*, align 8, !llfi_index !129
  store %"struct.std::_Vector_base<std::pair<int, int>, std::allocator<std::pair<int, int>>>::_Vector_impl"* %0, %"struct.std::_Vector_base<std::pair<int, int>, std::allocator<std::pair<int, int>>>::_Vector_impl"** %2, align 8, !llfi_index !130
  %3 = load %"struct.std::_Vector_base<std::pair<int, int>, std::allocator<std::pair<int, int>>>::_Vector_impl"*, %"struct.std::_Vector_base<std::pair<int, int>, std::allocator<std::pair<int, int>>>::_Vector_impl"** %2, align 8, !llfi_index !131
  %4 = bitcast %"struct.std::_Vector_base<std::pair<int, int>, std::allocator<std::pair<int, int>>>::_Vector_impl"* %3 to %"struct.std::less"*, !llfi_index !132
  call void @_ZNSaISt4pairIiiEED2Ev(%"struct.std::less"* nonnull align 1 dereferenceable(1) %4) #2, !llfi_index !133
  ret void, !llfi_index !134
}

; Function Attrs: noinline nounwind uwtable
define linkonce_odr dso_local void @_ZNSaISt4pairIiiEED2Ev(%"struct.std::less"* nonnull align 1 dereferenceable(1) %0) unnamed_addr #1 comdat align 2 {
  %2 = alloca %"struct.std::less"*, align 8, !llfi_index !135
  store %"struct.std::less"* %0, %"struct.std::less"** %2, align 8, !llfi_index !136
  %3 = load %"struct.std::less"*, %"struct.std::less"** %2, align 8, !llfi_index !137
  %4 = bitcast %"struct.std::less"* %3 to %"struct.std::less"*, !llfi_index !138
  call void @_ZN9__gnu_cxx13new_allocatorISt4pairIiiEED2Ev(%"struct.std::less"* nonnull align 1 dereferenceable(1) %4) #2, !llfi_index !139
  ret void, !llfi_index !140
}

; Function Attrs: noinline nounwind uwtable
define linkonce_odr dso_local void @_ZN9__gnu_cxx13new_allocatorISt4pairIiiEED2Ev(%"struct.std::less"* nonnull align 1 dereferenceable(1) %0) unnamed_addr #1 comdat align 2 {
  %2 = alloca %"struct.std::less"*, align 8, !llfi_index !141
  store %"struct.std::less"* %0, %"struct.std::less"** %2, align 8, !llfi_index !142
  %3 = load %"struct.std::less"*, %"struct.std::less"** %2, align 8, !llfi_index !143
  ret void, !llfi_index !144
}

; Function Attrs: mustprogress noinline uwtable
define linkonce_odr dso_local void @_ZNSt16allocator_traitsISaISt4pairIiiEEE10deallocateERS2_PS1_m(%"struct.std::less"* nonnull align 1 dereferenceable(1) %0, %"struct.std::pair"* %1, i64 %2) #4 comdat align 2 {
  %4 = alloca %"struct.std::less"*, align 8, !llfi_index !145
  %5 = alloca %"struct.std::pair"*, align 8, !llfi_index !146
  %6 = alloca i64, align 8, !llfi_index !147
  store %"struct.std::less"* %0, %"struct.std::less"** %4, align 8, !llfi_index !148
  store %"struct.std::pair"* %1, %"struct.std::pair"** %5, align 8, !llfi_index !149
  store i64 %2, i64* %6, align 8, !llfi_index !150
  %7 = load %"struct.std::less"*, %"struct.std::less"** %4, align 8, !llfi_index !151
  %8 = bitcast %"struct.std::less"* %7 to %"struct.std::less"*, !llfi_index !152
  %9 = load %"struct.std::pair"*, %"struct.std::pair"** %5, align 8, !llfi_index !153
  %10 = load i64, i64* %6, align 8, !llfi_index !154
  call void @_ZN9__gnu_cxx13new_allocatorISt4pairIiiEE10deallocateEPS2_m(%"struct.std::less"* nonnull align 1 dereferenceable(1) %8, %"struct.std::pair"* %9, i64 %10), !llfi_index !155
  ret void, !llfi_index !156
}

; Function Attrs: mustprogress noinline nounwind uwtable
define linkonce_odr dso_local void @_ZN9__gnu_cxx13new_allocatorISt4pairIiiEE10deallocateEPS2_m(%"struct.std::less"* nonnull align 1 dereferenceable(1) %0, %"struct.std::pair"* %1, i64 %2) #3 comdat align 2 {
  %4 = alloca %"struct.std::less"*, align 8, !llfi_index !157
  %5 = alloca %"struct.std::pair"*, align 8, !llfi_index !158
  %6 = alloca i64, align 8, !llfi_index !159
  store %"struct.std::less"* %0, %"struct.std::less"** %4, align 8, !llfi_index !160
  store %"struct.std::pair"* %1, %"struct.std::pair"** %5, align 8, !llfi_index !161
  store i64 %2, i64* %6, align 8, !llfi_index !162
  %7 = load %"struct.std::less"*, %"struct.std::less"** %4, align 8, !llfi_index !163
  %8 = load %"struct.std::pair"*, %"struct.std::pair"** %5, align 8, !llfi_index !164
  %9 = bitcast %"struct.std::pair"* %8 to i8*, !llfi_index !165
  call void @_ZdlPv(i8* %9) #2, !llfi_index !166
  ret void, !llfi_index !167
}

; Function Attrs: nobuiltin nounwind
declare dso_local void @_ZdlPv(i8*) #6

; Function Attrs: mustprogress noinline uwtable
define linkonce_odr dso_local void @_ZSt8_DestroyIPSt4pairIiiEEvT_S3_(%"struct.std::pair"* %0, %"struct.std::pair"* %1) #4 comdat {
  %3 = alloca %"struct.std::pair"*, align 8, !llfi_index !168
  %4 = alloca %"struct.std::pair"*, align 8, !llfi_index !169
  store %"struct.std::pair"* %0, %"struct.std::pair"** %3, align 8, !llfi_index !170
  store %"struct.std::pair"* %1, %"struct.std::pair"** %4, align 8, !llfi_index !171
  %5 = load %"struct.std::pair"*, %"struct.std::pair"** %3, align 8, !llfi_index !172
  %6 = load %"struct.std::pair"*, %"struct.std::pair"** %4, align 8, !llfi_index !173
  call void @_ZNSt12_Destroy_auxILb1EE9__destroyIPSt4pairIiiEEEvT_S5_(%"struct.std::pair"* %5, %"struct.std::pair"* %6), !llfi_index !174
  ret void, !llfi_index !175
}

; Function Attrs: mustprogress noinline nounwind uwtable
define linkonce_odr dso_local void @_ZNSt12_Destroy_auxILb1EE9__destroyIPSt4pairIiiEEEvT_S5_(%"struct.std::pair"* %0, %"struct.std::pair"* %1) #3 comdat align 2 {
  %3 = alloca %"struct.std::pair"*, align 8, !llfi_index !176
  %4 = alloca %"struct.std::pair"*, align 8, !llfi_index !177
  store %"struct.std::pair"* %0, %"struct.std::pair"** %3, align 8, !llfi_index !178
  store %"struct.std::pair"* %1, %"struct.std::pair"** %4, align 8, !llfi_index !179
  ret void, !llfi_index !180
}

; Function Attrs: noinline nounwind uwtable
define linkonce_odr dso_local void @_ZNSt12_Vector_baseISt4pairIiiESaIS1_EEC2Ev(%"struct.std::_Vector_base"* nonnull align 8 dereferenceable(24) %0) unnamed_addr #1 comdat align 2 {
  %2 = alloca %"struct.std::_Vector_base"*, align 8, !llfi_index !181
  store %"struct.std::_Vector_base"* %0, %"struct.std::_Vector_base"** %2, align 8, !llfi_index !182
  %3 = load %"struct.std::_Vector_base"*, %"struct.std::_Vector_base"** %2, align 8, !llfi_index !183
  %4 = getelementptr inbounds %"struct.std::_Vector_base", %"struct.std::_Vector_base"* %3, i32 0, i32 0, !llfi_index !184
  call void @_ZNSt12_Vector_baseISt4pairIiiESaIS1_EE12_Vector_implC2Ev(%"struct.std::_Vector_base<std::pair<int, int>, std::allocator<std::pair<int, int>>>::_Vector_impl"* nonnull align 8 dereferenceable(24) %4) #2, !llfi_index !185
  ret void, !llfi_index !186
}

; Function Attrs: noinline nounwind uwtable
define linkonce_odr dso_local void @_ZNSt12_Vector_baseISt4pairIiiESaIS1_EE12_Vector_implC2Ev(%"struct.std::_Vector_base<std::pair<int, int>, std::allocator<std::pair<int, int>>>::_Vector_impl"* nonnull align 8 dereferenceable(24) %0) unnamed_addr #1 comdat align 2 {
  %2 = alloca %"struct.std::_Vector_base<std::pair<int, int>, std::allocator<std::pair<int, int>>>::_Vector_impl"*, align 8, !llfi_index !187
  store %"struct.std::_Vector_base<std::pair<int, int>, std::allocator<std::pair<int, int>>>::_Vector_impl"* %0, %"struct.std::_Vector_base<std::pair<int, int>, std::allocator<std::pair<int, int>>>::_Vector_impl"** %2, align 8, !llfi_index !188
  %3 = load %"struct.std::_Vector_base<std::pair<int, int>, std::allocator<std::pair<int, int>>>::_Vector_impl"*, %"struct.std::_Vector_base<std::pair<int, int>, std::allocator<std::pair<int, int>>>::_Vector_impl"** %2, align 8, !llfi_index !189
  %4 = bitcast %"struct.std::_Vector_base<std::pair<int, int>, std::allocator<std::pair<int, int>>>::_Vector_impl"* %3 to %"struct.std::less"*, !llfi_index !190
  call void @_ZNSaISt4pairIiiEEC2Ev(%"struct.std::less"* nonnull align 1 dereferenceable(1) %4) #2, !llfi_index !191
  %5 = bitcast %"struct.std::_Vector_base<std::pair<int, int>, std::allocator<std::pair<int, int>>>::_Vector_impl"* %3 to %"struct.std::_Vector_base<std::pair<int, int>, std::allocator<std::pair<int, int>>>::_Vector_impl_data"*, !llfi_index !192
  call void @_ZNSt12_Vector_baseISt4pairIiiESaIS1_EE17_Vector_impl_dataC2Ev(%"struct.std::_Vector_base<std::pair<int, int>, std::allocator<std::pair<int, int>>>::_Vector_impl_data"* nonnull align 8 dereferenceable(24) %5) #2, !llfi_index !193
  ret void, !llfi_index !194
}

; Function Attrs: noinline nounwind uwtable
define linkonce_odr dso_local void @_ZNSaISt4pairIiiEEC2Ev(%"struct.std::less"* nonnull align 1 dereferenceable(1) %0) unnamed_addr #1 comdat align 2 {
  %2 = alloca %"struct.std::less"*, align 8, !llfi_index !195
  store %"struct.std::less"* %0, %"struct.std::less"** %2, align 8, !llfi_index !196
  %3 = load %"struct.std::less"*, %"struct.std::less"** %2, align 8, !llfi_index !197
  %4 = bitcast %"struct.std::less"* %3 to %"struct.std::less"*, !llfi_index !198
  call void @_ZN9__gnu_cxx13new_allocatorISt4pairIiiEEC2Ev(%"struct.std::less"* nonnull align 1 dereferenceable(1) %4) #2, !llfi_index !199
  ret void, !llfi_index !200
}

; Function Attrs: noinline nounwind uwtable
define linkonce_odr dso_local void @_ZNSt12_Vector_baseISt4pairIiiESaIS1_EE17_Vector_impl_dataC2Ev(%"struct.std::_Vector_base<std::pair<int, int>, std::allocator<std::pair<int, int>>>::_Vector_impl_data"* nonnull align 8 dereferenceable(24) %0) unnamed_addr #1 comdat align 2 {
  %2 = alloca %"struct.std::_Vector_base<std::pair<int, int>, std::allocator<std::pair<int, int>>>::_Vector_impl_data"*, align 8, !llfi_index !201
  store %"struct.std::_Vector_base<std::pair<int, int>, std::allocator<std::pair<int, int>>>::_Vector_impl_data"* %0, %"struct.std::_Vector_base<std::pair<int, int>, std::allocator<std::pair<int, int>>>::_Vector_impl_data"** %2, align 8, !llfi_index !202
  %3 = load %"struct.std::_Vector_base<std::pair<int, int>, std::allocator<std::pair<int, int>>>::_Vector_impl_data"*, %"struct.std::_Vector_base<std::pair<int, int>, std::allocator<std::pair<int, int>>>::_Vector_impl_data"** %2, align 8, !llfi_index !203
  %4 = getelementptr inbounds %"struct.std::_Vector_base<std::pair<int, int>, std::allocator<std::pair<int, int>>>::_Vector_impl_data", %"struct.std::_Vector_base<std::pair<int, int>, std::allocator<std::pair<int, int>>>::_Vector_impl_data"* %3, i32 0, i32 0, !llfi_index !204
  store %"struct.std::pair"* null, %"struct.std::pair"** %4, align 8, !llfi_index !205
  %5 = getelementptr inbounds %"struct.std::_Vector_base<std::pair<int, int>, std::allocator<std::pair<int, int>>>::_Vector_impl_data", %"struct.std::_Vector_base<std::pair<int, int>, std::allocator<std::pair<int, int>>>::_Vector_impl_data"* %3, i32 0, i32 1, !llfi_index !206
  store %"struct.std::pair"* null, %"struct.std::pair"** %5, align 8, !llfi_index !207
  %6 = getelementptr inbounds %"struct.std::_Vector_base<std::pair<int, int>, std::allocator<std::pair<int, int>>>::_Vector_impl_data", %"struct.std::_Vector_base<std::pair<int, int>, std::allocator<std::pair<int, int>>>::_Vector_impl_data"* %3, i32 0, i32 2, !llfi_index !208
  store %"struct.std::pair"* null, %"struct.std::pair"** %6, align 8, !llfi_index !209
  ret void, !llfi_index !210
}

; Function Attrs: noinline nounwind uwtable
define linkonce_odr dso_local void @_ZN9__gnu_cxx13new_allocatorISt4pairIiiEEC2Ev(%"struct.std::less"* nonnull align 1 dereferenceable(1) %0) unnamed_addr #1 comdat align 2 {
  %2 = alloca %"struct.std::less"*, align 8, !llfi_index !211
  store %"struct.std::less"* %0, %"struct.std::less"** %2, align 8, !llfi_index !212
  %3 = load %"struct.std::less"*, %"struct.std::less"** %2, align 8, !llfi_index !213
  ret void, !llfi_index !214
}

; Function Attrs: noinline nounwind uwtable
define linkonce_odr dso_local void @_ZNSt3setIiSt4lessIiESaIiEEC2Ev(%"class.std::set"* nonnull align 8 dereferenceable(48) %0) unnamed_addr #1 comdat align 2 {
  %2 = alloca %"class.std::set"*, align 8, !llfi_index !215
  store %"class.std::set"* %0, %"class.std::set"** %2, align 8, !llfi_index !216
  %3 = load %"class.std::set"*, %"class.std::set"** %2, align 8, !llfi_index !217
  %4 = getelementptr inbounds %"class.std::set", %"class.std::set"* %3, i32 0, i32 0, !llfi_index !218
  call void @_ZNSt8_Rb_treeIiiSt9_IdentityIiESt4lessIiESaIiEEC2Ev(%"class.std::_Rb_tree"* nonnull align 8 dereferenceable(48) %4) #2, !llfi_index !219
  ret void, !llfi_index !220
}

; Function Attrs: noinline uwtable
define internal void @__dtor_S() #0 section ".text.startup" {
  call void @_ZNSt3setIiSt4lessIiESaIiEED2Ev(%"class.std::set"* @S), !llfi_index !221
  ret void, !llfi_index !222
}

; Function Attrs: noinline nounwind uwtable
define linkonce_odr dso_local void @_ZNSt3setIiSt4lessIiESaIiEED2Ev(%"class.std::set"* nonnull align 8 dereferenceable(48) %0) unnamed_addr #1 comdat align 2 {
  %2 = alloca %"class.std::set"*, align 8, !llfi_index !223
  store %"class.std::set"* %0, %"class.std::set"** %2, align 8, !llfi_index !224
  %3 = load %"class.std::set"*, %"class.std::set"** %2, align 8, !llfi_index !225
  %4 = getelementptr inbounds %"class.std::set", %"class.std::set"* %3, i32 0, i32 0, !llfi_index !226
  call void @_ZNSt8_Rb_treeIiiSt9_IdentityIiESt4lessIiESaIiEED2Ev(%"class.std::_Rb_tree"* nonnull align 8 dereferenceable(48) %4) #2, !llfi_index !227
  ret void, !llfi_index !228
}

; Function Attrs: noinline nounwind uwtable
define linkonce_odr dso_local void @_ZNSt8_Rb_treeIiiSt9_IdentityIiESt4lessIiESaIiEED2Ev(%"class.std::_Rb_tree"* nonnull align 8 dereferenceable(48) %0) unnamed_addr #1 comdat align 2 personality i8* bitcast (i32 (...)* @__gxx_personality_v0 to i8*) {
  %2 = alloca %"class.std::_Rb_tree"*, align 8, !llfi_index !229
  %3 = alloca i8*, align 8, !llfi_index !230
  %4 = alloca i32, align 4, !llfi_index !231
  store %"class.std::_Rb_tree"* %0, %"class.std::_Rb_tree"** %2, align 8, !llfi_index !232
  %5 = load %"class.std::_Rb_tree"*, %"class.std::_Rb_tree"** %2, align 8, !llfi_index !233
  %6 = call %"struct.std::_Rb_tree_node"* @_ZNSt8_Rb_treeIiiSt9_IdentityIiESt4lessIiESaIiEE8_M_beginEv(%"class.std::_Rb_tree"* nonnull align 8 dereferenceable(48) %5) #2, !llfi_index !234
  invoke void @_ZNSt8_Rb_treeIiiSt9_IdentityIiESt4lessIiESaIiEE8_M_eraseEPSt13_Rb_tree_nodeIiE(%"class.std::_Rb_tree"* nonnull align 8 dereferenceable(48) %5, %"struct.std::_Rb_tree_node"* %6)
          to label %7 unwind label %9, !llfi_index !235

7:                                                ; preds = %1
  %8 = getelementptr inbounds %"class.std::_Rb_tree", %"class.std::_Rb_tree"* %5, i32 0, i32 0, !llfi_index !236
  call void @_ZNSt8_Rb_treeIiiSt9_IdentityIiESt4lessIiESaIiEE13_Rb_tree_implIS3_Lb1EED2Ev(%"struct.std::_Rb_tree<int, int, std::_Identity<int>, std::less<int>>::_Rb_tree_impl"* nonnull align 8 dereferenceable(48) %8) #2, !llfi_index !237
  ret void, !llfi_index !238

9:                                                ; preds = %1
  %10 = landingpad { i8*, i32 }
          catch i8* null, !llfi_index !239
  %11 = extractvalue { i8*, i32 } %10, 0, !llfi_index !240
  store i8* %11, i8** %3, align 8, !llfi_index !241
  %12 = extractvalue { i8*, i32 } %10, 1, !llfi_index !242
  store i32 %12, i32* %4, align 4, !llfi_index !243
  %13 = getelementptr inbounds %"class.std::_Rb_tree", %"class.std::_Rb_tree"* %5, i32 0, i32 0, !llfi_index !244
  call void @_ZNSt8_Rb_treeIiiSt9_IdentityIiESt4lessIiESaIiEE13_Rb_tree_implIS3_Lb1EED2Ev(%"struct.std::_Rb_tree<int, int, std::_Identity<int>, std::less<int>>::_Rb_tree_impl"* nonnull align 8 dereferenceable(48) %13) #2, !llfi_index !245
  br label %14, !llfi_index !246

14:                                               ; preds = %9
  %15 = load i8*, i8** %3, align 8, !llfi_index !247
  call void @__clang_call_terminate(i8* %15) #16, !llfi_index !248
  unreachable, !llfi_index !249
}

; Function Attrs: mustprogress noinline nounwind uwtable
define linkonce_odr dso_local %"struct.std::_Rb_tree_node"* @_ZNSt8_Rb_treeIiiSt9_IdentityIiESt4lessIiESaIiEE8_M_beginEv(%"class.std::_Rb_tree"* nonnull align 8 dereferenceable(48) %0) #3 comdat align 2 {
  %2 = alloca %"class.std::_Rb_tree"*, align 8, !llfi_index !250
  store %"class.std::_Rb_tree"* %0, %"class.std::_Rb_tree"** %2, align 8, !llfi_index !251
  %3 = load %"class.std::_Rb_tree"*, %"class.std::_Rb_tree"** %2, align 8, !llfi_index !252
  %4 = getelementptr inbounds %"class.std::_Rb_tree", %"class.std::_Rb_tree"* %3, i32 0, i32 0, !llfi_index !253
  %5 = bitcast %"struct.std::_Rb_tree<int, int, std::_Identity<int>, std::less<int>>::_Rb_tree_impl"* %4 to i8*, !llfi_index !254
  %6 = getelementptr inbounds i8, i8* %5, i64 8, !llfi_index !255
  %7 = bitcast i8* %6 to %"struct.std::_Rb_tree_header"*, !llfi_index !256
  %8 = getelementptr inbounds %"struct.std::_Rb_tree_header", %"struct.std::_Rb_tree_header"* %7, i32 0, i32 0, !llfi_index !257
  %9 = getelementptr inbounds %"struct.std::_Rb_tree_node_base", %"struct.std::_Rb_tree_node_base"* %8, i32 0, i32 1, !llfi_index !258
  %10 = load %"struct.std::_Rb_tree_node_base"*, %"struct.std::_Rb_tree_node_base"** %9, align 8, !llfi_index !259
  %11 = bitcast %"struct.std::_Rb_tree_node_base"* %10 to %"struct.std::_Rb_tree_node"*, !llfi_index !260
  ret %"struct.std::_Rb_tree_node"* %11, !llfi_index !261
}

; Function Attrs: mustprogress noinline uwtable
define linkonce_odr dso_local void @_ZNSt8_Rb_treeIiiSt9_IdentityIiESt4lessIiESaIiEE8_M_eraseEPSt13_Rb_tree_nodeIiE(%"class.std::_Rb_tree"* nonnull align 8 dereferenceable(48) %0, %"struct.std::_Rb_tree_node"* %1) #4 comdat align 2 {
  %3 = alloca %"class.std::_Rb_tree"*, align 8, !llfi_index !262
  %4 = alloca %"struct.std::_Rb_tree_node"*, align 8, !llfi_index !263
  %5 = alloca %"struct.std::_Rb_tree_node"*, align 8, !llfi_index !264
  store %"class.std::_Rb_tree"* %0, %"class.std::_Rb_tree"** %3, align 8, !llfi_index !265
  store %"struct.std::_Rb_tree_node"* %1, %"struct.std::_Rb_tree_node"** %4, align 8, !llfi_index !266
  %6 = load %"class.std::_Rb_tree"*, %"class.std::_Rb_tree"** %3, align 8, !llfi_index !267
  br label %7, !llfi_index !268

7:                                                ; preds = %10, %2
  %8 = load %"struct.std::_Rb_tree_node"*, %"struct.std::_Rb_tree_node"** %4, align 8, !llfi_index !269
  %9 = icmp ne %"struct.std::_Rb_tree_node"* %8, null, !llfi_index !270
  br i1 %9, label %10, label %19, !llfi_index !271

10:                                               ; preds = %7
  %11 = load %"struct.std::_Rb_tree_node"*, %"struct.std::_Rb_tree_node"** %4, align 8, !llfi_index !272
  %12 = bitcast %"struct.std::_Rb_tree_node"* %11 to %"struct.std::_Rb_tree_node_base"*, !llfi_index !273
  %13 = call %"struct.std::_Rb_tree_node"* @_ZNSt8_Rb_treeIiiSt9_IdentityIiESt4lessIiESaIiEE8_S_rightEPSt18_Rb_tree_node_base(%"struct.std::_Rb_tree_node_base"* %12) #2, !llfi_index !274
  call void @_ZNSt8_Rb_treeIiiSt9_IdentityIiESt4lessIiESaIiEE8_M_eraseEPSt13_Rb_tree_nodeIiE(%"class.std::_Rb_tree"* nonnull align 8 dereferenceable(48) %6, %"struct.std::_Rb_tree_node"* %13), !llfi_index !275
  %14 = load %"struct.std::_Rb_tree_node"*, %"struct.std::_Rb_tree_node"** %4, align 8, !llfi_index !276
  %15 = bitcast %"struct.std::_Rb_tree_node"* %14 to %"struct.std::_Rb_tree_node_base"*, !llfi_index !277
  %16 = call %"struct.std::_Rb_tree_node"* @_ZNSt8_Rb_treeIiiSt9_IdentityIiESt4lessIiESaIiEE7_S_leftEPSt18_Rb_tree_node_base(%"struct.std::_Rb_tree_node_base"* %15) #2, !llfi_index !278
  store %"struct.std::_Rb_tree_node"* %16, %"struct.std::_Rb_tree_node"** %5, align 8, !llfi_index !279
  %17 = load %"struct.std::_Rb_tree_node"*, %"struct.std::_Rb_tree_node"** %4, align 8, !llfi_index !280
  call void @_ZNSt8_Rb_treeIiiSt9_IdentityIiESt4lessIiESaIiEE12_M_drop_nodeEPSt13_Rb_tree_nodeIiE(%"class.std::_Rb_tree"* nonnull align 8 dereferenceable(48) %6, %"struct.std::_Rb_tree_node"* %17) #2, !llfi_index !281
  %18 = load %"struct.std::_Rb_tree_node"*, %"struct.std::_Rb_tree_node"** %5, align 8, !llfi_index !282
  store %"struct.std::_Rb_tree_node"* %18, %"struct.std::_Rb_tree_node"** %4, align 8, !llfi_index !283
  br label %7, !llvm.loop !284, !llfi_index !286

19:                                               ; preds = %7
  ret void, !llfi_index !287
}

; Function Attrs: noinline nounwind uwtable
define linkonce_odr dso_local void @_ZNSt8_Rb_treeIiiSt9_IdentityIiESt4lessIiESaIiEE13_Rb_tree_implIS3_Lb1EED2Ev(%"struct.std::_Rb_tree<int, int, std::_Identity<int>, std::less<int>>::_Rb_tree_impl"* nonnull align 8 dereferenceable(48) %0) unnamed_addr #1 comdat align 2 {
  %2 = alloca %"struct.std::_Rb_tree<int, int, std::_Identity<int>, std::less<int>>::_Rb_tree_impl"*, align 8, !llfi_index !288
  store %"struct.std::_Rb_tree<int, int, std::_Identity<int>, std::less<int>>::_Rb_tree_impl"* %0, %"struct.std::_Rb_tree<int, int, std::_Identity<int>, std::less<int>>::_Rb_tree_impl"** %2, align 8, !llfi_index !289
  %3 = load %"struct.std::_Rb_tree<int, int, std::_Identity<int>, std::less<int>>::_Rb_tree_impl"*, %"struct.std::_Rb_tree<int, int, std::_Identity<int>, std::less<int>>::_Rb_tree_impl"** %2, align 8, !llfi_index !290
  %4 = bitcast %"struct.std::_Rb_tree<int, int, std::_Identity<int>, std::less<int>>::_Rb_tree_impl"* %3 to %"struct.std::less"*, !llfi_index !291
  call void @_ZNSaISt13_Rb_tree_nodeIiEED2Ev(%"struct.std::less"* nonnull align 1 dereferenceable(1) %4) #2, !llfi_index !292
  ret void, !llfi_index !293
}

; Function Attrs: noinline nounwind uwtable
define linkonce_odr dso_local void @_ZNSaISt13_Rb_tree_nodeIiEED2Ev(%"struct.std::less"* nonnull align 1 dereferenceable(1) %0) unnamed_addr #1 comdat align 2 {
  %2 = alloca %"struct.std::less"*, align 8, !llfi_index !294
  store %"struct.std::less"* %0, %"struct.std::less"** %2, align 8, !llfi_index !295
  %3 = load %"struct.std::less"*, %"struct.std::less"** %2, align 8, !llfi_index !296
  %4 = bitcast %"struct.std::less"* %3 to %"struct.std::less"*, !llfi_index !297
  call void @_ZN9__gnu_cxx13new_allocatorISt13_Rb_tree_nodeIiEED2Ev(%"struct.std::less"* nonnull align 1 dereferenceable(1) %4) #2, !llfi_index !298
  ret void, !llfi_index !299
}

; Function Attrs: noinline nounwind uwtable
define linkonce_odr dso_local void @_ZN9__gnu_cxx13new_allocatorISt13_Rb_tree_nodeIiEED2Ev(%"struct.std::less"* nonnull align 1 dereferenceable(1) %0) unnamed_addr #1 comdat align 2 {
  %2 = alloca %"struct.std::less"*, align 8, !llfi_index !300
  store %"struct.std::less"* %0, %"struct.std::less"** %2, align 8, !llfi_index !301
  %3 = load %"struct.std::less"*, %"struct.std::less"** %2, align 8, !llfi_index !302
  ret void, !llfi_index !303
}

; Function Attrs: mustprogress noinline nounwind uwtable
define linkonce_odr dso_local %"struct.std::_Rb_tree_node"* @_ZNSt8_Rb_treeIiiSt9_IdentityIiESt4lessIiESaIiEE8_S_rightEPSt18_Rb_tree_node_base(%"struct.std::_Rb_tree_node_base"* %0) #3 comdat align 2 {
  %2 = alloca %"struct.std::_Rb_tree_node_base"*, align 8, !llfi_index !304
  store %"struct.std::_Rb_tree_node_base"* %0, %"struct.std::_Rb_tree_node_base"** %2, align 8, !llfi_index !305
  %3 = load %"struct.std::_Rb_tree_node_base"*, %"struct.std::_Rb_tree_node_base"** %2, align 8, !llfi_index !306
  %4 = getelementptr inbounds %"struct.std::_Rb_tree_node_base", %"struct.std::_Rb_tree_node_base"* %3, i32 0, i32 3, !llfi_index !307
  %5 = load %"struct.std::_Rb_tree_node_base"*, %"struct.std::_Rb_tree_node_base"** %4, align 8, !llfi_index !308
  %6 = bitcast %"struct.std::_Rb_tree_node_base"* %5 to %"struct.std::_Rb_tree_node"*, !llfi_index !309
  ret %"struct.std::_Rb_tree_node"* %6, !llfi_index !310
}

; Function Attrs: mustprogress noinline nounwind uwtable
define linkonce_odr dso_local %"struct.std::_Rb_tree_node"* @_ZNSt8_Rb_treeIiiSt9_IdentityIiESt4lessIiESaIiEE7_S_leftEPSt18_Rb_tree_node_base(%"struct.std::_Rb_tree_node_base"* %0) #3 comdat align 2 {
  %2 = alloca %"struct.std::_Rb_tree_node_base"*, align 8, !llfi_index !311
  store %"struct.std::_Rb_tree_node_base"* %0, %"struct.std::_Rb_tree_node_base"** %2, align 8, !llfi_index !312
  %3 = load %"struct.std::_Rb_tree_node_base"*, %"struct.std::_Rb_tree_node_base"** %2, align 8, !llfi_index !313
  %4 = getelementptr inbounds %"struct.std::_Rb_tree_node_base", %"struct.std::_Rb_tree_node_base"* %3, i32 0, i32 2, !llfi_index !314
  %5 = load %"struct.std::_Rb_tree_node_base"*, %"struct.std::_Rb_tree_node_base"** %4, align 8, !llfi_index !315
  %6 = bitcast %"struct.std::_Rb_tree_node_base"* %5 to %"struct.std::_Rb_tree_node"*, !llfi_index !316
  ret %"struct.std::_Rb_tree_node"* %6, !llfi_index !317
}

; Function Attrs: mustprogress noinline nounwind uwtable
define linkonce_odr dso_local void @_ZNSt8_Rb_treeIiiSt9_IdentityIiESt4lessIiESaIiEE12_M_drop_nodeEPSt13_Rb_tree_nodeIiE(%"class.std::_Rb_tree"* nonnull align 8 dereferenceable(48) %0, %"struct.std::_Rb_tree_node"* %1) #3 comdat align 2 {
  %3 = alloca %"class.std::_Rb_tree"*, align 8, !llfi_index !318
  %4 = alloca %"struct.std::_Rb_tree_node"*, align 8, !llfi_index !319
  store %"class.std::_Rb_tree"* %0, %"class.std::_Rb_tree"** %3, align 8, !llfi_index !320
  store %"struct.std::_Rb_tree_node"* %1, %"struct.std::_Rb_tree_node"** %4, align 8, !llfi_index !321
  %5 = load %"class.std::_Rb_tree"*, %"class.std::_Rb_tree"** %3, align 8, !llfi_index !322
  %6 = load %"struct.std::_Rb_tree_node"*, %"struct.std::_Rb_tree_node"** %4, align 8, !llfi_index !323
  call void @_ZNSt8_Rb_treeIiiSt9_IdentityIiESt4lessIiESaIiEE15_M_destroy_nodeEPSt13_Rb_tree_nodeIiE(%"class.std::_Rb_tree"* nonnull align 8 dereferenceable(48) %5, %"struct.std::_Rb_tree_node"* %6) #2, !llfi_index !324
  %7 = load %"struct.std::_Rb_tree_node"*, %"struct.std::_Rb_tree_node"** %4, align 8, !llfi_index !325
  call void @_ZNSt8_Rb_treeIiiSt9_IdentityIiESt4lessIiESaIiEE11_M_put_nodeEPSt13_Rb_tree_nodeIiE(%"class.std::_Rb_tree"* nonnull align 8 dereferenceable(48) %5, %"struct.std::_Rb_tree_node"* %7) #2, !llfi_index !326
  ret void, !llfi_index !327
}

; Function Attrs: mustprogress noinline nounwind uwtable
define linkonce_odr dso_local void @_ZNSt8_Rb_treeIiiSt9_IdentityIiESt4lessIiESaIiEE15_M_destroy_nodeEPSt13_Rb_tree_nodeIiE(%"class.std::_Rb_tree"* nonnull align 8 dereferenceable(48) %0, %"struct.std::_Rb_tree_node"* %1) #3 comdat align 2 personality i8* bitcast (i32 (...)* @__gxx_personality_v0 to i8*) {
  %3 = alloca %"class.std::_Rb_tree"*, align 8, !llfi_index !328
  %4 = alloca %"struct.std::_Rb_tree_node"*, align 8, !llfi_index !329
  store %"class.std::_Rb_tree"* %0, %"class.std::_Rb_tree"** %3, align 8, !llfi_index !330
  store %"struct.std::_Rb_tree_node"* %1, %"struct.std::_Rb_tree_node"** %4, align 8, !llfi_index !331
  %5 = load %"class.std::_Rb_tree"*, %"class.std::_Rb_tree"** %3, align 8, !llfi_index !332
  %6 = call nonnull align 1 dereferenceable(1) %"struct.std::less"* @_ZNSt8_Rb_treeIiiSt9_IdentityIiESt4lessIiESaIiEE21_M_get_Node_allocatorEv(%"class.std::_Rb_tree"* nonnull align 8 dereferenceable(48) %5) #2, !llfi_index !333
  %7 = load %"struct.std::_Rb_tree_node"*, %"struct.std::_Rb_tree_node"** %4, align 8, !llfi_index !334
  %8 = invoke i32* @_ZNSt13_Rb_tree_nodeIiE9_M_valptrEv(%"struct.std::_Rb_tree_node"* nonnull align 8 dereferenceable(36) %7)
          to label %9 unwind label %11, !llfi_index !335

9:                                                ; preds = %2
  call void @_ZNSt16allocator_traitsISaISt13_Rb_tree_nodeIiEEE7destroyIiEEvRS2_PT_(%"struct.std::less"* nonnull align 1 dereferenceable(1) %6, i32* %8) #2, !llfi_index !336
  %10 = load %"struct.std::_Rb_tree_node"*, %"struct.std::_Rb_tree_node"** %4, align 8, !llfi_index !337
  ret void, !llfi_index !338

11:                                               ; preds = %2
  %12 = landingpad { i8*, i32 }
          catch i8* null, !llfi_index !339
  %13 = extractvalue { i8*, i32 } %12, 0, !llfi_index !340
  call void @__clang_call_terminate(i8* %13) #16, !llfi_index !341
  unreachable, !llfi_index !342
}

; Function Attrs: mustprogress noinline nounwind uwtable
define linkonce_odr dso_local void @_ZNSt8_Rb_treeIiiSt9_IdentityIiESt4lessIiESaIiEE11_M_put_nodeEPSt13_Rb_tree_nodeIiE(%"class.std::_Rb_tree"* nonnull align 8 dereferenceable(48) %0, %"struct.std::_Rb_tree_node"* %1) #3 comdat align 2 personality i8* bitcast (i32 (...)* @__gxx_personality_v0 to i8*) {
  %3 = alloca %"class.std::_Rb_tree"*, align 8, !llfi_index !343
  %4 = alloca %"struct.std::_Rb_tree_node"*, align 8, !llfi_index !344
  store %"class.std::_Rb_tree"* %0, %"class.std::_Rb_tree"** %3, align 8, !llfi_index !345
  store %"struct.std::_Rb_tree_node"* %1, %"struct.std::_Rb_tree_node"** %4, align 8, !llfi_index !346
  %5 = load %"class.std::_Rb_tree"*, %"class.std::_Rb_tree"** %3, align 8, !llfi_index !347
  %6 = call nonnull align 1 dereferenceable(1) %"struct.std::less"* @_ZNSt8_Rb_treeIiiSt9_IdentityIiESt4lessIiESaIiEE21_M_get_Node_allocatorEv(%"class.std::_Rb_tree"* nonnull align 8 dereferenceable(48) %5) #2, !llfi_index !348
  %7 = load %"struct.std::_Rb_tree_node"*, %"struct.std::_Rb_tree_node"** %4, align 8, !llfi_index !349
  invoke void @_ZNSt16allocator_traitsISaISt13_Rb_tree_nodeIiEEE10deallocateERS2_PS1_m(%"struct.std::less"* nonnull align 1 dereferenceable(1) %6, %"struct.std::_Rb_tree_node"* %7, i64 1)
          to label %8 unwind label %9, !llfi_index !350

8:                                                ; preds = %2
  ret void, !llfi_index !351

9:                                                ; preds = %2
  %10 = landingpad { i8*, i32 }
          catch i8* null, !llfi_index !352
  %11 = extractvalue { i8*, i32 } %10, 0, !llfi_index !353
  call void @__clang_call_terminate(i8* %11) #16, !llfi_index !354
  unreachable, !llfi_index !355
}

; Function Attrs: mustprogress noinline nounwind uwtable
define linkonce_odr dso_local nonnull align 1 dereferenceable(1) %"struct.std::less"* @_ZNSt8_Rb_treeIiiSt9_IdentityIiESt4lessIiESaIiEE21_M_get_Node_allocatorEv(%"class.std::_Rb_tree"* nonnull align 8 dereferenceable(48) %0) #3 comdat align 2 {
  %2 = alloca %"class.std::_Rb_tree"*, align 8, !llfi_index !356
  store %"class.std::_Rb_tree"* %0, %"class.std::_Rb_tree"** %2, align 8, !llfi_index !357
  %3 = load %"class.std::_Rb_tree"*, %"class.std::_Rb_tree"** %2, align 8, !llfi_index !358
  %4 = getelementptr inbounds %"class.std::_Rb_tree", %"class.std::_Rb_tree"* %3, i32 0, i32 0, !llfi_index !359
  %5 = bitcast %"struct.std::_Rb_tree<int, int, std::_Identity<int>, std::less<int>>::_Rb_tree_impl"* %4 to %"struct.std::less"*, !llfi_index !360
  ret %"struct.std::less"* %5, !llfi_index !361
}

; Function Attrs: mustprogress noinline uwtable
define linkonce_odr dso_local void @_ZNSt16allocator_traitsISaISt13_Rb_tree_nodeIiEEE10deallocateERS2_PS1_m(%"struct.std::less"* nonnull align 1 dereferenceable(1) %0, %"struct.std::_Rb_tree_node"* %1, i64 %2) #4 comdat align 2 {
  %4 = alloca %"struct.std::less"*, align 8, !llfi_index !362
  %5 = alloca %"struct.std::_Rb_tree_node"*, align 8, !llfi_index !363
  %6 = alloca i64, align 8, !llfi_index !364
  store %"struct.std::less"* %0, %"struct.std::less"** %4, align 8, !llfi_index !365
  store %"struct.std::_Rb_tree_node"* %1, %"struct.std::_Rb_tree_node"** %5, align 8, !llfi_index !366
  store i64 %2, i64* %6, align 8, !llfi_index !367
  %7 = load %"struct.std::less"*, %"struct.std::less"** %4, align 8, !llfi_index !368
  %8 = bitcast %"struct.std::less"* %7 to %"struct.std::less"*, !llfi_index !369
  %9 = load %"struct.std::_Rb_tree_node"*, %"struct.std::_Rb_tree_node"** %5, align 8, !llfi_index !370
  %10 = load i64, i64* %6, align 8, !llfi_index !371
  call void @_ZN9__gnu_cxx13new_allocatorISt13_Rb_tree_nodeIiEE10deallocateEPS2_m(%"struct.std::less"* nonnull align 1 dereferenceable(1) %8, %"struct.std::_Rb_tree_node"* %9, i64 %10), !llfi_index !372
  ret void, !llfi_index !373
}

; Function Attrs: mustprogress noinline nounwind uwtable
define linkonce_odr dso_local void @_ZN9__gnu_cxx13new_allocatorISt13_Rb_tree_nodeIiEE10deallocateEPS2_m(%"struct.std::less"* nonnull align 1 dereferenceable(1) %0, %"struct.std::_Rb_tree_node"* %1, i64 %2) #3 comdat align 2 {
  %4 = alloca %"struct.std::less"*, align 8, !llfi_index !374
  %5 = alloca %"struct.std::_Rb_tree_node"*, align 8, !llfi_index !375
  %6 = alloca i64, align 8, !llfi_index !376
  store %"struct.std::less"* %0, %"struct.std::less"** %4, align 8, !llfi_index !377
  store %"struct.std::_Rb_tree_node"* %1, %"struct.std::_Rb_tree_node"** %5, align 8, !llfi_index !378
  store i64 %2, i64* %6, align 8, !llfi_index !379
  %7 = load %"struct.std::less"*, %"struct.std::less"** %4, align 8, !llfi_index !380
  %8 = load %"struct.std::_Rb_tree_node"*, %"struct.std::_Rb_tree_node"** %5, align 8, !llfi_index !381
  %9 = bitcast %"struct.std::_Rb_tree_node"* %8 to i8*, !llfi_index !382
  call void @_ZdlPv(i8* %9) #2, !llfi_index !383
  ret void, !llfi_index !384
}

; Function Attrs: mustprogress noinline nounwind uwtable
define linkonce_odr dso_local i32* @_ZNSt13_Rb_tree_nodeIiE9_M_valptrEv(%"struct.std::_Rb_tree_node"* nonnull align 8 dereferenceable(36) %0) #3 comdat align 2 {
  %2 = alloca %"struct.std::_Rb_tree_node"*, align 8, !llfi_index !385
  store %"struct.std::_Rb_tree_node"* %0, %"struct.std::_Rb_tree_node"** %2, align 8, !llfi_index !386
  %3 = load %"struct.std::_Rb_tree_node"*, %"struct.std::_Rb_tree_node"** %2, align 8, !llfi_index !387
  %4 = getelementptr inbounds %"struct.std::_Rb_tree_node", %"struct.std::_Rb_tree_node"* %3, i32 0, i32 1, !llfi_index !388
  %5 = call i32* @_ZN9__gnu_cxx16__aligned_membufIiE6_M_ptrEv(%"struct.__gnu_cxx::__aligned_membuf"* nonnull align 4 dereferenceable(4) %4) #2, !llfi_index !389
  ret i32* %5, !llfi_index !390
}

; Function Attrs: mustprogress noinline nounwind uwtable
define linkonce_odr dso_local void @_ZNSt16allocator_traitsISaISt13_Rb_tree_nodeIiEEE7destroyIiEEvRS2_PT_(%"struct.std::less"* nonnull align 1 dereferenceable(1) %0, i32* %1) #3 comdat align 2 {
  %3 = alloca %"struct.std::less"*, align 8, !llfi_index !391
  %4 = alloca i32*, align 8, !llfi_index !392
  store %"struct.std::less"* %0, %"struct.std::less"** %3, align 8, !llfi_index !393
  store i32* %1, i32** %4, align 8, !llfi_index !394
  %5 = load %"struct.std::less"*, %"struct.std::less"** %3, align 8, !llfi_index !395
  %6 = bitcast %"struct.std::less"* %5 to %"struct.std::less"*, !llfi_index !396
  %7 = load i32*, i32** %4, align 8, !llfi_index !397
  call void @_ZN9__gnu_cxx13new_allocatorISt13_Rb_tree_nodeIiEE7destroyIiEEvPT_(%"struct.std::less"* nonnull align 1 dereferenceable(1) %6, i32* %7) #2, !llfi_index !398
  ret void, !llfi_index !399
}

; Function Attrs: mustprogress noinline nounwind uwtable
define linkonce_odr dso_local void @_ZN9__gnu_cxx13new_allocatorISt13_Rb_tree_nodeIiEE7destroyIiEEvPT_(%"struct.std::less"* nonnull align 1 dereferenceable(1) %0, i32* %1) #3 comdat align 2 {
  %3 = alloca %"struct.std::less"*, align 8, !llfi_index !400
  %4 = alloca i32*, align 8, !llfi_index !401
  store %"struct.std::less"* %0, %"struct.std::less"** %3, align 8, !llfi_index !402
  store i32* %1, i32** %4, align 8, !llfi_index !403
  %5 = load %"struct.std::less"*, %"struct.std::less"** %3, align 8, !llfi_index !404
  %6 = load i32*, i32** %4, align 8, !llfi_index !405
  ret void, !llfi_index !406
}

; Function Attrs: mustprogress noinline nounwind uwtable
define linkonce_odr dso_local i32* @_ZN9__gnu_cxx16__aligned_membufIiE6_M_ptrEv(%"struct.__gnu_cxx::__aligned_membuf"* nonnull align 4 dereferenceable(4) %0) #3 comdat align 2 {
  %2 = alloca %"struct.__gnu_cxx::__aligned_membuf"*, align 8, !llfi_index !407
  store %"struct.__gnu_cxx::__aligned_membuf"* %0, %"struct.__gnu_cxx::__aligned_membuf"** %2, align 8, !llfi_index !408
  %3 = load %"struct.__gnu_cxx::__aligned_membuf"*, %"struct.__gnu_cxx::__aligned_membuf"** %2, align 8, !llfi_index !409
  %4 = call i8* @_ZN9__gnu_cxx16__aligned_membufIiE7_M_addrEv(%"struct.__gnu_cxx::__aligned_membuf"* nonnull align 4 dereferenceable(4) %3) #2, !llfi_index !410
  %5 = bitcast i8* %4 to i32*, !llfi_index !411
  ret i32* %5, !llfi_index !412
}

; Function Attrs: mustprogress noinline nounwind uwtable
define linkonce_odr dso_local i8* @_ZN9__gnu_cxx16__aligned_membufIiE7_M_addrEv(%"struct.__gnu_cxx::__aligned_membuf"* nonnull align 4 dereferenceable(4) %0) #3 comdat align 2 {
  %2 = alloca %"struct.__gnu_cxx::__aligned_membuf"*, align 8, !llfi_index !413
  store %"struct.__gnu_cxx::__aligned_membuf"* %0, %"struct.__gnu_cxx::__aligned_membuf"** %2, align 8, !llfi_index !414
  %3 = load %"struct.__gnu_cxx::__aligned_membuf"*, %"struct.__gnu_cxx::__aligned_membuf"** %2, align 8, !llfi_index !415
  %4 = getelementptr inbounds %"struct.__gnu_cxx::__aligned_membuf", %"struct.__gnu_cxx::__aligned_membuf"* %3, i32 0, i32 0, !llfi_index !416
  %5 = bitcast [4 x i8]* %4 to i8*, !llfi_index !417
  ret i8* %5, !llfi_index !418
}

; Function Attrs: noinline nounwind uwtable
define linkonce_odr dso_local void @_ZNSt8_Rb_treeIiiSt9_IdentityIiESt4lessIiESaIiEEC2Ev(%"class.std::_Rb_tree"* nonnull align 8 dereferenceable(48) %0) unnamed_addr #1 comdat align 2 {
  %2 = alloca %"class.std::_Rb_tree"*, align 8, !llfi_index !419
  store %"class.std::_Rb_tree"* %0, %"class.std::_Rb_tree"** %2, align 8, !llfi_index !420
  %3 = load %"class.std::_Rb_tree"*, %"class.std::_Rb_tree"** %2, align 8, !llfi_index !421
  %4 = getelementptr inbounds %"class.std::_Rb_tree", %"class.std::_Rb_tree"* %3, i32 0, i32 0, !llfi_index !422
  call void @_ZNSt8_Rb_treeIiiSt9_IdentityIiESt4lessIiESaIiEE13_Rb_tree_implIS3_Lb1EEC2Ev(%"struct.std::_Rb_tree<int, int, std::_Identity<int>, std::less<int>>::_Rb_tree_impl"* nonnull align 8 dereferenceable(48) %4) #2, !llfi_index !423
  ret void, !llfi_index !424
}

; Function Attrs: noinline nounwind uwtable
define linkonce_odr dso_local void @_ZNSt8_Rb_treeIiiSt9_IdentityIiESt4lessIiESaIiEE13_Rb_tree_implIS3_Lb1EEC2Ev(%"struct.std::_Rb_tree<int, int, std::_Identity<int>, std::less<int>>::_Rb_tree_impl"* nonnull align 8 dereferenceable(48) %0) unnamed_addr #1 comdat align 2 {
  %2 = alloca %"struct.std::_Rb_tree<int, int, std::_Identity<int>, std::less<int>>::_Rb_tree_impl"*, align 8, !llfi_index !425
  store %"struct.std::_Rb_tree<int, int, std::_Identity<int>, std::less<int>>::_Rb_tree_impl"* %0, %"struct.std::_Rb_tree<int, int, std::_Identity<int>, std::less<int>>::_Rb_tree_impl"** %2, align 8, !llfi_index !426
  %3 = load %"struct.std::_Rb_tree<int, int, std::_Identity<int>, std::less<int>>::_Rb_tree_impl"*, %"struct.std::_Rb_tree<int, int, std::_Identity<int>, std::less<int>>::_Rb_tree_impl"** %2, align 8, !llfi_index !427
  %4 = bitcast %"struct.std::_Rb_tree<int, int, std::_Identity<int>, std::less<int>>::_Rb_tree_impl"* %3 to %"struct.std::less"*, !llfi_index !428
  call void @_ZNSaISt13_Rb_tree_nodeIiEEC2Ev(%"struct.std::less"* nonnull align 1 dereferenceable(1) %4) #2, !llfi_index !429
  %5 = bitcast %"struct.std::_Rb_tree<int, int, std::_Identity<int>, std::less<int>>::_Rb_tree_impl"* %3 to %"struct.std::_Rb_tree_key_compare"*, !llfi_index !430
  call void @_ZNSt20_Rb_tree_key_compareISt4lessIiEEC2Ev(%"struct.std::_Rb_tree_key_compare"* nonnull align 1 dereferenceable(1) %5) #2, !llfi_index !431
  %6 = bitcast %"struct.std::_Rb_tree<int, int, std::_Identity<int>, std::less<int>>::_Rb_tree_impl"* %3 to i8*, !llfi_index !432
  %7 = getelementptr inbounds i8, i8* %6, i64 8, !llfi_index !433
  %8 = bitcast i8* %7 to %"struct.std::_Rb_tree_header"*, !llfi_index !434
  call void @_ZNSt15_Rb_tree_headerC2Ev(%"struct.std::_Rb_tree_header"* nonnull align 8 dereferenceable(40) %8) #2, !llfi_index !435
  ret void, !llfi_index !436
}

; Function Attrs: noinline nounwind uwtable
define linkonce_odr dso_local void @_ZNSaISt13_Rb_tree_nodeIiEEC2Ev(%"struct.std::less"* nonnull align 1 dereferenceable(1) %0) unnamed_addr #1 comdat align 2 {
  %2 = alloca %"struct.std::less"*, align 8, !llfi_index !437
  store %"struct.std::less"* %0, %"struct.std::less"** %2, align 8, !llfi_index !438
  %3 = load %"struct.std::less"*, %"struct.std::less"** %2, align 8, !llfi_index !439
  %4 = bitcast %"struct.std::less"* %3 to %"struct.std::less"*, !llfi_index !440
  call void @_ZN9__gnu_cxx13new_allocatorISt13_Rb_tree_nodeIiEEC2Ev(%"struct.std::less"* nonnull align 1 dereferenceable(1) %4) #2, !llfi_index !441
  ret void, !llfi_index !442
}

; Function Attrs: noinline nounwind uwtable
define linkonce_odr dso_local void @_ZNSt20_Rb_tree_key_compareISt4lessIiEEC2Ev(%"struct.std::_Rb_tree_key_compare"* nonnull align 1 dereferenceable(1) %0) unnamed_addr #1 comdat align 2 {
  %2 = alloca %"struct.std::_Rb_tree_key_compare"*, align 8, !llfi_index !443
  store %"struct.std::_Rb_tree_key_compare"* %0, %"struct.std::_Rb_tree_key_compare"** %2, align 8, !llfi_index !444
  %3 = load %"struct.std::_Rb_tree_key_compare"*, %"struct.std::_Rb_tree_key_compare"** %2, align 8, !llfi_index !445
  %4 = getelementptr inbounds %"struct.std::_Rb_tree_key_compare", %"struct.std::_Rb_tree_key_compare"* %3, i32 0, i32 0, !llfi_index !446
  ret void, !llfi_index !447
}

; Function Attrs: noinline nounwind uwtable
define linkonce_odr dso_local void @_ZNSt15_Rb_tree_headerC2Ev(%"struct.std::_Rb_tree_header"* nonnull align 8 dereferenceable(40) %0) unnamed_addr #1 comdat align 2 personality i8* bitcast (i32 (...)* @__gxx_personality_v0 to i8*) {
  %2 = alloca %"struct.std::_Rb_tree_header"*, align 8, !llfi_index !448
  store %"struct.std::_Rb_tree_header"* %0, %"struct.std::_Rb_tree_header"** %2, align 8, !llfi_index !449
  %3 = load %"struct.std::_Rb_tree_header"*, %"struct.std::_Rb_tree_header"** %2, align 8, !llfi_index !450
  %4 = getelementptr inbounds %"struct.std::_Rb_tree_header", %"struct.std::_Rb_tree_header"* %3, i32 0, i32 0, !llfi_index !451
  %5 = getelementptr inbounds %"struct.std::_Rb_tree_header", %"struct.std::_Rb_tree_header"* %3, i32 0, i32 0, !llfi_index !452
  %6 = getelementptr inbounds %"struct.std::_Rb_tree_node_base", %"struct.std::_Rb_tree_node_base"* %5, i32 0, i32 0, !llfi_index !453
  store i32 0, i32* %6, align 8, !llfi_index !454
  invoke void @_ZNSt15_Rb_tree_header8_M_resetEv(%"struct.std::_Rb_tree_header"* nonnull align 8 dereferenceable(40) %3)
          to label %7 unwind label %8, !llfi_index !455

7:                                                ; preds = %1
  ret void, !llfi_index !456

8:                                                ; preds = %1
  %9 = landingpad { i8*, i32 }
          catch i8* null, !llfi_index !457
  %10 = extractvalue { i8*, i32 } %9, 0, !llfi_index !458
  call void @__clang_call_terminate(i8* %10) #16, !llfi_index !459
  unreachable, !llfi_index !460
}

; Function Attrs: mustprogress noinline nounwind uwtable
define linkonce_odr dso_local void @_ZNSt15_Rb_tree_header8_M_resetEv(%"struct.std::_Rb_tree_header"* nonnull align 8 dereferenceable(40) %0) #3 comdat align 2 {
  %2 = alloca %"struct.std::_Rb_tree_header"*, align 8, !llfi_index !461
  store %"struct.std::_Rb_tree_header"* %0, %"struct.std::_Rb_tree_header"** %2, align 8, !llfi_index !462
  %3 = load %"struct.std::_Rb_tree_header"*, %"struct.std::_Rb_tree_header"** %2, align 8, !llfi_index !463
  %4 = getelementptr inbounds %"struct.std::_Rb_tree_header", %"struct.std::_Rb_tree_header"* %3, i32 0, i32 0, !llfi_index !464
  %5 = getelementptr inbounds %"struct.std::_Rb_tree_node_base", %"struct.std::_Rb_tree_node_base"* %4, i32 0, i32 1, !llfi_index !465
  store %"struct.std::_Rb_tree_node_base"* null, %"struct.std::_Rb_tree_node_base"** %5, align 8, !llfi_index !466
  %6 = getelementptr inbounds %"struct.std::_Rb_tree_header", %"struct.std::_Rb_tree_header"* %3, i32 0, i32 0, !llfi_index !467
  %7 = getelementptr inbounds %"struct.std::_Rb_tree_header", %"struct.std::_Rb_tree_header"* %3, i32 0, i32 0, !llfi_index !468
  %8 = getelementptr inbounds %"struct.std::_Rb_tree_node_base", %"struct.std::_Rb_tree_node_base"* %7, i32 0, i32 2, !llfi_index !469
  store %"struct.std::_Rb_tree_node_base"* %6, %"struct.std::_Rb_tree_node_base"** %8, align 8, !llfi_index !470
  %9 = getelementptr inbounds %"struct.std::_Rb_tree_header", %"struct.std::_Rb_tree_header"* %3, i32 0, i32 0, !llfi_index !471
  %10 = getelementptr inbounds %"struct.std::_Rb_tree_header", %"struct.std::_Rb_tree_header"* %3, i32 0, i32 0, !llfi_index !472
  %11 = getelementptr inbounds %"struct.std::_Rb_tree_node_base", %"struct.std::_Rb_tree_node_base"* %10, i32 0, i32 3, !llfi_index !473
  store %"struct.std::_Rb_tree_node_base"* %9, %"struct.std::_Rb_tree_node_base"** %11, align 8, !llfi_index !474
  %12 = getelementptr inbounds %"struct.std::_Rb_tree_header", %"struct.std::_Rb_tree_header"* %3, i32 0, i32 1, !llfi_index !475
  store i64 0, i64* %12, align 8, !llfi_index !476
  ret void, !llfi_index !477
}

; Function Attrs: noinline nounwind uwtable
define linkonce_odr dso_local void @_ZN9__gnu_cxx13new_allocatorISt13_Rb_tree_nodeIiEEC2Ev(%"struct.std::less"* nonnull align 1 dereferenceable(1) %0) unnamed_addr #1 comdat align 2 {
  %2 = alloca %"struct.std::less"*, align 8, !llfi_index !478
  store %"struct.std::less"* %0, %"struct.std::less"** %2, align 8, !llfi_index !479
  %3 = load %"struct.std::less"*, %"struct.std::less"** %2, align 8, !llfi_index !480
  ret void, !llfi_index !481
}

declare dso_local void @_ZNSt8ios_base4InitC1Ev(%"struct.std::less"* nonnull align 1 dereferenceable(1)) unnamed_addr #7

; Function Attrs: noinline uwtable
define internal void @__dtor__ZStL8__ioinit() #0 section ".text.startup" {
  call void @_ZNSt8ios_base4InitD1Ev(%"struct.std::less"* @_ZStL8__ioinit), !llfi_index !482
  ret void, !llfi_index !483
}

; Function Attrs: nounwind
declare dso_local void @_ZNSt8ios_base4InitD1Ev(%"struct.std::less"* nonnull align 1 dereferenceable(1)) unnamed_addr #8

; Function Attrs: mustprogress noinline uwtable
define dso_local i32 @_Z3gcdii(i32 %0, i32 %1) #4 {
  %3 = alloca i32, align 4, !llfi_index !484
  %4 = alloca i32, align 4, !llfi_index !485
  store i32 %0, i32* %3, align 4, !llfi_index !486
  store i32 %1, i32* %4, align 4, !llfi_index !487
  %5 = load i32, i32* %3, align 4, !llfi_index !488
  %6 = icmp ne i32 %5, 0, !llfi_index !489
  br i1 %6, label %7, label %13, !llfi_index !490

7:                                                ; preds = %2
  %8 = load i32, i32* %4, align 4, !llfi_index !491
  %9 = load i32, i32* %3, align 4, !llfi_index !492
  %10 = srem i32 %8, %9, !llfi_index !493
  %11 = load i32, i32* %3, align 4, !llfi_index !494
  %12 = call i32 @_Z3gcdii(i32 %10, i32 %11), !llfi_index !495
  br label %15, !llfi_index !496

13:                                               ; preds = %2
  %14 = load i32, i32* %4, align 4, !llfi_index !497
  br label %15, !llfi_index !498

15:                                               ; preds = %13, %7
  %16 = phi i32 [ %12, %7 ], [ %14, %13 ], !llfi_index !499
  ret i32 %16, !llfi_index !500
}

; Function Attrs: mustprogress noinline uwtable
define dso_local i64 @_Z6getMinii(i32 %0, i32 %1) #4 {
  %3 = alloca i32, align 4, !llfi_index !501
  %4 = alloca i32, align 4, !llfi_index !502
  %5 = alloca i32, align 4, !llfi_index !503
  store i32 %0, i32* %3, align 4, !llfi_index !504
  store i32 %1, i32* %4, align 4, !llfi_index !505
  %6 = load i32, i32* %4, align 4, !llfi_index !506
  %7 = load i32, i32* %3, align 4, !llfi_index !507
  %8 = sub nsw i32 %6, %7, !llfi_index !508
  %9 = add nsw i32 %8, 1, !llfi_index !509
  %10 = sext i32 %9 to i64, !llfi_index !510
  %11 = getelementptr inbounds [50005 x i32], [50005 x i32]* @lg2, i64 0, i64 %10, !llfi_index !511
  %12 = load i32, i32* %11, align 4, !llfi_index !512
  store i32 %12, i32* %5, align 4, !llfi_index !513
  %13 = load i32, i32* %3, align 4, !llfi_index !514
  %14 = sext i32 %13 to i64, !llfi_index !515
  %15 = getelementptr inbounds [50005 x [19 x i64]], [50005 x [19 x i64]]* @mn, i64 0, i64 %14, !llfi_index !516
  %16 = load i32, i32* %5, align 4, !llfi_index !517
  %17 = sext i32 %16 to i64, !llfi_index !518
  %18 = getelementptr inbounds [19 x i64], [19 x i64]* %15, i64 0, i64 %17, !llfi_index !519
  %19 = load i32, i32* %4, align 4, !llfi_index !520
  %20 = load i32, i32* %5, align 4, !llfi_index !521
  %21 = shl i32 1, %20, !llfi_index !522
  %22 = sub nsw i32 %19, %21, !llfi_index !523
  %23 = add nsw i32 %22, 1, !llfi_index !524
  %24 = sext i32 %23 to i64, !llfi_index !525
  %25 = getelementptr inbounds [50005 x [19 x i64]], [50005 x [19 x i64]]* @mn, i64 0, i64 %24, !llfi_index !526
  %26 = load i32, i32* %5, align 4, !llfi_index !527
  %27 = sext i32 %26 to i64, !llfi_index !528
  %28 = getelementptr inbounds [19 x i64], [19 x i64]* %25, i64 0, i64 %27, !llfi_index !529
  %29 = call nonnull align 8 dereferenceable(8) i64* @_ZSt3minIxERKT_S2_S2_(i64* nonnull align 8 dereferenceable(8) %18, i64* nonnull align 8 dereferenceable(8) %28), !llfi_index !530
  %30 = load i64, i64* %29, align 8, !llfi_index !531
  ret i64 %30, !llfi_index !532
}

; Function Attrs: mustprogress noinline nounwind uwtable
define linkonce_odr dso_local nonnull align 8 dereferenceable(8) i64* @_ZSt3minIxERKT_S2_S2_(i64* nonnull align 8 dereferenceable(8) %0, i64* nonnull align 8 dereferenceable(8) %1) #3 comdat {
  %3 = alloca i64*, align 8, !llfi_index !533
  %4 = alloca i64*, align 8, !llfi_index !534
  %5 = alloca i64*, align 8, !llfi_index !535
  store i64* %0, i64** %4, align 8, !llfi_index !536
  store i64* %1, i64** %5, align 8, !llfi_index !537
  %6 = load i64*, i64** %5, align 8, !llfi_index !538
  %7 = load i64, i64* %6, align 8, !llfi_index !539
  %8 = load i64*, i64** %4, align 8, !llfi_index !540
  %9 = load i64, i64* %8, align 8, !llfi_index !541
  %10 = icmp slt i64 %7, %9, !llfi_index !542
  br i1 %10, label %11, label %13, !llfi_index !543

11:                                               ; preds = %2
  %12 = load i64*, i64** %5, align 8, !llfi_index !544
  store i64* %12, i64** %3, align 8, !llfi_index !545
  br label %15, !llfi_index !546

13:                                               ; preds = %2
  %14 = load i64*, i64** %4, align 8, !llfi_index !547
  store i64* %14, i64** %3, align 8, !llfi_index !548
  br label %15, !llfi_index !549

15:                                               ; preds = %13, %11
  %16 = load i64*, i64** %3, align 8, !llfi_index !550
  ret i64* %16, !llfi_index !551
}

; Function Attrs: mustprogress noinline uwtable
define dso_local i64 @_Z6getMaxii(i32 %0, i32 %1) #4 {
  %3 = alloca i32, align 4, !llfi_index !552
  %4 = alloca i32, align 4, !llfi_index !553
  %5 = alloca i32, align 4, !llfi_index !554
  store i32 %0, i32* %3, align 4, !llfi_index !555
  store i32 %1, i32* %4, align 4, !llfi_index !556
  %6 = load i32, i32* %4, align 4, !llfi_index !557
  %7 = load i32, i32* %3, align 4, !llfi_index !558
  %8 = sub nsw i32 %6, %7, !llfi_index !559
  %9 = add nsw i32 %8, 1, !llfi_index !560
  %10 = sext i32 %9 to i64, !llfi_index !561
  %11 = getelementptr inbounds [50005 x i32], [50005 x i32]* @lg2, i64 0, i64 %10, !llfi_index !562
  %12 = load i32, i32* %11, align 4, !llfi_index !563
  store i32 %12, i32* %5, align 4, !llfi_index !564
  %13 = load i32, i32* %3, align 4, !llfi_index !565
  %14 = sext i32 %13 to i64, !llfi_index !566
  %15 = getelementptr inbounds [50005 x [19 x i64]], [50005 x [19 x i64]]* @mx, i64 0, i64 %14, !llfi_index !567
  %16 = load i32, i32* %5, align 4, !llfi_index !568
  %17 = sext i32 %16 to i64, !llfi_index !569
  %18 = getelementptr inbounds [19 x i64], [19 x i64]* %15, i64 0, i64 %17, !llfi_index !570
  %19 = load i32, i32* %4, align 4, !llfi_index !571
  %20 = load i32, i32* %5, align 4, !llfi_index !572
  %21 = shl i32 1, %20, !llfi_index !573
  %22 = sub nsw i32 %19, %21, !llfi_index !574
  %23 = add nsw i32 %22, 1, !llfi_index !575
  %24 = sext i32 %23 to i64, !llfi_index !576
  %25 = getelementptr inbounds [50005 x [19 x i64]], [50005 x [19 x i64]]* @mx, i64 0, i64 %24, !llfi_index !577
  %26 = load i32, i32* %5, align 4, !llfi_index !578
  %27 = sext i32 %26 to i64, !llfi_index !579
  %28 = getelementptr inbounds [19 x i64], [19 x i64]* %25, i64 0, i64 %27, !llfi_index !580
  %29 = call nonnull align 8 dereferenceable(8) i64* @_ZSt3maxIxERKT_S2_S2_(i64* nonnull align 8 dereferenceable(8) %18, i64* nonnull align 8 dereferenceable(8) %28), !llfi_index !581
  %30 = load i64, i64* %29, align 8, !llfi_index !582
  ret i64 %30, !llfi_index !583
}

; Function Attrs: mustprogress noinline nounwind uwtable
define linkonce_odr dso_local nonnull align 8 dereferenceable(8) i64* @_ZSt3maxIxERKT_S2_S2_(i64* nonnull align 8 dereferenceable(8) %0, i64* nonnull align 8 dereferenceable(8) %1) #3 comdat {
  %3 = alloca i64*, align 8, !llfi_index !584
  %4 = alloca i64*, align 8, !llfi_index !585
  %5 = alloca i64*, align 8, !llfi_index !586
  store i64* %0, i64** %4, align 8, !llfi_index !587
  store i64* %1, i64** %5, align 8, !llfi_index !588
  %6 = load i64*, i64** %4, align 8, !llfi_index !589
  %7 = load i64, i64* %6, align 8, !llfi_index !590
  %8 = load i64*, i64** %5, align 8, !llfi_index !591
  %9 = load i64, i64* %8, align 8, !llfi_index !592
  %10 = icmp slt i64 %7, %9, !llfi_index !593
  br i1 %10, label %11, label %13, !llfi_index !594

11:                                               ; preds = %2
  %12 = load i64*, i64** %5, align 8, !llfi_index !595
  store i64* %12, i64** %3, align 8, !llfi_index !596
  br label %15, !llfi_index !597

13:                                               ; preds = %2
  %14 = load i64*, i64** %4, align 8, !llfi_index !598
  store i64* %14, i64** %3, align 8, !llfi_index !599
  br label %15, !llfi_index !600

15:                                               ; preds = %13, %11
  %16 = load i64*, i64** %3, align 8, !llfi_index !601
  ret i64* %16, !llfi_index !602
}

; Function Attrs: mustprogress noinline uwtable
define dso_local i32 @_Z6getGcdii(i32 %0, i32 %1) #4 {
  %3 = alloca i32, align 4, !llfi_index !603
  %4 = alloca i32, align 4, !llfi_index !604
  %5 = alloca i32, align 4, !llfi_index !605
  store i32 %0, i32* %3, align 4, !llfi_index !606
  store i32 %1, i32* %4, align 4, !llfi_index !607
  %6 = load i32, i32* %4, align 4, !llfi_index !608
  %7 = load i32, i32* %3, align 4, !llfi_index !609
  %8 = sub nsw i32 %6, %7, !llfi_index !610
  %9 = add nsw i32 %8, 1, !llfi_index !611
  %10 = sext i32 %9 to i64, !llfi_index !612
  %11 = getelementptr inbounds [50005 x i32], [50005 x i32]* @lg2, i64 0, i64 %10, !llfi_index !613
  %12 = load i32, i32* %11, align 4, !llfi_index !614
  store i32 %12, i32* %5, align 4, !llfi_index !615
  %13 = load i32, i32* %3, align 4, !llfi_index !616
  %14 = sext i32 %13 to i64, !llfi_index !617
  %15 = getelementptr inbounds [50005 x [19 x i32]], [50005 x [19 x i32]]* @G, i64 0, i64 %14, !llfi_index !618
  %16 = load i32, i32* %5, align 4, !llfi_index !619
  %17 = sext i32 %16 to i64, !llfi_index !620
  %18 = getelementptr inbounds [19 x i32], [19 x i32]* %15, i64 0, i64 %17, !llfi_index !621
  %19 = load i32, i32* %18, align 4, !llfi_index !622
  %20 = load i32, i32* %4, align 4, !llfi_index !623
  %21 = load i32, i32* %5, align 4, !llfi_index !624
  %22 = shl i32 1, %21, !llfi_index !625
  %23 = sub nsw i32 %20, %22, !llfi_index !626
  %24 = add nsw i32 %23, 1, !llfi_index !627
  %25 = sext i32 %24 to i64, !llfi_index !628
  %26 = getelementptr inbounds [50005 x [19 x i32]], [50005 x [19 x i32]]* @G, i64 0, i64 %25, !llfi_index !629
  %27 = load i32, i32* %5, align 4, !llfi_index !630
  %28 = sext i32 %27 to i64, !llfi_index !631
  %29 = getelementptr inbounds [19 x i32], [19 x i32]* %26, i64 0, i64 %28, !llfi_index !632
  %30 = load i32, i32* %29, align 4, !llfi_index !633
  %31 = call i32 @_Z3gcdii(i32 %19, i32 %30), !llfi_index !634
  ret i32 %31, !llfi_index !635
}

; Function Attrs: mustprogress noinline uwtable
define dso_local i32 @_Z6goLeftii(i32 %0, i32 %1) #4 {
  %3 = alloca i32, align 4, !llfi_index !636
  %4 = alloca i32, align 4, !llfi_index !637
  %5 = alloca i32, align 4, !llfi_index !638
  store i32 %0, i32* %3, align 4, !llfi_index !639
  store i32 %1, i32* %4, align 4, !llfi_index !640
  store i32 18, i32* %5, align 4, !llfi_index !641
  br label %6, !llfi_index !642

6:                                                ; preds = %37, %2
  %7 = load i32, i32* %5, align 4, !llfi_index !643
  %8 = icmp sge i32 %7, 0, !llfi_index !644
  br i1 %8, label %9, label %40, !llfi_index !645

9:                                                ; preds = %6
  %10 = load i32, i32* %3, align 4, !llfi_index !646
  %11 = load i32, i32* %5, align 4, !llfi_index !647
  %12 = shl i32 1, %11, !llfi_index !648
  %13 = sub nsw i32 %10, %12, !llfi_index !649
  %14 = icmp sgt i32 %13, 0, !llfi_index !650
  br i1 %14, label %15, label %36, !llfi_index !651

15:                                               ; preds = %9
  %16 = load i32, i32* %3, align 4, !llfi_index !652
  %17 = load i32, i32* %5, align 4, !llfi_index !653
  %18 = shl i32 1, %17, !llfi_index !654
  %19 = sub nsw i32 %16, %18, !llfi_index !655
  %20 = sext i32 %19 to i64, !llfi_index !656
  %21 = getelementptr inbounds [50005 x [19 x i32]], [50005 x [19 x i32]]* @G, i64 0, i64 %20, !llfi_index !657
  %22 = load i32, i32* %5, align 4, !llfi_index !658
  %23 = sext i32 %22 to i64, !llfi_index !659
  %24 = getelementptr inbounds [19 x i32], [19 x i32]* %21, i64 0, i64 %23, !llfi_index !660
  %25 = load i32, i32* %24, align 4, !llfi_index !661
  %26 = load i32, i32* %4, align 4, !llfi_index !662
  %27 = call i32 @_Z3gcdii(i32 %25, i32 %26), !llfi_index !663
  %28 = load i32, i32* %4, align 4, !llfi_index !664
  %29 = icmp eq i32 %27, %28, !llfi_index !665
  br i1 %29, label %30, label %35, !llfi_index !666

30:                                               ; preds = %15
  %31 = load i32, i32* %5, align 4, !llfi_index !667
  %32 = shl i32 1, %31, !llfi_index !668
  %33 = load i32, i32* %3, align 4, !llfi_index !669
  %34 = sub nsw i32 %33, %32, !llfi_index !670
  store i32 %34, i32* %3, align 4, !llfi_index !671
  br label %35, !llfi_index !672

35:                                               ; preds = %30, %15
  br label %36, !llfi_index !673

36:                                               ; preds = %35, %9
  br label %37, !llfi_index !674

37:                                               ; preds = %36
  %38 = load i32, i32* %5, align 4, !llfi_index !675
  %39 = add nsw i32 %38, -1, !llfi_index !676
  store i32 %39, i32* %5, align 4, !llfi_index !677
  br label %6, !llvm.loop !678, !llfi_index !679

40:                                               ; preds = %6
  %41 = load i32, i32* %3, align 4, !llfi_index !680
  ret i32 %41, !llfi_index !681
}

; Function Attrs: mustprogress noinline uwtable
define dso_local i32 @_Z7goRightii(i32 %0, i32 %1) #4 {
  %3 = alloca i32, align 4, !llfi_index !682
  %4 = alloca i32, align 4, !llfi_index !683
  %5 = alloca i32, align 4, !llfi_index !684
  store i32 %0, i32* %3, align 4, !llfi_index !685
  store i32 %1, i32* %4, align 4, !llfi_index !686
  %6 = load i32, i32* %3, align 4, !llfi_index !687
  %7 = add nsw i32 %6, -1, !llfi_index !688
  store i32 %7, i32* %3, align 4, !llfi_index !689
  store i32 18, i32* %5, align 4, !llfi_index !690
  br label %8, !llfi_index !691

8:                                                ; preds = %38, %2
  %9 = load i32, i32* %5, align 4, !llfi_index !692
  %10 = icmp sge i32 %9, 0, !llfi_index !693
  br i1 %10, label %11, label %41, !llfi_index !694

11:                                               ; preds = %8
  %12 = load i32, i32* %3, align 4, !llfi_index !695
  %13 = load i32, i32* %5, align 4, !llfi_index !696
  %14 = shl i32 1, %13, !llfi_index !697
  %15 = add nsw i32 %12, %14, !llfi_index !698
  %16 = load i32, i32* @n, align 4, !llfi_index !699
  %17 = icmp sle i32 %15, %16, !llfi_index !700
  br i1 %17, label %18, label %37, !llfi_index !701

18:                                               ; preds = %11
  %19 = load i32, i32* %3, align 4, !llfi_index !702
  %20 = add nsw i32 %19, 1, !llfi_index !703
  %21 = sext i32 %20 to i64, !llfi_index !704
  %22 = getelementptr inbounds [50005 x [19 x i32]], [50005 x [19 x i32]]* @G, i64 0, i64 %21, !llfi_index !705
  %23 = load i32, i32* %5, align 4, !llfi_index !706
  %24 = sext i32 %23 to i64, !llfi_index !707
  %25 = getelementptr inbounds [19 x i32], [19 x i32]* %22, i64 0, i64 %24, !llfi_index !708
  %26 = load i32, i32* %25, align 4, !llfi_index !709
  %27 = load i32, i32* %4, align 4, !llfi_index !710
  %28 = call i32 @_Z3gcdii(i32 %26, i32 %27), !llfi_index !711
  %29 = load i32, i32* %4, align 4, !llfi_index !712
  %30 = icmp eq i32 %28, %29, !llfi_index !713
  br i1 %30, label %31, label %36, !llfi_index !714

31:                                               ; preds = %18
  %32 = load i32, i32* %5, align 4, !llfi_index !715
  %33 = shl i32 1, %32, !llfi_index !716
  %34 = load i32, i32* %3, align 4, !llfi_index !717
  %35 = add nsw i32 %34, %33, !llfi_index !718
  store i32 %35, i32* %3, align 4, !llfi_index !719
  br label %36, !llfi_index !720

36:                                               ; preds = %31, %18
  br label %37, !llfi_index !721

37:                                               ; preds = %36, %11
  br label %38, !llfi_index !722

38:                                               ; preds = %37
  %39 = load i32, i32* %5, align 4, !llfi_index !723
  %40 = add nsw i32 %39, -1, !llfi_index !724
  store i32 %40, i32* %5, align 4, !llfi_index !725
  br label %8, !llvm.loop !726, !llfi_index !727

41:                                               ; preds = %8
  %42 = load i32, i32* %3, align 4, !llfi_index !728
  ret i32 %42, !llfi_index !729
}

; Function Attrs: mustprogress noinline uwtable
define dso_local i64 @_Z5Solveiii(i32 %0, i32 %1, i32 %2) #4 {
  %4 = alloca i32, align 4, !llfi_index !730
  %5 = alloca i32, align 4, !llfi_index !731
  %6 = alloca i32, align 4, !llfi_index !732
  %7 = alloca i32, align 4, !llfi_index !733
  %8 = alloca i32, align 4, !llfi_index !734
  %9 = alloca i64, align 8, !llfi_index !735
  %10 = alloca i32, align 4, !llfi_index !736
  %11 = alloca i32, align 4, !llfi_index !737
  %12 = alloca i32, align 4, !llfi_index !738
  %13 = alloca i32, align 4, !llfi_index !739
  %14 = alloca i32, align 4, !llfi_index !740
  %15 = alloca i32, align 4, !llfi_index !741
  %16 = alloca i64, align 8, !llfi_index !742
  store i32 %0, i32* %4, align 4, !llfi_index !743
  store i32 %1, i32* %5, align 4, !llfi_index !744
  store i32 %2, i32* %6, align 4, !llfi_index !745
  %17 = load i32, i32* %4, align 4, !llfi_index !746
  %18 = sext i32 %17 to i64, !llfi_index !747
  %19 = getelementptr inbounds [50005 x i32], [50005 x i32]* @a, i64 0, i64 %18, !llfi_index !748
  %20 = load i32, i32* %19, align 4, !llfi_index !749
  store i32 %20, i32* %7, align 4, !llfi_index !750
  %21 = load i32, i32* %4, align 4, !llfi_index !751
  store i32 %21, i32* %8, align 4, !llfi_index !752
  store i64 -9000000000000000000, i64* %9, align 8, !llfi_index !753
  br label %22, !llfi_index !754

22:                                               ; preds = %68, %3
  %23 = load i32, i32* %8, align 4, !llfi_index !755
  %24 = load i32, i32* %5, align 4, !llfi_index !756
  %25 = icmp sge i32 %23, %24, !llfi_index !757
  br i1 %25, label %26, label %71, !llfi_index !758

26:                                               ; preds = %22
  %27 = load i32, i32* %8, align 4, !llfi_index !759
  %28 = load i32, i32* %4, align 4, !llfi_index !760
  %29 = call i32 @_Z6getGcdii(i32 %27, i32 %28), !llfi_index !761
  store i32 %29, i32* %10, align 4, !llfi_index !762
  %30 = load i32, i32* %8, align 4, !llfi_index !763
  %31 = load i32, i32* %10, align 4, !llfi_index !764
  %32 = call i32 @_Z6goLeftii(i32 %30, i32 %31), !llfi_index !765
  store i32 %32, i32* %12, align 4, !llfi_index !766
  %33 = call nonnull align 4 dereferenceable(4) i32* @_ZSt3maxIiERKT_S2_S2_(i32* nonnull align 4 dereferenceable(4) %12, i32* nonnull align 4 dereferenceable(4) %5), !llfi_index !767
  %34 = load i32, i32* %33, align 4, !llfi_index !768
  store i32 %34, i32* %11, align 4, !llfi_index !769
  %35 = load i32, i32* %4, align 4, !llfi_index !770
  store i32 %35, i32* %13, align 4, !llfi_index !771
  br label %36, !llfi_index !772

36:                                               ; preds = %40, %26
  %37 = load i32, i32* %13, align 4, !llfi_index !773
  %38 = load i32, i32* %6, align 4, !llfi_index !774
  %39 = icmp sle i32 %37, %38, !llfi_index !775
  br i1 %39, label %40, label %68, !llfi_index !776

40:                                               ; preds = %36
  %41 = load i32, i32* %8, align 4, !llfi_index !777
  %42 = load i32, i32* %13, align 4, !llfi_index !778
  %43 = call i32 @_Z6getGcdii(i32 %41, i32 %42), !llfi_index !779
  store i32 %43, i32* %10, align 4, !llfi_index !780
  %44 = load i32, i32* %13, align 4, !llfi_index !781
  %45 = load i32, i32* %10, align 4, !llfi_index !782
  %46 = call i32 @_Z7goRightii(i32 %44, i32 %45), !llfi_index !783
  store i32 %46, i32* %15, align 4, !llfi_index !784
  %47 = call nonnull align 4 dereferenceable(4) i32* @_ZSt3minIiERKT_S2_S2_(i32* nonnull align 4 dereferenceable(4) %15, i32* nonnull align 4 dereferenceable(4) %6), !llfi_index !785
  %48 = load i32, i32* %47, align 4, !llfi_index !786
  store i32 %48, i32* %14, align 4, !llfi_index !787
  %49 = load i32, i32* %10, align 4, !llfi_index !788
  %50 = sext i32 %49 to i64, !llfi_index !789
  %51 = load i32, i32* %13, align 4, !llfi_index !790
  %52 = load i32, i32* %14, align 4, !llfi_index !791
  %53 = call i64 @_Z6getMaxii(i32 %51, i32 %52), !llfi_index !792
  %54 = load i32, i32* %11, align 4, !llfi_index !793
  %55 = sub nsw i32 %54, 1, !llfi_index !794
  %56 = load i32, i32* %8, align 4, !llfi_index !795
  %57 = sub nsw i32 %56, 1, !llfi_index !796
  %58 = call i64 @_Z6getMinii(i32 %55, i32 %57), !llfi_index !797
  %59 = sub nsw i64 %53, %58, !llfi_index !798
  %60 = load i32, i32* %7, align 4, !llfi_index !799
  %61 = sext i32 %60 to i64, !llfi_index !800
  %62 = sub nsw i64 %59, %61, !llfi_index !801
  %63 = mul nsw i64 %50, %62, !llfi_index !802
  store i64 %63, i64* %16, align 8, !llfi_index !803
  %64 = call nonnull align 8 dereferenceable(8) i64* @_ZSt3maxIxERKT_S2_S2_(i64* nonnull align 8 dereferenceable(8) %9, i64* nonnull align 8 dereferenceable(8) %16), !llfi_index !804
  %65 = load i64, i64* %64, align 8, !llfi_index !805
  store i64 %65, i64* %9, align 8, !llfi_index !806
  %66 = load i32, i32* %14, align 4, !llfi_index !807
  %67 = add nsw i32 %66, 1, !llfi_index !808
  store i32 %67, i32* %13, align 4, !llfi_index !809
  br label %36, !llvm.loop !810, !llfi_index !811

68:                                               ; preds = %36
  %69 = load i32, i32* %11, align 4, !llfi_index !812
  %70 = sub nsw i32 %69, 1, !llfi_index !813
  store i32 %70, i32* %8, align 4, !llfi_index !814
  br label %22, !llvm.loop !815, !llfi_index !816

71:                                               ; preds = %22
  %72 = load i64, i64* %9, align 8, !llfi_index !817
  ret i64 %72, !llfi_index !818
}

; Function Attrs: mustprogress noinline nounwind uwtable
define linkonce_odr dso_local nonnull align 4 dereferenceable(4) i32* @_ZSt3maxIiERKT_S2_S2_(i32* nonnull align 4 dereferenceable(4) %0, i32* nonnull align 4 dereferenceable(4) %1) #3 comdat {
  %3 = alloca i32*, align 8, !llfi_index !819
  %4 = alloca i32*, align 8, !llfi_index !820
  %5 = alloca i32*, align 8, !llfi_index !821
  store i32* %0, i32** %4, align 8, !llfi_index !822
  store i32* %1, i32** %5, align 8, !llfi_index !823
  %6 = load i32*, i32** %4, align 8, !llfi_index !824
  %7 = load i32, i32* %6, align 4, !llfi_index !825
  %8 = load i32*, i32** %5, align 8, !llfi_index !826
  %9 = load i32, i32* %8, align 4, !llfi_index !827
  %10 = icmp slt i32 %7, %9, !llfi_index !828
  br i1 %10, label %11, label %13, !llfi_index !829

11:                                               ; preds = %2
  %12 = load i32*, i32** %5, align 8, !llfi_index !830
  store i32* %12, i32** %3, align 8, !llfi_index !831
  br label %15, !llfi_index !832

13:                                               ; preds = %2
  %14 = load i32*, i32** %4, align 8, !llfi_index !833
  store i32* %14, i32** %3, align 8, !llfi_index !834
  br label %15, !llfi_index !835

15:                                               ; preds = %13, %11
  %16 = load i32*, i32** %3, align 8, !llfi_index !836
  ret i32* %16, !llfi_index !837
}

; Function Attrs: mustprogress noinline nounwind uwtable
define linkonce_odr dso_local nonnull align 4 dereferenceable(4) i32* @_ZSt3minIiERKT_S2_S2_(i32* nonnull align 4 dereferenceable(4) %0, i32* nonnull align 4 dereferenceable(4) %1) #3 comdat {
  %3 = alloca i32*, align 8, !llfi_index !838
  %4 = alloca i32*, align 8, !llfi_index !839
  %5 = alloca i32*, align 8, !llfi_index !840
  store i32* %0, i32** %4, align 8, !llfi_index !841
  store i32* %1, i32** %5, align 8, !llfi_index !842
  %6 = load i32*, i32** %5, align 8, !llfi_index !843
  %7 = load i32, i32* %6, align 4, !llfi_index !844
  %8 = load i32*, i32** %4, align 8, !llfi_index !845
  %9 = load i32, i32* %8, align 4, !llfi_index !846
  %10 = icmp slt i32 %7, %9, !llfi_index !847
  br i1 %10, label %11, label %13, !llfi_index !848

11:                                               ; preds = %2
  %12 = load i32*, i32** %5, align 8, !llfi_index !849
  store i32* %12, i32** %3, align 8, !llfi_index !850
  br label %15, !llfi_index !851

13:                                               ; preds = %2
  %14 = load i32*, i32** %4, align 8, !llfi_index !852
  store i32* %14, i32** %3, align 8, !llfi_index !853
  br label %15, !llfi_index !854

15:                                               ; preds = %13, %11
  %16 = load i32*, i32** %3, align 8, !llfi_index !855
  ret i32* %16, !llfi_index !856
}

; Function Attrs: mustprogress noinline norecurse uwtable
define dso_local i32 @main() #9 {
  %1 = alloca i32, align 4, !llfi_index !857
  %2 = alloca i32, align 4, !llfi_index !858
  %3 = alloca i32, align 4, !llfi_index !859
  %4 = alloca i32, align 4, !llfi_index !860
  %5 = alloca i64, align 8, !llfi_index !861
  %6 = alloca i32, align 4, !llfi_index !862
  %7 = alloca %"struct.std::pair", align 4, !llfi_index !863
  %8 = alloca i32, align 4, !llfi_index !864
  %9 = alloca i32, align 4, !llfi_index !865
  %10 = alloca i32, align 4, !llfi_index !866
  %11 = alloca %"class.std::reverse_iterator", align 8, !llfi_index !867
  %12 = alloca %"class.std::reverse_iterator", align 8, !llfi_index !868
  %13 = alloca i32, align 4, !llfi_index !869
  %14 = alloca i32, align 4, !llfi_index !870
  %15 = alloca i32, align 4, !llfi_index !871
  %16 = alloca i32, align 4, !llfi_index !872
  %17 = alloca %"struct.std::_Rb_tree_const_iterator", align 8, !llfi_index !873
  %18 = alloca %"struct.std::_Rb_tree_const_iterator", align 8, !llfi_index !874
  %19 = alloca %"struct.std::_Rb_tree_const_iterator", align 8, !llfi_index !875
  %20 = alloca %"struct.std::_Rb_tree_const_iterator", align 8, !llfi_index !876
  %21 = alloca i64, align 8, !llfi_index !877
  %22 = alloca %"struct.std::pair.3", align 8, !llfi_index !878
  store i32 0, i32* %1, align 4, !llfi_index !879
  %23 = load %struct._IO_FILE*, %struct._IO_FILE** @stdin, align 8, !llfi_index !880
  %24 = call %struct._IO_FILE* @freopen(i8* getelementptr inbounds ([31 x i8], [31 x i8]* @.str, i64 0, i64 0), i8* getelementptr inbounds ([2 x i8], [2 x i8]* @.str.3, i64 0, i64 0), %struct._IO_FILE* %23), !llfi_index !881
  store i32 89, i32* %2, align 4, !llfi_index !882
  store i32 0, i32* %3, align 4, !llfi_index !883
  br label %25, !llfi_index !884

25:                                               ; preds = %51, %0
  %26 = load i32, i32* %3, align 4, !llfi_index !885
  %27 = icmp slt i32 %26, 19, !llfi_index !886
  br i1 %27, label %28, label %54, !llfi_index !887

28:                                               ; preds = %25
  %29 = load i32, i32* %3, align 4, !llfi_index !888
  %30 = shl i32 1, %29, !llfi_index !889
  store i32 %30, i32* %4, align 4, !llfi_index !890
  br label %31, !llfi_index !891

31:                                               ; preds = %47, %28
  %32 = load i32, i32* %4, align 4, !llfi_index !892
  %33 = load i32, i32* %3, align 4, !llfi_index !893
  %34 = add nsw i32 %33, 1, !llfi_index !894
  %35 = shl i32 1, %34, !llfi_index !895
  %36 = icmp slt i32 %32, %35, !llfi_index !896
  br i1 %36, label %37, label %40, !llfi_index !897

37:                                               ; preds = %31
  %38 = load i32, i32* %4, align 4, !llfi_index !898
  %39 = icmp slt i32 %38, 50005, !llfi_index !899
  br label %40, !llfi_index !900

40:                                               ; preds = %37, %31
  %41 = phi i1 [ false, %31 ], [ %39, %37 ], !llfi_index !901
  br i1 %41, label %42, label %50, !llfi_index !902

42:                                               ; preds = %40
  %43 = load i32, i32* %3, align 4, !llfi_index !903
  %44 = load i32, i32* %4, align 4, !llfi_index !904
  %45 = sext i32 %44 to i64, !llfi_index !905
  %46 = getelementptr inbounds [50005 x i32], [50005 x i32]* @lg2, i64 0, i64 %45, !llfi_index !906
  store i32 %43, i32* %46, align 4, !llfi_index !907
  br label %47, !llfi_index !908

47:                                               ; preds = %42
  %48 = load i32, i32* %4, align 4, !llfi_index !909
  %49 = add nsw i32 %48, 1, !llfi_index !910
  store i32 %49, i32* %4, align 4, !llfi_index !911
  br label %31, !llvm.loop !912, !llfi_index !913

50:                                               ; preds = %40
  br label %51, !llfi_index !914

51:                                               ; preds = %50
  %52 = load i32, i32* %3, align 4, !llfi_index !915
  %53 = add nsw i32 %52, 1, !llfi_index !916
  store i32 %53, i32* %3, align 4, !llfi_index !917
  br label %25, !llvm.loop !918, !llfi_index !919

54:                                               ; preds = %25
  %55 = call i32 (i8*, ...) @__isoc99_scanf(i8* getelementptr inbounds ([3 x i8], [3 x i8]* @.str.4, i64 0, i64 0), i32* @n), !llfi_index !920
  store i64 0, i64* %5, align 8, !llfi_index !921
  store i32 89, i32* %2, align 4, !llfi_index !922
  store i32 1, i32* %6, align 4, !llfi_index !923
  br label %56, !llfi_index !924

56:                                               ; preds = %93, %54
  %57 = load i32, i32* %6, align 4, !llfi_index !925
  %58 = load i32, i32* @n, align 4, !llfi_index !926
  %59 = icmp sle i32 %57, %58, !llfi_index !927
  br i1 %59, label %60, label %96, !llfi_index !928

60:                                               ; preds = %56
  %61 = load i32, i32* %6, align 4, !llfi_index !929
  %62 = sext i32 %61 to i64, !llfi_index !930
  %63 = getelementptr inbounds [50005 x i32], [50005 x i32]* @a, i64 0, i64 %62, !llfi_index !931
  %64 = call i32 (i8*, ...) @__isoc99_scanf(i8* getelementptr inbounds ([3 x i8], [3 x i8]* @.str.4, i64 0, i64 0), i32* %63), !llfi_index !932
  %65 = load i32, i32* %6, align 4, !llfi_index !933
  %66 = sext i32 %65 to i64, !llfi_index !934
  %67 = getelementptr inbounds [50005 x i32], [50005 x i32]* @a, i64 0, i64 %66, !llfi_index !935
  %68 = load i32, i32* %67, align 4, !llfi_index !936
  %69 = call i32 @abs(i32 %68) #17, !llfi_index !937
  %70 = load i32, i32* %6, align 4, !llfi_index !938
  %71 = sext i32 %70 to i64, !llfi_index !939
  %72 = getelementptr inbounds [50005 x [19 x i32]], [50005 x [19 x i32]]* @G, i64 0, i64 %71, !llfi_index !940
  %73 = getelementptr inbounds [19 x i32], [19 x i32]* %72, i64 0, i64 0, !llfi_index !941
  store i32 %69, i32* %73, align 4, !llfi_index !942
  %74 = load i32, i32* %6, align 4, !llfi_index !943
  %75 = sext i32 %74 to i64, !llfi_index !944
  %76 = getelementptr inbounds [50005 x i32], [50005 x i32]* @a, i64 0, i64 %75, !llfi_index !945
  %77 = load i32, i32* %76, align 4, !llfi_index !946
  %78 = sext i32 %77 to i64, !llfi_index !947
  %79 = load i64, i64* %5, align 8, !llfi_index !948
  %80 = add nsw i64 %79, %78, !llfi_index !949
  store i64 %80, i64* %5, align 8, !llfi_index !950
  %81 = load i64, i64* %5, align 8, !llfi_index !951
  %82 = load i32, i32* %6, align 4, !llfi_index !952
  %83 = sext i32 %82 to i64, !llfi_index !953
  %84 = getelementptr inbounds [50005 x [19 x i64]], [50005 x [19 x i64]]* @mx, i64 0, i64 %83, !llfi_index !954
  %85 = getelementptr inbounds [19 x i64], [19 x i64]* %84, i64 0, i64 0, !llfi_index !955
  store i64 %81, i64* %85, align 8, !llfi_index !956
  %86 = load i32, i32* %6, align 4, !llfi_index !957
  %87 = sext i32 %86 to i64, !llfi_index !958
  %88 = getelementptr inbounds [50005 x [19 x i64]], [50005 x [19 x i64]]* @mn, i64 0, i64 %87, !llfi_index !959
  %89 = getelementptr inbounds [19 x i64], [19 x i64]* %88, i64 0, i64 0, !llfi_index !960
  store i64 %81, i64* %89, align 8, !llfi_index !961
  %90 = load i32, i32* %6, align 4, !llfi_index !962
  %91 = sext i32 %90 to i64, !llfi_index !963
  %92 = getelementptr inbounds [50005 x i32], [50005 x i32]* @a, i64 0, i64 %91, !llfi_index !964
  call void @_ZNSt4pairIiiEC2IRiS2_Lb1EEEOT_OT0_(%"struct.std::pair"* nonnull align 4 dereferenceable(8) %7, i32* nonnull align 4 dereferenceable(4) %92, i32* nonnull align 4 dereferenceable(4) %6), !llfi_index !965
  call void @_ZNSt6vectorISt4pairIiiESaIS1_EE9push_backEOS1_(%"class.std::vector"* nonnull align 8 dereferenceable(24) @seq, %"struct.std::pair"* nonnull align 4 dereferenceable(8) %7), !llfi_index !966
  br label %93, !llfi_index !967

93:                                               ; preds = %60
  %94 = load i32, i32* %6, align 4, !llfi_index !968
  %95 = add nsw i32 %94, 1, !llfi_index !969
  store i32 %95, i32* %6, align 4, !llfi_index !970
  br label %56, !llvm.loop !971, !llfi_index !972

96:                                               ; preds = %56
  store i32 89, i32* %2, align 4, !llfi_index !973
  store i32 1, i32* %8, align 4, !llfi_index !974
  br label %97, !llfi_index !975

97:                                               ; preds = %186, %96
  %98 = load i32, i32* %8, align 4, !llfi_index !976
  %99 = icmp slt i32 %98, 19, !llfi_index !977
  br i1 %99, label %100, label %189, !llfi_index !978

100:                                              ; preds = %97
  store i32 89, i32* %2, align 4, !llfi_index !979
  store i32 0, i32* %9, align 4, !llfi_index !980
  br label %101, !llfi_index !981

101:                                              ; preds = %182, %100
  %102 = load i32, i32* %9, align 4, !llfi_index !982
  %103 = load i32, i32* %8, align 4, !llfi_index !983
  %104 = shl i32 1, %103, !llfi_index !984
  %105 = add nsw i32 %102, %104, !llfi_index !985
  %106 = load i32, i32* @n, align 4, !llfi_index !986
  %107 = add nsw i32 %106, 2, !llfi_index !987
  %108 = icmp sle i32 %105, %107, !llfi_index !988
  br i1 %108, label %109, label %185, !llfi_index !989

109:                                              ; preds = %101
  %110 = load i32, i32* %9, align 4, !llfi_index !990
  %111 = load i32, i32* %8, align 4, !llfi_index !991
  %112 = sub nsw i32 %111, 1, !llfi_index !992
  %113 = shl i32 1, %112, !llfi_index !993
  %114 = add nsw i32 %110, %113, !llfi_index !994
  store i32 %114, i32* %10, align 4, !llfi_index !995
  %115 = load i32, i32* %9, align 4, !llfi_index !996
  %116 = sext i32 %115 to i64, !llfi_index !997
  %117 = getelementptr inbounds [50005 x [19 x i32]], [50005 x [19 x i32]]* @G, i64 0, i64 %116, !llfi_index !998
  %118 = load i32, i32* %8, align 4, !llfi_index !999
  %119 = sub nsw i32 %118, 1, !llfi_index !1000
  %120 = sext i32 %119 to i64, !llfi_index !1001
  %121 = getelementptr inbounds [19 x i32], [19 x i32]* %117, i64 0, i64 %120, !llfi_index !1002
  %122 = load i32, i32* %121, align 4, !llfi_index !1003
  %123 = load i32, i32* %10, align 4, !llfi_index !1004
  %124 = sext i32 %123 to i64, !llfi_index !1005
  %125 = getelementptr inbounds [50005 x [19 x i32]], [50005 x [19 x i32]]* @G, i64 0, i64 %124, !llfi_index !1006
  %126 = load i32, i32* %8, align 4, !llfi_index !1007
  %127 = sub nsw i32 %126, 1, !llfi_index !1008
  %128 = sext i32 %127 to i64, !llfi_index !1009
  %129 = getelementptr inbounds [19 x i32], [19 x i32]* %125, i64 0, i64 %128, !llfi_index !1010
  %130 = load i32, i32* %129, align 4, !llfi_index !1011
  %131 = call i32 @_Z3gcdii(i32 %122, i32 %130), !llfi_index !1012
  %132 = load i32, i32* %9, align 4, !llfi_index !1013
  %133 = sext i32 %132 to i64, !llfi_index !1014
  %134 = getelementptr inbounds [50005 x [19 x i32]], [50005 x [19 x i32]]* @G, i64 0, i64 %133, !llfi_index !1015
  %135 = load i32, i32* %8, align 4, !llfi_index !1016
  %136 = sext i32 %135 to i64, !llfi_index !1017
  %137 = getelementptr inbounds [19 x i32], [19 x i32]* %134, i64 0, i64 %136, !llfi_index !1018
  store i32 %131, i32* %137, align 4, !llfi_index !1019
  %138 = load i32, i32* %9, align 4, !llfi_index !1020
  %139 = sext i32 %138 to i64, !llfi_index !1021
  %140 = getelementptr inbounds [50005 x [19 x i64]], [50005 x [19 x i64]]* @mn, i64 0, i64 %139, !llfi_index !1022
  %141 = load i32, i32* %8, align 4, !llfi_index !1023
  %142 = sub nsw i32 %141, 1, !llfi_index !1024
  %143 = sext i32 %142 to i64, !llfi_index !1025
  %144 = getelementptr inbounds [19 x i64], [19 x i64]* %140, i64 0, i64 %143, !llfi_index !1026
  %145 = load i32, i32* %10, align 4, !llfi_index !1027
  %146 = sext i32 %145 to i64, !llfi_index !1028
  %147 = getelementptr inbounds [50005 x [19 x i64]], [50005 x [19 x i64]]* @mn, i64 0, i64 %146, !llfi_index !1029
  %148 = load i32, i32* %8, align 4, !llfi_index !1030
  %149 = sub nsw i32 %148, 1, !llfi_index !1031
  %150 = sext i32 %149 to i64, !llfi_index !1032
  %151 = getelementptr inbounds [19 x i64], [19 x i64]* %147, i64 0, i64 %150, !llfi_index !1033
  %152 = call nonnull align 8 dereferenceable(8) i64* @_ZSt3minIxERKT_S2_S2_(i64* nonnull align 8 dereferenceable(8) %144, i64* nonnull align 8 dereferenceable(8) %151), !llfi_index !1034
  %153 = load i64, i64* %152, align 8, !llfi_index !1035
  %154 = load i32, i32* %9, align 4, !llfi_index !1036
  %155 = sext i32 %154 to i64, !llfi_index !1037
  %156 = getelementptr inbounds [50005 x [19 x i64]], [50005 x [19 x i64]]* @mn, i64 0, i64 %155, !llfi_index !1038
  %157 = load i32, i32* %8, align 4, !llfi_index !1039
  %158 = sext i32 %157 to i64, !llfi_index !1040
  %159 = getelementptr inbounds [19 x i64], [19 x i64]* %156, i64 0, i64 %158, !llfi_index !1041
  store i64 %153, i64* %159, align 8, !llfi_index !1042
  %160 = load i32, i32* %9, align 4, !llfi_index !1043
  %161 = sext i32 %160 to i64, !llfi_index !1044
  %162 = getelementptr inbounds [50005 x [19 x i64]], [50005 x [19 x i64]]* @mx, i64 0, i64 %161, !llfi_index !1045
  %163 = load i32, i32* %8, align 4, !llfi_index !1046
  %164 = sub nsw i32 %163, 1, !llfi_index !1047
  %165 = sext i32 %164 to i64, !llfi_index !1048
  %166 = getelementptr inbounds [19 x i64], [19 x i64]* %162, i64 0, i64 %165, !llfi_index !1049
  %167 = load i32, i32* %10, align 4, !llfi_index !1050
  %168 = sext i32 %167 to i64, !llfi_index !1051
  %169 = getelementptr inbounds [50005 x [19 x i64]], [50005 x [19 x i64]]* @mx, i64 0, i64 %168, !llfi_index !1052
  %170 = load i32, i32* %8, align 4, !llfi_index !1053
  %171 = sub nsw i32 %170, 1, !llfi_index !1054
  %172 = sext i32 %171 to i64, !llfi_index !1055
  %173 = getelementptr inbounds [19 x i64], [19 x i64]* %169, i64 0, i64 %172, !llfi_index !1056
  %174 = call nonnull align 8 dereferenceable(8) i64* @_ZSt3maxIxERKT_S2_S2_(i64* nonnull align 8 dereferenceable(8) %166, i64* nonnull align 8 dereferenceable(8) %173), !llfi_index !1057
  %175 = load i64, i64* %174, align 8, !llfi_index !1058
  %176 = load i32, i32* %9, align 4, !llfi_index !1059
  %177 = sext i32 %176 to i64, !llfi_index !1060
  %178 = getelementptr inbounds [50005 x [19 x i64]], [50005 x [19 x i64]]* @mx, i64 0, i64 %177, !llfi_index !1061
  %179 = load i32, i32* %8, align 4, !llfi_index !1062
  %180 = sext i32 %179 to i64, !llfi_index !1063
  %181 = getelementptr inbounds [19 x i64], [19 x i64]* %178, i64 0, i64 %180, !llfi_index !1064
  store i64 %175, i64* %181, align 8, !llfi_index !1065
  br label %182, !llfi_index !1066

182:                                              ; preds = %109
  %183 = load i32, i32* %9, align 4, !llfi_index !1067
  %184 = add nsw i32 %183, 1, !llfi_index !1068
  store i32 %184, i32* %9, align 4, !llfi_index !1069
  br label %101, !llvm.loop !1070, !llfi_index !1071

185:                                              ; preds = %101
  br label %186, !llfi_index !1072

186:                                              ; preds = %185
  %187 = load i32, i32* %8, align 4, !llfi_index !1073
  %188 = add nsw i32 %187, 1, !llfi_index !1074
  store i32 %188, i32* %8, align 4, !llfi_index !1075
  br label %97, !llvm.loop !1076, !llfi_index !1077

189:                                              ; preds = %97
  call void @_ZNSt6vectorISt4pairIiiESaIS1_EE6rbeginEv(%"class.std::reverse_iterator"* sret(%"class.std::reverse_iterator") align 8 %11, %"class.std::vector"* nonnull align 8 dereferenceable(24) @seq) #2, !llfi_index !1078
  call void @_ZNSt6vectorISt4pairIiiESaIS1_EE4rendEv(%"class.std::reverse_iterator"* sret(%"class.std::reverse_iterator") align 8 %12, %"class.std::vector"* nonnull align 8 dereferenceable(24) @seq) #2, !llfi_index !1079
  call void @_ZSt4sortISt16reverse_iteratorIN9__gnu_cxx17__normal_iteratorIPSt4pairIiiESt6vectorIS4_SaIS4_EEEEEEvT_SB_(%"class.std::reverse_iterator"* %11, %"class.std::reverse_iterator"* %12), !llfi_index !1080
  store i32 89, i32* %2, align 4, !llfi_index !1081
  store i32 0, i32* %13, align 4, !llfi_index !1082
  br label %190, !llfi_index !1083

190:                                              ; preds = %234, %189
  %191 = load i32, i32* %13, align 4, !llfi_index !1084
  %192 = sext i32 %191 to i64, !llfi_index !1085
  %193 = call i64 @_ZNKSt6vectorISt4pairIiiESaIS1_EE4sizeEv(%"class.std::vector"* nonnull align 8 dereferenceable(24) @seq) #2, !llfi_index !1086
  %194 = icmp ult i64 %192, %193, !llfi_index !1087
  br i1 %194, label %195, label %237, !llfi_index !1088

195:                                              ; preds = %190
  %196 = load i32, i32* %13, align 4, !llfi_index !1089
  %197 = sext i32 %196 to i64, !llfi_index !1090
  %198 = call nonnull align 4 dereferenceable(8) %"struct.std::pair"* @_ZNSt6vectorISt4pairIiiESaIS1_EEixEm(%"class.std::vector"* nonnull align 8 dereferenceable(24) @seq, i64 %197) #2, !llfi_index !1091
  %199 = getelementptr inbounds %"struct.std::pair", %"struct.std::pair"* %198, i32 0, i32 1, !llfi_index !1092
  %200 = load i32, i32* %199, align 4, !llfi_index !1093
  store i32 %200, i32* %14, align 4, !llfi_index !1094
  store i32 1, i32* %15, align 4, !llfi_index !1095
  %201 = load i32, i32* @n, align 4, !llfi_index !1096
  store i32 %201, i32* %16, align 4, !llfi_index !1097
  %202 = call %"struct.std::_Rb_tree_node_base"* @_ZNSt3setIiSt4lessIiESaIiEE11lower_boundERKi(%"class.std::set"* nonnull align 8 dereferenceable(48) @S, i32* nonnull align 4 dereferenceable(4) %14), !llfi_index !1098
  %203 = getelementptr inbounds %"struct.std::_Rb_tree_const_iterator", %"struct.std::_Rb_tree_const_iterator"* %17, i32 0, i32 0, !llfi_index !1099
  store %"struct.std::_Rb_tree_node_base"* %202, %"struct.std::_Rb_tree_node_base"** %203, align 8, !llfi_index !1100
  %204 = call %"struct.std::_Rb_tree_node_base"* @_ZNKSt3setIiSt4lessIiESaIiEE3endEv(%"class.std::set"* nonnull align 8 dereferenceable(48) @S) #2, !llfi_index !1101
  %205 = getelementptr inbounds %"struct.std::_Rb_tree_const_iterator", %"struct.std::_Rb_tree_const_iterator"* %18, i32 0, i32 0, !llfi_index !1102
  store %"struct.std::_Rb_tree_node_base"* %204, %"struct.std::_Rb_tree_node_base"** %205, align 8, !llfi_index !1103
  %206 = call zeroext i1 @_ZStneRKSt23_Rb_tree_const_iteratorIiES2_(%"struct.std::_Rb_tree_const_iterator"* nonnull align 8 dereferenceable(8) %17, %"struct.std::_Rb_tree_const_iterator"* nonnull align 8 dereferenceable(8) %18) #2, !llfi_index !1104
  br i1 %206, label %207, label %211, !llfi_index !1105

207:                                              ; preds = %195
  %208 = call nonnull align 4 dereferenceable(4) i32* @_ZNKSt23_Rb_tree_const_iteratorIiEdeEv(%"struct.std::_Rb_tree_const_iterator"* nonnull align 8 dereferenceable(8) %17) #2, !llfi_index !1106
  %209 = load i32, i32* %208, align 4, !llfi_index !1107
  %210 = sub nsw i32 %209, 1, !llfi_index !1108
  store i32 %210, i32* %16, align 4, !llfi_index !1109
  br label %211, !llfi_index !1110

211:                                              ; preds = %207, %195
  %212 = call %"struct.std::_Rb_tree_node_base"* @_ZNKSt3setIiSt4lessIiESaIiEE5beginEv(%"class.std::set"* nonnull align 8 dereferenceable(48) @S) #2, !llfi_index !1111
  %213 = getelementptr inbounds %"struct.std::_Rb_tree_const_iterator", %"struct.std::_Rb_tree_const_iterator"* %19, i32 0, i32 0, !llfi_index !1112
  store %"struct.std::_Rb_tree_node_base"* %212, %"struct.std::_Rb_tree_node_base"** %213, align 8, !llfi_index !1113
  %214 = call zeroext i1 @_ZStneRKSt23_Rb_tree_const_iteratorIiES2_(%"struct.std::_Rb_tree_const_iterator"* nonnull align 8 dereferenceable(8) %17, %"struct.std::_Rb_tree_const_iterator"* nonnull align 8 dereferenceable(8) %19) #2, !llfi_index !1114
  br i1 %214, label %215, label %221, !llfi_index !1115

215:                                              ; preds = %211
  %216 = call %"struct.std::_Rb_tree_node_base"* @_ZNSt23_Rb_tree_const_iteratorIiEmmEi(%"struct.std::_Rb_tree_const_iterator"* nonnull align 8 dereferenceable(8) %17, i32 0) #2, !llfi_index !1116
  %217 = getelementptr inbounds %"struct.std::_Rb_tree_const_iterator", %"struct.std::_Rb_tree_const_iterator"* %20, i32 0, i32 0, !llfi_index !1117
  store %"struct.std::_Rb_tree_node_base"* %216, %"struct.std::_Rb_tree_node_base"** %217, align 8, !llfi_index !1118
  %218 = call nonnull align 4 dereferenceable(4) i32* @_ZNKSt23_Rb_tree_const_iteratorIiEdeEv(%"struct.std::_Rb_tree_const_iterator"* nonnull align 8 dereferenceable(8) %17) #2, !llfi_index !1119
  %219 = load i32, i32* %218, align 4, !llfi_index !1120
  %220 = add nsw i32 %219, 1, !llfi_index !1121
  store i32 %220, i32* %15, align 4, !llfi_index !1122
  br label %221, !llfi_index !1123

221:                                              ; preds = %215, %211
  %222 = load i32, i32* %14, align 4, !llfi_index !1124
  %223 = load i32, i32* %15, align 4, !llfi_index !1125
  %224 = load i32, i32* %16, align 4, !llfi_index !1126
  %225 = call i64 @_Z5Solveiii(i32 %222, i32 %223, i32 %224), !llfi_index !1127
  store i64 %225, i64* %21, align 8, !llfi_index !1128
  %226 = call nonnull align 8 dereferenceable(8) i64* @_ZSt3maxIxERKT_S2_S2_(i64* nonnull align 8 dereferenceable(8) @res, i64* nonnull align 8 dereferenceable(8) %21), !llfi_index !1129
  %227 = load i64, i64* %226, align 8, !llfi_index !1130
  store i64 %227, i64* @res, align 8, !llfi_index !1131
  %228 = call { %"struct.std::_Rb_tree_node_base"*, i8 } @_ZNSt3setIiSt4lessIiESaIiEE6insertERKi(%"class.std::set"* nonnull align 8 dereferenceable(48) @S, i32* nonnull align 4 dereferenceable(4) %14), !llfi_index !1132
  %229 = bitcast %"struct.std::pair.3"* %22 to { %"struct.std::_Rb_tree_node_base"*, i8 }*, !llfi_index !1133
  %230 = getelementptr inbounds { %"struct.std::_Rb_tree_node_base"*, i8 }, { %"struct.std::_Rb_tree_node_base"*, i8 }* %229, i32 0, i32 0, !llfi_index !1134
  %231 = extractvalue { %"struct.std::_Rb_tree_node_base"*, i8 } %228, 0, !llfi_index !1135
  store %"struct.std::_Rb_tree_node_base"* %231, %"struct.std::_Rb_tree_node_base"** %230, align 8, !llfi_index !1136
  %232 = getelementptr inbounds { %"struct.std::_Rb_tree_node_base"*, i8 }, { %"struct.std::_Rb_tree_node_base"*, i8 }* %229, i32 0, i32 1, !llfi_index !1137
  %233 = extractvalue { %"struct.std::_Rb_tree_node_base"*, i8 } %228, 1, !llfi_index !1138
  store i8 %233, i8* %232, align 8, !llfi_index !1139
  br label %234, !llfi_index !1140

234:                                              ; preds = %221
  %235 = load i32, i32* %13, align 4, !llfi_index !1141
  %236 = add nsw i32 %235, 1, !llfi_index !1142
  store i32 %236, i32* %13, align 4, !llfi_index !1143
  br label %190, !llvm.loop !1144, !llfi_index !1145

237:                                              ; preds = %190
  %238 = load i64, i64* @res, align 8, !llfi_index !1146
  %239 = call nonnull align 8 dereferenceable(8) %"class.std::basic_ostream"* @_ZNSolsEx(%"class.std::basic_ostream"* nonnull align 8 dereferenceable(8) @_ZSt4cout, i64 %238), !llfi_index !1147
  %240 = call nonnull align 8 dereferenceable(8) %"class.std::basic_ostream"* @_ZNSolsEPFRSoS_E(%"class.std::basic_ostream"* nonnull align 8 dereferenceable(8) %239, %"class.std::basic_ostream"* (%"class.std::basic_ostream"*)* @_ZSt4endlIcSt11char_traitsIcEERSt13basic_ostreamIT_T0_ES6_), !llfi_index !1148
  ret i32 0, !llfi_index !1149
}

declare dso_local %struct._IO_FILE* @freopen(i8*, i8*, %struct._IO_FILE*) #7

declare dso_local i32 @__isoc99_scanf(i8*, ...) #7

; Function Attrs: nounwind readnone willreturn
declare dso_local i32 @abs(i32) #10

; Function Attrs: noinline nounwind uwtable
define linkonce_odr dso_local void @_ZNSt4pairIiiEC2IRiS2_Lb1EEEOT_OT0_(%"struct.std::pair"* nonnull align 4 dereferenceable(8) %0, i32* nonnull align 4 dereferenceable(4) %1, i32* nonnull align 4 dereferenceable(4) %2) unnamed_addr #1 comdat align 2 {
  %4 = alloca %"struct.std::pair"*, align 8, !llfi_index !1150
  %5 = alloca i32*, align 8, !llfi_index !1151
  %6 = alloca i32*, align 8, !llfi_index !1152
  store %"struct.std::pair"* %0, %"struct.std::pair"** %4, align 8, !llfi_index !1153
  store i32* %1, i32** %5, align 8, !llfi_index !1154
  store i32* %2, i32** %6, align 8, !llfi_index !1155
  %7 = load %"struct.std::pair"*, %"struct.std::pair"** %4, align 8, !llfi_index !1156
  %8 = bitcast %"struct.std::pair"* %7 to %"struct.std::less"*, !llfi_index !1157
  %9 = getelementptr inbounds %"struct.std::pair", %"struct.std::pair"* %7, i32 0, i32 0, !llfi_index !1158
  %10 = load i32*, i32** %5, align 8, !llfi_index !1159
  %11 = call nonnull align 4 dereferenceable(4) i32* @_ZSt7forwardIRiEOT_RNSt16remove_referenceIS1_E4typeE(i32* nonnull align 4 dereferenceable(4) %10) #2, !llfi_index !1160
  %12 = load i32, i32* %11, align 4, !llfi_index !1161
  store i32 %12, i32* %9, align 4, !llfi_index !1162
  %13 = getelementptr inbounds %"struct.std::pair", %"struct.std::pair"* %7, i32 0, i32 1, !llfi_index !1163
  %14 = load i32*, i32** %6, align 8, !llfi_index !1164
  %15 = call nonnull align 4 dereferenceable(4) i32* @_ZSt7forwardIRiEOT_RNSt16remove_referenceIS1_E4typeE(i32* nonnull align 4 dereferenceable(4) %14) #2, !llfi_index !1165
  %16 = load i32, i32* %15, align 4, !llfi_index !1166
  store i32 %16, i32* %13, align 4, !llfi_index !1167
  ret void, !llfi_index !1168
}

; Function Attrs: mustprogress noinline uwtable
define linkonce_odr dso_local void @_ZNSt6vectorISt4pairIiiESaIS1_EE9push_backEOS1_(%"class.std::vector"* nonnull align 8 dereferenceable(24) %0, %"struct.std::pair"* nonnull align 4 dereferenceable(8) %1) #4 comdat align 2 {
  %3 = alloca %"class.std::vector"*, align 8, !llfi_index !1169
  %4 = alloca %"struct.std::pair"*, align 8, !llfi_index !1170
  store %"class.std::vector"* %0, %"class.std::vector"** %3, align 8, !llfi_index !1171
  store %"struct.std::pair"* %1, %"struct.std::pair"** %4, align 8, !llfi_index !1172
  %5 = load %"class.std::vector"*, %"class.std::vector"** %3, align 8, !llfi_index !1173
  %6 = load %"struct.std::pair"*, %"struct.std::pair"** %4, align 8, !llfi_index !1174
  %7 = call nonnull align 4 dereferenceable(8) %"struct.std::pair"* @_ZSt4moveIRSt4pairIiiEEONSt16remove_referenceIT_E4typeEOS4_(%"struct.std::pair"* nonnull align 4 dereferenceable(8) %6) #2, !llfi_index !1175
  call void @_ZNSt6vectorISt4pairIiiESaIS1_EE12emplace_backIJS1_EEEvDpOT_(%"class.std::vector"* nonnull align 8 dereferenceable(24) %5, %"struct.std::pair"* nonnull align 4 dereferenceable(8) %7), !llfi_index !1176
  ret void, !llfi_index !1177
}

; Function Attrs: mustprogress noinline nounwind uwtable
define linkonce_odr dso_local void @_ZNSt6vectorISt4pairIiiESaIS1_EE6rbeginEv(%"class.std::reverse_iterator"* noalias sret(%"class.std::reverse_iterator") align 8 %0, %"class.std::vector"* nonnull align 8 dereferenceable(24) %1) #3 comdat align 2 personality i8* bitcast (i32 (...)* @__gxx_personality_v0 to i8*) {
  %3 = alloca i8*, align 8, !llfi_index !1178
  %4 = alloca %"class.std::vector"*, align 8, !llfi_index !1179
  %5 = alloca %"class.__gnu_cxx::__normal_iterator", align 8, !llfi_index !1180
  %6 = bitcast %"class.std::reverse_iterator"* %0 to i8*, !llfi_index !1181
  store i8* %6, i8** %3, align 8, !llfi_index !1182
  store %"class.std::vector"* %1, %"class.std::vector"** %4, align 8, !llfi_index !1183
  %7 = load %"class.std::vector"*, %"class.std::vector"** %4, align 8, !llfi_index !1184
  %8 = call %"struct.std::pair"* @_ZNSt6vectorISt4pairIiiESaIS1_EE3endEv(%"class.std::vector"* nonnull align 8 dereferenceable(24) %7) #2, !llfi_index !1185
  %9 = getelementptr inbounds %"class.__gnu_cxx::__normal_iterator", %"class.__gnu_cxx::__normal_iterator"* %5, i32 0, i32 0, !llfi_index !1186
  store %"struct.std::pair"* %8, %"struct.std::pair"** %9, align 8, !llfi_index !1187
  %10 = getelementptr inbounds %"class.__gnu_cxx::__normal_iterator", %"class.__gnu_cxx::__normal_iterator"* %5, i32 0, i32 0, !llfi_index !1188
  %11 = load %"struct.std::pair"*, %"struct.std::pair"** %10, align 8, !llfi_index !1189
  invoke void @_ZNSt16reverse_iteratorIN9__gnu_cxx17__normal_iteratorIPSt4pairIiiESt6vectorIS3_SaIS3_EEEEEC2ES8_(%"class.std::reverse_iterator"* nonnull align 8 dereferenceable(8) %0, %"struct.std::pair"* %11)
          to label %12 unwind label %13, !llfi_index !1190

12:                                               ; preds = %2
  ret void, !llfi_index !1191

13:                                               ; preds = %2
  %14 = landingpad { i8*, i32 }
          catch i8* null, !llfi_index !1192
  %15 = extractvalue { i8*, i32 } %14, 0, !llfi_index !1193
  call void @__clang_call_terminate(i8* %15) #16, !llfi_index !1194
  unreachable, !llfi_index !1195
}

; Function Attrs: mustprogress noinline nounwind uwtable
define linkonce_odr dso_local void @_ZNSt6vectorISt4pairIiiESaIS1_EE4rendEv(%"class.std::reverse_iterator"* noalias sret(%"class.std::reverse_iterator") align 8 %0, %"class.std::vector"* nonnull align 8 dereferenceable(24) %1) #3 comdat align 2 personality i8* bitcast (i32 (...)* @__gxx_personality_v0 to i8*) {
  %3 = alloca i8*, align 8, !llfi_index !1196
  %4 = alloca %"class.std::vector"*, align 8, !llfi_index !1197
  %5 = alloca %"class.__gnu_cxx::__normal_iterator", align 8, !llfi_index !1198
  %6 = bitcast %"class.std::reverse_iterator"* %0 to i8*, !llfi_index !1199
  store i8* %6, i8** %3, align 8, !llfi_index !1200
  store %"class.std::vector"* %1, %"class.std::vector"** %4, align 8, !llfi_index !1201
  %7 = load %"class.std::vector"*, %"class.std::vector"** %4, align 8, !llfi_index !1202
  %8 = call %"struct.std::pair"* @_ZNSt6vectorISt4pairIiiESaIS1_EE5beginEv(%"class.std::vector"* nonnull align 8 dereferenceable(24) %7) #2, !llfi_index !1203
  %9 = getelementptr inbounds %"class.__gnu_cxx::__normal_iterator", %"class.__gnu_cxx::__normal_iterator"* %5, i32 0, i32 0, !llfi_index !1204
  store %"struct.std::pair"* %8, %"struct.std::pair"** %9, align 8, !llfi_index !1205
  %10 = getelementptr inbounds %"class.__gnu_cxx::__normal_iterator", %"class.__gnu_cxx::__normal_iterator"* %5, i32 0, i32 0, !llfi_index !1206
  %11 = load %"struct.std::pair"*, %"struct.std::pair"** %10, align 8, !llfi_index !1207
  invoke void @_ZNSt16reverse_iteratorIN9__gnu_cxx17__normal_iteratorIPSt4pairIiiESt6vectorIS3_SaIS3_EEEEEC2ES8_(%"class.std::reverse_iterator"* nonnull align 8 dereferenceable(8) %0, %"struct.std::pair"* %11)
          to label %12 unwind label %13, !llfi_index !1208

12:                                               ; preds = %2
  ret void, !llfi_index !1209

13:                                               ; preds = %2
  %14 = landingpad { i8*, i32 }
          catch i8* null, !llfi_index !1210
  %15 = extractvalue { i8*, i32 } %14, 0, !llfi_index !1211
  call void @__clang_call_terminate(i8* %15) #16, !llfi_index !1212
  unreachable, !llfi_index !1213
}

; Function Attrs: mustprogress noinline uwtable
define linkonce_odr dso_local void @_ZSt4sortISt16reverse_iteratorIN9__gnu_cxx17__normal_iteratorIPSt4pairIiiESt6vectorIS4_SaIS4_EEEEEEvT_SB_(%"class.std::reverse_iterator"* %0, %"class.std::reverse_iterator"* %1) #4 comdat {
  %3 = alloca %"class.std::reverse_iterator", align 8, !llfi_index !1214
  %4 = alloca %"class.std::reverse_iterator", align 8, !llfi_index !1215
  %5 = alloca %"struct.std::less", align 1, !llfi_index !1216
  %6 = alloca %"struct.std::less", align 1, !llfi_index !1217
  call void @_ZNSt16reverse_iteratorIN9__gnu_cxx17__normal_iteratorIPSt4pairIiiESt6vectorIS3_SaIS3_EEEEEC2ERKS9_(%"class.std::reverse_iterator"* nonnull align 8 dereferenceable(8) %3, %"class.std::reverse_iterator"* nonnull align 8 dereferenceable(8) %0), !llfi_index !1218
  call void @_ZNSt16reverse_iteratorIN9__gnu_cxx17__normal_iteratorIPSt4pairIiiESt6vectorIS3_SaIS3_EEEEEC2ERKS9_(%"class.std::reverse_iterator"* nonnull align 8 dereferenceable(8) %4, %"class.std::reverse_iterator"* nonnull align 8 dereferenceable(8) %1), !llfi_index !1219
  call void @_ZN9__gnu_cxx5__ops16__iter_less_iterEv(), !llfi_index !1220
  call void @_ZSt6__sortISt16reverse_iteratorIN9__gnu_cxx17__normal_iteratorIPSt4pairIiiESt6vectorIS4_SaIS4_EEEEENS1_5__ops15_Iter_less_iterEEvT_SD_T0_(%"class.std::reverse_iterator"* %3, %"class.std::reverse_iterator"* %4), !llfi_index !1221
  ret void, !llfi_index !1222
}

; Function Attrs: mustprogress noinline nounwind uwtable
define linkonce_odr dso_local i64 @_ZNKSt6vectorISt4pairIiiESaIS1_EE4sizeEv(%"class.std::vector"* nonnull align 8 dereferenceable(24) %0) #3 comdat align 2 {
  %2 = alloca %"class.std::vector"*, align 8, !llfi_index !1223
  store %"class.std::vector"* %0, %"class.std::vector"** %2, align 8, !llfi_index !1224
  %3 = load %"class.std::vector"*, %"class.std::vector"** %2, align 8, !llfi_index !1225
  %4 = bitcast %"class.std::vector"* %3 to %"struct.std::_Vector_base"*, !llfi_index !1226
  %5 = getelementptr inbounds %"struct.std::_Vector_base", %"struct.std::_Vector_base"* %4, i32 0, i32 0, !llfi_index !1227
  %6 = bitcast %"struct.std::_Vector_base<std::pair<int, int>, std::allocator<std::pair<int, int>>>::_Vector_impl"* %5 to %"struct.std::_Vector_base<std::pair<int, int>, std::allocator<std::pair<int, int>>>::_Vector_impl_data"*, !llfi_index !1228
  %7 = getelementptr inbounds %"struct.std::_Vector_base<std::pair<int, int>, std::allocator<std::pair<int, int>>>::_Vector_impl_data", %"struct.std::_Vector_base<std::pair<int, int>, std::allocator<std::pair<int, int>>>::_Vector_impl_data"* %6, i32 0, i32 1, !llfi_index !1229
  %8 = load %"struct.std::pair"*, %"struct.std::pair"** %7, align 8, !llfi_index !1230
  %9 = bitcast %"class.std::vector"* %3 to %"struct.std::_Vector_base"*, !llfi_index !1231
  %10 = getelementptr inbounds %"struct.std::_Vector_base", %"struct.std::_Vector_base"* %9, i32 0, i32 0, !llfi_index !1232
  %11 = bitcast %"struct.std::_Vector_base<std::pair<int, int>, std::allocator<std::pair<int, int>>>::_Vector_impl"* %10 to %"struct.std::_Vector_base<std::pair<int, int>, std::allocator<std::pair<int, int>>>::_Vector_impl_data"*, !llfi_index !1233
  %12 = getelementptr inbounds %"struct.std::_Vector_base<std::pair<int, int>, std::allocator<std::pair<int, int>>>::_Vector_impl_data", %"struct.std::_Vector_base<std::pair<int, int>, std::allocator<std::pair<int, int>>>::_Vector_impl_data"* %11, i32 0, i32 0, !llfi_index !1234
  %13 = load %"struct.std::pair"*, %"struct.std::pair"** %12, align 8, !llfi_index !1235
  %14 = ptrtoint %"struct.std::pair"* %8 to i64, !llfi_index !1236
  %15 = ptrtoint %"struct.std::pair"* %13 to i64, !llfi_index !1237
  %16 = sub i64 %14, %15, !llfi_index !1238
  %17 = sdiv exact i64 %16, 8, !llfi_index !1239
  ret i64 %17, !llfi_index !1240
}

; Function Attrs: mustprogress noinline nounwind uwtable
define linkonce_odr dso_local nonnull align 4 dereferenceable(8) %"struct.std::pair"* @_ZNSt6vectorISt4pairIiiESaIS1_EEixEm(%"class.std::vector"* nonnull align 8 dereferenceable(24) %0, i64 %1) #3 comdat align 2 {
  %3 = alloca %"class.std::vector"*, align 8, !llfi_index !1241
  %4 = alloca i64, align 8, !llfi_index !1242
  store %"class.std::vector"* %0, %"class.std::vector"** %3, align 8, !llfi_index !1243
  store i64 %1, i64* %4, align 8, !llfi_index !1244
  %5 = load %"class.std::vector"*, %"class.std::vector"** %3, align 8, !llfi_index !1245
  %6 = bitcast %"class.std::vector"* %5 to %"struct.std::_Vector_base"*, !llfi_index !1246
  %7 = getelementptr inbounds %"struct.std::_Vector_base", %"struct.std::_Vector_base"* %6, i32 0, i32 0, !llfi_index !1247
  %8 = bitcast %"struct.std::_Vector_base<std::pair<int, int>, std::allocator<std::pair<int, int>>>::_Vector_impl"* %7 to %"struct.std::_Vector_base<std::pair<int, int>, std::allocator<std::pair<int, int>>>::_Vector_impl_data"*, !llfi_index !1248
  %9 = getelementptr inbounds %"struct.std::_Vector_base<std::pair<int, int>, std::allocator<std::pair<int, int>>>::_Vector_impl_data", %"struct.std::_Vector_base<std::pair<int, int>, std::allocator<std::pair<int, int>>>::_Vector_impl_data"* %8, i32 0, i32 0, !llfi_index !1249
  %10 = load %"struct.std::pair"*, %"struct.std::pair"** %9, align 8, !llfi_index !1250
  %11 = load i64, i64* %4, align 8, !llfi_index !1251
  %12 = getelementptr inbounds %"struct.std::pair", %"struct.std::pair"* %10, i64 %11, !llfi_index !1252
  ret %"struct.std::pair"* %12, !llfi_index !1253
}

; Function Attrs: mustprogress noinline uwtable
define linkonce_odr dso_local %"struct.std::_Rb_tree_node_base"* @_ZNSt3setIiSt4lessIiESaIiEE11lower_boundERKi(%"class.std::set"* nonnull align 8 dereferenceable(48) %0, i32* nonnull align 4 dereferenceable(4) %1) #4 comdat align 2 {
  %3 = alloca %"struct.std::_Rb_tree_const_iterator", align 8, !llfi_index !1254
  %4 = alloca %"class.std::set"*, align 8, !llfi_index !1255
  %5 = alloca i32*, align 8, !llfi_index !1256
  %6 = alloca %"struct.std::_Rb_tree_const_iterator", align 8, !llfi_index !1257
  store %"class.std::set"* %0, %"class.std::set"** %4, align 8, !llfi_index !1258
  store i32* %1, i32** %5, align 8, !llfi_index !1259
  %7 = load %"class.std::set"*, %"class.std::set"** %4, align 8, !llfi_index !1260
  %8 = getelementptr inbounds %"class.std::set", %"class.std::set"* %7, i32 0, i32 0, !llfi_index !1261
  %9 = load i32*, i32** %5, align 8, !llfi_index !1262
  %10 = call %"struct.std::_Rb_tree_node_base"* @_ZNSt8_Rb_treeIiiSt9_IdentityIiESt4lessIiESaIiEE11lower_boundERKi(%"class.std::_Rb_tree"* nonnull align 8 dereferenceable(48) %8, i32* nonnull align 4 dereferenceable(4) %9), !llfi_index !1263
  %11 = getelementptr inbounds %"struct.std::_Rb_tree_const_iterator", %"struct.std::_Rb_tree_const_iterator"* %6, i32 0, i32 0, !llfi_index !1264
  store %"struct.std::_Rb_tree_node_base"* %10, %"struct.std::_Rb_tree_node_base"** %11, align 8, !llfi_index !1265
  call void @_ZNSt23_Rb_tree_const_iteratorIiEC2ERKSt17_Rb_tree_iteratorIiE(%"struct.std::_Rb_tree_const_iterator"* nonnull align 8 dereferenceable(8) %3, %"struct.std::_Rb_tree_const_iterator"* nonnull align 8 dereferenceable(8) %6) #2, !llfi_index !1266
  %12 = getelementptr inbounds %"struct.std::_Rb_tree_const_iterator", %"struct.std::_Rb_tree_const_iterator"* %3, i32 0, i32 0, !llfi_index !1267
  %13 = load %"struct.std::_Rb_tree_node_base"*, %"struct.std::_Rb_tree_node_base"** %12, align 8, !llfi_index !1268
  ret %"struct.std::_Rb_tree_node_base"* %13, !llfi_index !1269
}

; Function Attrs: mustprogress noinline nounwind uwtable
define linkonce_odr dso_local %"struct.std::_Rb_tree_node_base"* @_ZNKSt3setIiSt4lessIiESaIiEE3endEv(%"class.std::set"* nonnull align 8 dereferenceable(48) %0) #3 comdat align 2 {
  %2 = alloca %"struct.std::_Rb_tree_const_iterator", align 8, !llfi_index !1270
  %3 = alloca %"class.std::set"*, align 8, !llfi_index !1271
  store %"class.std::set"* %0, %"class.std::set"** %3, align 8, !llfi_index !1272
  %4 = load %"class.std::set"*, %"class.std::set"** %3, align 8, !llfi_index !1273
  %5 = getelementptr inbounds %"class.std::set", %"class.std::set"* %4, i32 0, i32 0, !llfi_index !1274
  %6 = call %"struct.std::_Rb_tree_node_base"* @_ZNKSt8_Rb_treeIiiSt9_IdentityIiESt4lessIiESaIiEE3endEv(%"class.std::_Rb_tree"* nonnull align 8 dereferenceable(48) %5) #2, !llfi_index !1275
  %7 = getelementptr inbounds %"struct.std::_Rb_tree_const_iterator", %"struct.std::_Rb_tree_const_iterator"* %2, i32 0, i32 0, !llfi_index !1276
  store %"struct.std::_Rb_tree_node_base"* %6, %"struct.std::_Rb_tree_node_base"** %7, align 8, !llfi_index !1277
  %8 = getelementptr inbounds %"struct.std::_Rb_tree_const_iterator", %"struct.std::_Rb_tree_const_iterator"* %2, i32 0, i32 0, !llfi_index !1278
  %9 = load %"struct.std::_Rb_tree_node_base"*, %"struct.std::_Rb_tree_node_base"** %8, align 8, !llfi_index !1279
  ret %"struct.std::_Rb_tree_node_base"* %9, !llfi_index !1280
}

; Function Attrs: mustprogress noinline nounwind uwtable
define linkonce_odr dso_local zeroext i1 @_ZStneRKSt23_Rb_tree_const_iteratorIiES2_(%"struct.std::_Rb_tree_const_iterator"* nonnull align 8 dereferenceable(8) %0, %"struct.std::_Rb_tree_const_iterator"* nonnull align 8 dereferenceable(8) %1) #3 comdat {
  %3 = alloca %"struct.std::_Rb_tree_const_iterator"*, align 8, !llfi_index !1281
  %4 = alloca %"struct.std::_Rb_tree_const_iterator"*, align 8, !llfi_index !1282
  store %"struct.std::_Rb_tree_const_iterator"* %0, %"struct.std::_Rb_tree_const_iterator"** %3, align 8, !llfi_index !1283
  store %"struct.std::_Rb_tree_const_iterator"* %1, %"struct.std::_Rb_tree_const_iterator"** %4, align 8, !llfi_index !1284
  %5 = load %"struct.std::_Rb_tree_const_iterator"*, %"struct.std::_Rb_tree_const_iterator"** %3, align 8, !llfi_index !1285
  %6 = getelementptr inbounds %"struct.std::_Rb_tree_const_iterator", %"struct.std::_Rb_tree_const_iterator"* %5, i32 0, i32 0, !llfi_index !1286
  %7 = load %"struct.std::_Rb_tree_node_base"*, %"struct.std::_Rb_tree_node_base"** %6, align 8, !llfi_index !1287
  %8 = load %"struct.std::_Rb_tree_const_iterator"*, %"struct.std::_Rb_tree_const_iterator"** %4, align 8, !llfi_index !1288
  %9 = getelementptr inbounds %"struct.std::_Rb_tree_const_iterator", %"struct.std::_Rb_tree_const_iterator"* %8, i32 0, i32 0, !llfi_index !1289
  %10 = load %"struct.std::_Rb_tree_node_base"*, %"struct.std::_Rb_tree_node_base"** %9, align 8, !llfi_index !1290
  %11 = icmp ne %"struct.std::_Rb_tree_node_base"* %7, %10, !llfi_index !1291
  ret i1 %11, !llfi_index !1292
}

; Function Attrs: mustprogress noinline nounwind uwtable
define linkonce_odr dso_local nonnull align 4 dereferenceable(4) i32* @_ZNKSt23_Rb_tree_const_iteratorIiEdeEv(%"struct.std::_Rb_tree_const_iterator"* nonnull align 8 dereferenceable(8) %0) #3 comdat align 2 {
  %2 = alloca %"struct.std::_Rb_tree_const_iterator"*, align 8, !llfi_index !1293
  store %"struct.std::_Rb_tree_const_iterator"* %0, %"struct.std::_Rb_tree_const_iterator"** %2, align 8, !llfi_index !1294
  %3 = load %"struct.std::_Rb_tree_const_iterator"*, %"struct.std::_Rb_tree_const_iterator"** %2, align 8, !llfi_index !1295
  %4 = getelementptr inbounds %"struct.std::_Rb_tree_const_iterator", %"struct.std::_Rb_tree_const_iterator"* %3, i32 0, i32 0, !llfi_index !1296
  %5 = load %"struct.std::_Rb_tree_node_base"*, %"struct.std::_Rb_tree_node_base"** %4, align 8, !llfi_index !1297
  %6 = bitcast %"struct.std::_Rb_tree_node_base"* %5 to %"struct.std::_Rb_tree_node"*, !llfi_index !1298
  %7 = call i32* @_ZNKSt13_Rb_tree_nodeIiE9_M_valptrEv(%"struct.std::_Rb_tree_node"* nonnull align 8 dereferenceable(36) %6), !llfi_index !1299
  ret i32* %7, !llfi_index !1300
}

; Function Attrs: mustprogress noinline nounwind uwtable
define linkonce_odr dso_local %"struct.std::_Rb_tree_node_base"* @_ZNKSt3setIiSt4lessIiESaIiEE5beginEv(%"class.std::set"* nonnull align 8 dereferenceable(48) %0) #3 comdat align 2 {
  %2 = alloca %"struct.std::_Rb_tree_const_iterator", align 8, !llfi_index !1301
  %3 = alloca %"class.std::set"*, align 8, !llfi_index !1302
  store %"class.std::set"* %0, %"class.std::set"** %3, align 8, !llfi_index !1303
  %4 = load %"class.std::set"*, %"class.std::set"** %3, align 8, !llfi_index !1304
  %5 = getelementptr inbounds %"class.std::set", %"class.std::set"* %4, i32 0, i32 0, !llfi_index !1305
  %6 = call %"struct.std::_Rb_tree_node_base"* @_ZNKSt8_Rb_treeIiiSt9_IdentityIiESt4lessIiESaIiEE5beginEv(%"class.std::_Rb_tree"* nonnull align 8 dereferenceable(48) %5) #2, !llfi_index !1306
  %7 = getelementptr inbounds %"struct.std::_Rb_tree_const_iterator", %"struct.std::_Rb_tree_const_iterator"* %2, i32 0, i32 0, !llfi_index !1307
  store %"struct.std::_Rb_tree_node_base"* %6, %"struct.std::_Rb_tree_node_base"** %7, align 8, !llfi_index !1308
  %8 = getelementptr inbounds %"struct.std::_Rb_tree_const_iterator", %"struct.std::_Rb_tree_const_iterator"* %2, i32 0, i32 0, !llfi_index !1309
  %9 = load %"struct.std::_Rb_tree_node_base"*, %"struct.std::_Rb_tree_node_base"** %8, align 8, !llfi_index !1310
  ret %"struct.std::_Rb_tree_node_base"* %9, !llfi_index !1311
}

; Function Attrs: mustprogress noinline nounwind uwtable
define linkonce_odr dso_local %"struct.std::_Rb_tree_node_base"* @_ZNSt23_Rb_tree_const_iteratorIiEmmEi(%"struct.std::_Rb_tree_const_iterator"* nonnull align 8 dereferenceable(8) %0, i32 %1) #3 comdat align 2 {
  %3 = alloca %"struct.std::_Rb_tree_const_iterator", align 8, !llfi_index !1312
  %4 = alloca %"struct.std::_Rb_tree_const_iterator"*, align 8, !llfi_index !1313
  %5 = alloca i32, align 4, !llfi_index !1314
  store %"struct.std::_Rb_tree_const_iterator"* %0, %"struct.std::_Rb_tree_const_iterator"** %4, align 8, !llfi_index !1315
  store i32 %1, i32* %5, align 4, !llfi_index !1316
  %6 = load %"struct.std::_Rb_tree_const_iterator"*, %"struct.std::_Rb_tree_const_iterator"** %4, align 8, !llfi_index !1317
  %7 = bitcast %"struct.std::_Rb_tree_const_iterator"* %3 to i8*, !llfi_index !1318
  %8 = bitcast %"struct.std::_Rb_tree_const_iterator"* %6 to i8*, !llfi_index !1319
  call void @llvm.memcpy.p0i8.p0i8.i64(i8* align 8 %7, i8* align 8 %8, i64 8, i1 false), !llfi_index !1320
  %9 = getelementptr inbounds %"struct.std::_Rb_tree_const_iterator", %"struct.std::_Rb_tree_const_iterator"* %6, i32 0, i32 0, !llfi_index !1321
  %10 = load %"struct.std::_Rb_tree_node_base"*, %"struct.std::_Rb_tree_node_base"** %9, align 8, !llfi_index !1322
  %11 = call %"struct.std::_Rb_tree_node_base"* @_ZSt18_Rb_tree_decrementPKSt18_Rb_tree_node_base(%"struct.std::_Rb_tree_node_base"* %10) #18, !llfi_index !1323
  %12 = getelementptr inbounds %"struct.std::_Rb_tree_const_iterator", %"struct.std::_Rb_tree_const_iterator"* %6, i32 0, i32 0, !llfi_index !1324
  store %"struct.std::_Rb_tree_node_base"* %11, %"struct.std::_Rb_tree_node_base"** %12, align 8, !llfi_index !1325
  %13 = getelementptr inbounds %"struct.std::_Rb_tree_const_iterator", %"struct.std::_Rb_tree_const_iterator"* %3, i32 0, i32 0, !llfi_index !1326
  %14 = load %"struct.std::_Rb_tree_node_base"*, %"struct.std::_Rb_tree_node_base"** %13, align 8, !llfi_index !1327
  ret %"struct.std::_Rb_tree_node_base"* %14, !llfi_index !1328
}

; Function Attrs: mustprogress noinline uwtable
define linkonce_odr dso_local { %"struct.std::_Rb_tree_node_base"*, i8 } @_ZNSt3setIiSt4lessIiESaIiEE6insertERKi(%"class.std::set"* nonnull align 8 dereferenceable(48) %0, i32* nonnull align 4 dereferenceable(4) %1) #4 comdat align 2 {
  %3 = alloca %"struct.std::pair.3", align 8, !llfi_index !1329
  %4 = alloca %"class.std::set"*, align 8, !llfi_index !1330
  %5 = alloca i32*, align 8, !llfi_index !1331
  %6 = alloca %"struct.std::pair.3", align 8, !llfi_index !1332
  store %"class.std::set"* %0, %"class.std::set"** %4, align 8, !llfi_index !1333
  store i32* %1, i32** %5, align 8, !llfi_index !1334
  %7 = load %"class.std::set"*, %"class.std::set"** %4, align 8, !llfi_index !1335
  %8 = getelementptr inbounds %"class.std::set", %"class.std::set"* %7, i32 0, i32 0, !llfi_index !1336
  %9 = load i32*, i32** %5, align 8, !llfi_index !1337
  %10 = call { %"struct.std::_Rb_tree_node_base"*, i8 } @_ZNSt8_Rb_treeIiiSt9_IdentityIiESt4lessIiESaIiEE16_M_insert_uniqueIRKiEESt4pairISt17_Rb_tree_iteratorIiEbEOT_(%"class.std::_Rb_tree"* nonnull align 8 dereferenceable(48) %8, i32* nonnull align 4 dereferenceable(4) %9), !llfi_index !1338
  %11 = bitcast %"struct.std::pair.3"* %6 to { %"struct.std::_Rb_tree_node_base"*, i8 }*, !llfi_index !1339
  %12 = getelementptr inbounds { %"struct.std::_Rb_tree_node_base"*, i8 }, { %"struct.std::_Rb_tree_node_base"*, i8 }* %11, i32 0, i32 0, !llfi_index !1340
  %13 = extractvalue { %"struct.std::_Rb_tree_node_base"*, i8 } %10, 0, !llfi_index !1341
  store %"struct.std::_Rb_tree_node_base"* %13, %"struct.std::_Rb_tree_node_base"** %12, align 8, !llfi_index !1342
  %14 = getelementptr inbounds { %"struct.std::_Rb_tree_node_base"*, i8 }, { %"struct.std::_Rb_tree_node_base"*, i8 }* %11, i32 0, i32 1, !llfi_index !1343
  %15 = extractvalue { %"struct.std::_Rb_tree_node_base"*, i8 } %10, 1, !llfi_index !1344
  store i8 %15, i8* %14, align 8, !llfi_index !1345
  %16 = getelementptr inbounds %"struct.std::pair.3", %"struct.std::pair.3"* %6, i32 0, i32 0, !llfi_index !1346
  %17 = getelementptr inbounds %"struct.std::pair.3", %"struct.std::pair.3"* %6, i32 0, i32 1, !llfi_index !1347
  call void @_ZNSt4pairISt23_Rb_tree_const_iteratorIiEbEC2IRSt17_Rb_tree_iteratorIiERbLb1EEEOT_OT0_(%"struct.std::pair.3"* nonnull align 8 dereferenceable(9) %3, %"struct.std::_Rb_tree_const_iterator"* nonnull align 8 dereferenceable(8) %16, i8* nonnull align 1 dereferenceable(1) %17), !llfi_index !1348
  %18 = bitcast %"struct.std::pair.3"* %3 to { %"struct.std::_Rb_tree_node_base"*, i8 }*, !llfi_index !1349
  %19 = load { %"struct.std::_Rb_tree_node_base"*, i8 }, { %"struct.std::_Rb_tree_node_base"*, i8 }* %18, align 8, !llfi_index !1350
  ret { %"struct.std::_Rb_tree_node_base"*, i8 } %19, !llfi_index !1351
}

declare dso_local nonnull align 8 dereferenceable(8) %"class.std::basic_ostream"* @_ZNSolsEx(%"class.std::basic_ostream"* nonnull align 8 dereferenceable(8), i64) #7

declare dso_local nonnull align 8 dereferenceable(8) %"class.std::basic_ostream"* @_ZSt4endlIcSt11char_traitsIcEERSt13basic_ostreamIT_T0_ES6_(%"class.std::basic_ostream"* nonnull align 8 dereferenceable(8)) #7

declare dso_local nonnull align 8 dereferenceable(8) %"class.std::basic_ostream"* @_ZNSolsEPFRSoS_E(%"class.std::basic_ostream"* nonnull align 8 dereferenceable(8), %"class.std::basic_ostream"* (%"class.std::basic_ostream"*)*) #7

; Function Attrs: mustprogress noinline uwtable
define linkonce_odr dso_local { %"struct.std::_Rb_tree_node_base"*, i8 } @_ZNSt8_Rb_treeIiiSt9_IdentityIiESt4lessIiESaIiEE16_M_insert_uniqueIRKiEESt4pairISt17_Rb_tree_iteratorIiEbEOT_(%"class.std::_Rb_tree"* nonnull align 8 dereferenceable(48) %0, i32* nonnull align 4 dereferenceable(4) %1) #4 comdat align 2 {
  %3 = alloca %"struct.std::pair.3", align 8, !llfi_index !1352
  %4 = alloca %"class.std::_Rb_tree"*, align 8, !llfi_index !1353
  %5 = alloca i32*, align 8, !llfi_index !1354
  %6 = alloca %"struct.std::pair.11", align 8, !llfi_index !1355
  %7 = alloca %"struct.std::less", align 1, !llfi_index !1356
  %8 = alloca %"struct.std::_Rb_tree<int, int, std::_Identity<int>, std::less<int>>::_Alloc_node", align 8, !llfi_index !1357
  %9 = alloca %"struct.std::_Rb_tree_const_iterator", align 8, !llfi_index !1358
  %10 = alloca i8, align 1, !llfi_index !1359
  %11 = alloca %"struct.std::_Rb_tree_const_iterator", align 8, !llfi_index !1360
  %12 = alloca i8, align 1, !llfi_index !1361
  store %"class.std::_Rb_tree"* %0, %"class.std::_Rb_tree"** %4, align 8, !llfi_index !1362
  store i32* %1, i32** %5, align 8, !llfi_index !1363
  %13 = load %"class.std::_Rb_tree"*, %"class.std::_Rb_tree"** %4, align 8, !llfi_index !1364
  %14 = load i32*, i32** %5, align 8, !llfi_index !1365
  %15 = call nonnull align 4 dereferenceable(4) i32* @_ZNKSt9_IdentityIiEclERKi(%"struct.std::less"* nonnull align 1 dereferenceable(1) %7, i32* nonnull align 4 dereferenceable(4) %14), !llfi_index !1366
  %16 = call { %"struct.std::_Rb_tree_node_base"*, %"struct.std::_Rb_tree_node_base"* } @_ZNSt8_Rb_treeIiiSt9_IdentityIiESt4lessIiESaIiEE24_M_get_insert_unique_posERKi(%"class.std::_Rb_tree"* nonnull align 8 dereferenceable(48) %13, i32* nonnull align 4 dereferenceable(4) %15), !llfi_index !1367
  %17 = bitcast %"struct.std::pair.11"* %6 to { %"struct.std::_Rb_tree_node_base"*, %"struct.std::_Rb_tree_node_base"* }*, !llfi_index !1368
  %18 = getelementptr inbounds { %"struct.std::_Rb_tree_node_base"*, %"struct.std::_Rb_tree_node_base"* }, { %"struct.std::_Rb_tree_node_base"*, %"struct.std::_Rb_tree_node_base"* }* %17, i32 0, i32 0, !llfi_index !1369
  %19 = extractvalue { %"struct.std::_Rb_tree_node_base"*, %"struct.std::_Rb_tree_node_base"* } %16, 0, !llfi_index !1370
  store %"struct.std::_Rb_tree_node_base"* %19, %"struct.std::_Rb_tree_node_base"** %18, align 8, !llfi_index !1371
  %20 = getelementptr inbounds { %"struct.std::_Rb_tree_node_base"*, %"struct.std::_Rb_tree_node_base"* }, { %"struct.std::_Rb_tree_node_base"*, %"struct.std::_Rb_tree_node_base"* }* %17, i32 0, i32 1, !llfi_index !1372
  %21 = extractvalue { %"struct.std::_Rb_tree_node_base"*, %"struct.std::_Rb_tree_node_base"* } %16, 1, !llfi_index !1373
  store %"struct.std::_Rb_tree_node_base"* %21, %"struct.std::_Rb_tree_node_base"** %20, align 8, !llfi_index !1374
  %22 = getelementptr inbounds %"struct.std::pair.11", %"struct.std::pair.11"* %6, i32 0, i32 1, !llfi_index !1375
  %23 = load %"struct.std::_Rb_tree_node_base"*, %"struct.std::_Rb_tree_node_base"** %22, align 8, !llfi_index !1376
  %24 = icmp ne %"struct.std::_Rb_tree_node_base"* %23, null, !llfi_index !1377
  br i1 %24, label %25, label %34, !llfi_index !1378

25:                                               ; preds = %2
  call void @_ZNSt8_Rb_treeIiiSt9_IdentityIiESt4lessIiESaIiEE11_Alloc_nodeC2ERS5_(%"struct.std::_Rb_tree<int, int, std::_Identity<int>, std::less<int>>::_Alloc_node"* nonnull align 8 dereferenceable(8) %8, %"class.std::_Rb_tree"* nonnull align 8 dereferenceable(48) %13), !llfi_index !1379
  %26 = getelementptr inbounds %"struct.std::pair.11", %"struct.std::pair.11"* %6, i32 0, i32 0, !llfi_index !1380
  %27 = load %"struct.std::_Rb_tree_node_base"*, %"struct.std::_Rb_tree_node_base"** %26, align 8, !llfi_index !1381
  %28 = getelementptr inbounds %"struct.std::pair.11", %"struct.std::pair.11"* %6, i32 0, i32 1, !llfi_index !1382
  %29 = load %"struct.std::_Rb_tree_node_base"*, %"struct.std::_Rb_tree_node_base"** %28, align 8, !llfi_index !1383
  %30 = load i32*, i32** %5, align 8, !llfi_index !1384
  %31 = call nonnull align 4 dereferenceable(4) i32* @_ZSt7forwardIRKiEOT_RNSt16remove_referenceIS2_E4typeE(i32* nonnull align 4 dereferenceable(4) %30) #2, !llfi_index !1385
  %32 = call %"struct.std::_Rb_tree_node_base"* @_ZNSt8_Rb_treeIiiSt9_IdentityIiESt4lessIiESaIiEE10_M_insert_IRKiNS5_11_Alloc_nodeEEESt17_Rb_tree_iteratorIiEPSt18_Rb_tree_node_baseSD_OT_RT0_(%"class.std::_Rb_tree"* nonnull align 8 dereferenceable(48) %13, %"struct.std::_Rb_tree_node_base"* %27, %"struct.std::_Rb_tree_node_base"* %29, i32* nonnull align 4 dereferenceable(4) %31, %"struct.std::_Rb_tree<int, int, std::_Identity<int>, std::less<int>>::_Alloc_node"* nonnull align 8 dereferenceable(8) %8), !llfi_index !1386
  %33 = getelementptr inbounds %"struct.std::_Rb_tree_const_iterator", %"struct.std::_Rb_tree_const_iterator"* %9, i32 0, i32 0, !llfi_index !1387
  store %"struct.std::_Rb_tree_node_base"* %32, %"struct.std::_Rb_tree_node_base"** %33, align 8, !llfi_index !1388
  store i8 1, i8* %10, align 1, !llfi_index !1389
  call void @_ZNSt4pairISt17_Rb_tree_iteratorIiEbEC2IS1_bLb1EEEOT_OT0_(%"struct.std::pair.3"* nonnull align 8 dereferenceable(9) %3, %"struct.std::_Rb_tree_const_iterator"* nonnull align 8 dereferenceable(8) %9, i8* nonnull align 1 dereferenceable(1) %10), !llfi_index !1390
  br label %37, !llfi_index !1391

34:                                               ; preds = %2
  %35 = getelementptr inbounds %"struct.std::pair.11", %"struct.std::pair.11"* %6, i32 0, i32 0, !llfi_index !1392
  %36 = load %"struct.std::_Rb_tree_node_base"*, %"struct.std::_Rb_tree_node_base"** %35, align 8, !llfi_index !1393
  call void @_ZNSt17_Rb_tree_iteratorIiEC2EPSt18_Rb_tree_node_base(%"struct.std::_Rb_tree_const_iterator"* nonnull align 8 dereferenceable(8) %11, %"struct.std::_Rb_tree_node_base"* %36) #2, !llfi_index !1394
  store i8 0, i8* %12, align 1, !llfi_index !1395
  call void @_ZNSt4pairISt17_Rb_tree_iteratorIiEbEC2IS1_bLb1EEEOT_OT0_(%"struct.std::pair.3"* nonnull align 8 dereferenceable(9) %3, %"struct.std::_Rb_tree_const_iterator"* nonnull align 8 dereferenceable(8) %11, i8* nonnull align 1 dereferenceable(1) %12), !llfi_index !1396
  br label %37, !llfi_index !1397

37:                                               ; preds = %34, %25
  %38 = bitcast %"struct.std::pair.3"* %3 to { %"struct.std::_Rb_tree_node_base"*, i8 }*, !llfi_index !1398
  %39 = load { %"struct.std::_Rb_tree_node_base"*, i8 }, { %"struct.std::_Rb_tree_node_base"*, i8 }* %38, align 8, !llfi_index !1399
  ret { %"struct.std::_Rb_tree_node_base"*, i8 } %39, !llfi_index !1400
}

; Function Attrs: noinline nounwind uwtable
define linkonce_odr dso_local void @_ZNSt4pairISt23_Rb_tree_const_iteratorIiEbEC2IRSt17_Rb_tree_iteratorIiERbLb1EEEOT_OT0_(%"struct.std::pair.3"* nonnull align 8 dereferenceable(9) %0, %"struct.std::_Rb_tree_const_iterator"* nonnull align 8 dereferenceable(8) %1, i8* nonnull align 1 dereferenceable(1) %2) unnamed_addr #1 comdat align 2 {
  %4 = alloca %"struct.std::pair.3"*, align 8, !llfi_index !1401
  %5 = alloca %"struct.std::_Rb_tree_const_iterator"*, align 8, !llfi_index !1402
  %6 = alloca i8*, align 8, !llfi_index !1403
  store %"struct.std::pair.3"* %0, %"struct.std::pair.3"** %4, align 8, !llfi_index !1404
  store %"struct.std::_Rb_tree_const_iterator"* %1, %"struct.std::_Rb_tree_const_iterator"** %5, align 8, !llfi_index !1405
  store i8* %2, i8** %6, align 8, !llfi_index !1406
  %7 = load %"struct.std::pair.3"*, %"struct.std::pair.3"** %4, align 8, !llfi_index !1407
  %8 = bitcast %"struct.std::pair.3"* %7 to %"struct.std::less"*, !llfi_index !1408
  %9 = getelementptr inbounds %"struct.std::pair.3", %"struct.std::pair.3"* %7, i32 0, i32 0, !llfi_index !1409
  %10 = load %"struct.std::_Rb_tree_const_iterator"*, %"struct.std::_Rb_tree_const_iterator"** %5, align 8, !llfi_index !1410
  %11 = call nonnull align 8 dereferenceable(8) %"struct.std::_Rb_tree_const_iterator"* @_ZSt7forwardIRSt17_Rb_tree_iteratorIiEEOT_RNSt16remove_referenceIS3_E4typeE(%"struct.std::_Rb_tree_const_iterator"* nonnull align 8 dereferenceable(8) %10) #2, !llfi_index !1411
  call void @_ZNSt23_Rb_tree_const_iteratorIiEC2ERKSt17_Rb_tree_iteratorIiE(%"struct.std::_Rb_tree_const_iterator"* nonnull align 8 dereferenceable(8) %9, %"struct.std::_Rb_tree_const_iterator"* nonnull align 8 dereferenceable(8) %11) #2, !llfi_index !1412
  %12 = getelementptr inbounds %"struct.std::pair.3", %"struct.std::pair.3"* %7, i32 0, i32 1, !llfi_index !1413
  %13 = load i8*, i8** %6, align 8, !llfi_index !1414
  %14 = call nonnull align 1 dereferenceable(1) i8* @_ZSt7forwardIRbEOT_RNSt16remove_referenceIS1_E4typeE(i8* nonnull align 1 dereferenceable(1) %13) #2, !llfi_index !1415
  %15 = load i8, i8* %14, align 1, !llfi_index !1416
  %16 = trunc i8 %15 to i1, !llfi_index !1417
  %17 = zext i1 %16 to i8, !llfi_index !1418
  store i8 %17, i8* %12, align 8, !llfi_index !1419
  ret void, !llfi_index !1420
}

; Function Attrs: mustprogress noinline nounwind uwtable
define linkonce_odr dso_local nonnull align 8 dereferenceable(8) %"struct.std::_Rb_tree_const_iterator"* @_ZSt7forwardIRSt17_Rb_tree_iteratorIiEEOT_RNSt16remove_referenceIS3_E4typeE(%"struct.std::_Rb_tree_const_iterator"* nonnull align 8 dereferenceable(8) %0) #3 comdat {
  %2 = alloca %"struct.std::_Rb_tree_const_iterator"*, align 8, !llfi_index !1421
  store %"struct.std::_Rb_tree_const_iterator"* %0, %"struct.std::_Rb_tree_const_iterator"** %2, align 8, !llfi_index !1422
  %3 = load %"struct.std::_Rb_tree_const_iterator"*, %"struct.std::_Rb_tree_const_iterator"** %2, align 8, !llfi_index !1423
  ret %"struct.std::_Rb_tree_const_iterator"* %3, !llfi_index !1424
}

; Function Attrs: noinline nounwind uwtable
define linkonce_odr dso_local void @_ZNSt23_Rb_tree_const_iteratorIiEC2ERKSt17_Rb_tree_iteratorIiE(%"struct.std::_Rb_tree_const_iterator"* nonnull align 8 dereferenceable(8) %0, %"struct.std::_Rb_tree_const_iterator"* nonnull align 8 dereferenceable(8) %1) unnamed_addr #1 comdat align 2 {
  %3 = alloca %"struct.std::_Rb_tree_const_iterator"*, align 8, !llfi_index !1425
  %4 = alloca %"struct.std::_Rb_tree_const_iterator"*, align 8, !llfi_index !1426
  store %"struct.std::_Rb_tree_const_iterator"* %0, %"struct.std::_Rb_tree_const_iterator"** %3, align 8, !llfi_index !1427
  store %"struct.std::_Rb_tree_const_iterator"* %1, %"struct.std::_Rb_tree_const_iterator"** %4, align 8, !llfi_index !1428
  %5 = load %"struct.std::_Rb_tree_const_iterator"*, %"struct.std::_Rb_tree_const_iterator"** %3, align 8, !llfi_index !1429
  %6 = getelementptr inbounds %"struct.std::_Rb_tree_const_iterator", %"struct.std::_Rb_tree_const_iterator"* %5, i32 0, i32 0, !llfi_index !1430
  %7 = load %"struct.std::_Rb_tree_const_iterator"*, %"struct.std::_Rb_tree_const_iterator"** %4, align 8, !llfi_index !1431
  %8 = getelementptr inbounds %"struct.std::_Rb_tree_const_iterator", %"struct.std::_Rb_tree_const_iterator"* %7, i32 0, i32 0, !llfi_index !1432
  %9 = load %"struct.std::_Rb_tree_node_base"*, %"struct.std::_Rb_tree_node_base"** %8, align 8, !llfi_index !1433
  store %"struct.std::_Rb_tree_node_base"* %9, %"struct.std::_Rb_tree_node_base"** %6, align 8, !llfi_index !1434
  ret void, !llfi_index !1435
}

; Function Attrs: mustprogress noinline nounwind uwtable
define linkonce_odr dso_local nonnull align 1 dereferenceable(1) i8* @_ZSt7forwardIRbEOT_RNSt16remove_referenceIS1_E4typeE(i8* nonnull align 1 dereferenceable(1) %0) #3 comdat {
  %2 = alloca i8*, align 8, !llfi_index !1436
  store i8* %0, i8** %2, align 8, !llfi_index !1437
  %3 = load i8*, i8** %2, align 8, !llfi_index !1438
  ret i8* %3, !llfi_index !1439
}

; Function Attrs: mustprogress noinline nounwind uwtable
define linkonce_odr dso_local nonnull align 4 dereferenceable(4) i32* @_ZNKSt9_IdentityIiEclERKi(%"struct.std::less"* nonnull align 1 dereferenceable(1) %0, i32* nonnull align 4 dereferenceable(4) %1) #3 comdat align 2 {
  %3 = alloca %"struct.std::less"*, align 8, !llfi_index !1440
  %4 = alloca i32*, align 8, !llfi_index !1441
  store %"struct.std::less"* %0, %"struct.std::less"** %3, align 8, !llfi_index !1442
  store i32* %1, i32** %4, align 8, !llfi_index !1443
  %5 = load %"struct.std::less"*, %"struct.std::less"** %3, align 8, !llfi_index !1444
  %6 = load i32*, i32** %4, align 8, !llfi_index !1445
  ret i32* %6, !llfi_index !1446
}

; Function Attrs: mustprogress noinline uwtable
define linkonce_odr dso_local { %"struct.std::_Rb_tree_node_base"*, %"struct.std::_Rb_tree_node_base"* } @_ZNSt8_Rb_treeIiiSt9_IdentityIiESt4lessIiESaIiEE24_M_get_insert_unique_posERKi(%"class.std::_Rb_tree"* nonnull align 8 dereferenceable(48) %0, i32* nonnull align 4 dereferenceable(4) %1) #4 comdat align 2 {
  %3 = alloca %"struct.std::pair.11", align 8, !llfi_index !1447
  %4 = alloca %"class.std::_Rb_tree"*, align 8, !llfi_index !1448
  %5 = alloca i32*, align 8, !llfi_index !1449
  %6 = alloca %"struct.std::_Rb_tree_node"*, align 8, !llfi_index !1450
  %7 = alloca %"struct.std::_Rb_tree_node_base"*, align 8, !llfi_index !1451
  %8 = alloca i8, align 1, !llfi_index !1452
  %9 = alloca %"struct.std::_Rb_tree_const_iterator", align 8, !llfi_index !1453
  %10 = alloca %"struct.std::_Rb_tree_const_iterator", align 8, !llfi_index !1454
  %11 = alloca %"struct.std::_Rb_tree_node_base"*, align 8, !llfi_index !1455
  store %"class.std::_Rb_tree"* %0, %"class.std::_Rb_tree"** %4, align 8, !llfi_index !1456
  store i32* %1, i32** %5, align 8, !llfi_index !1457
  %12 = load %"class.std::_Rb_tree"*, %"class.std::_Rb_tree"** %4, align 8, !llfi_index !1458
  %13 = call %"struct.std::_Rb_tree_node"* @_ZNSt8_Rb_treeIiiSt9_IdentityIiESt4lessIiESaIiEE8_M_beginEv(%"class.std::_Rb_tree"* nonnull align 8 dereferenceable(48) %12) #2, !llfi_index !1459
  store %"struct.std::_Rb_tree_node"* %13, %"struct.std::_Rb_tree_node"** %6, align 8, !llfi_index !1460
  %14 = call %"struct.std::_Rb_tree_node_base"* @_ZNSt8_Rb_treeIiiSt9_IdentityIiESt4lessIiESaIiEE6_M_endEv(%"class.std::_Rb_tree"* nonnull align 8 dereferenceable(48) %12) #2, !llfi_index !1461
  store %"struct.std::_Rb_tree_node_base"* %14, %"struct.std::_Rb_tree_node_base"** %7, align 8, !llfi_index !1462
  store i8 1, i8* %8, align 1, !llfi_index !1463
  br label %15, !llfi_index !1464

15:                                               ; preds = %39, %2
  %16 = load %"struct.std::_Rb_tree_node"*, %"struct.std::_Rb_tree_node"** %6, align 8, !llfi_index !1465
  %17 = icmp ne %"struct.std::_Rb_tree_node"* %16, null, !llfi_index !1466
  br i1 %17, label %18, label %41, !llfi_index !1467

18:                                               ; preds = %15
  %19 = load %"struct.std::_Rb_tree_node"*, %"struct.std::_Rb_tree_node"** %6, align 8, !llfi_index !1468
  %20 = bitcast %"struct.std::_Rb_tree_node"* %19 to %"struct.std::_Rb_tree_node_base"*, !llfi_index !1469
  store %"struct.std::_Rb_tree_node_base"* %20, %"struct.std::_Rb_tree_node_base"** %7, align 8, !llfi_index !1470
  %21 = getelementptr inbounds %"class.std::_Rb_tree", %"class.std::_Rb_tree"* %12, i32 0, i32 0, !llfi_index !1471
  %22 = bitcast %"struct.std::_Rb_tree<int, int, std::_Identity<int>, std::less<int>>::_Rb_tree_impl"* %21 to %"struct.std::_Rb_tree_key_compare"*, !llfi_index !1472
  %23 = getelementptr inbounds %"struct.std::_Rb_tree_key_compare", %"struct.std::_Rb_tree_key_compare"* %22, i32 0, i32 0, !llfi_index !1473
  %24 = load i32*, i32** %5, align 8, !llfi_index !1474
  %25 = load %"struct.std::_Rb_tree_node"*, %"struct.std::_Rb_tree_node"** %6, align 8, !llfi_index !1475
  %26 = call nonnull align 4 dereferenceable(4) i32* @_ZNSt8_Rb_treeIiiSt9_IdentityIiESt4lessIiESaIiEE6_S_keyEPKSt13_Rb_tree_nodeIiE(%"struct.std::_Rb_tree_node"* %25), !llfi_index !1476
  %27 = call zeroext i1 @_ZNKSt4lessIiEclERKiS2_(%"struct.std::less"* nonnull align 1 dereferenceable(1) %23, i32* nonnull align 4 dereferenceable(4) %24, i32* nonnull align 4 dereferenceable(4) %26), !llfi_index !1477
  %28 = zext i1 %27 to i8, !llfi_index !1478
  store i8 %28, i8* %8, align 1, !llfi_index !1479
  %29 = load i8, i8* %8, align 1, !llfi_index !1480
  %30 = trunc i8 %29 to i1, !llfi_index !1481
  br i1 %30, label %31, label %35, !llfi_index !1482

31:                                               ; preds = %18
  %32 = load %"struct.std::_Rb_tree_node"*, %"struct.std::_Rb_tree_node"** %6, align 8, !llfi_index !1483
  %33 = bitcast %"struct.std::_Rb_tree_node"* %32 to %"struct.std::_Rb_tree_node_base"*, !llfi_index !1484
  %34 = call %"struct.std::_Rb_tree_node"* @_ZNSt8_Rb_treeIiiSt9_IdentityIiESt4lessIiESaIiEE7_S_leftEPSt18_Rb_tree_node_base(%"struct.std::_Rb_tree_node_base"* %33) #2, !llfi_index !1485
  br label %39, !llfi_index !1486

35:                                               ; preds = %18
  %36 = load %"struct.std::_Rb_tree_node"*, %"struct.std::_Rb_tree_node"** %6, align 8, !llfi_index !1487
  %37 = bitcast %"struct.std::_Rb_tree_node"* %36 to %"struct.std::_Rb_tree_node_base"*, !llfi_index !1488
  %38 = call %"struct.std::_Rb_tree_node"* @_ZNSt8_Rb_treeIiiSt9_IdentityIiESt4lessIiESaIiEE8_S_rightEPSt18_Rb_tree_node_base(%"struct.std::_Rb_tree_node_base"* %37) #2, !llfi_index !1489
  br label %39, !llfi_index !1490

39:                                               ; preds = %35, %31
  %40 = phi %"struct.std::_Rb_tree_node"* [ %34, %31 ], [ %38, %35 ], !llfi_index !1491
  store %"struct.std::_Rb_tree_node"* %40, %"struct.std::_Rb_tree_node"** %6, align 8, !llfi_index !1492
  br label %15, !llvm.loop !1493, !llfi_index !1494

41:                                               ; preds = %15
  %42 = load %"struct.std::_Rb_tree_node_base"*, %"struct.std::_Rb_tree_node_base"** %7, align 8, !llfi_index !1495
  call void @_ZNSt17_Rb_tree_iteratorIiEC2EPSt18_Rb_tree_node_base(%"struct.std::_Rb_tree_const_iterator"* nonnull align 8 dereferenceable(8) %9, %"struct.std::_Rb_tree_node_base"* %42) #2, !llfi_index !1496
  %43 = load i8, i8* %8, align 1, !llfi_index !1497
  %44 = trunc i8 %43 to i1, !llfi_index !1498
  br i1 %44, label %45, label %53, !llfi_index !1499

45:                                               ; preds = %41
  %46 = call %"struct.std::_Rb_tree_node_base"* @_ZNSt8_Rb_treeIiiSt9_IdentityIiESt4lessIiESaIiEE5beginEv(%"class.std::_Rb_tree"* nonnull align 8 dereferenceable(48) %12) #2, !llfi_index !1500
  %47 = getelementptr inbounds %"struct.std::_Rb_tree_const_iterator", %"struct.std::_Rb_tree_const_iterator"* %10, i32 0, i32 0, !llfi_index !1501
  store %"struct.std::_Rb_tree_node_base"* %46, %"struct.std::_Rb_tree_node_base"** %47, align 8, !llfi_index !1502
  %48 = call zeroext i1 @_ZSteqRKSt17_Rb_tree_iteratorIiES2_(%"struct.std::_Rb_tree_const_iterator"* nonnull align 8 dereferenceable(8) %9, %"struct.std::_Rb_tree_const_iterator"* nonnull align 8 dereferenceable(8) %10) #2, !llfi_index !1503
  br i1 %48, label %49, label %50, !llfi_index !1504

49:                                               ; preds = %45
  call void @_ZNSt4pairIPSt18_Rb_tree_node_baseS1_EC2IRPSt13_Rb_tree_nodeIiERS1_Lb1EEEOT_OT0_(%"struct.std::pair.11"* nonnull align 8 dereferenceable(16) %3, %"struct.std::_Rb_tree_node"** nonnull align 8 dereferenceable(8) %6, %"struct.std::_Rb_tree_node_base"** nonnull align 8 dereferenceable(8) %7), !llfi_index !1505
  br label %65, !llfi_index !1506

50:                                               ; preds = %45
  %51 = call nonnull align 8 dereferenceable(8) %"struct.std::_Rb_tree_const_iterator"* @_ZNSt17_Rb_tree_iteratorIiEmmEv(%"struct.std::_Rb_tree_const_iterator"* nonnull align 8 dereferenceable(8) %9) #2, !llfi_index !1507
  br label %52, !llfi_index !1508

52:                                               ; preds = %50
  br label %53, !llfi_index !1509

53:                                               ; preds = %52, %41
  %54 = getelementptr inbounds %"class.std::_Rb_tree", %"class.std::_Rb_tree"* %12, i32 0, i32 0, !llfi_index !1510
  %55 = bitcast %"struct.std::_Rb_tree<int, int, std::_Identity<int>, std::less<int>>::_Rb_tree_impl"* %54 to %"struct.std::_Rb_tree_key_compare"*, !llfi_index !1511
  %56 = getelementptr inbounds %"struct.std::_Rb_tree_key_compare", %"struct.std::_Rb_tree_key_compare"* %55, i32 0, i32 0, !llfi_index !1512
  %57 = getelementptr inbounds %"struct.std::_Rb_tree_const_iterator", %"struct.std::_Rb_tree_const_iterator"* %9, i32 0, i32 0, !llfi_index !1513
  %58 = load %"struct.std::_Rb_tree_node_base"*, %"struct.std::_Rb_tree_node_base"** %57, align 8, !llfi_index !1514
  %59 = call nonnull align 4 dereferenceable(4) i32* @_ZNSt8_Rb_treeIiiSt9_IdentityIiESt4lessIiESaIiEE6_S_keyEPKSt18_Rb_tree_node_base(%"struct.std::_Rb_tree_node_base"* %58), !llfi_index !1515
  %60 = load i32*, i32** %5, align 8, !llfi_index !1516
  %61 = call zeroext i1 @_ZNKSt4lessIiEclERKiS2_(%"struct.std::less"* nonnull align 1 dereferenceable(1) %56, i32* nonnull align 4 dereferenceable(4) %59, i32* nonnull align 4 dereferenceable(4) %60), !llfi_index !1517
  br i1 %61, label %62, label %63, !llfi_index !1518

62:                                               ; preds = %53
  call void @_ZNSt4pairIPSt18_Rb_tree_node_baseS1_EC2IRPSt13_Rb_tree_nodeIiERS1_Lb1EEEOT_OT0_(%"struct.std::pair.11"* nonnull align 8 dereferenceable(16) %3, %"struct.std::_Rb_tree_node"** nonnull align 8 dereferenceable(8) %6, %"struct.std::_Rb_tree_node_base"** nonnull align 8 dereferenceable(8) %7), !llfi_index !1519
  br label %65, !llfi_index !1520

63:                                               ; preds = %53
  %64 = getelementptr inbounds %"struct.std::_Rb_tree_const_iterator", %"struct.std::_Rb_tree_const_iterator"* %9, i32 0, i32 0, !llfi_index !1521
  store %"struct.std::_Rb_tree_node_base"* null, %"struct.std::_Rb_tree_node_base"** %11, align 8, !llfi_index !1522
  call void @_ZNSt4pairIPSt18_Rb_tree_node_baseS1_EC2IRS1_Lb1EEEOT_RKS1_(%"struct.std::pair.11"* nonnull align 8 dereferenceable(16) %3, %"struct.std::_Rb_tree_node_base"** nonnull align 8 dereferenceable(8) %64, %"struct.std::_Rb_tree_node_base"** nonnull align 8 dereferenceable(8) %11), !llfi_index !1523
  br label %65, !llfi_index !1524

65:                                               ; preds = %63, %62, %49
  %66 = bitcast %"struct.std::pair.11"* %3 to { %"struct.std::_Rb_tree_node_base"*, %"struct.std::_Rb_tree_node_base"* }*, !llfi_index !1525
  %67 = load { %"struct.std::_Rb_tree_node_base"*, %"struct.std::_Rb_tree_node_base"* }, { %"struct.std::_Rb_tree_node_base"*, %"struct.std::_Rb_tree_node_base"* }* %66, align 8, !llfi_index !1526
  ret { %"struct.std::_Rb_tree_node_base"*, %"struct.std::_Rb_tree_node_base"* } %67, !llfi_index !1527
}

; Function Attrs: noinline nounwind uwtable
define linkonce_odr dso_local void @_ZNSt8_Rb_treeIiiSt9_IdentityIiESt4lessIiESaIiEE11_Alloc_nodeC2ERS5_(%"struct.std::_Rb_tree<int, int, std::_Identity<int>, std::less<int>>::_Alloc_node"* nonnull align 8 dereferenceable(8) %0, %"class.std::_Rb_tree"* nonnull align 8 dereferenceable(48) %1) unnamed_addr #1 comdat align 2 {
  %3 = alloca %"struct.std::_Rb_tree<int, int, std::_Identity<int>, std::less<int>>::_Alloc_node"*, align 8, !llfi_index !1528
  %4 = alloca %"class.std::_Rb_tree"*, align 8, !llfi_index !1529
  store %"struct.std::_Rb_tree<int, int, std::_Identity<int>, std::less<int>>::_Alloc_node"* %0, %"struct.std::_Rb_tree<int, int, std::_Identity<int>, std::less<int>>::_Alloc_node"** %3, align 8, !llfi_index !1530
  store %"class.std::_Rb_tree"* %1, %"class.std::_Rb_tree"** %4, align 8, !llfi_index !1531
  %5 = load %"struct.std::_Rb_tree<int, int, std::_Identity<int>, std::less<int>>::_Alloc_node"*, %"struct.std::_Rb_tree<int, int, std::_Identity<int>, std::less<int>>::_Alloc_node"** %3, align 8, !llfi_index !1532
  %6 = getelementptr inbounds %"struct.std::_Rb_tree<int, int, std::_Identity<int>, std::less<int>>::_Alloc_node", %"struct.std::_Rb_tree<int, int, std::_Identity<int>, std::less<int>>::_Alloc_node"* %5, i32 0, i32 0, !llfi_index !1533
  %7 = load %"class.std::_Rb_tree"*, %"class.std::_Rb_tree"** %4, align 8, !llfi_index !1534
  store %"class.std::_Rb_tree"* %7, %"class.std::_Rb_tree"** %6, align 8, !llfi_index !1535
  ret void, !llfi_index !1536
}

; Function Attrs: mustprogress noinline nounwind uwtable
define linkonce_odr dso_local nonnull align 4 dereferenceable(4) i32* @_ZSt7forwardIRKiEOT_RNSt16remove_referenceIS2_E4typeE(i32* nonnull align 4 dereferenceable(4) %0) #3 comdat {
  %2 = alloca i32*, align 8, !llfi_index !1537
  store i32* %0, i32** %2, align 8, !llfi_index !1538
  %3 = load i32*, i32** %2, align 8, !llfi_index !1539
  ret i32* %3, !llfi_index !1540
}

; Function Attrs: mustprogress noinline uwtable
define linkonce_odr dso_local %"struct.std::_Rb_tree_node_base"* @_ZNSt8_Rb_treeIiiSt9_IdentityIiESt4lessIiESaIiEE10_M_insert_IRKiNS5_11_Alloc_nodeEEESt17_Rb_tree_iteratorIiEPSt18_Rb_tree_node_baseSD_OT_RT0_(%"class.std::_Rb_tree"* nonnull align 8 dereferenceable(48) %0, %"struct.std::_Rb_tree_node_base"* %1, %"struct.std::_Rb_tree_node_base"* %2, i32* nonnull align 4 dereferenceable(4) %3, %"struct.std::_Rb_tree<int, int, std::_Identity<int>, std::less<int>>::_Alloc_node"* nonnull align 8 dereferenceable(8) %4) #4 comdat align 2 {
  %6 = alloca %"struct.std::_Rb_tree_const_iterator", align 8, !llfi_index !1541
  %7 = alloca %"class.std::_Rb_tree"*, align 8, !llfi_index !1542
  %8 = alloca %"struct.std::_Rb_tree_node_base"*, align 8, !llfi_index !1543
  %9 = alloca %"struct.std::_Rb_tree_node_base"*, align 8, !llfi_index !1544
  %10 = alloca i32*, align 8, !llfi_index !1545
  %11 = alloca %"struct.std::_Rb_tree<int, int, std::_Identity<int>, std::less<int>>::_Alloc_node"*, align 8, !llfi_index !1546
  %12 = alloca i8, align 1, !llfi_index !1547
  %13 = alloca %"struct.std::less", align 1, !llfi_index !1548
  %14 = alloca %"struct.std::_Rb_tree_node"*, align 8, !llfi_index !1549
  store %"class.std::_Rb_tree"* %0, %"class.std::_Rb_tree"** %7, align 8, !llfi_index !1550
  store %"struct.std::_Rb_tree_node_base"* %1, %"struct.std::_Rb_tree_node_base"** %8, align 8, !llfi_index !1551
  store %"struct.std::_Rb_tree_node_base"* %2, %"struct.std::_Rb_tree_node_base"** %9, align 8, !llfi_index !1552
  store i32* %3, i32** %10, align 8, !llfi_index !1553
  store %"struct.std::_Rb_tree<int, int, std::_Identity<int>, std::less<int>>::_Alloc_node"* %4, %"struct.std::_Rb_tree<int, int, std::_Identity<int>, std::less<int>>::_Alloc_node"** %11, align 8, !llfi_index !1554
  %15 = load %"class.std::_Rb_tree"*, %"class.std::_Rb_tree"** %7, align 8, !llfi_index !1555
  %16 = load %"struct.std::_Rb_tree_node_base"*, %"struct.std::_Rb_tree_node_base"** %8, align 8, !llfi_index !1556
  %17 = icmp ne %"struct.std::_Rb_tree_node_base"* %16, null, !llfi_index !1557
  br i1 %17, label %31, label %18, !llfi_index !1558

18:                                               ; preds = %5
  %19 = load %"struct.std::_Rb_tree_node_base"*, %"struct.std::_Rb_tree_node_base"** %9, align 8, !llfi_index !1559
  %20 = call %"struct.std::_Rb_tree_node_base"* @_ZNSt8_Rb_treeIiiSt9_IdentityIiESt4lessIiESaIiEE6_M_endEv(%"class.std::_Rb_tree"* nonnull align 8 dereferenceable(48) %15) #2, !llfi_index !1560
  %21 = icmp eq %"struct.std::_Rb_tree_node_base"* %19, %20, !llfi_index !1561
  br i1 %21, label %31, label %22, !llfi_index !1562

22:                                               ; preds = %18
  %23 = getelementptr inbounds %"class.std::_Rb_tree", %"class.std::_Rb_tree"* %15, i32 0, i32 0, !llfi_index !1563
  %24 = bitcast %"struct.std::_Rb_tree<int, int, std::_Identity<int>, std::less<int>>::_Rb_tree_impl"* %23 to %"struct.std::_Rb_tree_key_compare"*, !llfi_index !1564
  %25 = getelementptr inbounds %"struct.std::_Rb_tree_key_compare", %"struct.std::_Rb_tree_key_compare"* %24, i32 0, i32 0, !llfi_index !1565
  %26 = load i32*, i32** %10, align 8, !llfi_index !1566
  %27 = call nonnull align 4 dereferenceable(4) i32* @_ZNKSt9_IdentityIiEclERKi(%"struct.std::less"* nonnull align 1 dereferenceable(1) %13, i32* nonnull align 4 dereferenceable(4) %26), !llfi_index !1567
  %28 = load %"struct.std::_Rb_tree_node_base"*, %"struct.std::_Rb_tree_node_base"** %9, align 8, !llfi_index !1568
  %29 = call nonnull align 4 dereferenceable(4) i32* @_ZNSt8_Rb_treeIiiSt9_IdentityIiESt4lessIiESaIiEE6_S_keyEPKSt18_Rb_tree_node_base(%"struct.std::_Rb_tree_node_base"* %28), !llfi_index !1569
  %30 = call zeroext i1 @_ZNKSt4lessIiEclERKiS2_(%"struct.std::less"* nonnull align 1 dereferenceable(1) %25, i32* nonnull align 4 dereferenceable(4) %27, i32* nonnull align 4 dereferenceable(4) %29), !llfi_index !1570
  br label %31, !llfi_index !1571

31:                                               ; preds = %22, %18, %5
  %32 = phi i1 [ true, %18 ], [ true, %5 ], [ %30, %22 ], !llfi_index !1572
  %33 = zext i1 %32 to i8, !llfi_index !1573
  store i8 %33, i8* %12, align 1, !llfi_index !1574
  %34 = load %"struct.std::_Rb_tree<int, int, std::_Identity<int>, std::less<int>>::_Alloc_node"*, %"struct.std::_Rb_tree<int, int, std::_Identity<int>, std::less<int>>::_Alloc_node"** %11, align 8, !llfi_index !1575
  %35 = load i32*, i32** %10, align 8, !llfi_index !1576
  %36 = call nonnull align 4 dereferenceable(4) i32* @_ZSt7forwardIRKiEOT_RNSt16remove_referenceIS2_E4typeE(i32* nonnull align 4 dereferenceable(4) %35) #2, !llfi_index !1577
  %37 = call %"struct.std::_Rb_tree_node"* @_ZNKSt8_Rb_treeIiiSt9_IdentityIiESt4lessIiESaIiEE11_Alloc_nodeclIRKiEEPSt13_Rb_tree_nodeIiEOT_(%"struct.std::_Rb_tree<int, int, std::_Identity<int>, std::less<int>>::_Alloc_node"* nonnull align 8 dereferenceable(8) %34, i32* nonnull align 4 dereferenceable(4) %36), !llfi_index !1578
  store %"struct.std::_Rb_tree_node"* %37, %"struct.std::_Rb_tree_node"** %14, align 8, !llfi_index !1579
  %38 = load i8, i8* %12, align 1, !llfi_index !1580
  %39 = trunc i8 %38 to i1, !llfi_index !1581
  %40 = load %"struct.std::_Rb_tree_node"*, %"struct.std::_Rb_tree_node"** %14, align 8, !llfi_index !1582
  %41 = bitcast %"struct.std::_Rb_tree_node"* %40 to %"struct.std::_Rb_tree_node_base"*, !llfi_index !1583
  %42 = load %"struct.std::_Rb_tree_node_base"*, %"struct.std::_Rb_tree_node_base"** %9, align 8, !llfi_index !1584
  %43 = getelementptr inbounds %"class.std::_Rb_tree", %"class.std::_Rb_tree"* %15, i32 0, i32 0, !llfi_index !1585
  %44 = bitcast %"struct.std::_Rb_tree<int, int, std::_Identity<int>, std::less<int>>::_Rb_tree_impl"* %43 to i8*, !llfi_index !1586
  %45 = getelementptr inbounds i8, i8* %44, i64 8, !llfi_index !1587
  %46 = bitcast i8* %45 to %"struct.std::_Rb_tree_header"*, !llfi_index !1588
  %47 = getelementptr inbounds %"struct.std::_Rb_tree_header", %"struct.std::_Rb_tree_header"* %46, i32 0, i32 0, !llfi_index !1589
  call void @_ZSt29_Rb_tree_insert_and_rebalancebPSt18_Rb_tree_node_baseS0_RS_(i1 zeroext %39, %"struct.std::_Rb_tree_node_base"* %41, %"struct.std::_Rb_tree_node_base"* %42, %"struct.std::_Rb_tree_node_base"* nonnull align 8 dereferenceable(32) %47) #2, !llfi_index !1590
  %48 = getelementptr inbounds %"class.std::_Rb_tree", %"class.std::_Rb_tree"* %15, i32 0, i32 0, !llfi_index !1591
  %49 = bitcast %"struct.std::_Rb_tree<int, int, std::_Identity<int>, std::less<int>>::_Rb_tree_impl"* %48 to i8*, !llfi_index !1592
  %50 = getelementptr inbounds i8, i8* %49, i64 8, !llfi_index !1593
  %51 = bitcast i8* %50 to %"struct.std::_Rb_tree_header"*, !llfi_index !1594
  %52 = getelementptr inbounds %"struct.std::_Rb_tree_header", %"struct.std::_Rb_tree_header"* %51, i32 0, i32 1, !llfi_index !1595
  %53 = load i64, i64* %52, align 8, !llfi_index !1596
  %54 = add i64 %53, 1, !llfi_index !1597
  store i64 %54, i64* %52, align 8, !llfi_index !1598
  %55 = load %"struct.std::_Rb_tree_node"*, %"struct.std::_Rb_tree_node"** %14, align 8, !llfi_index !1599
  %56 = bitcast %"struct.std::_Rb_tree_node"* %55 to %"struct.std::_Rb_tree_node_base"*, !llfi_index !1600
  call void @_ZNSt17_Rb_tree_iteratorIiEC2EPSt18_Rb_tree_node_base(%"struct.std::_Rb_tree_const_iterator"* nonnull align 8 dereferenceable(8) %6, %"struct.std::_Rb_tree_node_base"* %56) #2, !llfi_index !1601
  %57 = getelementptr inbounds %"struct.std::_Rb_tree_const_iterator", %"struct.std::_Rb_tree_const_iterator"* %6, i32 0, i32 0, !llfi_index !1602
  %58 = load %"struct.std::_Rb_tree_node_base"*, %"struct.std::_Rb_tree_node_base"** %57, align 8, !llfi_index !1603
  ret %"struct.std::_Rb_tree_node_base"* %58, !llfi_index !1604
}

; Function Attrs: noinline nounwind uwtable
define linkonce_odr dso_local void @_ZNSt4pairISt17_Rb_tree_iteratorIiEbEC2IS1_bLb1EEEOT_OT0_(%"struct.std::pair.3"* nonnull align 8 dereferenceable(9) %0, %"struct.std::_Rb_tree_const_iterator"* nonnull align 8 dereferenceable(8) %1, i8* nonnull align 1 dereferenceable(1) %2) unnamed_addr #1 comdat align 2 {
  %4 = alloca %"struct.std::pair.3"*, align 8, !llfi_index !1605
  %5 = alloca %"struct.std::_Rb_tree_const_iterator"*, align 8, !llfi_index !1606
  %6 = alloca i8*, align 8, !llfi_index !1607
  store %"struct.std::pair.3"* %0, %"struct.std::pair.3"** %4, align 8, !llfi_index !1608
  store %"struct.std::_Rb_tree_const_iterator"* %1, %"struct.std::_Rb_tree_const_iterator"** %5, align 8, !llfi_index !1609
  store i8* %2, i8** %6, align 8, !llfi_index !1610
  %7 = load %"struct.std::pair.3"*, %"struct.std::pair.3"** %4, align 8, !llfi_index !1611
  %8 = bitcast %"struct.std::pair.3"* %7 to %"struct.std::less"*, !llfi_index !1612
  %9 = getelementptr inbounds %"struct.std::pair.3", %"struct.std::pair.3"* %7, i32 0, i32 0, !llfi_index !1613
  %10 = load %"struct.std::_Rb_tree_const_iterator"*, %"struct.std::_Rb_tree_const_iterator"** %5, align 8, !llfi_index !1614
  %11 = call nonnull align 8 dereferenceable(8) %"struct.std::_Rb_tree_const_iterator"* @_ZSt7forwardISt17_Rb_tree_iteratorIiEEOT_RNSt16remove_referenceIS2_E4typeE(%"struct.std::_Rb_tree_const_iterator"* nonnull align 8 dereferenceable(8) %10) #2, !llfi_index !1615
  %12 = bitcast %"struct.std::_Rb_tree_const_iterator"* %9 to i8*, !llfi_index !1616
  %13 = bitcast %"struct.std::_Rb_tree_const_iterator"* %11 to i8*, !llfi_index !1617
  call void @llvm.memcpy.p0i8.p0i8.i64(i8* align 8 %12, i8* align 8 %13, i64 8, i1 false), !llfi_index !1618
  %14 = getelementptr inbounds %"struct.std::pair.3", %"struct.std::pair.3"* %7, i32 0, i32 1, !llfi_index !1619
  %15 = load i8*, i8** %6, align 8, !llfi_index !1620
  %16 = call nonnull align 1 dereferenceable(1) i8* @_ZSt7forwardIbEOT_RNSt16remove_referenceIS0_E4typeE(i8* nonnull align 1 dereferenceable(1) %15) #2, !llfi_index !1621
  %17 = load i8, i8* %16, align 1, !llfi_index !1622
  %18 = trunc i8 %17 to i1, !llfi_index !1623
  %19 = zext i1 %18 to i8, !llfi_index !1624
  store i8 %19, i8* %14, align 8, !llfi_index !1625
  ret void, !llfi_index !1626
}

; Function Attrs: noinline nounwind uwtable
define linkonce_odr dso_local void @_ZNSt17_Rb_tree_iteratorIiEC2EPSt18_Rb_tree_node_base(%"struct.std::_Rb_tree_const_iterator"* nonnull align 8 dereferenceable(8) %0, %"struct.std::_Rb_tree_node_base"* %1) unnamed_addr #1 comdat align 2 {
  %3 = alloca %"struct.std::_Rb_tree_const_iterator"*, align 8, !llfi_index !1627
  %4 = alloca %"struct.std::_Rb_tree_node_base"*, align 8, !llfi_index !1628
  store %"struct.std::_Rb_tree_const_iterator"* %0, %"struct.std::_Rb_tree_const_iterator"** %3, align 8, !llfi_index !1629
  store %"struct.std::_Rb_tree_node_base"* %1, %"struct.std::_Rb_tree_node_base"** %4, align 8, !llfi_index !1630
  %5 = load %"struct.std::_Rb_tree_const_iterator"*, %"struct.std::_Rb_tree_const_iterator"** %3, align 8, !llfi_index !1631
  %6 = getelementptr inbounds %"struct.std::_Rb_tree_const_iterator", %"struct.std::_Rb_tree_const_iterator"* %5, i32 0, i32 0, !llfi_index !1632
  %7 = load %"struct.std::_Rb_tree_node_base"*, %"struct.std::_Rb_tree_node_base"** %4, align 8, !llfi_index !1633
  store %"struct.std::_Rb_tree_node_base"* %7, %"struct.std::_Rb_tree_node_base"** %6, align 8, !llfi_index !1634
  ret void, !llfi_index !1635
}

; Function Attrs: mustprogress noinline nounwind uwtable
define linkonce_odr dso_local nonnull align 8 dereferenceable(8) %"struct.std::_Rb_tree_const_iterator"* @_ZSt7forwardISt17_Rb_tree_iteratorIiEEOT_RNSt16remove_referenceIS2_E4typeE(%"struct.std::_Rb_tree_const_iterator"* nonnull align 8 dereferenceable(8) %0) #3 comdat {
  %2 = alloca %"struct.std::_Rb_tree_const_iterator"*, align 8, !llfi_index !1636
  store %"struct.std::_Rb_tree_const_iterator"* %0, %"struct.std::_Rb_tree_const_iterator"** %2, align 8, !llfi_index !1637
  %3 = load %"struct.std::_Rb_tree_const_iterator"*, %"struct.std::_Rb_tree_const_iterator"** %2, align 8, !llfi_index !1638
  ret %"struct.std::_Rb_tree_const_iterator"* %3, !llfi_index !1639
}

; Function Attrs: argmemonly nofree nounwind willreturn
declare void @llvm.memcpy.p0i8.p0i8.i64(i8* noalias nocapture writeonly, i8* noalias nocapture readonly, i64, i1 immarg) #11

; Function Attrs: mustprogress noinline nounwind uwtable
define linkonce_odr dso_local nonnull align 1 dereferenceable(1) i8* @_ZSt7forwardIbEOT_RNSt16remove_referenceIS0_E4typeE(i8* nonnull align 1 dereferenceable(1) %0) #3 comdat {
  %2 = alloca i8*, align 8, !llfi_index !1640
  store i8* %0, i8** %2, align 8, !llfi_index !1641
  %3 = load i8*, i8** %2, align 8, !llfi_index !1642
  ret i8* %3, !llfi_index !1643
}

; Function Attrs: mustprogress noinline nounwind uwtable
define linkonce_odr dso_local %"struct.std::_Rb_tree_node_base"* @_ZNSt8_Rb_treeIiiSt9_IdentityIiESt4lessIiESaIiEE6_M_endEv(%"class.std::_Rb_tree"* nonnull align 8 dereferenceable(48) %0) #3 comdat align 2 {
  %2 = alloca %"class.std::_Rb_tree"*, align 8, !llfi_index !1644
  store %"class.std::_Rb_tree"* %0, %"class.std::_Rb_tree"** %2, align 8, !llfi_index !1645
  %3 = load %"class.std::_Rb_tree"*, %"class.std::_Rb_tree"** %2, align 8, !llfi_index !1646
  %4 = getelementptr inbounds %"class.std::_Rb_tree", %"class.std::_Rb_tree"* %3, i32 0, i32 0, !llfi_index !1647
  %5 = bitcast %"struct.std::_Rb_tree<int, int, std::_Identity<int>, std::less<int>>::_Rb_tree_impl"* %4 to i8*, !llfi_index !1648
  %6 = getelementptr inbounds i8, i8* %5, i64 8, !llfi_index !1649
  %7 = bitcast i8* %6 to %"struct.std::_Rb_tree_header"*, !llfi_index !1650
  %8 = getelementptr inbounds %"struct.std::_Rb_tree_header", %"struct.std::_Rb_tree_header"* %7, i32 0, i32 0, !llfi_index !1651
  ret %"struct.std::_Rb_tree_node_base"* %8, !llfi_index !1652
}

; Function Attrs: mustprogress noinline uwtable
define linkonce_odr dso_local nonnull align 4 dereferenceable(4) i32* @_ZNSt8_Rb_treeIiiSt9_IdentityIiESt4lessIiESaIiEE6_S_keyEPKSt18_Rb_tree_node_base(%"struct.std::_Rb_tree_node_base"* %0) #4 comdat align 2 {
  %2 = alloca %"struct.std::_Rb_tree_node_base"*, align 8, !llfi_index !1653
  store %"struct.std::_Rb_tree_node_base"* %0, %"struct.std::_Rb_tree_node_base"** %2, align 8, !llfi_index !1654
  %3 = load %"struct.std::_Rb_tree_node_base"*, %"struct.std::_Rb_tree_node_base"** %2, align 8, !llfi_index !1655
  %4 = bitcast %"struct.std::_Rb_tree_node_base"* %3 to %"struct.std::_Rb_tree_node"*, !llfi_index !1656
  %5 = call nonnull align 4 dereferenceable(4) i32* @_ZNSt8_Rb_treeIiiSt9_IdentityIiESt4lessIiESaIiEE6_S_keyEPKSt13_Rb_tree_nodeIiE(%"struct.std::_Rb_tree_node"* %4), !llfi_index !1657
  ret i32* %5, !llfi_index !1658
}

; Function Attrs: mustprogress noinline nounwind uwtable
define linkonce_odr dso_local zeroext i1 @_ZNKSt4lessIiEclERKiS2_(%"struct.std::less"* nonnull align 1 dereferenceable(1) %0, i32* nonnull align 4 dereferenceable(4) %1, i32* nonnull align 4 dereferenceable(4) %2) #3 comdat align 2 {
  %4 = alloca %"struct.std::less"*, align 8, !llfi_index !1659
  %5 = alloca i32*, align 8, !llfi_index !1660
  %6 = alloca i32*, align 8, !llfi_index !1661
  store %"struct.std::less"* %0, %"struct.std::less"** %4, align 8, !llfi_index !1662
  store i32* %1, i32** %5, align 8, !llfi_index !1663
  store i32* %2, i32** %6, align 8, !llfi_index !1664
  %7 = load %"struct.std::less"*, %"struct.std::less"** %4, align 8, !llfi_index !1665
  %8 = load i32*, i32** %5, align 8, !llfi_index !1666
  %9 = load i32, i32* %8, align 4, !llfi_index !1667
  %10 = load i32*, i32** %6, align 8, !llfi_index !1668
  %11 = load i32, i32* %10, align 4, !llfi_index !1669
  %12 = icmp slt i32 %9, %11, !llfi_index !1670
  ret i1 %12, !llfi_index !1671
}

; Function Attrs: mustprogress noinline uwtable
define linkonce_odr dso_local %"struct.std::_Rb_tree_node"* @_ZNKSt8_Rb_treeIiiSt9_IdentityIiESt4lessIiESaIiEE11_Alloc_nodeclIRKiEEPSt13_Rb_tree_nodeIiEOT_(%"struct.std::_Rb_tree<int, int, std::_Identity<int>, std::less<int>>::_Alloc_node"* nonnull align 8 dereferenceable(8) %0, i32* nonnull align 4 dereferenceable(4) %1) #4 comdat align 2 {
  %3 = alloca %"struct.std::_Rb_tree<int, int, std::_Identity<int>, std::less<int>>::_Alloc_node"*, align 8, !llfi_index !1672
  %4 = alloca i32*, align 8, !llfi_index !1673
  store %"struct.std::_Rb_tree<int, int, std::_Identity<int>, std::less<int>>::_Alloc_node"* %0, %"struct.std::_Rb_tree<int, int, std::_Identity<int>, std::less<int>>::_Alloc_node"** %3, align 8, !llfi_index !1674
  store i32* %1, i32** %4, align 8, !llfi_index !1675
  %5 = load %"struct.std::_Rb_tree<int, int, std::_Identity<int>, std::less<int>>::_Alloc_node"*, %"struct.std::_Rb_tree<int, int, std::_Identity<int>, std::less<int>>::_Alloc_node"** %3, align 8, !llfi_index !1676
  %6 = getelementptr inbounds %"struct.std::_Rb_tree<int, int, std::_Identity<int>, std::less<int>>::_Alloc_node", %"struct.std::_Rb_tree<int, int, std::_Identity<int>, std::less<int>>::_Alloc_node"* %5, i32 0, i32 0, !llfi_index !1677
  %7 = load %"class.std::_Rb_tree"*, %"class.std::_Rb_tree"** %6, align 8, !llfi_index !1678
  %8 = load i32*, i32** %4, align 8, !llfi_index !1679
  %9 = call nonnull align 4 dereferenceable(4) i32* @_ZSt7forwardIRKiEOT_RNSt16remove_referenceIS2_E4typeE(i32* nonnull align 4 dereferenceable(4) %8) #2, !llfi_index !1680
  %10 = call %"struct.std::_Rb_tree_node"* @_ZNSt8_Rb_treeIiiSt9_IdentityIiESt4lessIiESaIiEE14_M_create_nodeIJRKiEEEPSt13_Rb_tree_nodeIiEDpOT_(%"class.std::_Rb_tree"* nonnull align 8 dereferenceable(48) %7, i32* nonnull align 4 dereferenceable(4) %9), !llfi_index !1681
  ret %"struct.std::_Rb_tree_node"* %10, !llfi_index !1682
}

; Function Attrs: nounwind
declare dso_local void @_ZSt29_Rb_tree_insert_and_rebalancebPSt18_Rb_tree_node_baseS0_RS_(i1 zeroext, %"struct.std::_Rb_tree_node_base"*, %"struct.std::_Rb_tree_node_base"*, %"struct.std::_Rb_tree_node_base"* nonnull align 8 dereferenceable(32)) #8

; Function Attrs: mustprogress noinline uwtable
define linkonce_odr dso_local %"struct.std::_Rb_tree_node"* @_ZNSt8_Rb_treeIiiSt9_IdentityIiESt4lessIiESaIiEE14_M_create_nodeIJRKiEEEPSt13_Rb_tree_nodeIiEDpOT_(%"class.std::_Rb_tree"* nonnull align 8 dereferenceable(48) %0, i32* nonnull align 4 dereferenceable(4) %1) #4 comdat align 2 {
  %3 = alloca %"class.std::_Rb_tree"*, align 8, !llfi_index !1683
  %4 = alloca i32*, align 8, !llfi_index !1684
  %5 = alloca %"struct.std::_Rb_tree_node"*, align 8, !llfi_index !1685
  store %"class.std::_Rb_tree"* %0, %"class.std::_Rb_tree"** %3, align 8, !llfi_index !1686
  store i32* %1, i32** %4, align 8, !llfi_index !1687
  %6 = load %"class.std::_Rb_tree"*, %"class.std::_Rb_tree"** %3, align 8, !llfi_index !1688
  %7 = call %"struct.std::_Rb_tree_node"* @_ZNSt8_Rb_treeIiiSt9_IdentityIiESt4lessIiESaIiEE11_M_get_nodeEv(%"class.std::_Rb_tree"* nonnull align 8 dereferenceable(48) %6), !llfi_index !1689
  store %"struct.std::_Rb_tree_node"* %7, %"struct.std::_Rb_tree_node"** %5, align 8, !llfi_index !1690
  %8 = load %"struct.std::_Rb_tree_node"*, %"struct.std::_Rb_tree_node"** %5, align 8, !llfi_index !1691
  %9 = load i32*, i32** %4, align 8, !llfi_index !1692
  %10 = call nonnull align 4 dereferenceable(4) i32* @_ZSt7forwardIRKiEOT_RNSt16remove_referenceIS2_E4typeE(i32* nonnull align 4 dereferenceable(4) %9) #2, !llfi_index !1693
  call void @_ZNSt8_Rb_treeIiiSt9_IdentityIiESt4lessIiESaIiEE17_M_construct_nodeIJRKiEEEvPSt13_Rb_tree_nodeIiEDpOT_(%"class.std::_Rb_tree"* nonnull align 8 dereferenceable(48) %6, %"struct.std::_Rb_tree_node"* %8, i32* nonnull align 4 dereferenceable(4) %10), !llfi_index !1694
  %11 = load %"struct.std::_Rb_tree_node"*, %"struct.std::_Rb_tree_node"** %5, align 8, !llfi_index !1695
  ret %"struct.std::_Rb_tree_node"* %11, !llfi_index !1696
}

; Function Attrs: mustprogress noinline uwtable
define linkonce_odr dso_local %"struct.std::_Rb_tree_node"* @_ZNSt8_Rb_treeIiiSt9_IdentityIiESt4lessIiESaIiEE11_M_get_nodeEv(%"class.std::_Rb_tree"* nonnull align 8 dereferenceable(48) %0) #4 comdat align 2 {
  %2 = alloca %"class.std::_Rb_tree"*, align 8, !llfi_index !1697
  store %"class.std::_Rb_tree"* %0, %"class.std::_Rb_tree"** %2, align 8, !llfi_index !1698
  %3 = load %"class.std::_Rb_tree"*, %"class.std::_Rb_tree"** %2, align 8, !llfi_index !1699
  %4 = call nonnull align 1 dereferenceable(1) %"struct.std::less"* @_ZNSt8_Rb_treeIiiSt9_IdentityIiESt4lessIiESaIiEE21_M_get_Node_allocatorEv(%"class.std::_Rb_tree"* nonnull align 8 dereferenceable(48) %3) #2, !llfi_index !1700
  %5 = call %"struct.std::_Rb_tree_node"* @_ZNSt16allocator_traitsISaISt13_Rb_tree_nodeIiEEE8allocateERS2_m(%"struct.std::less"* nonnull align 1 dereferenceable(1) %4, i64 1), !llfi_index !1701
  ret %"struct.std::_Rb_tree_node"* %5, !llfi_index !1702
}

; Function Attrs: mustprogress noinline nounwind uwtable
define linkonce_odr dso_local void @_ZNSt8_Rb_treeIiiSt9_IdentityIiESt4lessIiESaIiEE17_M_construct_nodeIJRKiEEEvPSt13_Rb_tree_nodeIiEDpOT_(%"class.std::_Rb_tree"* nonnull align 8 dereferenceable(48) %0, %"struct.std::_Rb_tree_node"* %1, i32* nonnull align 4 dereferenceable(4) %2) #3 comdat align 2 {
  %4 = alloca %"class.std::_Rb_tree"*, align 8, !llfi_index !1703
  %5 = alloca %"struct.std::_Rb_tree_node"*, align 8, !llfi_index !1704
  %6 = alloca i32*, align 8, !llfi_index !1705
  store %"class.std::_Rb_tree"* %0, %"class.std::_Rb_tree"** %4, align 8, !llfi_index !1706
  store %"struct.std::_Rb_tree_node"* %1, %"struct.std::_Rb_tree_node"** %5, align 8, !llfi_index !1707
  store i32* %2, i32** %6, align 8, !llfi_index !1708
  %7 = load %"class.std::_Rb_tree"*, %"class.std::_Rb_tree"** %4, align 8, !llfi_index !1709
  %8 = load %"struct.std::_Rb_tree_node"*, %"struct.std::_Rb_tree_node"** %5, align 8, !llfi_index !1710
  %9 = bitcast %"struct.std::_Rb_tree_node"* %8 to i8*, !llfi_index !1711
  %10 = bitcast i8* %9 to %"struct.std::_Rb_tree_node"*, !llfi_index !1712
  %11 = call nonnull align 1 dereferenceable(1) %"struct.std::less"* @_ZNSt8_Rb_treeIiiSt9_IdentityIiESt4lessIiESaIiEE21_M_get_Node_allocatorEv(%"class.std::_Rb_tree"* nonnull align 8 dereferenceable(48) %7) #2, !llfi_index !1713
  %12 = load %"struct.std::_Rb_tree_node"*, %"struct.std::_Rb_tree_node"** %5, align 8, !llfi_index !1714
  %13 = call i32* @_ZNSt13_Rb_tree_nodeIiE9_M_valptrEv(%"struct.std::_Rb_tree_node"* nonnull align 8 dereferenceable(36) %12), !llfi_index !1715
  %14 = load i32*, i32** %6, align 8, !llfi_index !1716
  %15 = call nonnull align 4 dereferenceable(4) i32* @_ZSt7forwardIRKiEOT_RNSt16remove_referenceIS2_E4typeE(i32* nonnull align 4 dereferenceable(4) %14) #2, !llfi_index !1717
  call void @_ZNSt16allocator_traitsISaISt13_Rb_tree_nodeIiEEE9constructIiJRKiEEEvRS2_PT_DpOT0_(%"struct.std::less"* nonnull align 1 dereferenceable(1) %11, i32* %13, i32* nonnull align 4 dereferenceable(4) %15) #2, !llfi_index !1718
  ret void, !llfi_index !1719
}

; Function Attrs: mustprogress noinline nounwind uwtable
define linkonce_odr dso_local void @_ZNSt16allocator_traitsISaISt13_Rb_tree_nodeIiEEE9constructIiJRKiEEEvRS2_PT_DpOT0_(%"struct.std::less"* nonnull align 1 dereferenceable(1) %0, i32* %1, i32* nonnull align 4 dereferenceable(4) %2) #3 comdat align 2 {
  %4 = alloca %"struct.std::less"*, align 8, !llfi_index !1720
  %5 = alloca i32*, align 8, !llfi_index !1721
  %6 = alloca i32*, align 8, !llfi_index !1722
  store %"struct.std::less"* %0, %"struct.std::less"** %4, align 8, !llfi_index !1723
  store i32* %1, i32** %5, align 8, !llfi_index !1724
  store i32* %2, i32** %6, align 8, !llfi_index !1725
  %7 = load %"struct.std::less"*, %"struct.std::less"** %4, align 8, !llfi_index !1726
  %8 = bitcast %"struct.std::less"* %7 to %"struct.std::less"*, !llfi_index !1727
  %9 = load i32*, i32** %5, align 8, !llfi_index !1728
  %10 = load i32*, i32** %6, align 8, !llfi_index !1729
  %11 = call nonnull align 4 dereferenceable(4) i32* @_ZSt7forwardIRKiEOT_RNSt16remove_referenceIS2_E4typeE(i32* nonnull align 4 dereferenceable(4) %10) #2, !llfi_index !1730
  call void @_ZN9__gnu_cxx13new_allocatorISt13_Rb_tree_nodeIiEE9constructIiJRKiEEEvPT_DpOT0_(%"struct.std::less"* nonnull align 1 dereferenceable(1) %8, i32* %9, i32* nonnull align 4 dereferenceable(4) %11) #2, !llfi_index !1731
  ret void, !llfi_index !1732
}

; Function Attrs: mustprogress noinline nounwind uwtable
define linkonce_odr dso_local void @_ZN9__gnu_cxx13new_allocatorISt13_Rb_tree_nodeIiEE9constructIiJRKiEEEvPT_DpOT0_(%"struct.std::less"* nonnull align 1 dereferenceable(1) %0, i32* %1, i32* nonnull align 4 dereferenceable(4) %2) #3 comdat align 2 {
  %4 = alloca %"struct.std::less"*, align 8, !llfi_index !1733
  %5 = alloca i32*, align 8, !llfi_index !1734
  %6 = alloca i32*, align 8, !llfi_index !1735
  store %"struct.std::less"* %0, %"struct.std::less"** %4, align 8, !llfi_index !1736
  store i32* %1, i32** %5, align 8, !llfi_index !1737
  store i32* %2, i32** %6, align 8, !llfi_index !1738
  %7 = load %"struct.std::less"*, %"struct.std::less"** %4, align 8, !llfi_index !1739
  %8 = load i32*, i32** %5, align 8, !llfi_index !1740
  %9 = bitcast i32* %8 to i8*, !llfi_index !1741
  %10 = bitcast i8* %9 to i32*, !llfi_index !1742
  %11 = load i32*, i32** %6, align 8, !llfi_index !1743
  %12 = call nonnull align 4 dereferenceable(4) i32* @_ZSt7forwardIRKiEOT_RNSt16remove_referenceIS2_E4typeE(i32* nonnull align 4 dereferenceable(4) %11) #2, !llfi_index !1744
  %13 = load i32, i32* %12, align 4, !llfi_index !1745
  store i32 %13, i32* %10, align 4, !llfi_index !1746
  ret void, !llfi_index !1747
}

; Function Attrs: mustprogress noinline uwtable
define linkonce_odr dso_local %"struct.std::_Rb_tree_node"* @_ZNSt16allocator_traitsISaISt13_Rb_tree_nodeIiEEE8allocateERS2_m(%"struct.std::less"* nonnull align 1 dereferenceable(1) %0, i64 %1) #4 comdat align 2 {
  %3 = alloca %"struct.std::less"*, align 8, !llfi_index !1748
  %4 = alloca i64, align 8, !llfi_index !1749
  store %"struct.std::less"* %0, %"struct.std::less"** %3, align 8, !llfi_index !1750
  store i64 %1, i64* %4, align 8, !llfi_index !1751
  %5 = load %"struct.std::less"*, %"struct.std::less"** %3, align 8, !llfi_index !1752
  %6 = bitcast %"struct.std::less"* %5 to %"struct.std::less"*, !llfi_index !1753
  %7 = load i64, i64* %4, align 8, !llfi_index !1754
  %8 = call %"struct.std::_Rb_tree_node"* @_ZN9__gnu_cxx13new_allocatorISt13_Rb_tree_nodeIiEE8allocateEmPKv(%"struct.std::less"* nonnull align 1 dereferenceable(1) %6, i64 %7, i8* null), !llfi_index !1755
  ret %"struct.std::_Rb_tree_node"* %8, !llfi_index !1756
}

; Function Attrs: mustprogress noinline uwtable
define linkonce_odr dso_local %"struct.std::_Rb_tree_node"* @_ZN9__gnu_cxx13new_allocatorISt13_Rb_tree_nodeIiEE8allocateEmPKv(%"struct.std::less"* nonnull align 1 dereferenceable(1) %0, i64 %1, i8* %2) #4 comdat align 2 {
  %4 = alloca %"struct.std::less"*, align 8, !llfi_index !1757
  %5 = alloca i64, align 8, !llfi_index !1758
  %6 = alloca i8*, align 8, !llfi_index !1759
  store %"struct.std::less"* %0, %"struct.std::less"** %4, align 8, !llfi_index !1760
  store i64 %1, i64* %5, align 8, !llfi_index !1761
  store i8* %2, i8** %6, align 8, !llfi_index !1762
  %7 = load %"struct.std::less"*, %"struct.std::less"** %4, align 8, !llfi_index !1763
  %8 = load i64, i64* %5, align 8, !llfi_index !1764
  %9 = call i64 @_ZNK9__gnu_cxx13new_allocatorISt13_Rb_tree_nodeIiEE8max_sizeEv(%"struct.std::less"* nonnull align 1 dereferenceable(1) %7) #2, !llfi_index !1765
  %10 = icmp ugt i64 %8, %9, !llfi_index !1766
  br i1 %10, label %11, label %12, !llfi_index !1767

11:                                               ; preds = %3
  call void @_ZSt17__throw_bad_allocv() #19, !llfi_index !1768
  unreachable, !llfi_index !1769

12:                                               ; preds = %3
  %13 = load i64, i64* %5, align 8, !llfi_index !1770
  %14 = mul i64 %13, 40, !llfi_index !1771
  %15 = call noalias nonnull i8* @_Znwm(i64 %14) #20, !llfi_index !1772
  %16 = bitcast i8* %15 to %"struct.std::_Rb_tree_node"*, !llfi_index !1773
  ret %"struct.std::_Rb_tree_node"* %16, !llfi_index !1774
}

; Function Attrs: mustprogress noinline nounwind uwtable
define linkonce_odr dso_local i64 @_ZNK9__gnu_cxx13new_allocatorISt13_Rb_tree_nodeIiEE8max_sizeEv(%"struct.std::less"* nonnull align 1 dereferenceable(1) %0) #3 comdat align 2 {
  %2 = alloca %"struct.std::less"*, align 8, !llfi_index !1775
  store %"struct.std::less"* %0, %"struct.std::less"** %2, align 8, !llfi_index !1776
  %3 = load %"struct.std::less"*, %"struct.std::less"** %2, align 8, !llfi_index !1777
  ret i64 230584300921369395, !llfi_index !1778
}

; Function Attrs: noreturn
declare dso_local void @_ZSt17__throw_bad_allocv() #12

; Function Attrs: nobuiltin allocsize(0)
declare dso_local nonnull i8* @_Znwm(i64) #13

; Function Attrs: mustprogress noinline uwtable
define linkonce_odr dso_local nonnull align 4 dereferenceable(4) i32* @_ZNSt8_Rb_treeIiiSt9_IdentityIiESt4lessIiESaIiEE6_S_keyEPKSt13_Rb_tree_nodeIiE(%"struct.std::_Rb_tree_node"* %0) #4 comdat align 2 {
  %2 = alloca %"struct.std::_Rb_tree_node"*, align 8, !llfi_index !1779
  %3 = alloca %"struct.std::less", align 1, !llfi_index !1780
  store %"struct.std::_Rb_tree_node"* %0, %"struct.std::_Rb_tree_node"** %2, align 8, !llfi_index !1781
  %4 = load %"struct.std::_Rb_tree_node"*, %"struct.std::_Rb_tree_node"** %2, align 8, !llfi_index !1782
  %5 = call i32* @_ZNKSt13_Rb_tree_nodeIiE9_M_valptrEv(%"struct.std::_Rb_tree_node"* nonnull align 8 dereferenceable(36) %4), !llfi_index !1783
  %6 = call nonnull align 4 dereferenceable(4) i32* @_ZNKSt9_IdentityIiEclERKi(%"struct.std::less"* nonnull align 1 dereferenceable(1) %3, i32* nonnull align 4 dereferenceable(4) %5), !llfi_index !1784
  ret i32* %6, !llfi_index !1785
}

; Function Attrs: mustprogress noinline nounwind uwtable
define linkonce_odr dso_local i32* @_ZNKSt13_Rb_tree_nodeIiE9_M_valptrEv(%"struct.std::_Rb_tree_node"* nonnull align 8 dereferenceable(36) %0) #3 comdat align 2 {
  %2 = alloca %"struct.std::_Rb_tree_node"*, align 8, !llfi_index !1786
  store %"struct.std::_Rb_tree_node"* %0, %"struct.std::_Rb_tree_node"** %2, align 8, !llfi_index !1787
  %3 = load %"struct.std::_Rb_tree_node"*, %"struct.std::_Rb_tree_node"** %2, align 8, !llfi_index !1788
  %4 = getelementptr inbounds %"struct.std::_Rb_tree_node", %"struct.std::_Rb_tree_node"* %3, i32 0, i32 1, !llfi_index !1789
  %5 = call i32* @_ZNK9__gnu_cxx16__aligned_membufIiE6_M_ptrEv(%"struct.__gnu_cxx::__aligned_membuf"* nonnull align 4 dereferenceable(4) %4) #2, !llfi_index !1790
  ret i32* %5, !llfi_index !1791
}

; Function Attrs: mustprogress noinline nounwind uwtable
define linkonce_odr dso_local i32* @_ZNK9__gnu_cxx16__aligned_membufIiE6_M_ptrEv(%"struct.__gnu_cxx::__aligned_membuf"* nonnull align 4 dereferenceable(4) %0) #3 comdat align 2 {
  %2 = alloca %"struct.__gnu_cxx::__aligned_membuf"*, align 8, !llfi_index !1792
  store %"struct.__gnu_cxx::__aligned_membuf"* %0, %"struct.__gnu_cxx::__aligned_membuf"** %2, align 8, !llfi_index !1793
  %3 = load %"struct.__gnu_cxx::__aligned_membuf"*, %"struct.__gnu_cxx::__aligned_membuf"** %2, align 8, !llfi_index !1794
  %4 = call i8* @_ZNK9__gnu_cxx16__aligned_membufIiE7_M_addrEv(%"struct.__gnu_cxx::__aligned_membuf"* nonnull align 4 dereferenceable(4) %3) #2, !llfi_index !1795
  %5 = bitcast i8* %4 to i32*, !llfi_index !1796
  ret i32* %5, !llfi_index !1797
}

; Function Attrs: mustprogress noinline nounwind uwtable
define linkonce_odr dso_local i8* @_ZNK9__gnu_cxx16__aligned_membufIiE7_M_addrEv(%"struct.__gnu_cxx::__aligned_membuf"* nonnull align 4 dereferenceable(4) %0) #3 comdat align 2 {
  %2 = alloca %"struct.__gnu_cxx::__aligned_membuf"*, align 8, !llfi_index !1798
  store %"struct.__gnu_cxx::__aligned_membuf"* %0, %"struct.__gnu_cxx::__aligned_membuf"** %2, align 8, !llfi_index !1799
  %3 = load %"struct.__gnu_cxx::__aligned_membuf"*, %"struct.__gnu_cxx::__aligned_membuf"** %2, align 8, !llfi_index !1800
  %4 = getelementptr inbounds %"struct.__gnu_cxx::__aligned_membuf", %"struct.__gnu_cxx::__aligned_membuf"* %3, i32 0, i32 0, !llfi_index !1801
  %5 = bitcast [4 x i8]* %4 to i8*, !llfi_index !1802
  ret i8* %5, !llfi_index !1803
}

; Function Attrs: mustprogress noinline nounwind uwtable
define linkonce_odr dso_local %"struct.std::_Rb_tree_node_base"* @_ZNSt8_Rb_treeIiiSt9_IdentityIiESt4lessIiESaIiEE5beginEv(%"class.std::_Rb_tree"* nonnull align 8 dereferenceable(48) %0) #3 comdat align 2 {
  %2 = alloca %"struct.std::_Rb_tree_const_iterator", align 8, !llfi_index !1804
  %3 = alloca %"class.std::_Rb_tree"*, align 8, !llfi_index !1805
  store %"class.std::_Rb_tree"* %0, %"class.std::_Rb_tree"** %3, align 8, !llfi_index !1806
  %4 = load %"class.std::_Rb_tree"*, %"class.std::_Rb_tree"** %3, align 8, !llfi_index !1807
  %5 = getelementptr inbounds %"class.std::_Rb_tree", %"class.std::_Rb_tree"* %4, i32 0, i32 0, !llfi_index !1808
  %6 = bitcast %"struct.std::_Rb_tree<int, int, std::_Identity<int>, std::less<int>>::_Rb_tree_impl"* %5 to i8*, !llfi_index !1809
  %7 = getelementptr inbounds i8, i8* %6, i64 8, !llfi_index !1810
  %8 = bitcast i8* %7 to %"struct.std::_Rb_tree_header"*, !llfi_index !1811
  %9 = getelementptr inbounds %"struct.std::_Rb_tree_header", %"struct.std::_Rb_tree_header"* %8, i32 0, i32 0, !llfi_index !1812
  %10 = getelementptr inbounds %"struct.std::_Rb_tree_node_base", %"struct.std::_Rb_tree_node_base"* %9, i32 0, i32 2, !llfi_index !1813
  %11 = load %"struct.std::_Rb_tree_node_base"*, %"struct.std::_Rb_tree_node_base"** %10, align 8, !llfi_index !1814
  call void @_ZNSt17_Rb_tree_iteratorIiEC2EPSt18_Rb_tree_node_base(%"struct.std::_Rb_tree_const_iterator"* nonnull align 8 dereferenceable(8) %2, %"struct.std::_Rb_tree_node_base"* %11) #2, !llfi_index !1815
  %12 = getelementptr inbounds %"struct.std::_Rb_tree_const_iterator", %"struct.std::_Rb_tree_const_iterator"* %2, i32 0, i32 0, !llfi_index !1816
  %13 = load %"struct.std::_Rb_tree_node_base"*, %"struct.std::_Rb_tree_node_base"** %12, align 8, !llfi_index !1817
  ret %"struct.std::_Rb_tree_node_base"* %13, !llfi_index !1818
}

; Function Attrs: mustprogress noinline nounwind uwtable
define linkonce_odr dso_local zeroext i1 @_ZSteqRKSt17_Rb_tree_iteratorIiES2_(%"struct.std::_Rb_tree_const_iterator"* nonnull align 8 dereferenceable(8) %0, %"struct.std::_Rb_tree_const_iterator"* nonnull align 8 dereferenceable(8) %1) #3 comdat {
  %3 = alloca %"struct.std::_Rb_tree_const_iterator"*, align 8, !llfi_index !1819
  %4 = alloca %"struct.std::_Rb_tree_const_iterator"*, align 8, !llfi_index !1820
  store %"struct.std::_Rb_tree_const_iterator"* %0, %"struct.std::_Rb_tree_const_iterator"** %3, align 8, !llfi_index !1821
  store %"struct.std::_Rb_tree_const_iterator"* %1, %"struct.std::_Rb_tree_const_iterator"** %4, align 8, !llfi_index !1822
  %5 = load %"struct.std::_Rb_tree_const_iterator"*, %"struct.std::_Rb_tree_const_iterator"** %3, align 8, !llfi_index !1823
  %6 = getelementptr inbounds %"struct.std::_Rb_tree_const_iterator", %"struct.std::_Rb_tree_const_iterator"* %5, i32 0, i32 0, !llfi_index !1824
  %7 = load %"struct.std::_Rb_tree_node_base"*, %"struct.std::_Rb_tree_node_base"** %6, align 8, !llfi_index !1825
  %8 = load %"struct.std::_Rb_tree_const_iterator"*, %"struct.std::_Rb_tree_const_iterator"** %4, align 8, !llfi_index !1826
  %9 = getelementptr inbounds %"struct.std::_Rb_tree_const_iterator", %"struct.std::_Rb_tree_const_iterator"* %8, i32 0, i32 0, !llfi_index !1827
  %10 = load %"struct.std::_Rb_tree_node_base"*, %"struct.std::_Rb_tree_node_base"** %9, align 8, !llfi_index !1828
  %11 = icmp eq %"struct.std::_Rb_tree_node_base"* %7, %10, !llfi_index !1829
  ret i1 %11, !llfi_index !1830
}

; Function Attrs: noinline nounwind uwtable
define linkonce_odr dso_local void @_ZNSt4pairIPSt18_Rb_tree_node_baseS1_EC2IRPSt13_Rb_tree_nodeIiERS1_Lb1EEEOT_OT0_(%"struct.std::pair.11"* nonnull align 8 dereferenceable(16) %0, %"struct.std::_Rb_tree_node"** nonnull align 8 dereferenceable(8) %1, %"struct.std::_Rb_tree_node_base"** nonnull align 8 dereferenceable(8) %2) unnamed_addr #1 comdat align 2 {
  %4 = alloca %"struct.std::pair.11"*, align 8, !llfi_index !1831
  %5 = alloca %"struct.std::_Rb_tree_node"**, align 8, !llfi_index !1832
  %6 = alloca %"struct.std::_Rb_tree_node_base"**, align 8, !llfi_index !1833
  store %"struct.std::pair.11"* %0, %"struct.std::pair.11"** %4, align 8, !llfi_index !1834
  store %"struct.std::_Rb_tree_node"** %1, %"struct.std::_Rb_tree_node"*** %5, align 8, !llfi_index !1835
  store %"struct.std::_Rb_tree_node_base"** %2, %"struct.std::_Rb_tree_node_base"*** %6, align 8, !llfi_index !1836
  %7 = load %"struct.std::pair.11"*, %"struct.std::pair.11"** %4, align 8, !llfi_index !1837
  %8 = bitcast %"struct.std::pair.11"* %7 to %"struct.std::less"*, !llfi_index !1838
  %9 = getelementptr inbounds %"struct.std::pair.11", %"struct.std::pair.11"* %7, i32 0, i32 0, !llfi_index !1839
  %10 = load %"struct.std::_Rb_tree_node"**, %"struct.std::_Rb_tree_node"*** %5, align 8, !llfi_index !1840
  %11 = call nonnull align 8 dereferenceable(8) %"struct.std::_Rb_tree_node"** @_ZSt7forwardIRPSt13_Rb_tree_nodeIiEEOT_RNSt16remove_referenceIS4_E4typeE(%"struct.std::_Rb_tree_node"** nonnull align 8 dereferenceable(8) %10) #2, !llfi_index !1841
  %12 = load %"struct.std::_Rb_tree_node"*, %"struct.std::_Rb_tree_node"** %11, align 8, !llfi_index !1842
  %13 = bitcast %"struct.std::_Rb_tree_node"* %12 to %"struct.std::_Rb_tree_node_base"*, !llfi_index !1843
  store %"struct.std::_Rb_tree_node_base"* %13, %"struct.std::_Rb_tree_node_base"** %9, align 8, !llfi_index !1844
  %14 = getelementptr inbounds %"struct.std::pair.11", %"struct.std::pair.11"* %7, i32 0, i32 1, !llfi_index !1845
  %15 = load %"struct.std::_Rb_tree_node_base"**, %"struct.std::_Rb_tree_node_base"*** %6, align 8, !llfi_index !1846
  %16 = call nonnull align 8 dereferenceable(8) %"struct.std::_Rb_tree_node_base"** @_ZSt7forwardIRPSt18_Rb_tree_node_baseEOT_RNSt16remove_referenceIS3_E4typeE(%"struct.std::_Rb_tree_node_base"** nonnull align 8 dereferenceable(8) %15) #2, !llfi_index !1847
  %17 = load %"struct.std::_Rb_tree_node_base"*, %"struct.std::_Rb_tree_node_base"** %16, align 8, !llfi_index !1848
  store %"struct.std::_Rb_tree_node_base"* %17, %"struct.std::_Rb_tree_node_base"** %14, align 8, !llfi_index !1849
  ret void, !llfi_index !1850
}

; Function Attrs: mustprogress noinline nounwind uwtable
define linkonce_odr dso_local nonnull align 8 dereferenceable(8) %"struct.std::_Rb_tree_const_iterator"* @_ZNSt17_Rb_tree_iteratorIiEmmEv(%"struct.std::_Rb_tree_const_iterator"* nonnull align 8 dereferenceable(8) %0) #3 comdat align 2 {
  %2 = alloca %"struct.std::_Rb_tree_const_iterator"*, align 8, !llfi_index !1851
  store %"struct.std::_Rb_tree_const_iterator"* %0, %"struct.std::_Rb_tree_const_iterator"** %2, align 8, !llfi_index !1852
  %3 = load %"struct.std::_Rb_tree_const_iterator"*, %"struct.std::_Rb_tree_const_iterator"** %2, align 8, !llfi_index !1853
  %4 = getelementptr inbounds %"struct.std::_Rb_tree_const_iterator", %"struct.std::_Rb_tree_const_iterator"* %3, i32 0, i32 0, !llfi_index !1854
  %5 = load %"struct.std::_Rb_tree_node_base"*, %"struct.std::_Rb_tree_node_base"** %4, align 8, !llfi_index !1855
  %6 = call %"struct.std::_Rb_tree_node_base"* @_ZSt18_Rb_tree_decrementPSt18_Rb_tree_node_base(%"struct.std::_Rb_tree_node_base"* %5) #18, !llfi_index !1856
  %7 = getelementptr inbounds %"struct.std::_Rb_tree_const_iterator", %"struct.std::_Rb_tree_const_iterator"* %3, i32 0, i32 0, !llfi_index !1857
  store %"struct.std::_Rb_tree_node_base"* %6, %"struct.std::_Rb_tree_node_base"** %7, align 8, !llfi_index !1858
  ret %"struct.std::_Rb_tree_const_iterator"* %3, !llfi_index !1859
}

; Function Attrs: noinline nounwind uwtable
define linkonce_odr dso_local void @_ZNSt4pairIPSt18_Rb_tree_node_baseS1_EC2IRS1_Lb1EEEOT_RKS1_(%"struct.std::pair.11"* nonnull align 8 dereferenceable(16) %0, %"struct.std::_Rb_tree_node_base"** nonnull align 8 dereferenceable(8) %1, %"struct.std::_Rb_tree_node_base"** nonnull align 8 dereferenceable(8) %2) unnamed_addr #1 comdat align 2 {
  %4 = alloca %"struct.std::pair.11"*, align 8, !llfi_index !1860
  %5 = alloca %"struct.std::_Rb_tree_node_base"**, align 8, !llfi_index !1861
  %6 = alloca %"struct.std::_Rb_tree_node_base"**, align 8, !llfi_index !1862
  store %"struct.std::pair.11"* %0, %"struct.std::pair.11"** %4, align 8, !llfi_index !1863
  store %"struct.std::_Rb_tree_node_base"** %1, %"struct.std::_Rb_tree_node_base"*** %5, align 8, !llfi_index !1864
  store %"struct.std::_Rb_tree_node_base"** %2, %"struct.std::_Rb_tree_node_base"*** %6, align 8, !llfi_index !1865
  %7 = load %"struct.std::pair.11"*, %"struct.std::pair.11"** %4, align 8, !llfi_index !1866
  %8 = bitcast %"struct.std::pair.11"* %7 to %"struct.std::less"*, !llfi_index !1867
  %9 = getelementptr inbounds %"struct.std::pair.11", %"struct.std::pair.11"* %7, i32 0, i32 0, !llfi_index !1868
  %10 = load %"struct.std::_Rb_tree_node_base"**, %"struct.std::_Rb_tree_node_base"*** %5, align 8, !llfi_index !1869
  %11 = call nonnull align 8 dereferenceable(8) %"struct.std::_Rb_tree_node_base"** @_ZSt7forwardIRPSt18_Rb_tree_node_baseEOT_RNSt16remove_referenceIS3_E4typeE(%"struct.std::_Rb_tree_node_base"** nonnull align 8 dereferenceable(8) %10) #2, !llfi_index !1870
  %12 = load %"struct.std::_Rb_tree_node_base"*, %"struct.std::_Rb_tree_node_base"** %11, align 8, !llfi_index !1871
  store %"struct.std::_Rb_tree_node_base"* %12, %"struct.std::_Rb_tree_node_base"** %9, align 8, !llfi_index !1872
  %13 = getelementptr inbounds %"struct.std::pair.11", %"struct.std::pair.11"* %7, i32 0, i32 1, !llfi_index !1873
  %14 = load %"struct.std::_Rb_tree_node_base"**, %"struct.std::_Rb_tree_node_base"*** %6, align 8, !llfi_index !1874
  %15 = load %"struct.std::_Rb_tree_node_base"*, %"struct.std::_Rb_tree_node_base"** %14, align 8, !llfi_index !1875
  store %"struct.std::_Rb_tree_node_base"* %15, %"struct.std::_Rb_tree_node_base"** %13, align 8, !llfi_index !1876
  ret void, !llfi_index !1877
}

; Function Attrs: mustprogress noinline nounwind uwtable
define linkonce_odr dso_local nonnull align 8 dereferenceable(8) %"struct.std::_Rb_tree_node_base"** @_ZSt7forwardIRPSt18_Rb_tree_node_baseEOT_RNSt16remove_referenceIS3_E4typeE(%"struct.std::_Rb_tree_node_base"** nonnull align 8 dereferenceable(8) %0) #3 comdat {
  %2 = alloca %"struct.std::_Rb_tree_node_base"**, align 8, !llfi_index !1878
  store %"struct.std::_Rb_tree_node_base"** %0, %"struct.std::_Rb_tree_node_base"*** %2, align 8, !llfi_index !1879
  %3 = load %"struct.std::_Rb_tree_node_base"**, %"struct.std::_Rb_tree_node_base"*** %2, align 8, !llfi_index !1880
  ret %"struct.std::_Rb_tree_node_base"** %3, !llfi_index !1881
}

; Function Attrs: nounwind readonly willreturn
declare dso_local %"struct.std::_Rb_tree_node_base"* @_ZSt18_Rb_tree_decrementPSt18_Rb_tree_node_base(%"struct.std::_Rb_tree_node_base"*) #14

; Function Attrs: mustprogress noinline nounwind uwtable
define linkonce_odr dso_local nonnull align 8 dereferenceable(8) %"struct.std::_Rb_tree_node"** @_ZSt7forwardIRPSt13_Rb_tree_nodeIiEEOT_RNSt16remove_referenceIS4_E4typeE(%"struct.std::_Rb_tree_node"** nonnull align 8 dereferenceable(8) %0) #3 comdat {
  %2 = alloca %"struct.std::_Rb_tree_node"**, align 8, !llfi_index !1882
  store %"struct.std::_Rb_tree_node"** %0, %"struct.std::_Rb_tree_node"*** %2, align 8, !llfi_index !1883
  %3 = load %"struct.std::_Rb_tree_node"**, %"struct.std::_Rb_tree_node"*** %2, align 8, !llfi_index !1884
  ret %"struct.std::_Rb_tree_node"** %3, !llfi_index !1885
}

; Function Attrs: nounwind readonly willreturn
declare dso_local %"struct.std::_Rb_tree_node_base"* @_ZSt18_Rb_tree_decrementPKSt18_Rb_tree_node_base(%"struct.std::_Rb_tree_node_base"*) #14

; Function Attrs: mustprogress noinline nounwind uwtable
define linkonce_odr dso_local %"struct.std::_Rb_tree_node_base"* @_ZNKSt8_Rb_treeIiiSt9_IdentityIiESt4lessIiESaIiEE5beginEv(%"class.std::_Rb_tree"* nonnull align 8 dereferenceable(48) %0) #3 comdat align 2 {
  %2 = alloca %"struct.std::_Rb_tree_const_iterator", align 8, !llfi_index !1886
  %3 = alloca %"class.std::_Rb_tree"*, align 8, !llfi_index !1887
  store %"class.std::_Rb_tree"* %0, %"class.std::_Rb_tree"** %3, align 8, !llfi_index !1888
  %4 = load %"class.std::_Rb_tree"*, %"class.std::_Rb_tree"** %3, align 8, !llfi_index !1889
  %5 = getelementptr inbounds %"class.std::_Rb_tree", %"class.std::_Rb_tree"* %4, i32 0, i32 0, !llfi_index !1890
  %6 = bitcast %"struct.std::_Rb_tree<int, int, std::_Identity<int>, std::less<int>>::_Rb_tree_impl"* %5 to i8*, !llfi_index !1891
  %7 = getelementptr inbounds i8, i8* %6, i64 8, !llfi_index !1892
  %8 = bitcast i8* %7 to %"struct.std::_Rb_tree_header"*, !llfi_index !1893
  %9 = getelementptr inbounds %"struct.std::_Rb_tree_header", %"struct.std::_Rb_tree_header"* %8, i32 0, i32 0, !llfi_index !1894
  %10 = getelementptr inbounds %"struct.std::_Rb_tree_node_base", %"struct.std::_Rb_tree_node_base"* %9, i32 0, i32 2, !llfi_index !1895
  %11 = load %"struct.std::_Rb_tree_node_base"*, %"struct.std::_Rb_tree_node_base"** %10, align 8, !llfi_index !1896
  call void @_ZNSt23_Rb_tree_const_iteratorIiEC2EPKSt18_Rb_tree_node_base(%"struct.std::_Rb_tree_const_iterator"* nonnull align 8 dereferenceable(8) %2, %"struct.std::_Rb_tree_node_base"* %11) #2, !llfi_index !1897
  %12 = getelementptr inbounds %"struct.std::_Rb_tree_const_iterator", %"struct.std::_Rb_tree_const_iterator"* %2, i32 0, i32 0, !llfi_index !1898
  %13 = load %"struct.std::_Rb_tree_node_base"*, %"struct.std::_Rb_tree_node_base"** %12, align 8, !llfi_index !1899
  ret %"struct.std::_Rb_tree_node_base"* %13, !llfi_index !1900
}

; Function Attrs: noinline nounwind uwtable
define linkonce_odr dso_local void @_ZNSt23_Rb_tree_const_iteratorIiEC2EPKSt18_Rb_tree_node_base(%"struct.std::_Rb_tree_const_iterator"* nonnull align 8 dereferenceable(8) %0, %"struct.std::_Rb_tree_node_base"* %1) unnamed_addr #1 comdat align 2 {
  %3 = alloca %"struct.std::_Rb_tree_const_iterator"*, align 8, !llfi_index !1901
  %4 = alloca %"struct.std::_Rb_tree_node_base"*, align 8, !llfi_index !1902
  store %"struct.std::_Rb_tree_const_iterator"* %0, %"struct.std::_Rb_tree_const_iterator"** %3, align 8, !llfi_index !1903
  store %"struct.std::_Rb_tree_node_base"* %1, %"struct.std::_Rb_tree_node_base"** %4, align 8, !llfi_index !1904
  %5 = load %"struct.std::_Rb_tree_const_iterator"*, %"struct.std::_Rb_tree_const_iterator"** %3, align 8, !llfi_index !1905
  %6 = getelementptr inbounds %"struct.std::_Rb_tree_const_iterator", %"struct.std::_Rb_tree_const_iterator"* %5, i32 0, i32 0, !llfi_index !1906
  %7 = load %"struct.std::_Rb_tree_node_base"*, %"struct.std::_Rb_tree_node_base"** %4, align 8, !llfi_index !1907
  store %"struct.std::_Rb_tree_node_base"* %7, %"struct.std::_Rb_tree_node_base"** %6, align 8, !llfi_index !1908
  ret void, !llfi_index !1909
}

; Function Attrs: mustprogress noinline nounwind uwtable
define linkonce_odr dso_local %"struct.std::_Rb_tree_node_base"* @_ZNKSt8_Rb_treeIiiSt9_IdentityIiESt4lessIiESaIiEE3endEv(%"class.std::_Rb_tree"* nonnull align 8 dereferenceable(48) %0) #3 comdat align 2 {
  %2 = alloca %"struct.std::_Rb_tree_const_iterator", align 8, !llfi_index !1910
  %3 = alloca %"class.std::_Rb_tree"*, align 8, !llfi_index !1911
  store %"class.std::_Rb_tree"* %0, %"class.std::_Rb_tree"** %3, align 8, !llfi_index !1912
  %4 = load %"class.std::_Rb_tree"*, %"class.std::_Rb_tree"** %3, align 8, !llfi_index !1913
  %5 = getelementptr inbounds %"class.std::_Rb_tree", %"class.std::_Rb_tree"* %4, i32 0, i32 0, !llfi_index !1914
  %6 = bitcast %"struct.std::_Rb_tree<int, int, std::_Identity<int>, std::less<int>>::_Rb_tree_impl"* %5 to i8*, !llfi_index !1915
  %7 = getelementptr inbounds i8, i8* %6, i64 8, !llfi_index !1916
  %8 = bitcast i8* %7 to %"struct.std::_Rb_tree_header"*, !llfi_index !1917
  %9 = getelementptr inbounds %"struct.std::_Rb_tree_header", %"struct.std::_Rb_tree_header"* %8, i32 0, i32 0, !llfi_index !1918
  call void @_ZNSt23_Rb_tree_const_iteratorIiEC2EPKSt18_Rb_tree_node_base(%"struct.std::_Rb_tree_const_iterator"* nonnull align 8 dereferenceable(8) %2, %"struct.std::_Rb_tree_node_base"* %9) #2, !llfi_index !1919
  %10 = getelementptr inbounds %"struct.std::_Rb_tree_const_iterator", %"struct.std::_Rb_tree_const_iterator"* %2, i32 0, i32 0, !llfi_index !1920
  %11 = load %"struct.std::_Rb_tree_node_base"*, %"struct.std::_Rb_tree_node_base"** %10, align 8, !llfi_index !1921
  ret %"struct.std::_Rb_tree_node_base"* %11, !llfi_index !1922
}

; Function Attrs: mustprogress noinline uwtable
define linkonce_odr dso_local %"struct.std::_Rb_tree_node_base"* @_ZNSt8_Rb_treeIiiSt9_IdentityIiESt4lessIiESaIiEE11lower_boundERKi(%"class.std::_Rb_tree"* nonnull align 8 dereferenceable(48) %0, i32* nonnull align 4 dereferenceable(4) %1) #4 comdat align 2 {
  %3 = alloca %"struct.std::_Rb_tree_const_iterator", align 8, !llfi_index !1923
  %4 = alloca %"class.std::_Rb_tree"*, align 8, !llfi_index !1924
  %5 = alloca i32*, align 8, !llfi_index !1925
  store %"class.std::_Rb_tree"* %0, %"class.std::_Rb_tree"** %4, align 8, !llfi_index !1926
  store i32* %1, i32** %5, align 8, !llfi_index !1927
  %6 = load %"class.std::_Rb_tree"*, %"class.std::_Rb_tree"** %4, align 8, !llfi_index !1928
  %7 = call %"struct.std::_Rb_tree_node"* @_ZNSt8_Rb_treeIiiSt9_IdentityIiESt4lessIiESaIiEE8_M_beginEv(%"class.std::_Rb_tree"* nonnull align 8 dereferenceable(48) %6) #2, !llfi_index !1929
  %8 = call %"struct.std::_Rb_tree_node_base"* @_ZNSt8_Rb_treeIiiSt9_IdentityIiESt4lessIiESaIiEE6_M_endEv(%"class.std::_Rb_tree"* nonnull align 8 dereferenceable(48) %6) #2, !llfi_index !1930
  %9 = load i32*, i32** %5, align 8, !llfi_index !1931
  %10 = call %"struct.std::_Rb_tree_node_base"* @_ZNSt8_Rb_treeIiiSt9_IdentityIiESt4lessIiESaIiEE14_M_lower_boundEPSt13_Rb_tree_nodeIiEPSt18_Rb_tree_node_baseRKi(%"class.std::_Rb_tree"* nonnull align 8 dereferenceable(48) %6, %"struct.std::_Rb_tree_node"* %7, %"struct.std::_Rb_tree_node_base"* %8, i32* nonnull align 4 dereferenceable(4) %9), !llfi_index !1932
  %11 = getelementptr inbounds %"struct.std::_Rb_tree_const_iterator", %"struct.std::_Rb_tree_const_iterator"* %3, i32 0, i32 0, !llfi_index !1933
  store %"struct.std::_Rb_tree_node_base"* %10, %"struct.std::_Rb_tree_node_base"** %11, align 8, !llfi_index !1934
  %12 = getelementptr inbounds %"struct.std::_Rb_tree_const_iterator", %"struct.std::_Rb_tree_const_iterator"* %3, i32 0, i32 0, !llfi_index !1935
  %13 = load %"struct.std::_Rb_tree_node_base"*, %"struct.std::_Rb_tree_node_base"** %12, align 8, !llfi_index !1936
  ret %"struct.std::_Rb_tree_node_base"* %13, !llfi_index !1937
}

; Function Attrs: mustprogress noinline uwtable
define linkonce_odr dso_local %"struct.std::_Rb_tree_node_base"* @_ZNSt8_Rb_treeIiiSt9_IdentityIiESt4lessIiESaIiEE14_M_lower_boundEPSt13_Rb_tree_nodeIiEPSt18_Rb_tree_node_baseRKi(%"class.std::_Rb_tree"* nonnull align 8 dereferenceable(48) %0, %"struct.std::_Rb_tree_node"* %1, %"struct.std::_Rb_tree_node_base"* %2, i32* nonnull align 4 dereferenceable(4) %3) #4 comdat align 2 {
  %5 = alloca %"struct.std::_Rb_tree_const_iterator", align 8, !llfi_index !1938
  %6 = alloca %"class.std::_Rb_tree"*, align 8, !llfi_index !1939
  %7 = alloca %"struct.std::_Rb_tree_node"*, align 8, !llfi_index !1940
  %8 = alloca %"struct.std::_Rb_tree_node_base"*, align 8, !llfi_index !1941
  %9 = alloca i32*, align 8, !llfi_index !1942
  store %"class.std::_Rb_tree"* %0, %"class.std::_Rb_tree"** %6, align 8, !llfi_index !1943
  store %"struct.std::_Rb_tree_node"* %1, %"struct.std::_Rb_tree_node"** %7, align 8, !llfi_index !1944
  store %"struct.std::_Rb_tree_node_base"* %2, %"struct.std::_Rb_tree_node_base"** %8, align 8, !llfi_index !1945
  store i32* %3, i32** %9, align 8, !llfi_index !1946
  %10 = load %"class.std::_Rb_tree"*, %"class.std::_Rb_tree"** %6, align 8, !llfi_index !1947
  br label %11, !llfi_index !1948

11:                                               ; preds = %32, %4
  %12 = load %"struct.std::_Rb_tree_node"*, %"struct.std::_Rb_tree_node"** %7, align 8, !llfi_index !1949
  %13 = icmp ne %"struct.std::_Rb_tree_node"* %12, null, !llfi_index !1950
  br i1 %13, label %14, label %33, !llfi_index !1951

14:                                               ; preds = %11
  %15 = getelementptr inbounds %"class.std::_Rb_tree", %"class.std::_Rb_tree"* %10, i32 0, i32 0, !llfi_index !1952
  %16 = bitcast %"struct.std::_Rb_tree<int, int, std::_Identity<int>, std::less<int>>::_Rb_tree_impl"* %15 to %"struct.std::_Rb_tree_key_compare"*, !llfi_index !1953
  %17 = getelementptr inbounds %"struct.std::_Rb_tree_key_compare", %"struct.std::_Rb_tree_key_compare"* %16, i32 0, i32 0, !llfi_index !1954
  %18 = load %"struct.std::_Rb_tree_node"*, %"struct.std::_Rb_tree_node"** %7, align 8, !llfi_index !1955
  %19 = call nonnull align 4 dereferenceable(4) i32* @_ZNSt8_Rb_treeIiiSt9_IdentityIiESt4lessIiESaIiEE6_S_keyEPKSt13_Rb_tree_nodeIiE(%"struct.std::_Rb_tree_node"* %18), !llfi_index !1956
  %20 = load i32*, i32** %9, align 8, !llfi_index !1957
  %21 = call zeroext i1 @_ZNKSt4lessIiEclERKiS2_(%"struct.std::less"* nonnull align 1 dereferenceable(1) %17, i32* nonnull align 4 dereferenceable(4) %19, i32* nonnull align 4 dereferenceable(4) %20), !llfi_index !1958
  br i1 %21, label %28, label %22, !llfi_index !1959

22:                                               ; preds = %14
  %23 = load %"struct.std::_Rb_tree_node"*, %"struct.std::_Rb_tree_node"** %7, align 8, !llfi_index !1960
  %24 = bitcast %"struct.std::_Rb_tree_node"* %23 to %"struct.std::_Rb_tree_node_base"*, !llfi_index !1961
  store %"struct.std::_Rb_tree_node_base"* %24, %"struct.std::_Rb_tree_node_base"** %8, align 8, !llfi_index !1962
  %25 = load %"struct.std::_Rb_tree_node"*, %"struct.std::_Rb_tree_node"** %7, align 8, !llfi_index !1963
  %26 = bitcast %"struct.std::_Rb_tree_node"* %25 to %"struct.std::_Rb_tree_node_base"*, !llfi_index !1964
  %27 = call %"struct.std::_Rb_tree_node"* @_ZNSt8_Rb_treeIiiSt9_IdentityIiESt4lessIiESaIiEE7_S_leftEPSt18_Rb_tree_node_base(%"struct.std::_Rb_tree_node_base"* %26) #2, !llfi_index !1965
  store %"struct.std::_Rb_tree_node"* %27, %"struct.std::_Rb_tree_node"** %7, align 8, !llfi_index !1966
  br label %32, !llfi_index !1967

28:                                               ; preds = %14
  %29 = load %"struct.std::_Rb_tree_node"*, %"struct.std::_Rb_tree_node"** %7, align 8, !llfi_index !1968
  %30 = bitcast %"struct.std::_Rb_tree_node"* %29 to %"struct.std::_Rb_tree_node_base"*, !llfi_index !1969
  %31 = call %"struct.std::_Rb_tree_node"* @_ZNSt8_Rb_treeIiiSt9_IdentityIiESt4lessIiESaIiEE8_S_rightEPSt18_Rb_tree_node_base(%"struct.std::_Rb_tree_node_base"* %30) #2, !llfi_index !1970
  store %"struct.std::_Rb_tree_node"* %31, %"struct.std::_Rb_tree_node"** %7, align 8, !llfi_index !1971
  br label %32, !llfi_index !1972

32:                                               ; preds = %28, %22
  br label %11, !llvm.loop !1973, !llfi_index !1974

33:                                               ; preds = %11
  %34 = load %"struct.std::_Rb_tree_node_base"*, %"struct.std::_Rb_tree_node_base"** %8, align 8, !llfi_index !1975
  call void @_ZNSt17_Rb_tree_iteratorIiEC2EPSt18_Rb_tree_node_base(%"struct.std::_Rb_tree_const_iterator"* nonnull align 8 dereferenceable(8) %5, %"struct.std::_Rb_tree_node_base"* %34) #2, !llfi_index !1976
  %35 = getelementptr inbounds %"struct.std::_Rb_tree_const_iterator", %"struct.std::_Rb_tree_const_iterator"* %5, i32 0, i32 0, !llfi_index !1977
  %36 = load %"struct.std::_Rb_tree_node_base"*, %"struct.std::_Rb_tree_node_base"** %35, align 8, !llfi_index !1978
  ret %"struct.std::_Rb_tree_node_base"* %36, !llfi_index !1979
}

; Function Attrs: noinline nounwind uwtable
define linkonce_odr dso_local void @_ZNSt16reverse_iteratorIN9__gnu_cxx17__normal_iteratorIPSt4pairIiiESt6vectorIS3_SaIS3_EEEEEC2ERKS9_(%"class.std::reverse_iterator"* nonnull align 8 dereferenceable(8) %0, %"class.std::reverse_iterator"* nonnull align 8 dereferenceable(8) %1) unnamed_addr #1 comdat align 2 {
  %3 = alloca %"class.std::reverse_iterator"*, align 8, !llfi_index !1980
  %4 = alloca %"class.std::reverse_iterator"*, align 8, !llfi_index !1981
  store %"class.std::reverse_iterator"* %0, %"class.std::reverse_iterator"** %3, align 8, !llfi_index !1982
  store %"class.std::reverse_iterator"* %1, %"class.std::reverse_iterator"** %4, align 8, !llfi_index !1983
  %5 = load %"class.std::reverse_iterator"*, %"class.std::reverse_iterator"** %3, align 8, !llfi_index !1984
  %6 = bitcast %"class.std::reverse_iterator"* %5 to %"struct.std::less"*, !llfi_index !1985
  %7 = getelementptr inbounds %"class.std::reverse_iterator", %"class.std::reverse_iterator"* %5, i32 0, i32 0, !llfi_index !1986
  %8 = load %"class.std::reverse_iterator"*, %"class.std::reverse_iterator"** %4, align 8, !llfi_index !1987
  %9 = getelementptr inbounds %"class.std::reverse_iterator", %"class.std::reverse_iterator"* %8, i32 0, i32 0, !llfi_index !1988
  %10 = bitcast %"class.__gnu_cxx::__normal_iterator"* %7 to i8*, !llfi_index !1989
  %11 = bitcast %"class.__gnu_cxx::__normal_iterator"* %9 to i8*, !llfi_index !1990
  call void @llvm.memcpy.p0i8.p0i8.i64(i8* align 8 %10, i8* align 8 %11, i64 8, i1 false), !llfi_index !1991
  ret void, !llfi_index !1992
}

; Function Attrs: mustprogress noinline nounwind uwtable
define linkonce_odr dso_local void @_ZN9__gnu_cxx5__ops16__iter_less_iterEv() #3 comdat {
  ret void, !llfi_index !1993
}

; Function Attrs: mustprogress noinline uwtable
define linkonce_odr dso_local void @_ZSt6__sortISt16reverse_iteratorIN9__gnu_cxx17__normal_iteratorIPSt4pairIiiESt6vectorIS4_SaIS4_EEEEENS1_5__ops15_Iter_less_iterEEvT_SD_T0_(%"class.std::reverse_iterator"* %0, %"class.std::reverse_iterator"* %1) #4 comdat {
  %3 = alloca %"struct.std::less", align 1, !llfi_index !1994
  %4 = alloca %"class.std::reverse_iterator", align 8, !llfi_index !1995
  %5 = alloca %"class.std::reverse_iterator", align 8, !llfi_index !1996
  %6 = alloca %"struct.std::less", align 1, !llfi_index !1997
  %7 = alloca %"class.std::reverse_iterator", align 8, !llfi_index !1998
  %8 = alloca %"class.std::reverse_iterator", align 8, !llfi_index !1999
  %9 = alloca %"struct.std::less", align 1, !llfi_index !2000
  %10 = call zeroext i1 @_ZStneIN9__gnu_cxx17__normal_iteratorIPSt4pairIiiESt6vectorIS3_SaIS3_EEEEEbRKSt16reverse_iteratorIT_ESD_(%"class.std::reverse_iterator"* nonnull align 8 dereferenceable(8) %0, %"class.std::reverse_iterator"* nonnull align 8 dereferenceable(8) %1), !llfi_index !2001
  br i1 %10, label %11, label %15, !llfi_index !2002

11:                                               ; preds = %2
  call void @_ZNSt16reverse_iteratorIN9__gnu_cxx17__normal_iteratorIPSt4pairIiiESt6vectorIS3_SaIS3_EEEEEC2ERKS9_(%"class.std::reverse_iterator"* nonnull align 8 dereferenceable(8) %4, %"class.std::reverse_iterator"* nonnull align 8 dereferenceable(8) %0), !llfi_index !2003
  call void @_ZNSt16reverse_iteratorIN9__gnu_cxx17__normal_iteratorIPSt4pairIiiESt6vectorIS3_SaIS3_EEEEEC2ERKS9_(%"class.std::reverse_iterator"* nonnull align 8 dereferenceable(8) %5, %"class.std::reverse_iterator"* nonnull align 8 dereferenceable(8) %1), !llfi_index !2004
  %12 = call i64 @_ZStmiIN9__gnu_cxx17__normal_iteratorIPSt4pairIiiESt6vectorIS3_SaIS3_EEEES8_EDTmicldtfp0_4baseEcldtfp_4baseEERKSt16reverse_iteratorIT_ERKSA_IT0_E(%"class.std::reverse_iterator"* nonnull align 8 dereferenceable(8) %1, %"class.std::reverse_iterator"* nonnull align 8 dereferenceable(8) %0), !llfi_index !2005
  %13 = call i64 @_ZSt4__lgl(i64 %12), !llfi_index !2006
  %14 = mul nsw i64 %13, 2, !llfi_index !2007
  call void @_ZSt16__introsort_loopISt16reverse_iteratorIN9__gnu_cxx17__normal_iteratorIPSt4pairIiiESt6vectorIS4_SaIS4_EEEEElNS1_5__ops15_Iter_less_iterEEvT_SD_T0_T1_(%"class.std::reverse_iterator"* %4, %"class.std::reverse_iterator"* %5, i64 %14), !llfi_index !2008
  call void @_ZNSt16reverse_iteratorIN9__gnu_cxx17__normal_iteratorIPSt4pairIiiESt6vectorIS3_SaIS3_EEEEEC2ERKS9_(%"class.std::reverse_iterator"* nonnull align 8 dereferenceable(8) %7, %"class.std::reverse_iterator"* nonnull align 8 dereferenceable(8) %0), !llfi_index !2009
  call void @_ZNSt16reverse_iteratorIN9__gnu_cxx17__normal_iteratorIPSt4pairIiiESt6vectorIS3_SaIS3_EEEEEC2ERKS9_(%"class.std::reverse_iterator"* nonnull align 8 dereferenceable(8) %8, %"class.std::reverse_iterator"* nonnull align 8 dereferenceable(8) %1), !llfi_index !2010
  call void @_ZSt22__final_insertion_sortISt16reverse_iteratorIN9__gnu_cxx17__normal_iteratorIPSt4pairIiiESt6vectorIS4_SaIS4_EEEEENS1_5__ops15_Iter_less_iterEEvT_SD_T0_(%"class.std::reverse_iterator"* %7, %"class.std::reverse_iterator"* %8), !llfi_index !2011
  br label %15, !llfi_index !2012

15:                                               ; preds = %11, %2
  ret void, !llfi_index !2013
}

; Function Attrs: mustprogress noinline uwtable
define linkonce_odr dso_local zeroext i1 @_ZStneIN9__gnu_cxx17__normal_iteratorIPSt4pairIiiESt6vectorIS3_SaIS3_EEEEEbRKSt16reverse_iteratorIT_ESD_(%"class.std::reverse_iterator"* nonnull align 8 dereferenceable(8) %0, %"class.std::reverse_iterator"* nonnull align 8 dereferenceable(8) %1) #4 comdat {
  %3 = alloca %"class.std::reverse_iterator"*, align 8, !llfi_index !2014
  %4 = alloca %"class.std::reverse_iterator"*, align 8, !llfi_index !2015
  store %"class.std::reverse_iterator"* %0, %"class.std::reverse_iterator"** %3, align 8, !llfi_index !2016
  store %"class.std::reverse_iterator"* %1, %"class.std::reverse_iterator"** %4, align 8, !llfi_index !2017
  %5 = load %"class.std::reverse_iterator"*, %"class.std::reverse_iterator"** %3, align 8, !llfi_index !2018
  %6 = load %"class.std::reverse_iterator"*, %"class.std::reverse_iterator"** %4, align 8, !llfi_index !2019
  %7 = call zeroext i1 @_ZSteqIN9__gnu_cxx17__normal_iteratorIPSt4pairIiiESt6vectorIS3_SaIS3_EEEEEbRKSt16reverse_iteratorIT_ESD_(%"class.std::reverse_iterator"* nonnull align 8 dereferenceable(8) %5, %"class.std::reverse_iterator"* nonnull align 8 dereferenceable(8) %6), !llfi_index !2020
  %8 = xor i1 %7, true, !llfi_index !2021
  ret i1 %8, !llfi_index !2022
}

; Function Attrs: mustprogress noinline nounwind uwtable
define linkonce_odr dso_local i64 @_ZStmiIN9__gnu_cxx17__normal_iteratorIPSt4pairIiiESt6vectorIS3_SaIS3_EEEES8_EDTmicldtfp0_4baseEcldtfp_4baseEERKSt16reverse_iteratorIT_ERKSA_IT0_E(%"class.std::reverse_iterator"* nonnull align 8 dereferenceable(8) %0, %"class.std::reverse_iterator"* nonnull align 8 dereferenceable(8) %1) #3 comdat {
  %3 = alloca %"class.std::reverse_iterator"*, align 8, !llfi_index !2023
  %4 = alloca %"class.std::reverse_iterator"*, align 8, !llfi_index !2024
  %5 = alloca %"class.__gnu_cxx::__normal_iterator", align 8, !llfi_index !2025
  %6 = alloca %"class.__gnu_cxx::__normal_iterator", align 8, !llfi_index !2026
  store %"class.std::reverse_iterator"* %0, %"class.std::reverse_iterator"** %3, align 8, !llfi_index !2027
  store %"class.std::reverse_iterator"* %1, %"class.std::reverse_iterator"** %4, align 8, !llfi_index !2028
  %7 = load %"class.std::reverse_iterator"*, %"class.std::reverse_iterator"** %4, align 8, !llfi_index !2029
  %8 = call %"struct.std::pair"* @_ZNKSt16reverse_iteratorIN9__gnu_cxx17__normal_iteratorIPSt4pairIiiESt6vectorIS3_SaIS3_EEEEE4baseEv(%"class.std::reverse_iterator"* nonnull align 8 dereferenceable(8) %7), !llfi_index !2030
  %9 = getelementptr inbounds %"class.__gnu_cxx::__normal_iterator", %"class.__gnu_cxx::__normal_iterator"* %5, i32 0, i32 0, !llfi_index !2031
  store %"struct.std::pair"* %8, %"struct.std::pair"** %9, align 8, !llfi_index !2032
  %10 = load %"class.std::reverse_iterator"*, %"class.std::reverse_iterator"** %3, align 8, !llfi_index !2033
  %11 = call %"struct.std::pair"* @_ZNKSt16reverse_iteratorIN9__gnu_cxx17__normal_iteratorIPSt4pairIiiESt6vectorIS3_SaIS3_EEEEE4baseEv(%"class.std::reverse_iterator"* nonnull align 8 dereferenceable(8) %10), !llfi_index !2034
  %12 = getelementptr inbounds %"class.__gnu_cxx::__normal_iterator", %"class.__gnu_cxx::__normal_iterator"* %6, i32 0, i32 0, !llfi_index !2035
  store %"struct.std::pair"* %11, %"struct.std::pair"** %12, align 8, !llfi_index !2036
  %13 = call i64 @_ZN9__gnu_cxxmiIPSt4pairIiiESt6vectorIS2_SaIS2_EEEENS_17__normal_iteratorIT_T0_E15difference_typeERKSA_SD_(%"class.__gnu_cxx::__normal_iterator"* nonnull align 8 dereferenceable(8) %5, %"class.__gnu_cxx::__normal_iterator"* nonnull align 8 dereferenceable(8) %6) #2, !llfi_index !2037
  ret i64 %13, !llfi_index !2038
}

; Function Attrs: mustprogress noinline nounwind uwtable
define linkonce_odr dso_local i64 @_ZSt4__lgl(i64 %0) #3 comdat {
  %2 = alloca i64, align 8, !llfi_index !2039
  store i64 %0, i64* %2, align 8, !llfi_index !2040
  %3 = load i64, i64* %2, align 8, !llfi_index !2041
  %4 = call i64 @llvm.ctlz.i64(i64 %3, i1 true), !llfi_index !2042
  %5 = trunc i64 %4 to i32, !llfi_index !2043
  %6 = sub nsw i32 63, %5, !llfi_index !2044
  %7 = sext i32 %6 to i64, !llfi_index !2045
  ret i64 %7, !llfi_index !2046
}

; Function Attrs: mustprogress noinline uwtable
define linkonce_odr dso_local void @_ZSt16__introsort_loopISt16reverse_iteratorIN9__gnu_cxx17__normal_iteratorIPSt4pairIiiESt6vectorIS4_SaIS4_EEEEElNS1_5__ops15_Iter_less_iterEEvT_SD_T0_T1_(%"class.std::reverse_iterator"* %0, %"class.std::reverse_iterator"* %1, i64 %2) #4 comdat {
  %4 = alloca %"struct.std::less", align 1, !llfi_index !2047
  %5 = alloca i64, align 8, !llfi_index !2048
  %6 = alloca %"class.std::reverse_iterator", align 8, !llfi_index !2049
  %7 = alloca %"class.std::reverse_iterator", align 8, !llfi_index !2050
  %8 = alloca %"class.std::reverse_iterator", align 8, !llfi_index !2051
  %9 = alloca %"struct.std::less", align 1, !llfi_index !2052
  %10 = alloca %"class.std::reverse_iterator", align 8, !llfi_index !2053
  %11 = alloca %"class.std::reverse_iterator", align 8, !llfi_index !2054
  %12 = alloca %"class.std::reverse_iterator", align 8, !llfi_index !2055
  %13 = alloca %"struct.std::less", align 1, !llfi_index !2056
  %14 = alloca %"class.std::reverse_iterator", align 8, !llfi_index !2057
  %15 = alloca %"class.std::reverse_iterator", align 8, !llfi_index !2058
  %16 = alloca %"struct.std::less", align 1, !llfi_index !2059
  store i64 %2, i64* %5, align 8, !llfi_index !2060
  br label %17, !llfi_index !2061

17:                                               ; preds = %24, %3
  %18 = call i64 @_ZStmiIN9__gnu_cxx17__normal_iteratorIPSt4pairIiiESt6vectorIS3_SaIS3_EEEES8_EDTmicldtfp0_4baseEcldtfp_4baseEERKSt16reverse_iteratorIT_ERKSA_IT0_E(%"class.std::reverse_iterator"* nonnull align 8 dereferenceable(8) %1, %"class.std::reverse_iterator"* nonnull align 8 dereferenceable(8) %0), !llfi_index !2062
  %19 = icmp sgt i64 %18, 16, !llfi_index !2063
  br i1 %19, label %20, label %30, !llfi_index !2064

20:                                               ; preds = %17
  %21 = load i64, i64* %5, align 8, !llfi_index !2065
  %22 = icmp eq i64 %21, 0, !llfi_index !2066
  br i1 %22, label %23, label %24, !llfi_index !2067

23:                                               ; preds = %20
