; ModuleID = '/home/hjiang/Computation-Kernel-Dataset/experiments/Fault_injection_0308_parall/O0/StrongPassword/StrongPassword.ll'
source_filename = "llvm-link"
target datalayout = "e-m:e-p270:32:32-p271:32:32-p272:64:64-i64:64-f80:128-n8:16:32:64-S128"
target triple = "x86_64-unknown-linux-gnu"

%"class.std::ios_base::Init" = type { i8 }
%struct._IO_FILE = type { i32, i8*, i8*, i8*, i8*, i8*, i8*, i8*, i8*, i8*, i8*, i8*, %struct._IO_marker*, %struct._IO_FILE*, i32, i32, i64, i16, i8, [1 x i8], i8*, i64, %struct._IO_codecvt*, %struct._IO_wide_data*, %struct._IO_FILE*, i8*, i64, i32, [20 x i8] }
%struct._IO_marker = type opaque
%struct._IO_codecvt = type opaque
%struct._IO_wide_data = type opaque
%"class.std::basic_istream" = type { i32 (...)**, i64, %"class.std::basic_ios" }
%"class.std::basic_ios" = type { %"class.std::ios_base", %"class.std::basic_ostream"*, i8, i8, %"class.std::basic_streambuf"*, %"class.std::ctype"*, %"class.std::num_put"*, %"class.std::num_put"* }
%"class.std::ios_base" = type { i32 (...)**, i64, i64, i32, i32, i32, %"struct.std::ios_base::_Callback_list"*, %"struct.std::ios_base::_Words", [8 x %"struct.std::ios_base::_Words"], i32, %"struct.std::ios_base::_Words"*, %"class.std::locale" }
%"struct.std::ios_base::_Callback_list" = type { %"struct.std::ios_base::_Callback_list"*, void (i32, %"class.std::ios_base"*, i32)*, i32, i32 }
%"struct.std::ios_base::_Words" = type { i8*, i64 }
%"class.std::locale" = type { %"class.std::locale::_Impl"* }
%"class.std::locale::_Impl" = type { i32, %"class.std::locale::facet"**, i64, %"class.std::locale::facet"**, i8** }
%"class.std::locale::facet" = type <{ i32 (...)**, i32, [4 x i8] }>
%"class.std::basic_ostream" = type { i32 (...)**, %"class.std::basic_ios" }
%"class.std::basic_streambuf" = type { i32 (...)**, i8*, i8*, i8*, i8*, i8*, i8*, %"class.std::locale" }
%"class.std::ctype" = type <{ %"class.std::locale::facet.base", [4 x i8], %struct.__locale_struct*, i8, [7 x i8], i32*, i32*, i16*, i8, [256 x i8], [256 x i8], i8, [6 x i8] }>
%"class.std::locale::facet.base" = type <{ i32 (...)**, i32 }>
%struct.__locale_struct = type { [13 x %struct.__locale_data*], i16*, i32*, i32*, [13 x i8*] }
%struct.__locale_data = type opaque
%"class.std::num_put" = type { %"class.std::locale::facet.base", [4 x i8] }
%"class.std::__cxx11::basic_string" = type { %"struct.std::__cxx11::basic_string<char>::_Alloc_hider", i64, %union.anon }
%"struct.std::__cxx11::basic_string<char>::_Alloc_hider" = type { i8* }
%union.anon = type { i64, [8 x i8] }

$_ZN9__gnu_cxxneIPcNSt7__cxx1112basic_stringIcSt11char_traitsIcESaIcEEEEEbRKNS_17__normal_iteratorIT_T0_EESD_ = comdat any

$_ZNK9__gnu_cxx17__normal_iteratorIPcNSt7__cxx1112basic_stringIcSt11char_traitsIcESaIcEEEEdeEv = comdat any

$_ZN9__gnu_cxx17__normal_iteratorIPcNSt7__cxx1112basic_stringIcSt11char_traitsIcESaIcEEEEppEv = comdat any

$_ZNK9__gnu_cxx17__normal_iteratorIPcNSt7__cxx1112basic_stringIcSt11char_traitsIcESaIcEEEE4baseEv = comdat any

$_ZSt3maxIiERKT_S2_S2_ = comdat any

@llvm.global_ctors = appending global [1 x { i32, void ()*, i8* }] [{ i32, void ()*, i8* } { i32 65535, void ()* @_GLOBAL__sub_I_StrongPassword.cpp, i8* null }]
@_ZStL8__ioinit = internal global %"class.std::ios_base::Init" zeroinitializer, align 1
@.str = private unnamed_addr constant [30 x i8] c"../input_files/StrongPassword\00", align 1
@.str.1 = private unnamed_addr constant [2 x i8] c"r\00", align 1
@stdin = external dso_local global %struct._IO_FILE*, align 8
@_ZSt3cin = external dso_local global %"class.std::basic_istream", align 8
@.str.2 = private unnamed_addr constant [11 x i8] c"0123456789\00", align 1
@.str.3 = private unnamed_addr constant [27 x i8] c"abcdefghijklmnopqrstuvwxyz\00", align 1
@.str.4 = private unnamed_addr constant [27 x i8] c"ABCDEFGHIJKLMNOPQRSTUVWXYZ\00", align 1
@.str.5 = private unnamed_addr constant [13 x i8] c"!@#$%^&*()-+\00", align 1
@.str.6 = private unnamed_addr constant [4 x i8] c"%d\0A\00", align 1

; Function Attrs: noinline uwtable
define internal void @_GLOBAL__sub_I_StrongPassword.cpp() #0 section ".text.startup" {
  call void @__cxx_global_var_init(), !llfi_index !4
  ret void, !llfi_index !5
}

; Function Attrs: noinline uwtable
define internal void @__cxx_global_var_init() #0 section ".text.startup" {
  call void @_ZNSt8ios_base4InitC1Ev(%"class.std::ios_base::Init"* nonnull align 1 dereferenceable(1) @_ZStL8__ioinit), !llfi_index !6
  %1 = call i32 @atexit(void ()* @__dtor__ZStL8__ioinit) #2, !llfi_index !7
  ret void, !llfi_index !8
}

declare dso_local void @_ZNSt8ios_base4InitC1Ev(%"class.std::ios_base::Init"* nonnull align 1 dereferenceable(1)) unnamed_addr #1

; Function Attrs: noinline uwtable
define internal void @__dtor__ZStL8__ioinit() #0 section ".text.startup" {
  call void @_ZNSt8ios_base4InitD1Ev(%"class.std::ios_base::Init"* @_ZStL8__ioinit), !llfi_index !9
  ret void, !llfi_index !10
}

; Function Attrs: nounwind
declare dso_local i32 @atexit(void ()*) #2

; Function Attrs: nounwind
declare dso_local void @_ZNSt8ios_base4InitD1Ev(%"class.std::ios_base::Init"* nonnull align 1 dereferenceable(1)) unnamed_addr #3

; Function Attrs: mustprogress noinline nounwind uwtable
define dso_local i32 @_Z5checkNSt7__cxx1112basic_stringIcSt11char_traitsIcESaIcEEES4_(%"class.std::__cxx11::basic_string"* %0, %"class.std::__cxx11::basic_string"* %1) #4 {
  %3 = alloca i32, align 4, !llfi_index !11
  %4 = alloca %"class.std::__cxx11::basic_string"*, align 8, !llfi_index !12
  %5 = alloca %"struct.std::__cxx11::basic_string<char>::_Alloc_hider", align 8, !llfi_index !13
  %6 = alloca %"struct.std::__cxx11::basic_string<char>::_Alloc_hider", align 8, !llfi_index !14
  %7 = alloca i8, align 1, !llfi_index !15
  store %"class.std::__cxx11::basic_string"* %0, %"class.std::__cxx11::basic_string"** %4, align 8, !llfi_index !16
  %8 = load %"class.std::__cxx11::basic_string"*, %"class.std::__cxx11::basic_string"** %4, align 8, !llfi_index !17
  %9 = call i8* @_ZNSt7__cxx1112basic_stringIcSt11char_traitsIcESaIcEE5beginEv(%"class.std::__cxx11::basic_string"* nonnull align 8 dereferenceable(32) %8) #2, !llfi_index !18
  %10 = getelementptr inbounds %"struct.std::__cxx11::basic_string<char>::_Alloc_hider", %"struct.std::__cxx11::basic_string<char>::_Alloc_hider"* %5, i32 0, i32 0, !llfi_index !19
  store i8* %9, i8** %10, align 8, !llfi_index !20
  %11 = load %"class.std::__cxx11::basic_string"*, %"class.std::__cxx11::basic_string"** %4, align 8, !llfi_index !21
  %12 = call i8* @_ZNSt7__cxx1112basic_stringIcSt11char_traitsIcESaIcEE3endEv(%"class.std::__cxx11::basic_string"* nonnull align 8 dereferenceable(32) %11) #2, !llfi_index !22
  %13 = getelementptr inbounds %"struct.std::__cxx11::basic_string<char>::_Alloc_hider", %"struct.std::__cxx11::basic_string<char>::_Alloc_hider"* %6, i32 0, i32 0, !llfi_index !23
  store i8* %12, i8** %13, align 8, !llfi_index !24
  br label %14, !llfi_index !25

14:                                               ; preds = %24, %2
  %15 = call zeroext i1 @_ZN9__gnu_cxxneIPcNSt7__cxx1112basic_stringIcSt11char_traitsIcESaIcEEEEEbRKNS_17__normal_iteratorIT_T0_EESD_(%"struct.std::__cxx11::basic_string<char>::_Alloc_hider"* nonnull align 8 dereferenceable(8) %5, %"struct.std::__cxx11::basic_string<char>::_Alloc_hider"* nonnull align 8 dereferenceable(8) %6) #2, !llfi_index !26
  br i1 %15, label %16, label %26, !llfi_index !27

16:                                               ; preds = %14
  %17 = call nonnull align 1 dereferenceable(1) i8* @_ZNK9__gnu_cxx17__normal_iteratorIPcNSt7__cxx1112basic_stringIcSt11char_traitsIcESaIcEEEEdeEv(%"struct.std::__cxx11::basic_string<char>::_Alloc_hider"* nonnull align 8 dereferenceable(8) %5) #2, !llfi_index !28
  %18 = load i8, i8* %17, align 1, !llfi_index !29
  store i8 %18, i8* %7, align 1, !llfi_index !30
  %19 = load i8, i8* %7, align 1, !llfi_index !31
  %20 = call i64 @_ZNKSt7__cxx1112basic_stringIcSt11char_traitsIcESaIcEE4findEcm(%"class.std::__cxx11::basic_string"* nonnull align 8 dereferenceable(32) %1, i8 signext %19, i64 0) #2, !llfi_index !32
  %21 = icmp ne i64 %20, -1, !llfi_index !33
  br i1 %21, label %22, label %23, !llfi_index !34

22:                                               ; preds = %16
  store i32 0, i32* %3, align 4, !llfi_index !35
  br label %27, !llfi_index !36

23:                                               ; preds = %16
  br label %24, !llfi_index !37

24:                                               ; preds = %23
  %25 = call nonnull align 8 dereferenceable(8) %"struct.std::__cxx11::basic_string<char>::_Alloc_hider"* @_ZN9__gnu_cxx17__normal_iteratorIPcNSt7__cxx1112basic_stringIcSt11char_traitsIcESaIcEEEEppEv(%"struct.std::__cxx11::basic_string<char>::_Alloc_hider"* nonnull align 8 dereferenceable(8) %5) #2, !llfi_index !38
  br label %14, !llfi_index !39

26:                                               ; preds = %14
  store i32 1, i32* %3, align 4, !llfi_index !40
  br label %27, !llfi_index !41

27:                                               ; preds = %26, %22
  %28 = load i32, i32* %3, align 4, !llfi_index !42
  ret i32 %28, !llfi_index !43
}

; Function Attrs: nounwind
declare dso_local i8* @_ZNSt7__cxx1112basic_stringIcSt11char_traitsIcESaIcEE5beginEv(%"class.std::__cxx11::basic_string"* nonnull align 8 dereferenceable(32)) #3

; Function Attrs: nounwind
declare dso_local i8* @_ZNSt7__cxx1112basic_stringIcSt11char_traitsIcESaIcEE3endEv(%"class.std::__cxx11::basic_string"* nonnull align 8 dereferenceable(32)) #3

; Function Attrs: mustprogress noinline nounwind uwtable
define linkonce_odr dso_local zeroext i1 @_ZN9__gnu_cxxneIPcNSt7__cxx1112basic_stringIcSt11char_traitsIcESaIcEEEEEbRKNS_17__normal_iteratorIT_T0_EESD_(%"struct.std::__cxx11::basic_string<char>::_Alloc_hider"* nonnull align 8 dereferenceable(8) %0, %"struct.std::__cxx11::basic_string<char>::_Alloc_hider"* nonnull align 8 dereferenceable(8) %1) #4 comdat {
  %3 = alloca %"struct.std::__cxx11::basic_string<char>::_Alloc_hider"*, align 8, !llfi_index !44
  %4 = alloca %"struct.std::__cxx11::basic_string<char>::_Alloc_hider"*, align 8, !llfi_index !45
  store %"struct.std::__cxx11::basic_string<char>::_Alloc_hider"* %0, %"struct.std::__cxx11::basic_string<char>::_Alloc_hider"** %3, align 8, !llfi_index !46
  store %"struct.std::__cxx11::basic_string<char>::_Alloc_hider"* %1, %"struct.std::__cxx11::basic_string<char>::_Alloc_hider"** %4, align 8, !llfi_index !47
  %5 = load %"struct.std::__cxx11::basic_string<char>::_Alloc_hider"*, %"struct.std::__cxx11::basic_string<char>::_Alloc_hider"** %3, align 8, !llfi_index !48
  %6 = call nonnull align 8 dereferenceable(8) i8** @_ZNK9__gnu_cxx17__normal_iteratorIPcNSt7__cxx1112basic_stringIcSt11char_traitsIcESaIcEEEE4baseEv(%"struct.std::__cxx11::basic_string<char>::_Alloc_hider"* nonnull align 8 dereferenceable(8) %5) #2, !llfi_index !49
  %7 = load i8*, i8** %6, align 8, !llfi_index !50
  %8 = load %"struct.std::__cxx11::basic_string<char>::_Alloc_hider"*, %"struct.std::__cxx11::basic_string<char>::_Alloc_hider"** %4, align 8, !llfi_index !51
  %9 = call nonnull align 8 dereferenceable(8) i8** @_ZNK9__gnu_cxx17__normal_iteratorIPcNSt7__cxx1112basic_stringIcSt11char_traitsIcESaIcEEEE4baseEv(%"struct.std::__cxx11::basic_string<char>::_Alloc_hider"* nonnull align 8 dereferenceable(8) %8) #2, !llfi_index !52
  %10 = load i8*, i8** %9, align 8, !llfi_index !53
  %11 = icmp ne i8* %7, %10, !llfi_index !54
  ret i1 %11, !llfi_index !55
}

; Function Attrs: mustprogress noinline nounwind uwtable
define linkonce_odr dso_local nonnull align 1 dereferenceable(1) i8* @_ZNK9__gnu_cxx17__normal_iteratorIPcNSt7__cxx1112basic_stringIcSt11char_traitsIcESaIcEEEEdeEv(%"struct.std::__cxx11::basic_string<char>::_Alloc_hider"* nonnull align 8 dereferenceable(8) %0) #4 comdat align 2 {
  %2 = alloca %"struct.std::__cxx11::basic_string<char>::_Alloc_hider"*, align 8, !llfi_index !56
  store %"struct.std::__cxx11::basic_string<char>::_Alloc_hider"* %0, %"struct.std::__cxx11::basic_string<char>::_Alloc_hider"** %2, align 8, !llfi_index !57
  %3 = load %"struct.std::__cxx11::basic_string<char>::_Alloc_hider"*, %"struct.std::__cxx11::basic_string<char>::_Alloc_hider"** %2, align 8, !llfi_index !58
  %4 = getelementptr inbounds %"struct.std::__cxx11::basic_string<char>::_Alloc_hider", %"struct.std::__cxx11::basic_string<char>::_Alloc_hider"* %3, i32 0, i32 0, !llfi_index !59
  %5 = load i8*, i8** %4, align 8, !llfi_index !60
  ret i8* %5, !llfi_index !61
}

; Function Attrs: nounwind
declare dso_local i64 @_ZNKSt7__cxx1112basic_stringIcSt11char_traitsIcESaIcEE4findEcm(%"class.std::__cxx11::basic_string"* nonnull align 8 dereferenceable(32), i8 signext, i64) #3

; Function Attrs: mustprogress noinline nounwind uwtable
define linkonce_odr dso_local nonnull align 8 dereferenceable(8) %"struct.std::__cxx11::basic_string<char>::_Alloc_hider"* @_ZN9__gnu_cxx17__normal_iteratorIPcNSt7__cxx1112basic_stringIcSt11char_traitsIcESaIcEEEEppEv(%"struct.std::__cxx11::basic_string<char>::_Alloc_hider"* nonnull align 8 dereferenceable(8) %0) #4 comdat align 2 {
  %2 = alloca %"struct.std::__cxx11::basic_string<char>::_Alloc_hider"*, align 8, !llfi_index !62
  store %"struct.std::__cxx11::basic_string<char>::_Alloc_hider"* %0, %"struct.std::__cxx11::basic_string<char>::_Alloc_hider"** %2, align 8, !llfi_index !63
  %3 = load %"struct.std::__cxx11::basic_string<char>::_Alloc_hider"*, %"struct.std::__cxx11::basic_string<char>::_Alloc_hider"** %2, align 8, !llfi_index !64
  %4 = getelementptr inbounds %"struct.std::__cxx11::basic_string<char>::_Alloc_hider", %"struct.std::__cxx11::basic_string<char>::_Alloc_hider"* %3, i32 0, i32 0, !llfi_index !65
  %5 = load i8*, i8** %4, align 8, !llfi_index !66
  %6 = getelementptr inbounds i8, i8* %5, i32 1, !llfi_index !67
  store i8* %6, i8** %4, align 8, !llfi_index !68
  ret %"struct.std::__cxx11::basic_string<char>::_Alloc_hider"* %3, !llfi_index !69
}

; Function Attrs: mustprogress noinline nounwind uwtable
define linkonce_odr dso_local nonnull align 8 dereferenceable(8) i8** @_ZNK9__gnu_cxx17__normal_iteratorIPcNSt7__cxx1112basic_stringIcSt11char_traitsIcESaIcEEEE4baseEv(%"struct.std::__cxx11::basic_string<char>::_Alloc_hider"* nonnull align 8 dereferenceable(8) %0) #4 comdat align 2 {
  %2 = alloca %"struct.std::__cxx11::basic_string<char>::_Alloc_hider"*, align 8, !llfi_index !70
  store %"struct.std::__cxx11::basic_string<char>::_Alloc_hider"* %0, %"struct.std::__cxx11::basic_string<char>::_Alloc_hider"** %2, align 8, !llfi_index !71
  %3 = load %"struct.std::__cxx11::basic_string<char>::_Alloc_hider"*, %"struct.std::__cxx11::basic_string<char>::_Alloc_hider"** %2, align 8, !llfi_index !72
  %4 = getelementptr inbounds %"struct.std::__cxx11::basic_string<char>::_Alloc_hider", %"struct.std::__cxx11::basic_string<char>::_Alloc_hider"* %3, i32 0, i32 0, !llfi_index !73
  ret i8** %4, !llfi_index !74
}

; Function Attrs: mustprogress noinline norecurse uwtable
define dso_local i32 @main() #5 personality i8* bitcast (i32 (...)* @__gxx_personality_v0 to i8*) {
  %1 = alloca i32, align 4, !llfi_index !75
  %2 = alloca i32, align 4, !llfi_index !76
  %3 = alloca %"class.std::__cxx11::basic_string", align 8, !llfi_index !77
  %4 = alloca i8*, align 8, !llfi_index !78
  %5 = alloca i32, align 4, !llfi_index !79
  %6 = alloca %"class.std::__cxx11::basic_string", align 8, !llfi_index !80
  %7 = alloca %"class.std::ios_base::Init", align 1, !llfi_index !81
  %8 = alloca %"class.std::__cxx11::basic_string", align 8, !llfi_index !82
  %9 = alloca %"class.std::ios_base::Init", align 1, !llfi_index !83
  %10 = alloca %"class.std::__cxx11::basic_string", align 8, !llfi_index !84
  %11 = alloca %"class.std::ios_base::Init", align 1, !llfi_index !85
  %12 = alloca %"class.std::__cxx11::basic_string", align 8, !llfi_index !86
  %13 = alloca %"class.std::ios_base::Init", align 1, !llfi_index !87
  %14 = alloca i32, align 4, !llfi_index !88
  %15 = alloca i32, align 4, !llfi_index !89
  %16 = alloca %"class.std::__cxx11::basic_string", align 8, !llfi_index !90
  %17 = alloca %"class.std::__cxx11::basic_string", align 8, !llfi_index !91
  %18 = alloca %"class.std::__cxx11::basic_string", align 8, !llfi_index !92
  %19 = alloca %"class.std::__cxx11::basic_string", align 8, !llfi_index !93
  %20 = alloca %"class.std::__cxx11::basic_string", align 8, !llfi_index !94
  %21 = alloca %"class.std::__cxx11::basic_string", align 8, !llfi_index !95
  %22 = alloca %"class.std::__cxx11::basic_string", align 8, !llfi_index !96
  %23 = alloca %"class.std::__cxx11::basic_string", align 8, !llfi_index !97
  %24 = alloca i32, align 4, !llfi_index !98
  store i32 0, i32* %1, align 4, !llfi_index !99
  %25 = load %struct._IO_FILE*, %struct._IO_FILE** @stdin, align 8, !llfi_index !100
  %26 = call %struct._IO_FILE* @freopen(i8* getelementptr inbounds ([30 x i8], [30 x i8]* @.str, i64 0, i64 0), i8* getelementptr inbounds ([2 x i8], [2 x i8]* @.str.1, i64 0, i64 0), %struct._IO_FILE* %25), !llfi_index !101
  %27 = call nonnull align 8 dereferenceable(16) %"class.std::basic_istream"* @_ZNSirsERi(%"class.std::basic_istream"* nonnull align 8 dereferenceable(16) @_ZSt3cin, i32* nonnull align 4 dereferenceable(4) %2), !llfi_index !102
  call void @_ZNSt7__cxx1112basic_stringIcSt11char_traitsIcESaIcEEC1Ev(%"class.std::__cxx11::basic_string"* nonnull align 8 dereferenceable(32) %3) #2, !llfi_index !103
  %28 = invoke nonnull align 8 dereferenceable(16) %"class.std::basic_istream"* @_ZStrsIcSt11char_traitsIcESaIcEERSt13basic_istreamIT_T0_ES7_RNSt7__cxx1112basic_stringIS4_S5_T1_EE(%"class.std::basic_istream"* nonnull align 8 dereferenceable(16) @_ZSt3cin, %"class.std::__cxx11::basic_string"* nonnull align 8 dereferenceable(32) %3)
          to label %29 unwind label %63, !llfi_index !104

29:                                               ; preds = %0
  call void @_ZNSaIcEC1Ev(%"class.std::ios_base::Init"* nonnull align 1 dereferenceable(1) %7) #2, !llfi_index !105
  invoke void @_ZNSt7__cxx1112basic_stringIcSt11char_traitsIcESaIcEEC1EPKcRKS3_(%"class.std::__cxx11::basic_string"* nonnull align 8 dereferenceable(32) %6, i8* getelementptr inbounds ([11 x i8], [11 x i8]* @.str.2, i64 0, i64 0), %"class.std::ios_base::Init"* nonnull align 1 dereferenceable(1) %7)
          to label %30 unwind label %67, !llfi_index !106

30:                                               ; preds = %29
  call void @_ZNSaIcED1Ev(%"class.std::ios_base::Init"* nonnull align 1 dereferenceable(1) %7) #2, !llfi_index !107
  call void @_ZNSaIcEC1Ev(%"class.std::ios_base::Init"* nonnull align 1 dereferenceable(1) %9) #2, !llfi_index !108
  invoke void @_ZNSt7__cxx1112basic_stringIcSt11char_traitsIcESaIcEEC1EPKcRKS3_(%"class.std::__cxx11::basic_string"* nonnull align 8 dereferenceable(32) %8, i8* getelementptr inbounds ([27 x i8], [27 x i8]* @.str.3, i64 0, i64 0), %"class.std::ios_base::Init"* nonnull align 1 dereferenceable(1) %9)
          to label %31 unwind label %71, !llfi_index !109

31:                                               ; preds = %30
  call void @_ZNSaIcED1Ev(%"class.std::ios_base::Init"* nonnull align 1 dereferenceable(1) %9) #2, !llfi_index !110
  call void @_ZNSaIcEC1Ev(%"class.std::ios_base::Init"* nonnull align 1 dereferenceable(1) %11) #2, !llfi_index !111
  invoke void @_ZNSt7__cxx1112basic_stringIcSt11char_traitsIcESaIcEEC1EPKcRKS3_(%"class.std::__cxx11::basic_string"* nonnull align 8 dereferenceable(32) %10, i8* getelementptr inbounds ([27 x i8], [27 x i8]* @.str.4, i64 0, i64 0), %"class.std::ios_base::Init"* nonnull align 1 dereferenceable(1) %11)
          to label %32 unwind label %75, !llfi_index !112

32:                                               ; preds = %31
  call void @_ZNSaIcED1Ev(%"class.std::ios_base::Init"* nonnull align 1 dereferenceable(1) %11) #2, !llfi_index !113
  call void @_ZNSaIcEC1Ev(%"class.std::ios_base::Init"* nonnull align 1 dereferenceable(1) %13) #2, !llfi_index !114
  invoke void @_ZNSt7__cxx1112basic_stringIcSt11char_traitsIcESaIcEEC1EPKcRKS3_(%"class.std::__cxx11::basic_string"* nonnull align 8 dereferenceable(32) %12, i8* getelementptr inbounds ([13 x i8], [13 x i8]* @.str.5, i64 0, i64 0), %"class.std::ios_base::Init"* nonnull align 1 dereferenceable(1) %13)
          to label %33 unwind label %79, !llfi_index !115

33:                                               ; preds = %32
  call void @_ZNSaIcED1Ev(%"class.std::ios_base::Init"* nonnull align 1 dereferenceable(1) %13) #2, !llfi_index !116
  store i32 0, i32* %14, align 4, !llfi_index !117
  store i32 89, i32* %15, align 4, !llfi_index !118
  invoke void @_ZNSt7__cxx1112basic_stringIcSt11char_traitsIcESaIcEEC1ERKS4_(%"class.std::__cxx11::basic_string"* nonnull align 8 dereferenceable(32) %16, %"class.std::__cxx11::basic_string"* nonnull align 8 dereferenceable(32) %3)
          to label %34 unwind label %83, !llfi_index !119

34:                                               ; preds = %33
  invoke void @_ZNSt7__cxx1112basic_stringIcSt11char_traitsIcESaIcEEC1ERKS4_(%"class.std::__cxx11::basic_string"* nonnull align 8 dereferenceable(32) %17, %"class.std::__cxx11::basic_string"* nonnull align 8 dereferenceable(32) %6)
          to label %35 unwind label %87, !llfi_index !120

35:                                               ; preds = %34
  %36 = call i32 @_Z5checkNSt7__cxx1112basic_stringIcSt11char_traitsIcESaIcEEES4_(%"class.std::__cxx11::basic_string"* %16, %"class.std::__cxx11::basic_string"* %17), !llfi_index !121
  %37 = load i32, i32* %14, align 4, !llfi_index !122
  %38 = add nsw i32 %37, %36, !llfi_index !123
  store i32 %38, i32* %14, align 4, !llfi_index !124
  call void @_ZNSt7__cxx1112basic_stringIcSt11char_traitsIcESaIcEED1Ev(%"class.std::__cxx11::basic_string"* nonnull align 8 dereferenceable(32) %17) #2, !llfi_index !125
  call void @_ZNSt7__cxx1112basic_stringIcSt11char_traitsIcESaIcEED1Ev(%"class.std::__cxx11::basic_string"* nonnull align 8 dereferenceable(32) %16) #2, !llfi_index !126
  store i32 89, i32* %15, align 4, !llfi_index !127
  invoke void @_ZNSt7__cxx1112basic_stringIcSt11char_traitsIcESaIcEEC1ERKS4_(%"class.std::__cxx11::basic_string"* nonnull align 8 dereferenceable(32) %18, %"class.std::__cxx11::basic_string"* nonnull align 8 dereferenceable(32) %3)
          to label %39 unwind label %83, !llfi_index !128

39:                                               ; preds = %35
  invoke void @_ZNSt7__cxx1112basic_stringIcSt11char_traitsIcESaIcEEC1ERKS4_(%"class.std::__cxx11::basic_string"* nonnull align 8 dereferenceable(32) %19, %"class.std::__cxx11::basic_string"* nonnull align 8 dereferenceable(32) %8)
          to label %40 unwind label %91, !llfi_index !129

40:                                               ; preds = %39
  %41 = call i32 @_Z5checkNSt7__cxx1112basic_stringIcSt11char_traitsIcESaIcEEES4_(%"class.std::__cxx11::basic_string"* %18, %"class.std::__cxx11::basic_string"* %19), !llfi_index !130
  %42 = load i32, i32* %14, align 4, !llfi_index !131
  %43 = add nsw i32 %42, %41, !llfi_index !132
  store i32 %43, i32* %14, align 4, !llfi_index !133
  call void @_ZNSt7__cxx1112basic_stringIcSt11char_traitsIcESaIcEED1Ev(%"class.std::__cxx11::basic_string"* nonnull align 8 dereferenceable(32) %19) #2, !llfi_index !134
  call void @_ZNSt7__cxx1112basic_stringIcSt11char_traitsIcESaIcEED1Ev(%"class.std::__cxx11::basic_string"* nonnull align 8 dereferenceable(32) %18) #2, !llfi_index !135
  store i32 89, i32* %15, align 4, !llfi_index !136
  invoke void @_ZNSt7__cxx1112basic_stringIcSt11char_traitsIcESaIcEEC1ERKS4_(%"class.std::__cxx11::basic_string"* nonnull align 8 dereferenceable(32) %20, %"class.std::__cxx11::basic_string"* nonnull align 8 dereferenceable(32) %3)
          to label %44 unwind label %83, !llfi_index !137

44:                                               ; preds = %40
  invoke void @_ZNSt7__cxx1112basic_stringIcSt11char_traitsIcESaIcEEC1ERKS4_(%"class.std::__cxx11::basic_string"* nonnull align 8 dereferenceable(32) %21, %"class.std::__cxx11::basic_string"* nonnull align 8 dereferenceable(32) %10)
          to label %45 unwind label %95, !llfi_index !138

45:                                               ; preds = %44
  %46 = call i32 @_Z5checkNSt7__cxx1112basic_stringIcSt11char_traitsIcESaIcEEES4_(%"class.std::__cxx11::basic_string"* %20, %"class.std::__cxx11::basic_string"* %21), !llfi_index !139
  %47 = load i32, i32* %14, align 4, !llfi_index !140
  %48 = add nsw i32 %47, %46, !llfi_index !141
  store i32 %48, i32* %14, align 4, !llfi_index !142
  call void @_ZNSt7__cxx1112basic_stringIcSt11char_traitsIcESaIcEED1Ev(%"class.std::__cxx11::basic_string"* nonnull align 8 dereferenceable(32) %21) #2, !llfi_index !143
  call void @_ZNSt7__cxx1112basic_stringIcSt11char_traitsIcESaIcEED1Ev(%"class.std::__cxx11::basic_string"* nonnull align 8 dereferenceable(32) %20) #2, !llfi_index !144
  store i32 89, i32* %15, align 4, !llfi_index !145
  invoke void @_ZNSt7__cxx1112basic_stringIcSt11char_traitsIcESaIcEEC1ERKS4_(%"class.std::__cxx11::basic_string"* nonnull align 8 dereferenceable(32) %22, %"class.std::__cxx11::basic_string"* nonnull align 8 dereferenceable(32) %3)
          to label %49 unwind label %83, !llfi_index !146

49:                                               ; preds = %45
  invoke void @_ZNSt7__cxx1112basic_stringIcSt11char_traitsIcESaIcEEC1ERKS4_(%"class.std::__cxx11::basic_string"* nonnull align 8 dereferenceable(32) %23, %"class.std::__cxx11::basic_string"* nonnull align 8 dereferenceable(32) %12)
          to label %50 unwind label %99, !llfi_index !147

50:                                               ; preds = %49
  %51 = call i32 @_Z5checkNSt7__cxx1112basic_stringIcSt11char_traitsIcESaIcEEES4_(%"class.std::__cxx11::basic_string"* %22, %"class.std::__cxx11::basic_string"* %23), !llfi_index !148
  %52 = load i32, i32* %14, align 4, !llfi_index !149
  %53 = add nsw i32 %52, %51, !llfi_index !150
  store i32 %53, i32* %14, align 4, !llfi_index !151
  call void @_ZNSt7__cxx1112basic_stringIcSt11char_traitsIcESaIcEED1Ev(%"class.std::__cxx11::basic_string"* nonnull align 8 dereferenceable(32) %23) #2, !llfi_index !152
  call void @_ZNSt7__cxx1112basic_stringIcSt11char_traitsIcESaIcEED1Ev(%"class.std::__cxx11::basic_string"* nonnull align 8 dereferenceable(32) %22) #2, !llfi_index !153
  store i32 89, i32* %15, align 4, !llfi_index !154
  %54 = load i32, i32* %2, align 4, !llfi_index !155
  %55 = sub nsw i32 6, %54, !llfi_index !156
  store i32 %55, i32* %24, align 4, !llfi_index !157
  %56 = invoke nonnull align 4 dereferenceable(4) i32* @_ZSt3maxIiERKT_S2_S2_(i32* nonnull align 4 dereferenceable(4) %14, i32* nonnull align 4 dereferenceable(4) %24)
          to label %57 unwind label %83, !llfi_index !158

57:                                               ; preds = %50
  %58 = load i32, i32* %56, align 4, !llfi_index !159
  store i32 %58, i32* %14, align 4, !llfi_index !160
  %59 = load i32, i32* %14, align 4, !llfi_index !161
  %60 = invoke i32 (i8*, ...) @printf(i8* getelementptr inbounds ([4 x i8], [4 x i8]* @.str.6, i64 0, i64 0), i32 %59)
          to label %61 unwind label %83, !llfi_index !162

61:                                               ; preds = %57
  store i32 0, i32* %1, align 4, !llfi_index !163
  call void @_ZNSt7__cxx1112basic_stringIcSt11char_traitsIcESaIcEED1Ev(%"class.std::__cxx11::basic_string"* nonnull align 8 dereferenceable(32) %12) #2, !llfi_index !164
  call void @_ZNSt7__cxx1112basic_stringIcSt11char_traitsIcESaIcEED1Ev(%"class.std::__cxx11::basic_string"* nonnull align 8 dereferenceable(32) %10) #2, !llfi_index !165
  call void @_ZNSt7__cxx1112basic_stringIcSt11char_traitsIcESaIcEED1Ev(%"class.std::__cxx11::basic_string"* nonnull align 8 dereferenceable(32) %8) #2, !llfi_index !166
  call void @_ZNSt7__cxx1112basic_stringIcSt11char_traitsIcESaIcEED1Ev(%"class.std::__cxx11::basic_string"* nonnull align 8 dereferenceable(32) %6) #2, !llfi_index !167
  call void @_ZNSt7__cxx1112basic_stringIcSt11char_traitsIcESaIcEED1Ev(%"class.std::__cxx11::basic_string"* nonnull align 8 dereferenceable(32) %3) #2, !llfi_index !168
  %62 = load i32, i32* %1, align 4, !llfi_index !169
  ret i32 %62, !llfi_index !170

63:                                               ; preds = %0
  %64 = landingpad { i8*, i32 }
          cleanup, !llfi_index !171
  %65 = extractvalue { i8*, i32 } %64, 0, !llfi_index !172
  store i8* %65, i8** %4, align 8, !llfi_index !173
  %66 = extractvalue { i8*, i32 } %64, 1, !llfi_index !174
  store i32 %66, i32* %5, align 4, !llfi_index !175
  br label %107, !llfi_index !176

67:                                               ; preds = %29
  %68 = landingpad { i8*, i32 }
          cleanup, !llfi_index !177
  %69 = extractvalue { i8*, i32 } %68, 0, !llfi_index !178
  store i8* %69, i8** %4, align 8, !llfi_index !179
  %70 = extractvalue { i8*, i32 } %68, 1, !llfi_index !180
  store i32 %70, i32* %5, align 4, !llfi_index !181
  call void @_ZNSaIcED1Ev(%"class.std::ios_base::Init"* nonnull align 1 dereferenceable(1) %7) #2, !llfi_index !182
  br label %107, !llfi_index !183

71:                                               ; preds = %30
  %72 = landingpad { i8*, i32 }
          cleanup, !llfi_index !184
  %73 = extractvalue { i8*, i32 } %72, 0, !llfi_index !185
  store i8* %73, i8** %4, align 8, !llfi_index !186
  %74 = extractvalue { i8*, i32 } %72, 1, !llfi_index !187
  store i32 %74, i32* %5, align 4, !llfi_index !188
  call void @_ZNSaIcED1Ev(%"class.std::ios_base::Init"* nonnull align 1 dereferenceable(1) %9) #2, !llfi_index !189
  br label %106, !llfi_index !190

75:                                               ; preds = %31
  %76 = landingpad { i8*, i32 }
          cleanup, !llfi_index !191
  %77 = extractvalue { i8*, i32 } %76, 0, !llfi_index !192
  store i8* %77, i8** %4, align 8, !llfi_index !193
  %78 = extractvalue { i8*, i32 } %76, 1, !llfi_index !194
  store i32 %78, i32* %5, align 4, !llfi_index !195
  call void @_ZNSaIcED1Ev(%"class.std::ios_base::Init"* nonnull align 1 dereferenceable(1) %11) #2, !llfi_index !196
  br label %105, !llfi_index !197

79:                                               ; preds = %32
  %80 = landingpad { i8*, i32 }
          cleanup, !llfi_index !198
  %81 = extractvalue { i8*, i32 } %80, 0, !llfi_index !199
  store i8* %81, i8** %4, align 8, !llfi_index !200
  %82 = extractvalue { i8*, i32 } %80, 1, !llfi_index !201
  store i32 %82, i32* %5, align 4, !llfi_index !202
  call void @_ZNSaIcED1Ev(%"class.std::ios_base::Init"* nonnull align 1 dereferenceable(1) %13) #2, !llfi_index !203
  br label %104, !llfi_index !204

83:                                               ; preds = %57, %50, %45, %40, %35, %33
  %84 = landingpad { i8*, i32 }
          cleanup, !llfi_index !205
  %85 = extractvalue { i8*, i32 } %84, 0, !llfi_index !206
  store i8* %85, i8** %4, align 8, !llfi_index !207
  %86 = extractvalue { i8*, i32 } %84, 1, !llfi_index !208
  store i32 %86, i32* %5, align 4, !llfi_index !209
  br label %103, !llfi_index !210

87:                                               ; preds = %34
  %88 = landingpad { i8*, i32 }
          cleanup, !llfi_index !211
  %89 = extractvalue { i8*, i32 } %88, 0, !llfi_index !212
  store i8* %89, i8** %4, align 8, !llfi_index !213
  %90 = extractvalue { i8*, i32 } %88, 1, !llfi_index !214
  store i32 %90, i32* %5, align 4, !llfi_index !215
  call void @_ZNSt7__cxx1112basic_stringIcSt11char_traitsIcESaIcEED1Ev(%"class.std::__cxx11::basic_string"* nonnull align 8 dereferenceable(32) %16) #2, !llfi_index !216
  br label %103, !llfi_index !217

91:                                               ; preds = %39
  %92 = landingpad { i8*, i32 }
          cleanup, !llfi_index !218
  %93 = extractvalue { i8*, i32 } %92, 0, !llfi_index !219
  store i8* %93, i8** %4, align 8, !llfi_index !220
  %94 = extractvalue { i8*, i32 } %92, 1, !llfi_index !221
  store i32 %94, i32* %5, align 4, !llfi_index !222
  call void @_ZNSt7__cxx1112basic_stringIcSt11char_traitsIcESaIcEED1Ev(%"class.std::__cxx11::basic_string"* nonnull align 8 dereferenceable(32) %18) #2, !llfi_index !223
  br label %103, !llfi_index !224

95:                                               ; preds = %44
  %96 = landingpad { i8*, i32 }
          cleanup, !llfi_index !225
  %97 = extractvalue { i8*, i32 } %96, 0, !llfi_index !226
  store i8* %97, i8** %4, align 8, !llfi_index !227
  %98 = extractvalue { i8*, i32 } %96, 1, !llfi_index !228
  store i32 %98, i32* %5, align 4, !llfi_index !229
  call void @_ZNSt7__cxx1112basic_stringIcSt11char_traitsIcESaIcEED1Ev(%"class.std::__cxx11::basic_string"* nonnull align 8 dereferenceable(32) %20) #2, !llfi_index !230
  br label %103, !llfi_index !231

99:                                               ; preds = %49
  %100 = landingpad { i8*, i32 }
          cleanup, !llfi_index !232
  %101 = extractvalue { i8*, i32 } %100, 0, !llfi_index !233
  store i8* %101, i8** %4, align 8, !llfi_index !234
  %102 = extractvalue { i8*, i32 } %100, 1, !llfi_index !235
  store i32 %102, i32* %5, align 4, !llfi_index !236
  call void @_ZNSt7__cxx1112basic_stringIcSt11char_traitsIcESaIcEED1Ev(%"class.std::__cxx11::basic_string"* nonnull align 8 dereferenceable(32) %22) #2, !llfi_index !237
  br label %103, !llfi_index !238

103:                                              ; preds = %99, %95, %91, %87, %83
  call void @_ZNSt7__cxx1112basic_stringIcSt11char_traitsIcESaIcEED1Ev(%"class.std::__cxx11::basic_string"* nonnull align 8 dereferenceable(32) %12) #2, !llfi_index !239
  br label %104, !llfi_index !240

104:                                              ; preds = %103, %79
  call void @_ZNSt7__cxx1112basic_stringIcSt11char_traitsIcESaIcEED1Ev(%"class.std::__cxx11::basic_string"* nonnull align 8 dereferenceable(32) %10) #2, !llfi_index !241
  br label %105, !llfi_index !242

105:                                              ; preds = %104, %75
  call void @_ZNSt7__cxx1112basic_stringIcSt11char_traitsIcESaIcEED1Ev(%"class.std::__cxx11::basic_string"* nonnull align 8 dereferenceable(32) %8) #2, !llfi_index !243
  br label %106, !llfi_index !244

106:                                              ; preds = %105, %71
  call void @_ZNSt7__cxx1112basic_stringIcSt11char_traitsIcESaIcEED1Ev(%"class.std::__cxx11::basic_string"* nonnull align 8 dereferenceable(32) %6) #2, !llfi_index !245
  br label %107, !llfi_index !246

107:                                              ; preds = %106, %67, %63
  call void @_ZNSt7__cxx1112basic_stringIcSt11char_traitsIcESaIcEED1Ev(%"class.std::__cxx11::basic_string"* nonnull align 8 dereferenceable(32) %3) #2, !llfi_index !247
  br label %108, !llfi_index !248

108:                                              ; preds = %107
  %109 = load i8*, i8** %4, align 8, !llfi_index !249
  %110 = load i32, i32* %5, align 4, !llfi_index !250
  %111 = insertvalue { i8*, i32 } undef, i8* %109, 0, !llfi_index !251
  %112 = insertvalue { i8*, i32 } %111, i32 %110, 1, !llfi_index !252
  resume { i8*, i32 } %112, !llfi_index !253
}

declare dso_local i32 @__gxx_personality_v0(...)

declare dso_local %struct._IO_FILE* @freopen(i8*, i8*, %struct._IO_FILE*) #1

declare dso_local nonnull align 8 dereferenceable(16) %"class.std::basic_istream"* @_ZNSirsERi(%"class.std::basic_istream"* nonnull align 8 dereferenceable(16), i32* nonnull align 4 dereferenceable(4)) #1

; Function Attrs: nounwind
declare dso_local void @_ZNSt7__cxx1112basic_stringIcSt11char_traitsIcESaIcEEC1Ev(%"class.std::__cxx11::basic_string"* nonnull align 8 dereferenceable(32)) unnamed_addr #3

declare dso_local nonnull align 8 dereferenceable(16) %"class.std::basic_istream"* @_ZStrsIcSt11char_traitsIcESaIcEERSt13basic_istreamIT_T0_ES7_RNSt7__cxx1112basic_stringIS4_S5_T1_EE(%"class.std::basic_istream"* nonnull align 8 dereferenceable(16), %"class.std::__cxx11::basic_string"* nonnull align 8 dereferenceable(32)) #1

; Function Attrs: nounwind
declare dso_local void @_ZNSaIcEC1Ev(%"class.std::ios_base::Init"* nonnull align 1 dereferenceable(1)) unnamed_addr #3

declare dso_local void @_ZNSt7__cxx1112basic_stringIcSt11char_traitsIcESaIcEEC1EPKcRKS3_(%"class.std::__cxx11::basic_string"* nonnull align 8 dereferenceable(32), i8*, %"class.std::ios_base::Init"* nonnull align 1 dereferenceable(1)) unnamed_addr #1

; Function Attrs: nounwind
declare dso_local void @_ZNSaIcED1Ev(%"class.std::ios_base::Init"* nonnull align 1 dereferenceable(1)) unnamed_addr #3

declare dso_local void @_ZNSt7__cxx1112basic_stringIcSt11char_traitsIcESaIcEEC1ERKS4_(%"class.std::__cxx11::basic_string"* nonnull align 8 dereferenceable(32), %"class.std::__cxx11::basic_string"* nonnull align 8 dereferenceable(32)) unnamed_addr #1

; Function Attrs: nounwind
declare dso_local void @_ZNSt7__cxx1112basic_stringIcSt11char_traitsIcESaIcEED1Ev(%"class.std::__cxx11::basic_string"* nonnull align 8 dereferenceable(32)) unnamed_addr #3

; Function Attrs: mustprogress noinline nounwind uwtable
define linkonce_odr dso_local nonnull align 4 dereferenceable(4) i32* @_ZSt3maxIiERKT_S2_S2_(i32* nonnull align 4 dereferenceable(4) %0, i32* nonnull align 4 dereferenceable(4) %1) #4 comdat {
  %3 = alloca i32*, align 8, !llfi_index !254
  %4 = alloca i32*, align 8, !llfi_index !255
  %5 = alloca i32*, align 8, !llfi_index !256
  store i32* %0, i32** %4, align 8, !llfi_index !257
  store i32* %1, i32** %5, align 8, !llfi_index !258
  %6 = load i32*, i32** %4, align 8, !llfi_index !259
  %7 = load i32, i32* %6, align 4, !llfi_index !260
  %8 = load i32*, i32** %5, align 8, !llfi_index !261
  %9 = load i32, i32* %8, align 4, !llfi_index !262
  %10 = icmp slt i32 %7, %9, !llfi_index !263
  br i1 %10, label %11, label %13, !llfi_index !264

11:                                               ; preds = %2
  %12 = load i32*, i32** %5, align 8, !llfi_index !265
  store i32* %12, i32** %3, align 8, !llfi_index !266
  br label %15, !llfi_index !267

13:                                               ; preds = %2
  %14 = load i32*, i32** %4, align 8, !llfi_index !268
  store i32* %14, i32** %3, align 8, !llfi_index !269
  br label %15, !llfi_index !270

15:                                               ; preds = %13, %11
  %16 = load i32*, i32** %3, align 8, !llfi_index !271
  ret i32* %16, !llfi_index !272
}

declare dso_local i32 @printf(i8*, ...) #1

attributes #0 = { noinline uwtable "frame-pointer"="all" "min-legal-vector-width"="0" "no-trapping-math"="true" "stack-protector-buffer-size"="8" "target-cpu"="x86-64" "target-features"="+cx8,+fxsr,+mmx,+sse,+sse2,+x87" "tune-cpu"="generic" }
attributes #1 = { "frame-pointer"="all" "no-trapping-math"="true" "stack-protector-buffer-size"="8" "target-cpu"="x86-64" "target-features"="+cx8,+fxsr,+mmx,+sse,+sse2,+x87" "tune-cpu"="generic" }
attributes #2 = { nounwind }
attributes #3 = { nounwind "frame-pointer"="all" "no-trapping-math"="true" "stack-protector-buffer-size"="8" "target-cpu"="x86-64" "target-features"="+cx8,+fxsr,+mmx,+sse,+sse2,+x87" "tune-cpu"="generic" }
attributes #4 = { mustprogress noinline nounwind uwtable "frame-pointer"="all" "min-legal-vector-width"="0" "no-trapping-math"="true" "stack-protector-buffer-size"="8" "target-cpu"="x86-64" "target-features"="+cx8,+fxsr,+mmx,+sse,+sse2,+x87" "tune-cpu"="generic" }
attributes #5 = { mustprogress noinline norecurse uwtable "frame-pointer"="all" "min-legal-vector-width"="0" "no-trapping-math"="true" "stack-protector-buffer-size"="8" "target-cpu"="x86-64" "target-features"="+cx8,+fxsr,+mmx,+sse,+sse2,+x87" "tune-cpu"="generic" }

!llvm.ident = !{!0}
!llvm.module.flags = !{!1, !2, !3}

!0 = !{!"clang version 13.0.0 (https://github.com/llvm/llvm-project.git d7b669b3a30345cfcdb2fde2af6f48aa4b94845d)"}
!1 = !{i32 1, !"wchar_size", i32 4}
!2 = !{i32 7, !"uwtable", i32 1}
!3 = !{i32 7, !"frame-pointer", i32 2}
!4 = !{i64 1}
!5 = !{i64 2}
!6 = !{i64 3}
!7 = !{i64 4}
!8 = !{i64 5}
!9 = !{i64 6}
!10 = !{i64 7}
!11 = !{i64 8}
!12 = !{i64 9}
!13 = !{i64 10}
!14 = !{i64 11}
!15 = !{i64 12}
!16 = !{i64 13}
!17 = !{i64 14}
!18 = !{i64 15}
!19 = !{i64 16}
!20 = !{i64 17}
!21 = !{i64 18}
!22 = !{i64 19}
!23 = !{i64 20}
!24 = !{i64 21}
!25 = !{i64 22}
!26 = !{i64 23}
!27 = !{i64 24}
!28 = !{i64 25}
!29 = !{i64 26}
!30 = !{i64 27}
!31 = !{i64 28}
!32 = !{i64 29}
!33 = !{i64 30}
!34 = !{i64 31}
!35 = !{i64 32}
!36 = !{i64 33}
!37 = !{i64 34}
!38 = !{i64 35}
!39 = !{i64 36}
!40 = !{i64 37}
!41 = !{i64 38}
!42 = !{i64 39}
!43 = !{i64 40}
!44 = !{i64 41}
!45 = !{i64 42}
!46 = !{i64 43}
!47 = !{i64 44}
!48 = !{i64 45}
!49 = !{i64 46}
!50 = !{i64 47}
!51 = !{i64 48}
!52 = !{i64 49}
!53 = !{i64 50}
!54 = !{i64 51}
!55 = !{i64 52}
!56 = !{i64 53}
!57 = !{i64 54}
!58 = !{i64 55}
!59 = !{i64 56}
!60 = !{i64 57}
!61 = !{i64 58}
!62 = !{i64 59}
!63 = !{i64 60}
!64 = !{i64 61}
!65 = !{i64 62}
!66 = !{i64 63}
!67 = !{i64 64}
!68 = !{i64 65}
!69 = !{i64 66}
!70 = !{i64 67}
!71 = !{i64 68}
!72 = !{i64 69}
!73 = !{i64 70}
!74 = !{i64 71}
!75 = !{i64 72}
!76 = !{i64 73}
!77 = !{i64 74}
!78 = !{i64 75}
!79 = !{i64 76}
!80 = !{i64 77}
!81 = !{i64 78}
!82 = !{i64 79}
!83 = !{i64 80}
!84 = !{i64 81}
!85 = !{i64 82}
!86 = !{i64 83}
!87 = !{i64 84}
!88 = !{i64 85}
!89 = !{i64 86}
!90 = !{i64 87}
!91 = !{i64 88}
!92 = !{i64 89}
!93 = !{i64 90}
!94 = !{i64 91}
!95 = !{i64 92}
!96 = !{i64 93}
!97 = !{i64 94}
!98 = !{i64 95}
!99 = !{i64 96}
!100 = !{i64 97}
!101 = !{i64 98}
!102 = !{i64 99}
!103 = !{i64 100}
!104 = !{i64 101}
!105 = !{i64 102}
!106 = !{i64 103}
!107 = !{i64 104}
!108 = !{i64 105}
!109 = !{i64 106}
!110 = !{i64 107}
!111 = !{i64 108}
!112 = !{i64 109}
!113 = !{i64 110}
!114 = !{i64 111}
!115 = !{i64 112}
!116 = !{i64 113}
!117 = !{i64 114}
!118 = !{i64 115}
!119 = !{i64 116}
!120 = !{i64 117}
!121 = !{i64 118}
!122 = !{i64 119}
!123 = !{i64 120}
!124 = !{i64 121}
!125 = !{i64 122}
!126 = !{i64 123}
!127 = !{i64 124}
!128 = !{i64 125}
!129 = !{i64 126}
!130 = !{i64 127}
!131 = !{i64 128}
!132 = !{i64 129}
!133 = !{i64 130}
!134 = !{i64 131}
!135 = !{i64 132}
!136 = !{i64 133}
!137 = !{i64 134}
!138 = !{i64 135}
!139 = !{i64 136}
!140 = !{i64 137}
!141 = !{i64 138}
!142 = !{i64 139}
!143 = !{i64 140}
!144 = !{i64 141}
!145 = !{i64 142}
!146 = !{i64 143}
!147 = !{i64 144}
!148 = !{i64 145}
!149 = !{i64 146}
!150 = !{i64 147}
!151 = !{i64 148}
!152 = !{i64 149}
!153 = !{i64 150}
!154 = !{i64 151}
!155 = !{i64 152}
!156 = !{i64 153}
!157 = !{i64 154}
!158 = !{i64 155}
!159 = !{i64 156}
!160 = !{i64 157}
!161 = !{i64 158}
!162 = !{i64 159}
!163 = !{i64 160}
!164 = !{i64 161}
!165 = !{i64 162}
!166 = !{i64 163}
!167 = !{i64 164}
!168 = !{i64 165}
!169 = !{i64 166}
!170 = !{i64 167}
!171 = !{i64 168}
!172 = !{i64 169}
!173 = !{i64 170}
!174 = !{i64 171}
!175 = !{i64 172}
!176 = !{i64 173}
!177 = !{i64 174}
!178 = !{i64 175}
!179 = !{i64 176}
!180 = !{i64 177}
!181 = !{i64 178}
!182 = !{i64 179}
!183 = !{i64 180}
!184 = !{i64 181}
!185 = !{i64 182}
!186 = !{i64 183}
!187 = !{i64 184}
!188 = !{i64 185}
!189 = !{i64 186}
!190 = !{i64 187}
!191 = !{i64 188}
!192 = !{i64 189}
!193 = !{i64 190}
!194 = !{i64 191}
!195 = !{i64 192}
!196 = !{i64 193}
!197 = !{i64 194}
!198 = !{i64 195}
!199 = !{i64 196}
!200 = !{i64 197}
!201 = !{i64 198}
!202 = !{i64 199}
!203 = !{i64 200}
!204 = !{i64 201}
!205 = !{i64 202}
!206 = !{i64 203}
!207 = !{i64 204}
!208 = !{i64 205}
!209 = !{i64 206}
!210 = !{i64 207}
!211 = !{i64 208}
!212 = !{i64 209}
!213 = !{i64 210}
!214 = !{i64 211}
!215 = !{i64 212}
!216 = !{i64 213}
!217 = !{i64 214}
!218 = !{i64 215}
!219 = !{i64 216}
!220 = !{i64 217}
!221 = !{i64 218}
!222 = !{i64 219}
!223 = !{i64 220}
!224 = !{i64 221}
!225 = !{i64 222}
!226 = !{i64 223}
!227 = !{i64 224}
!228 = !{i64 225}
!229 = !{i64 226}
!230 = !{i64 227}
!231 = !{i64 228}
!232 = !{i64 229}
!233 = !{i64 230}
!234 = !{i64 231}
!235 = !{i64 232}
!236 = !{i64 233}
!237 = !{i64 234}
!238 = !{i64 235}
!239 = !{i64 236}
!240 = !{i64 237}
!241 = !{i64 238}
!242 = !{i64 239}
!243 = !{i64 240}
!244 = !{i64 241}
!245 = !{i64 242}
!246 = !{i64 243}
!247 = !{i64 244}
!248 = !{i64 245}
!249 = !{i64 246}
!250 = !{i64 247}
!251 = !{i64 248}
!252 = !{i64 249}
!253 = !{i64 250}
!254 = !{i64 251}
!255 = !{i64 252}
!256 = !{i64 253}
!257 = !{i64 254}
!258 = !{i64 255}
!259 = !{i64 256}
!260 = !{i64 257}
!261 = !{i64 258}
!262 = !{i64 259}
!263 = !{i64 260}
!264 = !{i64 261}
!265 = !{i64 262}
!266 = !{i64 263}
!267 = !{i64 264}
!268 = !{i64 265}
!269 = !{i64 266}
!270 = !{i64 267}
!271 = !{i64 268}
!272 = !{i64 269}
