; ModuleID = '/home/hjiang/Computation-Kernel-Dataset/experiments/Fault_injection_0308_parall/O0/SuffixRotation/SuffixRotation.ll'
source_filename = "llvm-link"
target datalayout = "e-m:e-p270:32:32-p271:32:32-p272:64:64-i64:64-f80:128-n8:16:32:64-S128"
target triple = "x86_64-unknown-linux-gnu"

%"class.std::allocator.0" = type { i8 }
%"class.std::__cxx11::basic_string" = type { %"struct.std::__cxx11::basic_string<char>::_Alloc_hider", i64, %union.anon }
%"struct.std::__cxx11::basic_string<char>::_Alloc_hider" = type { i8* }
%union.anon = type { i64, [8 x i8] }
%"class.std::vector" = type { %"struct.std::_Vector_base" }
%"struct.std::_Vector_base" = type { %"struct.std::_Vector_base<int, std::allocator<int>>::_Vector_impl" }
%"struct.std::_Vector_base<int, std::allocator<int>>::_Vector_impl" = type { %"struct.std::_Vector_base<int, std::allocator<int>>::_Vector_impl_data" }
%"struct.std::_Vector_base<int, std::allocator<int>>::_Vector_impl_data" = type { i32*, i32*, i32* }
%struct._IO_FILE = type { i32, i8*, i8*, i8*, i8*, i8*, i8*, i8*, i8*, i8*, i8*, i8*, %struct._IO_marker*, %struct._IO_FILE*, i32, i32, i64, i16, i8, [1 x i8], i8*, i64, %struct._IO_codecvt*, %struct._IO_wide_data*, %struct._IO_FILE*, i8*, i64, i32, [20 x i8] }
%struct._IO_marker = type opaque
%struct._IO_codecvt = type opaque
%struct._IO_wide_data = type opaque
%"class.std::basic_istream" = type { i32 (...)**, i64, %"class.std::basic_ios" }
%"class.std::basic_ios" = type { %"class.std::ios_base", %"class.std::basic_ostream"*, i8, i8, %"class.std::basic_streambuf"*, %"class.std::ctype"*, %"class.std::num_put"*, %"class.std::num_put"* }
%"class.std::ios_base" = type { i32 (...)**, i64, i64, i32, i32, i32, %"struct.std::ios_base::_Callback_list"*, %"struct.std::ios_base::_Words", [8 x %"struct.std::ios_base::_Words"], i32, %"struct.std::ios_base::_Words"*, %"class.std::locale" }
%"struct.std::ios_base::_Callback_list" = type { %"struct.std::ios_base::_Callback_list"*, void (i32, %"class.std::ios_base"*, i32)*, i32, i32 }
%"struct.std::ios_base::_Words" = type { i8*, i64 }
%"class.std::locale" = type { %"class.std::locale::_Impl"* }
%"class.std::locale::_Impl" = type { i32, %"class.std::locale::facet"**, i64, %"class.std::locale::facet"**, i8** }
%"class.std::locale::facet" = type <{ i32 (...)**, i32, [4 x i8] }>
%"class.std::basic_ostream" = type { i32 (...)**, %"class.std::basic_ios" }
%"class.std::basic_streambuf" = type { i32 (...)**, i8*, i8*, i8*, i8*, i8*, i8*, %"class.std::locale" }
%"class.std::ctype" = type <{ %"class.std::locale::facet.base", [4 x i8], %struct.__locale_struct*, i8, [7 x i8], i32*, i32*, i16*, i8, [256 x i8], [256 x i8], i8, [6 x i8] }>
%"class.std::locale::facet.base" = type <{ i32 (...)**, i32 }>
%struct.__locale_struct = type { [13 x %struct.__locale_data*], i16*, i32*, i32*, [13 x i8*] }
%struct.__locale_data = type opaque
%"class.std::num_put" = type { %"class.std::locale::facet.base", [4 x i8] }
%"class.__gnu_cxx::__normal_iterator" = type { i32* }

$_ZNSt6vectorIiSaIiEEC2Ev = comdat any

$_ZNSt6vectorIiSaIiEED2Ev = comdat any

$_ZNSt12_Vector_baseIiSaIiEE19_M_get_Tp_allocatorEv = comdat any

$_ZSt8_DestroyIPiiEvT_S1_RSaIT0_E = comdat any

$_ZNSt12_Vector_baseIiSaIiEED2Ev = comdat any

$__clang_call_terminate = comdat any

$_ZNSt12_Vector_baseIiSaIiEE13_M_deallocateEPim = comdat any

$_ZNSt12_Vector_baseIiSaIiEE12_Vector_implD2Ev = comdat any

$_ZNSaIiED2Ev = comdat any

$_ZN9__gnu_cxx13new_allocatorIiED2Ev = comdat any

$_ZNSt16allocator_traitsISaIiEE10deallocateERS0_Pim = comdat any

$_ZN9__gnu_cxx13new_allocatorIiE10deallocateEPim = comdat any

$_ZSt8_DestroyIPiEvT_S1_ = comdat any

$_ZNSt12_Destroy_auxILb1EE9__destroyIPiEEvT_S3_ = comdat any

$_ZNSt12_Vector_baseIiSaIiEEC2Ev = comdat any

$_ZNSt12_Vector_baseIiSaIiEE12_Vector_implC2Ev = comdat any

$_ZNSaIiEC2Ev = comdat any

$_ZNSt12_Vector_baseIiSaIiEE17_Vector_impl_dataC2Ev = comdat any

$_ZN9__gnu_cxx13new_allocatorIiEC2Ev = comdat any

$_ZNKSt6vectorIiSaIiEE4sizeEv = comdat any

$_ZNSt6vectorIiSaIiEEixEm = comdat any

$_ZSt3minIiERKT_S2_S2_ = comdat any

$_ZNSt6vectorIiSaIiEE5clearEv = comdat any

$_ZNSt6vectorIiSaIiEE9push_backERKi = comdat any

$_ZNSt16allocator_traitsISaIiEE9constructIiJRKiEEEvRS0_PT_DpOT0_ = comdat any

$_ZNSt6vectorIiSaIiEE3endEv = comdat any

$_ZNSt6vectorIiSaIiEE17_M_realloc_insertIJRKiEEEvN9__gnu_cxx17__normal_iteratorIPiS1_EEDpOT_ = comdat any

$_ZNKSt6vectorIiSaIiEE12_M_check_lenEmPKc = comdat any

$_ZNSt6vectorIiSaIiEE5beginEv = comdat any

$_ZN9__gnu_cxxmiIPiSt6vectorIiSaIiEEEENS_17__normal_iteratorIT_T0_E15difference_typeERKS8_SB_ = comdat any

$_ZNSt12_Vector_baseIiSaIiEE11_M_allocateEm = comdat any

$_ZSt7forwardIRKiEOT_RNSt16remove_referenceIS2_E4typeE = comdat any

$_ZNK9__gnu_cxx17__normal_iteratorIPiSt6vectorIiSaIiEEE4baseEv = comdat any

$_ZNSt6vectorIiSaIiEE11_S_relocateEPiS2_S2_RS0_ = comdat any

$_ZNSt6vectorIiSaIiEE14_S_do_relocateEPiS2_S2_RS0_St17integral_constantIbLb1EE = comdat any

$_ZSt12__relocate_aIPiS0_SaIiEET0_T_S3_S2_RT1_ = comdat any

$_ZSt12__niter_baseIPiET_S1_ = comdat any

$_ZSt14__relocate_a_1IiiENSt9enable_ifIXsr3std24__is_bitwise_relocatableIT_EE5valueEPS1_E4typeES2_S2_S2_RSaIT0_E = comdat any

$_ZNSt16allocator_traitsISaIiEE8allocateERS0_m = comdat any

$_ZN9__gnu_cxx13new_allocatorIiE8allocateEmPKv = comdat any

$_ZNK9__gnu_cxx13new_allocatorIiE8max_sizeEv = comdat any

$_ZN9__gnu_cxx17__normal_iteratorIPiSt6vectorIiSaIiEEEC2ERKS1_ = comdat any

$_ZNKSt6vectorIiSaIiEE8max_sizeEv = comdat any

$_ZSt3maxImERKT_S2_S2_ = comdat any

$_ZNKSt12_Vector_baseIiSaIiEE19_M_get_Tp_allocatorEv = comdat any

$_ZNSt6vectorIiSaIiEE11_S_max_sizeERKS0_ = comdat any

$_ZNSt16allocator_traitsISaIiEE8max_sizeERKS0_ = comdat any

$_ZSt3minImERKT_S2_S2_ = comdat any

$_ZN9__gnu_cxx13new_allocatorIiE9constructIiJRKiEEEvPT_DpOT0_ = comdat any

$_ZNSt6vectorIiSaIiEE15_M_erase_at_endEPi = comdat any

@llvm.global_ctors = appending global [1 x { i32, void ()*, i8* }] [{ i32, void ()*, i8* } { i32 65535, void ()* @_GLOBAL__sub_I_SuffixRotation.cpp, i8* null }]
@_ZStL8__ioinit = internal global %"class.std::allocator.0" zeroinitializer, align 1
@d = dso_local global [32 x [1024 x i32]] zeroinitializer, align 16
@_Z2scB5cxx11 = dso_local global [32 x %"class.std::__cxx11::basic_string"] zeroinitializer, align 16
@ng = dso_local global [32 x i32] zeroinitializer, align 16
@nci = dso_local global [32 x [1024 x i32]] zeroinitializer, align 16
@p = dso_local global [32 x %"class.std::vector"] zeroinitializer, align 16
@tk = dso_local global i32 0, align 4
@tio = dso_local global i32 0, align 4
@.str = private unnamed_addr constant [30 x i8] c"../input_files/SuffixRotation\00", align 1
@.str.4 = private unnamed_addr constant [2 x i8] c"r\00", align 1
@stdin = external dso_local global %struct._IO_FILE*, align 8
@_ZSt3cin = external dso_local global %"class.std::basic_istream", align 8
@_ZSt4cout = external dso_local global %"class.std::basic_ostream", align 8
@.str.5 = private unnamed_addr constant [2 x i8] c"\0A\00", align 1
@.str.6 = private unnamed_addr constant [26 x i8] c"vector::_M_realloc_insert\00", align 1

; Function Attrs: noinline uwtable
define internal void @_GLOBAL__sub_I_SuffixRotation.cpp() #0 section ".text.startup" {
  call void @__cxx_global_var_init(), !llfi_index !4
  call void @__cxx_global_var_init.1(), !llfi_index !5
  call void @__cxx_global_var_init.2(), !llfi_index !6
  ret void, !llfi_index !7
}

; Function Attrs: noinline uwtable
define internal void @__cxx_global_var_init() #0 section ".text.startup" {
  call void @_ZNSt8ios_base4InitC1Ev(%"class.std::allocator.0"* nonnull align 1 dereferenceable(1) @_ZStL8__ioinit), !llfi_index !8
  %1 = call i32 @atexit(void ()* @__dtor__ZStL8__ioinit) #2, !llfi_index !9
  ret void, !llfi_index !10
}

; Function Attrs: noinline uwtable
define internal void @__cxx_global_var_init.1() #0 section ".text.startup" {
  br label %1, !llfi_index !11

1:                                                ; preds = %1, %0
  %2 = phi %"class.std::__cxx11::basic_string"* [ getelementptr inbounds ([32 x %"class.std::__cxx11::basic_string"], [32 x %"class.std::__cxx11::basic_string"]* @_Z2scB5cxx11, i32 0, i32 0), %0 ], [ %3, %1 ], !llfi_index !12
  call void @_ZNSt7__cxx1112basic_stringIcSt11char_traitsIcESaIcEEC1Ev(%"class.std::__cxx11::basic_string"* nonnull align 8 dereferenceable(32) %2) #2, !llfi_index !13
  %3 = getelementptr inbounds %"class.std::__cxx11::basic_string", %"class.std::__cxx11::basic_string"* %2, i64 1, !llfi_index !14
  %4 = icmp eq %"class.std::__cxx11::basic_string"* %3, getelementptr inbounds (%"class.std::__cxx11::basic_string", %"class.std::__cxx11::basic_string"* getelementptr inbounds ([32 x %"class.std::__cxx11::basic_string"], [32 x %"class.std::__cxx11::basic_string"]* @_Z2scB5cxx11, i32 0, i32 0), i64 32), !llfi_index !15
  br i1 %4, label %5, label %1, !llfi_index !16

5:                                                ; preds = %1
  %6 = call i32 @atexit(void ()* @__dtor__Z2scB5cxx11) #2, !llfi_index !17
  ret void, !llfi_index !18
}

; Function Attrs: noinline uwtable
define internal void @__cxx_global_var_init.2() #0 section ".text.startup" {
  br label %1, !llfi_index !19

1:                                                ; preds = %1, %0
  %2 = phi %"class.std::vector"* [ getelementptr inbounds ([32 x %"class.std::vector"], [32 x %"class.std::vector"]* @p, i32 0, i32 0), %0 ], [ %3, %1 ], !llfi_index !20
  call void @_ZNSt6vectorIiSaIiEEC2Ev(%"class.std::vector"* nonnull align 8 dereferenceable(24) %2) #2, !llfi_index !21
  %3 = getelementptr inbounds %"class.std::vector", %"class.std::vector"* %2, i64 1, !llfi_index !22
  %4 = icmp eq %"class.std::vector"* %3, getelementptr inbounds (%"class.std::vector", %"class.std::vector"* getelementptr inbounds ([32 x %"class.std::vector"], [32 x %"class.std::vector"]* @p, i32 0, i32 0), i64 32), !llfi_index !23
  br i1 %4, label %5, label %1, !llfi_index !24

5:                                                ; preds = %1
  %6 = call i32 @atexit(void ()* @__dtor_p) #2, !llfi_index !25
  ret void, !llfi_index !26
}

; Function Attrs: noinline nounwind uwtable
define linkonce_odr dso_local void @_ZNSt6vectorIiSaIiEEC2Ev(%"class.std::vector"* nonnull align 8 dereferenceable(24) %0) unnamed_addr #1 comdat align 2 {
  %2 = alloca %"class.std::vector"*, align 8, !llfi_index !27
  store %"class.std::vector"* %0, %"class.std::vector"** %2, align 8, !llfi_index !28
  %3 = load %"class.std::vector"*, %"class.std::vector"** %2, align 8, !llfi_index !29
  %4 = bitcast %"class.std::vector"* %3 to %"struct.std::_Vector_base"*, !llfi_index !30
  call void @_ZNSt12_Vector_baseIiSaIiEEC2Ev(%"struct.std::_Vector_base"* nonnull align 8 dereferenceable(24) %4) #2, !llfi_index !31
  ret void, !llfi_index !32
}

; Function Attrs: noinline uwtable
define internal void @__dtor_p() #0 section ".text.startup" {
  call void @__cxx_global_array_dtor.3(i8* null), !llfi_index !33
  ret void, !llfi_index !34
}

; Function Attrs: nounwind
declare dso_local i32 @atexit(void ()*) #2

; Function Attrs: noinline uwtable
define internal void @__cxx_global_array_dtor.3(i8* %0) #0 section ".text.startup" {
  %2 = alloca i8*, align 8, !llfi_index !35
  store i8* %0, i8** %2, align 8, !llfi_index !36
  br label %3, !llfi_index !37

3:                                                ; preds = %3, %1
  %4 = phi %"class.std::vector"* [ getelementptr inbounds (%"class.std::vector", %"class.std::vector"* getelementptr inbounds ([32 x %"class.std::vector"], [32 x %"class.std::vector"]* @p, i32 0, i32 0), i64 32), %1 ], [ %5, %3 ], !llfi_index !38
  %5 = getelementptr inbounds %"class.std::vector", %"class.std::vector"* %4, i64 -1, !llfi_index !39
  call void @_ZNSt6vectorIiSaIiEED2Ev(%"class.std::vector"* nonnull align 8 dereferenceable(24) %5) #2, !llfi_index !40
  %6 = icmp eq %"class.std::vector"* %5, getelementptr inbounds ([32 x %"class.std::vector"], [32 x %"class.std::vector"]* @p, i32 0, i32 0), !llfi_index !41
  br i1 %6, label %7, label %3, !llfi_index !42

7:                                                ; preds = %3
  ret void, !llfi_index !43
}

; Function Attrs: noinline nounwind uwtable
define linkonce_odr dso_local void @_ZNSt6vectorIiSaIiEED2Ev(%"class.std::vector"* nonnull align 8 dereferenceable(24) %0) unnamed_addr #1 comdat align 2 personality i8* bitcast (i32 (...)* @__gxx_personality_v0 to i8*) {
  %2 = alloca %"class.std::vector"*, align 8, !llfi_index !44
  %3 = alloca i8*, align 8, !llfi_index !45
  %4 = alloca i32, align 4, !llfi_index !46
  store %"class.std::vector"* %0, %"class.std::vector"** %2, align 8, !llfi_index !47
  %5 = load %"class.std::vector"*, %"class.std::vector"** %2, align 8, !llfi_index !48
  %6 = bitcast %"class.std::vector"* %5 to %"struct.std::_Vector_base"*, !llfi_index !49
  %7 = getelementptr inbounds %"struct.std::_Vector_base", %"struct.std::_Vector_base"* %6, i32 0, i32 0, !llfi_index !50
  %8 = bitcast %"struct.std::_Vector_base<int, std::allocator<int>>::_Vector_impl"* %7 to %"struct.std::_Vector_base<int, std::allocator<int>>::_Vector_impl_data"*, !llfi_index !51
  %9 = getelementptr inbounds %"struct.std::_Vector_base<int, std::allocator<int>>::_Vector_impl_data", %"struct.std::_Vector_base<int, std::allocator<int>>::_Vector_impl_data"* %8, i32 0, i32 0, !llfi_index !52
  %10 = load i32*, i32** %9, align 8, !llfi_index !53
  %11 = bitcast %"class.std::vector"* %5 to %"struct.std::_Vector_base"*, !llfi_index !54
  %12 = getelementptr inbounds %"struct.std::_Vector_base", %"struct.std::_Vector_base"* %11, i32 0, i32 0, !llfi_index !55
  %13 = bitcast %"struct.std::_Vector_base<int, std::allocator<int>>::_Vector_impl"* %12 to %"struct.std::_Vector_base<int, std::allocator<int>>::_Vector_impl_data"*, !llfi_index !56
  %14 = getelementptr inbounds %"struct.std::_Vector_base<int, std::allocator<int>>::_Vector_impl_data", %"struct.std::_Vector_base<int, std::allocator<int>>::_Vector_impl_data"* %13, i32 0, i32 1, !llfi_index !57
  %15 = load i32*, i32** %14, align 8, !llfi_index !58
  %16 = bitcast %"class.std::vector"* %5 to %"struct.std::_Vector_base"*, !llfi_index !59
  %17 = call nonnull align 1 dereferenceable(1) %"class.std::allocator.0"* @_ZNSt12_Vector_baseIiSaIiEE19_M_get_Tp_allocatorEv(%"struct.std::_Vector_base"* nonnull align 8 dereferenceable(24) %16) #2, !llfi_index !60
  invoke void @_ZSt8_DestroyIPiiEvT_S1_RSaIT0_E(i32* %10, i32* %15, %"class.std::allocator.0"* nonnull align 1 dereferenceable(1) %17)
          to label %18 unwind label %20, !llfi_index !61

18:                                               ; preds = %1
  %19 = bitcast %"class.std::vector"* %5 to %"struct.std::_Vector_base"*, !llfi_index !62
  call void @_ZNSt12_Vector_baseIiSaIiEED2Ev(%"struct.std::_Vector_base"* nonnull align 8 dereferenceable(24) %19) #2, !llfi_index !63
  ret void, !llfi_index !64

20:                                               ; preds = %1
  %21 = landingpad { i8*, i32 }
          catch i8* null, !llfi_index !65
  %22 = extractvalue { i8*, i32 } %21, 0, !llfi_index !66
  store i8* %22, i8** %3, align 8, !llfi_index !67
  %23 = extractvalue { i8*, i32 } %21, 1, !llfi_index !68
  store i32 %23, i32* %4, align 4, !llfi_index !69
  %24 = bitcast %"class.std::vector"* %5 to %"struct.std::_Vector_base"*, !llfi_index !70
  call void @_ZNSt12_Vector_baseIiSaIiEED2Ev(%"struct.std::_Vector_base"* nonnull align 8 dereferenceable(24) %24) #2, !llfi_index !71
  br label %25, !llfi_index !72

25:                                               ; preds = %20
  %26 = load i8*, i8** %3, align 8, !llfi_index !73
  call void @__clang_call_terminate(i8* %26) #13, !llfi_index !74
  unreachable, !llfi_index !75
}

declare dso_local i32 @__gxx_personality_v0(...)

; Function Attrs: mustprogress noinline nounwind uwtable
define linkonce_odr dso_local nonnull align 1 dereferenceable(1) %"class.std::allocator.0"* @_ZNSt12_Vector_baseIiSaIiEE19_M_get_Tp_allocatorEv(%"struct.std::_Vector_base"* nonnull align 8 dereferenceable(24) %0) #3 comdat align 2 {
  %2 = alloca %"struct.std::_Vector_base"*, align 8, !llfi_index !76
  store %"struct.std::_Vector_base"* %0, %"struct.std::_Vector_base"** %2, align 8, !llfi_index !77
  %3 = load %"struct.std::_Vector_base"*, %"struct.std::_Vector_base"** %2, align 8, !llfi_index !78
  %4 = getelementptr inbounds %"struct.std::_Vector_base", %"struct.std::_Vector_base"* %3, i32 0, i32 0, !llfi_index !79
  %5 = bitcast %"struct.std::_Vector_base<int, std::allocator<int>>::_Vector_impl"* %4 to %"class.std::allocator.0"*, !llfi_index !80
  ret %"class.std::allocator.0"* %5, !llfi_index !81
}

; Function Attrs: mustprogress noinline uwtable
define linkonce_odr dso_local void @_ZSt8_DestroyIPiiEvT_S1_RSaIT0_E(i32* %0, i32* %1, %"class.std::allocator.0"* nonnull align 1 dereferenceable(1) %2) #4 comdat {
  %4 = alloca i32*, align 8, !llfi_index !82
  %5 = alloca i32*, align 8, !llfi_index !83
  %6 = alloca %"class.std::allocator.0"*, align 8, !llfi_index !84
  store i32* %0, i32** %4, align 8, !llfi_index !85
  store i32* %1, i32** %5, align 8, !llfi_index !86
  store %"class.std::allocator.0"* %2, %"class.std::allocator.0"** %6, align 8, !llfi_index !87
  %7 = load i32*, i32** %4, align 8, !llfi_index !88
  %8 = load i32*, i32** %5, align 8, !llfi_index !89
  call void @_ZSt8_DestroyIPiEvT_S1_(i32* %7, i32* %8), !llfi_index !90
  ret void, !llfi_index !91
}

; Function Attrs: noinline nounwind uwtable
define linkonce_odr dso_local void @_ZNSt12_Vector_baseIiSaIiEED2Ev(%"struct.std::_Vector_base"* nonnull align 8 dereferenceable(24) %0) unnamed_addr #1 comdat align 2 personality i8* bitcast (i32 (...)* @__gxx_personality_v0 to i8*) {
  %2 = alloca %"struct.std::_Vector_base"*, align 8, !llfi_index !92
  %3 = alloca i8*, align 8, !llfi_index !93
  %4 = alloca i32, align 4, !llfi_index !94
  store %"struct.std::_Vector_base"* %0, %"struct.std::_Vector_base"** %2, align 8, !llfi_index !95
  %5 = load %"struct.std::_Vector_base"*, %"struct.std::_Vector_base"** %2, align 8, !llfi_index !96
  %6 = getelementptr inbounds %"struct.std::_Vector_base", %"struct.std::_Vector_base"* %5, i32 0, i32 0, !llfi_index !97
  %7 = bitcast %"struct.std::_Vector_base<int, std::allocator<int>>::_Vector_impl"* %6 to %"struct.std::_Vector_base<int, std::allocator<int>>::_Vector_impl_data"*, !llfi_index !98
  %8 = getelementptr inbounds %"struct.std::_Vector_base<int, std::allocator<int>>::_Vector_impl_data", %"struct.std::_Vector_base<int, std::allocator<int>>::_Vector_impl_data"* %7, i32 0, i32 0, !llfi_index !99
  %9 = load i32*, i32** %8, align 8, !llfi_index !100
  %10 = getelementptr inbounds %"struct.std::_Vector_base", %"struct.std::_Vector_base"* %5, i32 0, i32 0, !llfi_index !101
  %11 = bitcast %"struct.std::_Vector_base<int, std::allocator<int>>::_Vector_impl"* %10 to %"struct.std::_Vector_base<int, std::allocator<int>>::_Vector_impl_data"*, !llfi_index !102
  %12 = getelementptr inbounds %"struct.std::_Vector_base<int, std::allocator<int>>::_Vector_impl_data", %"struct.std::_Vector_base<int, std::allocator<int>>::_Vector_impl_data"* %11, i32 0, i32 2, !llfi_index !103
  %13 = load i32*, i32** %12, align 8, !llfi_index !104
  %14 = getelementptr inbounds %"struct.std::_Vector_base", %"struct.std::_Vector_base"* %5, i32 0, i32 0, !llfi_index !105
  %15 = bitcast %"struct.std::_Vector_base<int, std::allocator<int>>::_Vector_impl"* %14 to %"struct.std::_Vector_base<int, std::allocator<int>>::_Vector_impl_data"*, !llfi_index !106
  %16 = getelementptr inbounds %"struct.std::_Vector_base<int, std::allocator<int>>::_Vector_impl_data", %"struct.std::_Vector_base<int, std::allocator<int>>::_Vector_impl_data"* %15, i32 0, i32 0, !llfi_index !107
  %17 = load i32*, i32** %16, align 8, !llfi_index !108
  %18 = ptrtoint i32* %13 to i64, !llfi_index !109
  %19 = ptrtoint i32* %17 to i64, !llfi_index !110
  %20 = sub i64 %18, %19, !llfi_index !111
  %21 = sdiv exact i64 %20, 4, !llfi_index !112
  invoke void @_ZNSt12_Vector_baseIiSaIiEE13_M_deallocateEPim(%"struct.std::_Vector_base"* nonnull align 8 dereferenceable(24) %5, i32* %9, i64 %21)
          to label %22 unwind label %24, !llfi_index !113

22:                                               ; preds = %1
  %23 = getelementptr inbounds %"struct.std::_Vector_base", %"struct.std::_Vector_base"* %5, i32 0, i32 0, !llfi_index !114
  call void @_ZNSt12_Vector_baseIiSaIiEE12_Vector_implD2Ev(%"struct.std::_Vector_base<int, std::allocator<int>>::_Vector_impl"* nonnull align 8 dereferenceable(24) %23) #2, !llfi_index !115
  ret void, !llfi_index !116

24:                                               ; preds = %1
  %25 = landingpad { i8*, i32 }
          catch i8* null, !llfi_index !117
  %26 = extractvalue { i8*, i32 } %25, 0, !llfi_index !118
  store i8* %26, i8** %3, align 8, !llfi_index !119
  %27 = extractvalue { i8*, i32 } %25, 1, !llfi_index !120
  store i32 %27, i32* %4, align 4, !llfi_index !121
  %28 = getelementptr inbounds %"struct.std::_Vector_base", %"struct.std::_Vector_base"* %5, i32 0, i32 0, !llfi_index !122
  call void @_ZNSt12_Vector_baseIiSaIiEE12_Vector_implD2Ev(%"struct.std::_Vector_base<int, std::allocator<int>>::_Vector_impl"* nonnull align 8 dereferenceable(24) %28) #2, !llfi_index !123
  br label %29, !llfi_index !124

29:                                               ; preds = %24
  %30 = load i8*, i8** %3, align 8, !llfi_index !125
  call void @__clang_call_terminate(i8* %30) #13, !llfi_index !126
  unreachable, !llfi_index !127
}

; Function Attrs: noinline noreturn nounwind
define linkonce_odr hidden void @__clang_call_terminate(i8* %0) #5 comdat {
  %2 = call i8* @__cxa_begin_catch(i8* %0) #2, !llfi_index !128
  call void @_ZSt9terminatev() #13, !llfi_index !129
  unreachable, !llfi_index !130
}

declare dso_local i8* @__cxa_begin_catch(i8*)

declare dso_local void @_ZSt9terminatev()

; Function Attrs: mustprogress noinline uwtable
define linkonce_odr dso_local void @_ZNSt12_Vector_baseIiSaIiEE13_M_deallocateEPim(%"struct.std::_Vector_base"* nonnull align 8 dereferenceable(24) %0, i32* %1, i64 %2) #4 comdat align 2 {
  %4 = alloca %"struct.std::_Vector_base"*, align 8, !llfi_index !131
  %5 = alloca i32*, align 8, !llfi_index !132
  %6 = alloca i64, align 8, !llfi_index !133
  store %"struct.std::_Vector_base"* %0, %"struct.std::_Vector_base"** %4, align 8, !llfi_index !134
  store i32* %1, i32** %5, align 8, !llfi_index !135
  store i64 %2, i64* %6, align 8, !llfi_index !136
  %7 = load %"struct.std::_Vector_base"*, %"struct.std::_Vector_base"** %4, align 8, !llfi_index !137
  %8 = load i32*, i32** %5, align 8, !llfi_index !138
  %9 = icmp ne i32* %8, null, !llfi_index !139
  br i1 %9, label %10, label %15, !llfi_index !140

10:                                               ; preds = %3
  %11 = getelementptr inbounds %"struct.std::_Vector_base", %"struct.std::_Vector_base"* %7, i32 0, i32 0, !llfi_index !141
  %12 = bitcast %"struct.std::_Vector_base<int, std::allocator<int>>::_Vector_impl"* %11 to %"class.std::allocator.0"*, !llfi_index !142
  %13 = load i32*, i32** %5, align 8, !llfi_index !143
  %14 = load i64, i64* %6, align 8, !llfi_index !144
  call void @_ZNSt16allocator_traitsISaIiEE10deallocateERS0_Pim(%"class.std::allocator.0"* nonnull align 1 dereferenceable(1) %12, i32* %13, i64 %14), !llfi_index !145
  br label %15, !llfi_index !146

15:                                               ; preds = %10, %3
  ret void, !llfi_index !147
}

; Function Attrs: noinline nounwind uwtable
define linkonce_odr dso_local void @_ZNSt12_Vector_baseIiSaIiEE12_Vector_implD2Ev(%"struct.std::_Vector_base<int, std::allocator<int>>::_Vector_impl"* nonnull align 8 dereferenceable(24) %0) unnamed_addr #1 comdat align 2 {
  %2 = alloca %"struct.std::_Vector_base<int, std::allocator<int>>::_Vector_impl"*, align 8, !llfi_index !148
  store %"struct.std::_Vector_base<int, std::allocator<int>>::_Vector_impl"* %0, %"struct.std::_Vector_base<int, std::allocator<int>>::_Vector_impl"** %2, align 8, !llfi_index !149
  %3 = load %"struct.std::_Vector_base<int, std::allocator<int>>::_Vector_impl"*, %"struct.std::_Vector_base<int, std::allocator<int>>::_Vector_impl"** %2, align 8, !llfi_index !150
  %4 = bitcast %"struct.std::_Vector_base<int, std::allocator<int>>::_Vector_impl"* %3 to %"class.std::allocator.0"*, !llfi_index !151
  call void @_ZNSaIiED2Ev(%"class.std::allocator.0"* nonnull align 1 dereferenceable(1) %4) #2, !llfi_index !152
  ret void, !llfi_index !153
}

; Function Attrs: noinline nounwind uwtable
define linkonce_odr dso_local void @_ZNSaIiED2Ev(%"class.std::allocator.0"* nonnull align 1 dereferenceable(1) %0) unnamed_addr #1 comdat align 2 {
  %2 = alloca %"class.std::allocator.0"*, align 8, !llfi_index !154
  store %"class.std::allocator.0"* %0, %"class.std::allocator.0"** %2, align 8, !llfi_index !155
  %3 = load %"class.std::allocator.0"*, %"class.std::allocator.0"** %2, align 8, !llfi_index !156
  %4 = bitcast %"class.std::allocator.0"* %3 to %"class.std::allocator.0"*, !llfi_index !157
  call void @_ZN9__gnu_cxx13new_allocatorIiED2Ev(%"class.std::allocator.0"* nonnull align 1 dereferenceable(1) %4) #2, !llfi_index !158
  ret void, !llfi_index !159
}

; Function Attrs: noinline nounwind uwtable
define linkonce_odr dso_local void @_ZN9__gnu_cxx13new_allocatorIiED2Ev(%"class.std::allocator.0"* nonnull align 1 dereferenceable(1) %0) unnamed_addr #1 comdat align 2 {
  %2 = alloca %"class.std::allocator.0"*, align 8, !llfi_index !160
  store %"class.std::allocator.0"* %0, %"class.std::allocator.0"** %2, align 8, !llfi_index !161
  %3 = load %"class.std::allocator.0"*, %"class.std::allocator.0"** %2, align 8, !llfi_index !162
  ret void, !llfi_index !163
}

; Function Attrs: mustprogress noinline uwtable
define linkonce_odr dso_local void @_ZNSt16allocator_traitsISaIiEE10deallocateERS0_Pim(%"class.std::allocator.0"* nonnull align 1 dereferenceable(1) %0, i32* %1, i64 %2) #4 comdat align 2 {
  %4 = alloca %"class.std::allocator.0"*, align 8, !llfi_index !164
  %5 = alloca i32*, align 8, !llfi_index !165
  %6 = alloca i64, align 8, !llfi_index !166
  store %"class.std::allocator.0"* %0, %"class.std::allocator.0"** %4, align 8, !llfi_index !167
  store i32* %1, i32** %5, align 8, !llfi_index !168
  store i64 %2, i64* %6, align 8, !llfi_index !169
  %7 = load %"class.std::allocator.0"*, %"class.std::allocator.0"** %4, align 8, !llfi_index !170
  %8 = bitcast %"class.std::allocator.0"* %7 to %"class.std::allocator.0"*, !llfi_index !171
  %9 = load i32*, i32** %5, align 8, !llfi_index !172
  %10 = load i64, i64* %6, align 8, !llfi_index !173
  call void @_ZN9__gnu_cxx13new_allocatorIiE10deallocateEPim(%"class.std::allocator.0"* nonnull align 1 dereferenceable(1) %8, i32* %9, i64 %10), !llfi_index !174
  ret void, !llfi_index !175
}

; Function Attrs: mustprogress noinline nounwind uwtable
define linkonce_odr dso_local void @_ZN9__gnu_cxx13new_allocatorIiE10deallocateEPim(%"class.std::allocator.0"* nonnull align 1 dereferenceable(1) %0, i32* %1, i64 %2) #3 comdat align 2 {
  %4 = alloca %"class.std::allocator.0"*, align 8, !llfi_index !176
  %5 = alloca i32*, align 8, !llfi_index !177
  %6 = alloca i64, align 8, !llfi_index !178
  store %"class.std::allocator.0"* %0, %"class.std::allocator.0"** %4, align 8, !llfi_index !179
  store i32* %1, i32** %5, align 8, !llfi_index !180
  store i64 %2, i64* %6, align 8, !llfi_index !181
  %7 = load %"class.std::allocator.0"*, %"class.std::allocator.0"** %4, align 8, !llfi_index !182
  %8 = load i32*, i32** %5, align 8, !llfi_index !183
  %9 = bitcast i32* %8 to i8*, !llfi_index !184
  call void @_ZdlPv(i8* %9) #2, !llfi_index !185
  ret void, !llfi_index !186
}

; Function Attrs: nobuiltin nounwind
declare dso_local void @_ZdlPv(i8*) #6

; Function Attrs: mustprogress noinline uwtable
define linkonce_odr dso_local void @_ZSt8_DestroyIPiEvT_S1_(i32* %0, i32* %1) #4 comdat {
  %3 = alloca i32*, align 8, !llfi_index !187
  %4 = alloca i32*, align 8, !llfi_index !188
  store i32* %0, i32** %3, align 8, !llfi_index !189
  store i32* %1, i32** %4, align 8, !llfi_index !190
  %5 = load i32*, i32** %3, align 8, !llfi_index !191
  %6 = load i32*, i32** %4, align 8, !llfi_index !192
  call void @_ZNSt12_Destroy_auxILb1EE9__destroyIPiEEvT_S3_(i32* %5, i32* %6), !llfi_index !193
  ret void, !llfi_index !194
}

; Function Attrs: mustprogress noinline nounwind uwtable
define linkonce_odr dso_local void @_ZNSt12_Destroy_auxILb1EE9__destroyIPiEEvT_S3_(i32* %0, i32* %1) #3 comdat align 2 {
  %3 = alloca i32*, align 8, !llfi_index !195
  %4 = alloca i32*, align 8, !llfi_index !196
  store i32* %0, i32** %3, align 8, !llfi_index !197
  store i32* %1, i32** %4, align 8, !llfi_index !198
  ret void, !llfi_index !199
}

; Function Attrs: noinline nounwind uwtable
define linkonce_odr dso_local void @_ZNSt12_Vector_baseIiSaIiEEC2Ev(%"struct.std::_Vector_base"* nonnull align 8 dereferenceable(24) %0) unnamed_addr #1 comdat align 2 {
  %2 = alloca %"struct.std::_Vector_base"*, align 8, !llfi_index !200
  store %"struct.std::_Vector_base"* %0, %"struct.std::_Vector_base"** %2, align 8, !llfi_index !201
  %3 = load %"struct.std::_Vector_base"*, %"struct.std::_Vector_base"** %2, align 8, !llfi_index !202
  %4 = getelementptr inbounds %"struct.std::_Vector_base", %"struct.std::_Vector_base"* %3, i32 0, i32 0, !llfi_index !203
  call void @_ZNSt12_Vector_baseIiSaIiEE12_Vector_implC2Ev(%"struct.std::_Vector_base<int, std::allocator<int>>::_Vector_impl"* nonnull align 8 dereferenceable(24) %4) #2, !llfi_index !204
  ret void, !llfi_index !205
}

; Function Attrs: noinline nounwind uwtable
define linkonce_odr dso_local void @_ZNSt12_Vector_baseIiSaIiEE12_Vector_implC2Ev(%"struct.std::_Vector_base<int, std::allocator<int>>::_Vector_impl"* nonnull align 8 dereferenceable(24) %0) unnamed_addr #1 comdat align 2 {
  %2 = alloca %"struct.std::_Vector_base<int, std::allocator<int>>::_Vector_impl"*, align 8, !llfi_index !206
  store %"struct.std::_Vector_base<int, std::allocator<int>>::_Vector_impl"* %0, %"struct.std::_Vector_base<int, std::allocator<int>>::_Vector_impl"** %2, align 8, !llfi_index !207
  %3 = load %"struct.std::_Vector_base<int, std::allocator<int>>::_Vector_impl"*, %"struct.std::_Vector_base<int, std::allocator<int>>::_Vector_impl"** %2, align 8, !llfi_index !208
  %4 = bitcast %"struct.std::_Vector_base<int, std::allocator<int>>::_Vector_impl"* %3 to %"class.std::allocator.0"*, !llfi_index !209
  call void @_ZNSaIiEC2Ev(%"class.std::allocator.0"* nonnull align 1 dereferenceable(1) %4) #2, !llfi_index !210
  %5 = bitcast %"struct.std::_Vector_base<int, std::allocator<int>>::_Vector_impl"* %3 to %"struct.std::_Vector_base<int, std::allocator<int>>::_Vector_impl_data"*, !llfi_index !211
  call void @_ZNSt12_Vector_baseIiSaIiEE17_Vector_impl_dataC2Ev(%"struct.std::_Vector_base<int, std::allocator<int>>::_Vector_impl_data"* nonnull align 8 dereferenceable(24) %5) #2, !llfi_index !212
  ret void, !llfi_index !213
}

; Function Attrs: noinline nounwind uwtable
define linkonce_odr dso_local void @_ZNSaIiEC2Ev(%"class.std::allocator.0"* nonnull align 1 dereferenceable(1) %0) unnamed_addr #1 comdat align 2 {
  %2 = alloca %"class.std::allocator.0"*, align 8, !llfi_index !214
  store %"class.std::allocator.0"* %0, %"class.std::allocator.0"** %2, align 8, !llfi_index !215
  %3 = load %"class.std::allocator.0"*, %"class.std::allocator.0"** %2, align 8, !llfi_index !216
  %4 = bitcast %"class.std::allocator.0"* %3 to %"class.std::allocator.0"*, !llfi_index !217
  call void @_ZN9__gnu_cxx13new_allocatorIiEC2Ev(%"class.std::allocator.0"* nonnull align 1 dereferenceable(1) %4) #2, !llfi_index !218
  ret void, !llfi_index !219
}

; Function Attrs: noinline nounwind uwtable
define linkonce_odr dso_local void @_ZNSt12_Vector_baseIiSaIiEE17_Vector_impl_dataC2Ev(%"struct.std::_Vector_base<int, std::allocator<int>>::_Vector_impl_data"* nonnull align 8 dereferenceable(24) %0) unnamed_addr #1 comdat align 2 {
  %2 = alloca %"struct.std::_Vector_base<int, std::allocator<int>>::_Vector_impl_data"*, align 8, !llfi_index !220
  store %"struct.std::_Vector_base<int, std::allocator<int>>::_Vector_impl_data"* %0, %"struct.std::_Vector_base<int, std::allocator<int>>::_Vector_impl_data"** %2, align 8, !llfi_index !221
  %3 = load %"struct.std::_Vector_base<int, std::allocator<int>>::_Vector_impl_data"*, %"struct.std::_Vector_base<int, std::allocator<int>>::_Vector_impl_data"** %2, align 8, !llfi_index !222
  %4 = getelementptr inbounds %"struct.std::_Vector_base<int, std::allocator<int>>::_Vector_impl_data", %"struct.std::_Vector_base<int, std::allocator<int>>::_Vector_impl_data"* %3, i32 0, i32 0, !llfi_index !223
  store i32* null, i32** %4, align 8, !llfi_index !224
  %5 = getelementptr inbounds %"struct.std::_Vector_base<int, std::allocator<int>>::_Vector_impl_data", %"struct.std::_Vector_base<int, std::allocator<int>>::_Vector_impl_data"* %3, i32 0, i32 1, !llfi_index !225
  store i32* null, i32** %5, align 8, !llfi_index !226
  %6 = getelementptr inbounds %"struct.std::_Vector_base<int, std::allocator<int>>::_Vector_impl_data", %"struct.std::_Vector_base<int, std::allocator<int>>::_Vector_impl_data"* %3, i32 0, i32 2, !llfi_index !227
  store i32* null, i32** %6, align 8, !llfi_index !228
  ret void, !llfi_index !229
}

; Function Attrs: noinline nounwind uwtable
define linkonce_odr dso_local void @_ZN9__gnu_cxx13new_allocatorIiEC2Ev(%"class.std::allocator.0"* nonnull align 1 dereferenceable(1) %0) unnamed_addr #1 comdat align 2 {
  %2 = alloca %"class.std::allocator.0"*, align 8, !llfi_index !230
  store %"class.std::allocator.0"* %0, %"class.std::allocator.0"** %2, align 8, !llfi_index !231
  %3 = load %"class.std::allocator.0"*, %"class.std::allocator.0"** %2, align 8, !llfi_index !232
  ret void, !llfi_index !233
}

; Function Attrs: nounwind
declare dso_local void @_ZNSt7__cxx1112basic_stringIcSt11char_traitsIcESaIcEEC1Ev(%"class.std::__cxx11::basic_string"* nonnull align 8 dereferenceable(32)) unnamed_addr #7

; Function Attrs: noinline uwtable
define internal void @__dtor__Z2scB5cxx11() #0 section ".text.startup" {
  call void @__cxx_global_array_dtor(i8* null), !llfi_index !234
  ret void, !llfi_index !235
}

; Function Attrs: noinline uwtable
define internal void @__cxx_global_array_dtor(i8* %0) #0 section ".text.startup" {
  %2 = alloca i8*, align 8, !llfi_index !236
  store i8* %0, i8** %2, align 8, !llfi_index !237
  br label %3, !llfi_index !238

3:                                                ; preds = %3, %1
  %4 = phi %"class.std::__cxx11::basic_string"* [ getelementptr inbounds (%"class.std::__cxx11::basic_string", %"class.std::__cxx11::basic_string"* getelementptr inbounds ([32 x %"class.std::__cxx11::basic_string"], [32 x %"class.std::__cxx11::basic_string"]* @_Z2scB5cxx11, i32 0, i32 0), i64 32), %1 ], [ %5, %3 ], !llfi_index !239
  %5 = getelementptr inbounds %"class.std::__cxx11::basic_string", %"class.std::__cxx11::basic_string"* %4, i64 -1, !llfi_index !240
  call void @_ZNSt7__cxx1112basic_stringIcSt11char_traitsIcESaIcEED1Ev(%"class.std::__cxx11::basic_string"* nonnull align 8 dereferenceable(32) %5) #2, !llfi_index !241
  %6 = icmp eq %"class.std::__cxx11::basic_string"* %5, getelementptr inbounds ([32 x %"class.std::__cxx11::basic_string"], [32 x %"class.std::__cxx11::basic_string"]* @_Z2scB5cxx11, i32 0, i32 0), !llfi_index !242
  br i1 %6, label %7, label %3, !llfi_index !243

7:                                                ; preds = %3
  ret void, !llfi_index !244
}

; Function Attrs: nounwind
declare dso_local void @_ZNSt7__cxx1112basic_stringIcSt11char_traitsIcESaIcEED1Ev(%"class.std::__cxx11::basic_string"* nonnull align 8 dereferenceable(32)) unnamed_addr #7

declare dso_local void @_ZNSt8ios_base4InitC1Ev(%"class.std::allocator.0"* nonnull align 1 dereferenceable(1)) unnamed_addr #8

; Function Attrs: noinline uwtable
define internal void @__dtor__ZStL8__ioinit() #0 section ".text.startup" {
  call void @_ZNSt8ios_base4InitD1Ev(%"class.std::allocator.0"* @_ZStL8__ioinit), !llfi_index !245
  ret void, !llfi_index !246
}

; Function Attrs: nounwind
declare dso_local void @_ZNSt8ios_base4InitD1Ev(%"class.std::allocator.0"* nonnull align 1 dereferenceable(1)) unnamed_addr #7

; Function Attrs: mustprogress noinline uwtable
define dso_local signext i8 @_Z2sii(i32 %0) #4 {
  %2 = alloca i32, align 4, !llfi_index !247
  store i32 %0, i32* %2, align 4, !llfi_index !248
  %3 = load i32, i32* @tk, align 4, !llfi_index !249
  %4 = sext i32 %3 to i64, !llfi_index !250
  %5 = getelementptr inbounds [32 x %"class.std::__cxx11::basic_string"], [32 x %"class.std::__cxx11::basic_string"]* @_Z2scB5cxx11, i64 0, i64 %4, !llfi_index !251
  %6 = load i32, i32* @tio, align 4, !llfi_index !252
  %7 = load i32, i32* %2, align 4, !llfi_index !253
  %8 = add nsw i32 %6, %7, !llfi_index !254
  %9 = sext i32 %8 to i64, !llfi_index !255
  %10 = load i32, i32* @tk, align 4, !llfi_index !256
  %11 = sext i32 %10 to i64, !llfi_index !257
  %12 = getelementptr inbounds [32 x %"class.std::__cxx11::basic_string"], [32 x %"class.std::__cxx11::basic_string"]* @_Z2scB5cxx11, i64 0, i64 %11, !llfi_index !258
  %13 = call i64 @_ZNKSt7__cxx1112basic_stringIcSt11char_traitsIcESaIcEE4sizeEv(%"class.std::__cxx11::basic_string"* nonnull align 8 dereferenceable(32) %12) #2, !llfi_index !259
  %14 = urem i64 %9, %13, !llfi_index !260
  %15 = call nonnull align 1 dereferenceable(1) i8* @_ZNSt7__cxx1112basic_stringIcSt11char_traitsIcESaIcEEixEm(%"class.std::__cxx11::basic_string"* nonnull align 8 dereferenceable(32) %5, i64 %14), !llfi_index !261
  %16 = load i8, i8* %15, align 1, !llfi_index !262
  ret i8 %16, !llfi_index !263
}

; Function Attrs: nounwind
declare dso_local i64 @_ZNKSt7__cxx1112basic_stringIcSt11char_traitsIcESaIcEE4sizeEv(%"class.std::__cxx11::basic_string"* nonnull align 8 dereferenceable(32)) #7

declare dso_local nonnull align 1 dereferenceable(1) i8* @_ZNSt7__cxx1112basic_stringIcSt11char_traitsIcESaIcEEixEm(%"class.std::__cxx11::basic_string"* nonnull align 8 dereferenceable(32), i64) #8

; Function Attrs: mustprogress noinline uwtable
define dso_local void @_Z5solveNSt7__cxx1112basic_stringIcSt11char_traitsIcESaIcEEEii(%"class.std::__cxx11::basic_string"* %0, i32 %1, i32 %2) #4 {
  %4 = alloca i32, align 4, !llfi_index !264
  %5 = alloca i32, align 4, !llfi_index !265
  %6 = alloca i32, align 4, !llfi_index !266
  %7 = alloca i32, align 4, !llfi_index !267
  %8 = alloca i8, align 1, !llfi_index !268
  %9 = alloca i32, align 4, !llfi_index !269
  %10 = alloca i32, align 4, !llfi_index !270
  %11 = alloca i8, align 1, !llfi_index !271
  %12 = alloca i32, align 4, !llfi_index !272
  %13 = alloca i32, align 4, !llfi_index !273
  %14 = alloca i32, align 4, !llfi_index !274
  %15 = alloca i32, align 4, !llfi_index !275
  %16 = alloca i32, align 4, !llfi_index !276
  %17 = alloca i8, align 1, !llfi_index !277
  %18 = alloca i32, align 4, !llfi_index !278
  %19 = alloca i32, align 4, !llfi_index !279
  store i32 %1, i32* %4, align 4, !llfi_index !280
  store i32 %2, i32* %5, align 4, !llfi_index !281
  %20 = load i32, i32* %5, align 4, !llfi_index !282
  store i32 %20, i32* @tk, align 4, !llfi_index !283
  %21 = load i32, i32* %4, align 4, !llfi_index !284
  store i32 %21, i32* @tio, align 4, !llfi_index !285
  %22 = call i64 @_ZNKSt7__cxx1112basic_stringIcSt11char_traitsIcESaIcEE4sizeEv(%"class.std::__cxx11::basic_string"* nonnull align 8 dereferenceable(32) %0) #2, !llfi_index !286
  %23 = trunc i64 %22 to i32, !llfi_index !287
  store i32 %23, i32* %6, align 4, !llfi_index !288
  %24 = load i32, i32* %5, align 4, !llfi_index !289
  %25 = add nsw i32 %24, 1, !llfi_index !290
  %26 = sext i32 %25 to i64, !llfi_index !291
  %27 = getelementptr inbounds [32 x %"class.std::__cxx11::basic_string"], [32 x %"class.std::__cxx11::basic_string"]* @_Z2scB5cxx11, i64 0, i64 %26, !llfi_index !292
  %28 = call i64 @_ZNKSt7__cxx1112basic_stringIcSt11char_traitsIcESaIcEE4sizeEv(%"class.std::__cxx11::basic_string"* nonnull align 8 dereferenceable(32) %27) #2, !llfi_index !293
  %29 = trunc i64 %28 to i32, !llfi_index !294
  store i32 %29, i32* %7, align 4, !llfi_index !295
  %30 = load i32, i32* %5, align 4, !llfi_index !296
  %31 = add nsw i32 97, %30, !llfi_index !297
  %32 = trunc i32 %31 to i8, !llfi_index !298
  store i8 %32, i8* %8, align 1, !llfi_index !299
  %33 = load i32, i32* %5, align 4, !llfi_index !300
  %34 = sext i32 %33 to i64, !llfi_index !301
  %35 = getelementptr inbounds [32 x [1024 x i32]], [32 x [1024 x i32]]* @nci, i64 0, i64 %34, !llfi_index !302
  %36 = load i32, i32* %4, align 4, !llfi_index !303
  %37 = sext i32 %36 to i64, !llfi_index !304
  %38 = getelementptr inbounds [1024 x i32], [1024 x i32]* %35, i64 0, i64 %37, !llfi_index !305
  %39 = load i32, i32* %38, align 4, !llfi_index !306
  store i32 %39, i32* %9, align 4, !llfi_index !307
  %40 = load i32, i32* %5, align 4, !llfi_index !308
  %41 = sext i32 %40 to i64, !llfi_index !309
  %42 = getelementptr inbounds [32 x i32], [32 x i32]* @ng, i64 0, i64 %41, !llfi_index !310
  %43 = load i32, i32* %42, align 4, !llfi_index !311
  store i32 %43, i32* %10, align 4, !llfi_index !312
  %44 = call signext i8 @_Z2sii(i32 0), !llfi_index !313
  %45 = sext i8 %44 to i32, !llfi_index !314
  %46 = load i8, i8* %8, align 1, !llfi_index !315
  %47 = sext i8 %46 to i32, !llfi_index !316
  %48 = icmp eq i32 %45, %47, !llfi_index !317
  br i1 %48, label %49, label %57, !llfi_index !318

49:                                               ; preds = %3
  %50 = load i32, i32* %6, align 4, !llfi_index !319
  %51 = sub nsw i32 %50, 1, !llfi_index !320
  %52 = call signext i8 @_Z2sii(i32 %51), !llfi_index !321
  %53 = sext i8 %52 to i32, !llfi_index !322
  %54 = load i8, i8* %8, align 1, !llfi_index !323
  %55 = sext i8 %54 to i32, !llfi_index !324
  %56 = icmp ne i32 %53, %55, !llfi_index !325
  br label %57, !llfi_index !326

57:                                               ; preds = %49, %3
  %58 = phi i1 [ false, %3 ], [ %56, %49 ], !llfi_index !327
  %59 = zext i1 %58 to i8, !llfi_index !328
  store i8 %59, i8* %11, align 1, !llfi_index !329
  store i32 0, i32* %12, align 4, !llfi_index !330
  store i32 0, i32* %13, align 4, !llfi_index !331
  store i32 0, i32* %14, align 4, !llfi_index !332
  br label %60, !llfi_index !333

60:                                               ; preds = %218, %57
  %61 = load i32, i32* %14, align 4, !llfi_index !334
  %62 = sext i32 %61 to i64, !llfi_index !335
  %63 = load i32, i32* %5, align 4, !llfi_index !336
  %64 = sext i32 %63 to i64, !llfi_index !337
  %65 = getelementptr inbounds [32 x %"class.std::vector"], [32 x %"class.std::vector"]* @p, i64 0, i64 %64, !llfi_index !338
  %66 = call i64 @_ZNKSt6vectorIiSaIiEE4sizeEv(%"class.std::vector"* nonnull align 8 dereferenceable(24) %65) #2, !llfi_index !339
  %67 = icmp ult i64 %62, %66, !llfi_index !340
  br i1 %67, label %68, label %221, !llfi_index !341

68:                                               ; preds = %60
  %69 = load i32, i32* %5, align 4, !llfi_index !342
  %70 = sext i32 %69 to i64, !llfi_index !343
  %71 = getelementptr inbounds [32 x %"class.std::vector"], [32 x %"class.std::vector"]* @p, i64 0, i64 %70, !llfi_index !344
  %72 = load i32, i32* %14, align 4, !llfi_index !345
  %73 = sub nsw i32 %72, 1, !llfi_index !346
  %74 = sext i32 %73 to i64, !llfi_index !347
  %75 = load i32, i32* %5, align 4, !llfi_index !348
  %76 = sext i32 %75 to i64, !llfi_index !349
  %77 = getelementptr inbounds [32 x %"class.std::vector"], [32 x %"class.std::vector"]* @p, i64 0, i64 %76, !llfi_index !350
  %78 = call i64 @_ZNKSt6vectorIiSaIiEE4sizeEv(%"class.std::vector"* nonnull align 8 dereferenceable(24) %77) #2, !llfi_index !351
  %79 = add i64 %74, %78, !llfi_index !352
  %80 = load i32, i32* %5, align 4, !llfi_index !353
  %81 = sext i32 %80 to i64, !llfi_index !354
  %82 = getelementptr inbounds [32 x %"class.std::vector"], [32 x %"class.std::vector"]* @p, i64 0, i64 %81, !llfi_index !355
  %83 = call i64 @_ZNKSt6vectorIiSaIiEE4sizeEv(%"class.std::vector"* nonnull align 8 dereferenceable(24) %82) #2, !llfi_index !356
  %84 = urem i64 %79, %83, !llfi_index !357
  %85 = call nonnull align 4 dereferenceable(4) i32* @_ZNSt6vectorIiSaIiEEixEm(%"class.std::vector"* nonnull align 8 dereferenceable(24) %71, i64 %84) #2, !llfi_index !358
  %86 = load i32, i32* %85, align 4, !llfi_index !359
  %87 = load i32, i32* %4, align 4, !llfi_index !360
  %88 = sub nsw i32 %86, %87, !llfi_index !361
  %89 = load i32, i32* %6, align 4, !llfi_index !362
  %90 = add nsw i32 %88, %89, !llfi_index !363
  %91 = load i32, i32* %6, align 4, !llfi_index !364
  %92 = srem i32 %90, %91, !llfi_index !365
  store i32 %92, i32* %15, align 4, !llfi_index !366
  %93 = load i32, i32* %5, align 4, !llfi_index !367
  %94 = sext i32 %93 to i64, !llfi_index !368
  %95 = getelementptr inbounds [32 x %"class.std::vector"], [32 x %"class.std::vector"]* @p, i64 0, i64 %94, !llfi_index !369
  %96 = load i32, i32* %14, align 4, !llfi_index !370
  %97 = sext i32 %96 to i64, !llfi_index !371
  %98 = call nonnull align 4 dereferenceable(4) i32* @_ZNSt6vectorIiSaIiEEixEm(%"class.std::vector"* nonnull align 8 dereferenceable(24) %95, i64 %97) #2, !llfi_index !372
  %99 = load i32, i32* %98, align 4, !llfi_index !373
  %100 = load i32, i32* %4, align 4, !llfi_index !374
  %101 = sub nsw i32 %99, %100, !llfi_index !375
  %102 = load i32, i32* %6, align 4, !llfi_index !376
  %103 = add nsw i32 %101, %102, !llfi_index !377
  %104 = load i32, i32* %6, align 4, !llfi_index !378
  %105 = srem i32 %103, %104, !llfi_index !379
  store i32 %105, i32* %16, align 4, !llfi_index !380
  %106 = load i32, i32* %16, align 4, !llfi_index !381
  %107 = load i32, i32* %15, align 4, !llfi_index !382
  %108 = icmp sle i32 %106, %107, !llfi_index !383
  %109 = zext i1 %108 to i64, !llfi_index !384
  %110 = select i1 %108, i32 0, i32 1, !llfi_index !385
  store i32 %110, i32* %12, align 4, !llfi_index !386
  %111 = load i32, i32* %16, align 4, !llfi_index !387
  %112 = call signext i8 @_Z2sii(i32 %111), !llfi_index !388
  store i8 %112, i8* %17, align 1, !llfi_index !389
  %113 = load i32, i32* %4, align 4, !llfi_index !390
  %114 = load i32, i32* %16, align 4, !llfi_index !391
  %115 = add nsw i32 %113, %114, !llfi_index !392
  %116 = load i32, i32* %6, align 4, !llfi_index !393
  %117 = icmp sle i32 %115, %116, !llfi_index !394
  br i1 %117, label %118, label %136, !llfi_index !395

118:                                              ; preds = %68
  %119 = load i32, i32* %5, align 4, !llfi_index !396
  %120 = sext i32 %119 to i64, !llfi_index !397
  %121 = getelementptr inbounds [32 x [1024 x i32]], [32 x [1024 x i32]]* @nci, i64 0, i64 %120, !llfi_index !398
  %122 = load i32, i32* %16, align 4, !llfi_index !399
  %123 = load i32, i32* %4, align 4, !llfi_index !400
  %124 = add nsw i32 %122, %123, !llfi_index !401
  %125 = sext i32 %124 to i64, !llfi_index !402
  %126 = getelementptr inbounds [1024 x i32], [1024 x i32]* %121, i64 0, i64 %125, !llfi_index !403
  %127 = load i32, i32* %126, align 4, !llfi_index !404
  %128 = load i32, i32* %5, align 4, !llfi_index !405
  %129 = sext i32 %128 to i64, !llfi_index !406
  %130 = getelementptr inbounds [32 x [1024 x i32]], [32 x [1024 x i32]]* @nci, i64 0, i64 %129, !llfi_index !407
  %131 = load i32, i32* %4, align 4, !llfi_index !408
  %132 = sext i32 %131 to i64, !llfi_index !409
  %133 = getelementptr inbounds [1024 x i32], [1024 x i32]* %130, i64 0, i64 %132, !llfi_index !410
  %134 = load i32, i32* %133, align 4, !llfi_index !411
  %135 = sub nsw i32 %127, %134, !llfi_index !412
  store i32 %135, i32* %13, align 4, !llfi_index !413
  br label %164, !llfi_index !414

136:                                              ; preds = %68
  %137 = load i32, i32* %5, align 4, !llfi_index !415
  %138 = sext i32 %137 to i64, !llfi_index !416
  %139 = getelementptr inbounds [32 x [1024 x i32]], [32 x [1024 x i32]]* @nci, i64 0, i64 %138, !llfi_index !417
  %140 = load i32, i32* %6, align 4, !llfi_index !418
  %141 = sext i32 %140 to i64, !llfi_index !419
  %142 = getelementptr inbounds [1024 x i32], [1024 x i32]* %139, i64 0, i64 %141, !llfi_index !420
  %143 = load i32, i32* %142, align 4, !llfi_index !421
  %144 = load i32, i32* %5, align 4, !llfi_index !422
  %145 = sext i32 %144 to i64, !llfi_index !423
  %146 = getelementptr inbounds [32 x [1024 x i32]], [32 x [1024 x i32]]* @nci, i64 0, i64 %145, !llfi_index !424
  %147 = load i32, i32* %4, align 4, !llfi_index !425
  %148 = sext i32 %147 to i64, !llfi_index !426
  %149 = getelementptr inbounds [1024 x i32], [1024 x i32]* %146, i64 0, i64 %148, !llfi_index !427
  %150 = load i32, i32* %149, align 4, !llfi_index !428
  %151 = load i32, i32* %5, align 4, !llfi_index !429
  %152 = sext i32 %151 to i64, !llfi_index !430
  %153 = getelementptr inbounds [32 x [1024 x i32]], [32 x [1024 x i32]]* @nci, i64 0, i64 %152, !llfi_index !431
  %154 = load i32, i32* %16, align 4, !llfi_index !432
  %155 = load i32, i32* %4, align 4, !llfi_index !433
  %156 = add nsw i32 %154, %155, !llfi_index !434
  %157 = load i32, i32* %6, align 4, !llfi_index !435
  %158 = srem i32 %156, %157, !llfi_index !436
  %159 = sext i32 %158 to i64, !llfi_index !437
  %160 = getelementptr inbounds [1024 x i32], [1024 x i32]* %153, i64 0, i64 %159, !llfi_index !438
  %161 = load i32, i32* %160, align 4, !llfi_index !439
  %162 = sub nsw i32 %150, %161, !llfi_index !440
  %163 = sub nsw i32 %143, %162, !llfi_index !441
  store i32 %163, i32* %13, align 4, !llfi_index !442
  br label %164, !llfi_index !443

164:                                              ; preds = %136, %118
  %165 = load i32, i32* %12, align 4, !llfi_index !444
  %166 = icmp eq i32 %165, 0, !llfi_index !445
  br i1 %166, label %167, label %178, !llfi_index !446

167:                                              ; preds = %164
  %168 = load i32, i32* %10, align 4, !llfi_index !447
  %169 = icmp eq i32 %168, 1, !llfi_index !448
  br i1 %169, label %170, label %174, !llfi_index !449

170:                                              ; preds = %167
  %171 = load i8, i8* %11, align 1, !llfi_index !450
  %172 = trunc i8 %171 to i1, !llfi_index !451
  br i1 %172, label %173, label %174, !llfi_index !452

173:                                              ; preds = %170
  br label %176, !llfi_index !453

174:                                              ; preds = %170, %167
  %175 = load i32, i32* %10, align 4, !llfi_index !454
  br label %176, !llfi_index !455

176:                                              ; preds = %174, %173
  %177 = phi i32 [ 0, %173 ], [ %175, %174 ], !llfi_index !456
  store i32 %177, i32* %18, align 4, !llfi_index !457
  br label %185, !llfi_index !458

178:                                              ; preds = %164
  %179 = load i32, i32* %10, align 4, !llfi_index !459
  %180 = load i8, i8* %11, align 1, !llfi_index !460
  %181 = trunc i8 %180 to i1, !llfi_index !461
  %182 = zext i1 %181 to i64, !llfi_index !462
  %183 = select i1 %181, i32 1, i32 0, !llfi_index !463
  %184 = sub nsw i32 %179, %183, !llfi_index !464
  store i32 %184, i32* %18, align 4, !llfi_index !465
  br label %185, !llfi_index !466

185:                                              ; preds = %178, %176
  %186 = load i32, i32* %5, align 4, !llfi_index !467
  %187 = sext i32 %186 to i64, !llfi_index !468
  %188 = getelementptr inbounds [32 x [1024 x i32]], [32 x [1024 x i32]]* @d, i64 0, i64 %187, !llfi_index !469
  %189 = load i32, i32* %4, align 4, !llfi_index !470
  %190 = sext i32 %189 to i64, !llfi_index !471
  %191 = getelementptr inbounds [1024 x i32], [1024 x i32]* %188, i64 0, i64 %190, !llfi_index !472
  %192 = load i32, i32* %5, align 4, !llfi_index !473
  %193 = add nsw i32 %192, 1, !llfi_index !474
  %194 = sext i32 %193 to i64, !llfi_index !475
  %195 = getelementptr inbounds [32 x [1024 x i32]], [32 x [1024 x i32]]* @d, i64 0, i64 %194, !llfi_index !476
  %196 = load i32, i32* %13, align 4, !llfi_index !477
  %197 = load i32, i32* %9, align 4, !llfi_index !478
  %198 = add nsw i32 %196, %197, !llfi_index !479
  %199 = load i32, i32* %7, align 4, !llfi_index !480
  %200 = add nsw i32 %198, %199, !llfi_index !481
  %201 = load i32, i32* %7, align 4, !llfi_index !482
  %202 = srem i32 %200, %201, !llfi_index !483
  %203 = sext i32 %202 to i64, !llfi_index !484
  %204 = getelementptr inbounds [1024 x i32], [1024 x i32]* %195, i64 0, i64 %203, !llfi_index !485
  %205 = load i32, i32* %204, align 4, !llfi_index !486
  %206 = load i32, i32* %18, align 4, !llfi_index !487
  %207 = add nsw i32 %205, %206, !llfi_index !488
  store i32 %207, i32* %19, align 4, !llfi_index !489
  %208 = call nonnull align 4 dereferenceable(4) i32* @_ZSt3minIiERKT_S2_S2_(i32* nonnull align 4 dereferenceable(4) %191, i32* nonnull align 4 dereferenceable(4) %19), !llfi_index !490
  %209 = load i32, i32* %208, align 4, !llfi_index !491
  %210 = load i32, i32* %5, align 4, !llfi_index !492
  %211 = sext i32 %210 to i64, !llfi_index !493
  %212 = getelementptr inbounds [32 x [1024 x i32]], [32 x [1024 x i32]]* @d, i64 0, i64 %211, !llfi_index !494
  %213 = load i32, i32* %4, align 4, !llfi_index !495
  %214 = sext i32 %213 to i64, !llfi_index !496
  %215 = getelementptr inbounds [1024 x i32], [1024 x i32]* %212, i64 0, i64 %214, !llfi_index !497
  store i32 %209, i32* %215, align 4, !llfi_index !498
  %216 = load i32, i32* %12, align 4, !llfi_index !499
  %217 = add nsw i32 %216, 1, !llfi_index !500
  store i32 %217, i32* %12, align 4, !llfi_index !501
  br label %218, !llfi_index !502

218:                                              ; preds = %185
  %219 = load i32, i32* %14, align 4, !llfi_index !503
  %220 = add nsw i32 %219, 1, !llfi_index !504
  store i32 %220, i32* %14, align 4, !llfi_index !505
  br label %60, !llvm.loop !506, !llfi_index !508

221:                                              ; preds = %60
  ret void, !llfi_index !509
}

; Function Attrs: mustprogress noinline nounwind uwtable
define linkonce_odr dso_local i64 @_ZNKSt6vectorIiSaIiEE4sizeEv(%"class.std::vector"* nonnull align 8 dereferenceable(24) %0) #3 comdat align 2 {
  %2 = alloca %"class.std::vector"*, align 8, !llfi_index !510
  store %"class.std::vector"* %0, %"class.std::vector"** %2, align 8, !llfi_index !511
  %3 = load %"class.std::vector"*, %"class.std::vector"** %2, align 8, !llfi_index !512
  %4 = bitcast %"class.std::vector"* %3 to %"struct.std::_Vector_base"*, !llfi_index !513
  %5 = getelementptr inbounds %"struct.std::_Vector_base", %"struct.std::_Vector_base"* %4, i32 0, i32 0, !llfi_index !514
  %6 = bitcast %"struct.std::_Vector_base<int, std::allocator<int>>::_Vector_impl"* %5 to %"struct.std::_Vector_base<int, std::allocator<int>>::_Vector_impl_data"*, !llfi_index !515
  %7 = getelementptr inbounds %"struct.std::_Vector_base<int, std::allocator<int>>::_Vector_impl_data", %"struct.std::_Vector_base<int, std::allocator<int>>::_Vector_impl_data"* %6, i32 0, i32 1, !llfi_index !516
  %8 = load i32*, i32** %7, align 8, !llfi_index !517
  %9 = bitcast %"class.std::vector"* %3 to %"struct.std::_Vector_base"*, !llfi_index !518
  %10 = getelementptr inbounds %"struct.std::_Vector_base", %"struct.std::_Vector_base"* %9, i32 0, i32 0, !llfi_index !519
  %11 = bitcast %"struct.std::_Vector_base<int, std::allocator<int>>::_Vector_impl"* %10 to %"struct.std::_Vector_base<int, std::allocator<int>>::_Vector_impl_data"*, !llfi_index !520
  %12 = getelementptr inbounds %"struct.std::_Vector_base<int, std::allocator<int>>::_Vector_impl_data", %"struct.std::_Vector_base<int, std::allocator<int>>::_Vector_impl_data"* %11, i32 0, i32 0, !llfi_index !521
  %13 = load i32*, i32** %12, align 8, !llfi_index !522
  %14 = ptrtoint i32* %8 to i64, !llfi_index !523
  %15 = ptrtoint i32* %13 to i64, !llfi_index !524
  %16 = sub i64 %14, %15, !llfi_index !525
  %17 = sdiv exact i64 %16, 4, !llfi_index !526
  ret i64 %17, !llfi_index !527
}

; Function Attrs: mustprogress noinline nounwind uwtable
define linkonce_odr dso_local nonnull align 4 dereferenceable(4) i32* @_ZNSt6vectorIiSaIiEEixEm(%"class.std::vector"* nonnull align 8 dereferenceable(24) %0, i64 %1) #3 comdat align 2 {
  %3 = alloca %"class.std::vector"*, align 8, !llfi_index !528
  %4 = alloca i64, align 8, !llfi_index !529
  store %"class.std::vector"* %0, %"class.std::vector"** %3, align 8, !llfi_index !530
  store i64 %1, i64* %4, align 8, !llfi_index !531
  %5 = load %"class.std::vector"*, %"class.std::vector"** %3, align 8, !llfi_index !532
  %6 = bitcast %"class.std::vector"* %5 to %"struct.std::_Vector_base"*, !llfi_index !533
  %7 = getelementptr inbounds %"struct.std::_Vector_base", %"struct.std::_Vector_base"* %6, i32 0, i32 0, !llfi_index !534
  %8 = bitcast %"struct.std::_Vector_base<int, std::allocator<int>>::_Vector_impl"* %7 to %"struct.std::_Vector_base<int, std::allocator<int>>::_Vector_impl_data"*, !llfi_index !535
  %9 = getelementptr inbounds %"struct.std::_Vector_base<int, std::allocator<int>>::_Vector_impl_data", %"struct.std::_Vector_base<int, std::allocator<int>>::_Vector_impl_data"* %8, i32 0, i32 0, !llfi_index !536
  %10 = load i32*, i32** %9, align 8, !llfi_index !537
  %11 = load i64, i64* %4, align 8, !llfi_index !538
  %12 = getelementptr inbounds i32, i32* %10, i64 %11, !llfi_index !539
  ret i32* %12, !llfi_index !540
}

; Function Attrs: mustprogress noinline nounwind uwtable
define linkonce_odr dso_local nonnull align 4 dereferenceable(4) i32* @_ZSt3minIiERKT_S2_S2_(i32* nonnull align 4 dereferenceable(4) %0, i32* nonnull align 4 dereferenceable(4) %1) #3 comdat {
  %3 = alloca i32*, align 8, !llfi_index !541
  %4 = alloca i32*, align 8, !llfi_index !542
  %5 = alloca i32*, align 8, !llfi_index !543
  store i32* %0, i32** %4, align 8, !llfi_index !544
  store i32* %1, i32** %5, align 8, !llfi_index !545
  %6 = load i32*, i32** %5, align 8, !llfi_index !546
  %7 = load i32, i32* %6, align 4, !llfi_index !547
  %8 = load i32*, i32** %4, align 8, !llfi_index !548
  %9 = load i32, i32* %8, align 4, !llfi_index !549
  %10 = icmp slt i32 %7, %9, !llfi_index !550
  br i1 %10, label %11, label %13, !llfi_index !551

11:                                               ; preds = %2
  %12 = load i32*, i32** %5, align 8, !llfi_index !552
  store i32* %12, i32** %3, align 8, !llfi_index !553
  br label %15, !llfi_index !554

13:                                               ; preds = %2
  %14 = load i32*, i32** %4, align 8, !llfi_index !555
  store i32* %14, i32** %3, align 8, !llfi_index !556
  br label %15, !llfi_index !557

15:                                               ; preds = %13, %11
  %16 = load i32*, i32** %3, align 8, !llfi_index !558
  ret i32* %16, !llfi_index !559
}

; Function Attrs: mustprogress noinline norecurse uwtable
define dso_local i32 @main() #9 personality i8* bitcast (i32 (...)* @__gxx_personality_v0 to i8*) {
  %1 = alloca i32, align 4, !llfi_index !560
  %2 = alloca i32, align 4, !llfi_index !561
  %3 = alloca i32, align 4, !llfi_index !562
  %4 = alloca %"class.std::__cxx11::basic_string", align 8, !llfi_index !563
  %5 = alloca i8*, align 8, !llfi_index !564
  %6 = alloca i32, align 4, !llfi_index !565
  %7 = alloca i32, align 4, !llfi_index !566
  %8 = alloca i32, align 4, !llfi_index !567
  %9 = alloca i32, align 4, !llfi_index !568
  %10 = alloca i32, align 4, !llfi_index !569
  %11 = alloca i32, align 4, !llfi_index !570
  %12 = alloca i32, align 4, !llfi_index !571
  %13 = alloca i32, align 4, !llfi_index !572
  %14 = alloca i32, align 4, !llfi_index !573
  %15 = alloca i32, align 4, !llfi_index !574
  %16 = alloca %"class.std::__cxx11::basic_string", align 8, !llfi_index !575
  %17 = alloca i32, align 4, !llfi_index !576
  store i32 0, i32* %1, align 4, !llfi_index !577
  %18 = load %struct._IO_FILE*, %struct._IO_FILE** @stdin, align 8, !llfi_index !578
  %19 = call %struct._IO_FILE* @freopen(i8* getelementptr inbounds ([30 x i8], [30 x i8]* @.str, i64 0, i64 0), i8* getelementptr inbounds ([2 x i8], [2 x i8]* @.str.4, i64 0, i64 0), %struct._IO_FILE* %18), !llfi_index !579
  %20 = call nonnull align 8 dereferenceable(16) %"class.std::basic_istream"* @_ZNSirsERi(%"class.std::basic_istream"* nonnull align 8 dereferenceable(16) @_ZSt3cin, i32* nonnull align 4 dereferenceable(4) %2), !llfi_index !580
  store i32 89, i32* %3, align 4, !llfi_index !581
  br label %21, !llfi_index !582

21:                                               ; preds = %371, %0
  %22 = load i32, i32* %2, align 4, !llfi_index !583
  %23 = icmp ne i32 %22, 0, !llfi_index !584
  br i1 %23, label %24, label %375, !llfi_index !585

24:                                               ; preds = %21
  call void @_ZNSt7__cxx1112basic_stringIcSt11char_traitsIcESaIcEEC1Ev(%"class.std::__cxx11::basic_string"* nonnull align 8 dereferenceable(32) %4) #2, !llfi_index !586
  %25 = invoke nonnull align 8 dereferenceable(16) %"class.std::basic_istream"* @_ZStrsIcSt11char_traitsIcESaIcEERSt13basic_istreamIT_T0_ES7_RNSt7__cxx1112basic_stringIS4_S5_T1_EE(%"class.std::basic_istream"* nonnull align 8 dereferenceable(16) @_ZSt3cin, %"class.std::__cxx11::basic_string"* nonnull align 8 dereferenceable(32) %4)
          to label %26 unwind label %75, !llfi_index !587

26:                                               ; preds = %24
  %27 = invoke nonnull align 8 dereferenceable(32) %"class.std::__cxx11::basic_string"* @_ZNSt7__cxx1112basic_stringIcSt11char_traitsIcESaIcEEaSERKS4_(%"class.std::__cxx11::basic_string"* nonnull align 8 dereferenceable(32) getelementptr inbounds ([32 x %"class.std::__cxx11::basic_string"], [32 x %"class.std::__cxx11::basic_string"]* @_Z2scB5cxx11, i64 0, i64 0), %"class.std::__cxx11::basic_string"* nonnull align 8 dereferenceable(32) %4)
          to label %28 unwind label %75, !llfi_index !588

28:                                               ; preds = %26
  store i32 89, i32* %3, align 4, !llfi_index !589
  store i32 1, i32* %7, align 4, !llfi_index !590
  br label %29, !llfi_index !591

29:                                               ; preds = %84, %28
  %30 = load i32, i32* %7, align 4, !llfi_index !592
  %31 = icmp slt i32 %30, 26, !llfi_index !593
  br i1 %31, label %32, label %87, !llfi_index !594

32:                                               ; preds = %29
  %33 = load i32, i32* %7, align 4, !llfi_index !595
  %34 = sext i32 %33 to i64, !llfi_index !596
  %35 = getelementptr inbounds [32 x %"class.std::__cxx11::basic_string"], [32 x %"class.std::__cxx11::basic_string"]* @_Z2scB5cxx11, i64 0, i64 %34, !llfi_index !597
  call void @_ZNSt7__cxx1112basic_stringIcSt11char_traitsIcESaIcEE5clearEv(%"class.std::__cxx11::basic_string"* nonnull align 8 dereferenceable(32) %35) #2, !llfi_index !598
  store i32 0, i32* %8, align 4, !llfi_index !599
  br label %36, !llfi_index !600

36:                                               ; preds = %80, %32
  %37 = load i32, i32* %8, align 4, !llfi_index !601
  %38 = sext i32 %37 to i64, !llfi_index !602
  %39 = load i32, i32* %7, align 4, !llfi_index !603
  %40 = sub nsw i32 %39, 1, !llfi_index !604
  %41 = sext i32 %40 to i64, !llfi_index !605
  %42 = getelementptr inbounds [32 x %"class.std::__cxx11::basic_string"], [32 x %"class.std::__cxx11::basic_string"]* @_Z2scB5cxx11, i64 0, i64 %41, !llfi_index !606
  %43 = call i64 @_ZNKSt7__cxx1112basic_stringIcSt11char_traitsIcESaIcEE4sizeEv(%"class.std::__cxx11::basic_string"* nonnull align 8 dereferenceable(32) %42) #2, !llfi_index !607
  %44 = icmp ult i64 %38, %43, !llfi_index !608
  br i1 %44, label %45, label %83, !llfi_index !609

45:                                               ; preds = %36
  %46 = load i32, i32* %7, align 4, !llfi_index !610
  %47 = sub nsw i32 %46, 1, !llfi_index !611
  %48 = sext i32 %47 to i64, !llfi_index !612
  %49 = getelementptr inbounds [32 x %"class.std::__cxx11::basic_string"], [32 x %"class.std::__cxx11::basic_string"]* @_Z2scB5cxx11, i64 0, i64 %48, !llfi_index !613
  %50 = load i32, i32* %8, align 4, !llfi_index !614
  %51 = sext i32 %50 to i64, !llfi_index !615
  %52 = invoke nonnull align 1 dereferenceable(1) i8* @_ZNSt7__cxx1112basic_stringIcSt11char_traitsIcESaIcEEixEm(%"class.std::__cxx11::basic_string"* nonnull align 8 dereferenceable(32) %49, i64 %51)
          to label %53 unwind label %75, !llfi_index !616

53:                                               ; preds = %45
  %54 = load i8, i8* %52, align 1, !llfi_index !617
  %55 = sext i8 %54 to i32, !llfi_index !618
  %56 = load i32, i32* %7, align 4, !llfi_index !619
  %57 = add nsw i32 97, %56, !llfi_index !620
  %58 = sub nsw i32 %57, 1, !llfi_index !621
  %59 = icmp ne i32 %55, %58, !llfi_index !622
  br i1 %59, label %60, label %79, !llfi_index !623

60:                                               ; preds = %53
  %61 = load i32, i32* %7, align 4, !llfi_index !624
  %62 = sub nsw i32 %61, 1, !llfi_index !625
  %63 = sext i32 %62 to i64, !llfi_index !626
  %64 = getelementptr inbounds [32 x %"class.std::__cxx11::basic_string"], [32 x %"class.std::__cxx11::basic_string"]* @_Z2scB5cxx11, i64 0, i64 %63, !llfi_index !627
  %65 = load i32, i32* %8, align 4, !llfi_index !628
  %66 = sext i32 %65 to i64, !llfi_index !629
  %67 = invoke nonnull align 1 dereferenceable(1) i8* @_ZNSt7__cxx1112basic_stringIcSt11char_traitsIcESaIcEEixEm(%"class.std::__cxx11::basic_string"* nonnull align 8 dereferenceable(32) %64, i64 %66)
          to label %68 unwind label %75, !llfi_index !630

68:                                               ; preds = %60
  %69 = load i8, i8* %67, align 1, !llfi_index !631
  %70 = load i32, i32* %7, align 4, !llfi_index !632
  %71 = sext i32 %70 to i64, !llfi_index !633
  %72 = getelementptr inbounds [32 x %"class.std::__cxx11::basic_string"], [32 x %"class.std::__cxx11::basic_string"]* @_Z2scB5cxx11, i64 0, i64 %71, !llfi_index !634
  %73 = invoke nonnull align 8 dereferenceable(32) %"class.std::__cxx11::basic_string"* @_ZNSt7__cxx1112basic_stringIcSt11char_traitsIcESaIcEEpLEc(%"class.std::__cxx11::basic_string"* nonnull align 8 dereferenceable(32) %72, i8 signext %69)
          to label %74 unwind label %75, !llfi_index !635

74:                                               ; preds = %68
  br label %79, !llfi_index !636

75:                                               ; preds = %368, %364, %345, %234, %210, %197, %160, %130, %123, %110, %68, %60, %45, %26, %24
  %76 = landingpad { i8*, i32 }
          cleanup, !llfi_index !637
  %77 = extractvalue { i8*, i32 } %76, 0, !llfi_index !638
  store i8* %77, i8** %5, align 8, !llfi_index !639
  %78 = extractvalue { i8*, i32 } %76, 1, !llfi_index !640
  store i32 %78, i32* %6, align 4, !llfi_index !641
  br label %374, !llfi_index !642

79:                                               ; preds = %74, %53
  br label %80, !llfi_index !643

80:                                               ; preds = %79
  %81 = load i32, i32* %8, align 4, !llfi_index !644
  %82 = add nsw i32 %81, 1, !llfi_index !645
  store i32 %82, i32* %8, align 4, !llfi_index !646
  br label %36, !llvm.loop !647, !llfi_index !648

83:                                               ; preds = %36
  br label %84, !llfi_index !649

84:                                               ; preds = %83
  %85 = load i32, i32* %7, align 4, !llfi_index !650
  %86 = add nsw i32 %85, 1, !llfi_index !651
  store i32 %86, i32* %7, align 4, !llfi_index !652
  br label %29, !llvm.loop !653, !llfi_index !654

87:                                               ; preds = %29
  store i32 89, i32* %3, align 4, !llfi_index !655
  store i32 0, i32* %9, align 4, !llfi_index !656
  br label %88, !llfi_index !657

88:                                               ; preds = %244, %87
  %89 = load i32, i32* %9, align 4, !llfi_index !658
  %90 = icmp slt i32 %89, 26, !llfi_index !659
  br i1 %90, label %91, label %247, !llfi_index !660

91:                                               ; preds = %88
  %92 = load i32, i32* %9, align 4, !llfi_index !661
  %93 = sext i32 %92 to i64, !llfi_index !662
  %94 = getelementptr inbounds [32 x i32], [32 x i32]* @ng, i64 0, i64 %93, !llfi_index !663
  store i32 0, i32* %94, align 4, !llfi_index !664
  %95 = load i32, i32* %9, align 4, !llfi_index !665
  %96 = sext i32 %95 to i64, !llfi_index !666
  %97 = getelementptr inbounds [32 x [1024 x i32]], [32 x [1024 x i32]]* @nci, i64 0, i64 %96, !llfi_index !667
  %98 = getelementptr inbounds [1024 x i32], [1024 x i32]* %97, i64 0, i64 0, !llfi_index !668
  store i32 0, i32* %98, align 16, !llfi_index !669
  %99 = load i32, i32* %9, align 4, !llfi_index !670
  %100 = sext i32 %99 to i64, !llfi_index !671
  %101 = getelementptr inbounds [32 x %"class.std::vector"], [32 x %"class.std::vector"]* @p, i64 0, i64 %100, !llfi_index !672
  call void @_ZNSt6vectorIiSaIiEE5clearEv(%"class.std::vector"* nonnull align 8 dereferenceable(24) %101) #2, !llfi_index !673
  store i32 0, i32* %10, align 4, !llfi_index !674
  br label %102, !llfi_index !675

102:                                              ; preds = %240, %91
  %103 = load i32, i32* %10, align 4, !llfi_index !676
  %104 = sext i32 %103 to i64, !llfi_index !677
  %105 = load i32, i32* %9, align 4, !llfi_index !678
  %106 = sext i32 %105 to i64, !llfi_index !679
  %107 = getelementptr inbounds [32 x %"class.std::__cxx11::basic_string"], [32 x %"class.std::__cxx11::basic_string"]* @_Z2scB5cxx11, i64 0, i64 %106, !llfi_index !680
  %108 = call i64 @_ZNKSt7__cxx1112basic_stringIcSt11char_traitsIcESaIcEE4sizeEv(%"class.std::__cxx11::basic_string"* nonnull align 8 dereferenceable(32) %107) #2, !llfi_index !681
  %109 = icmp ult i64 %104, %108, !llfi_index !682
  br i1 %109, label %110, label %243, !llfi_index !683

110:                                              ; preds = %102
  %111 = load i32, i32* %9, align 4, !llfi_index !684
  %112 = sext i32 %111 to i64, !llfi_index !685
  %113 = getelementptr inbounds [32 x %"class.std::__cxx11::basic_string"], [32 x %"class.std::__cxx11::basic_string"]* @_Z2scB5cxx11, i64 0, i64 %112, !llfi_index !686
  %114 = load i32, i32* %10, align 4, !llfi_index !687
  %115 = sext i32 %114 to i64, !llfi_index !688
  %116 = invoke nonnull align 1 dereferenceable(1) i8* @_ZNSt7__cxx1112basic_stringIcSt11char_traitsIcESaIcEEixEm(%"class.std::__cxx11::basic_string"* nonnull align 8 dereferenceable(32) %113, i64 %115)
          to label %117 unwind label %75, !llfi_index !689

117:                                              ; preds = %110
  %118 = load i8, i8* %116, align 1, !llfi_index !690
  %119 = sext i8 %118 to i32, !llfi_index !691
  %120 = load i32, i32* %9, align 4, !llfi_index !692
  %121 = add nsw i32 97, %120, !llfi_index !693
  %122 = icmp eq i32 %119, %121, !llfi_index !694
  br i1 %122, label %123, label %160, !llfi_index !695

123:                                              ; preds = %117
  %124 = load i32, i32* %9, align 4, !llfi_index !696
  %125 = sext i32 %124 to i64, !llfi_index !697
  %126 = getelementptr inbounds [32 x %"class.std::__cxx11::basic_string"], [32 x %"class.std::__cxx11::basic_string"]* @_Z2scB5cxx11, i64 0, i64 %125, !llfi_index !698
  %127 = load i32, i32* %10, align 4, !llfi_index !699
  %128 = sext i32 %127 to i64, !llfi_index !700
  %129 = invoke nonnull align 1 dereferenceable(1) i8* @_ZNSt7__cxx1112basic_stringIcSt11char_traitsIcESaIcEEixEm(%"class.std::__cxx11::basic_string"* nonnull align 8 dereferenceable(32) %126, i64 %128)
          to label %130 unwind label %75, !llfi_index !701

130:                                              ; preds = %123
  %131 = load i8, i8* %129, align 1, !llfi_index !702
  %132 = sext i8 %131 to i32, !llfi_index !703
  %133 = load i32, i32* %9, align 4, !llfi_index !704
  %134 = sext i32 %133 to i64, !llfi_index !705
  %135 = getelementptr inbounds [32 x %"class.std::__cxx11::basic_string"], [32 x %"class.std::__cxx11::basic_string"]* @_Z2scB5cxx11, i64 0, i64 %134, !llfi_index !706
  %136 = load i32, i32* %10, align 4, !llfi_index !707
  %137 = sub nsw i32 %136, 1, !llfi_index !708
  %138 = sext i32 %137 to i64, !llfi_index !709
  %139 = load i32, i32* %9, align 4, !llfi_index !710
  %140 = sext i32 %139 to i64, !llfi_index !711
  %141 = getelementptr inbounds [32 x %"class.std::__cxx11::basic_string"], [32 x %"class.std::__cxx11::basic_string"]* @_Z2scB5cxx11, i64 0, i64 %140, !llfi_index !712
  %142 = call i64 @_ZNKSt7__cxx1112basic_stringIcSt11char_traitsIcESaIcEE4sizeEv(%"class.std::__cxx11::basic_string"* nonnull align 8 dereferenceable(32) %141) #2, !llfi_index !713
  %143 = add i64 %138, %142, !llfi_index !714
  %144 = load i32, i32* %9, align 4, !llfi_index !715
  %145 = sext i32 %144 to i64, !llfi_index !716
  %146 = getelementptr inbounds [32 x %"class.std::__cxx11::basic_string"], [32 x %"class.std::__cxx11::basic_string"]* @_Z2scB5cxx11, i64 0, i64 %145, !llfi_index !717
  %147 = call i64 @_ZNKSt7__cxx1112basic_stringIcSt11char_traitsIcESaIcEE4sizeEv(%"class.std::__cxx11::basic_string"* nonnull align 8 dereferenceable(32) %146) #2, !llfi_index !718
  %148 = urem i64 %143, %147, !llfi_index !719
  %149 = invoke nonnull align 1 dereferenceable(1) i8* @_ZNSt7__cxx1112basic_stringIcSt11char_traitsIcESaIcEEixEm(%"class.std::__cxx11::basic_string"* nonnull align 8 dereferenceable(32) %135, i64 %148)
          to label %150 unwind label %75, !llfi_index !720

150:                                              ; preds = %130
  %151 = load i8, i8* %149, align 1, !llfi_index !721
  %152 = sext i8 %151 to i32, !llfi_index !722
  %153 = icmp ne i32 %132, %152, !llfi_index !723
  br i1 %153, label %154, label %160, !llfi_index !724

154:                                              ; preds = %150
  %155 = load i32, i32* %9, align 4, !llfi_index !725
  %156 = sext i32 %155 to i64, !llfi_index !726
  %157 = getelementptr inbounds [32 x i32], [32 x i32]* @ng, i64 0, i64 %156, !llfi_index !727
  %158 = load i32, i32* %157, align 4, !llfi_index !728
  %159 = add nsw i32 %158, 1, !llfi_index !729
  store i32 %159, i32* %157, align 4, !llfi_index !730
  br label %160, !llfi_index !731

160:                                              ; preds = %154, %150, %117
  %161 = load i32, i32* %9, align 4, !llfi_index !732
  %162 = sext i32 %161 to i64, !llfi_index !733
  %163 = getelementptr inbounds [32 x [1024 x i32]], [32 x [1024 x i32]]* @nci, i64 0, i64 %162, !llfi_index !734
  %164 = load i32, i32* %10, align 4, !llfi_index !735
  %165 = sext i32 %164 to i64, !llfi_index !736
  %166 = getelementptr inbounds [1024 x i32], [1024 x i32]* %163, i64 0, i64 %165, !llfi_index !737
  %167 = load i32, i32* %166, align 4, !llfi_index !738
  %168 = load i32, i32* %9, align 4, !llfi_index !739
  %169 = sext i32 %168 to i64, !llfi_index !740
  %170 = getelementptr inbounds [32 x [1024 x i32]], [32 x [1024 x i32]]* @nci, i64 0, i64 %169, !llfi_index !741
  %171 = load i32, i32* %10, align 4, !llfi_index !742
  %172 = add nsw i32 %171, 1, !llfi_index !743
  %173 = sext i32 %172 to i64, !llfi_index !744
  %174 = getelementptr inbounds [1024 x i32], [1024 x i32]* %170, i64 0, i64 %173, !llfi_index !745
  store i32 %167, i32* %174, align 4, !llfi_index !746
  %175 = load i32, i32* %9, align 4, !llfi_index !747
  %176 = sext i32 %175 to i64, !llfi_index !748
  %177 = getelementptr inbounds [32 x %"class.std::__cxx11::basic_string"], [32 x %"class.std::__cxx11::basic_string"]* @_Z2scB5cxx11, i64 0, i64 %176, !llfi_index !749
  %178 = load i32, i32* %10, align 4, !llfi_index !750
  %179 = sext i32 %178 to i64, !llfi_index !751
  %180 = invoke nonnull align 1 dereferenceable(1) i8* @_ZNSt7__cxx1112basic_stringIcSt11char_traitsIcESaIcEEixEm(%"class.std::__cxx11::basic_string"* nonnull align 8 dereferenceable(32) %177, i64 %179)
          to label %181 unwind label %75, !llfi_index !752

181:                                              ; preds = %160
  %182 = load i8, i8* %180, align 1, !llfi_index !753
  %183 = sext i8 %182 to i32, !llfi_index !754
  %184 = load i32, i32* %9, align 4, !llfi_index !755
  %185 = add nsw i32 97, %184, !llfi_index !756
  %186 = icmp ne i32 %183, %185, !llfi_index !757
  br i1 %186, label %187, label %197, !llfi_index !758

187:                                              ; preds = %181
  %188 = load i32, i32* %9, align 4, !llfi_index !759
  %189 = sext i32 %188 to i64, !llfi_index !760
  %190 = getelementptr inbounds [32 x [1024 x i32]], [32 x [1024 x i32]]* @nci, i64 0, i64 %189, !llfi_index !761
  %191 = load i32, i32* %10, align 4, !llfi_index !762
  %192 = add nsw i32 %191, 1, !llfi_index !763
  %193 = sext i32 %192 to i64, !llfi_index !764
  %194 = getelementptr inbounds [1024 x i32], [1024 x i32]* %190, i64 0, i64 %193, !llfi_index !765
  %195 = load i32, i32* %194, align 4, !llfi_index !766
  %196 = add nsw i32 %195, 1, !llfi_index !767
  store i32 %196, i32* %194, align 4, !llfi_index !768
  br label %197, !llfi_index !769

197:                                              ; preds = %187, %181
  %198 = load i32, i32* %9, align 4, !llfi_index !770
  %199 = sext i32 %198 to i64, !llfi_index !771
  %200 = getelementptr inbounds [32 x %"class.std::__cxx11::basic_string"], [32 x %"class.std::__cxx11::basic_string"]* @_Z2scB5cxx11, i64 0, i64 %199, !llfi_index !772
  %201 = load i32, i32* %10, align 4, !llfi_index !773
  %202 = sext i32 %201 to i64, !llfi_index !774
  %203 = invoke nonnull align 1 dereferenceable(1) i8* @_ZNSt7__cxx1112basic_stringIcSt11char_traitsIcESaIcEEixEm(%"class.std::__cxx11::basic_string"* nonnull align 8 dereferenceable(32) %200, i64 %202)
          to label %204 unwind label %75, !llfi_index !775

204:                                              ; preds = %197
  %205 = load i8, i8* %203, align 1, !llfi_index !776
  %206 = sext i8 %205 to i32, !llfi_index !777
  %207 = load i32, i32* %9, align 4, !llfi_index !778
  %208 = add nsw i32 97, %207, !llfi_index !779
  %209 = icmp ne i32 %206, %208, !llfi_index !780
  br i1 %209, label %210, label %239, !llfi_index !781

210:                                              ; preds = %204
  %211 = load i32, i32* %9, align 4, !llfi_index !782
  %212 = sext i32 %211 to i64, !llfi_index !783
  %213 = getelementptr inbounds [32 x %"class.std::__cxx11::basic_string"], [32 x %"class.std::__cxx11::basic_string"]* @_Z2scB5cxx11, i64 0, i64 %212, !llfi_index !784
  %214 = load i32, i32* %10, align 4, !llfi_index !785
  %215 = sub nsw i32 %214, 1, !llfi_index !786
  %216 = sext i32 %215 to i64, !llfi_index !787
  %217 = load i32, i32* %9, align 4, !llfi_index !788
  %218 = sext i32 %217 to i64, !llfi_index !789
  %219 = getelementptr inbounds [32 x %"class.std::__cxx11::basic_string"], [32 x %"class.std::__cxx11::basic_string"]* @_Z2scB5cxx11, i64 0, i64 %218, !llfi_index !790
  %220 = call i64 @_ZNKSt7__cxx1112basic_stringIcSt11char_traitsIcESaIcEE4sizeEv(%"class.std::__cxx11::basic_string"* nonnull align 8 dereferenceable(32) %219) #2, !llfi_index !791
  %221 = add i64 %216, %220, !llfi_index !792
  %222 = load i32, i32* %9, align 4, !llfi_index !793
  %223 = sext i32 %222 to i64, !llfi_index !794
  %224 = getelementptr inbounds [32 x %"class.std::__cxx11::basic_string"], [32 x %"class.std::__cxx11::basic_string"]* @_Z2scB5cxx11, i64 0, i64 %223, !llfi_index !795
  %225 = call i64 @_ZNKSt7__cxx1112basic_stringIcSt11char_traitsIcESaIcEE4sizeEv(%"class.std::__cxx11::basic_string"* nonnull align 8 dereferenceable(32) %224) #2, !llfi_index !796
  %226 = urem i64 %221, %225, !llfi_index !797
  %227 = invoke nonnull align 1 dereferenceable(1) i8* @_ZNSt7__cxx1112basic_stringIcSt11char_traitsIcESaIcEEixEm(%"class.std::__cxx11::basic_string"* nonnull align 8 dereferenceable(32) %213, i64 %226)
          to label %228 unwind label %75, !llfi_index !798

228:                                              ; preds = %210
  %229 = load i8, i8* %227, align 1, !llfi_index !799
  %230 = sext i8 %229 to i32, !llfi_index !800
  %231 = load i32, i32* %9, align 4, !llfi_index !801
  %232 = add nsw i32 97, %231, !llfi_index !802
  %233 = icmp eq i32 %230, %232, !llfi_index !803
  br i1 %233, label %234, label %239, !llfi_index !804

234:                                              ; preds = %228
  %235 = load i32, i32* %9, align 4, !llfi_index !805
  %236 = sext i32 %235 to i64, !llfi_index !806
  %237 = getelementptr inbounds [32 x %"class.std::vector"], [32 x %"class.std::vector"]* @p, i64 0, i64 %236, !llfi_index !807
  invoke void @_ZNSt6vectorIiSaIiEE9push_backERKi(%"class.std::vector"* nonnull align 8 dereferenceable(24) %237, i32* nonnull align 4 dereferenceable(4) %10)
          to label %238 unwind label %75, !llfi_index !808

238:                                              ; preds = %234
  br label %239, !llfi_index !809

239:                                              ; preds = %238, %228, %204
  br label %240, !llfi_index !810

240:                                              ; preds = %239
  %241 = load i32, i32* %10, align 4, !llfi_index !811
  %242 = add nsw i32 %241, 1, !llfi_index !812
  store i32 %242, i32* %10, align 4, !llfi_index !813
  br label %102, !llvm.loop !814, !llfi_index !815

243:                                              ; preds = %102
  br label %244, !llfi_index !816

244:                                              ; preds = %243
  %245 = load i32, i32* %9, align 4, !llfi_index !817
  %246 = add nsw i32 %245, 1, !llfi_index !818
  store i32 %246, i32* %9, align 4, !llfi_index !819
  br label %88, !llvm.loop !820, !llfi_index !821

247:                                              ; preds = %88
  store i32 89, i32* %3, align 4, !llfi_index !822
  store i32 24, i32* %11, align 4, !llfi_index !823
  br label %248, !llfi_index !824

248:                                              ; preds = %361, %247
  %249 = load i32, i32* %11, align 4, !llfi_index !825
  %250 = icmp sle i32 0, %249, !llfi_index !826
  br i1 %250, label %251, label %364, !llfi_index !827

251:                                              ; preds = %248
  %252 = load i32, i32* %11, align 4, !llfi_index !828
  %253 = sext i32 %252 to i64, !llfi_index !829
  %254 = getelementptr inbounds [32 x %"class.std::__cxx11::basic_string"], [32 x %"class.std::__cxx11::basic_string"]* @_Z2scB5cxx11, i64 0, i64 %253, !llfi_index !830
  %255 = call i64 @_ZNKSt7__cxx1112basic_stringIcSt11char_traitsIcESaIcEE4sizeEv(%"class.std::__cxx11::basic_string"* nonnull align 8 dereferenceable(32) %254) #2, !llfi_index !831
  %256 = load i32, i32* %11, align 4, !llfi_index !832
  %257 = add nsw i32 %256, 1, !llfi_index !833
  %258 = sext i32 %257 to i64, !llfi_index !834
  %259 = getelementptr inbounds [32 x %"class.std::__cxx11::basic_string"], [32 x %"class.std::__cxx11::basic_string"]* @_Z2scB5cxx11, i64 0, i64 %258, !llfi_index !835
  %260 = call i64 @_ZNKSt7__cxx1112basic_stringIcSt11char_traitsIcESaIcEE4sizeEv(%"class.std::__cxx11::basic_string"* nonnull align 8 dereferenceable(32) %259) #2, !llfi_index !836
  %261 = icmp eq i64 %255, %260, !llfi_index !837
  br i1 %261, label %262, label %290, !llfi_index !838

262:                                              ; preds = %251
  store i32 0, i32* %12, align 4, !llfi_index !839
  br label %263, !llfi_index !840

263:                                              ; preds = %286, %262
  %264 = load i32, i32* %12, align 4, !llfi_index !841
  %265 = sext i32 %264 to i64, !llfi_index !842
  %266 = load i32, i32* %11, align 4, !llfi_index !843
  %267 = sext i32 %266 to i64, !llfi_index !844
  %268 = getelementptr inbounds [32 x %"class.std::__cxx11::basic_string"], [32 x %"class.std::__cxx11::basic_string"]* @_Z2scB5cxx11, i64 0, i64 %267, !llfi_index !845
  %269 = call i64 @_ZNKSt7__cxx1112basic_stringIcSt11char_traitsIcESaIcEE4sizeEv(%"class.std::__cxx11::basic_string"* nonnull align 8 dereferenceable(32) %268) #2, !llfi_index !846
  %270 = icmp ult i64 %265, %269, !llfi_index !847
  br i1 %270, label %271, label %289, !llfi_index !848

271:                                              ; preds = %263
  %272 = load i32, i32* %11, align 4, !llfi_index !849
  %273 = add nsw i32 %272, 1, !llfi_index !850
  %274 = sext i32 %273 to i64, !llfi_index !851
  %275 = getelementptr inbounds [32 x [1024 x i32]], [32 x [1024 x i32]]* @d, i64 0, i64 %274, !llfi_index !852
  %276 = load i32, i32* %12, align 4, !llfi_index !853
  %277 = sext i32 %276 to i64, !llfi_index !854
  %278 = getelementptr inbounds [1024 x i32], [1024 x i32]* %275, i64 0, i64 %277, !llfi_index !855
  %279 = load i32, i32* %278, align 4, !llfi_index !856
  %280 = load i32, i32* %11, align 4, !llfi_index !857
  %281 = sext i32 %280 to i64, !llfi_index !858
  %282 = getelementptr inbounds [32 x [1024 x i32]], [32 x [1024 x i32]]* @d, i64 0, i64 %281, !llfi_index !859
  %283 = load i32, i32* %12, align 4, !llfi_index !860
  %284 = sext i32 %283 to i64, !llfi_index !861
  %285 = getelementptr inbounds [1024 x i32], [1024 x i32]* %282, i64 0, i64 %284, !llfi_index !862
  store i32 %279, i32* %285, align 4, !llfi_index !863
  br label %286, !llfi_index !864

286:                                              ; preds = %271
  %287 = load i32, i32* %12, align 4, !llfi_index !865
  %288 = add nsw i32 %287, 1, !llfi_index !866
  store i32 %288, i32* %12, align 4, !llfi_index !867
  br label %263, !llvm.loop !868, !llfi_index !869

289:                                              ; preds = %263
  br label %361, !llfi_index !870

290:                                              ; preds = %251
  %291 = load i32, i32* %11, align 4, !llfi_index !871
  %292 = add nsw i32 %291, 1, !llfi_index !872
  %293 = sext i32 %292 to i64, !llfi_index !873
  %294 = getelementptr inbounds [32 x %"class.std::__cxx11::basic_string"], [32 x %"class.std::__cxx11::basic_string"]* @_Z2scB5cxx11, i64 0, i64 %293, !llfi_index !874
  %295 = call i64 @_ZNKSt7__cxx1112basic_stringIcSt11char_traitsIcESaIcEE4sizeEv(%"class.std::__cxx11::basic_string"* nonnull align 8 dereferenceable(32) %294) #2, !llfi_index !875
  %296 = icmp eq i64 %295, 0, !llfi_index !876
  br i1 %296, label %297, label %317, !llfi_index !877

297:                                              ; preds = %290
  store i32 0, i32* %13, align 4, !llfi_index !878
  br label %298, !llfi_index !879

298:                                              ; preds = %313, %297
  %299 = load i32, i32* %13, align 4, !llfi_index !880
  %300 = sext i32 %299 to i64, !llfi_index !881
  %301 = load i32, i32* %11, align 4, !llfi_index !882
  %302 = sext i32 %301 to i64, !llfi_index !883
  %303 = getelementptr inbounds [32 x %"class.std::__cxx11::basic_string"], [32 x %"class.std::__cxx11::basic_string"]* @_Z2scB5cxx11, i64 0, i64 %302, !llfi_index !884
  %304 = call i64 @_ZNKSt7__cxx1112basic_stringIcSt11char_traitsIcESaIcEE4sizeEv(%"class.std::__cxx11::basic_string"* nonnull align 8 dereferenceable(32) %303) #2, !llfi_index !885
  %305 = icmp ult i64 %300, %304, !llfi_index !886
  br i1 %305, label %306, label %316, !llfi_index !887

306:                                              ; preds = %298
  %307 = load i32, i32* %11, align 4, !llfi_index !888
  %308 = sext i32 %307 to i64, !llfi_index !889
  %309 = getelementptr inbounds [32 x [1024 x i32]], [32 x [1024 x i32]]* @d, i64 0, i64 %308, !llfi_index !890
  %310 = load i32, i32* %13, align 4, !llfi_index !891
  %311 = sext i32 %310 to i64, !llfi_index !892
  %312 = getelementptr inbounds [1024 x i32], [1024 x i32]* %309, i64 0, i64 %311, !llfi_index !893
  store i32 0, i32* %312, align 4, !llfi_index !894
  br label %313, !llfi_index !895

313:                                              ; preds = %306
  %314 = load i32, i32* %13, align 4, !llfi_index !896
  %315 = add nsw i32 %314, 1, !llfi_index !897
  store i32 %315, i32* %13, align 4, !llfi_index !898
  br label %298, !llvm.loop !899, !llfi_index !900

316:                                              ; preds = %298
  br label %361, !llfi_index !901

317:                                              ; preds = %290
  store i32 0, i32* %14, align 4, !llfi_index !902
  br label %318, !llfi_index !903

318:                                              ; preds = %333, %317
  %319 = load i32, i32* %14, align 4, !llfi_index !904
  %320 = sext i32 %319 to i64, !llfi_index !905
  %321 = load i32, i32* %11, align 4, !llfi_index !906
  %322 = sext i32 %321 to i64, !llfi_index !907
  %323 = getelementptr inbounds [32 x %"class.std::__cxx11::basic_string"], [32 x %"class.std::__cxx11::basic_string"]* @_Z2scB5cxx11, i64 0, i64 %322, !llfi_index !908
  %324 = call i64 @_ZNKSt7__cxx1112basic_stringIcSt11char_traitsIcESaIcEE4sizeEv(%"class.std::__cxx11::basic_string"* nonnull align 8 dereferenceable(32) %323) #2, !llfi_index !909
  %325 = icmp ult i64 %320, %324, !llfi_index !910
  br i1 %325, label %326, label %336, !llfi_index !911

326:                                              ; preds = %318
  %327 = load i32, i32* %11, align 4, !llfi_index !912
  %328 = sext i32 %327 to i64, !llfi_index !913
  %329 = getelementptr inbounds [32 x [1024 x i32]], [32 x [1024 x i32]]* @d, i64 0, i64 %328, !llfi_index !914
  %330 = load i32, i32* %14, align 4, !llfi_index !915
  %331 = sext i32 %330 to i64, !llfi_index !916
  %332 = getelementptr inbounds [1024 x i32], [1024 x i32]* %329, i64 0, i64 %331, !llfi_index !917
  store i32 999999, i32* %332, align 4, !llfi_index !918
  br label %333, !llfi_index !919

333:                                              ; preds = %326
  %334 = load i32, i32* %14, align 4, !llfi_index !920
  %335 = add nsw i32 %334, 1, !llfi_index !921
  store i32 %335, i32* %14, align 4, !llfi_index !922
  br label %318, !llvm.loop !923, !llfi_index !924

336:                                              ; preds = %318
  store i32 0, i32* %15, align 4, !llfi_index !925
  br label %337, !llfi_index !926

337:                                              ; preds = %353, %336
  %338 = load i32, i32* %15, align 4, !llfi_index !927
  %339 = sext i32 %338 to i64, !llfi_index !928
  %340 = load i32, i32* %11, align 4, !llfi_index !929
  %341 = sext i32 %340 to i64, !llfi_index !930
  %342 = getelementptr inbounds [32 x %"class.std::__cxx11::basic_string"], [32 x %"class.std::__cxx11::basic_string"]* @_Z2scB5cxx11, i64 0, i64 %341, !llfi_index !931
  %343 = call i64 @_ZNKSt7__cxx1112basic_stringIcSt11char_traitsIcESaIcEE4sizeEv(%"class.std::__cxx11::basic_string"* nonnull align 8 dereferenceable(32) %342) #2, !llfi_index !932
  %344 = icmp ult i64 %339, %343, !llfi_index !933
  br i1 %344, label %345, label %360, !llfi_index !934

345:                                              ; preds = %337
  %346 = load i32, i32* %11, align 4, !llfi_index !935
  %347 = sext i32 %346 to i64, !llfi_index !936
  %348 = getelementptr inbounds [32 x %"class.std::__cxx11::basic_string"], [32 x %"class.std::__cxx11::basic_string"]* @_Z2scB5cxx11, i64 0, i64 %347, !llfi_index !937
  invoke void @_ZNSt7__cxx1112basic_stringIcSt11char_traitsIcESaIcEEC1ERKS4_(%"class.std::__cxx11::basic_string"* nonnull align 8 dereferenceable(32) %16, %"class.std::__cxx11::basic_string"* nonnull align 8 dereferenceable(32) %348)
          to label %349 unwind label %75, !llfi_index !938

349:                                              ; preds = %345
  %350 = load i32, i32* %15, align 4, !llfi_index !939
  %351 = load i32, i32* %11, align 4, !llfi_index !940
  invoke void @_Z5solveNSt7__cxx1112basic_stringIcSt11char_traitsIcESaIcEEEii(%"class.std::__cxx11::basic_string"* %16, i32 %350, i32 %351)
          to label %352 unwind label %356, !llfi_index !941

352:                                              ; preds = %349
  call void @_ZNSt7__cxx1112basic_stringIcSt11char_traitsIcESaIcEED1Ev(%"class.std::__cxx11::basic_string"* nonnull align 8 dereferenceable(32) %16) #2, !llfi_index !942
  br label %353, !llfi_index !943

353:                                              ; preds = %352
  %354 = load i32, i32* %15, align 4, !llfi_index !944
  %355 = add nsw i32 %354, 1, !llfi_index !945
  store i32 %355, i32* %15, align 4, !llfi_index !946
  br label %337, !llvm.loop !947, !llfi_index !948

356:                                              ; preds = %349
  %357 = landingpad { i8*, i32 }
          cleanup, !llfi_index !949
  %358 = extractvalue { i8*, i32 } %357, 0, !llfi_index !950
  store i8* %358, i8** %5, align 8, !llfi_index !951
  %359 = extractvalue { i8*, i32 } %357, 1, !llfi_index !952
  store i32 %359, i32* %6, align 4, !llfi_index !953
  call void @_ZNSt7__cxx1112basic_stringIcSt11char_traitsIcESaIcEED1Ev(%"class.std::__cxx11::basic_string"* nonnull align 8 dereferenceable(32) %16) #2, !llfi_index !954
  br label %374, !llfi_index !955

360:                                              ; preds = %337
  br label %361, !llfi_index !956

361:                                              ; preds = %360, %316, %289
  %362 = load i32, i32* %11, align 4, !llfi_index !957
  %363 = add nsw i32 %362, -1, !llfi_index !958
  store i32 %363, i32* %11, align 4, !llfi_index !959
  br label %248, !llvm.loop !960, !llfi_index !961

364:                                              ; preds = %248
  %365 = load i32, i32* getelementptr inbounds ([32 x [1024 x i32]], [32 x [1024 x i32]]* @d, i64 0, i64 0, i64 0), align 16, !llfi_index !962
  store i32 %365, i32* %17, align 4, !llfi_index !963
  %366 = load i32, i32* %17, align 4, !llfi_index !964
  %367 = invoke nonnull align 8 dereferenceable(8) %"class.std::basic_ostream"* @_ZNSolsEi(%"class.std::basic_ostream"* nonnull align 8 dereferenceable(8) @_ZSt4cout, i32 %366)
          to label %368 unwind label %75, !llfi_index !965

368:                                              ; preds = %364
  %369 = invoke nonnull align 8 dereferenceable(8) %"class.std::basic_ostream"* @_ZStlsISt11char_traitsIcEERSt13basic_ostreamIcT_ES5_PKc(%"class.std::basic_ostream"* nonnull align 8 dereferenceable(8) %367, i8* getelementptr inbounds ([2 x i8], [2 x i8]* @.str.5, i64 0, i64 0))
          to label %370 unwind label %75, !llfi_index !966

370:                                              ; preds = %368
  call void @_ZNSt7__cxx1112basic_stringIcSt11char_traitsIcESaIcEED1Ev(%"class.std::__cxx11::basic_string"* nonnull align 8 dereferenceable(32) %4) #2, !llfi_index !967
  br label %371, !llfi_index !968

371:                                              ; preds = %370
  %372 = load i32, i32* %2, align 4, !llfi_index !969
  %373 = add nsw i32 %372, -1, !llfi_index !970
  store i32 %373, i32* %2, align 4, !llfi_index !971
  br label %21, !llvm.loop !972, !llfi_index !973

374:                                              ; preds = %356, %75
  call void @_ZNSt7__cxx1112basic_stringIcSt11char_traitsIcESaIcEED1Ev(%"class.std::__cxx11::basic_string"* nonnull align 8 dereferenceable(32) %4) #2, !llfi_index !974
  br label %376, !llfi_index !975

375:                                              ; preds = %21
  ret i32 0, !llfi_index !976

376:                                              ; preds = %374
  %377 = load i8*, i8** %5, align 8, !llfi_index !977
  %378 = load i32, i32* %6, align 4, !llfi_index !978
  %379 = insertvalue { i8*, i32 } undef, i8* %377, 0, !llfi_index !979
  %380 = insertvalue { i8*, i32 } %379, i32 %378, 1, !llfi_index !980
  resume { i8*, i32 } %380, !llfi_index !981
}

declare dso_local %struct._IO_FILE* @freopen(i8*, i8*, %struct._IO_FILE*) #8

declare dso_local nonnull align 8 dereferenceable(16) %"class.std::basic_istream"* @_ZNSirsERi(%"class.std::basic_istream"* nonnull align 8 dereferenceable(16), i32* nonnull align 4 dereferenceable(4)) #8

declare dso_local nonnull align 8 dereferenceable(16) %"class.std::basic_istream"* @_ZStrsIcSt11char_traitsIcESaIcEERSt13basic_istreamIT_T0_ES7_RNSt7__cxx1112basic_stringIS4_S5_T1_EE(%"class.std::basic_istream"* nonnull align 8 dereferenceable(16), %"class.std::__cxx11::basic_string"* nonnull align 8 dereferenceable(32)) #8

declare dso_local nonnull align 8 dereferenceable(32) %"class.std::__cxx11::basic_string"* @_ZNSt7__cxx1112basic_stringIcSt11char_traitsIcESaIcEEaSERKS4_(%"class.std::__cxx11::basic_string"* nonnull align 8 dereferenceable(32), %"class.std::__cxx11::basic_string"* nonnull align 8 dereferenceable(32)) #8

; Function Attrs: nounwind
declare dso_local void @_ZNSt7__cxx1112basic_stringIcSt11char_traitsIcESaIcEE5clearEv(%"class.std::__cxx11::basic_string"* nonnull align 8 dereferenceable(32)) #7

declare dso_local nonnull align 8 dereferenceable(32) %"class.std::__cxx11::basic_string"* @_ZNSt7__cxx1112basic_stringIcSt11char_traitsIcESaIcEEpLEc(%"class.std::__cxx11::basic_string"* nonnull align 8 dereferenceable(32), i8 signext) #8

; Function Attrs: mustprogress noinline nounwind uwtable
define linkonce_odr dso_local void @_ZNSt6vectorIiSaIiEE5clearEv(%"class.std::vector"* nonnull align 8 dereferenceable(24) %0) #3 comdat align 2 {
  %2 = alloca %"class.std::vector"*, align 8, !llfi_index !982
  store %"class.std::vector"* %0, %"class.std::vector"** %2, align 8, !llfi_index !983
  %3 = load %"class.std::vector"*, %"class.std::vector"** %2, align 8, !llfi_index !984
  %4 = bitcast %"class.std::vector"* %3 to %"struct.std::_Vector_base"*, !llfi_index !985
  %5 = getelementptr inbounds %"struct.std::_Vector_base", %"struct.std::_Vector_base"* %4, i32 0, i32 0, !llfi_index !986
  %6 = bitcast %"struct.std::_Vector_base<int, std::allocator<int>>::_Vector_impl"* %5 to %"struct.std::_Vector_base<int, std::allocator<int>>::_Vector_impl_data"*, !llfi_index !987
  %7 = getelementptr inbounds %"struct.std::_Vector_base<int, std::allocator<int>>::_Vector_impl_data", %"struct.std::_Vector_base<int, std::allocator<int>>::_Vector_impl_data"* %6, i32 0, i32 0, !llfi_index !988
  %8 = load i32*, i32** %7, align 8, !llfi_index !989
  call void @_ZNSt6vectorIiSaIiEE15_M_erase_at_endEPi(%"class.std::vector"* nonnull align 8 dereferenceable(24) %3, i32* %8) #2, !llfi_index !990
  ret void, !llfi_index !991
}

; Function Attrs: mustprogress noinline uwtable
define linkonce_odr dso_local void @_ZNSt6vectorIiSaIiEE9push_backERKi(%"class.std::vector"* nonnull align 8 dereferenceable(24) %0, i32* nonnull align 4 dereferenceable(4) %1) #4 comdat align 2 {
  %3 = alloca %"class.std::vector"*, align 8, !llfi_index !992
  %4 = alloca i32*, align 8, !llfi_index !993
  %5 = alloca %"class.__gnu_cxx::__normal_iterator", align 8, !llfi_index !994
  store %"class.std::vector"* %0, %"class.std::vector"** %3, align 8, !llfi_index !995
  store i32* %1, i32** %4, align 8, !llfi_index !996
  %6 = load %"class.std::vector"*, %"class.std::vector"** %3, align 8, !llfi_index !997
  %7 = bitcast %"class.std::vector"* %6 to %"struct.std::_Vector_base"*, !llfi_index !998
  %8 = getelementptr inbounds %"struct.std::_Vector_base", %"struct.std::_Vector_base"* %7, i32 0, i32 0, !llfi_index !999
  %9 = bitcast %"struct.std::_Vector_base<int, std::allocator<int>>::_Vector_impl"* %8 to %"struct.std::_Vector_base<int, std::allocator<int>>::_Vector_impl_data"*, !llfi_index !1000
  %10 = getelementptr inbounds %"struct.std::_Vector_base<int, std::allocator<int>>::_Vector_impl_data", %"struct.std::_Vector_base<int, std::allocator<int>>::_Vector_impl_data"* %9, i32 0, i32 1, !llfi_index !1001
  %11 = load i32*, i32** %10, align 8, !llfi_index !1002
  %12 = bitcast %"class.std::vector"* %6 to %"struct.std::_Vector_base"*, !llfi_index !1003
  %13 = getelementptr inbounds %"struct.std::_Vector_base", %"struct.std::_Vector_base"* %12, i32 0, i32 0, !llfi_index !1004
  %14 = bitcast %"struct.std::_Vector_base<int, std::allocator<int>>::_Vector_impl"* %13 to %"struct.std::_Vector_base<int, std::allocator<int>>::_Vector_impl_data"*, !llfi_index !1005
  %15 = getelementptr inbounds %"struct.std::_Vector_base<int, std::allocator<int>>::_Vector_impl_data", %"struct.std::_Vector_base<int, std::allocator<int>>::_Vector_impl_data"* %14, i32 0, i32 2, !llfi_index !1006
  %16 = load i32*, i32** %15, align 8, !llfi_index !1007
  %17 = icmp ne i32* %11, %16, !llfi_index !1008
  br i1 %17, label %18, label %34, !llfi_index !1009

18:                                               ; preds = %2
  %19 = bitcast %"class.std::vector"* %6 to %"struct.std::_Vector_base"*, !llfi_index !1010
  %20 = getelementptr inbounds %"struct.std::_Vector_base", %"struct.std::_Vector_base"* %19, i32 0, i32 0, !llfi_index !1011
  %21 = bitcast %"struct.std::_Vector_base<int, std::allocator<int>>::_Vector_impl"* %20 to %"class.std::allocator.0"*, !llfi_index !1012
  %22 = bitcast %"class.std::vector"* %6 to %"struct.std::_Vector_base"*, !llfi_index !1013
  %23 = getelementptr inbounds %"struct.std::_Vector_base", %"struct.std::_Vector_base"* %22, i32 0, i32 0, !llfi_index !1014
  %24 = bitcast %"struct.std::_Vector_base<int, std::allocator<int>>::_Vector_impl"* %23 to %"struct.std::_Vector_base<int, std::allocator<int>>::_Vector_impl_data"*, !llfi_index !1015
  %25 = getelementptr inbounds %"struct.std::_Vector_base<int, std::allocator<int>>::_Vector_impl_data", %"struct.std::_Vector_base<int, std::allocator<int>>::_Vector_impl_data"* %24, i32 0, i32 1, !llfi_index !1016
  %26 = load i32*, i32** %25, align 8, !llfi_index !1017
  %27 = load i32*, i32** %4, align 8, !llfi_index !1018
  call void @_ZNSt16allocator_traitsISaIiEE9constructIiJRKiEEEvRS0_PT_DpOT0_(%"class.std::allocator.0"* nonnull align 1 dereferenceable(1) %21, i32* %26, i32* nonnull align 4 dereferenceable(4) %27) #2, !llfi_index !1019
  %28 = bitcast %"class.std::vector"* %6 to %"struct.std::_Vector_base"*, !llfi_index !1020
  %29 = getelementptr inbounds %"struct.std::_Vector_base", %"struct.std::_Vector_base"* %28, i32 0, i32 0, !llfi_index !1021
  %30 = bitcast %"struct.std::_Vector_base<int, std::allocator<int>>::_Vector_impl"* %29 to %"struct.std::_Vector_base<int, std::allocator<int>>::_Vector_impl_data"*, !llfi_index !1022
  %31 = getelementptr inbounds %"struct.std::_Vector_base<int, std::allocator<int>>::_Vector_impl_data", %"struct.std::_Vector_base<int, std::allocator<int>>::_Vector_impl_data"* %30, i32 0, i32 1, !llfi_index !1023
  %32 = load i32*, i32** %31, align 8, !llfi_index !1024
  %33 = getelementptr inbounds i32, i32* %32, i32 1, !llfi_index !1025
  store i32* %33, i32** %31, align 8, !llfi_index !1026
  br label %40, !llfi_index !1027

34:                                               ; preds = %2
  %35 = call i32* @_ZNSt6vectorIiSaIiEE3endEv(%"class.std::vector"* nonnull align 8 dereferenceable(24) %6) #2, !llfi_index !1028
  %36 = getelementptr inbounds %"class.__gnu_cxx::__normal_iterator", %"class.__gnu_cxx::__normal_iterator"* %5, i32 0, i32 0, !llfi_index !1029
  store i32* %35, i32** %36, align 8, !llfi_index !1030
  %37 = load i32*, i32** %4, align 8, !llfi_index !1031
  %38 = getelementptr inbounds %"class.__gnu_cxx::__normal_iterator", %"class.__gnu_cxx::__normal_iterator"* %5, i32 0, i32 0, !llfi_index !1032
  %39 = load i32*, i32** %38, align 8, !llfi_index !1033
  call void @_ZNSt6vectorIiSaIiEE17_M_realloc_insertIJRKiEEEvN9__gnu_cxx17__normal_iteratorIPiS1_EEDpOT_(%"class.std::vector"* nonnull align 8 dereferenceable(24) %6, i32* %39, i32* nonnull align 4 dereferenceable(4) %37), !llfi_index !1034
  br label %40, !llfi_index !1035

40:                                               ; preds = %34, %18
  ret void, !llfi_index !1036
}

declare dso_local void @_ZNSt7__cxx1112basic_stringIcSt11char_traitsIcESaIcEEC1ERKS4_(%"class.std::__cxx11::basic_string"* nonnull align 8 dereferenceable(32), %"class.std::__cxx11::basic_string"* nonnull align 8 dereferenceable(32)) unnamed_addr #8

declare dso_local nonnull align 8 dereferenceable(8) %"class.std::basic_ostream"* @_ZNSolsEi(%"class.std::basic_ostream"* nonnull align 8 dereferenceable(8), i32) #8

declare dso_local nonnull align 8 dereferenceable(8) %"class.std::basic_ostream"* @_ZStlsISt11char_traitsIcEERSt13basic_ostreamIcT_ES5_PKc(%"class.std::basic_ostream"* nonnull align 8 dereferenceable(8), i8*) #8

; Function Attrs: mustprogress noinline nounwind uwtable
define linkonce_odr dso_local void @_ZNSt16allocator_traitsISaIiEE9constructIiJRKiEEEvRS0_PT_DpOT0_(%"class.std::allocator.0"* nonnull align 1 dereferenceable(1) %0, i32* %1, i32* nonnull align 4 dereferenceable(4) %2) #3 comdat align 2 {
  %4 = alloca %"class.std::allocator.0"*, align 8, !llfi_index !1037
  %5 = alloca i32*, align 8, !llfi_index !1038
  %6 = alloca i32*, align 8, !llfi_index !1039
  store %"class.std::allocator.0"* %0, %"class.std::allocator.0"** %4, align 8, !llfi_index !1040
  store i32* %1, i32** %5, align 8, !llfi_index !1041
  store i32* %2, i32** %6, align 8, !llfi_index !1042
  %7 = load %"class.std::allocator.0"*, %"class.std::allocator.0"** %4, align 8, !llfi_index !1043
  %8 = bitcast %"class.std::allocator.0"* %7 to %"class.std::allocator.0"*, !llfi_index !1044
  %9 = load i32*, i32** %5, align 8, !llfi_index !1045
  %10 = load i32*, i32** %6, align 8, !llfi_index !1046
  %11 = call nonnull align 4 dereferenceable(4) i32* @_ZSt7forwardIRKiEOT_RNSt16remove_referenceIS2_E4typeE(i32* nonnull align 4 dereferenceable(4) %10) #2, !llfi_index !1047
  call void @_ZN9__gnu_cxx13new_allocatorIiE9constructIiJRKiEEEvPT_DpOT0_(%"class.std::allocator.0"* nonnull align 1 dereferenceable(1) %8, i32* %9, i32* nonnull align 4 dereferenceable(4) %11) #2, !llfi_index !1048
  ret void, !llfi_index !1049
}

; Function Attrs: mustprogress noinline nounwind uwtable
define linkonce_odr dso_local i32* @_ZNSt6vectorIiSaIiEE3endEv(%"class.std::vector"* nonnull align 8 dereferenceable(24) %0) #3 comdat align 2 {
  %2 = alloca %"class.__gnu_cxx::__normal_iterator", align 8, !llfi_index !1050
  %3 = alloca %"class.std::vector"*, align 8, !llfi_index !1051
  store %"class.std::vector"* %0, %"class.std::vector"** %3, align 8, !llfi_index !1052
  %4 = load %"class.std::vector"*, %"class.std::vector"** %3, align 8, !llfi_index !1053
  %5 = bitcast %"class.std::vector"* %4 to %"struct.std::_Vector_base"*, !llfi_index !1054
  %6 = getelementptr inbounds %"struct.std::_Vector_base", %"struct.std::_Vector_base"* %5, i32 0, i32 0, !llfi_index !1055
  %7 = bitcast %"struct.std::_Vector_base<int, std::allocator<int>>::_Vector_impl"* %6 to %"struct.std::_Vector_base<int, std::allocator<int>>::_Vector_impl_data"*, !llfi_index !1056
  %8 = getelementptr inbounds %"struct.std::_Vector_base<int, std::allocator<int>>::_Vector_impl_data", %"struct.std::_Vector_base<int, std::allocator<int>>::_Vector_impl_data"* %7, i32 0, i32 1, !llfi_index !1057
  call void @_ZN9__gnu_cxx17__normal_iteratorIPiSt6vectorIiSaIiEEEC2ERKS1_(%"class.__gnu_cxx::__normal_iterator"* nonnull align 8 dereferenceable(8) %2, i32** nonnull align 8 dereferenceable(8) %8) #2, !llfi_index !1058
  %9 = getelementptr inbounds %"class.__gnu_cxx::__normal_iterator", %"class.__gnu_cxx::__normal_iterator"* %2, i32 0, i32 0, !llfi_index !1059
  %10 = load i32*, i32** %9, align 8, !llfi_index !1060
  ret i32* %10, !llfi_index !1061
}

; Function Attrs: mustprogress noinline uwtable
define linkonce_odr dso_local void @_ZNSt6vectorIiSaIiEE17_M_realloc_insertIJRKiEEEvN9__gnu_cxx17__normal_iteratorIPiS1_EEDpOT_(%"class.std::vector"* nonnull align 8 dereferenceable(24) %0, i32* %1, i32* nonnull align 4 dereferenceable(4) %2) #4 comdat align 2 {
  %4 = alloca %"class.__gnu_cxx::__normal_iterator", align 8, !llfi_index !1062
  %5 = alloca %"class.std::vector"*, align 8, !llfi_index !1063
  %6 = alloca i32*, align 8, !llfi_index !1064
  %7 = alloca i64, align 8, !llfi_index !1065
  %8 = alloca i32*, align 8, !llfi_index !1066
  %9 = alloca i32*, align 8, !llfi_index !1067
  %10 = alloca i64, align 8, !llfi_index !1068
  %11 = alloca %"class.__gnu_cxx::__normal_iterator", align 8, !llfi_index !1069
  %12 = alloca i32*, align 8, !llfi_index !1070
  %13 = alloca i32*, align 8, !llfi_index !1071
  %14 = getelementptr inbounds %"class.__gnu_cxx::__normal_iterator", %"class.__gnu_cxx::__normal_iterator"* %4, i32 0, i32 0, !llfi_index !1072
  store i32* %1, i32** %14, align 8, !llfi_index !1073
  store %"class.std::vector"* %0, %"class.std::vector"** %5, align 8, !llfi_index !1074
  store i32* %2, i32** %6, align 8, !llfi_index !1075
  %15 = load %"class.std::vector"*, %"class.std::vector"** %5, align 8, !llfi_index !1076
  %16 = call i64 @_ZNKSt6vectorIiSaIiEE12_M_check_lenEmPKc(%"class.std::vector"* nonnull align 8 dereferenceable(24) %15, i64 1, i8* getelementptr inbounds ([26 x i8], [26 x i8]* @.str.6, i64 0, i64 0)), !llfi_index !1077
  store i64 %16, i64* %7, align 8, !llfi_index !1078
  %17 = bitcast %"class.std::vector"* %15 to %"struct.std::_Vector_base"*, !llfi_index !1079
  %18 = getelementptr inbounds %"struct.std::_Vector_base", %"struct.std::_Vector_base"* %17, i32 0, i32 0, !llfi_index !1080
  %19 = bitcast %"struct.std::_Vector_base<int, std::allocator<int>>::_Vector_impl"* %18 to %"struct.std::_Vector_base<int, std::allocator<int>>::_Vector_impl_data"*, !llfi_index !1081
  %20 = getelementptr inbounds %"struct.std::_Vector_base<int, std::allocator<int>>::_Vector_impl_data", %"struct.std::_Vector_base<int, std::allocator<int>>::_Vector_impl_data"* %19, i32 0, i32 0, !llfi_index !1082
  %21 = load i32*, i32** %20, align 8, !llfi_index !1083
  store i32* %21, i32** %8, align 8, !llfi_index !1084
  %22 = bitcast %"class.std::vector"* %15 to %"struct.std::_Vector_base"*, !llfi_index !1085
  %23 = getelementptr inbounds %"struct.std::_Vector_base", %"struct.std::_Vector_base"* %22, i32 0, i32 0, !llfi_index !1086
  %24 = bitcast %"struct.std::_Vector_base<int, std::allocator<int>>::_Vector_impl"* %23 to %"struct.std::_Vector_base<int, std::allocator<int>>::_Vector_impl_data"*, !llfi_index !1087
  %25 = getelementptr inbounds %"struct.std::_Vector_base<int, std::allocator<int>>::_Vector_impl_data", %"struct.std::_Vector_base<int, std::allocator<int>>::_Vector_impl_data"* %24, i32 0, i32 1, !llfi_index !1088
  %26 = load i32*, i32** %25, align 8, !llfi_index !1089
  store i32* %26, i32** %9, align 8, !llfi_index !1090
  %27 = call i32* @_ZNSt6vectorIiSaIiEE5beginEv(%"class.std::vector"* nonnull align 8 dereferenceable(24) %15) #2, !llfi_index !1091
  %28 = getelementptr inbounds %"class.__gnu_cxx::__normal_iterator", %"class.__gnu_cxx::__normal_iterator"* %11, i32 0, i32 0, !llfi_index !1092
  store i32* %27, i32** %28, align 8, !llfi_index !1093
  %29 = call i64 @_ZN9__gnu_cxxmiIPiSt6vectorIiSaIiEEEENS_17__normal_iteratorIT_T0_E15difference_typeERKS8_SB_(%"class.__gnu_cxx::__normal_iterator"* nonnull align 8 dereferenceable(8) %4, %"class.__gnu_cxx::__normal_iterator"* nonnull align 8 dereferenceable(8) %11) #2, !llfi_index !1094
  store i64 %29, i64* %10, align 8, !llfi_index !1095
  %30 = bitcast %"class.std::vector"* %15 to %"struct.std::_Vector_base"*, !llfi_index !1096
  %31 = load i64, i64* %7, align 8, !llfi_index !1097
  %32 = call i32* @_ZNSt12_Vector_baseIiSaIiEE11_M_allocateEm(%"struct.std::_Vector_base"* nonnull align 8 dereferenceable(24) %30, i64 %31), !llfi_index !1098
  store i32* %32, i32** %12, align 8, !llfi_index !1099
  %33 = load i32*, i32** %12, align 8, !llfi_index !1100
  store i32* %33, i32** %13, align 8, !llfi_index !1101
  %34 = bitcast %"class.std::vector"* %15 to %"struct.std::_Vector_base"*, !llfi_index !1102
  %35 = getelementptr inbounds %"struct.std::_Vector_base", %"struct.std::_Vector_base"* %34, i32 0, i32 0, !llfi_index !1103
  %36 = bitcast %"struct.std::_Vector_base<int, std::allocator<int>>::_Vector_impl"* %35 to %"class.std::allocator.0"*, !llfi_index !1104
  %37 = load i32*, i32** %12, align 8, !llfi_index !1105
  %38 = load i64, i64* %10, align 8, !llfi_index !1106
  %39 = getelementptr inbounds i32, i32* %37, i64 %38, !llfi_index !1107
  %40 = load i32*, i32** %6, align 8, !llfi_index !1108
  %41 = call nonnull align 4 dereferenceable(4) i32* @_ZSt7forwardIRKiEOT_RNSt16remove_referenceIS2_E4typeE(i32* nonnull align 4 dereferenceable(4) %40) #2, !llfi_index !1109
  call void @_ZNSt16allocator_traitsISaIiEE9constructIiJRKiEEEvRS0_PT_DpOT0_(%"class.std::allocator.0"* nonnull align 1 dereferenceable(1) %36, i32* %39, i32* nonnull align 4 dereferenceable(4) %41) #2, !llfi_index !1110
  store i32* null, i32** %13, align 8, !llfi_index !1111
  %42 = load i32*, i32** %8, align 8, !llfi_index !1112
  %43 = call nonnull align 8 dereferenceable(8) i32** @_ZNK9__gnu_cxx17__normal_iteratorIPiSt6vectorIiSaIiEEE4baseEv(%"class.__gnu_cxx::__normal_iterator"* nonnull align 8 dereferenceable(8) %4) #2, !llfi_index !1113
  %44 = load i32*, i32** %43, align 8, !llfi_index !1114
  %45 = load i32*, i32** %12, align 8, !llfi_index !1115
  %46 = bitcast %"class.std::vector"* %15 to %"struct.std::_Vector_base"*, !llfi_index !1116
  %47 = call nonnull align 1 dereferenceable(1) %"class.std::allocator.0"* @_ZNSt12_Vector_baseIiSaIiEE19_M_get_Tp_allocatorEv(%"struct.std::_Vector_base"* nonnull align 8 dereferenceable(24) %46) #2, !llfi_index !1117
  %48 = call i32* @_ZNSt6vectorIiSaIiEE11_S_relocateEPiS2_S2_RS0_(i32* %42, i32* %44, i32* %45, %"class.std::allocator.0"* nonnull align 1 dereferenceable(1) %47) #2, !llfi_index !1118
  store i32* %48, i32** %13, align 8, !llfi_index !1119
  %49 = load i32*, i32** %13, align 8, !llfi_index !1120
  %50 = getelementptr inbounds i32, i32* %49, i32 1, !llfi_index !1121
  store i32* %50, i32** %13, align 8, !llfi_index !1122
  %51 = call nonnull align 8 dereferenceable(8) i32** @_ZNK9__gnu_cxx17__normal_iteratorIPiSt6vectorIiSaIiEEE4baseEv(%"class.__gnu_cxx::__normal_iterator"* nonnull align 8 dereferenceable(8) %4) #2, !llfi_index !1123
  %52 = load i32*, i32** %51, align 8, !llfi_index !1124
  %53 = load i32*, i32** %9, align 8, !llfi_index !1125
  %54 = load i32*, i32** %13, align 8, !llfi_index !1126
  %55 = bitcast %"class.std::vector"* %15 to %"struct.std::_Vector_base"*, !llfi_index !1127
  %56 = call nonnull align 1 dereferenceable(1) %"class.std::allocator.0"* @_ZNSt12_Vector_baseIiSaIiEE19_M_get_Tp_allocatorEv(%"struct.std::_Vector_base"* nonnull align 8 dereferenceable(24) %55) #2, !llfi_index !1128
  %57 = call i32* @_ZNSt6vectorIiSaIiEE11_S_relocateEPiS2_S2_RS0_(i32* %52, i32* %53, i32* %54, %"class.std::allocator.0"* nonnull align 1 dereferenceable(1) %56) #2, !llfi_index !1129
  store i32* %57, i32** %13, align 8, !llfi_index !1130
  %58 = bitcast %"class.std::vector"* %15 to %"struct.std::_Vector_base"*, !llfi_index !1131
  %59 = load i32*, i32** %8, align 8, !llfi_index !1132
  %60 = bitcast %"class.std::vector"* %15 to %"struct.std::_Vector_base"*, !llfi_index !1133
  %61 = getelementptr inbounds %"struct.std::_Vector_base", %"struct.std::_Vector_base"* %60, i32 0, i32 0, !llfi_index !1134
  %62 = bitcast %"struct.std::_Vector_base<int, std::allocator<int>>::_Vector_impl"* %61 to %"struct.std::_Vector_base<int, std::allocator<int>>::_Vector_impl_data"*, !llfi_index !1135
  %63 = getelementptr inbounds %"struct.std::_Vector_base<int, std::allocator<int>>::_Vector_impl_data", %"struct.std::_Vector_base<int, std::allocator<int>>::_Vector_impl_data"* %62, i32 0, i32 2, !llfi_index !1136
  %64 = load i32*, i32** %63, align 8, !llfi_index !1137
  %65 = load i32*, i32** %8, align 8, !llfi_index !1138
  %66 = ptrtoint i32* %64 to i64, !llfi_index !1139
  %67 = ptrtoint i32* %65 to i64, !llfi_index !1140
  %68 = sub i64 %66, %67, !llfi_index !1141
  %69 = sdiv exact i64 %68, 4, !llfi_index !1142
  call void @_ZNSt12_Vector_baseIiSaIiEE13_M_deallocateEPim(%"struct.std::_Vector_base"* nonnull align 8 dereferenceable(24) %58, i32* %59, i64 %69), !llfi_index !1143
  %70 = load i32*, i32** %12, align 8, !llfi_index !1144
  %71 = bitcast %"class.std::vector"* %15 to %"struct.std::_Vector_base"*, !llfi_index !1145
  %72 = getelementptr inbounds %"struct.std::_Vector_base", %"struct.std::_Vector_base"* %71, i32 0, i32 0, !llfi_index !1146
  %73 = bitcast %"struct.std::_Vector_base<int, std::allocator<int>>::_Vector_impl"* %72 to %"struct.std::_Vector_base<int, std::allocator<int>>::_Vector_impl_data"*, !llfi_index !1147
  %74 = getelementptr inbounds %"struct.std::_Vector_base<int, std::allocator<int>>::_Vector_impl_data", %"struct.std::_Vector_base<int, std::allocator<int>>::_Vector_impl_data"* %73, i32 0, i32 0, !llfi_index !1148
  store i32* %70, i32** %74, align 8, !llfi_index !1149
  %75 = load i32*, i32** %13, align 8, !llfi_index !1150
  %76 = bitcast %"class.std::vector"* %15 to %"struct.std::_Vector_base"*, !llfi_index !1151
  %77 = getelementptr inbounds %"struct.std::_Vector_base", %"struct.std::_Vector_base"* %76, i32 0, i32 0, !llfi_index !1152
  %78 = bitcast %"struct.std::_Vector_base<int, std::allocator<int>>::_Vector_impl"* %77 to %"struct.std::_Vector_base<int, std::allocator<int>>::_Vector_impl_data"*, !llfi_index !1153
  %79 = getelementptr inbounds %"struct.std::_Vector_base<int, std::allocator<int>>::_Vector_impl_data", %"struct.std::_Vector_base<int, std::allocator<int>>::_Vector_impl_data"* %78, i32 0, i32 1, !llfi_index !1154
  store i32* %75, i32** %79, align 8, !llfi_index !1155
  %80 = load i32*, i32** %12, align 8, !llfi_index !1156
  %81 = load i64, i64* %7, align 8, !llfi_index !1157
  %82 = getelementptr inbounds i32, i32* %80, i64 %81, !llfi_index !1158
  %83 = bitcast %"class.std::vector"* %15 to %"struct.std::_Vector_base"*, !llfi_index !1159
  %84 = getelementptr inbounds %"struct.std::_Vector_base", %"struct.std::_Vector_base"* %83, i32 0, i32 0, !llfi_index !1160
  %85 = bitcast %"struct.std::_Vector_base<int, std::allocator<int>>::_Vector_impl"* %84 to %"struct.std::_Vector_base<int, std::allocator<int>>::_Vector_impl_data"*, !llfi_index !1161
  %86 = getelementptr inbounds %"struct.std::_Vector_base<int, std::allocator<int>>::_Vector_impl_data", %"struct.std::_Vector_base<int, std::allocator<int>>::_Vector_impl_data"* %85, i32 0, i32 2, !llfi_index !1162
  store i32* %82, i32** %86, align 8, !llfi_index !1163
  ret void, !llfi_index !1164
}

; Function Attrs: mustprogress noinline uwtable
define linkonce_odr dso_local i64 @_ZNKSt6vectorIiSaIiEE12_M_check_lenEmPKc(%"class.std::vector"* nonnull align 8 dereferenceable(24) %0, i64 %1, i8* %2) #4 comdat align 2 {
  %4 = alloca %"class.std::vector"*, align 8, !llfi_index !1165
  %5 = alloca i64, align 8, !llfi_index !1166
  %6 = alloca i8*, align 8, !llfi_index !1167
  %7 = alloca i64, align 8, !llfi_index !1168
  %8 = alloca i64, align 8, !llfi_index !1169
  store %"class.std::vector"* %0, %"class.std::vector"** %4, align 8, !llfi_index !1170
  store i64 %1, i64* %5, align 8, !llfi_index !1171
  store i8* %2, i8** %6, align 8, !llfi_index !1172
  %9 = load %"class.std::vector"*, %"class.std::vector"** %4, align 8, !llfi_index !1173
  %10 = call i64 @_ZNKSt6vectorIiSaIiEE8max_sizeEv(%"class.std::vector"* nonnull align 8 dereferenceable(24) %9) #2, !llfi_index !1174
  %11 = call i64 @_ZNKSt6vectorIiSaIiEE4sizeEv(%"class.std::vector"* nonnull align 8 dereferenceable(24) %9) #2, !llfi_index !1175
  %12 = sub i64 %10, %11, !llfi_index !1176
  %13 = load i64, i64* %5, align 8, !llfi_index !1177
  %14 = icmp ult i64 %12, %13, !llfi_index !1178
  br i1 %14, label %15, label %17, !llfi_index !1179

15:                                               ; preds = %3
  %16 = load i8*, i8** %6, align 8, !llfi_index !1180
  call void @_ZSt20__throw_length_errorPKc(i8* %16) #14, !llfi_index !1181
  unreachable, !llfi_index !1182

17:                                               ; preds = %3
  %18 = call i64 @_ZNKSt6vectorIiSaIiEE4sizeEv(%"class.std::vector"* nonnull align 8 dereferenceable(24) %9) #2, !llfi_index !1183
  %19 = call i64 @_ZNKSt6vectorIiSaIiEE4sizeEv(%"class.std::vector"* nonnull align 8 dereferenceable(24) %9) #2, !llfi_index !1184
  store i64 %19, i64* %8, align 8, !llfi_index !1185
  %20 = call nonnull align 8 dereferenceable(8) i64* @_ZSt3maxImERKT_S2_S2_(i64* nonnull align 8 dereferenceable(8) %8, i64* nonnull align 8 dereferenceable(8) %5), !llfi_index !1186
  %21 = load i64, i64* %20, align 8, !llfi_index !1187
  %22 = add i64 %18, %21, !llfi_index !1188
  store i64 %22, i64* %7, align 8, !llfi_index !1189
  %23 = load i64, i64* %7, align 8, !llfi_index !1190
  %24 = call i64 @_ZNKSt6vectorIiSaIiEE4sizeEv(%"class.std::vector"* nonnull align 8 dereferenceable(24) %9) #2, !llfi_index !1191
  %25 = icmp ult i64 %23, %24, !llfi_index !1192
  br i1 %25, label %30, label %26, !llfi_index !1193

26:                                               ; preds = %17
  %27 = load i64, i64* %7, align 8, !llfi_index !1194
  %28 = call i64 @_ZNKSt6vectorIiSaIiEE8max_sizeEv(%"class.std::vector"* nonnull align 8 dereferenceable(24) %9) #2, !llfi_index !1195
  %29 = icmp ugt i64 %27, %28, !llfi_index !1196
  br i1 %29, label %30, label %32, !llfi_index !1197

30:                                               ; preds = %26, %17
  %31 = call i64 @_ZNKSt6vectorIiSaIiEE8max_sizeEv(%"class.std::vector"* nonnull align 8 dereferenceable(24) %9) #2, !llfi_index !1198
  br label %34, !llfi_index !1199

32:                                               ; preds = %26
  %33 = load i64, i64* %7, align 8, !llfi_index !1200
  br label %34, !llfi_index !1201

34:                                               ; preds = %32, %30
  %35 = phi i64 [ %31, %30 ], [ %33, %32 ], !llfi_index !1202
  ret i64 %35, !llfi_index !1203
}

; Function Attrs: mustprogress noinline nounwind uwtable
define linkonce_odr dso_local i32* @_ZNSt6vectorIiSaIiEE5beginEv(%"class.std::vector"* nonnull align 8 dereferenceable(24) %0) #3 comdat align 2 {
  %2 = alloca %"class.__gnu_cxx::__normal_iterator", align 8, !llfi_index !1204
  %3 = alloca %"class.std::vector"*, align 8, !llfi_index !1205
  store %"class.std::vector"* %0, %"class.std::vector"** %3, align 8, !llfi_index !1206
  %4 = load %"class.std::vector"*, %"class.std::vector"** %3, align 8, !llfi_index !1207
  %5 = bitcast %"class.std::vector"* %4 to %"struct.std::_Vector_base"*, !llfi_index !1208
  %6 = getelementptr inbounds %"struct.std::_Vector_base", %"struct.std::_Vector_base"* %5, i32 0, i32 0, !llfi_index !1209
  %7 = bitcast %"struct.std::_Vector_base<int, std::allocator<int>>::_Vector_impl"* %6 to %"struct.std::_Vector_base<int, std::allocator<int>>::_Vector_impl_data"*, !llfi_index !1210
  %8 = getelementptr inbounds %"struct.std::_Vector_base<int, std::allocator<int>>::_Vector_impl_data", %"struct.std::_Vector_base<int, std::allocator<int>>::_Vector_impl_data"* %7, i32 0, i32 0, !llfi_index !1211
  call void @_ZN9__gnu_cxx17__normal_iteratorIPiSt6vectorIiSaIiEEEC2ERKS1_(%"class.__gnu_cxx::__normal_iterator"* nonnull align 8 dereferenceable(8) %2, i32** nonnull align 8 dereferenceable(8) %8) #2, !llfi_index !1212
  %9 = getelementptr inbounds %"class.__gnu_cxx::__normal_iterator", %"class.__gnu_cxx::__normal_iterator"* %2, i32 0, i32 0, !llfi_index !1213
  %10 = load i32*, i32** %9, align 8, !llfi_index !1214
  ret i32* %10, !llfi_index !1215
}

; Function Attrs: mustprogress noinline nounwind uwtable
define linkonce_odr dso_local i64 @_ZN9__gnu_cxxmiIPiSt6vectorIiSaIiEEEENS_17__normal_iteratorIT_T0_E15difference_typeERKS8_SB_(%"class.__gnu_cxx::__normal_iterator"* nonnull align 8 dereferenceable(8) %0, %"class.__gnu_cxx::__normal_iterator"* nonnull align 8 dereferenceable(8) %1) #3 comdat {
  %3 = alloca %"class.__gnu_cxx::__normal_iterator"*, align 8, !llfi_index !1216
  %4 = alloca %"class.__gnu_cxx::__normal_iterator"*, align 8, !llfi_index !1217
  store %"class.__gnu_cxx::__normal_iterator"* %0, %"class.__gnu_cxx::__normal_iterator"** %3, align 8, !llfi_index !1218
  store %"class.__gnu_cxx::__normal_iterator"* %1, %"class.__gnu_cxx::__normal_iterator"** %4, align 8, !llfi_index !1219
  %5 = load %"class.__gnu_cxx::__normal_iterator"*, %"class.__gnu_cxx::__normal_iterator"** %3, align 8, !llfi_index !1220
  %6 = call nonnull align 8 dereferenceable(8) i32** @_ZNK9__gnu_cxx17__normal_iteratorIPiSt6vectorIiSaIiEEE4baseEv(%"class.__gnu_cxx::__normal_iterator"* nonnull align 8 dereferenceable(8) %5) #2, !llfi_index !1221
  %7 = load i32*, i32** %6, align 8, !llfi_index !1222
  %8 = load %"class.__gnu_cxx::__normal_iterator"*, %"class.__gnu_cxx::__normal_iterator"** %4, align 8, !llfi_index !1223
  %9 = call nonnull align 8 dereferenceable(8) i32** @_ZNK9__gnu_cxx17__normal_iteratorIPiSt6vectorIiSaIiEEE4baseEv(%"class.__gnu_cxx::__normal_iterator"* nonnull align 8 dereferenceable(8) %8) #2, !llfi_index !1224
  %10 = load i32*, i32** %9, align 8, !llfi_index !1225
  %11 = ptrtoint i32* %7 to i64, !llfi_index !1226
  %12 = ptrtoint i32* %10 to i64, !llfi_index !1227
  %13 = sub i64 %11, %12, !llfi_index !1228
  %14 = sdiv exact i64 %13, 4, !llfi_index !1229
  ret i64 %14, !llfi_index !1230
}

; Function Attrs: mustprogress noinline uwtable
define linkonce_odr dso_local i32* @_ZNSt12_Vector_baseIiSaIiEE11_M_allocateEm(%"struct.std::_Vector_base"* nonnull align 8 dereferenceable(24) %0, i64 %1) #4 comdat align 2 {
  %3 = alloca %"struct.std::_Vector_base"*, align 8, !llfi_index !1231
  %4 = alloca i64, align 8, !llfi_index !1232
  store %"struct.std::_Vector_base"* %0, %"struct.std::_Vector_base"** %3, align 8, !llfi_index !1233
  store i64 %1, i64* %4, align 8, !llfi_index !1234
  %5 = load %"struct.std::_Vector_base"*, %"struct.std::_Vector_base"** %3, align 8, !llfi_index !1235
  %6 = load i64, i64* %4, align 8, !llfi_index !1236
  %7 = icmp ne i64 %6, 0, !llfi_index !1237
  br i1 %7, label %8, label %13, !llfi_index !1238

8:                                                ; preds = %2
  %9 = getelementptr inbounds %"struct.std::_Vector_base", %"struct.std::_Vector_base"* %5, i32 0, i32 0, !llfi_index !1239
  %10 = bitcast %"struct.std::_Vector_base<int, std::allocator<int>>::_Vector_impl"* %9 to %"class.std::allocator.0"*, !llfi_index !1240
  %11 = load i64, i64* %4, align 8, !llfi_index !1241
  %12 = call i32* @_ZNSt16allocator_traitsISaIiEE8allocateERS0_m(%"class.std::allocator.0"* nonnull align 1 dereferenceable(1) %10, i64 %11), !llfi_index !1242
  br label %14, !llfi_index !1243

13:                                               ; preds = %2
  br label %14, !llfi_index !1244

14:                                               ; preds = %13, %8
  %15 = phi i32* [ %12, %8 ], [ null, %13 ], !llfi_index !1245
  ret i32* %15, !llfi_index !1246
}

; Function Attrs: mustprogress noinline nounwind uwtable
define linkonce_odr dso_local nonnull align 4 dereferenceable(4) i32* @_ZSt7forwardIRKiEOT_RNSt16remove_referenceIS2_E4typeE(i32* nonnull align 4 dereferenceable(4) %0) #3 comdat {
  %2 = alloca i32*, align 8, !llfi_index !1247
  store i32* %0, i32** %2, align 8, !llfi_index !1248
  %3 = load i32*, i32** %2, align 8, !llfi_index !1249
  ret i32* %3, !llfi_index !1250
}

; Function Attrs: mustprogress noinline nounwind uwtable
define linkonce_odr dso_local nonnull align 8 dereferenceable(8) i32** @_ZNK9__gnu_cxx17__normal_iteratorIPiSt6vectorIiSaIiEEE4baseEv(%"class.__gnu_cxx::__normal_iterator"* nonnull align 8 dereferenceable(8) %0) #3 comdat align 2 {
  %2 = alloca %"class.__gnu_cxx::__normal_iterator"*, align 8, !llfi_index !1251
  store %"class.__gnu_cxx::__normal_iterator"* %0, %"class.__gnu_cxx::__normal_iterator"** %2, align 8, !llfi_index !1252
  %3 = load %"class.__gnu_cxx::__normal_iterator"*, %"class.__gnu_cxx::__normal_iterator"** %2, align 8, !llfi_index !1253
  %4 = getelementptr inbounds %"class.__gnu_cxx::__normal_iterator", %"class.__gnu_cxx::__normal_iterator"* %3, i32 0, i32 0, !llfi_index !1254
  ret i32** %4, !llfi_index !1255
}

; Function Attrs: mustprogress noinline nounwind uwtable
define linkonce_odr dso_local i32* @_ZNSt6vectorIiSaIiEE11_S_relocateEPiS2_S2_RS0_(i32* %0, i32* %1, i32* %2, %"class.std::allocator.0"* nonnull align 1 dereferenceable(1) %3) #3 comdat align 2 {
  %5 = alloca i32*, align 8, !llfi_index !1256
  %6 = alloca i32*, align 8, !llfi_index !1257
  %7 = alloca i32*, align 8, !llfi_index !1258
  %8 = alloca %"class.std::allocator.0"*, align 8, !llfi_index !1259
  %9 = alloca %"class.std::allocator.0", align 1, !llfi_index !1260
  store i32* %0, i32** %5, align 8, !llfi_index !1261
  store i32* %1, i32** %6, align 8, !llfi_index !1262
  store i32* %2, i32** %7, align 8, !llfi_index !1263
  store %"class.std::allocator.0"* %3, %"class.std::allocator.0"** %8, align 8, !llfi_index !1264
  %10 = load i32*, i32** %5, align 8, !llfi_index !1265
  %11 = load i32*, i32** %6, align 8, !llfi_index !1266
  %12 = load i32*, i32** %7, align 8, !llfi_index !1267
  %13 = load %"class.std::allocator.0"*, %"class.std::allocator.0"** %8, align 8, !llfi_index !1268
  %14 = call i32* @_ZNSt6vectorIiSaIiEE14_S_do_relocateEPiS2_S2_RS0_St17integral_constantIbLb1EE(i32* %10, i32* %11, i32* %12, %"class.std::allocator.0"* nonnull align 1 dereferenceable(1) %13) #2, !llfi_index !1269
  ret i32* %14, !llfi_index !1270
}

; Function Attrs: mustprogress noinline nounwind uwtable
define linkonce_odr dso_local i32* @_ZNSt6vectorIiSaIiEE14_S_do_relocateEPiS2_S2_RS0_St17integral_constantIbLb1EE(i32* %0, i32* %1, i32* %2, %"class.std::allocator.0"* nonnull align 1 dereferenceable(1) %3) #3 comdat align 2 {
  %5 = alloca %"class.std::allocator.0", align 1, !llfi_index !1271
  %6 = alloca i32*, align 8, !llfi_index !1272
  %7 = alloca i32*, align 8, !llfi_index !1273
  %8 = alloca i32*, align 8, !llfi_index !1274
  %9 = alloca %"class.std::allocator.0"*, align 8, !llfi_index !1275
  store i32* %0, i32** %6, align 8, !llfi_index !1276
  store i32* %1, i32** %7, align 8, !llfi_index !1277
  store i32* %2, i32** %8, align 8, !llfi_index !1278
  store %"class.std::allocator.0"* %3, %"class.std::allocator.0"** %9, align 8, !llfi_index !1279
  %10 = load i32*, i32** %6, align 8, !llfi_index !1280
  %11 = load i32*, i32** %7, align 8, !llfi_index !1281
  %12 = load i32*, i32** %8, align 8, !llfi_index !1282
  %13 = load %"class.std::allocator.0"*, %"class.std::allocator.0"** %9, align 8, !llfi_index !1283
  %14 = call i32* @_ZSt12__relocate_aIPiS0_SaIiEET0_T_S3_S2_RT1_(i32* %10, i32* %11, i32* %12, %"class.std::allocator.0"* nonnull align 1 dereferenceable(1) %13) #2, !llfi_index !1284
  ret i32* %14, !llfi_index !1285
}

; Function Attrs: mustprogress noinline nounwind uwtable
define linkonce_odr dso_local i32* @_ZSt12__relocate_aIPiS0_SaIiEET0_T_S3_S2_RT1_(i32* %0, i32* %1, i32* %2, %"class.std::allocator.0"* nonnull align 1 dereferenceable(1) %3) #3 comdat {
  %5 = alloca i32*, align 8, !llfi_index !1286
  %6 = alloca i32*, align 8, !llfi_index !1287
  %7 = alloca i32*, align 8, !llfi_index !1288
  %8 = alloca %"class.std::allocator.0"*, align 8, !llfi_index !1289
  store i32* %0, i32** %5, align 8, !llfi_index !1290
  store i32* %1, i32** %6, align 8, !llfi_index !1291
  store i32* %2, i32** %7, align 8, !llfi_index !1292
  store %"class.std::allocator.0"* %3, %"class.std::allocator.0"** %8, align 8, !llfi_index !1293
  %9 = load i32*, i32** %5, align 8, !llfi_index !1294
  %10 = call i32* @_ZSt12__niter_baseIPiET_S1_(i32* %9) #2, !llfi_index !1295
  %11 = load i32*, i32** %6, align 8, !llfi_index !1296
  %12 = call i32* @_ZSt12__niter_baseIPiET_S1_(i32* %11) #2, !llfi_index !1297
  %13 = load i32*, i32** %7, align 8, !llfi_index !1298
  %14 = call i32* @_ZSt12__niter_baseIPiET_S1_(i32* %13) #2, !llfi_index !1299
  %15 = load %"class.std::allocator.0"*, %"class.std::allocator.0"** %8, align 8, !llfi_index !1300
  %16 = call i32* @_ZSt14__relocate_a_1IiiENSt9enable_ifIXsr3std24__is_bitwise_relocatableIT_EE5valueEPS1_E4typeES2_S2_S2_RSaIT0_E(i32* %10, i32* %12, i32* %14, %"class.std::allocator.0"* nonnull align 1 dereferenceable(1) %15) #2, !llfi_index !1301
  ret i32* %16, !llfi_index !1302
}

; Function Attrs: mustprogress noinline nounwind uwtable
define linkonce_odr dso_local i32* @_ZSt12__niter_baseIPiET_S1_(i32* %0) #3 comdat {
  %2 = alloca i32*, align 8, !llfi_index !1303
  store i32* %0, i32** %2, align 8, !llfi_index !1304
  %3 = load i32*, i32** %2, align 8, !llfi_index !1305
  ret i32* %3, !llfi_index !1306
}

; Function Attrs: mustprogress noinline nounwind uwtable
define linkonce_odr dso_local i32* @_ZSt14__relocate_a_1IiiENSt9enable_ifIXsr3std24__is_bitwise_relocatableIT_EE5valueEPS1_E4typeES2_S2_S2_RSaIT0_E(i32* %0, i32* %1, i32* %2, %"class.std::allocator.0"* nonnull align 1 dereferenceable(1) %3) #3 comdat {
  %5 = alloca i32*, align 8, !llfi_index !1307
  %6 = alloca i32*, align 8, !llfi_index !1308
  %7 = alloca i32*, align 8, !llfi_index !1309
  %8 = alloca %"class.std::allocator.0"*, align 8, !llfi_index !1310
  %9 = alloca i64, align 8, !llfi_index !1311
  store i32* %0, i32** %5, align 8, !llfi_index !1312
  store i32* %1, i32** %6, align 8, !llfi_index !1313
  store i32* %2, i32** %7, align 8, !llfi_index !1314
  store %"class.std::allocator.0"* %3, %"class.std::allocator.0"** %8, align 8, !llfi_index !1315
  %10 = load i32*, i32** %6, align 8, !llfi_index !1316
  %11 = load i32*, i32** %5, align 8, !llfi_index !1317
  %12 = ptrtoint i32* %10 to i64, !llfi_index !1318
  %13 = ptrtoint i32* %11 to i64, !llfi_index !1319
  %14 = sub i64 %12, %13, !llfi_index !1320
  %15 = sdiv exact i64 %14, 4, !llfi_index !1321
  store i64 %15, i64* %9, align 8, !llfi_index !1322
  %16 = load i64, i64* %9, align 8, !llfi_index !1323
  %17 = icmp sgt i64 %16, 0, !llfi_index !1324
  br i1 %17, label %18, label %25, !llfi_index !1325

18:                                               ; preds = %4
  %19 = load i32*, i32** %7, align 8, !llfi_index !1326
  %20 = bitcast i32* %19 to i8*, !llfi_index !1327
  %21 = load i32*, i32** %5, align 8, !llfi_index !1328
  %22 = bitcast i32* %21 to i8*, !llfi_index !1329
  %23 = load i64, i64* %9, align 8, !llfi_index !1330
  %24 = mul i64 %23, 4, !llfi_index !1331
  call void @llvm.memmove.p0i8.p0i8.i64(i8* align 4 %20, i8* align 4 %22, i64 %24, i1 false), !llfi_index !1332
  br label %25, !llfi_index !1333

25:                                               ; preds = %18, %4
  %26 = load i32*, i32** %7, align 8, !llfi_index !1334
  %27 = load i64, i64* %9, align 8, !llfi_index !1335
  %28 = getelementptr inbounds i32, i32* %26, i64 %27, !llfi_index !1336
  ret i32* %28, !llfi_index !1337
}

; Function Attrs: argmemonly nofree nounwind willreturn
declare void @llvm.memmove.p0i8.p0i8.i64(i8* nocapture writeonly, i8* nocapture readonly, i64, i1 immarg) #10

; Function Attrs: mustprogress noinline uwtable
define linkonce_odr dso_local i32* @_ZNSt16allocator_traitsISaIiEE8allocateERS0_m(%"class.std::allocator.0"* nonnull align 1 dereferenceable(1) %0, i64 %1) #4 comdat align 2 {
  %3 = alloca %"class.std::allocator.0"*, align 8, !llfi_index !1338
  %4 = alloca i64, align 8, !llfi_index !1339
  store %"class.std::allocator.0"* %0, %"class.std::allocator.0"** %3, align 8, !llfi_index !1340
  store i64 %1, i64* %4, align 8, !llfi_index !1341
  %5 = load %"class.std::allocator.0"*, %"class.std::allocator.0"** %3, align 8, !llfi_index !1342
  %6 = bitcast %"class.std::allocator.0"* %5 to %"class.std::allocator.0"*, !llfi_index !1343
  %7 = load i64, i64* %4, align 8, !llfi_index !1344
  %8 = call i32* @_ZN9__gnu_cxx13new_allocatorIiE8allocateEmPKv(%"class.std::allocator.0"* nonnull align 1 dereferenceable(1) %6, i64 %7, i8* null), !llfi_index !1345
  ret i32* %8, !llfi_index !1346
}

; Function Attrs: mustprogress noinline uwtable
define linkonce_odr dso_local i32* @_ZN9__gnu_cxx13new_allocatorIiE8allocateEmPKv(%"class.std::allocator.0"* nonnull align 1 dereferenceable(1) %0, i64 %1, i8* %2) #4 comdat align 2 {
  %4 = alloca %"class.std::allocator.0"*, align 8, !llfi_index !1347
  %5 = alloca i64, align 8, !llfi_index !1348
  %6 = alloca i8*, align 8, !llfi_index !1349
  store %"class.std::allocator.0"* %0, %"class.std::allocator.0"** %4, align 8, !llfi_index !1350
  store i64 %1, i64* %5, align 8, !llfi_index !1351
  store i8* %2, i8** %6, align 8, !llfi_index !1352
  %7 = load %"class.std::allocator.0"*, %"class.std::allocator.0"** %4, align 8, !llfi_index !1353
  %8 = load i64, i64* %5, align 8, !llfi_index !1354
  %9 = call i64 @_ZNK9__gnu_cxx13new_allocatorIiE8max_sizeEv(%"class.std::allocator.0"* nonnull align 1 dereferenceable(1) %7) #2, !llfi_index !1355
  %10 = icmp ugt i64 %8, %9, !llfi_index !1356
  br i1 %10, label %11, label %12, !llfi_index !1357

11:                                               ; preds = %3
  call void @_ZSt17__throw_bad_allocv() #14, !llfi_index !1358
  unreachable, !llfi_index !1359

12:                                               ; preds = %3
  %13 = load i64, i64* %5, align 8, !llfi_index !1360
  %14 = mul i64 %13, 4, !llfi_index !1361
  %15 = call noalias nonnull i8* @_Znwm(i64 %14) #15, !llfi_index !1362
  %16 = bitcast i8* %15 to i32*, !llfi_index !1363
  ret i32* %16, !llfi_index !1364
}

; Function Attrs: mustprogress noinline nounwind uwtable
define linkonce_odr dso_local i64 @_ZNK9__gnu_cxx13new_allocatorIiE8max_sizeEv(%"class.std::allocator.0"* nonnull align 1 dereferenceable(1) %0) #3 comdat align 2 {
  %2 = alloca %"class.std::allocator.0"*, align 8, !llfi_index !1365
  store %"class.std::allocator.0"* %0, %"class.std::allocator.0"** %2, align 8, !llfi_index !1366
  %3 = load %"class.std::allocator.0"*, %"class.std::allocator.0"** %2, align 8, !llfi_index !1367
  ret i64 2305843009213693951, !llfi_index !1368
}

; Function Attrs: noreturn
declare dso_local void @_ZSt17__throw_bad_allocv() #11

; Function Attrs: nobuiltin allocsize(0)
declare dso_local nonnull i8* @_Znwm(i64) #12

; Function Attrs: noinline nounwind uwtable
define linkonce_odr dso_local void @_ZN9__gnu_cxx17__normal_iteratorIPiSt6vectorIiSaIiEEEC2ERKS1_(%"class.__gnu_cxx::__normal_iterator"* nonnull align 8 dereferenceable(8) %0, i32** nonnull align 8 dereferenceable(8) %1) unnamed_addr #1 comdat align 2 {
  %3 = alloca %"class.__gnu_cxx::__normal_iterator"*, align 8, !llfi_index !1369
  %4 = alloca i32**, align 8, !llfi_index !1370
  store %"class.__gnu_cxx::__normal_iterator"* %0, %"class.__gnu_cxx::__normal_iterator"** %3, align 8, !llfi_index !1371
  store i32** %1, i32*** %4, align 8, !llfi_index !1372
  %5 = load %"class.__gnu_cxx::__normal_iterator"*, %"class.__gnu_cxx::__normal_iterator"** %3, align 8, !llfi_index !1373
  %6 = getelementptr inbounds %"class.__gnu_cxx::__normal_iterator", %"class.__gnu_cxx::__normal_iterator"* %5, i32 0, i32 0, !llfi_index !1374
  %7 = load i32**, i32*** %4, align 8, !llfi_index !1375
  %8 = load i32*, i32** %7, align 8, !llfi_index !1376
  store i32* %8, i32** %6, align 8, !llfi_index !1377
  ret void, !llfi_index !1378
}

; Function Attrs: mustprogress noinline nounwind uwtable
define linkonce_odr dso_local i64 @_ZNKSt6vectorIiSaIiEE8max_sizeEv(%"class.std::vector"* nonnull align 8 dereferenceable(24) %0) #3 comdat align 2 {
  %2 = alloca %"class.std::vector"*, align 8, !llfi_index !1379
  store %"class.std::vector"* %0, %"class.std::vector"** %2, align 8, !llfi_index !1380
  %3 = load %"class.std::vector"*, %"class.std::vector"** %2, align 8, !llfi_index !1381
  %4 = bitcast %"class.std::vector"* %3 to %"struct.std::_Vector_base"*, !llfi_index !1382
  %5 = call nonnull align 1 dereferenceable(1) %"class.std::allocator.0"* @_ZNKSt12_Vector_baseIiSaIiEE19_M_get_Tp_allocatorEv(%"struct.std::_Vector_base"* nonnull align 8 dereferenceable(24) %4) #2, !llfi_index !1383
  %6 = call i64 @_ZNSt6vectorIiSaIiEE11_S_max_sizeERKS0_(%"class.std::allocator.0"* nonnull align 1 dereferenceable(1) %5) #2, !llfi_index !1384
  ret i64 %6, !llfi_index !1385
}

; Function Attrs: noreturn
declare dso_local void @_ZSt20__throw_length_errorPKc(i8*) #11

; Function Attrs: mustprogress noinline nounwind uwtable
define linkonce_odr dso_local nonnull align 8 dereferenceable(8) i64* @_ZSt3maxImERKT_S2_S2_(i64* nonnull align 8 dereferenceable(8) %0, i64* nonnull align 8 dereferenceable(8) %1) #3 comdat {
  %3 = alloca i64*, align 8, !llfi_index !1386
  %4 = alloca i64*, align 8, !llfi_index !1387
  %5 = alloca i64*, align 8, !llfi_index !1388
  store i64* %0, i64** %4, align 8, !llfi_index !1389
  store i64* %1, i64** %5, align 8, !llfi_index !1390
  %6 = load i64*, i64** %4, align 8, !llfi_index !1391
  %7 = load i64, i64* %6, align 8, !llfi_index !1392
  %8 = load i64*, i64** %5, align 8, !llfi_index !1393
  %9 = load i64, i64* %8, align 8, !llfi_index !1394
  %10 = icmp ult i64 %7, %9, !llfi_index !1395
  br i1 %10, label %11, label %13, !llfi_index !1396

11:                                               ; preds = %2
  %12 = load i64*, i64** %5, align 8, !llfi_index !1397
  store i64* %12, i64** %3, align 8, !llfi_index !1398
  br label %15, !llfi_index !1399

13:                                               ; preds = %2
  %14 = load i64*, i64** %4, align 8, !llfi_index !1400
  store i64* %14, i64** %3, align 8, !llfi_index !1401
  br label %15, !llfi_index !1402

15:                                               ; preds = %13, %11
  %16 = load i64*, i64** %3, align 8, !llfi_index !1403
  ret i64* %16, !llfi_index !1404
}

; Function Attrs: mustprogress noinline nounwind uwtable
define linkonce_odr dso_local nonnull align 1 dereferenceable(1) %"class.std::allocator.0"* @_ZNKSt12_Vector_baseIiSaIiEE19_M_get_Tp_allocatorEv(%"struct.std::_Vector_base"* nonnull align 8 dereferenceable(24) %0) #3 comdat align 2 {
  %2 = alloca %"struct.std::_Vector_base"*, align 8, !llfi_index !1405
  store %"struct.std::_Vector_base"* %0, %"struct.std::_Vector_base"** %2, align 8, !llfi_index !1406
  %3 = load %"struct.std::_Vector_base"*, %"struct.std::_Vector_base"** %2, align 8, !llfi_index !1407
  %4 = getelementptr inbounds %"struct.std::_Vector_base", %"struct.std::_Vector_base"* %3, i32 0, i32 0, !llfi_index !1408
  %5 = bitcast %"struct.std::_Vector_base<int, std::allocator<int>>::_Vector_impl"* %4 to %"class.std::allocator.0"*, !llfi_index !1409
  ret %"class.std::allocator.0"* %5, !llfi_index !1410
}

; Function Attrs: mustprogress noinline nounwind uwtable
define linkonce_odr dso_local i64 @_ZNSt6vectorIiSaIiEE11_S_max_sizeERKS0_(%"class.std::allocator.0"* nonnull align 1 dereferenceable(1) %0) #3 comdat align 2 personality i8* bitcast (i32 (...)* @__gxx_personality_v0 to i8*) {
  %2 = alloca %"class.std::allocator.0"*, align 8, !llfi_index !1411
  %3 = alloca i64, align 8, !llfi_index !1412
  %4 = alloca i64, align 8, !llfi_index !1413
  store %"class.std::allocator.0"* %0, %"class.std::allocator.0"** %2, align 8, !llfi_index !1414
  store i64 2305843009213693951, i64* %3, align 8, !llfi_index !1415
  %5 = load %"class.std::allocator.0"*, %"class.std::allocator.0"** %2, align 8, !llfi_index !1416
  %6 = call i64 @_ZNSt16allocator_traitsISaIiEE8max_sizeERKS0_(%"class.std::allocator.0"* nonnull align 1 dereferenceable(1) %5) #2, !llfi_index !1417
  store i64 %6, i64* %4, align 8, !llfi_index !1418
  %7 = invoke nonnull align 8 dereferenceable(8) i64* @_ZSt3minImERKT_S2_S2_(i64* nonnull align 8 dereferenceable(8) %3, i64* nonnull align 8 dereferenceable(8) %4)
          to label %8 unwind label %10, !llfi_index !1419

8:                                                ; preds = %1
  %9 = load i64, i64* %7, align 8, !llfi_index !1420
  ret i64 %9, !llfi_index !1421

10:                                               ; preds = %1
  %11 = landingpad { i8*, i32 }
          catch i8* null, !llfi_index !1422
  %12 = extractvalue { i8*, i32 } %11, 0, !llfi_index !1423
  call void @__clang_call_terminate(i8* %12) #13, !llfi_index !1424
  unreachable, !llfi_index !1425
}

; Function Attrs: mustprogress noinline nounwind uwtable
define linkonce_odr dso_local i64 @_ZNSt16allocator_traitsISaIiEE8max_sizeERKS0_(%"class.std::allocator.0"* nonnull align 1 dereferenceable(1) %0) #3 comdat align 2 {
  %2 = alloca %"class.std::allocator.0"*, align 8, !llfi_index !1426
  store %"class.std::allocator.0"* %0, %"class.std::allocator.0"** %2, align 8, !llfi_index !1427
  %3 = load %"class.std::allocator.0"*, %"class.std::allocator.0"** %2, align 8, !llfi_index !1428
  %4 = bitcast %"class.std::allocator.0"* %3 to %"class.std::allocator.0"*, !llfi_index !1429
  %5 = call i64 @_ZNK9__gnu_cxx13new_allocatorIiE8max_sizeEv(%"class.std::allocator.0"* nonnull align 1 dereferenceable(1) %4) #2, !llfi_index !1430
  ret i64 %5, !llfi_index !1431
}

; Function Attrs: mustprogress noinline nounwind uwtable
define linkonce_odr dso_local nonnull align 8 dereferenceable(8) i64* @_ZSt3minImERKT_S2_S2_(i64* nonnull align 8 dereferenceable(8) %0, i64* nonnull align 8 dereferenceable(8) %1) #3 comdat {
  %3 = alloca i64*, align 8, !llfi_index !1432
  %4 = alloca i64*, align 8, !llfi_index !1433
  %5 = alloca i64*, align 8, !llfi_index !1434
  store i64* %0, i64** %4, align 8, !llfi_index !1435
  store i64* %1, i64** %5, align 8, !llfi_index !1436
  %6 = load i64*, i64** %5, align 8, !llfi_index !1437
  %7 = load i64, i64* %6, align 8, !llfi_index !1438
  %8 = load i64*, i64** %4, align 8, !llfi_index !1439
  %9 = load i64, i64* %8, align 8, !llfi_index !1440
  %10 = icmp ult i64 %7, %9, !llfi_index !1441
  br i1 %10, label %11, label %13, !llfi_index !1442

11:                                               ; preds = %2
  %12 = load i64*, i64** %5, align 8, !llfi_index !1443
  store i64* %12, i64** %3, align 8, !llfi_index !1444
  br label %15, !llfi_index !1445

13:                                               ; preds = %2
  %14 = load i64*, i64** %4, align 8, !llfi_index !1446
  store i64* %14, i64** %3, align 8, !llfi_index !1447
  br label %15, !llfi_index !1448

15:                                               ; preds = %13, %11
  %16 = load i64*, i64** %3, align 8, !llfi_index !1449
  ret i64* %16, !llfi_index !1450
}

; Function Attrs: mustprogress noinline nounwind uwtable
define linkonce_odr dso_local void @_ZN9__gnu_cxx13new_allocatorIiE9constructIiJRKiEEEvPT_DpOT0_(%"class.std::allocator.0"* nonnull align 1 dereferenceable(1) %0, i32* %1, i32* nonnull align 4 dereferenceable(4) %2) #3 comdat align 2 {
  %4 = alloca %"class.std::allocator.0"*, align 8, !llfi_index !1451
  %5 = alloca i32*, align 8, !llfi_index !1452
  %6 = alloca i32*, align 8, !llfi_index !1453
  store %"class.std::allocator.0"* %0, %"class.std::allocator.0"** %4, align 8, !llfi_index !1454
  store i32* %1, i32** %5, align 8, !llfi_index !1455
  store i32* %2, i32** %6, align 8, !llfi_index !1456
  %7 = load %"class.std::allocator.0"*, %"class.std::allocator.0"** %4, align 8, !llfi_index !1457
  %8 = load i32*, i32** %5, align 8, !llfi_index !1458
  %9 = bitcast i32* %8 to i8*, !llfi_index !1459
  %10 = bitcast i8* %9 to i32*, !llfi_index !1460
  %11 = load i32*, i32** %6, align 8, !llfi_index !1461
  %12 = call nonnull align 4 dereferenceable(4) i32* @_ZSt7forwardIRKiEOT_RNSt16remove_referenceIS2_E4typeE(i32* nonnull align 4 dereferenceable(4) %11) #2, !llfi_index !1462
  %13 = load i32, i32* %12, align 4, !llfi_index !1463
  store i32 %13, i32* %10, align 4, !llfi_index !1464
  ret void, !llfi_index !1465
}

; Function Attrs: mustprogress noinline nounwind uwtable
define linkonce_odr dso_local void @_ZNSt6vectorIiSaIiEE15_M_erase_at_endEPi(%"class.std::vector"* nonnull align 8 dereferenceable(24) %0, i32* %1) #3 comdat align 2 personality i8* bitcast (i32 (...)* @__gxx_personality_v0 to i8*) {
  %3 = alloca %"class.std::vector"*, align 8, !llfi_index !1466
  %4 = alloca i32*, align 8, !llfi_index !1467
  %5 = alloca i64, align 8, !llfi_index !1468
  store %"class.std::vector"* %0, %"class.std::vector"** %3, align 8, !llfi_index !1469
  store i32* %1, i32** %4, align 8, !llfi_index !1470
  %6 = load %"class.std::vector"*, %"class.std::vector"** %3, align 8, !llfi_index !1471
  %7 = bitcast %"class.std::vector"* %6 to %"struct.std::_Vector_base"*, !llfi_index !1472
  %8 = getelementptr inbounds %"struct.std::_Vector_base", %"struct.std::_Vector_base"* %7, i32 0, i32 0, !llfi_index !1473
  %9 = bitcast %"struct.std::_Vector_base<int, std::allocator<int>>::_Vector_impl"* %8 to %"struct.std::_Vector_base<int, std::allocator<int>>::_Vector_impl_data"*, !llfi_index !1474
  %10 = getelementptr inbounds %"struct.std::_Vector_base<int, std::allocator<int>>::_Vector_impl_data", %"struct.std::_Vector_base<int, std::allocator<int>>::_Vector_impl_data"* %9, i32 0, i32 1, !llfi_index !1475
  %11 = load i32*, i32** %10, align 8, !llfi_index !1476
  %12 = load i32*, i32** %4, align 8, !llfi_index !1477
  %13 = ptrtoint i32* %11 to i64, !llfi_index !1478
  %14 = ptrtoint i32* %12 to i64, !llfi_index !1479
  %15 = sub i64 %13, %14, !llfi_index !1480
  %16 = sdiv exact i64 %15, 4, !llfi_index !1481
  store i64 %16, i64* %5, align 8, !llfi_index !1482
  %17 = load i64, i64* %5, align 8, !llfi_index !1483
  %18 = icmp ne i64 %17, 0, !llfi_index !1484
  br i1 %18, label %19, label %34, !llfi_index !1485

19:                                               ; preds = %2
  %20 = load i32*, i32** %4, align 8, !llfi_index !1486
  %21 = bitcast %"class.std::vector"* %6 to %"struct.std::_Vector_base"*, !llfi_index !1487
  %22 = getelementptr inbounds %"struct.std::_Vector_base", %"struct.std::_Vector_base"* %21, i32 0, i32 0, !llfi_index !1488
  %23 = bitcast %"struct.std::_Vector_base<int, std::allocator<int>>::_Vector_impl"* %22 to %"struct.std::_Vector_base<int, std::allocator<int>>::_Vector_impl_data"*, !llfi_index !1489
  %24 = getelementptr inbounds %"struct.std::_Vector_base<int, std::allocator<int>>::_Vector_impl_data", %"struct.std::_Vector_base<int, std::allocator<int>>::_Vector_impl_data"* %23, i32 0, i32 1, !llfi_index !1490
  %25 = load i32*, i32** %24, align 8, !llfi_index !1491
  %26 = bitcast %"class.std::vector"* %6 to %"struct.std::_Vector_base"*, !llfi_index !1492
  %27 = call nonnull align 1 dereferenceable(1) %"class.std::allocator.0"* @_ZNSt12_Vector_baseIiSaIiEE19_M_get_Tp_allocatorEv(%"struct.std::_Vector_base"* nonnull align 8 dereferenceable(24) %26) #2, !llfi_index !1493
  invoke void @_ZSt8_DestroyIPiiEvT_S1_RSaIT0_E(i32* %20, i32* %25, %"class.std::allocator.0"* nonnull align 1 dereferenceable(1) %27)
          to label %28 unwind label %35, !llfi_index !1494

28:                                               ; preds = %19
  %29 = load i32*, i32** %4, align 8, !llfi_index !1495
  %30 = bitcast %"class.std::vector"* %6 to %"struct.std::_Vector_base"*, !llfi_index !1496
  %31 = getelementptr inbounds %"struct.std::_Vector_base", %"struct.std::_Vector_base"* %30, i32 0, i32 0, !llfi_index !1497
  %32 = bitcast %"struct.std::_Vector_base<int, std::allocator<int>>::_Vector_impl"* %31 to %"struct.std::_Vector_base<int, std::allocator<int>>::_Vector_impl_data"*, !llfi_index !1498
  %33 = getelementptr inbounds %"struct.std::_Vector_base<int, std::allocator<int>>::_Vector_impl_data", %"struct.std::_Vector_base<int, std::allocator<int>>::_Vector_impl_data"* %32, i32 0, i32 1, !llfi_index !1499
  store i32* %29, i32** %33, align 8, !llfi_index !1500
  br label %34, !llfi_index !1501

34:                                               ; preds = %28, %2
  ret void, !llfi_index !1502

35:                                               ; preds = %19
  %36 = landingpad { i8*, i32 }
          catch i8* null, !llfi_index !1503
  %37 = extractvalue { i8*, i32 } %36, 0, !llfi_index !1504
  call void @__clang_call_terminate(i8* %37) #13, !llfi_index !1505
  unreachable, !llfi_index !1506
}

attributes #0 = { noinline uwtable "frame-pointer"="all" "min-legal-vector-width"="0" "no-trapping-math"="true" "stack-protector-buffer-size"="8" "target-cpu"="x86-64" "target-features"="+cx8,+fxsr,+mmx,+sse,+sse2,+x87" "tune-cpu"="generic" }
attributes #1 = { noinline nounwind uwtable "frame-pointer"="all" "min-legal-vector-width"="0" "no-trapping-math"="true" "stack-protector-buffer-size"="8" "target-cpu"="x86-64" "target-features"="+cx8,+fxsr,+mmx,+sse,+sse2,+x87" "tune-cpu"="generic" }
attributes #2 = { nounwind }
attributes #3 = { mustprogress noinline nounwind uwtable "frame-pointer"="all" "min-legal-vector-width"="0" "no-trapping-math"="true" "stack-protector-buffer-size"="8" "target-cpu"="x86-64" "target-features"="+cx8,+fxsr,+mmx,+sse,+sse2,+x87" "tune-cpu"="generic" }
attributes #4 = { mustprogress noinline uwtable "frame-pointer"="all" "min-legal-vector-width"="0" "no-trapping-math"="true" "stack-protector-buffer-size"="8" "target-cpu"="x86-64" "target-features"="+cx8,+fxsr,+mmx,+sse,+sse2,+x87" "tune-cpu"="generic" }
attributes #5 = { noinline noreturn nounwind }
attributes #6 = { nobuiltin nounwind "frame-pointer"="all" "no-trapping-math"="true" "stack-protector-buffer-size"="8" "target-cpu"="x86-64" "target-features"="+cx8,+fxsr,+mmx,+sse,+sse2,+x87" "tune-cpu"="generic" }
attributes #7 = { nounwind "frame-pointer"="all" "no-trapping-math"="true" "stack-protector-buffer-size"="8" "target-cpu"="x86-64" "target-features"="+cx8,+fxsr,+mmx,+sse,+sse2,+x87" "tune-cpu"="generic" }
attributes #8 = { "frame-pointer"="all" "no-trapping-math"="true" "stack-protector-buffer-size"="8" "target-cpu"="x86-64" "target-features"="+cx8,+fxsr,+mmx,+sse,+sse2,+x87" "tune-cpu"="generic" }
attributes #9 = { mustprogress noinline norecurse uwtable "frame-pointer"="all" "min-legal-vector-width"="0" "no-trapping-math"="true" "stack-protector-buffer-size"="8" "target-cpu"="x86-64" "target-features"="+cx8,+fxsr,+mmx,+sse,+sse2,+x87" "tune-cpu"="generic" }
attributes #10 = { argmemonly nofree nounwind willreturn }
attributes #11 = { noreturn "frame-pointer"="all" "no-trapping-math"="true" "stack-protector-buffer-size"="8" "target-cpu"="x86-64" "target-features"="+cx8,+fxsr,+mmx,+sse,+sse2,+x87" "tune-cpu"="generic" }
attributes #12 = { nobuiltin allocsize(0) "frame-pointer"="all" "no-trapping-math"="true" "stack-protector-buffer-size"="8" "target-cpu"="x86-64" "target-features"="+cx8,+fxsr,+mmx,+sse,+sse2,+x87" "tune-cpu"="generic" }
attributes #13 = { noreturn nounwind }
attributes #14 = { noreturn }
attributes #15 = { allocsize(0) }

!llvm.ident = !{!0}
!llvm.module.flags = !{!1, !2, !3}

!0 = !{!"clang version 13.0.0 (https://github.com/llvm/llvm-project.git d7b669b3a30345cfcdb2fde2af6f48aa4b94845d)"}
!1 = !{i32 1, !"wchar_size", i32 4}
!2 = !{i32 7, !"uwtable", i32 1}
!3 = !{i32 7, !"frame-pointer", i32 2}
!4 = !{i64 1}
!5 = !{i64 2}
!6 = !{i64 3}
!7 = !{i64 4}
!8 = !{i64 5}
!9 = !{i64 6}
!10 = !{i64 7}
!11 = !{i64 8}
!12 = !{i64 9}
!13 = !{i64 10}
!14 = !{i64 11}
!15 = !{i64 12}
!16 = !{i64 13}
!17 = !{i64 14}
!18 = !{i64 15}
!19 = !{i64 16}
!20 = !{i64 17}
!21 = !{i64 18}
!22 = !{i64 19}
!23 = !{i64 20}
!24 = !{i64 21}
!25 = !{i64 22}
!26 = !{i64 23}
!27 = !{i64 24}
!28 = !{i64 25}
!29 = !{i64 26}
!30 = !{i64 27}
!31 = !{i64 28}
!32 = !{i64 29}
!33 = !{i64 30}
!34 = !{i64 31}
!35 = !{i64 32}
!36 = !{i64 33}
!37 = !{i64 34}
!38 = !{i64 35}
!39 = !{i64 36}
!40 = !{i64 37}
!41 = !{i64 38}
!42 = !{i64 39}
!43 = !{i64 40}
!44 = !{i64 41}
!45 = !{i64 42}
!46 = !{i64 43}
!47 = !{i64 44}
!48 = !{i64 45}
!49 = !{i64 46}
!50 = !{i64 47}
!51 = !{i64 48}
!52 = !{i64 49}
!53 = !{i64 50}
!54 = !{i64 51}
!55 = !{i64 52}
!56 = !{i64 53}
!57 = !{i64 54}
!58 = !{i64 55}
!59 = !{i64 56}
!60 = !{i64 57}
!61 = !{i64 58}
!62 = !{i64 59}
!63 = !{i64 60}
!64 = !{i64 61}
!65 = !{i64 62}
!66 = !{i64 63}
!67 = !{i64 64}
!68 = !{i64 65}
!69 = !{i64 66}
!70 = !{i64 67}
!71 = !{i64 68}
!72 = !{i64 69}
!73 = !{i64 70}
!74 = !{i64 71}
!75 = !{i64 72}
!76 = !{i64 73}
!77 = !{i64 74}
!78 = !{i64 75}
!79 = !{i64 76}
!80 = !{i64 77}
!81 = !{i64 78}
!82 = !{i64 79}
!83 = !{i64 80}
!84 = !{i64 81}
!85 = !{i64 82}
!86 = !{i64 83}
!87 = !{i64 84}
!88 = !{i64 85}
!89 = !{i64 86}
!90 = !{i64 87}
!91 = !{i64 88}
!92 = !{i64 89}
!93 = !{i64 90}
!94 = !{i64 91}
!95 = !{i64 92}
!96 = !{i64 93}
!97 = !{i64 94}
!98 = !{i64 95}
!99 = !{i64 96}
!100 = !{i64 97}
!101 = !{i64 98}
!102 = !{i64 99}
!103 = !{i64 100}
!104 = !{i64 101}
!105 = !{i64 102}
!106 = !{i64 103}
!107 = !{i64 104}
!108 = !{i64 105}
!109 = !{i64 106}
!110 = !{i64 107}
!111 = !{i64 108}
!112 = !{i64 109}
!113 = !{i64 110}
!114 = !{i64 111}
!115 = !{i64 112}
!116 = !{i64 113}
!117 = !{i64 114}
!118 = !{i64 115}
!119 = !{i64 116}
!120 = !{i64 117}
!121 = !{i64 118}
!122 = !{i64 119}
!123 = !{i64 120}
!124 = !{i64 121}
!125 = !{i64 122}
!126 = !{i64 123}
!127 = !{i64 124}
!128 = !{i64 125}
!129 = !{i64 126}
!130 = !{i64 127}
!131 = !{i64 128}
!132 = !{i64 129}
!133 = !{i64 130}
!134 = !{i64 131}
!135 = !{i64 132}
!136 = !{i64 133}
!137 = !{i64 134}
!138 = !{i64 135}
!139 = !{i64 136}
!140 = !{i64 137}
!141 = !{i64 138}
!142 = !{i64 139}
!143 = !{i64 140}
!144 = !{i64 141}
!145 = !{i64 142}
!146 = !{i64 143}
!147 = !{i64 144}
!148 = !{i64 145}
!149 = !{i64 146}
!150 = !{i64 147}
!151 = !{i64 148}
!152 = !{i64 149}
!153 = !{i64 150}
!154 = !{i64 151}
!155 = !{i64 152}
!156 = !{i64 153}
!157 = !{i64 154}
!158 = !{i64 155}
!159 = !{i64 156}
!160 = !{i64 157}
!161 = !{i64 158}
!162 = !{i64 159}
!163 = !{i64 160}
!164 = !{i64 161}
!165 = !{i64 162}
!166 = !{i64 163}
!167 = !{i64 164}
!168 = !{i64 165}
!169 = !{i64 166}
!170 = !{i64 167}
!171 = !{i64 168}
!172 = !{i64 169}
!173 = !{i64 170}
!174 = !{i64 171}
!175 = !{i64 172}
!176 = !{i64 173}
!177 = !{i64 174}
!178 = !{i64 175}
!179 = !{i64 176}
!180 = !{i64 177}
!181 = !{i64 178}
!182 = !{i64 179}
!183 = !{i64 180}
!184 = !{i64 181}
!185 = !{i64 182}
!186 = !{i64 183}
!187 = !{i64 184}
!188 = !{i64 185}
!189 = !{i64 186}
!190 = !{i64 187}
!191 = !{i64 188}
!192 = !{i64 189}
!193 = !{i64 190}
!194 = !{i64 191}
!195 = !{i64 192}
!196 = !{i64 193}
!197 = !{i64 194}
!198 = !{i64 195}
!199 = !{i64 196}
!200 = !{i64 197}
!201 = !{i64 198}
!202 = !{i64 199}
!203 = !{i64 200}
!204 = !{i64 201}
!205 = !{i64 202}
!206 = !{i64 203}
!207 = !{i64 204}
!208 = !{i64 205}
!209 = !{i64 206}
!210 = !{i64 207}
!211 = !{i64 208}
!212 = !{i64 209}
!213 = !{i64 210}
!214 = !{i64 211}
!215 = !{i64 212}
!216 = !{i64 213}
!217 = !{i64 214}
!218 = !{i64 215}
!219 = !{i64 216}
!220 = !{i64 217}
!221 = !{i64 218}
!222 = !{i64 219}
!223 = !{i64 220}
!224 = !{i64 221}
!225 = !{i64 222}
!226 = !{i64 223}
!227 = !{i64 224}
!228 = !{i64 225}
!229 = !{i64 226}
!230 = !{i64 227}
!231 = !{i64 228}
!232 = !{i64 229}
!233 = !{i64 230}
!234 = !{i64 231}
!235 = !{i64 232}
!236 = !{i64 233}
!237 = !{i64 234}
!238 = !{i64 235}
!239 = !{i64 236}
!240 = !{i64 237}
!241 = !{i64 238}
!242 = !{i64 239}
!243 = !{i64 240}
!244 = !{i64 241}
!245 = !{i64 242}
!246 = !{i64 243}
!247 = !{i64 244}
!248 = !{i64 245}
!249 = !{i64 246}
!250 = !{i64 247}
!251 = !{i64 248}
!252 = !{i64 249}
!253 = !{i64 250}
!254 = !{i64 251}
!255 = !{i64 252}
!256 = !{i64 253}
!257 = !{i64 254}
!258 = !{i64 255}
!259 = !{i64 256}
!260 = !{i64 257}
!261 = !{i64 258}
!262 = !{i64 259}
!263 = !{i64 260}
!264 = !{i64 261}
!265 = !{i64 262}
!266 = !{i64 263}
!267 = !{i64 264}
!268 = !{i64 265}
!269 = !{i64 266}
!270 = !{i64 267}
!271 = !{i64 268}
!272 = !{i64 269}
!273 = !{i64 270}
!274 = !{i64 271}
!275 = !{i64 272}
!276 = !{i64 273}
!277 = !{i64 274}
!278 = !{i64 275}
!279 = !{i64 276}
!280 = !{i64 277}
!281 = !{i64 278}
!282 = !{i64 279}
!283 = !{i64 280}
!284 = !{i64 281}
!285 = !{i64 282}
!286 = !{i64 283}
!287 = !{i64 284}
!288 = !{i64 285}
!289 = !{i64 286}
!290 = !{i64 287}
!291 = !{i64 288}
!292 = !{i64 289}
!293 = !{i64 290}
!294 = !{i64 291}
!295 = !{i64 292}
!296 = !{i64 293}
!297 = !{i64 294}
!298 = !{i64 295}
!299 = !{i64 296}
!300 = !{i64 297}
!301 = !{i64 298}
!302 = !{i64 299}
!303 = !{i64 300}
!304 = !{i64 301}
!305 = !{i64 302}
!306 = !{i64 303}
!307 = !{i64 304}
!308 = !{i64 305}
!309 = !{i64 306}
!310 = !{i64 307}
!311 = !{i64 308}
!312 = !{i64 309}
!313 = !{i64 310}
!314 = !{i64 311}
!315 = !{i64 312}
!316 = !{i64 313}
!317 = !{i64 314}
!318 = !{i64 315}
!319 = !{i64 316}
!320 = !{i64 317}
!321 = !{i64 318}
!322 = !{i64 319}
!323 = !{i64 320}
!324 = !{i64 321}
!325 = !{i64 322}
!326 = !{i64 323}
!327 = !{i64 324}
!328 = !{i64 325}
!329 = !{i64 326}
!330 = !{i64 327}
!331 = !{i64 328}
!332 = !{i64 329}
!333 = !{i64 330}
!334 = !{i64 331}
!335 = !{i64 332}
!336 = !{i64 333}
!337 = !{i64 334}
!338 = !{i64 335}
!339 = !{i64 336}
!340 = !{i64 337}
!341 = !{i64 338}
!342 = !{i64 339}
!343 = !{i64 340}
!344 = !{i64 341}
!345 = !{i64 342}
!346 = !{i64 343}
!347 = !{i64 344}
!348 = !{i64 345}
!349 = !{i64 346}
!350 = !{i64 347}
!351 = !{i64 348}
!352 = !{i64 349}
!353 = !{i64 350}
!354 = !{i64 351}
!355 = !{i64 352}
!356 = !{i64 353}
!357 = !{i64 354}
!358 = !{i64 355}
!359 = !{i64 356}
!360 = !{i64 357}
!361 = !{i64 358}
!362 = !{i64 359}
!363 = !{i64 360}
!364 = !{i64 361}
!365 = !{i64 362}
!366 = !{i64 363}
!367 = !{i64 364}
!368 = !{i64 365}
!369 = !{i64 366}
!370 = !{i64 367}
!371 = !{i64 368}
!372 = !{i64 369}
!373 = !{i64 370}
!374 = !{i64 371}
!375 = !{i64 372}
!376 = !{i64 373}
!377 = !{i64 374}
!378 = !{i64 375}
!379 = !{i64 376}
!380 = !{i64 377}
!381 = !{i64 378}
!382 = !{i64 379}
!383 = !{i64 380}
!384 = !{i64 381}
!385 = !{i64 382}
!386 = !{i64 383}
!387 = !{i64 384}
!388 = !{i64 385}
!389 = !{i64 386}
!390 = !{i64 387}
!391 = !{i64 388}
!392 = !{i64 389}
!393 = !{i64 390}
!394 = !{i64 391}
!395 = !{i64 392}
!396 = !{i64 393}
!397 = !{i64 394}
!398 = !{i64 395}
!399 = !{i64 396}
!400 = !{i64 397}
!401 = !{i64 398}
!402 = !{i64 399}
!403 = !{i64 400}
!404 = !{i64 401}
!405 = !{i64 402}
!406 = !{i64 403}
!407 = !{i64 404}
!408 = !{i64 405}
!409 = !{i64 406}
!410 = !{i64 407}
!411 = !{i64 408}
!412 = !{i64 409}
!413 = !{i64 410}
!414 = !{i64 411}
!415 = !{i64 412}
!416 = !{i64 413}
!417 = !{i64 414}
!418 = !{i64 415}
!419 = !{i64 416}
!420 = !{i64 417}
!421 = !{i64 418}
!422 = !{i64 419}
!423 = !{i64 420}
!424 = !{i64 421}
!425 = !{i64 422}
!426 = !{i64 423}
!427 = !{i64 424}
!428 = !{i64 425}
!429 = !{i64 426}
!430 = !{i64 427}
!431 = !{i64 428}
!432 = !{i64 429}
!433 = !{i64 430}
!434 = !{i64 431}
!435 = !{i64 432}
!436 = !{i64 433}
!437 = !{i64 434}
!438 = !{i64 435}
!439 = !{i64 436}
!440 = !{i64 437}
!441 = !{i64 438}
!442 = !{i64 439}
!443 = !{i64 440}
!444 = !{i64 441}
!445 = !{i64 442}
!446 = !{i64 443}
!447 = !{i64 444}
!448 = !{i64 445}
!449 = !{i64 446}
!450 = !{i64 447}
!451 = !{i64 448}
!452 = !{i64 449}
!453 = !{i64 450}
!454 = !{i64 451}
!455 = !{i64 452}
!456 = !{i64 453}
!457 = !{i64 454}
!458 = !{i64 455}
!459 = !{i64 456}
!460 = !{i64 457}
!461 = !{i64 458}
!462 = !{i64 459}
!463 = !{i64 460}
!464 = !{i64 461}
!465 = !{i64 462}
!466 = !{i64 463}
!467 = !{i64 464}
!468 = !{i64 465}
!469 = !{i64 466}
!470 = !{i64 467}
!471 = !{i64 468}
!472 = !{i64 469}
!473 = !{i64 470}
!474 = !{i64 471}
!475 = !{i64 472}
!476 = !{i64 473}
!477 = !{i64 474}
!478 = !{i64 475}
!479 = !{i64 476}
!480 = !{i64 477}
!481 = !{i64 478}
!482 = !{i64 479}
!483 = !{i64 480}
!484 = !{i64 481}
!485 = !{i64 482}
!486 = !{i64 483}
!487 = !{i64 484}
!488 = !{i64 485}
!489 = !{i64 486}
!490 = !{i64 487}
!491 = !{i64 488}
!492 = !{i64 489}
!493 = !{i64 490}
!494 = !{i64 491}
!495 = !{i64 492}
!496 = !{i64 493}
!497 = !{i64 494}
!498 = !{i64 495}
!499 = !{i64 496}
!500 = !{i64 497}
!501 = !{i64 498}
!502 = !{i64 499}
!503 = !{i64 500}
!504 = !{i64 501}
!505 = !{i64 502}
!506 = distinct !{!506, !507}
!507 = !{!"llvm.loop.mustprogress"}
!508 = !{i64 503}
!509 = !{i64 504}
!510 = !{i64 505}
!511 = !{i64 506}
!512 = !{i64 507}
!513 = !{i64 508}
!514 = !{i64 509}
!515 = !{i64 510}
!516 = !{i64 511}
!517 = !{i64 512}
!518 = !{i64 513}
!519 = !{i64 514}
!520 = !{i64 515}
!521 = !{i64 516}
!522 = !{i64 517}
!523 = !{i64 518}
!524 = !{i64 519}
!525 = !{i64 520}
!526 = !{i64 521}
!527 = !{i64 522}
!528 = !{i64 523}
!529 = !{i64 524}
!530 = !{i64 525}
!531 = !{i64 526}
!532 = !{i64 527}
!533 = !{i64 528}
!534 = !{i64 529}
!535 = !{i64 530}
!536 = !{i64 531}
!537 = !{i64 532}
!538 = !{i64 533}
!539 = !{i64 534}
!540 = !{i64 535}
!541 = !{i64 536}
!542 = !{i64 537}
!543 = !{i64 538}
!544 = !{i64 539}
!545 = !{i64 540}
!546 = !{i64 541}
!547 = !{i64 542}
!548 = !{i64 543}
!549 = !{i64 544}
!550 = !{i64 545}
!551 = !{i64 546}
!552 = !{i64 547}
!553 = !{i64 548}
!554 = !{i64 549}
!555 = !{i64 550}
!556 = !{i64 551}
!557 = !{i64 552}
!558 = !{i64 553}
!559 = !{i64 554}
!560 = !{i64 555}
!561 = !{i64 556}
!562 = !{i64 557}
!563 = !{i64 558}
!564 = !{i64 559}
!565 = !{i64 560}
!566 = !{i64 561}
!567 = !{i64 562}
!568 = !{i64 563}
!569 = !{i64 564}
!570 = !{i64 565}
!571 = !{i64 566}
!572 = !{i64 567}
!573 = !{i64 568}
!574 = !{i64 569}
!575 = !{i64 570}
!576 = !{i64 571}
!577 = !{i64 572}
!578 = !{i64 573}
!579 = !{i64 574}
!580 = !{i64 575}
!581 = !{i64 576}
!582 = !{i64 577}
!583 = !{i64 578}
!584 = !{i64 579}
!585 = !{i64 580}
!586 = !{i64 581}
!587 = !{i64 582}
!588 = !{i64 583}
!589 = !{i64 584}
!590 = !{i64 585}
!591 = !{i64 586}
!592 = !{i64 587}
!593 = !{i64 588}
!594 = !{i64 589}
!595 = !{i64 590}
!596 = !{i64 591}
!597 = !{i64 592}
!598 = !{i64 593}
!599 = !{i64 594}
!600 = !{i64 595}
!601 = !{i64 596}
!602 = !{i64 597}
!603 = !{i64 598}
!604 = !{i64 599}
!605 = !{i64 600}
!606 = !{i64 601}
!607 = !{i64 602}
!608 = !{i64 603}
!609 = !{i64 604}
!610 = !{i64 605}
!611 = !{i64 606}
!612 = !{i64 607}
!613 = !{i64 608}
!614 = !{i64 609}
!615 = !{i64 610}
!616 = !{i64 611}
!617 = !{i64 612}
!618 = !{i64 613}
!619 = !{i64 614}
!620 = !{i64 615}
!621 = !{i64 616}
!622 = !{i64 617}
!623 = !{i64 618}
!624 = !{i64 619}
!625 = !{i64 620}
!626 = !{i64 621}
!627 = !{i64 622}
!628 = !{i64 623}
!629 = !{i64 624}
!630 = !{i64 625}
!631 = !{i64 626}
!632 = !{i64 627}
!633 = !{i64 628}
!634 = !{i64 629}
!635 = !{i64 630}
!636 = !{i64 631}
!637 = !{i64 632}
!638 = !{i64 633}
!639 = !{i64 634}
!640 = !{i64 635}
!641 = !{i64 636}
!642 = !{i64 637}
!643 = !{i64 638}
!644 = !{i64 639}
!645 = !{i64 640}
!646 = !{i64 641}
!647 = distinct !{!647, !507}
!648 = !{i64 642}
!649 = !{i64 643}
!650 = !{i64 644}
!651 = !{i64 645}
!652 = !{i64 646}
!653 = distinct !{!653, !507}
!654 = !{i64 647}
!655 = !{i64 648}
!656 = !{i64 649}
!657 = !{i64 650}
!658 = !{i64 651}
!659 = !{i64 652}
!660 = !{i64 653}
!661 = !{i64 654}
!662 = !{i64 655}
!663 = !{i64 656}
!664 = !{i64 657}
!665 = !{i64 658}
!666 = !{i64 659}
!667 = !{i64 660}
!668 = !{i64 661}
!669 = !{i64 662}
!670 = !{i64 663}
!671 = !{i64 664}
!672 = !{i64 665}
!673 = !{i64 666}
!674 = !{i64 667}
!675 = !{i64 668}
!676 = !{i64 669}
!677 = !{i64 670}
!678 = !{i64 671}
!679 = !{i64 672}
!680 = !{i64 673}
!681 = !{i64 674}
!682 = !{i64 675}
!683 = !{i64 676}
!684 = !{i64 677}
!685 = !{i64 678}
!686 = !{i64 679}
!687 = !{i64 680}
!688 = !{i64 681}
!689 = !{i64 682}
!690 = !{i64 683}
!691 = !{i64 684}
!692 = !{i64 685}
!693 = !{i64 686}
!694 = !{i64 687}
!695 = !{i64 688}
!696 = !{i64 689}
!697 = !{i64 690}
!698 = !{i64 691}
!699 = !{i64 692}
!700 = !{i64 693}
!701 = !{i64 694}
!702 = !{i64 695}
!703 = !{i64 696}
!704 = !{i64 697}
!705 = !{i64 698}
!706 = !{i64 699}
!707 = !{i64 700}
!708 = !{i64 701}
!709 = !{i64 702}
!710 = !{i64 703}
!711 = !{i64 704}
!712 = !{i64 705}
!713 = !{i64 706}
!714 = !{i64 707}
!715 = !{i64 708}
!716 = !{i64 709}
!717 = !{i64 710}
!718 = !{i64 711}
!719 = !{i64 712}
!720 = !{i64 713}
!721 = !{i64 714}
!722 = !{i64 715}
!723 = !{i64 716}
!724 = !{i64 717}
!725 = !{i64 718}
!726 = !{i64 719}
!727 = !{i64 720}
!728 = !{i64 721}
!729 = !{i64 722}
!730 = !{i64 723}
!731 = !{i64 724}
!732 = !{i64 725}
!733 = !{i64 726}
!734 = !{i64 727}
!735 = !{i64 728}
!736 = !{i64 729}
!737 = !{i64 730}
!738 = !{i64 731}
!739 = !{i64 732}
!740 = !{i64 733}
!741 = !{i64 734}
!742 = !{i64 735}
!743 = !{i64 736}
!744 = !{i64 737}
!745 = !{i64 738}
!746 = !{i64 739}
!747 = !{i64 740}
!748 = !{i64 741}
!749 = !{i64 742}
!750 = !{i64 743}
!751 = !{i64 744}
!752 = !{i64 745}
!753 = !{i64 746}
!754 = !{i64 747}
!755 = !{i64 748}
!756 = !{i64 749}
!757 = !{i64 750}
!758 = !{i64 751}
!759 = !{i64 752}
!760 = !{i64 753}
!761 = !{i64 754}
!762 = !{i64 755}
!763 = !{i64 756}
!764 = !{i64 757}
!765 = !{i64 758}
!766 = !{i64 759}
!767 = !{i64 760}
!768 = !{i64 761}
!769 = !{i64 762}
!770 = !{i64 763}
!771 = !{i64 764}
!772 = !{i64 765}
!773 = !{i64 766}
!774 = !{i64 767}
!775 = !{i64 768}
!776 = !{i64 769}
!777 = !{i64 770}
!778 = !{i64 771}
!779 = !{i64 772}
!780 = !{i64 773}
!781 = !{i64 774}
!782 = !{i64 775}
!783 = !{i64 776}
!784 = !{i64 777}
!785 = !{i64 778}
!786 = !{i64 779}
!787 = !{i64 780}
!788 = !{i64 781}
!789 = !{i64 782}
!790 = !{i64 783}
!791 = !{i64 784}
!792 = !{i64 785}
!793 = !{i64 786}
!794 = !{i64 787}
!795 = !{i64 788}
!796 = !{i64 789}
!797 = !{i64 790}
!798 = !{i64 791}
!799 = !{i64 792}
!800 = !{i64 793}
!801 = !{i64 794}
!802 = !{i64 795}
!803 = !{i64 796}
!804 = !{i64 797}
!805 = !{i64 798}
!806 = !{i64 799}
!807 = !{i64 800}
!808 = !{i64 801}
!809 = !{i64 802}
!810 = !{i64 803}
!811 = !{i64 804}
!812 = !{i64 805}
!813 = !{i64 806}
!814 = distinct !{!814, !507}
!815 = !{i64 807}
!816 = !{i64 808}
!817 = !{i64 809}
!818 = !{i64 810}
!819 = !{i64 811}
!820 = distinct !{!820, !507}
!821 = !{i64 812}
!822 = !{i64 813}
!823 = !{i64 814}
!824 = !{i64 815}
!825 = !{i64 816}
!826 = !{i64 817}
!827 = !{i64 818}
!828 = !{i64 819}
!829 = !{i64 820}
!830 = !{i64 821}
!831 = !{i64 822}
!832 = !{i64 823}
!833 = !{i64 824}
!834 = !{i64 825}
!835 = !{i64 826}
!836 = !{i64 827}
!837 = !{i64 828}
!838 = !{i64 829}
!839 = !{i64 830}
!840 = !{i64 831}
!841 = !{i64 832}
!842 = !{i64 833}
!843 = !{i64 834}
!844 = !{i64 835}
!845 = !{i64 836}
!846 = !{i64 837}
!847 = !{i64 838}
!848 = !{i64 839}
!849 = !{i64 840}
!850 = !{i64 841}
!851 = !{i64 842}
!852 = !{i64 843}
!853 = !{i64 844}
!854 = !{i64 845}
!855 = !{i64 846}
!856 = !{i64 847}
!857 = !{i64 848}
!858 = !{i64 849}
!859 = !{i64 850}
!860 = !{i64 851}
!861 = !{i64 852}
!862 = !{i64 853}
!863 = !{i64 854}
!864 = !{i64 855}
!865 = !{i64 856}
!866 = !{i64 857}
!867 = !{i64 858}
!868 = distinct !{!868, !507}
!869 = !{i64 859}
!870 = !{i64 860}
!871 = !{i64 861}
!872 = !{i64 862}
!873 = !{i64 863}
!874 = !{i64 864}
!875 = !{i64 865}
!876 = !{i64 866}
!877 = !{i64 867}
!878 = !{i64 868}
!879 = !{i64 869}
!880 = !{i64 870}
!881 = !{i64 871}
!882 = !{i64 872}
!883 = !{i64 873}
!884 = !{i64 874}
!885 = !{i64 875}
!886 = !{i64 876}
!887 = !{i64 877}
!888 = !{i64 878}
!889 = !{i64 879}
!890 = !{i64 880}
!891 = !{i64 881}
!892 = !{i64 882}
!893 = !{i64 883}
!894 = !{i64 884}
!895 = !{i64 885}
!896 = !{i64 886}
!897 = !{i64 887}
!898 = !{i64 888}
!899 = distinct !{!899, !507}
!900 = !{i64 889}
!901 = !{i64 890}
!902 = !{i64 891}
!903 = !{i64 892}
!904 = !{i64 893}
!905 = !{i64 894}
!906 = !{i64 895}
!907 = !{i64 896}
!908 = !{i64 897}
!909 = !{i64 898}
!910 = !{i64 899}
!911 = !{i64 900}
!912 = !{i64 901}
!913 = !{i64 902}
!914 = !{i64 903}
!915 = !{i64 904}
!916 = !{i64 905}
!917 = !{i64 906}
!918 = !{i64 907}
!919 = !{i64 908}
!920 = !{i64 909}
!921 = !{i64 910}
!922 = !{i64 911}
!923 = distinct !{!923, !507}
!924 = !{i64 912}
!925 = !{i64 913}
!926 = !{i64 914}
!927 = !{i64 915}
!928 = !{i64 916}
!929 = !{i64 917}
!930 = !{i64 918}
!931 = !{i64 919}
!932 = !{i64 920}
!933 = !{i64 921}
!934 = !{i64 922}
!935 = !{i64 923}
!936 = !{i64 924}
!937 = !{i64 925}
!938 = !{i64 926}
!939 = !{i64 927}
!940 = !{i64 928}
!941 = !{i64 929}
!942 = !{i64 930}
!943 = !{i64 931}
!944 = !{i64 932}
!945 = !{i64 933}
!946 = !{i64 934}
!947 = distinct !{!947, !507}
!948 = !{i64 935}
!949 = !{i64 936}
!950 = !{i64 937}
!951 = !{i64 938}
!952 = !{i64 939}
!953 = !{i64 940}
!954 = !{i64 941}
!955 = !{i64 942}
!956 = !{i64 943}
!957 = !{i64 944}
!958 = !{i64 945}
!959 = !{i64 946}
!960 = distinct !{!960, !507}
!961 = !{i64 947}
!962 = !{i64 948}
!963 = !{i64 949}
!964 = !{i64 950}
!965 = !{i64 951}
!966 = !{i64 952}
!967 = !{i64 953}
!968 = !{i64 954}
!969 = !{i64 955}
!970 = !{i64 956}
!971 = !{i64 957}
!972 = distinct !{!972, !507}
!973 = !{i64 958}
!974 = !{i64 959}
!975 = !{i64 960}
!976 = !{i64 961}
!977 = !{i64 962}
!978 = !{i64 963}
!979 = !{i64 964}
!980 = !{i64 965}
!981 = !{i64 966}
!982 = !{i64 967}
!983 = !{i64 968}
!984 = !{i64 969}
!985 = !{i64 970}
!986 = !{i64 971}
!987 = !{i64 972}
!988 = !{i64 973}
!989 = !{i64 974}
!990 = !{i64 975}
!991 = !{i64 976}
!992 = !{i64 977}
!993 = !{i64 978}
!994 = !{i64 979}
!995 = !{i64 980}
!996 = !{i64 981}
!997 = !{i64 982}
!998 = !{i64 983}
!999 = !{i64 984}
!1000 = !{i64 985}
!1001 = !{i64 986}
!1002 = !{i64 987}
!1003 = !{i64 988}
!1004 = !{i64 989}
!1005 = !{i64 990}
!1006 = !{i64 991}
!1007 = !{i64 992}
!1008 = !{i64 993}
!1009 = !{i64 994}
!1010 = !{i64 995}
!1011 = !{i64 996}
!1012 = !{i64 997}
!1013 = !{i64 998}
!1014 = !{i64 999}
!1015 = !{i64 1000}
!1016 = !{i64 1001}
!1017 = !{i64 1002}
!1018 = !{i64 1003}
!1019 = !{i64 1004}
!1020 = !{i64 1005}
!1021 = !{i64 1006}
!1022 = !{i64 1007}
!1023 = !{i64 1008}
!1024 = !{i64 1009}
!1025 = !{i64 1010}
!1026 = !{i64 1011}
!1027 = !{i64 1012}
!1028 = !{i64 1013}
!1029 = !{i64 1014}
!1030 = !{i64 1015}
!1031 = !{i64 1016}
!1032 = !{i64 1017}
!1033 = !{i64 1018}
!1034 = !{i64 1019}
!1035 = !{i64 1020}
!1036 = !{i64 1021}
!1037 = !{i64 1022}
!1038 = !{i64 1023}
!1039 = !{i64 1024}
!1040 = !{i64 1025}
!1041 = !{i64 1026}
!1042 = !{i64 1027}
!1043 = !{i64 1028}
!1044 = !{i64 1029}
!1045 = !{i64 1030}
!1046 = !{i64 1031}
!1047 = !{i64 1032}
!1048 = !{i64 1033}
!1049 = !{i64 1034}
!1050 = !{i64 1035}
!1051 = !{i64 1036}
!1052 = !{i64 1037}
!1053 = !{i64 1038}
!1054 = !{i64 1039}
!1055 = !{i64 1040}
!1056 = !{i64 1041}
!1057 = !{i64 1042}
!1058 = !{i64 1043}
!1059 = !{i64 1044}
!1060 = !{i64 1045}
!1061 = !{i64 1046}
!1062 = !{i64 1047}
!1063 = !{i64 1048}
!1064 = !{i64 1049}
!1065 = !{i64 1050}
!1066 = !{i64 1051}
!1067 = !{i64 1052}
!1068 = !{i64 1053}
!1069 = !{i64 1054}
!1070 = !{i64 1055}
!1071 = !{i64 1056}
!1072 = !{i64 1057}
!1073 = !{i64 1058}
!1074 = !{i64 1059}
!1075 = !{i64 1060}
!1076 = !{i64 1061}
!1077 = !{i64 1062}
!1078 = !{i64 1063}
!1079 = !{i64 1064}
!1080 = !{i64 1065}
!1081 = !{i64 1066}
!1082 = !{i64 1067}
!1083 = !{i64 1068}
!1084 = !{i64 1069}
!1085 = !{i64 1070}
!1086 = !{i64 1071}
!1087 = !{i64 1072}
!1088 = !{i64 1073}
!1089 = !{i64 1074}
!1090 = !{i64 1075}
!1091 = !{i64 1076}
!1092 = !{i64 1077}
!1093 = !{i64 1078}
!1094 = !{i64 1079}
!1095 = !{i64 1080}
!1096 = !{i64 1081}
!1097 = !{i64 1082}
!1098 = !{i64 1083}
!1099 = !{i64 1084}
!1100 = !{i64 1085}
!1101 = !{i64 1086}
!1102 = !{i64 1087}
!1103 = !{i64 1088}
!1104 = !{i64 1089}
!1105 = !{i64 1090}
!1106 = !{i64 1091}
!1107 = !{i64 1092}
!1108 = !{i64 1093}
!1109 = !{i64 1094}
!1110 = !{i64 1095}
!1111 = !{i64 1096}
!1112 = !{i64 1097}
!1113 = !{i64 1098}
!1114 = !{i64 1099}
!1115 = !{i64 1100}
!1116 = !{i64 1101}
!1117 = !{i64 1102}
!1118 = !{i64 1103}
!1119 = !{i64 1104}
!1120 = !{i64 1105}
!1121 = !{i64 1106}
!1122 = !{i64 1107}
!1123 = !{i64 1108}
!1124 = !{i64 1109}
!1125 = !{i64 1110}
!1126 = !{i64 1111}
!1127 = !{i64 1112}
!1128 = !{i64 1113}
!1129 = !{i64 1114}
!1130 = !{i64 1115}
!1131 = !{i64 1116}
!1132 = !{i64 1117}
!1133 = !{i64 1118}
!1134 = !{i64 1119}
!1135 = !{i64 1120}
!1136 = !{i64 1121}
!1137 = !{i64 1122}
!1138 = !{i64 1123}
!1139 = !{i64 1124}
!1140 = !{i64 1125}
!1141 = !{i64 1126}
!1142 = !{i64 1127}
!1143 = !{i64 1128}
!1144 = !{i64 1129}
!1145 = !{i64 1130}
!1146 = !{i64 1131}
!1147 = !{i64 1132}
!1148 = !{i64 1133}
!1149 = !{i64 1134}
!1150 = !{i64 1135}
!1151 = !{i64 1136}
!1152 = !{i64 1137}
!1153 = !{i64 1138}
!1154 = !{i64 1139}
!1155 = !{i64 1140}
!1156 = !{i64 1141}
!1157 = !{i64 1142}
!1158 = !{i64 1143}
!1159 = !{i64 1144}
!1160 = !{i64 1145}
!1161 = !{i64 1146}
!1162 = !{i64 1147}
!1163 = !{i64 1148}
!1164 = !{i64 1149}
!1165 = !{i64 1150}
!1166 = !{i64 1151}
!1167 = !{i64 1152}
!1168 = !{i64 1153}
!1169 = !{i64 1154}
!1170 = !{i64 1155}
!1171 = !{i64 1156}
!1172 = !{i64 1157}
!1173 = !{i64 1158}
!1174 = !{i64 1159}
!1175 = !{i64 1160}
!1176 = !{i64 1161}
!1177 = !{i64 1162}
!1178 = !{i64 1163}
!1179 = !{i64 1164}
!1180 = !{i64 1165}
!1181 = !{i64 1166}
!1182 = !{i64 1167}
!1183 = !{i64 1168}
!1184 = !{i64 1169}
!1185 = !{i64 1170}
!1186 = !{i64 1171}
!1187 = !{i64 1172}
!1188 = !{i64 1173}
!1189 = !{i64 1174}
!1190 = !{i64 1175}
!1191 = !{i64 1176}
!1192 = !{i64 1177}
!1193 = !{i64 1178}
!1194 = !{i64 1179}
!1195 = !{i64 1180}
!1196 = !{i64 1181}
!1197 = !{i64 1182}
!1198 = !{i64 1183}
!1199 = !{i64 1184}
!1200 = !{i64 1185}
!1201 = !{i64 1186}
!1202 = !{i64 1187}
!1203 = !{i64 1188}
!1204 = !{i64 1189}
!1205 = !{i64 1190}
!1206 = !{i64 1191}
!1207 = !{i64 1192}
!1208 = !{i64 1193}
!1209 = !{i64 1194}
!1210 = !{i64 1195}
!1211 = !{i64 1196}
!1212 = !{i64 1197}
!1213 = !{i64 1198}
!1214 = !{i64 1199}
!1215 = !{i64 1200}
!1216 = !{i64 1201}
!1217 = !{i64 1202}
!1218 = !{i64 1203}
!1219 = !{i64 1204}
!1220 = !{i64 1205}
!1221 = !{i64 1206}
!1222 = !{i64 1207}
!1223 = !{i64 1208}
!1224 = !{i64 1209}
!1225 = !{i64 1210}
!1226 = !{i64 1211}
!1227 = !{i64 1212}
!1228 = !{i64 1213}
!1229 = !{i64 1214}
!1230 = !{i64 1215}
!1231 = !{i64 1216}
!1232 = !{i64 1217}
!1233 = !{i64 1218}
!1234 = !{i64 1219}
!1235 = !{i64 1220}
!1236 = !{i64 1221}
!1237 = !{i64 1222}
!1238 = !{i64 1223}
!1239 = !{i64 1224}
!1240 = !{i64 1225}
!1241 = !{i64 1226}
!1242 = !{i64 1227}
!1243 = !{i64 1228}
!1244 = !{i64 1229}
!1245 = !{i64 1230}
!1246 = !{i64 1231}
!1247 = !{i64 1232}
!1248 = !{i64 1233}
!1249 = !{i64 1234}
!1250 = !{i64 1235}
!1251 = !{i64 1236}
!1252 = !{i64 1237}
!1253 = !{i64 1238}
!1254 = !{i64 1239}
!1255 = !{i64 1240}
!1256 = !{i64 1241}
!1257 = !{i64 1242}
!1258 = !{i64 1243}
!1259 = !{i64 1244}
!1260 = !{i64 1245}
!1261 = !{i64 1246}
!1262 = !{i64 1247}
!1263 = !{i64 1248}
!1264 = !{i64 1249}
!1265 = !{i64 1250}
!1266 = !{i64 1251}
!1267 = !{i64 1252}
!1268 = !{i64 1253}
!1269 = !{i64 1254}
!1270 = !{i64 1255}
!1271 = !{i64 1256}
!1272 = !{i64 1257}
!1273 = !{i64 1258}
!1274 = !{i64 1259}
!1275 = !{i64 1260}
!1276 = !{i64 1261}
!1277 = !{i64 1262}
!1278 = !{i64 1263}
!1279 = !{i64 1264}
!1280 = !{i64 1265}
!1281 = !{i64 1266}
!1282 = !{i64 1267}
!1283 = !{i64 1268}
!1284 = !{i64 1269}
!1285 = !{i64 1270}
!1286 = !{i64 1271}
!1287 = !{i64 1272}
!1288 = !{i64 1273}
!1289 = !{i64 1274}
!1290 = !{i64 1275}
!1291 = !{i64 1276}
!1292 = !{i64 1277}
!1293 = !{i64 1278}
!1294 = !{i64 1279}
!1295 = !{i64 1280}
!1296 = !{i64 1281}
!1297 = !{i64 1282}
!1298 = !{i64 1283}
!1299 = !{i64 1284}
!1300 = !{i64 1285}
!1301 = !{i64 1286}
!1302 = !{i64 1287}
!1303 = !{i64 1288}
!1304 = !{i64 1289}
!1305 = !{i64 1290}
!1306 = !{i64 1291}
!1307 = !{i64 1292}
!1308 = !{i64 1293}
!1309 = !{i64 1294}
!1310 = !{i64 1295}
!1311 = !{i64 1296}
!1312 = !{i64 1297}
!1313 = !{i64 1298}
!1314 = !{i64 1299}
!1315 = !{i64 1300}
!1316 = !{i64 1301}
!1317 = !{i64 1302}
!1318 = !{i64 1303}
!1319 = !{i64 1304}
!1320 = !{i64 1305}
!1321 = !{i64 1306}
!1322 = !{i64 1307}
!1323 = !{i64 1308}
!1324 = !{i64 1309}
!1325 = !{i64 1310}
!1326 = !{i64 1311}
!1327 = !{i64 1312}
!1328 = !{i64 1313}
!1329 = !{i64 1314}
!1330 = !{i64 1315}
!1331 = !{i64 1316}
!1332 = !{i64 1317}
!1333 = !{i64 1318}
!1334 = !{i64 1319}
!1335 = !{i64 1320}
!1336 = !{i64 1321}
!1337 = !{i64 1322}
!1338 = !{i64 1323}
!1339 = !{i64 1324}
!1340 = !{i64 1325}
!1341 = !{i64 1326}
!1342 = !{i64 1327}
!1343 = !{i64 1328}
!1344 = !{i64 1329}
!1345 = !{i64 1330}
!1346 = !{i64 1331}
!1347 = !{i64 1332}
!1348 = !{i64 1333}
!1349 = !{i64 1334}
!1350 = !{i64 1335}
!1351 = !{i64 1336}
!1352 = !{i64 1337}
!1353 = !{i64 1338}
!1354 = !{i64 1339}
!1355 = !{i64 1340}
!1356 = !{i64 1341}
!1357 = !{i64 1342}
!1358 = !{i64 1343}
!1359 = !{i64 1344}
!1360 = !{i64 1345}
!1361 = !{i64 1346}
!1362 = !{i64 1347}
!1363 = !{i64 1348}
!1364 = !{i64 1349}
!1365 = !{i64 1350}
!1366 = !{i64 1351}
!1367 = !{i64 1352}
!1368 = !{i64 1353}
!1369 = !{i64 1354}
!1370 = !{i64 1355}
!1371 = !{i64 1356}
!1372 = !{i64 1357}
!1373 = !{i64 1358}
!1374 = !{i64 1359}
!1375 = !{i64 1360}
!1376 = !{i64 1361}
!1377 = !{i64 1362}
!1378 = !{i64 1363}
!1379 = !{i64 1364}
!1380 = !{i64 1365}
!1381 = !{i64 1366}
!1382 = !{i64 1367}
!1383 = !{i64 1368}
!1384 = !{i64 1369}
!1385 = !{i64 1370}
!1386 = !{i64 1371}
!1387 = !{i64 1372}
!1388 = !{i64 1373}
!1389 = !{i64 1374}
!1390 = !{i64 1375}
!1391 = !{i64 1376}
!1392 = !{i64 1377}
!1393 = !{i64 1378}
!1394 = !{i64 1379}
!1395 = !{i64 1380}
!1396 = !{i64 1381}
!1397 = !{i64 1382}
!1398 = !{i64 1383}
!1399 = !{i64 1384}
!1400 = !{i64 1385}
!1401 = !{i64 1386}
!1402 = !{i64 1387}
!1403 = !{i64 1388}
!1404 = !{i64 1389}
!1405 = !{i64 1390}
!1406 = !{i64 1391}
!1407 = !{i64 1392}
!1408 = !{i64 1393}
!1409 = !{i64 1394}
!1410 = !{i64 1395}
!1411 = !{i64 1396}
!1412 = !{i64 1397}
!1413 = !{i64 1398}
!1414 = !{i64 1399}
!1415 = !{i64 1400}
!1416 = !{i64 1401}
!1417 = !{i64 1402}
!1418 = !{i64 1403}
!1419 = !{i64 1404}
!1420 = !{i64 1405}
!1421 = !{i64 1406}
!1422 = !{i64 1407}
!1423 = !{i64 1408}
!1424 = !{i64 1409}
!1425 = !{i64 1410}
!1426 = !{i64 1411}
!1427 = !{i64 1412}
!1428 = !{i64 1413}
!1429 = !{i64 1414}
!1430 = !{i64 1415}
!1431 = !{i64 1416}
!1432 = !{i64 1417}
!1433 = !{i64 1418}
!1434 = !{i64 1419}
!1435 = !{i64 1420}
!1436 = !{i64 1421}
!1437 = !{i64 1422}
!1438 = !{i64 1423}
!1439 = !{i64 1424}
!1440 = !{i64 1425}
!1441 = !{i64 1426}
!1442 = !{i64 1427}
!1443 = !{i64 1428}
!1444 = !{i64 1429}
!1445 = !{i64 1430}
!1446 = !{i64 1431}
!1447 = !{i64 1432}
!1448 = !{i64 1433}
!1449 = !{i64 1434}
!1450 = !{i64 1435}
!1451 = !{i64 1436}
!1452 = !{i64 1437}
!1453 = !{i64 1438}
!1454 = !{i64 1439}
!1455 = !{i64 1440}
!1456 = !{i64 1441}
!1457 = !{i64 1442}
!1458 = !{i64 1443}
!1459 = !{i64 1444}
!1460 = !{i64 1445}
!1461 = !{i64 1446}
!1462 = !{i64 1447}
!1463 = !{i64 1448}
!1464 = !{i64 1449}
!1465 = !{i64 1450}
!1466 = !{i64 1451}
!1467 = !{i64 1452}
!1468 = !{i64 1453}
!1469 = !{i64 1454}
!1470 = !{i64 1455}
!1471 = !{i64 1456}
!1472 = !{i64 1457}
!1473 = !{i64 1458}
!1474 = !{i64 1459}
!1475 = !{i64 1460}
!1476 = !{i64 1461}
!1477 = !{i64 1462}
!1478 = !{i64 1463}
!1479 = !{i64 1464}
!1480 = !{i64 1465}
!1481 = !{i64 1466}
!1482 = !{i64 1467}
!1483 = !{i64 1468}
!1484 = !{i64 1469}
!1485 = !{i64 1470}
!1486 = !{i64 1471}
!1487 = !{i64 1472}
!1488 = !{i64 1473}
!1489 = !{i64 1474}
!1490 = !{i64 1475}
!1491 = !{i64 1476}
!1492 = !{i64 1477}
!1493 = !{i64 1478}
!1494 = !{i64 1479}
!1495 = !{i64 1480}
!1496 = !{i64 1481}
!1497 = !{i64 1482}
!1498 = !{i64 1483}
!1499 = !{i64 1484}
!1500 = !{i64 1485}
!1501 = !{i64 1486}
!1502 = !{i64 1487}
!1503 = !{i64 1488}
!1504 = !{i64 1489}
!1505 = !{i64 1490}
!1506 = !{i64 1491}
