; ModuleID = '/home/hjiang/Computation-Kernel-Dataset/experiments/Fault_injection_0308_parall/O0/SwapNodes/SwapNodes.ll'
source_filename = "llvm-link"
target datalayout = "e-m:e-p270:32:32-p271:32:32-p272:64:64-i64:64-f80:128-n8:16:32:64-S128"
target triple = "x86_64-unknown-linux-gnu"

%"class.std::ios_base::Init" = type { i8 }
%"class.std::basic_ostream" = type { i32 (...)**, %"class.std::basic_ios" }
%"class.std::basic_ios" = type { %"class.std::ios_base", %"class.std::basic_ostream"*, i8, i8, %"class.std::basic_streambuf"*, %"class.std::ctype"*, %"class.std::num_put"*, %"class.std::num_put"* }
%"class.std::ios_base" = type { i32 (...)**, i64, i64, i32, i32, i32, %"struct.std::ios_base::_Callback_list"*, %"struct.std::ios_base::_Words", [8 x %"struct.std::ios_base::_Words"], i32, %"struct.std::ios_base::_Words"*, %"class.std::locale" }
%"struct.std::ios_base::_Callback_list" = type { %"struct.std::ios_base::_Callback_list"*, void (i32, %"class.std::ios_base"*, i32)*, i32, i32 }
%"struct.std::ios_base::_Words" = type { i8*, i64 }
%"class.std::locale" = type { %"class.std::locale::_Impl"* }
%"class.std::locale::_Impl" = type { i32, %"class.std::locale::facet"**, i64, %"class.std::locale::facet"**, i8** }
%"class.std::locale::facet" = type <{ i32 (...)**, i32, [4 x i8] }>
%"class.std::basic_streambuf" = type { i32 (...)**, i8*, i8*, i8*, i8*, i8*, i8*, %"class.std::locale" }
%"class.std::ctype" = type <{ %"class.std::locale::facet.base", [4 x i8], %struct.__locale_struct*, i8, [7 x i8], i32*, i32*, i16*, i8, [256 x i8], [256 x i8], i8, [6 x i8] }>
%"class.std::locale::facet.base" = type <{ i32 (...)**, i32 }>
%struct.__locale_struct = type { [13 x %struct.__locale_data*], i16*, i32*, i32*, [13 x i8*] }
%struct.__locale_data = type opaque
%"class.std::num_put" = type { %"class.std::locale::facet.base", [4 x i8] }
%struct._IO_FILE = type { i32, i8*, i8*, i8*, i8*, i8*, i8*, i8*, i8*, i8*, i8*, i8*, %struct._IO_marker*, %struct._IO_FILE*, i32, i32, i64, i16, i8, [1 x i8], i8*, i64, %struct._IO_codecvt*, %struct._IO_wide_data*, %struct._IO_FILE*, i8*, i64, i32, [20 x i8] }
%struct._IO_marker = type opaque
%struct._IO_codecvt = type opaque
%struct._IO_wide_data = type opaque
%"class.std::basic_istream" = type { i32 (...)**, i64, %"class.std::basic_ios" }
%struct.node = type { i32, %struct.node*, %struct.node* }
%"class.std::queue" = type { %"class.std::deque" }
%"class.std::deque" = type { %"class.std::_Deque_base" }
%"class.std::_Deque_base" = type { %"struct.std::_Deque_base<node *, std::allocator<node *>>::_Deque_impl" }
%"struct.std::_Deque_base<node *, std::allocator<node *>>::_Deque_impl" = type { %struct.node***, i64, %"struct.std::_Deque_iterator", %"struct.std::_Deque_iterator" }
%"struct.std::_Deque_iterator" = type { %struct.node**, %struct.node**, %struct.node**, %struct.node*** }

$_ZNSt5queueIP4nodeSt5dequeIS1_SaIS1_EEEC2IS4_vEEv = comdat any

$_ZNSt5queueIP4nodeSt5dequeIS1_SaIS1_EEE4pushERKS1_ = comdat any

$_ZNSt5queueIP4nodeSt5dequeIS1_SaIS1_EEE4pushEOS1_ = comdat any

$_ZNKSt5queueIP4nodeSt5dequeIS1_SaIS1_EEE5emptyEv = comdat any

$_ZNSt5queueIP4nodeSt5dequeIS1_SaIS1_EEE5frontEv = comdat any

$_ZNSt5queueIP4nodeSt5dequeIS1_SaIS1_EEE3popEv = comdat any

$_ZNSt5queueIP4nodeSt5dequeIS1_SaIS1_EEED2Ev = comdat any

$_ZNSt5dequeIP4nodeSaIS1_EED2Ev = comdat any

$_ZNSt5dequeIP4nodeSaIS1_EE5beginEv = comdat any

$_ZNSt5dequeIP4nodeSaIS1_EE3endEv = comdat any

$_ZNSt11_Deque_baseIP4nodeSaIS1_EE19_M_get_Tp_allocatorEv = comdat any

$_ZNSt5dequeIP4nodeSaIS1_EE15_M_destroy_dataESt15_Deque_iteratorIS1_RS1_PS1_ES7_RKS2_ = comdat any

$_ZNSt11_Deque_baseIP4nodeSaIS1_EED2Ev = comdat any

$__clang_call_terminate = comdat any

$_ZNSt11_Deque_baseIP4nodeSaIS1_EE16_M_destroy_nodesEPPS1_S5_ = comdat any

$_ZNSt11_Deque_baseIP4nodeSaIS1_EE17_M_deallocate_mapEPPS1_m = comdat any

$_ZNSt11_Deque_baseIP4nodeSaIS1_EE11_Deque_implD2Ev = comdat any

$_ZNSaIP4nodeED2Ev = comdat any

$_ZN9__gnu_cxx13new_allocatorIP4nodeED2Ev = comdat any

$_ZNKSt11_Deque_baseIP4nodeSaIS1_EE20_M_get_map_allocatorEv = comdat any

$_ZNSt16allocator_traitsISaIPP4nodeEE10deallocateERS3_PS2_m = comdat any

$_ZNSaIPP4nodeED2Ev = comdat any

$_ZN9__gnu_cxx13new_allocatorIPP4nodeED2Ev = comdat any

$_ZN9__gnu_cxx13new_allocatorIPP4nodeE10deallocateEPS3_m = comdat any

$_ZNKSt11_Deque_baseIP4nodeSaIS1_EE19_M_get_Tp_allocatorEv = comdat any

$_ZNSaIPP4nodeEC2IS0_EERKSaIT_E = comdat any

$_ZN9__gnu_cxx13new_allocatorIPP4nodeEC2Ev = comdat any

$_ZNSt11_Deque_baseIP4nodeSaIS1_EE18_M_deallocate_nodeEPS1_ = comdat any

$_ZSt16__deque_buf_sizem = comdat any

$_ZNSt16allocator_traitsISaIP4nodeEE10deallocateERS2_PS1_m = comdat any

$_ZN9__gnu_cxx13new_allocatorIP4nodeE10deallocateEPS2_m = comdat any

$_ZNSt15_Deque_iteratorIP4nodeRS1_PS1_EC2ERKS4_ = comdat any

$_ZNSt5dequeIP4nodeSaIS1_EE9pop_frontEv = comdat any

$_ZNSt16allocator_traitsISaIP4nodeEE7destroyIS1_EEvRS2_PT_ = comdat any

$_ZNSt5dequeIP4nodeSaIS1_EE16_M_pop_front_auxEv = comdat any

$_ZNSt15_Deque_iteratorIP4nodeRS1_PS1_E11_M_set_nodeEPS3_ = comdat any

$_ZNSt15_Deque_iteratorIP4nodeRS1_PS1_E14_S_buffer_sizeEv = comdat any

$_ZN9__gnu_cxx13new_allocatorIP4nodeE7destroyIS2_EEvPT_ = comdat any

$_ZNSt5dequeIP4nodeSaIS1_EE5frontEv = comdat any

$_ZNKSt15_Deque_iteratorIP4nodeRS1_PS1_EdeEv = comdat any

$_ZNKSt5dequeIP4nodeSaIS1_EE5emptyEv = comdat any

$_ZSteqIP4nodeRS1_PS1_EbRKSt15_Deque_iteratorIT_T0_T1_ESA_ = comdat any

$_ZSt4moveIRP4nodeEONSt16remove_referenceIT_E4typeEOS4_ = comdat any

$_ZNSt5dequeIP4nodeSaIS1_EE9push_backEOS1_ = comdat any

$_ZNSt5dequeIP4nodeSaIS1_EE12emplace_backIJS1_EEEvDpOT_ = comdat any

$_ZSt7forwardIP4nodeEOT_RNSt16remove_referenceIS2_E4typeE = comdat any

$_ZNSt16allocator_traitsISaIP4nodeEE9constructIS1_JS1_EEEvRS2_PT_DpOT0_ = comdat any

$_ZNSt5dequeIP4nodeSaIS1_EE16_M_push_back_auxIJS1_EEEvDpOT_ = comdat any

$_ZNKSt5dequeIP4nodeSaIS1_EE4sizeEv = comdat any

$_ZNKSt5dequeIP4nodeSaIS1_EE8max_sizeEv = comdat any

$_ZNSt5dequeIP4nodeSaIS1_EE22_M_reserve_map_at_backEm = comdat any

$_ZNSt11_Deque_baseIP4nodeSaIS1_EE16_M_allocate_nodeEv = comdat any

$_ZNSt16allocator_traitsISaIP4nodeEE8allocateERS2_m = comdat any

$_ZN9__gnu_cxx13new_allocatorIP4nodeE8allocateEmPKv = comdat any

$_ZNK9__gnu_cxx13new_allocatorIP4nodeE8max_sizeEv = comdat any

$_ZNSt5dequeIP4nodeSaIS1_EE17_M_reallocate_mapEmb = comdat any

$_ZSt4copyIPPP4nodeS3_ET0_T_S5_S4_ = comdat any

$_ZSt13copy_backwardIPPP4nodeS3_ET0_T_S5_S4_ = comdat any

$_ZSt3maxImERKT_S2_S2_ = comdat any

$_ZNSt11_Deque_baseIP4nodeSaIS1_EE15_M_allocate_mapEm = comdat any

$_ZNSt16allocator_traitsISaIPP4nodeEE8allocateERS3_m = comdat any

$_ZN9__gnu_cxx13new_allocatorIPP4nodeE8allocateEmPKv = comdat any

$_ZNK9__gnu_cxx13new_allocatorIPP4nodeE8max_sizeEv = comdat any

$_ZSt12__miter_baseIPPP4nodeET_S4_ = comdat any

$_ZSt23__copy_move_backward_a2ILb0EPPP4nodeS3_ET1_T0_S5_S4_ = comdat any

$_ZSt12__niter_baseIPPP4nodeET_S4_ = comdat any

$_ZSt22__copy_move_backward_aILb0EPPP4nodeS3_ET1_T0_S5_S4_ = comdat any

$_ZSt12__niter_wrapIPPP4nodeET_RKS4_S4_ = comdat any

$_ZNSt20__copy_move_backwardILb0ELb1ESt26random_access_iterator_tagE13__copy_move_bIPP4nodeEEPT_PKS6_S9_S7_ = comdat any

$_ZSt14__copy_move_a2ILb0EPPP4nodeS3_ET1_T0_S5_S4_ = comdat any

$_ZSt13__copy_move_aILb0EPPP4nodeS3_ET1_T0_S5_S4_ = comdat any

$_ZNSt11__copy_moveILb0ELb1ESt26random_access_iterator_tagE8__copy_mIPP4nodeEEPT_PKS6_S9_S7_ = comdat any

$_ZNSt5dequeIP4nodeSaIS1_EE11_S_max_sizeERKS2_ = comdat any

$_ZNSt16allocator_traitsISaIP4nodeEE8max_sizeERKS2_ = comdat any

$_ZSt3minImERKT_S2_S2_ = comdat any

$_ZStmiIP4nodeRS1_PS1_ENSt15_Deque_iteratorIT_T0_T1_E15difference_typeERKS8_SB_ = comdat any

$_ZN9__gnu_cxx13new_allocatorIP4nodeE9constructIS2_JS2_EEEvPT_DpOT0_ = comdat any

$_ZNSt5dequeIP4nodeSaIS1_EE9push_backERKS1_ = comdat any

$_ZNSt16allocator_traitsISaIP4nodeEE9constructIS1_JRKS1_EEEvRS2_PT_DpOT0_ = comdat any

$_ZNSt5dequeIP4nodeSaIS1_EE16_M_push_back_auxIJRKS1_EEEvDpOT_ = comdat any

$_ZSt7forwardIRKP4nodeEOT_RNSt16remove_referenceIS4_E4typeE = comdat any

$_ZN9__gnu_cxx13new_allocatorIP4nodeE9constructIS2_JRKS2_EEEvPT_DpOT0_ = comdat any

$_ZNSt5dequeIP4nodeSaIS1_EEC2Ev = comdat any

$_ZNSt11_Deque_baseIP4nodeSaIS1_EEC2Ev = comdat any

$_ZNSt11_Deque_baseIP4nodeSaIS1_EE11_Deque_implC2Ev = comdat any

$_ZNSt11_Deque_baseIP4nodeSaIS1_EE17_M_initialize_mapEm = comdat any

$_ZNSt11_Deque_baseIP4nodeSaIS1_EE15_M_create_nodesEPPS1_S5_ = comdat any

$_ZNSaIP4nodeEC2Ev = comdat any

$_ZNSt15_Deque_iteratorIP4nodeRS1_PS1_EC2Ev = comdat any

$_ZN9__gnu_cxx13new_allocatorIP4nodeEC2Ev = comdat any

$_ZN4nodeC2Ei = comdat any

@llvm.global_ctors = appending global [1 x { i32, void ()*, i8* }] [{ i32, void ()*, i8* } { i32 65535, void ()* @_GLOBAL__sub_I_SwapNodes.cpp, i8* null }]
@_ZStL8__ioinit = internal global %"class.std::ios_base::Init" zeroinitializer, align 1
@_ZSt4cout = external dso_local global %"class.std::basic_ostream", align 8
@.str = private unnamed_addr constant [25 x i8] c"../input_files/SwapNodes\00", align 1
@.str.1 = private unnamed_addr constant [2 x i8] c"r\00", align 1
@stdin = external dso_local global %struct._IO_FILE*, align 8
@_ZSt3cin = external dso_local global %"class.std::basic_istream", align 8
@.str.2 = private unnamed_addr constant [48 x i8] c"cannot create std::deque larger than max_size()\00", align 1

; Function Attrs: noinline uwtable
define internal void @_GLOBAL__sub_I_SwapNodes.cpp() #0 section ".text.startup" {
  call void @__cxx_global_var_init(), !llfi_index !4
  ret void, !llfi_index !5
}

; Function Attrs: noinline uwtable
define internal void @__cxx_global_var_init() #0 section ".text.startup" {
  call void @_ZNSt8ios_base4InitC1Ev(%"class.std::ios_base::Init"* nonnull align 1 dereferenceable(1) @_ZStL8__ioinit), !llfi_index !6
  %1 = call i32 @atexit(void ()* @__dtor__ZStL8__ioinit) #2, !llfi_index !7
  ret void, !llfi_index !8
}

declare dso_local void @_ZNSt8ios_base4InitC1Ev(%"class.std::ios_base::Init"* nonnull align 1 dereferenceable(1)) unnamed_addr #1

; Function Attrs: noinline uwtable
define internal void @__dtor__ZStL8__ioinit() #0 section ".text.startup" {
  call void @_ZNSt8ios_base4InitD1Ev(%"class.std::ios_base::Init"* @_ZStL8__ioinit), !llfi_index !9
  ret void, !llfi_index !10
}

; Function Attrs: nounwind
declare dso_local i32 @atexit(void ()*) #2

; Function Attrs: nounwind
declare dso_local void @_ZNSt8ios_base4InitD1Ev(%"class.std::ios_base::Init"* nonnull align 1 dereferenceable(1)) unnamed_addr #3

; Function Attrs: mustprogress noinline uwtable
define dso_local void @_Z7InOrderP4node(%struct.node* %0) #4 {
  %2 = alloca %struct.node*, align 8, !llfi_index !11
  store %struct.node* %0, %struct.node** %2, align 8, !llfi_index !12
  %3 = load %struct.node*, %struct.node** %2, align 8, !llfi_index !13
  %4 = icmp ne %struct.node* %3, null, !llfi_index !14
  br i1 %4, label %6, label %5, !llfi_index !15

5:                                                ; preds = %1
  br label %18, !llfi_index !16

6:                                                ; preds = %1
  %7 = load %struct.node*, %struct.node** %2, align 8, !llfi_index !17
  %8 = getelementptr inbounds %struct.node, %struct.node* %7, i32 0, i32 1, !llfi_index !18
  %9 = load %struct.node*, %struct.node** %8, align 8, !llfi_index !19
  call void @_Z7InOrderP4node(%struct.node* %9), !llfi_index !20
  %10 = load %struct.node*, %struct.node** %2, align 8, !llfi_index !21
  %11 = getelementptr inbounds %struct.node, %struct.node* %10, i32 0, i32 0, !llfi_index !22
  %12 = load i32, i32* %11, align 8, !llfi_index !23
  %13 = call nonnull align 8 dereferenceable(8) %"class.std::basic_ostream"* @_ZNSolsEi(%"class.std::basic_ostream"* nonnull align 8 dereferenceable(8) @_ZSt4cout, i32 %12), !llfi_index !24
  %14 = call nonnull align 8 dereferenceable(8) %"class.std::basic_ostream"* @_ZStlsISt11char_traitsIcEERSt13basic_ostreamIcT_ES5_c(%"class.std::basic_ostream"* nonnull align 8 dereferenceable(8) %13, i8 signext 32), !llfi_index !25
  %15 = load %struct.node*, %struct.node** %2, align 8, !llfi_index !26
  %16 = getelementptr inbounds %struct.node, %struct.node* %15, i32 0, i32 2, !llfi_index !27
  %17 = load %struct.node*, %struct.node** %16, align 8, !llfi_index !28
  call void @_Z7InOrderP4node(%struct.node* %17), !llfi_index !29
  br label %18, !llfi_index !30

18:                                               ; preds = %6, %5
  ret void, !llfi_index !31
}

declare dso_local nonnull align 8 dereferenceable(8) %"class.std::basic_ostream"* @_ZNSolsEi(%"class.std::basic_ostream"* nonnull align 8 dereferenceable(8), i32) #1

declare dso_local nonnull align 8 dereferenceable(8) %"class.std::basic_ostream"* @_ZStlsISt11char_traitsIcEERSt13basic_ostreamIcT_ES5_c(%"class.std::basic_ostream"* nonnull align 8 dereferenceable(8), i8 signext) #1

; Function Attrs: mustprogress noinline uwtable
define dso_local void @_Z19swapSubtreesOfLevelP4nodei(%struct.node* %0, i32 %1) #4 personality i8* bitcast (i32 (...)* @__gxx_personality_v0 to i8*) {
  %3 = alloca %struct.node*, align 8, !llfi_index !32
  %4 = alloca i32, align 4, !llfi_index !33
  %5 = alloca %"class.std::queue", align 8, !llfi_index !34
  %6 = alloca i8*, align 8, !llfi_index !35
  %7 = alloca i32, align 4, !llfi_index !36
  %8 = alloca %struct.node*, align 8, !llfi_index !37
  %9 = alloca i32, align 4, !llfi_index !38
  %10 = alloca %struct.node*, align 8, !llfi_index !39
  %11 = alloca %struct.node*, align 8, !llfi_index !40
  %12 = alloca %struct.node*, align 8, !llfi_index !41
  store %struct.node* %0, %struct.node** %3, align 8, !llfi_index !42
  store i32 %1, i32* %4, align 4, !llfi_index !43
  %13 = load %struct.node*, %struct.node** %3, align 8, !llfi_index !44
  %14 = icmp ne %struct.node* %13, null, !llfi_index !45
  br i1 %14, label %16, label %15, !llfi_index !46

15:                                               ; preds = %2
  br label %79, !llfi_index !47

16:                                               ; preds = %2
  call void @_ZNSt5queueIP4nodeSt5dequeIS1_SaIS1_EEEC2IS4_vEEv(%"class.std::queue"* nonnull align 8 dereferenceable(80) %5), !llfi_index !48
  invoke void @_ZNSt5queueIP4nodeSt5dequeIS1_SaIS1_EEE4pushERKS1_(%"class.std::queue"* nonnull align 8 dereferenceable(80) %5, %struct.node** nonnull align 8 dereferenceable(8) %3)
          to label %17 unwind label %35, !llfi_index !49

17:                                               ; preds = %16
  store %struct.node* null, %struct.node** %8, align 8, !llfi_index !50
  invoke void @_ZNSt5queueIP4nodeSt5dequeIS1_SaIS1_EEE4pushEOS1_(%"class.std::queue"* nonnull align 8 dereferenceable(80) %5, %struct.node** nonnull align 8 dereferenceable(8) %8)
          to label %18 unwind label %35, !llfi_index !51

18:                                               ; preds = %17
  store i32 1, i32* %9, align 4, !llfi_index !52
  br label %19, !llfi_index !53

19:                                               ; preds = %77, %18
  %20 = invoke zeroext i1 @_ZNKSt5queueIP4nodeSt5dequeIS1_SaIS1_EEE5emptyEv(%"class.std::queue"* nonnull align 8 dereferenceable(80) %5)
          to label %21 unwind label %35, !llfi_index !54

21:                                               ; preds = %19
  %22 = xor i1 %20, true, !llfi_index !55
  br i1 %22, label %23, label %78, !llfi_index !56

23:                                               ; preds = %21
  %24 = invoke nonnull align 8 dereferenceable(8) %struct.node** @_ZNSt5queueIP4nodeSt5dequeIS1_SaIS1_EEE5frontEv(%"class.std::queue"* nonnull align 8 dereferenceable(80) %5)
          to label %25 unwind label %35, !llfi_index !57

25:                                               ; preds = %23
  %26 = load %struct.node*, %struct.node** %24, align 8, !llfi_index !58
  store %struct.node* %26, %struct.node** %10, align 8, !llfi_index !59
  invoke void @_ZNSt5queueIP4nodeSt5dequeIS1_SaIS1_EEE3popEv(%"class.std::queue"* nonnull align 8 dereferenceable(80) %5)
          to label %27 unwind label %35, !llfi_index !60

27:                                               ; preds = %25
  %28 = load %struct.node*, %struct.node** %10, align 8, !llfi_index !61
  %29 = icmp eq %struct.node* %28, null, !llfi_index !62
  br i1 %29, label %30, label %42, !llfi_index !63

30:                                               ; preds = %27
  %31 = invoke zeroext i1 @_ZNKSt5queueIP4nodeSt5dequeIS1_SaIS1_EEE5emptyEv(%"class.std::queue"* nonnull align 8 dereferenceable(80) %5)
          to label %32 unwind label %35, !llfi_index !64

32:                                               ; preds = %30
  br i1 %31, label %39, label %33, !llfi_index !65

33:                                               ; preds = %32
  store %struct.node* null, %struct.node** %11, align 8, !llfi_index !66
  invoke void @_ZNSt5queueIP4nodeSt5dequeIS1_SaIS1_EEE4pushEOS1_(%"class.std::queue"* nonnull align 8 dereferenceable(80) %5, %struct.node** nonnull align 8 dereferenceable(8) %11)
          to label %34 unwind label %35, !llfi_index !67

34:                                               ; preds = %33
  br label %39, !llfi_index !68

35:                                               ; preds = %72, %63, %33, %30, %25, %23, %19, %17, %16
  %36 = landingpad { i8*, i32 }
          cleanup, !llfi_index !69
  %37 = extractvalue { i8*, i32 } %36, 0, !llfi_index !70
  store i8* %37, i8** %6, align 8, !llfi_index !71
  %38 = extractvalue { i8*, i32 } %36, 1, !llfi_index !72
  store i32 %38, i32* %7, align 4, !llfi_index !73
  call void @_ZNSt5queueIP4nodeSt5dequeIS1_SaIS1_EEED2Ev(%"class.std::queue"* nonnull align 8 dereferenceable(80) %5) #2, !llfi_index !74
  br label %80, !llfi_index !75

39:                                               ; preds = %34, %32
  %40 = load i32, i32* %9, align 4, !llfi_index !76
  %41 = add nsw i32 %40, 1, !llfi_index !77
  store i32 %41, i32* %9, align 4, !llfi_index !78
  br label %77, !llfi_index !79

42:                                               ; preds = %27
  %43 = load i32, i32* %9, align 4, !llfi_index !80
  %44 = load i32, i32* %4, align 4, !llfi_index !81
  %45 = icmp eq i32 %43, %44, !llfi_index !82
  br i1 %45, label %46, label %58, !llfi_index !83

46:                                               ; preds = %42
  %47 = load %struct.node*, %struct.node** %10, align 8, !llfi_index !84
  %48 = getelementptr inbounds %struct.node, %struct.node* %47, i32 0, i32 1, !llfi_index !85
  %49 = load %struct.node*, %struct.node** %48, align 8, !llfi_index !86
  store %struct.node* %49, %struct.node** %12, align 8, !llfi_index !87
  %50 = load %struct.node*, %struct.node** %10, align 8, !llfi_index !88
  %51 = getelementptr inbounds %struct.node, %struct.node* %50, i32 0, i32 2, !llfi_index !89
  %52 = load %struct.node*, %struct.node** %51, align 8, !llfi_index !90
  %53 = load %struct.node*, %struct.node** %10, align 8, !llfi_index !91
  %54 = getelementptr inbounds %struct.node, %struct.node* %53, i32 0, i32 1, !llfi_index !92
  store %struct.node* %52, %struct.node** %54, align 8, !llfi_index !93
  %55 = load %struct.node*, %struct.node** %12, align 8, !llfi_index !94
  %56 = load %struct.node*, %struct.node** %10, align 8, !llfi_index !95
  %57 = getelementptr inbounds %struct.node, %struct.node* %56, i32 0, i32 2, !llfi_index !96
  store %struct.node* %55, %struct.node** %57, align 8, !llfi_index !97
  br label %58, !llfi_index !98

58:                                               ; preds = %46, %42
  %59 = load %struct.node*, %struct.node** %10, align 8, !llfi_index !99
  %60 = getelementptr inbounds %struct.node, %struct.node* %59, i32 0, i32 1, !llfi_index !100
  %61 = load %struct.node*, %struct.node** %60, align 8, !llfi_index !101
  %62 = icmp ne %struct.node* %61, null, !llfi_index !102
  br i1 %62, label %63, label %67, !llfi_index !103

63:                                               ; preds = %58
  %64 = load %struct.node*, %struct.node** %10, align 8, !llfi_index !104
  %65 = getelementptr inbounds %struct.node, %struct.node* %64, i32 0, i32 1, !llfi_index !105
  invoke void @_ZNSt5queueIP4nodeSt5dequeIS1_SaIS1_EEE4pushERKS1_(%"class.std::queue"* nonnull align 8 dereferenceable(80) %5, %struct.node** nonnull align 8 dereferenceable(8) %65)
          to label %66 unwind label %35, !llfi_index !106

66:                                               ; preds = %63
  br label %67, !llfi_index !107

67:                                               ; preds = %66, %58
  %68 = load %struct.node*, %struct.node** %10, align 8, !llfi_index !108
  %69 = getelementptr inbounds %struct.node, %struct.node* %68, i32 0, i32 2, !llfi_index !109
  %70 = load %struct.node*, %struct.node** %69, align 8, !llfi_index !110
  %71 = icmp ne %struct.node* %70, null, !llfi_index !111
  br i1 %71, label %72, label %76, !llfi_index !112

72:                                               ; preds = %67
  %73 = load %struct.node*, %struct.node** %10, align 8, !llfi_index !113
  %74 = getelementptr inbounds %struct.node, %struct.node* %73, i32 0, i32 2, !llfi_index !114
  invoke void @_ZNSt5queueIP4nodeSt5dequeIS1_SaIS1_EEE4pushERKS1_(%"class.std::queue"* nonnull align 8 dereferenceable(80) %5, %struct.node** nonnull align 8 dereferenceable(8) %74)
          to label %75 unwind label %35, !llfi_index !115

75:                                               ; preds = %72
  br label %76, !llfi_index !116

76:                                               ; preds = %75, %67
  br label %77, !llfi_index !117

77:                                               ; preds = %76, %39
  br label %19, !llvm.loop !118, !llfi_index !120

78:                                               ; preds = %21
  call void @_ZNSt5queueIP4nodeSt5dequeIS1_SaIS1_EEED2Ev(%"class.std::queue"* nonnull align 8 dereferenceable(80) %5) #2, !llfi_index !121
  br label %79, !llfi_index !122

79:                                               ; preds = %78, %15
  ret void, !llfi_index !123

80:                                               ; preds = %35
  %81 = load i8*, i8** %6, align 8, !llfi_index !124
  %82 = load i32, i32* %7, align 4, !llfi_index !125
  %83 = insertvalue { i8*, i32 } undef, i8* %81, 0, !llfi_index !126
  %84 = insertvalue { i8*, i32 } %83, i32 %82, 1, !llfi_index !127
  resume { i8*, i32 } %84, !llfi_index !128
}

declare dso_local i32 @__gxx_personality_v0(...)

; Function Attrs: noinline uwtable
define linkonce_odr dso_local void @_ZNSt5queueIP4nodeSt5dequeIS1_SaIS1_EEEC2IS4_vEEv(%"class.std::queue"* nonnull align 8 dereferenceable(80) %0) unnamed_addr #0 comdat align 2 {
  %2 = alloca %"class.std::queue"*, align 8, !llfi_index !129
  store %"class.std::queue"* %0, %"class.std::queue"** %2, align 8, !llfi_index !130
  %3 = load %"class.std::queue"*, %"class.std::queue"** %2, align 8, !llfi_index !131
  %4 = getelementptr inbounds %"class.std::queue", %"class.std::queue"* %3, i32 0, i32 0, !llfi_index !132
  call void @_ZNSt5dequeIP4nodeSaIS1_EEC2Ev(%"class.std::deque"* nonnull align 8 dereferenceable(80) %4), !llfi_index !133
  ret void, !llfi_index !134
}

; Function Attrs: mustprogress noinline uwtable
define linkonce_odr dso_local void @_ZNSt5queueIP4nodeSt5dequeIS1_SaIS1_EEE4pushERKS1_(%"class.std::queue"* nonnull align 8 dereferenceable(80) %0, %struct.node** nonnull align 8 dereferenceable(8) %1) #4 comdat align 2 {
  %3 = alloca %"class.std::queue"*, align 8, !llfi_index !135
  %4 = alloca %struct.node**, align 8, !llfi_index !136
  store %"class.std::queue"* %0, %"class.std::queue"** %3, align 8, !llfi_index !137
  store %struct.node** %1, %struct.node*** %4, align 8, !llfi_index !138
  %5 = load %"class.std::queue"*, %"class.std::queue"** %3, align 8, !llfi_index !139
  %6 = getelementptr inbounds %"class.std::queue", %"class.std::queue"* %5, i32 0, i32 0, !llfi_index !140
  %7 = load %struct.node**, %struct.node*** %4, align 8, !llfi_index !141
  call void @_ZNSt5dequeIP4nodeSaIS1_EE9push_backERKS1_(%"class.std::deque"* nonnull align 8 dereferenceable(80) %6, %struct.node** nonnull align 8 dereferenceable(8) %7), !llfi_index !142
  ret void, !llfi_index !143
}

; Function Attrs: mustprogress noinline uwtable
define linkonce_odr dso_local void @_ZNSt5queueIP4nodeSt5dequeIS1_SaIS1_EEE4pushEOS1_(%"class.std::queue"* nonnull align 8 dereferenceable(80) %0, %struct.node** nonnull align 8 dereferenceable(8) %1) #4 comdat align 2 {
  %3 = alloca %"class.std::queue"*, align 8, !llfi_index !144
  %4 = alloca %struct.node**, align 8, !llfi_index !145
  store %"class.std::queue"* %0, %"class.std::queue"** %3, align 8, !llfi_index !146
  store %struct.node** %1, %struct.node*** %4, align 8, !llfi_index !147
  %5 = load %"class.std::queue"*, %"class.std::queue"** %3, align 8, !llfi_index !148
  %6 = getelementptr inbounds %"class.std::queue", %"class.std::queue"* %5, i32 0, i32 0, !llfi_index !149
  %7 = load %struct.node**, %struct.node*** %4, align 8, !llfi_index !150
  %8 = call nonnull align 8 dereferenceable(8) %struct.node** @_ZSt4moveIRP4nodeEONSt16remove_referenceIT_E4typeEOS4_(%struct.node** nonnull align 8 dereferenceable(8) %7) #2, !llfi_index !151
  call void @_ZNSt5dequeIP4nodeSaIS1_EE9push_backEOS1_(%"class.std::deque"* nonnull align 8 dereferenceable(80) %6, %struct.node** nonnull align 8 dereferenceable(8) %8), !llfi_index !152
  ret void, !llfi_index !153
}

; Function Attrs: mustprogress noinline nounwind uwtable
define linkonce_odr dso_local zeroext i1 @_ZNKSt5queueIP4nodeSt5dequeIS1_SaIS1_EEE5emptyEv(%"class.std::queue"* nonnull align 8 dereferenceable(80) %0) #5 comdat align 2 {
  %2 = alloca %"class.std::queue"*, align 8, !llfi_index !154
  store %"class.std::queue"* %0, %"class.std::queue"** %2, align 8, !llfi_index !155
  %3 = load %"class.std::queue"*, %"class.std::queue"** %2, align 8, !llfi_index !156
  %4 = getelementptr inbounds %"class.std::queue", %"class.std::queue"* %3, i32 0, i32 0, !llfi_index !157
  %5 = call zeroext i1 @_ZNKSt5dequeIP4nodeSaIS1_EE5emptyEv(%"class.std::deque"* nonnull align 8 dereferenceable(80) %4) #2, !llfi_index !158
  ret i1 %5, !llfi_index !159
}

; Function Attrs: mustprogress noinline nounwind uwtable
define linkonce_odr dso_local nonnull align 8 dereferenceable(8) %struct.node** @_ZNSt5queueIP4nodeSt5dequeIS1_SaIS1_EEE5frontEv(%"class.std::queue"* nonnull align 8 dereferenceable(80) %0) #5 comdat align 2 {
  %2 = alloca %"class.std::queue"*, align 8, !llfi_index !160
  store %"class.std::queue"* %0, %"class.std::queue"** %2, align 8, !llfi_index !161
  %3 = load %"class.std::queue"*, %"class.std::queue"** %2, align 8, !llfi_index !162
  %4 = getelementptr inbounds %"class.std::queue", %"class.std::queue"* %3, i32 0, i32 0, !llfi_index !163
  %5 = call nonnull align 8 dereferenceable(8) %struct.node** @_ZNSt5dequeIP4nodeSaIS1_EE5frontEv(%"class.std::deque"* nonnull align 8 dereferenceable(80) %4) #2, !llfi_index !164
  ret %struct.node** %5, !llfi_index !165
}

; Function Attrs: mustprogress noinline nounwind uwtable
define linkonce_odr dso_local void @_ZNSt5queueIP4nodeSt5dequeIS1_SaIS1_EEE3popEv(%"class.std::queue"* nonnull align 8 dereferenceable(80) %0) #5 comdat align 2 {
  %2 = alloca %"class.std::queue"*, align 8, !llfi_index !166
  store %"class.std::queue"* %0, %"class.std::queue"** %2, align 8, !llfi_index !167
  %3 = load %"class.std::queue"*, %"class.std::queue"** %2, align 8, !llfi_index !168
  %4 = getelementptr inbounds %"class.std::queue", %"class.std::queue"* %3, i32 0, i32 0, !llfi_index !169
  call void @_ZNSt5dequeIP4nodeSaIS1_EE9pop_frontEv(%"class.std::deque"* nonnull align 8 dereferenceable(80) %4) #2, !llfi_index !170
  ret void, !llfi_index !171
}

; Function Attrs: noinline nounwind uwtable
define linkonce_odr dso_local void @_ZNSt5queueIP4nodeSt5dequeIS1_SaIS1_EEED2Ev(%"class.std::queue"* nonnull align 8 dereferenceable(80) %0) unnamed_addr #6 comdat align 2 {
  %2 = alloca %"class.std::queue"*, align 8, !llfi_index !172
  store %"class.std::queue"* %0, %"class.std::queue"** %2, align 8, !llfi_index !173
  %3 = load %"class.std::queue"*, %"class.std::queue"** %2, align 8, !llfi_index !174
  %4 = getelementptr inbounds %"class.std::queue", %"class.std::queue"* %3, i32 0, i32 0, !llfi_index !175
  call void @_ZNSt5dequeIP4nodeSaIS1_EED2Ev(%"class.std::deque"* nonnull align 8 dereferenceable(80) %4) #2, !llfi_index !176
  ret void, !llfi_index !177
}

; Function Attrs: noinline nounwind uwtable
define linkonce_odr dso_local void @_ZNSt5dequeIP4nodeSaIS1_EED2Ev(%"class.std::deque"* nonnull align 8 dereferenceable(80) %0) unnamed_addr #6 comdat align 2 personality i8* bitcast (i32 (...)* @__gxx_personality_v0 to i8*) {
  %2 = alloca %"class.std::deque"*, align 8, !llfi_index !178
  %3 = alloca %"struct.std::_Deque_iterator", align 8, !llfi_index !179
  %4 = alloca %"struct.std::_Deque_iterator", align 8, !llfi_index !180
  %5 = alloca i8*, align 8, !llfi_index !181
  %6 = alloca i32, align 4, !llfi_index !182
  store %"class.std::deque"* %0, %"class.std::deque"** %2, align 8, !llfi_index !183
  %7 = load %"class.std::deque"*, %"class.std::deque"** %2, align 8, !llfi_index !184
  call void @_ZNSt5dequeIP4nodeSaIS1_EE5beginEv(%"struct.std::_Deque_iterator"* sret(%"struct.std::_Deque_iterator") align 8 %3, %"class.std::deque"* nonnull align 8 dereferenceable(80) %7) #2, !llfi_index !185
  call void @_ZNSt5dequeIP4nodeSaIS1_EE3endEv(%"struct.std::_Deque_iterator"* sret(%"struct.std::_Deque_iterator") align 8 %4, %"class.std::deque"* nonnull align 8 dereferenceable(80) %7) #2, !llfi_index !186
  %8 = bitcast %"class.std::deque"* %7 to %"class.std::_Deque_base"*, !llfi_index !187
  %9 = call nonnull align 1 dereferenceable(1) %"class.std::ios_base::Init"* @_ZNSt11_Deque_baseIP4nodeSaIS1_EE19_M_get_Tp_allocatorEv(%"class.std::_Deque_base"* nonnull align 8 dereferenceable(80) %8) #2, !llfi_index !188
  invoke void @_ZNSt5dequeIP4nodeSaIS1_EE15_M_destroy_dataESt15_Deque_iteratorIS1_RS1_PS1_ES7_RKS2_(%"class.std::deque"* nonnull align 8 dereferenceable(80) %7, %"struct.std::_Deque_iterator"* %3, %"struct.std::_Deque_iterator"* %4, %"class.std::ios_base::Init"* nonnull align 1 dereferenceable(1) %9)
          to label %10 unwind label %12, !llfi_index !189

10:                                               ; preds = %1
  %11 = bitcast %"class.std::deque"* %7 to %"class.std::_Deque_base"*, !llfi_index !190
  call void @_ZNSt11_Deque_baseIP4nodeSaIS1_EED2Ev(%"class.std::_Deque_base"* nonnull align 8 dereferenceable(80) %11) #2, !llfi_index !191
  ret void, !llfi_index !192

12:                                               ; preds = %1
  %13 = landingpad { i8*, i32 }
          catch i8* null, !llfi_index !193
  %14 = extractvalue { i8*, i32 } %13, 0, !llfi_index !194
  store i8* %14, i8** %5, align 8, !llfi_index !195
  %15 = extractvalue { i8*, i32 } %13, 1, !llfi_index !196
  store i32 %15, i32* %6, align 4, !llfi_index !197
  %16 = bitcast %"class.std::deque"* %7 to %"class.std::_Deque_base"*, !llfi_index !198
  call void @_ZNSt11_Deque_baseIP4nodeSaIS1_EED2Ev(%"class.std::_Deque_base"* nonnull align 8 dereferenceable(80) %16) #2, !llfi_index !199
  br label %17, !llfi_index !200

17:                                               ; preds = %12
  %18 = load i8*, i8** %5, align 8, !llfi_index !201
  call void @__clang_call_terminate(i8* %18) #13, !llfi_index !202
  unreachable, !llfi_index !203
}

; Function Attrs: mustprogress noinline nounwind uwtable
define linkonce_odr dso_local void @_ZNSt5dequeIP4nodeSaIS1_EE5beginEv(%"struct.std::_Deque_iterator"* noalias sret(%"struct.std::_Deque_iterator") align 8 %0, %"class.std::deque"* nonnull align 8 dereferenceable(80) %1) #5 comdat align 2 {
  %3 = alloca i8*, align 8, !llfi_index !204
  %4 = alloca %"class.std::deque"*, align 8, !llfi_index !205
  %5 = bitcast %"struct.std::_Deque_iterator"* %0 to i8*, !llfi_index !206
  store i8* %5, i8** %3, align 8, !llfi_index !207
  store %"class.std::deque"* %1, %"class.std::deque"** %4, align 8, !llfi_index !208
  %6 = load %"class.std::deque"*, %"class.std::deque"** %4, align 8, !llfi_index !209
  %7 = bitcast %"class.std::deque"* %6 to %"class.std::_Deque_base"*, !llfi_index !210
  %8 = getelementptr inbounds %"class.std::_Deque_base", %"class.std::_Deque_base"* %7, i32 0, i32 0, !llfi_index !211
  %9 = getelementptr inbounds %"struct.std::_Deque_base<node *, std::allocator<node *>>::_Deque_impl", %"struct.std::_Deque_base<node *, std::allocator<node *>>::_Deque_impl"* %8, i32 0, i32 2, !llfi_index !212
  call void @_ZNSt15_Deque_iteratorIP4nodeRS1_PS1_EC2ERKS4_(%"struct.std::_Deque_iterator"* nonnull align 8 dereferenceable(32) %0, %"struct.std::_Deque_iterator"* nonnull align 8 dereferenceable(32) %9) #2, !llfi_index !213
  ret void, !llfi_index !214
}

; Function Attrs: mustprogress noinline nounwind uwtable
define linkonce_odr dso_local void @_ZNSt5dequeIP4nodeSaIS1_EE3endEv(%"struct.std::_Deque_iterator"* noalias sret(%"struct.std::_Deque_iterator") align 8 %0, %"class.std::deque"* nonnull align 8 dereferenceable(80) %1) #5 comdat align 2 {
  %3 = alloca i8*, align 8, !llfi_index !215
  %4 = alloca %"class.std::deque"*, align 8, !llfi_index !216
  %5 = bitcast %"struct.std::_Deque_iterator"* %0 to i8*, !llfi_index !217
  store i8* %5, i8** %3, align 8, !llfi_index !218
  store %"class.std::deque"* %1, %"class.std::deque"** %4, align 8, !llfi_index !219
  %6 = load %"class.std::deque"*, %"class.std::deque"** %4, align 8, !llfi_index !220
  %7 = bitcast %"class.std::deque"* %6 to %"class.std::_Deque_base"*, !llfi_index !221
  %8 = getelementptr inbounds %"class.std::_Deque_base", %"class.std::_Deque_base"* %7, i32 0, i32 0, !llfi_index !222
  %9 = getelementptr inbounds %"struct.std::_Deque_base<node *, std::allocator<node *>>::_Deque_impl", %"struct.std::_Deque_base<node *, std::allocator<node *>>::_Deque_impl"* %8, i32 0, i32 3, !llfi_index !223
  call void @_ZNSt15_Deque_iteratorIP4nodeRS1_PS1_EC2ERKS4_(%"struct.std::_Deque_iterator"* nonnull align 8 dereferenceable(32) %0, %"struct.std::_Deque_iterator"* nonnull align 8 dereferenceable(32) %9) #2, !llfi_index !224
  ret void, !llfi_index !225
}

; Function Attrs: mustprogress noinline nounwind uwtable
define linkonce_odr dso_local nonnull align 1 dereferenceable(1) %"class.std::ios_base::Init"* @_ZNSt11_Deque_baseIP4nodeSaIS1_EE19_M_get_Tp_allocatorEv(%"class.std::_Deque_base"* nonnull align 8 dereferenceable(80) %0) #5 comdat align 2 {
  %2 = alloca %"class.std::_Deque_base"*, align 8, !llfi_index !226
  store %"class.std::_Deque_base"* %0, %"class.std::_Deque_base"** %2, align 8, !llfi_index !227
  %3 = load %"class.std::_Deque_base"*, %"class.std::_Deque_base"** %2, align 8, !llfi_index !228
  %4 = getelementptr inbounds %"class.std::_Deque_base", %"class.std::_Deque_base"* %3, i32 0, i32 0, !llfi_index !229
  %5 = bitcast %"struct.std::_Deque_base<node *, std::allocator<node *>>::_Deque_impl"* %4 to %"class.std::ios_base::Init"*, !llfi_index !230
  ret %"class.std::ios_base::Init"* %5, !llfi_index !231
}

; Function Attrs: mustprogress noinline nounwind uwtable
define linkonce_odr dso_local void @_ZNSt5dequeIP4nodeSaIS1_EE15_M_destroy_dataESt15_Deque_iteratorIS1_RS1_PS1_ES7_RKS2_(%"class.std::deque"* nonnull align 8 dereferenceable(80) %0, %"struct.std::_Deque_iterator"* %1, %"struct.std::_Deque_iterator"* %2, %"class.std::ios_base::Init"* nonnull align 1 dereferenceable(1) %3) #5 comdat align 2 {
  %5 = alloca %"class.std::deque"*, align 8, !llfi_index !232
  %6 = alloca %"class.std::ios_base::Init"*, align 8, !llfi_index !233
  store %"class.std::deque"* %0, %"class.std::deque"** %5, align 8, !llfi_index !234
  store %"class.std::ios_base::Init"* %3, %"class.std::ios_base::Init"** %6, align 8, !llfi_index !235
  %7 = load %"class.std::deque"*, %"class.std::deque"** %5, align 8, !llfi_index !236
  ret void, !llfi_index !237
}

; Function Attrs: noinline nounwind uwtable
define linkonce_odr dso_local void @_ZNSt11_Deque_baseIP4nodeSaIS1_EED2Ev(%"class.std::_Deque_base"* nonnull align 8 dereferenceable(80) %0) unnamed_addr #6 comdat align 2 {
  %2 = alloca %"class.std::_Deque_base"*, align 8, !llfi_index !238
  store %"class.std::_Deque_base"* %0, %"class.std::_Deque_base"** %2, align 8, !llfi_index !239
  %3 = load %"class.std::_Deque_base"*, %"class.std::_Deque_base"** %2, align 8, !llfi_index !240
  %4 = getelementptr inbounds %"class.std::_Deque_base", %"class.std::_Deque_base"* %3, i32 0, i32 0, !llfi_index !241
  %5 = getelementptr inbounds %"struct.std::_Deque_base<node *, std::allocator<node *>>::_Deque_impl", %"struct.std::_Deque_base<node *, std::allocator<node *>>::_Deque_impl"* %4, i32 0, i32 0, !llfi_index !242
  %6 = load %struct.node***, %struct.node**** %5, align 8, !llfi_index !243
  %7 = icmp ne %struct.node*** %6, null, !llfi_index !244
  br i1 %7, label %8, label %24, !llfi_index !245

8:                                                ; preds = %1
  %9 = getelementptr inbounds %"class.std::_Deque_base", %"class.std::_Deque_base"* %3, i32 0, i32 0, !llfi_index !246
  %10 = getelementptr inbounds %"struct.std::_Deque_base<node *, std::allocator<node *>>::_Deque_impl", %"struct.std::_Deque_base<node *, std::allocator<node *>>::_Deque_impl"* %9, i32 0, i32 2, !llfi_index !247
  %11 = getelementptr inbounds %"struct.std::_Deque_iterator", %"struct.std::_Deque_iterator"* %10, i32 0, i32 3, !llfi_index !248
  %12 = load %struct.node***, %struct.node**** %11, align 8, !llfi_index !249
  %13 = getelementptr inbounds %"class.std::_Deque_base", %"class.std::_Deque_base"* %3, i32 0, i32 0, !llfi_index !250
  %14 = getelementptr inbounds %"struct.std::_Deque_base<node *, std::allocator<node *>>::_Deque_impl", %"struct.std::_Deque_base<node *, std::allocator<node *>>::_Deque_impl"* %13, i32 0, i32 3, !llfi_index !251
  %15 = getelementptr inbounds %"struct.std::_Deque_iterator", %"struct.std::_Deque_iterator"* %14, i32 0, i32 3, !llfi_index !252
  %16 = load %struct.node***, %struct.node**** %15, align 8, !llfi_index !253
  %17 = getelementptr inbounds %struct.node**, %struct.node*** %16, i64 1, !llfi_index !254
  call void @_ZNSt11_Deque_baseIP4nodeSaIS1_EE16_M_destroy_nodesEPPS1_S5_(%"class.std::_Deque_base"* nonnull align 8 dereferenceable(80) %3, %struct.node*** %12, %struct.node*** %17) #2, !llfi_index !255
  %18 = getelementptr inbounds %"class.std::_Deque_base", %"class.std::_Deque_base"* %3, i32 0, i32 0, !llfi_index !256
  %19 = getelementptr inbounds %"struct.std::_Deque_base<node *, std::allocator<node *>>::_Deque_impl", %"struct.std::_Deque_base<node *, std::allocator<node *>>::_Deque_impl"* %18, i32 0, i32 0, !llfi_index !257
  %20 = load %struct.node***, %struct.node**** %19, align 8, !llfi_index !258
  %21 = getelementptr inbounds %"class.std::_Deque_base", %"class.std::_Deque_base"* %3, i32 0, i32 0, !llfi_index !259
  %22 = getelementptr inbounds %"struct.std::_Deque_base<node *, std::allocator<node *>>::_Deque_impl", %"struct.std::_Deque_base<node *, std::allocator<node *>>::_Deque_impl"* %21, i32 0, i32 1, !llfi_index !260
  %23 = load i64, i64* %22, align 8, !llfi_index !261
  call void @_ZNSt11_Deque_baseIP4nodeSaIS1_EE17_M_deallocate_mapEPPS1_m(%"class.std::_Deque_base"* nonnull align 8 dereferenceable(80) %3, %struct.node*** %20, i64 %23) #2, !llfi_index !262
  br label %24, !llfi_index !263

24:                                               ; preds = %8, %1
  %25 = getelementptr inbounds %"class.std::_Deque_base", %"class.std::_Deque_base"* %3, i32 0, i32 0, !llfi_index !264
  call void @_ZNSt11_Deque_baseIP4nodeSaIS1_EE11_Deque_implD2Ev(%"struct.std::_Deque_base<node *, std::allocator<node *>>::_Deque_impl"* nonnull align 8 dereferenceable(80) %25) #2, !llfi_index !265
  ret void, !llfi_index !266
}

; Function Attrs: noinline noreturn nounwind
define linkonce_odr hidden void @__clang_call_terminate(i8* %0) #7 comdat {
  %2 = call i8* @__cxa_begin_catch(i8* %0) #2, !llfi_index !267
  call void @_ZSt9terminatev() #13, !llfi_index !268
  unreachable, !llfi_index !269
}

declare dso_local i8* @__cxa_begin_catch(i8*)

declare dso_local void @_ZSt9terminatev()

; Function Attrs: mustprogress noinline nounwind uwtable
define linkonce_odr dso_local void @_ZNSt11_Deque_baseIP4nodeSaIS1_EE16_M_destroy_nodesEPPS1_S5_(%"class.std::_Deque_base"* nonnull align 8 dereferenceable(80) %0, %struct.node*** %1, %struct.node*** %2) #5 comdat align 2 {
  %4 = alloca %"class.std::_Deque_base"*, align 8, !llfi_index !270
  %5 = alloca %struct.node***, align 8, !llfi_index !271
  %6 = alloca %struct.node***, align 8, !llfi_index !272
  %7 = alloca %struct.node***, align 8, !llfi_index !273
  store %"class.std::_Deque_base"* %0, %"class.std::_Deque_base"** %4, align 8, !llfi_index !274
  store %struct.node*** %1, %struct.node**** %5, align 8, !llfi_index !275
  store %struct.node*** %2, %struct.node**** %6, align 8, !llfi_index !276
  %8 = load %"class.std::_Deque_base"*, %"class.std::_Deque_base"** %4, align 8, !llfi_index !277
  %9 = load %struct.node***, %struct.node**** %5, align 8, !llfi_index !278
  store %struct.node*** %9, %struct.node**** %7, align 8, !llfi_index !279
  br label %10, !llfi_index !280

10:                                               ; preds = %17, %3
  %11 = load %struct.node***, %struct.node**** %7, align 8, !llfi_index !281
  %12 = load %struct.node***, %struct.node**** %6, align 8, !llfi_index !282
  %13 = icmp ult %struct.node*** %11, %12, !llfi_index !283
  br i1 %13, label %14, label %20, !llfi_index !284

14:                                               ; preds = %10
  %15 = load %struct.node***, %struct.node**** %7, align 8, !llfi_index !285
  %16 = load %struct.node**, %struct.node*** %15, align 8, !llfi_index !286
  call void @_ZNSt11_Deque_baseIP4nodeSaIS1_EE18_M_deallocate_nodeEPS1_(%"class.std::_Deque_base"* nonnull align 8 dereferenceable(80) %8, %struct.node** %16) #2, !llfi_index !287
  br label %17, !llfi_index !288

17:                                               ; preds = %14
  %18 = load %struct.node***, %struct.node**** %7, align 8, !llfi_index !289
  %19 = getelementptr inbounds %struct.node**, %struct.node*** %18, i32 1, !llfi_index !290
  store %struct.node*** %19, %struct.node**** %7, align 8, !llfi_index !291
  br label %10, !llvm.loop !292, !llfi_index !293

20:                                               ; preds = %10
  ret void, !llfi_index !294
}

; Function Attrs: mustprogress noinline nounwind uwtable
define linkonce_odr dso_local void @_ZNSt11_Deque_baseIP4nodeSaIS1_EE17_M_deallocate_mapEPPS1_m(%"class.std::_Deque_base"* nonnull align 8 dereferenceable(80) %0, %struct.node*** %1, i64 %2) #5 comdat align 2 personality i8* bitcast (i32 (...)* @__gxx_personality_v0 to i8*) {
  %4 = alloca %"class.std::_Deque_base"*, align 8, !llfi_index !295
  %5 = alloca %struct.node***, align 8, !llfi_index !296
  %6 = alloca i64, align 8, !llfi_index !297
  %7 = alloca %"class.std::ios_base::Init", align 1, !llfi_index !298
  %8 = alloca i8*, align 8, !llfi_index !299
  %9 = alloca i32, align 4, !llfi_index !300
  store %"class.std::_Deque_base"* %0, %"class.std::_Deque_base"** %4, align 8, !llfi_index !301
  store %struct.node*** %1, %struct.node**** %5, align 8, !llfi_index !302
  store i64 %2, i64* %6, align 8, !llfi_index !303
  %10 = load %"class.std::_Deque_base"*, %"class.std::_Deque_base"** %4, align 8, !llfi_index !304
  call void @_ZNKSt11_Deque_baseIP4nodeSaIS1_EE20_M_get_map_allocatorEv(%"class.std::ios_base::Init"* sret(%"class.std::ios_base::Init") align 1 %7, %"class.std::_Deque_base"* nonnull align 8 dereferenceable(80) %10) #2, !llfi_index !305
  %11 = load %struct.node***, %struct.node**** %5, align 8, !llfi_index !306
  %12 = load i64, i64* %6, align 8, !llfi_index !307
  invoke void @_ZNSt16allocator_traitsISaIPP4nodeEE10deallocateERS3_PS2_m(%"class.std::ios_base::Init"* nonnull align 1 dereferenceable(1) %7, %struct.node*** %11, i64 %12)
          to label %13 unwind label %14, !llfi_index !308

13:                                               ; preds = %3
  call void @_ZNSaIPP4nodeED2Ev(%"class.std::ios_base::Init"* nonnull align 1 dereferenceable(1) %7) #2, !llfi_index !309
  ret void, !llfi_index !310

14:                                               ; preds = %3
  %15 = landingpad { i8*, i32 }
          catch i8* null, !llfi_index !311
  %16 = extractvalue { i8*, i32 } %15, 0, !llfi_index !312
  store i8* %16, i8** %8, align 8, !llfi_index !313
  %17 = extractvalue { i8*, i32 } %15, 1, !llfi_index !314
  store i32 %17, i32* %9, align 4, !llfi_index !315
  call void @_ZNSaIPP4nodeED2Ev(%"class.std::ios_base::Init"* nonnull align 1 dereferenceable(1) %7) #2, !llfi_index !316
  br label %18, !llfi_index !317

18:                                               ; preds = %14
  %19 = load i8*, i8** %8, align 8, !llfi_index !318
  call void @__clang_call_terminate(i8* %19) #13, !llfi_index !319
  unreachable, !llfi_index !320
}

; Function Attrs: noinline nounwind uwtable
define linkonce_odr dso_local void @_ZNSt11_Deque_baseIP4nodeSaIS1_EE11_Deque_implD2Ev(%"struct.std::_Deque_base<node *, std::allocator<node *>>::_Deque_impl"* nonnull align 8 dereferenceable(80) %0) unnamed_addr #6 comdat align 2 {
  %2 = alloca %"struct.std::_Deque_base<node *, std::allocator<node *>>::_Deque_impl"*, align 8, !llfi_index !321
  store %"struct.std::_Deque_base<node *, std::allocator<node *>>::_Deque_impl"* %0, %"struct.std::_Deque_base<node *, std::allocator<node *>>::_Deque_impl"** %2, align 8, !llfi_index !322
  %3 = load %"struct.std::_Deque_base<node *, std::allocator<node *>>::_Deque_impl"*, %"struct.std::_Deque_base<node *, std::allocator<node *>>::_Deque_impl"** %2, align 8, !llfi_index !323
  %4 = bitcast %"struct.std::_Deque_base<node *, std::allocator<node *>>::_Deque_impl"* %3 to %"class.std::ios_base::Init"*, !llfi_index !324
  call void @_ZNSaIP4nodeED2Ev(%"class.std::ios_base::Init"* nonnull align 1 dereferenceable(1) %4) #2, !llfi_index !325
  ret void, !llfi_index !326
}

; Function Attrs: noinline nounwind uwtable
define linkonce_odr dso_local void @_ZNSaIP4nodeED2Ev(%"class.std::ios_base::Init"* nonnull align 1 dereferenceable(1) %0) unnamed_addr #6 comdat align 2 {
  %2 = alloca %"class.std::ios_base::Init"*, align 8, !llfi_index !327
  store %"class.std::ios_base::Init"* %0, %"class.std::ios_base::Init"** %2, align 8, !llfi_index !328
  %3 = load %"class.std::ios_base::Init"*, %"class.std::ios_base::Init"** %2, align 8, !llfi_index !329
  %4 = bitcast %"class.std::ios_base::Init"* %3 to %"class.std::ios_base::Init"*, !llfi_index !330
  call void @_ZN9__gnu_cxx13new_allocatorIP4nodeED2Ev(%"class.std::ios_base::Init"* nonnull align 1 dereferenceable(1) %4) #2, !llfi_index !331
  ret void, !llfi_index !332
}

; Function Attrs: noinline nounwind uwtable
define linkonce_odr dso_local void @_ZN9__gnu_cxx13new_allocatorIP4nodeED2Ev(%"class.std::ios_base::Init"* nonnull align 1 dereferenceable(1) %0) unnamed_addr #6 comdat align 2 {
  %2 = alloca %"class.std::ios_base::Init"*, align 8, !llfi_index !333
  store %"class.std::ios_base::Init"* %0, %"class.std::ios_base::Init"** %2, align 8, !llfi_index !334
  %3 = load %"class.std::ios_base::Init"*, %"class.std::ios_base::Init"** %2, align 8, !llfi_index !335
  ret void, !llfi_index !336
}

; Function Attrs: mustprogress noinline nounwind uwtable
define linkonce_odr dso_local void @_ZNKSt11_Deque_baseIP4nodeSaIS1_EE20_M_get_map_allocatorEv(%"class.std::ios_base::Init"* noalias sret(%"class.std::ios_base::Init") align 1 %0, %"class.std::_Deque_base"* nonnull align 8 dereferenceable(80) %1) #5 comdat align 2 {
  %3 = alloca i8*, align 8, !llfi_index !337
  %4 = alloca %"class.std::_Deque_base"*, align 8, !llfi_index !338
  %5 = bitcast %"class.std::ios_base::Init"* %0 to i8*, !llfi_index !339
  store i8* %5, i8** %3, align 8, !llfi_index !340
  store %"class.std::_Deque_base"* %1, %"class.std::_Deque_base"** %4, align 8, !llfi_index !341
  %6 = load %"class.std::_Deque_base"*, %"class.std::_Deque_base"** %4, align 8, !llfi_index !342
  %7 = call nonnull align 1 dereferenceable(1) %"class.std::ios_base::Init"* @_ZNKSt11_Deque_baseIP4nodeSaIS1_EE19_M_get_Tp_allocatorEv(%"class.std::_Deque_base"* nonnull align 8 dereferenceable(80) %6) #2, !llfi_index !343
  call void @_ZNSaIPP4nodeEC2IS0_EERKSaIT_E(%"class.std::ios_base::Init"* nonnull align 1 dereferenceable(1) %0, %"class.std::ios_base::Init"* nonnull align 1 dereferenceable(1) %7) #2, !llfi_index !344
  ret void, !llfi_index !345
}

; Function Attrs: mustprogress noinline uwtable
define linkonce_odr dso_local void @_ZNSt16allocator_traitsISaIPP4nodeEE10deallocateERS3_PS2_m(%"class.std::ios_base::Init"* nonnull align 1 dereferenceable(1) %0, %struct.node*** %1, i64 %2) #4 comdat align 2 {
  %4 = alloca %"class.std::ios_base::Init"*, align 8, !llfi_index !346
  %5 = alloca %struct.node***, align 8, !llfi_index !347
  %6 = alloca i64, align 8, !llfi_index !348
  store %"class.std::ios_base::Init"* %0, %"class.std::ios_base::Init"** %4, align 8, !llfi_index !349
  store %struct.node*** %1, %struct.node**** %5, align 8, !llfi_index !350
  store i64 %2, i64* %6, align 8, !llfi_index !351
  %7 = load %"class.std::ios_base::Init"*, %"class.std::ios_base::Init"** %4, align 8, !llfi_index !352
  %8 = bitcast %"class.std::ios_base::Init"* %7 to %"class.std::ios_base::Init"*, !llfi_index !353
  %9 = load %struct.node***, %struct.node**** %5, align 8, !llfi_index !354
  %10 = load i64, i64* %6, align 8, !llfi_index !355
  call void @_ZN9__gnu_cxx13new_allocatorIPP4nodeE10deallocateEPS3_m(%"class.std::ios_base::Init"* nonnull align 1 dereferenceable(1) %8, %struct.node*** %9, i64 %10), !llfi_index !356
  ret void, !llfi_index !357
}

; Function Attrs: noinline nounwind uwtable
define linkonce_odr dso_local void @_ZNSaIPP4nodeED2Ev(%"class.std::ios_base::Init"* nonnull align 1 dereferenceable(1) %0) unnamed_addr #6 comdat align 2 {
  %2 = alloca %"class.std::ios_base::Init"*, align 8, !llfi_index !358
  store %"class.std::ios_base::Init"* %0, %"class.std::ios_base::Init"** %2, align 8, !llfi_index !359
  %3 = load %"class.std::ios_base::Init"*, %"class.std::ios_base::Init"** %2, align 8, !llfi_index !360
  %4 = bitcast %"class.std::ios_base::Init"* %3 to %"class.std::ios_base::Init"*, !llfi_index !361
  call void @_ZN9__gnu_cxx13new_allocatorIPP4nodeED2Ev(%"class.std::ios_base::Init"* nonnull align 1 dereferenceable(1) %4) #2, !llfi_index !362
  ret void, !llfi_index !363
}

; Function Attrs: noinline nounwind uwtable
define linkonce_odr dso_local void @_ZN9__gnu_cxx13new_allocatorIPP4nodeED2Ev(%"class.std::ios_base::Init"* nonnull align 1 dereferenceable(1) %0) unnamed_addr #6 comdat align 2 {
  %2 = alloca %"class.std::ios_base::Init"*, align 8, !llfi_index !364
  store %"class.std::ios_base::Init"* %0, %"class.std::ios_base::Init"** %2, align 8, !llfi_index !365
  %3 = load %"class.std::ios_base::Init"*, %"class.std::ios_base::Init"** %2, align 8, !llfi_index !366
  ret void, !llfi_index !367
}

; Function Attrs: mustprogress noinline nounwind uwtable
define linkonce_odr dso_local void @_ZN9__gnu_cxx13new_allocatorIPP4nodeE10deallocateEPS3_m(%"class.std::ios_base::Init"* nonnull align 1 dereferenceable(1) %0, %struct.node*** %1, i64 %2) #5 comdat align 2 {
  %4 = alloca %"class.std::ios_base::Init"*, align 8, !llfi_index !368
  %5 = alloca %struct.node***, align 8, !llfi_index !369
  %6 = alloca i64, align 8, !llfi_index !370
  store %"class.std::ios_base::Init"* %0, %"class.std::ios_base::Init"** %4, align 8, !llfi_index !371
  store %struct.node*** %1, %struct.node**** %5, align 8, !llfi_index !372
  store i64 %2, i64* %6, align 8, !llfi_index !373
  %7 = load %"class.std::ios_base::Init"*, %"class.std::ios_base::Init"** %4, align 8, !llfi_index !374
  %8 = load %struct.node***, %struct.node**** %5, align 8, !llfi_index !375
  %9 = bitcast %struct.node*** %8 to i8*, !llfi_index !376
  call void @_ZdlPv(i8* %9) #2, !llfi_index !377
  ret void, !llfi_index !378
}

; Function Attrs: nobuiltin nounwind
declare dso_local void @_ZdlPv(i8*) #8

; Function Attrs: mustprogress noinline nounwind uwtable
define linkonce_odr dso_local nonnull align 1 dereferenceable(1) %"class.std::ios_base::Init"* @_ZNKSt11_Deque_baseIP4nodeSaIS1_EE19_M_get_Tp_allocatorEv(%"class.std::_Deque_base"* nonnull align 8 dereferenceable(80) %0) #5 comdat align 2 {
  %2 = alloca %"class.std::_Deque_base"*, align 8, !llfi_index !379
  store %"class.std::_Deque_base"* %0, %"class.std::_Deque_base"** %2, align 8, !llfi_index !380
  %3 = load %"class.std::_Deque_base"*, %"class.std::_Deque_base"** %2, align 8, !llfi_index !381
  %4 = getelementptr inbounds %"class.std::_Deque_base", %"class.std::_Deque_base"* %3, i32 0, i32 0, !llfi_index !382
  %5 = bitcast %"struct.std::_Deque_base<node *, std::allocator<node *>>::_Deque_impl"* %4 to %"class.std::ios_base::Init"*, !llfi_index !383
  ret %"class.std::ios_base::Init"* %5, !llfi_index !384
}

; Function Attrs: noinline nounwind uwtable
define linkonce_odr dso_local void @_ZNSaIPP4nodeEC2IS0_EERKSaIT_E(%"class.std::ios_base::Init"* nonnull align 1 dereferenceable(1) %0, %"class.std::ios_base::Init"* nonnull align 1 dereferenceable(1) %1) unnamed_addr #6 comdat align 2 {
  %3 = alloca %"class.std::ios_base::Init"*, align 8, !llfi_index !385
  %4 = alloca %"class.std::ios_base::Init"*, align 8, !llfi_index !386
  store %"class.std::ios_base::Init"* %0, %"class.std::ios_base::Init"** %3, align 8, !llfi_index !387
  store %"class.std::ios_base::Init"* %1, %"class.std::ios_base::Init"** %4, align 8, !llfi_index !388
  %5 = load %"class.std::ios_base::Init"*, %"class.std::ios_base::Init"** %3, align 8, !llfi_index !389
  %6 = bitcast %"class.std::ios_base::Init"* %5 to %"class.std::ios_base::Init"*, !llfi_index !390
  call void @_ZN9__gnu_cxx13new_allocatorIPP4nodeEC2Ev(%"class.std::ios_base::Init"* nonnull align 1 dereferenceable(1) %6) #2, !llfi_index !391
  ret void, !llfi_index !392
}

; Function Attrs: noinline nounwind uwtable
define linkonce_odr dso_local void @_ZN9__gnu_cxx13new_allocatorIPP4nodeEC2Ev(%"class.std::ios_base::Init"* nonnull align 1 dereferenceable(1) %0) unnamed_addr #6 comdat align 2 {
  %2 = alloca %"class.std::ios_base::Init"*, align 8, !llfi_index !393
  store %"class.std::ios_base::Init"* %0, %"class.std::ios_base::Init"** %2, align 8, !llfi_index !394
  %3 = load %"class.std::ios_base::Init"*, %"class.std::ios_base::Init"** %2, align 8, !llfi_index !395
  ret void, !llfi_index !396
}

; Function Attrs: mustprogress noinline nounwind uwtable
define linkonce_odr dso_local void @_ZNSt11_Deque_baseIP4nodeSaIS1_EE18_M_deallocate_nodeEPS1_(%"class.std::_Deque_base"* nonnull align 8 dereferenceable(80) %0, %struct.node** %1) #5 comdat align 2 personality i8* bitcast (i32 (...)* @__gxx_personality_v0 to i8*) {
  %3 = alloca %"class.std::_Deque_base"*, align 8, !llfi_index !397
  %4 = alloca %struct.node**, align 8, !llfi_index !398
  store %"class.std::_Deque_base"* %0, %"class.std::_Deque_base"** %3, align 8, !llfi_index !399
  store %struct.node** %1, %struct.node*** %4, align 8, !llfi_index !400
  %5 = load %"class.std::_Deque_base"*, %"class.std::_Deque_base"** %3, align 8, !llfi_index !401
  %6 = getelementptr inbounds %"class.std::_Deque_base", %"class.std::_Deque_base"* %5, i32 0, i32 0, !llfi_index !402
  %7 = bitcast %"struct.std::_Deque_base<node *, std::allocator<node *>>::_Deque_impl"* %6 to %"class.std::ios_base::Init"*, !llfi_index !403
  %8 = load %struct.node**, %struct.node*** %4, align 8, !llfi_index !404
  %9 = invoke i64 @_ZSt16__deque_buf_sizem(i64 8)
          to label %10 unwind label %12, !llfi_index !405

10:                                               ; preds = %2
  invoke void @_ZNSt16allocator_traitsISaIP4nodeEE10deallocateERS2_PS1_m(%"class.std::ios_base::Init"* nonnull align 1 dereferenceable(1) %7, %struct.node** %8, i64 %9)
          to label %11 unwind label %12, !llfi_index !406

11:                                               ; preds = %10
  ret void, !llfi_index !407

12:                                               ; preds = %10, %2
  %13 = landingpad { i8*, i32 }
          catch i8* null, !llfi_index !408
  %14 = extractvalue { i8*, i32 } %13, 0, !llfi_index !409
  call void @__clang_call_terminate(i8* %14) #13, !llfi_index !410
  unreachable, !llfi_index !411
}

; Function Attrs: mustprogress noinline nounwind uwtable
define linkonce_odr dso_local i64 @_ZSt16__deque_buf_sizem(i64 %0) #5 comdat {
  %2 = alloca i64, align 8, !llfi_index !412
  store i64 %0, i64* %2, align 8, !llfi_index !413
  %3 = load i64, i64* %2, align 8, !llfi_index !414
  %4 = icmp ult i64 %3, 512, !llfi_index !415
  br i1 %4, label %5, label %8, !llfi_index !416

5:                                                ; preds = %1
  %6 = load i64, i64* %2, align 8, !llfi_index !417
  %7 = udiv i64 512, %6, !llfi_index !418
  br label %9, !llfi_index !419

8:                                                ; preds = %1
  br label %9, !llfi_index !420

9:                                                ; preds = %8, %5
  %10 = phi i64 [ %7, %5 ], [ 1, %8 ], !llfi_index !421
  ret i64 %10, !llfi_index !422
}

; Function Attrs: mustprogress noinline uwtable
define linkonce_odr dso_local void @_ZNSt16allocator_traitsISaIP4nodeEE10deallocateERS2_PS1_m(%"class.std::ios_base::Init"* nonnull align 1 dereferenceable(1) %0, %struct.node** %1, i64 %2) #4 comdat align 2 {
  %4 = alloca %"class.std::ios_base::Init"*, align 8, !llfi_index !423
  %5 = alloca %struct.node**, align 8, !llfi_index !424
  %6 = alloca i64, align 8, !llfi_index !425
  store %"class.std::ios_base::Init"* %0, %"class.std::ios_base::Init"** %4, align 8, !llfi_index !426
  store %struct.node** %1, %struct.node*** %5, align 8, !llfi_index !427
  store i64 %2, i64* %6, align 8, !llfi_index !428
  %7 = load %"class.std::ios_base::Init"*, %"class.std::ios_base::Init"** %4, align 8, !llfi_index !429
  %8 = bitcast %"class.std::ios_base::Init"* %7 to %"class.std::ios_base::Init"*, !llfi_index !430
  %9 = load %struct.node**, %struct.node*** %5, align 8, !llfi_index !431
  %10 = load i64, i64* %6, align 8, !llfi_index !432
  call void @_ZN9__gnu_cxx13new_allocatorIP4nodeE10deallocateEPS2_m(%"class.std::ios_base::Init"* nonnull align 1 dereferenceable(1) %8, %struct.node** %9, i64 %10), !llfi_index !433
  ret void, !llfi_index !434
}

; Function Attrs: mustprogress noinline nounwind uwtable
define linkonce_odr dso_local void @_ZN9__gnu_cxx13new_allocatorIP4nodeE10deallocateEPS2_m(%"class.std::ios_base::Init"* nonnull align 1 dereferenceable(1) %0, %struct.node** %1, i64 %2) #5 comdat align 2 {
  %4 = alloca %"class.std::ios_base::Init"*, align 8, !llfi_index !435
  %5 = alloca %struct.node**, align 8, !llfi_index !436
  %6 = alloca i64, align 8, !llfi_index !437
  store %"class.std::ios_base::Init"* %0, %"class.std::ios_base::Init"** %4, align 8, !llfi_index !438
  store %struct.node** %1, %struct.node*** %5, align 8, !llfi_index !439
  store i64 %2, i64* %6, align 8, !llfi_index !440
  %7 = load %"class.std::ios_base::Init"*, %"class.std::ios_base::Init"** %4, align 8, !llfi_index !441
  %8 = load %struct.node**, %struct.node*** %5, align 8, !llfi_index !442
  %9 = bitcast %struct.node** %8 to i8*, !llfi_index !443
  call void @_ZdlPv(i8* %9) #2, !llfi_index !444
  ret void, !llfi_index !445
}

; Function Attrs: noinline nounwind uwtable
define linkonce_odr dso_local void @_ZNSt15_Deque_iteratorIP4nodeRS1_PS1_EC2ERKS4_(%"struct.std::_Deque_iterator"* nonnull align 8 dereferenceable(32) %0, %"struct.std::_Deque_iterator"* nonnull align 8 dereferenceable(32) %1) unnamed_addr #6 comdat align 2 {
  %3 = alloca %"struct.std::_Deque_iterator"*, align 8, !llfi_index !446
  %4 = alloca %"struct.std::_Deque_iterator"*, align 8, !llfi_index !447
  store %"struct.std::_Deque_iterator"* %0, %"struct.std::_Deque_iterator"** %3, align 8, !llfi_index !448
  store %"struct.std::_Deque_iterator"* %1, %"struct.std::_Deque_iterator"** %4, align 8, !llfi_index !449
  %5 = load %"struct.std::_Deque_iterator"*, %"struct.std::_Deque_iterator"** %3, align 8, !llfi_index !450
  %6 = getelementptr inbounds %"struct.std::_Deque_iterator", %"struct.std::_Deque_iterator"* %5, i32 0, i32 0, !llfi_index !451
  %7 = load %"struct.std::_Deque_iterator"*, %"struct.std::_Deque_iterator"** %4, align 8, !llfi_index !452
  %8 = getelementptr inbounds %"struct.std::_Deque_iterator", %"struct.std::_Deque_iterator"* %7, i32 0, i32 0, !llfi_index !453
  %9 = load %struct.node**, %struct.node*** %8, align 8, !llfi_index !454
  store %struct.node** %9, %struct.node*** %6, align 8, !llfi_index !455
  %10 = getelementptr inbounds %"struct.std::_Deque_iterator", %"struct.std::_Deque_iterator"* %5, i32 0, i32 1, !llfi_index !456
  %11 = load %"struct.std::_Deque_iterator"*, %"struct.std::_Deque_iterator"** %4, align 8, !llfi_index !457
  %12 = getelementptr inbounds %"struct.std::_Deque_iterator", %"struct.std::_Deque_iterator"* %11, i32 0, i32 1, !llfi_index !458
  %13 = load %struct.node**, %struct.node*** %12, align 8, !llfi_index !459
  store %struct.node** %13, %struct.node*** %10, align 8, !llfi_index !460
  %14 = getelementptr inbounds %"struct.std::_Deque_iterator", %"struct.std::_Deque_iterator"* %5, i32 0, i32 2, !llfi_index !461
  %15 = load %"struct.std::_Deque_iterator"*, %"struct.std::_Deque_iterator"** %4, align 8, !llfi_index !462
  %16 = getelementptr inbounds %"struct.std::_Deque_iterator", %"struct.std::_Deque_iterator"* %15, i32 0, i32 2, !llfi_index !463
  %17 = load %struct.node**, %struct.node*** %16, align 8, !llfi_index !464
  store %struct.node** %17, %struct.node*** %14, align 8, !llfi_index !465
  %18 = getelementptr inbounds %"struct.std::_Deque_iterator", %"struct.std::_Deque_iterator"* %5, i32 0, i32 3, !llfi_index !466
  %19 = load %"struct.std::_Deque_iterator"*, %"struct.std::_Deque_iterator"** %4, align 8, !llfi_index !467
  %20 = getelementptr inbounds %"struct.std::_Deque_iterator", %"struct.std::_Deque_iterator"* %19, i32 0, i32 3, !llfi_index !468
  %21 = load %struct.node***, %struct.node**** %20, align 8, !llfi_index !469
  store %struct.node*** %21, %struct.node**** %18, align 8, !llfi_index !470
  ret void, !llfi_index !471
}

; Function Attrs: mustprogress noinline nounwind uwtable
define linkonce_odr dso_local void @_ZNSt5dequeIP4nodeSaIS1_EE9pop_frontEv(%"class.std::deque"* nonnull align 8 dereferenceable(80) %0) #5 comdat align 2 personality i8* bitcast (i32 (...)* @__gxx_personality_v0 to i8*) {
  %2 = alloca %"class.std::deque"*, align 8, !llfi_index !472
  store %"class.std::deque"* %0, %"class.std::deque"** %2, align 8, !llfi_index !473
  %3 = load %"class.std::deque"*, %"class.std::deque"** %2, align 8, !llfi_index !474
  %4 = bitcast %"class.std::deque"* %3 to %"class.std::_Deque_base"*, !llfi_index !475
  %5 = getelementptr inbounds %"class.std::_Deque_base", %"class.std::_Deque_base"* %4, i32 0, i32 0, !llfi_index !476
  %6 = getelementptr inbounds %"struct.std::_Deque_base<node *, std::allocator<node *>>::_Deque_impl", %"struct.std::_Deque_base<node *, std::allocator<node *>>::_Deque_impl"* %5, i32 0, i32 2, !llfi_index !477
  %7 = getelementptr inbounds %"struct.std::_Deque_iterator", %"struct.std::_Deque_iterator"* %6, i32 0, i32 0, !llfi_index !478
  %8 = load %struct.node**, %struct.node*** %7, align 8, !llfi_index !479
  %9 = bitcast %"class.std::deque"* %3 to %"class.std::_Deque_base"*, !llfi_index !480
  %10 = getelementptr inbounds %"class.std::_Deque_base", %"class.std::_Deque_base"* %9, i32 0, i32 0, !llfi_index !481
  %11 = getelementptr inbounds %"struct.std::_Deque_base<node *, std::allocator<node *>>::_Deque_impl", %"struct.std::_Deque_base<node *, std::allocator<node *>>::_Deque_impl"* %10, i32 0, i32 2, !llfi_index !482
  %12 = getelementptr inbounds %"struct.std::_Deque_iterator", %"struct.std::_Deque_iterator"* %11, i32 0, i32 2, !llfi_index !483
  %13 = load %struct.node**, %struct.node*** %12, align 8, !llfi_index !484
  %14 = getelementptr inbounds %struct.node*, %struct.node** %13, i64 -1, !llfi_index !485
  %15 = icmp ne %struct.node** %8, %14, !llfi_index !486
  br i1 %15, label %16, label %31, !llfi_index !487

16:                                               ; preds = %1
  %17 = bitcast %"class.std::deque"* %3 to %"class.std::_Deque_base"*, !llfi_index !488
  %18 = getelementptr inbounds %"class.std::_Deque_base", %"class.std::_Deque_base"* %17, i32 0, i32 0, !llfi_index !489
  %19 = bitcast %"struct.std::_Deque_base<node *, std::allocator<node *>>::_Deque_impl"* %18 to %"class.std::ios_base::Init"*, !llfi_index !490
  %20 = bitcast %"class.std::deque"* %3 to %"class.std::_Deque_base"*, !llfi_index !491
  %21 = getelementptr inbounds %"class.std::_Deque_base", %"class.std::_Deque_base"* %20, i32 0, i32 0, !llfi_index !492
  %22 = getelementptr inbounds %"struct.std::_Deque_base<node *, std::allocator<node *>>::_Deque_impl", %"struct.std::_Deque_base<node *, std::allocator<node *>>::_Deque_impl"* %21, i32 0, i32 2, !llfi_index !493
  %23 = getelementptr inbounds %"struct.std::_Deque_iterator", %"struct.std::_Deque_iterator"* %22, i32 0, i32 0, !llfi_index !494
  %24 = load %struct.node**, %struct.node*** %23, align 8, !llfi_index !495
  call void @_ZNSt16allocator_traitsISaIP4nodeEE7destroyIS1_EEvRS2_PT_(%"class.std::ios_base::Init"* nonnull align 1 dereferenceable(1) %19, %struct.node** %24) #2, !llfi_index !496
  %25 = bitcast %"class.std::deque"* %3 to %"class.std::_Deque_base"*, !llfi_index !497
  %26 = getelementptr inbounds %"class.std::_Deque_base", %"class.std::_Deque_base"* %25, i32 0, i32 0, !llfi_index !498
  %27 = getelementptr inbounds %"struct.std::_Deque_base<node *, std::allocator<node *>>::_Deque_impl", %"struct.std::_Deque_base<node *, std::allocator<node *>>::_Deque_impl"* %26, i32 0, i32 2, !llfi_index !499
  %28 = getelementptr inbounds %"struct.std::_Deque_iterator", %"struct.std::_Deque_iterator"* %27, i32 0, i32 0, !llfi_index !500
  %29 = load %struct.node**, %struct.node*** %28, align 8, !llfi_index !501
  %30 = getelementptr inbounds %struct.node*, %struct.node** %29, i32 1, !llfi_index !502
  store %struct.node** %30, %struct.node*** %28, align 8, !llfi_index !503
  br label %33, !llfi_index !504

31:                                               ; preds = %1
  invoke void @_ZNSt5dequeIP4nodeSaIS1_EE16_M_pop_front_auxEv(%"class.std::deque"* nonnull align 8 dereferenceable(80) %3)
          to label %32 unwind label %34, !llfi_index !505

32:                                               ; preds = %31
  br label %33, !llfi_index !506

33:                                               ; preds = %32, %16
  ret void, !llfi_index !507

34:                                               ; preds = %31
  %35 = landingpad { i8*, i32 }
          catch i8* null, !llfi_index !508
  %36 = extractvalue { i8*, i32 } %35, 0, !llfi_index !509
  call void @__clang_call_terminate(i8* %36) #13, !llfi_index !510
  unreachable, !llfi_index !511
}

; Function Attrs: mustprogress noinline nounwind uwtable
define linkonce_odr dso_local void @_ZNSt16allocator_traitsISaIP4nodeEE7destroyIS1_EEvRS2_PT_(%"class.std::ios_base::Init"* nonnull align 1 dereferenceable(1) %0, %struct.node** %1) #5 comdat align 2 {
  %3 = alloca %"class.std::ios_base::Init"*, align 8, !llfi_index !512
  %4 = alloca %struct.node**, align 8, !llfi_index !513
  store %"class.std::ios_base::Init"* %0, %"class.std::ios_base::Init"** %3, align 8, !llfi_index !514
  store %struct.node** %1, %struct.node*** %4, align 8, !llfi_index !515
  %5 = load %"class.std::ios_base::Init"*, %"class.std::ios_base::Init"** %3, align 8, !llfi_index !516
  %6 = bitcast %"class.std::ios_base::Init"* %5 to %"class.std::ios_base::Init"*, !llfi_index !517
  %7 = load %struct.node**, %struct.node*** %4, align 8, !llfi_index !518
  call void @_ZN9__gnu_cxx13new_allocatorIP4nodeE7destroyIS2_EEvPT_(%"class.std::ios_base::Init"* nonnull align 1 dereferenceable(1) %6, %struct.node** %7) #2, !llfi_index !519
  ret void, !llfi_index !520
}

; Function Attrs: mustprogress noinline nounwind uwtable
define linkonce_odr dso_local void @_ZNSt5dequeIP4nodeSaIS1_EE16_M_pop_front_auxEv(%"class.std::deque"* nonnull align 8 dereferenceable(80) %0) #5 comdat align 2 {
  %2 = alloca %"class.std::deque"*, align 8, !llfi_index !521
  store %"class.std::deque"* %0, %"class.std::deque"** %2, align 8, !llfi_index !522
  %3 = load %"class.std::deque"*, %"class.std::deque"** %2, align 8, !llfi_index !523
  %4 = bitcast %"class.std::deque"* %3 to %"class.std::_Deque_base"*, !llfi_index !524
  %5 = call nonnull align 1 dereferenceable(1) %"class.std::ios_base::Init"* @_ZNSt11_Deque_baseIP4nodeSaIS1_EE19_M_get_Tp_allocatorEv(%"class.std::_Deque_base"* nonnull align 8 dereferenceable(80) %4) #2, !llfi_index !525
  %6 = bitcast %"class.std::deque"* %3 to %"class.std::_Deque_base"*, !llfi_index !526
  %7 = getelementptr inbounds %"class.std::_Deque_base", %"class.std::_Deque_base"* %6, i32 0, i32 0, !llfi_index !527
  %8 = getelementptr inbounds %"struct.std::_Deque_base<node *, std::allocator<node *>>::_Deque_impl", %"struct.std::_Deque_base<node *, std::allocator<node *>>::_Deque_impl"* %7, i32 0, i32 2, !llfi_index !528
  %9 = getelementptr inbounds %"struct.std::_Deque_iterator", %"struct.std::_Deque_iterator"* %8, i32 0, i32 0, !llfi_index !529
  %10 = load %struct.node**, %struct.node*** %9, align 8, !llfi_index !530
  call void @_ZNSt16allocator_traitsISaIP4nodeEE7destroyIS1_EEvRS2_PT_(%"class.std::ios_base::Init"* nonnull align 1 dereferenceable(1) %5, %struct.node** %10) #2, !llfi_index !531
  %11 = bitcast %"class.std::deque"* %3 to %"class.std::_Deque_base"*, !llfi_index !532
  %12 = bitcast %"class.std::deque"* %3 to %"class.std::_Deque_base"*, !llfi_index !533
  %13 = getelementptr inbounds %"class.std::_Deque_base", %"class.std::_Deque_base"* %12, i32 0, i32 0, !llfi_index !534
  %14 = getelementptr inbounds %"struct.std::_Deque_base<node *, std::allocator<node *>>::_Deque_impl", %"struct.std::_Deque_base<node *, std::allocator<node *>>::_Deque_impl"* %13, i32 0, i32 2, !llfi_index !535
  %15 = getelementptr inbounds %"struct.std::_Deque_iterator", %"struct.std::_Deque_iterator"* %14, i32 0, i32 1, !llfi_index !536
  %16 = load %struct.node**, %struct.node*** %15, align 8, !llfi_index !537
  call void @_ZNSt11_Deque_baseIP4nodeSaIS1_EE18_M_deallocate_nodeEPS1_(%"class.std::_Deque_base"* nonnull align 8 dereferenceable(80) %11, %struct.node** %16) #2, !llfi_index !538
  %17 = bitcast %"class.std::deque"* %3 to %"class.std::_Deque_base"*, !llfi_index !539
  %18 = getelementptr inbounds %"class.std::_Deque_base", %"class.std::_Deque_base"* %17, i32 0, i32 0, !llfi_index !540
  %19 = getelementptr inbounds %"struct.std::_Deque_base<node *, std::allocator<node *>>::_Deque_impl", %"struct.std::_Deque_base<node *, std::allocator<node *>>::_Deque_impl"* %18, i32 0, i32 2, !llfi_index !541
  %20 = bitcast %"class.std::deque"* %3 to %"class.std::_Deque_base"*, !llfi_index !542
  %21 = getelementptr inbounds %"class.std::_Deque_base", %"class.std::_Deque_base"* %20, i32 0, i32 0, !llfi_index !543
  %22 = getelementptr inbounds %"struct.std::_Deque_base<node *, std::allocator<node *>>::_Deque_impl", %"struct.std::_Deque_base<node *, std::allocator<node *>>::_Deque_impl"* %21, i32 0, i32 2, !llfi_index !544
  %23 = getelementptr inbounds %"struct.std::_Deque_iterator", %"struct.std::_Deque_iterator"* %22, i32 0, i32 3, !llfi_index !545
  %24 = load %struct.node***, %struct.node**** %23, align 8, !llfi_index !546
  %25 = getelementptr inbounds %struct.node**, %struct.node*** %24, i64 1, !llfi_index !547
  call void @_ZNSt15_Deque_iteratorIP4nodeRS1_PS1_E11_M_set_nodeEPS3_(%"struct.std::_Deque_iterator"* nonnull align 8 dereferenceable(32) %19, %struct.node*** %25) #2, !llfi_index !548
  %26 = bitcast %"class.std::deque"* %3 to %"class.std::_Deque_base"*, !llfi_index !549
  %27 = getelementptr inbounds %"class.std::_Deque_base", %"class.std::_Deque_base"* %26, i32 0, i32 0, !llfi_index !550
  %28 = getelementptr inbounds %"struct.std::_Deque_base<node *, std::allocator<node *>>::_Deque_impl", %"struct.std::_Deque_base<node *, std::allocator<node *>>::_Deque_impl"* %27, i32 0, i32 2, !llfi_index !551
  %29 = getelementptr inbounds %"struct.std::_Deque_iterator", %"struct.std::_Deque_iterator"* %28, i32 0, i32 1, !llfi_index !552
  %30 = load %struct.node**, %struct.node*** %29, align 8, !llfi_index !553
  %31 = bitcast %"class.std::deque"* %3 to %"class.std::_Deque_base"*, !llfi_index !554
  %32 = getelementptr inbounds %"class.std::_Deque_base", %"class.std::_Deque_base"* %31, i32 0, i32 0, !llfi_index !555
  %33 = getelementptr inbounds %"struct.std::_Deque_base<node *, std::allocator<node *>>::_Deque_impl", %"struct.std::_Deque_base<node *, std::allocator<node *>>::_Deque_impl"* %32, i32 0, i32 2, !llfi_index !556
  %34 = getelementptr inbounds %"struct.std::_Deque_iterator", %"struct.std::_Deque_iterator"* %33, i32 0, i32 0, !llfi_index !557
  store %struct.node** %30, %struct.node*** %34, align 8, !llfi_index !558
  ret void, !llfi_index !559
}

; Function Attrs: mustprogress noinline nounwind uwtable
define linkonce_odr dso_local void @_ZNSt15_Deque_iteratorIP4nodeRS1_PS1_E11_M_set_nodeEPS3_(%"struct.std::_Deque_iterator"* nonnull align 8 dereferenceable(32) %0, %struct.node*** %1) #5 comdat align 2 {
  %3 = alloca %"struct.std::_Deque_iterator"*, align 8, !llfi_index !560
  %4 = alloca %struct.node***, align 8, !llfi_index !561
  store %"struct.std::_Deque_iterator"* %0, %"struct.std::_Deque_iterator"** %3, align 8, !llfi_index !562
  store %struct.node*** %1, %struct.node**** %4, align 8, !llfi_index !563
  %5 = load %"struct.std::_Deque_iterator"*, %"struct.std::_Deque_iterator"** %3, align 8, !llfi_index !564
  %6 = load %struct.node***, %struct.node**** %4, align 8, !llfi_index !565
  %7 = getelementptr inbounds %"struct.std::_Deque_iterator", %"struct.std::_Deque_iterator"* %5, i32 0, i32 3, !llfi_index !566
  store %struct.node*** %6, %struct.node**** %7, align 8, !llfi_index !567
  %8 = load %struct.node***, %struct.node**** %4, align 8, !llfi_index !568
  %9 = load %struct.node**, %struct.node*** %8, align 8, !llfi_index !569
  %10 = getelementptr inbounds %"struct.std::_Deque_iterator", %"struct.std::_Deque_iterator"* %5, i32 0, i32 1, !llfi_index !570
  store %struct.node** %9, %struct.node*** %10, align 8, !llfi_index !571
  %11 = getelementptr inbounds %"struct.std::_Deque_iterator", %"struct.std::_Deque_iterator"* %5, i32 0, i32 1, !llfi_index !572
  %12 = load %struct.node**, %struct.node*** %11, align 8, !llfi_index !573
  %13 = call i64 @_ZNSt15_Deque_iteratorIP4nodeRS1_PS1_E14_S_buffer_sizeEv() #2, !llfi_index !574
  %14 = getelementptr inbounds %struct.node*, %struct.node** %12, i64 %13, !llfi_index !575
  %15 = getelementptr inbounds %"struct.std::_Deque_iterator", %"struct.std::_Deque_iterator"* %5, i32 0, i32 2, !llfi_index !576
  store %struct.node** %14, %struct.node*** %15, align 8, !llfi_index !577
  ret void, !llfi_index !578
}

; Function Attrs: mustprogress noinline nounwind uwtable
define linkonce_odr dso_local i64 @_ZNSt15_Deque_iteratorIP4nodeRS1_PS1_E14_S_buffer_sizeEv() #5 comdat align 2 {
  %1 = call i64 @_ZSt16__deque_buf_sizem(i64 8), !llfi_index !579
  ret i64 %1, !llfi_index !580
}

; Function Attrs: mustprogress noinline nounwind uwtable
define linkonce_odr dso_local void @_ZN9__gnu_cxx13new_allocatorIP4nodeE7destroyIS2_EEvPT_(%"class.std::ios_base::Init"* nonnull align 1 dereferenceable(1) %0, %struct.node** %1) #5 comdat align 2 {
  %3 = alloca %"class.std::ios_base::Init"*, align 8, !llfi_index !581
  %4 = alloca %struct.node**, align 8, !llfi_index !582
  store %"class.std::ios_base::Init"* %0, %"class.std::ios_base::Init"** %3, align 8, !llfi_index !583
  store %struct.node** %1, %struct.node*** %4, align 8, !llfi_index !584
  %5 = load %"class.std::ios_base::Init"*, %"class.std::ios_base::Init"** %3, align 8, !llfi_index !585
  %6 = load %struct.node**, %struct.node*** %4, align 8, !llfi_index !586
  ret void, !llfi_index !587
}

; Function Attrs: mustprogress noinline nounwind uwtable
define linkonce_odr dso_local nonnull align 8 dereferenceable(8) %struct.node** @_ZNSt5dequeIP4nodeSaIS1_EE5frontEv(%"class.std::deque"* nonnull align 8 dereferenceable(80) %0) #5 comdat align 2 {
  %2 = alloca %"class.std::deque"*, align 8, !llfi_index !588
  %3 = alloca %"struct.std::_Deque_iterator", align 8, !llfi_index !589
  store %"class.std::deque"* %0, %"class.std::deque"** %2, align 8, !llfi_index !590
  %4 = load %"class.std::deque"*, %"class.std::deque"** %2, align 8, !llfi_index !591
  call void @_ZNSt5dequeIP4nodeSaIS1_EE5beginEv(%"struct.std::_Deque_iterator"* sret(%"struct.std::_Deque_iterator") align 8 %3, %"class.std::deque"* nonnull align 8 dereferenceable(80) %4) #2, !llfi_index !592
  %5 = call nonnull align 8 dereferenceable(8) %struct.node** @_ZNKSt15_Deque_iteratorIP4nodeRS1_PS1_EdeEv(%"struct.std::_Deque_iterator"* nonnull align 8 dereferenceable(32) %3) #2, !llfi_index !593
  ret %struct.node** %5, !llfi_index !594
}

; Function Attrs: mustprogress noinline nounwind uwtable
define linkonce_odr dso_local nonnull align 8 dereferenceable(8) %struct.node** @_ZNKSt15_Deque_iteratorIP4nodeRS1_PS1_EdeEv(%"struct.std::_Deque_iterator"* nonnull align 8 dereferenceable(32) %0) #5 comdat align 2 {
  %2 = alloca %"struct.std::_Deque_iterator"*, align 8, !llfi_index !595
  store %"struct.std::_Deque_iterator"* %0, %"struct.std::_Deque_iterator"** %2, align 8, !llfi_index !596
  %3 = load %"struct.std::_Deque_iterator"*, %"struct.std::_Deque_iterator"** %2, align 8, !llfi_index !597
  %4 = getelementptr inbounds %"struct.std::_Deque_iterator", %"struct.std::_Deque_iterator"* %3, i32 0, i32 0, !llfi_index !598
  %5 = load %struct.node**, %struct.node*** %4, align 8, !llfi_index !599
  ret %struct.node** %5, !llfi_index !600
}

; Function Attrs: mustprogress noinline nounwind uwtable
define linkonce_odr dso_local zeroext i1 @_ZNKSt5dequeIP4nodeSaIS1_EE5emptyEv(%"class.std::deque"* nonnull align 8 dereferenceable(80) %0) #5 comdat align 2 {
  %2 = alloca %"class.std::deque"*, align 8, !llfi_index !601
  store %"class.std::deque"* %0, %"class.std::deque"** %2, align 8, !llfi_index !602
  %3 = load %"class.std::deque"*, %"class.std::deque"** %2, align 8, !llfi_index !603
  %4 = bitcast %"class.std::deque"* %3 to %"class.std::_Deque_base"*, !llfi_index !604
  %5 = getelementptr inbounds %"class.std::_Deque_base", %"class.std::_Deque_base"* %4, i32 0, i32 0, !llfi_index !605
  %6 = getelementptr inbounds %"struct.std::_Deque_base<node *, std::allocator<node *>>::_Deque_impl", %"struct.std::_Deque_base<node *, std::allocator<node *>>::_Deque_impl"* %5, i32 0, i32 3, !llfi_index !606
  %7 = bitcast %"class.std::deque"* %3 to %"class.std::_Deque_base"*, !llfi_index !607
  %8 = getelementptr inbounds %"class.std::_Deque_base", %"class.std::_Deque_base"* %7, i32 0, i32 0, !llfi_index !608
  %9 = getelementptr inbounds %"struct.std::_Deque_base<node *, std::allocator<node *>>::_Deque_impl", %"struct.std::_Deque_base<node *, std::allocator<node *>>::_Deque_impl"* %8, i32 0, i32 2, !llfi_index !609
  %10 = call zeroext i1 @_ZSteqIP4nodeRS1_PS1_EbRKSt15_Deque_iteratorIT_T0_T1_ESA_(%"struct.std::_Deque_iterator"* nonnull align 8 dereferenceable(32) %6, %"struct.std::_Deque_iterator"* nonnull align 8 dereferenceable(32) %9) #2, !llfi_index !610
  ret i1 %10, !llfi_index !611
}

; Function Attrs: mustprogress noinline nounwind uwtable
define linkonce_odr dso_local zeroext i1 @_ZSteqIP4nodeRS1_PS1_EbRKSt15_Deque_iteratorIT_T0_T1_ESA_(%"struct.std::_Deque_iterator"* nonnull align 8 dereferenceable(32) %0, %"struct.std::_Deque_iterator"* nonnull align 8 dereferenceable(32) %1) #5 comdat {
  %3 = alloca %"struct.std::_Deque_iterator"*, align 8, !llfi_index !612
  %4 = alloca %"struct.std::_Deque_iterator"*, align 8, !llfi_index !613
  store %"struct.std::_Deque_iterator"* %0, %"struct.std::_Deque_iterator"** %3, align 8, !llfi_index !614
  store %"struct.std::_Deque_iterator"* %1, %"struct.std::_Deque_iterator"** %4, align 8, !llfi_index !615
  %5 = load %"struct.std::_Deque_iterator"*, %"struct.std::_Deque_iterator"** %3, align 8, !llfi_index !616
  %6 = getelementptr inbounds %"struct.std::_Deque_iterator", %"struct.std::_Deque_iterator"* %5, i32 0, i32 0, !llfi_index !617
  %7 = load %struct.node**, %struct.node*** %6, align 8, !llfi_index !618
  %8 = load %"struct.std::_Deque_iterator"*, %"struct.std::_Deque_iterator"** %4, align 8, !llfi_index !619
  %9 = getelementptr inbounds %"struct.std::_Deque_iterator", %"struct.std::_Deque_iterator"* %8, i32 0, i32 0, !llfi_index !620
  %10 = load %struct.node**, %struct.node*** %9, align 8, !llfi_index !621
  %11 = icmp eq %struct.node** %7, %10, !llfi_index !622
  ret i1 %11, !llfi_index !623
}

; Function Attrs: mustprogress noinline nounwind uwtable
define linkonce_odr dso_local nonnull align 8 dereferenceable(8) %struct.node** @_ZSt4moveIRP4nodeEONSt16remove_referenceIT_E4typeEOS4_(%struct.node** nonnull align 8 dereferenceable(8) %0) #5 comdat {
  %2 = alloca %struct.node**, align 8, !llfi_index !624
  store %struct.node** %0, %struct.node*** %2, align 8, !llfi_index !625
  %3 = load %struct.node**, %struct.node*** %2, align 8, !llfi_index !626
  ret %struct.node** %3, !llfi_index !627
}

; Function Attrs: mustprogress noinline uwtable
define linkonce_odr dso_local void @_ZNSt5dequeIP4nodeSaIS1_EE9push_backEOS1_(%"class.std::deque"* nonnull align 8 dereferenceable(80) %0, %struct.node** nonnull align 8 dereferenceable(8) %1) #4 comdat align 2 {
  %3 = alloca %"class.std::deque"*, align 8, !llfi_index !628
  %4 = alloca %struct.node**, align 8, !llfi_index !629
  store %"class.std::deque"* %0, %"class.std::deque"** %3, align 8, !llfi_index !630
  store %struct.node** %1, %struct.node*** %4, align 8, !llfi_index !631
  %5 = load %"class.std::deque"*, %"class.std::deque"** %3, align 8, !llfi_index !632
  %6 = load %struct.node**, %struct.node*** %4, align 8, !llfi_index !633
  %7 = call nonnull align 8 dereferenceable(8) %struct.node** @_ZSt4moveIRP4nodeEONSt16remove_referenceIT_E4typeEOS4_(%struct.node** nonnull align 8 dereferenceable(8) %6) #2, !llfi_index !634
  call void @_ZNSt5dequeIP4nodeSaIS1_EE12emplace_backIJS1_EEEvDpOT_(%"class.std::deque"* nonnull align 8 dereferenceable(80) %5, %struct.node** nonnull align 8 dereferenceable(8) %7), !llfi_index !635
  ret void, !llfi_index !636
}

; Function Attrs: mustprogress noinline uwtable
define linkonce_odr dso_local void @_ZNSt5dequeIP4nodeSaIS1_EE12emplace_backIJS1_EEEvDpOT_(%"class.std::deque"* nonnull align 8 dereferenceable(80) %0, %struct.node** nonnull align 8 dereferenceable(8) %1) #4 comdat align 2 {
  %3 = alloca %"class.std::deque"*, align 8, !llfi_index !637
  %4 = alloca %struct.node**, align 8, !llfi_index !638
  store %"class.std::deque"* %0, %"class.std::deque"** %3, align 8, !llfi_index !639
  store %struct.node** %1, %struct.node*** %4, align 8, !llfi_index !640
  %5 = load %"class.std::deque"*, %"class.std::deque"** %3, align 8, !llfi_index !641
  %6 = bitcast %"class.std::deque"* %5 to %"class.std::_Deque_base"*, !llfi_index !642
  %7 = getelementptr inbounds %"class.std::_Deque_base", %"class.std::_Deque_base"* %6, i32 0, i32 0, !llfi_index !643
  %8 = getelementptr inbounds %"struct.std::_Deque_base<node *, std::allocator<node *>>::_Deque_impl", %"struct.std::_Deque_base<node *, std::allocator<node *>>::_Deque_impl"* %7, i32 0, i32 3, !llfi_index !644
  %9 = getelementptr inbounds %"struct.std::_Deque_iterator", %"struct.std::_Deque_iterator"* %8, i32 0, i32 0, !llfi_index !645
  %10 = load %struct.node**, %struct.node*** %9, align 8, !llfi_index !646
  %11 = bitcast %"class.std::deque"* %5 to %"class.std::_Deque_base"*, !llfi_index !647
  %12 = getelementptr inbounds %"class.std::_Deque_base", %"class.std::_Deque_base"* %11, i32 0, i32 0, !llfi_index !648
  %13 = getelementptr inbounds %"struct.std::_Deque_base<node *, std::allocator<node *>>::_Deque_impl", %"struct.std::_Deque_base<node *, std::allocator<node *>>::_Deque_impl"* %12, i32 0, i32 3, !llfi_index !649
  %14 = getelementptr inbounds %"struct.std::_Deque_iterator", %"struct.std::_Deque_iterator"* %13, i32 0, i32 2, !llfi_index !650
  %15 = load %struct.node**, %struct.node*** %14, align 8, !llfi_index !651
  %16 = getelementptr inbounds %struct.node*, %struct.node** %15, i64 -1, !llfi_index !652
  %17 = icmp ne %struct.node** %10, %16, !llfi_index !653
  br i1 %17, label %18, label %35, !llfi_index !654

18:                                               ; preds = %2
  %19 = bitcast %"class.std::deque"* %5 to %"class.std::_Deque_base"*, !llfi_index !655
  %20 = getelementptr inbounds %"class.std::_Deque_base", %"class.std::_Deque_base"* %19, i32 0, i32 0, !llfi_index !656
  %21 = bitcast %"struct.std::_Deque_base<node *, std::allocator<node *>>::_Deque_impl"* %20 to %"class.std::ios_base::Init"*, !llfi_index !657
  %22 = bitcast %"class.std::deque"* %5 to %"class.std::_Deque_base"*, !llfi_index !658
  %23 = getelementptr inbounds %"class.std::_Deque_base", %"class.std::_Deque_base"* %22, i32 0, i32 0, !llfi_index !659
  %24 = getelementptr inbounds %"struct.std::_Deque_base<node *, std::allocator<node *>>::_Deque_impl", %"struct.std::_Deque_base<node *, std::allocator<node *>>::_Deque_impl"* %23, i32 0, i32 3, !llfi_index !660
  %25 = getelementptr inbounds %"struct.std::_Deque_iterator", %"struct.std::_Deque_iterator"* %24, i32 0, i32 0, !llfi_index !661
  %26 = load %struct.node**, %struct.node*** %25, align 8, !llfi_index !662
  %27 = load %struct.node**, %struct.node*** %4, align 8, !llfi_index !663
  %28 = call nonnull align 8 dereferenceable(8) %struct.node** @_ZSt7forwardIP4nodeEOT_RNSt16remove_referenceIS2_E4typeE(%struct.node** nonnull align 8 dereferenceable(8) %27) #2, !llfi_index !664
  call void @_ZNSt16allocator_traitsISaIP4nodeEE9constructIS1_JS1_EEEvRS2_PT_DpOT0_(%"class.std::ios_base::Init"* nonnull align 1 dereferenceable(1) %21, %struct.node** %26, %struct.node** nonnull align 8 dereferenceable(8) %28) #2, !llfi_index !665
  %29 = bitcast %"class.std::deque"* %5 to %"class.std::_Deque_base"*, !llfi_index !666
  %30 = getelementptr inbounds %"class.std::_Deque_base", %"class.std::_Deque_base"* %29, i32 0, i32 0, !llfi_index !667
  %31 = getelementptr inbounds %"struct.std::_Deque_base<node *, std::allocator<node *>>::_Deque_impl", %"struct.std::_Deque_base<node *, std::allocator<node *>>::_Deque_impl"* %30, i32 0, i32 3, !llfi_index !668
  %32 = getelementptr inbounds %"struct.std::_Deque_iterator", %"struct.std::_Deque_iterator"* %31, i32 0, i32 0, !llfi_index !669
  %33 = load %struct.node**, %struct.node*** %32, align 8, !llfi_index !670
  %34 = getelementptr inbounds %struct.node*, %struct.node** %33, i32 1, !llfi_index !671
  store %struct.node** %34, %struct.node*** %32, align 8, !llfi_index !672
  br label %38, !llfi_index !673

35:                                               ; preds = %2
  %36 = load %struct.node**, %struct.node*** %4, align 8, !llfi_index !674
  %37 = call nonnull align 8 dereferenceable(8) %struct.node** @_ZSt7forwardIP4nodeEOT_RNSt16remove_referenceIS2_E4typeE(%struct.node** nonnull align 8 dereferenceable(8) %36) #2, !llfi_index !675
  call void @_ZNSt5dequeIP4nodeSaIS1_EE16_M_push_back_auxIJS1_EEEvDpOT_(%"class.std::deque"* nonnull align 8 dereferenceable(80) %5, %struct.node** nonnull align 8 dereferenceable(8) %37), !llfi_index !676
  br label %38, !llfi_index !677

38:                                               ; preds = %35, %18
  ret void, !llfi_index !678
}

; Function Attrs: mustprogress noinline nounwind uwtable
define linkonce_odr dso_local nonnull align 8 dereferenceable(8) %struct.node** @_ZSt7forwardIP4nodeEOT_RNSt16remove_referenceIS2_E4typeE(%struct.node** nonnull align 8 dereferenceable(8) %0) #5 comdat {
  %2 = alloca %struct.node**, align 8, !llfi_index !679
  store %struct.node** %0, %struct.node*** %2, align 8, !llfi_index !680
  %3 = load %struct.node**, %struct.node*** %2, align 8, !llfi_index !681
  ret %struct.node** %3, !llfi_index !682
}

; Function Attrs: mustprogress noinline nounwind uwtable
define linkonce_odr dso_local void @_ZNSt16allocator_traitsISaIP4nodeEE9constructIS1_JS1_EEEvRS2_PT_DpOT0_(%"class.std::ios_base::Init"* nonnull align 1 dereferenceable(1) %0, %struct.node** %1, %struct.node** nonnull align 8 dereferenceable(8) %2) #5 comdat align 2 {
  %4 = alloca %"class.std::ios_base::Init"*, align 8, !llfi_index !683
  %5 = alloca %struct.node**, align 8, !llfi_index !684
  %6 = alloca %struct.node**, align 8, !llfi_index !685
  store %"class.std::ios_base::Init"* %0, %"class.std::ios_base::Init"** %4, align 8, !llfi_index !686
  store %struct.node** %1, %struct.node*** %5, align 8, !llfi_index !687
  store %struct.node** %2, %struct.node*** %6, align 8, !llfi_index !688
  %7 = load %"class.std::ios_base::Init"*, %"class.std::ios_base::Init"** %4, align 8, !llfi_index !689
  %8 = bitcast %"class.std::ios_base::Init"* %7 to %"class.std::ios_base::Init"*, !llfi_index !690
  %9 = load %struct.node**, %struct.node*** %5, align 8, !llfi_index !691
  %10 = load %struct.node**, %struct.node*** %6, align 8, !llfi_index !692
  %11 = call nonnull align 8 dereferenceable(8) %struct.node** @_ZSt7forwardIP4nodeEOT_RNSt16remove_referenceIS2_E4typeE(%struct.node** nonnull align 8 dereferenceable(8) %10) #2, !llfi_index !693
  call void @_ZN9__gnu_cxx13new_allocatorIP4nodeE9constructIS2_JS2_EEEvPT_DpOT0_(%"class.std::ios_base::Init"* nonnull align 1 dereferenceable(1) %8, %struct.node** %9, %struct.node** nonnull align 8 dereferenceable(8) %11) #2, !llfi_index !694
  ret void, !llfi_index !695
}

; Function Attrs: mustprogress noinline uwtable
define linkonce_odr dso_local void @_ZNSt5dequeIP4nodeSaIS1_EE16_M_push_back_auxIJS1_EEEvDpOT_(%"class.std::deque"* nonnull align 8 dereferenceable(80) %0, %struct.node** nonnull align 8 dereferenceable(8) %1) #4 comdat align 2 {
  %3 = alloca %"class.std::deque"*, align 8, !llfi_index !696
  %4 = alloca %struct.node**, align 8, !llfi_index !697
  store %"class.std::deque"* %0, %"class.std::deque"** %3, align 8, !llfi_index !698
  store %struct.node** %1, %struct.node*** %4, align 8, !llfi_index !699
  %5 = load %"class.std::deque"*, %"class.std::deque"** %3, align 8, !llfi_index !700
  %6 = call i64 @_ZNKSt5dequeIP4nodeSaIS1_EE4sizeEv(%"class.std::deque"* nonnull align 8 dereferenceable(80) %5) #2, !llfi_index !701
  %7 = call i64 @_ZNKSt5dequeIP4nodeSaIS1_EE8max_sizeEv(%"class.std::deque"* nonnull align 8 dereferenceable(80) %5) #2, !llfi_index !702
  %8 = icmp eq i64 %6, %7, !llfi_index !703
  br i1 %8, label %9, label %10, !llfi_index !704

9:                                                ; preds = %2
  call void @_ZSt20__throw_length_errorPKc(i8* getelementptr inbounds ([48 x i8], [48 x i8]* @.str.2, i64 0, i64 0)) #14, !llfi_index !705
  unreachable, !llfi_index !706

10:                                               ; preds = %2
  call void @_ZNSt5dequeIP4nodeSaIS1_EE22_M_reserve_map_at_backEm(%"class.std::deque"* nonnull align 8 dereferenceable(80) %5, i64 1), !llfi_index !707
  %11 = bitcast %"class.std::deque"* %5 to %"class.std::_Deque_base"*, !llfi_index !708
  %12 = call %struct.node** @_ZNSt11_Deque_baseIP4nodeSaIS1_EE16_M_allocate_nodeEv(%"class.std::_Deque_base"* nonnull align 8 dereferenceable(80) %11), !llfi_index !709
  %13 = bitcast %"class.std::deque"* %5 to %"class.std::_Deque_base"*, !llfi_index !710
  %14 = getelementptr inbounds %"class.std::_Deque_base", %"class.std::_Deque_base"* %13, i32 0, i32 0, !llfi_index !711
  %15 = getelementptr inbounds %"struct.std::_Deque_base<node *, std::allocator<node *>>::_Deque_impl", %"struct.std::_Deque_base<node *, std::allocator<node *>>::_Deque_impl"* %14, i32 0, i32 3, !llfi_index !712
  %16 = getelementptr inbounds %"struct.std::_Deque_iterator", %"struct.std::_Deque_iterator"* %15, i32 0, i32 3, !llfi_index !713
  %17 = load %struct.node***, %struct.node**** %16, align 8, !llfi_index !714
  %18 = getelementptr inbounds %struct.node**, %struct.node*** %17, i64 1, !llfi_index !715
  store %struct.node** %12, %struct.node*** %18, align 8, !llfi_index !716
  %19 = bitcast %"class.std::deque"* %5 to %"class.std::_Deque_base"*, !llfi_index !717
  %20 = getelementptr inbounds %"class.std::_Deque_base", %"class.std::_Deque_base"* %19, i32 0, i32 0, !llfi_index !718
  %21 = bitcast %"struct.std::_Deque_base<node *, std::allocator<node *>>::_Deque_impl"* %20 to %"class.std::ios_base::Init"*, !llfi_index !719
  %22 = bitcast %"class.std::deque"* %5 to %"class.std::_Deque_base"*, !llfi_index !720
  %23 = getelementptr inbounds %"class.std::_Deque_base", %"class.std::_Deque_base"* %22, i32 0, i32 0, !llfi_index !721
  %24 = getelementptr inbounds %"struct.std::_Deque_base<node *, std::allocator<node *>>::_Deque_impl", %"struct.std::_Deque_base<node *, std::allocator<node *>>::_Deque_impl"* %23, i32 0, i32 3, !llfi_index !722
  %25 = getelementptr inbounds %"struct.std::_Deque_iterator", %"struct.std::_Deque_iterator"* %24, i32 0, i32 0, !llfi_index !723
  %26 = load %struct.node**, %struct.node*** %25, align 8, !llfi_index !724
  %27 = load %struct.node**, %struct.node*** %4, align 8, !llfi_index !725
  %28 = call nonnull align 8 dereferenceable(8) %struct.node** @_ZSt7forwardIP4nodeEOT_RNSt16remove_referenceIS2_E4typeE(%struct.node** nonnull align 8 dereferenceable(8) %27) #2, !llfi_index !726
  call void @_ZNSt16allocator_traitsISaIP4nodeEE9constructIS1_JS1_EEEvRS2_PT_DpOT0_(%"class.std::ios_base::Init"* nonnull align 1 dereferenceable(1) %21, %struct.node** %26, %struct.node** nonnull align 8 dereferenceable(8) %28) #2, !llfi_index !727
  %29 = bitcast %"class.std::deque"* %5 to %"class.std::_Deque_base"*, !llfi_index !728
  %30 = getelementptr inbounds %"class.std::_Deque_base", %"class.std::_Deque_base"* %29, i32 0, i32 0, !llfi_index !729
  %31 = getelementptr inbounds %"struct.std::_Deque_base<node *, std::allocator<node *>>::_Deque_impl", %"struct.std::_Deque_base<node *, std::allocator<node *>>::_Deque_impl"* %30, i32 0, i32 3, !llfi_index !730
  %32 = bitcast %"class.std::deque"* %5 to %"class.std::_Deque_base"*, !llfi_index !731
  %33 = getelementptr inbounds %"class.std::_Deque_base", %"class.std::_Deque_base"* %32, i32 0, i32 0, !llfi_index !732
  %34 = getelementptr inbounds %"struct.std::_Deque_base<node *, std::allocator<node *>>::_Deque_impl", %"struct.std::_Deque_base<node *, std::allocator<node *>>::_Deque_impl"* %33, i32 0, i32 3, !llfi_index !733
  %35 = getelementptr inbounds %"struct.std::_Deque_iterator", %"struct.std::_Deque_iterator"* %34, i32 0, i32 3, !llfi_index !734
  %36 = load %struct.node***, %struct.node**** %35, align 8, !llfi_index !735
  %37 = getelementptr inbounds %struct.node**, %struct.node*** %36, i64 1, !llfi_index !736
  call void @_ZNSt15_Deque_iteratorIP4nodeRS1_PS1_E11_M_set_nodeEPS3_(%"struct.std::_Deque_iterator"* nonnull align 8 dereferenceable(32) %31, %struct.node*** %37) #2, !llfi_index !737
  %38 = bitcast %"class.std::deque"* %5 to %"class.std::_Deque_base"*, !llfi_index !738
  %39 = getelementptr inbounds %"class.std::_Deque_base", %"class.std::_Deque_base"* %38, i32 0, i32 0, !llfi_index !739
  %40 = getelementptr inbounds %"struct.std::_Deque_base<node *, std::allocator<node *>>::_Deque_impl", %"struct.std::_Deque_base<node *, std::allocator<node *>>::_Deque_impl"* %39, i32 0, i32 3, !llfi_index !740
  %41 = getelementptr inbounds %"struct.std::_Deque_iterator", %"struct.std::_Deque_iterator"* %40, i32 0, i32 1, !llfi_index !741
  %42 = load %struct.node**, %struct.node*** %41, align 8, !llfi_index !742
  %43 = bitcast %"class.std::deque"* %5 to %"class.std::_Deque_base"*, !llfi_index !743
  %44 = getelementptr inbounds %"class.std::_Deque_base", %"class.std::_Deque_base"* %43, i32 0, i32 0, !llfi_index !744
  %45 = getelementptr inbounds %"struct.std::_Deque_base<node *, std::allocator<node *>>::_Deque_impl", %"struct.std::_Deque_base<node *, std::allocator<node *>>::_Deque_impl"* %44, i32 0, i32 3, !llfi_index !745
  %46 = getelementptr inbounds %"struct.std::_Deque_iterator", %"struct.std::_Deque_iterator"* %45, i32 0, i32 0, !llfi_index !746
  store %struct.node** %42, %struct.node*** %46, align 8, !llfi_index !747
  ret void, !llfi_index !748
}

; Function Attrs: mustprogress noinline nounwind uwtable
define linkonce_odr dso_local i64 @_ZNKSt5dequeIP4nodeSaIS1_EE4sizeEv(%"class.std::deque"* nonnull align 8 dereferenceable(80) %0) #5 comdat align 2 {
  %2 = alloca %"class.std::deque"*, align 8, !llfi_index !749
  store %"class.std::deque"* %0, %"class.std::deque"** %2, align 8, !llfi_index !750
  %3 = load %"class.std::deque"*, %"class.std::deque"** %2, align 8, !llfi_index !751
  %4 = bitcast %"class.std::deque"* %3 to %"class.std::_Deque_base"*, !llfi_index !752
  %5 = getelementptr inbounds %"class.std::_Deque_base", %"class.std::_Deque_base"* %4, i32 0, i32 0, !llfi_index !753
  %6 = getelementptr inbounds %"struct.std::_Deque_base<node *, std::allocator<node *>>::_Deque_impl", %"struct.std::_Deque_base<node *, std::allocator<node *>>::_Deque_impl"* %5, i32 0, i32 3, !llfi_index !754
  %7 = bitcast %"class.std::deque"* %3 to %"class.std::_Deque_base"*, !llfi_index !755
  %8 = getelementptr inbounds %"class.std::_Deque_base", %"class.std::_Deque_base"* %7, i32 0, i32 0, !llfi_index !756
  %9 = getelementptr inbounds %"struct.std::_Deque_base<node *, std::allocator<node *>>::_Deque_impl", %"struct.std::_Deque_base<node *, std::allocator<node *>>::_Deque_impl"* %8, i32 0, i32 2, !llfi_index !757
  %10 = call i64 @_ZStmiIP4nodeRS1_PS1_ENSt15_Deque_iteratorIT_T0_T1_E15difference_typeERKS8_SB_(%"struct.std::_Deque_iterator"* nonnull align 8 dereferenceable(32) %6, %"struct.std::_Deque_iterator"* nonnull align 8 dereferenceable(32) %9) #2, !llfi_index !758
  ret i64 %10, !llfi_index !759
}

; Function Attrs: mustprogress noinline nounwind uwtable
define linkonce_odr dso_local i64 @_ZNKSt5dequeIP4nodeSaIS1_EE8max_sizeEv(%"class.std::deque"* nonnull align 8 dereferenceable(80) %0) #5 comdat align 2 {
  %2 = alloca %"class.std::deque"*, align 8, !llfi_index !760
  store %"class.std::deque"* %0, %"class.std::deque"** %2, align 8, !llfi_index !761
  %3 = load %"class.std::deque"*, %"class.std::deque"** %2, align 8, !llfi_index !762
  %4 = bitcast %"class.std::deque"* %3 to %"class.std::_Deque_base"*, !llfi_index !763
  %5 = call nonnull align 1 dereferenceable(1) %"class.std::ios_base::Init"* @_ZNKSt11_Deque_baseIP4nodeSaIS1_EE19_M_get_Tp_allocatorEv(%"class.std::_Deque_base"* nonnull align 8 dereferenceable(80) %4) #2, !llfi_index !764
  %6 = call i64 @_ZNSt5dequeIP4nodeSaIS1_EE11_S_max_sizeERKS2_(%"class.std::ios_base::Init"* nonnull align 1 dereferenceable(1) %5) #2, !llfi_index !765
  ret i64 %6, !llfi_index !766
}

; Function Attrs: noreturn
declare dso_local void @_ZSt20__throw_length_errorPKc(i8*) #9

; Function Attrs: mustprogress noinline uwtable
define linkonce_odr dso_local void @_ZNSt5dequeIP4nodeSaIS1_EE22_M_reserve_map_at_backEm(%"class.std::deque"* nonnull align 8 dereferenceable(80) %0, i64 %1) #4 comdat align 2 {
  %3 = alloca %"class.std::deque"*, align 8, !llfi_index !767
  %4 = alloca i64, align 8, !llfi_index !768
  store %"class.std::deque"* %0, %"class.std::deque"** %3, align 8, !llfi_index !769
  store i64 %1, i64* %4, align 8, !llfi_index !770
  %5 = load %"class.std::deque"*, %"class.std::deque"** %3, align 8, !llfi_index !771
  %6 = load i64, i64* %4, align 8, !llfi_index !772
  %7 = add i64 %6, 1, !llfi_index !773
  %8 = bitcast %"class.std::deque"* %5 to %"class.std::_Deque_base"*, !llfi_index !774
  %9 = getelementptr inbounds %"class.std::_Deque_base", %"class.std::_Deque_base"* %8, i32 0, i32 0, !llfi_index !775
  %10 = getelementptr inbounds %"struct.std::_Deque_base<node *, std::allocator<node *>>::_Deque_impl", %"struct.std::_Deque_base<node *, std::allocator<node *>>::_Deque_impl"* %9, i32 0, i32 1, !llfi_index !776
  %11 = load i64, i64* %10, align 8, !llfi_index !777
  %12 = bitcast %"class.std::deque"* %5 to %"class.std::_Deque_base"*, !llfi_index !778
  %13 = getelementptr inbounds %"class.std::_Deque_base", %"class.std::_Deque_base"* %12, i32 0, i32 0, !llfi_index !779
  %14 = getelementptr inbounds %"struct.std::_Deque_base<node *, std::allocator<node *>>::_Deque_impl", %"struct.std::_Deque_base<node *, std::allocator<node *>>::_Deque_impl"* %13, i32 0, i32 3, !llfi_index !780
  %15 = getelementptr inbounds %"struct.std::_Deque_iterator", %"struct.std::_Deque_iterator"* %14, i32 0, i32 3, !llfi_index !781
  %16 = load %struct.node***, %struct.node**** %15, align 8, !llfi_index !782
  %17 = bitcast %"class.std::deque"* %5 to %"class.std::_Deque_base"*, !llfi_index !783
  %18 = getelementptr inbounds %"class.std::_Deque_base", %"class.std::_Deque_base"* %17, i32 0, i32 0, !llfi_index !784
  %19 = getelementptr inbounds %"struct.std::_Deque_base<node *, std::allocator<node *>>::_Deque_impl", %"struct.std::_Deque_base<node *, std::allocator<node *>>::_Deque_impl"* %18, i32 0, i32 0, !llfi_index !785
  %20 = load %struct.node***, %struct.node**** %19, align 8, !llfi_index !786
  %21 = ptrtoint %struct.node*** %16 to i64, !llfi_index !787
  %22 = ptrtoint %struct.node*** %20 to i64, !llfi_index !788
  %23 = sub i64 %21, %22, !llfi_index !789
  %24 = sdiv exact i64 %23, 8, !llfi_index !790
  %25 = sub i64 %11, %24, !llfi_index !791
  %26 = icmp ugt i64 %7, %25, !llfi_index !792
  br i1 %26, label %27, label %29, !llfi_index !793

27:                                               ; preds = %2
  %28 = load i64, i64* %4, align 8, !llfi_index !794
  call void @_ZNSt5dequeIP4nodeSaIS1_EE17_M_reallocate_mapEmb(%"class.std::deque"* nonnull align 8 dereferenceable(80) %5, i64 %28, i1 zeroext false), !llfi_index !795
  br label %29, !llfi_index !796

29:                                               ; preds = %27, %2
  ret void, !llfi_index !797
}

; Function Attrs: mustprogress noinline uwtable
define linkonce_odr dso_local %struct.node** @_ZNSt11_Deque_baseIP4nodeSaIS1_EE16_M_allocate_nodeEv(%"class.std::_Deque_base"* nonnull align 8 dereferenceable(80) %0) #4 comdat align 2 {
  %2 = alloca %"class.std::_Deque_base"*, align 8, !llfi_index !798
  store %"class.std::_Deque_base"* %0, %"class.std::_Deque_base"** %2, align 8, !llfi_index !799
  %3 = load %"class.std::_Deque_base"*, %"class.std::_Deque_base"** %2, align 8, !llfi_index !800
  %4 = getelementptr inbounds %"class.std::_Deque_base", %"class.std::_Deque_base"* %3, i32 0, i32 0, !llfi_index !801
  %5 = bitcast %"struct.std::_Deque_base<node *, std::allocator<node *>>::_Deque_impl"* %4 to %"class.std::ios_base::Init"*, !llfi_index !802
  %6 = call i64 @_ZSt16__deque_buf_sizem(i64 8), !llfi_index !803
  %7 = call %struct.node** @_ZNSt16allocator_traitsISaIP4nodeEE8allocateERS2_m(%"class.std::ios_base::Init"* nonnull align 1 dereferenceable(1) %5, i64 %6), !llfi_index !804
  ret %struct.node** %7, !llfi_index !805
}

; Function Attrs: mustprogress noinline uwtable
define linkonce_odr dso_local %struct.node** @_ZNSt16allocator_traitsISaIP4nodeEE8allocateERS2_m(%"class.std::ios_base::Init"* nonnull align 1 dereferenceable(1) %0, i64 %1) #4 comdat align 2 {
  %3 = alloca %"class.std::ios_base::Init"*, align 8, !llfi_index !806
  %4 = alloca i64, align 8, !llfi_index !807
  store %"class.std::ios_base::Init"* %0, %"class.std::ios_base::Init"** %3, align 8, !llfi_index !808
  store i64 %1, i64* %4, align 8, !llfi_index !809
  %5 = load %"class.std::ios_base::Init"*, %"class.std::ios_base::Init"** %3, align 8, !llfi_index !810
  %6 = bitcast %"class.std::ios_base::Init"* %5 to %"class.std::ios_base::Init"*, !llfi_index !811
  %7 = load i64, i64* %4, align 8, !llfi_index !812
  %8 = call %struct.node** @_ZN9__gnu_cxx13new_allocatorIP4nodeE8allocateEmPKv(%"class.std::ios_base::Init"* nonnull align 1 dereferenceable(1) %6, i64 %7, i8* null), !llfi_index !813
  ret %struct.node** %8, !llfi_index !814
}

; Function Attrs: mustprogress noinline uwtable
define linkonce_odr dso_local %struct.node** @_ZN9__gnu_cxx13new_allocatorIP4nodeE8allocateEmPKv(%"class.std::ios_base::Init"* nonnull align 1 dereferenceable(1) %0, i64 %1, i8* %2) #4 comdat align 2 {
  %4 = alloca %"class.std::ios_base::Init"*, align 8, !llfi_index !815
  %5 = alloca i64, align 8, !llfi_index !816
  %6 = alloca i8*, align 8, !llfi_index !817
  store %"class.std::ios_base::Init"* %0, %"class.std::ios_base::Init"** %4, align 8, !llfi_index !818
  store i64 %1, i64* %5, align 8, !llfi_index !819
  store i8* %2, i8** %6, align 8, !llfi_index !820
  %7 = load %"class.std::ios_base::Init"*, %"class.std::ios_base::Init"** %4, align 8, !llfi_index !821
  %8 = load i64, i64* %5, align 8, !llfi_index !822
  %9 = call i64 @_ZNK9__gnu_cxx13new_allocatorIP4nodeE8max_sizeEv(%"class.std::ios_base::Init"* nonnull align 1 dereferenceable(1) %7) #2, !llfi_index !823
  %10 = icmp ugt i64 %8, %9, !llfi_index !824
  br i1 %10, label %11, label %12, !llfi_index !825

11:                                               ; preds = %3
  call void @_ZSt17__throw_bad_allocv() #14, !llfi_index !826
  unreachable, !llfi_index !827

12:                                               ; preds = %3
  %13 = load i64, i64* %5, align 8, !llfi_index !828
  %14 = mul i64 %13, 8, !llfi_index !829
  %15 = call noalias nonnull i8* @_Znwm(i64 %14) #15, !llfi_index !830
  %16 = bitcast i8* %15 to %struct.node**, !llfi_index !831
  ret %struct.node** %16, !llfi_index !832
}

; Function Attrs: mustprogress noinline nounwind uwtable
define linkonce_odr dso_local i64 @_ZNK9__gnu_cxx13new_allocatorIP4nodeE8max_sizeEv(%"class.std::ios_base::Init"* nonnull align 1 dereferenceable(1) %0) #5 comdat align 2 {
  %2 = alloca %"class.std::ios_base::Init"*, align 8, !llfi_index !833
  store %"class.std::ios_base::Init"* %0, %"class.std::ios_base::Init"** %2, align 8, !llfi_index !834
  %3 = load %"class.std::ios_base::Init"*, %"class.std::ios_base::Init"** %2, align 8, !llfi_index !835
  ret i64 1152921504606846975, !llfi_index !836
}

; Function Attrs: noreturn
declare dso_local void @_ZSt17__throw_bad_allocv() #9

; Function Attrs: nobuiltin allocsize(0)
declare dso_local nonnull i8* @_Znwm(i64) #10

; Function Attrs: mustprogress noinline uwtable
define linkonce_odr dso_local void @_ZNSt5dequeIP4nodeSaIS1_EE17_M_reallocate_mapEmb(%"class.std::deque"* nonnull align 8 dereferenceable(80) %0, i64 %1, i1 zeroext %2) #4 comdat align 2 {
  %4 = alloca %"class.std::deque"*, align 8, !llfi_index !837
  %5 = alloca i64, align 8, !llfi_index !838
  %6 = alloca i8, align 1, !llfi_index !839
  %7 = alloca i64, align 8, !llfi_index !840
  %8 = alloca i64, align 8, !llfi_index !841
  %9 = alloca %struct.node***, align 8, !llfi_index !842
  %10 = alloca i64, align 8, !llfi_index !843
  %11 = alloca %struct.node***, align 8, !llfi_index !844
  store %"class.std::deque"* %0, %"class.std::deque"** %4, align 8, !llfi_index !845
  store i64 %1, i64* %5, align 8, !llfi_index !846
  %12 = zext i1 %2 to i8, !llfi_index !847
  store i8 %12, i8* %6, align 1, !llfi_index !848
  %13 = load %"class.std::deque"*, %"class.std::deque"** %4, align 8, !llfi_index !849
  %14 = bitcast %"class.std::deque"* %13 to %"class.std::_Deque_base"*, !llfi_index !850
  %15 = getelementptr inbounds %"class.std::_Deque_base", %"class.std::_Deque_base"* %14, i32 0, i32 0, !llfi_index !851
  %16 = getelementptr inbounds %"struct.std::_Deque_base<node *, std::allocator<node *>>::_Deque_impl", %"struct.std::_Deque_base<node *, std::allocator<node *>>::_Deque_impl"* %15, i32 0, i32 3, !llfi_index !852
  %17 = getelementptr inbounds %"struct.std::_Deque_iterator", %"struct.std::_Deque_iterator"* %16, i32 0, i32 3, !llfi_index !853
  %18 = load %struct.node***, %struct.node**** %17, align 8, !llfi_index !854
  %19 = bitcast %"class.std::deque"* %13 to %"class.std::_Deque_base"*, !llfi_index !855
  %20 = getelementptr inbounds %"class.std::_Deque_base", %"class.std::_Deque_base"* %19, i32 0, i32 0, !llfi_index !856
  %21 = getelementptr inbounds %"struct.std::_Deque_base<node *, std::allocator<node *>>::_Deque_impl", %"struct.std::_Deque_base<node *, std::allocator<node *>>::_Deque_impl"* %20, i32 0, i32 2, !llfi_index !857
  %22 = getelementptr inbounds %"struct.std::_Deque_iterator", %"struct.std::_Deque_iterator"* %21, i32 0, i32 3, !llfi_index !858
  %23 = load %struct.node***, %struct.node**** %22, align 8, !llfi_index !859
  %24 = ptrtoint %struct.node*** %18 to i64, !llfi_index !860
  %25 = ptrtoint %struct.node*** %23 to i64, !llfi_index !861
  %26 = sub i64 %24, %25, !llfi_index !862
  %27 = sdiv exact i64 %26, 8, !llfi_index !863
  %28 = add nsw i64 %27, 1, !llfi_index !864
  store i64 %28, i64* %7, align 8, !llfi_index !865
  %29 = load i64, i64* %7, align 8, !llfi_index !866
  %30 = load i64, i64* %5, align 8, !llfi_index !867
  %31 = add i64 %29, %30, !llfi_index !868
  store i64 %31, i64* %8, align 8, !llfi_index !869
  %32 = bitcast %"class.std::deque"* %13 to %"class.std::_Deque_base"*, !llfi_index !870
  %33 = getelementptr inbounds %"class.std::_Deque_base", %"class.std::_Deque_base"* %32, i32 0, i32 0, !llfi_index !871
  %34 = getelementptr inbounds %"struct.std::_Deque_base<node *, std::allocator<node *>>::_Deque_impl", %"struct.std::_Deque_base<node *, std::allocator<node *>>::_Deque_impl"* %33, i32 0, i32 1, !llfi_index !872
  %35 = load i64, i64* %34, align 8, !llfi_index !873
  %36 = load i64, i64* %8, align 8, !llfi_index !874
  %37 = mul i64 2, %36, !llfi_index !875
  %38 = icmp ugt i64 %35, %37, !llfi_index !876
  br i1 %38, label %39, label %98, !llfi_index !877

39:                                               ; preds = %3
  %40 = bitcast %"class.std::deque"* %13 to %"class.std::_Deque_base"*, !llfi_index !878
  %41 = getelementptr inbounds %"class.std::_Deque_base", %"class.std::_Deque_base"* %40, i32 0, i32 0, !llfi_index !879
  %42 = getelementptr inbounds %"struct.std::_Deque_base<node *, std::allocator<node *>>::_Deque_impl", %"struct.std::_Deque_base<node *, std::allocator<node *>>::_Deque_impl"* %41, i32 0, i32 0, !llfi_index !880
  %43 = load %struct.node***, %struct.node**** %42, align 8, !llfi_index !881
  %44 = bitcast %"class.std::deque"* %13 to %"class.std::_Deque_base"*, !llfi_index !882
  %45 = getelementptr inbounds %"class.std::_Deque_base", %"class.std::_Deque_base"* %44, i32 0, i32 0, !llfi_index !883
  %46 = getelementptr inbounds %"struct.std::_Deque_base<node *, std::allocator<node *>>::_Deque_impl", %"struct.std::_Deque_base<node *, std::allocator<node *>>::_Deque_impl"* %45, i32 0, i32 1, !llfi_index !884
  %47 = load i64, i64* %46, align 8, !llfi_index !885
  %48 = load i64, i64* %8, align 8, !llfi_index !886
  %49 = sub i64 %47, %48, !llfi_index !887
  %50 = udiv i64 %49, 2, !llfi_index !888
  %51 = getelementptr inbounds %struct.node**, %struct.node*** %43, i64 %50, !llfi_index !889
  %52 = load i8, i8* %6, align 1, !llfi_index !890
  %53 = trunc i8 %52 to i1, !llfi_index !891
  br i1 %53, label %54, label %56, !llfi_index !892

54:                                               ; preds = %39
  %55 = load i64, i64* %5, align 8, !llfi_index !893
  br label %57, !llfi_index !894

56:                                               ; preds = %39
  br label %57, !llfi_index !895

57:                                               ; preds = %56, %54
  %58 = phi i64 [ %55, %54 ], [ 0, %56 ], !llfi_index !896
  %59 = getelementptr inbounds %struct.node**, %struct.node*** %51, i64 %58, !llfi_index !897
  store %struct.node*** %59, %struct.node**** %9, align 8, !llfi_index !898
  %60 = load %struct.node***, %struct.node**** %9, align 8, !llfi_index !899
  %61 = bitcast %"class.std::deque"* %13 to %"class.std::_Deque_base"*, !llfi_index !900
  %62 = getelementptr inbounds %"class.std::_Deque_base", %"class.std::_Deque_base"* %61, i32 0, i32 0, !llfi_index !901
  %63 = getelementptr inbounds %"struct.std::_Deque_base<node *, std::allocator<node *>>::_Deque_impl", %"struct.std::_Deque_base<node *, std::allocator<node *>>::_Deque_impl"* %62, i32 0, i32 2, !llfi_index !902
  %64 = getelementptr inbounds %"struct.std::_Deque_iterator", %"struct.std::_Deque_iterator"* %63, i32 0, i32 3, !llfi_index !903
  %65 = load %struct.node***, %struct.node**** %64, align 8, !llfi_index !904
  %66 = icmp ult %struct.node*** %60, %65, !llfi_index !905
  br i1 %66, label %67, label %81, !llfi_index !906

67:                                               ; preds = %57
  %68 = bitcast %"class.std::deque"* %13 to %"class.std::_Deque_base"*, !llfi_index !907
  %69 = getelementptr inbounds %"class.std::_Deque_base", %"class.std::_Deque_base"* %68, i32 0, i32 0, !llfi_index !908
  %70 = getelementptr inbounds %"struct.std::_Deque_base<node *, std::allocator<node *>>::_Deque_impl", %"struct.std::_Deque_base<node *, std::allocator<node *>>::_Deque_impl"* %69, i32 0, i32 2, !llfi_index !909
  %71 = getelementptr inbounds %"struct.std::_Deque_iterator", %"struct.std::_Deque_iterator"* %70, i32 0, i32 3, !llfi_index !910
  %72 = load %struct.node***, %struct.node**** %71, align 8, !llfi_index !911
  %73 = bitcast %"class.std::deque"* %13 to %"class.std::_Deque_base"*, !llfi_index !912
  %74 = getelementptr inbounds %"class.std::_Deque_base", %"class.std::_Deque_base"* %73, i32 0, i32 0, !llfi_index !913
  %75 = getelementptr inbounds %"struct.std::_Deque_base<node *, std::allocator<node *>>::_Deque_impl", %"struct.std::_Deque_base<node *, std::allocator<node *>>::_Deque_impl"* %74, i32 0, i32 3, !llfi_index !914
  %76 = getelementptr inbounds %"struct.std::_Deque_iterator", %"struct.std::_Deque_iterator"* %75, i32 0, i32 3, !llfi_index !915
  %77 = load %struct.node***, %struct.node**** %76, align 8, !llfi_index !916
  %78 = getelementptr inbounds %struct.node**, %struct.node*** %77, i64 1, !llfi_index !917
  %79 = load %struct.node***, %struct.node**** %9, align 8, !llfi_index !918
  %80 = call %struct.node*** @_ZSt4copyIPPP4nodeS3_ET0_T_S5_S4_(%struct.node*** %72, %struct.node*** %78, %struct.node*** %79), !llfi_index !919
  br label %97, !llfi_index !920

81:                                               ; preds = %57
  %82 = bitcast %"class.std::deque"* %13 to %"class.std::_Deque_base"*, !llfi_index !921
  %83 = getelementptr inbounds %"class.std::_Deque_base", %"class.std::_Deque_base"* %82, i32 0, i32 0, !llfi_index !922
  %84 = getelementptr inbounds %"struct.std::_Deque_base<node *, std::allocator<node *>>::_Deque_impl", %"struct.std::_Deque_base<node *, std::allocator<node *>>::_Deque_impl"* %83, i32 0, i32 2, !llfi_index !923
  %85 = getelementptr inbounds %"struct.std::_Deque_iterator", %"struct.std::_Deque_iterator"* %84, i32 0, i32 3, !llfi_index !924
  %86 = load %struct.node***, %struct.node**** %85, align 8, !llfi_index !925
  %87 = bitcast %"class.std::deque"* %13 to %"class.std::_Deque_base"*, !llfi_index !926
  %88 = getelementptr inbounds %"class.std::_Deque_base", %"class.std::_Deque_base"* %87, i32 0, i32 0, !llfi_index !927
  %89 = getelementptr inbounds %"struct.std::_Deque_base<node *, std::allocator<node *>>::_Deque_impl", %"struct.std::_Deque_base<node *, std::allocator<node *>>::_Deque_impl"* %88, i32 0, i32 3, !llfi_index !928
  %90 = getelementptr inbounds %"struct.std::_Deque_iterator", %"struct.std::_Deque_iterator"* %89, i32 0, i32 3, !llfi_index !929
  %91 = load %struct.node***, %struct.node**** %90, align 8, !llfi_index !930
  %92 = getelementptr inbounds %struct.node**, %struct.node*** %91, i64 1, !llfi_index !931
  %93 = load %struct.node***, %struct.node**** %9, align 8, !llfi_index !932
  %94 = load i64, i64* %7, align 8, !llfi_index !933
  %95 = getelementptr inbounds %struct.node**, %struct.node*** %93, i64 %94, !llfi_index !934
  %96 = call %struct.node*** @_ZSt13copy_backwardIPPP4nodeS3_ET0_T_S5_S4_(%struct.node*** %86, %struct.node*** %92, %struct.node*** %95), !llfi_index !935
  br label %97, !llfi_index !936

97:                                               ; preds = %81, %67
  br label %157, !llfi_index !937

98:                                               ; preds = %3
  %99 = bitcast %"class.std::deque"* %13 to %"class.std::_Deque_base"*, !llfi_index !938
  %100 = getelementptr inbounds %"class.std::_Deque_base", %"class.std::_Deque_base"* %99, i32 0, i32 0, !llfi_index !939
  %101 = getelementptr inbounds %"struct.std::_Deque_base<node *, std::allocator<node *>>::_Deque_impl", %"struct.std::_Deque_base<node *, std::allocator<node *>>::_Deque_impl"* %100, i32 0, i32 1, !llfi_index !940
  %102 = load i64, i64* %101, align 8, !llfi_index !941
  %103 = bitcast %"class.std::deque"* %13 to %"class.std::_Deque_base"*, !llfi_index !942
  %104 = getelementptr inbounds %"class.std::_Deque_base", %"class.std::_Deque_base"* %103, i32 0, i32 0, !llfi_index !943
  %105 = getelementptr inbounds %"struct.std::_Deque_base<node *, std::allocator<node *>>::_Deque_impl", %"struct.std::_Deque_base<node *, std::allocator<node *>>::_Deque_impl"* %104, i32 0, i32 1, !llfi_index !944
  %106 = call nonnull align 8 dereferenceable(8) i64* @_ZSt3maxImERKT_S2_S2_(i64* nonnull align 8 dereferenceable(8) %105, i64* nonnull align 8 dereferenceable(8) %5), !llfi_index !945
  %107 = load i64, i64* %106, align 8, !llfi_index !946
  %108 = add i64 %102, %107, !llfi_index !947
  %109 = add i64 %108, 2, !llfi_index !948
  store i64 %109, i64* %10, align 8, !llfi_index !949
  %110 = bitcast %"class.std::deque"* %13 to %"class.std::_Deque_base"*, !llfi_index !950
  %111 = load i64, i64* %10, align 8, !llfi_index !951
  %112 = call %struct.node*** @_ZNSt11_Deque_baseIP4nodeSaIS1_EE15_M_allocate_mapEm(%"class.std::_Deque_base"* nonnull align 8 dereferenceable(80) %110, i64 %111), !llfi_index !952
  store %struct.node*** %112, %struct.node**** %11, align 8, !llfi_index !953
  %113 = load %struct.node***, %struct.node**** %11, align 8, !llfi_index !954
  %114 = load i64, i64* %10, align 8, !llfi_index !955
  %115 = load i64, i64* %8, align 8, !llfi_index !956
  %116 = sub i64 %114, %115, !llfi_index !957
  %117 = udiv i64 %116, 2, !llfi_index !958
  %118 = getelementptr inbounds %struct.node**, %struct.node*** %113, i64 %117, !llfi_index !959
  %119 = load i8, i8* %6, align 1, !llfi_index !960
  %120 = trunc i8 %119 to i1, !llfi_index !961
  br i1 %120, label %121, label %123, !llfi_index !962

121:                                              ; preds = %98
  %122 = load i64, i64* %5, align 8, !llfi_index !963
  br label %124, !llfi_index !964

123:                                              ; preds = %98
  br label %124, !llfi_index !965

124:                                              ; preds = %123, %121
  %125 = phi i64 [ %122, %121 ], [ 0, %123 ], !llfi_index !966
  %126 = getelementptr inbounds %struct.node**, %struct.node*** %118, i64 %125, !llfi_index !967
  store %struct.node*** %126, %struct.node**** %9, align 8, !llfi_index !968
  %127 = bitcast %"class.std::deque"* %13 to %"class.std::_Deque_base"*, !llfi_index !969
  %128 = getelementptr inbounds %"class.std::_Deque_base", %"class.std::_Deque_base"* %127, i32 0, i32 0, !llfi_index !970
  %129 = getelementptr inbounds %"struct.std::_Deque_base<node *, std::allocator<node *>>::_Deque_impl", %"struct.std::_Deque_base<node *, std::allocator<node *>>::_Deque_impl"* %128, i32 0, i32 2, !llfi_index !971
  %130 = getelementptr inbounds %"struct.std::_Deque_iterator", %"struct.std::_Deque_iterator"* %129, i32 0, i32 3, !llfi_index !972
  %131 = load %struct.node***, %struct.node**** %130, align 8, !llfi_index !973
  %132 = bitcast %"class.std::deque"* %13 to %"class.std::_Deque_base"*, !llfi_index !974
  %133 = getelementptr inbounds %"class.std::_Deque_base", %"class.std::_Deque_base"* %132, i32 0, i32 0, !llfi_index !975
  %134 = getelementptr inbounds %"struct.std::_Deque_base<node *, std::allocator<node *>>::_Deque_impl", %"struct.std::_Deque_base<node *, std::allocator<node *>>::_Deque_impl"* %133, i32 0, i32 3, !llfi_index !976
  %135 = getelementptr inbounds %"struct.std::_Deque_iterator", %"struct.std::_Deque_iterator"* %134, i32 0, i32 3, !llfi_index !977
  %136 = load %struct.node***, %struct.node**** %135, align 8, !llfi_index !978
  %137 = getelementptr inbounds %struct.node**, %struct.node*** %136, i64 1, !llfi_index !979
  %138 = load %struct.node***, %struct.node**** %9, align 8, !llfi_index !980
  %139 = call %struct.node*** @_ZSt4copyIPPP4nodeS3_ET0_T_S5_S4_(%struct.node*** %131, %struct.node*** %137, %struct.node*** %138), !llfi_index !981
  %140 = bitcast %"class.std::deque"* %13 to %"class.std::_Deque_base"*, !llfi_index !982
  %141 = bitcast %"class.std::deque"* %13 to %"class.std::_Deque_base"*, !llfi_index !983
  %142 = getelementptr inbounds %"class.std::_Deque_base", %"class.std::_Deque_base"* %141, i32 0, i32 0, !llfi_index !984
  %143 = getelementptr inbounds %"struct.std::_Deque_base<node *, std::allocator<node *>>::_Deque_impl", %"struct.std::_Deque_base<node *, std::allocator<node *>>::_Deque_impl"* %142, i32 0, i32 0, !llfi_index !985
  %144 = load %struct.node***, %struct.node**** %143, align 8, !llfi_index !986
  %145 = bitcast %"class.std::deque"* %13 to %"class.std::_Deque_base"*, !llfi_index !987
  %146 = getelementptr inbounds %"class.std::_Deque_base", %"class.std::_Deque_base"* %145, i32 0, i32 0, !llfi_index !988
  %147 = getelementptr inbounds %"struct.std::_Deque_base<node *, std::allocator<node *>>::_Deque_impl", %"struct.std::_Deque_base<node *, std::allocator<node *>>::_Deque_impl"* %146, i32 0, i32 1, !llfi_index !989
  %148 = load i64, i64* %147, align 8, !llfi_index !990
  call void @_ZNSt11_Deque_baseIP4nodeSaIS1_EE17_M_deallocate_mapEPPS1_m(%"class.std::_Deque_base"* nonnull align 8 dereferenceable(80) %140, %struct.node*** %144, i64 %148) #2, !llfi_index !991
  %149 = load %struct.node***, %struct.node**** %11, align 8, !llfi_index !992
  %150 = bitcast %"class.std::deque"* %13 to %"class.std::_Deque_base"*, !llfi_index !993
  %151 = getelementptr inbounds %"class.std::_Deque_base", %"class.std::_Deque_base"* %150, i32 0, i32 0, !llfi_index !994
  %152 = getelementptr inbounds %"struct.std::_Deque_base<node *, std::allocator<node *>>::_Deque_impl", %"struct.std::_Deque_base<node *, std::allocator<node *>>::_Deque_impl"* %151, i32 0, i32 0, !llfi_index !995
  store %struct.node*** %149, %struct.node**** %152, align 8, !llfi_index !996
  %153 = load i64, i64* %10, align 8, !llfi_index !997
  %154 = bitcast %"class.std::deque"* %13 to %"class.std::_Deque_base"*, !llfi_index !998
  %155 = getelementptr inbounds %"class.std::_Deque_base", %"class.std::_Deque_base"* %154, i32 0, i32 0, !llfi_index !999
  %156 = getelementptr inbounds %"struct.std::_Deque_base<node *, std::allocator<node *>>::_Deque_impl", %"struct.std::_Deque_base<node *, std::allocator<node *>>::_Deque_impl"* %155, i32 0, i32 1, !llfi_index !1000
  store i64 %153, i64* %156, align 8, !llfi_index !1001
  br label %157, !llfi_index !1002

157:                                              ; preds = %124, %97
  %158 = bitcast %"class.std::deque"* %13 to %"class.std::_Deque_base"*, !llfi_index !1003
  %159 = getelementptr inbounds %"class.std::_Deque_base", %"class.std::_Deque_base"* %158, i32 0, i32 0, !llfi_index !1004
  %160 = getelementptr inbounds %"struct.std::_Deque_base<node *, std::allocator<node *>>::_Deque_impl", %"struct.std::_Deque_base<node *, std::allocator<node *>>::_Deque_impl"* %159, i32 0, i32 2, !llfi_index !1005
  %161 = load %struct.node***, %struct.node**** %9, align 8, !llfi_index !1006
  call void @_ZNSt15_Deque_iteratorIP4nodeRS1_PS1_E11_M_set_nodeEPS3_(%"struct.std::_Deque_iterator"* nonnull align 8 dereferenceable(32) %160, %struct.node*** %161) #2, !llfi_index !1007
  %162 = bitcast %"class.std::deque"* %13 to %"class.std::_Deque_base"*, !llfi_index !1008
  %163 = getelementptr inbounds %"class.std::_Deque_base", %"class.std::_Deque_base"* %162, i32 0, i32 0, !llfi_index !1009
  %164 = getelementptr inbounds %"struct.std::_Deque_base<node *, std::allocator<node *>>::_Deque_impl", %"struct.std::_Deque_base<node *, std::allocator<node *>>::_Deque_impl"* %163, i32 0, i32 3, !llfi_index !1010
  %165 = load %struct.node***, %struct.node**** %9, align 8, !llfi_index !1011
  %166 = load i64, i64* %7, align 8, !llfi_index !1012
  %167 = getelementptr inbounds %struct.node**, %struct.node*** %165, i64 %166, !llfi_index !1013
  %168 = getelementptr inbounds %struct.node**, %struct.node*** %167, i64 -1, !llfi_index !1014
  call void @_ZNSt15_Deque_iteratorIP4nodeRS1_PS1_E11_M_set_nodeEPS3_(%"struct.std::_Deque_iterator"* nonnull align 8 dereferenceable(32) %164, %struct.node*** %168) #2, !llfi_index !1015
  ret void, !llfi_index !1016
}

; Function Attrs: mustprogress noinline uwtable
define linkonce_odr dso_local %struct.node*** @_ZSt4copyIPPP4nodeS3_ET0_T_S5_S4_(%struct.node*** %0, %struct.node*** %1, %struct.node*** %2) #4 comdat {
  %4 = alloca %struct.node***, align 8, !llfi_index !1017
  %5 = alloca %struct.node***, align 8, !llfi_index !1018
  %6 = alloca %struct.node***, align 8, !llfi_index !1019
  store %struct.node*** %0, %struct.node**** %4, align 8, !llfi_index !1020
  store %struct.node*** %1, %struct.node**** %5, align 8, !llfi_index !1021
  store %struct.node*** %2, %struct.node**** %6, align 8, !llfi_index !1022
  %7 = load %struct.node***, %struct.node**** %4, align 8, !llfi_index !1023
  %8 = call %struct.node*** @_ZSt12__miter_baseIPPP4nodeET_S4_(%struct.node*** %7), !llfi_index !1024
  %9 = load %struct.node***, %struct.node**** %5, align 8, !llfi_index !1025
  %10 = call %struct.node*** @_ZSt12__miter_baseIPPP4nodeET_S4_(%struct.node*** %9), !llfi_index !1026
  %11 = load %struct.node***, %struct.node**** %6, align 8, !llfi_index !1027
  %12 = call %struct.node*** @_ZSt14__copy_move_a2ILb0EPPP4nodeS3_ET1_T0_S5_S4_(%struct.node*** %8, %struct.node*** %10, %struct.node*** %11), !llfi_index !1028
  ret %struct.node*** %12, !llfi_index !1029
}

; Function Attrs: mustprogress noinline uwtable
define linkonce_odr dso_local %struct.node*** @_ZSt13copy_backwardIPPP4nodeS3_ET0_T_S5_S4_(%struct.node*** %0, %struct.node*** %1, %struct.node*** %2) #4 comdat {
  %4 = alloca %struct.node***, align 8, !llfi_index !1030
  %5 = alloca %struct.node***, align 8, !llfi_index !1031
  %6 = alloca %struct.node***, align 8, !llfi_index !1032
  store %struct.node*** %0, %struct.node**** %4, align 8, !llfi_index !1033
  store %struct.node*** %1, %struct.node**** %5, align 8, !llfi_index !1034
  store %struct.node*** %2, %struct.node**** %6, align 8, !llfi_index !1035
  %7 = load %struct.node***, %struct.node**** %4, align 8, !llfi_index !1036
  %8 = call %struct.node*** @_ZSt12__miter_baseIPPP4nodeET_S4_(%struct.node*** %7), !llfi_index !1037
  %9 = load %struct.node***, %struct.node**** %5, align 8, !llfi_index !1038
  %10 = call %struct.node*** @_ZSt12__miter_baseIPPP4nodeET_S4_(%struct.node*** %9), !llfi_index !1039
  %11 = load %struct.node***, %struct.node**** %6, align 8, !llfi_index !1040
  %12 = call %struct.node*** @_ZSt23__copy_move_backward_a2ILb0EPPP4nodeS3_ET1_T0_S5_S4_(%struct.node*** %8, %struct.node*** %10, %struct.node*** %11), !llfi_index !1041
  ret %struct.node*** %12, !llfi_index !1042
}

; Function Attrs: mustprogress noinline nounwind uwtable
define linkonce_odr dso_local nonnull align 8 dereferenceable(8) i64* @_ZSt3maxImERKT_S2_S2_(i64* nonnull align 8 dereferenceable(8) %0, i64* nonnull align 8 dereferenceable(8) %1) #5 comdat {
  %3 = alloca i64*, align 8, !llfi_index !1043
  %4 = alloca i64*, align 8, !llfi_index !1044
  %5 = alloca i64*, align 8, !llfi_index !1045
  store i64* %0, i64** %4, align 8, !llfi_index !1046
  store i64* %1, i64** %5, align 8, !llfi_index !1047
  %6 = load i64*, i64** %4, align 8, !llfi_index !1048
  %7 = load i64, i64* %6, align 8, !llfi_index !1049
  %8 = load i64*, i64** %5, align 8, !llfi_index !1050
  %9 = load i64, i64* %8, align 8, !llfi_index !1051
  %10 = icmp ult i64 %7, %9, !llfi_index !1052
  br i1 %10, label %11, label %13, !llfi_index !1053

11:                                               ; preds = %2
  %12 = load i64*, i64** %5, align 8, !llfi_index !1054
  store i64* %12, i64** %3, align 8, !llfi_index !1055
  br label %15, !llfi_index !1056

13:                                               ; preds = %2
  %14 = load i64*, i64** %4, align 8, !llfi_index !1057
  store i64* %14, i64** %3, align 8, !llfi_index !1058
  br label %15, !llfi_index !1059

15:                                               ; preds = %13, %11
  %16 = load i64*, i64** %3, align 8, !llfi_index !1060
  ret i64* %16, !llfi_index !1061
}

; Function Attrs: mustprogress noinline uwtable
define linkonce_odr dso_local %struct.node*** @_ZNSt11_Deque_baseIP4nodeSaIS1_EE15_M_allocate_mapEm(%"class.std::_Deque_base"* nonnull align 8 dereferenceable(80) %0, i64 %1) #4 comdat align 2 personality i8* bitcast (i32 (...)* @__gxx_personality_v0 to i8*) {
  %3 = alloca %"class.std::_Deque_base"*, align 8, !llfi_index !1062
  %4 = alloca i64, align 8, !llfi_index !1063
  %5 = alloca %"class.std::ios_base::Init", align 1, !llfi_index !1064
  %6 = alloca i8*, align 8, !llfi_index !1065
  %7 = alloca i32, align 4, !llfi_index !1066
  store %"class.std::_Deque_base"* %0, %"class.std::_Deque_base"** %3, align 8, !llfi_index !1067
  store i64 %1, i64* %4, align 8, !llfi_index !1068
  %8 = load %"class.std::_Deque_base"*, %"class.std::_Deque_base"** %3, align 8, !llfi_index !1069
  call void @_ZNKSt11_Deque_baseIP4nodeSaIS1_EE20_M_get_map_allocatorEv(%"class.std::ios_base::Init"* sret(%"class.std::ios_base::Init") align 1 %5, %"class.std::_Deque_base"* nonnull align 8 dereferenceable(80) %8) #2, !llfi_index !1070
  %9 = load i64, i64* %4, align 8, !llfi_index !1071
  %10 = invoke %struct.node*** @_ZNSt16allocator_traitsISaIPP4nodeEE8allocateERS3_m(%"class.std::ios_base::Init"* nonnull align 1 dereferenceable(1) %5, i64 %9)
          to label %11 unwind label %12, !llfi_index !1072

11:                                               ; preds = %2
  call void @_ZNSaIPP4nodeED2Ev(%"class.std::ios_base::Init"* nonnull align 1 dereferenceable(1) %5) #2, !llfi_index !1073
  ret %struct.node*** %10, !llfi_index !1074

12:                                               ; preds = %2
  %13 = landingpad { i8*, i32 }
          cleanup, !llfi_index !1075
  %14 = extractvalue { i8*, i32 } %13, 0, !llfi_index !1076
  store i8* %14, i8** %6, align 8, !llfi_index !1077
  %15 = extractvalue { i8*, i32 } %13, 1, !llfi_index !1078
  store i32 %15, i32* %7, align 4, !llfi_index !1079
  call void @_ZNSaIPP4nodeED2Ev(%"class.std::ios_base::Init"* nonnull align 1 dereferenceable(1) %5) #2, !llfi_index !1080
  br label %16, !llfi_index !1081

16:                                               ; preds = %12
  %17 = load i8*, i8** %6, align 8, !llfi_index !1082
  %18 = load i32, i32* %7, align 4, !llfi_index !1083
  %19 = insertvalue { i8*, i32 } undef, i8* %17, 0, !llfi_index !1084
  %20 = insertvalue { i8*, i32 } %19, i32 %18, 1, !llfi_index !1085
  resume { i8*, i32 } %20, !llfi_index !1086
}

; Function Attrs: mustprogress noinline uwtable
define linkonce_odr dso_local %struct.node*** @_ZNSt16allocator_traitsISaIPP4nodeEE8allocateERS3_m(%"class.std::ios_base::Init"* nonnull align 1 dereferenceable(1) %0, i64 %1) #4 comdat align 2 {
  %3 = alloca %"class.std::ios_base::Init"*, align 8, !llfi_index !1087
  %4 = alloca i64, align 8, !llfi_index !1088
  store %"class.std::ios_base::Init"* %0, %"class.std::ios_base::Init"** %3, align 8, !llfi_index !1089
  store i64 %1, i64* %4, align 8, !llfi_index !1090
  %5 = load %"class.std::ios_base::Init"*, %"class.std::ios_base::Init"** %3, align 8, !llfi_index !1091
  %6 = bitcast %"class.std::ios_base::Init"* %5 to %"class.std::ios_base::Init"*, !llfi_index !1092
  %7 = load i64, i64* %4, align 8, !llfi_index !1093
  %8 = call %struct.node*** @_ZN9__gnu_cxx13new_allocatorIPP4nodeE8allocateEmPKv(%"class.std::ios_base::Init"* nonnull align 1 dereferenceable(1) %6, i64 %7, i8* null), !llfi_index !1094
  ret %struct.node*** %8, !llfi_index !1095
}

; Function Attrs: mustprogress noinline uwtable
define linkonce_odr dso_local %struct.node*** @_ZN9__gnu_cxx13new_allocatorIPP4nodeE8allocateEmPKv(%"class.std::ios_base::Init"* nonnull align 1 dereferenceable(1) %0, i64 %1, i8* %2) #4 comdat align 2 {
  %4 = alloca %"class.std::ios_base::Init"*, align 8, !llfi_index !1096
  %5 = alloca i64, align 8, !llfi_index !1097
  %6 = alloca i8*, align 8, !llfi_index !1098
  store %"class.std::ios_base::Init"* %0, %"class.std::ios_base::Init"** %4, align 8, !llfi_index !1099
  store i64 %1, i64* %5, align 8, !llfi_index !1100
  store i8* %2, i8** %6, align 8, !llfi_index !1101
  %7 = load %"class.std::ios_base::Init"*, %"class.std::ios_base::Init"** %4, align 8, !llfi_index !1102
  %8 = load i64, i64* %5, align 8, !llfi_index !1103
  %9 = call i64 @_ZNK9__gnu_cxx13new_allocatorIPP4nodeE8max_sizeEv(%"class.std::ios_base::Init"* nonnull align 1 dereferenceable(1) %7) #2, !llfi_index !1104
  %10 = icmp ugt i64 %8, %9, !llfi_index !1105
  br i1 %10, label %11, label %12, !llfi_index !1106

11:                                               ; preds = %3
  call void @_ZSt17__throw_bad_allocv() #14, !llfi_index !1107
  unreachable, !llfi_index !1108

12:                                               ; preds = %3
  %13 = load i64, i64* %5, align 8, !llfi_index !1109
  %14 = mul i64 %13, 8, !llfi_index !1110
  %15 = call noalias nonnull i8* @_Znwm(i64 %14) #15, !llfi_index !1111
  %16 = bitcast i8* %15 to %struct.node***, !llfi_index !1112
  ret %struct.node*** %16, !llfi_index !1113
}

; Function Attrs: mustprogress noinline nounwind uwtable
define linkonce_odr dso_local i64 @_ZNK9__gnu_cxx13new_allocatorIPP4nodeE8max_sizeEv(%"class.std::ios_base::Init"* nonnull align 1 dereferenceable(1) %0) #5 comdat align 2 {
  %2 = alloca %"class.std::ios_base::Init"*, align 8, !llfi_index !1114
  store %"class.std::ios_base::Init"* %0, %"class.std::ios_base::Init"** %2, align 8, !llfi_index !1115
  %3 = load %"class.std::ios_base::Init"*, %"class.std::ios_base::Init"** %2, align 8, !llfi_index !1116
  ret i64 1152921504606846975, !llfi_index !1117
}

; Function Attrs: mustprogress noinline nounwind uwtable
define linkonce_odr dso_local %struct.node*** @_ZSt12__miter_baseIPPP4nodeET_S4_(%struct.node*** %0) #5 comdat {
  %2 = alloca %struct.node***, align 8, !llfi_index !1118
  store %struct.node*** %0, %struct.node**** %2, align 8, !llfi_index !1119
  %3 = load %struct.node***, %struct.node**** %2, align 8, !llfi_index !1120
  ret %struct.node*** %3, !llfi_index !1121
}

; Function Attrs: mustprogress noinline uwtable
define linkonce_odr dso_local %struct.node*** @_ZSt23__copy_move_backward_a2ILb0EPPP4nodeS3_ET1_T0_S5_S4_(%struct.node*** %0, %struct.node*** %1, %struct.node*** %2) #4 comdat {
  %4 = alloca %struct.node***, align 8, !llfi_index !1122
  %5 = alloca %struct.node***, align 8, !llfi_index !1123
  %6 = alloca %struct.node***, align 8, !llfi_index !1124
  store %struct.node*** %0, %struct.node**** %4, align 8, !llfi_index !1125
  store %struct.node*** %1, %struct.node**** %5, align 8, !llfi_index !1126
  store %struct.node*** %2, %struct.node**** %6, align 8, !llfi_index !1127
  %7 = load %struct.node***, %struct.node**** %4, align 8, !llfi_index !1128
  %8 = call %struct.node*** @_ZSt12__niter_baseIPPP4nodeET_S4_(%struct.node*** %7) #2, !llfi_index !1129
  %9 = load %struct.node***, %struct.node**** %5, align 8, !llfi_index !1130
  %10 = call %struct.node*** @_ZSt12__niter_baseIPPP4nodeET_S4_(%struct.node*** %9) #2, !llfi_index !1131
  %11 = load %struct.node***, %struct.node**** %6, align 8, !llfi_index !1132
  %12 = call %struct.node*** @_ZSt12__niter_baseIPPP4nodeET_S4_(%struct.node*** %11) #2, !llfi_index !1133
  %13 = call %struct.node*** @_ZSt22__copy_move_backward_aILb0EPPP4nodeS3_ET1_T0_S5_S4_(%struct.node*** %8, %struct.node*** %10, %struct.node*** %12), !llfi_index !1134
  %14 = call %struct.node*** @_ZSt12__niter_wrapIPPP4nodeET_RKS4_S4_(%struct.node**** nonnull align 8 dereferenceable(8) %6, %struct.node*** %13), !llfi_index !1135
  ret %struct.node*** %14, !llfi_index !1136
}

; Function Attrs: mustprogress noinline nounwind uwtable
define linkonce_odr dso_local %struct.node*** @_ZSt12__niter_baseIPPP4nodeET_S4_(%struct.node*** %0) #5 comdat {
  %2 = alloca %struct.node***, align 8, !llfi_index !1137
  store %struct.node*** %0, %struct.node**** %2, align 8, !llfi_index !1138
  %3 = load %struct.node***, %struct.node**** %2, align 8, !llfi_index !1139
  ret %struct.node*** %3, !llfi_index !1140
}

; Function Attrs: mustprogress noinline uwtable
define linkonce_odr dso_local %struct.node*** @_ZSt22__copy_move_backward_aILb0EPPP4nodeS3_ET1_T0_S5_S4_(%struct.node*** %0, %struct.node*** %1, %struct.node*** %2) #4 comdat {
  %4 = alloca %struct.node***, align 8, !llfi_index !1141
  %5 = alloca %struct.node***, align 8, !llfi_index !1142
  %6 = alloca %struct.node***, align 8, !llfi_index !1143
  %7 = alloca i8, align 1, !llfi_index !1144
  store %struct.node*** %0, %struct.node**** %4, align 8, !llfi_index !1145
  store %struct.node*** %1, %struct.node**** %5, align 8, !llfi_index !1146
  store %struct.node*** %2, %struct.node**** %6, align 8, !llfi_index !1147
  store i8 1, i8* %7, align 1, !llfi_index !1148
  %8 = load %struct.node***, %struct.node**** %4, align 8, !llfi_index !1149
  %9 = load %struct.node***, %struct.node**** %5, align 8, !llfi_index !1150
  %10 = load %struct.node***, %struct.node**** %6, align 8, !llfi_index !1151
  %11 = call %struct.node*** @_ZNSt20__copy_move_backwardILb0ELb1ESt26random_access_iterator_tagE13__copy_move_bIPP4nodeEEPT_PKS6_S9_S7_(%struct.node*** %8, %struct.node*** %9, %struct.node*** %10), !llfi_index !1152
  ret %struct.node*** %11, !llfi_index !1153
}

; Function Attrs: mustprogress noinline nounwind uwtable
define linkonce_odr dso_local %struct.node*** @_ZSt12__niter_wrapIPPP4nodeET_RKS4_S4_(%struct.node**** nonnull align 8 dereferenceable(8) %0, %struct.node*** %1) #5 comdat {
  %3 = alloca %struct.node****, align 8, !llfi_index !1154
  %4 = alloca %struct.node***, align 8, !llfi_index !1155
  store %struct.node**** %0, %struct.node***** %3, align 8, !llfi_index !1156
  store %struct.node*** %1, %struct.node**** %4, align 8, !llfi_index !1157
  %5 = load %struct.node***, %struct.node**** %4, align 8, !llfi_index !1158
  ret %struct.node*** %5, !llfi_index !1159
}

; Function Attrs: mustprogress noinline nounwind uwtable
define linkonce_odr dso_local %struct.node*** @_ZNSt20__copy_move_backwardILb0ELb1ESt26random_access_iterator_tagE13__copy_move_bIPP4nodeEEPT_PKS6_S9_S7_(%struct.node*** %0, %struct.node*** %1, %struct.node*** %2) #5 comdat align 2 {
  %4 = alloca %struct.node***, align 8, !llfi_index !1160
  %5 = alloca %struct.node***, align 8, !llfi_index !1161
  %6 = alloca %struct.node***, align 8, !llfi_index !1162
  %7 = alloca i64, align 8, !llfi_index !1163
  store %struct.node*** %0, %struct.node**** %4, align 8, !llfi_index !1164
  store %struct.node*** %1, %struct.node**** %5, align 8, !llfi_index !1165
  store %struct.node*** %2, %struct.node**** %6, align 8, !llfi_index !1166
  %8 = load %struct.node***, %struct.node**** %5, align 8, !llfi_index !1167
  %9 = load %struct.node***, %struct.node**** %4, align 8, !llfi_index !1168
  %10 = ptrtoint %struct.node*** %8 to i64, !llfi_index !1169
  %11 = ptrtoint %struct.node*** %9 to i64, !llfi_index !1170
  %12 = sub i64 %10, %11, !llfi_index !1171
  %13 = sdiv exact i64 %12, 8, !llfi_index !1172
  store i64 %13, i64* %7, align 8, !llfi_index !1173
  %14 = load i64, i64* %7, align 8, !llfi_index !1174
  %15 = icmp ne i64 %14, 0, !llfi_index !1175
  br i1 %15, label %16, label %26, !llfi_index !1176

16:                                               ; preds = %3
  %17 = load %struct.node***, %struct.node**** %6, align 8, !llfi_index !1177
  %18 = load i64, i64* %7, align 8, !llfi_index !1178
  %19 = sub i64 0, %18, !llfi_index !1179
  %20 = getelementptr inbounds %struct.node**, %struct.node*** %17, i64 %19, !llfi_index !1180
  %21 = bitcast %struct.node*** %20 to i8*, !llfi_index !1181
  %22 = load %struct.node***, %struct.node**** %4, align 8, !llfi_index !1182
  %23 = bitcast %struct.node*** %22 to i8*, !llfi_index !1183
  %24 = load i64, i64* %7, align 8, !llfi_index !1184
  %25 = mul i64 8, %24, !llfi_index !1185
  call void @llvm.memmove.p0i8.p0i8.i64(i8* align 8 %21, i8* align 8 %23, i64 %25, i1 false), !llfi_index !1186
  br label %26, !llfi_index !1187

26:                                               ; preds = %16, %3
  %27 = load %struct.node***, %struct.node**** %6, align 8, !llfi_index !1188
  %28 = load i64, i64* %7, align 8, !llfi_index !1189
  %29 = sub i64 0, %28, !llfi_index !1190
  %30 = getelementptr inbounds %struct.node**, %struct.node*** %27, i64 %29, !llfi_index !1191
  ret %struct.node*** %30, !llfi_index !1192
}

; Function Attrs: argmemonly nofree nounwind willreturn
declare void @llvm.memmove.p0i8.p0i8.i64(i8* nocapture writeonly, i8* nocapture readonly, i64, i1 immarg) #11

; Function Attrs: mustprogress noinline uwtable
define linkonce_odr dso_local %struct.node*** @_ZSt14__copy_move_a2ILb0EPPP4nodeS3_ET1_T0_S5_S4_(%struct.node*** %0, %struct.node*** %1, %struct.node*** %2) #4 comdat {
  %4 = alloca %struct.node***, align 8, !llfi_index !1193
  %5 = alloca %struct.node***, align 8, !llfi_index !1194
  %6 = alloca %struct.node***, align 8, !llfi_index !1195
  store %struct.node*** %0, %struct.node**** %4, align 8, !llfi_index !1196
  store %struct.node*** %1, %struct.node**** %5, align 8, !llfi_index !1197
  store %struct.node*** %2, %struct.node**** %6, align 8, !llfi_index !1198
  %7 = load %struct.node***, %struct.node**** %4, align 8, !llfi_index !1199
  %8 = call %struct.node*** @_ZSt12__niter_baseIPPP4nodeET_S4_(%struct.node*** %7) #2, !llfi_index !1200
  %9 = load %struct.node***, %struct.node**** %5, align 8, !llfi_index !1201
  %10 = call %struct.node*** @_ZSt12__niter_baseIPPP4nodeET_S4_(%struct.node*** %9) #2, !llfi_index !1202
  %11 = load %struct.node***, %struct.node**** %6, align 8, !llfi_index !1203
  %12 = call %struct.node*** @_ZSt12__niter_baseIPPP4nodeET_S4_(%struct.node*** %11) #2, !llfi_index !1204
  %13 = call %struct.node*** @_ZSt13__copy_move_aILb0EPPP4nodeS3_ET1_T0_S5_S4_(%struct.node*** %8, %struct.node*** %10, %struct.node*** %12), !llfi_index !1205
  %14 = call %struct.node*** @_ZSt12__niter_wrapIPPP4nodeET_RKS4_S4_(%struct.node**** nonnull align 8 dereferenceable(8) %6, %struct.node*** %13), !llfi_index !1206
  ret %struct.node*** %14, !llfi_index !1207
}

; Function Attrs: mustprogress noinline uwtable
define linkonce_odr dso_local %struct.node*** @_ZSt13__copy_move_aILb0EPPP4nodeS3_ET1_T0_S5_S4_(%struct.node*** %0, %struct.node*** %1, %struct.node*** %2) #4 comdat {
  %4 = alloca %struct.node***, align 8, !llfi_index !1208
  %5 = alloca %struct.node***, align 8, !llfi_index !1209
  %6 = alloca %struct.node***, align 8, !llfi_index !1210
  %7 = alloca i8, align 1, !llfi_index !1211
  store %struct.node*** %0, %struct.node**** %4, align 8, !llfi_index !1212
  store %struct.node*** %1, %struct.node**** %5, align 8, !llfi_index !1213
  store %struct.node*** %2, %struct.node**** %6, align 8, !llfi_index !1214
  store i8 1, i8* %7, align 1, !llfi_index !1215
  %8 = load %struct.node***, %struct.node**** %4, align 8, !llfi_index !1216
  %9 = load %struct.node***, %struct.node**** %5, align 8, !llfi_index !1217
  %10 = load %struct.node***, %struct.node**** %6, align 8, !llfi_index !1218
  %11 = call %struct.node*** @_ZNSt11__copy_moveILb0ELb1ESt26random_access_iterator_tagE8__copy_mIPP4nodeEEPT_PKS6_S9_S7_(%struct.node*** %8, %struct.node*** %9, %struct.node*** %10), !llfi_index !1219
  ret %struct.node*** %11, !llfi_index !1220
}

; Function Attrs: mustprogress noinline nounwind uwtable
define linkonce_odr dso_local %struct.node*** @_ZNSt11__copy_moveILb0ELb1ESt26random_access_iterator_tagE8__copy_mIPP4nodeEEPT_PKS6_S9_S7_(%struct.node*** %0, %struct.node*** %1, %struct.node*** %2) #5 comdat align 2 {
  %4 = alloca %struct.node***, align 8, !llfi_index !1221
  %5 = alloca %struct.node***, align 8, !llfi_index !1222
  %6 = alloca %struct.node***, align 8, !llfi_index !1223
  %7 = alloca i64, align 8, !llfi_index !1224
  store %struct.node*** %0, %struct.node**** %4, align 8, !llfi_index !1225
  store %struct.node*** %1, %struct.node**** %5, align 8, !llfi_index !1226
  store %struct.node*** %2, %struct.node**** %6, align 8, !llfi_index !1227
  %8 = load %struct.node***, %struct.node**** %5, align 8, !llfi_index !1228
  %9 = load %struct.node***, %struct.node**** %4, align 8, !llfi_index !1229
  %10 = ptrtoint %struct.node*** %8 to i64, !llfi_index !1230
  %11 = ptrtoint %struct.node*** %9 to i64, !llfi_index !1231
  %12 = sub i64 %10, %11, !llfi_index !1232
  %13 = sdiv exact i64 %12, 8, !llfi_index !1233
  store i64 %13, i64* %7, align 8, !llfi_index !1234
  %14 = load i64, i64* %7, align 8, !llfi_index !1235
  %15 = icmp ne i64 %14, 0, !llfi_index !1236
  br i1 %15, label %16, label %23, !llfi_index !1237

16:                                               ; preds = %3
  %17 = load %struct.node***, %struct.node**** %6, align 8, !llfi_index !1238
  %18 = bitcast %struct.node*** %17 to i8*, !llfi_index !1239
  %19 = load %struct.node***, %struct.node**** %4, align 8, !llfi_index !1240
  %20 = bitcast %struct.node*** %19 to i8*, !llfi_index !1241
  %21 = load i64, i64* %7, align 8, !llfi_index !1242
  %22 = mul i64 8, %21, !llfi_index !1243
  call void @llvm.memmove.p0i8.p0i8.i64(i8* align 8 %18, i8* align 8 %20, i64 %22, i1 false), !llfi_index !1244
  br label %23, !llfi_index !1245

23:                                               ; preds = %16, %3
  %24 = load %struct.node***, %struct.node**** %6, align 8, !llfi_index !1246
  %25 = load i64, i64* %7, align 8, !llfi_index !1247
  %26 = getelementptr inbounds %struct.node**, %struct.node*** %24, i64 %25, !llfi_index !1248
  ret %struct.node*** %26, !llfi_index !1249
}

; Function Attrs: mustprogress noinline nounwind uwtable
define linkonce_odr dso_local i64 @_ZNSt5dequeIP4nodeSaIS1_EE11_S_max_sizeERKS2_(%"class.std::ios_base::Init"* nonnull align 1 dereferenceable(1) %0) #5 comdat align 2 personality i8* bitcast (i32 (...)* @__gxx_personality_v0 to i8*) {
  %2 = alloca %"class.std::ios_base::Init"*, align 8, !llfi_index !1250
  %3 = alloca i64, align 8, !llfi_index !1251
  %4 = alloca i64, align 8, !llfi_index !1252
  store %"class.std::ios_base::Init"* %0, %"class.std::ios_base::Init"** %2, align 8, !llfi_index !1253
  store i64 9223372036854775807, i64* %3, align 8, !llfi_index !1254
  %5 = load %"class.std::ios_base::Init"*, %"class.std::ios_base::Init"** %2, align 8, !llfi_index !1255
  %6 = call i64 @_ZNSt16allocator_traitsISaIP4nodeEE8max_sizeERKS2_(%"class.std::ios_base::Init"* nonnull align 1 dereferenceable(1) %5) #2, !llfi_index !1256
  store i64 %6, i64* %4, align 8, !llfi_index !1257
  %7 = invoke nonnull align 8 dereferenceable(8) i64* @_ZSt3minImERKT_S2_S2_(i64* nonnull align 8 dereferenceable(8) %3, i64* nonnull align 8 dereferenceable(8) %4)
          to label %8 unwind label %10, !llfi_index !1258

8:                                                ; preds = %1
  %9 = load i64, i64* %7, align 8, !llfi_index !1259
  ret i64 %9, !llfi_index !1260

10:                                               ; preds = %1
  %11 = landingpad { i8*, i32 }
          catch i8* null, !llfi_index !1261
  %12 = extractvalue { i8*, i32 } %11, 0, !llfi_index !1262
  call void @__clang_call_terminate(i8* %12) #13, !llfi_index !1263
  unreachable, !llfi_index !1264
}

; Function Attrs: mustprogress noinline nounwind uwtable
define linkonce_odr dso_local i64 @_ZNSt16allocator_traitsISaIP4nodeEE8max_sizeERKS2_(%"class.std::ios_base::Init"* nonnull align 1 dereferenceable(1) %0) #5 comdat align 2 {
  %2 = alloca %"class.std::ios_base::Init"*, align 8, !llfi_index !1265
  store %"class.std::ios_base::Init"* %0, %"class.std::ios_base::Init"** %2, align 8, !llfi_index !1266
  %3 = load %"class.std::ios_base::Init"*, %"class.std::ios_base::Init"** %2, align 8, !llfi_index !1267
  %4 = bitcast %"class.std::ios_base::Init"* %3 to %"class.std::ios_base::Init"*, !llfi_index !1268
  %5 = call i64 @_ZNK9__gnu_cxx13new_allocatorIP4nodeE8max_sizeEv(%"class.std::ios_base::Init"* nonnull align 1 dereferenceable(1) %4) #2, !llfi_index !1269
  ret i64 %5, !llfi_index !1270
}

; Function Attrs: mustprogress noinline nounwind uwtable
define linkonce_odr dso_local nonnull align 8 dereferenceable(8) i64* @_ZSt3minImERKT_S2_S2_(i64* nonnull align 8 dereferenceable(8) %0, i64* nonnull align 8 dereferenceable(8) %1) #5 comdat {
  %3 = alloca i64*, align 8, !llfi_index !1271
  %4 = alloca i64*, align 8, !llfi_index !1272
  %5 = alloca i64*, align 8, !llfi_index !1273
  store i64* %0, i64** %4, align 8, !llfi_index !1274
  store i64* %1, i64** %5, align 8, !llfi_index !1275
  %6 = load i64*, i64** %5, align 8, !llfi_index !1276
  %7 = load i64, i64* %6, align 8, !llfi_index !1277
  %8 = load i64*, i64** %4, align 8, !llfi_index !1278
  %9 = load i64, i64* %8, align 8, !llfi_index !1279
  %10 = icmp ult i64 %7, %9, !llfi_index !1280
  br i1 %10, label %11, label %13, !llfi_index !1281

11:                                               ; preds = %2
  %12 = load i64*, i64** %5, align 8, !llfi_index !1282
  store i64* %12, i64** %3, align 8, !llfi_index !1283
  br label %15, !llfi_index !1284

13:                                               ; preds = %2
  %14 = load i64*, i64** %4, align 8, !llfi_index !1285
  store i64* %14, i64** %3, align 8, !llfi_index !1286
  br label %15, !llfi_index !1287

15:                                               ; preds = %13, %11
  %16 = load i64*, i64** %3, align 8, !llfi_index !1288
  ret i64* %16, !llfi_index !1289
}

; Function Attrs: mustprogress noinline nounwind uwtable
define linkonce_odr dso_local i64 @_ZStmiIP4nodeRS1_PS1_ENSt15_Deque_iteratorIT_T0_T1_E15difference_typeERKS8_SB_(%"struct.std::_Deque_iterator"* nonnull align 8 dereferenceable(32) %0, %"struct.std::_Deque_iterator"* nonnull align 8 dereferenceable(32) %1) #5 comdat {
  %3 = alloca %"struct.std::_Deque_iterator"*, align 8, !llfi_index !1290
  %4 = alloca %"struct.std::_Deque_iterator"*, align 8, !llfi_index !1291
  store %"struct.std::_Deque_iterator"* %0, %"struct.std::_Deque_iterator"** %3, align 8, !llfi_index !1292
  store %"struct.std::_Deque_iterator"* %1, %"struct.std::_Deque_iterator"** %4, align 8, !llfi_index !1293
  %5 = call i64 @_ZNSt15_Deque_iteratorIP4nodeRS1_PS1_E14_S_buffer_sizeEv() #2, !llfi_index !1294
  %6 = load %"struct.std::_Deque_iterator"*, %"struct.std::_Deque_iterator"** %3, align 8, !llfi_index !1295
  %7 = getelementptr inbounds %"struct.std::_Deque_iterator", %"struct.std::_Deque_iterator"* %6, i32 0, i32 3, !llfi_index !1296
  %8 = load %struct.node***, %struct.node**** %7, align 8, !llfi_index !1297
  %9 = load %"struct.std::_Deque_iterator"*, %"struct.std::_Deque_iterator"** %4, align 8, !llfi_index !1298
  %10 = getelementptr inbounds %"struct.std::_Deque_iterator", %"struct.std::_Deque_iterator"* %9, i32 0, i32 3, !llfi_index !1299
  %11 = load %struct.node***, %struct.node**** %10, align 8, !llfi_index !1300
  %12 = ptrtoint %struct.node*** %8 to i64, !llfi_index !1301
  %13 = ptrtoint %struct.node*** %11 to i64, !llfi_index !1302
  %14 = sub i64 %12, %13, !llfi_index !1303
  %15 = sdiv exact i64 %14, 8, !llfi_index !1304
  %16 = sub nsw i64 %15, 1, !llfi_index !1305
  %17 = mul nsw i64 %5, %16, !llfi_index !1306
  %18 = load %"struct.std::_Deque_iterator"*, %"struct.std::_Deque_iterator"** %3, align 8, !llfi_index !1307
  %19 = getelementptr inbounds %"struct.std::_Deque_iterator", %"struct.std::_Deque_iterator"* %18, i32 0, i32 0, !llfi_index !1308
  %20 = load %struct.node**, %struct.node*** %19, align 8, !llfi_index !1309
  %21 = load %"struct.std::_Deque_iterator"*, %"struct.std::_Deque_iterator"** %3, align 8, !llfi_index !1310
  %22 = getelementptr inbounds %"struct.std::_Deque_iterator", %"struct.std::_Deque_iterator"* %21, i32 0, i32 1, !llfi_index !1311
  %23 = load %struct.node**, %struct.node*** %22, align 8, !llfi_index !1312
  %24 = ptrtoint %struct.node** %20 to i64, !llfi_index !1313
  %25 = ptrtoint %struct.node** %23 to i64, !llfi_index !1314
  %26 = sub i64 %24, %25, !llfi_index !1315
  %27 = sdiv exact i64 %26, 8, !llfi_index !1316
  %28 = add nsw i64 %17, %27, !llfi_index !1317
  %29 = load %"struct.std::_Deque_iterator"*, %"struct.std::_Deque_iterator"** %4, align 8, !llfi_index !1318
  %30 = getelementptr inbounds %"struct.std::_Deque_iterator", %"struct.std::_Deque_iterator"* %29, i32 0, i32 2, !llfi_index !1319
  %31 = load %struct.node**, %struct.node*** %30, align 8, !llfi_index !1320
  %32 = load %"struct.std::_Deque_iterator"*, %"struct.std::_Deque_iterator"** %4, align 8, !llfi_index !1321
  %33 = getelementptr inbounds %"struct.std::_Deque_iterator", %"struct.std::_Deque_iterator"* %32, i32 0, i32 0, !llfi_index !1322
  %34 = load %struct.node**, %struct.node*** %33, align 8, !llfi_index !1323
  %35 = ptrtoint %struct.node** %31 to i64, !llfi_index !1324
  %36 = ptrtoint %struct.node** %34 to i64, !llfi_index !1325
  %37 = sub i64 %35, %36, !llfi_index !1326
  %38 = sdiv exact i64 %37, 8, !llfi_index !1327
  %39 = add nsw i64 %28, %38, !llfi_index !1328
  ret i64 %39, !llfi_index !1329
}

; Function Attrs: mustprogress noinline nounwind uwtable
define linkonce_odr dso_local void @_ZN9__gnu_cxx13new_allocatorIP4nodeE9constructIS2_JS2_EEEvPT_DpOT0_(%"class.std::ios_base::Init"* nonnull align 1 dereferenceable(1) %0, %struct.node** %1, %struct.node** nonnull align 8 dereferenceable(8) %2) #5 comdat align 2 {
  %4 = alloca %"class.std::ios_base::Init"*, align 8, !llfi_index !1330
  %5 = alloca %struct.node**, align 8, !llfi_index !1331
  %6 = alloca %struct.node**, align 8, !llfi_index !1332
  store %"class.std::ios_base::Init"* %0, %"class.std::ios_base::Init"** %4, align 8, !llfi_index !1333
  store %struct.node** %1, %struct.node*** %5, align 8, !llfi_index !1334
  store %struct.node** %2, %struct.node*** %6, align 8, !llfi_index !1335
  %7 = load %"class.std::ios_base::Init"*, %"class.std::ios_base::Init"** %4, align 8, !llfi_index !1336
  %8 = load %struct.node**, %struct.node*** %5, align 8, !llfi_index !1337
  %9 = bitcast %struct.node** %8 to i8*, !llfi_index !1338
  %10 = bitcast i8* %9 to %struct.node**, !llfi_index !1339
  %11 = load %struct.node**, %struct.node*** %6, align 8, !llfi_index !1340
  %12 = call nonnull align 8 dereferenceable(8) %struct.node** @_ZSt7forwardIP4nodeEOT_RNSt16remove_referenceIS2_E4typeE(%struct.node** nonnull align 8 dereferenceable(8) %11) #2, !llfi_index !1341
  %13 = load %struct.node*, %struct.node** %12, align 8, !llfi_index !1342
  store %struct.node* %13, %struct.node** %10, align 8, !llfi_index !1343
  ret void, !llfi_index !1344
}

; Function Attrs: mustprogress noinline uwtable
define linkonce_odr dso_local void @_ZNSt5dequeIP4nodeSaIS1_EE9push_backERKS1_(%"class.std::deque"* nonnull align 8 dereferenceable(80) %0, %struct.node** nonnull align 8 dereferenceable(8) %1) #4 comdat align 2 {
  %3 = alloca %"class.std::deque"*, align 8, !llfi_index !1345
  %4 = alloca %struct.node**, align 8, !llfi_index !1346
  store %"class.std::deque"* %0, %"class.std::deque"** %3, align 8, !llfi_index !1347
  store %struct.node** %1, %struct.node*** %4, align 8, !llfi_index !1348
  %5 = load %"class.std::deque"*, %"class.std::deque"** %3, align 8, !llfi_index !1349
  %6 = bitcast %"class.std::deque"* %5 to %"class.std::_Deque_base"*, !llfi_index !1350
  %7 = getelementptr inbounds %"class.std::_Deque_base", %"class.std::_Deque_base"* %6, i32 0, i32 0, !llfi_index !1351
  %8 = getelementptr inbounds %"struct.std::_Deque_base<node *, std::allocator<node *>>::_Deque_impl", %"struct.std::_Deque_base<node *, std::allocator<node *>>::_Deque_impl"* %7, i32 0, i32 3, !llfi_index !1352
  %9 = getelementptr inbounds %"struct.std::_Deque_iterator", %"struct.std::_Deque_iterator"* %8, i32 0, i32 0, !llfi_index !1353
  %10 = load %struct.node**, %struct.node*** %9, align 8, !llfi_index !1354
  %11 = bitcast %"class.std::deque"* %5 to %"class.std::_Deque_base"*, !llfi_index !1355
  %12 = getelementptr inbounds %"class.std::_Deque_base", %"class.std::_Deque_base"* %11, i32 0, i32 0, !llfi_index !1356
  %13 = getelementptr inbounds %"struct.std::_Deque_base<node *, std::allocator<node *>>::_Deque_impl", %"struct.std::_Deque_base<node *, std::allocator<node *>>::_Deque_impl"* %12, i32 0, i32 3, !llfi_index !1357
  %14 = getelementptr inbounds %"struct.std::_Deque_iterator", %"struct.std::_Deque_iterator"* %13, i32 0, i32 2, !llfi_index !1358
  %15 = load %struct.node**, %struct.node*** %14, align 8, !llfi_index !1359
  %16 = getelementptr inbounds %struct.node*, %struct.node** %15, i64 -1, !llfi_index !1360
  %17 = icmp ne %struct.node** %10, %16, !llfi_index !1361
  br i1 %17, label %18, label %34, !llfi_index !1362

18:                                               ; preds = %2
  %19 = bitcast %"class.std::deque"* %5 to %"class.std::_Deque_base"*, !llfi_index !1363
  %20 = getelementptr inbounds %"class.std::_Deque_base", %"class.std::_Deque_base"* %19, i32 0, i32 0, !llfi_index !1364
  %21 = bitcast %"struct.std::_Deque_base<node *, std::allocator<node *>>::_Deque_impl"* %20 to %"class.std::ios_base::Init"*, !llfi_index !1365
  %22 = bitcast %"class.std::deque"* %5 to %"class.std::_Deque_base"*, !llfi_index !1366
  %23 = getelementptr inbounds %"class.std::_Deque_base", %"class.std::_Deque_base"* %22, i32 0, i32 0, !llfi_index !1367
  %24 = getelementptr inbounds %"struct.std::_Deque_base<node *, std::allocator<node *>>::_Deque_impl", %"struct.std::_Deque_base<node *, std::allocator<node *>>::_Deque_impl"* %23, i32 0, i32 3, !llfi_index !1368
  %25 = getelementptr inbounds %"struct.std::_Deque_iterator", %"struct.std::_Deque_iterator"* %24, i32 0, i32 0, !llfi_index !1369
  %26 = load %struct.node**, %struct.node*** %25, align 8, !llfi_index !1370
  %27 = load %struct.node**, %struct.node*** %4, align 8, !llfi_index !1371
  call void @_ZNSt16allocator_traitsISaIP4nodeEE9constructIS1_JRKS1_EEEvRS2_PT_DpOT0_(%"class.std::ios_base::Init"* nonnull align 1 dereferenceable(1) %21, %struct.node** %26, %struct.node** nonnull align 8 dereferenceable(8) %27) #2, !llfi_index !1372
  %28 = bitcast %"class.std::deque"* %5 to %"class.std::_Deque_base"*, !llfi_index !1373
  %29 = getelementptr inbounds %"class.std::_Deque_base", %"class.std::_Deque_base"* %28, i32 0, i32 0, !llfi_index !1374
  %30 = getelementptr inbounds %"struct.std::_Deque_base<node *, std::allocator<node *>>::_Deque_impl", %"struct.std::_Deque_base<node *, std::allocator<node *>>::_Deque_impl"* %29, i32 0, i32 3, !llfi_index !1375
  %31 = getelementptr inbounds %"struct.std::_Deque_iterator", %"struct.std::_Deque_iterator"* %30, i32 0, i32 0, !llfi_index !1376
  %32 = load %struct.node**, %struct.node*** %31, align 8, !llfi_index !1377
  %33 = getelementptr inbounds %struct.node*, %struct.node** %32, i32 1, !llfi_index !1378
  store %struct.node** %33, %struct.node*** %31, align 8, !llfi_index !1379
  br label %36, !llfi_index !1380

34:                                               ; preds = %2
  %35 = load %struct.node**, %struct.node*** %4, align 8, !llfi_index !1381
  call void @_ZNSt5dequeIP4nodeSaIS1_EE16_M_push_back_auxIJRKS1_EEEvDpOT_(%"class.std::deque"* nonnull align 8 dereferenceable(80) %5, %struct.node** nonnull align 8 dereferenceable(8) %35), !llfi_index !1382
  br label %36, !llfi_index !1383

36:                                               ; preds = %34, %18
  ret void, !llfi_index !1384
}

; Function Attrs: mustprogress noinline nounwind uwtable
define linkonce_odr dso_local void @_ZNSt16allocator_traitsISaIP4nodeEE9constructIS1_JRKS1_EEEvRS2_PT_DpOT0_(%"class.std::ios_base::Init"* nonnull align 1 dereferenceable(1) %0, %struct.node** %1, %struct.node** nonnull align 8 dereferenceable(8) %2) #5 comdat align 2 {
  %4 = alloca %"class.std::ios_base::Init"*, align 8, !llfi_index !1385
  %5 = alloca %struct.node**, align 8, !llfi_index !1386
  %6 = alloca %struct.node**, align 8, !llfi_index !1387
  store %"class.std::ios_base::Init"* %0, %"class.std::ios_base::Init"** %4, align 8, !llfi_index !1388
  store %struct.node** %1, %struct.node*** %5, align 8, !llfi_index !1389
  store %struct.node** %2, %struct.node*** %6, align 8, !llfi_index !1390
  %7 = load %"class.std::ios_base::Init"*, %"class.std::ios_base::Init"** %4, align 8, !llfi_index !1391
  %8 = bitcast %"class.std::ios_base::Init"* %7 to %"class.std::ios_base::Init"*, !llfi_index !1392
  %9 = load %struct.node**, %struct.node*** %5, align 8, !llfi_index !1393
  %10 = load %struct.node**, %struct.node*** %6, align 8, !llfi_index !1394
  %11 = call nonnull align 8 dereferenceable(8) %struct.node** @_ZSt7forwardIRKP4nodeEOT_RNSt16remove_referenceIS4_E4typeE(%struct.node** nonnull align 8 dereferenceable(8) %10) #2, !llfi_index !1395
  call void @_ZN9__gnu_cxx13new_allocatorIP4nodeE9constructIS2_JRKS2_EEEvPT_DpOT0_(%"class.std::ios_base::Init"* nonnull align 1 dereferenceable(1) %8, %struct.node** %9, %struct.node** nonnull align 8 dereferenceable(8) %11) #2, !llfi_index !1396
  ret void, !llfi_index !1397
}

; Function Attrs: mustprogress noinline uwtable
define linkonce_odr dso_local void @_ZNSt5dequeIP4nodeSaIS1_EE16_M_push_back_auxIJRKS1_EEEvDpOT_(%"class.std::deque"* nonnull align 8 dereferenceable(80) %0, %struct.node** nonnull align 8 dereferenceable(8) %1) #4 comdat align 2 {
  %3 = alloca %"class.std::deque"*, align 8, !llfi_index !1398
  %4 = alloca %struct.node**, align 8, !llfi_index !1399
  store %"class.std::deque"* %0, %"class.std::deque"** %3, align 8, !llfi_index !1400
  store %struct.node** %1, %struct.node*** %4, align 8, !llfi_index !1401
  %5 = load %"class.std::deque"*, %"class.std::deque"** %3, align 8, !llfi_index !1402
  %6 = call i64 @_ZNKSt5dequeIP4nodeSaIS1_EE4sizeEv(%"class.std::deque"* nonnull align 8 dereferenceable(80) %5) #2, !llfi_index !1403
  %7 = call i64 @_ZNKSt5dequeIP4nodeSaIS1_EE8max_sizeEv(%"class.std::deque"* nonnull align 8 dereferenceable(80) %5) #2, !llfi_index !1404
  %8 = icmp eq i64 %6, %7, !llfi_index !1405
  br i1 %8, label %9, label %10, !llfi_index !1406

9:                                                ; preds = %2
  call void @_ZSt20__throw_length_errorPKc(i8* getelementptr inbounds ([48 x i8], [48 x i8]* @.str.2, i64 0, i64 0)) #14, !llfi_index !1407
  unreachable, !llfi_index !1408

10:                                               ; preds = %2
  call void @_ZNSt5dequeIP4nodeSaIS1_EE22_M_reserve_map_at_backEm(%"class.std::deque"* nonnull align 8 dereferenceable(80) %5, i64 1), !llfi_index !1409
  %11 = bitcast %"class.std::deque"* %5 to %"class.std::_Deque_base"*, !llfi_index !1410
  %12 = call %struct.node** @_ZNSt11_Deque_baseIP4nodeSaIS1_EE16_M_allocate_nodeEv(%"class.std::_Deque_base"* nonnull align 8 dereferenceable(80) %11), !llfi_index !1411
  %13 = bitcast %"class.std::deque"* %5 to %"class.std::_Deque_base"*, !llfi_index !1412
  %14 = getelementptr inbounds %"class.std::_Deque_base", %"class.std::_Deque_base"* %13, i32 0, i32 0, !llfi_index !1413
  %15 = getelementptr inbounds %"struct.std::_Deque_base<node *, std::allocator<node *>>::_Deque_impl", %"struct.std::_Deque_base<node *, std::allocator<node *>>::_Deque_impl"* %14, i32 0, i32 3, !llfi_index !1414
  %16 = getelementptr inbounds %"struct.std::_Deque_iterator", %"struct.std::_Deque_iterator"* %15, i32 0, i32 3, !llfi_index !1415
  %17 = load %struct.node***, %struct.node**** %16, align 8, !llfi_index !1416
  %18 = getelementptr inbounds %struct.node**, %struct.node*** %17, i64 1, !llfi_index !1417
  store %struct.node** %12, %struct.node*** %18, align 8, !llfi_index !1418
  %19 = bitcast %"class.std::deque"* %5 to %"class.std::_Deque_base"*, !llfi_index !1419
  %20 = getelementptr inbounds %"class.std::_Deque_base", %"class.std::_Deque_base"* %19, i32 0, i32 0, !llfi_index !1420
  %21 = bitcast %"struct.std::_Deque_base<node *, std::allocator<node *>>::_Deque_impl"* %20 to %"class.std::ios_base::Init"*, !llfi_index !1421
  %22 = bitcast %"class.std::deque"* %5 to %"class.std::_Deque_base"*, !llfi_index !1422
  %23 = getelementptr inbounds %"class.std::_Deque_base", %"class.std::_Deque_base"* %22, i32 0, i32 0, !llfi_index !1423
  %24 = getelementptr inbounds %"struct.std::_Deque_base<node *, std::allocator<node *>>::_Deque_impl", %"struct.std::_Deque_base<node *, std::allocator<node *>>::_Deque_impl"* %23, i32 0, i32 3, !llfi_index !1424
  %25 = getelementptr inbounds %"struct.std::_Deque_iterator", %"struct.std::_Deque_iterator"* %24, i32 0, i32 0, !llfi_index !1425
  %26 = load %struct.node**, %struct.node*** %25, align 8, !llfi_index !1426
  %27 = load %struct.node**, %struct.node*** %4, align 8, !llfi_index !1427
  %28 = call nonnull align 8 dereferenceable(8) %struct.node** @_ZSt7forwardIRKP4nodeEOT_RNSt16remove_referenceIS4_E4typeE(%struct.node** nonnull align 8 dereferenceable(8) %27) #2, !llfi_index !1428
  call void @_ZNSt16allocator_traitsISaIP4nodeEE9constructIS1_JRKS1_EEEvRS2_PT_DpOT0_(%"class.std::ios_base::Init"* nonnull align 1 dereferenceable(1) %21, %struct.node** %26, %struct.node** nonnull align 8 dereferenceable(8) %28) #2, !llfi_index !1429
  %29 = bitcast %"class.std::deque"* %5 to %"class.std::_Deque_base"*, !llfi_index !1430
  %30 = getelementptr inbounds %"class.std::_Deque_base", %"class.std::_Deque_base"* %29, i32 0, i32 0, !llfi_index !1431
  %31 = getelementptr inbounds %"struct.std::_Deque_base<node *, std::allocator<node *>>::_Deque_impl", %"struct.std::_Deque_base<node *, std::allocator<node *>>::_Deque_impl"* %30, i32 0, i32 3, !llfi_index !1432
  %32 = bitcast %"class.std::deque"* %5 to %"class.std::_Deque_base"*, !llfi_index !1433
  %33 = getelementptr inbounds %"class.std::_Deque_base", %"class.std::_Deque_base"* %32, i32 0, i32 0, !llfi_index !1434
  %34 = getelementptr inbounds %"struct.std::_Deque_base<node *, std::allocator<node *>>::_Deque_impl", %"struct.std::_Deque_base<node *, std::allocator<node *>>::_Deque_impl"* %33, i32 0, i32 3, !llfi_index !1435
  %35 = getelementptr inbounds %"struct.std::_Deque_iterator", %"struct.std::_Deque_iterator"* %34, i32 0, i32 3, !llfi_index !1436
  %36 = load %struct.node***, %struct.node**** %35, align 8, !llfi_index !1437
  %37 = getelementptr inbounds %struct.node**, %struct.node*** %36, i64 1, !llfi_index !1438
  call void @_ZNSt15_Deque_iteratorIP4nodeRS1_PS1_E11_M_set_nodeEPS3_(%"struct.std::_Deque_iterator"* nonnull align 8 dereferenceable(32) %31, %struct.node*** %37) #2, !llfi_index !1439
  %38 = bitcast %"class.std::deque"* %5 to %"class.std::_Deque_base"*, !llfi_index !1440
  %39 = getelementptr inbounds %"class.std::_Deque_base", %"class.std::_Deque_base"* %38, i32 0, i32 0, !llfi_index !1441
  %40 = getelementptr inbounds %"struct.std::_Deque_base<node *, std::allocator<node *>>::_Deque_impl", %"struct.std::_Deque_base<node *, std::allocator<node *>>::_Deque_impl"* %39, i32 0, i32 3, !llfi_index !1442
  %41 = getelementptr inbounds %"struct.std::_Deque_iterator", %"struct.std::_Deque_iterator"* %40, i32 0, i32 1, !llfi_index !1443
  %42 = load %struct.node**, %struct.node*** %41, align 8, !llfi_index !1444
  %43 = bitcast %"class.std::deque"* %5 to %"class.std::_Deque_base"*, !llfi_index !1445
  %44 = getelementptr inbounds %"class.std::_Deque_base", %"class.std::_Deque_base"* %43, i32 0, i32 0, !llfi_index !1446
  %45 = getelementptr inbounds %"struct.std::_Deque_base<node *, std::allocator<node *>>::_Deque_impl", %"struct.std::_Deque_base<node *, std::allocator<node *>>::_Deque_impl"* %44, i32 0, i32 3, !llfi_index !1447
  %46 = getelementptr inbounds %"struct.std::_Deque_iterator", %"struct.std::_Deque_iterator"* %45, i32 0, i32 0, !llfi_index !1448
  store %struct.node** %42, %struct.node*** %46, align 8, !llfi_index !1449
  ret void, !llfi_index !1450
}

; Function Attrs: mustprogress noinline nounwind uwtable
define linkonce_odr dso_local nonnull align 8 dereferenceable(8) %struct.node** @_ZSt7forwardIRKP4nodeEOT_RNSt16remove_referenceIS4_E4typeE(%struct.node** nonnull align 8 dereferenceable(8) %0) #5 comdat {
  %2 = alloca %struct.node**, align 8, !llfi_index !1451
  store %struct.node** %0, %struct.node*** %2, align 8, !llfi_index !1452
  %3 = load %struct.node**, %struct.node*** %2, align 8, !llfi_index !1453
  ret %struct.node** %3, !llfi_index !1454
}

; Function Attrs: mustprogress noinline nounwind uwtable
define linkonce_odr dso_local void @_ZN9__gnu_cxx13new_allocatorIP4nodeE9constructIS2_JRKS2_EEEvPT_DpOT0_(%"class.std::ios_base::Init"* nonnull align 1 dereferenceable(1) %0, %struct.node** %1, %struct.node** nonnull align 8 dereferenceable(8) %2) #5 comdat align 2 {
  %4 = alloca %"class.std::ios_base::Init"*, align 8, !llfi_index !1455
  %5 = alloca %struct.node**, align 8, !llfi_index !1456
  %6 = alloca %struct.node**, align 8, !llfi_index !1457
  store %"class.std::ios_base::Init"* %0, %"class.std::ios_base::Init"** %4, align 8, !llfi_index !1458
  store %struct.node** %1, %struct.node*** %5, align 8, !llfi_index !1459
  store %struct.node** %2, %struct.node*** %6, align 8, !llfi_index !1460
  %7 = load %"class.std::ios_base::Init"*, %"class.std::ios_base::Init"** %4, align 8, !llfi_index !1461
  %8 = load %struct.node**, %struct.node*** %5, align 8, !llfi_index !1462
  %9 = bitcast %struct.node** %8 to i8*, !llfi_index !1463
  %10 = bitcast i8* %9 to %struct.node**, !llfi_index !1464
  %11 = load %struct.node**, %struct.node*** %6, align 8, !llfi_index !1465
  %12 = call nonnull align 8 dereferenceable(8) %struct.node** @_ZSt7forwardIRKP4nodeEOT_RNSt16remove_referenceIS4_E4typeE(%struct.node** nonnull align 8 dereferenceable(8) %11) #2, !llfi_index !1466
  %13 = load %struct.node*, %struct.node** %12, align 8, !llfi_index !1467
  store %struct.node* %13, %struct.node** %10, align 8, !llfi_index !1468
  ret void, !llfi_index !1469
}

; Function Attrs: noinline uwtable
define linkonce_odr dso_local void @_ZNSt5dequeIP4nodeSaIS1_EEC2Ev(%"class.std::deque"* nonnull align 8 dereferenceable(80) %0) unnamed_addr #0 comdat align 2 {
  %2 = alloca %"class.std::deque"*, align 8, !llfi_index !1470
  store %"class.std::deque"* %0, %"class.std::deque"** %2, align 8, !llfi_index !1471
  %3 = load %"class.std::deque"*, %"class.std::deque"** %2, align 8, !llfi_index !1472
  %4 = bitcast %"class.std::deque"* %3 to %"class.std::_Deque_base"*, !llfi_index !1473
  call void @_ZNSt11_Deque_baseIP4nodeSaIS1_EEC2Ev(%"class.std::_Deque_base"* nonnull align 8 dereferenceable(80) %4), !llfi_index !1474
  ret void, !llfi_index !1475
}

; Function Attrs: noinline uwtable
define linkonce_odr dso_local void @_ZNSt11_Deque_baseIP4nodeSaIS1_EEC2Ev(%"class.std::_Deque_base"* nonnull align 8 dereferenceable(80) %0) unnamed_addr #0 comdat align 2 personality i8* bitcast (i32 (...)* @__gxx_personality_v0 to i8*) {
  %2 = alloca %"class.std::_Deque_base"*, align 8, !llfi_index !1476
  %3 = alloca i8*, align 8, !llfi_index !1477
  %4 = alloca i32, align 4, !llfi_index !1478
  store %"class.std::_Deque_base"* %0, %"class.std::_Deque_base"** %2, align 8, !llfi_index !1479
  %5 = load %"class.std::_Deque_base"*, %"class.std::_Deque_base"** %2, align 8, !llfi_index !1480
  %6 = getelementptr inbounds %"class.std::_Deque_base", %"class.std::_Deque_base"* %5, i32 0, i32 0, !llfi_index !1481
  call void @_ZNSt11_Deque_baseIP4nodeSaIS1_EE11_Deque_implC2Ev(%"struct.std::_Deque_base<node *, std::allocator<node *>>::_Deque_impl"* nonnull align 8 dereferenceable(80) %6), !llfi_index !1482
  invoke void @_ZNSt11_Deque_baseIP4nodeSaIS1_EE17_M_initialize_mapEm(%"class.std::_Deque_base"* nonnull align 8 dereferenceable(80) %5, i64 0)
          to label %7 unwind label %8, !llfi_index !1483

7:                                                ; preds = %1
  ret void, !llfi_index !1484

8:                                                ; preds = %1
  %9 = landingpad { i8*, i32 }
          cleanup, !llfi_index !1485
  %10 = extractvalue { i8*, i32 } %9, 0, !llfi_index !1486
  store i8* %10, i8** %3, align 8, !llfi_index !1487
  %11 = extractvalue { i8*, i32 } %9, 1, !llfi_index !1488
  store i32 %11, i32* %4, align 4, !llfi_index !1489
  call void @_ZNSt11_Deque_baseIP4nodeSaIS1_EE11_Deque_implD2Ev(%"struct.std::_Deque_base<node *, std::allocator<node *>>::_Deque_impl"* nonnull align 8 dereferenceable(80) %6) #2, !llfi_index !1490
  br label %12, !llfi_index !1491

12:                                               ; preds = %8
  %13 = load i8*, i8** %3, align 8, !llfi_index !1492
  %14 = load i32, i32* %4, align 4, !llfi_index !1493
  %15 = insertvalue { i8*, i32 } undef, i8* %13, 0, !llfi_index !1494
  %16 = insertvalue { i8*, i32 } %15, i32 %14, 1, !llfi_index !1495
  resume { i8*, i32 } %16, !llfi_index !1496
}

; Function Attrs: noinline nounwind uwtable
define linkonce_odr dso_local void @_ZNSt11_Deque_baseIP4nodeSaIS1_EE11_Deque_implC2Ev(%"struct.std::_Deque_base<node *, std::allocator<node *>>::_Deque_impl"* nonnull align 8 dereferenceable(80) %0) unnamed_addr #6 comdat align 2 {
  %2 = alloca %"struct.std::_Deque_base<node *, std::allocator<node *>>::_Deque_impl"*, align 8, !llfi_index !1497
  store %"struct.std::_Deque_base<node *, std::allocator<node *>>::_Deque_impl"* %0, %"struct.std::_Deque_base<node *, std::allocator<node *>>::_Deque_impl"** %2, align 8, !llfi_index !1498
  %3 = load %"struct.std::_Deque_base<node *, std::allocator<node *>>::_Deque_impl"*, %"struct.std::_Deque_base<node *, std::allocator<node *>>::_Deque_impl"** %2, align 8, !llfi_index !1499
  %4 = bitcast %"struct.std::_Deque_base<node *, std::allocator<node *>>::_Deque_impl"* %3 to %"class.std::ios_base::Init"*, !llfi_index !1500
  call void @_ZNSaIP4nodeEC2Ev(%"class.std::ios_base::Init"* nonnull align 1 dereferenceable(1) %4) #2, !llfi_index !1501
  %5 = getelementptr inbounds %"struct.std::_Deque_base<node *, std::allocator<node *>>::_Deque_impl", %"struct.std::_Deque_base<node *, std::allocator<node *>>::_Deque_impl"* %3, i32 0, i32 0, !llfi_index !1502
  store %struct.node*** null, %struct.node**** %5, align 8, !llfi_index !1503
  %6 = getelementptr inbounds %"struct.std::_Deque_base<node *, std::allocator<node *>>::_Deque_impl", %"struct.std::_Deque_base<node *, std::allocator<node *>>::_Deque_impl"* %3, i32 0, i32 1, !llfi_index !1504
  store i64 0, i64* %6, align 8, !llfi_index !1505
  %7 = getelementptr inbounds %"struct.std::_Deque_base<node *, std::allocator<node *>>::_Deque_impl", %"struct.std::_Deque_base<node *, std::allocator<node *>>::_Deque_impl"* %3, i32 0, i32 2, !llfi_index !1506
  call void @_ZNSt15_Deque_iteratorIP4nodeRS1_PS1_EC2Ev(%"struct.std::_Deque_iterator"* nonnull align 8 dereferenceable(32) %7) #2, !llfi_index !1507
  %8 = getelementptr inbounds %"struct.std::_Deque_base<node *, std::allocator<node *>>::_Deque_impl", %"struct.std::_Deque_base<node *, std::allocator<node *>>::_Deque_impl"* %3, i32 0, i32 3, !llfi_index !1508
  call void @_ZNSt15_Deque_iteratorIP4nodeRS1_PS1_EC2Ev(%"struct.std::_Deque_iterator"* nonnull align 8 dereferenceable(32) %8) #2, !llfi_index !1509
  ret void, !llfi_index !1510
}

; Function Attrs: mustprogress noinline uwtable
define linkonce_odr dso_local void @_ZNSt11_Deque_baseIP4nodeSaIS1_EE17_M_initialize_mapEm(%"class.std::_Deque_base"* nonnull align 8 dereferenceable(80) %0, i64 %1) #4 comdat align 2 personality i8* bitcast (i32 (...)* @__gxx_personality_v0 to i8*) {
  %3 = alloca %"class.std::_Deque_base"*, align 8, !llfi_index !1511
  %4 = alloca i64, align 8, !llfi_index !1512
  %5 = alloca i64, align 8, !llfi_index !1513
  %6 = alloca i64, align 8, !llfi_index !1514
  %7 = alloca i64, align 8, !llfi_index !1515
  %8 = alloca %struct.node***, align 8, !llfi_index !1516
  %9 = alloca %struct.node***, align 8, !llfi_index !1517
  %10 = alloca i8*, align 8, !llfi_index !1518
  %11 = alloca i32, align 4, !llfi_index !1519
  store %"class.std::_Deque_base"* %0, %"class.std::_Deque_base"** %3, align 8, !llfi_index !1520
  store i64 %1, i64* %4, align 8, !llfi_index !1521
  %12 = load %"class.std::_Deque_base"*, %"class.std::_Deque_base"** %3, align 8, !llfi_index !1522
  %13 = load i64, i64* %4, align 8, !llfi_index !1523
  %14 = call i64 @_ZSt16__deque_buf_sizem(i64 8), !llfi_index !1524
  %15 = udiv i64 %13, %14, !llfi_index !1525
  %16 = add i64 %15, 1, !llfi_index !1526
  store i64 %16, i64* %5, align 8, !llfi_index !1527
  store i64 8, i64* %6, align 8, !llfi_index !1528
  %17 = load i64, i64* %5, align 8, !llfi_index !1529
  %18 = add i64 %17, 2, !llfi_index !1530
  store i64 %18, i64* %7, align 8, !llfi_index !1531
  %19 = call nonnull align 8 dereferenceable(8) i64* @_ZSt3maxImERKT_S2_S2_(i64* nonnull align 8 dereferenceable(8) %6, i64* nonnull align 8 dereferenceable(8) %7), !llfi_index !1532
  %20 = load i64, i64* %19, align 8, !llfi_index !1533
  %21 = getelementptr inbounds %"class.std::_Deque_base", %"class.std::_Deque_base"* %12, i32 0, i32 0, !llfi_index !1534
  %22 = getelementptr inbounds %"struct.std::_Deque_base<node *, std::allocator<node *>>::_Deque_impl", %"struct.std::_Deque_base<node *, std::allocator<node *>>::_Deque_impl"* %21, i32 0, i32 1, !llfi_index !1535
  store i64 %20, i64* %22, align 8, !llfi_index !1536
  %23 = getelementptr inbounds %"class.std::_Deque_base", %"class.std::_Deque_base"* %12, i32 0, i32 0, !llfi_index !1537
  %24 = getelementptr inbounds %"struct.std::_Deque_base<node *, std::allocator<node *>>::_Deque_impl", %"struct.std::_Deque_base<node *, std::allocator<node *>>::_Deque_impl"* %23, i32 0, i32 1, !llfi_index !1538
  %25 = load i64, i64* %24, align 8, !llfi_index !1539
  %26 = call %struct.node*** @_ZNSt11_Deque_baseIP4nodeSaIS1_EE15_M_allocate_mapEm(%"class.std::_Deque_base"* nonnull align 8 dereferenceable(80) %12, i64 %25), !llfi_index !1540
  %27 = getelementptr inbounds %"class.std::_Deque_base", %"class.std::_Deque_base"* %12, i32 0, i32 0, !llfi_index !1541
  %28 = getelementptr inbounds %"struct.std::_Deque_base<node *, std::allocator<node *>>::_Deque_impl", %"struct.std::_Deque_base<node *, std::allocator<node *>>::_Deque_impl"* %27, i32 0, i32 0, !llfi_index !1542
  store %struct.node*** %26, %struct.node**** %28, align 8, !llfi_index !1543
  %29 = getelementptr inbounds %"class.std::_Deque_base", %"class.std::_Deque_base"* %12, i32 0, i32 0, !llfi_index !1544
  %30 = getelementptr inbounds %"struct.std::_Deque_base<node *, std::allocator<node *>>::_Deque_impl", %"struct.std::_Deque_base<node *, std::allocator<node *>>::_Deque_impl"* %29, i32 0, i32 0, !llfi_index !1545
  %31 = load %struct.node***, %struct.node**** %30, align 8, !llfi_index !1546
  %32 = getelementptr inbounds %"class.std::_Deque_base", %"class.std::_Deque_base"* %12, i32 0, i32 0, !llfi_index !1547
  %33 = getelementptr inbounds %"struct.std::_Deque_base<node *, std::allocator<node *>>::_Deque_impl", %"struct.std::_Deque_base<node *, std::allocator<node *>>::_Deque_impl"* %32, i32 0, i32 1, !llfi_index !1548
  %34 = load i64, i64* %33, align 8, !llfi_index !1549
  %35 = load i64, i64* %5, align 8, !llfi_index !1550
  %36 = sub i64 %34, %35, !llfi_index !1551
  %37 = udiv i64 %36, 2, !llfi_index !1552
  %38 = getelementptr inbounds %struct.node**, %struct.node*** %31, i64 %37, !llfi_index !1553
  store %struct.node*** %38, %struct.node**** %8, align 8, !llfi_index !1554
  %39 = load %struct.node***, %struct.node**** %8, align 8, !llfi_index !1555
  %40 = load i64, i64* %5, align 8, !llfi_index !1556
  %41 = getelementptr inbounds %struct.node**, %struct.node*** %39, i64 %40, !llfi_index !1557
  store %struct.node*** %41, %struct.node**** %9, align 8, !llfi_index !1558
  %42 = load %struct.node***, %struct.node**** %8, align 8, !llfi_index !1559
  %43 = load %struct.node***, %struct.node**** %9, align 8, !llfi_index !1560
  invoke void @_ZNSt11_Deque_baseIP4nodeSaIS1_EE15_M_create_nodesEPPS1_S5_(%"class.std::_Deque_base"* nonnull align 8 dereferenceable(80) %12, %struct.node*** %42, %struct.node*** %43)
          to label %44 unwind label %45, !llfi_index !1561

44:                                               ; preds = %2
  br label %67, !llfi_index !1562

45:                                               ; preds = %2
  %46 = landingpad { i8*, i32 }
          catch i8* null, !llfi_index !1563
  %47 = extractvalue { i8*, i32 } %46, 0, !llfi_index !1564
  store i8* %47, i8** %10, align 8, !llfi_index !1565
  %48 = extractvalue { i8*, i32 } %46, 1, !llfi_index !1566
  store i32 %48, i32* %11, align 4, !llfi_index !1567
  br label %49, !llfi_index !1568

49:                                               ; preds = %45
  %50 = load i8*, i8** %10, align 8, !llfi_index !1569
  %51 = call i8* @__cxa_begin_catch(i8* %50) #2, !llfi_index !1570
  %52 = getelementptr inbounds %"class.std::_Deque_base", %"class.std::_Deque_base"* %12, i32 0, i32 0, !llfi_index !1571
  %53 = getelementptr inbounds %"struct.std::_Deque_base<node *, std::allocator<node *>>::_Deque_impl", %"struct.std::_Deque_base<node *, std::allocator<node *>>::_Deque_impl"* %52, i32 0, i32 0, !llfi_index !1572
  %54 = load %struct.node***, %struct.node**** %53, align 8, !llfi_index !1573
  %55 = getelementptr inbounds %"class.std::_Deque_base", %"class.std::_Deque_base"* %12, i32 0, i32 0, !llfi_index !1574
  %56 = getelementptr inbounds %"struct.std::_Deque_base<node *, std::allocator<node *>>::_Deque_impl", %"struct.std::_Deque_base<node *, std::allocator<node *>>::_Deque_impl"* %55, i32 0, i32 1, !llfi_index !1575
  %57 = load i64, i64* %56, align 8, !llfi_index !1576
  call void @_ZNSt11_Deque_baseIP4nodeSaIS1_EE17_M_deallocate_mapEPPS1_m(%"class.std::_Deque_base"* nonnull align 8 dereferenceable(80) %12, %struct.node*** %54, i64 %57) #2, !llfi_index !1577
  %58 = getelementptr inbounds %"class.std::_Deque_base", %"class.std::_Deque_base"* %12, i32 0, i32 0, !llfi_index !1578
  %59 = getelementptr inbounds %"struct.std::_Deque_base<node *, std::allocator<node *>>::_Deque_impl", %"struct.std::_Deque_base<node *, std::allocator<node *>>::_Deque_impl"* %58, i32 0, i32 0, !llfi_index !1579
  store %struct.node*** null, %struct.node**** %59, align 8, !llfi_index !1580
  %60 = getelementptr inbounds %"class.std::_Deque_base", %"class.std::_Deque_base"* %12, i32 0, i32 0, !llfi_index !1581
  %61 = getelementptr inbounds %"struct.std::_Deque_base<node *, std::allocator<node *>>::_Deque_impl", %"struct.std::_Deque_base<node *, std::allocator<node *>>::_Deque_impl"* %60, i32 0, i32 1, !llfi_index !1582
  store i64 0, i64* %61, align 8, !llfi_index !1583
  invoke void @__cxa_rethrow() #14
          to label %101 unwind label %62, !llfi_index !1584

62:                                               ; preds = %49
  %63 = landingpad { i8*, i32 }
          cleanup, !llfi_index !1585
  %64 = extractvalue { i8*, i32 } %63, 0, !llfi_index !1586
  store i8* %64, i8** %10, align 8, !llfi_index !1587
  %65 = extractvalue { i8*, i32 } %63, 1, !llfi_index !1588
  store i32 %65, i32* %11, align 4, !llfi_index !1589
  invoke void @__cxa_end_catch()
          to label %66 unwind label %98, !llfi_index !1590

66:                                               ; preds = %62
  br label %93, !llfi_index !1591

67:                                               ; preds = %44
  %68 = getelementptr inbounds %"class.std::_Deque_base", %"class.std::_Deque_base"* %12, i32 0, i32 0, !llfi_index !1592
  %69 = getelementptr inbounds %"struct.std::_Deque_base<node *, std::allocator<node *>>::_Deque_impl", %"struct.std::_Deque_base<node *, std::allocator<node *>>::_Deque_impl"* %68, i32 0, i32 2, !llfi_index !1593
  %70 = load %struct.node***, %struct.node**** %8, align 8, !llfi_index !1594
  call void @_ZNSt15_Deque_iteratorIP4nodeRS1_PS1_E11_M_set_nodeEPS3_(%"struct.std::_Deque_iterator"* nonnull align 8 dereferenceable(32) %69, %struct.node*** %70) #2, !llfi_index !1595
  %71 = getelementptr inbounds %"class.std::_Deque_base", %"class.std::_Deque_base"* %12, i32 0, i32 0, !llfi_index !1596
  %72 = getelementptr inbounds %"struct.std::_Deque_base<node *, std::allocator<node *>>::_Deque_impl", %"struct.std::_Deque_base<node *, std::allocator<node *>>::_Deque_impl"* %71, i32 0, i32 3, !llfi_index !1597
  %73 = load %struct.node***, %struct.node**** %9, align 8, !llfi_index !1598
  %74 = getelementptr inbounds %struct.node**, %struct.node*** %73, i64 -1, !llfi_index !1599
  call void @_ZNSt15_Deque_iteratorIP4nodeRS1_PS1_E11_M_set_nodeEPS3_(%"struct.std::_Deque_iterator"* nonnull align 8 dereferenceable(32) %72, %struct.node*** %74) #2, !llfi_index !1600
  %75 = getelementptr inbounds %"class.std::_Deque_base", %"class.std::_Deque_base"* %12, i32 0, i32 0, !llfi_index !1601
  %76 = getelementptr inbounds %"struct.std::_Deque_base<node *, std::allocator<node *>>::_Deque_impl", %"struct.std::_Deque_base<node *, std::allocator<node *>>::_Deque_impl"* %75, i32 0, i32 2, !llfi_index !1602
  %77 = getelementptr inbounds %"struct.std::_Deque_iterator", %"struct.std::_Deque_iterator"* %76, i32 0, i32 1, !llfi_index !1603
  %78 = load %struct.node**, %struct.node*** %77, align 8, !llfi_index !1604
  %79 = getelementptr inbounds %"class.std::_Deque_base", %"class.std::_Deque_base"* %12, i32 0, i32 0, !llfi_index !1605
  %80 = getelementptr inbounds %"struct.std::_Deque_base<node *, std::allocator<node *>>::_Deque_impl", %"struct.std::_Deque_base<node *, std::allocator<node *>>::_Deque_impl"* %79, i32 0, i32 2, !llfi_index !1606
  %81 = getelementptr inbounds %"struct.std::_Deque_iterator", %"struct.std::_Deque_iterator"* %80, i32 0, i32 0, !llfi_index !1607
  store %struct.node** %78, %struct.node*** %81, align 8, !llfi_index !1608
  %82 = getelementptr inbounds %"class.std::_Deque_base", %"class.std::_Deque_base"* %12, i32 0, i32 0, !llfi_index !1609
  %83 = getelementptr inbounds %"struct.std::_Deque_base<node *, std::allocator<node *>>::_Deque_impl", %"struct.std::_Deque_base<node *, std::allocator<node *>>::_Deque_impl"* %82, i32 0, i32 3, !llfi_index !1610
  %84 = getelementptr inbounds %"struct.std::_Deque_iterator", %"struct.std::_Deque_iterator"* %83, i32 0, i32 1, !llfi_index !1611
  %85 = load %struct.node**, %struct.node*** %84, align 8, !llfi_index !1612
  %86 = load i64, i64* %4, align 8, !llfi_index !1613
  %87 = call i64 @_ZSt16__deque_buf_sizem(i64 8), !llfi_index !1614
  %88 = urem i64 %86, %87, !llfi_index !1615
  %89 = getelementptr inbounds %struct.node*, %struct.node** %85, i64 %88, !llfi_index !1616
  %90 = getelementptr inbounds %"class.std::_Deque_base", %"class.std::_Deque_base"* %12, i32 0, i32 0, !llfi_index !1617
  %91 = getelementptr inbounds %"struct.std::_Deque_base<node *, std::allocator<node *>>::_Deque_impl", %"struct.std::_Deque_base<node *, std::allocator<node *>>::_Deque_impl"* %90, i32 0, i32 3, !llfi_index !1618
  %92 = getelementptr inbounds %"struct.std::_Deque_iterator", %"struct.std::_Deque_iterator"* %91, i32 0, i32 0, !llfi_index !1619
  store %struct.node** %89, %struct.node*** %92, align 8, !llfi_index !1620
  ret void, !llfi_index !1621

93:                                               ; preds = %66
  %94 = load i8*, i8** %10, align 8, !llfi_index !1622
  %95 = load i32, i32* %11, align 4, !llfi_index !1623
  %96 = insertvalue { i8*, i32 } undef, i8* %94, 0, !llfi_index !1624
  %97 = insertvalue { i8*, i32 } %96, i32 %95, 1, !llfi_index !1625
  resume { i8*, i32 } %97, !llfi_index !1626

98:                                               ; preds = %62
  %99 = landingpad { i8*, i32 }
          catch i8* null, !llfi_index !1627
  %100 = extractvalue { i8*, i32 } %99, 0, !llfi_index !1628
  call void @__clang_call_terminate(i8* %100) #13, !llfi_index !1629
  unreachable, !llfi_index !1630

101:                                              ; preds = %49
  unreachable, !llfi_index !1631
}

; Function Attrs: mustprogress noinline uwtable
define linkonce_odr dso_local void @_ZNSt11_Deque_baseIP4nodeSaIS1_EE15_M_create_nodesEPPS1_S5_(%"class.std::_Deque_base"* nonnull align 8 dereferenceable(80) %0, %struct.node*** %1, %struct.node*** %2) #4 comdat align 2 personality i8* bitcast (i32 (...)* @__gxx_personality_v0 to i8*) {
  %4 = alloca %"class.std::_Deque_base"*, align 8, !llfi_index !1632
  %5 = alloca %struct.node***, align 8, !llfi_index !1633
  %6 = alloca %struct.node***, align 8, !llfi_index !1634
  %7 = alloca %struct.node***, align 8, !llfi_index !1635
  %8 = alloca i8*, align 8, !llfi_index !1636
  %9 = alloca i32, align 4, !llfi_index !1637
  store %"class.std::_Deque_base"* %0, %"class.std::_Deque_base"** %4, align 8, !llfi_index !1638
  store %struct.node*** %1, %struct.node**** %5, align 8, !llfi_index !1639
  store %struct.node*** %2, %struct.node**** %6, align 8, !llfi_index !1640
  %10 = load %"class.std::_Deque_base"*, %"class.std::_Deque_base"** %4, align 8, !llfi_index !1641
  %11 = load %struct.node***, %struct.node**** %5, align 8, !llfi_index !1642
  store %struct.node*** %11, %struct.node**** %7, align 8, !llfi_index !1643
  br label %12, !llfi_index !1644

12:                                               ; preds = %20, %3
  %13 = load %struct.node***, %struct.node**** %7, align 8, !llfi_index !1645
  %14 = load %struct.node***, %struct.node**** %6, align 8, !llfi_index !1646
  %15 = icmp ult %struct.node*** %13, %14, !llfi_index !1647
  br i1 %15, label %16, label %32, !llfi_index !1648

16:                                               ; preds = %12
  %17 = invoke %struct.node** @_ZNSt11_Deque_baseIP4nodeSaIS1_EE16_M_allocate_nodeEv(%"class.std::_Deque_base"* nonnull align 8 dereferenceable(80) %10)
          to label %18 unwind label %23, !llfi_index !1649

18:                                               ; preds = %16
  %19 = load %struct.node***, %struct.node**** %7, align 8, !llfi_index !1650
  store %struct.node** %17, %struct.node*** %19, align 8, !llfi_index !1651
  br label %20, !llfi_index !1652

20:                                               ; preds = %18
  %21 = load %struct.node***, %struct.node**** %7, align 8, !llfi_index !1653
  %22 = getelementptr inbounds %struct.node**, %struct.node*** %21, i32 1, !llfi_index !1654
  store %struct.node*** %22, %struct.node**** %7, align 8, !llfi_index !1655
  br label %12, !llvm.loop !1656, !llfi_index !1657

23:                                               ; preds = %16
  %24 = landingpad { i8*, i32 }
          catch i8* null, !llfi_index !1658
  %25 = extractvalue { i8*, i32 } %24, 0, !llfi_index !1659
  store i8* %25, i8** %8, align 8, !llfi_index !1660
  %26 = extractvalue { i8*, i32 } %24, 1, !llfi_index !1661
  store i32 %26, i32* %9, align 4, !llfi_index !1662
  br label %27, !llfi_index !1663

27:                                               ; preds = %23
  %28 = load i8*, i8** %8, align 8, !llfi_index !1664
  %29 = call i8* @__cxa_begin_catch(i8* %28) #2, !llfi_index !1665
  %30 = load %struct.node***, %struct.node**** %5, align 8, !llfi_index !1666
  %31 = load %struct.node***, %struct.node**** %7, align 8, !llfi_index !1667
  call void @_ZNSt11_Deque_baseIP4nodeSaIS1_EE16_M_destroy_nodesEPPS1_S5_(%"class.std::_Deque_base"* nonnull align 8 dereferenceable(80) %10, %struct.node*** %30, %struct.node*** %31) #2, !llfi_index !1668
  invoke void @__cxa_rethrow() #14
          to label %47 unwind label %33, !llfi_index !1669

32:                                               ; preds = %12
  br label %38, !llfi_index !1670

33:                                               ; preds = %27
  %34 = landingpad { i8*, i32 }
          cleanup, !llfi_index !1671
  %35 = extractvalue { i8*, i32 } %34, 0, !llfi_index !1672
  store i8* %35, i8** %8, align 8, !llfi_index !1673
  %36 = extractvalue { i8*, i32 } %34, 1, !llfi_index !1674
  store i32 %36, i32* %9, align 4, !llfi_index !1675
  invoke void @__cxa_end_catch()
          to label %37 unwind label %44, !llfi_index !1676

37:                                               ; preds = %33
  br label %39, !llfi_index !1677

38:                                               ; preds = %32
  ret void, !llfi_index !1678

39:                                               ; preds = %37
  %40 = load i8*, i8** %8, align 8, !llfi_index !1679
  %41 = load i32, i32* %9, align 4, !llfi_index !1680
  %42 = insertvalue { i8*, i32 } undef, i8* %40, 0, !llfi_index !1681
  %43 = insertvalue { i8*, i32 } %42, i32 %41, 1, !llfi_index !1682
  resume { i8*, i32 } %43, !llfi_index !1683

44:                                               ; preds = %33
  %45 = landingpad { i8*, i32 }
          catch i8* null, !llfi_index !1684
  %46 = extractvalue { i8*, i32 } %45, 0, !llfi_index !1685
  call void @__clang_call_terminate(i8* %46) #13, !llfi_index !1686
  unreachable, !llfi_index !1687

47:                                               ; preds = %27
  unreachable, !llfi_index !1688
}

declare dso_local void @__cxa_rethrow()

declare dso_local void @__cxa_end_catch()

; Function Attrs: noinline nounwind uwtable
define linkonce_odr dso_local void @_ZNSaIP4nodeEC2Ev(%"class.std::ios_base::Init"* nonnull align 1 dereferenceable(1) %0) unnamed_addr #6 comdat align 2 {
  %2 = alloca %"class.std::ios_base::Init"*, align 8, !llfi_index !1689
  store %"class.std::ios_base::Init"* %0, %"class.std::ios_base::Init"** %2, align 8, !llfi_index !1690
  %3 = load %"class.std::ios_base::Init"*, %"class.std::ios_base::Init"** %2, align 8, !llfi_index !1691
  %4 = bitcast %"class.std::ios_base::Init"* %3 to %"class.std::ios_base::Init"*, !llfi_index !1692
  call void @_ZN9__gnu_cxx13new_allocatorIP4nodeEC2Ev(%"class.std::ios_base::Init"* nonnull align 1 dereferenceable(1) %4) #2, !llfi_index !1693
  ret void, !llfi_index !1694
}

; Function Attrs: noinline nounwind uwtable
define linkonce_odr dso_local void @_ZNSt15_Deque_iteratorIP4nodeRS1_PS1_EC2Ev(%"struct.std::_Deque_iterator"* nonnull align 8 dereferenceable(32) %0) unnamed_addr #6 comdat align 2 {
  %2 = alloca %"struct.std::_Deque_iterator"*, align 8, !llfi_index !1695
  store %"struct.std::_Deque_iterator"* %0, %"struct.std::_Deque_iterator"** %2, align 8, !llfi_index !1696
  %3 = load %"struct.std::_Deque_iterator"*, %"struct.std::_Deque_iterator"** %2, align 8, !llfi_index !1697
  %4 = getelementptr inbounds %"struct.std::_Deque_iterator", %"struct.std::_Deque_iterator"* %3, i32 0, i32 0, !llfi_index !1698
  store %struct.node** null, %struct.node*** %4, align 8, !llfi_index !1699
  %5 = getelementptr inbounds %"struct.std::_Deque_iterator", %"struct.std::_Deque_iterator"* %3, i32 0, i32 1, !llfi_index !1700
  store %struct.node** null, %struct.node*** %5, align 8, !llfi_index !1701
  %6 = getelementptr inbounds %"struct.std::_Deque_iterator", %"struct.std::_Deque_iterator"* %3, i32 0, i32 2, !llfi_index !1702
  store %struct.node** null, %struct.node*** %6, align 8, !llfi_index !1703
  %7 = getelementptr inbounds %"struct.std::_Deque_iterator", %"struct.std::_Deque_iterator"* %3, i32 0, i32 3, !llfi_index !1704
  store %struct.node*** null, %struct.node**** %7, align 8, !llfi_index !1705
  ret void, !llfi_index !1706
}

; Function Attrs: noinline nounwind uwtable
define linkonce_odr dso_local void @_ZN9__gnu_cxx13new_allocatorIP4nodeEC2Ev(%"class.std::ios_base::Init"* nonnull align 1 dereferenceable(1) %0) unnamed_addr #6 comdat align 2 {
  %2 = alloca %"class.std::ios_base::Init"*, align 8, !llfi_index !1707
  store %"class.std::ios_base::Init"* %0, %"class.std::ios_base::Init"** %2, align 8, !llfi_index !1708
  %3 = load %"class.std::ios_base::Init"*, %"class.std::ios_base::Init"** %2, align 8, !llfi_index !1709
  ret void, !llfi_index !1710
}

; Function Attrs: mustprogress noinline norecurse uwtable
define dso_local i32 @main() #12 personality i8* bitcast (i32 (...)* @__gxx_personality_v0 to i8*) {
  %1 = alloca i32, align 4, !llfi_index !1711
  %2 = alloca i32, align 4, !llfi_index !1712
  %3 = alloca %struct.node*, align 8, !llfi_index !1713
  %4 = alloca %"class.std::queue", align 8, !llfi_index !1714
  %5 = alloca i32, align 4, !llfi_index !1715
  %6 = alloca i8*, align 8, !llfi_index !1716
  %7 = alloca i32, align 4, !llfi_index !1717
  %8 = alloca %struct.node*, align 8, !llfi_index !1718
  %9 = alloca i32, align 4, !llfi_index !1719
  %10 = alloca %struct.node*, align 8, !llfi_index !1720
  %11 = alloca %struct.node*, align 8, !llfi_index !1721
  %12 = alloca i32, align 4, !llfi_index !1722
  %13 = alloca i32, align 4, !llfi_index !1723
  %14 = alloca i32, align 4, !llfi_index !1724
  %15 = alloca i32, align 4, !llfi_index !1725
  %16 = alloca i32, align 4, !llfi_index !1726
  %17 = alloca i32, align 4, !llfi_index !1727
  store i32 0, i32* %1, align 4, !llfi_index !1728
  %18 = load %struct._IO_FILE*, %struct._IO_FILE** @stdin, align 8, !llfi_index !1729
  %19 = call %struct._IO_FILE* @freopen(i8* getelementptr inbounds ([25 x i8], [25 x i8]* @.str, i64 0, i64 0), i8* getelementptr inbounds ([2 x i8], [2 x i8]* @.str.1, i64 0, i64 0), %struct._IO_FILE* %18), !llfi_index !1730
  %20 = call nonnull align 8 dereferenceable(16) %"class.std::basic_istream"* @_ZNSirsERi(%"class.std::basic_istream"* nonnull align 8 dereferenceable(16) @_ZSt3cin, i32* nonnull align 4 dereferenceable(4) %2), !llfi_index !1731
  store %struct.node* null, %struct.node** %3, align 8, !llfi_index !1732
  call void @_ZNSt5queueIP4nodeSt5dequeIS1_SaIS1_EEEC2IS4_vEEv(%"class.std::queue"* nonnull align 8 dereferenceable(80) %4), !llfi_index !1733
  store i32 1, i32* %5, align 4, !llfi_index !1734
  %21 = load i32, i32* %2, align 4, !llfi_index !1735
  %22 = icmp sgt i32 %21, 0, !llfi_index !1736
  br i1 %22, label %23, label %38, !llfi_index !1737

23:                                               ; preds = %0
  %24 = invoke noalias nonnull i8* @_Znwm(i64 24) #16
          to label %25 unwind label %30, !llfi_index !1738

25:                                               ; preds = %23
  %26 = bitcast i8* %24 to %struct.node*, !llfi_index !1739
  invoke void @_ZN4nodeC2Ei(%struct.node* nonnull align 8 dereferenceable(24) %26, i32 1)
          to label %27 unwind label %34, !llfi_index !1740

27:                                               ; preds = %25
  store %struct.node* %26, %struct.node** %3, align 8, !llfi_index !1741
  invoke void @_ZNSt5queueIP4nodeSt5dequeIS1_SaIS1_EEE4pushERKS1_(%"class.std::queue"* nonnull align 8 dereferenceable(80) %4, %struct.node** nonnull align 8 dereferenceable(8) %3)
          to label %28 unwind label %30, !llfi_index !1742

28:                                               ; preds = %27
  store %struct.node* null, %struct.node** %8, align 8, !llfi_index !1743
  invoke void @_ZNSt5queueIP4nodeSt5dequeIS1_SaIS1_EEE4pushEOS1_(%"class.std::queue"* nonnull align 8 dereferenceable(80) %4, %struct.node** nonnull align 8 dereferenceable(8) %8)
          to label %29 unwind label %30, !llfi_index !1744

29:                                               ; preds = %28
  br label %38, !llfi_index !1745

30:                                               ; preds = %132, %130, %121, %113, %107, %93, %88, %75, %70, %65, %63, %58, %55, %50, %48, %42, %28, %27, %23
  %31 = landingpad { i8*, i32 }
          cleanup, !llfi_index !1746
  %32 = extractvalue { i8*, i32 } %31, 0, !llfi_index !1747
  store i8* %32, i8** %6, align 8, !llfi_index !1748
  %33 = extractvalue { i8*, i32 } %31, 1, !llfi_index !1749
  store i32 %33, i32* %7, align 4, !llfi_index !1750
  br label %139, !llfi_index !1751

34:                                               ; preds = %25
  %35 = landingpad { i8*, i32 }
          cleanup, !llfi_index !1752
  %36 = extractvalue { i8*, i32 } %35, 0, !llfi_index !1753
  store i8* %36, i8** %6, align 8, !llfi_index !1754
  %37 = extractvalue { i8*, i32 } %35, 1, !llfi_index !1755
  store i32 %37, i32* %7, align 4, !llfi_index !1756
  call void @_ZdlPv(i8* %24) #17, !llfi_index !1757
  br label %139, !llfi_index !1758

38:                                               ; preds = %29, %0
  store i32 89, i32* %9, align 4, !llfi_index !1759
  br label %39, !llfi_index !1760

39:                                               ; preds = %106, %38
  %40 = load i32, i32* %2, align 4, !llfi_index !1761
  %41 = icmp sgt i32 %40, 0, !llfi_index !1762
  br i1 %41, label %42, label %46, !llfi_index !1763

42:                                               ; preds = %39
  %43 = invoke zeroext i1 @_ZNKSt5queueIP4nodeSt5dequeIS1_SaIS1_EEE5emptyEv(%"class.std::queue"* nonnull align 8 dereferenceable(80) %4)
          to label %44 unwind label %30, !llfi_index !1764

44:                                               ; preds = %42
  %45 = xor i1 %43, true, !llfi_index !1765
  br label %46, !llfi_index !1766

46:                                               ; preds = %44, %39
  %47 = phi i1 [ false, %39 ], [ %45, %44 ], !llfi_index !1767
  br i1 %47, label %48, label %107, !llfi_index !1768

48:                                               ; preds = %46
  %49 = invoke nonnull align 8 dereferenceable(8) %struct.node** @_ZNSt5queueIP4nodeSt5dequeIS1_SaIS1_EEE5frontEv(%"class.std::queue"* nonnull align 8 dereferenceable(80) %4)
          to label %50 unwind label %30, !llfi_index !1769

50:                                               ; preds = %48
  %51 = load %struct.node*, %struct.node** %49, align 8, !llfi_index !1770
  store %struct.node* %51, %struct.node** %10, align 8, !llfi_index !1771
  invoke void @_ZNSt5queueIP4nodeSt5dequeIS1_SaIS1_EEE3popEv(%"class.std::queue"* nonnull align 8 dereferenceable(80) %4)
          to label %52 unwind label %30, !llfi_index !1772

52:                                               ; preds = %50
  %53 = load %struct.node*, %struct.node** %10, align 8, !llfi_index !1773
  %54 = icmp eq %struct.node* %53, null, !llfi_index !1774
  br i1 %54, label %55, label %63, !llfi_index !1775

55:                                               ; preds = %52
  %56 = invoke zeroext i1 @_ZNKSt5queueIP4nodeSt5dequeIS1_SaIS1_EEE5emptyEv(%"class.std::queue"* nonnull align 8 dereferenceable(80) %4)
          to label %57 unwind label %30, !llfi_index !1776

57:                                               ; preds = %55
  br i1 %56, label %60, label %58, !llfi_index !1777

58:                                               ; preds = %57
  store %struct.node* null, %struct.node** %11, align 8, !llfi_index !1778
  invoke void @_ZNSt5queueIP4nodeSt5dequeIS1_SaIS1_EEE4pushEOS1_(%"class.std::queue"* nonnull align 8 dereferenceable(80) %4, %struct.node** nonnull align 8 dereferenceable(8) %11)
          to label %59 unwind label %30, !llfi_index !1779

59:                                               ; preds = %58
  br label %60, !llfi_index !1780

60:                                               ; preds = %59, %57
  %61 = load i32, i32* %5, align 4, !llfi_index !1781
  %62 = add nsw i32 %61, 1, !llfi_index !1782
  store i32 %62, i32* %5, align 4, !llfi_index !1783
  br label %106, !llfi_index !1784

63:                                               ; preds = %52
  %64 = invoke nonnull align 8 dereferenceable(16) %"class.std::basic_istream"* @_ZNSirsERi(%"class.std::basic_istream"* nonnull align 8 dereferenceable(16) @_ZSt3cin, i32* nonnull align 4 dereferenceable(4) %12)
          to label %65 unwind label %30, !llfi_index !1785

65:                                               ; preds = %63
  %66 = invoke nonnull align 8 dereferenceable(16) %"class.std::basic_istream"* @_ZNSirsERi(%"class.std::basic_istream"* nonnull align 8 dereferenceable(16) %64, i32* nonnull align 4 dereferenceable(4) %13)
          to label %67 unwind label %30, !llfi_index !1786

67:                                               ; preds = %65
  %68 = load i32, i32* %12, align 4, !llfi_index !1787
  %69 = icmp ne i32 %68, -1, !llfi_index !1788
  br i1 %69, label %70, label %85, !llfi_index !1789

70:                                               ; preds = %67
  %71 = invoke noalias nonnull i8* @_Znwm(i64 24) #16
          to label %72 unwind label %30, !llfi_index !1790

72:                                               ; preds = %70
  %73 = bitcast i8* %71 to %struct.node*, !llfi_index !1791
  %74 = load i32, i32* %12, align 4, !llfi_index !1792
  invoke void @_ZN4nodeC2Ei(%struct.node* nonnull align 8 dereferenceable(24) %73, i32 %74)
          to label %75 unwind label %81, !llfi_index !1793

75:                                               ; preds = %72
  %76 = load %struct.node*, %struct.node** %10, align 8, !llfi_index !1794
  %77 = getelementptr inbounds %struct.node, %struct.node* %76, i32 0, i32 1, !llfi_index !1795
  store %struct.node* %73, %struct.node** %77, align 8, !llfi_index !1796
  %78 = load %struct.node*, %struct.node** %10, align 8, !llfi_index !1797
  %79 = getelementptr inbounds %struct.node, %struct.node* %78, i32 0, i32 1, !llfi_index !1798
  invoke void @_ZNSt5queueIP4nodeSt5dequeIS1_SaIS1_EEE4pushERKS1_(%"class.std::queue"* nonnull align 8 dereferenceable(80) %4, %struct.node** nonnull align 8 dereferenceable(8) %79)
          to label %80 unwind label %30, !llfi_index !1799

80:                                               ; preds = %75
  br label %85, !llfi_index !1800

81:                                               ; preds = %72
  %82 = landingpad { i8*, i32 }
          cleanup, !llfi_index !1801
  %83 = extractvalue { i8*, i32 } %82, 0, !llfi_index !1802
  store i8* %83, i8** %6, align 8, !llfi_index !1803
  %84 = extractvalue { i8*, i32 } %82, 1, !llfi_index !1804
  store i32 %84, i32* %7, align 4, !llfi_index !1805
  call void @_ZdlPv(i8* %71) #17, !llfi_index !1806
  br label %139, !llfi_index !1807

85:                                               ; preds = %80, %67
  %86 = load i32, i32* %13, align 4, !llfi_index !1808
  %87 = icmp ne i32 %86, -1, !llfi_index !1809
  br i1 %87, label %88, label %103, !llfi_index !1810

88:                                               ; preds = %85
  %89 = invoke noalias nonnull i8* @_Znwm(i64 24) #16
          to label %90 unwind label %30, !llfi_index !1811

90:                                               ; preds = %88
  %91 = bitcast i8* %89 to %struct.node*, !llfi_index !1812
  %92 = load i32, i32* %13, align 4, !llfi_index !1813
  invoke void @_ZN4nodeC2Ei(%struct.node* nonnull align 8 dereferenceable(24) %91, i32 %92)
          to label %93 unwind label %99, !llfi_index !1814

93:                                               ; preds = %90
  %94 = load %struct.node*, %struct.node** %10, align 8, !llfi_index !1815
  %95 = getelementptr inbounds %struct.node, %struct.node* %94, i32 0, i32 2, !llfi_index !1816
  store %struct.node* %91, %struct.node** %95, align 8, !llfi_index !1817
  %96 = load %struct.node*, %struct.node** %10, align 8, !llfi_index !1818
  %97 = getelementptr inbounds %struct.node, %struct.node* %96, i32 0, i32 2, !llfi_index !1819
  invoke void @_ZNSt5queueIP4nodeSt5dequeIS1_SaIS1_EEE4pushERKS1_(%"class.std::queue"* nonnull align 8 dereferenceable(80) %4, %struct.node** nonnull align 8 dereferenceable(8) %97)
          to label %98 unwind label %30, !llfi_index !1820

98:                                               ; preds = %93
  br label %103, !llfi_index !1821

99:                                               ; preds = %90
  %100 = landingpad { i8*, i32 }
          cleanup, !llfi_index !1822
  %101 = extractvalue { i8*, i32 } %100, 0, !llfi_index !1823
  store i8* %101, i8** %6, align 8, !llfi_index !1824
  %102 = extractvalue { i8*, i32 } %100, 1, !llfi_index !1825
  store i32 %102, i32* %7, align 4, !llfi_index !1826
  call void @_ZdlPv(i8* %89) #17, !llfi_index !1827
  br label %139, !llfi_index !1828

103:                                              ; preds = %98, %85
  %104 = load i32, i32* %2, align 4, !llfi_index !1829
  %105 = add nsw i32 %104, -1, !llfi_index !1830
  store i32 %105, i32* %2, align 4, !llfi_index !1831
  br label %106, !llfi_index !1832

106:                                              ; preds = %103, %60
  br label %39, !llvm.loop !1833, !llfi_index !1834

107:                                              ; preds = %46
  %108 = invoke nonnull align 8 dereferenceable(16) %"class.std::basic_istream"* @_ZNSirsERi(%"class.std::basic_istream"* nonnull align 8 dereferenceable(16) @_ZSt3cin, i32* nonnull align 4 dereferenceable(4) %14)
          to label %109 unwind label %30, !llfi_index !1835

109:                                              ; preds = %107
  store i32 89, i32* %9, align 4, !llfi_index !1836
  br label %110, !llfi_index !1837

110:                                              ; preds = %134, %109
  %111 = load i32, i32* %14, align 4, !llfi_index !1838
  %112 = icmp sgt i32 %111, 0, !llfi_index !1839
  br i1 %112, label %113, label %137, !llfi_index !1840

113:                                              ; preds = %110
  %114 = invoke nonnull align 8 dereferenceable(16) %"class.std::basic_istream"* @_ZNSirsERi(%"class.std::basic_istream"* nonnull align 8 dereferenceable(16) @_ZSt3cin, i32* nonnull align 4 dereferenceable(4) %15)
          to label %115 unwind label %30, !llfi_index !1841

115:                                              ; preds = %113
  store i32 2, i32* %16, align 4, !llfi_index !1842
  %116 = load i32, i32* %15, align 4, !llfi_index !1843
  store i32 %116, i32* %17, align 4, !llfi_index !1844
  store i32 89, i32* %9, align 4, !llfi_index !1845
  br label %117, !llfi_index !1846

117:                                              ; preds = %124, %115
  %118 = load i32, i32* %17, align 4, !llfi_index !1847
  %119 = load i32, i32* %5, align 4, !llfi_index !1848
  %120 = icmp sle i32 %118, %119, !llfi_index !1849
  br i1 %120, label %121, label %130, !llfi_index !1850

121:                                              ; preds = %117
  %122 = load %struct.node*, %struct.node** %3, align 8, !llfi_index !1851
  %123 = load i32, i32* %17, align 4, !llfi_index !1852
  invoke void @_Z19swapSubtreesOfLevelP4nodei(%struct.node* %122, i32 %123)
          to label %124 unwind label %30, !llfi_index !1853

124:                                              ; preds = %121
  %125 = load i32, i32* %16, align 4, !llfi_index !1854
  %126 = load i32, i32* %15, align 4, !llfi_index !1855
  %127 = mul nsw i32 %125, %126, !llfi_index !1856
  store i32 %127, i32* %17, align 4, !llfi_index !1857
  %128 = load i32, i32* %16, align 4, !llfi_index !1858
  %129 = add nsw i32 %128, 1, !llfi_index !1859
  store i32 %129, i32* %16, align 4, !llfi_index !1860
  br label %117, !llvm.loop !1861, !llfi_index !1862

130:                                              ; preds = %117
  %131 = load %struct.node*, %struct.node** %3, align 8, !llfi_index !1863
  invoke void @_Z7InOrderP4node(%struct.node* %131)
          to label %132 unwind label %30, !llfi_index !1864

132:                                              ; preds = %130
  %133 = invoke nonnull align 8 dereferenceable(8) %"class.std::basic_ostream"* @_ZNSolsEPFRSoS_E(%"class.std::basic_ostream"* nonnull align 8 dereferenceable(8) @_ZSt4cout, %"class.std::basic_ostream"* (%"class.std::basic_ostream"*)* @_ZSt4endlIcSt11char_traitsIcEERSt13basic_ostreamIT_T0_ES6_)
          to label %134 unwind label %30, !llfi_index !1865

134:                                              ; preds = %132
  %135 = load i32, i32* %14, align 4, !llfi_index !1866
  %136 = add nsw i32 %135, -1, !llfi_index !1867
  store i32 %136, i32* %14, align 4, !llfi_index !1868
  br label %110, !llvm.loop !1869, !llfi_index !1870

137:                                              ; preds = %110
  store i32 0, i32* %1, align 4, !llfi_index !1871
  call void @_ZNSt5queueIP4nodeSt5dequeIS1_SaIS1_EEED2Ev(%"class.std::queue"* nonnull align 8 dereferenceable(80) %4) #2, !llfi_index !1872
  %138 = load i32, i32* %1, align 4, !llfi_index !1873
  ret i32 %138, !llfi_index !1874

139:                                              ; preds = %99, %81, %34, %30
  call void @_ZNSt5queueIP4nodeSt5dequeIS1_SaIS1_EEED2Ev(%"class.std::queue"* nonnull align 8 dereferenceable(80) %4) #2, !llfi_index !1875
  br label %140, !llfi_index !1876

140:                                              ; preds = %139
  %141 = load i8*, i8** %6, align 8, !llfi_index !1877
  %142 = load i32, i32* %7, align 4, !llfi_index !1878
  %143 = insertvalue { i8*, i32 } undef, i8* %141, 0, !llfi_index !1879
  %144 = insertvalue { i8*, i32 } %143, i32 %142, 1, !llfi_index !1880
  resume { i8*, i32 } %144, !llfi_index !1881
}

declare dso_local %struct._IO_FILE* @freopen(i8*, i8*, %struct._IO_FILE*) #1

declare dso_local nonnull align 8 dereferenceable(16) %"class.std::basic_istream"* @_ZNSirsERi(%"class.std::basic_istream"* nonnull align 8 dereferenceable(16), i32* nonnull align 4 dereferenceable(4)) #1

; Function Attrs: noinline nounwind uwtable
define linkonce_odr dso_local void @_ZN4nodeC2Ei(%struct.node* nonnull align 8 dereferenceable(24) %0, i32 %1) unnamed_addr #6 comdat align 2 {
  %3 = alloca %struct.node*, align 8, !llfi_index !1882
  %4 = alloca i32, align 4, !llfi_index !1883
  store %struct.node* %0, %struct.node** %3, align 8, !llfi_index !1884
  store i32 %1, i32* %4, align 4, !llfi_index !1885
  %5 = load %struct.node*, %struct.node** %3, align 8, !llfi_index !1886
  %6 = load i32, i32* %4, align 4, !llfi_index !1887
  %7 = getelementptr inbounds %struct.node, %struct.node* %5, i32 0, i32 0, !llfi_index !1888
  store i32 %6, i32* %7, align 8, !llfi_index !1889
  %8 = getelementptr inbounds %struct.node, %struct.node* %5, i32 0, i32 1, !llfi_index !1890
  store %struct.node* null, %struct.node** %8, align 8, !llfi_index !1891
  %9 = getelementptr inbounds %struct.node, %struct.node* %5, i32 0, i32 2, !llfi_index !1892
  store %struct.node* null, %struct.node** %9, align 8, !llfi_index !1893
  ret void, !llfi_index !1894
}

declare dso_local nonnull align 8 dereferenceable(8) %"class.std::basic_ostream"* @_ZSt4endlIcSt11char_traitsIcEERSt13basic_ostreamIT_T0_ES6_(%"class.std::basic_ostream"* nonnull align 8 dereferenceable(8)) #1

declare dso_local nonnull align 8 dereferenceable(8) %"class.std::basic_ostream"* @_ZNSolsEPFRSoS_E(%"class.std::basic_ostream"* nonnull align 8 dereferenceable(8), %"class.std::basic_ostream"* (%"class.std::basic_ostream"*)*) #1

attributes #0 = { noinline uwtable "frame-pointer"="all" "min-legal-vector-width"="0" "no-trapping-math"="true" "stack-protector-buffer-size"="8" "target-cpu"="x86-64" "target-features"="+cx8,+fxsr,+mmx,+sse,+sse2,+x87" "tune-cpu"="generic" }
attributes #1 = { "frame-pointer"="all" "no-trapping-math"="true" "stack-protector-buffer-size"="8" "target-cpu"="x86-64" "target-features"="+cx8,+fxsr,+mmx,+sse,+sse2,+x87" "tune-cpu"="generic" }
attributes #2 = { nounwind }
attributes #3 = { nounwind "frame-pointer"="all" "no-trapping-math"="true" "stack-protector-buffer-size"="8" "target-cpu"="x86-64" "target-features"="+cx8,+fxsr,+mmx,+sse,+sse2,+x87" "tune-cpu"="generic" }
attributes #4 = { mustprogress noinline uwtable "frame-pointer"="all" "min-legal-vector-width"="0" "no-trapping-math"="true" "stack-protector-buffer-size"="8" "target-cpu"="x86-64" "target-features"="+cx8,+fxsr,+mmx,+sse,+sse2,+x87" "tune-cpu"="generic" }
attributes #5 = { mustprogress noinline nounwind uwtable "frame-pointer"="all" "min-legal-vector-width"="0" "no-trapping-math"="true" "stack-protector-buffer-size"="8" "target-cpu"="x86-64" "target-features"="+cx8,+fxsr,+mmx,+sse,+sse2,+x87" "tune-cpu"="generic" }
attributes #6 = { noinline nounwind uwtable "frame-pointer"="all" "min-legal-vector-width"="0" "no-trapping-math"="true" "stack-protector-buffer-size"="8" "target-cpu"="x86-64" "target-features"="+cx8,+fxsr,+mmx,+sse,+sse2,+x87" "tune-cpu"="generic" }
attributes #7 = { noinline noreturn nounwind }
attributes #8 = { nobuiltin nounwind "frame-pointer"="all" "no-trapping-math"="true" "stack-protector-buffer-size"="8" "target-cpu"="x86-64" "target-features"="+cx8,+fxsr,+mmx,+sse,+sse2,+x87" "tune-cpu"="generic" }
attributes #9 = { noreturn "frame-pointer"="all" "no-trapping-math"="true" "stack-protector-buffer-size"="8" "target-cpu"="x86-64" "target-features"="+cx8,+fxsr,+mmx,+sse,+sse2,+x87" "tune-cpu"="generic" }
attributes #10 = { nobuiltin allocsize(0) "frame-pointer"="all" "no-trapping-math"="true" "stack-protector-buffer-size"="8" "target-cpu"="x86-64" "target-features"="+cx8,+fxsr,+mmx,+sse,+sse2,+x87" "tune-cpu"="generic" }
attributes #11 = { argmemonly nofree nounwind willreturn }
attributes #12 = { mustprogress noinline norecurse uwtable "frame-pointer"="all" "min-legal-vector-width"="0" "no-trapping-math"="true" "stack-protector-buffer-size"="8" "target-cpu"="x86-64" "target-features"="+cx8,+fxsr,+mmx,+sse,+sse2,+x87" "tune-cpu"="generic" }
attributes #13 = { noreturn nounwind }
attributes #14 = { noreturn }
attributes #15 = { allocsize(0) }
attributes #16 = { builtin allocsize(0) }
attributes #17 = { builtin nounwind }

!llvm.ident = !{!0}
!llvm.module.flags = !{!1, !2, !3}

!0 = !{!"clang version 13.0.0 (https://github.com/llvm/llvm-project.git d7b669b3a30345cfcdb2fde2af6f48aa4b94845d)"}
!1 = !{i32 1, !"wchar_size", i32 4}
!2 = !{i32 7, !"uwtable", i32 1}
!3 = !{i32 7, !"frame-pointer", i32 2}
!4 = !{i64 1}
!5 = !{i64 2}
!6 = !{i64 3}
!7 = !{i64 4}
!8 = !{i64 5}
!9 = !{i64 6}
!10 = !{i64 7}
!11 = !{i64 8}
!12 = !{i64 9}
!13 = !{i64 10}
!14 = !{i64 11}
!15 = !{i64 12}
!16 = !{i64 13}
!17 = !{i64 14}
!18 = !{i64 15}
!19 = !{i64 16}
!20 = !{i64 17}
!21 = !{i64 18}
!22 = !{i64 19}
!23 = !{i64 20}
!24 = !{i64 21}
!25 = !{i64 22}
!26 = !{i64 23}
!27 = !{i64 24}
!28 = !{i64 25}
!29 = !{i64 26}
!30 = !{i64 27}
!31 = !{i64 28}
!32 = !{i64 29}
!33 = !{i64 30}
!34 = !{i64 31}
!35 = !{i64 32}
!36 = !{i64 33}
!37 = !{i64 34}
!38 = !{i64 35}
!39 = !{i64 36}
!40 = !{i64 37}
!41 = !{i64 38}
!42 = !{i64 39}
!43 = !{i64 40}
!44 = !{i64 41}
!45 = !{i64 42}
!46 = !{i64 43}
!47 = !{i64 44}
!48 = !{i64 45}
!49 = !{i64 46}
!50 = !{i64 47}
!51 = !{i64 48}
!52 = !{i64 49}
!53 = !{i64 50}
!54 = !{i64 51}
!55 = !{i64 52}
!56 = !{i64 53}
!57 = !{i64 54}
!58 = !{i64 55}
!59 = !{i64 56}
!60 = !{i64 57}
!61 = !{i64 58}
!62 = !{i64 59}
!63 = !{i64 60}
!64 = !{i64 61}
!65 = !{i64 62}
!66 = !{i64 63}
!67 = !{i64 64}
!68 = !{i64 65}
!69 = !{i64 66}
!70 = !{i64 67}
!71 = !{i64 68}
!72 = !{i64 69}
!73 = !{i64 70}
!74 = !{i64 71}
!75 = !{i64 72}
!76 = !{i64 73}
!77 = !{i64 74}
!78 = !{i64 75}
!79 = !{i64 76}
!80 = !{i64 77}
!81 = !{i64 78}
!82 = !{i64 79}
!83 = !{i64 80}
!84 = !{i64 81}
!85 = !{i64 82}
!86 = !{i64 83}
!87 = !{i64 84}
!88 = !{i64 85}
!89 = !{i64 86}
!90 = !{i64 87}
!91 = !{i64 88}
!92 = !{i64 89}
!93 = !{i64 90}
!94 = !{i64 91}
!95 = !{i64 92}
!96 = !{i64 93}
!97 = !{i64 94}
!98 = !{i64 95}
!99 = !{i64 96}
!100 = !{i64 97}
!101 = !{i64 98}
!102 = !{i64 99}
!103 = !{i64 100}
!104 = !{i64 101}
!105 = !{i64 102}
!106 = !{i64 103}
!107 = !{i64 104}
!108 = !{i64 105}
!109 = !{i64 106}
!110 = !{i64 107}
!111 = !{i64 108}
!112 = !{i64 109}
!113 = !{i64 110}
!114 = !{i64 111}
!115 = !{i64 112}
!116 = !{i64 113}
!117 = !{i64 114}
!118 = distinct !{!118, !119}
!119 = !{!"llvm.loop.mustprogress"}
!120 = !{i64 115}
!121 = !{i64 116}
!122 = !{i64 117}
!123 = !{i64 118}
!124 = !{i64 119}
!125 = !{i64 120}
!126 = !{i64 121}
!127 = !{i64 122}
!128 = !{i64 123}
!129 = !{i64 124}
!130 = !{i64 125}
!131 = !{i64 126}
!132 = !{i64 127}
!133 = !{i64 128}
!134 = !{i64 129}
!135 = !{i64 130}
!136 = !{i64 131}
!137 = !{i64 132}
!138 = !{i64 133}
!139 = !{i64 134}
!140 = !{i64 135}
!141 = !{i64 136}
!142 = !{i64 137}
!143 = !{i64 138}
!144 = !{i64 139}
!145 = !{i64 140}
!146 = !{i64 141}
!147 = !{i64 142}
!148 = !{i64 143}
!149 = !{i64 144}
!150 = !{i64 145}
!151 = !{i64 146}
!152 = !{i64 147}
!153 = !{i64 148}
!154 = !{i64 149}
!155 = !{i64 150}
!156 = !{i64 151}
!157 = !{i64 152}
!158 = !{i64 153}
!159 = !{i64 154}
!160 = !{i64 155}
!161 = !{i64 156}
!162 = !{i64 157}
!163 = !{i64 158}
!164 = !{i64 159}
!165 = !{i64 160}
!166 = !{i64 161}
!167 = !{i64 162}
!168 = !{i64 163}
!169 = !{i64 164}
!170 = !{i64 165}
!171 = !{i64 166}
!172 = !{i64 167}
!173 = !{i64 168}
!174 = !{i64 169}
!175 = !{i64 170}
!176 = !{i64 171}
!177 = !{i64 172}
!178 = !{i64 173}
!179 = !{i64 174}
!180 = !{i64 175}
!181 = !{i64 176}
!182 = !{i64 177}
!183 = !{i64 178}
!184 = !{i64 179}
!185 = !{i64 180}
!186 = !{i64 181}
!187 = !{i64 182}
!188 = !{i64 183}
!189 = !{i64 184}
!190 = !{i64 185}
!191 = !{i64 186}
!192 = !{i64 187}
!193 = !{i64 188}
!194 = !{i64 189}
!195 = !{i64 190}
!196 = !{i64 191}
!197 = !{i64 192}
!198 = !{i64 193}
!199 = !{i64 194}
!200 = !{i64 195}
!201 = !{i64 196}
!202 = !{i64 197}
!203 = !{i64 198}
!204 = !{i64 199}
!205 = !{i64 200}
!206 = !{i64 201}
!207 = !{i64 202}
!208 = !{i64 203}
!209 = !{i64 204}
!210 = !{i64 205}
!211 = !{i64 206}
!212 = !{i64 207}
!213 = !{i64 208}
!214 = !{i64 209}
!215 = !{i64 210}
!216 = !{i64 211}
!217 = !{i64 212}
!218 = !{i64 213}
!219 = !{i64 214}
!220 = !{i64 215}
!221 = !{i64 216}
!222 = !{i64 217}
!223 = !{i64 218}
!224 = !{i64 219}
!225 = !{i64 220}
!226 = !{i64 221}
!227 = !{i64 222}
!228 = !{i64 223}
!229 = !{i64 224}
!230 = !{i64 225}
!231 = !{i64 226}
!232 = !{i64 227}
!233 = !{i64 228}
!234 = !{i64 229}
!235 = !{i64 230}
!236 = !{i64 231}
!237 = !{i64 232}
!238 = !{i64 233}
!239 = !{i64 234}
!240 = !{i64 235}
!241 = !{i64 236}
!242 = !{i64 237}
!243 = !{i64 238}
!244 = !{i64 239}
!245 = !{i64 240}
!246 = !{i64 241}
!247 = !{i64 242}
!248 = !{i64 243}
!249 = !{i64 244}
!250 = !{i64 245}
!251 = !{i64 246}
!252 = !{i64 247}
!253 = !{i64 248}
!254 = !{i64 249}
!255 = !{i64 250}
!256 = !{i64 251}
!257 = !{i64 252}
!258 = !{i64 253}
!259 = !{i64 254}
!260 = !{i64 255}
!261 = !{i64 256}
!262 = !{i64 257}
!263 = !{i64 258}
!264 = !{i64 259}
!265 = !{i64 260}
!266 = !{i64 261}
!267 = !{i64 262}
!268 = !{i64 263}
!269 = !{i64 264}
!270 = !{i64 265}
!271 = !{i64 266}
!272 = !{i64 267}
!273 = !{i64 268}
!274 = !{i64 269}
!275 = !{i64 270}
!276 = !{i64 271}
!277 = !{i64 272}
!278 = !{i64 273}
!279 = !{i64 274}
!280 = !{i64 275}
!281 = !{i64 276}
!282 = !{i64 277}
!283 = !{i64 278}
!284 = !{i64 279}
!285 = !{i64 280}
!286 = !{i64 281}
!287 = !{i64 282}
!288 = !{i64 283}
!289 = !{i64 284}
!290 = !{i64 285}
!291 = !{i64 286}
!292 = distinct !{!292, !119}
!293 = !{i64 287}
!294 = !{i64 288}
!295 = !{i64 289}
!296 = !{i64 290}
!297 = !{i64 291}
!298 = !{i64 292}
!299 = !{i64 293}
!300 = !{i64 294}
!301 = !{i64 295}
!302 = !{i64 296}
!303 = !{i64 297}
!304 = !{i64 298}
!305 = !{i64 299}
!306 = !{i64 300}
!307 = !{i64 301}
!308 = !{i64 302}
!309 = !{i64 303}
!310 = !{i64 304}
!311 = !{i64 305}
!312 = !{i64 306}
!313 = !{i64 307}
!314 = !{i64 308}
!315 = !{i64 309}
!316 = !{i64 310}
!317 = !{i64 311}
!318 = !{i64 312}
!319 = !{i64 313}
!320 = !{i64 314}
!321 = !{i64 315}
!322 = !{i64 316}
!323 = !{i64 317}
!324 = !{i64 318}
!325 = !{i64 319}
!326 = !{i64 320}
!327 = !{i64 321}
!328 = !{i64 322}
!329 = !{i64 323}
!330 = !{i64 324}
!331 = !{i64 325}
!332 = !{i64 326}
!333 = !{i64 327}
!334 = !{i64 328}
!335 = !{i64 329}
!336 = !{i64 330}
!337 = !{i64 331}
!338 = !{i64 332}
!339 = !{i64 333}
!340 = !{i64 334}
!341 = !{i64 335}
!342 = !{i64 336}
!343 = !{i64 337}
!344 = !{i64 338}
!345 = !{i64 339}
!346 = !{i64 340}
!347 = !{i64 341}
!348 = !{i64 342}
!349 = !{i64 343}
!350 = !{i64 344}
!351 = !{i64 345}
!352 = !{i64 346}
!353 = !{i64 347}
!354 = !{i64 348}
!355 = !{i64 349}
!356 = !{i64 350}
!357 = !{i64 351}
!358 = !{i64 352}
!359 = !{i64 353}
!360 = !{i64 354}
!361 = !{i64 355}
!362 = !{i64 356}
!363 = !{i64 357}
!364 = !{i64 358}
!365 = !{i64 359}
!366 = !{i64 360}
!367 = !{i64 361}
!368 = !{i64 362}
!369 = !{i64 363}
!370 = !{i64 364}
!371 = !{i64 365}
!372 = !{i64 366}
!373 = !{i64 367}
!374 = !{i64 368}
!375 = !{i64 369}
!376 = !{i64 370}
!377 = !{i64 371}
!378 = !{i64 372}
!379 = !{i64 373}
!380 = !{i64 374}
!381 = !{i64 375}
!382 = !{i64 376}
!383 = !{i64 377}
!384 = !{i64 378}
!385 = !{i64 379}
!386 = !{i64 380}
!387 = !{i64 381}
!388 = !{i64 382}
!389 = !{i64 383}
!390 = !{i64 384}
!391 = !{i64 385}
!392 = !{i64 386}
!393 = !{i64 387}
!394 = !{i64 388}
!395 = !{i64 389}
!396 = !{i64 390}
!397 = !{i64 391}
!398 = !{i64 392}
!399 = !{i64 393}
!400 = !{i64 394}
!401 = !{i64 395}
!402 = !{i64 396}
!403 = !{i64 397}
!404 = !{i64 398}
!405 = !{i64 399}
!406 = !{i64 400}
!407 = !{i64 401}
!408 = !{i64 402}
!409 = !{i64 403}
!410 = !{i64 404}
!411 = !{i64 405}
!412 = !{i64 406}
!413 = !{i64 407}
!414 = !{i64 408}
!415 = !{i64 409}
!416 = !{i64 410}
!417 = !{i64 411}
!418 = !{i64 412}
!419 = !{i64 413}
!420 = !{i64 414}
!421 = !{i64 415}
!422 = !{i64 416}
!423 = !{i64 417}
!424 = !{i64 418}
!425 = !{i64 419}
!426 = !{i64 420}
!427 = !{i64 421}
!428 = !{i64 422}
!429 = !{i64 423}
!430 = !{i64 424}
!431 = !{i64 425}
!432 = !{i64 426}
!433 = !{i64 427}
!434 = !{i64 428}
!435 = !{i64 429}
!436 = !{i64 430}
!437 = !{i64 431}
!438 = !{i64 432}
!439 = !{i64 433}
!440 = !{i64 434}
!441 = !{i64 435}
!442 = !{i64 436}
!443 = !{i64 437}
!444 = !{i64 438}
!445 = !{i64 439}
!446 = !{i64 440}
!447 = !{i64 441}
!448 = !{i64 442}
!449 = !{i64 443}
!450 = !{i64 444}
!451 = !{i64 445}
!452 = !{i64 446}
!453 = !{i64 447}
!454 = !{i64 448}
!455 = !{i64 449}
!456 = !{i64 450}
!457 = !{i64 451}
!458 = !{i64 452}
!459 = !{i64 453}
!460 = !{i64 454}
!461 = !{i64 455}
!462 = !{i64 456}
!463 = !{i64 457}
!464 = !{i64 458}
!465 = !{i64 459}
!466 = !{i64 460}
!467 = !{i64 461}
!468 = !{i64 462}
!469 = !{i64 463}
!470 = !{i64 464}
!471 = !{i64 465}
!472 = !{i64 466}
!473 = !{i64 467}
!474 = !{i64 468}
!475 = !{i64 469}
!476 = !{i64 470}
!477 = !{i64 471}
!478 = !{i64 472}
!479 = !{i64 473}
!480 = !{i64 474}
!481 = !{i64 475}
!482 = !{i64 476}
!483 = !{i64 477}
!484 = !{i64 478}
!485 = !{i64 479}
!486 = !{i64 480}
!487 = !{i64 481}
!488 = !{i64 482}
!489 = !{i64 483}
!490 = !{i64 484}
!491 = !{i64 485}
!492 = !{i64 486}
!493 = !{i64 487}
!494 = !{i64 488}
!495 = !{i64 489}
!496 = !{i64 490}
!497 = !{i64 491}
!498 = !{i64 492}
!499 = !{i64 493}
!500 = !{i64 494}
!501 = !{i64 495}
!502 = !{i64 496}
!503 = !{i64 497}
!504 = !{i64 498}
!505 = !{i64 499}
!506 = !{i64 500}
!507 = !{i64 501}
!508 = !{i64 502}
!509 = !{i64 503}
!510 = !{i64 504}
!511 = !{i64 505}
!512 = !{i64 506}
!513 = !{i64 507}
!514 = !{i64 508}
!515 = !{i64 509}
!516 = !{i64 510}
!517 = !{i64 511}
!518 = !{i64 512}
!519 = !{i64 513}
!520 = !{i64 514}
!521 = !{i64 515}
!522 = !{i64 516}
!523 = !{i64 517}
!524 = !{i64 518}
!525 = !{i64 519}
!526 = !{i64 520}
!527 = !{i64 521}
!528 = !{i64 522}
!529 = !{i64 523}
!530 = !{i64 524}
!531 = !{i64 525}
!532 = !{i64 526}
!533 = !{i64 527}
!534 = !{i64 528}
!535 = !{i64 529}
!536 = !{i64 530}
!537 = !{i64 531}
!538 = !{i64 532}
!539 = !{i64 533}
!540 = !{i64 534}
!541 = !{i64 535}
!542 = !{i64 536}
!543 = !{i64 537}
!544 = !{i64 538}
!545 = !{i64 539}
!546 = !{i64 540}
!547 = !{i64 541}
!548 = !{i64 542}
!549 = !{i64 543}
!550 = !{i64 544}
!551 = !{i64 545}
!552 = !{i64 546}
!553 = !{i64 547}
!554 = !{i64 548}
!555 = !{i64 549}
!556 = !{i64 550}
!557 = !{i64 551}
!558 = !{i64 552}
!559 = !{i64 553}
!560 = !{i64 554}
!561 = !{i64 555}
!562 = !{i64 556}
!563 = !{i64 557}
!564 = !{i64 558}
!565 = !{i64 559}
!566 = !{i64 560}
!567 = !{i64 561}
!568 = !{i64 562}
!569 = !{i64 563}
!570 = !{i64 564}
!571 = !{i64 565}
!572 = !{i64 566}
!573 = !{i64 567}
!574 = !{i64 568}
!575 = !{i64 569}
!576 = !{i64 570}
!577 = !{i64 571}
!578 = !{i64 572}
!579 = !{i64 573}
!580 = !{i64 574}
!581 = !{i64 575}
!582 = !{i64 576}
!583 = !{i64 577}
!584 = !{i64 578}
!585 = !{i64 579}
!586 = !{i64 580}
!587 = !{i64 581}
!588 = !{i64 582}
!589 = !{i64 583}
!590 = !{i64 584}
!591 = !{i64 585}
!592 = !{i64 586}
!593 = !{i64 587}
!594 = !{i64 588}
!595 = !{i64 589}
!596 = !{i64 590}
!597 = !{i64 591}
!598 = !{i64 592}
!599 = !{i64 593}
!600 = !{i64 594}
!601 = !{i64 595}
!602 = !{i64 596}
!603 = !{i64 597}
!604 = !{i64 598}
!605 = !{i64 599}
!606 = !{i64 600}
!607 = !{i64 601}
!608 = !{i64 602}
!609 = !{i64 603}
!610 = !{i64 604}
!611 = !{i64 605}
!612 = !{i64 606}
!613 = !{i64 607}
!614 = !{i64 608}
!615 = !{i64 609}
!616 = !{i64 610}
!617 = !{i64 611}
!618 = !{i64 612}
!619 = !{i64 613}
!620 = !{i64 614}
!621 = !{i64 615}
!622 = !{i64 616}
!623 = !{i64 617}
!624 = !{i64 618}
!625 = !{i64 619}
!626 = !{i64 620}
!627 = !{i64 621}
!628 = !{i64 622}
!629 = !{i64 623}
!630 = !{i64 624}
!631 = !{i64 625}
!632 = !{i64 626}
!633 = !{i64 627}
!634 = !{i64 628}
!635 = !{i64 629}
!636 = !{i64 630}
!637 = !{i64 631}
!638 = !{i64 632}
!639 = !{i64 633}
!640 = !{i64 634}
!641 = !{i64 635}
!642 = !{i64 636}
!643 = !{i64 637}
!644 = !{i64 638}
!645 = !{i64 639}
!646 = !{i64 640}
!647 = !{i64 641}
!648 = !{i64 642}
!649 = !{i64 643}
!650 = !{i64 644}
!651 = !{i64 645}
!652 = !{i64 646}
!653 = !{i64 647}
!654 = !{i64 648}
!655 = !{i64 649}
!656 = !{i64 650}
!657 = !{i64 651}
!658 = !{i64 652}
!659 = !{i64 653}
!660 = !{i64 654}
!661 = !{i64 655}
!662 = !{i64 656}
!663 = !{i64 657}
!664 = !{i64 658}
!665 = !{i64 659}
!666 = !{i64 660}
!667 = !{i64 661}
!668 = !{i64 662}
!669 = !{i64 663}
!670 = !{i64 664}
!671 = !{i64 665}
!672 = !{i64 666}
!673 = !{i64 667}
!674 = !{i64 668}
!675 = !{i64 669}
!676 = !{i64 670}
!677 = !{i64 671}
!678 = !{i64 672}
!679 = !{i64 673}
!680 = !{i64 674}
!681 = !{i64 675}
!682 = !{i64 676}
!683 = !{i64 677}
!684 = !{i64 678}
!685 = !{i64 679}
!686 = !{i64 680}
!687 = !{i64 681}
!688 = !{i64 682}
!689 = !{i64 683}
!690 = !{i64 684}
!691 = !{i64 685}
!692 = !{i64 686}
!693 = !{i64 687}
!694 = !{i64 688}
!695 = !{i64 689}
!696 = !{i64 690}
!697 = !{i64 691}
!698 = !{i64 692}
!699 = !{i64 693}
!700 = !{i64 694}
!701 = !{i64 695}
!702 = !{i64 696}
!703 = !{i64 697}
!704 = !{i64 698}
!705 = !{i64 699}
!706 = !{i64 700}
!707 = !{i64 701}
!708 = !{i64 702}
!709 = !{i64 703}
!710 = !{i64 704}
!711 = !{i64 705}
!712 = !{i64 706}
!713 = !{i64 707}
!714 = !{i64 708}
!715 = !{i64 709}
!716 = !{i64 710}
!717 = !{i64 711}
!718 = !{i64 712}
!719 = !{i64 713}
!720 = !{i64 714}
!721 = !{i64 715}
!722 = !{i64 716}
!723 = !{i64 717}
!724 = !{i64 718}
!725 = !{i64 719}
!726 = !{i64 720}
!727 = !{i64 721}
!728 = !{i64 722}
!729 = !{i64 723}
!730 = !{i64 724}
!731 = !{i64 725}
!732 = !{i64 726}
!733 = !{i64 727}
!734 = !{i64 728}
!735 = !{i64 729}
!736 = !{i64 730}
!737 = !{i64 731}
!738 = !{i64 732}
!739 = !{i64 733}
!740 = !{i64 734}
!741 = !{i64 735}
!742 = !{i64 736}
!743 = !{i64 737}
!744 = !{i64 738}
!745 = !{i64 739}
!746 = !{i64 740}
!747 = !{i64 741}
!748 = !{i64 742}
!749 = !{i64 743}
!750 = !{i64 744}
!751 = !{i64 745}
!752 = !{i64 746}
!753 = !{i64 747}
!754 = !{i64 748}
!755 = !{i64 749}
!756 = !{i64 750}
!757 = !{i64 751}
!758 = !{i64 752}
!759 = !{i64 753}
!760 = !{i64 754}
!761 = !{i64 755}
!762 = !{i64 756}
!763 = !{i64 757}
!764 = !{i64 758}
!765 = !{i64 759}
!766 = !{i64 760}
!767 = !{i64 761}
!768 = !{i64 762}
!769 = !{i64 763}
!770 = !{i64 764}
!771 = !{i64 765}
!772 = !{i64 766}
!773 = !{i64 767}
!774 = !{i64 768}
!775 = !{i64 769}
!776 = !{i64 770}
!777 = !{i64 771}
!778 = !{i64 772}
!779 = !{i64 773}
!780 = !{i64 774}
!781 = !{i64 775}
!782 = !{i64 776}
!783 = !{i64 777}
!784 = !{i64 778}
!785 = !{i64 779}
!786 = !{i64 780}
!787 = !{i64 781}
!788 = !{i64 782}
!789 = !{i64 783}
!790 = !{i64 784}
!791 = !{i64 785}
!792 = !{i64 786}
!793 = !{i64 787}
!794 = !{i64 788}
!795 = !{i64 789}
!796 = !{i64 790}
!797 = !{i64 791}
!798 = !{i64 792}
!799 = !{i64 793}
!800 = !{i64 794}
!801 = !{i64 795}
!802 = !{i64 796}
!803 = !{i64 797}
!804 = !{i64 798}
!805 = !{i64 799}
!806 = !{i64 800}
!807 = !{i64 801}
!808 = !{i64 802}
!809 = !{i64 803}
!810 = !{i64 804}
!811 = !{i64 805}
!812 = !{i64 806}
!813 = !{i64 807}
!814 = !{i64 808}
!815 = !{i64 809}
!816 = !{i64 810}
!817 = !{i64 811}
!818 = !{i64 812}
!819 = !{i64 813}
!820 = !{i64 814}
!821 = !{i64 815}
!822 = !{i64 816}
!823 = !{i64 817}
!824 = !{i64 818}
!825 = !{i64 819}
!826 = !{i64 820}
!827 = !{i64 821}
!828 = !{i64 822}
!829 = !{i64 823}
!830 = !{i64 824}
!831 = !{i64 825}
!832 = !{i64 826}
!833 = !{i64 827}
!834 = !{i64 828}
!835 = !{i64 829}
!836 = !{i64 830}
!837 = !{i64 831}
!838 = !{i64 832}
!839 = !{i64 833}
!840 = !{i64 834}
!841 = !{i64 835}
!842 = !{i64 836}
!843 = !{i64 837}
!844 = !{i64 838}
!845 = !{i64 839}
!846 = !{i64 840}
!847 = !{i64 841}
!848 = !{i64 842}
!849 = !{i64 843}
!850 = !{i64 844}
!851 = !{i64 845}
!852 = !{i64 846}
!853 = !{i64 847}
!854 = !{i64 848}
!855 = !{i64 849}
!856 = !{i64 850}
!857 = !{i64 851}
!858 = !{i64 852}
!859 = !{i64 853}
!860 = !{i64 854}
!861 = !{i64 855}
!862 = !{i64 856}
!863 = !{i64 857}
!864 = !{i64 858}
!865 = !{i64 859}
!866 = !{i64 860}
!867 = !{i64 861}
!868 = !{i64 862}
!869 = !{i64 863}
!870 = !{i64 864}
!871 = !{i64 865}
!872 = !{i64 866}
!873 = !{i64 867}
!874 = !{i64 868}
!875 = !{i64 869}
!876 = !{i64 870}
!877 = !{i64 871}
!878 = !{i64 872}
!879 = !{i64 873}
!880 = !{i64 874}
!881 = !{i64 875}
!882 = !{i64 876}
!883 = !{i64 877}
!884 = !{i64 878}
!885 = !{i64 879}
!886 = !{i64 880}
!887 = !{i64 881}
!888 = !{i64 882}
!889 = !{i64 883}
!890 = !{i64 884}
!891 = !{i64 885}
!892 = !{i64 886}
!893 = !{i64 887}
!894 = !{i64 888}
!895 = !{i64 889}
!896 = !{i64 890}
!897 = !{i64 891}
!898 = !{i64 892}
!899 = !{i64 893}
!900 = !{i64 894}
!901 = !{i64 895}
!902 = !{i64 896}
!903 = !{i64 897}
!904 = !{i64 898}
!905 = !{i64 899}
!906 = !{i64 900}
!907 = !{i64 901}
!908 = !{i64 902}
!909 = !{i64 903}
!910 = !{i64 904}
!911 = !{i64 905}
!912 = !{i64 906}
!913 = !{i64 907}
!914 = !{i64 908}
!915 = !{i64 909}
!916 = !{i64 910}
!917 = !{i64 911}
!918 = !{i64 912}
!919 = !{i64 913}
!920 = !{i64 914}
!921 = !{i64 915}
!922 = !{i64 916}
!923 = !{i64 917}
!924 = !{i64 918}
!925 = !{i64 919}
!926 = !{i64 920}
!927 = !{i64 921}
!928 = !{i64 922}
!929 = !{i64 923}
!930 = !{i64 924}
!931 = !{i64 925}
!932 = !{i64 926}
!933 = !{i64 927}
!934 = !{i64 928}
!935 = !{i64 929}
!936 = !{i64 930}
!937 = !{i64 931}
!938 = !{i64 932}
!939 = !{i64 933}
!940 = !{i64 934}
!941 = !{i64 935}
!942 = !{i64 936}
!943 = !{i64 937}
!944 = !{i64 938}
!945 = !{i64 939}
!946 = !{i64 940}
!947 = !{i64 941}
!948 = !{i64 942}
!949 = !{i64 943}
!950 = !{i64 944}
!951 = !{i64 945}
!952 = !{i64 946}
!953 = !{i64 947}
!954 = !{i64 948}
!955 = !{i64 949}
!956 = !{i64 950}
!957 = !{i64 951}
!958 = !{i64 952}
!959 = !{i64 953}
!960 = !{i64 954}
!961 = !{i64 955}
!962 = !{i64 956}
!963 = !{i64 957}
!964 = !{i64 958}
!965 = !{i64 959}
!966 = !{i64 960}
!967 = !{i64 961}
!968 = !{i64 962}
!969 = !{i64 963}
!970 = !{i64 964}
!971 = !{i64 965}
!972 = !{i64 966}
!973 = !{i64 967}
!974 = !{i64 968}
!975 = !{i64 969}
!976 = !{i64 970}
!977 = !{i64 971}
!978 = !{i64 972}
!979 = !{i64 973}
!980 = !{i64 974}
!981 = !{i64 975}
!982 = !{i64 976}
!983 = !{i64 977}
!984 = !{i64 978}
!985 = !{i64 979}
!986 = !{i64 980}
!987 = !{i64 981}
!988 = !{i64 982}
!989 = !{i64 983}
!990 = !{i64 984}
!991 = !{i64 985}
!992 = !{i64 986}
!993 = !{i64 987}
!994 = !{i64 988}
!995 = !{i64 989}
!996 = !{i64 990}
!997 = !{i64 991}
!998 = !{i64 992}
!999 = !{i64 993}
!1000 = !{i64 994}
!1001 = !{i64 995}
!1002 = !{i64 996}
!1003 = !{i64 997}
!1004 = !{i64 998}
!1005 = !{i64 999}
!1006 = !{i64 1000}
!1007 = !{i64 1001}
!1008 = !{i64 1002}
!1009 = !{i64 1003}
!1010 = !{i64 1004}
!1011 = !{i64 1005}
!1012 = !{i64 1006}
!1013 = !{i64 1007}
!1014 = !{i64 1008}
!1015 = !{i64 1009}
!1016 = !{i64 1010}
!1017 = !{i64 1011}
!1018 = !{i64 1012}
!1019 = !{i64 1013}
!1020 = !{i64 1014}
!1021 = !{i64 1015}
!1022 = !{i64 1016}
!1023 = !{i64 1017}
!1024 = !{i64 1018}
!1025 = !{i64 1019}
!1026 = !{i64 1020}
!1027 = !{i64 1021}
!1028 = !{i64 1022}
!1029 = !{i64 1023}
!1030 = !{i64 1024}
!1031 = !{i64 1025}
!1032 = !{i64 1026}
!1033 = !{i64 1027}
!1034 = !{i64 1028}
!1035 = !{i64 1029}
!1036 = !{i64 1030}
!1037 = !{i64 1031}
!1038 = !{i64 1032}
!1039 = !{i64 1033}
!1040 = !{i64 1034}
!1041 = !{i64 1035}
!1042 = !{i64 1036}
!1043 = !{i64 1037}
!1044 = !{i64 1038}
!1045 = !{i64 1039}
!1046 = !{i64 1040}
!1047 = !{i64 1041}
!1048 = !{i64 1042}
!1049 = !{i64 1043}
!1050 = !{i64 1044}
!1051 = !{i64 1045}
!1052 = !{i64 1046}
!1053 = !{i64 1047}
!1054 = !{i64 1048}
!1055 = !{i64 1049}
!1056 = !{i64 1050}
!1057 = !{i64 1051}
!1058 = !{i64 1052}
!1059 = !{i64 1053}
!1060 = !{i64 1054}
!1061 = !{i64 1055}
!1062 = !{i64 1056}
!1063 = !{i64 1057}
!1064 = !{i64 1058}
!1065 = !{i64 1059}
!1066 = !{i64 1060}
!1067 = !{i64 1061}
!1068 = !{i64 1062}
!1069 = !{i64 1063}
!1070 = !{i64 1064}
!1071 = !{i64 1065}
!1072 = !{i64 1066}
!1073 = !{i64 1067}
!1074 = !{i64 1068}
!1075 = !{i64 1069}
!1076 = !{i64 1070}
!1077 = !{i64 1071}
!1078 = !{i64 1072}
!1079 = !{i64 1073}
!1080 = !{i64 1074}
!1081 = !{i64 1075}
!1082 = !{i64 1076}
!1083 = !{i64 1077}
!1084 = !{i64 1078}
!1085 = !{i64 1079}
!1086 = !{i64 1080}
!1087 = !{i64 1081}
!1088 = !{i64 1082}
!1089 = !{i64 1083}
!1090 = !{i64 1084}
!1091 = !{i64 1085}
!1092 = !{i64 1086}
!1093 = !{i64 1087}
!1094 = !{i64 1088}
!1095 = !{i64 1089}
!1096 = !{i64 1090}
!1097 = !{i64 1091}
!1098 = !{i64 1092}
!1099 = !{i64 1093}
!1100 = !{i64 1094}
!1101 = !{i64 1095}
!1102 = !{i64 1096}
!1103 = !{i64 1097}
!1104 = !{i64 1098}
!1105 = !{i64 1099}
!1106 = !{i64 1100}
!1107 = !{i64 1101}
!1108 = !{i64 1102}
!1109 = !{i64 1103}
!1110 = !{i64 1104}
!1111 = !{i64 1105}
!1112 = !{i64 1106}
!1113 = !{i64 1107}
!1114 = !{i64 1108}
!1115 = !{i64 1109}
!1116 = !{i64 1110}
!1117 = !{i64 1111}
!1118 = !{i64 1112}
!1119 = !{i64 1113}
!1120 = !{i64 1114}
!1121 = !{i64 1115}
!1122 = !{i64 1116}
!1123 = !{i64 1117}
!1124 = !{i64 1118}
!1125 = !{i64 1119}
!1126 = !{i64 1120}
!1127 = !{i64 1121}
!1128 = !{i64 1122}
!1129 = !{i64 1123}
!1130 = !{i64 1124}
!1131 = !{i64 1125}
!1132 = !{i64 1126}
!1133 = !{i64 1127}
!1134 = !{i64 1128}
!1135 = !{i64 1129}
!1136 = !{i64 1130}
!1137 = !{i64 1131}
!1138 = !{i64 1132}
!1139 = !{i64 1133}
!1140 = !{i64 1134}
!1141 = !{i64 1135}
!1142 = !{i64 1136}
!1143 = !{i64 1137}
!1144 = !{i64 1138}
!1145 = !{i64 1139}
!1146 = !{i64 1140}
!1147 = !{i64 1141}
!1148 = !{i64 1142}
!1149 = !{i64 1143}
!1150 = !{i64 1144}
!1151 = !{i64 1145}
!1152 = !{i64 1146}
!1153 = !{i64 1147}
!1154 = !{i64 1148}
!1155 = !{i64 1149}
!1156 = !{i64 1150}
!1157 = !{i64 1151}
!1158 = !{i64 1152}
!1159 = !{i64 1153}
!1160 = !{i64 1154}
!1161 = !{i64 1155}
!1162 = !{i64 1156}
!1163 = !{i64 1157}
!1164 = !{i64 1158}
!1165 = !{i64 1159}
!1166 = !{i64 1160}
!1167 = !{i64 1161}
!1168 = !{i64 1162}
!1169 = !{i64 1163}
!1170 = !{i64 1164}
!1171 = !{i64 1165}
!1172 = !{i64 1166}
!1173 = !{i64 1167}
!1174 = !{i64 1168}
!1175 = !{i64 1169}
!1176 = !{i64 1170}
!1177 = !{i64 1171}
!1178 = !{i64 1172}
!1179 = !{i64 1173}
!1180 = !{i64 1174}
!1181 = !{i64 1175}
!1182 = !{i64 1176}
!1183 = !{i64 1177}
!1184 = !{i64 1178}
!1185 = !{i64 1179}
!1186 = !{i64 1180}
!1187 = !{i64 1181}
!1188 = !{i64 1182}
!1189 = !{i64 1183}
!1190 = !{i64 1184}
!1191 = !{i64 1185}
!1192 = !{i64 1186}
!1193 = !{i64 1187}
!1194 = !{i64 1188}
!1195 = !{i64 1189}
!1196 = !{i64 1190}
!1197 = !{i64 1191}
!1198 = !{i64 1192}
!1199 = !{i64 1193}
!1200 = !{i64 1194}
!1201 = !{i64 1195}
!1202 = !{i64 1196}
!1203 = !{i64 1197}
!1204 = !{i64 1198}
!1205 = !{i64 1199}
!1206 = !{i64 1200}
!1207 = !{i64 1201}
!1208 = !{i64 1202}
!1209 = !{i64 1203}
!1210 = !{i64 1204}
!1211 = !{i64 1205}
!1212 = !{i64 1206}
!1213 = !{i64 1207}
!1214 = !{i64 1208}
!1215 = !{i64 1209}
!1216 = !{i64 1210}
!1217 = !{i64 1211}
!1218 = !{i64 1212}
!1219 = !{i64 1213}
!1220 = !{i64 1214}
!1221 = !{i64 1215}
!1222 = !{i64 1216}
!1223 = !{i64 1217}
!1224 = !{i64 1218}
!1225 = !{i64 1219}
!1226 = !{i64 1220}
!1227 = !{i64 1221}
!1228 = !{i64 1222}
!1229 = !{i64 1223}
!1230 = !{i64 1224}
!1231 = !{i64 1225}
!1232 = !{i64 1226}
!1233 = !{i64 1227}
!1234 = !{i64 1228}
!1235 = !{i64 1229}
!1236 = !{i64 1230}
!1237 = !{i64 1231}
!1238 = !{i64 1232}
!1239 = !{i64 1233}
!1240 = !{i64 1234}
!1241 = !{i64 1235}
!1242 = !{i64 1236}
!1243 = !{i64 1237}
!1244 = !{i64 1238}
!1245 = !{i64 1239}
!1246 = !{i64 1240}
!1247 = !{i64 1241}
!1248 = !{i64 1242}
!1249 = !{i64 1243}
!1250 = !{i64 1244}
!1251 = !{i64 1245}
!1252 = !{i64 1246}
!1253 = !{i64 1247}
!1254 = !{i64 1248}
!1255 = !{i64 1249}
!1256 = !{i64 1250}
!1257 = !{i64 1251}
!1258 = !{i64 1252}
!1259 = !{i64 1253}
!1260 = !{i64 1254}
!1261 = !{i64 1255}
!1262 = !{i64 1256}
!1263 = !{i64 1257}
!1264 = !{i64 1258}
!1265 = !{i64 1259}
!1266 = !{i64 1260}
!1267 = !{i64 1261}
!1268 = !{i64 1262}
!1269 = !{i64 1263}
!1270 = !{i64 1264}
!1271 = !{i64 1265}
!1272 = !{i64 1266}
!1273 = !{i64 1267}
!1274 = !{i64 1268}
!1275 = !{i64 1269}
!1276 = !{i64 1270}
!1277 = !{i64 1271}
!1278 = !{i64 1272}
!1279 = !{i64 1273}
!1280 = !{i64 1274}
!1281 = !{i64 1275}
!1282 = !{i64 1276}
!1283 = !{i64 1277}
!1284 = !{i64 1278}
!1285 = !{i64 1279}
!1286 = !{i64 1280}
!1287 = !{i64 1281}
!1288 = !{i64 1282}
!1289 = !{i64 1283}
!1290 = !{i64 1284}
!1291 = !{i64 1285}
!1292 = !{i64 1286}
!1293 = !{i64 1287}
!1294 = !{i64 1288}
!1295 = !{i64 1289}
!1296 = !{i64 1290}
!1297 = !{i64 1291}
!1298 = !{i64 1292}
!1299 = !{i64 1293}
!1300 = !{i64 1294}
!1301 = !{i64 1295}
!1302 = !{i64 1296}
!1303 = !{i64 1297}
!1304 = !{i64 1298}
!1305 = !{i64 1299}
!1306 = !{i64 1300}
!1307 = !{i64 1301}
!1308 = !{i64 1302}
!1309 = !{i64 1303}
!1310 = !{i64 1304}
!1311 = !{i64 1305}
!1312 = !{i64 1306}
!1313 = !{i64 1307}
!1314 = !{i64 1308}
!1315 = !{i64 1309}
!1316 = !{i64 1310}
!1317 = !{i64 1311}
!1318 = !{i64 1312}
!1319 = !{i64 1313}
!1320 = !{i64 1314}
!1321 = !{i64 1315}
!1322 = !{i64 1316}
!1323 = !{i64 1317}
!1324 = !{i64 1318}
!1325 = !{i64 1319}
!1326 = !{i64 1320}
!1327 = !{i64 1321}
!1328 = !{i64 1322}
!1329 = !{i64 1323}
!1330 = !{i64 1324}
!1331 = !{i64 1325}
!1332 = !{i64 1326}
!1333 = !{i64 1327}
!1334 = !{i64 1328}
!1335 = !{i64 1329}
!1336 = !{i64 1330}
!1337 = !{i64 1331}
!1338 = !{i64 1332}
!1339 = !{i64 1333}
!1340 = !{i64 1334}
!1341 = !{i64 1335}
!1342 = !{i64 1336}
!1343 = !{i64 1337}
!1344 = !{i64 1338}
!1345 = !{i64 1339}
!1346 = !{i64 1340}
!1347 = !{i64 1341}
!1348 = !{i64 1342}
!1349 = !{i64 1343}
!1350 = !{i64 1344}
!1351 = !{i64 1345}
!1352 = !{i64 1346}
!1353 = !{i64 1347}
!1354 = !{i64 1348}
!1355 = !{i64 1349}
!1356 = !{i64 1350}
!1357 = !{i64 1351}
!1358 = !{i64 1352}
!1359 = !{i64 1353}
!1360 = !{i64 1354}
!1361 = !{i64 1355}
!1362 = !{i64 1356}
!1363 = !{i64 1357}
!1364 = !{i64 1358}
!1365 = !{i64 1359}
!1366 = !{i64 1360}
!1367 = !{i64 1361}
!1368 = !{i64 1362}
!1369 = !{i64 1363}
!1370 = !{i64 1364}
!1371 = !{i64 1365}
!1372 = !{i64 1366}
!1373 = !{i64 1367}
!1374 = !{i64 1368}
!1375 = !{i64 1369}
!1376 = !{i64 1370}
!1377 = !{i64 1371}
!1378 = !{i64 1372}
!1379 = !{i64 1373}
!1380 = !{i64 1374}
!1381 = !{i64 1375}
!1382 = !{i64 1376}
!1383 = !{i64 1377}
!1384 = !{i64 1378}
!1385 = !{i64 1379}
!1386 = !{i64 1380}
!1387 = !{i64 1381}
!1388 = !{i64 1382}
!1389 = !{i64 1383}
!1390 = !{i64 1384}
!1391 = !{i64 1385}
!1392 = !{i64 1386}
!1393 = !{i64 1387}
!1394 = !{i64 1388}
!1395 = !{i64 1389}
!1396 = !{i64 1390}
!1397 = !{i64 1391}
!1398 = !{i64 1392}
!1399 = !{i64 1393}
!1400 = !{i64 1394}
!1401 = !{i64 1395}
!1402 = !{i64 1396}
!1403 = !{i64 1397}
!1404 = !{i64 1398}
!1405 = !{i64 1399}
!1406 = !{i64 1400}
!1407 = !{i64 1401}
!1408 = !{i64 1402}
!1409 = !{i64 1403}
!1410 = !{i64 1404}
!1411 = !{i64 1405}
!1412 = !{i64 1406}
!1413 = !{i64 1407}
!1414 = !{i64 1408}
!1415 = !{i64 1409}
!1416 = !{i64 1410}
!1417 = !{i64 1411}
!1418 = !{i64 1412}
!1419 = !{i64 1413}
!1420 = !{i64 1414}
!1421 = !{i64 1415}
!1422 = !{i64 1416}
!1423 = !{i64 1417}
!1424 = !{i64 1418}
!1425 = !{i64 1419}
!1426 = !{i64 1420}
!1427 = !{i64 1421}
!1428 = !{i64 1422}
!1429 = !{i64 1423}
!1430 = !{i64 1424}
!1431 = !{i64 1425}
!1432 = !{i64 1426}
!1433 = !{i64 1427}
!1434 = !{i64 1428}
!1435 = !{i64 1429}
!1436 = !{i64 1430}
!1437 = !{i64 1431}
!1438 = !{i64 1432}
!1439 = !{i64 1433}
!1440 = !{i64 1434}
!1441 = !{i64 1435}
!1442 = !{i64 1436}
!1443 = !{i64 1437}
!1444 = !{i64 1438}
!1445 = !{i64 1439}
!1446 = !{i64 1440}
!1447 = !{i64 1441}
!1448 = !{i64 1442}
!1449 = !{i64 1443}
!1450 = !{i64 1444}
!1451 = !{i64 1445}
!1452 = !{i64 1446}
!1453 = !{i64 1447}
!1454 = !{i64 1448}
!1455 = !{i64 1449}
!1456 = !{i64 1450}
!1457 = !{i64 1451}
!1458 = !{i64 1452}
!1459 = !{i64 1453}
!1460 = !{i64 1454}
!1461 = !{i64 1455}
!1462 = !{i64 1456}
!1463 = !{i64 1457}
!1464 = !{i64 1458}
!1465 = !{i64 1459}
!1466 = !{i64 1460}
!1467 = !{i64 1461}
!1468 = !{i64 1462}
!1469 = !{i64 1463}
!1470 = !{i64 1464}
!1471 = !{i64 1465}
!1472 = !{i64 1466}
!1473 = !{i64 1467}
!1474 = !{i64 1468}
!1475 = !{i64 1469}
!1476 = !{i64 1470}
!1477 = !{i64 1471}
!1478 = !{i64 1472}
!1479 = !{i64 1473}
!1480 = !{i64 1474}
!1481 = !{i64 1475}
!1482 = !{i64 1476}
!1483 = !{i64 1477}
!1484 = !{i64 1478}
!1485 = !{i64 1479}
!1486 = !{i64 1480}
!1487 = !{i64 1481}
!1488 = !{i64 1482}
!1489 = !{i64 1483}
!1490 = !{i64 1484}
!1491 = !{i64 1485}
!1492 = !{i64 1486}
!1493 = !{i64 1487}
!1494 = !{i64 1488}
!1495 = !{i64 1489}
!1496 = !{i64 1490}
!1497 = !{i64 1491}
!1498 = !{i64 1492}
!1499 = !{i64 1493}
!1500 = !{i64 1494}
!1501 = !{i64 1495}
!1502 = !{i64 1496}
!1503 = !{i64 1497}
!1504 = !{i64 1498}
!1505 = !{i64 1499}
!1506 = !{i64 1500}
!1507 = !{i64 1501}
!1508 = !{i64 1502}
!1509 = !{i64 1503}
!1510 = !{i64 1504}
!1511 = !{i64 1505}
!1512 = !{i64 1506}
!1513 = !{i64 1507}
!1514 = !{i64 1508}
!1515 = !{i64 1509}
!1516 = !{i64 1510}
!1517 = !{i64 1511}
!1518 = !{i64 1512}
!1519 = !{i64 1513}
!1520 = !{i64 1514}
!1521 = !{i64 1515}
!1522 = !{i64 1516}
!1523 = !{i64 1517}
!1524 = !{i64 1518}
!1525 = !{i64 1519}
!1526 = !{i64 1520}
!1527 = !{i64 1521}
!1528 = !{i64 1522}
!1529 = !{i64 1523}
!1530 = !{i64 1524}
!1531 = !{i64 1525}
!1532 = !{i64 1526}
!1533 = !{i64 1527}
!1534 = !{i64 1528}
!1535 = !{i64 1529}
!1536 = !{i64 1530}
!1537 = !{i64 1531}
!1538 = !{i64 1532}
!1539 = !{i64 1533}
!1540 = !{i64 1534}
!1541 = !{i64 1535}
!1542 = !{i64 1536}
!1543 = !{i64 1537}
!1544 = !{i64 1538}
!1545 = !{i64 1539}
!1546 = !{i64 1540}
!1547 = !{i64 1541}
!1548 = !{i64 1542}
!1549 = !{i64 1543}
!1550 = !{i64 1544}
!1551 = !{i64 1545}
!1552 = !{i64 1546}
!1553 = !{i64 1547}
!1554 = !{i64 1548}
!1555 = !{i64 1549}
!1556 = !{i64 1550}
!1557 = !{i64 1551}
!1558 = !{i64 1552}
!1559 = !{i64 1553}
!1560 = !{i64 1554}
!1561 = !{i64 1555}
!1562 = !{i64 1556}
!1563 = !{i64 1557}
!1564 = !{i64 1558}
!1565 = !{i64 1559}
!1566 = !{i64 1560}
!1567 = !{i64 1561}
!1568 = !{i64 1562}
!1569 = !{i64 1563}
!1570 = !{i64 1564}
!1571 = !{i64 1565}
!1572 = !{i64 1566}
!1573 = !{i64 1567}
!1574 = !{i64 1568}
!1575 = !{i64 1569}
!1576 = !{i64 1570}
!1577 = !{i64 1571}
!1578 = !{i64 1572}
!1579 = !{i64 1573}
!1580 = !{i64 1574}
!1581 = !{i64 1575}
!1582 = !{i64 1576}
!1583 = !{i64 1577}
!1584 = !{i64 1578}
!1585 = !{i64 1579}
!1586 = !{i64 1580}
!1587 = !{i64 1581}
!1588 = !{i64 1582}
!1589 = !{i64 1583}
!1590 = !{i64 1584}
!1591 = !{i64 1585}
!1592 = !{i64 1586}
!1593 = !{i64 1587}
!1594 = !{i64 1588}
!1595 = !{i64 1589}
!1596 = !{i64 1590}
!1597 = !{i64 1591}
!1598 = !{i64 1592}
!1599 = !{i64 1593}
!1600 = !{i64 1594}
!1601 = !{i64 1595}
!1602 = !{i64 1596}
!1603 = !{i64 1597}
!1604 = !{i64 1598}
!1605 = !{i64 1599}
!1606 = !{i64 1600}
!1607 = !{i64 1601}
!1608 = !{i64 1602}
!1609 = !{i64 1603}
!1610 = !{i64 1604}
!1611 = !{i64 1605}
!1612 = !{i64 1606}
!1613 = !{i64 1607}
!1614 = !{i64 1608}
!1615 = !{i64 1609}
!1616 = !{i64 1610}
!1617 = !{i64 1611}
!1618 = !{i64 1612}
!1619 = !{i64 1613}
!1620 = !{i64 1614}
!1621 = !{i64 1615}
!1622 = !{i64 1616}
!1623 = !{i64 1617}
!1624 = !{i64 1618}
!1625 = !{i64 1619}
!1626 = !{i64 1620}
!1627 = !{i64 1621}
!1628 = !{i64 1622}
!1629 = !{i64 1623}
!1630 = !{i64 1624}
!1631 = !{i64 1625}
!1632 = !{i64 1626}
!1633 = !{i64 1627}
!1634 = !{i64 1628}
!1635 = !{i64 1629}
!1636 = !{i64 1630}
!1637 = !{i64 1631}
!1638 = !{i64 1632}
!1639 = !{i64 1633}
!1640 = !{i64 1634}
!1641 = !{i64 1635}
!1642 = !{i64 1636}
!1643 = !{i64 1637}
!1644 = !{i64 1638}
!1645 = !{i64 1639}
!1646 = !{i64 1640}
!1647 = !{i64 1641}
!1648 = !{i64 1642}
!1649 = !{i64 1643}
!1650 = !{i64 1644}
!1651 = !{i64 1645}
!1652 = !{i64 1646}
!1653 = !{i64 1647}
!1654 = !{i64 1648}
!1655 = !{i64 1649}
!1656 = distinct !{!1656, !119}
!1657 = !{i64 1650}
!1658 = !{i64 1651}
!1659 = !{i64 1652}
!1660 = !{i64 1653}
!1661 = !{i64 1654}
!1662 = !{i64 1655}
!1663 = !{i64 1656}
!1664 = !{i64 1657}
!1665 = !{i64 1658}
!1666 = !{i64 1659}
!1667 = !{i64 1660}
!1668 = !{i64 1661}
!1669 = !{i64 1662}
!1670 = !{i64 1663}
!1671 = !{i64 1664}
!1672 = !{i64 1665}
!1673 = !{i64 1666}
!1674 = !{i64 1667}
!1675 = !{i64 1668}
!1676 = !{i64 1669}
!1677 = !{i64 1670}
!1678 = !{i64 1671}
!1679 = !{i64 1672}
!1680 = !{i64 1673}
!1681 = !{i64 1674}
!1682 = !{i64 1675}
!1683 = !{i64 1676}
!1684 = !{i64 1677}
!1685 = !{i64 1678}
!1686 = !{i64 1679}
!1687 = !{i64 1680}
!1688 = !{i64 1681}
!1689 = !{i64 1682}
!1690 = !{i64 1683}
!1691 = !{i64 1684}
!1692 = !{i64 1685}
!1693 = !{i64 1686}
!1694 = !{i64 1687}
!1695 = !{i64 1688}
!1696 = !{i64 1689}
!1697 = !{i64 1690}
!1698 = !{i64 1691}
!1699 = !{i64 1692}
!1700 = !{i64 1693}
!1701 = !{i64 1694}
!1702 = !{i64 1695}
!1703 = !{i64 1696}
!1704 = !{i64 1697}
!1705 = !{i64 1698}
!1706 = !{i64 1699}
!1707 = !{i64 1700}
!1708 = !{i64 1701}
!1709 = !{i64 1702}
!1710 = !{i64 1703}
!1711 = !{i64 1704}
!1712 = !{i64 1705}
!1713 = !{i64 1706}
!1714 = !{i64 1707}
!1715 = !{i64 1708}
!1716 = !{i64 1709}
!1717 = !{i64 1710}
!1718 = !{i64 1711}
!1719 = !{i64 1712}
!1720 = !{i64 1713}
!1721 = !{i64 1714}
!1722 = !{i64 1715}
!1723 = !{i64 1716}
!1724 = !{i64 1717}
!1725 = !{i64 1718}
!1726 = !{i64 1719}
!1727 = !{i64 1720}
!1728 = !{i64 1721}
!1729 = !{i64 1722}
!1730 = !{i64 1723}
!1731 = !{i64 1724}
!1732 = !{i64 1725}
!1733 = !{i64 1726}
!1734 = !{i64 1727}
!1735 = !{i64 1728}
!1736 = !{i64 1729}
!1737 = !{i64 1730}
!1738 = !{i64 1731}
!1739 = !{i64 1732}
!1740 = !{i64 1733}
!1741 = !{i64 1734}
!1742 = !{i64 1735}
!1743 = !{i64 1736}
!1744 = !{i64 1737}
!1745 = !{i64 1738}
!1746 = !{i64 1739}
!1747 = !{i64 1740}
!1748 = !{i64 1741}
!1749 = !{i64 1742}
!1750 = !{i64 1743}
!1751 = !{i64 1744}
