; ModuleID = '/home/hjiang/Computation-Kernel-Dataset/experiments/Fault_injection_0308_parall/O0/TheChosenOne/TheChosenOne.ll'
source_filename = "llvm-link"
target datalayout = "e-m:e-p270:32:32-p271:32:32-p272:64:64-i64:64-f80:128-n8:16:32:64-S128"
target triple = "x86_64-unknown-linux-gnu"

%"class.std::ios_base::Init" = type { i8 }
%struct._IO_FILE = type { i32, i8*, i8*, i8*, i8*, i8*, i8*, i8*, i8*, i8*, i8*, i8*, %struct._IO_marker*, %struct._IO_FILE*, i32, i32, i64, i16, i8, [1 x i8], i8*, i64, %struct._IO_codecvt*, %struct._IO_wide_data*, %struct._IO_FILE*, i8*, i64, i32, [20 x i8] }
%struct._IO_marker = type opaque
%struct._IO_codecvt = type opaque
%struct._IO_wide_data = type opaque
%"class.std::basic_istream" = type { i32 (...)**, i64, %"class.std::basic_ios" }
%"class.std::basic_ios" = type { %"class.std::ios_base", %"class.std::basic_ostream"*, i8, i8, %"class.std::basic_streambuf"*, %"class.std::ctype"*, %"class.std::num_put"*, %"class.std::num_put"* }
%"class.std::ios_base" = type { i32 (...)**, i64, i64, i32, i32, i32, %"struct.std::ios_base::_Callback_list"*, %"struct.std::ios_base::_Words", [8 x %"struct.std::ios_base::_Words"], i32, %"struct.std::ios_base::_Words"*, %"class.std::locale" }
%"struct.std::ios_base::_Callback_list" = type { %"struct.std::ios_base::_Callback_list"*, void (i32, %"class.std::ios_base"*, i32)*, i32, i32 }
%"struct.std::ios_base::_Words" = type { i8*, i64 }
%"class.std::locale" = type { %"class.std::locale::_Impl"* }
%"class.std::locale::_Impl" = type { i32, %"class.std::locale::facet"**, i64, %"class.std::locale::facet"**, i8** }
%"class.std::locale::facet" = type <{ i32 (...)**, i32, [4 x i8] }>
%"class.std::basic_ostream" = type { i32 (...)**, %"class.std::basic_ios" }
%"class.std::basic_streambuf" = type { i32 (...)**, i8*, i8*, i8*, i8*, i8*, i8*, %"class.std::locale" }
%"class.std::ctype" = type <{ %"class.std::locale::facet.base", [4 x i8], %struct.__locale_struct*, i8, [7 x i8], i32*, i32*, i16*, i8, [256 x i8], [256 x i8], i8, [6 x i8] }>
%"class.std::locale::facet.base" = type <{ i32 (...)**, i32 }>
%struct.__locale_struct = type { [13 x %struct.__locale_data*], i16*, i32*, i32*, [13 x i8*] }
%struct.__locale_data = type opaque
%"class.std::num_put" = type { %"class.std::locale::facet.base", [4 x i8] }

@llvm.global_ctors = appending global [1 x { i32, void ()*, i8* }] [{ i32, void ()*, i8* } { i32 65535, void ()* @_GLOBAL__sub_I_TheChosenOne.cpp, i8* null }]
@_ZStL8__ioinit = internal global %"class.std::ios_base::Init" zeroinitializer, align 1
@n = dso_local global i32 0, align 4
@arr = dso_local global [100005 x i64] zeroinitializer, align 16
@left_gcd = dso_local global [100005 x i64] zeroinitializer, align 16
@right_gcd = dso_local global [100005 x i64] zeroinitializer, align 16
@.str = private unnamed_addr constant [28 x i8] c"../input_files/TheChosenOne\00", align 1
@.str.1 = private unnamed_addr constant [2 x i8] c"r\00", align 1
@stdin = external dso_local global %struct._IO_FILE*, align 8
@_ZSt3cin = external dso_local global %"class.std::basic_istream", align 8
@_ZSt4cout = external dso_local global %"class.std::basic_ostream", align 8

; Function Attrs: noinline uwtable
define internal void @_GLOBAL__sub_I_TheChosenOne.cpp() #0 section ".text.startup" {
  call void @__cxx_global_var_init(), !llfi_index !4
  ret void, !llfi_index !5
}

; Function Attrs: noinline uwtable
define internal void @__cxx_global_var_init() #0 section ".text.startup" {
  call void @_ZNSt8ios_base4InitC1Ev(%"class.std::ios_base::Init"* nonnull align 1 dereferenceable(1) @_ZStL8__ioinit), !llfi_index !6
  %1 = call i32 @atexit(void ()* @__dtor__ZStL8__ioinit) #2, !llfi_index !7
  ret void, !llfi_index !8
}

declare dso_local void @_ZNSt8ios_base4InitC1Ev(%"class.std::ios_base::Init"* nonnull align 1 dereferenceable(1)) unnamed_addr #1

; Function Attrs: noinline uwtable
define internal void @__dtor__ZStL8__ioinit() #0 section ".text.startup" {
  call void @_ZNSt8ios_base4InitD1Ev(%"class.std::ios_base::Init"* @_ZStL8__ioinit), !llfi_index !9
  ret void, !llfi_index !10
}

; Function Attrs: nounwind
declare dso_local i32 @atexit(void ()*) #2

; Function Attrs: nounwind
declare dso_local void @_ZNSt8ios_base4InitD1Ev(%"class.std::ios_base::Init"* nonnull align 1 dereferenceable(1)) unnamed_addr #3

; Function Attrs: mustprogress noinline nounwind uwtable
define dso_local i64 @_Z3pwrxxx(i64 %0, i64 %1, i64 %2) #4 {
  %4 = alloca i64, align 8, !llfi_index !11
  %5 = alloca i64, align 8, !llfi_index !12
  %6 = alloca i64, align 8, !llfi_index !13
  %7 = alloca i64, align 8, !llfi_index !14
  store i64 %0, i64* %4, align 8, !llfi_index !15
  store i64 %1, i64* %5, align 8, !llfi_index !16
  store i64 %2, i64* %6, align 8, !llfi_index !17
  store i64 1, i64* %7, align 8, !llfi_index !18
  br label %8, !llfi_index !19

8:                                                ; preds = %21, %3
  %9 = load i64, i64* %5, align 8, !llfi_index !20
  %10 = icmp ne i64 %9, 0, !llfi_index !21
  br i1 %10, label %11, label %29, !llfi_index !22

11:                                               ; preds = %8
  %12 = load i64, i64* %5, align 8, !llfi_index !23
  %13 = and i64 %12, 1, !llfi_index !24
  %14 = icmp ne i64 %13, 0, !llfi_index !25
  br i1 %14, label %15, label %21, !llfi_index !26

15:                                               ; preds = %11
  %16 = load i64, i64* %7, align 8, !llfi_index !27
  %17 = load i64, i64* %4, align 8, !llfi_index !28
  %18 = mul nsw i64 %16, %17, !llfi_index !29
  %19 = load i64, i64* %6, align 8, !llfi_index !30
  %20 = srem i64 %18, %19, !llfi_index !31
  store i64 %20, i64* %7, align 8, !llfi_index !32
  br label %21, !llfi_index !33

21:                                               ; preds = %15, %11
  %22 = load i64, i64* %4, align 8, !llfi_index !34
  %23 = load i64, i64* %4, align 8, !llfi_index !35
  %24 = mul nsw i64 %22, %23, !llfi_index !36
  %25 = load i64, i64* %6, align 8, !llfi_index !37
  %26 = srem i64 %24, %25, !llfi_index !38
  store i64 %26, i64* %4, align 8, !llfi_index !39
  %27 = load i64, i64* %5, align 8, !llfi_index !40
  %28 = sdiv i64 %27, 2, !llfi_index !41
  store i64 %28, i64* %5, align 8, !llfi_index !42
  br label %8, !llvm.loop !43, !llfi_index !45

29:                                               ; preds = %8
  %30 = load i64, i64* %7, align 8, !llfi_index !46
  ret i64 %30, !llfi_index !47
}

; Function Attrs: mustprogress noinline uwtable
define dso_local i64 @_Z3gcdxx(i64 %0, i64 %1) #5 {
  %3 = alloca i64, align 8, !llfi_index !48
  %4 = alloca i64, align 8, !llfi_index !49
  %5 = alloca i64, align 8, !llfi_index !50
  store i64 %0, i64* %4, align 8, !llfi_index !51
  store i64 %1, i64* %5, align 8, !llfi_index !52
  %6 = load i64, i64* %5, align 8, !llfi_index !53
  %7 = icmp eq i64 %6, 0, !llfi_index !54
  br i1 %7, label %8, label %10, !llfi_index !55

8:                                                ; preds = %2
  %9 = load i64, i64* %4, align 8, !llfi_index !56
  store i64 %9, i64* %3, align 8, !llfi_index !57
  br label %16, !llfi_index !58

10:                                               ; preds = %2
  %11 = load i64, i64* %5, align 8, !llfi_index !59
  %12 = load i64, i64* %4, align 8, !llfi_index !60
  %13 = load i64, i64* %5, align 8, !llfi_index !61
  %14 = srem i64 %12, %13, !llfi_index !62
  %15 = call i64 @_Z3gcdxx(i64 %11, i64 %14), !llfi_index !63
  store i64 %15, i64* %3, align 8, !llfi_index !64
  br label %16, !llfi_index !65

16:                                               ; preds = %10, %8
  %17 = load i64, i64* %3, align 8, !llfi_index !66
  ret i64 %17, !llfi_index !67
}

; Function Attrs: mustprogress noinline norecurse uwtable
define dso_local i32 @main() #6 {
  %1 = alloca i32, align 4, !llfi_index !68
  %2 = alloca i32, align 4, !llfi_index !69
  %3 = alloca i32, align 4, !llfi_index !70
  %4 = alloca i32, align 4, !llfi_index !71
  %5 = alloca i64, align 8, !llfi_index !72
  store i32 0, i32* %1, align 4, !llfi_index !73
  %6 = load %struct._IO_FILE*, %struct._IO_FILE** @stdin, align 8, !llfi_index !74
  %7 = call %struct._IO_FILE* @freopen(i8* getelementptr inbounds ([28 x i8], [28 x i8]* @.str, i64 0, i64 0), i8* getelementptr inbounds ([2 x i8], [2 x i8]* @.str.1, i64 0, i64 0), %struct._IO_FILE* %6), !llfi_index !75
  %8 = call zeroext i1 @_ZNSt8ios_base15sync_with_stdioEb(i1 zeroext false), !llfi_index !76
  %9 = load i8*, i8** bitcast (%"class.std::basic_istream"* @_ZSt3cin to i8**), align 8, !llfi_index !77
  %10 = getelementptr i8, i8* %9, i64 -24, !llfi_index !78
  %11 = bitcast i8* %10 to i64*, !llfi_index !79
  %12 = load i64, i64* %11, align 8, !llfi_index !80
  %13 = getelementptr inbounds i8, i8* bitcast (%"class.std::basic_istream"* @_ZSt3cin to i8*), i64 %12, !llfi_index !81
  %14 = bitcast i8* %13 to %"class.std::basic_ios"*, !llfi_index !82
  %15 = call %"class.std::basic_ostream"* @_ZNSt9basic_iosIcSt11char_traitsIcEE3tieEPSo(%"class.std::basic_ios"* nonnull align 8 dereferenceable(264) %14, %"class.std::basic_ostream"* null), !llfi_index !83
  %16 = call nonnull align 8 dereferenceable(16) %"class.std::basic_istream"* @_ZNSirsERi(%"class.std::basic_istream"* nonnull align 8 dereferenceable(16) @_ZSt3cin, i32* nonnull align 4 dereferenceable(4) @n), !llfi_index !84
  store i32 89, i32* %2, align 4, !llfi_index !85
  store i32 1, i32* %3, align 4, !llfi_index !86
  br label %17, !llfi_index !87

17:                                               ; preds = %39, %0
  %18 = load i32, i32* %3, align 4, !llfi_index !88
  %19 = load i32, i32* @n, align 4, !llfi_index !89
  %20 = icmp sle i32 %18, %19, !llfi_index !90
  br i1 %20, label %21, label %42, !llfi_index !91

21:                                               ; preds = %17
  %22 = load i32, i32* %3, align 4, !llfi_index !92
  %23 = sext i32 %22 to i64, !llfi_index !93
  %24 = getelementptr inbounds [100005 x i64], [100005 x i64]* @arr, i64 0, i64 %23, !llfi_index !94
  %25 = call nonnull align 8 dereferenceable(16) %"class.std::basic_istream"* @_ZNSirsERx(%"class.std::basic_istream"* nonnull align 8 dereferenceable(16) @_ZSt3cin, i64* nonnull align 8 dereferenceable(8) %24), !llfi_index !95
  %26 = load i32, i32* %3, align 4, !llfi_index !96
  %27 = sub nsw i32 %26, 1, !llfi_index !97
  %28 = sext i32 %27 to i64, !llfi_index !98
  %29 = getelementptr inbounds [100005 x i64], [100005 x i64]* @left_gcd, i64 0, i64 %28, !llfi_index !99
  %30 = load i64, i64* %29, align 8, !llfi_index !100
  %31 = load i32, i32* %3, align 4, !llfi_index !101
  %32 = sext i32 %31 to i64, !llfi_index !102
  %33 = getelementptr inbounds [100005 x i64], [100005 x i64]* @arr, i64 0, i64 %32, !llfi_index !103
  %34 = load i64, i64* %33, align 8, !llfi_index !104
  %35 = call i64 @_Z3gcdxx(i64 %30, i64 %34), !llfi_index !105
  %36 = load i32, i32* %3, align 4, !llfi_index !106
  %37 = sext i32 %36 to i64, !llfi_index !107
  %38 = getelementptr inbounds [100005 x i64], [100005 x i64]* @left_gcd, i64 0, i64 %37, !llfi_index !108
  store i64 %35, i64* %38, align 8, !llfi_index !109
  br label %39, !llfi_index !110

39:                                               ; preds = %21
  %40 = load i32, i32* %3, align 4, !llfi_index !111
  %41 = add nsw i32 %40, 1, !llfi_index !112
  store i32 %41, i32* %3, align 4, !llfi_index !113
  br label %17, !llvm.loop !114, !llfi_index !115

42:                                               ; preds = %17
  %43 = load i32, i32* @n, align 4, !llfi_index !116
  %44 = icmp eq i32 %43, 1, !llfi_index !117
  br i1 %44, label %45, label %49, !llfi_index !118

45:                                               ; preds = %42
  %46 = load i64, i64* getelementptr inbounds ([100005 x i64], [100005 x i64]* @arr, i64 0, i64 1), align 8, !llfi_index !119
  %47 = add nsw i64 %46, 1, !llfi_index !120
  %48 = call nonnull align 8 dereferenceable(8) %"class.std::basic_ostream"* @_ZNSolsEx(%"class.std::basic_ostream"* nonnull align 8 dereferenceable(8) @_ZSt4cout, i64 %47), !llfi_index !121
  store i32 0, i32* %1, align 4, !llfi_index !122
  br label %94, !llfi_index !123

49:                                               ; preds = %42
  store i32 89, i32* %2, align 4, !llfi_index !124
  %50 = load i32, i32* @n, align 4, !llfi_index !125
  store i32 %50, i32* %4, align 4, !llfi_index !126
  br label %51, !llfi_index !127

51:                                               ; preds = %90, %49
  %52 = load i32, i32* %4, align 4, !llfi_index !128
  %53 = icmp sge i32 %52, 1, !llfi_index !129
  br i1 %53, label %54, label %93, !llfi_index !130

54:                                               ; preds = %51
  %55 = load i32, i32* %4, align 4, !llfi_index !131
  %56 = add nsw i32 %55, 1, !llfi_index !132
  %57 = sext i32 %56 to i64, !llfi_index !133
  %58 = getelementptr inbounds [100005 x i64], [100005 x i64]* @right_gcd, i64 0, i64 %57, !llfi_index !134
  %59 = load i64, i64* %58, align 8, !llfi_index !135
  %60 = load i32, i32* %4, align 4, !llfi_index !136
  %61 = sext i32 %60 to i64, !llfi_index !137
  %62 = getelementptr inbounds [100005 x i64], [100005 x i64]* @arr, i64 0, i64 %61, !llfi_index !138
  %63 = load i64, i64* %62, align 8, !llfi_index !139
  %64 = call i64 @_Z3gcdxx(i64 %59, i64 %63), !llfi_index !140
  %65 = load i32, i32* %4, align 4, !llfi_index !141
  %66 = sext i32 %65 to i64, !llfi_index !142
  %67 = getelementptr inbounds [100005 x i64], [100005 x i64]* @right_gcd, i64 0, i64 %66, !llfi_index !143
  store i64 %64, i64* %67, align 8, !llfi_index !144
  %68 = load i32, i32* %4, align 4, !llfi_index !145
  %69 = sub nsw i32 %68, 1, !llfi_index !146
  %70 = sext i32 %69 to i64, !llfi_index !147
  %71 = getelementptr inbounds [100005 x i64], [100005 x i64]* @left_gcd, i64 0, i64 %70, !llfi_index !148
  %72 = load i64, i64* %71, align 8, !llfi_index !149
  %73 = load i32, i32* %4, align 4, !llfi_index !150
  %74 = add nsw i32 %73, 1, !llfi_index !151
  %75 = sext i32 %74 to i64, !llfi_index !152
  %76 = getelementptr inbounds [100005 x i64], [100005 x i64]* @right_gcd, i64 0, i64 %75, !llfi_index !153
  %77 = load i64, i64* %76, align 8, !llfi_index !154
  %78 = call i64 @_Z3gcdxx(i64 %72, i64 %77), !llfi_index !155
  store i64 %78, i64* %5, align 8, !llfi_index !156
  %79 = load i32, i32* %4, align 4, !llfi_index !157
  %80 = sext i32 %79 to i64, !llfi_index !158
  %81 = getelementptr inbounds [100005 x i64], [100005 x i64]* @arr, i64 0, i64 %80, !llfi_index !159
  %82 = load i64, i64* %81, align 8, !llfi_index !160
  %83 = load i64, i64* %5, align 8, !llfi_index !161
  %84 = srem i64 %82, %83, !llfi_index !162
  %85 = icmp ne i64 %84, 0, !llfi_index !163
  br i1 %85, label %86, label %89, !llfi_index !164

86:                                               ; preds = %54
  %87 = load i64, i64* %5, align 8, !llfi_index !165
  %88 = call nonnull align 8 dereferenceable(8) %"class.std::basic_ostream"* @_ZNSolsEx(%"class.std::basic_ostream"* nonnull align 8 dereferenceable(8) @_ZSt4cout, i64 %87), !llfi_index !166
  store i32 0, i32* %1, align 4, !llfi_index !167
  br label %94, !llfi_index !168

89:                                               ; preds = %54
  br label %90, !llfi_index !169

90:                                               ; preds = %89
  %91 = load i32, i32* %4, align 4, !llfi_index !170
  %92 = add nsw i32 %91, -1, !llfi_index !171
  store i32 %92, i32* %4, align 4, !llfi_index !172
  br label %51, !llvm.loop !173, !llfi_index !174

93:                                               ; preds = %51
  store i32 0, i32* %1, align 4, !llfi_index !175
  br label %94, !llfi_index !176

94:                                               ; preds = %93, %86, %45
  %95 = load i32, i32* %1, align 4, !llfi_index !177
  ret i32 %95, !llfi_index !178
}

declare dso_local %struct._IO_FILE* @freopen(i8*, i8*, %struct._IO_FILE*) #1

declare dso_local zeroext i1 @_ZNSt8ios_base15sync_with_stdioEb(i1 zeroext) #1

declare dso_local %"class.std::basic_ostream"* @_ZNSt9basic_iosIcSt11char_traitsIcEE3tieEPSo(%"class.std::basic_ios"* nonnull align 8 dereferenceable(264), %"class.std::basic_ostream"*) #1

declare dso_local nonnull align 8 dereferenceable(16) %"class.std::basic_istream"* @_ZNSirsERi(%"class.std::basic_istream"* nonnull align 8 dereferenceable(16), i32* nonnull align 4 dereferenceable(4)) #1

declare dso_local nonnull align 8 dereferenceable(16) %"class.std::basic_istream"* @_ZNSirsERx(%"class.std::basic_istream"* nonnull align 8 dereferenceable(16), i64* nonnull align 8 dereferenceable(8)) #1

declare dso_local nonnull align 8 dereferenceable(8) %"class.std::basic_ostream"* @_ZNSolsEx(%"class.std::basic_ostream"* nonnull align 8 dereferenceable(8), i64) #1

attributes #0 = { noinline uwtable "frame-pointer"="all" "min-legal-vector-width"="0" "no-trapping-math"="true" "stack-protector-buffer-size"="8" "target-cpu"="x86-64" "target-features"="+cx8,+fxsr,+mmx,+sse,+sse2,+x87" "tune-cpu"="generic" }
attributes #1 = { "frame-pointer"="all" "no-trapping-math"="true" "stack-protector-buffer-size"="8" "target-cpu"="x86-64" "target-features"="+cx8,+fxsr,+mmx,+sse,+sse2,+x87" "tune-cpu"="generic" }
attributes #2 = { nounwind }
attributes #3 = { nounwind "frame-pointer"="all" "no-trapping-math"="true" "stack-protector-buffer-size"="8" "target-cpu"="x86-64" "target-features"="+cx8,+fxsr,+mmx,+sse,+sse2,+x87" "tune-cpu"="generic" }
attributes #4 = { mustprogress noinline nounwind uwtable "frame-pointer"="all" "min-legal-vector-width"="0" "no-trapping-math"="true" "stack-protector-buffer-size"="8" "target-cpu"="x86-64" "target-features"="+cx8,+fxsr,+mmx,+sse,+sse2,+x87" "tune-cpu"="generic" }
attributes #5 = { mustprogress noinline uwtable "frame-pointer"="all" "min-legal-vector-width"="0" "no-trapping-math"="true" "stack-protector-buffer-size"="8" "target-cpu"="x86-64" "target-features"="+cx8,+fxsr,+mmx,+sse,+sse2,+x87" "tune-cpu"="generic" }
attributes #6 = { mustprogress noinline norecurse uwtable "frame-pointer"="all" "min-legal-vector-width"="0" "no-trapping-math"="true" "stack-protector-buffer-size"="8" "target-cpu"="x86-64" "target-features"="+cx8,+fxsr,+mmx,+sse,+sse2,+x87" "tune-cpu"="generic" }

!llvm.ident = !{!0}
!llvm.module.flags = !{!1, !2, !3}

!0 = !{!"clang version 13.0.0 (https://github.com/llvm/llvm-project.git d7b669b3a30345cfcdb2fde2af6f48aa4b94845d)"}
!1 = !{i32 1, !"wchar_size", i32 4}
!2 = !{i32 7, !"uwtable", i32 1}
!3 = !{i32 7, !"frame-pointer", i32 2}
!4 = !{i64 1}
!5 = !{i64 2}
!6 = !{i64 3}
!7 = !{i64 4}
!8 = !{i64 5}
!9 = !{i64 6}
!10 = !{i64 7}
!11 = !{i64 8}
!12 = !{i64 9}
!13 = !{i64 10}
!14 = !{i64 11}
!15 = !{i64 12}
!16 = !{i64 13}
!17 = !{i64 14}
!18 = !{i64 15}
!19 = !{i64 16}
!20 = !{i64 17}
!21 = !{i64 18}
!22 = !{i64 19}
!23 = !{i64 20}
!24 = !{i64 21}
!25 = !{i64 22}
!26 = !{i64 23}
!27 = !{i64 24}
!28 = !{i64 25}
!29 = !{i64 26}
!30 = !{i64 27}
!31 = !{i64 28}
!32 = !{i64 29}
!33 = !{i64 30}
!34 = !{i64 31}
!35 = !{i64 32}
!36 = !{i64 33}
!37 = !{i64 34}
!38 = !{i64 35}
!39 = !{i64 36}
!40 = !{i64 37}
!41 = !{i64 38}
!42 = !{i64 39}
!43 = distinct !{!43, !44}
!44 = !{!"llvm.loop.mustprogress"}
!45 = !{i64 40}
!46 = !{i64 41}
!47 = !{i64 42}
!48 = !{i64 43}
!49 = !{i64 44}
!50 = !{i64 45}
!51 = !{i64 46}
!52 = !{i64 47}
!53 = !{i64 48}
!54 = !{i64 49}
!55 = !{i64 50}
!56 = !{i64 51}
!57 = !{i64 52}
!58 = !{i64 53}
!59 = !{i64 54}
!60 = !{i64 55}
!61 = !{i64 56}
!62 = !{i64 57}
!63 = !{i64 58}
!64 = !{i64 59}
!65 = !{i64 60}
!66 = !{i64 61}
!67 = !{i64 62}
!68 = !{i64 63}
!69 = !{i64 64}
!70 = !{i64 65}
!71 = !{i64 66}
!72 = !{i64 67}
!73 = !{i64 68}
!74 = !{i64 69}
!75 = !{i64 70}
!76 = !{i64 71}
!77 = !{i64 72}
!78 = !{i64 73}
!79 = !{i64 74}
!80 = !{i64 75}
!81 = !{i64 76}
!82 = !{i64 77}
!83 = !{i64 78}
!84 = !{i64 79}
!85 = !{i64 80}
!86 = !{i64 81}
!87 = !{i64 82}
!88 = !{i64 83}
!89 = !{i64 84}
!90 = !{i64 85}
!91 = !{i64 86}
!92 = !{i64 87}
!93 = !{i64 88}
!94 = !{i64 89}
!95 = !{i64 90}
!96 = !{i64 91}
!97 = !{i64 92}
!98 = !{i64 93}
!99 = !{i64 94}
!100 = !{i64 95}
!101 = !{i64 96}
!102 = !{i64 97}
!103 = !{i64 98}
!104 = !{i64 99}
!105 = !{i64 100}
!106 = !{i64 101}
!107 = !{i64 102}
!108 = !{i64 103}
!109 = !{i64 104}
!110 = !{i64 105}
!111 = !{i64 106}
!112 = !{i64 107}
!113 = !{i64 108}
!114 = distinct !{!114, !44}
!115 = !{i64 109}
!116 = !{i64 110}
!117 = !{i64 111}
!118 = !{i64 112}
!119 = !{i64 113}
!120 = !{i64 114}
!121 = !{i64 115}
!122 = !{i64 116}
!123 = !{i64 117}
!124 = !{i64 118}
!125 = !{i64 119}
!126 = !{i64 120}
!127 = !{i64 121}
!128 = !{i64 122}
!129 = !{i64 123}
!130 = !{i64 124}
!131 = !{i64 125}
!132 = !{i64 126}
!133 = !{i64 127}
!134 = !{i64 128}
!135 = !{i64 129}
!136 = !{i64 130}
!137 = !{i64 131}
!138 = !{i64 132}
!139 = !{i64 133}
!140 = !{i64 134}
!141 = !{i64 135}
!142 = !{i64 136}
!143 = !{i64 137}
!144 = !{i64 138}
!145 = !{i64 139}
!146 = !{i64 140}
!147 = !{i64 141}
!148 = !{i64 142}
!149 = !{i64 143}
!150 = !{i64 144}
!151 = !{i64 145}
!152 = !{i64 146}
!153 = !{i64 147}
!154 = !{i64 148}
!155 = !{i64 149}
!156 = !{i64 150}
!157 = !{i64 151}
!158 = !{i64 152}
!159 = !{i64 153}
!160 = !{i64 154}
!161 = !{i64 155}
!162 = !{i64 156}
!163 = !{i64 157}
!164 = !{i64 158}
!165 = !{i64 159}
!166 = !{i64 160}
!167 = !{i64 161}
!168 = !{i64 162}
!169 = !{i64 163}
!170 = !{i64 164}
!171 = !{i64 165}
!172 = !{i64 166}
!173 = distinct !{!173, !44}
!174 = !{i64 167}
!175 = !{i64 168}
!176 = !{i64 169}
!177 = !{i64 170}
!178 = !{i64 171}
