; ModuleID = '/home/hjiang/Computation-Kernel-Dataset/experiments/Fault_injection_0308_parall/O0/TileStackingProblem/TileStackingProblem.ll'
source_filename = "llvm-link"
target datalayout = "e-m:e-p270:32:32-p271:32:32-p272:64:64-i64:64-f80:128-n8:16:32:64-S128"
target triple = "x86_64-unknown-linux-gnu"

%"class.std::ios_base::Init" = type { i8 }
%struct._IO_FILE = type { i32, i8*, i8*, i8*, i8*, i8*, i8*, i8*, i8*, i8*, i8*, i8*, %struct._IO_marker*, %struct._IO_FILE*, i32, i32, i64, i16, i8, [1 x i8], i8*, i64, %struct._IO_codecvt*, %struct._IO_wide_data*, %struct._IO_FILE*, i8*, i64, i32, [20 x i8] }
%struct._IO_marker = type opaque
%struct._IO_codecvt = type opaque
%struct._IO_wide_data = type opaque
%"class.std::basic_istream" = type { i32 (...)**, i64, %"class.std::basic_ios" }
%"class.std::basic_ios" = type { %"class.std::ios_base", %"class.std::basic_ostream"*, i8, i8, %"class.std::basic_streambuf"*, %"class.std::ctype"*, %"class.std::num_put"*, %"class.std::num_put"* }
%"class.std::ios_base" = type { i32 (...)**, i64, i64, i32, i32, i32, %"struct.std::ios_base::_Callback_list"*, %"struct.std::ios_base::_Words", [8 x %"struct.std::ios_base::_Words"], i32, %"struct.std::ios_base::_Words"*, %"class.std::locale" }
%"struct.std::ios_base::_Callback_list" = type { %"struct.std::ios_base::_Callback_list"*, void (i32, %"class.std::ios_base"*, i32)*, i32, i32 }
%"struct.std::ios_base::_Words" = type { i8*, i64 }
%"class.std::locale" = type { %"class.std::locale::_Impl"* }
%"class.std::locale::_Impl" = type { i32, %"class.std::locale::facet"**, i64, %"class.std::locale::facet"**, i8** }
%"class.std::locale::facet" = type <{ i32 (...)**, i32, [4 x i8] }>
%"class.std::basic_ostream" = type { i32 (...)**, %"class.std::basic_ios" }
%"class.std::basic_streambuf" = type { i32 (...)**, i8*, i8*, i8*, i8*, i8*, i8*, %"class.std::locale" }
%"class.std::ctype" = type <{ %"class.std::locale::facet.base", [4 x i8], %struct.__locale_struct*, i8, [7 x i8], i32*, i32*, i16*, i8, [256 x i8], [256 x i8], i8, [6 x i8] }>
%"class.std::locale::facet.base" = type <{ i32 (...)**, i32 }>
%struct.__locale_struct = type { [13 x %struct.__locale_data*], i16*, i32*, i32*, [13 x i8*] }
%struct.__locale_data = type opaque
%"class.std::num_put" = type { %"class.std::locale::facet.base", [4 x i8] }

@llvm.global_ctors = appending global [1 x { i32, void ()*, i8* }] [{ i32, void ()*, i8* } { i32 65535, void ()* @_GLOBAL__sub_I_TileStackingProblem.cpp, i8* null }]
@_ZStL8__ioinit = internal global %"class.std::ios_base::Init" zeroinitializer, align 1
@dp = dso_local global [10001 x [1001 x i32]] zeroinitializer, align 16
@dp_sum = dso_local global [10001 x [1001 x i32]] zeroinitializer, align 16
@.str = private unnamed_addr constant [35 x i8] c"../input_files/TileStackingProblem\00", align 1
@.str.1 = private unnamed_addr constant [2 x i8] c"r\00", align 1
@stdin = external dso_local global %struct._IO_FILE*, align 8
@_ZSt3cin = external dso_local global %"class.std::basic_istream", align 8
@.str.2 = private unnamed_addr constant [17 x i8] c"n >= 1 && n <= N\00", align 1
@.str.3 = private unnamed_addr constant [24 x i8] c"TileStackingProblem.cpp\00", align 1
@__PRETTY_FUNCTION__.main = private unnamed_addr constant [11 x i8] c"int main()\00", align 1
@.str.4 = private unnamed_addr constant [17 x i8] c"m >= 1 && m <= M\00", align 1
@.str.5 = private unnamed_addr constant [17 x i8] c"k >= 1 && k <= K\00", align 1
@_ZSt4cout = external dso_local global %"class.std::basic_ostream", align 8

; Function Attrs: noinline uwtable
define internal void @_GLOBAL__sub_I_TileStackingProblem.cpp() #0 section ".text.startup" {
  call void @__cxx_global_var_init(), !llfi_index !4
  ret void, !llfi_index !5
}

; Function Attrs: noinline uwtable
define internal void @__cxx_global_var_init() #0 section ".text.startup" {
  call void @_ZNSt8ios_base4InitC1Ev(%"class.std::ios_base::Init"* nonnull align 1 dereferenceable(1) @_ZStL8__ioinit), !llfi_index !6
  %1 = call i32 @atexit(void ()* @__dtor__ZStL8__ioinit) #2, !llfi_index !7
  ret void, !llfi_index !8
}

declare dso_local void @_ZNSt8ios_base4InitC1Ev(%"class.std::ios_base::Init"* nonnull align 1 dereferenceable(1)) unnamed_addr #1

; Function Attrs: noinline uwtable
define internal void @__dtor__ZStL8__ioinit() #0 section ".text.startup" {
  call void @_ZNSt8ios_base4InitD1Ev(%"class.std::ios_base::Init"* @_ZStL8__ioinit), !llfi_index !9
  ret void, !llfi_index !10
}

; Function Attrs: nounwind
declare dso_local i32 @atexit(void ()*) #2

; Function Attrs: nounwind
declare dso_local void @_ZNSt8ios_base4InitD1Ev(%"class.std::ios_base::Init"* nonnull align 1 dereferenceable(1)) unnamed_addr #3

; Function Attrs: mustprogress noinline norecurse uwtable
define dso_local i32 @main() #4 {
  %1 = alloca i32, align 4, !llfi_index !11
  %2 = alloca i32, align 4, !llfi_index !12
  %3 = alloca i32, align 4, !llfi_index !13
  %4 = alloca i32, align 4, !llfi_index !14
  %5 = alloca i32, align 4, !llfi_index !15
  %6 = alloca i32, align 4, !llfi_index !16
  %7 = alloca i32, align 4, !llfi_index !17
  %8 = alloca i32, align 4, !llfi_index !18
  %9 = alloca i32, align 4, !llfi_index !19
  %10 = alloca i32, align 4, !llfi_index !20
  store i32 0, i32* %1, align 4, !llfi_index !21
  %11 = load %struct._IO_FILE*, %struct._IO_FILE** @stdin, align 8, !llfi_index !22
  %12 = call %struct._IO_FILE* @freopen(i8* getelementptr inbounds ([35 x i8], [35 x i8]* @.str, i64 0, i64 0), i8* getelementptr inbounds ([2 x i8], [2 x i8]* @.str.1, i64 0, i64 0), %struct._IO_FILE* %11), !llfi_index !23
  %13 = call zeroext i1 @_ZNSt8ios_base15sync_with_stdioEb(i1 zeroext false), !llfi_index !24
  %14 = call nonnull align 8 dereferenceable(16) %"class.std::basic_istream"* @_ZNSirsERi(%"class.std::basic_istream"* nonnull align 8 dereferenceable(16) @_ZSt3cin, i32* nonnull align 4 dereferenceable(4) %2), !llfi_index !25
  %15 = call nonnull align 8 dereferenceable(16) %"class.std::basic_istream"* @_ZNSirsERi(%"class.std::basic_istream"* nonnull align 8 dereferenceable(16) %14, i32* nonnull align 4 dereferenceable(4) %3), !llfi_index !26
  %16 = call nonnull align 8 dereferenceable(16) %"class.std::basic_istream"* @_ZNSirsERi(%"class.std::basic_istream"* nonnull align 8 dereferenceable(16) %15, i32* nonnull align 4 dereferenceable(4) %4), !llfi_index !27
  %17 = load i32, i32* %2, align 4, !llfi_index !28
  %18 = icmp sge i32 %17, 1, !llfi_index !29
  br i1 %18, label %19, label %22, !llfi_index !30

19:                                               ; preds = %0
  %20 = load i32, i32* %2, align 4, !llfi_index !31
  %21 = icmp sle i32 %20, 10000, !llfi_index !32
  br label %22, !llfi_index !33

22:                                               ; preds = %19, %0
  %23 = phi i1 [ false, %0 ], [ %21, %19 ], !llfi_index !34
  br i1 %23, label %24, label %25, !llfi_index !35

24:                                               ; preds = %22
  br label %27, !llfi_index !36

25:                                               ; preds = %22
  call void @__assert_fail(i8* getelementptr inbounds ([17 x i8], [17 x i8]* @.str.2, i64 0, i64 0), i8* getelementptr inbounds ([24 x i8], [24 x i8]* @.str.3, i64 0, i64 0), i32 57, i8* getelementptr inbounds ([11 x i8], [11 x i8]* @__PRETTY_FUNCTION__.main, i64 0, i64 0)) #6, !llfi_index !37
  unreachable, !llfi_index !38

26:                                               ; No predecessors!
  br label %27, !llfi_index !39

27:                                               ; preds = %26, %24
  %28 = load i32, i32* %3, align 4, !llfi_index !40
  %29 = icmp sge i32 %28, 1, !llfi_index !41
  br i1 %29, label %30, label %33, !llfi_index !42

30:                                               ; preds = %27
  %31 = load i32, i32* %3, align 4, !llfi_index !43
  %32 = icmp sle i32 %31, 1000, !llfi_index !44
  br label %33, !llfi_index !45

33:                                               ; preds = %30, %27
  %34 = phi i1 [ false, %27 ], [ %32, %30 ], !llfi_index !46
  br i1 %34, label %35, label %36, !llfi_index !47

35:                                               ; preds = %33
  br label %38, !llfi_index !48

36:                                               ; preds = %33
  call void @__assert_fail(i8* getelementptr inbounds ([17 x i8], [17 x i8]* @.str.4, i64 0, i64 0), i8* getelementptr inbounds ([24 x i8], [24 x i8]* @.str.3, i64 0, i64 0), i32 58, i8* getelementptr inbounds ([11 x i8], [11 x i8]* @__PRETTY_FUNCTION__.main, i64 0, i64 0)) #6, !llfi_index !49
  unreachable, !llfi_index !50

37:                                               ; No predecessors!
  br label %38, !llfi_index !51

38:                                               ; preds = %37, %35
  %39 = load i32, i32* %4, align 4, !llfi_index !52
  %40 = icmp sge i32 %39, 1, !llfi_index !53
  br i1 %40, label %41, label %44, !llfi_index !54

41:                                               ; preds = %38
  %42 = load i32, i32* %4, align 4, !llfi_index !55
  %43 = icmp sle i32 %42, 5000, !llfi_index !56
  br label %44, !llfi_index !57

44:                                               ; preds = %41, %38
  %45 = phi i1 [ false, %38 ], [ %43, %41 ], !llfi_index !58
  br i1 %45, label %46, label %47, !llfi_index !59

46:                                               ; preds = %44
  br label %49, !llfi_index !60

47:                                               ; preds = %44
  call void @__assert_fail(i8* getelementptr inbounds ([17 x i8], [17 x i8]* @.str.5, i64 0, i64 0), i8* getelementptr inbounds ([24 x i8], [24 x i8]* @.str.3, i64 0, i64 0), i32 59, i8* getelementptr inbounds ([11 x i8], [11 x i8]* @__PRETTY_FUNCTION__.main, i64 0, i64 0)) #6, !llfi_index !61
  unreachable, !llfi_index !62

48:                                               ; No predecessors!
  br label %49, !llfi_index !63

49:                                               ; preds = %48, %46
  store i32 89, i32* %5, align 4, !llfi_index !64
  store i32 0, i32* %6, align 4, !llfi_index !65
  br label %50, !llfi_index !66

50:                                               ; preds = %61, %49
  %51 = load i32, i32* %6, align 4, !llfi_index !67
  %52 = load i32, i32* %3, align 4, !llfi_index !68
  %53 = icmp sle i32 %51, %52, !llfi_index !69
  br i1 %53, label %54, label %64, !llfi_index !70

54:                                               ; preds = %50
  %55 = load i32, i32* %6, align 4, !llfi_index !71
  %56 = sext i32 %55 to i64, !llfi_index !72
  %57 = getelementptr inbounds [1001 x i32], [1001 x i32]* getelementptr inbounds ([10001 x [1001 x i32]], [10001 x [1001 x i32]]* @dp, i64 0, i64 0), i64 0, i64 %56, !llfi_index !73
  store i32 1, i32* %57, align 4, !llfi_index !74
  %58 = load i32, i32* %6, align 4, !llfi_index !75
  %59 = sext i32 %58 to i64, !llfi_index !76
  %60 = getelementptr inbounds [1001 x i32], [1001 x i32]* getelementptr inbounds ([10001 x [1001 x i32]], [10001 x [1001 x i32]]* @dp_sum, i64 0, i64 0), i64 0, i64 %59, !llfi_index !77
  store i32 1, i32* %60, align 4, !llfi_index !78
  br label %61, !llfi_index !79

61:                                               ; preds = %54
  %62 = load i32, i32* %6, align 4, !llfi_index !80
  %63 = add nsw i32 %62, 1, !llfi_index !81
  store i32 %63, i32* %6, align 4, !llfi_index !82
  br label %50, !llvm.loop !83, !llfi_index !85

64:                                               ; preds = %50
  store i32 89, i32* %5, align 4, !llfi_index !86
  store i32 1, i32* %7, align 4, !llfi_index !87
  br label %65, !llfi_index !88

65:                                               ; preds = %78, %64
  %66 = load i32, i32* %7, align 4, !llfi_index !89
  %67 = load i32, i32* %2, align 4, !llfi_index !90
  %68 = icmp sle i32 %66, %67, !llfi_index !91
  br i1 %68, label %69, label %81, !llfi_index !92

69:                                               ; preds = %65
  %70 = load i32, i32* %7, align 4, !llfi_index !93
  %71 = sext i32 %70 to i64, !llfi_index !94
  %72 = getelementptr inbounds [10001 x [1001 x i32]], [10001 x [1001 x i32]]* @dp, i64 0, i64 %71, !llfi_index !95
  %73 = getelementptr inbounds [1001 x i32], [1001 x i32]* %72, i64 0, i64 0, !llfi_index !96
  store i32 0, i32* %73, align 4, !llfi_index !97
  %74 = load i32, i32* %7, align 4, !llfi_index !98
  %75 = sext i32 %74 to i64, !llfi_index !99
  %76 = getelementptr inbounds [10001 x [1001 x i32]], [10001 x [1001 x i32]]* @dp_sum, i64 0, i64 %75, !llfi_index !100
  %77 = getelementptr inbounds [1001 x i32], [1001 x i32]* %76, i64 0, i64 0, !llfi_index !101
  store i32 1, i32* %77, align 4, !llfi_index !102
  br label %78, !llfi_index !103

78:                                               ; preds = %69
  %79 = load i32, i32* %7, align 4, !llfi_index !104
  %80 = add nsw i32 %79, 1, !llfi_index !105
  store i32 %80, i32* %7, align 4, !llfi_index !106
  br label %65, !llvm.loop !107, !llfi_index !108

81:                                               ; preds = %65
  store i32 89, i32* %5, align 4, !llfi_index !109
  store i32 1, i32* %8, align 4, !llfi_index !110
  br label %82, !llfi_index !111

82:                                               ; preds = %191, %81
  %83 = load i32, i32* %8, align 4, !llfi_index !112
  %84 = load i32, i32* %3, align 4, !llfi_index !113
  %85 = icmp sle i32 %83, %84, !llfi_index !114
  br i1 %85, label %86, label %194, !llfi_index !115

86:                                               ; preds = %82
  store i32 89, i32* %5, align 4, !llfi_index !116
  store i32 1, i32* %9, align 4, !llfi_index !117
  br label %87, !llfi_index !118

87:                                               ; preds = %148, %86
  %88 = load i32, i32* %9, align 4, !llfi_index !119
  %89 = load i32, i32* %2, align 4, !llfi_index !120
  %90 = icmp sle i32 %88, %89, !llfi_index !121
  br i1 %90, label %91, label %151, !llfi_index !122

91:                                               ; preds = %87
  %92 = load i32, i32* %9, align 4, !llfi_index !123
  %93 = sext i32 %92 to i64, !llfi_index !124
  %94 = getelementptr inbounds [10001 x [1001 x i32]], [10001 x [1001 x i32]]* @dp_sum, i64 0, i64 %93, !llfi_index !125
  %95 = load i32, i32* %8, align 4, !llfi_index !126
  %96 = sub nsw i32 %95, 1, !llfi_index !127
  %97 = sext i32 %96 to i64, !llfi_index !128
  %98 = getelementptr inbounds [1001 x i32], [1001 x i32]* %94, i64 0, i64 %97, !llfi_index !129
  %99 = load i32, i32* %98, align 4, !llfi_index !130
  %100 = load i32, i32* %9, align 4, !llfi_index !131
  %101 = sext i32 %100 to i64, !llfi_index !132
  %102 = getelementptr inbounds [10001 x [1001 x i32]], [10001 x [1001 x i32]]* @dp, i64 0, i64 %101, !llfi_index !133
  %103 = load i32, i32* %8, align 4, !llfi_index !134
  %104 = sext i32 %103 to i64, !llfi_index !135
  %105 = getelementptr inbounds [1001 x i32], [1001 x i32]* %102, i64 0, i64 %104, !llfi_index !136
  store i32 %99, i32* %105, align 4, !llfi_index !137
  %106 = load i32, i32* %9, align 4, !llfi_index !138
  %107 = load i32, i32* %4, align 4, !llfi_index !139
  %108 = icmp sgt i32 %106, %107, !llfi_index !140
  br i1 %108, label %109, label %147, !llfi_index !141

109:                                              ; preds = %91
  %110 = load i32, i32* %9, align 4, !llfi_index !142
  %111 = load i32, i32* %4, align 4, !llfi_index !143
  %112 = sub nsw i32 %110, %111, !llfi_index !144
  %113 = sub nsw i32 %112, 1, !llfi_index !145
  %114 = sext i32 %113 to i64, !llfi_index !146
  %115 = getelementptr inbounds [10001 x [1001 x i32]], [10001 x [1001 x i32]]* @dp_sum, i64 0, i64 %114, !llfi_index !147
  %116 = load i32, i32* %8, align 4, !llfi_index !148
  %117 = sub nsw i32 %116, 1, !llfi_index !149
  %118 = sext i32 %117 to i64, !llfi_index !150
  %119 = getelementptr inbounds [1001 x i32], [1001 x i32]* %115, i64 0, i64 %118, !llfi_index !151
  %120 = load i32, i32* %119, align 4, !llfi_index !152
  %121 = load i32, i32* %9, align 4, !llfi_index !153
  %122 = sext i32 %121 to i64, !llfi_index !154
  %123 = getelementptr inbounds [10001 x [1001 x i32]], [10001 x [1001 x i32]]* @dp, i64 0, i64 %122, !llfi_index !155
  %124 = load i32, i32* %8, align 4, !llfi_index !156
  %125 = sext i32 %124 to i64, !llfi_index !157
  %126 = getelementptr inbounds [1001 x i32], [1001 x i32]* %123, i64 0, i64 %125, !llfi_index !158
  %127 = load i32, i32* %126, align 4, !llfi_index !159
  %128 = sub nsw i32 %127, %120, !llfi_index !160
  store i32 %128, i32* %126, align 4, !llfi_index !161
  %129 = load i32, i32* %9, align 4, !llfi_index !162
  %130 = sext i32 %129 to i64, !llfi_index !163
  %131 = getelementptr inbounds [10001 x [1001 x i32]], [10001 x [1001 x i32]]* @dp, i64 0, i64 %130, !llfi_index !164
  %132 = load i32, i32* %8, align 4, !llfi_index !165
  %133 = sext i32 %132 to i64, !llfi_index !166
  %134 = getelementptr inbounds [1001 x i32], [1001 x i32]* %131, i64 0, i64 %133, !llfi_index !167
  %135 = load i32, i32* %134, align 4, !llfi_index !168
  %136 = icmp slt i32 %135, 0, !llfi_index !169
  br i1 %136, label %137, label %146, !llfi_index !170

137:                                              ; preds = %109
  %138 = load i32, i32* %9, align 4, !llfi_index !171
  %139 = sext i32 %138 to i64, !llfi_index !172
  %140 = getelementptr inbounds [10001 x [1001 x i32]], [10001 x [1001 x i32]]* @dp, i64 0, i64 %139, !llfi_index !173
  %141 = load i32, i32* %8, align 4, !llfi_index !174
  %142 = sext i32 %141 to i64, !llfi_index !175
  %143 = getelementptr inbounds [1001 x i32], [1001 x i32]* %140, i64 0, i64 %142, !llfi_index !176
  %144 = load i32, i32* %143, align 4, !llfi_index !177
  %145 = add nsw i32 %144, 1000000007, !llfi_index !178
  store i32 %145, i32* %143, align 4, !llfi_index !179
  br label %146, !llfi_index !180

146:                                              ; preds = %137, %109
  br label %147, !llfi_index !181

147:                                              ; preds = %146, %91
  br label %148, !llfi_index !182

148:                                              ; preds = %147
  %149 = load i32, i32* %9, align 4, !llfi_index !183
  %150 = add nsw i32 %149, 1, !llfi_index !184
  store i32 %150, i32* %9, align 4, !llfi_index !185
  br label %87, !llvm.loop !186, !llfi_index !187

151:                                              ; preds = %87
  store i32 89, i32* %5, align 4, !llfi_index !188
  store i32 1, i32* %10, align 4, !llfi_index !189
  br label %152, !llfi_index !190

152:                                              ; preds = %187, %151
  %153 = load i32, i32* %10, align 4, !llfi_index !191
  %154 = load i32, i32* %2, align 4, !llfi_index !192
  %155 = icmp sle i32 %153, %154, !llfi_index !193
  br i1 %155, label %156, label %190, !llfi_index !194

156:                                              ; preds = %152
  %157 = load i32, i32* %10, align 4, !llfi_index !195
  %158 = sub nsw i32 %157, 1, !llfi_index !196
  %159 = sext i32 %158 to i64, !llfi_index !197
  %160 = getelementptr inbounds [10001 x [1001 x i32]], [10001 x [1001 x i32]]* @dp_sum, i64 0, i64 %159, !llfi_index !198
  %161 = load i32, i32* %8, align 4, !llfi_index !199
  %162 = sext i32 %161 to i64, !llfi_index !200
  %163 = getelementptr inbounds [1001 x i32], [1001 x i32]* %160, i64 0, i64 %162, !llfi_index !201
  %164 = load i32, i32* %163, align 4, !llfi_index !202
  %165 = load i32, i32* %10, align 4, !llfi_index !203
  %166 = sext i32 %165 to i64, !llfi_index !204
  %167 = getelementptr inbounds [10001 x [1001 x i32]], [10001 x [1001 x i32]]* @dp, i64 0, i64 %166, !llfi_index !205
  %168 = load i32, i32* %8, align 4, !llfi_index !206
  %169 = sext i32 %168 to i64, !llfi_index !207
  %170 = getelementptr inbounds [1001 x i32], [1001 x i32]* %167, i64 0, i64 %169, !llfi_index !208
  %171 = load i32, i32* %170, align 4, !llfi_index !209
  %172 = add nsw i32 %164, %171, !llfi_index !210
  %173 = load i32, i32* %10, align 4, !llfi_index !211
  %174 = sext i32 %173 to i64, !llfi_index !212
  %175 = getelementptr inbounds [10001 x [1001 x i32]], [10001 x [1001 x i32]]* @dp_sum, i64 0, i64 %174, !llfi_index !213
  %176 = load i32, i32* %8, align 4, !llfi_index !214
  %177 = sext i32 %176 to i64, !llfi_index !215
  %178 = getelementptr inbounds [1001 x i32], [1001 x i32]* %175, i64 0, i64 %177, !llfi_index !216
  store i32 %172, i32* %178, align 4, !llfi_index !217
  %179 = load i32, i32* %10, align 4, !llfi_index !218
  %180 = sext i32 %179 to i64, !llfi_index !219
  %181 = getelementptr inbounds [10001 x [1001 x i32]], [10001 x [1001 x i32]]* @dp_sum, i64 0, i64 %180, !llfi_index !220
  %182 = load i32, i32* %8, align 4, !llfi_index !221
  %183 = sext i32 %182 to i64, !llfi_index !222
  %184 = getelementptr inbounds [1001 x i32], [1001 x i32]* %181, i64 0, i64 %183, !llfi_index !223
  %185 = load i32, i32* %184, align 4, !llfi_index !224
  %186 = srem i32 %185, 1000000007, !llfi_index !225
  store i32 %186, i32* %184, align 4, !llfi_index !226
  br label %187, !llfi_index !227

187:                                              ; preds = %156
  %188 = load i32, i32* %10, align 4, !llfi_index !228
  %189 = add nsw i32 %188, 1, !llfi_index !229
  store i32 %189, i32* %10, align 4, !llfi_index !230
  br label %152, !llvm.loop !231, !llfi_index !232

190:                                              ; preds = %152
  br label %191, !llfi_index !233

191:                                              ; preds = %190
  %192 = load i32, i32* %8, align 4, !llfi_index !234
  %193 = add nsw i32 %192, 1, !llfi_index !235
  store i32 %193, i32* %8, align 4, !llfi_index !236
  br label %82, !llvm.loop !237, !llfi_index !238

194:                                              ; preds = %82
  %195 = load i32, i32* %2, align 4, !llfi_index !239
  %196 = sext i32 %195 to i64, !llfi_index !240
  %197 = getelementptr inbounds [10001 x [1001 x i32]], [10001 x [1001 x i32]]* @dp, i64 0, i64 %196, !llfi_index !241
  %198 = load i32, i32* %3, align 4, !llfi_index !242
  %199 = sext i32 %198 to i64, !llfi_index !243
  %200 = getelementptr inbounds [1001 x i32], [1001 x i32]* %197, i64 0, i64 %199, !llfi_index !244
  %201 = load i32, i32* %200, align 4, !llfi_index !245
  %202 = call nonnull align 8 dereferenceable(8) %"class.std::basic_ostream"* @_ZNSolsEi(%"class.std::basic_ostream"* nonnull align 8 dereferenceable(8) @_ZSt4cout, i32 %201), !llfi_index !246
  %203 = call nonnull align 8 dereferenceable(8) %"class.std::basic_ostream"* @_ZNSolsEPFRSoS_E(%"class.std::basic_ostream"* nonnull align 8 dereferenceable(8) %202, %"class.std::basic_ostream"* (%"class.std::basic_ostream"*)* @_ZSt4endlIcSt11char_traitsIcEERSt13basic_ostreamIT_T0_ES6_), !llfi_index !247
  ret i32 0, !llfi_index !248
}

declare dso_local %struct._IO_FILE* @freopen(i8*, i8*, %struct._IO_FILE*) #1

declare dso_local zeroext i1 @_ZNSt8ios_base15sync_with_stdioEb(i1 zeroext) #1

declare dso_local nonnull align 8 dereferenceable(16) %"class.std::basic_istream"* @_ZNSirsERi(%"class.std::basic_istream"* nonnull align 8 dereferenceable(16), i32* nonnull align 4 dereferenceable(4)) #1

; Function Attrs: noreturn nounwind
declare dso_local void @__assert_fail(i8*, i8*, i32, i8*) #5

declare dso_local nonnull align 8 dereferenceable(8) %"class.std::basic_ostream"* @_ZNSolsEi(%"class.std::basic_ostream"* nonnull align 8 dereferenceable(8), i32) #1

declare dso_local nonnull align 8 dereferenceable(8) %"class.std::basic_ostream"* @_ZSt4endlIcSt11char_traitsIcEERSt13basic_ostreamIT_T0_ES6_(%"class.std::basic_ostream"* nonnull align 8 dereferenceable(8)) #1

declare dso_local nonnull align 8 dereferenceable(8) %"class.std::basic_ostream"* @_ZNSolsEPFRSoS_E(%"class.std::basic_ostream"* nonnull align 8 dereferenceable(8), %"class.std::basic_ostream"* (%"class.std::basic_ostream"*)*) #1

attributes #0 = { noinline uwtable "frame-pointer"="all" "min-legal-vector-width"="0" "no-trapping-math"="true" "stack-protector-buffer-size"="8" "target-cpu"="x86-64" "target-features"="+cx8,+fxsr,+mmx,+sse,+sse2,+x87" "tune-cpu"="generic" }
attributes #1 = { "frame-pointer"="all" "no-trapping-math"="true" "stack-protector-buffer-size"="8" "target-cpu"="x86-64" "target-features"="+cx8,+fxsr,+mmx,+sse,+sse2,+x87" "tune-cpu"="generic" }
attributes #2 = { nounwind }
attributes #3 = { nounwind "frame-pointer"="all" "no-trapping-math"="true" "stack-protector-buffer-size"="8" "target-cpu"="x86-64" "target-features"="+cx8,+fxsr,+mmx,+sse,+sse2,+x87" "tune-cpu"="generic" }
attributes #4 = { mustprogress noinline norecurse uwtable "frame-pointer"="all" "min-legal-vector-width"="0" "no-trapping-math"="true" "stack-protector-buffer-size"="8" "target-cpu"="x86-64" "target-features"="+cx8,+fxsr,+mmx,+sse,+sse2,+x87" "tune-cpu"="generic" }
attributes #5 = { noreturn nounwind "frame-pointer"="all" "no-trapping-math"="true" "stack-protector-buffer-size"="8" "target-cpu"="x86-64" "target-features"="+cx8,+fxsr,+mmx,+sse,+sse2,+x87" "tune-cpu"="generic" }
attributes #6 = { noreturn nounwind }

!llvm.ident = !{!0}
!llvm.module.flags = !{!1, !2, !3}

!0 = !{!"clang version 13.0.0 (https://github.com/llvm/llvm-project.git d7b669b3a30345cfcdb2fde2af6f48aa4b94845d)"}
!1 = !{i32 1, !"wchar_size", i32 4}
!2 = !{i32 7, !"uwtable", i32 1}
!3 = !{i32 7, !"frame-pointer", i32 2}
!4 = !{i64 1}
!5 = !{i64 2}
!6 = !{i64 3}
!7 = !{i64 4}
!8 = !{i64 5}
!9 = !{i64 6}
!10 = !{i64 7}
!11 = !{i64 8}
!12 = !{i64 9}
!13 = !{i64 10}
!14 = !{i64 11}
!15 = !{i64 12}
!16 = !{i64 13}
!17 = !{i64 14}
!18 = !{i64 15}
!19 = !{i64 16}
!20 = !{i64 17}
!21 = !{i64 18}
!22 = !{i64 19}
!23 = !{i64 20}
!24 = !{i64 21}
!25 = !{i64 22}
!26 = !{i64 23}
!27 = !{i64 24}
!28 = !{i64 25}
!29 = !{i64 26}
!30 = !{i64 27}
!31 = !{i64 28}
!32 = !{i64 29}
!33 = !{i64 30}
!34 = !{i64 31}
!35 = !{i64 32}
!36 = !{i64 33}
!37 = !{i64 34}
!38 = !{i64 35}
!39 = !{i64 36}
!40 = !{i64 37}
!41 = !{i64 38}
!42 = !{i64 39}
!43 = !{i64 40}
!44 = !{i64 41}
!45 = !{i64 42}
!46 = !{i64 43}
!47 = !{i64 44}
!48 = !{i64 45}
!49 = !{i64 46}
!50 = !{i64 47}
!51 = !{i64 48}
!52 = !{i64 49}
!53 = !{i64 50}
!54 = !{i64 51}
!55 = !{i64 52}
!56 = !{i64 53}
!57 = !{i64 54}
!58 = !{i64 55}
!59 = !{i64 56}
!60 = !{i64 57}
!61 = !{i64 58}
!62 = !{i64 59}
!63 = !{i64 60}
!64 = !{i64 61}
!65 = !{i64 62}
!66 = !{i64 63}
!67 = !{i64 64}
!68 = !{i64 65}
!69 = !{i64 66}
!70 = !{i64 67}
!71 = !{i64 68}
!72 = !{i64 69}
!73 = !{i64 70}
!74 = !{i64 71}
!75 = !{i64 72}
!76 = !{i64 73}
!77 = !{i64 74}
!78 = !{i64 75}
!79 = !{i64 76}
!80 = !{i64 77}
!81 = !{i64 78}
!82 = !{i64 79}
!83 = distinct !{!83, !84}
!84 = !{!"llvm.loop.mustprogress"}
!85 = !{i64 80}
!86 = !{i64 81}
!87 = !{i64 82}
!88 = !{i64 83}
!89 = !{i64 84}
!90 = !{i64 85}
!91 = !{i64 86}
!92 = !{i64 87}
!93 = !{i64 88}
!94 = !{i64 89}
!95 = !{i64 90}
!96 = !{i64 91}
!97 = !{i64 92}
!98 = !{i64 93}
!99 = !{i64 94}
!100 = !{i64 95}
!101 = !{i64 96}
!102 = !{i64 97}
!103 = !{i64 98}
!104 = !{i64 99}
!105 = !{i64 100}
!106 = !{i64 101}
!107 = distinct !{!107, !84}
!108 = !{i64 102}
!109 = !{i64 103}
!110 = !{i64 104}
!111 = !{i64 105}
!112 = !{i64 106}
!113 = !{i64 107}
!114 = !{i64 108}
!115 = !{i64 109}
!116 = !{i64 110}
!117 = !{i64 111}
!118 = !{i64 112}
!119 = !{i64 113}
!120 = !{i64 114}
!121 = !{i64 115}
!122 = !{i64 116}
!123 = !{i64 117}
!124 = !{i64 118}
!125 = !{i64 119}
!126 = !{i64 120}
!127 = !{i64 121}
!128 = !{i64 122}
!129 = !{i64 123}
!130 = !{i64 124}
!131 = !{i64 125}
!132 = !{i64 126}
!133 = !{i64 127}
!134 = !{i64 128}
!135 = !{i64 129}
!136 = !{i64 130}
!137 = !{i64 131}
!138 = !{i64 132}
!139 = !{i64 133}
!140 = !{i64 134}
!141 = !{i64 135}
!142 = !{i64 136}
!143 = !{i64 137}
!144 = !{i64 138}
!145 = !{i64 139}
!146 = !{i64 140}
!147 = !{i64 141}
!148 = !{i64 142}
!149 = !{i64 143}
!150 = !{i64 144}
!151 = !{i64 145}
!152 = !{i64 146}
!153 = !{i64 147}
!154 = !{i64 148}
!155 = !{i64 149}
!156 = !{i64 150}
!157 = !{i64 151}
!158 = !{i64 152}
!159 = !{i64 153}
!160 = !{i64 154}
!161 = !{i64 155}
!162 = !{i64 156}
!163 = !{i64 157}
!164 = !{i64 158}
!165 = !{i64 159}
!166 = !{i64 160}
!167 = !{i64 161}
!168 = !{i64 162}
!169 = !{i64 163}
!170 = !{i64 164}
!171 = !{i64 165}
!172 = !{i64 166}
!173 = !{i64 167}
!174 = !{i64 168}
!175 = !{i64 169}
!176 = !{i64 170}
!177 = !{i64 171}
!178 = !{i64 172}
!179 = !{i64 173}
!180 = !{i64 174}
!181 = !{i64 175}
!182 = !{i64 176}
!183 = !{i64 177}
!184 = !{i64 178}
!185 = !{i64 179}
!186 = distinct !{!186, !84}
!187 = !{i64 180}
!188 = !{i64 181}
!189 = !{i64 182}
!190 = !{i64 183}
!191 = !{i64 184}
!192 = !{i64 185}
!193 = !{i64 186}
!194 = !{i64 187}
!195 = !{i64 188}
!196 = !{i64 189}
!197 = !{i64 190}
!198 = !{i64 191}
!199 = !{i64 192}
!200 = !{i64 193}
!201 = !{i64 194}
!202 = !{i64 195}
!203 = !{i64 196}
!204 = !{i64 197}
!205 = !{i64 198}
!206 = !{i64 199}
!207 = !{i64 200}
!208 = !{i64 201}
!209 = !{i64 202}
!210 = !{i64 203}
!211 = !{i64 204}
!212 = !{i64 205}
!213 = !{i64 206}
!214 = !{i64 207}
!215 = !{i64 208}
!216 = !{i64 209}
!217 = !{i64 210}
!218 = !{i64 211}
!219 = !{i64 212}
!220 = !{i64 213}
!221 = !{i64 214}
!222 = !{i64 215}
!223 = !{i64 216}
!224 = !{i64 217}
!225 = !{i64 218}
!226 = !{i64 219}
!227 = !{i64 220}
!228 = !{i64 221}
!229 = !{i64 222}
!230 = !{i64 223}
!231 = distinct !{!231, !84}
!232 = !{i64 224}
!233 = !{i64 225}
!234 = !{i64 226}
!235 = !{i64 227}
!236 = !{i64 228}
!237 = distinct !{!237, !84}
!238 = !{i64 229}
!239 = !{i64 230}
!240 = !{i64 231}
!241 = !{i64 232}
!242 = !{i64 233}
!243 = !{i64 234}
!244 = !{i64 235}
!245 = !{i64 236}
!246 = !{i64 237}
!247 = !{i64 238}
!248 = !{i64 239}
