; ModuleID = '/home/hjiang/Computation-Kernel-Dataset/experiments/Fault_injection_0308_parall/O0/TripleRecursion/TripleRecursion.ll'
source_filename = "llvm-link"
target datalayout = "e-m:e-p270:32:32-p271:32:32-p272:64:64-i64:64-f80:128-n8:16:32:64-S128"
target triple = "x86_64-unknown-linux-gnu"

%"class.std::ios_base::Init" = type { i8 }
%struct._IO_FILE = type { i32, i8*, i8*, i8*, i8*, i8*, i8*, i8*, i8*, i8*, i8*, i8*, %struct._IO_marker*, %struct._IO_FILE*, i32, i32, i64, i16, i8, [1 x i8], i8*, i64, %struct._IO_codecvt*, %struct._IO_wide_data*, %struct._IO_FILE*, i8*, i64, i32, [20 x i8] }
%struct._IO_marker = type opaque
%struct._IO_codecvt = type opaque
%struct._IO_wide_data = type opaque
%"class.std::basic_istream" = type { i32 (...)**, i64, %"class.std::basic_ios" }
%"class.std::basic_ios" = type { %"class.std::ios_base", %"class.std::basic_ostream"*, i8, i8, %"class.std::basic_streambuf"*, %"class.std::ctype"*, %"class.std::num_put"*, %"class.std::num_put"* }
%"class.std::ios_base" = type { i32 (...)**, i64, i64, i32, i32, i32, %"struct.std::ios_base::_Callback_list"*, %"struct.std::ios_base::_Words", [8 x %"struct.std::ios_base::_Words"], i32, %"struct.std::ios_base::_Words"*, %"class.std::locale" }
%"struct.std::ios_base::_Callback_list" = type { %"struct.std::ios_base::_Callback_list"*, void (i32, %"class.std::ios_base"*, i32)*, i32, i32 }
%"struct.std::ios_base::_Words" = type { i8*, i64 }
%"class.std::locale" = type { %"class.std::locale::_Impl"* }
%"class.std::locale::_Impl" = type { i32, %"class.std::locale::facet"**, i64, %"class.std::locale::facet"**, i8** }
%"class.std::locale::facet" = type <{ i32 (...)**, i32, [4 x i8] }>
%"class.std::basic_ostream" = type { i32 (...)**, %"class.std::basic_ios" }
%"class.std::basic_streambuf" = type { i32 (...)**, i8*, i8*, i8*, i8*, i8*, i8*, %"class.std::locale" }
%"class.std::ctype" = type <{ %"class.std::locale::facet.base", [4 x i8], %struct.__locale_struct*, i8, [7 x i8], i32*, i32*, i16*, i8, [256 x i8], [256 x i8], i8, [6 x i8] }>
%"class.std::locale::facet.base" = type <{ i32 (...)**, i32 }>
%struct.__locale_struct = type { [13 x %struct.__locale_data*], i16*, i32*, i32*, [13 x i8*] }
%struct.__locale_data = type opaque
%"class.std::num_put" = type { %"class.std::locale::facet.base", [4 x i8] }
%"class.std::vector" = type { %"struct.std::_Vector_base" }
%"struct.std::_Vector_base" = type { %"struct.std::_Vector_base<std::__cxx11::basic_string<char>, std::allocator<std::__cxx11::basic_string<char>>>::_Vector_impl" }
%"struct.std::_Vector_base<std::__cxx11::basic_string<char>, std::allocator<std::__cxx11::basic_string<char>>>::_Vector_impl" = type { %"struct.std::_Vector_base<std::__cxx11::basic_string<char>, std::allocator<std::__cxx11::basic_string<char>>>::_Vector_impl_data" }
%"struct.std::_Vector_base<std::__cxx11::basic_string<char>, std::allocator<std::__cxx11::basic_string<char>>>::_Vector_impl_data" = type { %"class.std::__cxx11::basic_string"*, %"class.std::__cxx11::basic_string"*, %"class.std::__cxx11::basic_string"* }
%"class.std::__cxx11::basic_string" = type { %"struct.std::__cxx11::basic_string<char>::_Alloc_hider", i64, %union.anon }
%"struct.std::__cxx11::basic_string<char>::_Alloc_hider" = type { i8* }
%union.anon = type { i64, [8 x i8] }

$_ZNSt6vectorINSt7__cxx1112basic_stringIcSt11char_traitsIcESaIcEEESaIS5_EEixEm = comdat any

$_ZStltIcSt11char_traitsIcESaIcEEbRKNSt7__cxx1112basic_stringIT_T0_T1_EESA_ = comdat any

$__clang_call_terminate = comdat any

@llvm.global_ctors = appending global [1 x { i32, void ()*, i8* }] [{ i32, void ()*, i8* } { i32 65535, void ()* @_GLOBAL__sub_I_TripleRecursion.cpp, i8* null }]
@_ZStL8__ioinit = internal global %"class.std::ios_base::Init" zeroinitializer, align 1
@m = dso_local global i32 0, align 4
@.str = private unnamed_addr constant [1 x i8] zeroinitializer, align 1
@.str.1 = private unnamed_addr constant [31 x i8] c"../input_files/TripleRecursion\00", align 1
@.str.2 = private unnamed_addr constant [2 x i8] c"r\00", align 1
@stdin = external dso_local global %struct._IO_FILE*, align 8
@_ZSt3cin = external dso_local global %"class.std::basic_istream", align 8
@_ZSt4cout = external dso_local global %"class.std::basic_ostream", align 8
@.str.3 = private unnamed_addr constant [2 x i8] c" \00", align 1
@.str.4 = private unnamed_addr constant [2 x i8] c"\0A\00", align 1

; Function Attrs: noinline uwtable
define internal void @_GLOBAL__sub_I_TripleRecursion.cpp() #0 section ".text.startup" {
  call void @__cxx_global_var_init(), !llfi_index !4
  ret void, !llfi_index !5
}

; Function Attrs: noinline uwtable
define internal void @__cxx_global_var_init() #0 section ".text.startup" {
  call void @_ZNSt8ios_base4InitC1Ev(%"class.std::ios_base::Init"* nonnull align 1 dereferenceable(1) @_ZStL8__ioinit), !llfi_index !6
  %1 = call i32 @atexit(void ()* @__dtor__ZStL8__ioinit) #2, !llfi_index !7
  ret void, !llfi_index !8
}

declare dso_local void @_ZNSt8ios_base4InitC1Ev(%"class.std::ios_base::Init"* nonnull align 1 dereferenceable(1)) unnamed_addr #1

; Function Attrs: noinline uwtable
define internal void @__dtor__ZStL8__ioinit() #0 section ".text.startup" {
  call void @_ZNSt8ios_base4InitD1Ev(%"class.std::ios_base::Init"* @_ZStL8__ioinit), !llfi_index !9
  ret void, !llfi_index !10
}

; Function Attrs: nounwind
declare dso_local i32 @atexit(void ()*) #2

; Function Attrs: nounwind
declare dso_local void @_ZNSt8ios_base4InitD1Ev(%"class.std::ios_base::Init"* nonnull align 1 dereferenceable(1)) unnamed_addr #3

; Function Attrs: mustprogress noinline nounwind uwtable
define dso_local zeroext i1 @_Z4cmp2St6vectorINSt7__cxx1112basic_stringIcSt11char_traitsIcESaIcEEESaIS5_EES7_(%"class.std::vector"* %0, %"class.std::vector"* %1) #4 {
  %3 = load i32, i32* @m, align 4, !llfi_index !11
  %4 = sub nsw i32 %3, 1, !llfi_index !12
  %5 = sext i32 %4 to i64, !llfi_index !13
  %6 = call nonnull align 8 dereferenceable(32) %"class.std::__cxx11::basic_string"* @_ZNSt6vectorINSt7__cxx1112basic_stringIcSt11char_traitsIcESaIcEEESaIS5_EEixEm(%"class.std::vector"* nonnull align 8 dereferenceable(24) %0, i64 %5) #2, !llfi_index !14
  %7 = load i32, i32* @m, align 4, !llfi_index !15
  %8 = sub nsw i32 %7, 1, !llfi_index !16
  %9 = sext i32 %8 to i64, !llfi_index !17
  %10 = call nonnull align 8 dereferenceable(32) %"class.std::__cxx11::basic_string"* @_ZNSt6vectorINSt7__cxx1112basic_stringIcSt11char_traitsIcESaIcEEESaIS5_EEixEm(%"class.std::vector"* nonnull align 8 dereferenceable(24) %1, i64 %9) #2, !llfi_index !18
  %11 = call zeroext i1 @_ZStltIcSt11char_traitsIcESaIcEEbRKNSt7__cxx1112basic_stringIT_T0_T1_EESA_(%"class.std::__cxx11::basic_string"* nonnull align 8 dereferenceable(32) %6, %"class.std::__cxx11::basic_string"* nonnull align 8 dereferenceable(32) %10) #2, !llfi_index !19
  ret i1 %11, !llfi_index !20
}

; Function Attrs: mustprogress noinline nounwind uwtable
define linkonce_odr dso_local nonnull align 8 dereferenceable(32) %"class.std::__cxx11::basic_string"* @_ZNSt6vectorINSt7__cxx1112basic_stringIcSt11char_traitsIcESaIcEEESaIS5_EEixEm(%"class.std::vector"* nonnull align 8 dereferenceable(24) %0, i64 %1) #4 comdat align 2 {
  %3 = alloca %"class.std::vector"*, align 8, !llfi_index !21
  %4 = alloca i64, align 8, !llfi_index !22
  store %"class.std::vector"* %0, %"class.std::vector"** %3, align 8, !llfi_index !23
  store i64 %1, i64* %4, align 8, !llfi_index !24
  %5 = load %"class.std::vector"*, %"class.std::vector"** %3, align 8, !llfi_index !25
  %6 = bitcast %"class.std::vector"* %5 to %"struct.std::_Vector_base"*, !llfi_index !26
  %7 = getelementptr inbounds %"struct.std::_Vector_base", %"struct.std::_Vector_base"* %6, i32 0, i32 0, !llfi_index !27
  %8 = bitcast %"struct.std::_Vector_base<std::__cxx11::basic_string<char>, std::allocator<std::__cxx11::basic_string<char>>>::_Vector_impl"* %7 to %"struct.std::_Vector_base<std::__cxx11::basic_string<char>, std::allocator<std::__cxx11::basic_string<char>>>::_Vector_impl_data"*, !llfi_index !28
  %9 = getelementptr inbounds %"struct.std::_Vector_base<std::__cxx11::basic_string<char>, std::allocator<std::__cxx11::basic_string<char>>>::_Vector_impl_data", %"struct.std::_Vector_base<std::__cxx11::basic_string<char>, std::allocator<std::__cxx11::basic_string<char>>>::_Vector_impl_data"* %8, i32 0, i32 0, !llfi_index !29
  %10 = load %"class.std::__cxx11::basic_string"*, %"class.std::__cxx11::basic_string"** %9, align 8, !llfi_index !30
  %11 = load i64, i64* %4, align 8, !llfi_index !31
  %12 = getelementptr inbounds %"class.std::__cxx11::basic_string", %"class.std::__cxx11::basic_string"* %10, i64 %11, !llfi_index !32
  ret %"class.std::__cxx11::basic_string"* %12, !llfi_index !33
}

; Function Attrs: mustprogress noinline nounwind uwtable
define linkonce_odr dso_local zeroext i1 @_ZStltIcSt11char_traitsIcESaIcEEbRKNSt7__cxx1112basic_stringIT_T0_T1_EESA_(%"class.std::__cxx11::basic_string"* nonnull align 8 dereferenceable(32) %0, %"class.std::__cxx11::basic_string"* nonnull align 8 dereferenceable(32) %1) #4 comdat personality i8* bitcast (i32 (...)* @__gxx_personality_v0 to i8*) {
  %3 = alloca %"class.std::__cxx11::basic_string"*, align 8, !llfi_index !34
  %4 = alloca %"class.std::__cxx11::basic_string"*, align 8, !llfi_index !35
  store %"class.std::__cxx11::basic_string"* %0, %"class.std::__cxx11::basic_string"** %3, align 8, !llfi_index !36
  store %"class.std::__cxx11::basic_string"* %1, %"class.std::__cxx11::basic_string"** %4, align 8, !llfi_index !37
  %5 = load %"class.std::__cxx11::basic_string"*, %"class.std::__cxx11::basic_string"** %3, align 8, !llfi_index !38
  %6 = load %"class.std::__cxx11::basic_string"*, %"class.std::__cxx11::basic_string"** %4, align 8, !llfi_index !39
  %7 = invoke i32 @_ZNKSt7__cxx1112basic_stringIcSt11char_traitsIcESaIcEE7compareERKS4_(%"class.std::__cxx11::basic_string"* nonnull align 8 dereferenceable(32) %5, %"class.std::__cxx11::basic_string"* nonnull align 8 dereferenceable(32) %6)
          to label %8 unwind label %10, !llfi_index !40

8:                                                ; preds = %2
  %9 = icmp slt i32 %7, 0, !llfi_index !41
  ret i1 %9, !llfi_index !42

10:                                               ; preds = %2
  %11 = landingpad { i8*, i32 }
          catch i8* null, !llfi_index !43
  %12 = extractvalue { i8*, i32 } %11, 0, !llfi_index !44
  call void @__clang_call_terminate(i8* %12) #9, !llfi_index !45
  unreachable, !llfi_index !46
}

declare dso_local i32 @__gxx_personality_v0(...)

declare dso_local i32 @_ZNKSt7__cxx1112basic_stringIcSt11char_traitsIcESaIcEE7compareERKS4_(%"class.std::__cxx11::basic_string"* nonnull align 8 dereferenceable(32), %"class.std::__cxx11::basic_string"* nonnull align 8 dereferenceable(32)) #1

; Function Attrs: noinline noreturn nounwind
define linkonce_odr hidden void @__clang_call_terminate(i8* %0) #5 comdat {
  %2 = call i8* @__cxa_begin_catch(i8* %0) #2, !llfi_index !47
  call void @_ZSt9terminatev() #9, !llfi_index !48
  unreachable, !llfi_index !49
}

declare dso_local i8* @__cxa_begin_catch(i8*)

declare dso_local void @_ZSt9terminatev()

; Function Attrs: mustprogress noinline uwtable
define dso_local void @_Z7remove0NSt7__cxx1112basic_stringIcSt11char_traitsIcESaIcEEE(%"class.std::__cxx11::basic_string"* noalias sret(%"class.std::__cxx11::basic_string") align 8 %0, %"class.std::__cxx11::basic_string"* %1) #6 personality i8* bitcast (i32 (...)* @__gxx_personality_v0 to i8*) {
  %3 = alloca i8*, align 8, !llfi_index !50
  %4 = alloca i32, align 4, !llfi_index !51
  %5 = alloca i1, align 1, !llfi_index !52
  %6 = alloca %"class.std::ios_base::Init", align 1, !llfi_index !53
  %7 = alloca i8*, align 8, !llfi_index !54
  %8 = alloca i32, align 4, !llfi_index !55
  %9 = alloca i32, align 4, !llfi_index !56
  %10 = alloca i32, align 4, !llfi_index !57
  %11 = alloca i32, align 4, !llfi_index !58
  %12 = bitcast %"class.std::__cxx11::basic_string"* %0 to i8*, !llfi_index !59
  store i8* %12, i8** %3, align 8, !llfi_index !60
  %13 = call i64 @_ZNKSt7__cxx1112basic_stringIcSt11char_traitsIcESaIcEE6lengthEv(%"class.std::__cxx11::basic_string"* nonnull align 8 dereferenceable(32) %1) #2, !llfi_index !61
  %14 = trunc i64 %13 to i32, !llfi_index !62
  store i32 %14, i32* %4, align 4, !llfi_index !63
  store i1 false, i1* %5, align 1, !llfi_index !64
  call void @_ZNSaIcEC1Ev(%"class.std::ios_base::Init"* nonnull align 1 dereferenceable(1) %6) #2, !llfi_index !65
  invoke void @_ZNSt7__cxx1112basic_stringIcSt11char_traitsIcESaIcEEC1EPKcRKS3_(%"class.std::__cxx11::basic_string"* nonnull align 8 dereferenceable(32) %0, i8* getelementptr inbounds ([1 x i8], [1 x i8]* @.str, i64 0, i64 0), %"class.std::ios_base::Init"* nonnull align 1 dereferenceable(1) %6)
          to label %15 unwind label %30, !llfi_index !66

15:                                               ; preds = %2
  call void @_ZNSaIcED1Ev(%"class.std::ios_base::Init"* nonnull align 1 dereferenceable(1) %6) #2, !llfi_index !67
  store i32 0, i32* %9, align 4, !llfi_index !68
  store i32 0, i32* %10, align 4, !llfi_index !69
  br label %16, !llfi_index !70

16:                                               ; preds = %39, %15
  %17 = load i32, i32* %10, align 4, !llfi_index !71
  %18 = load i32, i32* %4, align 4, !llfi_index !72
  %19 = icmp slt i32 %17, %18, !llfi_index !73
  br i1 %19, label %20, label %42, !llfi_index !74

20:                                               ; preds = %16
  %21 = load i32, i32* %10, align 4, !llfi_index !75
  %22 = sext i32 %21 to i64, !llfi_index !76
  %23 = invoke nonnull align 1 dereferenceable(1) i8* @_ZNSt7__cxx1112basic_stringIcSt11char_traitsIcESaIcEEixEm(%"class.std::__cxx11::basic_string"* nonnull align 8 dereferenceable(32) %1, i64 %22)
          to label %24 unwind label %34, !llfi_index !77

24:                                               ; preds = %20
  %25 = load i8, i8* %23, align 1, !llfi_index !78
  %26 = sext i8 %25 to i32, !llfi_index !79
  %27 = icmp ne i32 %26, 48, !llfi_index !80
  br i1 %27, label %28, label %38, !llfi_index !81

28:                                               ; preds = %24
  %29 = load i32, i32* %10, align 4, !llfi_index !82
  store i32 %29, i32* %9, align 4, !llfi_index !83
  br label %42, !llfi_index !84

30:                                               ; preds = %2
  %31 = landingpad { i8*, i32 }
          cleanup, !llfi_index !85
  %32 = extractvalue { i8*, i32 } %31, 0, !llfi_index !86
  store i8* %32, i8** %7, align 8, !llfi_index !87
  %33 = extractvalue { i8*, i32 } %31, 1, !llfi_index !88
  store i32 %33, i32* %8, align 4, !llfi_index !89
  call void @_ZNSaIcED1Ev(%"class.std::ios_base::Init"* nonnull align 1 dereferenceable(1) %6) #2, !llfi_index !90
  br label %63, !llfi_index !91

34:                                               ; preds = %52, %48, %20
  %35 = landingpad { i8*, i32 }
          cleanup, !llfi_index !92
  %36 = extractvalue { i8*, i32 } %35, 0, !llfi_index !93
  store i8* %36, i8** %7, align 8, !llfi_index !94
  %37 = extractvalue { i8*, i32 } %35, 1, !llfi_index !95
  store i32 %37, i32* %8, align 4, !llfi_index !96
  call void @_ZNSt7__cxx1112basic_stringIcSt11char_traitsIcESaIcEED1Ev(%"class.std::__cxx11::basic_string"* nonnull align 8 dereferenceable(32) %0) #2, !llfi_index !97
  br label %63, !llfi_index !98

38:                                               ; preds = %24
  br label %39, !llfi_index !99

39:                                               ; preds = %38
  %40 = load i32, i32* %10, align 4, !llfi_index !100
  %41 = add nsw i32 %40, 1, !llfi_index !101
  store i32 %41, i32* %10, align 4, !llfi_index !102
  br label %16, !llvm.loop !103, !llfi_index !105

42:                                               ; preds = %28, %16
  %43 = load i32, i32* %9, align 4, !llfi_index !106
  store i32 %43, i32* %11, align 4, !llfi_index !107
  br label %44, !llfi_index !108

44:                                               ; preds = %56, %42
  %45 = load i32, i32* %11, align 4, !llfi_index !109
  %46 = load i32, i32* %4, align 4, !llfi_index !110
  %47 = icmp slt i32 %45, %46, !llfi_index !111
  br i1 %47, label %48, label %59, !llfi_index !112

48:                                               ; preds = %44
  %49 = load i32, i32* %11, align 4, !llfi_index !113
  %50 = sext i32 %49 to i64, !llfi_index !114
  %51 = invoke nonnull align 1 dereferenceable(1) i8* @_ZNSt7__cxx1112basic_stringIcSt11char_traitsIcESaIcEEixEm(%"class.std::__cxx11::basic_string"* nonnull align 8 dereferenceable(32) %1, i64 %50)
          to label %52 unwind label %34, !llfi_index !115

52:                                               ; preds = %48
  %53 = load i8, i8* %51, align 1, !llfi_index !116
  %54 = invoke nonnull align 8 dereferenceable(32) %"class.std::__cxx11::basic_string"* @_ZNSt7__cxx1112basic_stringIcSt11char_traitsIcESaIcEEpLEc(%"class.std::__cxx11::basic_string"* nonnull align 8 dereferenceable(32) %0, i8 signext %53)
          to label %55 unwind label %34, !llfi_index !117

55:                                               ; preds = %52
  br label %56, !llfi_index !118

56:                                               ; preds = %55
  %57 = load i32, i32* %11, align 4, !llfi_index !119
  %58 = add nsw i32 %57, 1, !llfi_index !120
  store i32 %58, i32* %11, align 4, !llfi_index !121
  br label %44, !llvm.loop !122, !llfi_index !123

59:                                               ; preds = %44
  store i1 true, i1* %5, align 1, !llfi_index !124
  %60 = load i1, i1* %5, align 1, !llfi_index !125
  br i1 %60, label %62, label %61, !llfi_index !126

61:                                               ; preds = %59
  call void @_ZNSt7__cxx1112basic_stringIcSt11char_traitsIcESaIcEED1Ev(%"class.std::__cxx11::basic_string"* nonnull align 8 dereferenceable(32) %0) #2, !llfi_index !127
  br label %62, !llfi_index !128

62:                                               ; preds = %61, %59
  ret void, !llfi_index !129

63:                                               ; preds = %34, %30
  %64 = load i8*, i8** %7, align 8, !llfi_index !130
  %65 = load i32, i32* %8, align 4, !llfi_index !131
  %66 = insertvalue { i8*, i32 } undef, i8* %64, 0, !llfi_index !132
  %67 = insertvalue { i8*, i32 } %66, i32 %65, 1, !llfi_index !133
  resume { i8*, i32 } %67, !llfi_index !134
}

; Function Attrs: nounwind
declare dso_local i64 @_ZNKSt7__cxx1112basic_stringIcSt11char_traitsIcESaIcEE6lengthEv(%"class.std::__cxx11::basic_string"* nonnull align 8 dereferenceable(32)) #3

; Function Attrs: nounwind
declare dso_local void @_ZNSaIcEC1Ev(%"class.std::ios_base::Init"* nonnull align 1 dereferenceable(1)) unnamed_addr #3

declare dso_local void @_ZNSt7__cxx1112basic_stringIcSt11char_traitsIcESaIcEEC1EPKcRKS3_(%"class.std::__cxx11::basic_string"* nonnull align 8 dereferenceable(32), i8*, %"class.std::ios_base::Init"* nonnull align 1 dereferenceable(1)) unnamed_addr #1

; Function Attrs: nounwind
declare dso_local void @_ZNSaIcED1Ev(%"class.std::ios_base::Init"* nonnull align 1 dereferenceable(1)) unnamed_addr #3

declare dso_local nonnull align 1 dereferenceable(1) i8* @_ZNSt7__cxx1112basic_stringIcSt11char_traitsIcESaIcEEixEm(%"class.std::__cxx11::basic_string"* nonnull align 8 dereferenceable(32), i64) #1

; Function Attrs: nounwind
declare dso_local void @_ZNSt7__cxx1112basic_stringIcSt11char_traitsIcESaIcEED1Ev(%"class.std::__cxx11::basic_string"* nonnull align 8 dereferenceable(32)) unnamed_addr #3

declare dso_local nonnull align 8 dereferenceable(32) %"class.std::__cxx11::basic_string"* @_ZNSt7__cxx1112basic_stringIcSt11char_traitsIcESaIcEEpLEc(%"class.std::__cxx11::basic_string"* nonnull align 8 dereferenceable(32), i8 signext) #1

; Function Attrs: mustprogress noinline uwtable
define dso_local zeroext i1 @_Z4cmp1St6vectorINSt7__cxx1112basic_stringIcSt11char_traitsIcESaIcEEESaIS5_EES7_(%"class.std::vector"* %0, %"class.std::vector"* %1) #6 personality i8* bitcast (i32 (...)* @__gxx_personality_v0 to i8*) {
  %3 = alloca i1, align 1, !llfi_index !135
  %4 = alloca %"class.std::__cxx11::basic_string", align 8, !llfi_index !136
  %5 = alloca %"class.std::__cxx11::basic_string", align 8, !llfi_index !137
  %6 = alloca i8*, align 8, !llfi_index !138
  %7 = alloca i32, align 4, !llfi_index !139
  %8 = alloca %"class.std::__cxx11::basic_string", align 8, !llfi_index !140
  %9 = alloca %"class.std::__cxx11::basic_string", align 8, !llfi_index !141
  %10 = alloca i32, align 4, !llfi_index !142
  %11 = alloca i32, align 4, !llfi_index !143
  %12 = alloca i32, align 4, !llfi_index !144
  %13 = alloca i32, align 4, !llfi_index !145
  %14 = load i32, i32* @m, align 4, !llfi_index !146
  %15 = sub nsw i32 %14, 1, !llfi_index !147
  %16 = sext i32 %15 to i64, !llfi_index !148
  %17 = call nonnull align 8 dereferenceable(32) %"class.std::__cxx11::basic_string"* @_ZNSt6vectorINSt7__cxx1112basic_stringIcSt11char_traitsIcESaIcEEESaIS5_EEixEm(%"class.std::vector"* nonnull align 8 dereferenceable(24) %0, i64 %16) #2, !llfi_index !149
  call void @_ZNSt7__cxx1112basic_stringIcSt11char_traitsIcESaIcEEC1ERKS4_(%"class.std::__cxx11::basic_string"* nonnull align 8 dereferenceable(32) %5, %"class.std::__cxx11::basic_string"* nonnull align 8 dereferenceable(32) %17), !llfi_index !150
  invoke void @_Z7remove0NSt7__cxx1112basic_stringIcSt11char_traitsIcESaIcEEE(%"class.std::__cxx11::basic_string"* sret(%"class.std::__cxx11::basic_string") align 8 %4, %"class.std::__cxx11::basic_string"* %5)
          to label %18 unwind label %36, !llfi_index !151

18:                                               ; preds = %2
  call void @_ZNSt7__cxx1112basic_stringIcSt11char_traitsIcESaIcEED1Ev(%"class.std::__cxx11::basic_string"* nonnull align 8 dereferenceable(32) %5) #2, !llfi_index !152
  %19 = load i32, i32* @m, align 4, !llfi_index !153
  %20 = sub nsw i32 %19, 1, !llfi_index !154
  %21 = sext i32 %20 to i64, !llfi_index !155
  %22 = call nonnull align 8 dereferenceable(32) %"class.std::__cxx11::basic_string"* @_ZNSt6vectorINSt7__cxx1112basic_stringIcSt11char_traitsIcESaIcEEESaIS5_EEixEm(%"class.std::vector"* nonnull align 8 dereferenceable(24) %1, i64 %21) #2, !llfi_index !156
  invoke void @_ZNSt7__cxx1112basic_stringIcSt11char_traitsIcESaIcEEC1ERKS4_(%"class.std::__cxx11::basic_string"* nonnull align 8 dereferenceable(32) %9, %"class.std::__cxx11::basic_string"* nonnull align 8 dereferenceable(32) %22)
          to label %23 unwind label %40, !llfi_index !157

23:                                               ; preds = %18
  invoke void @_Z7remove0NSt7__cxx1112basic_stringIcSt11char_traitsIcESaIcEEE(%"class.std::__cxx11::basic_string"* sret(%"class.std::__cxx11::basic_string") align 8 %8, %"class.std::__cxx11::basic_string"* %9)
          to label %24 unwind label %44, !llfi_index !158

24:                                               ; preds = %23
  call void @_ZNSt7__cxx1112basic_stringIcSt11char_traitsIcESaIcEED1Ev(%"class.std::__cxx11::basic_string"* nonnull align 8 dereferenceable(32) %9) #2, !llfi_index !159
  %25 = call i64 @_ZNKSt7__cxx1112basic_stringIcSt11char_traitsIcESaIcEE4sizeEv(%"class.std::__cxx11::basic_string"* nonnull align 8 dereferenceable(32) %4) #2, !llfi_index !160
  %26 = trunc i64 %25 to i32, !llfi_index !161
  store i32 %26, i32* %10, align 4, !llfi_index !162
  %27 = call i64 @_ZNKSt7__cxx1112basic_stringIcSt11char_traitsIcESaIcEE4sizeEv(%"class.std::__cxx11::basic_string"* nonnull align 8 dereferenceable(32) %8) #2, !llfi_index !163
  %28 = trunc i64 %27 to i32, !llfi_index !164
  store i32 %28, i32* %11, align 4, !llfi_index !165
  %29 = load i32, i32* %10, align 4, !llfi_index !166
  %30 = load i32, i32* %11, align 4, !llfi_index !167
  %31 = icmp ne i32 %29, %30, !llfi_index !168
  br i1 %31, label %32, label %48, !llfi_index !169

32:                                               ; preds = %24
  %33 = load i32, i32* %10, align 4, !llfi_index !170
  %34 = load i32, i32* %11, align 4, !llfi_index !171
  %35 = icmp slt i32 %33, %34, !llfi_index !172
  store i1 %35, i1* %3, align 1, !llfi_index !173
  store i32 1, i32* %12, align 4, !llfi_index !174
  br label %93, !llfi_index !175

36:                                               ; preds = %2
  %37 = landingpad { i8*, i32 }
          cleanup, !llfi_index !176
  %38 = extractvalue { i8*, i32 } %37, 0, !llfi_index !177
  store i8* %38, i8** %6, align 8, !llfi_index !178
  %39 = extractvalue { i8*, i32 } %37, 1, !llfi_index !179
  store i32 %39, i32* %7, align 4, !llfi_index !180
  call void @_ZNSt7__cxx1112basic_stringIcSt11char_traitsIcESaIcEED1Ev(%"class.std::__cxx11::basic_string"* nonnull align 8 dereferenceable(32) %5) #2, !llfi_index !181
  br label %96, !llfi_index !182

40:                                               ; preds = %18
  %41 = landingpad { i8*, i32 }
          cleanup, !llfi_index !183
  %42 = extractvalue { i8*, i32 } %41, 0, !llfi_index !184
  store i8* %42, i8** %6, align 8, !llfi_index !185
  %43 = extractvalue { i8*, i32 } %41, 1, !llfi_index !186
  store i32 %43, i32* %7, align 4, !llfi_index !187
  br label %95, !llfi_index !188

44:                                               ; preds = %23
  %45 = landingpad { i8*, i32 }
          cleanup, !llfi_index !189
  %46 = extractvalue { i8*, i32 } %45, 0, !llfi_index !190
  store i8* %46, i8** %6, align 8, !llfi_index !191
  %47 = extractvalue { i8*, i32 } %45, 1, !llfi_index !192
  store i32 %47, i32* %7, align 4, !llfi_index !193
  call void @_ZNSt7__cxx1112basic_stringIcSt11char_traitsIcESaIcEED1Ev(%"class.std::__cxx11::basic_string"* nonnull align 8 dereferenceable(32) %9) #2, !llfi_index !194
  br label %95, !llfi_index !195

48:                                               ; preds = %24
  store i32 0, i32* %13, align 4, !llfi_index !196
  br label %49, !llfi_index !197

49:                                               ; preds = %89, %48
  %50 = load i32, i32* %13, align 4, !llfi_index !198
  %51 = load i32, i32* %10, align 4, !llfi_index !199
  %52 = icmp slt i32 %50, %51, !llfi_index !200
  br i1 %52, label %53, label %92, !llfi_index !201

53:                                               ; preds = %49
  %54 = load i32, i32* %13, align 4, !llfi_index !202
  %55 = sext i32 %54 to i64, !llfi_index !203
  %56 = invoke nonnull align 1 dereferenceable(1) i8* @_ZNSt7__cxx1112basic_stringIcSt11char_traitsIcESaIcEEixEm(%"class.std::__cxx11::basic_string"* nonnull align 8 dereferenceable(32) %4, i64 %55)
          to label %57 unwind label %68, !llfi_index !204

57:                                               ; preds = %53
  %58 = load i8, i8* %56, align 1, !llfi_index !205
  %59 = sext i8 %58 to i32, !llfi_index !206
  %60 = load i32, i32* %13, align 4, !llfi_index !207
  %61 = sext i32 %60 to i64, !llfi_index !208
  %62 = invoke nonnull align 1 dereferenceable(1) i8* @_ZNSt7__cxx1112basic_stringIcSt11char_traitsIcESaIcEEixEm(%"class.std::__cxx11::basic_string"* nonnull align 8 dereferenceable(32) %8, i64 %61)
          to label %63 unwind label %68, !llfi_index !209

63:                                               ; preds = %57
  %64 = load i8, i8* %62, align 1, !llfi_index !210
  %65 = sext i8 %64 to i32, !llfi_index !211
  %66 = icmp sgt i32 %59, %65, !llfi_index !212
  br i1 %66, label %67, label %72, !llfi_index !213

67:                                               ; preds = %63
  store i1 false, i1* %3, align 1, !llfi_index !214
  store i32 1, i32* %12, align 4, !llfi_index !215
  br label %93, !llfi_index !216

68:                                               ; preds = %76, %72, %57, %53
  %69 = landingpad { i8*, i32 }
          cleanup, !llfi_index !217
  %70 = extractvalue { i8*, i32 } %69, 0, !llfi_index !218
  store i8* %70, i8** %6, align 8, !llfi_index !219
  %71 = extractvalue { i8*, i32 } %69, 1, !llfi_index !220
  store i32 %71, i32* %7, align 4, !llfi_index !221
  call void @_ZNSt7__cxx1112basic_stringIcSt11char_traitsIcESaIcEED1Ev(%"class.std::__cxx11::basic_string"* nonnull align 8 dereferenceable(32) %8) #2, !llfi_index !222
  br label %95, !llfi_index !223

72:                                               ; preds = %63
  %73 = load i32, i32* %13, align 4, !llfi_index !224
  %74 = sext i32 %73 to i64, !llfi_index !225
  %75 = invoke nonnull align 1 dereferenceable(1) i8* @_ZNSt7__cxx1112basic_stringIcSt11char_traitsIcESaIcEEixEm(%"class.std::__cxx11::basic_string"* nonnull align 8 dereferenceable(32) %4, i64 %74)
          to label %76 unwind label %68, !llfi_index !226

76:                                               ; preds = %72
  %77 = load i8, i8* %75, align 1, !llfi_index !227
  %78 = sext i8 %77 to i32, !llfi_index !228
  %79 = load i32, i32* %13, align 4, !llfi_index !229
  %80 = sext i32 %79 to i64, !llfi_index !230
  %81 = invoke nonnull align 1 dereferenceable(1) i8* @_ZNSt7__cxx1112basic_stringIcSt11char_traitsIcESaIcEEixEm(%"class.std::__cxx11::basic_string"* nonnull align 8 dereferenceable(32) %8, i64 %80)
          to label %82 unwind label %68, !llfi_index !231

82:                                               ; preds = %76
  %83 = load i8, i8* %81, align 1, !llfi_index !232
  %84 = sext i8 %83 to i32, !llfi_index !233
  %85 = icmp slt i32 %78, %84, !llfi_index !234
  br i1 %85, label %86, label %87, !llfi_index !235

86:                                               ; preds = %82
  store i1 true, i1* %3, align 1, !llfi_index !236
  store i32 1, i32* %12, align 4, !llfi_index !237
  br label %93, !llfi_index !238

87:                                               ; preds = %82
  br label %88, !llfi_index !239

88:                                               ; preds = %87
  br label %89, !llfi_index !240

89:                                               ; preds = %88
  %90 = load i32, i32* %13, align 4, !llfi_index !241
  %91 = add nsw i32 %90, 1, !llfi_index !242
  store i32 %91, i32* %13, align 4, !llfi_index !243
  br label %49, !llvm.loop !244, !llfi_index !245

92:                                               ; preds = %49
  store i1 true, i1* %3, align 1, !llfi_index !246
  store i32 1, i32* %12, align 4, !llfi_index !247
  br label %93, !llfi_index !248

93:                                               ; preds = %92, %86, %67, %32
  call void @_ZNSt7__cxx1112basic_stringIcSt11char_traitsIcESaIcEED1Ev(%"class.std::__cxx11::basic_string"* nonnull align 8 dereferenceable(32) %8) #2, !llfi_index !249
  call void @_ZNSt7__cxx1112basic_stringIcSt11char_traitsIcESaIcEED1Ev(%"class.std::__cxx11::basic_string"* nonnull align 8 dereferenceable(32) %4) #2, !llfi_index !250
  %94 = load i1, i1* %3, align 1, !llfi_index !251
  ret i1 %94, !llfi_index !252

95:                                               ; preds = %68, %44, %40
  call void @_ZNSt7__cxx1112basic_stringIcSt11char_traitsIcESaIcEED1Ev(%"class.std::__cxx11::basic_string"* nonnull align 8 dereferenceable(32) %4) #2, !llfi_index !253
  br label %96, !llfi_index !254

96:                                               ; preds = %95, %36
  %97 = load i8*, i8** %6, align 8, !llfi_index !255
  %98 = load i32, i32* %7, align 4, !llfi_index !256
  %99 = insertvalue { i8*, i32 } undef, i8* %97, 0, !llfi_index !257
  %100 = insertvalue { i8*, i32 } %99, i32 %98, 1, !llfi_index !258
  resume { i8*, i32 } %100, !llfi_index !259
}

declare dso_local void @_ZNSt7__cxx1112basic_stringIcSt11char_traitsIcESaIcEEC1ERKS4_(%"class.std::__cxx11::basic_string"* nonnull align 8 dereferenceable(32), %"class.std::__cxx11::basic_string"* nonnull align 8 dereferenceable(32)) unnamed_addr #1

; Function Attrs: nounwind
declare dso_local i64 @_ZNKSt7__cxx1112basic_stringIcSt11char_traitsIcESaIcEE4sizeEv(%"class.std::__cxx11::basic_string"* nonnull align 8 dereferenceable(32)) #3

; Function Attrs: mustprogress noinline norecurse uwtable
define dso_local i32 @main() #7 {
  %1 = alloca i32, align 4, !llfi_index !260
  %2 = alloca i32, align 4, !llfi_index !261
  %3 = alloca i32, align 4, !llfi_index !262
  %4 = alloca i32, align 4, !llfi_index !263
  %5 = alloca i32, align 4, !llfi_index !264
  %6 = alloca i32, align 4, !llfi_index !265
  %7 = alloca i8*, align 8, !llfi_index !266
  %8 = alloca i64, align 8, !llfi_index !267
  %9 = alloca i64, align 8, !llfi_index !268
  %10 = alloca i32, align 4, !llfi_index !269
  %11 = alloca i32, align 4, !llfi_index !270
  %12 = alloca i32, align 4, !llfi_index !271
  %13 = alloca i32, align 4, !llfi_index !272
  %14 = alloca i32, align 4, !llfi_index !273
  %15 = alloca i32, align 4, !llfi_index !274
  %16 = alloca i32, align 4, !llfi_index !275
  store i32 0, i32* %1, align 4, !llfi_index !276
  %17 = load %struct._IO_FILE*, %struct._IO_FILE** @stdin, align 8, !llfi_index !277
  %18 = call %struct._IO_FILE* @freopen(i8* getelementptr inbounds ([31 x i8], [31 x i8]* @.str.1, i64 0, i64 0), i8* getelementptr inbounds ([2 x i8], [2 x i8]* @.str.2, i64 0, i64 0), %struct._IO_FILE* %17), !llfi_index !278
  store i32 1, i32* %2, align 4, !llfi_index !279
  store i32 89, i32* %3, align 4, !llfi_index !280
  br label %19, !llfi_index !281

19:                                               ; preds = %159, %0
  %20 = load i32, i32* %2, align 4, !llfi_index !282
  %21 = add nsw i32 %20, -1, !llfi_index !283
  store i32 %21, i32* %2, align 4, !llfi_index !284
  %22 = icmp ne i32 %20, 0, !llfi_index !285
  br i1 %22, label %23, label %161, !llfi_index !286

23:                                               ; preds = %19
  %24 = call nonnull align 8 dereferenceable(16) %"class.std::basic_istream"* @_ZNSirsERi(%"class.std::basic_istream"* nonnull align 8 dereferenceable(16) @_ZSt3cin, i32* nonnull align 4 dereferenceable(4) %4), !llfi_index !287
  %25 = call nonnull align 8 dereferenceable(16) %"class.std::basic_istream"* @_ZNSirsERi(%"class.std::basic_istream"* nonnull align 8 dereferenceable(16) %24, i32* nonnull align 4 dereferenceable(4) %5), !llfi_index !288
  %26 = call nonnull align 8 dereferenceable(16) %"class.std::basic_istream"* @_ZNSirsERi(%"class.std::basic_istream"* nonnull align 8 dereferenceable(16) %25, i32* nonnull align 4 dereferenceable(4) %6), !llfi_index !289
  %27 = load i32, i32* %4, align 4, !llfi_index !290
  %28 = zext i32 %27 to i64, !llfi_index !291
  %29 = load i32, i32* %4, align 4, !llfi_index !292
  %30 = zext i32 %29 to i64, !llfi_index !293
  %31 = call i8* @llvm.stacksave(), !llfi_index !294
  store i8* %31, i8** %7, align 8, !llfi_index !295
  %32 = mul nuw i64 %28, %30, !llfi_index !296
  %33 = alloca i32, i64 %32, align 16, !llfi_index !297
  store i64 %28, i64* %8, align 8, !llfi_index !298
  store i64 %30, i64* %9, align 8, !llfi_index !299
  %34 = load i32, i32* %5, align 4, !llfi_index !300
  %35 = mul nsw i64 0, %30, !llfi_index !301
  %36 = getelementptr inbounds i32, i32* %33, i64 %35, !llfi_index !302
  %37 = getelementptr inbounds i32, i32* %36, i64 0, !llfi_index !303
  store i32 %34, i32* %37, align 4, !llfi_index !304
  store i32 89, i32* %3, align 4, !llfi_index !305
  store i32 1, i32* %10, align 4, !llfi_index !306
  br label %38, !llfi_index !307

38:                                               ; preds = %62, %23
  %39 = load i32, i32* %10, align 4, !llfi_index !308
  %40 = load i32, i32* %4, align 4, !llfi_index !309
  %41 = icmp slt i32 %39, %40, !llfi_index !310
  br i1 %41, label %42, label %65, !llfi_index !311

42:                                               ; preds = %38
  %43 = load i32, i32* %10, align 4, !llfi_index !312
  %44 = sub nsw i32 %43, 1, !llfi_index !313
  %45 = sext i32 %44 to i64, !llfi_index !314
  %46 = mul nsw i64 %45, %30, !llfi_index !315
  %47 = getelementptr inbounds i32, i32* %33, i64 %46, !llfi_index !316
  %48 = load i32, i32* %10, align 4, !llfi_index !317
  %49 = sub nsw i32 %48, 1, !llfi_index !318
  %50 = sext i32 %49 to i64, !llfi_index !319
  %51 = getelementptr inbounds i32, i32* %47, i64 %50, !llfi_index !320
  %52 = load i32, i32* %51, align 4, !llfi_index !321
  %53 = load i32, i32* %6, align 4, !llfi_index !322
  %54 = add nsw i32 %52, %53, !llfi_index !323
  %55 = load i32, i32* %10, align 4, !llfi_index !324
  %56 = sext i32 %55 to i64, !llfi_index !325
  %57 = mul nsw i64 %56, %30, !llfi_index !326
  %58 = getelementptr inbounds i32, i32* %33, i64 %57, !llfi_index !327
  %59 = load i32, i32* %10, align 4, !llfi_index !328
  %60 = sext i32 %59 to i64, !llfi_index !329
  %61 = getelementptr inbounds i32, i32* %58, i64 %60, !llfi_index !330
  store i32 %54, i32* %61, align 4, !llfi_index !331
  br label %62, !llfi_index !332

62:                                               ; preds = %42
  %63 = load i32, i32* %10, align 4, !llfi_index !333
  %64 = add nsw i32 %63, 1, !llfi_index !334
  store i32 %64, i32* %10, align 4, !llfi_index !335
  br label %38, !llvm.loop !336, !llfi_index !337

65:                                               ; preds = %38
  store i32 89, i32* %3, align 4, !llfi_index !338
  store i32 0, i32* %11, align 4, !llfi_index !339
  br label %66, !llfi_index !340

66:                                               ; preds = %127, %65
  %67 = load i32, i32* %11, align 4, !llfi_index !341
  %68 = load i32, i32* %4, align 4, !llfi_index !342
  %69 = icmp slt i32 %67, %68, !llfi_index !343
  br i1 %69, label %70, label %130, !llfi_index !344

70:                                               ; preds = %66
  %71 = load i32, i32* %11, align 4, !llfi_index !345
  %72 = sext i32 %71 to i64, !llfi_index !346
  %73 = mul nsw i64 %72, %30, !llfi_index !347
  %74 = getelementptr inbounds i32, i32* %33, i64 %73, !llfi_index !348
  %75 = load i32, i32* %11, align 4, !llfi_index !349
  %76 = sext i32 %75 to i64, !llfi_index !350
  %77 = getelementptr inbounds i32, i32* %74, i64 %76, !llfi_index !351
  %78 = load i32, i32* %77, align 4, !llfi_index !352
  store i32 %78, i32* %12, align 4, !llfi_index !353
  %79 = load i32, i32* %11, align 4, !llfi_index !354
  %80 = add nsw i32 %79, 1, !llfi_index !355
  store i32 %80, i32* %13, align 4, !llfi_index !356
  br label %81, !llfi_index !357

81:                                               ; preds = %95, %70
  %82 = load i32, i32* %13, align 4, !llfi_index !358
  %83 = load i32, i32* %4, align 4, !llfi_index !359
  %84 = icmp slt i32 %82, %83, !llfi_index !360
  br i1 %84, label %85, label %98, !llfi_index !361

85:                                               ; preds = %81
  %86 = load i32, i32* %12, align 4, !llfi_index !362
  %87 = add nsw i32 %86, -1, !llfi_index !363
  store i32 %87, i32* %12, align 4, !llfi_index !364
  %88 = load i32, i32* %11, align 4, !llfi_index !365
  %89 = sext i32 %88 to i64, !llfi_index !366
  %90 = mul nsw i64 %89, %30, !llfi_index !367
  %91 = getelementptr inbounds i32, i32* %33, i64 %90, !llfi_index !368
  %92 = load i32, i32* %13, align 4, !llfi_index !369
  %93 = sext i32 %92 to i64, !llfi_index !370
  %94 = getelementptr inbounds i32, i32* %91, i64 %93, !llfi_index !371
  store i32 %87, i32* %94, align 4, !llfi_index !372
  br label %95, !llfi_index !373

95:                                               ; preds = %85
  %96 = load i32, i32* %13, align 4, !llfi_index !374
  %97 = add nsw i32 %96, 1, !llfi_index !375
  store i32 %97, i32* %13, align 4, !llfi_index !376
  br label %81, !llvm.loop !377, !llfi_index !378

98:                                               ; preds = %81
  %99 = load i32, i32* %11, align 4, !llfi_index !379
  %100 = sext i32 %99 to i64, !llfi_index !380
  %101 = mul nsw i64 %100, %30, !llfi_index !381
  %102 = getelementptr inbounds i32, i32* %33, i64 %101, !llfi_index !382
  %103 = load i32, i32* %11, align 4, !llfi_index !383
  %104 = sext i32 %103 to i64, !llfi_index !384
  %105 = getelementptr inbounds i32, i32* %102, i64 %104, !llfi_index !385
  %106 = load i32, i32* %105, align 4, !llfi_index !386
  store i32 %106, i32* %12, align 4, !llfi_index !387
  %107 = load i32, i32* %11, align 4, !llfi_index !388
  %108 = add nsw i32 %107, 1, !llfi_index !389
  store i32 %108, i32* %14, align 4, !llfi_index !390
  br label %109, !llfi_index !391

109:                                              ; preds = %123, %98
  %110 = load i32, i32* %14, align 4, !llfi_index !392
  %111 = load i32, i32* %4, align 4, !llfi_index !393
  %112 = icmp slt i32 %110, %111, !llfi_index !394
  br i1 %112, label %113, label %126, !llfi_index !395

113:                                              ; preds = %109
  %114 = load i32, i32* %12, align 4, !llfi_index !396
  %115 = add nsw i32 %114, -1, !llfi_index !397
  store i32 %115, i32* %12, align 4, !llfi_index !398
  %116 = load i32, i32* %14, align 4, !llfi_index !399
  %117 = sext i32 %116 to i64, !llfi_index !400
  %118 = mul nsw i64 %117, %30, !llfi_index !401
  %119 = getelementptr inbounds i32, i32* %33, i64 %118, !llfi_index !402
  %120 = load i32, i32* %11, align 4, !llfi_index !403
  %121 = sext i32 %120 to i64, !llfi_index !404
  %122 = getelementptr inbounds i32, i32* %119, i64 %121, !llfi_index !405
  store i32 %115, i32* %122, align 4, !llfi_index !406
  br label %123, !llfi_index !407

123:                                              ; preds = %113
  %124 = load i32, i32* %14, align 4, !llfi_index !408
  %125 = add nsw i32 %124, 1, !llfi_index !409
  store i32 %125, i32* %14, align 4, !llfi_index !410
  br label %109, !llvm.loop !411, !llfi_index !412

126:                                              ; preds = %109
  br label %127, !llfi_index !413

127:                                              ; preds = %126
  %128 = load i32, i32* %11, align 4, !llfi_index !414
  %129 = add nsw i32 %128, 1, !llfi_index !415
  store i32 %129, i32* %11, align 4, !llfi_index !416
  br label %66, !llvm.loop !417, !llfi_index !418

130:                                              ; preds = %66
  store i32 89, i32* %3, align 4, !llfi_index !419
  store i32 0, i32* %15, align 4, !llfi_index !420
  br label %131, !llfi_index !421

131:                                              ; preds = %156, %130
  %132 = load i32, i32* %15, align 4, !llfi_index !422
  %133 = load i32, i32* %4, align 4, !llfi_index !423
  %134 = icmp slt i32 %132, %133, !llfi_index !424
  br i1 %134, label %135, label %159, !llfi_index !425

135:                                              ; preds = %131
  store i32 0, i32* %16, align 4, !llfi_index !426
  br label %136, !llfi_index !427

136:                                              ; preds = %151, %135
  %137 = load i32, i32* %16, align 4, !llfi_index !428
  %138 = load i32, i32* %4, align 4, !llfi_index !429
  %139 = icmp slt i32 %137, %138, !llfi_index !430
  br i1 %139, label %140, label %154, !llfi_index !431

140:                                              ; preds = %136
  %141 = load i32, i32* %15, align 4, !llfi_index !432
  %142 = sext i32 %141 to i64, !llfi_index !433
  %143 = mul nsw i64 %142, %30, !llfi_index !434
  %144 = getelementptr inbounds i32, i32* %33, i64 %143, !llfi_index !435
  %145 = load i32, i32* %16, align 4, !llfi_index !436
  %146 = sext i32 %145 to i64, !llfi_index !437
  %147 = getelementptr inbounds i32, i32* %144, i64 %146, !llfi_index !438
  %148 = load i32, i32* %147, align 4, !llfi_index !439
  %149 = call nonnull align 8 dereferenceable(8) %"class.std::basic_ostream"* @_ZNSolsEi(%"class.std::basic_ostream"* nonnull align 8 dereferenceable(8) @_ZSt4cout, i32 %148), !llfi_index !440
  %150 = call nonnull align 8 dereferenceable(8) %"class.std::basic_ostream"* @_ZStlsISt11char_traitsIcEERSt13basic_ostreamIcT_ES5_PKc(%"class.std::basic_ostream"* nonnull align 8 dereferenceable(8) %149, i8* getelementptr inbounds ([2 x i8], [2 x i8]* @.str.3, i64 0, i64 0)), !llfi_index !441
  br label %151, !llfi_index !442

151:                                              ; preds = %140
  %152 = load i32, i32* %16, align 4, !llfi_index !443
  %153 = add nsw i32 %152, 1, !llfi_index !444
  store i32 %153, i32* %16, align 4, !llfi_index !445
  br label %136, !llvm.loop !446, !llfi_index !447

154:                                              ; preds = %136
  %155 = call nonnull align 8 dereferenceable(8) %"class.std::basic_ostream"* @_ZStlsISt11char_traitsIcEERSt13basic_ostreamIcT_ES5_PKc(%"class.std::basic_ostream"* nonnull align 8 dereferenceable(8) @_ZSt4cout, i8* getelementptr inbounds ([2 x i8], [2 x i8]* @.str.4, i64 0, i64 0)), !llfi_index !448
  br label %156, !llfi_index !449

156:                                              ; preds = %154
  %157 = load i32, i32* %15, align 4, !llfi_index !450
  %158 = add nsw i32 %157, 1, !llfi_index !451
  store i32 %158, i32* %15, align 4, !llfi_index !452
  br label %131, !llvm.loop !453, !llfi_index !454

159:                                              ; preds = %131
  %160 = load i8*, i8** %7, align 8, !llfi_index !455
  call void @llvm.stackrestore(i8* %160), !llfi_index !456
  br label %19, !llvm.loop !457, !llfi_index !458

161:                                              ; preds = %19
  ret i32 0, !llfi_index !459
}

declare dso_local %struct._IO_FILE* @freopen(i8*, i8*, %struct._IO_FILE*) #1

declare dso_local nonnull align 8 dereferenceable(16) %"class.std::basic_istream"* @_ZNSirsERi(%"class.std::basic_istream"* nonnull align 8 dereferenceable(16), i32* nonnull align 4 dereferenceable(4)) #1

; Function Attrs: nofree nosync nounwind willreturn
declare i8* @llvm.stacksave() #8

declare dso_local nonnull align 8 dereferenceable(8) %"class.std::basic_ostream"* @_ZNSolsEi(%"class.std::basic_ostream"* nonnull align 8 dereferenceable(8), i32) #1

declare dso_local nonnull align 8 dereferenceable(8) %"class.std::basic_ostream"* @_ZStlsISt11char_traitsIcEERSt13basic_ostreamIcT_ES5_PKc(%"class.std::basic_ostream"* nonnull align 8 dereferenceable(8), i8*) #1

; Function Attrs: nofree nosync nounwind willreturn
declare void @llvm.stackrestore(i8*) #8

attributes #0 = { noinline uwtable "frame-pointer"="all" "min-legal-vector-width"="0" "no-trapping-math"="true" "stack-protector-buffer-size"="8" "target-cpu"="x86-64" "target-features"="+cx8,+fxsr,+mmx,+sse,+sse2,+x87" "tune-cpu"="generic" }
attributes #1 = { "frame-pointer"="all" "no-trapping-math"="true" "stack-protector-buffer-size"="8" "target-cpu"="x86-64" "target-features"="+cx8,+fxsr,+mmx,+sse,+sse2,+x87" "tune-cpu"="generic" }
attributes #2 = { nounwind }
attributes #3 = { nounwind "frame-pointer"="all" "no-trapping-math"="true" "stack-protector-buffer-size"="8" "target-cpu"="x86-64" "target-features"="+cx8,+fxsr,+mmx,+sse,+sse2,+x87" "tune-cpu"="generic" }
attributes #4 = { mustprogress noinline nounwind uwtable "frame-pointer"="all" "min-legal-vector-width"="0" "no-trapping-math"="true" "stack-protector-buffer-size"="8" "target-cpu"="x86-64" "target-features"="+cx8,+fxsr,+mmx,+sse,+sse2,+x87" "tune-cpu"="generic" }
attributes #5 = { noinline noreturn nounwind }
attributes #6 = { mustprogress noinline uwtable "frame-pointer"="all" "min-legal-vector-width"="0" "no-trapping-math"="true" "stack-protector-buffer-size"="8" "target-cpu"="x86-64" "target-features"="+cx8,+fxsr,+mmx,+sse,+sse2,+x87" "tune-cpu"="generic" }
attributes #7 = { mustprogress noinline norecurse uwtable "frame-pointer"="all" "min-legal-vector-width"="0" "no-trapping-math"="true" "stack-protector-buffer-size"="8" "target-cpu"="x86-64" "target-features"="+cx8,+fxsr,+mmx,+sse,+sse2,+x87" "tune-cpu"="generic" }
attributes #8 = { nofree nosync nounwind willreturn }
attributes #9 = { noreturn nounwind }

!llvm.ident = !{!0}
!llvm.module.flags = !{!1, !2, !3}

!0 = !{!"clang version 13.0.0 (https://github.com/llvm/llvm-project.git d7b669b3a30345cfcdb2fde2af6f48aa4b94845d)"}
!1 = !{i32 1, !"wchar_size", i32 4}
!2 = !{i32 7, !"uwtable", i32 1}
!3 = !{i32 7, !"frame-pointer", i32 2}
!4 = !{i64 1}
!5 = !{i64 2}
!6 = !{i64 3}
!7 = !{i64 4}
!8 = !{i64 5}
!9 = !{i64 6}
!10 = !{i64 7}
!11 = !{i64 8}
!12 = !{i64 9}
!13 = !{i64 10}
!14 = !{i64 11}
!15 = !{i64 12}
!16 = !{i64 13}
!17 = !{i64 14}
!18 = !{i64 15}
!19 = !{i64 16}
!20 = !{i64 17}
!21 = !{i64 18}
!22 = !{i64 19}
!23 = !{i64 20}
!24 = !{i64 21}
!25 = !{i64 22}
!26 = !{i64 23}
!27 = !{i64 24}
!28 = !{i64 25}
!29 = !{i64 26}
!30 = !{i64 27}
!31 = !{i64 28}
!32 = !{i64 29}
!33 = !{i64 30}
!34 = !{i64 31}
!35 = !{i64 32}
!36 = !{i64 33}
!37 = !{i64 34}
!38 = !{i64 35}
!39 = !{i64 36}
!40 = !{i64 37}
!41 = !{i64 38}
!42 = !{i64 39}
!43 = !{i64 40}
!44 = !{i64 41}
!45 = !{i64 42}
!46 = !{i64 43}
!47 = !{i64 44}
!48 = !{i64 45}
!49 = !{i64 46}
!50 = !{i64 47}
!51 = !{i64 48}
!52 = !{i64 49}
!53 = !{i64 50}
!54 = !{i64 51}
!55 = !{i64 52}
!56 = !{i64 53}
!57 = !{i64 54}
!58 = !{i64 55}
!59 = !{i64 56}
!60 = !{i64 57}
!61 = !{i64 58}
!62 = !{i64 59}
!63 = !{i64 60}
!64 = !{i64 61}
!65 = !{i64 62}
!66 = !{i64 63}
!67 = !{i64 64}
!68 = !{i64 65}
!69 = !{i64 66}
!70 = !{i64 67}
!71 = !{i64 68}
!72 = !{i64 69}
!73 = !{i64 70}
!74 = !{i64 71}
!75 = !{i64 72}
!76 = !{i64 73}
!77 = !{i64 74}
!78 = !{i64 75}
!79 = !{i64 76}
!80 = !{i64 77}
!81 = !{i64 78}
!82 = !{i64 79}
!83 = !{i64 80}
!84 = !{i64 81}
!85 = !{i64 82}
!86 = !{i64 83}
!87 = !{i64 84}
!88 = !{i64 85}
!89 = !{i64 86}
!90 = !{i64 87}
!91 = !{i64 88}
!92 = !{i64 89}
!93 = !{i64 90}
!94 = !{i64 91}
!95 = !{i64 92}
!96 = !{i64 93}
!97 = !{i64 94}
!98 = !{i64 95}
!99 = !{i64 96}
!100 = !{i64 97}
!101 = !{i64 98}
!102 = !{i64 99}
!103 = distinct !{!103, !104}
!104 = !{!"llvm.loop.mustprogress"}
!105 = !{i64 100}
!106 = !{i64 101}
!107 = !{i64 102}
!108 = !{i64 103}
!109 = !{i64 104}
!110 = !{i64 105}
!111 = !{i64 106}
!112 = !{i64 107}
!113 = !{i64 108}
!114 = !{i64 109}
!115 = !{i64 110}
!116 = !{i64 111}
!117 = !{i64 112}
!118 = !{i64 113}
!119 = !{i64 114}
!120 = !{i64 115}
!121 = !{i64 116}
!122 = distinct !{!122, !104}
!123 = !{i64 117}
!124 = !{i64 118}
!125 = !{i64 119}
!126 = !{i64 120}
!127 = !{i64 121}
!128 = !{i64 122}
!129 = !{i64 123}
!130 = !{i64 124}
!131 = !{i64 125}
!132 = !{i64 126}
!133 = !{i64 127}
!134 = !{i64 128}
!135 = !{i64 129}
!136 = !{i64 130}
!137 = !{i64 131}
!138 = !{i64 132}
!139 = !{i64 133}
!140 = !{i64 134}
!141 = !{i64 135}
!142 = !{i64 136}
!143 = !{i64 137}
!144 = !{i64 138}
!145 = !{i64 139}
!146 = !{i64 140}
!147 = !{i64 141}
!148 = !{i64 142}
!149 = !{i64 143}
!150 = !{i64 144}
!151 = !{i64 145}
!152 = !{i64 146}
!153 = !{i64 147}
!154 = !{i64 148}
!155 = !{i64 149}
!156 = !{i64 150}
!157 = !{i64 151}
!158 = !{i64 152}
!159 = !{i64 153}
!160 = !{i64 154}
!161 = !{i64 155}
!162 = !{i64 156}
!163 = !{i64 157}
!164 = !{i64 158}
!165 = !{i64 159}
!166 = !{i64 160}
!167 = !{i64 161}
!168 = !{i64 162}
!169 = !{i64 163}
!170 = !{i64 164}
!171 = !{i64 165}
!172 = !{i64 166}
!173 = !{i64 167}
!174 = !{i64 168}
!175 = !{i64 169}
!176 = !{i64 170}
!177 = !{i64 171}
!178 = !{i64 172}
!179 = !{i64 173}
!180 = !{i64 174}
!181 = !{i64 175}
!182 = !{i64 176}
!183 = !{i64 177}
!184 = !{i64 178}
!185 = !{i64 179}
!186 = !{i64 180}
!187 = !{i64 181}
!188 = !{i64 182}
!189 = !{i64 183}
!190 = !{i64 184}
!191 = !{i64 185}
!192 = !{i64 186}
!193 = !{i64 187}
!194 = !{i64 188}
!195 = !{i64 189}
!196 = !{i64 190}
!197 = !{i64 191}
!198 = !{i64 192}
!199 = !{i64 193}
!200 = !{i64 194}
!201 = !{i64 195}
!202 = !{i64 196}
!203 = !{i64 197}
!204 = !{i64 198}
!205 = !{i64 199}
!206 = !{i64 200}
!207 = !{i64 201}
!208 = !{i64 202}
!209 = !{i64 203}
!210 = !{i64 204}
!211 = !{i64 205}
!212 = !{i64 206}
!213 = !{i64 207}
!214 = !{i64 208}
!215 = !{i64 209}
!216 = !{i64 210}
!217 = !{i64 211}
!218 = !{i64 212}
!219 = !{i64 213}
!220 = !{i64 214}
!221 = !{i64 215}
!222 = !{i64 216}
!223 = !{i64 217}
!224 = !{i64 218}
!225 = !{i64 219}
!226 = !{i64 220}
!227 = !{i64 221}
!228 = !{i64 222}
!229 = !{i64 223}
!230 = !{i64 224}
!231 = !{i64 225}
!232 = !{i64 226}
!233 = !{i64 227}
!234 = !{i64 228}
!235 = !{i64 229}
!236 = !{i64 230}
!237 = !{i64 231}
!238 = !{i64 232}
!239 = !{i64 233}
!240 = !{i64 234}
!241 = !{i64 235}
!242 = !{i64 236}
!243 = !{i64 237}
!244 = distinct !{!244, !104}
!245 = !{i64 238}
!246 = !{i64 239}
!247 = !{i64 240}
!248 = !{i64 241}
!249 = !{i64 242}
!250 = !{i64 243}
!251 = !{i64 244}
!252 = !{i64 245}
!253 = !{i64 246}
!254 = !{i64 247}
!255 = !{i64 248}
!256 = !{i64 249}
!257 = !{i64 250}
!258 = !{i64 251}
!259 = !{i64 252}
!260 = !{i64 253}
!261 = !{i64 254}
!262 = !{i64 255}
!263 = !{i64 256}
!264 = !{i64 257}
!265 = !{i64 258}
!266 = !{i64 259}
!267 = !{i64 260}
!268 = !{i64 261}
!269 = !{i64 262}
!270 = !{i64 263}
!271 = !{i64 264}
!272 = !{i64 265}
!273 = !{i64 266}
!274 = !{i64 267}
!275 = !{i64 268}
!276 = !{i64 269}
!277 = !{i64 270}
!278 = !{i64 271}
!279 = !{i64 272}
!280 = !{i64 273}
!281 = !{i64 274}
!282 = !{i64 275}
!283 = !{i64 276}
!284 = !{i64 277}
!285 = !{i64 278}
!286 = !{i64 279}
!287 = !{i64 280}
!288 = !{i64 281}
!289 = !{i64 282}
!290 = !{i64 283}
!291 = !{i64 284}
!292 = !{i64 285}
!293 = !{i64 286}
!294 = !{i64 287}
!295 = !{i64 288}
!296 = !{i64 289}
!297 = !{i64 290}
!298 = !{i64 291}
!299 = !{i64 292}
!300 = !{i64 293}
!301 = !{i64 294}
!302 = !{i64 295}
!303 = !{i64 296}
!304 = !{i64 297}
!305 = !{i64 298}
!306 = !{i64 299}
!307 = !{i64 300}
!308 = !{i64 301}
!309 = !{i64 302}
!310 = !{i64 303}
!311 = !{i64 304}
!312 = !{i64 305}
!313 = !{i64 306}
!314 = !{i64 307}
!315 = !{i64 308}
!316 = !{i64 309}
!317 = !{i64 310}
!318 = !{i64 311}
!319 = !{i64 312}
!320 = !{i64 313}
!321 = !{i64 314}
!322 = !{i64 315}
!323 = !{i64 316}
!324 = !{i64 317}
!325 = !{i64 318}
!326 = !{i64 319}
!327 = !{i64 320}
!328 = !{i64 321}
!329 = !{i64 322}
!330 = !{i64 323}
!331 = !{i64 324}
!332 = !{i64 325}
!333 = !{i64 326}
!334 = !{i64 327}
!335 = !{i64 328}
!336 = distinct !{!336, !104}
!337 = !{i64 329}
!338 = !{i64 330}
!339 = !{i64 331}
!340 = !{i64 332}
!341 = !{i64 333}
!342 = !{i64 334}
!343 = !{i64 335}
!344 = !{i64 336}
!345 = !{i64 337}
!346 = !{i64 338}
!347 = !{i64 339}
!348 = !{i64 340}
!349 = !{i64 341}
!350 = !{i64 342}
!351 = !{i64 343}
!352 = !{i64 344}
!353 = !{i64 345}
!354 = !{i64 346}
!355 = !{i64 347}
!356 = !{i64 348}
!357 = !{i64 349}
!358 = !{i64 350}
!359 = !{i64 351}
!360 = !{i64 352}
!361 = !{i64 353}
!362 = !{i64 354}
!363 = !{i64 355}
!364 = !{i64 356}
!365 = !{i64 357}
!366 = !{i64 358}
!367 = !{i64 359}
!368 = !{i64 360}
!369 = !{i64 361}
!370 = !{i64 362}
!371 = !{i64 363}
!372 = !{i64 364}
!373 = !{i64 365}
!374 = !{i64 366}
!375 = !{i64 367}
!376 = !{i64 368}
!377 = distinct !{!377, !104}
!378 = !{i64 369}
!379 = !{i64 370}
!380 = !{i64 371}
!381 = !{i64 372}
!382 = !{i64 373}
!383 = !{i64 374}
!384 = !{i64 375}
!385 = !{i64 376}
!386 = !{i64 377}
!387 = !{i64 378}
!388 = !{i64 379}
!389 = !{i64 380}
!390 = !{i64 381}
!391 = !{i64 382}
!392 = !{i64 383}
!393 = !{i64 384}
!394 = !{i64 385}
!395 = !{i64 386}
!396 = !{i64 387}
!397 = !{i64 388}
!398 = !{i64 389}
!399 = !{i64 390}
!400 = !{i64 391}
!401 = !{i64 392}
!402 = !{i64 393}
!403 = !{i64 394}
!404 = !{i64 395}
!405 = !{i64 396}
!406 = !{i64 397}
!407 = !{i64 398}
!408 = !{i64 399}
!409 = !{i64 400}
!410 = !{i64 401}
!411 = distinct !{!411, !104}
!412 = !{i64 402}
!413 = !{i64 403}
!414 = !{i64 404}
!415 = !{i64 405}
!416 = !{i64 406}
!417 = distinct !{!417, !104}
!418 = !{i64 407}
!419 = !{i64 408}
!420 = !{i64 409}
!421 = !{i64 410}
!422 = !{i64 411}
!423 = !{i64 412}
!424 = !{i64 413}
!425 = !{i64 414}
!426 = !{i64 415}
!427 = !{i64 416}
!428 = !{i64 417}
!429 = !{i64 418}
!430 = !{i64 419}
!431 = !{i64 420}
!432 = !{i64 421}
!433 = !{i64 422}
!434 = !{i64 423}
!435 = !{i64 424}
!436 = !{i64 425}
!437 = !{i64 426}
!438 = !{i64 427}
!439 = !{i64 428}
!440 = !{i64 429}
!441 = !{i64 430}
!442 = !{i64 431}
!443 = !{i64 432}
!444 = !{i64 433}
!445 = !{i64 434}
!446 = distinct !{!446, !104}
!447 = !{i64 435}
!448 = !{i64 436}
!449 = !{i64 437}
!450 = !{i64 438}
!451 = !{i64 439}
!452 = !{i64 440}
!453 = distinct !{!453, !104}
!454 = !{i64 441}
!455 = !{i64 442}
!456 = !{i64 443}
!457 = distinct !{!457, !104}
!458 = !{i64 444}
!459 = !{i64 445}
