; ModuleID = '/home/hjiang/Computation-Kernel-Dataset/experiments/Fault_injection_0308_parall/O0/TwoArrays/TwoArrays.ll'
source_filename = "llvm-link"
target datalayout = "e-m:e-p270:32:32-p271:32:32-p272:64:64-i64:64-f80:128-n8:16:32:64-S128"
target triple = "x86_64-unknown-linux-gnu"

%"class.std::ios_base::Init" = type { i8 }
%struct._IO_FILE = type { i32, i8*, i8*, i8*, i8*, i8*, i8*, i8*, i8*, i8*, i8*, i8*, %struct._IO_marker*, %struct._IO_FILE*, i32, i32, i64, i16, i8, [1 x i8], i8*, i64, %struct._IO_codecvt*, %struct._IO_wide_data*, %struct._IO_FILE*, i8*, i64, i32, [20 x i8] }
%struct._IO_marker = type opaque
%struct._IO_codecvt = type opaque
%struct._IO_wide_data = type opaque
%"class.std::basic_istream" = type { i32 (...)**, i64, %"class.std::basic_ios" }
%"class.std::basic_ios" = type { %"class.std::ios_base", %"class.std::basic_ostream"*, i8, i8, %"class.std::basic_streambuf"*, %"class.std::ctype"*, %"class.std::num_put"*, %"class.std::num_put"* }
%"class.std::ios_base" = type { i32 (...)**, i64, i64, i32, i32, i32, %"struct.std::ios_base::_Callback_list"*, %"struct.std::ios_base::_Words", [8 x %"struct.std::ios_base::_Words"], i32, %"struct.std::ios_base::_Words"*, %"class.std::locale" }
%"struct.std::ios_base::_Callback_list" = type { %"struct.std::ios_base::_Callback_list"*, void (i32, %"class.std::ios_base"*, i32)*, i32, i32 }
%"struct.std::ios_base::_Words" = type { i8*, i64 }
%"class.std::locale" = type { %"class.std::locale::_Impl"* }
%"class.std::locale::_Impl" = type { i32, %"class.std::locale::facet"**, i64, %"class.std::locale::facet"**, i8** }
%"class.std::locale::facet" = type <{ i32 (...)**, i32, [4 x i8] }>
%"class.std::basic_ostream" = type { i32 (...)**, %"class.std::basic_ios" }
%"class.std::basic_streambuf" = type { i32 (...)**, i8*, i8*, i8*, i8*, i8*, i8*, %"class.std::locale" }
%"class.std::ctype" = type <{ %"class.std::locale::facet.base", [4 x i8], %struct.__locale_struct*, i8, [7 x i8], i32*, i32*, i16*, i8, [256 x i8], [256 x i8], i8, [6 x i8] }>
%"class.std::locale::facet.base" = type <{ i32 (...)**, i32 }>
%struct.__locale_struct = type { [13 x %struct.__locale_data*], i16*, i32*, i32*, [13 x i8*] }
%struct.__locale_data = type opaque
%"class.std::num_put" = type { %"class.std::locale::facet.base", [4 x i8] }

$_ZSt4sortIPlEvT_S1_ = comdat any

$_ZSt7reverseIPlEvT_S1_ = comdat any

$_ZSt19__iterator_categoryIPlENSt15iterator_traitsIT_E17iterator_categoryERKS2_ = comdat any

$_ZSt9__reverseIPlEvT_S1_St26random_access_iterator_tag = comdat any

$_ZSt9iter_swapIPlS0_EvT_T0_ = comdat any

$_ZSt4swapIlENSt9enable_ifIXsr6__and_ISt6__not_ISt15__is_tuple_likeIT_EESt21is_move_constructibleIS3_ESt18is_move_assignableIS3_EEE5valueEvE4typeERS3_SC_ = comdat any

$_ZSt4moveIRlEONSt16remove_referenceIT_E4typeEOS2_ = comdat any

$_ZN9__gnu_cxx5__ops16__iter_less_iterEv = comdat any

$_ZSt6__sortIPlN9__gnu_cxx5__ops15_Iter_less_iterEEvT_S4_T0_ = comdat any

$_ZSt4__lgl = comdat any

$_ZSt16__introsort_loopIPllN9__gnu_cxx5__ops15_Iter_less_iterEEvT_S4_T0_T1_ = comdat any

$_ZSt22__final_insertion_sortIPlN9__gnu_cxx5__ops15_Iter_less_iterEEvT_S4_T0_ = comdat any

$_ZSt16__insertion_sortIPlN9__gnu_cxx5__ops15_Iter_less_iterEEvT_S4_T0_ = comdat any

$_ZSt26__unguarded_insertion_sortIPlN9__gnu_cxx5__ops15_Iter_less_iterEEvT_S4_T0_ = comdat any

$_ZN9__gnu_cxx5__ops15__val_comp_iterENS0_15_Iter_less_iterE = comdat any

$_ZSt25__unguarded_linear_insertIPlN9__gnu_cxx5__ops14_Val_less_iterEEvT_T0_ = comdat any

$_ZNK9__gnu_cxx5__ops14_Val_less_iterclIlPlEEbRT_T0_ = comdat any

$_ZNK9__gnu_cxx5__ops15_Iter_less_iterclIPlS3_EEbT_T0_ = comdat any

$_ZSt13move_backwardIPlS0_ET0_T_S2_S1_ = comdat any

$_ZSt12__miter_baseIPlET_S1_ = comdat any

$_ZSt23__copy_move_backward_a2ILb1EPlS0_ET1_T0_S2_S1_ = comdat any

$_ZSt12__niter_baseIPlET_S1_ = comdat any

$_ZSt22__copy_move_backward_aILb1EPlS0_ET1_T0_S2_S1_ = comdat any

$_ZSt12__niter_wrapIPlET_RKS1_S1_ = comdat any

$_ZNSt20__copy_move_backwardILb1ELb1ESt26random_access_iterator_tagE13__copy_move_bIlEEPT_PKS3_S6_S4_ = comdat any

$_ZSt14__partial_sortIPlN9__gnu_cxx5__ops15_Iter_less_iterEEvT_S4_S4_T0_ = comdat any

$_ZSt27__unguarded_partition_pivotIPlN9__gnu_cxx5__ops15_Iter_less_iterEET_S4_S4_T0_ = comdat any

$_ZSt22__move_median_to_firstIPlN9__gnu_cxx5__ops15_Iter_less_iterEEvT_S4_S4_S4_T0_ = comdat any

$_ZSt21__unguarded_partitionIPlN9__gnu_cxx5__ops15_Iter_less_iterEET_S4_S4_S4_T0_ = comdat any

$_ZSt13__heap_selectIPlN9__gnu_cxx5__ops15_Iter_less_iterEEvT_S4_S4_T0_ = comdat any

$_ZSt11__sort_heapIPlN9__gnu_cxx5__ops15_Iter_less_iterEEvT_S4_RT0_ = comdat any

$_ZSt10__pop_heapIPlN9__gnu_cxx5__ops15_Iter_less_iterEEvT_S4_S4_RT0_ = comdat any

$_ZSt13__adjust_heapIPlllN9__gnu_cxx5__ops15_Iter_less_iterEEvT_T0_S5_T1_T2_ = comdat any

$_ZSt4moveIRN9__gnu_cxx5__ops15_Iter_less_iterEEONSt16remove_referenceIT_E4typeEOS5_ = comdat any

$_ZN9__gnu_cxx5__ops14_Iter_less_valC2ENS0_15_Iter_less_iterE = comdat any

$_ZSt11__push_heapIPlllN9__gnu_cxx5__ops14_Iter_less_valEEvT_T0_S5_T1_RT2_ = comdat any

$_ZNK9__gnu_cxx5__ops14_Iter_less_valclIPllEEbT_RT0_ = comdat any

$_ZSt11__make_heapIPlN9__gnu_cxx5__ops15_Iter_less_iterEEvT_S4_RT0_ = comdat any

@llvm.global_ctors = appending global [1 x { i32, void ()*, i8* }] [{ i32, void ()*, i8* } { i32 65535, void ()* @_GLOBAL__sub_I_TwoArrays.cpp, i8* null }]
@_ZStL8__ioinit = internal global %"class.std::ios_base::Init" zeroinitializer, align 1
@.str = private unnamed_addr constant [25 x i8] c"../input_files/TwoArrays\00", align 1
@.str.1 = private unnamed_addr constant [2 x i8] c"r\00", align 1
@stdin = external dso_local global %struct._IO_FILE*, align 8
@_ZSt3cin = external dso_local global %"class.std::basic_istream", align 8
@_ZSt4cout = external dso_local global %"class.std::basic_ostream", align 8
@.str.2 = private unnamed_addr constant [4 x i8] c"YES\00", align 1
@.str.3 = private unnamed_addr constant [3 x i8] c"NO\00", align 1
@.str.4 = private unnamed_addr constant [2 x i8] c"\0A\00", align 1

; Function Attrs: noinline uwtable
define internal void @_GLOBAL__sub_I_TwoArrays.cpp() #0 section ".text.startup" {
  call void @__cxx_global_var_init(), !llfi_index !4
  ret void, !llfi_index !5
}

; Function Attrs: noinline uwtable
define internal void @__cxx_global_var_init() #0 section ".text.startup" {
  call void @_ZNSt8ios_base4InitC1Ev(%"class.std::ios_base::Init"* nonnull align 1 dereferenceable(1) @_ZStL8__ioinit), !llfi_index !6
  %1 = call i32 @atexit(void ()* @__dtor__ZStL8__ioinit) #2, !llfi_index !7
  ret void, !llfi_index !8
}

declare dso_local void @_ZNSt8ios_base4InitC1Ev(%"class.std::ios_base::Init"* nonnull align 1 dereferenceable(1)) unnamed_addr #1

; Function Attrs: noinline uwtable
define internal void @__dtor__ZStL8__ioinit() #0 section ".text.startup" {
  call void @_ZNSt8ios_base4InitD1Ev(%"class.std::ios_base::Init"* @_ZStL8__ioinit), !llfi_index !9
  ret void, !llfi_index !10
}

; Function Attrs: nounwind
declare dso_local i32 @atexit(void ()*) #2

; Function Attrs: nounwind
declare dso_local void @_ZNSt8ios_base4InitD1Ev(%"class.std::ios_base::Init"* nonnull align 1 dereferenceable(1)) unnamed_addr #3

; Function Attrs: mustprogress noinline norecurse uwtable
define dso_local i32 @main() #4 {
  %1 = alloca i32, align 4, !llfi_index !11
  %2 = alloca [1000 x i64], align 16, !llfi_index !12
  %3 = alloca [1000 x i64], align 16, !llfi_index !13
  %4 = alloca i64, align 8, !llfi_index !14
  %5 = alloca i64, align 8, !llfi_index !15
  %6 = alloca i64, align 8, !llfi_index !16
  %7 = alloca i32, align 4, !llfi_index !17
  %8 = alloca i32, align 4, !llfi_index !18
  %9 = alloca i32, align 4, !llfi_index !19
  %10 = alloca i8, align 1, !llfi_index !20
  %11 = alloca i32, align 4, !llfi_index !21
  store i32 0, i32* %1, align 4, !llfi_index !22
  %12 = load %struct._IO_FILE*, %struct._IO_FILE** @stdin, align 8, !llfi_index !23
  %13 = call %struct._IO_FILE* @freopen(i8* getelementptr inbounds ([25 x i8], [25 x i8]* @.str, i64 0, i64 0), i8* getelementptr inbounds ([2 x i8], [2 x i8]* @.str.1, i64 0, i64 0), %struct._IO_FILE* %12), !llfi_index !24
  %14 = call nonnull align 8 dereferenceable(16) %"class.std::basic_istream"* @_ZNSirsERl(%"class.std::basic_istream"* nonnull align 8 dereferenceable(16) @_ZSt3cin, i64* nonnull align 8 dereferenceable(8) %4), !llfi_index !25
  store i32 89, i32* %7, align 4, !llfi_index !26
  br label %15, !llfi_index !27

15:                                               ; preds = %93, %0
  %16 = load i64, i64* %4, align 8, !llfi_index !28
  %17 = add nsw i64 %16, -1, !llfi_index !29
  store i64 %17, i64* %4, align 8, !llfi_index !30
  %18 = icmp sgt i64 %16, 0, !llfi_index !31
  br i1 %18, label %19, label %95, !llfi_index !32

19:                                               ; preds = %15
  %20 = call nonnull align 8 dereferenceable(16) %"class.std::basic_istream"* @_ZNSirsERl(%"class.std::basic_istream"* nonnull align 8 dereferenceable(16) @_ZSt3cin, i64* nonnull align 8 dereferenceable(8) %5), !llfi_index !33
  %21 = call nonnull align 8 dereferenceable(16) %"class.std::basic_istream"* @_ZNSirsERl(%"class.std::basic_istream"* nonnull align 8 dereferenceable(16) @_ZSt3cin, i64* nonnull align 8 dereferenceable(8) %6), !llfi_index !34
  store i32 89, i32* %7, align 4, !llfi_index !35
  store i32 0, i32* %8, align 4, !llfi_index !36
  br label %22, !llfi_index !37

22:                                               ; preds = %32, %19
  %23 = load i32, i32* %8, align 4, !llfi_index !38
  %24 = sext i32 %23 to i64, !llfi_index !39
  %25 = load i64, i64* %5, align 8, !llfi_index !40
  %26 = icmp slt i64 %24, %25, !llfi_index !41
  br i1 %26, label %27, label %35, !llfi_index !42

27:                                               ; preds = %22
  %28 = load i32, i32* %8, align 4, !llfi_index !43
  %29 = sext i32 %28 to i64, !llfi_index !44
  %30 = getelementptr inbounds [1000 x i64], [1000 x i64]* %2, i64 0, i64 %29, !llfi_index !45
  %31 = call nonnull align 8 dereferenceable(16) %"class.std::basic_istream"* @_ZNSirsERl(%"class.std::basic_istream"* nonnull align 8 dereferenceable(16) @_ZSt3cin, i64* nonnull align 8 dereferenceable(8) %30), !llfi_index !46
  br label %32, !llfi_index !47

32:                                               ; preds = %27
  %33 = load i32, i32* %8, align 4, !llfi_index !48
  %34 = add nsw i32 %33, 1, !llfi_index !49
  store i32 %34, i32* %8, align 4, !llfi_index !50
  br label %22, !llvm.loop !51, !llfi_index !53

35:                                               ; preds = %22
  store i32 89, i32* %7, align 4, !llfi_index !54
  store i32 0, i32* %9, align 4, !llfi_index !55
  br label %36, !llfi_index !56

36:                                               ; preds = %46, %35
  %37 = load i32, i32* %9, align 4, !llfi_index !57
  %38 = sext i32 %37 to i64, !llfi_index !58
  %39 = load i64, i64* %5, align 8, !llfi_index !59
  %40 = icmp slt i64 %38, %39, !llfi_index !60
  br i1 %40, label %41, label %49, !llfi_index !61

41:                                               ; preds = %36
  %42 = load i32, i32* %9, align 4, !llfi_index !62
  %43 = sext i32 %42 to i64, !llfi_index !63
  %44 = getelementptr inbounds [1000 x i64], [1000 x i64]* %3, i64 0, i64 %43, !llfi_index !64
  %45 = call nonnull align 8 dereferenceable(16) %"class.std::basic_istream"* @_ZNSirsERl(%"class.std::basic_istream"* nonnull align 8 dereferenceable(16) @_ZSt3cin, i64* nonnull align 8 dereferenceable(8) %44), !llfi_index !65
  br label %46, !llfi_index !66

46:                                               ; preds = %41
  %47 = load i32, i32* %9, align 4, !llfi_index !67
  %48 = add nsw i32 %47, 1, !llfi_index !68
  store i32 %48, i32* %9, align 4, !llfi_index !69
  br label %36, !llvm.loop !70, !llfi_index !71

49:                                               ; preds = %36
  %50 = getelementptr inbounds [1000 x i64], [1000 x i64]* %2, i64 0, i64 0, !llfi_index !72
  %51 = getelementptr inbounds [1000 x i64], [1000 x i64]* %2, i64 0, i64 0, !llfi_index !73
  %52 = load i64, i64* %5, align 8, !llfi_index !74
  %53 = getelementptr inbounds i64, i64* %51, i64 %52, !llfi_index !75
  call void @_ZSt4sortIPlEvT_S1_(i64* %50, i64* %53), !llfi_index !76
  %54 = getelementptr inbounds [1000 x i64], [1000 x i64]* %3, i64 0, i64 0, !llfi_index !77
  %55 = getelementptr inbounds [1000 x i64], [1000 x i64]* %3, i64 0, i64 0, !llfi_index !78
  %56 = load i64, i64* %5, align 8, !llfi_index !79
  %57 = getelementptr inbounds i64, i64* %55, i64 %56, !llfi_index !80
  call void @_ZSt4sortIPlEvT_S1_(i64* %54, i64* %57), !llfi_index !81
  %58 = getelementptr inbounds [1000 x i64], [1000 x i64]* %3, i64 0, i64 0, !llfi_index !82
  %59 = getelementptr inbounds [1000 x i64], [1000 x i64]* %3, i64 0, i64 0, !llfi_index !83
  %60 = load i64, i64* %5, align 8, !llfi_index !84
  %61 = getelementptr inbounds i64, i64* %59, i64 %60, !llfi_index !85
  call void @_ZSt7reverseIPlEvT_S1_(i64* %58, i64* %61), !llfi_index !86
  store i8 1, i8* %10, align 1, !llfi_index !87
  store i32 89, i32* %7, align 4, !llfi_index !88
  store i32 0, i32* %11, align 4, !llfi_index !89
  br label %62, !llfi_index !90

62:                                               ; preds = %81, %49
  %63 = load i32, i32* %11, align 4, !llfi_index !91
  %64 = sext i32 %63 to i64, !llfi_index !92
  %65 = load i64, i64* %5, align 8, !llfi_index !93
  %66 = icmp slt i64 %64, %65, !llfi_index !94
  br i1 %66, label %67, label %84, !llfi_index !95

67:                                               ; preds = %62
  %68 = load i32, i32* %11, align 4, !llfi_index !96
  %69 = sext i32 %68 to i64, !llfi_index !97
  %70 = getelementptr inbounds [1000 x i64], [1000 x i64]* %2, i64 0, i64 %69, !llfi_index !98
  %71 = load i64, i64* %70, align 8, !llfi_index !99
  %72 = load i32, i32* %11, align 4, !llfi_index !100
  %73 = sext i32 %72 to i64, !llfi_index !101
  %74 = getelementptr inbounds [1000 x i64], [1000 x i64]* %3, i64 0, i64 %73, !llfi_index !102
  %75 = load i64, i64* %74, align 8, !llfi_index !103
  %76 = add nsw i64 %71, %75, !llfi_index !104
  %77 = load i64, i64* %6, align 8, !llfi_index !105
  %78 = icmp slt i64 %76, %77, !llfi_index !106
  br i1 %78, label %79, label %80, !llfi_index !107

79:                                               ; preds = %67
  store i8 0, i8* %10, align 1, !llfi_index !108
  br label %84, !llfi_index !109

80:                                               ; preds = %67
  br label %81, !llfi_index !110

81:                                               ; preds = %80
  %82 = load i32, i32* %11, align 4, !llfi_index !111
  %83 = add nsw i32 %82, 1, !llfi_index !112
  store i32 %83, i32* %11, align 4, !llfi_index !113
  br label %62, !llvm.loop !114, !llfi_index !115

84:                                               ; preds = %79, %62
  %85 = load i8, i8* %10, align 1, !llfi_index !116
  %86 = trunc i8 %85 to i1, !llfi_index !117
  %87 = zext i1 %86 to i32, !llfi_index !118
  %88 = icmp eq i32 %87, 1, !llfi_index !119
  br i1 %88, label %89, label %91, !llfi_index !120

89:                                               ; preds = %84
  %90 = call nonnull align 8 dereferenceable(8) %"class.std::basic_ostream"* @_ZStlsISt11char_traitsIcEERSt13basic_ostreamIcT_ES5_PKc(%"class.std::basic_ostream"* nonnull align 8 dereferenceable(8) @_ZSt4cout, i8* getelementptr inbounds ([4 x i8], [4 x i8]* @.str.2, i64 0, i64 0)), !llfi_index !121
  br label %93, !llfi_index !122

91:                                               ; preds = %84
  %92 = call nonnull align 8 dereferenceable(8) %"class.std::basic_ostream"* @_ZStlsISt11char_traitsIcEERSt13basic_ostreamIcT_ES5_PKc(%"class.std::basic_ostream"* nonnull align 8 dereferenceable(8) @_ZSt4cout, i8* getelementptr inbounds ([3 x i8], [3 x i8]* @.str.3, i64 0, i64 0)), !llfi_index !123
  br label %93, !llfi_index !124

93:                                               ; preds = %91, %89
  %94 = call nonnull align 8 dereferenceable(8) %"class.std::basic_ostream"* @_ZStlsISt11char_traitsIcEERSt13basic_ostreamIcT_ES5_PKc(%"class.std::basic_ostream"* nonnull align 8 dereferenceable(8) @_ZSt4cout, i8* getelementptr inbounds ([2 x i8], [2 x i8]* @.str.4, i64 0, i64 0)), !llfi_index !125
  br label %15, !llvm.loop !126, !llfi_index !127

95:                                               ; preds = %15
  ret i32 0, !llfi_index !128
}

declare dso_local %struct._IO_FILE* @freopen(i8*, i8*, %struct._IO_FILE*) #1

declare dso_local nonnull align 8 dereferenceable(16) %"class.std::basic_istream"* @_ZNSirsERl(%"class.std::basic_istream"* nonnull align 8 dereferenceable(16), i64* nonnull align 8 dereferenceable(8)) #1

; Function Attrs: mustprogress noinline uwtable
define linkonce_odr dso_local void @_ZSt4sortIPlEvT_S1_(i64* %0, i64* %1) #5 comdat {
  %3 = alloca i64*, align 8, !llfi_index !129
  %4 = alloca i64*, align 8, !llfi_index !130
  %5 = alloca %"class.std::ios_base::Init", align 1, !llfi_index !131
  %6 = alloca %"class.std::ios_base::Init", align 1, !llfi_index !132
  store i64* %0, i64** %3, align 8, !llfi_index !133
  store i64* %1, i64** %4, align 8, !llfi_index !134
  %7 = load i64*, i64** %3, align 8, !llfi_index !135
  %8 = load i64*, i64** %4, align 8, !llfi_index !136
  call void @_ZN9__gnu_cxx5__ops16__iter_less_iterEv(), !llfi_index !137
  call void @_ZSt6__sortIPlN9__gnu_cxx5__ops15_Iter_less_iterEEvT_S4_T0_(i64* %7, i64* %8), !llfi_index !138
  ret void, !llfi_index !139
}

; Function Attrs: mustprogress noinline uwtable
define linkonce_odr dso_local void @_ZSt7reverseIPlEvT_S1_(i64* %0, i64* %1) #5 comdat {
  %3 = alloca i64*, align 8, !llfi_index !140
  %4 = alloca i64*, align 8, !llfi_index !141
  %5 = alloca %"class.std::ios_base::Init", align 1, !llfi_index !142
  %6 = alloca %"class.std::ios_base::Init", align 1, !llfi_index !143
  store i64* %0, i64** %3, align 8, !llfi_index !144
  store i64* %1, i64** %4, align 8, !llfi_index !145
  %7 = load i64*, i64** %3, align 8, !llfi_index !146
  %8 = load i64*, i64** %4, align 8, !llfi_index !147
  call void @_ZSt19__iterator_categoryIPlENSt15iterator_traitsIT_E17iterator_categoryERKS2_(i64** nonnull align 8 dereferenceable(8) %3), !llfi_index !148
  call void @_ZSt9__reverseIPlEvT_S1_St26random_access_iterator_tag(i64* %7, i64* %8), !llfi_index !149
  ret void, !llfi_index !150
}

declare dso_local nonnull align 8 dereferenceable(8) %"class.std::basic_ostream"* @_ZStlsISt11char_traitsIcEERSt13basic_ostreamIcT_ES5_PKc(%"class.std::basic_ostream"* nonnull align 8 dereferenceable(8), i8*) #1

; Function Attrs: mustprogress noinline nounwind uwtable
define linkonce_odr dso_local void @_ZSt19__iterator_categoryIPlENSt15iterator_traitsIT_E17iterator_categoryERKS2_(i64** nonnull align 8 dereferenceable(8) %0) #6 comdat {
  %2 = alloca i64**, align 8, !llfi_index !151
  store i64** %0, i64*** %2, align 8, !llfi_index !152
  ret void, !llfi_index !153
}

; Function Attrs: mustprogress noinline nounwind uwtable
define linkonce_odr dso_local void @_ZSt9__reverseIPlEvT_S1_St26random_access_iterator_tag(i64* %0, i64* %1) #6 comdat {
  %3 = alloca %"class.std::ios_base::Init", align 1, !llfi_index !154
  %4 = alloca i64*, align 8, !llfi_index !155
  %5 = alloca i64*, align 8, !llfi_index !156
  store i64* %0, i64** %4, align 8, !llfi_index !157
  store i64* %1, i64** %5, align 8, !llfi_index !158
  %6 = load i64*, i64** %4, align 8, !llfi_index !159
  %7 = load i64*, i64** %5, align 8, !llfi_index !160
  %8 = icmp eq i64* %6, %7, !llfi_index !161
  br i1 %8, label %9, label %10, !llfi_index !162

9:                                                ; preds = %2
  br label %24, !llfi_index !163

10:                                               ; preds = %2
  %11 = load i64*, i64** %5, align 8, !llfi_index !164
  %12 = getelementptr inbounds i64, i64* %11, i32 -1, !llfi_index !165
  store i64* %12, i64** %5, align 8, !llfi_index !166
  br label %13, !llfi_index !167

13:                                               ; preds = %17, %10
  %14 = load i64*, i64** %4, align 8, !llfi_index !168
  %15 = load i64*, i64** %5, align 8, !llfi_index !169
  %16 = icmp ult i64* %14, %15, !llfi_index !170
  br i1 %16, label %17, label %24, !llfi_index !171

17:                                               ; preds = %13
  %18 = load i64*, i64** %4, align 8, !llfi_index !172
  %19 = load i64*, i64** %5, align 8, !llfi_index !173
  call void @_ZSt9iter_swapIPlS0_EvT_T0_(i64* %18, i64* %19), !llfi_index !174
  %20 = load i64*, i64** %4, align 8, !llfi_index !175
  %21 = getelementptr inbounds i64, i64* %20, i32 1, !llfi_index !176
  store i64* %21, i64** %4, align 8, !llfi_index !177
  %22 = load i64*, i64** %5, align 8, !llfi_index !178
  %23 = getelementptr inbounds i64, i64* %22, i32 -1, !llfi_index !179
  store i64* %23, i64** %5, align 8, !llfi_index !180
  br label %13, !llvm.loop !181, !llfi_index !182

24:                                               ; preds = %13, %9
  ret void, !llfi_index !183
}

; Function Attrs: mustprogress noinline nounwind uwtable
define linkonce_odr dso_local void @_ZSt9iter_swapIPlS0_EvT_T0_(i64* %0, i64* %1) #6 comdat {
  %3 = alloca i64*, align 8, !llfi_index !184
  %4 = alloca i64*, align 8, !llfi_index !185
  store i64* %0, i64** %3, align 8, !llfi_index !186
  store i64* %1, i64** %4, align 8, !llfi_index !187
  %5 = load i64*, i64** %3, align 8, !llfi_index !188
  %6 = load i64*, i64** %4, align 8, !llfi_index !189
  call void @_ZSt4swapIlENSt9enable_ifIXsr6__and_ISt6__not_ISt15__is_tuple_likeIT_EESt21is_move_constructibleIS3_ESt18is_move_assignableIS3_EEE5valueEvE4typeERS3_SC_(i64* nonnull align 8 dereferenceable(8) %5, i64* nonnull align 8 dereferenceable(8) %6) #2, !llfi_index !190
  ret void, !llfi_index !191
}

; Function Attrs: mustprogress noinline nounwind uwtable
define linkonce_odr dso_local void @_ZSt4swapIlENSt9enable_ifIXsr6__and_ISt6__not_ISt15__is_tuple_likeIT_EESt21is_move_constructibleIS3_ESt18is_move_assignableIS3_EEE5valueEvE4typeERS3_SC_(i64* nonnull align 8 dereferenceable(8) %0, i64* nonnull align 8 dereferenceable(8) %1) #6 comdat {
  %3 = alloca i64*, align 8, !llfi_index !192
  %4 = alloca i64*, align 8, !llfi_index !193
  %5 = alloca i64, align 8, !llfi_index !194
  store i64* %0, i64** %3, align 8, !llfi_index !195
  store i64* %1, i64** %4, align 8, !llfi_index !196
  %6 = load i64*, i64** %3, align 8, !llfi_index !197
  %7 = call nonnull align 8 dereferenceable(8) i64* @_ZSt4moveIRlEONSt16remove_referenceIT_E4typeEOS2_(i64* nonnull align 8 dereferenceable(8) %6) #2, !llfi_index !198
  %8 = load i64, i64* %7, align 8, !llfi_index !199
  store i64 %8, i64* %5, align 8, !llfi_index !200
  %9 = load i64*, i64** %4, align 8, !llfi_index !201
  %10 = call nonnull align 8 dereferenceable(8) i64* @_ZSt4moveIRlEONSt16remove_referenceIT_E4typeEOS2_(i64* nonnull align 8 dereferenceable(8) %9) #2, !llfi_index !202
  %11 = load i64, i64* %10, align 8, !llfi_index !203
  %12 = load i64*, i64** %3, align 8, !llfi_index !204
  store i64 %11, i64* %12, align 8, !llfi_index !205
  %13 = call nonnull align 8 dereferenceable(8) i64* @_ZSt4moveIRlEONSt16remove_referenceIT_E4typeEOS2_(i64* nonnull align 8 dereferenceable(8) %5) #2, !llfi_index !206
  %14 = load i64, i64* %13, align 8, !llfi_index !207
  %15 = load i64*, i64** %4, align 8, !llfi_index !208
  store i64 %14, i64* %15, align 8, !llfi_index !209
  ret void, !llfi_index !210
}

; Function Attrs: mustprogress noinline nounwind uwtable
define linkonce_odr dso_local nonnull align 8 dereferenceable(8) i64* @_ZSt4moveIRlEONSt16remove_referenceIT_E4typeEOS2_(i64* nonnull align 8 dereferenceable(8) %0) #6 comdat {
  %2 = alloca i64*, align 8, !llfi_index !211
  store i64* %0, i64** %2, align 8, !llfi_index !212
  %3 = load i64*, i64** %2, align 8, !llfi_index !213
  ret i64* %3, !llfi_index !214
}

; Function Attrs: mustprogress noinline nounwind uwtable
define linkonce_odr dso_local void @_ZN9__gnu_cxx5__ops16__iter_less_iterEv() #6 comdat {
  ret void, !llfi_index !215
}

; Function Attrs: mustprogress noinline uwtable
define linkonce_odr dso_local void @_ZSt6__sortIPlN9__gnu_cxx5__ops15_Iter_less_iterEEvT_S4_T0_(i64* %0, i64* %1) #5 comdat {
  %3 = alloca %"class.std::ios_base::Init", align 1, !llfi_index !216
  %4 = alloca i64*, align 8, !llfi_index !217
  %5 = alloca i64*, align 8, !llfi_index !218
  %6 = alloca %"class.std::ios_base::Init", align 1, !llfi_index !219
  %7 = alloca %"class.std::ios_base::Init", align 1, !llfi_index !220
  store i64* %0, i64** %4, align 8, !llfi_index !221
  store i64* %1, i64** %5, align 8, !llfi_index !222
  %8 = load i64*, i64** %4, align 8, !llfi_index !223
  %9 = load i64*, i64** %5, align 8, !llfi_index !224
  %10 = icmp ne i64* %8, %9, !llfi_index !225
  br i1 %10, label %11, label %24, !llfi_index !226

11:                                               ; preds = %2
  %12 = load i64*, i64** %4, align 8, !llfi_index !227
  %13 = load i64*, i64** %5, align 8, !llfi_index !228
  %14 = load i64*, i64** %5, align 8, !llfi_index !229
  %15 = load i64*, i64** %4, align 8, !llfi_index !230
  %16 = ptrtoint i64* %14 to i64, !llfi_index !231
  %17 = ptrtoint i64* %15 to i64, !llfi_index !232
  %18 = sub i64 %16, %17, !llfi_index !233
  %19 = sdiv exact i64 %18, 8, !llfi_index !234
  %20 = call i64 @_ZSt4__lgl(i64 %19), !llfi_index !235
  %21 = mul nsw i64 %20, 2, !llfi_index !236
  call void @_ZSt16__introsort_loopIPllN9__gnu_cxx5__ops15_Iter_less_iterEEvT_S4_T0_T1_(i64* %12, i64* %13, i64 %21), !llfi_index !237
  %22 = load i64*, i64** %4, align 8, !llfi_index !238
  %23 = load i64*, i64** %5, align 8, !llfi_index !239
  call void @_ZSt22__final_insertion_sortIPlN9__gnu_cxx5__ops15_Iter_less_iterEEvT_S4_T0_(i64* %22, i64* %23), !llfi_index !240
  br label %24, !llfi_index !241

24:                                               ; preds = %11, %2
  ret void, !llfi_index !242
}

; Function Attrs: mustprogress noinline nounwind uwtable
define linkonce_odr dso_local i64 @_ZSt4__lgl(i64 %0) #6 comdat {
  %2 = alloca i64, align 8, !llfi_index !243
  store i64 %0, i64* %2, align 8, !llfi_index !244
  %3 = load i64, i64* %2, align 8, !llfi_index !245
  %4 = call i64 @llvm.ctlz.i64(i64 %3, i1 true), !llfi_index !246
  %5 = trunc i64 %4 to i32, !llfi_index !247
  %6 = sub nsw i32 63, %5, !llfi_index !248
  %7 = sext i32 %6 to i64, !llfi_index !249
  ret i64 %7, !llfi_index !250
}

; Function Attrs: mustprogress noinline uwtable
define linkonce_odr dso_local void @_ZSt16__introsort_loopIPllN9__gnu_cxx5__ops15_Iter_less_iterEEvT_S4_T0_T1_(i64* %0, i64* %1, i64 %2) #5 comdat {
  %4 = alloca %"class.std::ios_base::Init", align 1, !llfi_index !251
  %5 = alloca i64*, align 8, !llfi_index !252
  %6 = alloca i64*, align 8, !llfi_index !253
  %7 = alloca i64, align 8, !llfi_index !254
  %8 = alloca %"class.std::ios_base::Init", align 1, !llfi_index !255
  %9 = alloca i64*, align 8, !llfi_index !256
  %10 = alloca %"class.std::ios_base::Init", align 1, !llfi_index !257
  %11 = alloca %"class.std::ios_base::Init", align 1, !llfi_index !258
  store i64* %0, i64** %5, align 8, !llfi_index !259
  store i64* %1, i64** %6, align 8, !llfi_index !260
  store i64 %2, i64* %7, align 8, !llfi_index !261
  br label %12, !llfi_index !262

12:                                               ; preds = %27, %3
  %13 = load i64*, i64** %6, align 8, !llfi_index !263
  %14 = load i64*, i64** %5, align 8, !llfi_index !264
  %15 = ptrtoint i64* %13 to i64, !llfi_index !265
  %16 = ptrtoint i64* %14 to i64, !llfi_index !266
  %17 = sub i64 %15, %16, !llfi_index !267
  %18 = sdiv exact i64 %17, 8, !llfi_index !268
  %19 = icmp sgt i64 %18, 16, !llfi_index !269
  br i1 %19, label %20, label %37, !llfi_index !270

20:                                               ; preds = %12
  %21 = load i64, i64* %7, align 8, !llfi_index !271
  %22 = icmp eq i64 %21, 0, !llfi_index !272
  br i1 %22, label %23, label %27, !llfi_index !273

23:                                               ; preds = %20
  %24 = load i64*, i64** %5, align 8, !llfi_index !274
  %25 = load i64*, i64** %6, align 8, !llfi_index !275
  %26 = load i64*, i64** %6, align 8, !llfi_index !276
  call void @_ZSt14__partial_sortIPlN9__gnu_cxx5__ops15_Iter_less_iterEEvT_S4_S4_T0_(i64* %24, i64* %25, i64* %26), !llfi_index !277
  br label %37, !llfi_index !278

27:                                               ; preds = %20
  %28 = load i64, i64* %7, align 8, !llfi_index !279
  %29 = add nsw i64 %28, -1, !llfi_index !280
  store i64 %29, i64* %7, align 8, !llfi_index !281
  %30 = load i64*, i64** %5, align 8, !llfi_index !282
  %31 = load i64*, i64** %6, align 8, !llfi_index !283
  %32 = call i64* @_ZSt27__unguarded_partition_pivotIPlN9__gnu_cxx5__ops15_Iter_less_iterEET_S4_S4_T0_(i64* %30, i64* %31), !llfi_index !284
  store i64* %32, i64** %9, align 8, !llfi_index !285
  %33 = load i64*, i64** %9, align 8, !llfi_index !286
  %34 = load i64*, i64** %6, align 8, !llfi_index !287
  %35 = load i64, i64* %7, align 8, !llfi_index !288
  call void @_ZSt16__introsort_loopIPllN9__gnu_cxx5__ops15_Iter_less_iterEEvT_S4_T0_T1_(i64* %33, i64* %34, i64 %35), !llfi_index !289
  %36 = load i64*, i64** %9, align 8, !llfi_index !290
  store i64* %36, i64** %6, align 8, !llfi_index !291
  br label %12, !llvm.loop !292, !llfi_index !293

37:                                               ; preds = %23, %12
  ret void, !llfi_index !294
}

; Function Attrs: mustprogress noinline uwtable
define linkonce_odr dso_local void @_ZSt22__final_insertion_sortIPlN9__gnu_cxx5__ops15_Iter_less_iterEEvT_S4_T0_(i64* %0, i64* %1) #5 comdat {
  %3 = alloca %"class.std::ios_base::Init", align 1, !llfi_index !295
  %4 = alloca i64*, align 8, !llfi_index !296
  %5 = alloca i64*, align 8, !llfi_index !297
  %6 = alloca %"class.std::ios_base::Init", align 1, !llfi_index !298
  %7 = alloca %"class.std::ios_base::Init", align 1, !llfi_index !299
  %8 = alloca %"class.std::ios_base::Init", align 1, !llfi_index !300
  store i64* %0, i64** %4, align 8, !llfi_index !301
  store i64* %1, i64** %5, align 8, !llfi_index !302
  %9 = load i64*, i64** %5, align 8, !llfi_index !303
  %10 = load i64*, i64** %4, align 8, !llfi_index !304
  %11 = ptrtoint i64* %9 to i64, !llfi_index !305
  %12 = ptrtoint i64* %10 to i64, !llfi_index !306
  %13 = sub i64 %11, %12, !llfi_index !307
  %14 = sdiv exact i64 %13, 8, !llfi_index !308
  %15 = icmp sgt i64 %14, 16, !llfi_index !309
  br i1 %15, label %16, label %23, !llfi_index !310

16:                                               ; preds = %2
  %17 = load i64*, i64** %4, align 8, !llfi_index !311
  %18 = load i64*, i64** %4, align 8, !llfi_index !312
  %19 = getelementptr inbounds i64, i64* %18, i64 16, !llfi_index !313
  call void @_ZSt16__insertion_sortIPlN9__gnu_cxx5__ops15_Iter_less_iterEEvT_S4_T0_(i64* %17, i64* %19), !llfi_index !314
  %20 = load i64*, i64** %4, align 8, !llfi_index !315
  %21 = getelementptr inbounds i64, i64* %20, i64 16, !llfi_index !316
  %22 = load i64*, i64** %5, align 8, !llfi_index !317
  call void @_ZSt26__unguarded_insertion_sortIPlN9__gnu_cxx5__ops15_Iter_less_iterEEvT_S4_T0_(i64* %21, i64* %22), !llfi_index !318
  br label %26, !llfi_index !319

23:                                               ; preds = %2
  %24 = load i64*, i64** %4, align 8, !llfi_index !320
  %25 = load i64*, i64** %5, align 8, !llfi_index !321
  call void @_ZSt16__insertion_sortIPlN9__gnu_cxx5__ops15_Iter_less_iterEEvT_S4_T0_(i64* %24, i64* %25), !llfi_index !322
  br label %26, !llfi_index !323

26:                                               ; preds = %23, %16
  ret void, !llfi_index !324
}

; Function Attrs: mustprogress noinline uwtable
define linkonce_odr dso_local void @_ZSt16__insertion_sortIPlN9__gnu_cxx5__ops15_Iter_less_iterEEvT_S4_T0_(i64* %0, i64* %1) #5 comdat {
  %3 = alloca %"class.std::ios_base::Init", align 1, !llfi_index !325
  %4 = alloca i64*, align 8, !llfi_index !326
  %5 = alloca i64*, align 8, !llfi_index !327
  %6 = alloca i64*, align 8, !llfi_index !328
  %7 = alloca i64, align 8, !llfi_index !329
  %8 = alloca %"class.std::ios_base::Init", align 1, !llfi_index !330
  %9 = alloca %"class.std::ios_base::Init", align 1, !llfi_index !331
  %10 = alloca %"class.std::ios_base::Init", align 1, !llfi_index !332
  store i64* %0, i64** %4, align 8, !llfi_index !333
  store i64* %1, i64** %5, align 8, !llfi_index !334
  %11 = load i64*, i64** %4, align 8, !llfi_index !335
  %12 = load i64*, i64** %5, align 8, !llfi_index !336
  %13 = icmp eq i64* %11, %12, !llfi_index !337
  br i1 %13, label %14, label %15, !llfi_index !338

14:                                               ; preds = %2
  br label %44, !llfi_index !339

15:                                               ; preds = %2
  %16 = load i64*, i64** %4, align 8, !llfi_index !340
  %17 = getelementptr inbounds i64, i64* %16, i64 1, !llfi_index !341
  store i64* %17, i64** %6, align 8, !llfi_index !342
  br label %18, !llfi_index !343

18:                                               ; preds = %41, %15
  %19 = load i64*, i64** %6, align 8, !llfi_index !344
  %20 = load i64*, i64** %5, align 8, !llfi_index !345
  %21 = icmp ne i64* %19, %20, !llfi_index !346
  br i1 %21, label %22, label %44, !llfi_index !347

22:                                               ; preds = %18
  %23 = load i64*, i64** %6, align 8, !llfi_index !348
  %24 = load i64*, i64** %4, align 8, !llfi_index !349
  %25 = call zeroext i1 @_ZNK9__gnu_cxx5__ops15_Iter_less_iterclIPlS3_EEbT_T0_(%"class.std::ios_base::Init"* nonnull align 1 dereferenceable(1) %3, i64* %23, i64* %24), !llfi_index !350
  br i1 %25, label %26, label %38, !llfi_index !351

26:                                               ; preds = %22
  %27 = load i64*, i64** %6, align 8, !llfi_index !352
  %28 = call nonnull align 8 dereferenceable(8) i64* @_ZSt4moveIRlEONSt16remove_referenceIT_E4typeEOS2_(i64* nonnull align 8 dereferenceable(8) %27) #2, !llfi_index !353
  %29 = load i64, i64* %28, align 8, !llfi_index !354
  store i64 %29, i64* %7, align 8, !llfi_index !355
  %30 = load i64*, i64** %4, align 8, !llfi_index !356
  %31 = load i64*, i64** %6, align 8, !llfi_index !357
  %32 = load i64*, i64** %6, align 8, !llfi_index !358
  %33 = getelementptr inbounds i64, i64* %32, i64 1, !llfi_index !359
  %34 = call i64* @_ZSt13move_backwardIPlS0_ET0_T_S2_S1_(i64* %30, i64* %31, i64* %33), !llfi_index !360
  %35 = call nonnull align 8 dereferenceable(8) i64* @_ZSt4moveIRlEONSt16remove_referenceIT_E4typeEOS2_(i64* nonnull align 8 dereferenceable(8) %7) #2, !llfi_index !361
  %36 = load i64, i64* %35, align 8, !llfi_index !362
  %37 = load i64*, i64** %4, align 8, !llfi_index !363
  store i64 %36, i64* %37, align 8, !llfi_index !364
  br label %40, !llfi_index !365

38:                                               ; preds = %22
  %39 = load i64*, i64** %6, align 8, !llfi_index !366
  call void @_ZN9__gnu_cxx5__ops15__val_comp_iterENS0_15_Iter_less_iterE(), !llfi_index !367
  call void @_ZSt25__unguarded_linear_insertIPlN9__gnu_cxx5__ops14_Val_less_iterEEvT_T0_(i64* %39), !llfi_index !368
  br label %40, !llfi_index !369

40:                                               ; preds = %38, %26
  br label %41, !llfi_index !370

41:                                               ; preds = %40
  %42 = load i64*, i64** %6, align 8, !llfi_index !371
  %43 = getelementptr inbounds i64, i64* %42, i32 1, !llfi_index !372
  store i64* %43, i64** %6, align 8, !llfi_index !373
  br label %18, !llvm.loop !374, !llfi_index !375

44:                                               ; preds = %18, %14
  ret void, !llfi_index !376
}

; Function Attrs: mustprogress noinline uwtable
define linkonce_odr dso_local void @_ZSt26__unguarded_insertion_sortIPlN9__gnu_cxx5__ops15_Iter_less_iterEEvT_S4_T0_(i64* %0, i64* %1) #5 comdat {
  %3 = alloca %"class.std::ios_base::Init", align 1, !llfi_index !377
  %4 = alloca i64*, align 8, !llfi_index !378
  %5 = alloca i64*, align 8, !llfi_index !379
  %6 = alloca i64*, align 8, !llfi_index !380
  %7 = alloca %"class.std::ios_base::Init", align 1, !llfi_index !381
  %8 = alloca %"class.std::ios_base::Init", align 1, !llfi_index !382
  %9 = alloca %"class.std::ios_base::Init", align 1, !llfi_index !383
  store i64* %0, i64** %4, align 8, !llfi_index !384
  store i64* %1, i64** %5, align 8, !llfi_index !385
  %10 = load i64*, i64** %4, align 8, !llfi_index !386
  store i64* %10, i64** %6, align 8, !llfi_index !387
  br label %11, !llfi_index !388

11:                                               ; preds = %17, %2
  %12 = load i64*, i64** %6, align 8, !llfi_index !389
  %13 = load i64*, i64** %5, align 8, !llfi_index !390
  %14 = icmp ne i64* %12, %13, !llfi_index !391
  br i1 %14, label %15, label %20, !llfi_index !392

15:                                               ; preds = %11
  %16 = load i64*, i64** %6, align 8, !llfi_index !393
  call void @_ZN9__gnu_cxx5__ops15__val_comp_iterENS0_15_Iter_less_iterE(), !llfi_index !394
  call void @_ZSt25__unguarded_linear_insertIPlN9__gnu_cxx5__ops14_Val_less_iterEEvT_T0_(i64* %16), !llfi_index !395
  br label %17, !llfi_index !396

17:                                               ; preds = %15
  %18 = load i64*, i64** %6, align 8, !llfi_index !397
  %19 = getelementptr inbounds i64, i64* %18, i32 1, !llfi_index !398
  store i64* %19, i64** %6, align 8, !llfi_index !399
  br label %11, !llvm.loop !400, !llfi_index !401

20:                                               ; preds = %11
  ret void, !llfi_index !402
}

; Function Attrs: mustprogress noinline nounwind uwtable
define linkonce_odr dso_local void @_ZN9__gnu_cxx5__ops15__val_comp_iterENS0_15_Iter_less_iterE() #6 comdat {
  %1 = alloca %"class.std::ios_base::Init", align 1, !llfi_index !403
  ret void, !llfi_index !404
}

; Function Attrs: mustprogress noinline uwtable
define linkonce_odr dso_local void @_ZSt25__unguarded_linear_insertIPlN9__gnu_cxx5__ops14_Val_less_iterEEvT_T0_(i64* %0) #5 comdat {
  %2 = alloca %"class.std::ios_base::Init", align 1, !llfi_index !405
  %3 = alloca i64*, align 8, !llfi_index !406
  %4 = alloca i64, align 8, !llfi_index !407
  %5 = alloca i64*, align 8, !llfi_index !408
  store i64* %0, i64** %3, align 8, !llfi_index !409
  %6 = load i64*, i64** %3, align 8, !llfi_index !410
  %7 = call nonnull align 8 dereferenceable(8) i64* @_ZSt4moveIRlEONSt16remove_referenceIT_E4typeEOS2_(i64* nonnull align 8 dereferenceable(8) %6) #2, !llfi_index !411
  %8 = load i64, i64* %7, align 8, !llfi_index !412
  store i64 %8, i64* %4, align 8, !llfi_index !413
  %9 = load i64*, i64** %3, align 8, !llfi_index !414
  store i64* %9, i64** %5, align 8, !llfi_index !415
  %10 = load i64*, i64** %5, align 8, !llfi_index !416
  %11 = getelementptr inbounds i64, i64* %10, i32 -1, !llfi_index !417
  store i64* %11, i64** %5, align 8, !llfi_index !418
  br label %12, !llfi_index !419

12:                                               ; preds = %15, %1
  %13 = load i64*, i64** %5, align 8, !llfi_index !420
  %14 = call zeroext i1 @_ZNK9__gnu_cxx5__ops14_Val_less_iterclIlPlEEbRT_T0_(%"class.std::ios_base::Init"* nonnull align 1 dereferenceable(1) %2, i64* nonnull align 8 dereferenceable(8) %4, i64* %13), !llfi_index !421
  br i1 %14, label %15, label %23, !llfi_index !422

15:                                               ; preds = %12
  %16 = load i64*, i64** %5, align 8, !llfi_index !423
  %17 = call nonnull align 8 dereferenceable(8) i64* @_ZSt4moveIRlEONSt16remove_referenceIT_E4typeEOS2_(i64* nonnull align 8 dereferenceable(8) %16) #2, !llfi_index !424
  %18 = load i64, i64* %17, align 8, !llfi_index !425
  %19 = load i64*, i64** %3, align 8, !llfi_index !426
  store i64 %18, i64* %19, align 8, !llfi_index !427
  %20 = load i64*, i64** %5, align 8, !llfi_index !428
  store i64* %20, i64** %3, align 8, !llfi_index !429
  %21 = load i64*, i64** %5, align 8, !llfi_index !430
  %22 = getelementptr inbounds i64, i64* %21, i32 -1, !llfi_index !431
  store i64* %22, i64** %5, align 8, !llfi_index !432
  br label %12, !llvm.loop !433, !llfi_index !434

23:                                               ; preds = %12
  %24 = call nonnull align 8 dereferenceable(8) i64* @_ZSt4moveIRlEONSt16remove_referenceIT_E4typeEOS2_(i64* nonnull align 8 dereferenceable(8) %4) #2, !llfi_index !435
  %25 = load i64, i64* %24, align 8, !llfi_index !436
  %26 = load i64*, i64** %3, align 8, !llfi_index !437
  store i64 %25, i64* %26, align 8, !llfi_index !438
  ret void, !llfi_index !439
}

; Function Attrs: mustprogress noinline nounwind uwtable
define linkonce_odr dso_local zeroext i1 @_ZNK9__gnu_cxx5__ops14_Val_less_iterclIlPlEEbRT_T0_(%"class.std::ios_base::Init"* nonnull align 1 dereferenceable(1) %0, i64* nonnull align 8 dereferenceable(8) %1, i64* %2) #6 comdat align 2 {
  %4 = alloca %"class.std::ios_base::Init"*, align 8, !llfi_index !440
  %5 = alloca i64*, align 8, !llfi_index !441
  %6 = alloca i64*, align 8, !llfi_index !442
  store %"class.std::ios_base::Init"* %0, %"class.std::ios_base::Init"** %4, align 8, !llfi_index !443
  store i64* %1, i64** %5, align 8, !llfi_index !444
  store i64* %2, i64** %6, align 8, !llfi_index !445
  %7 = load %"class.std::ios_base::Init"*, %"class.std::ios_base::Init"** %4, align 8, !llfi_index !446
  %8 = load i64*, i64** %5, align 8, !llfi_index !447
  %9 = load i64, i64* %8, align 8, !llfi_index !448
  %10 = load i64*, i64** %6, align 8, !llfi_index !449
  %11 = load i64, i64* %10, align 8, !llfi_index !450
  %12 = icmp slt i64 %9, %11, !llfi_index !451
  ret i1 %12, !llfi_index !452
}

; Function Attrs: mustprogress noinline nounwind uwtable
define linkonce_odr dso_local zeroext i1 @_ZNK9__gnu_cxx5__ops15_Iter_less_iterclIPlS3_EEbT_T0_(%"class.std::ios_base::Init"* nonnull align 1 dereferenceable(1) %0, i64* %1, i64* %2) #6 comdat align 2 {
  %4 = alloca %"class.std::ios_base::Init"*, align 8, !llfi_index !453
  %5 = alloca i64*, align 8, !llfi_index !454
  %6 = alloca i64*, align 8, !llfi_index !455
  store %"class.std::ios_base::Init"* %0, %"class.std::ios_base::Init"** %4, align 8, !llfi_index !456
  store i64* %1, i64** %5, align 8, !llfi_index !457
  store i64* %2, i64** %6, align 8, !llfi_index !458
  %7 = load %"class.std::ios_base::Init"*, %"class.std::ios_base::Init"** %4, align 8, !llfi_index !459
  %8 = load i64*, i64** %5, align 8, !llfi_index !460
  %9 = load i64, i64* %8, align 8, !llfi_index !461
  %10 = load i64*, i64** %6, align 8, !llfi_index !462
  %11 = load i64, i64* %10, align 8, !llfi_index !463
  %12 = icmp slt i64 %9, %11, !llfi_index !464
  ret i1 %12, !llfi_index !465
}

; Function Attrs: mustprogress noinline uwtable
define linkonce_odr dso_local i64* @_ZSt13move_backwardIPlS0_ET0_T_S2_S1_(i64* %0, i64* %1, i64* %2) #5 comdat {
  %4 = alloca i64*, align 8, !llfi_index !466
  %5 = alloca i64*, align 8, !llfi_index !467
  %6 = alloca i64*, align 8, !llfi_index !468
  store i64* %0, i64** %4, align 8, !llfi_index !469
  store i64* %1, i64** %5, align 8, !llfi_index !470
  store i64* %2, i64** %6, align 8, !llfi_index !471
  %7 = load i64*, i64** %4, align 8, !llfi_index !472
  %8 = call i64* @_ZSt12__miter_baseIPlET_S1_(i64* %7), !llfi_index !473
  %9 = load i64*, i64** %5, align 8, !llfi_index !474
  %10 = call i64* @_ZSt12__miter_baseIPlET_S1_(i64* %9), !llfi_index !475
  %11 = load i64*, i64** %6, align 8, !llfi_index !476
  %12 = call i64* @_ZSt23__copy_move_backward_a2ILb1EPlS0_ET1_T0_S2_S1_(i64* %8, i64* %10, i64* %11), !llfi_index !477
  ret i64* %12, !llfi_index !478
}

; Function Attrs: mustprogress noinline nounwind uwtable
define linkonce_odr dso_local i64* @_ZSt12__miter_baseIPlET_S1_(i64* %0) #6 comdat {
  %2 = alloca i64*, align 8, !llfi_index !479
  store i64* %0, i64** %2, align 8, !llfi_index !480
  %3 = load i64*, i64** %2, align 8, !llfi_index !481
  ret i64* %3, !llfi_index !482
}

; Function Attrs: mustprogress noinline uwtable
define linkonce_odr dso_local i64* @_ZSt23__copy_move_backward_a2ILb1EPlS0_ET1_T0_S2_S1_(i64* %0, i64* %1, i64* %2) #5 comdat {
  %4 = alloca i64*, align 8, !llfi_index !483
  %5 = alloca i64*, align 8, !llfi_index !484
  %6 = alloca i64*, align 8, !llfi_index !485
  store i64* %0, i64** %4, align 8, !llfi_index !486
  store i64* %1, i64** %5, align 8, !llfi_index !487
  store i64* %2, i64** %6, align 8, !llfi_index !488
  %7 = load i64*, i64** %4, align 8, !llfi_index !489
  %8 = call i64* @_ZSt12__niter_baseIPlET_S1_(i64* %7) #2, !llfi_index !490
  %9 = load i64*, i64** %5, align 8, !llfi_index !491
  %10 = call i64* @_ZSt12__niter_baseIPlET_S1_(i64* %9) #2, !llfi_index !492
  %11 = load i64*, i64** %6, align 8, !llfi_index !493
  %12 = call i64* @_ZSt12__niter_baseIPlET_S1_(i64* %11) #2, !llfi_index !494
  %13 = call i64* @_ZSt22__copy_move_backward_aILb1EPlS0_ET1_T0_S2_S1_(i64* %8, i64* %10, i64* %12), !llfi_index !495
  %14 = call i64* @_ZSt12__niter_wrapIPlET_RKS1_S1_(i64** nonnull align 8 dereferenceable(8) %6, i64* %13), !llfi_index !496
  ret i64* %14, !llfi_index !497
}

; Function Attrs: mustprogress noinline nounwind uwtable
define linkonce_odr dso_local i64* @_ZSt12__niter_baseIPlET_S1_(i64* %0) #6 comdat {
  %2 = alloca i64*, align 8, !llfi_index !498
  store i64* %0, i64** %2, align 8, !llfi_index !499
  %3 = load i64*, i64** %2, align 8, !llfi_index !500
  ret i64* %3, !llfi_index !501
}

; Function Attrs: mustprogress noinline uwtable
define linkonce_odr dso_local i64* @_ZSt22__copy_move_backward_aILb1EPlS0_ET1_T0_S2_S1_(i64* %0, i64* %1, i64* %2) #5 comdat {
  %4 = alloca i64*, align 8, !llfi_index !502
  %5 = alloca i64*, align 8, !llfi_index !503
  %6 = alloca i64*, align 8, !llfi_index !504
  %7 = alloca i8, align 1, !llfi_index !505
  store i64* %0, i64** %4, align 8, !llfi_index !506
  store i64* %1, i64** %5, align 8, !llfi_index !507
  store i64* %2, i64** %6, align 8, !llfi_index !508
  store i8 1, i8* %7, align 1, !llfi_index !509
  %8 = load i64*, i64** %4, align 8, !llfi_index !510
  %9 = load i64*, i64** %5, align 8, !llfi_index !511
  %10 = load i64*, i64** %6, align 8, !llfi_index !512
  %11 = call i64* @_ZNSt20__copy_move_backwardILb1ELb1ESt26random_access_iterator_tagE13__copy_move_bIlEEPT_PKS3_S6_S4_(i64* %8, i64* %9, i64* %10), !llfi_index !513
  ret i64* %11, !llfi_index !514
}

; Function Attrs: mustprogress noinline nounwind uwtable
define linkonce_odr dso_local i64* @_ZSt12__niter_wrapIPlET_RKS1_S1_(i64** nonnull align 8 dereferenceable(8) %0, i64* %1) #6 comdat {
  %3 = alloca i64**, align 8, !llfi_index !515
  %4 = alloca i64*, align 8, !llfi_index !516
  store i64** %0, i64*** %3, align 8, !llfi_index !517
  store i64* %1, i64** %4, align 8, !llfi_index !518
  %5 = load i64*, i64** %4, align 8, !llfi_index !519
  ret i64* %5, !llfi_index !520
}

; Function Attrs: mustprogress noinline nounwind uwtable
define linkonce_odr dso_local i64* @_ZNSt20__copy_move_backwardILb1ELb1ESt26random_access_iterator_tagE13__copy_move_bIlEEPT_PKS3_S6_S4_(i64* %0, i64* %1, i64* %2) #6 comdat align 2 {
  %4 = alloca i64*, align 8, !llfi_index !521
  %5 = alloca i64*, align 8, !llfi_index !522
  %6 = alloca i64*, align 8, !llfi_index !523
  %7 = alloca i64, align 8, !llfi_index !524
  store i64* %0, i64** %4, align 8, !llfi_index !525
  store i64* %1, i64** %5, align 8, !llfi_index !526
  store i64* %2, i64** %6, align 8, !llfi_index !527
  %8 = load i64*, i64** %5, align 8, !llfi_index !528
  %9 = load i64*, i64** %4, align 8, !llfi_index !529
  %10 = ptrtoint i64* %8 to i64, !llfi_index !530
  %11 = ptrtoint i64* %9 to i64, !llfi_index !531
  %12 = sub i64 %10, %11, !llfi_index !532
  %13 = sdiv exact i64 %12, 8, !llfi_index !533
  store i64 %13, i64* %7, align 8, !llfi_index !534
  %14 = load i64, i64* %7, align 8, !llfi_index !535
  %15 = icmp ne i64 %14, 0, !llfi_index !536
  br i1 %15, label %16, label %26, !llfi_index !537

16:                                               ; preds = %3
  %17 = load i64*, i64** %6, align 8, !llfi_index !538
  %18 = load i64, i64* %7, align 8, !llfi_index !539
  %19 = sub i64 0, %18, !llfi_index !540
  %20 = getelementptr inbounds i64, i64* %17, i64 %19, !llfi_index !541
  %21 = bitcast i64* %20 to i8*, !llfi_index !542
  %22 = load i64*, i64** %4, align 8, !llfi_index !543
  %23 = bitcast i64* %22 to i8*, !llfi_index !544
  %24 = load i64, i64* %7, align 8, !llfi_index !545
  %25 = mul i64 8, %24, !llfi_index !546
  call void @llvm.memmove.p0i8.p0i8.i64(i8* align 8 %21, i8* align 8 %23, i64 %25, i1 false), !llfi_index !547
  br label %26, !llfi_index !548

26:                                               ; preds = %16, %3
  %27 = load i64*, i64** %6, align 8, !llfi_index !549
  %28 = load i64, i64* %7, align 8, !llfi_index !550
  %29 = sub i64 0, %28, !llfi_index !551
  %30 = getelementptr inbounds i64, i64* %27, i64 %29, !llfi_index !552
  ret i64* %30, !llfi_index !553
}

; Function Attrs: argmemonly nofree nounwind willreturn
declare void @llvm.memmove.p0i8.p0i8.i64(i8* nocapture writeonly, i8* nocapture readonly, i64, i1 immarg) #7

; Function Attrs: mustprogress noinline uwtable
define linkonce_odr dso_local void @_ZSt14__partial_sortIPlN9__gnu_cxx5__ops15_Iter_less_iterEEvT_S4_S4_T0_(i64* %0, i64* %1, i64* %2) #5 comdat {
  %4 = alloca %"class.std::ios_base::Init", align 1, !llfi_index !554
  %5 = alloca i64*, align 8, !llfi_index !555
  %6 = alloca i64*, align 8, !llfi_index !556
  %7 = alloca i64*, align 8, !llfi_index !557
  %8 = alloca %"class.std::ios_base::Init", align 1, !llfi_index !558
  store i64* %0, i64** %5, align 8, !llfi_index !559
  store i64* %1, i64** %6, align 8, !llfi_index !560
  store i64* %2, i64** %7, align 8, !llfi_index !561
  %9 = load i64*, i64** %5, align 8, !llfi_index !562
  %10 = load i64*, i64** %6, align 8, !llfi_index !563
  %11 = load i64*, i64** %7, align 8, !llfi_index !564
  call void @_ZSt13__heap_selectIPlN9__gnu_cxx5__ops15_Iter_less_iterEEvT_S4_S4_T0_(i64* %9, i64* %10, i64* %11), !llfi_index !565
  %12 = load i64*, i64** %5, align 8, !llfi_index !566
  %13 = load i64*, i64** %6, align 8, !llfi_index !567
  call void @_ZSt11__sort_heapIPlN9__gnu_cxx5__ops15_Iter_less_iterEEvT_S4_RT0_(i64* %12, i64* %13, %"class.std::ios_base::Init"* nonnull align 1 dereferenceable(1) %4), !llfi_index !568
  ret void, !llfi_index !569
}

; Function Attrs: mustprogress noinline uwtable
define linkonce_odr dso_local i64* @_ZSt27__unguarded_partition_pivotIPlN9__gnu_cxx5__ops15_Iter_less_iterEET_S4_S4_T0_(i64* %0, i64* %1) #5 comdat {
  %3 = alloca %"class.std::ios_base::Init", align 1, !llfi_index !570
  %4 = alloca i64*, align 8, !llfi_index !571
  %5 = alloca i64*, align 8, !llfi_index !572
  %6 = alloca i64*, align 8, !llfi_index !573
  %7 = alloca %"class.std::ios_base::Init", align 1, !llfi_index !574
  %8 = alloca %"class.std::ios_base::Init", align 1, !llfi_index !575
  store i64* %0, i64** %4, align 8, !llfi_index !576
  store i64* %1, i64** %5, align 8, !llfi_index !577
  %9 = load i64*, i64** %4, align 8, !llfi_index !578
  %10 = load i64*, i64** %5, align 8, !llfi_index !579
  %11 = load i64*, i64** %4, align 8, !llfi_index !580
  %12 = ptrtoint i64* %10 to i64, !llfi_index !581
  %13 = ptrtoint i64* %11 to i64, !llfi_index !582
  %14 = sub i64 %12, %13, !llfi_index !583
  %15 = sdiv exact i64 %14, 8, !llfi_index !584
  %16 = sdiv i64 %15, 2, !llfi_index !585
  %17 = getelementptr inbounds i64, i64* %9, i64 %16, !llfi_index !586
  store i64* %17, i64** %6, align 8, !llfi_index !587
  %18 = load i64*, i64** %4, align 8, !llfi_index !588
  %19 = load i64*, i64** %4, align 8, !llfi_index !589
  %20 = getelementptr inbounds i64, i64* %19, i64 1, !llfi_index !590
  %21 = load i64*, i64** %6, align 8, !llfi_index !591
  %22 = load i64*, i64** %5, align 8, !llfi_index !592
  %23 = getelementptr inbounds i64, i64* %22, i64 -1, !llfi_index !593
  call void @_ZSt22__move_median_to_firstIPlN9__gnu_cxx5__ops15_Iter_less_iterEEvT_S4_S4_S4_T0_(i64* %18, i64* %20, i64* %21, i64* %23), !llfi_index !594
  %24 = load i64*, i64** %4, align 8, !llfi_index !595
  %25 = getelementptr inbounds i64, i64* %24, i64 1, !llfi_index !596
  %26 = load i64*, i64** %5, align 8, !llfi_index !597
  %27 = load i64*, i64** %4, align 8, !llfi_index !598
  %28 = call i64* @_ZSt21__unguarded_partitionIPlN9__gnu_cxx5__ops15_Iter_less_iterEET_S4_S4_S4_T0_(i64* %25, i64* %26, i64* %27), !llfi_index !599
  ret i64* %28, !llfi_index !600
}

; Function Attrs: mustprogress noinline uwtable
define linkonce_odr dso_local void @_ZSt22__move_median_to_firstIPlN9__gnu_cxx5__ops15_Iter_less_iterEEvT_S4_S4_S4_T0_(i64* %0, i64* %1, i64* %2, i64* %3) #5 comdat {
  %5 = alloca %"class.std::ios_base::Init", align 1, !llfi_index !601
  %6 = alloca i64*, align 8, !llfi_index !602
  %7 = alloca i64*, align 8, !llfi_index !603
  %8 = alloca i64*, align 8, !llfi_index !604
  %9 = alloca i64*, align 8, !llfi_index !605
  store i64* %0, i64** %6, align 8, !llfi_index !606
  store i64* %1, i64** %7, align 8, !llfi_index !607
  store i64* %2, i64** %8, align 8, !llfi_index !608
  store i64* %3, i64** %9, align 8, !llfi_index !609
  %10 = load i64*, i64** %7, align 8, !llfi_index !610
  %11 = load i64*, i64** %8, align 8, !llfi_index !611
  %12 = call zeroext i1 @_ZNK9__gnu_cxx5__ops15_Iter_less_iterclIPlS3_EEbT_T0_(%"class.std::ios_base::Init"* nonnull align 1 dereferenceable(1) %5, i64* %10, i64* %11), !llfi_index !612
  br i1 %12, label %13, label %32, !llfi_index !613

13:                                               ; preds = %4
  %14 = load i64*, i64** %8, align 8, !llfi_index !614
  %15 = load i64*, i64** %9, align 8, !llfi_index !615
  %16 = call zeroext i1 @_ZNK9__gnu_cxx5__ops15_Iter_less_iterclIPlS3_EEbT_T0_(%"class.std::ios_base::Init"* nonnull align 1 dereferenceable(1) %5, i64* %14, i64* %15), !llfi_index !616
  br i1 %16, label %17, label %20, !llfi_index !617

17:                                               ; preds = %13
  %18 = load i64*, i64** %6, align 8, !llfi_index !618
  %19 = load i64*, i64** %8, align 8, !llfi_index !619
  call void @_ZSt9iter_swapIPlS0_EvT_T0_(i64* %18, i64* %19), !llfi_index !620
  br label %31, !llfi_index !621

20:                                               ; preds = %13
  %21 = load i64*, i64** %7, align 8, !llfi_index !622
  %22 = load i64*, i64** %9, align 8, !llfi_index !623
  %23 = call zeroext i1 @_ZNK9__gnu_cxx5__ops15_Iter_less_iterclIPlS3_EEbT_T0_(%"class.std::ios_base::Init"* nonnull align 1 dereferenceable(1) %5, i64* %21, i64* %22), !llfi_index !624
  br i1 %23, label %24, label %27, !llfi_index !625

24:                                               ; preds = %20
  %25 = load i64*, i64** %6, align 8, !llfi_index !626
  %26 = load i64*, i64** %9, align 8, !llfi_index !627
  call void @_ZSt9iter_swapIPlS0_EvT_T0_(i64* %25, i64* %26), !llfi_index !628
  br label %30, !llfi_index !629

27:                                               ; preds = %20
  %28 = load i64*, i64** %6, align 8, !llfi_index !630
  %29 = load i64*, i64** %7, align 8, !llfi_index !631
  call void @_ZSt9iter_swapIPlS0_EvT_T0_(i64* %28, i64* %29), !llfi_index !632
  br label %30, !llfi_index !633

30:                                               ; preds = %27, %24
  br label %31, !llfi_index !634

31:                                               ; preds = %30, %17
  br label %51, !llfi_index !635

32:                                               ; preds = %4
  %33 = load i64*, i64** %7, align 8, !llfi_index !636
  %34 = load i64*, i64** %9, align 8, !llfi_index !637
  %35 = call zeroext i1 @_ZNK9__gnu_cxx5__ops15_Iter_less_iterclIPlS3_EEbT_T0_(%"class.std::ios_base::Init"* nonnull align 1 dereferenceable(1) %5, i64* %33, i64* %34), !llfi_index !638
  br i1 %35, label %36, label %39, !llfi_index !639

36:                                               ; preds = %32
  %37 = load i64*, i64** %6, align 8, !llfi_index !640
  %38 = load i64*, i64** %7, align 8, !llfi_index !641
  call void @_ZSt9iter_swapIPlS0_EvT_T0_(i64* %37, i64* %38), !llfi_index !642
  br label %50, !llfi_index !643

39:                                               ; preds = %32
  %40 = load i64*, i64** %8, align 8, !llfi_index !644
  %41 = load i64*, i64** %9, align 8, !llfi_index !645
  %42 = call zeroext i1 @_ZNK9__gnu_cxx5__ops15_Iter_less_iterclIPlS3_EEbT_T0_(%"class.std::ios_base::Init"* nonnull align 1 dereferenceable(1) %5, i64* %40, i64* %41), !llfi_index !646
  br i1 %42, label %43, label %46, !llfi_index !647

43:                                               ; preds = %39
  %44 = load i64*, i64** %6, align 8, !llfi_index !648
  %45 = load i64*, i64** %9, align 8, !llfi_index !649
  call void @_ZSt9iter_swapIPlS0_EvT_T0_(i64* %44, i64* %45), !llfi_index !650
  br label %49, !llfi_index !651

46:                                               ; preds = %39
  %47 = load i64*, i64** %6, align 8, !llfi_index !652
  %48 = load i64*, i64** %8, align 8, !llfi_index !653
  call void @_ZSt9iter_swapIPlS0_EvT_T0_(i64* %47, i64* %48), !llfi_index !654
  br label %49, !llfi_index !655

49:                                               ; preds = %46, %43
  br label %50, !llfi_index !656

50:                                               ; preds = %49, %36
  br label %51, !llfi_index !657

51:                                               ; preds = %50, %31
  ret void, !llfi_index !658
}

; Function Attrs: mustprogress noinline nounwind uwtable
define linkonce_odr dso_local i64* @_ZSt21__unguarded_partitionIPlN9__gnu_cxx5__ops15_Iter_less_iterEET_S4_S4_S4_T0_(i64* %0, i64* %1, i64* %2) #6 comdat {
  %4 = alloca %"class.std::ios_base::Init", align 1, !llfi_index !659
  %5 = alloca i64*, align 8, !llfi_index !660
  %6 = alloca i64*, align 8, !llfi_index !661
  %7 = alloca i64*, align 8, !llfi_index !662
  store i64* %0, i64** %5, align 8, !llfi_index !663
  store i64* %1, i64** %6, align 8, !llfi_index !664
  store i64* %2, i64** %7, align 8, !llfi_index !665
  br label %8, !llfi_index !666

8:                                                ; preds = %32, %3
  br label %9, !llfi_index !667

9:                                                ; preds = %13, %8
  %10 = load i64*, i64** %5, align 8, !llfi_index !668
  %11 = load i64*, i64** %7, align 8, !llfi_index !669
  %12 = call zeroext i1 @_ZNK9__gnu_cxx5__ops15_Iter_less_iterclIPlS3_EEbT_T0_(%"class.std::ios_base::Init"* nonnull align 1 dereferenceable(1) %4, i64* %10, i64* %11), !llfi_index !670
  br i1 %12, label %13, label %16, !llfi_index !671

13:                                               ; preds = %9
  %14 = load i64*, i64** %5, align 8, !llfi_index !672
  %15 = getelementptr inbounds i64, i64* %14, i32 1, !llfi_index !673
  store i64* %15, i64** %5, align 8, !llfi_index !674
  br label %9, !llvm.loop !675, !llfi_index !676

16:                                               ; preds = %9
  %17 = load i64*, i64** %6, align 8, !llfi_index !677
  %18 = getelementptr inbounds i64, i64* %17, i32 -1, !llfi_index !678
  store i64* %18, i64** %6, align 8, !llfi_index !679
  br label %19, !llfi_index !680

19:                                               ; preds = %23, %16
  %20 = load i64*, i64** %7, align 8, !llfi_index !681
  %21 = load i64*, i64** %6, align 8, !llfi_index !682
  %22 = call zeroext i1 @_ZNK9__gnu_cxx5__ops15_Iter_less_iterclIPlS3_EEbT_T0_(%"class.std::ios_base::Init"* nonnull align 1 dereferenceable(1) %4, i64* %20, i64* %21), !llfi_index !683
  br i1 %22, label %23, label %26, !llfi_index !684

23:                                               ; preds = %19
  %24 = load i64*, i64** %6, align 8, !llfi_index !685
  %25 = getelementptr inbounds i64, i64* %24, i32 -1, !llfi_index !686
  store i64* %25, i64** %6, align 8, !llfi_index !687
  br label %19, !llvm.loop !688, !llfi_index !689

26:                                               ; preds = %19
  %27 = load i64*, i64** %5, align 8, !llfi_index !690
  %28 = load i64*, i64** %6, align 8, !llfi_index !691
  %29 = icmp ult i64* %27, %28, !llfi_index !692
  br i1 %29, label %32, label %30, !llfi_index !693

30:                                               ; preds = %26
  %31 = load i64*, i64** %5, align 8, !llfi_index !694
  ret i64* %31, !llfi_index !695

32:                                               ; preds = %26
  %33 = load i64*, i64** %5, align 8, !llfi_index !696
  %34 = load i64*, i64** %6, align 8, !llfi_index !697
  call void @_ZSt9iter_swapIPlS0_EvT_T0_(i64* %33, i64* %34), !llfi_index !698
  %35 = load i64*, i64** %5, align 8, !llfi_index !699
  %36 = getelementptr inbounds i64, i64* %35, i32 1, !llfi_index !700
  store i64* %36, i64** %5, align 8, !llfi_index !701
  br label %8, !llvm.loop !702, !llfi_index !703
}

; Function Attrs: mustprogress noinline uwtable
define linkonce_odr dso_local void @_ZSt13__heap_selectIPlN9__gnu_cxx5__ops15_Iter_less_iterEEvT_S4_S4_T0_(i64* %0, i64* %1, i64* %2) #5 comdat {
  %4 = alloca %"class.std::ios_base::Init", align 1, !llfi_index !704
  %5 = alloca i64*, align 8, !llfi_index !705
  %6 = alloca i64*, align 8, !llfi_index !706
  %7 = alloca i64*, align 8, !llfi_index !707
  %8 = alloca i64*, align 8, !llfi_index !708
  store i64* %0, i64** %5, align 8, !llfi_index !709
  store i64* %1, i64** %6, align 8, !llfi_index !710
  store i64* %2, i64** %7, align 8, !llfi_index !711
  %9 = load i64*, i64** %5, align 8, !llfi_index !712
  %10 = load i64*, i64** %6, align 8, !llfi_index !713
  call void @_ZSt11__make_heapIPlN9__gnu_cxx5__ops15_Iter_less_iterEEvT_S4_RT0_(i64* %9, i64* %10, %"class.std::ios_base::Init"* nonnull align 1 dereferenceable(1) %4), !llfi_index !714
  %11 = load i64*, i64** %6, align 8, !llfi_index !715
  store i64* %11, i64** %8, align 8, !llfi_index !716
  br label %12, !llfi_index !717

12:                                               ; preds = %25, %3
  %13 = load i64*, i64** %8, align 8, !llfi_index !718
  %14 = load i64*, i64** %7, align 8, !llfi_index !719
  %15 = icmp ult i64* %13, %14, !llfi_index !720
  br i1 %15, label %16, label %28, !llfi_index !721

16:                                               ; preds = %12
  %17 = load i64*, i64** %8, align 8, !llfi_index !722
  %18 = load i64*, i64** %5, align 8, !llfi_index !723
  %19 = call zeroext i1 @_ZNK9__gnu_cxx5__ops15_Iter_less_iterclIPlS3_EEbT_T0_(%"class.std::ios_base::Init"* nonnull align 1 dereferenceable(1) %4, i64* %17, i64* %18), !llfi_index !724
  br i1 %19, label %20, label %24, !llfi_index !725

20:                                               ; preds = %16
  %21 = load i64*, i64** %5, align 8, !llfi_index !726
  %22 = load i64*, i64** %6, align 8, !llfi_index !727
  %23 = load i64*, i64** %8, align 8, !llfi_index !728
  call void @_ZSt10__pop_heapIPlN9__gnu_cxx5__ops15_Iter_less_iterEEvT_S4_S4_RT0_(i64* %21, i64* %22, i64* %23, %"class.std::ios_base::Init"* nonnull align 1 dereferenceable(1) %4), !llfi_index !729
  br label %24, !llfi_index !730

24:                                               ; preds = %20, %16
  br label %25, !llfi_index !731

25:                                               ; preds = %24
  %26 = load i64*, i64** %8, align 8, !llfi_index !732
  %27 = getelementptr inbounds i64, i64* %26, i32 1, !llfi_index !733
  store i64* %27, i64** %8, align 8, !llfi_index !734
  br label %12, !llvm.loop !735, !llfi_index !736

28:                                               ; preds = %12
  ret void, !llfi_index !737
}

; Function Attrs: mustprogress noinline uwtable
define linkonce_odr dso_local void @_ZSt11__sort_heapIPlN9__gnu_cxx5__ops15_Iter_less_iterEEvT_S4_RT0_(i64* %0, i64* %1, %"class.std::ios_base::Init"* nonnull align 1 dereferenceable(1) %2) #5 comdat {
  %4 = alloca i64*, align 8, !llfi_index !738
  %5 = alloca i64*, align 8, !llfi_index !739
  %6 = alloca %"class.std::ios_base::Init"*, align 8, !llfi_index !740
  store i64* %0, i64** %4, align 8, !llfi_index !741
  store i64* %1, i64** %5, align 8, !llfi_index !742
  store %"class.std::ios_base::Init"* %2, %"class.std::ios_base::Init"** %6, align 8, !llfi_index !743
  br label %7, !llfi_index !744

7:                                                ; preds = %15, %3
  %8 = load i64*, i64** %5, align 8, !llfi_index !745
  %9 = load i64*, i64** %4, align 8, !llfi_index !746
  %10 = ptrtoint i64* %8 to i64, !llfi_index !747
  %11 = ptrtoint i64* %9 to i64, !llfi_index !748
  %12 = sub i64 %10, %11, !llfi_index !749
  %13 = sdiv exact i64 %12, 8, !llfi_index !750
  %14 = icmp sgt i64 %13, 1, !llfi_index !751
  br i1 %14, label %15, label %22, !llfi_index !752

15:                                               ; preds = %7
  %16 = load i64*, i64** %5, align 8, !llfi_index !753
  %17 = getelementptr inbounds i64, i64* %16, i32 -1, !llfi_index !754
  store i64* %17, i64** %5, align 8, !llfi_index !755
  %18 = load i64*, i64** %4, align 8, !llfi_index !756
  %19 = load i64*, i64** %5, align 8, !llfi_index !757
  %20 = load i64*, i64** %5, align 8, !llfi_index !758
  %21 = load %"class.std::ios_base::Init"*, %"class.std::ios_base::Init"** %6, align 8, !llfi_index !759
  call void @_ZSt10__pop_heapIPlN9__gnu_cxx5__ops15_Iter_less_iterEEvT_S4_S4_RT0_(i64* %18, i64* %19, i64* %20, %"class.std::ios_base::Init"* nonnull align 1 dereferenceable(1) %21), !llfi_index !760
  br label %7, !llvm.loop !761, !llfi_index !762

22:                                               ; preds = %7
  ret void, !llfi_index !763
}

; Function Attrs: mustprogress noinline uwtable
define linkonce_odr dso_local void @_ZSt10__pop_heapIPlN9__gnu_cxx5__ops15_Iter_less_iterEEvT_S4_S4_RT0_(i64* %0, i64* %1, i64* %2, %"class.std::ios_base::Init"* nonnull align 1 dereferenceable(1) %3) #5 comdat {
  %5 = alloca i64*, align 8, !llfi_index !764
  %6 = alloca i64*, align 8, !llfi_index !765
  %7 = alloca i64*, align 8, !llfi_index !766
  %8 = alloca %"class.std::ios_base::Init"*, align 8, !llfi_index !767
  %9 = alloca i64, align 8, !llfi_index !768
  %10 = alloca %"class.std::ios_base::Init", align 1, !llfi_index !769
  store i64* %0, i64** %5, align 8, !llfi_index !770
  store i64* %1, i64** %6, align 8, !llfi_index !771
  store i64* %2, i64** %7, align 8, !llfi_index !772
  store %"class.std::ios_base::Init"* %3, %"class.std::ios_base::Init"** %8, align 8, !llfi_index !773
  %11 = load i64*, i64** %7, align 8, !llfi_index !774
  %12 = call nonnull align 8 dereferenceable(8) i64* @_ZSt4moveIRlEONSt16remove_referenceIT_E4typeEOS2_(i64* nonnull align 8 dereferenceable(8) %11) #2, !llfi_index !775
  %13 = load i64, i64* %12, align 8, !llfi_index !776
  store i64 %13, i64* %9, align 8, !llfi_index !777
  %14 = load i64*, i64** %5, align 8, !llfi_index !778
  %15 = call nonnull align 8 dereferenceable(8) i64* @_ZSt4moveIRlEONSt16remove_referenceIT_E4typeEOS2_(i64* nonnull align 8 dereferenceable(8) %14) #2, !llfi_index !779
  %16 = load i64, i64* %15, align 8, !llfi_index !780
  %17 = load i64*, i64** %7, align 8, !llfi_index !781
  store i64 %16, i64* %17, align 8, !llfi_index !782
  %18 = load i64*, i64** %5, align 8, !llfi_index !783
  %19 = load i64*, i64** %6, align 8, !llfi_index !784
  %20 = load i64*, i64** %5, align 8, !llfi_index !785
  %21 = ptrtoint i64* %19 to i64, !llfi_index !786
  %22 = ptrtoint i64* %20 to i64, !llfi_index !787
  %23 = sub i64 %21, %22, !llfi_index !788
  %24 = sdiv exact i64 %23, 8, !llfi_index !789
  %25 = call nonnull align 8 dereferenceable(8) i64* @_ZSt4moveIRlEONSt16remove_referenceIT_E4typeEOS2_(i64* nonnull align 8 dereferenceable(8) %9) #2, !llfi_index !790
  %26 = load i64, i64* %25, align 8, !llfi_index !791
  %27 = load %"class.std::ios_base::Init"*, %"class.std::ios_base::Init"** %8, align 8, !llfi_index !792
  call void @_ZSt13__adjust_heapIPlllN9__gnu_cxx5__ops15_Iter_less_iterEEvT_T0_S5_T1_T2_(i64* %18, i64 0, i64 %24, i64 %26), !llfi_index !793
  ret void, !llfi_index !794
}

; Function Attrs: mustprogress noinline uwtable
define linkonce_odr dso_local void @_ZSt13__adjust_heapIPlllN9__gnu_cxx5__ops15_Iter_less_iterEEvT_T0_S5_T1_T2_(i64* %0, i64 %1, i64 %2, i64 %3) #5 comdat {
  %5 = alloca %"class.std::ios_base::Init", align 1, !llfi_index !795
  %6 = alloca i64*, align 8, !llfi_index !796
  %7 = alloca i64, align 8, !llfi_index !797
  %8 = alloca i64, align 8, !llfi_index !798
  %9 = alloca i64, align 8, !llfi_index !799
  %10 = alloca i64, align 8, !llfi_index !800
  %11 = alloca i64, align 8, !llfi_index !801
  %12 = alloca %"class.std::ios_base::Init", align 1, !llfi_index !802
  %13 = alloca %"class.std::ios_base::Init", align 1, !llfi_index !803
  store i64* %0, i64** %6, align 8, !llfi_index !804
  store i64 %1, i64* %7, align 8, !llfi_index !805
  store i64 %2, i64* %8, align 8, !llfi_index !806
  store i64 %3, i64* %9, align 8, !llfi_index !807
  %14 = load i64, i64* %7, align 8, !llfi_index !808
  store i64 %14, i64* %10, align 8, !llfi_index !809
  %15 = load i64, i64* %7, align 8, !llfi_index !810
  store i64 %15, i64* %11, align 8, !llfi_index !811
  br label %16, !llfi_index !812

16:                                               ; preds = %37, %4
  %17 = load i64, i64* %11, align 8, !llfi_index !813
  %18 = load i64, i64* %8, align 8, !llfi_index !814
  %19 = sub nsw i64 %18, 1, !llfi_index !815
  %20 = sdiv i64 %19, 2, !llfi_index !816
  %21 = icmp slt i64 %17, %20, !llfi_index !817
  br i1 %21, label %22, label %47, !llfi_index !818

22:                                               ; preds = %16
  %23 = load i64, i64* %11, align 8, !llfi_index !819
  %24 = add nsw i64 %23, 1, !llfi_index !820
  %25 = mul nsw i64 2, %24, !llfi_index !821
  store i64 %25, i64* %11, align 8, !llfi_index !822
  %26 = load i64*, i64** %6, align 8, !llfi_index !823
  %27 = load i64, i64* %11, align 8, !llfi_index !824
  %28 = getelementptr inbounds i64, i64* %26, i64 %27, !llfi_index !825
  %29 = load i64*, i64** %6, align 8, !llfi_index !826
  %30 = load i64, i64* %11, align 8, !llfi_index !827
  %31 = sub nsw i64 %30, 1, !llfi_index !828
  %32 = getelementptr inbounds i64, i64* %29, i64 %31, !llfi_index !829
  %33 = call zeroext i1 @_ZNK9__gnu_cxx5__ops15_Iter_less_iterclIPlS3_EEbT_T0_(%"class.std::ios_base::Init"* nonnull align 1 dereferenceable(1) %5, i64* %28, i64* %32), !llfi_index !830
  br i1 %33, label %34, label %37, !llfi_index !831

34:                                               ; preds = %22
  %35 = load i64, i64* %11, align 8, !llfi_index !832
  %36 = add nsw i64 %35, -1, !llfi_index !833
  store i64 %36, i64* %11, align 8, !llfi_index !834
  br label %37, !llfi_index !835

37:                                               ; preds = %34, %22
  %38 = load i64*, i64** %6, align 8, !llfi_index !836
  %39 = load i64, i64* %11, align 8, !llfi_index !837
  %40 = getelementptr inbounds i64, i64* %38, i64 %39, !llfi_index !838
  %41 = call nonnull align 8 dereferenceable(8) i64* @_ZSt4moveIRlEONSt16remove_referenceIT_E4typeEOS2_(i64* nonnull align 8 dereferenceable(8) %40) #2, !llfi_index !839
  %42 = load i64, i64* %41, align 8, !llfi_index !840
  %43 = load i64*, i64** %6, align 8, !llfi_index !841
  %44 = load i64, i64* %7, align 8, !llfi_index !842
  %45 = getelementptr inbounds i64, i64* %43, i64 %44, !llfi_index !843
  store i64 %42, i64* %45, align 8, !llfi_index !844
  %46 = load i64, i64* %11, align 8, !llfi_index !845
  store i64 %46, i64* %7, align 8, !llfi_index !846
  br label %16, !llvm.loop !847, !llfi_index !848

47:                                               ; preds = %16
  %48 = load i64, i64* %8, align 8, !llfi_index !849
  %49 = and i64 %48, 1, !llfi_index !850
  %50 = icmp eq i64 %49, 0, !llfi_index !851
  br i1 %50, label %51, label %72, !llfi_index !852

51:                                               ; preds = %47
  %52 = load i64, i64* %11, align 8, !llfi_index !853
  %53 = load i64, i64* %8, align 8, !llfi_index !854
  %54 = sub nsw i64 %53, 2, !llfi_index !855
  %55 = sdiv i64 %54, 2, !llfi_index !856
  %56 = icmp eq i64 %52, %55, !llfi_index !857
  br i1 %56, label %57, label %72, !llfi_index !858

57:                                               ; preds = %51
  %58 = load i64, i64* %11, align 8, !llfi_index !859
  %59 = add nsw i64 %58, 1, !llfi_index !860
  %60 = mul nsw i64 2, %59, !llfi_index !861
  store i64 %60, i64* %11, align 8, !llfi_index !862
  %61 = load i64*, i64** %6, align 8, !llfi_index !863
  %62 = load i64, i64* %11, align 8, !llfi_index !864
  %63 = sub nsw i64 %62, 1, !llfi_index !865
  %64 = getelementptr inbounds i64, i64* %61, i64 %63, !llfi_index !866
  %65 = call nonnull align 8 dereferenceable(8) i64* @_ZSt4moveIRlEONSt16remove_referenceIT_E4typeEOS2_(i64* nonnull align 8 dereferenceable(8) %64) #2, !llfi_index !867
  %66 = load i64, i64* %65, align 8, !llfi_index !868
  %67 = load i64*, i64** %6, align 8, !llfi_index !869
  %68 = load i64, i64* %7, align 8, !llfi_index !870
  %69 = getelementptr inbounds i64, i64* %67, i64 %68, !llfi_index !871
  store i64 %66, i64* %69, align 8, !llfi_index !872
  %70 = load i64, i64* %11, align 8, !llfi_index !873
  %71 = sub nsw i64 %70, 1, !llfi_index !874
  store i64 %71, i64* %7, align 8, !llfi_index !875
  br label %72, !llfi_index !876

72:                                               ; preds = %57, %51, %47
  %73 = call nonnull align 1 dereferenceable(1) %"class.std::ios_base::Init"* @_ZSt4moveIRN9__gnu_cxx5__ops15_Iter_less_iterEEONSt16remove_referenceIT_E4typeEOS5_(%"class.std::ios_base::Init"* nonnull align 1 dereferenceable(1) %5) #2, !llfi_index !877
  call void @_ZN9__gnu_cxx5__ops14_Iter_less_valC2ENS0_15_Iter_less_iterE(%"class.std::ios_base::Init"* nonnull align 1 dereferenceable(1) %12), !llfi_index !878
  %74 = load i64*, i64** %6, align 8, !llfi_index !879
  %75 = load i64, i64* %7, align 8, !llfi_index !880
  %76 = load i64, i64* %10, align 8, !llfi_index !881
  %77 = call nonnull align 8 dereferenceable(8) i64* @_ZSt4moveIRlEONSt16remove_referenceIT_E4typeEOS2_(i64* nonnull align 8 dereferenceable(8) %9) #2, !llfi_index !882
  %78 = load i64, i64* %77, align 8, !llfi_index !883
  call void @_ZSt11__push_heapIPlllN9__gnu_cxx5__ops14_Iter_less_valEEvT_T0_S5_T1_RT2_(i64* %74, i64 %75, i64 %76, i64 %78, %"class.std::ios_base::Init"* nonnull align 1 dereferenceable(1) %12), !llfi_index !884
  ret void, !llfi_index !885
}

; Function Attrs: mustprogress noinline nounwind uwtable
define linkonce_odr dso_local nonnull align 1 dereferenceable(1) %"class.std::ios_base::Init"* @_ZSt4moveIRN9__gnu_cxx5__ops15_Iter_less_iterEEONSt16remove_referenceIT_E4typeEOS5_(%"class.std::ios_base::Init"* nonnull align 1 dereferenceable(1) %0) #6 comdat {
  %2 = alloca %"class.std::ios_base::Init"*, align 8, !llfi_index !886
  store %"class.std::ios_base::Init"* %0, %"class.std::ios_base::Init"** %2, align 8, !llfi_index !887
  %3 = load %"class.std::ios_base::Init"*, %"class.std::ios_base::Init"** %2, align 8, !llfi_index !888
  ret %"class.std::ios_base::Init"* %3, !llfi_index !889
}

; Function Attrs: noinline nounwind uwtable
define linkonce_odr dso_local void @_ZN9__gnu_cxx5__ops14_Iter_less_valC2ENS0_15_Iter_less_iterE(%"class.std::ios_base::Init"* nonnull align 1 dereferenceable(1) %0) unnamed_addr #8 comdat align 2 {
  %2 = alloca %"class.std::ios_base::Init", align 1, !llfi_index !890
  %3 = alloca %"class.std::ios_base::Init"*, align 8, !llfi_index !891
  store %"class.std::ios_base::Init"* %0, %"class.std::ios_base::Init"** %3, align 8, !llfi_index !892
  %4 = load %"class.std::ios_base::Init"*, %"class.std::ios_base::Init"** %3, align 8, !llfi_index !893
  ret void, !llfi_index !894
}

; Function Attrs: mustprogress noinline uwtable
define linkonce_odr dso_local void @_ZSt11__push_heapIPlllN9__gnu_cxx5__ops14_Iter_less_valEEvT_T0_S5_T1_RT2_(i64* %0, i64 %1, i64 %2, i64 %3, %"class.std::ios_base::Init"* nonnull align 1 dereferenceable(1) %4) #5 comdat {
  %6 = alloca i64*, align 8, !llfi_index !895
  %7 = alloca i64, align 8, !llfi_index !896
  %8 = alloca i64, align 8, !llfi_index !897
  %9 = alloca i64, align 8, !llfi_index !898
  %10 = alloca %"class.std::ios_base::Init"*, align 8, !llfi_index !899
  %11 = alloca i64, align 8, !llfi_index !900
  store i64* %0, i64** %6, align 8, !llfi_index !901
  store i64 %1, i64* %7, align 8, !llfi_index !902
  store i64 %2, i64* %8, align 8, !llfi_index !903
  store i64 %3, i64* %9, align 8, !llfi_index !904
  store %"class.std::ios_base::Init"* %4, %"class.std::ios_base::Init"** %10, align 8, !llfi_index !905
  %12 = load i64, i64* %7, align 8, !llfi_index !906
  %13 = sub nsw i64 %12, 1, !llfi_index !907
  %14 = sdiv i64 %13, 2, !llfi_index !908
  store i64 %14, i64* %11, align 8, !llfi_index !909
  br label %15, !llfi_index !910

15:                                               ; preds = %27, %5
  %16 = load i64, i64* %7, align 8, !llfi_index !911
  %17 = load i64, i64* %8, align 8, !llfi_index !912
  %18 = icmp sgt i64 %16, %17, !llfi_index !913
  br i1 %18, label %19, label %25, !llfi_index !914

19:                                               ; preds = %15
  %20 = load %"class.std::ios_base::Init"*, %"class.std::ios_base::Init"** %10, align 8, !llfi_index !915
  %21 = load i64*, i64** %6, align 8, !llfi_index !916
  %22 = load i64, i64* %11, align 8, !llfi_index !917
  %23 = getelementptr inbounds i64, i64* %21, i64 %22, !llfi_index !918
  %24 = call zeroext i1 @_ZNK9__gnu_cxx5__ops14_Iter_less_valclIPllEEbT_RT0_(%"class.std::ios_base::Init"* nonnull align 1 dereferenceable(1) %20, i64* %23, i64* nonnull align 8 dereferenceable(8) %9), !llfi_index !919
  br label %25, !llfi_index !920

25:                                               ; preds = %19, %15
  %26 = phi i1 [ false, %15 ], [ %24, %19 ], !llfi_index !921
  br i1 %26, label %27, label %40, !llfi_index !922

27:                                               ; preds = %25
  %28 = load i64*, i64** %6, align 8, !llfi_index !923
  %29 = load i64, i64* %11, align 8, !llfi_index !924
  %30 = getelementptr inbounds i64, i64* %28, i64 %29, !llfi_index !925
  %31 = call nonnull align 8 dereferenceable(8) i64* @_ZSt4moveIRlEONSt16remove_referenceIT_E4typeEOS2_(i64* nonnull align 8 dereferenceable(8) %30) #2, !llfi_index !926
  %32 = load i64, i64* %31, align 8, !llfi_index !927
  %33 = load i64*, i64** %6, align 8, !llfi_index !928
  %34 = load i64, i64* %7, align 8, !llfi_index !929
  %35 = getelementptr inbounds i64, i64* %33, i64 %34, !llfi_index !930
  store i64 %32, i64* %35, align 8, !llfi_index !931
  %36 = load i64, i64* %11, align 8, !llfi_index !932
  store i64 %36, i64* %7, align 8, !llfi_index !933
  %37 = load i64, i64* %7, align 8, !llfi_index !934
  %38 = sub nsw i64 %37, 1, !llfi_index !935
  %39 = sdiv i64 %38, 2, !llfi_index !936
  store i64 %39, i64* %11, align 8, !llfi_index !937
  br label %15, !llvm.loop !938, !llfi_index !939

40:                                               ; preds = %25
  %41 = call nonnull align 8 dereferenceable(8) i64* @_ZSt4moveIRlEONSt16remove_referenceIT_E4typeEOS2_(i64* nonnull align 8 dereferenceable(8) %9) #2, !llfi_index !940
  %42 = load i64, i64* %41, align 8, !llfi_index !941
  %43 = load i64*, i64** %6, align 8, !llfi_index !942
  %44 = load i64, i64* %7, align 8, !llfi_index !943
  %45 = getelementptr inbounds i64, i64* %43, i64 %44, !llfi_index !944
  store i64 %42, i64* %45, align 8, !llfi_index !945
  ret void, !llfi_index !946
}

; Function Attrs: mustprogress noinline nounwind uwtable
define linkonce_odr dso_local zeroext i1 @_ZNK9__gnu_cxx5__ops14_Iter_less_valclIPllEEbT_RT0_(%"class.std::ios_base::Init"* nonnull align 1 dereferenceable(1) %0, i64* %1, i64* nonnull align 8 dereferenceable(8) %2) #6 comdat align 2 {
  %4 = alloca %"class.std::ios_base::Init"*, align 8, !llfi_index !947
  %5 = alloca i64*, align 8, !llfi_index !948
  %6 = alloca i64*, align 8, !llfi_index !949
  store %"class.std::ios_base::Init"* %0, %"class.std::ios_base::Init"** %4, align 8, !llfi_index !950
  store i64* %1, i64** %5, align 8, !llfi_index !951
  store i64* %2, i64** %6, align 8, !llfi_index !952
  %7 = load %"class.std::ios_base::Init"*, %"class.std::ios_base::Init"** %4, align 8, !llfi_index !953
  %8 = load i64*, i64** %5, align 8, !llfi_index !954
  %9 = load i64, i64* %8, align 8, !llfi_index !955
  %10 = load i64*, i64** %6, align 8, !llfi_index !956
  %11 = load i64, i64* %10, align 8, !llfi_index !957
  %12 = icmp slt i64 %9, %11, !llfi_index !958
  ret i1 %12, !llfi_index !959
}

; Function Attrs: mustprogress noinline uwtable
define linkonce_odr dso_local void @_ZSt11__make_heapIPlN9__gnu_cxx5__ops15_Iter_less_iterEEvT_S4_RT0_(i64* %0, i64* %1, %"class.std::ios_base::Init"* nonnull align 1 dereferenceable(1) %2) #5 comdat {
  %4 = alloca i64*, align 8, !llfi_index !960
  %5 = alloca i64*, align 8, !llfi_index !961
  %6 = alloca %"class.std::ios_base::Init"*, align 8, !llfi_index !962
  %7 = alloca i64, align 8, !llfi_index !963
  %8 = alloca i64, align 8, !llfi_index !964
  %9 = alloca i64, align 8, !llfi_index !965
  %10 = alloca %"class.std::ios_base::Init", align 1, !llfi_index !966
  store i64* %0, i64** %4, align 8, !llfi_index !967
  store i64* %1, i64** %5, align 8, !llfi_index !968
  store %"class.std::ios_base::Init"* %2, %"class.std::ios_base::Init"** %6, align 8, !llfi_index !969
  %11 = load i64*, i64** %5, align 8, !llfi_index !970
  %12 = load i64*, i64** %4, align 8, !llfi_index !971
  %13 = ptrtoint i64* %11 to i64, !llfi_index !972
  %14 = ptrtoint i64* %12 to i64, !llfi_index !973
  %15 = sub i64 %13, %14, !llfi_index !974
  %16 = sdiv exact i64 %15, 8, !llfi_index !975
  %17 = icmp slt i64 %16, 2, !llfi_index !976
  br i1 %17, label %18, label %19, !llfi_index !977

18:                                               ; preds = %3
  br label %47, !llfi_index !978

19:                                               ; preds = %3
  %20 = load i64*, i64** %5, align 8, !llfi_index !979
  %21 = load i64*, i64** %4, align 8, !llfi_index !980
  %22 = ptrtoint i64* %20 to i64, !llfi_index !981
  %23 = ptrtoint i64* %21 to i64, !llfi_index !982
  %24 = sub i64 %22, %23, !llfi_index !983
  %25 = sdiv exact i64 %24, 8, !llfi_index !984
  store i64 %25, i64* %7, align 8, !llfi_index !985
  %26 = load i64, i64* %7, align 8, !llfi_index !986
  %27 = sub nsw i64 %26, 2, !llfi_index !987
  %28 = sdiv i64 %27, 2, !llfi_index !988
  store i64 %28, i64* %8, align 8, !llfi_index !989
  br label %29, !llfi_index !990

29:                                               ; preds = %44, %19
  %30 = load i64*, i64** %4, align 8, !llfi_index !991
  %31 = load i64, i64* %8, align 8, !llfi_index !992
  %32 = getelementptr inbounds i64, i64* %30, i64 %31, !llfi_index !993
  %33 = call nonnull align 8 dereferenceable(8) i64* @_ZSt4moveIRlEONSt16remove_referenceIT_E4typeEOS2_(i64* nonnull align 8 dereferenceable(8) %32) #2, !llfi_index !994
  %34 = load i64, i64* %33, align 8, !llfi_index !995
  store i64 %34, i64* %9, align 8, !llfi_index !996
  %35 = load i64*, i64** %4, align 8, !llfi_index !997
  %36 = load i64, i64* %8, align 8, !llfi_index !998
  %37 = load i64, i64* %7, align 8, !llfi_index !999
  %38 = call nonnull align 8 dereferenceable(8) i64* @_ZSt4moveIRlEONSt16remove_referenceIT_E4typeEOS2_(i64* nonnull align 8 dereferenceable(8) %9) #2, !llfi_index !1000
  %39 = load i64, i64* %38, align 8, !llfi_index !1001
  %40 = load %"class.std::ios_base::Init"*, %"class.std::ios_base::Init"** %6, align 8, !llfi_index !1002
  call void @_ZSt13__adjust_heapIPlllN9__gnu_cxx5__ops15_Iter_less_iterEEvT_T0_S5_T1_T2_(i64* %35, i64 %36, i64 %37, i64 %39), !llfi_index !1003
  %41 = load i64, i64* %8, align 8, !llfi_index !1004
  %42 = icmp eq i64 %41, 0, !llfi_index !1005
  br i1 %42, label %43, label %44, !llfi_index !1006

43:                                               ; preds = %29
  br label %47, !llfi_index !1007

44:                                               ; preds = %29
  %45 = load i64, i64* %8, align 8, !llfi_index !1008
  %46 = add nsw i64 %45, -1, !llfi_index !1009
  store i64 %46, i64* %8, align 8, !llfi_index !1010
  br label %29, !llvm.loop !1011, !llfi_index !1012

47:                                               ; preds = %43, %18
  ret void, !llfi_index !1013
}

; Function Attrs: nofree nosync nounwind readnone speculatable willreturn
declare i64 @llvm.ctlz.i64(i64, i1 immarg) #9

attributes #0 = { noinline uwtable "frame-pointer"="all" "min-legal-vector-width"="0" "no-trapping-math"="true" "stack-protector-buffer-size"="8" "target-cpu"="x86-64" "target-features"="+cx8,+fxsr,+mmx,+sse,+sse2,+x87" "tune-cpu"="generic" }
attributes #1 = { "frame-pointer"="all" "no-trapping-math"="true" "stack-protector-buffer-size"="8" "target-cpu"="x86-64" "target-features"="+cx8,+fxsr,+mmx,+sse,+sse2,+x87" "tune-cpu"="generic" }
attributes #2 = { nounwind }
attributes #3 = { nounwind "frame-pointer"="all" "no-trapping-math"="true" "stack-protector-buffer-size"="8" "target-cpu"="x86-64" "target-features"="+cx8,+fxsr,+mmx,+sse,+sse2,+x87" "tune-cpu"="generic" }
attributes #4 = { mustprogress noinline norecurse uwtable "frame-pointer"="all" "min-legal-vector-width"="0" "no-trapping-math"="true" "stack-protector-buffer-size"="8" "target-cpu"="x86-64" "target-features"="+cx8,+fxsr,+mmx,+sse,+sse2,+x87" "tune-cpu"="generic" }
attributes #5 = { mustprogress noinline uwtable "frame-pointer"="all" "min-legal-vector-width"="0" "no-trapping-math"="true" "stack-protector-buffer-size"="8" "target-cpu"="x86-64" "target-features"="+cx8,+fxsr,+mmx,+sse,+sse2,+x87" "tune-cpu"="generic" }
attributes #6 = { mustprogress noinline nounwind uwtable "frame-pointer"="all" "min-legal-vector-width"="0" "no-trapping-math"="true" "stack-protector-buffer-size"="8" "target-cpu"="x86-64" "target-features"="+cx8,+fxsr,+mmx,+sse,+sse2,+x87" "tune-cpu"="generic" }
attributes #7 = { argmemonly nofree nounwind willreturn }
attributes #8 = { noinline nounwind uwtable "frame-pointer"="all" "min-legal-vector-width"="0" "no-trapping-math"="true" "stack-protector-buffer-size"="8" "target-cpu"="x86-64" "target-features"="+cx8,+fxsr,+mmx,+sse,+sse2,+x87" "tune-cpu"="generic" }
attributes #9 = { nofree nosync nounwind readnone speculatable willreturn }

!llvm.ident = !{!0}
!llvm.module.flags = !{!1, !2, !3}

!0 = !{!"clang version 13.0.0 (https://github.com/llvm/llvm-project.git d7b669b3a30345cfcdb2fde2af6f48aa4b94845d)"}
!1 = !{i32 1, !"wchar_size", i32 4}
!2 = !{i32 7, !"uwtable", i32 1}
!3 = !{i32 7, !"frame-pointer", i32 2}
!4 = !{i64 1}
!5 = !{i64 2}
!6 = !{i64 3}
!7 = !{i64 4}
!8 = !{i64 5}
!9 = !{i64 6}
!10 = !{i64 7}
!11 = !{i64 8}
!12 = !{i64 9}
!13 = !{i64 10}
!14 = !{i64 11}
!15 = !{i64 12}
!16 = !{i64 13}
!17 = !{i64 14}
!18 = !{i64 15}
!19 = !{i64 16}
!20 = !{i64 17}
!21 = !{i64 18}
!22 = !{i64 19}
!23 = !{i64 20}
!24 = !{i64 21}
!25 = !{i64 22}
!26 = !{i64 23}
!27 = !{i64 24}
!28 = !{i64 25}
!29 = !{i64 26}
!30 = !{i64 27}
!31 = !{i64 28}
!32 = !{i64 29}
!33 = !{i64 30}
!34 = !{i64 31}
!35 = !{i64 32}
!36 = !{i64 33}
!37 = !{i64 34}
!38 = !{i64 35}
!39 = !{i64 36}
!40 = !{i64 37}
!41 = !{i64 38}
!42 = !{i64 39}
!43 = !{i64 40}
!44 = !{i64 41}
!45 = !{i64 42}
!46 = !{i64 43}
!47 = !{i64 44}
!48 = !{i64 45}
!49 = !{i64 46}
!50 = !{i64 47}
!51 = distinct !{!51, !52}
!52 = !{!"llvm.loop.mustprogress"}
!53 = !{i64 48}
!54 = !{i64 49}
!55 = !{i64 50}
!56 = !{i64 51}
!57 = !{i64 52}
!58 = !{i64 53}
!59 = !{i64 54}
!60 = !{i64 55}
!61 = !{i64 56}
!62 = !{i64 57}
!63 = !{i64 58}
!64 = !{i64 59}
!65 = !{i64 60}
!66 = !{i64 61}
!67 = !{i64 62}
!68 = !{i64 63}
!69 = !{i64 64}
!70 = distinct !{!70, !52}
!71 = !{i64 65}
!72 = !{i64 66}
!73 = !{i64 67}
!74 = !{i64 68}
!75 = !{i64 69}
!76 = !{i64 70}
!77 = !{i64 71}
!78 = !{i64 72}
!79 = !{i64 73}
!80 = !{i64 74}
!81 = !{i64 75}
!82 = !{i64 76}
!83 = !{i64 77}
!84 = !{i64 78}
!85 = !{i64 79}
!86 = !{i64 80}
!87 = !{i64 81}
!88 = !{i64 82}
!89 = !{i64 83}
!90 = !{i64 84}
!91 = !{i64 85}
!92 = !{i64 86}
!93 = !{i64 87}
!94 = !{i64 88}
!95 = !{i64 89}
!96 = !{i64 90}
!97 = !{i64 91}
!98 = !{i64 92}
!99 = !{i64 93}
!100 = !{i64 94}
!101 = !{i64 95}
!102 = !{i64 96}
!103 = !{i64 97}
!104 = !{i64 98}
!105 = !{i64 99}
!106 = !{i64 100}
!107 = !{i64 101}
!108 = !{i64 102}
!109 = !{i64 103}
!110 = !{i64 104}
!111 = !{i64 105}
!112 = !{i64 106}
!113 = !{i64 107}
!114 = distinct !{!114, !52}
!115 = !{i64 108}
!116 = !{i64 109}
!117 = !{i64 110}
!118 = !{i64 111}
!119 = !{i64 112}
!120 = !{i64 113}
!121 = !{i64 114}
!122 = !{i64 115}
!123 = !{i64 116}
!124 = !{i64 117}
!125 = !{i64 118}
!126 = distinct !{!126, !52}
!127 = !{i64 119}
!128 = !{i64 120}
!129 = !{i64 121}
!130 = !{i64 122}
!131 = !{i64 123}
!132 = !{i64 124}
!133 = !{i64 125}
!134 = !{i64 126}
!135 = !{i64 127}
!136 = !{i64 128}
!137 = !{i64 129}
!138 = !{i64 130}
!139 = !{i64 131}
!140 = !{i64 132}
!141 = !{i64 133}
!142 = !{i64 134}
!143 = !{i64 135}
!144 = !{i64 136}
!145 = !{i64 137}
!146 = !{i64 138}
!147 = !{i64 139}
!148 = !{i64 140}
!149 = !{i64 141}
!150 = !{i64 142}
!151 = !{i64 143}
!152 = !{i64 144}
!153 = !{i64 145}
!154 = !{i64 146}
!155 = !{i64 147}
!156 = !{i64 148}
!157 = !{i64 149}
!158 = !{i64 150}
!159 = !{i64 151}
!160 = !{i64 152}
!161 = !{i64 153}
!162 = !{i64 154}
!163 = !{i64 155}
!164 = !{i64 156}
!165 = !{i64 157}
!166 = !{i64 158}
!167 = !{i64 159}
!168 = !{i64 160}
!169 = !{i64 161}
!170 = !{i64 162}
!171 = !{i64 163}
!172 = !{i64 164}
!173 = !{i64 165}
!174 = !{i64 166}
!175 = !{i64 167}
!176 = !{i64 168}
!177 = !{i64 169}
!178 = !{i64 170}
!179 = !{i64 171}
!180 = !{i64 172}
!181 = distinct !{!181, !52}
!182 = !{i64 173}
!183 = !{i64 174}
!184 = !{i64 175}
!185 = !{i64 176}
!186 = !{i64 177}
!187 = !{i64 178}
!188 = !{i64 179}
!189 = !{i64 180}
!190 = !{i64 181}
!191 = !{i64 182}
!192 = !{i64 183}
!193 = !{i64 184}
!194 = !{i64 185}
!195 = !{i64 186}
!196 = !{i64 187}
!197 = !{i64 188}
!198 = !{i64 189}
!199 = !{i64 190}
!200 = !{i64 191}
!201 = !{i64 192}
!202 = !{i64 193}
!203 = !{i64 194}
!204 = !{i64 195}
!205 = !{i64 196}
!206 = !{i64 197}
!207 = !{i64 198}
!208 = !{i64 199}
!209 = !{i64 200}
!210 = !{i64 201}
!211 = !{i64 202}
!212 = !{i64 203}
!213 = !{i64 204}
!214 = !{i64 205}
!215 = !{i64 206}
!216 = !{i64 207}
!217 = !{i64 208}
!218 = !{i64 209}
!219 = !{i64 210}
!220 = !{i64 211}
!221 = !{i64 212}
!222 = !{i64 213}
!223 = !{i64 214}
!224 = !{i64 215}
!225 = !{i64 216}
!226 = !{i64 217}
!227 = !{i64 218}
!228 = !{i64 219}
!229 = !{i64 220}
!230 = !{i64 221}
!231 = !{i64 222}
!232 = !{i64 223}
!233 = !{i64 224}
!234 = !{i64 225}
!235 = !{i64 226}
!236 = !{i64 227}
!237 = !{i64 228}
!238 = !{i64 229}
!239 = !{i64 230}
!240 = !{i64 231}
!241 = !{i64 232}
!242 = !{i64 233}
!243 = !{i64 234}
!244 = !{i64 235}
!245 = !{i64 236}
!246 = !{i64 237}
!247 = !{i64 238}
!248 = !{i64 239}
!249 = !{i64 240}
!250 = !{i64 241}
!251 = !{i64 242}
!252 = !{i64 243}
!253 = !{i64 244}
!254 = !{i64 245}
!255 = !{i64 246}
!256 = !{i64 247}
!257 = !{i64 248}
!258 = !{i64 249}
!259 = !{i64 250}
!260 = !{i64 251}
!261 = !{i64 252}
!262 = !{i64 253}
!263 = !{i64 254}
!264 = !{i64 255}
!265 = !{i64 256}
!266 = !{i64 257}
!267 = !{i64 258}
!268 = !{i64 259}
!269 = !{i64 260}
!270 = !{i64 261}
!271 = !{i64 262}
!272 = !{i64 263}
!273 = !{i64 264}
!274 = !{i64 265}
!275 = !{i64 266}
!276 = !{i64 267}
!277 = !{i64 268}
!278 = !{i64 269}
!279 = !{i64 270}
!280 = !{i64 271}
!281 = !{i64 272}
!282 = !{i64 273}
!283 = !{i64 274}
!284 = !{i64 275}
!285 = !{i64 276}
!286 = !{i64 277}
!287 = !{i64 278}
!288 = !{i64 279}
!289 = !{i64 280}
!290 = !{i64 281}
!291 = !{i64 282}
!292 = distinct !{!292, !52}
!293 = !{i64 283}
!294 = !{i64 284}
!295 = !{i64 285}
!296 = !{i64 286}
!297 = !{i64 287}
!298 = !{i64 288}
!299 = !{i64 289}
!300 = !{i64 290}
!301 = !{i64 291}
!302 = !{i64 292}
!303 = !{i64 293}
!304 = !{i64 294}
!305 = !{i64 295}
!306 = !{i64 296}
!307 = !{i64 297}
!308 = !{i64 298}
!309 = !{i64 299}
!310 = !{i64 300}
!311 = !{i64 301}
!312 = !{i64 302}
!313 = !{i64 303}
!314 = !{i64 304}
!315 = !{i64 305}
!316 = !{i64 306}
!317 = !{i64 307}
!318 = !{i64 308}
!319 = !{i64 309}
!320 = !{i64 310}
!321 = !{i64 311}
!322 = !{i64 312}
!323 = !{i64 313}
!324 = !{i64 314}
!325 = !{i64 315}
!326 = !{i64 316}
!327 = !{i64 317}
!328 = !{i64 318}
!329 = !{i64 319}
!330 = !{i64 320}
!331 = !{i64 321}
!332 = !{i64 322}
!333 = !{i64 323}
!334 = !{i64 324}
!335 = !{i64 325}
!336 = !{i64 326}
!337 = !{i64 327}
!338 = !{i64 328}
!339 = !{i64 329}
!340 = !{i64 330}
!341 = !{i64 331}
!342 = !{i64 332}
!343 = !{i64 333}
!344 = !{i64 334}
!345 = !{i64 335}
!346 = !{i64 336}
!347 = !{i64 337}
!348 = !{i64 338}
!349 = !{i64 339}
!350 = !{i64 340}
!351 = !{i64 341}
!352 = !{i64 342}
!353 = !{i64 343}
!354 = !{i64 344}
!355 = !{i64 345}
!356 = !{i64 346}
!357 = !{i64 347}
!358 = !{i64 348}
!359 = !{i64 349}
!360 = !{i64 350}
!361 = !{i64 351}
!362 = !{i64 352}
!363 = !{i64 353}
!364 = !{i64 354}
!365 = !{i64 355}
!366 = !{i64 356}
!367 = !{i64 357}
!368 = !{i64 358}
!369 = !{i64 359}
!370 = !{i64 360}
!371 = !{i64 361}
!372 = !{i64 362}
!373 = !{i64 363}
!374 = distinct !{!374, !52}
!375 = !{i64 364}
!376 = !{i64 365}
!377 = !{i64 366}
!378 = !{i64 367}
!379 = !{i64 368}
!380 = !{i64 369}
!381 = !{i64 370}
!382 = !{i64 371}
!383 = !{i64 372}
!384 = !{i64 373}
!385 = !{i64 374}
!386 = !{i64 375}
!387 = !{i64 376}
!388 = !{i64 377}
!389 = !{i64 378}
!390 = !{i64 379}
!391 = !{i64 380}
!392 = !{i64 381}
!393 = !{i64 382}
!394 = !{i64 383}
!395 = !{i64 384}
!396 = !{i64 385}
!397 = !{i64 386}
!398 = !{i64 387}
!399 = !{i64 388}
!400 = distinct !{!400, !52}
!401 = !{i64 389}
!402 = !{i64 390}
!403 = !{i64 391}
!404 = !{i64 392}
!405 = !{i64 393}
!406 = !{i64 394}
!407 = !{i64 395}
!408 = !{i64 396}
!409 = !{i64 397}
!410 = !{i64 398}
!411 = !{i64 399}
!412 = !{i64 400}
!413 = !{i64 401}
!414 = !{i64 402}
!415 = !{i64 403}
!416 = !{i64 404}
!417 = !{i64 405}
!418 = !{i64 406}
!419 = !{i64 407}
!420 = !{i64 408}
!421 = !{i64 409}
!422 = !{i64 410}
!423 = !{i64 411}
!424 = !{i64 412}
!425 = !{i64 413}
!426 = !{i64 414}
!427 = !{i64 415}
!428 = !{i64 416}
!429 = !{i64 417}
!430 = !{i64 418}
!431 = !{i64 419}
!432 = !{i64 420}
!433 = distinct !{!433, !52}
!434 = !{i64 421}
!435 = !{i64 422}
!436 = !{i64 423}
!437 = !{i64 424}
!438 = !{i64 425}
!439 = !{i64 426}
!440 = !{i64 427}
!441 = !{i64 428}
!442 = !{i64 429}
!443 = !{i64 430}
!444 = !{i64 431}
!445 = !{i64 432}
!446 = !{i64 433}
!447 = !{i64 434}
!448 = !{i64 435}
!449 = !{i64 436}
!450 = !{i64 437}
!451 = !{i64 438}
!452 = !{i64 439}
!453 = !{i64 440}
!454 = !{i64 441}
!455 = !{i64 442}
!456 = !{i64 443}
!457 = !{i64 444}
!458 = !{i64 445}
!459 = !{i64 446}
!460 = !{i64 447}
!461 = !{i64 448}
!462 = !{i64 449}
!463 = !{i64 450}
!464 = !{i64 451}
!465 = !{i64 452}
!466 = !{i64 453}
!467 = !{i64 454}
!468 = !{i64 455}
!469 = !{i64 456}
!470 = !{i64 457}
!471 = !{i64 458}
!472 = !{i64 459}
!473 = !{i64 460}
!474 = !{i64 461}
!475 = !{i64 462}
!476 = !{i64 463}
!477 = !{i64 464}
!478 = !{i64 465}
!479 = !{i64 466}
!480 = !{i64 467}
!481 = !{i64 468}
!482 = !{i64 469}
!483 = !{i64 470}
!484 = !{i64 471}
!485 = !{i64 472}
!486 = !{i64 473}
!487 = !{i64 474}
!488 = !{i64 475}
!489 = !{i64 476}
!490 = !{i64 477}
!491 = !{i64 478}
!492 = !{i64 479}
!493 = !{i64 480}
!494 = !{i64 481}
!495 = !{i64 482}
!496 = !{i64 483}
!497 = !{i64 484}
!498 = !{i64 485}
!499 = !{i64 486}
!500 = !{i64 487}
!501 = !{i64 488}
!502 = !{i64 489}
!503 = !{i64 490}
!504 = !{i64 491}
!505 = !{i64 492}
!506 = !{i64 493}
!507 = !{i64 494}
!508 = !{i64 495}
!509 = !{i64 496}
!510 = !{i64 497}
!511 = !{i64 498}
!512 = !{i64 499}
!513 = !{i64 500}
!514 = !{i64 501}
!515 = !{i64 502}
!516 = !{i64 503}
!517 = !{i64 504}
!518 = !{i64 505}
!519 = !{i64 506}
!520 = !{i64 507}
!521 = !{i64 508}
!522 = !{i64 509}
!523 = !{i64 510}
!524 = !{i64 511}
!525 = !{i64 512}
!526 = !{i64 513}
!527 = !{i64 514}
!528 = !{i64 515}
!529 = !{i64 516}
!530 = !{i64 517}
!531 = !{i64 518}
!532 = !{i64 519}
!533 = !{i64 520}
!534 = !{i64 521}
!535 = !{i64 522}
!536 = !{i64 523}
!537 = !{i64 524}
!538 = !{i64 525}
!539 = !{i64 526}
!540 = !{i64 527}
!541 = !{i64 528}
!542 = !{i64 529}
!543 = !{i64 530}
!544 = !{i64 531}
!545 = !{i64 532}
!546 = !{i64 533}
!547 = !{i64 534}
!548 = !{i64 535}
!549 = !{i64 536}
!550 = !{i64 537}
!551 = !{i64 538}
!552 = !{i64 539}
!553 = !{i64 540}
!554 = !{i64 541}
!555 = !{i64 542}
!556 = !{i64 543}
!557 = !{i64 544}
!558 = !{i64 545}
!559 = !{i64 546}
!560 = !{i64 547}
!561 = !{i64 548}
!562 = !{i64 549}
!563 = !{i64 550}
!564 = !{i64 551}
!565 = !{i64 552}
!566 = !{i64 553}
!567 = !{i64 554}
!568 = !{i64 555}
!569 = !{i64 556}
!570 = !{i64 557}
!571 = !{i64 558}
!572 = !{i64 559}
!573 = !{i64 560}
!574 = !{i64 561}
!575 = !{i64 562}
!576 = !{i64 563}
!577 = !{i64 564}
!578 = !{i64 565}
!579 = !{i64 566}
!580 = !{i64 567}
!581 = !{i64 568}
!582 = !{i64 569}
!583 = !{i64 570}
!584 = !{i64 571}
!585 = !{i64 572}
!586 = !{i64 573}
!587 = !{i64 574}
!588 = !{i64 575}
!589 = !{i64 576}
!590 = !{i64 577}
!591 = !{i64 578}
!592 = !{i64 579}
!593 = !{i64 580}
!594 = !{i64 581}
!595 = !{i64 582}
!596 = !{i64 583}
!597 = !{i64 584}
!598 = !{i64 585}
!599 = !{i64 586}
!600 = !{i64 587}
!601 = !{i64 588}
!602 = !{i64 589}
!603 = !{i64 590}
!604 = !{i64 591}
!605 = !{i64 592}
!606 = !{i64 593}
!607 = !{i64 594}
!608 = !{i64 595}
!609 = !{i64 596}
!610 = !{i64 597}
!611 = !{i64 598}
!612 = !{i64 599}
!613 = !{i64 600}
!614 = !{i64 601}
!615 = !{i64 602}
!616 = !{i64 603}
!617 = !{i64 604}
!618 = !{i64 605}
!619 = !{i64 606}
!620 = !{i64 607}
!621 = !{i64 608}
!622 = !{i64 609}
!623 = !{i64 610}
!624 = !{i64 611}
!625 = !{i64 612}
!626 = !{i64 613}
!627 = !{i64 614}
!628 = !{i64 615}
!629 = !{i64 616}
!630 = !{i64 617}
!631 = !{i64 618}
!632 = !{i64 619}
!633 = !{i64 620}
!634 = !{i64 621}
!635 = !{i64 622}
!636 = !{i64 623}
!637 = !{i64 624}
!638 = !{i64 625}
!639 = !{i64 626}
!640 = !{i64 627}
!641 = !{i64 628}
!642 = !{i64 629}
!643 = !{i64 630}
!644 = !{i64 631}
!645 = !{i64 632}
!646 = !{i64 633}
!647 = !{i64 634}
!648 = !{i64 635}
!649 = !{i64 636}
!650 = !{i64 637}
!651 = !{i64 638}
!652 = !{i64 639}
!653 = !{i64 640}
!654 = !{i64 641}
!655 = !{i64 642}
!656 = !{i64 643}
!657 = !{i64 644}
!658 = !{i64 645}
!659 = !{i64 646}
!660 = !{i64 647}
!661 = !{i64 648}
!662 = !{i64 649}
!663 = !{i64 650}
!664 = !{i64 651}
!665 = !{i64 652}
!666 = !{i64 653}
!667 = !{i64 654}
!668 = !{i64 655}
!669 = !{i64 656}
!670 = !{i64 657}
!671 = !{i64 658}
!672 = !{i64 659}
!673 = !{i64 660}
!674 = !{i64 661}
!675 = distinct !{!675, !52}
!676 = !{i64 662}
!677 = !{i64 663}
!678 = !{i64 664}
!679 = !{i64 665}
!680 = !{i64 666}
!681 = !{i64 667}
!682 = !{i64 668}
!683 = !{i64 669}
!684 = !{i64 670}
!685 = !{i64 671}
!686 = !{i64 672}
!687 = !{i64 673}
!688 = distinct !{!688, !52}
!689 = !{i64 674}
!690 = !{i64 675}
!691 = !{i64 676}
!692 = !{i64 677}
!693 = !{i64 678}
!694 = !{i64 679}
!695 = !{i64 680}
!696 = !{i64 681}
!697 = !{i64 682}
!698 = !{i64 683}
!699 = !{i64 684}
!700 = !{i64 685}
!701 = !{i64 686}
!702 = distinct !{!702, !52}
!703 = !{i64 687}
!704 = !{i64 688}
!705 = !{i64 689}
!706 = !{i64 690}
!707 = !{i64 691}
!708 = !{i64 692}
!709 = !{i64 693}
!710 = !{i64 694}
!711 = !{i64 695}
!712 = !{i64 696}
!713 = !{i64 697}
!714 = !{i64 698}
!715 = !{i64 699}
!716 = !{i64 700}
!717 = !{i64 701}
!718 = !{i64 702}
!719 = !{i64 703}
!720 = !{i64 704}
!721 = !{i64 705}
!722 = !{i64 706}
!723 = !{i64 707}
!724 = !{i64 708}
!725 = !{i64 709}
!726 = !{i64 710}
!727 = !{i64 711}
!728 = !{i64 712}
!729 = !{i64 713}
!730 = !{i64 714}
!731 = !{i64 715}
!732 = !{i64 716}
!733 = !{i64 717}
!734 = !{i64 718}
!735 = distinct !{!735, !52}
!736 = !{i64 719}
!737 = !{i64 720}
!738 = !{i64 721}
!739 = !{i64 722}
!740 = !{i64 723}
!741 = !{i64 724}
!742 = !{i64 725}
!743 = !{i64 726}
!744 = !{i64 727}
!745 = !{i64 728}
!746 = !{i64 729}
!747 = !{i64 730}
!748 = !{i64 731}
!749 = !{i64 732}
!750 = !{i64 733}
!751 = !{i64 734}
!752 = !{i64 735}
!753 = !{i64 736}
!754 = !{i64 737}
!755 = !{i64 738}
!756 = !{i64 739}
!757 = !{i64 740}
!758 = !{i64 741}
!759 = !{i64 742}
!760 = !{i64 743}
!761 = distinct !{!761, !52}
!762 = !{i64 744}
!763 = !{i64 745}
!764 = !{i64 746}
!765 = !{i64 747}
!766 = !{i64 748}
!767 = !{i64 749}
!768 = !{i64 750}
!769 = !{i64 751}
!770 = !{i64 752}
!771 = !{i64 753}
!772 = !{i64 754}
!773 = !{i64 755}
!774 = !{i64 756}
!775 = !{i64 757}
!776 = !{i64 758}
!777 = !{i64 759}
!778 = !{i64 760}
!779 = !{i64 761}
!780 = !{i64 762}
!781 = !{i64 763}
!782 = !{i64 764}
!783 = !{i64 765}
!784 = !{i64 766}
!785 = !{i64 767}
!786 = !{i64 768}
!787 = !{i64 769}
!788 = !{i64 770}
!789 = !{i64 771}
!790 = !{i64 772}
!791 = !{i64 773}
!792 = !{i64 774}
!793 = !{i64 775}
!794 = !{i64 776}
!795 = !{i64 777}
!796 = !{i64 778}
!797 = !{i64 779}
!798 = !{i64 780}
!799 = !{i64 781}
!800 = !{i64 782}
!801 = !{i64 783}
!802 = !{i64 784}
!803 = !{i64 785}
!804 = !{i64 786}
!805 = !{i64 787}
!806 = !{i64 788}
!807 = !{i64 789}
!808 = !{i64 790}
!809 = !{i64 791}
!810 = !{i64 792}
!811 = !{i64 793}
!812 = !{i64 794}
!813 = !{i64 795}
!814 = !{i64 796}
!815 = !{i64 797}
!816 = !{i64 798}
!817 = !{i64 799}
!818 = !{i64 800}
!819 = !{i64 801}
!820 = !{i64 802}
!821 = !{i64 803}
!822 = !{i64 804}
!823 = !{i64 805}
!824 = !{i64 806}
!825 = !{i64 807}
!826 = !{i64 808}
!827 = !{i64 809}
!828 = !{i64 810}
!829 = !{i64 811}
!830 = !{i64 812}
!831 = !{i64 813}
!832 = !{i64 814}
!833 = !{i64 815}
!834 = !{i64 816}
!835 = !{i64 817}
!836 = !{i64 818}
!837 = !{i64 819}
!838 = !{i64 820}
!839 = !{i64 821}
!840 = !{i64 822}
!841 = !{i64 823}
!842 = !{i64 824}
!843 = !{i64 825}
!844 = !{i64 826}
!845 = !{i64 827}
!846 = !{i64 828}
!847 = distinct !{!847, !52}
!848 = !{i64 829}
!849 = !{i64 830}
!850 = !{i64 831}
!851 = !{i64 832}
!852 = !{i64 833}
!853 = !{i64 834}
!854 = !{i64 835}
!855 = !{i64 836}
!856 = !{i64 837}
!857 = !{i64 838}
!858 = !{i64 839}
!859 = !{i64 840}
!860 = !{i64 841}
!861 = !{i64 842}
!862 = !{i64 843}
!863 = !{i64 844}
!864 = !{i64 845}
!865 = !{i64 846}
!866 = !{i64 847}
!867 = !{i64 848}
!868 = !{i64 849}
!869 = !{i64 850}
!870 = !{i64 851}
!871 = !{i64 852}
!872 = !{i64 853}
!873 = !{i64 854}
!874 = !{i64 855}
!875 = !{i64 856}
!876 = !{i64 857}
!877 = !{i64 858}
!878 = !{i64 859}
!879 = !{i64 860}
!880 = !{i64 861}
!881 = !{i64 862}
!882 = !{i64 863}
!883 = !{i64 864}
!884 = !{i64 865}
!885 = !{i64 866}
!886 = !{i64 867}
!887 = !{i64 868}
!888 = !{i64 869}
!889 = !{i64 870}
!890 = !{i64 871}
!891 = !{i64 872}
!892 = !{i64 873}
!893 = !{i64 874}
!894 = !{i64 875}
!895 = !{i64 876}
!896 = !{i64 877}
!897 = !{i64 878}
!898 = !{i64 879}
!899 = !{i64 880}
!900 = !{i64 881}
!901 = !{i64 882}
!902 = !{i64 883}
!903 = !{i64 884}
!904 = !{i64 885}
!905 = !{i64 886}
!906 = !{i64 887}
!907 = !{i64 888}
!908 = !{i64 889}
!909 = !{i64 890}
!910 = !{i64 891}
!911 = !{i64 892}
!912 = !{i64 893}
!913 = !{i64 894}
!914 = !{i64 895}
!915 = !{i64 896}
!916 = !{i64 897}
!917 = !{i64 898}
!918 = !{i64 899}
!919 = !{i64 900}
!920 = !{i64 901}
!921 = !{i64 902}
!922 = !{i64 903}
!923 = !{i64 904}
!924 = !{i64 905}
!925 = !{i64 906}
!926 = !{i64 907}
!927 = !{i64 908}
!928 = !{i64 909}
!929 = !{i64 910}
!930 = !{i64 911}
!931 = !{i64 912}
!932 = !{i64 913}
!933 = !{i64 914}
!934 = !{i64 915}
!935 = !{i64 916}
!936 = !{i64 917}
!937 = !{i64 918}
!938 = distinct !{!938, !52}
!939 = !{i64 919}
!940 = !{i64 920}
!941 = !{i64 921}
!942 = !{i64 922}
!943 = !{i64 923}
!944 = !{i64 924}
!945 = !{i64 925}
!946 = !{i64 926}
!947 = !{i64 927}
!948 = !{i64 928}
!949 = !{i64 929}
!950 = !{i64 930}
!951 = !{i64 931}
!952 = !{i64 932}
!953 = !{i64 933}
!954 = !{i64 934}
!955 = !{i64 935}
!956 = !{i64 936}
!957 = !{i64 937}
!958 = !{i64 938}
!959 = !{i64 939}
!960 = !{i64 940}
!961 = !{i64 941}
!962 = !{i64 942}
!963 = !{i64 943}
!964 = !{i64 944}
!965 = !{i64 945}
!966 = !{i64 946}
!967 = !{i64 947}
!968 = !{i64 948}
!969 = !{i64 949}
!970 = !{i64 950}
!971 = !{i64 951}
!972 = !{i64 952}
!973 = !{i64 953}
!974 = !{i64 954}
!975 = !{i64 955}
!976 = !{i64 956}
!977 = !{i64 957}
!978 = !{i64 958}
!979 = !{i64 959}
!980 = !{i64 960}
!981 = !{i64 961}
!982 = !{i64 962}
!983 = !{i64 963}
!984 = !{i64 964}
!985 = !{i64 965}
!986 = !{i64 966}
!987 = !{i64 967}
!988 = !{i64 968}
!989 = !{i64 969}
!990 = !{i64 970}
!991 = !{i64 971}
!992 = !{i64 972}
!993 = !{i64 973}
!994 = !{i64 974}
!995 = !{i64 975}
!996 = !{i64 976}
!997 = !{i64 977}
!998 = !{i64 978}
!999 = !{i64 979}
!1000 = !{i64 980}
!1001 = !{i64 981}
!1002 = !{i64 982}
!1003 = !{i64 983}
!1004 = !{i64 984}
!1005 = !{i64 985}
!1006 = !{i64 986}
!1007 = !{i64 987}
!1008 = !{i64 988}
!1009 = !{i64 989}
!1010 = !{i64 990}
!1011 = distinct !{!1011, !52}
!1012 = !{i64 991}
!1013 = !{i64 992}
