; ModuleID = '/home/hjiang/Computation-Kernel-Dataset/experiments/Fault_injection_0308_parall/O0/WalkingRobots/WalkingRobots.ll'
source_filename = "llvm-link"
target datalayout = "e-m:e-p270:32:32-p271:32:32-p272:64:64-i64:64-f80:128-n8:16:32:64-S128"
target triple = "x86_64-unknown-linux-gnu"

%"class.std::ios_base::Init" = type { i8 }
%struct._IO_FILE = type { i32, i8*, i8*, i8*, i8*, i8*, i8*, i8*, i8*, i8*, i8*, i8*, %struct._IO_marker*, %struct._IO_FILE*, i32, i32, i64, i16, i8, [1 x i8], i8*, i64, %struct._IO_codecvt*, %struct._IO_wide_data*, %struct._IO_FILE*, i8*, i64, i32, [20 x i8] }
%struct._IO_marker = type opaque
%struct._IO_codecvt = type opaque
%struct._IO_wide_data = type opaque
%"class.std::basic_istream" = type { i32 (...)**, i64, %"class.std::basic_ios" }
%"class.std::basic_ios" = type { %"class.std::ios_base", %"class.std::basic_ostream"*, i8, i8, %"class.std::basic_streambuf"*, %"class.std::ctype"*, %"class.std::num_put"*, %"class.std::num_put"* }
%"class.std::ios_base" = type { i32 (...)**, i64, i64, i32, i32, i32, %"struct.std::ios_base::_Callback_list"*, %"struct.std::ios_base::_Words", [8 x %"struct.std::ios_base::_Words"], i32, %"struct.std::ios_base::_Words"*, %"class.std::locale" }
%"struct.std::ios_base::_Callback_list" = type { %"struct.std::ios_base::_Callback_list"*, void (i32, %"class.std::ios_base"*, i32)*, i32, i32 }
%"struct.std::ios_base::_Words" = type { i8*, i64 }
%"class.std::locale" = type { %"class.std::locale::_Impl"* }
%"class.std::locale::_Impl" = type { i32, %"class.std::locale::facet"**, i64, %"class.std::locale::facet"**, i8** }
%"class.std::locale::facet" = type <{ i32 (...)**, i32, [4 x i8] }>
%"class.std::basic_ostream" = type { i32 (...)**, %"class.std::basic_ios" }
%"class.std::basic_streambuf" = type { i32 (...)**, i8*, i8*, i8*, i8*, i8*, i8*, %"class.std::locale" }
%"class.std::ctype" = type <{ %"class.std::locale::facet.base", [4 x i8], %struct.__locale_struct*, i8, [7 x i8], i32*, i32*, i16*, i8, [256 x i8], [256 x i8], i8, [6 x i8] }>
%"class.std::locale::facet.base" = type <{ i32 (...)**, i32 }>
%struct.__locale_struct = type { [13 x %struct.__locale_data*], i16*, i32*, i32*, [13 x i8*] }
%struct.__locale_data = type opaque
%"class.std::num_put" = type { %"class.std::locale::facet.base", [4 x i8] }
%"class.std::__cxx11::basic_string" = type { %"struct.std::__cxx11::basic_string<char>::_Alloc_hider", i64, %union.anon }
%"struct.std::__cxx11::basic_string<char>::_Alloc_hider" = type { i8* }
%union.anon = type { i64, [8 x i8] }

@llvm.global_ctors = appending global [1 x { i32, void ()*, i8* }] [{ i32, void ()*, i8* } { i32 65535, void ()* @_GLOBAL__sub_I_WalkingRobots.cpp, i8* null }]
@_ZStL8__ioinit = internal global %"class.std::ios_base::Init" zeroinitializer, align 1
@.str = private unnamed_addr constant [29 x i8] c"../input_files/WalkingRobots\00", align 1
@.str.1 = private unnamed_addr constant [2 x i8] c"r\00", align 1
@stdin = external dso_local global %struct._IO_FILE*, align 8
@_ZSt3cin = external dso_local global %"class.std::basic_istream", align 8
@_ZSt4cout = external dso_local global %"class.std::basic_ostream", align 8

; Function Attrs: noinline uwtable
define internal void @_GLOBAL__sub_I_WalkingRobots.cpp() #0 section ".text.startup" {
  call void @__cxx_global_var_init(), !llfi_index !4
  ret void, !llfi_index !5
}

; Function Attrs: noinline uwtable
define internal void @__cxx_global_var_init() #0 section ".text.startup" {
  call void @_ZNSt8ios_base4InitC1Ev(%"class.std::ios_base::Init"* nonnull align 1 dereferenceable(1) @_ZStL8__ioinit), !llfi_index !6
  %1 = call i32 @atexit(void ()* @__dtor__ZStL8__ioinit) #2, !llfi_index !7
  ret void, !llfi_index !8
}

declare dso_local void @_ZNSt8ios_base4InitC1Ev(%"class.std::ios_base::Init"* nonnull align 1 dereferenceable(1)) unnamed_addr #1

; Function Attrs: noinline uwtable
define internal void @__dtor__ZStL8__ioinit() #0 section ".text.startup" {
  call void @_ZNSt8ios_base4InitD1Ev(%"class.std::ios_base::Init"* @_ZStL8__ioinit), !llfi_index !9
  ret void, !llfi_index !10
}

; Function Attrs: nounwind
declare dso_local i32 @atexit(void ()*) #2

; Function Attrs: nounwind
declare dso_local void @_ZNSt8ios_base4InitD1Ev(%"class.std::ios_base::Init"* nonnull align 1 dereferenceable(1)) unnamed_addr #3

; Function Attrs: mustprogress noinline uwtable
define dso_local i32 @_Z17howManyCollisionsNSt7__cxx1112basic_stringIcSt11char_traitsIcESaIcEEE(%"class.std::__cxx11::basic_string"* %0) #4 {
  %2 = alloca i32, align 4, !llfi_index !11
  %3 = alloca i32, align 4, !llfi_index !12
  %4 = alloca i32, align 4, !llfi_index !13
  %5 = alloca i32, align 4, !llfi_index !14
  %6 = call i64 @_ZNKSt7__cxx1112basic_stringIcSt11char_traitsIcESaIcEE4sizeEv(%"class.std::__cxx11::basic_string"* nonnull align 8 dereferenceable(32) %0) #2, !llfi_index !15
  %7 = trunc i64 %6 to i32, !llfi_index !16
  store i32 %7, i32* %2, align 4, !llfi_index !17
  store i32 0, i32* %3, align 4, !llfi_index !18
  br label %8, !llfi_index !19

8:                                                ; preds = %24, %1
  %9 = load i32, i32* %3, align 4, !llfi_index !20
  %10 = call i64 @_ZNKSt7__cxx1112basic_stringIcSt11char_traitsIcESaIcEE4sizeEv(%"class.std::__cxx11::basic_string"* nonnull align 8 dereferenceable(32) %0) #2, !llfi_index !21
  %11 = trunc i64 %10 to i32, !llfi_index !22
  %12 = icmp slt i32 %9, %11, !llfi_index !23
  br i1 %12, label %13, label %27, !llfi_index !24

13:                                               ; preds = %8
  %14 = load i32, i32* %3, align 4, !llfi_index !25
  %15 = sext i32 %14 to i64, !llfi_index !26
  %16 = call nonnull align 1 dereferenceable(1) i8* @_ZNSt7__cxx1112basic_stringIcSt11char_traitsIcESaIcEEixEm(%"class.std::__cxx11::basic_string"* nonnull align 8 dereferenceable(32) %0, i64 %15), !llfi_index !27
  %17 = load i8, i8* %16, align 1, !llfi_index !28
  %18 = sext i8 %17 to i32, !llfi_index !29
  %19 = icmp ne i32 %18, 108, !llfi_index !30
  br i1 %19, label %20, label %21, !llfi_index !31

20:                                               ; preds = %13
  br label %27, !llfi_index !32

21:                                               ; preds = %13
  %22 = load i32, i32* %2, align 4, !llfi_index !33
  %23 = add nsw i32 %22, -1, !llfi_index !34
  store i32 %23, i32* %2, align 4, !llfi_index !35
  br label %24, !llfi_index !36

24:                                               ; preds = %21
  %25 = load i32, i32* %3, align 4, !llfi_index !37
  %26 = add nsw i32 %25, 1, !llfi_index !38
  store i32 %26, i32* %3, align 4, !llfi_index !39
  br label %8, !llvm.loop !40, !llfi_index !42

27:                                               ; preds = %20, %8
  %28 = call i64 @_ZNKSt7__cxx1112basic_stringIcSt11char_traitsIcESaIcEE4sizeEv(%"class.std::__cxx11::basic_string"* nonnull align 8 dereferenceable(32) %0) #2, !llfi_index !43
  %29 = trunc i64 %28 to i32, !llfi_index !44
  %30 = sub nsw i32 %29, 1, !llfi_index !45
  store i32 %30, i32* %4, align 4, !llfi_index !46
  br label %31, !llfi_index !47

31:                                               ; preds = %45, %27
  %32 = load i32, i32* %4, align 4, !llfi_index !48
  %33 = icmp sge i32 %32, 0, !llfi_index !49
  br i1 %33, label %34, label %48, !llfi_index !50

34:                                               ; preds = %31
  %35 = load i32, i32* %4, align 4, !llfi_index !51
  %36 = sext i32 %35 to i64, !llfi_index !52
  %37 = call nonnull align 1 dereferenceable(1) i8* @_ZNSt7__cxx1112basic_stringIcSt11char_traitsIcESaIcEEixEm(%"class.std::__cxx11::basic_string"* nonnull align 8 dereferenceable(32) %0, i64 %36), !llfi_index !53
  %38 = load i8, i8* %37, align 1, !llfi_index !54
  %39 = sext i8 %38 to i32, !llfi_index !55
  %40 = icmp ne i32 %39, 114, !llfi_index !56
  br i1 %40, label %41, label %42, !llfi_index !57

41:                                               ; preds = %34
  br label %48, !llfi_index !58

42:                                               ; preds = %34
  %43 = load i32, i32* %2, align 4, !llfi_index !59
  %44 = add nsw i32 %43, -1, !llfi_index !60
  store i32 %44, i32* %2, align 4, !llfi_index !61
  br label %45, !llfi_index !62

45:                                               ; preds = %42
  %46 = load i32, i32* %4, align 4, !llfi_index !63
  %47 = add nsw i32 %46, -1, !llfi_index !64
  store i32 %47, i32* %4, align 4, !llfi_index !65
  br label %31, !llvm.loop !66, !llfi_index !67

48:                                               ; preds = %41, %31
  store i32 0, i32* %5, align 4, !llfi_index !68
  br label %49, !llfi_index !69

49:                                               ; preds = %65, %48
  %50 = load i32, i32* %5, align 4, !llfi_index !70
  %51 = call i64 @_ZNKSt7__cxx1112basic_stringIcSt11char_traitsIcESaIcEE4sizeEv(%"class.std::__cxx11::basic_string"* nonnull align 8 dereferenceable(32) %0) #2, !llfi_index !71
  %52 = trunc i64 %51 to i32, !llfi_index !72
  %53 = icmp slt i32 %50, %52, !llfi_index !73
  br i1 %53, label %54, label %68, !llfi_index !74

54:                                               ; preds = %49
  %55 = load i32, i32* %5, align 4, !llfi_index !75
  %56 = sext i32 %55 to i64, !llfi_index !76
  %57 = call nonnull align 1 dereferenceable(1) i8* @_ZNSt7__cxx1112basic_stringIcSt11char_traitsIcESaIcEEixEm(%"class.std::__cxx11::basic_string"* nonnull align 8 dereferenceable(32) %0, i64 %56), !llfi_index !77
  %58 = load i8, i8* %57, align 1, !llfi_index !78
  %59 = sext i8 %58 to i32, !llfi_index !79
  %60 = icmp eq i32 %59, 100, !llfi_index !80
  br i1 %60, label %61, label %64, !llfi_index !81

61:                                               ; preds = %54
  %62 = load i32, i32* %2, align 4, !llfi_index !82
  %63 = add nsw i32 %62, -1, !llfi_index !83
  store i32 %63, i32* %2, align 4, !llfi_index !84
  br label %64, !llfi_index !85

64:                                               ; preds = %61, %54
  br label %65, !llfi_index !86

65:                                               ; preds = %64
  %66 = load i32, i32* %5, align 4, !llfi_index !87
  %67 = add nsw i32 %66, 1, !llfi_index !88
  store i32 %67, i32* %5, align 4, !llfi_index !89
  br label %49, !llvm.loop !90, !llfi_index !91

68:                                               ; preds = %49
  %69 = load i32, i32* %2, align 4, !llfi_index !92
  ret i32 %69, !llfi_index !93
}

; Function Attrs: nounwind
declare dso_local i64 @_ZNKSt7__cxx1112basic_stringIcSt11char_traitsIcESaIcEE4sizeEv(%"class.std::__cxx11::basic_string"* nonnull align 8 dereferenceable(32)) #3

declare dso_local nonnull align 1 dereferenceable(1) i8* @_ZNSt7__cxx1112basic_stringIcSt11char_traitsIcESaIcEEixEm(%"class.std::__cxx11::basic_string"* nonnull align 8 dereferenceable(32), i64) #1

; Function Attrs: mustprogress noinline norecurse uwtable
define dso_local i32 @main() #5 personality i8* bitcast (i32 (...)* @__gxx_personality_v0 to i8*) {
  %1 = alloca i32, align 4, !llfi_index !94
  %2 = alloca i32, align 4, !llfi_index !95
  %3 = alloca i32, align 4, !llfi_index !96
  %4 = alloca i32, align 4, !llfi_index !97
  %5 = alloca %"class.std::__cxx11::basic_string", align 8, !llfi_index !98
  %6 = alloca i8*, align 8, !llfi_index !99
  %7 = alloca i32, align 4, !llfi_index !100
  %8 = alloca i32, align 4, !llfi_index !101
  %9 = alloca %"class.std::__cxx11::basic_string", align 8, !llfi_index !102
  store i32 0, i32* %1, align 4, !llfi_index !103
  %10 = load %struct._IO_FILE*, %struct._IO_FILE** @stdin, align 8, !llfi_index !104
  %11 = call %struct._IO_FILE* @freopen(i8* getelementptr inbounds ([29 x i8], [29 x i8]* @.str, i64 0, i64 0), i8* getelementptr inbounds ([2 x i8], [2 x i8]* @.str.1, i64 0, i64 0), %struct._IO_FILE* %10), !llfi_index !105
  %12 = call nonnull align 8 dereferenceable(16) %"class.std::basic_istream"* @_ZNSirsERi(%"class.std::basic_istream"* nonnull align 8 dereferenceable(16) @_ZSt3cin, i32* nonnull align 4 dereferenceable(4) %2), !llfi_index !106
  store i32 89, i32* %3, align 4, !llfi_index !107
  store i32 0, i32* %4, align 4, !llfi_index !108
  br label %13, !llfi_index !109

13:                                               ; preds = %28, %0
  %14 = load i32, i32* %4, align 4, !llfi_index !110
  %15 = load i32, i32* %2, align 4, !llfi_index !111
  %16 = icmp slt i32 %14, %15, !llfi_index !112
  br i1 %16, label %17, label %40, !llfi_index !113

17:                                               ; preds = %13
  call void @_ZNSt7__cxx1112basic_stringIcSt11char_traitsIcESaIcEEC1Ev(%"class.std::__cxx11::basic_string"* nonnull align 8 dereferenceable(32) %5) #2, !llfi_index !114
  %18 = invoke nonnull align 8 dereferenceable(16) %"class.std::basic_istream"* @_ZStrsIcSt11char_traitsIcESaIcEERSt13basic_istreamIT_T0_ES7_RNSt7__cxx1112basic_stringIS4_S5_T1_EE(%"class.std::basic_istream"* nonnull align 8 dereferenceable(16) @_ZSt3cin, %"class.std::__cxx11::basic_string"* nonnull align 8 dereferenceable(32) %5)
          to label %19 unwind label %31, !llfi_index !115

19:                                               ; preds = %17
  store i32 89, i32* %3, align 4, !llfi_index !116
  invoke void @_ZNSt7__cxx1112basic_stringIcSt11char_traitsIcESaIcEEC1ERKS4_(%"class.std::__cxx11::basic_string"* nonnull align 8 dereferenceable(32) %9, %"class.std::__cxx11::basic_string"* nonnull align 8 dereferenceable(32) %5)
          to label %20 unwind label %31, !llfi_index !117

20:                                               ; preds = %19
  %21 = invoke i32 @_Z17howManyCollisionsNSt7__cxx1112basic_stringIcSt11char_traitsIcESaIcEEE(%"class.std::__cxx11::basic_string"* %9)
          to label %22 unwind label %35, !llfi_index !118

22:                                               ; preds = %20
  call void @_ZNSt7__cxx1112basic_stringIcSt11char_traitsIcESaIcEED1Ev(%"class.std::__cxx11::basic_string"* nonnull align 8 dereferenceable(32) %9) #2, !llfi_index !119
  store i32 %21, i32* %8, align 4, !llfi_index !120
  %23 = load i32, i32* %8, align 4, !llfi_index !121
  %24 = invoke nonnull align 8 dereferenceable(8) %"class.std::basic_ostream"* @_ZNSolsEi(%"class.std::basic_ostream"* nonnull align 8 dereferenceable(8) @_ZSt4cout, i32 %23)
          to label %25 unwind label %31, !llfi_index !122

25:                                               ; preds = %22
  %26 = invoke nonnull align 8 dereferenceable(8) %"class.std::basic_ostream"* @_ZNSolsEPFRSoS_E(%"class.std::basic_ostream"* nonnull align 8 dereferenceable(8) %24, %"class.std::basic_ostream"* (%"class.std::basic_ostream"*)* @_ZSt4endlIcSt11char_traitsIcEERSt13basic_ostreamIT_T0_ES6_)
          to label %27 unwind label %31, !llfi_index !123

27:                                               ; preds = %25
  call void @_ZNSt7__cxx1112basic_stringIcSt11char_traitsIcESaIcEED1Ev(%"class.std::__cxx11::basic_string"* nonnull align 8 dereferenceable(32) %5) #2, !llfi_index !124
  br label %28, !llfi_index !125

28:                                               ; preds = %27
  %29 = load i32, i32* %4, align 4, !llfi_index !126
  %30 = add nsw i32 %29, 1, !llfi_index !127
  store i32 %30, i32* %4, align 4, !llfi_index !128
  br label %13, !llvm.loop !129, !llfi_index !130

31:                                               ; preds = %25, %22, %19, %17
  %32 = landingpad { i8*, i32 }
          cleanup, !llfi_index !131
  %33 = extractvalue { i8*, i32 } %32, 0, !llfi_index !132
  store i8* %33, i8** %6, align 8, !llfi_index !133
  %34 = extractvalue { i8*, i32 } %32, 1, !llfi_index !134
  store i32 %34, i32* %7, align 4, !llfi_index !135
  br label %39, !llfi_index !136

35:                                               ; preds = %20
  %36 = landingpad { i8*, i32 }
          cleanup, !llfi_index !137
  %37 = extractvalue { i8*, i32 } %36, 0, !llfi_index !138
  store i8* %37, i8** %6, align 8, !llfi_index !139
  %38 = extractvalue { i8*, i32 } %36, 1, !llfi_index !140
  store i32 %38, i32* %7, align 4, !llfi_index !141
  call void @_ZNSt7__cxx1112basic_stringIcSt11char_traitsIcESaIcEED1Ev(%"class.std::__cxx11::basic_string"* nonnull align 8 dereferenceable(32) %9) #2, !llfi_index !142
  br label %39, !llfi_index !143

39:                                               ; preds = %35, %31
  call void @_ZNSt7__cxx1112basic_stringIcSt11char_traitsIcESaIcEED1Ev(%"class.std::__cxx11::basic_string"* nonnull align 8 dereferenceable(32) %5) #2, !llfi_index !144
  br label %41, !llfi_index !145

40:                                               ; preds = %13
  ret i32 0, !llfi_index !146

41:                                               ; preds = %39
  %42 = load i8*, i8** %6, align 8, !llfi_index !147
  %43 = load i32, i32* %7, align 4, !llfi_index !148
  %44 = insertvalue { i8*, i32 } undef, i8* %42, 0, !llfi_index !149
  %45 = insertvalue { i8*, i32 } %44, i32 %43, 1, !llfi_index !150
  resume { i8*, i32 } %45, !llfi_index !151
}

declare dso_local i32 @__gxx_personality_v0(...)

declare dso_local %struct._IO_FILE* @freopen(i8*, i8*, %struct._IO_FILE*) #1

declare dso_local nonnull align 8 dereferenceable(16) %"class.std::basic_istream"* @_ZNSirsERi(%"class.std::basic_istream"* nonnull align 8 dereferenceable(16), i32* nonnull align 4 dereferenceable(4)) #1

; Function Attrs: nounwind
declare dso_local void @_ZNSt7__cxx1112basic_stringIcSt11char_traitsIcESaIcEEC1Ev(%"class.std::__cxx11::basic_string"* nonnull align 8 dereferenceable(32)) unnamed_addr #3

declare dso_local nonnull align 8 dereferenceable(16) %"class.std::basic_istream"* @_ZStrsIcSt11char_traitsIcESaIcEERSt13basic_istreamIT_T0_ES7_RNSt7__cxx1112basic_stringIS4_S5_T1_EE(%"class.std::basic_istream"* nonnull align 8 dereferenceable(16), %"class.std::__cxx11::basic_string"* nonnull align 8 dereferenceable(32)) #1

declare dso_local void @_ZNSt7__cxx1112basic_stringIcSt11char_traitsIcESaIcEEC1ERKS4_(%"class.std::__cxx11::basic_string"* nonnull align 8 dereferenceable(32), %"class.std::__cxx11::basic_string"* nonnull align 8 dereferenceable(32)) unnamed_addr #1

; Function Attrs: nounwind
declare dso_local void @_ZNSt7__cxx1112basic_stringIcSt11char_traitsIcESaIcEED1Ev(%"class.std::__cxx11::basic_string"* nonnull align 8 dereferenceable(32)) unnamed_addr #3

declare dso_local nonnull align 8 dereferenceable(8) %"class.std::basic_ostream"* @_ZNSolsEi(%"class.std::basic_ostream"* nonnull align 8 dereferenceable(8), i32) #1

declare dso_local nonnull align 8 dereferenceable(8) %"class.std::basic_ostream"* @_ZSt4endlIcSt11char_traitsIcEERSt13basic_ostreamIT_T0_ES6_(%"class.std::basic_ostream"* nonnull align 8 dereferenceable(8)) #1

declare dso_local nonnull align 8 dereferenceable(8) %"class.std::basic_ostream"* @_ZNSolsEPFRSoS_E(%"class.std::basic_ostream"* nonnull align 8 dereferenceable(8), %"class.std::basic_ostream"* (%"class.std::basic_ostream"*)*) #1

attributes #0 = { noinline uwtable "frame-pointer"="all" "min-legal-vector-width"="0" "no-trapping-math"="true" "stack-protector-buffer-size"="8" "target-cpu"="x86-64" "target-features"="+cx8,+fxsr,+mmx,+sse,+sse2,+x87" "tune-cpu"="generic" }
attributes #1 = { "frame-pointer"="all" "no-trapping-math"="true" "stack-protector-buffer-size"="8" "target-cpu"="x86-64" "target-features"="+cx8,+fxsr,+mmx,+sse,+sse2,+x87" "tune-cpu"="generic" }
attributes #2 = { nounwind }
attributes #3 = { nounwind "frame-pointer"="all" "no-trapping-math"="true" "stack-protector-buffer-size"="8" "target-cpu"="x86-64" "target-features"="+cx8,+fxsr,+mmx,+sse,+sse2,+x87" "tune-cpu"="generic" }
attributes #4 = { mustprogress noinline uwtable "frame-pointer"="all" "min-legal-vector-width"="0" "no-trapping-math"="true" "stack-protector-buffer-size"="8" "target-cpu"="x86-64" "target-features"="+cx8,+fxsr,+mmx,+sse,+sse2,+x87" "tune-cpu"="generic" }
attributes #5 = { mustprogress noinline norecurse uwtable "frame-pointer"="all" "min-legal-vector-width"="0" "no-trapping-math"="true" "stack-protector-buffer-size"="8" "target-cpu"="x86-64" "target-features"="+cx8,+fxsr,+mmx,+sse,+sse2,+x87" "tune-cpu"="generic" }

!llvm.ident = !{!0}
!llvm.module.flags = !{!1, !2, !3}

!0 = !{!"clang version 13.0.0 (https://github.com/llvm/llvm-project.git d7b669b3a30345cfcdb2fde2af6f48aa4b94845d)"}
!1 = !{i32 1, !"wchar_size", i32 4}
!2 = !{i32 7, !"uwtable", i32 1}
!3 = !{i32 7, !"frame-pointer", i32 2}
!4 = !{i64 1}
!5 = !{i64 2}
!6 = !{i64 3}
!7 = !{i64 4}
!8 = !{i64 5}
!9 = !{i64 6}
!10 = !{i64 7}
!11 = !{i64 8}
!12 = !{i64 9}
!13 = !{i64 10}
!14 = !{i64 11}
!15 = !{i64 12}
!16 = !{i64 13}
!17 = !{i64 14}
!18 = !{i64 15}
!19 = !{i64 16}
!20 = !{i64 17}
!21 = !{i64 18}
!22 = !{i64 19}
!23 = !{i64 20}
!24 = !{i64 21}
!25 = !{i64 22}
!26 = !{i64 23}
!27 = !{i64 24}
!28 = !{i64 25}
!29 = !{i64 26}
!30 = !{i64 27}
!31 = !{i64 28}
!32 = !{i64 29}
!33 = !{i64 30}
!34 = !{i64 31}
!35 = !{i64 32}
!36 = !{i64 33}
!37 = !{i64 34}
!38 = !{i64 35}
!39 = !{i64 36}
!40 = distinct !{!40, !41}
!41 = !{!"llvm.loop.mustprogress"}
!42 = !{i64 37}
!43 = !{i64 38}
!44 = !{i64 39}
!45 = !{i64 40}
!46 = !{i64 41}
!47 = !{i64 42}
!48 = !{i64 43}
!49 = !{i64 44}
!50 = !{i64 45}
!51 = !{i64 46}
!52 = !{i64 47}
!53 = !{i64 48}
!54 = !{i64 49}
!55 = !{i64 50}
!56 = !{i64 51}
!57 = !{i64 52}
!58 = !{i64 53}
!59 = !{i64 54}
!60 = !{i64 55}
!61 = !{i64 56}
!62 = !{i64 57}
!63 = !{i64 58}
!64 = !{i64 59}
!65 = !{i64 60}
!66 = distinct !{!66, !41}
!67 = !{i64 61}
!68 = !{i64 62}
!69 = !{i64 63}
!70 = !{i64 64}
!71 = !{i64 65}
!72 = !{i64 66}
!73 = !{i64 67}
!74 = !{i64 68}
!75 = !{i64 69}
!76 = !{i64 70}
!77 = !{i64 71}
!78 = !{i64 72}
!79 = !{i64 73}
!80 = !{i64 74}
!81 = !{i64 75}
!82 = !{i64 76}
!83 = !{i64 77}
!84 = !{i64 78}
!85 = !{i64 79}
!86 = !{i64 80}
!87 = !{i64 81}
!88 = !{i64 82}
!89 = !{i64 83}
!90 = distinct !{!90, !41}
!91 = !{i64 84}
!92 = !{i64 85}
!93 = !{i64 86}
!94 = !{i64 87}
!95 = !{i64 88}
!96 = !{i64 89}
!97 = !{i64 90}
!98 = !{i64 91}
!99 = !{i64 92}
!100 = !{i64 93}
!101 = !{i64 94}
!102 = !{i64 95}
!103 = !{i64 96}
!104 = !{i64 97}
!105 = !{i64 98}
!106 = !{i64 99}
!107 = !{i64 100}
!108 = !{i64 101}
!109 = !{i64 102}
!110 = !{i64 103}
!111 = !{i64 104}
!112 = !{i64 105}
!113 = !{i64 106}
!114 = !{i64 107}
!115 = !{i64 108}
!116 = !{i64 109}
!117 = !{i64 110}
!118 = !{i64 111}
!119 = !{i64 112}
!120 = !{i64 113}
!121 = !{i64 114}
!122 = !{i64 115}
!123 = !{i64 116}
!124 = !{i64 117}
!125 = !{i64 118}
!126 = !{i64 119}
!127 = !{i64 120}
!128 = !{i64 121}
!129 = distinct !{!129, !41}
!130 = !{i64 122}
!131 = !{i64 123}
!132 = !{i64 124}
!133 = !{i64 125}
!134 = !{i64 126}
!135 = !{i64 127}
!136 = !{i64 128}
!137 = !{i64 129}
!138 = !{i64 130}
!139 = !{i64 131}
!140 = !{i64 132}
!141 = !{i64 133}
!142 = !{i64 134}
!143 = !{i64 135}
!144 = !{i64 136}
!145 = !{i64 137}
!146 = !{i64 138}
!147 = !{i64 139}
!148 = !{i64 140}
!149 = !{i64 141}
!150 = !{i64 142}
!151 = !{i64 143}
