; ModuleID = '/home/hjiang/Computation-Kernel-Dataset/experiments/Fault_injection_0308_parall/O0/WireRemoval/WireRemoval.ll'
source_filename = "llvm-link"
target datalayout = "e-m:e-p270:32:32-p271:32:32-p272:64:64-i64:64-f80:128-n8:16:32:64-S128"
target triple = "x86_64-unknown-linux-gnu"

%"class.std::allocator" = type { i8 }
%"class.std::vector" = type { %"struct.std::_Vector_base" }
%"struct.std::_Vector_base" = type { %"struct.std::_Vector_base<int, std::allocator<int>>::_Vector_impl" }
%"struct.std::_Vector_base<int, std::allocator<int>>::_Vector_impl" = type { %"struct.std::_Vector_base<int, std::allocator<int>>::_Vector_impl_data" }
%"struct.std::_Vector_base<int, std::allocator<int>>::_Vector_impl_data" = type { i32*, i32*, i32* }
%struct._IO_FILE = type { i32, i8*, i8*, i8*, i8*, i8*, i8*, i8*, i8*, i8*, i8*, i8*, %struct._IO_marker*, %struct._IO_FILE*, i32, i32, i64, i16, i8, [1 x i8], i8*, i64, %struct._IO_codecvt*, %struct._IO_wide_data*, %struct._IO_FILE*, i8*, i64, i32, [20 x i8] }
%struct._IO_marker = type opaque
%struct._IO_codecvt = type opaque
%struct._IO_wide_data = type opaque
%"class.std::basic_istream" = type { i32 (...)**, i64, %"class.std::basic_ios" }
%"class.std::basic_ios" = type { %"class.std::ios_base", %"class.std::basic_ostream"*, i8, i8, %"class.std::basic_streambuf"*, %"class.std::ctype"*, %"class.std::num_put"*, %"class.std::num_put"* }
%"class.std::ios_base" = type { i32 (...)**, i64, i64, i32, i32, i32, %"struct.std::ios_base::_Callback_list"*, %"struct.std::ios_base::_Words", [8 x %"struct.std::ios_base::_Words"], i32, %"struct.std::ios_base::_Words"*, %"class.std::locale" }
%"struct.std::ios_base::_Callback_list" = type { %"struct.std::ios_base::_Callback_list"*, void (i32, %"class.std::ios_base"*, i32)*, i32, i32 }
%"struct.std::ios_base::_Words" = type { i8*, i64 }
%"class.std::locale" = type { %"class.std::locale::_Impl"* }
%"class.std::locale::_Impl" = type { i32, %"class.std::locale::facet"**, i64, %"class.std::locale::facet"**, i8** }
%"class.std::locale::facet" = type <{ i32 (...)**, i32, [4 x i8] }>
%"class.std::basic_ostream" = type { i32 (...)**, %"class.std::basic_ios" }
%"class.std::basic_streambuf" = type { i32 (...)**, i8*, i8*, i8*, i8*, i8*, i8*, %"class.std::locale" }
%"class.std::ctype" = type <{ %"class.std::locale::facet.base", [4 x i8], %struct.__locale_struct*, i8, [7 x i8], i32*, i32*, i16*, i8, [256 x i8], [256 x i8], i8, [6 x i8] }>
%"class.std::locale::facet.base" = type <{ i32 (...)**, i32 }>
%struct.__locale_struct = type { [13 x %struct.__locale_data*], i16*, i32*, i32*, [13 x i8*] }
%struct.__locale_data = type opaque
%"class.std::num_put" = type { %"class.std::locale::facet.base", [4 x i8] }
%"class.__gnu_cxx::__normal_iterator" = type { i32* }

$_ZNSt6vectorIiSaIiEEC2Ev = comdat any

$_ZNSt6vectorIiSaIiEED2Ev = comdat any

$_ZNSt12_Vector_baseIiSaIiEE19_M_get_Tp_allocatorEv = comdat any

$_ZSt8_DestroyIPiiEvT_S1_RSaIT0_E = comdat any

$_ZNSt12_Vector_baseIiSaIiEED2Ev = comdat any

$__clang_call_terminate = comdat any

$_ZNSt12_Vector_baseIiSaIiEE13_M_deallocateEPim = comdat any

$_ZNSt12_Vector_baseIiSaIiEE12_Vector_implD2Ev = comdat any

$_ZNSaIiED2Ev = comdat any

$_ZN9__gnu_cxx13new_allocatorIiED2Ev = comdat any

$_ZNSt16allocator_traitsISaIiEE10deallocateERS0_Pim = comdat any

$_ZN9__gnu_cxx13new_allocatorIiE10deallocateEPim = comdat any

$_ZSt8_DestroyIPiEvT_S1_ = comdat any

$_ZNSt12_Destroy_auxILb1EE9__destroyIPiEEvT_S3_ = comdat any

$_ZNSt12_Vector_baseIiSaIiEEC2Ev = comdat any

$_ZNSt12_Vector_baseIiSaIiEE12_Vector_implC2Ev = comdat any

$_ZNSaIiEC2Ev = comdat any

$_ZNSt12_Vector_baseIiSaIiEE17_Vector_impl_dataC2Ev = comdat any

$_ZN9__gnu_cxx13new_allocatorIiEC2Ev = comdat any

$_ZNSt6vectorIiSaIiEE5beginEv = comdat any

$_ZNSt6vectorIiSaIiEE3endEv = comdat any

$_ZN9__gnu_cxxneIPiSt6vectorIiSaIiEEEEbRKNS_17__normal_iteratorIT_T0_EESA_ = comdat any

$_ZNK9__gnu_cxx17__normal_iteratorIPiSt6vectorIiSaIiEEEdeEv = comdat any

$_ZN9__gnu_cxx17__normal_iteratorIPiSt6vectorIiSaIiEEEppEv = comdat any

$_ZNK9__gnu_cxx17__normal_iteratorIPiSt6vectorIiSaIiEEE4baseEv = comdat any

$_ZN9__gnu_cxx17__normal_iteratorIPiSt6vectorIiSaIiEEEC2ERKS1_ = comdat any

$_ZNSt6vectorIiSaIiEE9push_backERKi = comdat any

$_ZNSt16allocator_traitsISaIiEE9constructIiJRKiEEEvRS0_PT_DpOT0_ = comdat any

$_ZNSt6vectorIiSaIiEE17_M_realloc_insertIJRKiEEEvN9__gnu_cxx17__normal_iteratorIPiS1_EEDpOT_ = comdat any

$_ZNKSt6vectorIiSaIiEE12_M_check_lenEmPKc = comdat any

$_ZN9__gnu_cxxmiIPiSt6vectorIiSaIiEEEENS_17__normal_iteratorIT_T0_E15difference_typeERKS8_SB_ = comdat any

$_ZNSt12_Vector_baseIiSaIiEE11_M_allocateEm = comdat any

$_ZSt7forwardIRKiEOT_RNSt16remove_referenceIS2_E4typeE = comdat any

$_ZNSt6vectorIiSaIiEE11_S_relocateEPiS2_S2_RS0_ = comdat any

$_ZNSt6vectorIiSaIiEE14_S_do_relocateEPiS2_S2_RS0_St17integral_constantIbLb1EE = comdat any

$_ZSt12__relocate_aIPiS0_SaIiEET0_T_S3_S2_RT1_ = comdat any

$_ZSt12__niter_baseIPiET_S1_ = comdat any

$_ZSt14__relocate_a_1IiiENSt9enable_ifIXsr3std24__is_bitwise_relocatableIT_EE5valueEPS1_E4typeES2_S2_S2_RSaIT0_E = comdat any

$_ZNSt16allocator_traitsISaIiEE8allocateERS0_m = comdat any

$_ZN9__gnu_cxx13new_allocatorIiE8allocateEmPKv = comdat any

$_ZNK9__gnu_cxx13new_allocatorIiE8max_sizeEv = comdat any

$_ZNKSt6vectorIiSaIiEE8max_sizeEv = comdat any

$_ZNKSt6vectorIiSaIiEE4sizeEv = comdat any

$_ZSt3maxImERKT_S2_S2_ = comdat any

$_ZNKSt12_Vector_baseIiSaIiEE19_M_get_Tp_allocatorEv = comdat any

$_ZNSt6vectorIiSaIiEE11_S_max_sizeERKS0_ = comdat any

$_ZNSt16allocator_traitsISaIiEE8max_sizeERKS0_ = comdat any

$_ZSt3minImERKT_S2_S2_ = comdat any

$_ZN9__gnu_cxx13new_allocatorIiE9constructIiJRKiEEEvPT_DpOT0_ = comdat any

@llvm.global_ctors = appending global [1 x { i32, void ()*, i8* }] [{ i32, void ()*, i8* } { i32 65535, void ()* @_GLOBAL__sub_I_WireRemoval.cpp, i8* null }]
@_ZStL8__ioinit = internal global %"class.std::allocator" zeroinitializer, align 1
@_ZL2pi = internal global double 0.000000e+00, align 8
@n = dso_local global i32 0, align 4
@g = dso_local global [1048576 x %"class.std::vector"] zeroinitializer, align 16
@s1 = dso_local global i64 0, align 8
@s2 = dso_local global i64 0, align 8
@.str = private unnamed_addr constant [27 x i8] c"../input_files/WireRemoval\00", align 1
@.str.3 = private unnamed_addr constant [2 x i8] c"r\00", align 1
@stdin = external dso_local global %struct._IO_FILE*, align 8
@_ZSt3cin = external dso_local global %"class.std::basic_istream", align 8
@.str.4 = private unnamed_addr constant [8 x i8] c"%.12lf\0A\00", align 1
@.str.5 = private unnamed_addr constant [26 x i8] c"vector::_M_realloc_insert\00", align 1

; Function Attrs: noinline uwtable
define internal void @_GLOBAL__sub_I_WireRemoval.cpp() #0 section ".text.startup" {
  call void @__cxx_global_var_init(), !llfi_index !4
  call void @__cxx_global_var_init.1(), !llfi_index !5
  call void @__cxx_global_var_init.2(), !llfi_index !6
  ret void, !llfi_index !7
}

; Function Attrs: noinline uwtable
define internal void @__cxx_global_var_init() #0 section ".text.startup" {
  call void @_ZNSt8ios_base4InitC1Ev(%"class.std::allocator"* nonnull align 1 dereferenceable(1) @_ZStL8__ioinit), !llfi_index !8
  %1 = call i32 @atexit(void ()* @__dtor__ZStL8__ioinit) #2, !llfi_index !9
  ret void, !llfi_index !10
}

; Function Attrs: noinline uwtable
define internal void @__cxx_global_var_init.1() #0 section ".text.startup" {
  %1 = call double @acos(double -1.000000e+00) #2, !llfi_index !11
  store double %1, double* @_ZL2pi, align 8, !llfi_index !12
  ret void, !llfi_index !13
}

; Function Attrs: noinline uwtable
define internal void @__cxx_global_var_init.2() #0 section ".text.startup" {
  br label %1, !llfi_index !14

1:                                                ; preds = %1, %0
  %2 = phi %"class.std::vector"* [ getelementptr inbounds ([1048576 x %"class.std::vector"], [1048576 x %"class.std::vector"]* @g, i32 0, i32 0), %0 ], [ %3, %1 ], !llfi_index !15
  call void @_ZNSt6vectorIiSaIiEEC2Ev(%"class.std::vector"* nonnull align 8 dereferenceable(24) %2) #2, !llfi_index !16
  %3 = getelementptr inbounds %"class.std::vector", %"class.std::vector"* %2, i64 1, !llfi_index !17
  %4 = icmp eq %"class.std::vector"* %3, getelementptr inbounds (%"class.std::vector", %"class.std::vector"* getelementptr inbounds ([1048576 x %"class.std::vector"], [1048576 x %"class.std::vector"]* @g, i32 0, i32 0), i64 1048576), !llfi_index !18
  br i1 %4, label %5, label %1, !llfi_index !19

5:                                                ; preds = %1
  %6 = call i32 @atexit(void ()* @__dtor_g) #2, !llfi_index !20
  ret void, !llfi_index !21
}

; Function Attrs: noinline nounwind uwtable
define linkonce_odr dso_local void @_ZNSt6vectorIiSaIiEEC2Ev(%"class.std::vector"* nonnull align 8 dereferenceable(24) %0) unnamed_addr #1 comdat align 2 {
  %2 = alloca %"class.std::vector"*, align 8, !llfi_index !22
  store %"class.std::vector"* %0, %"class.std::vector"** %2, align 8, !llfi_index !23
  %3 = load %"class.std::vector"*, %"class.std::vector"** %2, align 8, !llfi_index !24
  %4 = bitcast %"class.std::vector"* %3 to %"struct.std::_Vector_base"*, !llfi_index !25
  call void @_ZNSt12_Vector_baseIiSaIiEEC2Ev(%"struct.std::_Vector_base"* nonnull align 8 dereferenceable(24) %4) #2, !llfi_index !26
  ret void, !llfi_index !27
}

; Function Attrs: noinline uwtable
define internal void @__dtor_g() #0 section ".text.startup" {
  call void @__cxx_global_array_dtor(i8* null), !llfi_index !28
  ret void, !llfi_index !29
}

; Function Attrs: nounwind
declare dso_local i32 @atexit(void ()*) #2

; Function Attrs: noinline uwtable
define internal void @__cxx_global_array_dtor(i8* %0) #0 section ".text.startup" {
  %2 = alloca i8*, align 8, !llfi_index !30
  store i8* %0, i8** %2, align 8, !llfi_index !31
  br label %3, !llfi_index !32

3:                                                ; preds = %3, %1
  %4 = phi %"class.std::vector"* [ getelementptr inbounds (%"class.std::vector", %"class.std::vector"* getelementptr inbounds ([1048576 x %"class.std::vector"], [1048576 x %"class.std::vector"]* @g, i32 0, i32 0), i64 1048576), %1 ], [ %5, %3 ], !llfi_index !33
  %5 = getelementptr inbounds %"class.std::vector", %"class.std::vector"* %4, i64 -1, !llfi_index !34
  call void @_ZNSt6vectorIiSaIiEED2Ev(%"class.std::vector"* nonnull align 8 dereferenceable(24) %5) #2, !llfi_index !35
  %6 = icmp eq %"class.std::vector"* %5, getelementptr inbounds ([1048576 x %"class.std::vector"], [1048576 x %"class.std::vector"]* @g, i32 0, i32 0), !llfi_index !36
  br i1 %6, label %7, label %3, !llfi_index !37

7:                                                ; preds = %3
  ret void, !llfi_index !38
}

; Function Attrs: noinline nounwind uwtable
define linkonce_odr dso_local void @_ZNSt6vectorIiSaIiEED2Ev(%"class.std::vector"* nonnull align 8 dereferenceable(24) %0) unnamed_addr #1 comdat align 2 personality i8* bitcast (i32 (...)* @__gxx_personality_v0 to i8*) {
  %2 = alloca %"class.std::vector"*, align 8, !llfi_index !39
  %3 = alloca i8*, align 8, !llfi_index !40
  %4 = alloca i32, align 4, !llfi_index !41
  store %"class.std::vector"* %0, %"class.std::vector"** %2, align 8, !llfi_index !42
  %5 = load %"class.std::vector"*, %"class.std::vector"** %2, align 8, !llfi_index !43
  %6 = bitcast %"class.std::vector"* %5 to %"struct.std::_Vector_base"*, !llfi_index !44
  %7 = getelementptr inbounds %"struct.std::_Vector_base", %"struct.std::_Vector_base"* %6, i32 0, i32 0, !llfi_index !45
  %8 = bitcast %"struct.std::_Vector_base<int, std::allocator<int>>::_Vector_impl"* %7 to %"struct.std::_Vector_base<int, std::allocator<int>>::_Vector_impl_data"*, !llfi_index !46
  %9 = getelementptr inbounds %"struct.std::_Vector_base<int, std::allocator<int>>::_Vector_impl_data", %"struct.std::_Vector_base<int, std::allocator<int>>::_Vector_impl_data"* %8, i32 0, i32 0, !llfi_index !47
  %10 = load i32*, i32** %9, align 8, !llfi_index !48
  %11 = bitcast %"class.std::vector"* %5 to %"struct.std::_Vector_base"*, !llfi_index !49
  %12 = getelementptr inbounds %"struct.std::_Vector_base", %"struct.std::_Vector_base"* %11, i32 0, i32 0, !llfi_index !50
  %13 = bitcast %"struct.std::_Vector_base<int, std::allocator<int>>::_Vector_impl"* %12 to %"struct.std::_Vector_base<int, std::allocator<int>>::_Vector_impl_data"*, !llfi_index !51
  %14 = getelementptr inbounds %"struct.std::_Vector_base<int, std::allocator<int>>::_Vector_impl_data", %"struct.std::_Vector_base<int, std::allocator<int>>::_Vector_impl_data"* %13, i32 0, i32 1, !llfi_index !52
  %15 = load i32*, i32** %14, align 8, !llfi_index !53
  %16 = bitcast %"class.std::vector"* %5 to %"struct.std::_Vector_base"*, !llfi_index !54
  %17 = call nonnull align 1 dereferenceable(1) %"class.std::allocator"* @_ZNSt12_Vector_baseIiSaIiEE19_M_get_Tp_allocatorEv(%"struct.std::_Vector_base"* nonnull align 8 dereferenceable(24) %16) #2, !llfi_index !55
  invoke void @_ZSt8_DestroyIPiiEvT_S1_RSaIT0_E(i32* %10, i32* %15, %"class.std::allocator"* nonnull align 1 dereferenceable(1) %17)
          to label %18 unwind label %20, !llfi_index !56

18:                                               ; preds = %1
  %19 = bitcast %"class.std::vector"* %5 to %"struct.std::_Vector_base"*, !llfi_index !57
  call void @_ZNSt12_Vector_baseIiSaIiEED2Ev(%"struct.std::_Vector_base"* nonnull align 8 dereferenceable(24) %19) #2, !llfi_index !58
  ret void, !llfi_index !59

20:                                               ; preds = %1
  %21 = landingpad { i8*, i32 }
          catch i8* null, !llfi_index !60
  %22 = extractvalue { i8*, i32 } %21, 0, !llfi_index !61
  store i8* %22, i8** %3, align 8, !llfi_index !62
  %23 = extractvalue { i8*, i32 } %21, 1, !llfi_index !63
  store i32 %23, i32* %4, align 4, !llfi_index !64
  %24 = bitcast %"class.std::vector"* %5 to %"struct.std::_Vector_base"*, !llfi_index !65
  call void @_ZNSt12_Vector_baseIiSaIiEED2Ev(%"struct.std::_Vector_base"* nonnull align 8 dereferenceable(24) %24) #2, !llfi_index !66
  br label %25, !llfi_index !67

25:                                               ; preds = %20
  %26 = load i8*, i8** %3, align 8, !llfi_index !68
  call void @__clang_call_terminate(i8* %26) #13, !llfi_index !69
  unreachable, !llfi_index !70
}

declare dso_local i32 @__gxx_personality_v0(...)

; Function Attrs: mustprogress noinline nounwind uwtable
define linkonce_odr dso_local nonnull align 1 dereferenceable(1) %"class.std::allocator"* @_ZNSt12_Vector_baseIiSaIiEE19_M_get_Tp_allocatorEv(%"struct.std::_Vector_base"* nonnull align 8 dereferenceable(24) %0) #3 comdat align 2 {
  %2 = alloca %"struct.std::_Vector_base"*, align 8, !llfi_index !71
  store %"struct.std::_Vector_base"* %0, %"struct.std::_Vector_base"** %2, align 8, !llfi_index !72
  %3 = load %"struct.std::_Vector_base"*, %"struct.std::_Vector_base"** %2, align 8, !llfi_index !73
  %4 = getelementptr inbounds %"struct.std::_Vector_base", %"struct.std::_Vector_base"* %3, i32 0, i32 0, !llfi_index !74
  %5 = bitcast %"struct.std::_Vector_base<int, std::allocator<int>>::_Vector_impl"* %4 to %"class.std::allocator"*, !llfi_index !75
  ret %"class.std::allocator"* %5, !llfi_index !76
}

; Function Attrs: mustprogress noinline uwtable
define linkonce_odr dso_local void @_ZSt8_DestroyIPiiEvT_S1_RSaIT0_E(i32* %0, i32* %1, %"class.std::allocator"* nonnull align 1 dereferenceable(1) %2) #4 comdat {
  %4 = alloca i32*, align 8, !llfi_index !77
  %5 = alloca i32*, align 8, !llfi_index !78
  %6 = alloca %"class.std::allocator"*, align 8, !llfi_index !79
  store i32* %0, i32** %4, align 8, !llfi_index !80
  store i32* %1, i32** %5, align 8, !llfi_index !81
  store %"class.std::allocator"* %2, %"class.std::allocator"** %6, align 8, !llfi_index !82
  %7 = load i32*, i32** %4, align 8, !llfi_index !83
  %8 = load i32*, i32** %5, align 8, !llfi_index !84
  call void @_ZSt8_DestroyIPiEvT_S1_(i32* %7, i32* %8), !llfi_index !85
  ret void, !llfi_index !86
}

; Function Attrs: noinline nounwind uwtable
define linkonce_odr dso_local void @_ZNSt12_Vector_baseIiSaIiEED2Ev(%"struct.std::_Vector_base"* nonnull align 8 dereferenceable(24) %0) unnamed_addr #1 comdat align 2 personality i8* bitcast (i32 (...)* @__gxx_personality_v0 to i8*) {
  %2 = alloca %"struct.std::_Vector_base"*, align 8, !llfi_index !87
  %3 = alloca i8*, align 8, !llfi_index !88
  %4 = alloca i32, align 4, !llfi_index !89
  store %"struct.std::_Vector_base"* %0, %"struct.std::_Vector_base"** %2, align 8, !llfi_index !90
  %5 = load %"struct.std::_Vector_base"*, %"struct.std::_Vector_base"** %2, align 8, !llfi_index !91
  %6 = getelementptr inbounds %"struct.std::_Vector_base", %"struct.std::_Vector_base"* %5, i32 0, i32 0, !llfi_index !92
  %7 = bitcast %"struct.std::_Vector_base<int, std::allocator<int>>::_Vector_impl"* %6 to %"struct.std::_Vector_base<int, std::allocator<int>>::_Vector_impl_data"*, !llfi_index !93
  %8 = getelementptr inbounds %"struct.std::_Vector_base<int, std::allocator<int>>::_Vector_impl_data", %"struct.std::_Vector_base<int, std::allocator<int>>::_Vector_impl_data"* %7, i32 0, i32 0, !llfi_index !94
  %9 = load i32*, i32** %8, align 8, !llfi_index !95
  %10 = getelementptr inbounds %"struct.std::_Vector_base", %"struct.std::_Vector_base"* %5, i32 0, i32 0, !llfi_index !96
  %11 = bitcast %"struct.std::_Vector_base<int, std::allocator<int>>::_Vector_impl"* %10 to %"struct.std::_Vector_base<int, std::allocator<int>>::_Vector_impl_data"*, !llfi_index !97
  %12 = getelementptr inbounds %"struct.std::_Vector_base<int, std::allocator<int>>::_Vector_impl_data", %"struct.std::_Vector_base<int, std::allocator<int>>::_Vector_impl_data"* %11, i32 0, i32 2, !llfi_index !98
  %13 = load i32*, i32** %12, align 8, !llfi_index !99
  %14 = getelementptr inbounds %"struct.std::_Vector_base", %"struct.std::_Vector_base"* %5, i32 0, i32 0, !llfi_index !100
  %15 = bitcast %"struct.std::_Vector_base<int, std::allocator<int>>::_Vector_impl"* %14 to %"struct.std::_Vector_base<int, std::allocator<int>>::_Vector_impl_data"*, !llfi_index !101
  %16 = getelementptr inbounds %"struct.std::_Vector_base<int, std::allocator<int>>::_Vector_impl_data", %"struct.std::_Vector_base<int, std::allocator<int>>::_Vector_impl_data"* %15, i32 0, i32 0, !llfi_index !102
  %17 = load i32*, i32** %16, align 8, !llfi_index !103
  %18 = ptrtoint i32* %13 to i64, !llfi_index !104
  %19 = ptrtoint i32* %17 to i64, !llfi_index !105
  %20 = sub i64 %18, %19, !llfi_index !106
  %21 = sdiv exact i64 %20, 4, !llfi_index !107
  invoke void @_ZNSt12_Vector_baseIiSaIiEE13_M_deallocateEPim(%"struct.std::_Vector_base"* nonnull align 8 dereferenceable(24) %5, i32* %9, i64 %21)
          to label %22 unwind label %24, !llfi_index !108

22:                                               ; preds = %1
  %23 = getelementptr inbounds %"struct.std::_Vector_base", %"struct.std::_Vector_base"* %5, i32 0, i32 0, !llfi_index !109
  call void @_ZNSt12_Vector_baseIiSaIiEE12_Vector_implD2Ev(%"struct.std::_Vector_base<int, std::allocator<int>>::_Vector_impl"* nonnull align 8 dereferenceable(24) %23) #2, !llfi_index !110
  ret void, !llfi_index !111

24:                                               ; preds = %1
  %25 = landingpad { i8*, i32 }
          catch i8* null, !llfi_index !112
  %26 = extractvalue { i8*, i32 } %25, 0, !llfi_index !113
  store i8* %26, i8** %3, align 8, !llfi_index !114
  %27 = extractvalue { i8*, i32 } %25, 1, !llfi_index !115
  store i32 %27, i32* %4, align 4, !llfi_index !116
  %28 = getelementptr inbounds %"struct.std::_Vector_base", %"struct.std::_Vector_base"* %5, i32 0, i32 0, !llfi_index !117
  call void @_ZNSt12_Vector_baseIiSaIiEE12_Vector_implD2Ev(%"struct.std::_Vector_base<int, std::allocator<int>>::_Vector_impl"* nonnull align 8 dereferenceable(24) %28) #2, !llfi_index !118
  br label %29, !llfi_index !119

29:                                               ; preds = %24
  %30 = load i8*, i8** %3, align 8, !llfi_index !120
  call void @__clang_call_terminate(i8* %30) #13, !llfi_index !121
  unreachable, !llfi_index !122
}

; Function Attrs: noinline noreturn nounwind
define linkonce_odr hidden void @__clang_call_terminate(i8* %0) #5 comdat {
  %2 = call i8* @__cxa_begin_catch(i8* %0) #2, !llfi_index !123
  call void @_ZSt9terminatev() #13, !llfi_index !124
  unreachable, !llfi_index !125
}

declare dso_local i8* @__cxa_begin_catch(i8*)

declare dso_local void @_ZSt9terminatev()

; Function Attrs: mustprogress noinline uwtable
define linkonce_odr dso_local void @_ZNSt12_Vector_baseIiSaIiEE13_M_deallocateEPim(%"struct.std::_Vector_base"* nonnull align 8 dereferenceable(24) %0, i32* %1, i64 %2) #4 comdat align 2 {
  %4 = alloca %"struct.std::_Vector_base"*, align 8, !llfi_index !126
  %5 = alloca i32*, align 8, !llfi_index !127
  %6 = alloca i64, align 8, !llfi_index !128
  store %"struct.std::_Vector_base"* %0, %"struct.std::_Vector_base"** %4, align 8, !llfi_index !129
  store i32* %1, i32** %5, align 8, !llfi_index !130
  store i64 %2, i64* %6, align 8, !llfi_index !131
  %7 = load %"struct.std::_Vector_base"*, %"struct.std::_Vector_base"** %4, align 8, !llfi_index !132
  %8 = load i32*, i32** %5, align 8, !llfi_index !133
  %9 = icmp ne i32* %8, null, !llfi_index !134
  br i1 %9, label %10, label %15, !llfi_index !135

10:                                               ; preds = %3
  %11 = getelementptr inbounds %"struct.std::_Vector_base", %"struct.std::_Vector_base"* %7, i32 0, i32 0, !llfi_index !136
  %12 = bitcast %"struct.std::_Vector_base<int, std::allocator<int>>::_Vector_impl"* %11 to %"class.std::allocator"*, !llfi_index !137
  %13 = load i32*, i32** %5, align 8, !llfi_index !138
  %14 = load i64, i64* %6, align 8, !llfi_index !139
  call void @_ZNSt16allocator_traitsISaIiEE10deallocateERS0_Pim(%"class.std::allocator"* nonnull align 1 dereferenceable(1) %12, i32* %13, i64 %14), !llfi_index !140
  br label %15, !llfi_index !141

15:                                               ; preds = %10, %3
  ret void, !llfi_index !142
}

; Function Attrs: noinline nounwind uwtable
define linkonce_odr dso_local void @_ZNSt12_Vector_baseIiSaIiEE12_Vector_implD2Ev(%"struct.std::_Vector_base<int, std::allocator<int>>::_Vector_impl"* nonnull align 8 dereferenceable(24) %0) unnamed_addr #1 comdat align 2 {
  %2 = alloca %"struct.std::_Vector_base<int, std::allocator<int>>::_Vector_impl"*, align 8, !llfi_index !143
  store %"struct.std::_Vector_base<int, std::allocator<int>>::_Vector_impl"* %0, %"struct.std::_Vector_base<int, std::allocator<int>>::_Vector_impl"** %2, align 8, !llfi_index !144
  %3 = load %"struct.std::_Vector_base<int, std::allocator<int>>::_Vector_impl"*, %"struct.std::_Vector_base<int, std::allocator<int>>::_Vector_impl"** %2, align 8, !llfi_index !145
  %4 = bitcast %"struct.std::_Vector_base<int, std::allocator<int>>::_Vector_impl"* %3 to %"class.std::allocator"*, !llfi_index !146
  call void @_ZNSaIiED2Ev(%"class.std::allocator"* nonnull align 1 dereferenceable(1) %4) #2, !llfi_index !147
  ret void, !llfi_index !148
}

; Function Attrs: noinline nounwind uwtable
define linkonce_odr dso_local void @_ZNSaIiED2Ev(%"class.std::allocator"* nonnull align 1 dereferenceable(1) %0) unnamed_addr #1 comdat align 2 {
  %2 = alloca %"class.std::allocator"*, align 8, !llfi_index !149
  store %"class.std::allocator"* %0, %"class.std::allocator"** %2, align 8, !llfi_index !150
  %3 = load %"class.std::allocator"*, %"class.std::allocator"** %2, align 8, !llfi_index !151
  %4 = bitcast %"class.std::allocator"* %3 to %"class.std::allocator"*, !llfi_index !152
  call void @_ZN9__gnu_cxx13new_allocatorIiED2Ev(%"class.std::allocator"* nonnull align 1 dereferenceable(1) %4) #2, !llfi_index !153
  ret void, !llfi_index !154
}

; Function Attrs: noinline nounwind uwtable
define linkonce_odr dso_local void @_ZN9__gnu_cxx13new_allocatorIiED2Ev(%"class.std::allocator"* nonnull align 1 dereferenceable(1) %0) unnamed_addr #1 comdat align 2 {
  %2 = alloca %"class.std::allocator"*, align 8, !llfi_index !155
  store %"class.std::allocator"* %0, %"class.std::allocator"** %2, align 8, !llfi_index !156
  %3 = load %"class.std::allocator"*, %"class.std::allocator"** %2, align 8, !llfi_index !157
  ret void, !llfi_index !158
}

; Function Attrs: mustprogress noinline uwtable
define linkonce_odr dso_local void @_ZNSt16allocator_traitsISaIiEE10deallocateERS0_Pim(%"class.std::allocator"* nonnull align 1 dereferenceable(1) %0, i32* %1, i64 %2) #4 comdat align 2 {
  %4 = alloca %"class.std::allocator"*, align 8, !llfi_index !159
  %5 = alloca i32*, align 8, !llfi_index !160
  %6 = alloca i64, align 8, !llfi_index !161
  store %"class.std::allocator"* %0, %"class.std::allocator"** %4, align 8, !llfi_index !162
  store i32* %1, i32** %5, align 8, !llfi_index !163
  store i64 %2, i64* %6, align 8, !llfi_index !164
  %7 = load %"class.std::allocator"*, %"class.std::allocator"** %4, align 8, !llfi_index !165
  %8 = bitcast %"class.std::allocator"* %7 to %"class.std::allocator"*, !llfi_index !166
  %9 = load i32*, i32** %5, align 8, !llfi_index !167
  %10 = load i64, i64* %6, align 8, !llfi_index !168
  call void @_ZN9__gnu_cxx13new_allocatorIiE10deallocateEPim(%"class.std::allocator"* nonnull align 1 dereferenceable(1) %8, i32* %9, i64 %10), !llfi_index !169
  ret void, !llfi_index !170
}

; Function Attrs: mustprogress noinline nounwind uwtable
define linkonce_odr dso_local void @_ZN9__gnu_cxx13new_allocatorIiE10deallocateEPim(%"class.std::allocator"* nonnull align 1 dereferenceable(1) %0, i32* %1, i64 %2) #3 comdat align 2 {
  %4 = alloca %"class.std::allocator"*, align 8, !llfi_index !171
  %5 = alloca i32*, align 8, !llfi_index !172
  %6 = alloca i64, align 8, !llfi_index !173
  store %"class.std::allocator"* %0, %"class.std::allocator"** %4, align 8, !llfi_index !174
  store i32* %1, i32** %5, align 8, !llfi_index !175
  store i64 %2, i64* %6, align 8, !llfi_index !176
  %7 = load %"class.std::allocator"*, %"class.std::allocator"** %4, align 8, !llfi_index !177
  %8 = load i32*, i32** %5, align 8, !llfi_index !178
  %9 = bitcast i32* %8 to i8*, !llfi_index !179
  call void @_ZdlPv(i8* %9) #2, !llfi_index !180
  ret void, !llfi_index !181
}

; Function Attrs: nobuiltin nounwind
declare dso_local void @_ZdlPv(i8*) #6

; Function Attrs: mustprogress noinline uwtable
define linkonce_odr dso_local void @_ZSt8_DestroyIPiEvT_S1_(i32* %0, i32* %1) #4 comdat {
  %3 = alloca i32*, align 8, !llfi_index !182
  %4 = alloca i32*, align 8, !llfi_index !183
  store i32* %0, i32** %3, align 8, !llfi_index !184
  store i32* %1, i32** %4, align 8, !llfi_index !185
  %5 = load i32*, i32** %3, align 8, !llfi_index !186
  %6 = load i32*, i32** %4, align 8, !llfi_index !187
  call void @_ZNSt12_Destroy_auxILb1EE9__destroyIPiEEvT_S3_(i32* %5, i32* %6), !llfi_index !188
  ret void, !llfi_index !189
}

; Function Attrs: mustprogress noinline nounwind uwtable
define linkonce_odr dso_local void @_ZNSt12_Destroy_auxILb1EE9__destroyIPiEEvT_S3_(i32* %0, i32* %1) #3 comdat align 2 {
  %3 = alloca i32*, align 8, !llfi_index !190
  %4 = alloca i32*, align 8, !llfi_index !191
  store i32* %0, i32** %3, align 8, !llfi_index !192
  store i32* %1, i32** %4, align 8, !llfi_index !193
  ret void, !llfi_index !194
}

; Function Attrs: noinline nounwind uwtable
define linkonce_odr dso_local void @_ZNSt12_Vector_baseIiSaIiEEC2Ev(%"struct.std::_Vector_base"* nonnull align 8 dereferenceable(24) %0) unnamed_addr #1 comdat align 2 {
  %2 = alloca %"struct.std::_Vector_base"*, align 8, !llfi_index !195
  store %"struct.std::_Vector_base"* %0, %"struct.std::_Vector_base"** %2, align 8, !llfi_index !196
  %3 = load %"struct.std::_Vector_base"*, %"struct.std::_Vector_base"** %2, align 8, !llfi_index !197
  %4 = getelementptr inbounds %"struct.std::_Vector_base", %"struct.std::_Vector_base"* %3, i32 0, i32 0, !llfi_index !198
  call void @_ZNSt12_Vector_baseIiSaIiEE12_Vector_implC2Ev(%"struct.std::_Vector_base<int, std::allocator<int>>::_Vector_impl"* nonnull align 8 dereferenceable(24) %4) #2, !llfi_index !199
  ret void, !llfi_index !200
}

; Function Attrs: noinline nounwind uwtable
define linkonce_odr dso_local void @_ZNSt12_Vector_baseIiSaIiEE12_Vector_implC2Ev(%"struct.std::_Vector_base<int, std::allocator<int>>::_Vector_impl"* nonnull align 8 dereferenceable(24) %0) unnamed_addr #1 comdat align 2 {
  %2 = alloca %"struct.std::_Vector_base<int, std::allocator<int>>::_Vector_impl"*, align 8, !llfi_index !201
  store %"struct.std::_Vector_base<int, std::allocator<int>>::_Vector_impl"* %0, %"struct.std::_Vector_base<int, std::allocator<int>>::_Vector_impl"** %2, align 8, !llfi_index !202
  %3 = load %"struct.std::_Vector_base<int, std::allocator<int>>::_Vector_impl"*, %"struct.std::_Vector_base<int, std::allocator<int>>::_Vector_impl"** %2, align 8, !llfi_index !203
  %4 = bitcast %"struct.std::_Vector_base<int, std::allocator<int>>::_Vector_impl"* %3 to %"class.std::allocator"*, !llfi_index !204
  call void @_ZNSaIiEC2Ev(%"class.std::allocator"* nonnull align 1 dereferenceable(1) %4) #2, !llfi_index !205
  %5 = bitcast %"struct.std::_Vector_base<int, std::allocator<int>>::_Vector_impl"* %3 to %"struct.std::_Vector_base<int, std::allocator<int>>::_Vector_impl_data"*, !llfi_index !206
  call void @_ZNSt12_Vector_baseIiSaIiEE17_Vector_impl_dataC2Ev(%"struct.std::_Vector_base<int, std::allocator<int>>::_Vector_impl_data"* nonnull align 8 dereferenceable(24) %5) #2, !llfi_index !207
  ret void, !llfi_index !208
}

; Function Attrs: noinline nounwind uwtable
define linkonce_odr dso_local void @_ZNSaIiEC2Ev(%"class.std::allocator"* nonnull align 1 dereferenceable(1) %0) unnamed_addr #1 comdat align 2 {
  %2 = alloca %"class.std::allocator"*, align 8, !llfi_index !209
  store %"class.std::allocator"* %0, %"class.std::allocator"** %2, align 8, !llfi_index !210
  %3 = load %"class.std::allocator"*, %"class.std::allocator"** %2, align 8, !llfi_index !211
  %4 = bitcast %"class.std::allocator"* %3 to %"class.std::allocator"*, !llfi_index !212
  call void @_ZN9__gnu_cxx13new_allocatorIiEC2Ev(%"class.std::allocator"* nonnull align 1 dereferenceable(1) %4) #2, !llfi_index !213
  ret void, !llfi_index !214
}

; Function Attrs: noinline nounwind uwtable
define linkonce_odr dso_local void @_ZNSt12_Vector_baseIiSaIiEE17_Vector_impl_dataC2Ev(%"struct.std::_Vector_base<int, std::allocator<int>>::_Vector_impl_data"* nonnull align 8 dereferenceable(24) %0) unnamed_addr #1 comdat align 2 {
  %2 = alloca %"struct.std::_Vector_base<int, std::allocator<int>>::_Vector_impl_data"*, align 8, !llfi_index !215
  store %"struct.std::_Vector_base<int, std::allocator<int>>::_Vector_impl_data"* %0, %"struct.std::_Vector_base<int, std::allocator<int>>::_Vector_impl_data"** %2, align 8, !llfi_index !216
  %3 = load %"struct.std::_Vector_base<int, std::allocator<int>>::_Vector_impl_data"*, %"struct.std::_Vector_base<int, std::allocator<int>>::_Vector_impl_data"** %2, align 8, !llfi_index !217
  %4 = getelementptr inbounds %"struct.std::_Vector_base<int, std::allocator<int>>::_Vector_impl_data", %"struct.std::_Vector_base<int, std::allocator<int>>::_Vector_impl_data"* %3, i32 0, i32 0, !llfi_index !218
  store i32* null, i32** %4, align 8, !llfi_index !219
  %5 = getelementptr inbounds %"struct.std::_Vector_base<int, std::allocator<int>>::_Vector_impl_data", %"struct.std::_Vector_base<int, std::allocator<int>>::_Vector_impl_data"* %3, i32 0, i32 1, !llfi_index !220
  store i32* null, i32** %5, align 8, !llfi_index !221
  %6 = getelementptr inbounds %"struct.std::_Vector_base<int, std::allocator<int>>::_Vector_impl_data", %"struct.std::_Vector_base<int, std::allocator<int>>::_Vector_impl_data"* %3, i32 0, i32 2, !llfi_index !222
  store i32* null, i32** %6, align 8, !llfi_index !223
  ret void, !llfi_index !224
}

; Function Attrs: noinline nounwind uwtable
define linkonce_odr dso_local void @_ZN9__gnu_cxx13new_allocatorIiEC2Ev(%"class.std::allocator"* nonnull align 1 dereferenceable(1) %0) unnamed_addr #1 comdat align 2 {
  %2 = alloca %"class.std::allocator"*, align 8, !llfi_index !225
  store %"class.std::allocator"* %0, %"class.std::allocator"** %2, align 8, !llfi_index !226
  %3 = load %"class.std::allocator"*, %"class.std::allocator"** %2, align 8, !llfi_index !227
  ret void, !llfi_index !228
}

; Function Attrs: nounwind
declare dso_local double @acos(double) #7

declare dso_local void @_ZNSt8ios_base4InitC1Ev(%"class.std::allocator"* nonnull align 1 dereferenceable(1)) unnamed_addr #8

; Function Attrs: noinline uwtable
define internal void @__dtor__ZStL8__ioinit() #0 section ".text.startup" {
  call void @_ZNSt8ios_base4InitD1Ev(%"class.std::allocator"* @_ZStL8__ioinit), !llfi_index !229
  ret void, !llfi_index !230
}

; Function Attrs: nounwind
declare dso_local void @_ZNSt8ios_base4InitD1Ev(%"class.std::allocator"* nonnull align 1 dereferenceable(1)) unnamed_addr #7

; Function Attrs: mustprogress noinline uwtable
define dso_local i32 @_Z3dfsiii(i32 %0, i32 %1, i32 %2) #4 {
  %4 = alloca i32, align 4, !llfi_index !231
  %5 = alloca i32, align 4, !llfi_index !232
  %6 = alloca i32, align 4, !llfi_index !233
  %7 = alloca i32, align 4, !llfi_index !234
  %8 = alloca %"class.std::vector"*, align 8, !llfi_index !235
  %9 = alloca %"class.__gnu_cxx::__normal_iterator", align 8, !llfi_index !236
  %10 = alloca %"class.__gnu_cxx::__normal_iterator", align 8, !llfi_index !237
  %11 = alloca i32, align 4, !llfi_index !238
  %12 = alloca i32, align 4, !llfi_index !239
  store i32 %0, i32* %4, align 4, !llfi_index !240
  store i32 %1, i32* %5, align 4, !llfi_index !241
  store i32 %2, i32* %6, align 4, !llfi_index !242
  store i32 1, i32* %7, align 4, !llfi_index !243
  %13 = load i32, i32* %4, align 4, !llfi_index !244
  %14 = sext i32 %13 to i64, !llfi_index !245
  %15 = getelementptr inbounds [1048576 x %"class.std::vector"], [1048576 x %"class.std::vector"]* @g, i64 0, i64 %14, !llfi_index !246
  store %"class.std::vector"* %15, %"class.std::vector"** %8, align 8, !llfi_index !247
  %16 = load %"class.std::vector"*, %"class.std::vector"** %8, align 8, !llfi_index !248
  %17 = call i32* @_ZNSt6vectorIiSaIiEE5beginEv(%"class.std::vector"* nonnull align 8 dereferenceable(24) %16) #2, !llfi_index !249
  %18 = getelementptr inbounds %"class.__gnu_cxx::__normal_iterator", %"class.__gnu_cxx::__normal_iterator"* %9, i32 0, i32 0, !llfi_index !250
  store i32* %17, i32** %18, align 8, !llfi_index !251
  %19 = load %"class.std::vector"*, %"class.std::vector"** %8, align 8, !llfi_index !252
  %20 = call i32* @_ZNSt6vectorIiSaIiEE3endEv(%"class.std::vector"* nonnull align 8 dereferenceable(24) %19) #2, !llfi_index !253
  %21 = getelementptr inbounds %"class.__gnu_cxx::__normal_iterator", %"class.__gnu_cxx::__normal_iterator"* %10, i32 0, i32 0, !llfi_index !254
  store i32* %20, i32** %21, align 8, !llfi_index !255
  br label %22, !llfi_index !256

22:                                               ; preds = %55, %3
  %23 = call zeroext i1 @_ZN9__gnu_cxxneIPiSt6vectorIiSaIiEEEEbRKNS_17__normal_iteratorIT_T0_EESA_(%"class.__gnu_cxx::__normal_iterator"* nonnull align 8 dereferenceable(8) %9, %"class.__gnu_cxx::__normal_iterator"* nonnull align 8 dereferenceable(8) %10) #2, !llfi_index !257
  br i1 %23, label %24, label %57, !llfi_index !258

24:                                               ; preds = %22
  %25 = call nonnull align 4 dereferenceable(4) i32* @_ZNK9__gnu_cxx17__normal_iteratorIPiSt6vectorIiSaIiEEEdeEv(%"class.__gnu_cxx::__normal_iterator"* nonnull align 8 dereferenceable(8) %9) #2, !llfi_index !259
  %26 = load i32, i32* %25, align 4, !llfi_index !260
  store i32 %26, i32* %11, align 4, !llfi_index !261
  %27 = load i32, i32* %11, align 4, !llfi_index !262
  %28 = load i32, i32* %5, align 4, !llfi_index !263
  %29 = icmp eq i32 %27, %28, !llfi_index !264
  br i1 %29, label %30, label %31, !llfi_index !265

30:                                               ; preds = %24
  br label %55, !llfi_index !266

31:                                               ; preds = %24
  %32 = load i32, i32* %11, align 4, !llfi_index !267
  %33 = load i32, i32* %4, align 4, !llfi_index !268
  %34 = load i32, i32* %6, align 4, !llfi_index !269
  %35 = add nsw i32 %34, 1, !llfi_index !270
  %36 = call i32 @_Z3dfsiii(i32 %32, i32 %33, i32 %35), !llfi_index !271
  store i32 %36, i32* %12, align 4, !llfi_index !272
  %37 = load i32, i32* %12, align 4, !llfi_index !273
  %38 = load i32, i32* %7, align 4, !llfi_index !274
  %39 = add nsw i32 %38, %37, !llfi_index !275
  store i32 %39, i32* %7, align 4, !llfi_index !276
  %40 = load i32, i32* @n, align 4, !llfi_index !277
  %41 = load i32, i32* %12, align 4, !llfi_index !278
  %42 = sub nsw i32 %40, %41, !llfi_index !279
  %43 = sext i32 %42 to i64, !llfi_index !280
  %44 = load i32, i32* %6, align 4, !llfi_index !281
  %45 = add nsw i32 %44, 1, !llfi_index !282
  %46 = sext i32 %45 to i64, !llfi_index !283
  %47 = mul nsw i64 %43, %46, !llfi_index !284
  %48 = load i64, i64* @s1, align 8, !llfi_index !285
  %49 = add nsw i64 %48, %47, !llfi_index !286
  store i64 %49, i64* @s1, align 8, !llfi_index !287
  %50 = load i32, i32* %6, align 4, !llfi_index !288
  %51 = add nsw i32 %50, 1, !llfi_index !289
  %52 = sext i32 %51 to i64, !llfi_index !290
  %53 = load i64, i64* @s2, align 8, !llfi_index !291
  %54 = add nsw i64 %53, %52, !llfi_index !292
  store i64 %54, i64* @s2, align 8, !llfi_index !293
  br label %55, !llfi_index !294

55:                                               ; preds = %31, %30
  %56 = call nonnull align 8 dereferenceable(8) %"class.__gnu_cxx::__normal_iterator"* @_ZN9__gnu_cxx17__normal_iteratorIPiSt6vectorIiSaIiEEEppEv(%"class.__gnu_cxx::__normal_iterator"* nonnull align 8 dereferenceable(8) %9) #2, !llfi_index !295
  br label %22, !llfi_index !296

57:                                               ; preds = %22
  %58 = load i32, i32* %7, align 4, !llfi_index !297
  ret i32 %58, !llfi_index !298
}

; Function Attrs: mustprogress noinline nounwind uwtable
define linkonce_odr dso_local i32* @_ZNSt6vectorIiSaIiEE5beginEv(%"class.std::vector"* nonnull align 8 dereferenceable(24) %0) #3 comdat align 2 {
  %2 = alloca %"class.__gnu_cxx::__normal_iterator", align 8, !llfi_index !299
  %3 = alloca %"class.std::vector"*, align 8, !llfi_index !300
  store %"class.std::vector"* %0, %"class.std::vector"** %3, align 8, !llfi_index !301
  %4 = load %"class.std::vector"*, %"class.std::vector"** %3, align 8, !llfi_index !302
  %5 = bitcast %"class.std::vector"* %4 to %"struct.std::_Vector_base"*, !llfi_index !303
  %6 = getelementptr inbounds %"struct.std::_Vector_base", %"struct.std::_Vector_base"* %5, i32 0, i32 0, !llfi_index !304
  %7 = bitcast %"struct.std::_Vector_base<int, std::allocator<int>>::_Vector_impl"* %6 to %"struct.std::_Vector_base<int, std::allocator<int>>::_Vector_impl_data"*, !llfi_index !305
  %8 = getelementptr inbounds %"struct.std::_Vector_base<int, std::allocator<int>>::_Vector_impl_data", %"struct.std::_Vector_base<int, std::allocator<int>>::_Vector_impl_data"* %7, i32 0, i32 0, !llfi_index !306
  call void @_ZN9__gnu_cxx17__normal_iteratorIPiSt6vectorIiSaIiEEEC2ERKS1_(%"class.__gnu_cxx::__normal_iterator"* nonnull align 8 dereferenceable(8) %2, i32** nonnull align 8 dereferenceable(8) %8) #2, !llfi_index !307
  %9 = getelementptr inbounds %"class.__gnu_cxx::__normal_iterator", %"class.__gnu_cxx::__normal_iterator"* %2, i32 0, i32 0, !llfi_index !308
  %10 = load i32*, i32** %9, align 8, !llfi_index !309
  ret i32* %10, !llfi_index !310
}

; Function Attrs: mustprogress noinline nounwind uwtable
define linkonce_odr dso_local i32* @_ZNSt6vectorIiSaIiEE3endEv(%"class.std::vector"* nonnull align 8 dereferenceable(24) %0) #3 comdat align 2 {
  %2 = alloca %"class.__gnu_cxx::__normal_iterator", align 8, !llfi_index !311
  %3 = alloca %"class.std::vector"*, align 8, !llfi_index !312
  store %"class.std::vector"* %0, %"class.std::vector"** %3, align 8, !llfi_index !313
  %4 = load %"class.std::vector"*, %"class.std::vector"** %3, align 8, !llfi_index !314
  %5 = bitcast %"class.std::vector"* %4 to %"struct.std::_Vector_base"*, !llfi_index !315
  %6 = getelementptr inbounds %"struct.std::_Vector_base", %"struct.std::_Vector_base"* %5, i32 0, i32 0, !llfi_index !316
  %7 = bitcast %"struct.std::_Vector_base<int, std::allocator<int>>::_Vector_impl"* %6 to %"struct.std::_Vector_base<int, std::allocator<int>>::_Vector_impl_data"*, !llfi_index !317
  %8 = getelementptr inbounds %"struct.std::_Vector_base<int, std::allocator<int>>::_Vector_impl_data", %"struct.std::_Vector_base<int, std::allocator<int>>::_Vector_impl_data"* %7, i32 0, i32 1, !llfi_index !318
  call void @_ZN9__gnu_cxx17__normal_iteratorIPiSt6vectorIiSaIiEEEC2ERKS1_(%"class.__gnu_cxx::__normal_iterator"* nonnull align 8 dereferenceable(8) %2, i32** nonnull align 8 dereferenceable(8) %8) #2, !llfi_index !319
  %9 = getelementptr inbounds %"class.__gnu_cxx::__normal_iterator", %"class.__gnu_cxx::__normal_iterator"* %2, i32 0, i32 0, !llfi_index !320
  %10 = load i32*, i32** %9, align 8, !llfi_index !321
  ret i32* %10, !llfi_index !322
}

; Function Attrs: mustprogress noinline nounwind uwtable
define linkonce_odr dso_local zeroext i1 @_ZN9__gnu_cxxneIPiSt6vectorIiSaIiEEEEbRKNS_17__normal_iteratorIT_T0_EESA_(%"class.__gnu_cxx::__normal_iterator"* nonnull align 8 dereferenceable(8) %0, %"class.__gnu_cxx::__normal_iterator"* nonnull align 8 dereferenceable(8) %1) #3 comdat {
  %3 = alloca %"class.__gnu_cxx::__normal_iterator"*, align 8, !llfi_index !323
  %4 = alloca %"class.__gnu_cxx::__normal_iterator"*, align 8, !llfi_index !324
  store %"class.__gnu_cxx::__normal_iterator"* %0, %"class.__gnu_cxx::__normal_iterator"** %3, align 8, !llfi_index !325
  store %"class.__gnu_cxx::__normal_iterator"* %1, %"class.__gnu_cxx::__normal_iterator"** %4, align 8, !llfi_index !326
  %5 = load %"class.__gnu_cxx::__normal_iterator"*, %"class.__gnu_cxx::__normal_iterator"** %3, align 8, !llfi_index !327
  %6 = call nonnull align 8 dereferenceable(8) i32** @_ZNK9__gnu_cxx17__normal_iteratorIPiSt6vectorIiSaIiEEE4baseEv(%"class.__gnu_cxx::__normal_iterator"* nonnull align 8 dereferenceable(8) %5) #2, !llfi_index !328
  %7 = load i32*, i32** %6, align 8, !llfi_index !329
  %8 = load %"class.__gnu_cxx::__normal_iterator"*, %"class.__gnu_cxx::__normal_iterator"** %4, align 8, !llfi_index !330
  %9 = call nonnull align 8 dereferenceable(8) i32** @_ZNK9__gnu_cxx17__normal_iteratorIPiSt6vectorIiSaIiEEE4baseEv(%"class.__gnu_cxx::__normal_iterator"* nonnull align 8 dereferenceable(8) %8) #2, !llfi_index !331
  %10 = load i32*, i32** %9, align 8, !llfi_index !332
  %11 = icmp ne i32* %7, %10, !llfi_index !333
  ret i1 %11, !llfi_index !334
}

; Function Attrs: mustprogress noinline nounwind uwtable
define linkonce_odr dso_local nonnull align 4 dereferenceable(4) i32* @_ZNK9__gnu_cxx17__normal_iteratorIPiSt6vectorIiSaIiEEEdeEv(%"class.__gnu_cxx::__normal_iterator"* nonnull align 8 dereferenceable(8) %0) #3 comdat align 2 {
  %2 = alloca %"class.__gnu_cxx::__normal_iterator"*, align 8, !llfi_index !335
  store %"class.__gnu_cxx::__normal_iterator"* %0, %"class.__gnu_cxx::__normal_iterator"** %2, align 8, !llfi_index !336
  %3 = load %"class.__gnu_cxx::__normal_iterator"*, %"class.__gnu_cxx::__normal_iterator"** %2, align 8, !llfi_index !337
  %4 = getelementptr inbounds %"class.__gnu_cxx::__normal_iterator", %"class.__gnu_cxx::__normal_iterator"* %3, i32 0, i32 0, !llfi_index !338
  %5 = load i32*, i32** %4, align 8, !llfi_index !339
  ret i32* %5, !llfi_index !340
}

; Function Attrs: mustprogress noinline nounwind uwtable
define linkonce_odr dso_local nonnull align 8 dereferenceable(8) %"class.__gnu_cxx::__normal_iterator"* @_ZN9__gnu_cxx17__normal_iteratorIPiSt6vectorIiSaIiEEEppEv(%"class.__gnu_cxx::__normal_iterator"* nonnull align 8 dereferenceable(8) %0) #3 comdat align 2 {
  %2 = alloca %"class.__gnu_cxx::__normal_iterator"*, align 8, !llfi_index !341
  store %"class.__gnu_cxx::__normal_iterator"* %0, %"class.__gnu_cxx::__normal_iterator"** %2, align 8, !llfi_index !342
  %3 = load %"class.__gnu_cxx::__normal_iterator"*, %"class.__gnu_cxx::__normal_iterator"** %2, align 8, !llfi_index !343
  %4 = getelementptr inbounds %"class.__gnu_cxx::__normal_iterator", %"class.__gnu_cxx::__normal_iterator"* %3, i32 0, i32 0, !llfi_index !344
  %5 = load i32*, i32** %4, align 8, !llfi_index !345
  %6 = getelementptr inbounds i32, i32* %5, i32 1, !llfi_index !346
  store i32* %6, i32** %4, align 8, !llfi_index !347
  ret %"class.__gnu_cxx::__normal_iterator"* %3, !llfi_index !348
}

; Function Attrs: mustprogress noinline nounwind uwtable
define linkonce_odr dso_local nonnull align 8 dereferenceable(8) i32** @_ZNK9__gnu_cxx17__normal_iteratorIPiSt6vectorIiSaIiEEE4baseEv(%"class.__gnu_cxx::__normal_iterator"* nonnull align 8 dereferenceable(8) %0) #3 comdat align 2 {
  %2 = alloca %"class.__gnu_cxx::__normal_iterator"*, align 8, !llfi_index !349
  store %"class.__gnu_cxx::__normal_iterator"* %0, %"class.__gnu_cxx::__normal_iterator"** %2, align 8, !llfi_index !350
  %3 = load %"class.__gnu_cxx::__normal_iterator"*, %"class.__gnu_cxx::__normal_iterator"** %2, align 8, !llfi_index !351
  %4 = getelementptr inbounds %"class.__gnu_cxx::__normal_iterator", %"class.__gnu_cxx::__normal_iterator"* %3, i32 0, i32 0, !llfi_index !352
  ret i32** %4, !llfi_index !353
}

; Function Attrs: noinline nounwind uwtable
define linkonce_odr dso_local void @_ZN9__gnu_cxx17__normal_iteratorIPiSt6vectorIiSaIiEEEC2ERKS1_(%"class.__gnu_cxx::__normal_iterator"* nonnull align 8 dereferenceable(8) %0, i32** nonnull align 8 dereferenceable(8) %1) unnamed_addr #1 comdat align 2 {
  %3 = alloca %"class.__gnu_cxx::__normal_iterator"*, align 8, !llfi_index !354
  %4 = alloca i32**, align 8, !llfi_index !355
  store %"class.__gnu_cxx::__normal_iterator"* %0, %"class.__gnu_cxx::__normal_iterator"** %3, align 8, !llfi_index !356
  store i32** %1, i32*** %4, align 8, !llfi_index !357
  %5 = load %"class.__gnu_cxx::__normal_iterator"*, %"class.__gnu_cxx::__normal_iterator"** %3, align 8, !llfi_index !358
  %6 = getelementptr inbounds %"class.__gnu_cxx::__normal_iterator", %"class.__gnu_cxx::__normal_iterator"* %5, i32 0, i32 0, !llfi_index !359
  %7 = load i32**, i32*** %4, align 8, !llfi_index !360
  %8 = load i32*, i32** %7, align 8, !llfi_index !361
  store i32* %8, i32** %6, align 8, !llfi_index !362
  ret void, !llfi_index !363
}

; Function Attrs: mustprogress noinline norecurse uwtable
define dso_local i32 @main() #9 {
  %1 = alloca i32, align 4, !llfi_index !364
  %2 = alloca i32, align 4, !llfi_index !365
  %3 = alloca i32, align 4, !llfi_index !366
  %4 = alloca i32, align 4, !llfi_index !367
  %5 = alloca i32, align 4, !llfi_index !368
  store i32 0, i32* %1, align 4, !llfi_index !369
  %6 = load %struct._IO_FILE*, %struct._IO_FILE** @stdin, align 8, !llfi_index !370
  %7 = call %struct._IO_FILE* @freopen(i8* getelementptr inbounds ([27 x i8], [27 x i8]* @.str, i64 0, i64 0), i8* getelementptr inbounds ([2 x i8], [2 x i8]* @.str.3, i64 0, i64 0), %struct._IO_FILE* %6), !llfi_index !371
  %8 = call zeroext i1 @_ZNSt8ios_base15sync_with_stdioEb(i1 zeroext false), !llfi_index !372
  %9 = call nonnull align 8 dereferenceable(16) %"class.std::basic_istream"* @_ZNSirsERi(%"class.std::basic_istream"* nonnull align 8 dereferenceable(16) @_ZSt3cin, i32* nonnull align 4 dereferenceable(4) @n), !llfi_index !373
  store i32 89, i32* %2, align 4, !llfi_index !374
  store i32 0, i32* %3, align 4, !llfi_index !375
  br label %10, !llfi_index !376

10:                                               ; preds = %28, %0
  %11 = load i32, i32* %3, align 4, !llfi_index !377
  %12 = load i32, i32* @n, align 4, !llfi_index !378
  %13 = sub nsw i32 %12, 1, !llfi_index !379
  %14 = icmp slt i32 %11, %13, !llfi_index !380
  br i1 %14, label %15, label %31, !llfi_index !381

15:                                               ; preds = %10
  %16 = call nonnull align 8 dereferenceable(16) %"class.std::basic_istream"* @_ZNSirsERi(%"class.std::basic_istream"* nonnull align 8 dereferenceable(16) @_ZSt3cin, i32* nonnull align 4 dereferenceable(4) %4), !llfi_index !382
  %17 = call nonnull align 8 dereferenceable(16) %"class.std::basic_istream"* @_ZNSirsERi(%"class.std::basic_istream"* nonnull align 8 dereferenceable(16) %16, i32* nonnull align 4 dereferenceable(4) %5), !llfi_index !383
  %18 = load i32, i32* %4, align 4, !llfi_index !384
  %19 = add nsw i32 %18, -1, !llfi_index !385
  store i32 %19, i32* %4, align 4, !llfi_index !386
  %20 = load i32, i32* %5, align 4, !llfi_index !387
  %21 = add nsw i32 %20, -1, !llfi_index !388
  store i32 %21, i32* %5, align 4, !llfi_index !389
  %22 = load i32, i32* %4, align 4, !llfi_index !390
  %23 = sext i32 %22 to i64, !llfi_index !391
  %24 = getelementptr inbounds [1048576 x %"class.std::vector"], [1048576 x %"class.std::vector"]* @g, i64 0, i64 %23, !llfi_index !392
  call void @_ZNSt6vectorIiSaIiEE9push_backERKi(%"class.std::vector"* nonnull align 8 dereferenceable(24) %24, i32* nonnull align 4 dereferenceable(4) %5), !llfi_index !393
  %25 = load i32, i32* %5, align 4, !llfi_index !394
  %26 = sext i32 %25 to i64, !llfi_index !395
  %27 = getelementptr inbounds [1048576 x %"class.std::vector"], [1048576 x %"class.std::vector"]* @g, i64 0, i64 %26, !llfi_index !396
  call void @_ZNSt6vectorIiSaIiEE9push_backERKi(%"class.std::vector"* nonnull align 8 dereferenceable(24) %27, i32* nonnull align 4 dereferenceable(4) %4), !llfi_index !397
  br label %28, !llfi_index !398

28:                                               ; preds = %15
  %29 = load i32, i32* %3, align 4, !llfi_index !399
  %30 = add nsw i32 %29, 1, !llfi_index !400
  store i32 %30, i32* %3, align 4, !llfi_index !401
  br label %10, !llvm.loop !402, !llfi_index !404

31:                                               ; preds = %10
  store i64 0, i64* @s2, align 8, !llfi_index !405
  store i64 0, i64* @s1, align 8, !llfi_index !406
  store i32 89, i32* %2, align 4, !llfi_index !407
  %32 = call i32 @_Z3dfsiii(i32 0, i32 -1, i32 0), !llfi_index !408
  %33 = load i64, i64* @s1, align 8, !llfi_index !409
  %34 = sitofp i64 %33 to double, !llfi_index !410
  %35 = load i64, i64* @s2, align 8, !llfi_index !411
  %36 = sitofp i64 %35 to double, !llfi_index !412
  %37 = fdiv double %34, %36, !llfi_index !413
  %38 = call i32 (i8*, ...) @printf(i8* getelementptr inbounds ([8 x i8], [8 x i8]* @.str.4, i64 0, i64 0), double %37), !llfi_index !414
  ret i32 0, !llfi_index !415
}

declare dso_local %struct._IO_FILE* @freopen(i8*, i8*, %struct._IO_FILE*) #8

declare dso_local zeroext i1 @_ZNSt8ios_base15sync_with_stdioEb(i1 zeroext) #8

declare dso_local nonnull align 8 dereferenceable(16) %"class.std::basic_istream"* @_ZNSirsERi(%"class.std::basic_istream"* nonnull align 8 dereferenceable(16), i32* nonnull align 4 dereferenceable(4)) #8

; Function Attrs: mustprogress noinline uwtable
define linkonce_odr dso_local void @_ZNSt6vectorIiSaIiEE9push_backERKi(%"class.std::vector"* nonnull align 8 dereferenceable(24) %0, i32* nonnull align 4 dereferenceable(4) %1) #4 comdat align 2 {
  %3 = alloca %"class.std::vector"*, align 8, !llfi_index !416
  %4 = alloca i32*, align 8, !llfi_index !417
  %5 = alloca %"class.__gnu_cxx::__normal_iterator", align 8, !llfi_index !418
  store %"class.std::vector"* %0, %"class.std::vector"** %3, align 8, !llfi_index !419
  store i32* %1, i32** %4, align 8, !llfi_index !420
  %6 = load %"class.std::vector"*, %"class.std::vector"** %3, align 8, !llfi_index !421
  %7 = bitcast %"class.std::vector"* %6 to %"struct.std::_Vector_base"*, !llfi_index !422
  %8 = getelementptr inbounds %"struct.std::_Vector_base", %"struct.std::_Vector_base"* %7, i32 0, i32 0, !llfi_index !423
  %9 = bitcast %"struct.std::_Vector_base<int, std::allocator<int>>::_Vector_impl"* %8 to %"struct.std::_Vector_base<int, std::allocator<int>>::_Vector_impl_data"*, !llfi_index !424
  %10 = getelementptr inbounds %"struct.std::_Vector_base<int, std::allocator<int>>::_Vector_impl_data", %"struct.std::_Vector_base<int, std::allocator<int>>::_Vector_impl_data"* %9, i32 0, i32 1, !llfi_index !425
  %11 = load i32*, i32** %10, align 8, !llfi_index !426
  %12 = bitcast %"class.std::vector"* %6 to %"struct.std::_Vector_base"*, !llfi_index !427
  %13 = getelementptr inbounds %"struct.std::_Vector_base", %"struct.std::_Vector_base"* %12, i32 0, i32 0, !llfi_index !428
  %14 = bitcast %"struct.std::_Vector_base<int, std::allocator<int>>::_Vector_impl"* %13 to %"struct.std::_Vector_base<int, std::allocator<int>>::_Vector_impl_data"*, !llfi_index !429
  %15 = getelementptr inbounds %"struct.std::_Vector_base<int, std::allocator<int>>::_Vector_impl_data", %"struct.std::_Vector_base<int, std::allocator<int>>::_Vector_impl_data"* %14, i32 0, i32 2, !llfi_index !430
  %16 = load i32*, i32** %15, align 8, !llfi_index !431
  %17 = icmp ne i32* %11, %16, !llfi_index !432
  br i1 %17, label %18, label %34, !llfi_index !433

18:                                               ; preds = %2
  %19 = bitcast %"class.std::vector"* %6 to %"struct.std::_Vector_base"*, !llfi_index !434
  %20 = getelementptr inbounds %"struct.std::_Vector_base", %"struct.std::_Vector_base"* %19, i32 0, i32 0, !llfi_index !435
  %21 = bitcast %"struct.std::_Vector_base<int, std::allocator<int>>::_Vector_impl"* %20 to %"class.std::allocator"*, !llfi_index !436
  %22 = bitcast %"class.std::vector"* %6 to %"struct.std::_Vector_base"*, !llfi_index !437
  %23 = getelementptr inbounds %"struct.std::_Vector_base", %"struct.std::_Vector_base"* %22, i32 0, i32 0, !llfi_index !438
  %24 = bitcast %"struct.std::_Vector_base<int, std::allocator<int>>::_Vector_impl"* %23 to %"struct.std::_Vector_base<int, std::allocator<int>>::_Vector_impl_data"*, !llfi_index !439
  %25 = getelementptr inbounds %"struct.std::_Vector_base<int, std::allocator<int>>::_Vector_impl_data", %"struct.std::_Vector_base<int, std::allocator<int>>::_Vector_impl_data"* %24, i32 0, i32 1, !llfi_index !440
  %26 = load i32*, i32** %25, align 8, !llfi_index !441
  %27 = load i32*, i32** %4, align 8, !llfi_index !442
  call void @_ZNSt16allocator_traitsISaIiEE9constructIiJRKiEEEvRS0_PT_DpOT0_(%"class.std::allocator"* nonnull align 1 dereferenceable(1) %21, i32* %26, i32* nonnull align 4 dereferenceable(4) %27) #2, !llfi_index !443
  %28 = bitcast %"class.std::vector"* %6 to %"struct.std::_Vector_base"*, !llfi_index !444
  %29 = getelementptr inbounds %"struct.std::_Vector_base", %"struct.std::_Vector_base"* %28, i32 0, i32 0, !llfi_index !445
  %30 = bitcast %"struct.std::_Vector_base<int, std::allocator<int>>::_Vector_impl"* %29 to %"struct.std::_Vector_base<int, std::allocator<int>>::_Vector_impl_data"*, !llfi_index !446
  %31 = getelementptr inbounds %"struct.std::_Vector_base<int, std::allocator<int>>::_Vector_impl_data", %"struct.std::_Vector_base<int, std::allocator<int>>::_Vector_impl_data"* %30, i32 0, i32 1, !llfi_index !447
  %32 = load i32*, i32** %31, align 8, !llfi_index !448
  %33 = getelementptr inbounds i32, i32* %32, i32 1, !llfi_index !449
  store i32* %33, i32** %31, align 8, !llfi_index !450
  br label %40, !llfi_index !451

34:                                               ; preds = %2
  %35 = call i32* @_ZNSt6vectorIiSaIiEE3endEv(%"class.std::vector"* nonnull align 8 dereferenceable(24) %6) #2, !llfi_index !452
  %36 = getelementptr inbounds %"class.__gnu_cxx::__normal_iterator", %"class.__gnu_cxx::__normal_iterator"* %5, i32 0, i32 0, !llfi_index !453
  store i32* %35, i32** %36, align 8, !llfi_index !454
  %37 = load i32*, i32** %4, align 8, !llfi_index !455
  %38 = getelementptr inbounds %"class.__gnu_cxx::__normal_iterator", %"class.__gnu_cxx::__normal_iterator"* %5, i32 0, i32 0, !llfi_index !456
  %39 = load i32*, i32** %38, align 8, !llfi_index !457
  call void @_ZNSt6vectorIiSaIiEE17_M_realloc_insertIJRKiEEEvN9__gnu_cxx17__normal_iteratorIPiS1_EEDpOT_(%"class.std::vector"* nonnull align 8 dereferenceable(24) %6, i32* %39, i32* nonnull align 4 dereferenceable(4) %37), !llfi_index !458
  br label %40, !llfi_index !459

40:                                               ; preds = %34, %18
  ret void, !llfi_index !460
}

declare dso_local i32 @printf(i8*, ...) #8

; Function Attrs: mustprogress noinline nounwind uwtable
define linkonce_odr dso_local void @_ZNSt16allocator_traitsISaIiEE9constructIiJRKiEEEvRS0_PT_DpOT0_(%"class.std::allocator"* nonnull align 1 dereferenceable(1) %0, i32* %1, i32* nonnull align 4 dereferenceable(4) %2) #3 comdat align 2 {
  %4 = alloca %"class.std::allocator"*, align 8, !llfi_index !461
  %5 = alloca i32*, align 8, !llfi_index !462
  %6 = alloca i32*, align 8, !llfi_index !463
  store %"class.std::allocator"* %0, %"class.std::allocator"** %4, align 8, !llfi_index !464
  store i32* %1, i32** %5, align 8, !llfi_index !465
  store i32* %2, i32** %6, align 8, !llfi_index !466
  %7 = load %"class.std::allocator"*, %"class.std::allocator"** %4, align 8, !llfi_index !467
  %8 = bitcast %"class.std::allocator"* %7 to %"class.std::allocator"*, !llfi_index !468
  %9 = load i32*, i32** %5, align 8, !llfi_index !469
  %10 = load i32*, i32** %6, align 8, !llfi_index !470
  %11 = call nonnull align 4 dereferenceable(4) i32* @_ZSt7forwardIRKiEOT_RNSt16remove_referenceIS2_E4typeE(i32* nonnull align 4 dereferenceable(4) %10) #2, !llfi_index !471
  call void @_ZN9__gnu_cxx13new_allocatorIiE9constructIiJRKiEEEvPT_DpOT0_(%"class.std::allocator"* nonnull align 1 dereferenceable(1) %8, i32* %9, i32* nonnull align 4 dereferenceable(4) %11) #2, !llfi_index !472
  ret void, !llfi_index !473
}

; Function Attrs: mustprogress noinline uwtable
define linkonce_odr dso_local void @_ZNSt6vectorIiSaIiEE17_M_realloc_insertIJRKiEEEvN9__gnu_cxx17__normal_iteratorIPiS1_EEDpOT_(%"class.std::vector"* nonnull align 8 dereferenceable(24) %0, i32* %1, i32* nonnull align 4 dereferenceable(4) %2) #4 comdat align 2 {
  %4 = alloca %"class.__gnu_cxx::__normal_iterator", align 8, !llfi_index !474
  %5 = alloca %"class.std::vector"*, align 8, !llfi_index !475
  %6 = alloca i32*, align 8, !llfi_index !476
  %7 = alloca i64, align 8, !llfi_index !477
  %8 = alloca i32*, align 8, !llfi_index !478
  %9 = alloca i32*, align 8, !llfi_index !479
  %10 = alloca i64, align 8, !llfi_index !480
  %11 = alloca %"class.__gnu_cxx::__normal_iterator", align 8, !llfi_index !481
  %12 = alloca i32*, align 8, !llfi_index !482
  %13 = alloca i32*, align 8, !llfi_index !483
  %14 = getelementptr inbounds %"class.__gnu_cxx::__normal_iterator", %"class.__gnu_cxx::__normal_iterator"* %4, i32 0, i32 0, !llfi_index !484
  store i32* %1, i32** %14, align 8, !llfi_index !485
  store %"class.std::vector"* %0, %"class.std::vector"** %5, align 8, !llfi_index !486
  store i32* %2, i32** %6, align 8, !llfi_index !487
  %15 = load %"class.std::vector"*, %"class.std::vector"** %5, align 8, !llfi_index !488
  %16 = call i64 @_ZNKSt6vectorIiSaIiEE12_M_check_lenEmPKc(%"class.std::vector"* nonnull align 8 dereferenceable(24) %15, i64 1, i8* getelementptr inbounds ([26 x i8], [26 x i8]* @.str.5, i64 0, i64 0)), !llfi_index !489
  store i64 %16, i64* %7, align 8, !llfi_index !490
  %17 = bitcast %"class.std::vector"* %15 to %"struct.std::_Vector_base"*, !llfi_index !491
  %18 = getelementptr inbounds %"struct.std::_Vector_base", %"struct.std::_Vector_base"* %17, i32 0, i32 0, !llfi_index !492
  %19 = bitcast %"struct.std::_Vector_base<int, std::allocator<int>>::_Vector_impl"* %18 to %"struct.std::_Vector_base<int, std::allocator<int>>::_Vector_impl_data"*, !llfi_index !493
  %20 = getelementptr inbounds %"struct.std::_Vector_base<int, std::allocator<int>>::_Vector_impl_data", %"struct.std::_Vector_base<int, std::allocator<int>>::_Vector_impl_data"* %19, i32 0, i32 0, !llfi_index !494
  %21 = load i32*, i32** %20, align 8, !llfi_index !495
  store i32* %21, i32** %8, align 8, !llfi_index !496
  %22 = bitcast %"class.std::vector"* %15 to %"struct.std::_Vector_base"*, !llfi_index !497
  %23 = getelementptr inbounds %"struct.std::_Vector_base", %"struct.std::_Vector_base"* %22, i32 0, i32 0, !llfi_index !498
  %24 = bitcast %"struct.std::_Vector_base<int, std::allocator<int>>::_Vector_impl"* %23 to %"struct.std::_Vector_base<int, std::allocator<int>>::_Vector_impl_data"*, !llfi_index !499
  %25 = getelementptr inbounds %"struct.std::_Vector_base<int, std::allocator<int>>::_Vector_impl_data", %"struct.std::_Vector_base<int, std::allocator<int>>::_Vector_impl_data"* %24, i32 0, i32 1, !llfi_index !500
  %26 = load i32*, i32** %25, align 8, !llfi_index !501
  store i32* %26, i32** %9, align 8, !llfi_index !502
  %27 = call i32* @_ZNSt6vectorIiSaIiEE5beginEv(%"class.std::vector"* nonnull align 8 dereferenceable(24) %15) #2, !llfi_index !503
  %28 = getelementptr inbounds %"class.__gnu_cxx::__normal_iterator", %"class.__gnu_cxx::__normal_iterator"* %11, i32 0, i32 0, !llfi_index !504
  store i32* %27, i32** %28, align 8, !llfi_index !505
  %29 = call i64 @_ZN9__gnu_cxxmiIPiSt6vectorIiSaIiEEEENS_17__normal_iteratorIT_T0_E15difference_typeERKS8_SB_(%"class.__gnu_cxx::__normal_iterator"* nonnull align 8 dereferenceable(8) %4, %"class.__gnu_cxx::__normal_iterator"* nonnull align 8 dereferenceable(8) %11) #2, !llfi_index !506
  store i64 %29, i64* %10, align 8, !llfi_index !507
  %30 = bitcast %"class.std::vector"* %15 to %"struct.std::_Vector_base"*, !llfi_index !508
  %31 = load i64, i64* %7, align 8, !llfi_index !509
  %32 = call i32* @_ZNSt12_Vector_baseIiSaIiEE11_M_allocateEm(%"struct.std::_Vector_base"* nonnull align 8 dereferenceable(24) %30, i64 %31), !llfi_index !510
  store i32* %32, i32** %12, align 8, !llfi_index !511
  %33 = load i32*, i32** %12, align 8, !llfi_index !512
  store i32* %33, i32** %13, align 8, !llfi_index !513
  %34 = bitcast %"class.std::vector"* %15 to %"struct.std::_Vector_base"*, !llfi_index !514
  %35 = getelementptr inbounds %"struct.std::_Vector_base", %"struct.std::_Vector_base"* %34, i32 0, i32 0, !llfi_index !515
  %36 = bitcast %"struct.std::_Vector_base<int, std::allocator<int>>::_Vector_impl"* %35 to %"class.std::allocator"*, !llfi_index !516
  %37 = load i32*, i32** %12, align 8, !llfi_index !517
  %38 = load i64, i64* %10, align 8, !llfi_index !518
  %39 = getelementptr inbounds i32, i32* %37, i64 %38, !llfi_index !519
  %40 = load i32*, i32** %6, align 8, !llfi_index !520
  %41 = call nonnull align 4 dereferenceable(4) i32* @_ZSt7forwardIRKiEOT_RNSt16remove_referenceIS2_E4typeE(i32* nonnull align 4 dereferenceable(4) %40) #2, !llfi_index !521
  call void @_ZNSt16allocator_traitsISaIiEE9constructIiJRKiEEEvRS0_PT_DpOT0_(%"class.std::allocator"* nonnull align 1 dereferenceable(1) %36, i32* %39, i32* nonnull align 4 dereferenceable(4) %41) #2, !llfi_index !522
  store i32* null, i32** %13, align 8, !llfi_index !523
  %42 = load i32*, i32** %8, align 8, !llfi_index !524
  %43 = call nonnull align 8 dereferenceable(8) i32** @_ZNK9__gnu_cxx17__normal_iteratorIPiSt6vectorIiSaIiEEE4baseEv(%"class.__gnu_cxx::__normal_iterator"* nonnull align 8 dereferenceable(8) %4) #2, !llfi_index !525
  %44 = load i32*, i32** %43, align 8, !llfi_index !526
  %45 = load i32*, i32** %12, align 8, !llfi_index !527
  %46 = bitcast %"class.std::vector"* %15 to %"struct.std::_Vector_base"*, !llfi_index !528
  %47 = call nonnull align 1 dereferenceable(1) %"class.std::allocator"* @_ZNSt12_Vector_baseIiSaIiEE19_M_get_Tp_allocatorEv(%"struct.std::_Vector_base"* nonnull align 8 dereferenceable(24) %46) #2, !llfi_index !529
  %48 = call i32* @_ZNSt6vectorIiSaIiEE11_S_relocateEPiS2_S2_RS0_(i32* %42, i32* %44, i32* %45, %"class.std::allocator"* nonnull align 1 dereferenceable(1) %47) #2, !llfi_index !530
  store i32* %48, i32** %13, align 8, !llfi_index !531
  %49 = load i32*, i32** %13, align 8, !llfi_index !532
  %50 = getelementptr inbounds i32, i32* %49, i32 1, !llfi_index !533
  store i32* %50, i32** %13, align 8, !llfi_index !534
  %51 = call nonnull align 8 dereferenceable(8) i32** @_ZNK9__gnu_cxx17__normal_iteratorIPiSt6vectorIiSaIiEEE4baseEv(%"class.__gnu_cxx::__normal_iterator"* nonnull align 8 dereferenceable(8) %4) #2, !llfi_index !535
  %52 = load i32*, i32** %51, align 8, !llfi_index !536
  %53 = load i32*, i32** %9, align 8, !llfi_index !537
  %54 = load i32*, i32** %13, align 8, !llfi_index !538
  %55 = bitcast %"class.std::vector"* %15 to %"struct.std::_Vector_base"*, !llfi_index !539
  %56 = call nonnull align 1 dereferenceable(1) %"class.std::allocator"* @_ZNSt12_Vector_baseIiSaIiEE19_M_get_Tp_allocatorEv(%"struct.std::_Vector_base"* nonnull align 8 dereferenceable(24) %55) #2, !llfi_index !540
  %57 = call i32* @_ZNSt6vectorIiSaIiEE11_S_relocateEPiS2_S2_RS0_(i32* %52, i32* %53, i32* %54, %"class.std::allocator"* nonnull align 1 dereferenceable(1) %56) #2, !llfi_index !541
  store i32* %57, i32** %13, align 8, !llfi_index !542
  %58 = bitcast %"class.std::vector"* %15 to %"struct.std::_Vector_base"*, !llfi_index !543
  %59 = load i32*, i32** %8, align 8, !llfi_index !544
  %60 = bitcast %"class.std::vector"* %15 to %"struct.std::_Vector_base"*, !llfi_index !545
  %61 = getelementptr inbounds %"struct.std::_Vector_base", %"struct.std::_Vector_base"* %60, i32 0, i32 0, !llfi_index !546
  %62 = bitcast %"struct.std::_Vector_base<int, std::allocator<int>>::_Vector_impl"* %61 to %"struct.std::_Vector_base<int, std::allocator<int>>::_Vector_impl_data"*, !llfi_index !547
  %63 = getelementptr inbounds %"struct.std::_Vector_base<int, std::allocator<int>>::_Vector_impl_data", %"struct.std::_Vector_base<int, std::allocator<int>>::_Vector_impl_data"* %62, i32 0, i32 2, !llfi_index !548
  %64 = load i32*, i32** %63, align 8, !llfi_index !549
  %65 = load i32*, i32** %8, align 8, !llfi_index !550
  %66 = ptrtoint i32* %64 to i64, !llfi_index !551
  %67 = ptrtoint i32* %65 to i64, !llfi_index !552
  %68 = sub i64 %66, %67, !llfi_index !553
  %69 = sdiv exact i64 %68, 4, !llfi_index !554
  call void @_ZNSt12_Vector_baseIiSaIiEE13_M_deallocateEPim(%"struct.std::_Vector_base"* nonnull align 8 dereferenceable(24) %58, i32* %59, i64 %69), !llfi_index !555
  %70 = load i32*, i32** %12, align 8, !llfi_index !556
  %71 = bitcast %"class.std::vector"* %15 to %"struct.std::_Vector_base"*, !llfi_index !557
  %72 = getelementptr inbounds %"struct.std::_Vector_base", %"struct.std::_Vector_base"* %71, i32 0, i32 0, !llfi_index !558
  %73 = bitcast %"struct.std::_Vector_base<int, std::allocator<int>>::_Vector_impl"* %72 to %"struct.std::_Vector_base<int, std::allocator<int>>::_Vector_impl_data"*, !llfi_index !559
  %74 = getelementptr inbounds %"struct.std::_Vector_base<int, std::allocator<int>>::_Vector_impl_data", %"struct.std::_Vector_base<int, std::allocator<int>>::_Vector_impl_data"* %73, i32 0, i32 0, !llfi_index !560
  store i32* %70, i32** %74, align 8, !llfi_index !561
  %75 = load i32*, i32** %13, align 8, !llfi_index !562
  %76 = bitcast %"class.std::vector"* %15 to %"struct.std::_Vector_base"*, !llfi_index !563
  %77 = getelementptr inbounds %"struct.std::_Vector_base", %"struct.std::_Vector_base"* %76, i32 0, i32 0, !llfi_index !564
  %78 = bitcast %"struct.std::_Vector_base<int, std::allocator<int>>::_Vector_impl"* %77 to %"struct.std::_Vector_base<int, std::allocator<int>>::_Vector_impl_data"*, !llfi_index !565
  %79 = getelementptr inbounds %"struct.std::_Vector_base<int, std::allocator<int>>::_Vector_impl_data", %"struct.std::_Vector_base<int, std::allocator<int>>::_Vector_impl_data"* %78, i32 0, i32 1, !llfi_index !566
  store i32* %75, i32** %79, align 8, !llfi_index !567
  %80 = load i32*, i32** %12, align 8, !llfi_index !568
  %81 = load i64, i64* %7, align 8, !llfi_index !569
  %82 = getelementptr inbounds i32, i32* %80, i64 %81, !llfi_index !570
  %83 = bitcast %"class.std::vector"* %15 to %"struct.std::_Vector_base"*, !llfi_index !571
  %84 = getelementptr inbounds %"struct.std::_Vector_base", %"struct.std::_Vector_base"* %83, i32 0, i32 0, !llfi_index !572
  %85 = bitcast %"struct.std::_Vector_base<int, std::allocator<int>>::_Vector_impl"* %84 to %"struct.std::_Vector_base<int, std::allocator<int>>::_Vector_impl_data"*, !llfi_index !573
  %86 = getelementptr inbounds %"struct.std::_Vector_base<int, std::allocator<int>>::_Vector_impl_data", %"struct.std::_Vector_base<int, std::allocator<int>>::_Vector_impl_data"* %85, i32 0, i32 2, !llfi_index !574
  store i32* %82, i32** %86, align 8, !llfi_index !575
  ret void, !llfi_index !576
}

; Function Attrs: mustprogress noinline uwtable
define linkonce_odr dso_local i64 @_ZNKSt6vectorIiSaIiEE12_M_check_lenEmPKc(%"class.std::vector"* nonnull align 8 dereferenceable(24) %0, i64 %1, i8* %2) #4 comdat align 2 {
  %4 = alloca %"class.std::vector"*, align 8, !llfi_index !577
  %5 = alloca i64, align 8, !llfi_index !578
  %6 = alloca i8*, align 8, !llfi_index !579
  %7 = alloca i64, align 8, !llfi_index !580
  %8 = alloca i64, align 8, !llfi_index !581
  store %"class.std::vector"* %0, %"class.std::vector"** %4, align 8, !llfi_index !582
  store i64 %1, i64* %5, align 8, !llfi_index !583
  store i8* %2, i8** %6, align 8, !llfi_index !584
  %9 = load %"class.std::vector"*, %"class.std::vector"** %4, align 8, !llfi_index !585
  %10 = call i64 @_ZNKSt6vectorIiSaIiEE8max_sizeEv(%"class.std::vector"* nonnull align 8 dereferenceable(24) %9) #2, !llfi_index !586
  %11 = call i64 @_ZNKSt6vectorIiSaIiEE4sizeEv(%"class.std::vector"* nonnull align 8 dereferenceable(24) %9) #2, !llfi_index !587
  %12 = sub i64 %10, %11, !llfi_index !588
  %13 = load i64, i64* %5, align 8, !llfi_index !589
  %14 = icmp ult i64 %12, %13, !llfi_index !590
  br i1 %14, label %15, label %17, !llfi_index !591

15:                                               ; preds = %3
  %16 = load i8*, i8** %6, align 8, !llfi_index !592
  call void @_ZSt20__throw_length_errorPKc(i8* %16) #14, !llfi_index !593
  unreachable, !llfi_index !594

17:                                               ; preds = %3
  %18 = call i64 @_ZNKSt6vectorIiSaIiEE4sizeEv(%"class.std::vector"* nonnull align 8 dereferenceable(24) %9) #2, !llfi_index !595
  %19 = call i64 @_ZNKSt6vectorIiSaIiEE4sizeEv(%"class.std::vector"* nonnull align 8 dereferenceable(24) %9) #2, !llfi_index !596
  store i64 %19, i64* %8, align 8, !llfi_index !597
  %20 = call nonnull align 8 dereferenceable(8) i64* @_ZSt3maxImERKT_S2_S2_(i64* nonnull align 8 dereferenceable(8) %8, i64* nonnull align 8 dereferenceable(8) %5), !llfi_index !598
  %21 = load i64, i64* %20, align 8, !llfi_index !599
  %22 = add i64 %18, %21, !llfi_index !600
  store i64 %22, i64* %7, align 8, !llfi_index !601
  %23 = load i64, i64* %7, align 8, !llfi_index !602
  %24 = call i64 @_ZNKSt6vectorIiSaIiEE4sizeEv(%"class.std::vector"* nonnull align 8 dereferenceable(24) %9) #2, !llfi_index !603
  %25 = icmp ult i64 %23, %24, !llfi_index !604
  br i1 %25, label %30, label %26, !llfi_index !605

26:                                               ; preds = %17
  %27 = load i64, i64* %7, align 8, !llfi_index !606
  %28 = call i64 @_ZNKSt6vectorIiSaIiEE8max_sizeEv(%"class.std::vector"* nonnull align 8 dereferenceable(24) %9) #2, !llfi_index !607
  %29 = icmp ugt i64 %27, %28, !llfi_index !608
  br i1 %29, label %30, label %32, !llfi_index !609

30:                                               ; preds = %26, %17
  %31 = call i64 @_ZNKSt6vectorIiSaIiEE8max_sizeEv(%"class.std::vector"* nonnull align 8 dereferenceable(24) %9) #2, !llfi_index !610
  br label %34, !llfi_index !611

32:                                               ; preds = %26
  %33 = load i64, i64* %7, align 8, !llfi_index !612
  br label %34, !llfi_index !613

34:                                               ; preds = %32, %30
  %35 = phi i64 [ %31, %30 ], [ %33, %32 ], !llfi_index !614
  ret i64 %35, !llfi_index !615
}

; Function Attrs: mustprogress noinline nounwind uwtable
define linkonce_odr dso_local i64 @_ZN9__gnu_cxxmiIPiSt6vectorIiSaIiEEEENS_17__normal_iteratorIT_T0_E15difference_typeERKS8_SB_(%"class.__gnu_cxx::__normal_iterator"* nonnull align 8 dereferenceable(8) %0, %"class.__gnu_cxx::__normal_iterator"* nonnull align 8 dereferenceable(8) %1) #3 comdat {
  %3 = alloca %"class.__gnu_cxx::__normal_iterator"*, align 8, !llfi_index !616
  %4 = alloca %"class.__gnu_cxx::__normal_iterator"*, align 8, !llfi_index !617
  store %"class.__gnu_cxx::__normal_iterator"* %0, %"class.__gnu_cxx::__normal_iterator"** %3, align 8, !llfi_index !618
  store %"class.__gnu_cxx::__normal_iterator"* %1, %"class.__gnu_cxx::__normal_iterator"** %4, align 8, !llfi_index !619
  %5 = load %"class.__gnu_cxx::__normal_iterator"*, %"class.__gnu_cxx::__normal_iterator"** %3, align 8, !llfi_index !620
  %6 = call nonnull align 8 dereferenceable(8) i32** @_ZNK9__gnu_cxx17__normal_iteratorIPiSt6vectorIiSaIiEEE4baseEv(%"class.__gnu_cxx::__normal_iterator"* nonnull align 8 dereferenceable(8) %5) #2, !llfi_index !621
  %7 = load i32*, i32** %6, align 8, !llfi_index !622
  %8 = load %"class.__gnu_cxx::__normal_iterator"*, %"class.__gnu_cxx::__normal_iterator"** %4, align 8, !llfi_index !623
  %9 = call nonnull align 8 dereferenceable(8) i32** @_ZNK9__gnu_cxx17__normal_iteratorIPiSt6vectorIiSaIiEEE4baseEv(%"class.__gnu_cxx::__normal_iterator"* nonnull align 8 dereferenceable(8) %8) #2, !llfi_index !624
  %10 = load i32*, i32** %9, align 8, !llfi_index !625
  %11 = ptrtoint i32* %7 to i64, !llfi_index !626
  %12 = ptrtoint i32* %10 to i64, !llfi_index !627
  %13 = sub i64 %11, %12, !llfi_index !628
  %14 = sdiv exact i64 %13, 4, !llfi_index !629
  ret i64 %14, !llfi_index !630
}

; Function Attrs: mustprogress noinline uwtable
define linkonce_odr dso_local i32* @_ZNSt12_Vector_baseIiSaIiEE11_M_allocateEm(%"struct.std::_Vector_base"* nonnull align 8 dereferenceable(24) %0, i64 %1) #4 comdat align 2 {
  %3 = alloca %"struct.std::_Vector_base"*, align 8, !llfi_index !631
  %4 = alloca i64, align 8, !llfi_index !632
  store %"struct.std::_Vector_base"* %0, %"struct.std::_Vector_base"** %3, align 8, !llfi_index !633
  store i64 %1, i64* %4, align 8, !llfi_index !634
  %5 = load %"struct.std::_Vector_base"*, %"struct.std::_Vector_base"** %3, align 8, !llfi_index !635
  %6 = load i64, i64* %4, align 8, !llfi_index !636
  %7 = icmp ne i64 %6, 0, !llfi_index !637
  br i1 %7, label %8, label %13, !llfi_index !638

8:                                                ; preds = %2
  %9 = getelementptr inbounds %"struct.std::_Vector_base", %"struct.std::_Vector_base"* %5, i32 0, i32 0, !llfi_index !639
  %10 = bitcast %"struct.std::_Vector_base<int, std::allocator<int>>::_Vector_impl"* %9 to %"class.std::allocator"*, !llfi_index !640
  %11 = load i64, i64* %4, align 8, !llfi_index !641
  %12 = call i32* @_ZNSt16allocator_traitsISaIiEE8allocateERS0_m(%"class.std::allocator"* nonnull align 1 dereferenceable(1) %10, i64 %11), !llfi_index !642
  br label %14, !llfi_index !643

13:                                               ; preds = %2
  br label %14, !llfi_index !644

14:                                               ; preds = %13, %8
  %15 = phi i32* [ %12, %8 ], [ null, %13 ], !llfi_index !645
  ret i32* %15, !llfi_index !646
}

; Function Attrs: mustprogress noinline nounwind uwtable
define linkonce_odr dso_local nonnull align 4 dereferenceable(4) i32* @_ZSt7forwardIRKiEOT_RNSt16remove_referenceIS2_E4typeE(i32* nonnull align 4 dereferenceable(4) %0) #3 comdat {
  %2 = alloca i32*, align 8, !llfi_index !647
  store i32* %0, i32** %2, align 8, !llfi_index !648
  %3 = load i32*, i32** %2, align 8, !llfi_index !649
  ret i32* %3, !llfi_index !650
}

; Function Attrs: mustprogress noinline nounwind uwtable
define linkonce_odr dso_local i32* @_ZNSt6vectorIiSaIiEE11_S_relocateEPiS2_S2_RS0_(i32* %0, i32* %1, i32* %2, %"class.std::allocator"* nonnull align 1 dereferenceable(1) %3) #3 comdat align 2 {
  %5 = alloca i32*, align 8, !llfi_index !651
  %6 = alloca i32*, align 8, !llfi_index !652
  %7 = alloca i32*, align 8, !llfi_index !653
  %8 = alloca %"class.std::allocator"*, align 8, !llfi_index !654
  %9 = alloca %"class.std::allocator", align 1, !llfi_index !655
  store i32* %0, i32** %5, align 8, !llfi_index !656
  store i32* %1, i32** %6, align 8, !llfi_index !657
  store i32* %2, i32** %7, align 8, !llfi_index !658
  store %"class.std::allocator"* %3, %"class.std::allocator"** %8, align 8, !llfi_index !659
  %10 = load i32*, i32** %5, align 8, !llfi_index !660
  %11 = load i32*, i32** %6, align 8, !llfi_index !661
  %12 = load i32*, i32** %7, align 8, !llfi_index !662
  %13 = load %"class.std::allocator"*, %"class.std::allocator"** %8, align 8, !llfi_index !663
  %14 = call i32* @_ZNSt6vectorIiSaIiEE14_S_do_relocateEPiS2_S2_RS0_St17integral_constantIbLb1EE(i32* %10, i32* %11, i32* %12, %"class.std::allocator"* nonnull align 1 dereferenceable(1) %13) #2, !llfi_index !664
  ret i32* %14, !llfi_index !665
}

; Function Attrs: mustprogress noinline nounwind uwtable
define linkonce_odr dso_local i32* @_ZNSt6vectorIiSaIiEE14_S_do_relocateEPiS2_S2_RS0_St17integral_constantIbLb1EE(i32* %0, i32* %1, i32* %2, %"class.std::allocator"* nonnull align 1 dereferenceable(1) %3) #3 comdat align 2 {
  %5 = alloca %"class.std::allocator", align 1, !llfi_index !666
  %6 = alloca i32*, align 8, !llfi_index !667
  %7 = alloca i32*, align 8, !llfi_index !668
  %8 = alloca i32*, align 8, !llfi_index !669
  %9 = alloca %"class.std::allocator"*, align 8, !llfi_index !670
  store i32* %0, i32** %6, align 8, !llfi_index !671
  store i32* %1, i32** %7, align 8, !llfi_index !672
  store i32* %2, i32** %8, align 8, !llfi_index !673
  store %"class.std::allocator"* %3, %"class.std::allocator"** %9, align 8, !llfi_index !674
  %10 = load i32*, i32** %6, align 8, !llfi_index !675
  %11 = load i32*, i32** %7, align 8, !llfi_index !676
  %12 = load i32*, i32** %8, align 8, !llfi_index !677
  %13 = load %"class.std::allocator"*, %"class.std::allocator"** %9, align 8, !llfi_index !678
  %14 = call i32* @_ZSt12__relocate_aIPiS0_SaIiEET0_T_S3_S2_RT1_(i32* %10, i32* %11, i32* %12, %"class.std::allocator"* nonnull align 1 dereferenceable(1) %13) #2, !llfi_index !679
  ret i32* %14, !llfi_index !680
}

; Function Attrs: mustprogress noinline nounwind uwtable
define linkonce_odr dso_local i32* @_ZSt12__relocate_aIPiS0_SaIiEET0_T_S3_S2_RT1_(i32* %0, i32* %1, i32* %2, %"class.std::allocator"* nonnull align 1 dereferenceable(1) %3) #3 comdat {
  %5 = alloca i32*, align 8, !llfi_index !681
  %6 = alloca i32*, align 8, !llfi_index !682
  %7 = alloca i32*, align 8, !llfi_index !683
  %8 = alloca %"class.std::allocator"*, align 8, !llfi_index !684
  store i32* %0, i32** %5, align 8, !llfi_index !685
  store i32* %1, i32** %6, align 8, !llfi_index !686
  store i32* %2, i32** %7, align 8, !llfi_index !687
  store %"class.std::allocator"* %3, %"class.std::allocator"** %8, align 8, !llfi_index !688
  %9 = load i32*, i32** %5, align 8, !llfi_index !689
  %10 = call i32* @_ZSt12__niter_baseIPiET_S1_(i32* %9) #2, !llfi_index !690
  %11 = load i32*, i32** %6, align 8, !llfi_index !691
  %12 = call i32* @_ZSt12__niter_baseIPiET_S1_(i32* %11) #2, !llfi_index !692
  %13 = load i32*, i32** %7, align 8, !llfi_index !693
  %14 = call i32* @_ZSt12__niter_baseIPiET_S1_(i32* %13) #2, !llfi_index !694
  %15 = load %"class.std::allocator"*, %"class.std::allocator"** %8, align 8, !llfi_index !695
  %16 = call i32* @_ZSt14__relocate_a_1IiiENSt9enable_ifIXsr3std24__is_bitwise_relocatableIT_EE5valueEPS1_E4typeES2_S2_S2_RSaIT0_E(i32* %10, i32* %12, i32* %14, %"class.std::allocator"* nonnull align 1 dereferenceable(1) %15) #2, !llfi_index !696
  ret i32* %16, !llfi_index !697
}

; Function Attrs: mustprogress noinline nounwind uwtable
define linkonce_odr dso_local i32* @_ZSt12__niter_baseIPiET_S1_(i32* %0) #3 comdat {
  %2 = alloca i32*, align 8, !llfi_index !698
  store i32* %0, i32** %2, align 8, !llfi_index !699
  %3 = load i32*, i32** %2, align 8, !llfi_index !700
  ret i32* %3, !llfi_index !701
}

; Function Attrs: mustprogress noinline nounwind uwtable
define linkonce_odr dso_local i32* @_ZSt14__relocate_a_1IiiENSt9enable_ifIXsr3std24__is_bitwise_relocatableIT_EE5valueEPS1_E4typeES2_S2_S2_RSaIT0_E(i32* %0, i32* %1, i32* %2, %"class.std::allocator"* nonnull align 1 dereferenceable(1) %3) #3 comdat {
  %5 = alloca i32*, align 8, !llfi_index !702
  %6 = alloca i32*, align 8, !llfi_index !703
  %7 = alloca i32*, align 8, !llfi_index !704
  %8 = alloca %"class.std::allocator"*, align 8, !llfi_index !705
  %9 = alloca i64, align 8, !llfi_index !706
  store i32* %0, i32** %5, align 8, !llfi_index !707
  store i32* %1, i32** %6, align 8, !llfi_index !708
  store i32* %2, i32** %7, align 8, !llfi_index !709
  store %"class.std::allocator"* %3, %"class.std::allocator"** %8, align 8, !llfi_index !710
  %10 = load i32*, i32** %6, align 8, !llfi_index !711
  %11 = load i32*, i32** %5, align 8, !llfi_index !712
  %12 = ptrtoint i32* %10 to i64, !llfi_index !713
  %13 = ptrtoint i32* %11 to i64, !llfi_index !714
  %14 = sub i64 %12, %13, !llfi_index !715
  %15 = sdiv exact i64 %14, 4, !llfi_index !716
  store i64 %15, i64* %9, align 8, !llfi_index !717
  %16 = load i64, i64* %9, align 8, !llfi_index !718
  %17 = icmp sgt i64 %16, 0, !llfi_index !719
  br i1 %17, label %18, label %25, !llfi_index !720

18:                                               ; preds = %4
  %19 = load i32*, i32** %7, align 8, !llfi_index !721
  %20 = bitcast i32* %19 to i8*, !llfi_index !722
  %21 = load i32*, i32** %5, align 8, !llfi_index !723
  %22 = bitcast i32* %21 to i8*, !llfi_index !724
  %23 = load i64, i64* %9, align 8, !llfi_index !725
  %24 = mul i64 %23, 4, !llfi_index !726
  call void @llvm.memmove.p0i8.p0i8.i64(i8* align 4 %20, i8* align 4 %22, i64 %24, i1 false), !llfi_index !727
  br label %25, !llfi_index !728

25:                                               ; preds = %18, %4
  %26 = load i32*, i32** %7, align 8, !llfi_index !729
  %27 = load i64, i64* %9, align 8, !llfi_index !730
  %28 = getelementptr inbounds i32, i32* %26, i64 %27, !llfi_index !731
  ret i32* %28, !llfi_index !732
}

; Function Attrs: argmemonly nofree nounwind willreturn
declare void @llvm.memmove.p0i8.p0i8.i64(i8* nocapture writeonly, i8* nocapture readonly, i64, i1 immarg) #10

; Function Attrs: mustprogress noinline uwtable
define linkonce_odr dso_local i32* @_ZNSt16allocator_traitsISaIiEE8allocateERS0_m(%"class.std::allocator"* nonnull align 1 dereferenceable(1) %0, i64 %1) #4 comdat align 2 {
  %3 = alloca %"class.std::allocator"*, align 8, !llfi_index !733
  %4 = alloca i64, align 8, !llfi_index !734
  store %"class.std::allocator"* %0, %"class.std::allocator"** %3, align 8, !llfi_index !735
  store i64 %1, i64* %4, align 8, !llfi_index !736
  %5 = load %"class.std::allocator"*, %"class.std::allocator"** %3, align 8, !llfi_index !737
  %6 = bitcast %"class.std::allocator"* %5 to %"class.std::allocator"*, !llfi_index !738
  %7 = load i64, i64* %4, align 8, !llfi_index !739
  %8 = call i32* @_ZN9__gnu_cxx13new_allocatorIiE8allocateEmPKv(%"class.std::allocator"* nonnull align 1 dereferenceable(1) %6, i64 %7, i8* null), !llfi_index !740
  ret i32* %8, !llfi_index !741
}

; Function Attrs: mustprogress noinline uwtable
define linkonce_odr dso_local i32* @_ZN9__gnu_cxx13new_allocatorIiE8allocateEmPKv(%"class.std::allocator"* nonnull align 1 dereferenceable(1) %0, i64 %1, i8* %2) #4 comdat align 2 {
  %4 = alloca %"class.std::allocator"*, align 8, !llfi_index !742
  %5 = alloca i64, align 8, !llfi_index !743
  %6 = alloca i8*, align 8, !llfi_index !744
  store %"class.std::allocator"* %0, %"class.std::allocator"** %4, align 8, !llfi_index !745
  store i64 %1, i64* %5, align 8, !llfi_index !746
  store i8* %2, i8** %6, align 8, !llfi_index !747
  %7 = load %"class.std::allocator"*, %"class.std::allocator"** %4, align 8, !llfi_index !748
  %8 = load i64, i64* %5, align 8, !llfi_index !749
  %9 = call i64 @_ZNK9__gnu_cxx13new_allocatorIiE8max_sizeEv(%"class.std::allocator"* nonnull align 1 dereferenceable(1) %7) #2, !llfi_index !750
  %10 = icmp ugt i64 %8, %9, !llfi_index !751
  br i1 %10, label %11, label %12, !llfi_index !752

11:                                               ; preds = %3
  call void @_ZSt17__throw_bad_allocv() #14, !llfi_index !753
  unreachable, !llfi_index !754

12:                                               ; preds = %3
  %13 = load i64, i64* %5, align 8, !llfi_index !755
  %14 = mul i64 %13, 4, !llfi_index !756
  %15 = call noalias nonnull i8* @_Znwm(i64 %14) #15, !llfi_index !757
  %16 = bitcast i8* %15 to i32*, !llfi_index !758
  ret i32* %16, !llfi_index !759
}

; Function Attrs: mustprogress noinline nounwind uwtable
define linkonce_odr dso_local i64 @_ZNK9__gnu_cxx13new_allocatorIiE8max_sizeEv(%"class.std::allocator"* nonnull align 1 dereferenceable(1) %0) #3 comdat align 2 {
  %2 = alloca %"class.std::allocator"*, align 8, !llfi_index !760
  store %"class.std::allocator"* %0, %"class.std::allocator"** %2, align 8, !llfi_index !761
  %3 = load %"class.std::allocator"*, %"class.std::allocator"** %2, align 8, !llfi_index !762
  ret i64 2305843009213693951, !llfi_index !763
}

; Function Attrs: noreturn
declare dso_local void @_ZSt17__throw_bad_allocv() #11

; Function Attrs: nobuiltin allocsize(0)
declare dso_local nonnull i8* @_Znwm(i64) #12

; Function Attrs: mustprogress noinline nounwind uwtable
define linkonce_odr dso_local i64 @_ZNKSt6vectorIiSaIiEE8max_sizeEv(%"class.std::vector"* nonnull align 8 dereferenceable(24) %0) #3 comdat align 2 {
  %2 = alloca %"class.std::vector"*, align 8, !llfi_index !764
  store %"class.std::vector"* %0, %"class.std::vector"** %2, align 8, !llfi_index !765
  %3 = load %"class.std::vector"*, %"class.std::vector"** %2, align 8, !llfi_index !766
  %4 = bitcast %"class.std::vector"* %3 to %"struct.std::_Vector_base"*, !llfi_index !767
  %5 = call nonnull align 1 dereferenceable(1) %"class.std::allocator"* @_ZNKSt12_Vector_baseIiSaIiEE19_M_get_Tp_allocatorEv(%"struct.std::_Vector_base"* nonnull align 8 dereferenceable(24) %4) #2, !llfi_index !768
  %6 = call i64 @_ZNSt6vectorIiSaIiEE11_S_max_sizeERKS0_(%"class.std::allocator"* nonnull align 1 dereferenceable(1) %5) #2, !llfi_index !769
  ret i64 %6, !llfi_index !770
}

; Function Attrs: mustprogress noinline nounwind uwtable
define linkonce_odr dso_local i64 @_ZNKSt6vectorIiSaIiEE4sizeEv(%"class.std::vector"* nonnull align 8 dereferenceable(24) %0) #3 comdat align 2 {
  %2 = alloca %"class.std::vector"*, align 8, !llfi_index !771
  store %"class.std::vector"* %0, %"class.std::vector"** %2, align 8, !llfi_index !772
  %3 = load %"class.std::vector"*, %"class.std::vector"** %2, align 8, !llfi_index !773
  %4 = bitcast %"class.std::vector"* %3 to %"struct.std::_Vector_base"*, !llfi_index !774
  %5 = getelementptr inbounds %"struct.std::_Vector_base", %"struct.std::_Vector_base"* %4, i32 0, i32 0, !llfi_index !775
  %6 = bitcast %"struct.std::_Vector_base<int, std::allocator<int>>::_Vector_impl"* %5 to %"struct.std::_Vector_base<int, std::allocator<int>>::_Vector_impl_data"*, !llfi_index !776
  %7 = getelementptr inbounds %"struct.std::_Vector_base<int, std::allocator<int>>::_Vector_impl_data", %"struct.std::_Vector_base<int, std::allocator<int>>::_Vector_impl_data"* %6, i32 0, i32 1, !llfi_index !777
  %8 = load i32*, i32** %7, align 8, !llfi_index !778
  %9 = bitcast %"class.std::vector"* %3 to %"struct.std::_Vector_base"*, !llfi_index !779
  %10 = getelementptr inbounds %"struct.std::_Vector_base", %"struct.std::_Vector_base"* %9, i32 0, i32 0, !llfi_index !780
  %11 = bitcast %"struct.std::_Vector_base<int, std::allocator<int>>::_Vector_impl"* %10 to %"struct.std::_Vector_base<int, std::allocator<int>>::_Vector_impl_data"*, !llfi_index !781
  %12 = getelementptr inbounds %"struct.std::_Vector_base<int, std::allocator<int>>::_Vector_impl_data", %"struct.std::_Vector_base<int, std::allocator<int>>::_Vector_impl_data"* %11, i32 0, i32 0, !llfi_index !782
  %13 = load i32*, i32** %12, align 8, !llfi_index !783
  %14 = ptrtoint i32* %8 to i64, !llfi_index !784
  %15 = ptrtoint i32* %13 to i64, !llfi_index !785
  %16 = sub i64 %14, %15, !llfi_index !786
  %17 = sdiv exact i64 %16, 4, !llfi_index !787
  ret i64 %17, !llfi_index !788
}

; Function Attrs: noreturn
declare dso_local void @_ZSt20__throw_length_errorPKc(i8*) #11

; Function Attrs: mustprogress noinline nounwind uwtable
define linkonce_odr dso_local nonnull align 8 dereferenceable(8) i64* @_ZSt3maxImERKT_S2_S2_(i64* nonnull align 8 dereferenceable(8) %0, i64* nonnull align 8 dereferenceable(8) %1) #3 comdat {
  %3 = alloca i64*, align 8, !llfi_index !789
  %4 = alloca i64*, align 8, !llfi_index !790
  %5 = alloca i64*, align 8, !llfi_index !791
  store i64* %0, i64** %4, align 8, !llfi_index !792
  store i64* %1, i64** %5, align 8, !llfi_index !793
  %6 = load i64*, i64** %4, align 8, !llfi_index !794
  %7 = load i64, i64* %6, align 8, !llfi_index !795
  %8 = load i64*, i64** %5, align 8, !llfi_index !796
  %9 = load i64, i64* %8, align 8, !llfi_index !797
  %10 = icmp ult i64 %7, %9, !llfi_index !798
  br i1 %10, label %11, label %13, !llfi_index !799

11:                                               ; preds = %2
  %12 = load i64*, i64** %5, align 8, !llfi_index !800
  store i64* %12, i64** %3, align 8, !llfi_index !801
  br label %15, !llfi_index !802

13:                                               ; preds = %2
  %14 = load i64*, i64** %4, align 8, !llfi_index !803
  store i64* %14, i64** %3, align 8, !llfi_index !804
  br label %15, !llfi_index !805

15:                                               ; preds = %13, %11
  %16 = load i64*, i64** %3, align 8, !llfi_index !806
  ret i64* %16, !llfi_index !807
}

; Function Attrs: mustprogress noinline nounwind uwtable
define linkonce_odr dso_local nonnull align 1 dereferenceable(1) %"class.std::allocator"* @_ZNKSt12_Vector_baseIiSaIiEE19_M_get_Tp_allocatorEv(%"struct.std::_Vector_base"* nonnull align 8 dereferenceable(24) %0) #3 comdat align 2 {
  %2 = alloca %"struct.std::_Vector_base"*, align 8, !llfi_index !808
  store %"struct.std::_Vector_base"* %0, %"struct.std::_Vector_base"** %2, align 8, !llfi_index !809
  %3 = load %"struct.std::_Vector_base"*, %"struct.std::_Vector_base"** %2, align 8, !llfi_index !810
  %4 = getelementptr inbounds %"struct.std::_Vector_base", %"struct.std::_Vector_base"* %3, i32 0, i32 0, !llfi_index !811
  %5 = bitcast %"struct.std::_Vector_base<int, std::allocator<int>>::_Vector_impl"* %4 to %"class.std::allocator"*, !llfi_index !812
  ret %"class.std::allocator"* %5, !llfi_index !813
}

; Function Attrs: mustprogress noinline nounwind uwtable
define linkonce_odr dso_local i64 @_ZNSt6vectorIiSaIiEE11_S_max_sizeERKS0_(%"class.std::allocator"* nonnull align 1 dereferenceable(1) %0) #3 comdat align 2 personality i8* bitcast (i32 (...)* @__gxx_personality_v0 to i8*) {
  %2 = alloca %"class.std::allocator"*, align 8, !llfi_index !814
  %3 = alloca i64, align 8, !llfi_index !815
  %4 = alloca i64, align 8, !llfi_index !816
  store %"class.std::allocator"* %0, %"class.std::allocator"** %2, align 8, !llfi_index !817
  store i64 2305843009213693951, i64* %3, align 8, !llfi_index !818
  %5 = load %"class.std::allocator"*, %"class.std::allocator"** %2, align 8, !llfi_index !819
  %6 = call i64 @_ZNSt16allocator_traitsISaIiEE8max_sizeERKS0_(%"class.std::allocator"* nonnull align 1 dereferenceable(1) %5) #2, !llfi_index !820
  store i64 %6, i64* %4, align 8, !llfi_index !821
  %7 = invoke nonnull align 8 dereferenceable(8) i64* @_ZSt3minImERKT_S2_S2_(i64* nonnull align 8 dereferenceable(8) %3, i64* nonnull align 8 dereferenceable(8) %4)
          to label %8 unwind label %10, !llfi_index !822

8:                                                ; preds = %1
  %9 = load i64, i64* %7, align 8, !llfi_index !823
  ret i64 %9, !llfi_index !824

10:                                               ; preds = %1
  %11 = landingpad { i8*, i32 }
          catch i8* null, !llfi_index !825
  %12 = extractvalue { i8*, i32 } %11, 0, !llfi_index !826
  call void @__clang_call_terminate(i8* %12) #13, !llfi_index !827
  unreachable, !llfi_index !828
}

; Function Attrs: mustprogress noinline nounwind uwtable
define linkonce_odr dso_local i64 @_ZNSt16allocator_traitsISaIiEE8max_sizeERKS0_(%"class.std::allocator"* nonnull align 1 dereferenceable(1) %0) #3 comdat align 2 {
  %2 = alloca %"class.std::allocator"*, align 8, !llfi_index !829
  store %"class.std::allocator"* %0, %"class.std::allocator"** %2, align 8, !llfi_index !830
  %3 = load %"class.std::allocator"*, %"class.std::allocator"** %2, align 8, !llfi_index !831
  %4 = bitcast %"class.std::allocator"* %3 to %"class.std::allocator"*, !llfi_index !832
  %5 = call i64 @_ZNK9__gnu_cxx13new_allocatorIiE8max_sizeEv(%"class.std::allocator"* nonnull align 1 dereferenceable(1) %4) #2, !llfi_index !833
  ret i64 %5, !llfi_index !834
}

; Function Attrs: mustprogress noinline nounwind uwtable
define linkonce_odr dso_local nonnull align 8 dereferenceable(8) i64* @_ZSt3minImERKT_S2_S2_(i64* nonnull align 8 dereferenceable(8) %0, i64* nonnull align 8 dereferenceable(8) %1) #3 comdat {
  %3 = alloca i64*, align 8, !llfi_index !835
  %4 = alloca i64*, align 8, !llfi_index !836
  %5 = alloca i64*, align 8, !llfi_index !837
  store i64* %0, i64** %4, align 8, !llfi_index !838
  store i64* %1, i64** %5, align 8, !llfi_index !839
  %6 = load i64*, i64** %5, align 8, !llfi_index !840
  %7 = load i64, i64* %6, align 8, !llfi_index !841
  %8 = load i64*, i64** %4, align 8, !llfi_index !842
  %9 = load i64, i64* %8, align 8, !llfi_index !843
  %10 = icmp ult i64 %7, %9, !llfi_index !844
  br i1 %10, label %11, label %13, !llfi_index !845

11:                                               ; preds = %2
  %12 = load i64*, i64** %5, align 8, !llfi_index !846
  store i64* %12, i64** %3, align 8, !llfi_index !847
  br label %15, !llfi_index !848

13:                                               ; preds = %2
  %14 = load i64*, i64** %4, align 8, !llfi_index !849
  store i64* %14, i64** %3, align 8, !llfi_index !850
  br label %15, !llfi_index !851

15:                                               ; preds = %13, %11
  %16 = load i64*, i64** %3, align 8, !llfi_index !852
  ret i64* %16, !llfi_index !853
}

; Function Attrs: mustprogress noinline nounwind uwtable
define linkonce_odr dso_local void @_ZN9__gnu_cxx13new_allocatorIiE9constructIiJRKiEEEvPT_DpOT0_(%"class.std::allocator"* nonnull align 1 dereferenceable(1) %0, i32* %1, i32* nonnull align 4 dereferenceable(4) %2) #3 comdat align 2 {
  %4 = alloca %"class.std::allocator"*, align 8, !llfi_index !854
  %5 = alloca i32*, align 8, !llfi_index !855
  %6 = alloca i32*, align 8, !llfi_index !856
  store %"class.std::allocator"* %0, %"class.std::allocator"** %4, align 8, !llfi_index !857
  store i32* %1, i32** %5, align 8, !llfi_index !858
  store i32* %2, i32** %6, align 8, !llfi_index !859
  %7 = load %"class.std::allocator"*, %"class.std::allocator"** %4, align 8, !llfi_index !860
  %8 = load i32*, i32** %5, align 8, !llfi_index !861
  %9 = bitcast i32* %8 to i8*, !llfi_index !862
  %10 = bitcast i8* %9 to i32*, !llfi_index !863
  %11 = load i32*, i32** %6, align 8, !llfi_index !864
  %12 = call nonnull align 4 dereferenceable(4) i32* @_ZSt7forwardIRKiEOT_RNSt16remove_referenceIS2_E4typeE(i32* nonnull align 4 dereferenceable(4) %11) #2, !llfi_index !865
  %13 = load i32, i32* %12, align 4, !llfi_index !866
  store i32 %13, i32* %10, align 4, !llfi_index !867
  ret void, !llfi_index !868
}

attributes #0 = { noinline uwtable "frame-pointer"="all" "min-legal-vector-width"="0" "no-trapping-math"="true" "stack-protector-buffer-size"="8" "target-cpu"="x86-64" "target-features"="+cx8,+fxsr,+mmx,+sse,+sse2,+x87" "tune-cpu"="generic" }
attributes #1 = { noinline nounwind uwtable "frame-pointer"="all" "min-legal-vector-width"="0" "no-trapping-math"="true" "stack-protector-buffer-size"="8" "target-cpu"="x86-64" "target-features"="+cx8,+fxsr,+mmx,+sse,+sse2,+x87" "tune-cpu"="generic" }
attributes #2 = { nounwind }
attributes #3 = { mustprogress noinline nounwind uwtable "frame-pointer"="all" "min-legal-vector-width"="0" "no-trapping-math"="true" "stack-protector-buffer-size"="8" "target-cpu"="x86-64" "target-features"="+cx8,+fxsr,+mmx,+sse,+sse2,+x87" "tune-cpu"="generic" }
attributes #4 = { mustprogress noinline uwtable "frame-pointer"="all" "min-legal-vector-width"="0" "no-trapping-math"="true" "stack-protector-buffer-size"="8" "target-cpu"="x86-64" "target-features"="+cx8,+fxsr,+mmx,+sse,+sse2,+x87" "tune-cpu"="generic" }
attributes #5 = { noinline noreturn nounwind }
attributes #6 = { nobuiltin nounwind "frame-pointer"="all" "no-trapping-math"="true" "stack-protector-buffer-size"="8" "target-cpu"="x86-64" "target-features"="+cx8,+fxsr,+mmx,+sse,+sse2,+x87" "tune-cpu"="generic" }
attributes #7 = { nounwind "frame-pointer"="all" "no-trapping-math"="true" "stack-protector-buffer-size"="8" "target-cpu"="x86-64" "target-features"="+cx8,+fxsr,+mmx,+sse,+sse2,+x87" "tune-cpu"="generic" }
attributes #8 = { "frame-pointer"="all" "no-trapping-math"="true" "stack-protector-buffer-size"="8" "target-cpu"="x86-64" "target-features"="+cx8,+fxsr,+mmx,+sse,+sse2,+x87" "tune-cpu"="generic" }
attributes #9 = { mustprogress noinline norecurse uwtable "frame-pointer"="all" "min-legal-vector-width"="0" "no-trapping-math"="true" "stack-protector-buffer-size"="8" "target-cpu"="x86-64" "target-features"="+cx8,+fxsr,+mmx,+sse,+sse2,+x87" "tune-cpu"="generic" }
attributes #10 = { argmemonly nofree nounwind willreturn }
attributes #11 = { noreturn "frame-pointer"="all" "no-trapping-math"="true" "stack-protector-buffer-size"="8" "target-cpu"="x86-64" "target-features"="+cx8,+fxsr,+mmx,+sse,+sse2,+x87" "tune-cpu"="generic" }
attributes #12 = { nobuiltin allocsize(0) "frame-pointer"="all" "no-trapping-math"="true" "stack-protector-buffer-size"="8" "target-cpu"="x86-64" "target-features"="+cx8,+fxsr,+mmx,+sse,+sse2,+x87" "tune-cpu"="generic" }
attributes #13 = { noreturn nounwind }
attributes #14 = { noreturn }
attributes #15 = { allocsize(0) }

!llvm.ident = !{!0}
!llvm.module.flags = !{!1, !2, !3}

!0 = !{!"clang version 13.0.0 (https://github.com/llvm/llvm-project.git d7b669b3a30345cfcdb2fde2af6f48aa4b94845d)"}
!1 = !{i32 1, !"wchar_size", i32 4}
!2 = !{i32 7, !"uwtable", i32 1}
!3 = !{i32 7, !"frame-pointer", i32 2}
!4 = !{i64 1}
!5 = !{i64 2}
!6 = !{i64 3}
!7 = !{i64 4}
!8 = !{i64 5}
!9 = !{i64 6}
!10 = !{i64 7}
!11 = !{i64 8}
!12 = !{i64 9}
!13 = !{i64 10}
!14 = !{i64 11}
!15 = !{i64 12}
!16 = !{i64 13}
!17 = !{i64 14}
!18 = !{i64 15}
!19 = !{i64 16}
!20 = !{i64 17}
!21 = !{i64 18}
!22 = !{i64 19}
!23 = !{i64 20}
!24 = !{i64 21}
!25 = !{i64 22}
!26 = !{i64 23}
!27 = !{i64 24}
!28 = !{i64 25}
!29 = !{i64 26}
!30 = !{i64 27}
!31 = !{i64 28}
!32 = !{i64 29}
!33 = !{i64 30}
!34 = !{i64 31}
!35 = !{i64 32}
!36 = !{i64 33}
!37 = !{i64 34}
!38 = !{i64 35}
!39 = !{i64 36}
!40 = !{i64 37}
!41 = !{i64 38}
!42 = !{i64 39}
!43 = !{i64 40}
!44 = !{i64 41}
!45 = !{i64 42}
!46 = !{i64 43}
!47 = !{i64 44}
!48 = !{i64 45}
!49 = !{i64 46}
!50 = !{i64 47}
!51 = !{i64 48}
!52 = !{i64 49}
!53 = !{i64 50}
!54 = !{i64 51}
!55 = !{i64 52}
!56 = !{i64 53}
!57 = !{i64 54}
!58 = !{i64 55}
!59 = !{i64 56}
!60 = !{i64 57}
!61 = !{i64 58}
!62 = !{i64 59}
!63 = !{i64 60}
!64 = !{i64 61}
!65 = !{i64 62}
!66 = !{i64 63}
!67 = !{i64 64}
!68 = !{i64 65}
!69 = !{i64 66}
!70 = !{i64 67}
!71 = !{i64 68}
!72 = !{i64 69}
!73 = !{i64 70}
!74 = !{i64 71}
!75 = !{i64 72}
!76 = !{i64 73}
!77 = !{i64 74}
!78 = !{i64 75}
!79 = !{i64 76}
!80 = !{i64 77}
!81 = !{i64 78}
!82 = !{i64 79}
!83 = !{i64 80}
!84 = !{i64 81}
!85 = !{i64 82}
!86 = !{i64 83}
!87 = !{i64 84}
!88 = !{i64 85}
!89 = !{i64 86}
!90 = !{i64 87}
!91 = !{i64 88}
!92 = !{i64 89}
!93 = !{i64 90}
!94 = !{i64 91}
!95 = !{i64 92}
!96 = !{i64 93}
!97 = !{i64 94}
!98 = !{i64 95}
!99 = !{i64 96}
!100 = !{i64 97}
!101 = !{i64 98}
!102 = !{i64 99}
!103 = !{i64 100}
!104 = !{i64 101}
!105 = !{i64 102}
!106 = !{i64 103}
!107 = !{i64 104}
!108 = !{i64 105}
!109 = !{i64 106}
!110 = !{i64 107}
!111 = !{i64 108}
!112 = !{i64 109}
!113 = !{i64 110}
!114 = !{i64 111}
!115 = !{i64 112}
!116 = !{i64 113}
!117 = !{i64 114}
!118 = !{i64 115}
!119 = !{i64 116}
!120 = !{i64 117}
!121 = !{i64 118}
!122 = !{i64 119}
!123 = !{i64 120}
!124 = !{i64 121}
!125 = !{i64 122}
!126 = !{i64 123}
!127 = !{i64 124}
!128 = !{i64 125}
!129 = !{i64 126}
!130 = !{i64 127}
!131 = !{i64 128}
!132 = !{i64 129}
!133 = !{i64 130}
!134 = !{i64 131}
!135 = !{i64 132}
!136 = !{i64 133}
!137 = !{i64 134}
!138 = !{i64 135}
!139 = !{i64 136}
!140 = !{i64 137}
!141 = !{i64 138}
!142 = !{i64 139}
!143 = !{i64 140}
!144 = !{i64 141}
!145 = !{i64 142}
!146 = !{i64 143}
!147 = !{i64 144}
!148 = !{i64 145}
!149 = !{i64 146}
!150 = !{i64 147}
!151 = !{i64 148}
!152 = !{i64 149}
!153 = !{i64 150}
!154 = !{i64 151}
!155 = !{i64 152}
!156 = !{i64 153}
!157 = !{i64 154}
!158 = !{i64 155}
!159 = !{i64 156}
!160 = !{i64 157}
!161 = !{i64 158}
!162 = !{i64 159}
!163 = !{i64 160}
!164 = !{i64 161}
!165 = !{i64 162}
!166 = !{i64 163}
!167 = !{i64 164}
!168 = !{i64 165}
!169 = !{i64 166}
!170 = !{i64 167}
!171 = !{i64 168}
!172 = !{i64 169}
!173 = !{i64 170}
!174 = !{i64 171}
!175 = !{i64 172}
!176 = !{i64 173}
!177 = !{i64 174}
!178 = !{i64 175}
!179 = !{i64 176}
!180 = !{i64 177}
!181 = !{i64 178}
!182 = !{i64 179}
!183 = !{i64 180}
!184 = !{i64 181}
!185 = !{i64 182}
!186 = !{i64 183}
!187 = !{i64 184}
!188 = !{i64 185}
!189 = !{i64 186}
!190 = !{i64 187}
!191 = !{i64 188}
!192 = !{i64 189}
!193 = !{i64 190}
!194 = !{i64 191}
!195 = !{i64 192}
!196 = !{i64 193}
!197 = !{i64 194}
!198 = !{i64 195}
!199 = !{i64 196}
!200 = !{i64 197}
!201 = !{i64 198}
!202 = !{i64 199}
!203 = !{i64 200}
!204 = !{i64 201}
!205 = !{i64 202}
!206 = !{i64 203}
!207 = !{i64 204}
!208 = !{i64 205}
!209 = !{i64 206}
!210 = !{i64 207}
!211 = !{i64 208}
!212 = !{i64 209}
!213 = !{i64 210}
!214 = !{i64 211}
!215 = !{i64 212}
!216 = !{i64 213}
!217 = !{i64 214}
!218 = !{i64 215}
!219 = !{i64 216}
!220 = !{i64 217}
!221 = !{i64 218}
!222 = !{i64 219}
!223 = !{i64 220}
!224 = !{i64 221}
!225 = !{i64 222}
!226 = !{i64 223}
!227 = !{i64 224}
!228 = !{i64 225}
!229 = !{i64 226}
!230 = !{i64 227}
!231 = !{i64 228}
!232 = !{i64 229}
!233 = !{i64 230}
!234 = !{i64 231}
!235 = !{i64 232}
!236 = !{i64 233}
!237 = !{i64 234}
!238 = !{i64 235}
!239 = !{i64 236}
!240 = !{i64 237}
!241 = !{i64 238}
!242 = !{i64 239}
!243 = !{i64 240}
!244 = !{i64 241}
!245 = !{i64 242}
!246 = !{i64 243}
!247 = !{i64 244}
!248 = !{i64 245}
!249 = !{i64 246}
!250 = !{i64 247}
!251 = !{i64 248}
!252 = !{i64 249}
!253 = !{i64 250}
!254 = !{i64 251}
!255 = !{i64 252}
!256 = !{i64 253}
!257 = !{i64 254}
!258 = !{i64 255}
!259 = !{i64 256}
!260 = !{i64 257}
!261 = !{i64 258}
!262 = !{i64 259}
!263 = !{i64 260}
!264 = !{i64 261}
!265 = !{i64 262}
!266 = !{i64 263}
!267 = !{i64 264}
!268 = !{i64 265}
!269 = !{i64 266}
!270 = !{i64 267}
!271 = !{i64 268}
!272 = !{i64 269}
!273 = !{i64 270}
!274 = !{i64 271}
!275 = !{i64 272}
!276 = !{i64 273}
!277 = !{i64 274}
!278 = !{i64 275}
!279 = !{i64 276}
!280 = !{i64 277}
!281 = !{i64 278}
!282 = !{i64 279}
!283 = !{i64 280}
!284 = !{i64 281}
!285 = !{i64 282}
!286 = !{i64 283}
!287 = !{i64 284}
!288 = !{i64 285}
!289 = !{i64 286}
!290 = !{i64 287}
!291 = !{i64 288}
!292 = !{i64 289}
!293 = !{i64 290}
!294 = !{i64 291}
!295 = !{i64 292}
!296 = !{i64 293}
!297 = !{i64 294}
!298 = !{i64 295}
!299 = !{i64 296}
!300 = !{i64 297}
!301 = !{i64 298}
!302 = !{i64 299}
!303 = !{i64 300}
!304 = !{i64 301}
!305 = !{i64 302}
!306 = !{i64 303}
!307 = !{i64 304}
!308 = !{i64 305}
!309 = !{i64 306}
!310 = !{i64 307}
!311 = !{i64 308}
!312 = !{i64 309}
!313 = !{i64 310}
!314 = !{i64 311}
!315 = !{i64 312}
!316 = !{i64 313}
!317 = !{i64 314}
!318 = !{i64 315}
!319 = !{i64 316}
!320 = !{i64 317}
!321 = !{i64 318}
!322 = !{i64 319}
!323 = !{i64 320}
!324 = !{i64 321}
!325 = !{i64 322}
!326 = !{i64 323}
!327 = !{i64 324}
!328 = !{i64 325}
!329 = !{i64 326}
!330 = !{i64 327}
!331 = !{i64 328}
!332 = !{i64 329}
!333 = !{i64 330}
!334 = !{i64 331}
!335 = !{i64 332}
!336 = !{i64 333}
!337 = !{i64 334}
!338 = !{i64 335}
!339 = !{i64 336}
!340 = !{i64 337}
!341 = !{i64 338}
!342 = !{i64 339}
!343 = !{i64 340}
!344 = !{i64 341}
!345 = !{i64 342}
!346 = !{i64 343}
!347 = !{i64 344}
!348 = !{i64 345}
!349 = !{i64 346}
!350 = !{i64 347}
!351 = !{i64 348}
!352 = !{i64 349}
!353 = !{i64 350}
!354 = !{i64 351}
!355 = !{i64 352}
!356 = !{i64 353}
!357 = !{i64 354}
!358 = !{i64 355}
!359 = !{i64 356}
!360 = !{i64 357}
!361 = !{i64 358}
!362 = !{i64 359}
!363 = !{i64 360}
!364 = !{i64 361}
!365 = !{i64 362}
!366 = !{i64 363}
!367 = !{i64 364}
!368 = !{i64 365}
!369 = !{i64 366}
!370 = !{i64 367}
!371 = !{i64 368}
!372 = !{i64 369}
!373 = !{i64 370}
!374 = !{i64 371}
!375 = !{i64 372}
!376 = !{i64 373}
!377 = !{i64 374}
!378 = !{i64 375}
!379 = !{i64 376}
!380 = !{i64 377}
!381 = !{i64 378}
!382 = !{i64 379}
!383 = !{i64 380}
!384 = !{i64 381}
!385 = !{i64 382}
!386 = !{i64 383}
!387 = !{i64 384}
!388 = !{i64 385}
!389 = !{i64 386}
!390 = !{i64 387}
!391 = !{i64 388}
!392 = !{i64 389}
!393 = !{i64 390}
!394 = !{i64 391}
!395 = !{i64 392}
!396 = !{i64 393}
!397 = !{i64 394}
!398 = !{i64 395}
!399 = !{i64 396}
!400 = !{i64 397}
!401 = !{i64 398}
!402 = distinct !{!402, !403}
!403 = !{!"llvm.loop.mustprogress"}
!404 = !{i64 399}
!405 = !{i64 400}
!406 = !{i64 401}
!407 = !{i64 402}
!408 = !{i64 403}
!409 = !{i64 404}
!410 = !{i64 405}
!411 = !{i64 406}
!412 = !{i64 407}
!413 = !{i64 408}
!414 = !{i64 409}
!415 = !{i64 410}
!416 = !{i64 411}
!417 = !{i64 412}
!418 = !{i64 413}
!419 = !{i64 414}
!420 = !{i64 415}
!421 = !{i64 416}
!422 = !{i64 417}
!423 = !{i64 418}
!424 = !{i64 419}
!425 = !{i64 420}
!426 = !{i64 421}
!427 = !{i64 422}
!428 = !{i64 423}
!429 = !{i64 424}
!430 = !{i64 425}
!431 = !{i64 426}
!432 = !{i64 427}
!433 = !{i64 428}
!434 = !{i64 429}
!435 = !{i64 430}
!436 = !{i64 431}
!437 = !{i64 432}
!438 = !{i64 433}
!439 = !{i64 434}
!440 = !{i64 435}
!441 = !{i64 436}
!442 = !{i64 437}
!443 = !{i64 438}
!444 = !{i64 439}
!445 = !{i64 440}
!446 = !{i64 441}
!447 = !{i64 442}
!448 = !{i64 443}
!449 = !{i64 444}
!450 = !{i64 445}
!451 = !{i64 446}
!452 = !{i64 447}
!453 = !{i64 448}
!454 = !{i64 449}
!455 = !{i64 450}
!456 = !{i64 451}
!457 = !{i64 452}
!458 = !{i64 453}
!459 = !{i64 454}
!460 = !{i64 455}
!461 = !{i64 456}
!462 = !{i64 457}
!463 = !{i64 458}
!464 = !{i64 459}
!465 = !{i64 460}
!466 = !{i64 461}
!467 = !{i64 462}
!468 = !{i64 463}
!469 = !{i64 464}
!470 = !{i64 465}
!471 = !{i64 466}
!472 = !{i64 467}
!473 = !{i64 468}
!474 = !{i64 469}
!475 = !{i64 470}
!476 = !{i64 471}
!477 = !{i64 472}
!478 = !{i64 473}
!479 = !{i64 474}
!480 = !{i64 475}
!481 = !{i64 476}
!482 = !{i64 477}
!483 = !{i64 478}
!484 = !{i64 479}
!485 = !{i64 480}
!486 = !{i64 481}
!487 = !{i64 482}
!488 = !{i64 483}
!489 = !{i64 484}
!490 = !{i64 485}
!491 = !{i64 486}
!492 = !{i64 487}
!493 = !{i64 488}
!494 = !{i64 489}
!495 = !{i64 490}
!496 = !{i64 491}
!497 = !{i64 492}
!498 = !{i64 493}
!499 = !{i64 494}
!500 = !{i64 495}
!501 = !{i64 496}
!502 = !{i64 497}
!503 = !{i64 498}
!504 = !{i64 499}
!505 = !{i64 500}
!506 = !{i64 501}
!507 = !{i64 502}
!508 = !{i64 503}
!509 = !{i64 504}
!510 = !{i64 505}
!511 = !{i64 506}
!512 = !{i64 507}
!513 = !{i64 508}
!514 = !{i64 509}
!515 = !{i64 510}
!516 = !{i64 511}
!517 = !{i64 512}
!518 = !{i64 513}
!519 = !{i64 514}
!520 = !{i64 515}
!521 = !{i64 516}
!522 = !{i64 517}
!523 = !{i64 518}
!524 = !{i64 519}
!525 = !{i64 520}
!526 = !{i64 521}
!527 = !{i64 522}
!528 = !{i64 523}
!529 = !{i64 524}
!530 = !{i64 525}
!531 = !{i64 526}
!532 = !{i64 527}
!533 = !{i64 528}
!534 = !{i64 529}
!535 = !{i64 530}
!536 = !{i64 531}
!537 = !{i64 532}
!538 = !{i64 533}
!539 = !{i64 534}
!540 = !{i64 535}
!541 = !{i64 536}
!542 = !{i64 537}
!543 = !{i64 538}
!544 = !{i64 539}
!545 = !{i64 540}
!546 = !{i64 541}
!547 = !{i64 542}
!548 = !{i64 543}
!549 = !{i64 544}
!550 = !{i64 545}
!551 = !{i64 546}
!552 = !{i64 547}
!553 = !{i64 548}
!554 = !{i64 549}
!555 = !{i64 550}
!556 = !{i64 551}
!557 = !{i64 552}
!558 = !{i64 553}
!559 = !{i64 554}
!560 = !{i64 555}
!561 = !{i64 556}
!562 = !{i64 557}
!563 = !{i64 558}
!564 = !{i64 559}
!565 = !{i64 560}
!566 = !{i64 561}
!567 = !{i64 562}
!568 = !{i64 563}
!569 = !{i64 564}
!570 = !{i64 565}
!571 = !{i64 566}
!572 = !{i64 567}
!573 = !{i64 568}
!574 = !{i64 569}
!575 = !{i64 570}
!576 = !{i64 571}
!577 = !{i64 572}
!578 = !{i64 573}
!579 = !{i64 574}
!580 = !{i64 575}
!581 = !{i64 576}
!582 = !{i64 577}
!583 = !{i64 578}
!584 = !{i64 579}
!585 = !{i64 580}
!586 = !{i64 581}
!587 = !{i64 582}
!588 = !{i64 583}
!589 = !{i64 584}
!590 = !{i64 585}
!591 = !{i64 586}
!592 = !{i64 587}
!593 = !{i64 588}
!594 = !{i64 589}
!595 = !{i64 590}
!596 = !{i64 591}
!597 = !{i64 592}
!598 = !{i64 593}
!599 = !{i64 594}
!600 = !{i64 595}
!601 = !{i64 596}
!602 = !{i64 597}
!603 = !{i64 598}
!604 = !{i64 599}
!605 = !{i64 600}
!606 = !{i64 601}
!607 = !{i64 602}
!608 = !{i64 603}
!609 = !{i64 604}
!610 = !{i64 605}
!611 = !{i64 606}
!612 = !{i64 607}
!613 = !{i64 608}
!614 = !{i64 609}
!615 = !{i64 610}
!616 = !{i64 611}
!617 = !{i64 612}
!618 = !{i64 613}
!619 = !{i64 614}
!620 = !{i64 615}
!621 = !{i64 616}
!622 = !{i64 617}
!623 = !{i64 618}
!624 = !{i64 619}
!625 = !{i64 620}
!626 = !{i64 621}
!627 = !{i64 622}
!628 = !{i64 623}
!629 = !{i64 624}
!630 = !{i64 625}
!631 = !{i64 626}
!632 = !{i64 627}
!633 = !{i64 628}
!634 = !{i64 629}
!635 = !{i64 630}
!636 = !{i64 631}
!637 = !{i64 632}
!638 = !{i64 633}
!639 = !{i64 634}
!640 = !{i64 635}
!641 = !{i64 636}
!642 = !{i64 637}
!643 = !{i64 638}
!644 = !{i64 639}
!645 = !{i64 640}
!646 = !{i64 641}
!647 = !{i64 642}
!648 = !{i64 643}
!649 = !{i64 644}
!650 = !{i64 645}
!651 = !{i64 646}
!652 = !{i64 647}
!653 = !{i64 648}
!654 = !{i64 649}
!655 = !{i64 650}
!656 = !{i64 651}
!657 = !{i64 652}
!658 = !{i64 653}
!659 = !{i64 654}
!660 = !{i64 655}
!661 = !{i64 656}
!662 = !{i64 657}
!663 = !{i64 658}
!664 = !{i64 659}
!665 = !{i64 660}
!666 = !{i64 661}
!667 = !{i64 662}
!668 = !{i64 663}
!669 = !{i64 664}
!670 = !{i64 665}
!671 = !{i64 666}
!672 = !{i64 667}
!673 = !{i64 668}
!674 = !{i64 669}
!675 = !{i64 670}
!676 = !{i64 671}
!677 = !{i64 672}
!678 = !{i64 673}
!679 = !{i64 674}
!680 = !{i64 675}
!681 = !{i64 676}
!682 = !{i64 677}
!683 = !{i64 678}
!684 = !{i64 679}
!685 = !{i64 680}
!686 = !{i64 681}
!687 = !{i64 682}
!688 = !{i64 683}
!689 = !{i64 684}
!690 = !{i64 685}
!691 = !{i64 686}
!692 = !{i64 687}
!693 = !{i64 688}
!694 = !{i64 689}
!695 = !{i64 690}
!696 = !{i64 691}
!697 = !{i64 692}
!698 = !{i64 693}
!699 = !{i64 694}
!700 = !{i64 695}
!701 = !{i64 696}
!702 = !{i64 697}
!703 = !{i64 698}
!704 = !{i64 699}
!705 = !{i64 700}
!706 = !{i64 701}
!707 = !{i64 702}
!708 = !{i64 703}
!709 = !{i64 704}
!710 = !{i64 705}
!711 = !{i64 706}
!712 = !{i64 707}
!713 = !{i64 708}
!714 = !{i64 709}
!715 = !{i64 710}
!716 = !{i64 711}
!717 = !{i64 712}
!718 = !{i64 713}
!719 = !{i64 714}
!720 = !{i64 715}
!721 = !{i64 716}
!722 = !{i64 717}
!723 = !{i64 718}
!724 = !{i64 719}
!725 = !{i64 720}
!726 = !{i64 721}
!727 = !{i64 722}
!728 = !{i64 723}
!729 = !{i64 724}
!730 = !{i64 725}
!731 = !{i64 726}
!732 = !{i64 727}
!733 = !{i64 728}
!734 = !{i64 729}
!735 = !{i64 730}
!736 = !{i64 731}
!737 = !{i64 732}
!738 = !{i64 733}
!739 = !{i64 734}
!740 = !{i64 735}
!741 = !{i64 736}
!742 = !{i64 737}
!743 = !{i64 738}
!744 = !{i64 739}
!745 = !{i64 740}
!746 = !{i64 741}
!747 = !{i64 742}
!748 = !{i64 743}
!749 = !{i64 744}
!750 = !{i64 745}
!751 = !{i64 746}
!752 = !{i64 747}
!753 = !{i64 748}
!754 = !{i64 749}
!755 = !{i64 750}
!756 = !{i64 751}
!757 = !{i64 752}
!758 = !{i64 753}
!759 = !{i64 754}
!760 = !{i64 755}
!761 = !{i64 756}
!762 = !{i64 757}
!763 = !{i64 758}
!764 = !{i64 759}
!765 = !{i64 760}
!766 = !{i64 761}
!767 = !{i64 762}
!768 = !{i64 763}
!769 = !{i64 764}
!770 = !{i64 765}
!771 = !{i64 766}
!772 = !{i64 767}
!773 = !{i64 768}
!774 = !{i64 769}
!775 = !{i64 770}
!776 = !{i64 771}
!777 = !{i64 772}
!778 = !{i64 773}
!779 = !{i64 774}
!780 = !{i64 775}
!781 = !{i64 776}
!782 = !{i64 777}
!783 = !{i64 778}
!784 = !{i64 779}
!785 = !{i64 780}
!786 = !{i64 781}
!787 = !{i64 782}
!788 = !{i64 783}
!789 = !{i64 784}
!790 = !{i64 785}
!791 = !{i64 786}
!792 = !{i64 787}
!793 = !{i64 788}
!794 = !{i64 789}
!795 = !{i64 790}
!796 = !{i64 791}
!797 = !{i64 792}
!798 = !{i64 793}
!799 = !{i64 794}
!800 = !{i64 795}
!801 = !{i64 796}
!802 = !{i64 797}
!803 = !{i64 798}
!804 = !{i64 799}
!805 = !{i64 800}
!806 = !{i64 801}
!807 = !{i64 802}
!808 = !{i64 803}
!809 = !{i64 804}
!810 = !{i64 805}
!811 = !{i64 806}
!812 = !{i64 807}
!813 = !{i64 808}
!814 = !{i64 809}
!815 = !{i64 810}
!816 = !{i64 811}
!817 = !{i64 812}
!818 = !{i64 813}
!819 = !{i64 814}
!820 = !{i64 815}
!821 = !{i64 816}
!822 = !{i64 817}
!823 = !{i64 818}
!824 = !{i64 819}
!825 = !{i64 820}
!826 = !{i64 821}
!827 = !{i64 822}
!828 = !{i64 823}
!829 = !{i64 824}
!830 = !{i64 825}
!831 = !{i64 826}
!832 = !{i64 827}
!833 = !{i64 828}
!834 = !{i64 829}
!835 = !{i64 830}
!836 = !{i64 831}
!837 = !{i64 832}
!838 = !{i64 833}
!839 = !{i64 834}
!840 = !{i64 835}
!841 = !{i64 836}
!842 = !{i64 837}
!843 = !{i64 838}
!844 = !{i64 839}
!845 = !{i64 840}
!846 = !{i64 841}
!847 = !{i64 842}
!848 = !{i64 843}
!849 = !{i64 844}
!850 = !{i64 845}
!851 = !{i64 846}
!852 = !{i64 847}
!853 = !{i64 848}
!854 = !{i64 849}
!855 = !{i64 850}
!856 = !{i64 851}
!857 = !{i64 852}
!858 = !{i64 853}
!859 = !{i64 854}
!860 = !{i64 855}
!861 = !{i64 856}
!862 = !{i64 857}
!863 = !{i64 858}
!864 = !{i64 859}
!865 = !{i64 860}
!866 = !{i64 861}
!867 = !{i64 862}
!868 = !{i64 863}
